; Listing generated by Microsoft (R) Optimizing Compiler Version 13.10.3077 

	TITLE	\darkeden\Designed_Common\Project\Client\Packet\ClientPlayer.cpp
	.386P
include listing.inc
if @Version gt 510
.model FLAT
else
_TEXT	SEGMENT PARA USE32 PUBLIC 'CODE'
_TEXT	ENDS
_DATA	SEGMENT DWORD USE32 PUBLIC 'DATA'
_DATA	ENDS
CONST	SEGMENT DWORD USE32 PUBLIC 'CONST'
CONST	ENDS
_BSS	SEGMENT DWORD USE32 PUBLIC 'BSS'
_BSS	ENDS
$$SYMBOLS	SEGMENT BYTE USE32 'DEBSYM'
$$SYMBOLS	ENDS
$$TYPES	SEGMENT BYTE USE32 'DEBTYP'
$$TYPES	ENDS
_TLS	SEGMENT DWORD USE32 PUBLIC 'TLS'
_TLS	ENDS
;	COMDAT ??_C@_0CA@NDINADEE@SocketOutputStream?$CIm_BufferLen?3?$AA@
CONST	SEGMENT DWORD USE32 PUBLIC 'CONST'
CONST	ENDS
;	COMDAT ??_C@_08LIHEOLAN@?0m_Head?3?$AA@
CONST	SEGMENT DWORD USE32 PUBLIC 'CONST'
CONST	ENDS
;	COMDAT ??_C@_08PCEHPGHK@?0m_Tail?3?$AA@
CONST	SEGMENT DWORD USE32 PUBLIC 'CONST'
CONST	ENDS
;	COMDAT ??_C@_01PKGAHCOL@?$CJ?$AA@
CONST	SEGMENT DWORD USE32 PUBLIC 'CONST'
CONST	ENDS
;	COMDAT ??_C@_0BN@ODLNCKCA@Data?2?2Info?2?2ClientConfig?4inf?$AA@
CONST	SEGMENT DWORD USE32 PUBLIC 'CONST'
CONST	ENDS
;	COMDAT ??_C@_0BM@DFPLPGPC@Data?2?2Info?2?2GuildMapper?4inf?$AA@
CONST	SEGMENT DWORD USE32 PUBLIC 'CONST'
CONST	ENDS
;	COMDAT ??_C@_0BN@LHODHNBK@Data?2?2Info?2?2GuildVersion?4inf?$AA@
CONST	SEGMENT DWORD USE32 PUBLIC 'CONST'
CONST	ENDS
;	COMDAT ??_C@_0BH@DDPLNCOL@Data?2?2Info?2?2Player?4inf?$AA@
CONST	SEGMENT DWORD USE32 PUBLIC 'CONST'
CONST	ENDS
;	COMDAT ??_C@_0BL@ILLNAPHB@Data?2?2Info?2?2Resolution?4inf?$AA@
CONST	SEGMENT DWORD USE32 PUBLIC 'CONST'
CONST	ENDS
;	COMDAT ??_C@_0CA@HEIGFDLG@Data?2?2Info?2?2SelectedChannel?4inf?$AA@
CONST	SEGMENT DWORD USE32 PUBLIC 'CONST'
CONST	ENDS
;	COMDAT ??_C@_0O@JKENFCBN@MinTrace?52003?$AA@
CONST	SEGMENT DWORD USE32 PUBLIC 'CONST'
CONST	ENDS
;	COMDAT ??_C@_0BE@MNEJIGLM@__MinTrace?5Window__?$AA@
CONST	SEGMENT DWORD USE32 PUBLIC 'CONST'
CONST	ENDS
;	COMDAT ??_C@_06KLPNNMEP@?$CF8d?0?$CFs?$AA@
CONST	SEGMENT DWORD USE32 PUBLIC 'CONST'
CONST	ENDS
;	COMDAT ??_C@_0BB@BKKGCCID@?$DNMAP_2000_05_10?$DN?$AA@
CONST	SEGMENT DWORD USE32 PUBLIC 'CONST'
CONST	ENDS
;	COMDAT ??_C@_0CC@FKEPDGNH@?$CK?$CK?$CK?5RECEIVED?5PacketID?$DN?$CFd?0?5Size?$DN?$CF@
CONST	SEGMENT DWORD USE32 PUBLIC 'CONST'
CONST	ENDS
;	COMDAT ??_C@_0EG@PPJFIMJN@?$FLPacketError?9ClientPlayer?3?3proce@
CONST	SEGMENT DWORD USE32 PUBLIC 'CONST'
CONST	ENDS
;	COMDAT ??_C@_0BD@FANDPPKL@Exceed?5PacketID?3?$CFd?$AA@
CONST	SEGMENT DWORD USE32 PUBLIC 'CONST'
CONST	ENDS
;	COMDAT ??_C@_0DP@KCFCDKPH@?$FLPacketError?9ClientPlayer?3?3proce@
CONST	SEGMENT DWORD USE32 PUBLIC 'CONST'
CONST	ENDS
;	COMDAT ??_C@_0CL@BMGGEEHE@?$FLPacketError?$FN?5ignore?5Packet?5when@
CONST	SEGMENT DWORD USE32 PUBLIC 'CONST'
CONST	ENDS
;	COMDAT ??_C@_0BF@PFHKPJMA@invalid?5packet?5ORDER?$AA@
CONST	SEGMENT DWORD USE32 PUBLIC 'CONST'
CONST	ENDS
;	COMDAT ??_C@_0CL@NKGIKJHO@?$FLPacketError?$FN?5too?5large?5packet?5S@
CONST	SEGMENT DWORD USE32 PUBLIC 'CONST'
CONST	ENDS
;	COMDAT ??_C@_0CB@JHIBOMH@too?5large?5PacketSize?5ID?$CJ?$CFd?5?$CFd?1?$CFd@
CONST	SEGMENT DWORD USE32 PUBLIC 'CONST'
CONST	ENDS
;	COMDAT ??_C@_0BG@CMAGOJAN@too?5large?5packet?5SIZE?$AA@
CONST	SEGMENT DWORD USE32 PUBLIC 'CONST'
CONST	ENDS
;	COMDAT ??_C@_0CP@CKIKDDJC@?$FLPacketError?$FN?5InsufficientDataEx@
CONST	SEGMENT DWORD USE32 PUBLIC 'CONST'
CONST	ENDS
;	COMDAT ??_C@_0BD@CEJEDFOE@?$FLPacketExecute?5OK?$FN?$AA@
CONST	SEGMENT DWORD USE32 PUBLIC 'CONST'
CONST	ENDS
;	COMDAT ??_C@_0BE@OLNNBNFA@?$FLPacketExecute?5OK2?$FN?$AA@
CONST	SEGMENT DWORD USE32 PUBLIC 'CONST'
CONST	ENDS
;	COMDAT ??_C@_0EB@FNPFHNHA@?2darkeden?2Designed_Common?2Projec@
CONST	SEGMENT DWORD USE32 PUBLIC 'CONST'
CONST	ENDS
;	COMDAT ??_C@_0FG@HCHAHJIG@?$FLPacketSkip?$FN?5So?5many?5Packets?4?5Ma@
CONST	SEGMENT DWORD USE32 PUBLIC 'CONST'
CONST	ENDS
;	COMDAT ??_C@_0BI@LFOPAFAB@packet?5history?5is?5empty?$AA@
CONST	SEGMENT DWORD USE32 PUBLIC 'CONST'
CONST	ENDS
;	COMDAT ??_C@_0O@FJEGGDPN@ClientPlayer?$CI?$AA@
CONST	SEGMENT DWORD USE32 PUBLIC 'CONST'
CONST	ENDS
;	COMDAT ??_C@_09PKBEGPME@SocketID?3?$AA@
CONST	SEGMENT DWORD USE32 PUBLIC 'CONST'
CONST	ENDS
;	COMDAT ??_C@_06JNDMAKHD@?0Host?3?$AA@
CONST	SEGMENT DWORD USE32 PUBLIC 'CONST'
CONST	ENDS
;	COMDAT ??_C@_0N@GOPDCEEB@basic_string?$AA@
CONST	SEGMENT DWORD USE32 PUBLIC 'CONST'
CONST	ENDS
xdata$x	SEGMENT DWORD USE32 PUBLIC 'CONST'
xdata$x	ENDS
rdata$r	SEGMENT DWORD USE32 PUBLIC 'CONST'
rdata$r	ENDS
text$yc	SEGMENT PARA USE32 PUBLIC 'CODE'
text$yc	ENDS
CRT$XCA	SEGMENT DWORD USE32 PUBLIC 'DATA'
CRT$XCA	ENDS
CRT$XCU	SEGMENT DWORD USE32 PUBLIC 'DATA'
CRT$XCU	ENDS
CRT$XCL	SEGMENT DWORD USE32 PUBLIC 'DATA'
CRT$XCL	ENDS
CRT$XCC	SEGMENT DWORD USE32 PUBLIC 'DATA'
CRT$XCC	ENDS
CRT$XCZ	SEGMENT DWORD USE32 PUBLIC 'DATA'
CRT$XCZ	ENDS
text$yd	SEGMENT PARA USE32 PUBLIC 'CODE'
text$yd	ENDS
;	COMDAT ?getHost@SocketImpl@@QBE?AV?$basic_string@DV?$char_traits@D@_STL@@V?$allocator@D@2@@_STL@@XZ
_TEXT	SEGMENT PARA USE32 PUBLIC 'CODE'
_TEXT	ENDS
;	COMDAT ?getPort@SocketImpl@@QBEIXZ
_TEXT	SEGMENT PARA USE32 PUBLIC 'CODE'
_TEXT	ENDS
;	COMDAT ?isValid@SocketImpl@@QBE_NXZ
_TEXT	SEGMENT PARA USE32 PUBLIC 'CODE'
_TEXT	ENDS
;	COMDAT ?getSOCKET@SocketImpl@@QBEIXZ
_TEXT	SEGMENT PARA USE32 PUBLIC 'CODE'
_TEXT	ENDS
;	COMDAT ?close@Socket@@QAEXXZ
_TEXT	SEGMENT PARA USE32 PUBLIC 'CODE'
_TEXT	ENDS
;	COMDAT ?getHost@Socket@@QBE?AV?$basic_string@DV?$char_traits@D@_STL@@V?$allocator@D@2@@_STL@@XZ
_TEXT	SEGMENT PARA USE32 PUBLIC 'CODE'
_TEXT	ENDS
;	COMDAT ?getSOCKET@Socket@@QBEIXZ
_TEXT	SEGMENT PARA USE32 PUBLIC 'CODE'
_TEXT	ENDS
;	COMDAT ?write@SocketOutputStream@@QAEIG@Z
_TEXT	SEGMENT PARA USE32 PUBLIC 'CODE'
_TEXT	ENDS
;	COMDAT ?write@SocketOutputStream@@QAEII@Z
_TEXT	SEGMENT PARA USE32 PUBLIC 'CODE'
_TEXT	ENDS
;	COMDAT ??1Packet@@UAE@XZ
_TEXT	SEGMENT PARA USE32 PUBLIC 'CODE'
_TEXT	ENDS
;	COMDAT ?read@Packet@@UAEXPAVSocket@@@Z
_TEXT	SEGMENT PARA USE32 PUBLIC 'CODE'
_TEXT	ENDS
;	COMDAT ?write@Packet@@UBEXPAVSocket@@@Z
_TEXT	SEGMENT PARA USE32 PUBLIC 'CODE'
_TEXT	ENDS
;	COMDAT ??_GPacket@@UAEPAXI@Z
_TEXT	SEGMENT PARA USE32 PUBLIC 'CODE'
_TEXT	ENDS
;	COMDAT ??0UnsupportedError@@QAE@ABV0@@Z
_TEXT	SEGMENT PARA USE32 PUBLIC 'CODE'
_TEXT	ENDS
;	COMDAT ??0Error@@QAE@ABV0@@Z
_TEXT	SEGMENT PARA USE32 PUBLIC 'CODE'
_TEXT	ENDS
;	COMDAT ??0Throwable@@QAE@ABV0@@Z
_TEXT	SEGMENT PARA USE32 PUBLIC 'CODE'
_TEXT	ENDS
;	COMDAT ?getPlayerStatus@ClientPlayer@@QBE?AW4PlayerStatus@@XZ
_TEXT	SEGMENT PARA USE32 PUBLIC 'CODE'
_TEXT	ENDS
;	COMDAT ??1PacketFactory@@UAE@XZ
_TEXT	SEGMENT PARA USE32 PUBLIC 'CODE'
_TEXT	ENDS
;	COMDAT ??_GPacketFactory@@UAEPAXI@Z
_TEXT	SEGMENT PARA USE32 PUBLIC 'CODE'
_TEXT	ENDS
;	COMDAT ?start@CNFS@@QAE_NPADH@Z
_TEXT	SEGMENT PARA USE32 PUBLIC 'CODE'
_TEXT	ENDS
;	COMDAT ?end@CNFS@@QAEXXZ
_TEXT	SEGMENT PARA USE32 PUBLIC 'CODE'
_TEXT	ENDS
;	COMDAT ?Init@VirtualFileHeader@@QAEXXZ
_TEXT	SEGMENT PARA USE32 PUBLIC 'CODE'
_TEXT	ENDS
;	COMDAT ??1IFileIO@@UAE@XZ
_TEXT	SEGMENT PARA USE32 PUBLIC 'CODE'
_TEXT	ENDS
;	COMDAT ??_GIFileIO@@UAEPAXI@Z
_TEXT	SEGMENT PARA USE32 PUBLIC 'CODE'
_TEXT	ENDS
;	COMDAT ??0iovfs_base@@QAE@XZ
_TEXT	SEGMENT PARA USE32 PUBLIC 'CODE'
_TEXT	ENDS
;	COMDAT ??_Giovfs_base@@UAEPAXI@Z
_TEXT	SEGMENT PARA USE32 PUBLIC 'CODE'
_TEXT	ENDS
;	COMDAT ??1iovfs_base@@UAE@XZ
_TEXT	SEGMENT PARA USE32 PUBLIC 'CODE'
_TEXT	ENDS
;	COMDAT ?Init@iovfs_base@@QAEXXZ
_TEXT	SEGMENT PARA USE32 PUBLIC 'CODE'
_TEXT	ENDS
;	COMDAT ??_Givfstream@@UAEPAXI@Z
_TEXT	SEGMENT PARA USE32 PUBLIC 'CODE'
_TEXT	ENDS
;	COMDAT ??1ivfstream@@UAE@XZ
_TEXT	SEGMENT PARA USE32 PUBLIC 'CODE'
_TEXT	ENDS
;	COMDAT ?open@ivfstream@@UAEXPBDH@Z
_TEXT	SEGMENT PARA USE32 PUBLIC 'CODE'
_TEXT	ENDS
;	COMDAT ??_Govfstream@@UAEPAXI@Z
_TEXT	SEGMENT PARA USE32 PUBLIC 'CODE'
_TEXT	ENDS
;	COMDAT ??1ovfstream@@UAE@XZ
_TEXT	SEGMENT PARA USE32 PUBLIC 'CODE'
_TEXT	ENDS
;	COMDAT ?open@ovfstream@@UAEXPBDH@Z
_TEXT	SEGMENT PARA USE32 PUBLIC 'CODE'
_TEXT	ENDS
;	COMDAT ?getCode@Encrypter@@QBEEXZ
_TEXT	SEGMENT PARA USE32 PUBLIC 'CODE'
_TEXT	ENDS
;	COMDAT ?convert@Encrypter@@QAE_N_N@Z
_TEXT	SEGMENT PARA USE32 PUBLIC 'CODE'
_TEXT	ENDS
;	COMDAT ?convert@Encrypter@@QAEED@Z
_TEXT	SEGMENT PARA USE32 PUBLIC 'CODE'
_TEXT	ENDS
;	COMDAT ?convert@Encrypter@@QAEEE@Z
_TEXT	SEGMENT PARA USE32 PUBLIC 'CODE'
_TEXT	ENDS
;	COMDAT ?convert@Encrypter@@QAEGF@Z
_TEXT	SEGMENT PARA USE32 PUBLIC 'CODE'
_TEXT	ENDS
;	COMDAT ?convert@Encrypter@@QAEGG@Z
_TEXT	SEGMENT PARA USE32 PUBLIC 'CODE'
_TEXT	ENDS
;	COMDAT ?convert@Encrypter@@QAEIH@Z
_TEXT	SEGMENT PARA USE32 PUBLIC 'CODE'
_TEXT	ENDS
;	COMDAT ?convert@Encrypter@@QAEII@Z
_TEXT	SEGMENT PARA USE32 PUBLIC 'CODE'
_TEXT	ENDS
;	COMDAT ?convert@Encrypter@@QAEJJ@Z
_TEXT	SEGMENT PARA USE32 PUBLIC 'CODE'
_TEXT	ENDS
;	COMDAT ?convert@Encrypter@@QAEKK@Z
_TEXT	SEGMENT PARA USE32 PUBLIC 'CODE'
_TEXT	ENDS
;	COMDAT ??1SocketEncryptInputStream@@UAE@XZ
_TEXT	SEGMENT PARA USE32 PUBLIC 'CODE'
_TEXT	ENDS
;	COMDAT ?setEncryptCode@SocketEncryptInputStream@@QAEXE@Z
_TEXT	SEGMENT PARA USE32 PUBLIC 'CODE'
_TEXT	ENDS
;	COMDAT ??_GSocketEncryptInputStream@@UAEPAXI@Z
_TEXT	SEGMENT PARA USE32 PUBLIC 'CODE'
_TEXT	ENDS
;	COMDAT ??1SocketEncryptOutputStream@@UAE@XZ
_TEXT	SEGMENT PARA USE32 PUBLIC 'CODE'
_TEXT	ENDS
;	COMDAT ?setEncryptCode@SocketEncryptOutputStream@@QAEXE@Z
_TEXT	SEGMENT PARA USE32 PUBLIC 'CODE'
_TEXT	ENDS
;	COMDAT ??_GSocketEncryptOutputStream@@UAEPAXI@Z
_TEXT	SEGMENT PARA USE32 PUBLIC 'CODE'
_TEXT	ENDS
;	COMDAT ?_MinTraceA@@YAXPBD@Z
_TEXT	SEGMENT PARA USE32 PUBLIC 'CODE'
_TEXT	ENDS
;	COMDAT ?_MinTraceErrA@@YAXPBD@Z
_TEXT	SEGMENT PARA USE32 PUBLIC 'CODE'
_TEXT	ENDS
;	COMDAT ?_MinTraceWarA@@YAXPBD@Z
_TEXT	SEGMENT PARA USE32 PUBLIC 'CODE'
_TEXT	ENDS
;	COMDAT ?_ClMinTraceA@@YAXKPBD@Z
_TEXT	SEGMENT PARA USE32 PUBLIC 'CODE'
_TEXT	ENDS
;	COMDAT ?_CmdMinTraceA@@YAXHPBD@Z
_TEXT	SEGMENT PARA USE32 PUBLIC 'CODE'
_TEXT	ENDS
;	COMDAT ?DEBUG_ADD@@YAXPBD@Z
_TEXT	SEGMENT PARA USE32 PUBLIC 'CODE'
_TEXT	ENDS
;	COMDAT ?DEBUG_ADD_ERR@@YAXPBD@Z
_TEXT	SEGMENT PARA USE32 PUBLIC 'CODE'
_TEXT	ENDS
;	COMDAT ?DEBUG_ADD_FORMAT@@YAXPBDZZ
_TEXT	SEGMENT PARA USE32 PUBLIC 'CODE'
_TEXT	ENDS
;	COMDAT ?DEBUG_ADD_FORMAT_ERR@@YAXPBDZZ
_TEXT	SEGMENT PARA USE32 PUBLIC 'CODE'
_TEXT	ENDS
;	COMDAT ?SetBlockAll@MSector@@QAEXXZ
_TEXT	SEGMENT PARA USE32 PUBLIC 'CODE'
_TEXT	ENDS
;	COMDAT ?UnSetBlockAll@MSector@@QAEXXZ
_TEXT	SEGMENT PARA USE32 PUBLIC 'CODE'
_TEXT	ENDS
;	COMDAT ?SetBlockUnderground@MSector@@QAEXXZ
_TEXT	SEGMENT PARA USE32 PUBLIC 'CODE'
_TEXT	ENDS
;	COMDAT ?UnSetBlockUnderground@MSector@@QAEXXZ
_TEXT	SEGMENT PARA USE32 PUBLIC 'CODE'
_TEXT	ENDS
;	COMDAT ?SetBlockGround@MSector@@QAEXXZ
_TEXT	SEGMENT PARA USE32 PUBLIC 'CODE'
_TEXT	ENDS
;	COMDAT ?UnSetBlockGround@MSector@@QAEXXZ
_TEXT	SEGMENT PARA USE32 PUBLIC 'CODE'
_TEXT	ENDS
;	COMDAT ?SetBlockFlying@MSector@@QAEXXZ
_TEXT	SEGMENT PARA USE32 PUBLIC 'CODE'
_TEXT	ENDS
;	COMDAT ?UnSetBlockFlying@MSector@@QAEXXZ
_TEXT	SEGMENT PARA USE32 PUBLIC 'CODE'
_TEXT	ENDS
;	COMDAT ?SetVisitedFlag@MSector@@QAEXXZ
_TEXT	SEGMENT PARA USE32 PUBLIC 'CODE'
_TEXT	ENDS
;	COMDAT ?UnSetVisitedFlag@MSector@@QAEXXZ
_TEXT	SEGMENT PARA USE32 PUBLIC 'CODE'
_TEXT	ENDS
;	COMDAT ?IsVisitedFlag@MSector@@QBE?B_NXZ
_TEXT	SEGMENT PARA USE32 PUBLIC 'CODE'
_TEXT	ENDS
;	COMDAT ?GetID@MZone@@QBEGXZ
_TEXT	SEGMENT PARA USE32 PUBLIC 'CODE'
_TEXT	ENDS
;	COMDAT ??0ClientPlayer@@QAE@PAVSocket@@@Z
_TEXT	SEGMENT PARA USE32 PUBLIC 'CODE'
_TEXT	ENDS
;	COMDAT ??_GClientPlayer@@UAEPAXI@Z
_TEXT	SEGMENT PARA USE32 PUBLIC 'CODE'
_TEXT	ENDS
;	COMDAT ??1ClientPlayer@@UAE@XZ
_TEXT	SEGMENT PARA USE32 PUBLIC 'CODE'
_TEXT	ENDS
;	COMDAT ?processCommand@ClientPlayer@@UAEXXZ
_TEXT	SEGMENT PARA USE32 PUBLIC 'CODE'
_TEXT	ENDS
;	COMDAT ??0InvalidProtocolException@@QAE@ABV0@@Z
_TEXT	SEGMENT PARA USE32 PUBLIC 'CODE'
_TEXT	ENDS
;	COMDAT ??0ProtocolException@@QAE@ABV0@@Z
_TEXT	SEGMENT PARA USE32 PUBLIC 'CODE'
_TEXT	ENDS
;	COMDAT ??0IOException@@QAE@ABV0@@Z
_TEXT	SEGMENT PARA USE32 PUBLIC 'CODE'
_TEXT	ENDS
;	COMDAT ??0Exception@@QAE@ABV0@@Z
_TEXT	SEGMENT PARA USE32 PUBLIC 'CODE'
_TEXT	ENDS
;	COMDAT ??0InsufficientDataException@@QAE@ABV0@@Z
_TEXT	SEGMENT PARA USE32 PUBLIC 'CODE'
_TEXT	ENDS
;	COMDAT ?disconnect@ClientPlayer@@UAEX_N@Z
_TEXT	SEGMENT PARA USE32 PUBLIC 'CODE'
_TEXT	ENDS
;	COMDAT ?getOldPacket@ClientPlayer@@QAEPAVPacket@@I@Z
_TEXT	SEGMENT PARA USE32 PUBLIC 'CODE'
_TEXT	ENDS
;	COMDAT ??0NoSuchElementException@@QAE@ABV0@@Z
_TEXT	SEGMENT PARA USE32 PUBLIC 'CODE'
_TEXT	ENDS
;	COMDAT ??0OutOfBoundException@@QAE@ABV0@@Z
_TEXT	SEGMENT PARA USE32 PUBLIC 'CODE'
_TEXT	ENDS
;	COMDAT ??0RuntimeException@@QAE@ABV0@@Z
_TEXT	SEGMENT PARA USE32 PUBLIC 'CODE'
_TEXT	ENDS
;	COMDAT ?getOldPacket@ClientPlayer@@QAEPAVPacket@@G@Z
_TEXT	SEGMENT PARA USE32 PUBLIC 'CODE'
_TEXT	ENDS
;	COMDAT ?toString@ClientPlayer@@UBE?AV?$basic_string@DV?$char_traits@D@_STL@@V?$allocator@D@2@@_STL@@XZ
_TEXT	SEGMENT PARA USE32 PUBLIC 'CODE'
_TEXT	ENDS
;	COMDAT ?setEncryptCode@ClientPlayer@@QAEXXZ
_TEXT	SEGMENT PARA USE32 PUBLIC 'CODE'
_TEXT	ENDS
;	COMDAT ?eq@?$__char_traits_base@DH@_STL@@SA_NABD0@Z
_TEXT	SEGMENT PARA USE32 PUBLIC 'CODE'
_TEXT	ENDS
;	COMDAT ?not_eof@?$__char_traits_base@DH@_STL@@SAHABH@Z
_TEXT	SEGMENT PARA USE32 PUBLIC 'CODE'
_TEXT	ENDS
;	COMDAT ?eq_int_type@?$__char_traits_base@DH@_STL@@SA_NABH0@Z
_TEXT	SEGMENT PARA USE32 PUBLIC 'CODE'
_TEXT	ENDS
;	COMDAT ?get_allocator@?$basic_string@DV?$char_traits@D@_STL@@V?$allocator@D@2@@_STL@@QBE?AV?$allocator@D@2@XZ
_TEXT	SEGMENT PARA USE32 PUBLIC 'CODE'
_TEXT	ENDS
;	COMDAT ??4?$basic_string@DV?$char_traits@D@_STL@@V?$allocator@D@2@@_STL@@QAEAAV01@PBD@Z
_TEXT	SEGMENT PARA USE32 PUBLIC 'CODE'
_TEXT	ENDS
;	COMDAT ?_M_terminate_string@?$basic_string@DV?$char_traits@D@_STL@@V?$allocator@D@2@@_STL@@AAEXXZ
_TEXT	SEGMENT PARA USE32 PUBLIC 'CODE'
_TEXT	ENDS
;	COMDAT ?size@?$basic_string@DV?$char_traits@D@_STL@@V?$allocator@D@2@@_STL@@QBEIXZ
_TEXT	SEGMENT PARA USE32 PUBLIC 'CODE'
_TEXT	ENDS
;	COMDAT ?c_str@?$basic_string@DV?$char_traits@D@_STL@@V?$allocator@D@2@@_STL@@QBEPBDXZ
_TEXT	SEGMENT PARA USE32 PUBLIC 'CODE'
_TEXT	ENDS
;	COMDAT ??0?$_String_base@DV?$allocator@D@_STL@@@_STL@@QAE@ABV?$allocator@D@1@@Z
_TEXT	SEGMENT PARA USE32 PUBLIC 'CODE'
_TEXT	ENDS
;	COMDAT ?allocate@?$allocator@D@_STL@@QAEPADIPBX@Z
_TEXT	SEGMENT PARA USE32 PUBLIC 'CODE'
_TEXT	ENDS
;	COMDAT ??0?$fpos@H@_STL@@QAE@J@Z
_TEXT	SEGMENT PARA USE32 PUBLIC 'CODE'
_TEXT	ENDS
;	COMDAT ??B?$fpos@H@_STL@@QBEJXZ
_TEXT	SEGMENT PARA USE32 PUBLIC 'CODE'
_TEXT	ENDS
;	COMDAT ?state@?$fpos@H@_STL@@QBEHXZ
_TEXT	SEGMENT PARA USE32 PUBLIC 'CODE'
_TEXT	ENDS
;	COMDAT ?is_open@?$basic_filebuf@DV?$char_traits@D@_STL@@@_STL@@QBE_NXZ
_TEXT	SEGMENT PARA USE32 PUBLIC 'CODE'
_TEXT	ENDS
;	COMDAT ?_M_seek_return@?$basic_filebuf@DV?$char_traits@D@_STL@@@_STL@@AAE?AV?$fpos@H@2@JH@Z
_TEXT	SEGMENT PARA USE32 PUBLIC 'CODE'
_TEXT	ENDS
;	COMDAT ??0?$list@V?$basic_string@DV?$char_traits@D@_STL@@V?$allocator@D@2@@_STL@@V?$allocator@V?$basic_string@DV?$char_traits@D@_STL@@V?$allocator@D@2@@_STL@@@2@@_STL@@QAE@ABV01@@Z
_TEXT	SEGMENT PARA USE32 PUBLIC 'CODE'
_TEXT	ENDS
;	COMDAT ??0?$_Filebuf_Tmp_Buf@D@_STL@@QAE@H@Z
_TEXT	SEGMENT PARA USE32 PUBLIC 'CODE'
_TEXT	ENDS
;	COMDAT ??1?$_Filebuf_Tmp_Buf@D@_STL@@QAE@XZ
_TEXT	SEGMENT PARA USE32 PUBLIC 'CODE'
_TEXT	ENDS
;	COMDAT ?rbegin@?$deque@PAVPacket@@V?$allocator@PAVPacket@@@_STL@@@_STL@@QAE?AV?$reverse_iterator@U?$_Deque_iterator@PAVPacket@@U?$_Nonconst_traits@PAVPacket@@@_STL@@@_STL@@@2@XZ
_TEXT	SEGMENT PARA USE32 PUBLIC 'CODE'
_TEXT	ENDS
;	COMDAT ?rend@?$deque@PAVPacket@@V?$allocator@PAVPacket@@@_STL@@@_STL@@QAE?AV?$reverse_iterator@U?$_Deque_iterator@PAVPacket@@U?$_Nonconst_traits@PAVPacket@@@_STL@@@_STL@@@2@XZ
_TEXT	SEGMENT PARA USE32 PUBLIC 'CODE'
_TEXT	ENDS
;	COMDAT ??A?$deque@PAVPacket@@V?$allocator@PAVPacket@@@_STL@@@_STL@@QAEAAPAVPacket@@I@Z
_TEXT	SEGMENT PARA USE32 PUBLIC 'CODE'
_TEXT	ENDS
;	COMDAT ?front@?$deque@PAVPacket@@V?$allocator@PAVPacket@@@_STL@@@_STL@@QAEAAPAVPacket@@XZ
_TEXT	SEGMENT PARA USE32 PUBLIC 'CODE'
_TEXT	ENDS
;	COMDAT ?size@?$deque@PAVPacket@@V?$allocator@PAVPacket@@@_STL@@@_STL@@QBEIXZ
_TEXT	SEGMENT PARA USE32 PUBLIC 'CODE'
_TEXT	ENDS
;	COMDAT ?empty@?$deque@PAVPacket@@V?$allocator@PAVPacket@@@_STL@@@_STL@@QBE_NXZ
_TEXT	SEGMENT PARA USE32 PUBLIC 'CODE'
_TEXT	ENDS
;	COMDAT ??0?$deque@PAVPacket@@V?$allocator@PAVPacket@@@_STL@@@_STL@@QAE@ABV?$allocator@PAVPacket@@@1@@Z
_TEXT	SEGMENT PARA USE32 PUBLIC 'CODE'
_TEXT	ENDS
;	COMDAT ??1?$deque@PAVPacket@@V?$allocator@PAVPacket@@@_STL@@@_STL@@QAE@XZ
_TEXT	SEGMENT PARA USE32 PUBLIC 'CODE'
_TEXT	ENDS
;	COMDAT ?push_back@?$deque@PAVPacket@@V?$allocator@PAVPacket@@@_STL@@@_STL@@QAEXABQAVPacket@@@Z
_TEXT	SEGMENT PARA USE32 PUBLIC 'CODE'
_TEXT	ENDS
;	COMDAT ?pop_front@?$deque@PAVPacket@@V?$allocator@PAVPacket@@@_STL@@@_STL@@QAEXXZ
_TEXT	SEGMENT PARA USE32 PUBLIC 'CODE'
_TEXT	ENDS
;	COMDAT ??0?$allocator@PAVPacket@@@_STL@@QAE@XZ
_TEXT	SEGMENT PARA USE32 PUBLIC 'CODE'
_TEXT	ENDS
;	COMDAT ??1?$allocator@PAVPacket@@@_STL@@QAE@XZ
_TEXT	SEGMENT PARA USE32 PUBLIC 'CODE'
_TEXT	ENDS
;	COMDAT ?end@?$map@EPAVMObject@@U?$less@E@_STL@@V?$allocator@U?$pair@$$CBEPAVMObject@@@_STL@@@3@@_STL@@QAE?AU?$_Rb_tree_iterator@U?$pair@$$CBEPAVMObject@@@_STL@@U?$_Nonconst_traits@U?$pair@$$CBEPAVMObject@@@_STL@@@2@@2@XZ
_TEXT	SEGMENT PARA USE32 PUBLIC 'CODE'
_TEXT	ENDS
;	COMDAT ?end@?$map@EPAVMObject@@U?$less@E@_STL@@V?$allocator@U?$pair@$$CBEPAVMObject@@@_STL@@@3@@_STL@@QBE?AU?$_Rb_tree_iterator@U?$pair@$$CBEPAVMObject@@@_STL@@U?$_Const_traits@U?$pair@$$CBEPAVMObject@@@_STL@@@2@@2@XZ
_TEXT	SEGMENT PARA USE32 PUBLIC 'CODE'
_TEXT	ENDS
;	COMDAT ?empty@?$map@EPAVMObject@@U?$less@E@_STL@@V?$allocator@U?$pair@$$CBEPAVMObject@@@_STL@@@3@@_STL@@QBE_NXZ
_TEXT	SEGMENT PARA USE32 PUBLIC 'CODE'
_TEXT	ENDS
;	COMDAT ?begin@?$list@PAVMEffect@@V?$allocator@PAVMEffect@@@_STL@@@_STL@@QBE?AU?$_List_iterator@PAVMEffect@@U?$_Const_traits@PAVMEffect@@@_STL@@@2@XZ
_TEXT	SEGMENT PARA USE32 PUBLIC 'CODE'
_TEXT	ENDS
;	COMDAT ?empty@?$list@PAVMEffect@@V?$allocator@PAVMEffect@@@_STL@@@_STL@@QBE_NXZ
_TEXT	SEGMENT PARA USE32 PUBLIC 'CODE'
_TEXT	ENDS
;	COMDAT ?size@?$list@PAVMEffect@@V?$allocator@PAVMEffect@@@_STL@@@_STL@@QBEIXZ
_TEXT	SEGMENT PARA USE32 PUBLIC 'CODE'
_TEXT	ENDS
;	COMDAT ?begin@?$list@VPORTAL_INFO@@V?$allocator@VPORTAL_INFO@@@_STL@@@_STL@@QBE?AU?$_List_iterator@VPORTAL_INFO@@U?$_Const_traits@VPORTAL_INFO@@@_STL@@@2@XZ
_TEXT	SEGMENT PARA USE32 PUBLIC 'CODE'
_TEXT	ENDS
;	COMDAT ?size@?$list@VPORTAL_INFO@@V?$allocator@VPORTAL_INFO@@@_STL@@@_STL@@QBEIXZ
_TEXT	SEGMENT PARA USE32 PUBLIC 'CODE'
_TEXT	ENDS
;	COMDAT ?begin@?$list@VSECTORSOUND_INFO@@V?$allocator@VSECTORSOUND_INFO@@@_STL@@@_STL@@QBE?AU?$_List_iterator@VSECTORSOUND_INFO@@U?$_Const_traits@VSECTORSOUND_INFO@@@_STL@@@2@XZ
_TEXT	SEGMENT PARA USE32 PUBLIC 'CODE'
_TEXT	ENDS
;	COMDAT ?size@?$list@VSECTORSOUND_INFO@@V?$allocator@VSECTORSOUND_INFO@@@_STL@@@_STL@@QBEIXZ
_TEXT	SEGMENT PARA USE32 PUBLIC 'CODE'
_TEXT	ENDS
;	COMDAT ?begin@?$map@IPAVMCreature@@U?$less@I@_STL@@V?$allocator@U?$pair@$$CBIPAVMCreature@@@_STL@@@3@@_STL@@QAE?AU?$_Rb_tree_iterator@U?$pair@$$CBIPAVMCreature@@@_STL@@U?$_Nonconst_traits@U?$pair@$$CBIPAVMCreature@@@_STL@@@2@@2@XZ
_TEXT	SEGMENT PARA USE32 PUBLIC 'CODE'
_TEXT	ENDS
;	COMDAT ?size@?$map@IPAVMCreature@@U?$less@I@_STL@@V?$allocator@U?$pair@$$CBIPAVMCreature@@@_STL@@@3@@_STL@@QBEIXZ
_TEXT	SEGMENT PARA USE32 PUBLIC 'CODE'
_TEXT	ENDS
;	COMDAT ?begin@?$map@IPAVMItem@@U?$less@I@_STL@@V?$allocator@U?$pair@$$CBIPAVMItem@@@_STL@@@3@@_STL@@QAE?AU?$_Rb_tree_iterator@U?$pair@$$CBIPAVMItem@@@_STL@@U?$_Nonconst_traits@U?$pair@$$CBIPAVMItem@@@_STL@@@2@@2@XZ
_TEXT	SEGMENT PARA USE32 PUBLIC 'CODE'
_TEXT	ENDS
;	COMDAT ?size@?$map@IPAVMItem@@U?$less@I@_STL@@V?$allocator@U?$pair@$$CBIPAVMItem@@@_STL@@@3@@_STL@@QBEIXZ
_TEXT	SEGMENT PARA USE32 PUBLIC 'CODE'
_TEXT	ENDS
;	COMDAT ?begin@?$map@IPAVMEffect@@U?$less@I@_STL@@V?$allocator@U?$pair@$$CBIPAVMEffect@@@_STL@@@3@@_STL@@QAE?AU?$_Rb_tree_iterator@U?$pair@$$CBIPAVMEffect@@@_STL@@U?$_Nonconst_traits@U?$pair@$$CBIPAVMEffect@@@_STL@@@2@@2@XZ
_TEXT	SEGMENT PARA USE32 PUBLIC 'CODE'
_TEXT	ENDS
;	COMDAT ?end@?$map@IPAVMEffect@@U?$less@I@_STL@@V?$allocator@U?$pair@$$CBIPAVMEffect@@@_STL@@@3@@_STL@@QAE?AU?$_Rb_tree_iterator@U?$pair@$$CBIPAVMEffect@@@_STL@@U?$_Nonconst_traits@U?$pair@$$CBIPAVMEffect@@@_STL@@@2@@2@XZ
_TEXT	SEGMENT PARA USE32 PUBLIC 'CODE'
_TEXT	ENDS
;	COMDAT ?size@?$map@IPAVMEffect@@U?$less@I@_STL@@V?$allocator@U?$pair@$$CBIPAVMEffect@@@_STL@@@3@@_STL@@QBEIXZ
_TEXT	SEGMENT PARA USE32 PUBLIC 'CODE'
_TEXT	ENDS
;	COMDAT ??0?$_Rb_tree_iterator@U?$pair@$$CBIPAVMCreature@@@_STL@@U?$_Const_traits@U?$pair@$$CBIPAVMCreature@@@_STL@@@2@@_STL@@QAE@ABU?$_Rb_tree_iterator@U?$pair@$$CBIPAVMCreature@@@_STL@@U?$_Nonconst_traits@U?$pair@$$CBIPAVMCreature@@@_STL@@@2@@1@@Z
_TEXT	SEGMENT PARA USE32 PUBLIC 'CODE'
_TEXT	ENDS
;	COMDAT ??0?$_Rb_tree_iterator@U?$pair@$$CBIPAVMItem@@@_STL@@U?$_Const_traits@U?$pair@$$CBIPAVMItem@@@_STL@@@2@@_STL@@QAE@ABU?$_Rb_tree_iterator@U?$pair@$$CBIPAVMItem@@@_STL@@U?$_Nonconst_traits@U?$pair@$$CBIPAVMItem@@@_STL@@@2@@1@@Z
_TEXT	SEGMENT PARA USE32 PUBLIC 'CODE'
_TEXT	ENDS
;	COMDAT ??0?$_Rb_tree_iterator@U?$pair@$$CBIPAVMEffect@@@_STL@@U?$_Const_traits@U?$pair@$$CBIPAVMEffect@@@_STL@@@2@@_STL@@QAE@ABU?$_Rb_tree_iterator@U?$pair@$$CBIPAVMEffect@@@_STL@@U?$_Nonconst_traits@U?$pair@$$CBIPAVMEffect@@@_STL@@@2@@1@@Z
_TEXT	SEGMENT PARA USE32 PUBLIC 'CODE'
_TEXT	ENDS
;	COMDAT ??D?$reverse_iterator@U?$_Deque_iterator@PAVPacket@@U?$_Nonconst_traits@PAVPacket@@@_STL@@@_STL@@@_STL@@QBEAAPAVPacket@@XZ
_TEXT	SEGMENT PARA USE32 PUBLIC 'CODE'
_TEXT	ENDS
;	COMDAT ??E?$reverse_iterator@U?$_Deque_iterator@PAVPacket@@U?$_Nonconst_traits@PAVPacket@@@_STL@@@_STL@@@_STL@@QAE?AV01@H@Z
_TEXT	SEGMENT PARA USE32 PUBLIC 'CODE'
_TEXT	ENDS
;	COMDAT ?_M_terminate_string_aux@?$basic_string@DV?$char_traits@D@_STL@@V?$allocator@D@2@@_STL@@AAEXABU__true_type@2@@Z
_TEXT	SEGMENT PARA USE32 PUBLIC 'CODE'
_TEXT	ENDS
;	COMDAT ?assign@?$basic_string@DV?$char_traits@D@_STL@@V?$allocator@D@2@@_STL@@QAEAAV12@PBD0@Z
_TEXT	SEGMENT PARA USE32 PUBLIC 'CODE'
_TEXT	ENDS
;	COMDAT ??0?$allocator@D@_STL@@QAE@ABV01@@Z
_TEXT	SEGMENT PARA USE32 PUBLIC 'CODE'
_TEXT	ENDS
;	COMDAT ??0?$_STLP_alloc_proxy@PADDV?$allocator@D@_STL@@@_STL@@QAE@ABV?$allocator@D@1@PAD@Z
_TEXT	SEGMENT PARA USE32 PUBLIC 'CODE'
_TEXT	ENDS
;	COMDAT ?state@?$fpos@H@_STL@@QAEXH@Z
_TEXT	SEGMENT PARA USE32 PUBLIC 'CODE'
_TEXT	ENDS
;	COMDAT ?get_allocator@?$_List_base@V?$basic_string@DV?$char_traits@D@_STL@@V?$allocator@D@2@@_STL@@V?$allocator@V?$basic_string@DV?$char_traits@D@_STL@@V?$allocator@D@2@@_STL@@@2@@_STL@@QBE?AV?$allocator@V?$basic_string@DV?$char_traits@D@_STL@@V?$allocator@D@2@@_STL@@@2@XZ
_TEXT	SEGMENT PARA USE32 PUBLIC 'CODE'
_TEXT	ENDS
;	COMDAT ??0?$_Deque_base@PAVPacket@@V?$allocator@PAVPacket@@@_STL@@@_STL@@QAE@ABV?$allocator@PAVPacket@@@1@I@Z
_TEXT	SEGMENT PARA USE32 PUBLIC 'CODE'
_TEXT	ENDS
;	COMDAT ??0?$_Deque_iterator@PAVPacket@@U?$_Nonconst_traits@PAVPacket@@@_STL@@@_STL@@QAE@ABU01@@Z
_TEXT	SEGMENT PARA USE32 PUBLIC 'CODE'
_TEXT	ENDS
;	COMDAT ??D?$_Deque_iterator@PAVPacket@@U?$_Nonconst_traits@PAVPacket@@@_STL@@@_STL@@QBEAAPAVPacket@@XZ
_TEXT	SEGMENT PARA USE32 PUBLIC 'CODE'
_TEXT	ENDS
;	COMDAT ??G?$_Deque_iterator@PAVPacket@@U?$_Nonconst_traits@PAVPacket@@@_STL@@@_STL@@QBEHABU01@@Z
_TEXT	SEGMENT PARA USE32 PUBLIC 'CODE'
_TEXT	ENDS
;	COMDAT ??F?$_Deque_iterator@PAVPacket@@U?$_Nonconst_traits@PAVPacket@@@_STL@@@_STL@@QAEAAU01@XZ
_TEXT	SEGMENT PARA USE32 PUBLIC 'CODE'
_TEXT	ENDS
;	COMDAT ??A?$_Deque_iterator@PAVPacket@@U?$_Nonconst_traits@PAVPacket@@@_STL@@@_STL@@QBEAAPAVPacket@@H@Z
_TEXT	SEGMENT PARA USE32 PUBLIC 'CODE'
_TEXT	ENDS
;	COMDAT ?end@?$_Rb_tree@EU?$pair@$$CBEPAVMObject@@@_STL@@U?$_Select1st@U?$pair@$$CBEPAVMObject@@@_STL@@@2@U?$less@E@2@V?$allocator@U?$pair@$$CBEPAVMObject@@@_STL@@@2@@_STL@@QAE?AU?$_Rb_tree_iterator@U?$pair@$$CBEPAVMObject@@@_STL@@U?$_Nonconst_traits@U?$pair@$$CBEPAVMObject@@@_STL@@@2@@2@XZ
_TEXT	SEGMENT PARA USE32 PUBLIC 'CODE'
_TEXT	ENDS
;	COMDAT ?end@?$_Rb_tree@EU?$pair@$$CBEPAVMObject@@@_STL@@U?$_Select1st@U?$pair@$$CBEPAVMObject@@@_STL@@@2@U?$less@E@2@V?$allocator@U?$pair@$$CBEPAVMObject@@@_STL@@@2@@_STL@@QBE?AU?$_Rb_tree_iterator@U?$pair@$$CBEPAVMObject@@@_STL@@U?$_Const_traits@U?$pair@$$CBEPAVMObject@@@_STL@@@2@@2@XZ
_TEXT	SEGMENT PARA USE32 PUBLIC 'CODE'
_TEXT	ENDS
;	COMDAT ?empty@?$_Rb_tree@EU?$pair@$$CBEPAVMObject@@@_STL@@U?$_Select1st@U?$pair@$$CBEPAVMObject@@@_STL@@@2@U?$less@E@2@V?$allocator@U?$pair@$$CBEPAVMObject@@@_STL@@@2@@_STL@@QBE_NXZ
_TEXT	SEGMENT PARA USE32 PUBLIC 'CODE'
_TEXT	ENDS
;	COMDAT ?end@?$list@PAVMEffect@@V?$allocator@PAVMEffect@@@_STL@@@_STL@@QBE?AU?$_List_iterator@PAVMEffect@@U?$_Const_traits@PAVMEffect@@@_STL@@@2@XZ
_TEXT	SEGMENT PARA USE32 PUBLIC 'CODE'
_TEXT	ENDS
;	COMDAT ?end@?$list@VPORTAL_INFO@@V?$allocator@VPORTAL_INFO@@@_STL@@@_STL@@QBE?AU?$_List_iterator@VPORTAL_INFO@@U?$_Const_traits@VPORTAL_INFO@@@_STL@@@2@XZ
_TEXT	SEGMENT PARA USE32 PUBLIC 'CODE'
_TEXT	ENDS
;	COMDAT ?end@?$list@VSECTORSOUND_INFO@@V?$allocator@VSECTORSOUND_INFO@@@_STL@@@_STL@@QBE?AU?$_List_iterator@VSECTORSOUND_INFO@@U?$_Const_traits@VSECTORSOUND_INFO@@@_STL@@@2@XZ
_TEXT	SEGMENT PARA USE32 PUBLIC 'CODE'
_TEXT	ENDS
;	COMDAT ??0?$_List_iterator@PAVMEffect@@U?$_Const_traits@PAVMEffect@@@_STL@@@_STL@@QAE@PAU?$_List_node@PAVMEffect@@@1@@Z
_TEXT	SEGMENT PARA USE32 PUBLIC 'CODE'
_TEXT	ENDS
;	COMDAT ??0?$_List_iterator@VPORTAL_INFO@@U?$_Const_traits@VPORTAL_INFO@@@_STL@@@_STL@@QAE@PAU?$_List_node@VPORTAL_INFO@@@1@@Z
_TEXT	SEGMENT PARA USE32 PUBLIC 'CODE'
_TEXT	ENDS
;	COMDAT ??0?$_List_iterator@VSECTORSOUND_INFO@@U?$_Const_traits@VSECTORSOUND_INFO@@@_STL@@@_STL@@QAE@PAU?$_List_node@VSECTORSOUND_INFO@@@1@@Z
_TEXT	SEGMENT PARA USE32 PUBLIC 'CODE'
_TEXT	ENDS
;	COMDAT ?begin@?$_Rb_tree@IU?$pair@$$CBIPAVMCreature@@@_STL@@U?$_Select1st@U?$pair@$$CBIPAVMCreature@@@_STL@@@2@U?$less@I@2@V?$allocator@U?$pair@$$CBIPAVMCreature@@@_STL@@@2@@_STL@@QAE?AU?$_Rb_tree_iterator@U?$pair@$$CBIPAVMCreature@@@_STL@@U?$_Nonconst_traits@U?$pair@$$CBIPAVMCreature@@@_STL@@@2@@2@XZ
_TEXT	SEGMENT PARA USE32 PUBLIC 'CODE'
_TEXT	ENDS
;	COMDAT ?size@?$_Rb_tree@IU?$pair@$$CBIPAVMCreature@@@_STL@@U?$_Select1st@U?$pair@$$CBIPAVMCreature@@@_STL@@@2@U?$less@I@2@V?$allocator@U?$pair@$$CBIPAVMCreature@@@_STL@@@2@@_STL@@QBEIXZ
_TEXT	SEGMENT PARA USE32 PUBLIC 'CODE'
_TEXT	ENDS
;	COMDAT ?begin@?$_Rb_tree@IU?$pair@$$CBIPAVMItem@@@_STL@@U?$_Select1st@U?$pair@$$CBIPAVMItem@@@_STL@@@2@U?$less@I@2@V?$allocator@U?$pair@$$CBIPAVMItem@@@_STL@@@2@@_STL@@QAE?AU?$_Rb_tree_iterator@U?$pair@$$CBIPAVMItem@@@_STL@@U?$_Nonconst_traits@U?$pair@$$CBIPAVMItem@@@_STL@@@2@@2@XZ
_TEXT	SEGMENT PARA USE32 PUBLIC 'CODE'
_TEXT	ENDS
;	COMDAT ?size@?$_Rb_tree@IU?$pair@$$CBIPAVMItem@@@_STL@@U?$_Select1st@U?$pair@$$CBIPAVMItem@@@_STL@@@2@U?$less@I@2@V?$allocator@U?$pair@$$CBIPAVMItem@@@_STL@@@2@@_STL@@QBEIXZ
_TEXT	SEGMENT PARA USE32 PUBLIC 'CODE'
_TEXT	ENDS
;	COMDAT ?begin@?$_Rb_tree@IU?$pair@$$CBIPAVMEffect@@@_STL@@U?$_Select1st@U?$pair@$$CBIPAVMEffect@@@_STL@@@2@U?$less@I@2@V?$allocator@U?$pair@$$CBIPAVMEffect@@@_STL@@@2@@_STL@@QAE?AU?$_Rb_tree_iterator@U?$pair@$$CBIPAVMEffect@@@_STL@@U?$_Nonconst_traits@U?$pair@$$CBIPAVMEffect@@@_STL@@@2@@2@XZ
_TEXT	SEGMENT PARA USE32 PUBLIC 'CODE'
_TEXT	ENDS
;	COMDAT ?end@?$_Rb_tree@IU?$pair@$$CBIPAVMEffect@@@_STL@@U?$_Select1st@U?$pair@$$CBIPAVMEffect@@@_STL@@@2@U?$less@I@2@V?$allocator@U?$pair@$$CBIPAVMEffect@@@_STL@@@2@@_STL@@QAE?AU?$_Rb_tree_iterator@U?$pair@$$CBIPAVMEffect@@@_STL@@U?$_Nonconst_traits@U?$pair@$$CBIPAVMEffect@@@_STL@@@2@@2@XZ
_TEXT	SEGMENT PARA USE32 PUBLIC 'CODE'
_TEXT	ENDS
;	COMDAT ?size@?$_Rb_tree@IU?$pair@$$CBIPAVMEffect@@@_STL@@U?$_Select1st@U?$pair@$$CBIPAVMEffect@@@_STL@@@2@U?$less@I@2@V?$allocator@U?$pair@$$CBIPAVMEffect@@@_STL@@@2@@_STL@@QBEIXZ
_TEXT	SEGMENT PARA USE32 PUBLIC 'CODE'
_TEXT	ENDS
;	COMDAT ??0?$reverse_iterator@U?$_Deque_iterator@PAVPacket@@U?$_Nonconst_traits@PAVPacket@@@_STL@@@_STL@@@_STL@@QAE@U?$_Deque_iterator@PAVPacket@@U?$_Nonconst_traits@PAVPacket@@@_STL@@@1@@Z
_TEXT	SEGMENT PARA USE32 PUBLIC 'CODE'
_TEXT	ENDS
;	COMDAT ??0?$reverse_iterator@U?$_Deque_iterator@PAVPacket@@U?$_Nonconst_traits@PAVPacket@@@_STL@@@_STL@@@_STL@@QAE@ABV01@@Z
_TEXT	SEGMENT PARA USE32 PUBLIC 'CODE'
_TEXT	ENDS
;	COMDAT ??1?$_STLP_alloc_proxy@PAPAPAVPacket@@PAPAV1@V?$allocator@PAPAVPacket@@@_STL@@@_STL@@QAE@XZ
_TEXT	SEGMENT PARA USE32 PUBLIC 'CODE'
_TEXT	ENDS
;	COMDAT ??1?$_STLP_alloc_proxy@IPAVPacket@@V?$allocator@PAVPacket@@@_STL@@@_STL@@QAE@XZ
_TEXT	SEGMENT PARA USE32 PUBLIC 'CODE'
_TEXT	ENDS
;	COMDAT ?copy@?$__char_traits_base@DH@_STL@@SAPADPADPBDI@Z
_TEXT	SEGMENT PARA USE32 PUBLIC 'CODE'
_TEXT	ENDS
;	COMDAT ?begin@?$basic_string@DV?$char_traits@D@_STL@@V?$allocator@D@2@@_STL@@QAEPADXZ
_TEXT	SEGMENT PARA USE32 PUBLIC 'CODE'
_TEXT	ENDS
;	COMDAT ?end@?$basic_string@DV?$char_traits@D@_STL@@V?$allocator@D@2@@_STL@@QAEPADXZ
_TEXT	SEGMENT PARA USE32 PUBLIC 'CODE'
_TEXT	ENDS
;	COMDAT ?erase@?$basic_string@DV?$char_traits@D@_STL@@V?$allocator@D@2@@_STL@@QAEPADPAD0@Z
_TEXT	SEGMENT PARA USE32 PUBLIC 'CODE'
_TEXT	ENDS
;	COMDAT ??0?$_Deque_iterator@PAVPacket@@U?$_Nonconst_traits@PAVPacket@@@_STL@@@_STL@@QAE@XZ
_TEXT	SEGMENT PARA USE32 PUBLIC 'CODE'
_TEXT	ENDS
;	COMDAT ??H?$_Deque_iterator@PAVPacket@@U?$_Nonconst_traits@PAVPacket@@@_STL@@@_STL@@QBE?AU01@H@Z
_TEXT	SEGMENT PARA USE32 PUBLIC 'CODE'
_TEXT	ENDS
;	COMDAT ?_M_subtract@?$_Deque_iterator_base@PAVPacket@@@_STL@@QBEHABU12@@Z
_TEXT	SEGMENT PARA USE32 PUBLIC 'CODE'
_TEXT	ENDS
;	COMDAT ?_M_decrement@?$_Deque_iterator_base@PAVPacket@@@_STL@@QAEXXZ
_TEXT	SEGMENT PARA USE32 PUBLIC 'CODE'
_TEXT	ENDS
;	COMDAT ??0?$_STLP_alloc_proxy@PAPAPAVPacket@@PAPAV1@V?$allocator@PAPAVPacket@@@_STL@@@_STL@@QAE@ABV?$allocator@PAPAVPacket@@@1@PAPAPAVPacket@@@Z
_TEXT	SEGMENT PARA USE32 PUBLIC 'CODE'
_TEXT	ENDS
;	COMDAT ??1?$allocator@PAPAVPacket@@@_STL@@QAE@XZ
_TEXT	SEGMENT PARA USE32 PUBLIC 'CODE'
_TEXT	ENDS
;	COMDAT ??0?$_STLP_alloc_proxy@IPAVPacket@@V?$allocator@PAVPacket@@@_STL@@@_STL@@QAE@ABV?$allocator@PAVPacket@@@1@I@Z
_TEXT	SEGMENT PARA USE32 PUBLIC 'CODE'
_TEXT	ENDS
;	COMDAT ??0?$_Rb_tree_iterator@U?$pair@$$CBEPAVMObject@@@_STL@@U?$_Nonconst_traits@U?$pair@$$CBEPAVMObject@@@_STL@@@2@@_STL@@QAE@PAU?$_Rb_tree_node@U?$pair@$$CBEPAVMObject@@@_STL@@@1@@Z
_TEXT	SEGMENT PARA USE32 PUBLIC 'CODE'
_TEXT	ENDS
;	COMDAT ??0?$_Rb_tree_iterator@U?$pair@$$CBEPAVMObject@@@_STL@@U?$_Const_traits@U?$pair@$$CBEPAVMObject@@@_STL@@@2@@_STL@@QAE@PAU?$_Rb_tree_node@U?$pair@$$CBEPAVMObject@@@_STL@@@1@@Z
_TEXT	SEGMENT PARA USE32 PUBLIC 'CODE'
_TEXT	ENDS
;	COMDAT ?_M_leftmost@?$_Rb_tree@IU?$pair@$$CBIPAVMCreature@@@_STL@@U?$_Select1st@U?$pair@$$CBIPAVMCreature@@@_STL@@@2@U?$less@I@2@V?$allocator@U?$pair@$$CBIPAVMCreature@@@_STL@@@2@@_STL@@IBEAAPAU?$_Rb_tree_node@U?$pair@$$CBIPAVMCreature@@@_STL@@@2@XZ
_TEXT	SEGMENT PARA USE32 PUBLIC 'CODE'
_TEXT	ENDS
;	COMDAT ?_M_leftmost@?$_Rb_tree@IU?$pair@$$CBIPAVMItem@@@_STL@@U?$_Select1st@U?$pair@$$CBIPAVMItem@@@_STL@@@2@U?$less@I@2@V?$allocator@U?$pair@$$CBIPAVMItem@@@_STL@@@2@@_STL@@IBEAAPAU?$_Rb_tree_node@U?$pair@$$CBIPAVMItem@@@_STL@@@2@XZ
_TEXT	SEGMENT PARA USE32 PUBLIC 'CODE'
_TEXT	ENDS
;	COMDAT ?_M_leftmost@?$_Rb_tree@IU?$pair@$$CBIPAVMEffect@@@_STL@@U?$_Select1st@U?$pair@$$CBIPAVMEffect@@@_STL@@@2@U?$less@I@2@V?$allocator@U?$pair@$$CBIPAVMEffect@@@_STL@@@2@@_STL@@IBEAAPAU?$_Rb_tree_node@U?$pair@$$CBIPAVMEffect@@@_STL@@@2@XZ
_TEXT	SEGMENT PARA USE32 PUBLIC 'CODE'
_TEXT	ENDS
;	COMDAT ??0?$_Rb_tree_iterator@U?$pair@$$CBIPAVMCreature@@@_STL@@U?$_Nonconst_traits@U?$pair@$$CBIPAVMCreature@@@_STL@@@2@@_STL@@QAE@PAU?$_Rb_tree_node@U?$pair@$$CBIPAVMCreature@@@_STL@@@1@@Z
_TEXT	SEGMENT PARA USE32 PUBLIC 'CODE'
_TEXT	ENDS
;	COMDAT ??0?$_Rb_tree_iterator@U?$pair@$$CBIPAVMItem@@@_STL@@U?$_Nonconst_traits@U?$pair@$$CBIPAVMItem@@@_STL@@@2@@_STL@@QAE@PAU?$_Rb_tree_node@U?$pair@$$CBIPAVMItem@@@_STL@@@1@@Z
_TEXT	SEGMENT PARA USE32 PUBLIC 'CODE'
_TEXT	ENDS
;	COMDAT ??0?$_Rb_tree_iterator@U?$pair@$$CBIPAVMEffect@@@_STL@@U?$_Nonconst_traits@U?$pair@$$CBIPAVMEffect@@@_STL@@@2@@_STL@@QAE@PAU?$_Rb_tree_node@U?$pair@$$CBIPAVMEffect@@@_STL@@@1@@Z
_TEXT	SEGMENT PARA USE32 PUBLIC 'CODE'
_TEXT	ENDS
;	COMDAT ?move@?$__char_traits_base@DH@_STL@@SAPADPADPBDI@Z
_TEXT	SEGMENT PARA USE32 PUBLIC 'CODE'
_TEXT	ENDS
;	COMDAT ??0?$allocator@PAVPacket@@@_STL@@QAE@ABV01@@Z
_TEXT	SEGMENT PARA USE32 PUBLIC 'CODE'
_TEXT	ENDS
;	COMDAT ??Y?$_Deque_iterator@PAVPacket@@U?$_Nonconst_traits@PAVPacket@@@_STL@@@_STL@@QAEAAU01@H@Z
_TEXT	SEGMENT PARA USE32 PUBLIC 'CODE'
_TEXT	ENDS
;	COMDAT ??0?$_Deque_iterator_base@PAVPacket@@@_STL@@QAE@XZ
_TEXT	SEGMENT PARA USE32 PUBLIC 'CODE'
_TEXT	ENDS
;	COMDAT ?_M_set_node@?$_Deque_iterator_base@PAVPacket@@@_STL@@QAEXPAPAPAVPacket@@@Z
_TEXT	SEGMENT PARA USE32 PUBLIC 'CODE'
_TEXT	ENDS
;	COMDAT ??0?$allocator@PAPAVPacket@@@_STL@@QAE@ABV01@@Z
_TEXT	SEGMENT PARA USE32 PUBLIC 'CODE'
_TEXT	ENDS
;	COMDAT ?_M_advance@?$_Deque_iterator_base@PAVPacket@@@_STL@@QAEXH@Z
_TEXT	SEGMENT PARA USE32 PUBLIC 'CODE'
_TEXT	ENDS
;	COMDAT ??$_M_range_initialize@PBD@?$basic_string@DV?$char_traits@D@_STL@@V?$allocator@D@2@@_STL@@AAEXPBD0@Z
_TEXT	SEGMENT PARA USE32 PUBLIC 'CODE'
_TEXT	ENDS
;	COMDAT ??$_M_range_initialize@PAD@?$basic_string@DV?$char_traits@D@_STL@@V?$allocator@D@2@@_STL@@AAEXPAD0@Z
_TEXT	SEGMENT PARA USE32 PUBLIC 'CODE'
_TEXT	ENDS
;	COMDAT ?close@?$basic_filebuf@DV?$char_traits@D@_STL@@@_STL@@QAEPAV12@XZ
_TEXT	SEGMENT PARA USE32 PUBLIC 'CODE'
_TEXT	ENDS
;	COMDAT ?_M_exit_input_mode@?$basic_filebuf@DV?$char_traits@D@_STL@@@_STL@@AAEXXZ
_TEXT	SEGMENT PARA USE32 PUBLIC 'CODE'
_TEXT	ENDS
;	COMDAT ?_M_switch_to_output_mode@?$basic_filebuf@DV?$char_traits@D@_STL@@@_STL@@AAE_NXZ
_TEXT	SEGMENT PARA USE32 PUBLIC 'CODE'
_TEXT	ENDS
;	COMDAT ?_M_output_error@?$basic_filebuf@DV?$char_traits@D@_STL@@@_STL@@AAEHXZ
_TEXT	SEGMENT PARA USE32 PUBLIC 'CODE'
_TEXT	ENDS
;	COMDAT ?_M_allocate_buffers@?$basic_filebuf@DV?$char_traits@D@_STL@@@_STL@@AAE_NPADH@Z
_TEXT	SEGMENT PARA USE32 PUBLIC 'CODE'
_TEXT	ENDS
;	COMDAT ?_M_deallocate_buffers@?$basic_filebuf@DV?$char_traits@D@_STL@@@_STL@@AAEXXZ
_TEXT	SEGMENT PARA USE32 PUBLIC 'CODE'
_TEXT	ENDS
;	COMDAT ?_M_seek_init@?$basic_filebuf@DV?$char_traits@D@_STL@@@_STL@@AAE_N_N@Z
_TEXT	SEGMENT PARA USE32 PUBLIC 'CODE'
_TEXT	ENDS
;	COMDAT ?_M_setup_codecvt@?$basic_filebuf@DV?$char_traits@D@_STL@@@_STL@@AAEXABVlocale@2@@Z
_TEXT	SEGMENT PARA USE32 PUBLIC 'CODE'
_TEXT	ENDS
;	COMDAT ??$equal@PADPADU?$_Eq_traits@V?$char_traits@D@_STL@@@_STL@@@_STL@@YA_NPAD00U?$_Eq_traits@V?$char_traits@D@_STL@@@0@@Z
_TEXT	SEGMENT PARA USE32 PUBLIC 'CODE'
_TEXT	ENDS
;	COMDAT ??$_Destroy@V?$basic_string@DV?$char_traits@D@_STL@@V?$allocator@D@2@@_STL@@@_STL@@YAXPAV?$basic_string@DV?$char_traits@D@_STL@@V?$allocator@D@2@@0@@Z
_TEXT	SEGMENT PARA USE32 PUBLIC 'CODE'
_TEXT	ENDS
;	COMDAT ??$_M_assign_dispatch@PAD@?$basic_string@DV?$char_traits@D@_STL@@V?$allocator@D@2@@_STL@@AAEAAV01@PAD0ABU__false_type@1@@Z
_TEXT	SEGMENT PARA USE32 PUBLIC 'CODE'
_TEXT	ENDS
;	COMDAT ??1?$_Deque_base@PAVPacket@@V?$allocator@PAVPacket@@@_STL@@@_STL@@QAE@XZ
_TEXT	SEGMENT PARA USE32 PUBLIC 'CODE'
_TEXT	ENDS
;	COMDAT ?_M_initialize_map@?$_Deque_base@PAVPacket@@V?$allocator@PAVPacket@@@_STL@@@_STL@@IAEXI@Z
_TEXT	SEGMENT PARA USE32 PUBLIC 'CODE'
_TEXT	ENDS
;	COMDAT ?_M_push_back_aux_v@?$deque@PAVPacket@@V?$allocator@PAVPacket@@@_STL@@@_STL@@IAEXABQAVPacket@@@Z
_TEXT	SEGMENT PARA USE32 PUBLIC 'CODE'
_TEXT	ENDS
;	COMDAT ?_M_pop_front_aux@?$deque@PAVPacket@@V?$allocator@PAVPacket@@@_STL@@@_STL@@IAEXXZ
_TEXT	SEGMENT PARA USE32 PUBLIC 'CODE'
_TEXT	ENDS
;	COMDAT ?clear@?$_List_base@PAVMEffect@@V?$allocator@PAVMEffect@@@_STL@@@_STL@@QAEXXZ
_TEXT	SEGMENT PARA USE32 PUBLIC 'CODE'
_TEXT	ENDS
;	COMDAT ??1?$CTypeMap2@VMHelicopter@@@@UAE@XZ
_TEXT	SEGMENT PARA USE32 PUBLIC 'CODE'
_TEXT	ENDS
;	COMDAT ?Release@?$CTypeMap2@VMHelicopter@@@@UAEXXZ
_TEXT	SEGMENT PARA USE32 PUBLIC 'CODE'
_TEXT	ENDS
;	COMDAT ?AddData@?$CTypeMap2@VMHelicopter@@@@UAE_NIPAVMHelicopter@@@Z
_TEXT	SEGMENT PARA USE32 PUBLIC 'CODE'
_TEXT	ENDS
;	COMDAT ?GetData@?$CTypeMap2@VMHelicopter@@@@UBEPBVMHelicopter@@I@Z
_TEXT	SEGMENT PARA USE32 PUBLIC 'CODE'
_TEXT	ENDS
;	COMDAT ?GetData@?$CTypeMap2@VMHelicopter@@@@UAEPAVMHelicopter@@I@Z
_TEXT	SEGMENT PARA USE32 PUBLIC 'CODE'
_TEXT	ENDS
;	COMDAT ?RemoveData@?$CTypeMap2@VMHelicopter@@@@UAE_NI@Z
_TEXT	SEGMENT PARA USE32 PUBLIC 'CODE'
_TEXT	ENDS
;	COMDAT ??$?9U?$_Deque_iterator@PAVPacket@@U?$_Nonconst_traits@PAVPacket@@@_STL@@@_STL@@@_STL@@YA_NABV?$reverse_iterator@U?$_Deque_iterator@PAVPacket@@U?$_Nonconst_traits@PAVPacket@@@_STL@@@_STL@@@0@0@Z
_TEXT	SEGMENT PARA USE32 PUBLIC 'CODE'
_TEXT	ENDS
;	COMDAT ??$insert@U?$_List_iterator@V?$basic_string@DV?$char_traits@D@_STL@@V?$allocator@D@2@@_STL@@U?$_Const_traits@V?$basic_string@DV?$char_traits@D@_STL@@V?$allocator@D@2@@_STL@@@2@@_STL@@@?$list@V?$basic_string@DV?$char_traits@D@_STL@@V?$allocator@D@2@@_STL@@V?$allocator@V?$basic_string@DV?$char_traits@D@_STL@@V?$allocator@D@2@@_STL@@@2@@_STL@@QAEXU?$_List_iterator@V?$basic_string@DV?$char_traits@D@_STL@@V?$allocator@D@2@@_STL@@U?$_Nonconst_traits@V?$basic_string@DV?$char_traits@D@_STL@@V?$allocator@D@2@@_STL@@@2@@1@U?$_List_iterator@V?$basic_string@DV?$char_traits@D@_STL@@V?$allocator@D@2@@_STL@@U?$_Const_traits@V?$basic_string@DV?$char_traits@D@_STL@@V?$allocator@D@2@@_STL@@@2@@1@1@Z
_TEXT	SEGMENT PARA USE32 PUBLIC 'CODE'
_TEXT	ENDS
;	COMDAT ??$?8PAVPacket@@@_STL@@YA_NABU?$_Deque_iterator_base@PAVPacket@@@0@0@Z
_TEXT	SEGMENT PARA USE32 PUBLIC 'CODE'
_TEXT	ENDS
;	COMDAT ??$_Destroy@U?$_Deque_iterator@PAVPacket@@U?$_Nonconst_traits@PAVPacket@@@_STL@@@_STL@@@_STL@@YAXU?$_Deque_iterator@PAVPacket@@U?$_Nonconst_traits@PAVPacket@@@_STL@@@0@0@Z
_TEXT	SEGMENT PARA USE32 PUBLIC 'CODE'
_TEXT	ENDS
;	COMDAT ??$_Construct@PAVPacket@@PAV1@@_STL@@YAXPAPAVPacket@@ABQAV1@@Z
_TEXT	SEGMENT PARA USE32 PUBLIC 'CODE'
_TEXT	ENDS
;	COMDAT ??$_Destroy@PAVPacket@@@_STL@@YAXPAPAVPacket@@@Z
_TEXT	SEGMENT PARA USE32 PUBLIC 'CODE'
_TEXT	ENDS
;	COMDAT ??$distance@U?$_List_iterator@PAVMEffect@@U?$_Const_traits@PAVMEffect@@@_STL@@@_STL@@@_STL@@YAHABU?$_List_iterator@PAVMEffect@@U?$_Const_traits@PAVMEffect@@@_STL@@@0@0@Z
_TEXT	SEGMENT PARA USE32 PUBLIC 'CODE'
_TEXT	ENDS
;	COMDAT ??$distance@U?$_List_iterator@VPORTAL_INFO@@U?$_Const_traits@VPORTAL_INFO@@@_STL@@@_STL@@@_STL@@YAHABU?$_List_iterator@VPORTAL_INFO@@U?$_Const_traits@VPORTAL_INFO@@@_STL@@@0@0@Z
_TEXT	SEGMENT PARA USE32 PUBLIC 'CODE'
_TEXT	ENDS
;	COMDAT ??$distance@U?$_List_iterator@VSECTORSOUND_INFO@@U?$_Const_traits@VSECTORSOUND_INFO@@@_STL@@@_STL@@@_STL@@YAHABU?$_List_iterator@VSECTORSOUND_INFO@@U?$_Const_traits@VSECTORSOUND_INFO@@@_STL@@@0@0@Z
_TEXT	SEGMENT PARA USE32 PUBLIC 'CODE'
_TEXT	ENDS
;	COMDAT ??$append@PBD@?$basic_string@DV?$char_traits@D@_STL@@V?$allocator@D@2@@_STL@@QAEAAV01@PBD0@Z
_TEXT	SEGMENT PARA USE32 PUBLIC 'CODE'
_TEXT	ENDS
;	COMDAT ??$?0U?$_List_node@V?$basic_string@DV?$char_traits@D@_STL@@V?$allocator@D@2@@_STL@@@_STL@@@?$allocator@V?$basic_string@DV?$char_traits@D@_STL@@V?$allocator@D@2@@_STL@@@_STL@@QAE@ABV?$allocator@U?$_List_node@V?$basic_string@DV?$char_traits@D@_STL@@V?$allocator@D@2@@_STL@@@_STL@@@1@@Z
_TEXT	SEGMENT PARA USE32 PUBLIC 'CODE'
_TEXT	ENDS
;	COMDAT ??$?0PAVPacket@@@?$allocator@PAPAVPacket@@@_STL@@QAE@ABV?$allocator@PAVPacket@@@1@@Z
_TEXT	SEGMENT PARA USE32 PUBLIC 'CODE'
_TEXT	ENDS
;	COMDAT ??_G?$basic_string@DV?$char_traits@D@_STL@@V?$allocator@D@2@@_STL@@QAEPAXI@Z
_TEXT	SEGMENT PARA USE32 PUBLIC 'CODE'
_TEXT	ENDS
;	COMDAT ??_G?$CTypeMap2@VMHelicopter@@@@UAEPAXI@Z
_TEXT	SEGMENT PARA USE32 PUBLIC 'CODE'
_TEXT	ENDS
;	COMDAT ??1?$map@IPAVMHelicopter@@U?$less@I@_STL@@V?$allocator@U?$pair@$$CBIPAVMHelicopter@@@_STL@@@3@@_STL@@QAE@XZ
_TEXT	SEGMENT PARA USE32 PUBLIC 'CODE'
_TEXT	ENDS
;	COMDAT ??_GMHelicopter@@QAEPAXI@Z
_TEXT	SEGMENT PARA USE32 PUBLIC 'CODE'
_TEXT	ENDS
;	COMDAT ?_M_exit_putback_mode@?$basic_filebuf@DV?$char_traits@D@_STL@@@_STL@@AAEXXZ
_TEXT	SEGMENT PARA USE32 PUBLIC 'CODE'
_TEXT	ENDS
;	COMDAT ??0?$_List_iterator@V?$basic_string@DV?$char_traits@D@_STL@@V?$allocator@D@2@@_STL@@U?$_Nonconst_traits@V?$basic_string@DV?$char_traits@D@_STL@@V?$allocator@D@2@@_STL@@@2@@_STL@@QAE@ABU01@@Z
_TEXT	SEGMENT PARA USE32 PUBLIC 'CODE'
_TEXT	ENDS
;	COMDAT ??R?$_Eq_traits@V?$char_traits@D@_STL@@@_STL@@QBE_NABD0@Z
_TEXT	SEGMENT PARA USE32 PUBLIC 'CODE'
_TEXT	ENDS
;	COMDAT ?_M_reserve_map_at_back@?$deque@PAVPacket@@V?$allocator@PAVPacket@@@_STL@@@_STL@@IAEXI@Z
_TEXT	SEGMENT PARA USE32 PUBLIC 'CODE'
_TEXT	ENDS
;	COMDAT ?buffer_size@?$_Deque_base@PAVPacket@@V?$allocator@PAVPacket@@@_STL@@@_STL@@SAIXZ
_TEXT	SEGMENT PARA USE32 PUBLIC 'CODE'
_TEXT	ENDS
;	COMDAT ?allocate@?$allocator@PAVPacket@@@_STL@@QAEPAPAVPacket@@IPBX@Z
_TEXT	SEGMENT PARA USE32 PUBLIC 'CODE'
_TEXT	ENDS
;	COMDAT ?deallocate@?$allocator@PAVPacket@@@_STL@@QAEXPAPAVPacket@@I@Z
_TEXT	SEGMENT PARA USE32 PUBLIC 'CODE'
_TEXT	ENDS
;	COMDAT ?allocate@?$allocator@PAPAVPacket@@@_STL@@QAEPAPAPAVPacket@@IPBX@Z
_TEXT	SEGMENT PARA USE32 PUBLIC 'CODE'
_TEXT	ENDS
;	COMDAT ?deallocate@?$allocator@PAPAVPacket@@@_STL@@QAEXPAPAPAVPacket@@I@Z
_TEXT	SEGMENT PARA USE32 PUBLIC 'CODE'
_TEXT	ENDS
;	COMDAT ?deallocate@?$allocator@U?$_List_node@PAVMEffect@@@_STL@@@_STL@@QAEXPAU?$_List_node@PAVMEffect@@@2@I@Z
_TEXT	SEGMENT PARA USE32 PUBLIC 'CODE'
_TEXT	ENDS
;	COMDAT ?begin@?$map@IPAVMHelicopter@@U?$less@I@_STL@@V?$allocator@U?$pair@$$CBIPAVMHelicopter@@@_STL@@@3@@_STL@@QAE?AU?$_Rb_tree_iterator@U?$pair@$$CBIPAVMHelicopter@@@_STL@@U?$_Nonconst_traits@U?$pair@$$CBIPAVMHelicopter@@@_STL@@@2@@2@XZ
_TEXT	SEGMENT PARA USE32 PUBLIC 'CODE'
_TEXT	ENDS
;	COMDAT ?end@?$map@IPAVMHelicopter@@U?$less@I@_STL@@V?$allocator@U?$pair@$$CBIPAVMHelicopter@@@_STL@@@3@@_STL@@QAE?AU?$_Rb_tree_iterator@U?$pair@$$CBIPAVMHelicopter@@@_STL@@U?$_Nonconst_traits@U?$pair@$$CBIPAVMHelicopter@@@_STL@@@2@@2@XZ
_TEXT	SEGMENT PARA USE32 PUBLIC 'CODE'
_TEXT	ENDS
;	COMDAT ?end@?$map@IPAVMHelicopter@@U?$less@I@_STL@@V?$allocator@U?$pair@$$CBIPAVMHelicopter@@@_STL@@@3@@_STL@@QBE?AU?$_Rb_tree_iterator@U?$pair@$$CBIPAVMHelicopter@@@_STL@@U?$_Const_traits@U?$pair@$$CBIPAVMHelicopter@@@_STL@@@2@@2@XZ
_TEXT	SEGMENT PARA USE32 PUBLIC 'CODE'
_TEXT	ENDS
;	COMDAT ?insert@?$map@IPAVMHelicopter@@U?$less@I@_STL@@V?$allocator@U?$pair@$$CBIPAVMHelicopter@@@_STL@@@3@@_STL@@QAE?AU?$pair@U?$_Rb_tree_iterator@U?$pair@$$CBIPAVMHelicopter@@@_STL@@U?$_Nonconst_traits@U?$pair@$$CBIPAVMHelicopter@@@_STL@@@2@@_STL@@_N@2@ABU?$pair@$$CBIPAVMHelicopter@@@2@@Z
_TEXT	SEGMENT PARA USE32 PUBLIC 'CODE'
_TEXT	ENDS
;	COMDAT ?erase@?$map@IPAVMHelicopter@@U?$less@I@_STL@@V?$allocator@U?$pair@$$CBIPAVMHelicopter@@@_STL@@@3@@_STL@@QAEXU?$_Rb_tree_iterator@U?$pair@$$CBIPAVMHelicopter@@@_STL@@U?$_Nonconst_traits@U?$pair@$$CBIPAVMHelicopter@@@_STL@@@2@@2@@Z
_TEXT	SEGMENT PARA USE32 PUBLIC 'CODE'
_TEXT	ENDS
;	COMDAT ?clear@?$map@IPAVMHelicopter@@U?$less@I@_STL@@V?$allocator@U?$pair@$$CBIPAVMHelicopter@@@_STL@@@3@@_STL@@QAEXXZ
_TEXT	SEGMENT PARA USE32 PUBLIC 'CODE'
_TEXT	ENDS
;	COMDAT ?find@?$map@IPAVMHelicopter@@U?$less@I@_STL@@V?$allocator@U?$pair@$$CBIPAVMHelicopter@@@_STL@@@3@@_STL@@QAE?AU?$_Rb_tree_iterator@U?$pair@$$CBIPAVMHelicopter@@@_STL@@U?$_Nonconst_traits@U?$pair@$$CBIPAVMHelicopter@@@_STL@@@2@@2@ABI@Z
_TEXT	SEGMENT PARA USE32 PUBLIC 'CODE'
_TEXT	ENDS
;	COMDAT ?find@?$map@IPAVMHelicopter@@U?$less@I@_STL@@V?$allocator@U?$pair@$$CBIPAVMHelicopter@@@_STL@@@3@@_STL@@QBE?AU?$_Rb_tree_iterator@U?$pair@$$CBIPAVMHelicopter@@@_STL@@U?$_Const_traits@U?$pair@$$CBIPAVMHelicopter@@@_STL@@@2@@2@ABI@Z
_TEXT	SEGMENT PARA USE32 PUBLIC 'CODE'
_TEXT	ENDS
;	COMDAT ??1?$_Rb_tree@IU?$pair@$$CBIPAVMHelicopter@@@_STL@@U?$_Select1st@U?$pair@$$CBIPAVMHelicopter@@@_STL@@@2@U?$less@I@2@V?$allocator@U?$pair@$$CBIPAVMHelicopter@@@_STL@@@2@@_STL@@QAE@XZ
_TEXT	SEGMENT PARA USE32 PUBLIC 'CODE'
_TEXT	ENDS
;	COMDAT ??0?$_Rb_tree_iterator@U?$pair@$$CBIPAVMHelicopter@@@_STL@@U?$_Nonconst_traits@U?$pair@$$CBIPAVMHelicopter@@@_STL@@@2@@_STL@@QAE@ABU01@@Z
_TEXT	SEGMENT PARA USE32 PUBLIC 'CODE'
_TEXT	ENDS
;	COMDAT ??D?$_Rb_tree_iterator@U?$pair@$$CBIPAVMHelicopter@@@_STL@@U?$_Nonconst_traits@U?$pair@$$CBIPAVMHelicopter@@@_STL@@@2@@_STL@@QBEAAU?$pair@$$CBIPAVMHelicopter@@@1@XZ
_TEXT	SEGMENT PARA USE32 PUBLIC 'CODE'
_TEXT	ENDS
;	COMDAT ??E?$_Rb_tree_iterator@U?$pair@$$CBIPAVMHelicopter@@@_STL@@U?$_Nonconst_traits@U?$pair@$$CBIPAVMHelicopter@@@_STL@@@2@@_STL@@QAE?AU01@H@Z
_TEXT	SEGMENT PARA USE32 PUBLIC 'CODE'
_TEXT	ENDS
;	COMDAT ??0?$pair@$$CBIPAVMHelicopter@@@_STL@@QAE@ABIABQAVMHelicopter@@@Z
_TEXT	SEGMENT PARA USE32 PUBLIC 'CODE'
_TEXT	ENDS
;	COMDAT ??D?$_Rb_tree_iterator@U?$pair@$$CBIPAVMHelicopter@@@_STL@@U?$_Const_traits@U?$pair@$$CBIPAVMHelicopter@@@_STL@@@2@@_STL@@QBEABU?$pair@$$CBIPAVMHelicopter@@@1@XZ
_TEXT	SEGMENT PARA USE32 PUBLIC 'CODE'
_TEXT	ENDS
;	COMDAT ?begin@?$_Rb_tree@IU?$pair@$$CBIPAVMHelicopter@@@_STL@@U?$_Select1st@U?$pair@$$CBIPAVMHelicopter@@@_STL@@@2@U?$less@I@2@V?$allocator@U?$pair@$$CBIPAVMHelicopter@@@_STL@@@2@@_STL@@QAE?AU?$_Rb_tree_iterator@U?$pair@$$CBIPAVMHelicopter@@@_STL@@U?$_Nonconst_traits@U?$pair@$$CBIPAVMHelicopter@@@_STL@@@2@@2@XZ
_TEXT	SEGMENT PARA USE32 PUBLIC 'CODE'
_TEXT	ENDS
;	COMDAT ?end@?$_Rb_tree@IU?$pair@$$CBIPAVMHelicopter@@@_STL@@U?$_Select1st@U?$pair@$$CBIPAVMHelicopter@@@_STL@@@2@U?$less@I@2@V?$allocator@U?$pair@$$CBIPAVMHelicopter@@@_STL@@@2@@_STL@@QAE?AU?$_Rb_tree_iterator@U?$pair@$$CBIPAVMHelicopter@@@_STL@@U?$_Nonconst_traits@U?$pair@$$CBIPAVMHelicopter@@@_STL@@@2@@2@XZ
_TEXT	SEGMENT PARA USE32 PUBLIC 'CODE'
_TEXT	ENDS
;	COMDAT ?end@?$_Rb_tree@IU?$pair@$$CBIPAVMHelicopter@@@_STL@@U?$_Select1st@U?$pair@$$CBIPAVMHelicopter@@@_STL@@@2@U?$less@I@2@V?$allocator@U?$pair@$$CBIPAVMHelicopter@@@_STL@@@2@@_STL@@QBE?AU?$_Rb_tree_iterator@U?$pair@$$CBIPAVMHelicopter@@@_STL@@U?$_Const_traits@U?$pair@$$CBIPAVMHelicopter@@@_STL@@@2@@2@XZ
_TEXT	SEGMENT PARA USE32 PUBLIC 'CODE'
_TEXT	ENDS
;	COMDAT ?erase@?$_Rb_tree@IU?$pair@$$CBIPAVMHelicopter@@@_STL@@U?$_Select1st@U?$pair@$$CBIPAVMHelicopter@@@_STL@@@2@U?$less@I@2@V?$allocator@U?$pair@$$CBIPAVMHelicopter@@@_STL@@@2@@_STL@@QAEXU?$_Rb_tree_iterator@U?$pair@$$CBIPAVMHelicopter@@@_STL@@U?$_Nonconst_traits@U?$pair@$$CBIPAVMHelicopter@@@_STL@@@2@@2@@Z
_TEXT	SEGMENT PARA USE32 PUBLIC 'CODE'
_TEXT	ENDS
;	COMDAT ?clear@?$_Rb_tree@IU?$pair@$$CBIPAVMHelicopter@@@_STL@@U?$_Select1st@U?$pair@$$CBIPAVMHelicopter@@@_STL@@@2@U?$less@I@2@V?$allocator@U?$pair@$$CBIPAVMHelicopter@@@_STL@@@2@@_STL@@QAEXXZ
_TEXT	SEGMENT PARA USE32 PUBLIC 'CODE'
_TEXT	ENDS
;	COMDAT ??1?$_Rb_tree_base@U?$pair@$$CBIPAVMHelicopter@@@_STL@@V?$allocator@U?$pair@$$CBIPAVMHelicopter@@@_STL@@@2@@_STL@@QAE@XZ
_TEXT	SEGMENT PARA USE32 PUBLIC 'CODE'
_TEXT	ENDS
;	COMDAT ??1?$_STLP_alloc_proxy@PAU?$_Rb_tree_node@U?$pair@$$CBIPAVMHelicopter@@@_STL@@@_STL@@U12@V?$allocator@U?$_Rb_tree_node@U?$pair@$$CBIPAVMHelicopter@@@_STL@@@_STL@@@2@@_STL@@QAE@XZ
_TEXT	SEGMENT PARA USE32 PUBLIC 'CODE'
_TEXT	ENDS
;	COMDAT ?_M_root@?$_Rb_tree@IU?$pair@$$CBIPAVMHelicopter@@@_STL@@U?$_Select1st@U?$pair@$$CBIPAVMHelicopter@@@_STL@@@2@U?$less@I@2@V?$allocator@U?$pair@$$CBIPAVMHelicopter@@@_STL@@@2@@_STL@@IBEAAPAU?$_Rb_tree_node@U?$pair@$$CBIPAVMHelicopter@@@_STL@@@2@XZ
_TEXT	SEGMENT PARA USE32 PUBLIC 'CODE'
_TEXT	ENDS
;	COMDAT ?_M_leftmost@?$_Rb_tree@IU?$pair@$$CBIPAVMHelicopter@@@_STL@@U?$_Select1st@U?$pair@$$CBIPAVMHelicopter@@@_STL@@@2@U?$less@I@2@V?$allocator@U?$pair@$$CBIPAVMHelicopter@@@_STL@@@2@@_STL@@IBEAAPAU?$_Rb_tree_node@U?$pair@$$CBIPAVMHelicopter@@@_STL@@@2@XZ
_TEXT	SEGMENT PARA USE32 PUBLIC 'CODE'
_TEXT	ENDS
;	COMDAT ?_M_rightmost@?$_Rb_tree@IU?$pair@$$CBIPAVMHelicopter@@@_STL@@U?$_Select1st@U?$pair@$$CBIPAVMHelicopter@@@_STL@@@2@U?$less@I@2@V?$allocator@U?$pair@$$CBIPAVMHelicopter@@@_STL@@@2@@_STL@@IBEAAPAU?$_Rb_tree_node@U?$pair@$$CBIPAVMHelicopter@@@_STL@@@2@XZ
_TEXT	SEGMENT PARA USE32 PUBLIC 'CODE'
_TEXT	ENDS
;	COMDAT ??1?$allocator@U?$_Rb_tree_node@U?$pair@$$CBIPAVMHelicopter@@@_STL@@@_STL@@@_STL@@QAE@XZ
_TEXT	SEGMENT PARA USE32 PUBLIC 'CODE'
_TEXT	ENDS
;	COMDAT ?deallocate@?$allocator@U?$_Rb_tree_node@U?$pair@$$CBIPAVMHelicopter@@@_STL@@@_STL@@@_STL@@QAEXPAU?$_Rb_tree_node@U?$pair@$$CBIPAVMHelicopter@@@_STL@@@2@I@Z
_TEXT	SEGMENT PARA USE32 PUBLIC 'CODE'
_TEXT	ENDS
;	COMDAT ??0?$_Rb_tree_iterator@U?$pair@$$CBIPAVMHelicopter@@@_STL@@U?$_Nonconst_traits@U?$pair@$$CBIPAVMHelicopter@@@_STL@@@2@@_STL@@QAE@PAU?$_Rb_tree_node@U?$pair@$$CBIPAVMHelicopter@@@_STL@@@1@@Z
_TEXT	SEGMENT PARA USE32 PUBLIC 'CODE'
_TEXT	ENDS
;	COMDAT ??0?$_Rb_tree_iterator@U?$pair@$$CBIPAVMHelicopter@@@_STL@@U?$_Const_traits@U?$pair@$$CBIPAVMHelicopter@@@_STL@@@2@@_STL@@QAE@PAU?$_Rb_tree_node@U?$pair@$$CBIPAVMHelicopter@@@_STL@@@1@@Z
_TEXT	SEGMENT PARA USE32 PUBLIC 'CODE'
_TEXT	ENDS
;	COMDAT ??$_M_range_initialize@PBD@?$basic_string@DV?$char_traits@D@_STL@@V?$allocator@D@2@@_STL@@AAEXPBD0ABUforward_iterator_tag@1@@Z
_TEXT	SEGMENT PARA USE32 PUBLIC 'CODE'
_TEXT	ENDS
;	COMDAT ??$_M_range_initialize@PAD@?$basic_string@DV?$char_traits@D@_STL@@V?$allocator@D@2@@_STL@@AAEXPAD0ABUforward_iterator_tag@1@@Z
_TEXT	SEGMENT PARA USE32 PUBLIC 'CODE'
_TEXT	ENDS
;	COMDAT ?_M_unshift@?$basic_filebuf@DV?$char_traits@D@_STL@@@_STL@@AAE_NXZ
_TEXT	SEGMENT PARA USE32 PUBLIC 'CODE'
_TEXT	ENDS
;	COMDAT ?_M_allocate_buffers@?$basic_filebuf@DV?$char_traits@D@_STL@@@_STL@@AAE_NXZ
_TEXT	SEGMENT PARA USE32 PUBLIC 'CODE'
_TEXT	ENDS
;	COMDAT ??$max@H@_STL@@YAABHABH0@Z
_TEXT	SEGMENT PARA USE32 PUBLIC 'CODE'
_TEXT	ENDS
;	COMDAT ??$use_facet@V?$codecvt@DDH@_STL@@@_STL@@YAABV?$codecvt@DDH@0@ABVlocale@0@@Z
_TEXT	SEGMENT PARA USE32 PUBLIC 'CODE'
_TEXT	ENDS
;	COMDAT ??$append@PAD@?$basic_string@DV?$char_traits@D@_STL@@V?$allocator@D@2@@_STL@@QAEAAV01@PAD0@Z
_TEXT	SEGMENT PARA USE32 PUBLIC 'CODE'
_TEXT	ENDS
;	COMDAT ?_M_create_nodes@?$_Deque_base@PAVPacket@@V?$allocator@PAVPacket@@@_STL@@@_STL@@IAEXPAPAPAVPacket@@0@Z
_TEXT	SEGMENT PARA USE32 PUBLIC 'CODE'
_TEXT	ENDS
;	COMDAT ?_M_destroy_nodes@?$_Deque_base@PAVPacket@@V?$allocator@PAVPacket@@@_STL@@@_STL@@IAEXPAPAPAVPacket@@0@Z
_TEXT	SEGMENT PARA USE32 PUBLIC 'CODE'
_TEXT	ENDS
;	COMDAT ??$max@I@_STL@@YAABIABI0@Z
_TEXT	SEGMENT PARA USE32 PUBLIC 'CODE'
_TEXT	ENDS
;	COMDAT ?_M_reallocate_map@?$deque@PAVPacket@@V?$allocator@PAVPacket@@@_STL@@@_STL@@IAEXI_N@Z
_TEXT	SEGMENT PARA USE32 PUBLIC 'CODE'
_TEXT	ENDS
;	COMDAT ??$_Destroy@PAVMEffect@@@_STL@@YAXPAPAVMEffect@@@Z
_TEXT	SEGMENT PARA USE32 PUBLIC 'CODE'
_TEXT	ENDS
;	COMDAT ??$?8U?$_Deque_iterator@PAVPacket@@U?$_Nonconst_traits@PAVPacket@@@_STL@@@_STL@@@_STL@@YA_NABV?$reverse_iterator@U?$_Deque_iterator@PAVPacket@@U?$_Nonconst_traits@PAVPacket@@@_STL@@@_STL@@@0@0@Z
_TEXT	SEGMENT PARA USE32 PUBLIC 'CODE'
_TEXT	ENDS
;	COMDAT ??$_M_insert_dispatch@U?$_List_iterator@V?$basic_string@DV?$char_traits@D@_STL@@V?$allocator@D@2@@_STL@@U?$_Const_traits@V?$basic_string@DV?$char_traits@D@_STL@@V?$allocator@D@2@@_STL@@@2@@_STL@@@?$list@V?$basic_string@DV?$char_traits@D@_STL@@V?$allocator@D@2@@_STL@@V?$allocator@V?$basic_string@DV?$char_traits@D@_STL@@V?$allocator@D@2@@_STL@@@2@@_STL@@QAEXU?$_List_iterator@V?$basic_string@DV?$char_traits@D@_STL@@V?$allocator@D@2@@_STL@@U?$_Nonconst_traits@V?$basic_string@DV?$char_traits@D@_STL@@V?$allocator@D@2@@_STL@@@2@@1@U?$_List_iterator@V?$basic_string@DV?$char_traits@D@_STL@@V?$allocator@D@2@@_STL@@U?$_Const_traits@V?$basic_string@DV?$char_traits@D@_STL@@V?$allocator@D@2@@_STL@@@2@@1@1ABU__false_type@1@@Z
_TEXT	SEGMENT PARA USE32 PUBLIC 'CODE'
_TEXT	ENDS
;	COMDAT ??$__destroy@U?$_Deque_iterator@PAVPacket@@U?$_Nonconst_traits@PAVPacket@@@_STL@@@_STL@@PAVPacket@@@_STL@@YAXU?$_Deque_iterator@PAVPacket@@U?$_Nonconst_traits@PAVPacket@@@_STL@@@0@0PAPAVPacket@@@Z
_TEXT	SEGMENT PARA USE32 PUBLIC 'CODE'
_TEXT	ENDS
;	COMDAT ??$__distance@U?$_List_iterator@PAVMEffect@@U?$_Const_traits@PAVMEffect@@@_STL@@@_STL@@@_STL@@YAHABU?$_List_iterator@PAVMEffect@@U?$_Const_traits@PAVMEffect@@@_STL@@@0@0ABUinput_iterator_tag@0@@Z
_TEXT	SEGMENT PARA USE32 PUBLIC 'CODE'
_TEXT	ENDS
;	COMDAT ??$__distance@U?$_List_iterator@VPORTAL_INFO@@U?$_Const_traits@VPORTAL_INFO@@@_STL@@@_STL@@@_STL@@YAHABU?$_List_iterator@VPORTAL_INFO@@U?$_Const_traits@VPORTAL_INFO@@@_STL@@@0@0ABUinput_iterator_tag@0@@Z
_TEXT	SEGMENT PARA USE32 PUBLIC 'CODE'
_TEXT	ENDS
;	COMDAT ??$__distance@U?$_List_iterator@VSECTORSOUND_INFO@@U?$_Const_traits@VSECTORSOUND_INFO@@@_STL@@@_STL@@@_STL@@YAHABU?$_List_iterator@VSECTORSOUND_INFO@@U?$_Const_traits@VSECTORSOUND_INFO@@@_STL@@@0@0ABUinput_iterator_tag@0@@Z
_TEXT	SEGMENT PARA USE32 PUBLIC 'CODE'
_TEXT	ENDS
;	COMDAT ??$_M_append_dispatch@PBD@?$basic_string@DV?$char_traits@D@_STL@@V?$allocator@D@2@@_STL@@AAEAAV01@PBD0ABU__false_type@1@@Z
_TEXT	SEGMENT PARA USE32 PUBLIC 'CODE'
_TEXT	ENDS
;	COMDAT ?_M_erase@?$_Rb_tree@IU?$pair@$$CBIPAVMHelicopter@@@_STL@@U?$_Select1st@U?$pair@$$CBIPAVMHelicopter@@@_STL@@@2@U?$less@I@2@V?$allocator@U?$pair@$$CBIPAVMHelicopter@@@_STL@@@2@@_STL@@AAEXPAU?$_Rb_tree_node@U?$pair@$$CBIPAVMHelicopter@@@_STL@@@2@@Z
_TEXT	SEGMENT PARA USE32 PUBLIC 'CODE'
_TEXT	ENDS
;	COMDAT ?insert_unique@?$_Rb_tree@IU?$pair@$$CBIPAVMHelicopter@@@_STL@@U?$_Select1st@U?$pair@$$CBIPAVMHelicopter@@@_STL@@@2@U?$less@I@2@V?$allocator@U?$pair@$$CBIPAVMHelicopter@@@_STL@@@2@@_STL@@QAE?AU?$pair@U?$_Rb_tree_iterator@U?$pair@$$CBIPAVMHelicopter@@@_STL@@U?$_Nonconst_traits@U?$pair@$$CBIPAVMHelicopter@@@_STL@@@2@@_STL@@_N@2@ABU?$pair@$$CBIPAVMHelicopter@@@2@@Z
_TEXT	SEGMENT PARA USE32 PUBLIC 'CODE'
_TEXT	ENDS
;	COMDAT ??$find@I@?$_Rb_tree@IU?$pair@$$CBIPAVMHelicopter@@@_STL@@U?$_Select1st@U?$pair@$$CBIPAVMHelicopter@@@_STL@@@2@U?$less@I@2@V?$allocator@U?$pair@$$CBIPAVMHelicopter@@@_STL@@@2@@_STL@@QAE?AU?$_Rb_tree_iterator@U?$pair@$$CBIPAVMHelicopter@@@_STL@@U?$_Nonconst_traits@U?$pair@$$CBIPAVMHelicopter@@@_STL@@@2@@1@ABI@Z
_TEXT	SEGMENT PARA USE32 PUBLIC 'CODE'
_TEXT	ENDS
;	COMDAT ??$find@I@?$_Rb_tree@IU?$pair@$$CBIPAVMHelicopter@@@_STL@@U?$_Select1st@U?$pair@$$CBIPAVMHelicopter@@@_STL@@@2@U?$less@I@2@V?$allocator@U?$pair@$$CBIPAVMHelicopter@@@_STL@@@2@@_STL@@QBE?AU?$_Rb_tree_iterator@U?$pair@$$CBIPAVMHelicopter@@@_STL@@U?$_Const_traits@U?$pair@$$CBIPAVMHelicopter@@@_STL@@@2@@1@ABI@Z
_TEXT	SEGMENT PARA USE32 PUBLIC 'CODE'
_TEXT	ENDS
;	COMDAT ??$_Destroy@U?$pair@$$CBIPAVMHelicopter@@@_STL@@@_STL@@YAXPAU?$pair@$$CBIPAVMHelicopter@@@0@@Z
_TEXT	SEGMENT PARA USE32 PUBLIC 'CODE'
_TEXT	ENDS
;	COMDAT ??E?$_List_iterator@V?$basic_string@DV?$char_traits@D@_STL@@V?$allocator@D@2@@_STL@@U?$_Const_traits@V?$basic_string@DV?$char_traits@D@_STL@@V?$allocator@D@2@@_STL@@@2@@_STL@@QAEAAU01@XZ
_TEXT	SEGMENT PARA USE32 PUBLIC 'CODE'
_TEXT	ENDS
;	COMDAT ??E?$_List_iterator@PAVMEffect@@U?$_Const_traits@PAVMEffect@@@_STL@@@_STL@@QAEAAU01@XZ
_TEXT	SEGMENT PARA USE32 PUBLIC 'CODE'
_TEXT	ENDS
;	COMDAT ??E?$_List_iterator@VPORTAL_INFO@@U?$_Const_traits@VPORTAL_INFO@@@_STL@@@_STL@@QAEAAU01@XZ
_TEXT	SEGMENT PARA USE32 PUBLIC 'CODE'
_TEXT	ENDS
;	COMDAT ??E?$_List_iterator@VSECTORSOUND_INFO@@U?$_Const_traits@VSECTORSOUND_INFO@@@_STL@@@_STL@@QAEAAU01@XZ
_TEXT	SEGMENT PARA USE32 PUBLIC 'CODE'
_TEXT	ENDS
;	COMDAT ?_S_left@?$_Rb_tree@IU?$pair@$$CBIPAVMHelicopter@@@_STL@@U?$_Select1st@U?$pair@$$CBIPAVMHelicopter@@@_STL@@@2@U?$less@I@2@V?$allocator@U?$pair@$$CBIPAVMHelicopter@@@_STL@@@2@@_STL@@KAAAPAU?$_Rb_tree_node@U?$pair@$$CBIPAVMHelicopter@@@_STL@@@2@PAU32@@Z
_TEXT	SEGMENT PARA USE32 PUBLIC 'CODE'
_TEXT	ENDS
;	COMDAT ?_S_right@?$_Rb_tree@IU?$pair@$$CBIPAVMHelicopter@@@_STL@@U?$_Select1st@U?$pair@$$CBIPAVMHelicopter@@@_STL@@@2@U?$less@I@2@V?$allocator@U?$pair@$$CBIPAVMHelicopter@@@_STL@@@2@@_STL@@KAAAPAU?$_Rb_tree_node@U?$pair@$$CBIPAVMHelicopter@@@_STL@@@2@PAU32@@Z
_TEXT	SEGMENT PARA USE32 PUBLIC 'CODE'
_TEXT	ENDS
;	COMDAT ?_S_key@?$_Rb_tree@IU?$pair@$$CBIPAVMHelicopter@@@_STL@@U?$_Select1st@U?$pair@$$CBIPAVMHelicopter@@@_STL@@@2@U?$less@I@2@V?$allocator@U?$pair@$$CBIPAVMHelicopter@@@_STL@@@2@@_STL@@KAABIPAU?$_Rb_tree_node@U?$pair@$$CBIPAVMHelicopter@@@_STL@@@2@@Z
_TEXT	SEGMENT PARA USE32 PUBLIC 'CODE'
_TEXT	ENDS
;	COMDAT ?_S_key@?$_Rb_tree@IU?$pair@$$CBIPAVMHelicopter@@@_STL@@U?$_Select1st@U?$pair@$$CBIPAVMHelicopter@@@_STL@@@2@U?$less@I@2@V?$allocator@U?$pair@$$CBIPAVMHelicopter@@@_STL@@@2@@_STL@@KAABIPAU_Rb_tree_node_base@2@@Z
_TEXT	SEGMENT PARA USE32 PUBLIC 'CODE'
_TEXT	ENDS
;	COMDAT ??R?$less@I@_STL@@QBE_NABI0@Z
_TEXT	SEGMENT PARA USE32 PUBLIC 'CODE'
_TEXT	ENDS
;	COMDAT ?base@?$reverse_iterator@U?$_Deque_iterator@PAVPacket@@U?$_Nonconst_traits@PAVPacket@@@_STL@@@_STL@@@_STL@@QBE?AU?$_Deque_iterator@PAVPacket@@U?$_Nonconst_traits@PAVPacket@@@_STL@@@2@XZ
_TEXT	SEGMENT PARA USE32 PUBLIC 'CODE'
_TEXT	ENDS
;	COMDAT ??F?$_Rb_tree_iterator@U?$pair@$$CBIPAVMHelicopter@@@_STL@@U?$_Nonconst_traits@U?$pair@$$CBIPAVMHelicopter@@@_STL@@@2@@_STL@@QAEAAU01@XZ
_TEXT	SEGMENT PARA USE32 PUBLIC 'CODE'
_TEXT	ENDS
;	COMDAT ??0?$pair@U?$_Rb_tree_iterator@U?$pair@$$CBIPAVMHelicopter@@@_STL@@U?$_Nonconst_traits@U?$pair@$$CBIPAVMHelicopter@@@_STL@@@2@@_STL@@_N@_STL@@QAE@ABU?$_Rb_tree_iterator@U?$pair@$$CBIPAVMHelicopter@@@_STL@@U?$_Nonconst_traits@U?$pair@$$CBIPAVMHelicopter@@@_STL@@@2@@1@AB_N@Z
_TEXT	SEGMENT PARA USE32 PUBLIC 'CODE'
_TEXT	ENDS
;	COMDAT ??R?$_Select1st@U?$pair@$$CBIPAVMHelicopter@@@_STL@@@_STL@@QBEABIABU?$pair@$$CBIPAVMHelicopter@@@1@@Z
_TEXT	SEGMENT PARA USE32 PUBLIC 'CODE'
_TEXT	ENDS
;	COMDAT ?_S_value@?$_Rb_tree@IU?$pair@$$CBIPAVMHelicopter@@@_STL@@U?$_Select1st@U?$pair@$$CBIPAVMHelicopter@@@_STL@@@2@U?$less@I@2@V?$allocator@U?$pair@$$CBIPAVMHelicopter@@@_STL@@@2@@_STL@@KAAAU?$pair@$$CBIPAVMHelicopter@@@2@PAU?$_Rb_tree_node@U?$pair@$$CBIPAVMHelicopter@@@_STL@@@2@@Z
_TEXT	SEGMENT PARA USE32 PUBLIC 'CODE'
_TEXT	ENDS
;	COMDAT ??$distance@PBD@_STL@@YAHABQBD0@Z
_TEXT	SEGMENT PARA USE32 PUBLIC 'CODE'
_TEXT	ENDS
;	COMDAT ?_M_allocate_block@?$_String_base@DV?$allocator@D@_STL@@@_STL@@QAEXI@Z
_TEXT	SEGMENT PARA USE32 PUBLIC 'CODE'
_TEXT	ENDS
;	COMDAT ??$distance@PAD@_STL@@YAHABQAD0@Z
_TEXT	SEGMENT PARA USE32 PUBLIC 'CODE'
_TEXT	ENDS
;	COMDAT ??$uninitialized_copy@PADPAD@_STL@@YAPADPAD00@Z
_TEXT	SEGMENT PARA USE32 PUBLIC 'CODE'
_TEXT	ENDS
;	COMDAT ??$_M_append_dispatch@PAD@?$basic_string@DV?$char_traits@D@_STL@@V?$allocator@D@2@@_STL@@AAEAAV01@PAD0ABU__false_type@1@@Z
_TEXT	SEGMENT PARA USE32 PUBLIC 'CODE'
_TEXT	ENDS
;	COMDAT ??$copy@PAPAPAVPacket@@PAPAPAV1@@_STL@@YAPAPAPAVPacket@@PAPAPAV1@00@Z
_TEXT	SEGMENT PARA USE32 PUBLIC 'CODE'
_TEXT	ENDS
;	COMDAT ??$copy_backward@PAPAPAVPacket@@PAPAPAV1@@_STL@@YAPAPAPAVPacket@@PAPAPAV1@00@Z
_TEXT	SEGMENT PARA USE32 PUBLIC 'CODE'
_TEXT	ENDS
;	COMDAT ??$__destroy_aux@U?$_Deque_iterator@PAVPacket@@U?$_Nonconst_traits@PAVPacket@@@_STL@@@_STL@@@_STL@@YAXU?$_Deque_iterator@PAVPacket@@U?$_Nonconst_traits@PAVPacket@@@_STL@@@0@0ABU__true_type@0@@Z
_TEXT	SEGMENT PARA USE32 PUBLIC 'CODE'
_TEXT	ENDS
;	COMDAT ??$append@PBD@?$basic_string@DV?$char_traits@D@_STL@@V?$allocator@D@2@@_STL@@AAEAAV01@PBD0ABUforward_iterator_tag@1@@Z
_TEXT	SEGMENT PARA USE32 PUBLIC 'CODE'
_TEXT	ENDS
;	COMDAT ?_M_insert@?$_Rb_tree@IU?$pair@$$CBIPAVMHelicopter@@@_STL@@U?$_Select1st@U?$pair@$$CBIPAVMHelicopter@@@_STL@@@2@U?$less@I@2@V?$allocator@U?$pair@$$CBIPAVMHelicopter@@@_STL@@@2@@_STL@@AAE?AU?$_Rb_tree_iterator@U?$pair@$$CBIPAVMHelicopter@@@_STL@@U?$_Nonconst_traits@U?$pair@$$CBIPAVMHelicopter@@@_STL@@@2@@2@PAU_Rb_tree_node_base@2@0ABU?$pair@$$CBIPAVMHelicopter@@@2@0@Z
_TEXT	SEGMENT PARA USE32 PUBLIC 'CODE'
_TEXT	ENDS
;	COMDAT ??$_M_find@I@?$_Rb_tree@IU?$pair@$$CBIPAVMHelicopter@@@_STL@@U?$_Select1st@U?$pair@$$CBIPAVMHelicopter@@@_STL@@@2@U?$less@I@2@V?$allocator@U?$pair@$$CBIPAVMHelicopter@@@_STL@@@2@@_STL@@ABEPAU?$_Rb_tree_node@U?$pair@$$CBIPAVMHelicopter@@@_STL@@@1@ABI@Z
_TEXT	SEGMENT PARA USE32 PUBLIC 'CODE'
_TEXT	ENDS
;	COMDAT ?_M_construct_null@?$basic_string@DV?$char_traits@D@_STL@@V?$allocator@D@2@@_STL@@AAEXPAD@Z
_TEXT	SEGMENT PARA USE32 PUBLIC 'CODE'
_TEXT	ENDS
;	COMDAT ?max_size@?$basic_string@DV?$char_traits@D@_STL@@V?$allocator@D@2@@_STL@@QBEIXZ
_TEXT	SEGMENT PARA USE32 PUBLIC 'CODE'
_TEXT	ENDS
;	COMDAT ?capacity@?$basic_string@DV?$char_traits@D@_STL@@V?$allocator@D@2@@_STL@@QBEIXZ
_TEXT	SEGMENT PARA USE32 PUBLIC 'CODE'
_TEXT	ENDS
;	COMDAT ?max_size@?$_String_base@DV?$allocator@D@_STL@@@_STL@@QBEIXZ
_TEXT	SEGMENT PARA USE32 PUBLIC 'CODE'
_TEXT	ENDS
;	COMDAT ?_M_create_node@?$_Rb_tree@IU?$pair@$$CBIPAVMHelicopter@@@_STL@@U?$_Select1st@U?$pair@$$CBIPAVMHelicopter@@@_STL@@@2@U?$less@I@2@V?$allocator@U?$pair@$$CBIPAVMHelicopter@@@_STL@@@2@@_STL@@IAEPAU?$_Rb_tree_node@U?$pair@$$CBIPAVMHelicopter@@@_STL@@@2@ABU?$pair@$$CBIPAVMHelicopter@@@2@@Z
_TEXT	SEGMENT PARA USE32 PUBLIC 'CODE'
_TEXT	ENDS
;	COMDAT ?_S_parent@?$_Rb_tree@IU?$pair@$$CBIPAVMHelicopter@@@_STL@@U?$_Select1st@U?$pair@$$CBIPAVMHelicopter@@@_STL@@@2@U?$less@I@2@V?$allocator@U?$pair@$$CBIPAVMHelicopter@@@_STL@@@2@@_STL@@KAAAPAU?$_Rb_tree_node@U?$pair@$$CBIPAVMHelicopter@@@_STL@@@2@PAU32@@Z
_TEXT	SEGMENT PARA USE32 PUBLIC 'CODE'
_TEXT	ENDS
;	COMDAT ?_Ret@?$_BothPtrType@PAPAPAVPacket@@PAPAPAV1@@_STL@@SA?AU__true_type@2@XZ
_TEXT	SEGMENT PARA USE32 PUBLIC 'CODE'
_TEXT	ENDS
;	COMDAT ?_M_construct_null_aux@?$basic_string@DV?$char_traits@D@_STL@@V?$allocator@D@2@@_STL@@AAEXPADABU__true_type@2@@Z
_TEXT	SEGMENT PARA USE32 PUBLIC 'CODE'
_TEXT	ENDS
;	COMDAT ?allocate@?$allocator@U?$_Rb_tree_node@U?$pair@$$CBIPAVMHelicopter@@@_STL@@@_STL@@@_STL@@QAEPAU?$_Rb_tree_node@U?$pair@$$CBIPAVMHelicopter@@@_STL@@@2@IPBX@Z
_TEXT	SEGMENT PARA USE32 PUBLIC 'CODE'
_TEXT	ENDS
;	COMDAT ??$__distance@PBD@_STL@@YAHABQBD0ABUrandom_access_iterator_tag@0@@Z
_TEXT	SEGMENT PARA USE32 PUBLIC 'CODE'
_TEXT	ENDS
;	COMDAT ?_M_throw_length_error@?$_String_base@DV?$allocator@D@_STL@@@_STL@@QBEXXZ
_TEXT	SEGMENT PARA USE32 PUBLIC 'CODE'
_TEXT	ENDS
;	COMDAT ??$__distance@PAD@_STL@@YAHABQAD0ABUrandom_access_iterator_tag@0@@Z
_TEXT	SEGMENT PARA USE32 PUBLIC 'CODE'
_TEXT	ENDS
;	COMDAT ??$__uninitialized_copy@PADPAD@_STL@@YAPADPAD00ABU__true_type@0@@Z
_TEXT	SEGMENT PARA USE32 PUBLIC 'CODE'
_TEXT	ENDS
;	COMDAT ??$append@PAD@?$basic_string@DV?$char_traits@D@_STL@@V?$allocator@D@2@@_STL@@AAEAAV01@PAD0ABUforward_iterator_tag@1@@Z
_TEXT	SEGMENT PARA USE32 PUBLIC 'CODE'
_TEXT	ENDS
;	COMDAT ??$__copy_aux@PAPAPAVPacket@@PAPAPAV1@@_STL@@YAPAPAPAVPacket@@PAPAPAV1@00ABU__true_type@0@@Z
_TEXT	SEGMENT PARA USE32 PUBLIC 'CODE'
_TEXT	ENDS
;	COMDAT ??$__copy_backward_aux@PAPAPAVPacket@@PAPAPAV1@@_STL@@YAPAPAPAVPacket@@PAPAPAV1@00ABU__true_type@0@@Z
_TEXT	SEGMENT PARA USE32 PUBLIC 'CODE'
_TEXT	ENDS
;	COMDAT ??$_Construct@U?$pair@$$CBIPAVMHelicopter@@@_STL@@U12@@_STL@@YAXPAU?$pair@$$CBIPAVMHelicopter@@@0@ABU10@@Z
_TEXT	SEGMENT PARA USE32 PUBLIC 'CODE'
_TEXT	ENDS
;	COMDAT ??0?$pair@$$CBIPAVMHelicopter@@@_STL@@QAE@ABU01@@Z
_TEXT	SEGMENT PARA USE32 PUBLIC 'CODE'
_TEXT	ENDS
;	COMDAT ?_Ret@?$_BothPtrType@PADPAD@_STL@@SA?AU__true_type@2@XZ
_TEXT	SEGMENT PARA USE32 PUBLIC 'CODE'
_TEXT	ENDS
;	COMDAT ?_Ret@?$_OKToMemCpy@PAPAVPacket@@PAPAV1@@_STL@@SA?AU__true_type@2@XZ
_TEXT	SEGMENT PARA USE32 PUBLIC 'CODE'
_TEXT	ENDS
;	COMDAT ??$__copy_aux@PADPAD@_STL@@YAPADPAD00ABU__true_type@0@@Z
_TEXT	SEGMENT PARA USE32 PUBLIC 'CODE'
_TEXT	ENDS
;	COMDAT ??$_IsOKToMemCpy@PAPAVPacket@@PAPAV1@@_STL@@YA?AU?$_OKToMemCpy@PAPAVPacket@@PAPAV1@@0@PAPAPAVPacket@@0@Z
_TEXT	SEGMENT PARA USE32 PUBLIC 'CODE'
_TEXT	ENDS
;	COMDAT ??$__copy_ptrs@PAPAPAVPacket@@PAPAPAV1@@_STL@@YAPAPAPAVPacket@@PAPAPAV1@00ABU__true_type@0@@Z
_TEXT	SEGMENT PARA USE32 PUBLIC 'CODE'
_TEXT	ENDS
;	COMDAT ??$__copy_backward_ptrs@PAPAPAVPacket@@PAPAPAV1@@_STL@@YAPAPAPAVPacket@@PAPAPAV1@00ABU__true_type@0@@Z
_TEXT	SEGMENT PARA USE32 PUBLIC 'CODE'
_TEXT	ENDS
;	COMDAT ?_Ret@?$_OKToMemCpy@DD@_STL@@SA?AU__true_type@2@XZ
_TEXT	SEGMENT PARA USE32 PUBLIC 'CODE'
_TEXT	ENDS
;	COMDAT ??$_IsOKToMemCpy@DD@_STL@@YA?AU?$_OKToMemCpy@DD@0@PAD0@Z
_TEXT	SEGMENT PARA USE32 PUBLIC 'CODE'
_TEXT	ENDS
;	COMDAT ??$__copy_ptrs@PADPAD@_STL@@YAPADPAD00ABU__true_type@0@@Z
_TEXT	SEGMENT PARA USE32 PUBLIC 'CODE'
_TEXT	ENDS
;	COMDAT ??_R3ovfstream@@8
rdata$r	SEGMENT DWORD USE32 PUBLIC 'CONST'
rdata$r	ENDS
;	COMDAT ??_R3ivfstream@@8
rdata$r	SEGMENT DWORD USE32 PUBLIC 'CONST'
rdata$r	ENDS
;	COMDAT ??_R3PacketFactory@@8
rdata$r	SEGMENT DWORD USE32 PUBLIC 'CONST'
rdata$r	ENDS
;	COMDAT ??_R3Packet@@8
rdata$r	SEGMENT DWORD USE32 PUBLIC 'CONST'
rdata$r	ENDS
;	COMDAT ??_R3IFileIO@@8
rdata$r	SEGMENT DWORD USE32 PUBLIC 'CONST'
rdata$r	ENDS
;	COMDAT ??_R3MObject@@8
rdata$r	SEGMENT DWORD USE32 PUBLIC 'CONST'
rdata$r	ENDS
;	COMDAT ??_R3?$CTypeMap2@VMHelicopter@@@@8
rdata$r	SEGMENT DWORD USE32 PUBLIC 'CONST'
rdata$r	ENDS
;	COMDAT ??_R3ClientPlayer@@8
rdata$r	SEGMENT DWORD USE32 PUBLIC 'CONST'
rdata$r	ENDS
;	COMDAT ??_R3SocketEncryptOutputStream@@8
rdata$r	SEGMENT DWORD USE32 PUBLIC 'CONST'
rdata$r	ENDS
;	COMDAT ??_R3iovfs_base@@8
rdata$r	SEGMENT DWORD USE32 PUBLIC 'CONST'
rdata$r	ENDS
;	COMDAT ??_R3SocketEncryptInputStream@@8
rdata$r	SEGMENT DWORD USE32 PUBLIC 'CONST'
rdata$r	ENDS
;	COMDAT ??_R2ovfstream@@8
rdata$r	SEGMENT DWORD USE32 PUBLIC 'CONST'
rdata$r	ENDS
;	COMDAT ??_R2ivfstream@@8
rdata$r	SEGMENT DWORD USE32 PUBLIC 'CONST'
rdata$r	ENDS
;	COMDAT ??_R2PacketFactory@@8
rdata$r	SEGMENT DWORD USE32 PUBLIC 'CONST'
rdata$r	ENDS
;	COMDAT ??_R2Packet@@8
rdata$r	SEGMENT DWORD USE32 PUBLIC 'CONST'
rdata$r	ENDS
;	COMDAT ??_R2IFileIO@@8
rdata$r	SEGMENT DWORD USE32 PUBLIC 'CONST'
rdata$r	ENDS
;	COMDAT ??_R2MObject@@8
rdata$r	SEGMENT DWORD USE32 PUBLIC 'CONST'
rdata$r	ENDS
;	COMDAT ??_R2?$CTypeMap2@VMHelicopter@@@@8
rdata$r	SEGMENT DWORD USE32 PUBLIC 'CONST'
rdata$r	ENDS
;	COMDAT ??_R2ClientPlayer@@8
rdata$r	SEGMENT DWORD USE32 PUBLIC 'CONST'
rdata$r	ENDS
;	COMDAT ??_R2SocketEncryptOutputStream@@8
rdata$r	SEGMENT DWORD USE32 PUBLIC 'CONST'
rdata$r	ENDS
;	COMDAT ??_R2iovfs_base@@8
rdata$r	SEGMENT DWORD USE32 PUBLIC 'CONST'
rdata$r	ENDS
;	COMDAT ??_R2SocketEncryptInputStream@@8
rdata$r	SEGMENT DWORD USE32 PUBLIC 'CONST'
rdata$r	ENDS
;	COMDAT ??_R1A@?0A@A@ovfstream@@8
rdata$r	SEGMENT DWORD USE32 PUBLIC 'CONST'
rdata$r	ENDS
;	COMDAT ??_R1A@?0A@A@ivfstream@@8
rdata$r	SEGMENT DWORD USE32 PUBLIC 'CONST'
rdata$r	ENDS
;	COMDAT ??_R1A@?0A@A@PacketFactory@@8
rdata$r	SEGMENT DWORD USE32 PUBLIC 'CONST'
rdata$r	ENDS
;	COMDAT ??_R1A@?0A@A@Packet@@8
rdata$r	SEGMENT DWORD USE32 PUBLIC 'CONST'
rdata$r	ENDS
;	COMDAT ??_R1A@?0A@A@IFileIO@@8
rdata$r	SEGMENT DWORD USE32 PUBLIC 'CONST'
rdata$r	ENDS
;	COMDAT ??_R1A@?0A@A@MObject@@8
rdata$r	SEGMENT DWORD USE32 PUBLIC 'CONST'
rdata$r	ENDS
;	COMDAT ??_R13?0A@A@?$map@IPAVMHelicopter@@U?$less@I@_STL@@V?$allocator@U?$pair@$$CBIPAVMHelicopter@@@_STL@@@3@@_STL@@8
rdata$r	SEGMENT DWORD USE32 PUBLIC 'CONST'
rdata$r	ENDS
;	COMDAT ??_R1A@?0A@A@?$CTypeMap2@VMHelicopter@@@@8
rdata$r	SEGMENT DWORD USE32 PUBLIC 'CONST'
rdata$r	ENDS
;	COMDAT ??_R1A@?0A@A@Player@@8
rdata$r	SEGMENT DWORD USE32 PUBLIC 'CONST'
rdata$r	ENDS
;	COMDAT ??_R1A@?0A@A@ClientPlayer@@8
rdata$r	SEGMENT DWORD USE32 PUBLIC 'CONST'
rdata$r	ENDS
;	COMDAT ??_R1A@?0A@A@SocketOutputStream@@8
rdata$r	SEGMENT DWORD USE32 PUBLIC 'CONST'
rdata$r	ENDS
;	COMDAT ??_R1A@?0A@A@SocketEncryptOutputStream@@8
rdata$r	SEGMENT DWORD USE32 PUBLIC 'CONST'
rdata$r	ENDS
;	COMDAT ??_R1A@?0A@A@iovfs_base@@8
rdata$r	SEGMENT DWORD USE32 PUBLIC 'CONST'
rdata$r	ENDS
;	COMDAT ??_R1A@?0A@A@SocketInputStream@@8
rdata$r	SEGMENT DWORD USE32 PUBLIC 'CONST'
rdata$r	ENDS
;	COMDAT ??_R1A@?0A@A@SocketEncryptInputStream@@8
rdata$r	SEGMENT DWORD USE32 PUBLIC 'CONST'
rdata$r	ENDS
;	COMDAT ??_R0?AVovfstream@@@8
_DATA	SEGMENT DWORD USE32 PUBLIC 'DATA'
_DATA	ENDS
;	COMDAT ??_R0?AVivfstream@@@8
_DATA	SEGMENT DWORD USE32 PUBLIC 'DATA'
_DATA	ENDS
;	COMDAT ??_R0?AVPacketFactory@@@8
_DATA	SEGMENT DWORD USE32 PUBLIC 'DATA'
_DATA	ENDS
;	COMDAT ??_R0?AVPacket@@@8
_DATA	SEGMENT DWORD USE32 PUBLIC 'DATA'
_DATA	ENDS
;	COMDAT ??_R0?AVIFileIO@@@8
_DATA	SEGMENT DWORD USE32 PUBLIC 'DATA'
_DATA	ENDS
;	COMDAT ??_R0?AVMObject@@@8
_DATA	SEGMENT DWORD USE32 PUBLIC 'DATA'
_DATA	ENDS
;	COMDAT ??_R0?AV?$map@IPAVMHelicopter@@U?$less@I@_STL@@V?$allocator@U?$pair@$$CBIPAVMHelicopter@@@_STL@@@3@@_STL@@@8
_DATA	SEGMENT DWORD USE32 PUBLIC 'DATA'
_DATA	ENDS
;	COMDAT ??_R0?AV?$CTypeMap2@VMHelicopter@@@@@8
_DATA	SEGMENT DWORD USE32 PUBLIC 'DATA'
_DATA	ENDS
;	COMDAT ??_R0?AVPlayer@@@8
_DATA	SEGMENT DWORD USE32 PUBLIC 'DATA'
_DATA	ENDS
;	COMDAT ??_R0?AVClientPlayer@@@8
_DATA	SEGMENT DWORD USE32 PUBLIC 'DATA'
_DATA	ENDS
;	COMDAT ??_R0?AViovfs_base@@@8
_DATA	SEGMENT DWORD USE32 PUBLIC 'DATA'
_DATA	ENDS
;	COMDAT ??_R4ovfstream@@6B@
rdata$r	SEGMENT DWORD USE32 PUBLIC 'CONST'
rdata$r	ENDS
;	COMDAT ??_R4ivfstream@@6B@
rdata$r	SEGMENT DWORD USE32 PUBLIC 'CONST'
rdata$r	ENDS
;	COMDAT ??_R4PacketFactory@@6B@
rdata$r	SEGMENT DWORD USE32 PUBLIC 'CONST'
rdata$r	ENDS
;	COMDAT ??_R4Packet@@6B@
rdata$r	SEGMENT DWORD USE32 PUBLIC 'CONST'
rdata$r	ENDS
;	COMDAT ??_R4IFileIO@@6B@
rdata$r	SEGMENT DWORD USE32 PUBLIC 'CONST'
rdata$r	ENDS
;	COMDAT ??_R4MObject@@6B@
rdata$r	SEGMENT DWORD USE32 PUBLIC 'CONST'
rdata$r	ENDS
;	COMDAT ??_R4?$CTypeMap2@VMHelicopter@@@@6B@
rdata$r	SEGMENT DWORD USE32 PUBLIC 'CONST'
rdata$r	ENDS
;	COMDAT ??_R4ClientPlayer@@6B@
rdata$r	SEGMENT DWORD USE32 PUBLIC 'CONST'
rdata$r	ENDS
;	COMDAT ??_R4SocketEncryptOutputStream@@6B@
rdata$r	SEGMENT DWORD USE32 PUBLIC 'CONST'
rdata$r	ENDS
;	COMDAT ??_R4iovfs_base@@6B@
rdata$r	SEGMENT DWORD USE32 PUBLIC 'CONST'
rdata$r	ENDS
;	COMDAT ??_R4SocketEncryptInputStream@@6B@
rdata$r	SEGMENT DWORD USE32 PUBLIC 'CONST'
rdata$r	ENDS
;	COMDAT ?__copy_trivial_backward@_STL@@YAPAXPBX0PAX@Z
_TEXT	SEGMENT PARA USE32 PUBLIC 'CODE'
_TEXT	ENDS
;	COMDAT ?__copy_trivial@_STL@@YAPAXPBX0PAX@Z
_TEXT	SEGMENT PARA USE32 PUBLIC 'CODE'
_TEXT	ENDS
;	COMDAT ??3@YAXPAX0@Z
_TEXT	SEGMENT PARA USE32 PUBLIC 'CODE'
_TEXT	ENDS
;	COMDAT ?_M_deallocate_block@?$_String_base@DV?$allocator@D@_STL@@@_STL@@QAEXXZ
_TEXT	SEGMENT PARA USE32 PUBLIC 'CODE'
_TEXT	ENDS
;	COMDAT ?deallocate@?$allocator@D@_STL@@QAEXPADI@Z
_TEXT	SEGMENT PARA USE32 PUBLIC 'CODE'
_TEXT	ENDS
;	COMDAT ?_M_incr@_List_iterator_base@_STL@@QAEXXZ
_TEXT	SEGMENT PARA USE32 PUBLIC 'CODE'
_TEXT	ENDS
;	COMDAT ??D?$_List_iterator@V?$basic_string@DV?$char_traits@D@_STL@@V?$allocator@D@2@@_STL@@U?$_Const_traits@V?$basic_string@DV?$char_traits@D@_STL@@V?$allocator@D@2@@_STL@@@2@@_STL@@QBEABV?$basic_string@DV?$char_traits@D@_STL@@V?$allocator@D@2@@1@XZ
_TEXT	SEGMENT PARA USE32 PUBLIC 'CODE'
_TEXT	ENDS
;	COMDAT ?insert@?$list@V?$basic_string@DV?$char_traits@D@_STL@@V?$allocator@D@2@@_STL@@V?$allocator@V?$basic_string@DV?$char_traits@D@_STL@@V?$allocator@D@2@@_STL@@@2@@_STL@@QAE?AU?$_List_iterator@V?$basic_string@DV?$char_traits@D@_STL@@V?$allocator@D@2@@_STL@@U?$_Nonconst_traits@V?$basic_string@DV?$char_traits@D@_STL@@V?$allocator@D@2@@_STL@@@2@@2@U32@ABV?$basic_string@DV?$char_traits@D@_STL@@V?$allocator@D@2@@2@@Z
_TEXT	SEGMENT PARA USE32 PUBLIC 'CODE'
_TEXT	ENDS
;	COMDAT ?_M_create_node@?$list@V?$basic_string@DV?$char_traits@D@_STL@@V?$allocator@D@2@@_STL@@V?$allocator@V?$basic_string@DV?$char_traits@D@_STL@@V?$allocator@D@2@@_STL@@@2@@_STL@@IAEPAU?$_List_node@V?$basic_string@DV?$char_traits@D@_STL@@V?$allocator@D@2@@_STL@@@2@ABV?$basic_string@DV?$char_traits@D@_STL@@V?$allocator@D@2@@2@@Z
_TEXT	SEGMENT PARA USE32 PUBLIC 'CODE'
_TEXT	ENDS
;	COMDAT ?allocate@?$allocator@U?$_List_node@V?$basic_string@DV?$char_traits@D@_STL@@V?$allocator@D@2@@_STL@@@_STL@@@_STL@@QAEPAU?$_List_node@V?$basic_string@DV?$char_traits@D@_STL@@V?$allocator@D@2@@_STL@@@2@IPBX@Z
_TEXT	SEGMENT PARA USE32 PUBLIC 'CODE'
_TEXT	ENDS
;	COMDAT ??$_Construct@V?$basic_string@DV?$char_traits@D@_STL@@V?$allocator@D@2@@_STL@@V12@@_STL@@YAXPAV?$basic_string@DV?$char_traits@D@_STL@@V?$allocator@D@2@@0@ABV10@@Z
_TEXT	SEGMENT PARA USE32 PUBLIC 'CODE'
_TEXT	ENDS
;	COMDAT ?deallocate@?$allocator@U?$_List_node@V?$basic_string@DV?$char_traits@D@_STL@@V?$allocator@D@2@@_STL@@@_STL@@@_STL@@QAEXPAU?$_List_node@V?$basic_string@DV?$char_traits@D@_STL@@V?$allocator@D@2@@_STL@@@2@I@Z
_TEXT	SEGMENT PARA USE32 PUBLIC 'CODE'
_TEXT	ENDS
;	COMDAT ??0?$_List_iterator@V?$basic_string@DV?$char_traits@D@_STL@@V?$allocator@D@2@@_STL@@U?$_Nonconst_traits@V?$basic_string@DV?$char_traits@D@_STL@@V?$allocator@D@2@@_STL@@@2@@_STL@@QAE@PAU?$_List_node@V?$basic_string@DV?$char_traits@D@_STL@@V?$allocator@D@2@@_STL@@@1@@Z
_TEXT	SEGMENT PARA USE32 PUBLIC 'CODE'
_TEXT	ENDS
;	COMDAT ??9_List_iterator_base@_STL@@QBE_NABU01@@Z
_TEXT	SEGMENT PARA USE32 PUBLIC 'CODE'
_TEXT	ENDS
;	COMDAT ?__page_size@_Filebuf_base@_STL@@SAIXZ
_TEXT	SEGMENT PARA USE32 PUBLIC 'CODE'
_TEXT	ENDS
;	COMDAT ?_M_write@?$basic_filebuf@DV?$char_traits@D@_STL@@@_STL@@QAE_NPADH@Z
_TEXT	SEGMENT PARA USE32 PUBLIC 'CODE'
_TEXT	ENDS
;	COMDAT ?unshift@?$codecvt@DDH@_STL@@QBE?AW4result@codecvt_base@2@AAHPAD1AAPAD@Z
_TEXT	SEGMENT PARA USE32 PUBLIC 'CODE'
_TEXT	ENDS
;	COMDAT ?uninitialized_copy@_STL@@YAPADPBD0PAD@Z
_TEXT	SEGMENT PARA USE32 PUBLIC 'CODE'
_TEXT	ENDS
;	COMDAT ?deallocate@?$__node_alloc@$00$0A@@_STL@@SAXPAXI@Z
_TEXT	SEGMENT PARA USE32 PUBLIC 'CODE'
_TEXT	ENDS
;	COMDAT ?__stl_delete@_STL@@YAXPAX@Z
_TEXT	SEGMENT PARA USE32 PUBLIC 'CODE'
_TEXT	ENDS
;	COMDAT ??2@YAPAXIPAX@Z
_TEXT	SEGMENT PARA USE32 PUBLIC 'CODE'
_TEXT	ENDS
;	COMDAT ??8_Rb_tree_base_iterator@_STL@@QBE_NABU01@@Z
_TEXT	SEGMENT PARA USE32 PUBLIC 'CODE'
_TEXT	ENDS
;	COMDAT ??9_Rb_tree_base_iterator@_STL@@QBE_NABU01@@Z
_TEXT	SEGMENT PARA USE32 PUBLIC 'CODE'
_TEXT	ENDS
;	COMDAT ??_7?$CTypeMap2@VMHelicopter@@@@6B@
CONST	SEGMENT DWORD USE32 PUBLIC 'CONST'
CONST	ENDS
;	COMDAT ?assign@?$char_traits@D@_STL@@SAXAADABD@Z
_TEXT	SEGMENT PARA USE32 PUBLIC 'CODE'
_TEXT	ENDS
;	COMDAT ?always_noconv@?$codecvt@DDH@_STL@@QBE_NXZ
_TEXT	SEGMENT PARA USE32 PUBLIC 'CODE'
_TEXT	ENDS
;	COMDAT ?encoding@?$codecvt@DDH@_STL@@QBEHXZ
_TEXT	SEGMENT PARA USE32 PUBLIC 'CODE'
_TEXT	ENDS
;	COMDAT ?max_length@?$codecvt@DDH@_STL@@QBEHXZ
_TEXT	SEGMENT PARA USE32 PUBLIC 'CODE'
_TEXT	ENDS
;	COMDAT ?__o_mode@_Filebuf_base@_STL@@QBEHXZ
_TEXT	SEGMENT PARA USE32 PUBLIC 'CODE'
_TEXT	ENDS
;	COMDAT ?_Destroy@_STL@@YAXPAD0@Z
_TEXT	SEGMENT PARA USE32 PUBLIC 'CODE'
_TEXT	ENDS
;	COMDAT ??0_List_iterator_base@_STL@@QAE@PAU_List_node_base@1@@Z
_TEXT	SEGMENT PARA USE32 PUBLIC 'CODE'
_TEXT	ENDS
;	COMDAT ?begin@?$list@V?$basic_string@DV?$char_traits@D@_STL@@V?$allocator@D@2@@_STL@@V?$allocator@V?$basic_string@DV?$char_traits@D@_STL@@V?$allocator@D@2@@_STL@@@2@@_STL@@QAE?AU?$_List_iterator@V?$basic_string@DV?$char_traits@D@_STL@@V?$allocator@D@2@@_STL@@U?$_Nonconst_traits@V?$basic_string@DV?$char_traits@D@_STL@@V?$allocator@D@2@@_STL@@@2@@2@XZ
_TEXT	SEGMENT PARA USE32 PUBLIC 'CODE'
_TEXT	ENDS
;	COMDAT ?begin@?$list@V?$basic_string@DV?$char_traits@D@_STL@@V?$allocator@D@2@@_STL@@V?$allocator@V?$basic_string@DV?$char_traits@D@_STL@@V?$allocator@D@2@@_STL@@@2@@_STL@@QBE?AU?$_List_iterator@V?$basic_string@DV?$char_traits@D@_STL@@V?$allocator@D@2@@_STL@@U?$_Const_traits@V?$basic_string@DV?$char_traits@D@_STL@@V?$allocator@D@2@@_STL@@@2@@2@XZ
_TEXT	SEGMENT PARA USE32 PUBLIC 'CODE'
_TEXT	ENDS
;	COMDAT ??0?$_List_iterator@V?$basic_string@DV?$char_traits@D@_STL@@V?$allocator@D@2@@_STL@@U?$_Const_traits@V?$basic_string@DV?$char_traits@D@_STL@@V?$allocator@D@2@@_STL@@@2@@_STL@@QAE@PAU?$_List_node@V?$basic_string@DV?$char_traits@D@_STL@@V?$allocator@D@2@@_STL@@@1@@Z
_TEXT	SEGMENT PARA USE32 PUBLIC 'CODE'
_TEXT	ENDS
;	COMDAT ?end@?$list@V?$basic_string@DV?$char_traits@D@_STL@@V?$allocator@D@2@@_STL@@V?$allocator@V?$basic_string@DV?$char_traits@D@_STL@@V?$allocator@D@2@@_STL@@@2@@_STL@@QBE?AU?$_List_iterator@V?$basic_string@DV?$char_traits@D@_STL@@V?$allocator@D@2@@_STL@@U?$_Const_traits@V?$basic_string@DV?$char_traits@D@_STL@@V?$allocator@D@2@@_STL@@@2@@2@XZ
_TEXT	SEGMENT PARA USE32 PUBLIC 'CODE'
_TEXT	ENDS
;	COMDAT ??1?$_List_base@V?$basic_string@DV?$char_traits@D@_STL@@V?$allocator@D@2@@_STL@@V?$allocator@V?$basic_string@DV?$char_traits@D@_STL@@V?$allocator@D@2@@_STL@@@2@@_STL@@QAE@XZ
_TEXT	SEGMENT PARA USE32 PUBLIC 'CODE'
_TEXT	ENDS
;	COMDAT ??1?$_STLP_alloc_proxy@PAU?$_List_node@V?$basic_string@DV?$char_traits@D@_STL@@V?$allocator@D@2@@_STL@@@_STL@@U12@V?$allocator@U?$_List_node@V?$basic_string@DV?$char_traits@D@_STL@@V?$allocator@D@2@@_STL@@@_STL@@@2@@_STL@@QAE@XZ
_TEXT	SEGMENT PARA USE32 PUBLIC 'CODE'
_TEXT	ENDS
;	COMDAT ??1?$allocator@U?$_List_node@V?$basic_string@DV?$char_traits@D@_STL@@V?$allocator@D@2@@_STL@@@_STL@@@_STL@@QAE@XZ
_TEXT	SEGMENT PARA USE32 PUBLIC 'CODE'
_TEXT	ENDS
;	COMDAT ?clear@?$_List_base@V?$basic_string@DV?$char_traits@D@_STL@@V?$allocator@D@2@@_STL@@V?$allocator@V?$basic_string@DV?$char_traits@D@_STL@@V?$allocator@D@2@@_STL@@@2@@_STL@@QAEXXZ
_TEXT	SEGMENT PARA USE32 PUBLIC 'CODE'
_TEXT	ENDS
;	COMDAT ??1?$allocator@V?$basic_string@DV?$char_traits@D@_STL@@V?$allocator@D@2@@_STL@@@_STL@@QAE@XZ
_TEXT	SEGMENT PARA USE32 PUBLIC 'CODE'
_TEXT	ENDS
;	COMDAT ??0?$_List_base@V?$basic_string@DV?$char_traits@D@_STL@@V?$allocator@D@2@@_STL@@V?$allocator@V?$basic_string@DV?$char_traits@D@_STL@@V?$allocator@D@2@@_STL@@@2@@_STL@@QAE@ABV?$allocator@V?$basic_string@DV?$char_traits@D@_STL@@V?$allocator@D@2@@_STL@@@1@@Z
_TEXT	SEGMENT PARA USE32 PUBLIC 'CODE'
_TEXT	ENDS
;	COMDAT ??0?$_STLP_alloc_proxy@PAU?$_List_node@V?$basic_string@DV?$char_traits@D@_STL@@V?$allocator@D@2@@_STL@@@_STL@@U12@V?$allocator@U?$_List_node@V?$basic_string@DV?$char_traits@D@_STL@@V?$allocator@D@2@@_STL@@@_STL@@@2@@_STL@@QAE@ABV?$allocator@U?$_List_node@V?$basic_string@DV?$char_traits@D@_STL@@V?$allocator@D@2@@_STL@@@_STL@@@1@PAU?$_List_node@V?$basic_string@DV?$char_traits@D@_STL@@V?$allocator@D@2@@_STL@@@1@@Z
_TEXT	SEGMENT PARA USE32 PUBLIC 'CODE'
_TEXT	ENDS
;	COMDAT ??0?$allocator@U?$_List_node@V?$basic_string@DV?$char_traits@D@_STL@@V?$allocator@D@2@@_STL@@@_STL@@@_STL@@QAE@ABV01@@Z
_TEXT	SEGMENT PARA USE32 PUBLIC 'CODE'
_TEXT	ENDS
;	COMDAT ??$?0V?$basic_string@DV?$char_traits@D@_STL@@V?$allocator@D@2@@_STL@@@?$allocator@U?$_List_node@V?$basic_string@DV?$char_traits@D@_STL@@V?$allocator@D@2@@_STL@@@_STL@@@_STL@@QAE@ABV?$allocator@V?$basic_string@DV?$char_traits@D@_STL@@V?$allocator@D@2@@_STL@@@1@@Z
_TEXT	SEGMENT PARA USE32 PUBLIC 'CODE'
_TEXT	ENDS
;	COMDAT ?setp@?$basic_streambuf@DV?$char_traits@D@_STL@@@_STL@@IAEXPAD0@Z
_TEXT	SEGMENT PARA USE32 PUBLIC 'CODE'
_TEXT	ENDS
;	COMDAT ?_FILE_O_set@_STL@@YAXPAU_iobuf@@PAD11@Z
_TEXT	SEGMENT PARA USE32 PUBLIC 'CODE'
_TEXT	ENDS
;	COMDAT ?_FILE_I_set@_STL@@YAXPAU_iobuf@@PAD11@Z
_TEXT	SEGMENT PARA USE32 PUBLIC 'CODE'
_TEXT	ENDS
;	COMDAT ?setg@?$basic_streambuf@DV?$char_traits@D@_STL@@@_STL@@IAEXPAD00@Z
_TEXT	SEGMENT PARA USE32 PUBLIC 'CODE'
_TEXT	ENDS
;	COMDAT ?__is_open@_Filebuf_base@_STL@@QBE_NXZ
_TEXT	SEGMENT PARA USE32 PUBLIC 'CODE'
_TEXT	ENDS
;	COMDAT ?allocate@?$__node_alloc@$00$0A@@_STL@@SAPAXI@Z
_TEXT	SEGMENT PARA USE32 PUBLIC 'CODE'
_TEXT	ENDS
;	COMDAT ?__stl_new@_STL@@YAPAXI@Z
_TEXT	SEGMENT PARA USE32 PUBLIC 'CODE'
_TEXT	ENDS
;	COMDAT ??1?$_STLP_alloc_proxy@PADDV?$allocator@D@_STL@@@_STL@@QAE@XZ
_TEXT	SEGMENT PARA USE32 PUBLIC 'CODE'
_TEXT	ENDS
;	COMDAT ?length@?$char_traits@D@_STL@@SAIPBD@Z
_TEXT	SEGMENT PARA USE32 PUBLIC 'CODE'
_TEXT	ENDS
;	COMDAT ?eof@?$__char_traits_base@DH@_STL@@SAHXZ
_TEXT	SEGMENT PARA USE32 PUBLIC 'CODE'
_TEXT	ENDS
;	COMDAT ??_R0?AVSocketInputStream@@@8
_DATA	SEGMENT DWORD USE32 PUBLIC 'DATA'
_DATA	ENDS
;	COMDAT ??_R0?AVSocketEncryptInputStream@@@8
_DATA	SEGMENT DWORD USE32 PUBLIC 'DATA'
_DATA	ENDS
;	COMDAT ??_R0?AVSocketOutputStream@@@8
_DATA	SEGMENT DWORD USE32 PUBLIC 'DATA'
_DATA	ENDS
;	COMDAT ??_R0?AVSocketEncryptOutputStream@@@8
_DATA	SEGMENT DWORD USE32 PUBLIC 'DATA'
_DATA	ENDS
;	COMDAT ??0NoSuchElementException@@QAE@XZ
_TEXT	SEGMENT PARA USE32 PUBLIC 'CODE'
_TEXT	ENDS
;	COMDAT ??0RuntimeException@@QAE@XZ
_TEXT	SEGMENT PARA USE32 PUBLIC 'CODE'
_TEXT	ENDS
;	COMDAT ??0Exception@@QAE@XZ
_TEXT	SEGMENT PARA USE32 PUBLIC 'CODE'
_TEXT	ENDS
;	COMDAT ??0Throwable@@QAE@XZ
_TEXT	SEGMENT PARA USE32 PUBLIC 'CODE'
_TEXT	ENDS
;	COMDAT ??0?$list@V?$basic_string@DV?$char_traits@D@_STL@@V?$allocator@D@2@@_STL@@V?$allocator@V?$basic_string@DV?$char_traits@D@_STL@@V?$allocator@D@2@@_STL@@@2@@_STL@@QAE@ABV?$allocator@V?$basic_string@DV?$char_traits@D@_STL@@V?$allocator@D@2@@_STL@@@1@@Z
_TEXT	SEGMENT PARA USE32 PUBLIC 'CODE'
_TEXT	ENDS
;	COMDAT ??0?$allocator@V?$basic_string@DV?$char_traits@D@_STL@@V?$allocator@D@2@@_STL@@@_STL@@QAE@XZ
_TEXT	SEGMENT PARA USE32 PUBLIC 'CODE'
_TEXT	ENDS
;	COMDAT ??_7RuntimeException@@6B@
CONST	SEGMENT DWORD USE32 PUBLIC 'CONST'
CONST	ENDS
;	COMDAT ??_R4RuntimeException@@6B@
rdata$r	SEGMENT DWORD USE32 PUBLIC 'CONST'
rdata$r	ENDS
;	COMDAT ??_R3RuntimeException@@8
rdata$r	SEGMENT DWORD USE32 PUBLIC 'CONST'
rdata$r	ENDS
;	COMDAT ??_R2RuntimeException@@8
rdata$r	SEGMENT DWORD USE32 PUBLIC 'CONST'
rdata$r	ENDS
;	COMDAT ??_R1A@?0A@A@RuntimeException@@8
rdata$r	SEGMENT DWORD USE32 PUBLIC 'CONST'
rdata$r	ENDS
;	COMDAT ??_R1A@?0A@A@Exception@@8
rdata$r	SEGMENT DWORD USE32 PUBLIC 'CONST'
rdata$r	ENDS
;	COMDAT ??_R1A@?0A@A@Throwable@@8
rdata$r	SEGMENT DWORD USE32 PUBLIC 'CONST'
rdata$r	ENDS
;	COMDAT ??_GRuntimeException@@UAEPAXI@Z
_TEXT	SEGMENT PARA USE32 PUBLIC 'CODE'
_TEXT	ENDS
;	COMDAT ?getName@RuntimeException@@UBE?AV?$basic_string@DV?$char_traits@D@_STL@@V?$allocator@D@2@@_STL@@XZ
_TEXT	SEGMENT PARA USE32 PUBLIC 'CODE'
_TEXT	ENDS
;	COMDAT ??_C@_0BB@CDLLKKB@RuntimeException?$AA@
CONST	SEGMENT DWORD USE32 PUBLIC 'CONST'
CONST	ENDS
;	COMDAT ?toString@Throwable@@UBE?AV?$basic_string@DV?$char_traits@D@_STL@@V?$allocator@D@2@@_STL@@XZ
_TEXT	SEGMENT PARA USE32 PUBLIC 'CODE'
_TEXT	ENDS
;	COMDAT ??_C@_03MCPBMLDJ@?5?3?5?$AA@
CONST	SEGMENT DWORD USE32 PUBLIC 'CONST'
CONST	ENDS
;	COMDAT ?getStackTrace@Throwable@@QBE?AV?$basic_string@DV?$char_traits@D@_STL@@V?$allocator@D@2@@_STL@@XZ
_TEXT	SEGMENT PARA USE32 PUBLIC 'CODE'
_TEXT	ENDS
;	COMDAT ??E?$_List_iterator@V?$basic_string@DV?$char_traits@D@_STL@@V?$allocator@D@2@@_STL@@U?$_Const_traits@V?$basic_string@DV?$char_traits@D@_STL@@V?$allocator@D@2@@_STL@@@2@@_STL@@QAE?AU01@H@Z
_TEXT	SEGMENT PARA USE32 PUBLIC 'CODE'
_TEXT	ENDS
;	COMDAT ??_C@_01CLKCMJKC@?5?$AA@
CONST	SEGMENT DWORD USE32 PUBLIC 'CONST'
CONST	ENDS
;	COMDAT ??_7OutOfBoundException@@6B@
CONST	SEGMENT DWORD USE32 PUBLIC 'CONST'
CONST	ENDS
;	COMDAT ??_R4OutOfBoundException@@6B@
rdata$r	SEGMENT DWORD USE32 PUBLIC 'CONST'
rdata$r	ENDS
;	COMDAT ??_R3OutOfBoundException@@8
rdata$r	SEGMENT DWORD USE32 PUBLIC 'CONST'
rdata$r	ENDS
;	COMDAT ??_R2OutOfBoundException@@8
rdata$r	SEGMENT DWORD USE32 PUBLIC 'CONST'
rdata$r	ENDS
;	COMDAT ??_R1A@?0A@A@OutOfBoundException@@8
rdata$r	SEGMENT DWORD USE32 PUBLIC 'CONST'
rdata$r	ENDS
;	COMDAT ??_GOutOfBoundException@@UAEPAXI@Z
_TEXT	SEGMENT PARA USE32 PUBLIC 'CODE'
_TEXT	ENDS
;	COMDAT ?getName@OutOfBoundException@@UBE?AV?$basic_string@DV?$char_traits@D@_STL@@V?$allocator@D@2@@_STL@@XZ
_TEXT	SEGMENT PARA USE32 PUBLIC 'CODE'
_TEXT	ENDS
;	COMDAT ??_C@_0BE@LPPFFNIN@OutOfBoundException?$AA@
CONST	SEGMENT DWORD USE32 PUBLIC 'CONST'
CONST	ENDS
;	COMDAT ??_7NoSuchElementException@@6B@
CONST	SEGMENT DWORD USE32 PUBLIC 'CONST'
CONST	ENDS
;	COMDAT ??_R4NoSuchElementException@@6B@
rdata$r	SEGMENT DWORD USE32 PUBLIC 'CONST'
rdata$r	ENDS
;	COMDAT ??_R3NoSuchElementException@@8
rdata$r	SEGMENT DWORD USE32 PUBLIC 'CONST'
rdata$r	ENDS
;	COMDAT ??_R2NoSuchElementException@@8
rdata$r	SEGMENT DWORD USE32 PUBLIC 'CONST'
rdata$r	ENDS
;	COMDAT ??_R1A@?0A@A@NoSuchElementException@@8
rdata$r	SEGMENT DWORD USE32 PUBLIC 'CONST'
rdata$r	ENDS
;	COMDAT ??_GNoSuchElementException@@UAEPAXI@Z
_TEXT	SEGMENT PARA USE32 PUBLIC 'CODE'
_TEXT	ENDS
;	COMDAT ?getName@NoSuchElementException@@UBE?AV?$basic_string@DV?$char_traits@D@_STL@@V?$allocator@D@2@@_STL@@XZ
_TEXT	SEGMENT PARA USE32 PUBLIC 'CODE'
_TEXT	ENDS
;	COMDAT ??_C@_0BH@EPEGACME@NoSuchElementException?$AA@
CONST	SEGMENT DWORD USE32 PUBLIC 'CONST'
CONST	ENDS
;	COMDAT ??1RuntimeException@@UAE@XZ
_TEXT	SEGMENT PARA USE32 PUBLIC 'CODE'
_TEXT	ENDS
;	COMDAT __CTA4?AVNoSuchElementException@@
xdata$x	SEGMENT DWORD USE32 PUBLIC 'CONST'
xdata$x	ENDS
;	COMDAT __CTA4?AVOutOfBoundException@@
xdata$x	SEGMENT DWORD USE32 PUBLIC 'CONST'
xdata$x	ENDS
;	COMDAT ??1OutOfBoundException@@UAE@XZ
_TEXT	SEGMENT PARA USE32 PUBLIC 'CODE'
_TEXT	ENDS
;	COMDAT __CT??_R0?AVNoSuchElementException@@@8??0NoSuchElementException@@QAE@ABV0@@Z20
xdata$x	SEGMENT DWORD USE32 PUBLIC 'CONST'
xdata$x	ENDS
;	COMDAT __CT??_R0?AVRuntimeException@@@8??0RuntimeException@@QAE@ABV0@@Z20
xdata$x	SEGMENT DWORD USE32 PUBLIC 'CONST'
xdata$x	ENDS
;	COMDAT __CT??_R0?AVOutOfBoundException@@@8??0OutOfBoundException@@QAE@ABV0@@Z20
xdata$x	SEGMENT DWORD USE32 PUBLIC 'CONST'
xdata$x	ENDS
;	COMDAT ??_R0?AVNoSuchElementException@@@8
_DATA	SEGMENT DWORD USE32 PUBLIC 'DATA'
_DATA	ENDS
;	COMDAT ??_R0?AVRuntimeException@@@8
_DATA	SEGMENT DWORD USE32 PUBLIC 'DATA'
_DATA	ENDS
;	COMDAT ??_R0?AVOutOfBoundException@@@8
_DATA	SEGMENT DWORD USE32 PUBLIC 'DATA'
_DATA	ENDS
;	COMDAT __TI4?AVNoSuchElementException@@
xdata$x	SEGMENT DWORD USE32 PUBLIC 'CONST'
xdata$x	ENDS
;	COMDAT ??1NoSuchElementException@@UAE@XZ
_TEXT	SEGMENT PARA USE32 PUBLIC 'CODE'
_TEXT	ENDS
;	COMDAT ??0NoSuchElementException@@QAE@V?$basic_string@DV?$char_traits@D@_STL@@V?$allocator@D@2@@_STL@@@Z
_TEXT	SEGMENT PARA USE32 PUBLIC 'CODE'
_TEXT	ENDS
;	COMDAT ??0RuntimeException@@QAE@V?$basic_string@DV?$char_traits@D@_STL@@V?$allocator@D@2@@_STL@@@Z
_TEXT	SEGMENT PARA USE32 PUBLIC 'CODE'
_TEXT	ENDS
;	COMDAT ??0Exception@@QAE@V?$basic_string@DV?$char_traits@D@_STL@@V?$allocator@D@2@@_STL@@@Z
_TEXT	SEGMENT PARA USE32 PUBLIC 'CODE'
_TEXT	ENDS
;	COMDAT ??0Throwable@@QAE@V?$basic_string@DV?$char_traits@D@_STL@@V?$allocator@D@2@@_STL@@@Z
_TEXT	SEGMENT PARA USE32 PUBLIC 'CODE'
_TEXT	ENDS
;	COMDAT __TI4?AVOutOfBoundException@@
xdata$x	SEGMENT DWORD USE32 PUBLIC 'CONST'
xdata$x	ENDS
;	COMDAT ??0OutOfBoundException@@QAE@XZ
_TEXT	SEGMENT PARA USE32 PUBLIC 'CODE'
_TEXT	ENDS
;	COMDAT ??_R0?AVConnectException@@@8
_DATA	SEGMENT DWORD USE32 PUBLIC 'DATA'
_DATA	ENDS
;	COMDAT ??_7InsufficientDataException@@6B@
CONST	SEGMENT DWORD USE32 PUBLIC 'CONST'
CONST	ENDS
;	COMDAT ??_R4InsufficientDataException@@6B@
rdata$r	SEGMENT DWORD USE32 PUBLIC 'CONST'
rdata$r	ENDS
;	COMDAT ??_R3InsufficientDataException@@8
rdata$r	SEGMENT DWORD USE32 PUBLIC 'CONST'
rdata$r	ENDS
;	COMDAT ??_R2InsufficientDataException@@8
rdata$r	SEGMENT DWORD USE32 PUBLIC 'CONST'
rdata$r	ENDS
;	COMDAT ??_R1A@?0A@A@InsufficientDataException@@8
rdata$r	SEGMENT DWORD USE32 PUBLIC 'CONST'
rdata$r	ENDS
;	COMDAT ??_R1A@?0A@A@ProtocolException@@8
rdata$r	SEGMENT DWORD USE32 PUBLIC 'CONST'
rdata$r	ENDS
;	COMDAT ??_R1A@?0A@A@IOException@@8
rdata$r	SEGMENT DWORD USE32 PUBLIC 'CONST'
rdata$r	ENDS
;	COMDAT ??_GInsufficientDataException@@UAEPAXI@Z
_TEXT	SEGMENT PARA USE32 PUBLIC 'CODE'
_TEXT	ENDS
;	COMDAT ?getName@InsufficientDataException@@UBE?AV?$basic_string@DV?$char_traits@D@_STL@@V?$allocator@D@2@@_STL@@XZ
_TEXT	SEGMENT PARA USE32 PUBLIC 'CODE'
_TEXT	ENDS
;	COMDAT ??_C@_0BK@MPNKHNEB@InsufficientDataException?$AA@
CONST	SEGMENT DWORD USE32 PUBLIC 'CONST'
CONST	ENDS
;	COMDAT ?toString@InsufficientDataException@@UBE?AV?$basic_string@DV?$char_traits@D@_STL@@V?$allocator@D@2@@_STL@@XZ
_TEXT	SEGMENT PARA USE32 PUBLIC 'CODE'
_TEXT	ENDS
;	COMDAT ?getMessage@Throwable@@QBE?AV?$basic_string@DV?$char_traits@D@_STL@@V?$allocator@D@2@@_STL@@XZ
_TEXT	SEGMENT PARA USE32 PUBLIC 'CODE'
_TEXT	ENDS
;	COMDAT ??_C@_0M@OKDIKPDP@?5?$CI?5lack?5of?5?$AA@
CONST	SEGMENT DWORD USE32 PUBLIC 'CONST'
CONST	ENDS
;	COMDAT ??_C@_09BIPHNNF@?5bytes?5?$CJ?6?$AA@
CONST	SEGMENT DWORD USE32 PUBLIC 'CONST'
CONST	ENDS
;	COMDAT ??_7Exception@@6B@
CONST	SEGMENT DWORD USE32 PUBLIC 'CONST'
CONST	ENDS
;	COMDAT ??_R4Exception@@6B@
rdata$r	SEGMENT DWORD USE32 PUBLIC 'CONST'
rdata$r	ENDS
;	COMDAT ??_R3Exception@@8
rdata$r	SEGMENT DWORD USE32 PUBLIC 'CONST'
rdata$r	ENDS
;	COMDAT ??_R2Exception@@8
rdata$r	SEGMENT DWORD USE32 PUBLIC 'CONST'
rdata$r	ENDS
;	COMDAT ??_GException@@UAEPAXI@Z
_TEXT	SEGMENT PARA USE32 PUBLIC 'CODE'
_TEXT	ENDS
;	COMDAT ?getName@Exception@@UBE?AV?$basic_string@DV?$char_traits@D@_STL@@V?$allocator@D@2@@_STL@@XZ
_TEXT	SEGMENT PARA USE32 PUBLIC 'CODE'
_TEXT	ENDS
;	COMDAT ??_C@_09FBNMMHMJ@Exception?$AA@
CONST	SEGMENT DWORD USE32 PUBLIC 'CONST'
CONST	ENDS
;	COMDAT ??_7IOException@@6B@
CONST	SEGMENT DWORD USE32 PUBLIC 'CONST'
CONST	ENDS
;	COMDAT ??_R4IOException@@6B@
rdata$r	SEGMENT DWORD USE32 PUBLIC 'CONST'
rdata$r	ENDS
;	COMDAT ??_R3IOException@@8
rdata$r	SEGMENT DWORD USE32 PUBLIC 'CONST'
rdata$r	ENDS
;	COMDAT ??_R2IOException@@8
rdata$r	SEGMENT DWORD USE32 PUBLIC 'CONST'
rdata$r	ENDS
;	COMDAT ??_GIOException@@UAEPAXI@Z
_TEXT	SEGMENT PARA USE32 PUBLIC 'CODE'
_TEXT	ENDS
;	COMDAT ?getName@IOException@@UBE?AV?$basic_string@DV?$char_traits@D@_STL@@V?$allocator@D@2@@_STL@@XZ
_TEXT	SEGMENT PARA USE32 PUBLIC 'CODE'
_TEXT	ENDS
;	COMDAT ??_C@_0M@CBPJAJJI@IOException?$AA@
CONST	SEGMENT DWORD USE32 PUBLIC 'CONST'
CONST	ENDS
;	COMDAT ??1Exception@@UAE@XZ
_TEXT	SEGMENT PARA USE32 PUBLIC 'CODE'
_TEXT	ENDS
;	COMDAT ??_7ProtocolException@@6B@
CONST	SEGMENT DWORD USE32 PUBLIC 'CONST'
CONST	ENDS
;	COMDAT ??_R4ProtocolException@@6B@
rdata$r	SEGMENT DWORD USE32 PUBLIC 'CONST'
rdata$r	ENDS
;	COMDAT ??_R3ProtocolException@@8
rdata$r	SEGMENT DWORD USE32 PUBLIC 'CONST'
rdata$r	ENDS
;	COMDAT ??_R2ProtocolException@@8
rdata$r	SEGMENT DWORD USE32 PUBLIC 'CONST'
rdata$r	ENDS
;	COMDAT ??_GProtocolException@@UAEPAXI@Z
_TEXT	SEGMENT PARA USE32 PUBLIC 'CODE'
_TEXT	ENDS
;	COMDAT ?getName@ProtocolException@@UBE?AV?$basic_string@DV?$char_traits@D@_STL@@V?$allocator@D@2@@_STL@@XZ
_TEXT	SEGMENT PARA USE32 PUBLIC 'CODE'
_TEXT	ENDS
;	COMDAT ??_C@_0BC@KDBIDNIF@ProtocolException?$AA@
CONST	SEGMENT DWORD USE32 PUBLIC 'CONST'
CONST	ENDS
;	COMDAT ??1IOException@@UAE@XZ
_TEXT	SEGMENT PARA USE32 PUBLIC 'CODE'
_TEXT	ENDS
;	COMDAT ??_7InvalidProtocolException@@6B@
CONST	SEGMENT DWORD USE32 PUBLIC 'CONST'
CONST	ENDS
;	COMDAT ??_R4InvalidProtocolException@@6B@
rdata$r	SEGMENT DWORD USE32 PUBLIC 'CONST'
rdata$r	ENDS
;	COMDAT ??_R3InvalidProtocolException@@8
rdata$r	SEGMENT DWORD USE32 PUBLIC 'CONST'
rdata$r	ENDS
;	COMDAT ??_R2InvalidProtocolException@@8
rdata$r	SEGMENT DWORD USE32 PUBLIC 'CONST'
rdata$r	ENDS
;	COMDAT ??_R1A@?0A@A@InvalidProtocolException@@8
rdata$r	SEGMENT DWORD USE32 PUBLIC 'CONST'
rdata$r	ENDS
;	COMDAT ??_GInvalidProtocolException@@UAEPAXI@Z
_TEXT	SEGMENT PARA USE32 PUBLIC 'CODE'
_TEXT	ENDS
;	COMDAT ?getName@InvalidProtocolException@@UBE?AV?$basic_string@DV?$char_traits@D@_STL@@V?$allocator@D@2@@_STL@@XZ
_TEXT	SEGMENT PARA USE32 PUBLIC 'CODE'
_TEXT	ENDS
;	COMDAT ??_C@_0BJ@BKELNFKP@InvalidProtocolException?$AA@
CONST	SEGMENT DWORD USE32 PUBLIC 'CONST'
CONST	ENDS
;	COMDAT ??1ProtocolException@@UAE@XZ
_TEXT	SEGMENT PARA USE32 PUBLIC 'CODE'
_TEXT	ENDS
;	COMDAT __CTA5?AVInsufficientDataException@@
xdata$x	SEGMENT DWORD USE32 PUBLIC 'CONST'
xdata$x	ENDS
;	COMDAT ??1InsufficientDataException@@UAE@XZ
_TEXT	SEGMENT PARA USE32 PUBLIC 'CODE'
_TEXT	ENDS
;	COMDAT __CTA5?AVInvalidProtocolException@@
xdata$x	SEGMENT DWORD USE32 PUBLIC 'CONST'
xdata$x	ENDS
;	COMDAT __CT??_R0?AVInsufficientDataException@@@8??0InsufficientDataException@@QAE@ABV0@@Z24
xdata$x	SEGMENT DWORD USE32 PUBLIC 'CONST'
xdata$x	ENDS
;	COMDAT __CT??_R0?AVException@@@8??0Exception@@QAE@ABV0@@Z20
xdata$x	SEGMENT DWORD USE32 PUBLIC 'CONST'
xdata$x	ENDS
;	COMDAT __CT??_R0?AVIOException@@@8??0IOException@@QAE@ABV0@@Z20
xdata$x	SEGMENT DWORD USE32 PUBLIC 'CONST'
xdata$x	ENDS
;	COMDAT __CT??_R0?AVProtocolException@@@8??0ProtocolException@@QAE@ABV0@@Z20
xdata$x	SEGMENT DWORD USE32 PUBLIC 'CONST'
xdata$x	ENDS
;	COMDAT __CT??_R0?AVInvalidProtocolException@@@8??0InvalidProtocolException@@QAE@ABV0@@Z20
xdata$x	SEGMENT DWORD USE32 PUBLIC 'CONST'
xdata$x	ENDS
;	COMDAT ??_R0?AVException@@@8
_DATA	SEGMENT DWORD USE32 PUBLIC 'DATA'
_DATA	ENDS
;	COMDAT ??_R0?AVIOException@@@8
_DATA	SEGMENT DWORD USE32 PUBLIC 'DATA'
_DATA	ENDS
;	COMDAT ??_R0?AVProtocolException@@@8
_DATA	SEGMENT DWORD USE32 PUBLIC 'DATA'
_DATA	ENDS
;	COMDAT ??_R0?AVInvalidProtocolException@@@8
_DATA	SEGMENT DWORD USE32 PUBLIC 'DATA'
_DATA	ENDS
;	COMDAT ??_R0?AVInsufficientDataException@@@8
_DATA	SEGMENT DWORD USE32 PUBLIC 'DATA'
_DATA	ENDS
;	COMDAT __TI5?AVInsufficientDataException@@
xdata$x	SEGMENT DWORD USE32 PUBLIC 'CONST'
xdata$x	ENDS
;	COMDAT ??0InsufficientDataException@@QAE@I@Z
_TEXT	SEGMENT PARA USE32 PUBLIC 'CODE'
_TEXT	ENDS
;	COMDAT ??0ProtocolException@@QAE@XZ
_TEXT	SEGMENT PARA USE32 PUBLIC 'CODE'
_TEXT	ENDS
;	COMDAT ??0IOException@@QAE@XZ
_TEXT	SEGMENT PARA USE32 PUBLIC 'CODE'
_TEXT	ENDS
;	COMDAT ??_R0?AVIgnorePacketException@@@8
_DATA	SEGMENT DWORD USE32 PUBLIC 'DATA'
_DATA	ENDS
;	COMDAT __TI5?AVInvalidProtocolException@@
xdata$x	SEGMENT DWORD USE32 PUBLIC 'CONST'
xdata$x	ENDS
;	COMDAT ??1InvalidProtocolException@@UAE@XZ
_TEXT	SEGMENT PARA USE32 PUBLIC 'CODE'
_TEXT	ENDS
;	COMDAT ??1?$allocator@D@_STL@@QAE@XZ
_TEXT	SEGMENT PARA USE32 PUBLIC 'CODE'
_TEXT	ENDS
;	COMDAT ??0?$allocator@D@_STL@@QAE@XZ
_TEXT	SEGMENT PARA USE32 PUBLIC 'CODE'
_TEXT	ENDS
;	COMDAT ??0?$basic_string@DV?$char_traits@D@_STL@@V?$allocator@D@2@@_STL@@QAE@PBDABV?$allocator@D@1@@Z
_TEXT	SEGMENT PARA USE32 PUBLIC 'CODE'
_TEXT	ENDS
;	COMDAT ??1?$_String_base@DV?$allocator@D@_STL@@@_STL@@QAE@XZ
_TEXT	SEGMENT PARA USE32 PUBLIC 'CODE'
_TEXT	ENDS
;	COMDAT ??0InvalidProtocolException@@QAE@V?$basic_string@DV?$char_traits@D@_STL@@V?$allocator@D@2@@_STL@@@Z
_TEXT	SEGMENT PARA USE32 PUBLIC 'CODE'
_TEXT	ENDS
;	COMDAT ??0ProtocolException@@QAE@V?$basic_string@DV?$char_traits@D@_STL@@V?$allocator@D@2@@_STL@@@Z
_TEXT	SEGMENT PARA USE32 PUBLIC 'CODE'
_TEXT	ENDS
;	COMDAT ??0IOException@@QAE@V?$basic_string@DV?$char_traits@D@_STL@@V?$allocator@D@2@@_STL@@@Z
_TEXT	SEGMENT PARA USE32 PUBLIC 'CODE'
_TEXT	ENDS
;	COMDAT ??_7ClientPlayer@@6B@
CONST	SEGMENT DWORD USE32 PUBLIC 'CONST'
CONST	ENDS
;	COMDAT ??_7MObject@@6B@
CONST	SEGMENT DWORD USE32 PUBLIC 'CONST'
CONST	ENDS
;	COMDAT ??_7SocketEncryptOutputStream@@6B@
CONST	SEGMENT DWORD USE32 PUBLIC 'CONST'
CONST	ENDS
;	COMDAT ??_7SocketEncryptInputStream@@6B@
CONST	SEGMENT DWORD USE32 PUBLIC 'CONST'
CONST	ENDS
;	COMDAT ??_7ovfstream@@6B@
CONST	SEGMENT DWORD USE32 PUBLIC 'CONST'
CONST	ENDS
;	COMDAT ??_7ivfstream@@6B@
CONST	SEGMENT DWORD USE32 PUBLIC 'CONST'
CONST	ENDS
;	COMDAT ??0?$basic_string@DV?$char_traits@D@_STL@@V?$allocator@D@2@@_STL@@QAE@XZ
_TEXT	SEGMENT PARA USE32 PUBLIC 'CODE'
_TEXT	ENDS
;	COMDAT ??_7iovfs_base@@6B@
CONST	SEGMENT DWORD USE32 PUBLIC 'CONST'
CONST	ENDS
;	COMDAT ??_7IFileIO@@6B@
CONST	SEGMENT DWORD USE32 PUBLIC 'CONST'
CONST	ENDS
;	COMDAT ??_7PacketFactory@@6B@
CONST	SEGMENT DWORD USE32 PUBLIC 'CONST'
CONST	ENDS
;	COMDAT ??1?$list@V?$basic_string@DV?$char_traits@D@_STL@@V?$allocator@D@2@@_STL@@V?$allocator@V?$basic_string@DV?$char_traits@D@_STL@@V?$allocator@D@2@@_STL@@@2@@_STL@@QAE@XZ
_TEXT	SEGMENT PARA USE32 PUBLIC 'CODE'
_TEXT	ENDS
;	COMDAT ??_7Throwable@@6B@
CONST	SEGMENT DWORD USE32 PUBLIC 'CONST'
CONST	ENDS
;	COMDAT ??_R4Throwable@@6B@
rdata$r	SEGMENT DWORD USE32 PUBLIC 'CONST'
rdata$r	ENDS
;	COMDAT ??_R3Throwable@@8
rdata$r	SEGMENT DWORD USE32 PUBLIC 'CONST'
rdata$r	ENDS
;	COMDAT ??_R2Throwable@@8
rdata$r	SEGMENT DWORD USE32 PUBLIC 'CONST'
rdata$r	ENDS
;	COMDAT ??_GThrowable@@UAEPAXI@Z
_TEXT	SEGMENT PARA USE32 PUBLIC 'CODE'
_TEXT	ENDS
;	COMDAT ?getName@Throwable@@UBE?AV?$basic_string@DV?$char_traits@D@_STL@@V?$allocator@D@2@@_STL@@XZ
_TEXT	SEGMENT PARA USE32 PUBLIC 'CODE'
_TEXT	ENDS
;	COMDAT ??_C@_09KCKHMJEM@Throwable?$AA@
CONST	SEGMENT DWORD USE32 PUBLIC 'CONST'
CONST	ENDS
;	COMDAT ??_7Error@@6B@
CONST	SEGMENT DWORD USE32 PUBLIC 'CONST'
CONST	ENDS
;	COMDAT ??_R4Error@@6B@
rdata$r	SEGMENT DWORD USE32 PUBLIC 'CONST'
rdata$r	ENDS
;	COMDAT ??_R3Error@@8
rdata$r	SEGMENT DWORD USE32 PUBLIC 'CONST'
rdata$r	ENDS
;	COMDAT ??_R2Error@@8
rdata$r	SEGMENT DWORD USE32 PUBLIC 'CONST'
rdata$r	ENDS
;	COMDAT ??_R1A@?0A@A@Error@@8
rdata$r	SEGMENT DWORD USE32 PUBLIC 'CONST'
rdata$r	ENDS
;	COMDAT ??_GError@@UAEPAXI@Z
_TEXT	SEGMENT PARA USE32 PUBLIC 'CODE'
_TEXT	ENDS
;	COMDAT ?getName@Error@@UBE?AV?$basic_string@DV?$char_traits@D@_STL@@V?$allocator@D@2@@_STL@@XZ
_TEXT	SEGMENT PARA USE32 PUBLIC 'CODE'
_TEXT	ENDS
;	COMDAT ??_C@_05NAOIJFC@Error?$AA@
CONST	SEGMENT DWORD USE32 PUBLIC 'CONST'
CONST	ENDS
;	COMDAT ??1Throwable@@UAE@XZ
_TEXT	SEGMENT PARA USE32 PUBLIC 'CODE'
_TEXT	ENDS
;	COMDAT ??_7UnsupportedError@@6B@
CONST	SEGMENT DWORD USE32 PUBLIC 'CONST'
CONST	ENDS
;	COMDAT ??_R4UnsupportedError@@6B@
rdata$r	SEGMENT DWORD USE32 PUBLIC 'CONST'
rdata$r	ENDS
;	COMDAT ??_R3UnsupportedError@@8
rdata$r	SEGMENT DWORD USE32 PUBLIC 'CONST'
rdata$r	ENDS
;	COMDAT ??_R2UnsupportedError@@8
rdata$r	SEGMENT DWORD USE32 PUBLIC 'CONST'
rdata$r	ENDS
;	COMDAT ??_R1A@?0A@A@UnsupportedError@@8
rdata$r	SEGMENT DWORD USE32 PUBLIC 'CONST'
rdata$r	ENDS
;	COMDAT ??_GUnsupportedError@@UAEPAXI@Z
_TEXT	SEGMENT PARA USE32 PUBLIC 'CODE'
_TEXT	ENDS
;	COMDAT ?getName@UnsupportedError@@UBE?AV?$basic_string@DV?$char_traits@D@_STL@@V?$allocator@D@2@@_STL@@XZ
_TEXT	SEGMENT PARA USE32 PUBLIC 'CODE'
_TEXT	ENDS
;	COMDAT ??_C@_0BB@EOCHEBED@UnsupportedError?$AA@
CONST	SEGMENT DWORD USE32 PUBLIC 'CONST'
CONST	ENDS
;	COMDAT ??1Error@@UAE@XZ
_TEXT	SEGMENT PARA USE32 PUBLIC 'CODE'
_TEXT	ENDS
;	COMDAT __CTA3?AVUnsupportedError@@
xdata$x	SEGMENT DWORD USE32 PUBLIC 'CONST'
xdata$x	ENDS
;	COMDAT ??1UnsupportedError@@UAE@XZ
_TEXT	SEGMENT PARA USE32 PUBLIC 'CODE'
_TEXT	ENDS
;	COMDAT __CT??_R0?AVThrowable@@@8??0Throwable@@QAE@ABV0@@Z20
xdata$x	SEGMENT DWORD USE32 PUBLIC 'CONST'
xdata$x	ENDS
;	COMDAT __CT??_R0?AVError@@@8??0Error@@QAE@ABV0@@Z20
xdata$x	SEGMENT DWORD USE32 PUBLIC 'CONST'
xdata$x	ENDS
;	COMDAT __CT??_R0?AVUnsupportedError@@@8??0UnsupportedError@@QAE@ABV0@@Z20
xdata$x	SEGMENT DWORD USE32 PUBLIC 'CONST'
xdata$x	ENDS
;	COMDAT ??_R0?AVThrowable@@@8
_DATA	SEGMENT DWORD USE32 PUBLIC 'DATA'
_DATA	ENDS
;	COMDAT ??_R0?AVError@@@8
_DATA	SEGMENT DWORD USE32 PUBLIC 'DATA'
_DATA	ENDS
;	COMDAT ??_R0?AVUnsupportedError@@@8
_DATA	SEGMENT DWORD USE32 PUBLIC 'DATA'
_DATA	ENDS
;	COMDAT __TI3?AVUnsupportedError@@
xdata$x	SEGMENT DWORD USE32 PUBLIC 'CONST'
xdata$x	ENDS
;	COMDAT ??0UnsupportedError@@QAE@XZ
_TEXT	SEGMENT PARA USE32 PUBLIC 'CODE'
_TEXT	ENDS
;	COMDAT ??0Error@@QAE@XZ
_TEXT	SEGMENT PARA USE32 PUBLIC 'CODE'
_TEXT	ENDS
;	COMDAT ??_7Packet@@6B@
CONST	SEGMENT DWORD USE32 PUBLIC 'CONST'
CONST	ENDS
;	COMDAT ??1?$basic_string@DV?$char_traits@D@_STL@@V?$allocator@D@2@@_STL@@QAE@XZ
_TEXT	SEGMENT PARA USE32 PUBLIC 'CODE'
_TEXT	ENDS
;	COMDAT ??0?$basic_string@DV?$char_traits@D@_STL@@V?$allocator@D@2@@_STL@@QAE@ABV01@@Z
_TEXT	SEGMENT PARA USE32 PUBLIC 'CODE'
_TEXT	ENDS
;	COMDAT ??4?$basic_string@DV?$char_traits@D@_STL@@V?$allocator@D@2@@_STL@@QAEAAV01@ABV01@@Z
_TEXT	SEGMENT PARA USE32 PUBLIC 'CODE'
_TEXT	ENDS
;	COMDAT ??$assign@PAD@?$basic_string@DV?$char_traits@D@_STL@@V?$allocator@D@2@@_STL@@QAEAAV01@PAD0@Z
_TEXT	SEGMENT PARA USE32 PUBLIC 'CODE'
_TEXT	ENDS
sxdata	SEGMENT DWORD USE32 'SXDATA'
sxdata	ENDS
FLAT	GROUP _DATA, CONST, _BSS
	ASSUME	CS: FLAT, DS: FLAT, SS: FLAT
endif

INCLUDELIB LIBCMT
INCLUDELIB OLDNAMES

PUBLIC	??_C@_0O@JKENFCBN@MinTrace?52003?$AA@		; `string'
PUBLIC	??_C@_0BE@MNEJIGLM@__MinTrace?5Window__?$AA@	; `string'
;	COMDAT ??_C@_0O@JKENFCBN@MinTrace?52003?$AA@
CONST	SEGMENT
??_C@_0O@JKENFCBN@MinTrace?52003?$AA@ DB 'MinTrace 2003', 00H ; `string'
CONST	ENDS
_DATA	SEGMENT
_g_pszMinTraceTitle DD FLAT:??_C@_0O@JKENFCBN@MinTrace?52003?$AA@
_DATA	ENDS
;	COMDAT ??_C@_0BE@MNEJIGLM@__MinTrace?5Window__?$AA@
CONST	SEGMENT
??_C@_0BE@MNEJIGLM@__MinTrace?5Window__?$AA@ DB '__MinTrace Window__', 00H ; `string'
CONST	ENDS
_DATA	SEGMENT
_g_pszMinTraceClassName DD FLAT:??_C@_0BE@MNEJIGLM@__MinTrace?5Window__?$AA@
_DATA	ENDS
PUBLIC	?getSOCKET@SocketImpl@@QBEIXZ			; SocketImpl::getSOCKET
; Function compile flags: /Ogsy
; File c:\darkeden\designed_common\project\client\packet\socketimpl.h
;	COMDAT ?getSOCKET@SocketImpl@@QBEIXZ
_TEXT	SEGMENT
?getSOCKET@SocketImpl@@QBEIXZ PROC NEAR			; SocketImpl::getSOCKET, COMDAT
; _this$ = ecx

; 123  : 	SOCKET getSOCKET () const throw () { return m_SocketID; }

  00000	8b 41 04	 mov	 eax, DWORD PTR [ecx+4]
  00003	c3		 ret	 0
?getSOCKET@SocketImpl@@QBEIXZ ENDP			; SocketImpl::getSOCKET
_TEXT	ENDS
PUBLIC	?close@Socket@@QAEXXZ				; Socket::close
EXTRN	?close@SocketImpl@@QAEXXZ:NEAR			; SocketImpl::close
; Function compile flags: /Ogsy
; File c:\darkeden\designed_common\project\client\packet\socket.h
;	COMDAT ?close@Socket@@QAEXXZ
_TEXT	SEGMENT
?close@Socket@@QAEXXZ PROC NEAR				; Socket::close, COMDAT
; _this$ = ecx

; 54   : 	void close () throw ( Error ) { m_pSocketImpl->close(); }

  00000	8b 49 04	 mov	 ecx, DWORD PTR [ecx+4]
  00003	e9 00 00 00 00	 jmp	 ?close@SocketImpl@@QAEXXZ ; SocketImpl::close
?close@Socket@@QAEXXZ ENDP				; Socket::close
_TEXT	ENDS
PUBLIC	??2@YAPAXIPAX@Z					; operator new
; Function compile flags: /Ogsy
; File c:\program files\microsoft visual studio .net 2003\vc7\include\new
;	COMDAT ??2@YAPAXIPAX@Z
_TEXT	SEGMENT
___formal$ = 8						; size = 4
__Where$ = 12						; size = 4
??2@YAPAXIPAX@Z PROC NEAR				; operator new, COMDAT

; 64   : 	return (_Where);

  00000	8b 44 24 08	 mov	 eax, DWORD PTR __Where$[esp-4]

; 65   : 	}

  00004	c3		 ret	 0
??2@YAPAXIPAX@Z ENDP					; operator new
_TEXT	ENDS
PUBLIC	??3@YAXPAX0@Z					; operator delete
; Function compile flags: /Ogsy
;	COMDAT ??3@YAXPAX0@Z
_TEXT	SEGMENT
___formal$ = 8						; size = 4
___formal$ = 12						; size = 4
??3@YAXPAX0@Z PROC NEAR					; operator delete, COMDAT

; 69   : 	}

  00000	c3		 ret	 0
??3@YAXPAX0@Z ENDP					; operator delete
_TEXT	ENDS
PUBLIC	?__stl_new@_STL@@YAPAXI@Z			; _STL::__stl_new
EXTRN	??2@YAPAXI@Z:NEAR				; operator new
; Function compile flags: /Ogsy
; File c:\stlport-4.6.1\stlport\stl\_new.h
;	COMDAT ?__stl_new@_STL@@YAPAXI@Z
_TEXT	SEGMENT
___n$ = 8						; size = 4
?__stl_new@_STL@@YAPAXI@Z PROC NEAR			; _STL::__stl_new, COMDAT

; 86   : inline void*  _STLP_CALL __stl_new(size_t __n)   { _STLP_CHECK_NULL_ALLOC(::operator _STLP_NEW(__n)); }

  00000	e9 00 00 00 00	 jmp	 ??2@YAPAXI@Z		; operator new
?__stl_new@_STL@@YAPAXI@Z ENDP				; _STL::__stl_new
_TEXT	ENDS
PUBLIC	?__stl_delete@_STL@@YAXPAX@Z			; _STL::__stl_delete
EXTRN	??3@YAXPAX@Z:NEAR				; operator delete
; Function compile flags: /Ogsy
;	COMDAT ?__stl_delete@_STL@@YAXPAX@Z
_TEXT	SEGMENT
___p$ = 8						; size = 4
?__stl_delete@_STL@@YAXPAX@Z PROC NEAR			; _STL::__stl_delete, COMDAT

; 87   : inline void   _STLP_CALL __stl_delete(void* __p) { ::operator delete(__p); }

  00000	e9 00 00 00 00	 jmp	 ??3@YAXPAX@Z		; operator delete
?__stl_delete@_STL@@YAXPAX@Z ENDP			; _STL::__stl_delete
_TEXT	ENDS
PUBLIC	?getSOCKET@Socket@@QBEIXZ			; Socket::getSOCKET
; Function compile flags: /Ogsy
; File c:\darkeden\designed_common\project\client\packet\socket.h
;	COMDAT ?getSOCKET@Socket@@QBEIXZ
_TEXT	SEGMENT
?getSOCKET@Socket@@QBEIXZ PROC NEAR			; Socket::getSOCKET, COMDAT
; _this$ = ecx

; 102  : 	SOCKET getSOCKET () const throw () { return m_pSocketImpl->getSOCKET(); }

  00000	8b 41 04	 mov	 eax, DWORD PTR [ecx+4]
  00003	8b 40 04	 mov	 eax, DWORD PTR [eax+4]
  00006	c3		 ret	 0
?getSOCKET@Socket@@QBEIXZ ENDP				; Socket::getSOCKET
_TEXT	ENDS
PUBLIC	?_Destroy@_STL@@YAXPAD0@Z			; _STL::_Destroy
; Function compile flags: /Ogsy
; File c:\stlport-4.6.1\stlport\stl\_construct.h
;	COMDAT ?_Destroy@_STL@@YAXPAD0@Z
_TEXT	SEGMENT
___formal$ = 8						; size = 4
___formal$ = 12						; size = 4
?_Destroy@_STL@@YAXPAD0@Z PROC NEAR			; _STL::_Destroy, COMDAT

; 142  : inline void _Destroy(char*, char*) {}

  00000	c3		 ret	 0
?_Destroy@_STL@@YAXPAD0@Z ENDP				; _STL::_Destroy
_TEXT	ENDS
PUBLIC	?__copy_trivial@_STL@@YAPAXPBX0PAX@Z		; _STL::__copy_trivial
EXTRN	_memmove:NEAR
; Function compile flags: /Ogsy
; File c:\stlport-4.6.1\stlport\stl\_algobase.h
;	COMDAT ?__copy_trivial@_STL@@YAPAXPBX0PAX@Z
_TEXT	SEGMENT
___first$ = 8						; size = 4
___last$ = 12						; size = 4
___result$ = 16						; size = 4
?__copy_trivial@_STL@@YAPAXPBX0PAX@Z PROC NEAR		; _STL::__copy_trivial, COMDAT

; 147  : __copy_trivial(const void* __first, const void* __last, void* __result) {

  00000	55		 push	 ebp
  00001	8b ec		 mov	 ebp, esp
  00003	56		 push	 esi

; 148  :   return (__last == __first) ? __result : 
; 149  :     ((char*)memmove(__result, __first, ((const char*)__last - (const char*)__first))) + 
; 150  :     ((const char*)__last - (const char*)__first);

  00004	8b 75 0c	 mov	 esi, DWORD PTR ___last$[ebp]
  00007	3b 75 08	 cmp	 esi, DWORD PTR ___first$[ebp]
  0000a	75 05		 jne	 SHORT $L114716
  0000c	8b 45 10	 mov	 eax, DWORD PTR ___result$[ebp]
  0000f	eb 14		 jmp	 SHORT $L114717
$L114716:
  00011	2b 75 08	 sub	 esi, DWORD PTR ___first$[ebp]
  00014	56		 push	 esi
  00015	ff 75 08	 push	 DWORD PTR ___first$[ebp]
  00018	ff 75 10	 push	 DWORD PTR ___result$[ebp]
  0001b	e8 00 00 00 00	 call	 _memmove
  00020	83 c4 0c	 add	 esp, 12			; 0000000cH
  00023	03 c6		 add	 eax, esi
$L114717:
  00025	5e		 pop	 esi

; 151  : }

  00026	5d		 pop	 ebp
  00027	c3		 ret	 0
?__copy_trivial@_STL@@YAPAXPBX0PAX@Z ENDP		; _STL::__copy_trivial
_TEXT	ENDS
PUBLIC	?__copy_trivial_backward@_STL@@YAPAXPBX0PAX@Z	; _STL::__copy_trivial_backward
; Function compile flags: /Ogsy
;	COMDAT ?__copy_trivial_backward@_STL@@YAPAXPBX0PAX@Z
_TEXT	SEGMENT
___first$ = 8						; size = 4
___last$ = 12						; size = 4
___result$ = 16						; size = 4
?__copy_trivial_backward@_STL@@YAPAXPBX0PAX@Z PROC NEAR	; _STL::__copy_trivial_backward, COMDAT

; 182  : __copy_trivial_backward(const void* __first, const void* __last, void* __result) {

  00000	55		 push	 ebp
  00001	8b ec		 mov	 ebp, esp

; 183  :   const ptrdiff_t _Num = (const char*)__last - (const char*)__first;

  00003	8b 45 0c	 mov	 eax, DWORD PTR ___last$[ebp]
  00006	2b 45 08	 sub	 eax, DWORD PTR ___first$[ebp]

; 184  :   return (_Num > 0) ? memmove((char*)__result - _Num, __first, _Num) : __result ;

  00009	85 c0		 test	 eax, eax
  0000b	7e 14		 jle	 SHORT $L114720
  0000d	8b 4d 10	 mov	 ecx, DWORD PTR ___result$[ebp]
  00010	50		 push	 eax
  00011	ff 75 08	 push	 DWORD PTR ___first$[ebp]
  00014	2b c8		 sub	 ecx, eax
  00016	51		 push	 ecx
  00017	e8 00 00 00 00	 call	 _memmove
  0001c	83 c4 0c	 add	 esp, 12			; 0000000cH

; 185  : }

  0001f	5d		 pop	 ebp
  00020	c3		 ret	 0
$L114720:

; 184  :   return (_Num > 0) ? memmove((char*)__result - _Num, __first, _Num) : __result ;

  00021	8b 45 10	 mov	 eax, DWORD PTR ___result$[ebp]

; 185  : }

  00024	5d		 pop	 ebp
  00025	c3		 ret	 0
?__copy_trivial_backward@_STL@@YAPAXPBX0PAX@Z ENDP	; _STL::__copy_trivial_backward
_TEXT	ENDS
PUBLIC	?uninitialized_copy@_STL@@YAPADPBD0PAD@Z	; _STL::uninitialized_copy
; Function compile flags: /Ogsy
; File c:\stlport-4.6.1\stlport\stl\_uninitialized.h
;	COMDAT ?uninitialized_copy@_STL@@YAPADPBD0PAD@Z
_TEXT	SEGMENT
___first$ = 8						; size = 4
___last$ = 12						; size = 4
___result$ = 16						; size = 4
?uninitialized_copy@_STL@@YAPADPBD0PAD@Z PROC NEAR	; _STL::uninitialized_copy, COMDAT

; 84   :   return  (char*)__copy_trivial (__first, __last, __result);

  00000	e9 00 00 00 00	 jmp	 ?__copy_trivial@_STL@@YAPAXPBX0PAX@Z ; _STL::__copy_trivial
?uninitialized_copy@_STL@@YAPADPBD0PAD@Z ENDP		; _STL::uninitialized_copy
_TEXT	ENDS
PUBLIC	?length@?$char_traits@D@_STL@@SAIPBD@Z		; _STL::char_traits<char>::length
EXTRN	_strlen:NEAR
; Function compile flags: /Ogsy
; File c:\stlport-4.6.1\stlport\stl\char_traits.h
;	COMDAT ?length@?$char_traits@D@_STL@@SAIPBD@Z
_TEXT	SEGMENT
___s$ = 8						; size = 4
?length@?$char_traits@D@_STL@@SAIPBD@Z PROC NEAR	; _STL::char_traits<char>::length, COMDAT

; 238  :   static size_t _STLP_CALL length(const char* __s) { return strlen(__s); }

  00000	e9 00 00 00 00	 jmp	 _strlen
?length@?$char_traits@D@_STL@@SAIPBD@Z ENDP		; _STL::char_traits<char>::length
_TEXT	ENDS
PUBLIC	?getPlayerStatus@ClientPlayer@@QBE?AW4PlayerStatus@@XZ ; ClientPlayer::getPlayerStatus
; Function compile flags: /Ogsy
; File c:\darkeden\designed_common\project\client\packet\clientplayer.h
;	COMDAT ?getPlayerStatus@ClientPlayer@@QBE?AW4PlayerStatus@@XZ
_TEXT	SEGMENT
?getPlayerStatus@ClientPlayer@@QBE?AW4PlayerStatus@@XZ PROC NEAR ; ClientPlayer::getPlayerStatus, COMDAT
; _this$ = ecx

; 70   : 	PlayerStatus getPlayerStatus () const throw () { return m_PlayerStatus; }

  00000	8b 41 58	 mov	 eax, DWORD PTR [ecx+88]
  00003	c3		 ret	 0
?getPlayerStatus@ClientPlayer@@QBE?AW4PlayerStatus@@XZ ENDP ; ClientPlayer::getPlayerStatus
_TEXT	ENDS
PUBLIC	?setEncryptCode@SocketEncryptInputStream@@QAEXE@Z ; SocketEncryptInputStream::setEncryptCode
EXTRN	?setCode@Encrypter@@QAEXE@Z:NEAR		; Encrypter::setCode
; Function compile flags: /Ogsy
; File c:\darkeden\designed_common\project\client\packet\socketencryptinputstream.h
;	COMDAT ?setEncryptCode@SocketEncryptInputStream@@QAEXE@Z
_TEXT	SEGMENT
_code$ = 8						; size = 1
?setEncryptCode@SocketEncryptInputStream@@QAEXE@Z PROC NEAR ; SocketEncryptInputStream::setEncryptCode, COMDAT
; _this$ = ecx

; 58   : 	void	setEncryptCode(uchar code)	{ m_Encrypter.setCode(code); }

  00000	83 c1 18	 add	 ecx, 24			; 00000018H
  00003	e9 00 00 00 00	 jmp	 ?setCode@Encrypter@@QAEXE@Z ; Encrypter::setCode
?setEncryptCode@SocketEncryptInputStream@@QAEXE@Z ENDP	; SocketEncryptInputStream::setEncryptCode
_TEXT	ENDS
PUBLIC	?setEncryptCode@SocketEncryptOutputStream@@QAEXE@Z ; SocketEncryptOutputStream::setEncryptCode
; Function compile flags: /Ogsy
; File c:\darkeden\designed_common\project\client\packet\socketencryptoutputstream.h
;	COMDAT ?setEncryptCode@SocketEncryptOutputStream@@QAEXE@Z
_TEXT	SEGMENT
_code$ = 8						; size = 1
?setEncryptCode@SocketEncryptOutputStream@@QAEXE@Z PROC NEAR ; SocketEncryptOutputStream::setEncryptCode, COMDAT
; _this$ = ecx

; 58   : 	void	setEncryptCode(uchar code)	{ m_Encrypter.setCode(code); }

  00000	83 c1 18	 add	 ecx, 24			; 00000018H
  00003	e9 00 00 00 00	 jmp	 ?setCode@Encrypter@@QAEXE@Z ; Encrypter::setCode
?setEncryptCode@SocketEncryptOutputStream@@QAEXE@Z ENDP	; SocketEncryptOutputStream::setEncryptCode
_TEXT	ENDS
PUBLIC	?DEBUG_ADD@@YAXPBD@Z				; DEBUG_ADD
; Function compile flags: /Ogsy
; File c:\darkeden\designed_common\project\client\debuginfo.h
;	COMDAT ?DEBUG_ADD@@YAXPBD@Z
_TEXT	SEGMENT
_message$ = 8						; size = 4
?DEBUG_ADD@@YAXPBD@Z PROC NEAR				; DEBUG_ADD, COMDAT

; 80   : 		inline void	DEBUG_ADD( const char* message )		{}

  00000	c3		 ret	 0
?DEBUG_ADD@@YAXPBD@Z ENDP				; DEBUG_ADD
_TEXT	ENDS
PUBLIC	?DEBUG_ADD_ERR@@YAXPBD@Z			; DEBUG_ADD_ERR
; Function compile flags: /Ogsy
;	COMDAT ?DEBUG_ADD_ERR@@YAXPBD@Z
_TEXT	SEGMENT
_message$ = 8						; size = 4
?DEBUG_ADD_ERR@@YAXPBD@Z PROC NEAR			; DEBUG_ADD_ERR, COMDAT

; 81   : 		inline void DEBUG_ADD_ERR( const char* message )	{}

  00000	c3		 ret	 0
?DEBUG_ADD_ERR@@YAXPBD@Z ENDP				; DEBUG_ADD_ERR
_TEXT	ENDS
PUBLIC	?DEBUG_ADD_FORMAT@@YAXPBDZZ			; DEBUG_ADD_FORMAT
; Function compile flags: /Ogsy
;	COMDAT ?DEBUG_ADD_FORMAT@@YAXPBDZZ
_TEXT	SEGMENT
_format$ = 8						; size = 4
?DEBUG_ADD_FORMAT@@YAXPBDZZ PROC NEAR			; DEBUG_ADD_FORMAT, COMDAT

; 85   : 		inline void	DEBUG_ADD_FORMAT(const char* format, ...) {}

  00000	c3		 ret	 0
?DEBUG_ADD_FORMAT@@YAXPBDZZ ENDP			; DEBUG_ADD_FORMAT
_TEXT	ENDS
PUBLIC	?DEBUG_ADD_FORMAT_ERR@@YAXPBDZZ			; DEBUG_ADD_FORMAT_ERR
; Function compile flags: /Ogsy
;	COMDAT ?DEBUG_ADD_FORMAT_ERR@@YAXPBDZZ
_TEXT	SEGMENT
_format$ = 8						; size = 4
?DEBUG_ADD_FORMAT_ERR@@YAXPBDZZ PROC NEAR		; DEBUG_ADD_FORMAT_ERR, COMDAT

; 86   : 		inline void	DEBUG_ADD_FORMAT_ERR(const char* format, ...) {}

  00000	c3		 ret	 0
?DEBUG_ADD_FORMAT_ERR@@YAXPBDZZ ENDP			; DEBUG_ADD_FORMAT_ERR
_TEXT	ENDS
PUBLIC	?GetID@MZone@@QBEGXZ				; MZone::GetID
; Function compile flags: /Ogsy
; File c:\darkeden\designed_common\project\client\mzone.h
;	COMDAT ?GetID@MZone@@QBEGXZ
_TEXT	SEGMENT
?GetID@MZone@@QBEGXZ PROC NEAR				; MZone::GetID, COMDAT
; _this$ = ecx

; 148  : 		WORD			GetID() const				{ return m_Info.ZoneID; }			//	 

  00000	66 8b 41 0c	 mov	 ax, WORD PTR [ecx+12]
  00004	c3		 ret	 0
?GetID@MZone@@QBEGXZ ENDP				; MZone::GetID
_TEXT	ENDS
PUBLIC	?setEncryptCode@ClientPlayer@@QAEXXZ		; ClientPlayer::setEncryptCode
PUBLIC	??_R0?AVSocketOutputStream@@@8			; SocketOutputStream `RTTI Type Descriptor'
PUBLIC	??_R0?AVSocketEncryptOutputStream@@@8		; SocketEncryptOutputStream `RTTI Type Descriptor'
PUBLIC	??_R0?AVSocketInputStream@@@8			; SocketInputStream `RTTI Type Descriptor'
PUBLIC	??_R0?AVSocketEncryptInputStream@@@8		; SocketEncryptInputStream `RTTI Type Descriptor'
EXTRN	?g_pUserInformation@@3PAVUserInformation@@A:DWORD ; g_pUserInformation
EXTRN	??_7type_info@@6B@:QWORD			; type_info::`vftable'
EXTRN	___RTDynamicCast:NEAR
EXTRN	?g_pZone@@3PAVMZone@@A:DWORD			; g_pZone
;	COMDAT ??_R0?AVSocketEncryptOutputStream@@@8
; File c:\darkeden\designed_common\project\client\packet\socketencryptinputstream.h
_DATA	SEGMENT
??_R0?AVSocketEncryptOutputStream@@@8 DD FLAT:??_7type_info@@6B@ ; SocketEncryptOutputStream `RTTI Type Descriptor'
	DD	00H
	DB	'.?AVSocketEncryptOutputStream@@', 00H
_DATA	ENDS
;	COMDAT ??_R0?AVSocketOutputStream@@@8
_DATA	SEGMENT
??_R0?AVSocketOutputStream@@@8 DD FLAT:??_7type_info@@6B@ ; SocketOutputStream `RTTI Type Descriptor'
	DD	00H
	DB	'.?AVSocketOutputStream@@', 00H
_DATA	ENDS
;	COMDAT ??_R0?AVSocketEncryptInputStream@@@8
_DATA	SEGMENT
??_R0?AVSocketEncryptInputStream@@@8 DD FLAT:??_7type_info@@6B@ ; SocketEncryptInputStream `RTTI Type Descriptor'
	DD	00H
	DB	'.?AVSocketEncryptInputStream@@', 00H
_DATA	ENDS
;	COMDAT ??_R0?AVSocketInputStream@@@8
_DATA	SEGMENT
??_R0?AVSocketInputStream@@@8 DD FLAT:??_7type_info@@6B@ ; SocketInputStream `RTTI Type Descriptor'
	DD	00H
	DB	'.?AVSocketInputStream@@', 00H
; Function compile flags: /Ogsy
; File c:\darkeden\designed_common\project\client\packet\clientplayer.cpp
_DATA	ENDS
;	COMDAT ?setEncryptCode@ClientPlayer@@QAEXXZ
_TEXT	SEGMENT
_code$111868 = -4					; size = 1
?setEncryptCode@ClientPlayer@@QAEXXZ PROC NEAR		; ClientPlayer::setEncryptCode, COMDAT
; _this$ = ecx

; 547  : {

  00000	55		 push	 ebp
  00001	8b ec		 mov	 ebp, esp
  00003	51		 push	 ecx

; 548  : #ifdef __USE_ENCRYPTER__
; 549  :     __BEGIN_TRY
; 550  : 
; 551  : //	Assert(g_pPlayer!=NULL);
; 552  : 	Assert(g_pZone!=NULL);
; 553  : 
; 554  : 	//  ObjectID .
; 555  : //	ObjectID_t objectID = g_pPlayer->GetID();
; 556  : 	ZoneID_t zoneID = g_pZone->GetID();

  00004	a1 00 00 00 00	 mov	 eax, DWORD PTR ?g_pZone@@3PAVMZone@@A ; g_pZone
  00009	66 8b 50 0c	 mov	 dx, WORD PTR [eax+12]
  0000d	53		 push	 ebx
  0000e	56		 push	 esi
  0000f	8b f1		 mov	 esi, ecx

; 557  : 	int serverID = g_pUserInformation->ServerID;

  00011	8b 0d 00 00 00
	00		 mov	 ecx, DWORD PTR ?g_pUserInformation@@3PAVUserInformation@@A ; g_pUserInformation
  00017	8b 81 04 01 00
	00		 mov	 eax, DWORD PTR [ecx+260]

; 558  : 
; 559  : //	if (objectID!=0)
; 560  : 	{
; 561  : //		uchar code = (uchar)(objectID / zoneID + objectID);		
; 562  : 		uchar code;
; 563  : 
; 564  : 		if( g_pUserInformation->IsNetmarble )

  0001d	33 db		 xor	 ebx, ebx
  0001f	38 99 e0 00 00
	00		 cmp	 BYTE PTR [ecx+224], bl
  00025	57		 push	 edi

; 565  : 			code = (uchar)( ( ( ( zoneID ) >> 8 ) ^ ( zoneID ) ) ^ ( ( ( serverID ) + 1 ) << 4 ) );
; 566  : 	    else if ( g_pUserInformation->bChinese )

  00026	75 13		 jne	 SHORT $L111872
  00028	38 99 24 01 00
	00		 cmp	 BYTE PTR [ecx+292], bl
  0002e	74 0b		 je	 SHORT $L111872

; 567  : 			code = (uchar) ( ( ( ( ( serverID ) + 1 ) << 4 ) | ( zoneID ) ) ^ ( ( zoneID ) >> 8 ) );

  00030	fe c0		 inc	 al
  00032	c0 e0 04	 shl	 al, 4
  00035	0a c2		 or	 al, dl
  00037	8a d6		 mov	 dl, dh

; 568  : //			code = (uchar)( ( ( ( zoneID ) >> 8 ) ^ ( zoneID ) ) ^ ( ( ( serverID ) + 1 ) << 4 ) );
; 569  : //		else if ( g_pUserInformation->bEnglish )
; 570  : //			code = (uchar)( ( ( ( zoneID ) >> 8 ) ^ ( zoneID ) ) ^ ( ( ( serverID ) + 1 ) * 51 ) );
; 571  : 		else

  00039	eb 09		 jmp	 SHORT $L114765
$L111872:

; 572  : 			code = (uchar)( ( ( ( zoneID ) >> 8 ) ^ ( zoneID ) ) ^ ( ( ( serverID ) + 1 ) << 4 ) );

  0003b	fe c0		 inc	 al
  0003d	c0 e0 04	 shl	 al, 4
  00040	8a ce		 mov	 cl, dh
  00042	32 c1		 xor	 al, cl
$L114765:

; 573  : 
; 574  : 		SocketEncryptOutputStream* pEOS = dynamic_cast<SocketEncryptOutputStream*>(m_pOutputStream);

  00044	53		 push	 ebx
  00045	68 00 00 00 00	 push	 OFFSET FLAT:??_R0?AVSocketEncryptOutputStream@@@8
  0004a	68 00 00 00 00	 push	 OFFSET FLAT:??_R0?AVSocketOutputStream@@@8
  0004f	53		 push	 ebx
  00050	ff 76 18	 push	 DWORD PTR [esi+24]
  00053	32 c2		 xor	 al, dl
  00055	88 45 fc	 mov	 BYTE PTR _code$111868[ebp], al
  00058	e8 00 00 00 00	 call	 ___RTDynamicCast

; 575  : 		Assert(pEOS!=NULL);
; 576  : 
; 577  : 		SocketEncryptInputStream* pEIS = dynamic_cast<SocketEncryptInputStream*>(m_pInputStream);

  0005d	53		 push	 ebx
  0005e	68 00 00 00 00	 push	 OFFSET FLAT:??_R0?AVSocketEncryptInputStream@@@8
  00063	68 00 00 00 00	 push	 OFFSET FLAT:??_R0?AVSocketInputStream@@@8
  00068	53		 push	 ebx
  00069	ff 76 14	 push	 DWORD PTR [esi+20]
  0006c	8b f8		 mov	 edi, eax
  0006e	e8 00 00 00 00	 call	 ___RTDynamicCast
  00073	83 c4 28	 add	 esp, 40			; 00000028H

; 578  : 		Assert(pEIS!=NULL);
; 579  : 
; 580  : 		pEOS->setEncryptCode(code);

  00076	ff 75 fc	 push	 DWORD PTR _code$111868[ebp]
  00079	8d 4f 18	 lea	 ecx, DWORD PTR [edi+24]
  0007c	8b f0		 mov	 esi, eax
  0007e	e8 00 00 00 00	 call	 ?setCode@Encrypter@@QAEXE@Z ; Encrypter::setCode

; 581  : 		pEIS->setEncryptCode(code);

  00083	ff 75 fc	 push	 DWORD PTR _code$111868[ebp]
  00086	8d 4e 18	 lea	 ecx, DWORD PTR [esi+24]
  00089	e8 00 00 00 00	 call	 ?setCode@Encrypter@@QAEXE@Z ; Encrypter::setCode
  0008e	5f		 pop	 edi
  0008f	5e		 pop	 esi
  00090	5b		 pop	 ebx

; 582  : 	}
; 583  : 
; 584  : 	__END_CATCH
; 585  : #endif
; 586  : }

  00091	c9		 leave
  00092	c3		 ret	 0
?setEncryptCode@ClientPlayer@@QAEXXZ ENDP		; ClientPlayer::setEncryptCode
_TEXT	ENDS
PUBLIC	?c_str@?$basic_string@DV?$char_traits@D@_STL@@V?$allocator@D@2@@_STL@@QBEPBDXZ ; _STL::basic_string<char,_STL::char_traits<char>,_STL::allocator<char> >::c_str
; Function compile flags: /Ogsy
; File c:\stlport-4.6.1\stlport\stl\_string.h
;	COMDAT ?c_str@?$basic_string@DV?$char_traits@D@_STL@@V?$allocator@D@2@@_STL@@QBEPBDXZ
_TEXT	SEGMENT
?c_str@?$basic_string@DV?$char_traits@D@_STL@@V?$allocator@D@2@@_STL@@QBEPBDXZ PROC NEAR ; _STL::basic_string<char,_STL::char_traits<char>,_STL::allocator<char> >::c_str, COMDAT
; _this$ = ecx

; 1065 :   const _CharT* c_str() const { return this->_M_start; }

  00000	8b 01		 mov	 eax, DWORD PTR [ecx]
  00002	c3		 ret	 0
?c_str@?$basic_string@DV?$char_traits@D@_STL@@V?$allocator@D@2@@_STL@@QBEPBDXZ ENDP ; _STL::basic_string<char,_STL::char_traits<char>,_STL::allocator<char> >::c_str
_TEXT	ENDS
PUBLIC	??0?$allocator@PAVPacket@@@_STL@@QAE@XZ		; _STL::allocator<Packet *>::allocator<Packet *>
; Function compile flags: /Ogsy
; File c:\stlport-4.6.1\stlport\stl\_alloc.h
;	COMDAT ??0?$allocator@PAVPacket@@@_STL@@QAE@XZ
_TEXT	SEGMENT
??0?$allocator@PAVPacket@@@_STL@@QAE@XZ PROC NEAR	; _STL::allocator<Packet *>::allocator<Packet *>, COMDAT
; _this$ = ecx

; 345  :   allocator() _STLP_NOTHROW {}

  00000	8b c1		 mov	 eax, ecx
  00002	c3		 ret	 0
??0?$allocator@PAVPacket@@@_STL@@QAE@XZ ENDP		; _STL::allocator<Packet *>::allocator<Packet *>
_TEXT	ENDS
PUBLIC	??1?$allocator@PAVPacket@@@_STL@@QAE@XZ		; _STL::allocator<Packet *>::~allocator<Packet *>
; Function compile flags: /Ogsy
;	COMDAT ??1?$allocator@PAVPacket@@@_STL@@QAE@XZ
_TEXT	SEGMENT
??1?$allocator@PAVPacket@@@_STL@@QAE@XZ PROC NEAR	; _STL::allocator<Packet *>::~allocator<Packet *>, COMDAT
; _this$ = ecx

; 350  :   ~allocator() _STLP_NOTHROW {}

  00000	c3		 ret	 0
??1?$allocator@PAVPacket@@@_STL@@QAE@XZ ENDP		; _STL::allocator<Packet *>::~allocator<Packet *>
_TEXT	ENDS
PUBLIC	??0_List_iterator_base@_STL@@QAE@PAU_List_node_base@1@@Z ; _STL::_List_iterator_base::_List_iterator_base
; Function compile flags: /Ogsy
; File c:\stlport-4.6.1\stlport\stl\_list.h
;	COMDAT ??0_List_iterator_base@_STL@@QAE@PAU_List_node_base@1@@Z
_TEXT	SEGMENT
___x$ = 8						; size = 4
??0_List_iterator_base@_STL@@QAE@PAU_List_node_base@1@@Z PROC NEAR ; _STL::_List_iterator_base::_List_iterator_base, COMDAT
; _this$ = ecx

; 95   :   _List_iterator_base(_List_node_base* __x) : _M_node(__x) {}

  00000	8b c1		 mov	 eax, ecx
  00002	8b 4c 24 04	 mov	 ecx, DWORD PTR ___x$[esp-4]
  00006	89 08		 mov	 DWORD PTR [eax], ecx
  00008	c2 04 00	 ret	 4
??0_List_iterator_base@_STL@@QAE@PAU_List_node_base@1@@Z ENDP ; _STL::_List_iterator_base::_List_iterator_base
_TEXT	ENDS
PUBLIC	?_M_incr@_List_iterator_base@_STL@@QAEXXZ	; _STL::_List_iterator_base::_M_incr
; Function compile flags: /Ogsy
;	COMDAT ?_M_incr@_List_iterator_base@_STL@@QAEXXZ
_TEXT	SEGMENT
?_M_incr@_List_iterator_base@_STL@@QAEXXZ PROC NEAR	; _STL::_List_iterator_base::_M_incr, COMDAT
; _this$ = ecx

; 98   :   void _M_incr() { _M_node = _M_node->_M_next; }

  00000	8b 01		 mov	 eax, DWORD PTR [ecx]
  00002	8b 00		 mov	 eax, DWORD PTR [eax]
  00004	89 01		 mov	 DWORD PTR [ecx], eax
  00006	c3		 ret	 0
?_M_incr@_List_iterator_base@_STL@@QAEXXZ ENDP		; _STL::_List_iterator_base::_M_incr
_TEXT	ENDS
PUBLIC	??9_List_iterator_base@_STL@@QBE_NABU01@@Z	; _STL::_List_iterator_base::operator!=
; Function compile flags: /Ogsy
;	COMDAT ??9_List_iterator_base@_STL@@QBE_NABU01@@Z
_TEXT	SEGMENT
___y$ = 8						; size = 4
??9_List_iterator_base@_STL@@QBE_NABU01@@Z PROC NEAR	; _STL::_List_iterator_base::operator!=, COMDAT
; _this$ = ecx

; 104  :     return _M_node != __y._M_node; 

  00000	8b 01		 mov	 eax, DWORD PTR [ecx]
  00002	8b 54 24 04	 mov	 edx, DWORD PTR ___y$[esp-4]
  00006	33 c9		 xor	 ecx, ecx
  00008	3b 02		 cmp	 eax, DWORD PTR [edx]
  0000a	0f 95 c1	 setne	 cl
  0000d	8a c1		 mov	 al, cl

; 105  :   }

  0000f	c2 04 00	 ret	 4
??9_List_iterator_base@_STL@@QBE_NABU01@@Z ENDP		; _STL::_List_iterator_base::operator!=
_TEXT	ENDS
PUBLIC	?_M_terminate_string_aux@?$basic_string@DV?$char_traits@D@_STL@@V?$allocator@D@2@@_STL@@AAEXABU__true_type@2@@Z ; _STL::basic_string<char,_STL::char_traits<char>,_STL::allocator<char> >::_M_terminate_string_aux
; Function compile flags: /Ogsy
; File c:\stlport-4.6.1\stlport\stl\_string.h
;	COMDAT ?_M_terminate_string_aux@?$basic_string@DV?$char_traits@D@_STL@@V?$allocator@D@2@@_STL@@AAEXABU__true_type@2@@Z
_TEXT	SEGMENT
___formal$ = 8						; size = 4
?_M_terminate_string_aux@?$basic_string@DV?$char_traits@D@_STL@@V?$allocator@D@2@@_STL@@AAEXABU__true_type@2@@Z PROC NEAR ; _STL::basic_string<char,_STL::char_traits<char>,_STL::allocator<char> >::_M_terminate_string_aux, COMDAT
; _this$ = ecx

; 351  :     *(this->_M_finish)=0;

  00000	8b 41 04	 mov	 eax, DWORD PTR [ecx+4]
  00003	c6 00 00	 mov	 BYTE PTR [eax], 0

; 352  :   }

  00006	c2 04 00	 ret	 4
?_M_terminate_string_aux@?$basic_string@DV?$char_traits@D@_STL@@V?$allocator@D@2@@_STL@@AAEXABU__true_type@2@@Z ENDP ; _STL::basic_string<char,_STL::char_traits<char>,_STL::allocator<char> >::_M_terminate_string_aux
_TEXT	ENDS
PUBLIC	??0?$allocator@D@_STL@@QAE@ABV01@@Z		; _STL::allocator<char>::allocator<char>
; Function compile flags: /Ogsy
; File c:\stlport-4.6.1\stlport\stl\_alloc.h
;	COMDAT ??0?$allocator@D@_STL@@QAE@ABV01@@Z
_TEXT	SEGMENT
___formal$ = 8						; size = 4
??0?$allocator@D@_STL@@QAE@ABV01@@Z PROC NEAR		; _STL::allocator<char>::allocator<char>, COMDAT
; _this$ = ecx

; 349  :   allocator(const allocator<_Tp>&) _STLP_NOTHROW {}

  00000	8b c1		 mov	 eax, ecx
  00002	c2 04 00	 ret	 4
??0?$allocator@D@_STL@@QAE@ABV01@@Z ENDP		; _STL::allocator<char>::allocator<char>
_TEXT	ENDS
PUBLIC	??0?$_Deque_iterator@PAVPacket@@U?$_Nonconst_traits@PAVPacket@@@_STL@@@_STL@@QAE@ABU01@@Z ; _STL::_Deque_iterator<Packet *,_STL::_Nonconst_traits<Packet *> >::_Deque_iterator<Packet *,_STL::_Nonconst_traits<Packet *> >
; Function compile flags: /Ogsy
; File c:\stlport-4.6.1\stlport\stl\_deque.h
;	COMDAT ??0?$_Deque_iterator@PAVPacket@@U?$_Nonconst_traits@PAVPacket@@@_STL@@@_STL@@QAE@ABU01@@Z
_TEXT	SEGMENT
___x$ = 8						; size = 4
??0?$_Deque_iterator@PAVPacket@@U?$_Nonconst_traits@PAVPacket@@@_STL@@@_STL@@QAE@ABU01@@Z PROC NEAR ; _STL::_Deque_iterator<Packet *,_STL::_Nonconst_traits<Packet *> >::_Deque_iterator<Packet *,_STL::_Nonconst_traits<Packet *> >, COMDAT
; _this$ = ecx

; 176  :     _Deque_iterator_base<value_type>(__x) {}

  00000	56		 push	 esi
  00001	8b 74 24 08	 mov	 esi, DWORD PTR ___x$[esp]
  00005	57		 push	 edi
  00006	8b c1		 mov	 eax, ecx
  00008	8b f8		 mov	 edi, eax
  0000a	a5		 movsd
  0000b	a5		 movsd
  0000c	a5		 movsd
  0000d	a5		 movsd
  0000e	5f		 pop	 edi
  0000f	5e		 pop	 esi
  00010	c2 04 00	 ret	 4
??0?$_Deque_iterator@PAVPacket@@U?$_Nonconst_traits@PAVPacket@@@_STL@@@_STL@@QAE@ABU01@@Z ENDP ; _STL::_Deque_iterator<Packet *,_STL::_Nonconst_traits<Packet *> >::_Deque_iterator<Packet *,_STL::_Nonconst_traits<Packet *> >
_TEXT	ENDS
PUBLIC	??D?$_Deque_iterator@PAVPacket@@U?$_Nonconst_traits@PAVPacket@@@_STL@@@_STL@@QBEAAPAVPacket@@XZ ; _STL::_Deque_iterator<Packet *,_STL::_Nonconst_traits<Packet *> >::operator*
; Function compile flags: /Ogsy
;	COMDAT ??D?$_Deque_iterator@PAVPacket@@U?$_Nonconst_traits@PAVPacket@@@_STL@@@_STL@@QBEAAPAVPacket@@XZ
_TEXT	SEGMENT
??D?$_Deque_iterator@PAVPacket@@U?$_Nonconst_traits@PAVPacket@@@_STL@@@_STL@@QBEAAPAVPacket@@XZ PROC NEAR ; _STL::_Deque_iterator<Packet *,_STL::_Nonconst_traits<Packet *> >::operator*, COMDAT
; _this$ = ecx

; 179  :       return *this->_M_cur; 

  00000	8b 01		 mov	 eax, DWORD PTR [ecx]

; 180  :   }

  00002	c3		 ret	 0
??D?$_Deque_iterator@PAVPacket@@U?$_Nonconst_traits@PAVPacket@@@_STL@@@_STL@@QBEAAPAVPacket@@XZ ENDP ; _STL::_Deque_iterator<Packet *,_STL::_Nonconst_traits<Packet *> >::operator*
_TEXT	ENDS
PUBLIC	??0?$reverse_iterator@U?$_Deque_iterator@PAVPacket@@U?$_Nonconst_traits@PAVPacket@@@_STL@@@_STL@@@_STL@@QAE@U?$_Deque_iterator@PAVPacket@@U?$_Nonconst_traits@PAVPacket@@@_STL@@@1@@Z ; _STL::reverse_iterator<_STL::_Deque_iterator<Packet *,_STL::_Nonconst_traits<Packet *> > >::reverse_iterator<_STL::_Deque_iterator<Packet *,_STL::_Nonconst_traits<Packet *> > >
; Function compile flags: /Ogsy
; File c:\stlport-4.6.1\stlport\stl\_iterator.h
;	COMDAT ??0?$reverse_iterator@U?$_Deque_iterator@PAVPacket@@U?$_Nonconst_traits@PAVPacket@@@_STL@@@_STL@@@_STL@@QAE@U?$_Deque_iterator@PAVPacket@@U?$_Nonconst_traits@PAVPacket@@@_STL@@@1@@Z
_TEXT	SEGMENT
___x$ = 8						; size = 16
??0?$reverse_iterator@U?$_Deque_iterator@PAVPacket@@U?$_Nonconst_traits@PAVPacket@@@_STL@@@_STL@@@_STL@@QAE@U?$_Deque_iterator@PAVPacket@@U?$_Nonconst_traits@PAVPacket@@@_STL@@@1@@Z PROC NEAR ; _STL::reverse_iterator<_STL::_Deque_iterator<Packet *,_STL::_Nonconst_traits<Packet *> > >::reverse_iterator<_STL::_Deque_iterator<Packet *,_STL::_Nonconst_traits<Packet *> > >, COMDAT
; _this$ = ecx

; 66   :   explicit reverse_iterator(iterator_type __x) : current(__x) {}

  00000	56		 push	 esi
  00001	57		 push	 edi
  00002	8b c1		 mov	 eax, ecx
  00004	8d 74 24 0c	 lea	 esi, DWORD PTR ___x$[esp+4]
  00008	8b f8		 mov	 edi, eax
  0000a	a5		 movsd
  0000b	a5		 movsd
  0000c	a5		 movsd
  0000d	a5		 movsd
  0000e	5f		 pop	 edi
  0000f	5e		 pop	 esi
  00010	c2 10 00	 ret	 16			; 00000010H
??0?$reverse_iterator@U?$_Deque_iterator@PAVPacket@@U?$_Nonconst_traits@PAVPacket@@@_STL@@@_STL@@@_STL@@QAE@U?$_Deque_iterator@PAVPacket@@U?$_Nonconst_traits@PAVPacket@@@_STL@@@1@@Z ENDP ; _STL::reverse_iterator<_STL::_Deque_iterator<Packet *,_STL::_Nonconst_traits<Packet *> > >::reverse_iterator<_STL::_Deque_iterator<Packet *,_STL::_Nonconst_traits<Packet *> > >
_TEXT	ENDS
PUBLIC	??0?$reverse_iterator@U?$_Deque_iterator@PAVPacket@@U?$_Nonconst_traits@PAVPacket@@@_STL@@@_STL@@@_STL@@QAE@ABV01@@Z ; _STL::reverse_iterator<_STL::_Deque_iterator<Packet *,_STL::_Nonconst_traits<Packet *> > >::reverse_iterator<_STL::_Deque_iterator<Packet *,_STL::_Nonconst_traits<Packet *> > >
; Function compile flags: /Ogsy
;	COMDAT ??0?$reverse_iterator@U?$_Deque_iterator@PAVPacket@@U?$_Nonconst_traits@PAVPacket@@@_STL@@@_STL@@@_STL@@QAE@ABV01@@Z
_TEXT	SEGMENT
___x$ = 8						; size = 4
??0?$reverse_iterator@U?$_Deque_iterator@PAVPacket@@U?$_Nonconst_traits@PAVPacket@@@_STL@@@_STL@@@_STL@@QAE@ABV01@@Z PROC NEAR ; _STL::reverse_iterator<_STL::_Deque_iterator<Packet *,_STL::_Nonconst_traits<Packet *> > >::reverse_iterator<_STL::_Deque_iterator<Packet *,_STL::_Nonconst_traits<Packet *> > >, COMDAT
; _this$ = ecx

; 67   :   reverse_iterator(const _Self& __x) : current(__x.current) {}

  00000	56		 push	 esi
  00001	8b 74 24 08	 mov	 esi, DWORD PTR ___x$[esp]
  00005	57		 push	 edi
  00006	8b c1		 mov	 eax, ecx
  00008	8b f8		 mov	 edi, eax
  0000a	a5		 movsd
  0000b	a5		 movsd
  0000c	a5		 movsd
  0000d	a5		 movsd
  0000e	5f		 pop	 edi
  0000f	5e		 pop	 esi
  00010	c2 04 00	 ret	 4
??0?$reverse_iterator@U?$_Deque_iterator@PAVPacket@@U?$_Nonconst_traits@PAVPacket@@@_STL@@@_STL@@@_STL@@QAE@ABV01@@Z ENDP ; _STL::reverse_iterator<_STL::_Deque_iterator<Packet *,_STL::_Nonconst_traits<Packet *> > >::reverse_iterator<_STL::_Deque_iterator<Packet *,_STL::_Nonconst_traits<Packet *> > >
_TEXT	ENDS
PUBLIC	??1?$_STLP_alloc_proxy@IPAVPacket@@V?$allocator@PAVPacket@@@_STL@@@_STL@@QAE@XZ ; _STL::_STLP_alloc_proxy<unsigned int,Packet *,_STL::allocator<Packet *> >::~_STLP_alloc_proxy<unsigned int,Packet *,_STL::allocator<Packet *> >
; Function compile flags: /Ogsy
;	COMDAT ??1?$_STLP_alloc_proxy@IPAVPacket@@V?$allocator@PAVPacket@@@_STL@@@_STL@@QAE@XZ
_TEXT	SEGMENT
??1?$_STLP_alloc_proxy@IPAVPacket@@V?$allocator@PAVPacket@@@_STL@@@_STL@@QAE@XZ PROC NEAR ; _STL::_STLP_alloc_proxy<unsigned int,Packet *,_STL::allocator<Packet *> >::~_STLP_alloc_proxy<unsigned int,Packet *,_STL::allocator<Packet *> >, COMDAT
; _this$ = ecx
  00000	c3		 ret	 0
??1?$_STLP_alloc_proxy@IPAVPacket@@V?$allocator@PAVPacket@@@_STL@@@_STL@@QAE@XZ ENDP ; _STL::_STLP_alloc_proxy<unsigned int,Packet *,_STL::allocator<Packet *> >::~_STLP_alloc_proxy<unsigned int,Packet *,_STL::allocator<Packet *> >
_TEXT	ENDS
PUBLIC	?_M_subtract@?$_Deque_iterator_base@PAVPacket@@@_STL@@QBEHABU12@@Z ; _STL::_Deque_iterator_base<Packet *>::_M_subtract
; Function compile flags: /Ogsy
; File c:\stlport-4.6.1\stlport\stl\_deque.h
;	COMDAT ?_M_subtract@?$_Deque_iterator_base@PAVPacket@@@_STL@@QBEHABU12@@Z
_TEXT	SEGMENT
___x$ = 8						; size = 4
?_M_subtract@?$_Deque_iterator_base@PAVPacket@@@_STL@@QBEHABU12@@Z PROC NEAR ; _STL::_Deque_iterator_base<Packet *>::_M_subtract, COMDAT
; _this$ = ecx

; 114  :     return difference_type(__buffer_size) * (_M_node - __x._M_node - 1) +
; 115  :       (_M_cur - _M_first) + (__x._M_last - __x._M_cur);

  00000	8b 51 0c	 mov	 edx, DWORD PTR [ecx+12]
  00003	8b 44 24 04	 mov	 eax, DWORD PTR ___x$[esp-4]
  00007	2b 50 0c	 sub	 edx, DWORD PTR [eax+12]
  0000a	56		 push	 esi
  0000b	8b 31		 mov	 esi, DWORD PTR [ecx]
  0000d	2b 71 04	 sub	 esi, DWORD PTR [ecx+4]
  00010	8b 48 08	 mov	 ecx, DWORD PTR [eax+8]
  00013	2b 08		 sub	 ecx, DWORD PTR [eax]
  00015	c1 fa 02	 sar	 edx, 2
  00018	c1 fe 02	 sar	 esi, 2
  0001b	c1 e2 05	 shl	 edx, 5
  0001e	03 d6		 add	 edx, esi
  00020	c1 f9 02	 sar	 ecx, 2
  00023	8d 44 0a e0	 lea	 eax, DWORD PTR [edx+ecx-32]
  00027	5e		 pop	 esi

; 116  :   }

  00028	c2 04 00	 ret	 4
?_M_subtract@?$_Deque_iterator_base@PAVPacket@@@_STL@@QBEHABU12@@Z ENDP ; _STL::_Deque_iterator_base<Packet *>::_M_subtract
_TEXT	ENDS
PUBLIC	??1?$allocator@PAPAVPacket@@@_STL@@QAE@XZ	; _STL::allocator<Packet * *>::~allocator<Packet * *>
; Function compile flags: /Ogsy
; File c:\stlport-4.6.1\stlport\stl\_alloc.h
;	COMDAT ??1?$allocator@PAPAVPacket@@@_STL@@QAE@XZ
_TEXT	SEGMENT
??1?$allocator@PAPAVPacket@@@_STL@@QAE@XZ PROC NEAR	; _STL::allocator<Packet * *>::~allocator<Packet * *>, COMDAT
; _this$ = ecx

; 350  :   ~allocator() _STLP_NOTHROW {}

  00000	c3		 ret	 0
??1?$allocator@PAPAVPacket@@@_STL@@QAE@XZ ENDP		; _STL::allocator<Packet * *>::~allocator<Packet * *>
_TEXT	ENDS
PUBLIC	??0?$allocator@PAVPacket@@@_STL@@QAE@ABV01@@Z	; _STL::allocator<Packet *>::allocator<Packet *>
; Function compile flags: /Ogsy
;	COMDAT ??0?$allocator@PAVPacket@@@_STL@@QAE@ABV01@@Z
_TEXT	SEGMENT
___formal$ = 8						; size = 4
??0?$allocator@PAVPacket@@@_STL@@QAE@ABV01@@Z PROC NEAR	; _STL::allocator<Packet *>::allocator<Packet *>, COMDAT
; _this$ = ecx

; 349  :   allocator(const allocator<_Tp>&) _STLP_NOTHROW {}

  00000	8b c1		 mov	 eax, ecx
  00002	c2 04 00	 ret	 4
??0?$allocator@PAVPacket@@@_STL@@QAE@ABV01@@Z ENDP	; _STL::allocator<Packet *>::allocator<Packet *>
_TEXT	ENDS
PUBLIC	??0?$_Deque_iterator_base@PAVPacket@@@_STL@@QAE@XZ ; _STL::_Deque_iterator_base<Packet *>::_Deque_iterator_base<Packet *>
; Function compile flags: /Ogsy
; File c:\stlport-4.6.1\stlport\stl\_deque.h
;	COMDAT ??0?$_Deque_iterator_base@PAVPacket@@@_STL@@QAE@XZ
_TEXT	SEGMENT
??0?$_Deque_iterator_base@PAVPacket@@@_STL@@QAE@XZ PROC NEAR ; _STL::_Deque_iterator_base<Packet *>::_Deque_iterator_base<Packet *>, COMDAT
; _this$ = ecx

; 111  :   _Deque_iterator_base() : _M_cur(0), _M_first(0), _M_last(0), _M_node(0) {}

  00000	8b c1		 mov	 eax, ecx
  00002	33 c9		 xor	 ecx, ecx
  00004	89 08		 mov	 DWORD PTR [eax], ecx
  00006	89 48 04	 mov	 DWORD PTR [eax+4], ecx
  00009	89 48 08	 mov	 DWORD PTR [eax+8], ecx
  0000c	89 48 0c	 mov	 DWORD PTR [eax+12], ecx
  0000f	c3		 ret	 0
??0?$_Deque_iterator_base@PAVPacket@@@_STL@@QAE@XZ ENDP	; _STL::_Deque_iterator_base<Packet *>::_Deque_iterator_base<Packet *>
_TEXT	ENDS
PUBLIC	?_M_set_node@?$_Deque_iterator_base@PAVPacket@@@_STL@@QAEXPAPAPAVPacket@@@Z ; _STL::_Deque_iterator_base<Packet *>::_M_set_node
; Function compile flags: /Ogsy
;	COMDAT ?_M_set_node@?$_Deque_iterator_base@PAVPacket@@@_STL@@QAEXPAPAPAVPacket@@@Z
_TEXT	SEGMENT
___new_node$ = 8					; size = 4
?_M_set_node@?$_Deque_iterator_base@PAVPacket@@@_STL@@QAEXPAPAPAVPacket@@@Z PROC NEAR ; _STL::_Deque_iterator_base<Packet *>::_M_set_node, COMDAT
; _this$ = ecx

; 149  :     _M_last = (_M_first = *(_M_node = __new_node)) + difference_type(__buffer_size);

  00000	8b 44 24 04	 mov	 eax, DWORD PTR ___new_node$[esp-4]
  00004	89 41 0c	 mov	 DWORD PTR [ecx+12], eax
  00007	8b 00		 mov	 eax, DWORD PTR [eax]
  00009	89 41 04	 mov	 DWORD PTR [ecx+4], eax
  0000c	05 80 00 00 00	 add	 eax, 128		; 00000080H
  00011	89 41 08	 mov	 DWORD PTR [ecx+8], eax

; 150  :   }

  00014	c2 04 00	 ret	 4
?_M_set_node@?$_Deque_iterator_base@PAVPacket@@@_STL@@QAEXPAPAPAVPacket@@@Z ENDP ; _STL::_Deque_iterator_base<Packet *>::_M_set_node
_TEXT	ENDS
PUBLIC	??0?$allocator@PAPAVPacket@@@_STL@@QAE@ABV01@@Z	; _STL::allocator<Packet * *>::allocator<Packet * *>
; Function compile flags: /Ogsy
; File c:\stlport-4.6.1\stlport\stl\_alloc.h
;	COMDAT ??0?$allocator@PAPAVPacket@@@_STL@@QAE@ABV01@@Z
_TEXT	SEGMENT
___formal$ = 8						; size = 4
??0?$allocator@PAPAVPacket@@@_STL@@QAE@ABV01@@Z PROC NEAR ; _STL::allocator<Packet * *>::allocator<Packet * *>, COMDAT
; _this$ = ecx

; 349  :   allocator(const allocator<_Tp>&) _STLP_NOTHROW {}

  00000	8b c1		 mov	 eax, ecx
  00002	c2 04 00	 ret	 4
??0?$allocator@PAPAVPacket@@@_STL@@QAE@ABV01@@Z ENDP	; _STL::allocator<Packet * *>::allocator<Packet * *>
_TEXT	ENDS
PUBLIC	?_M_advance@?$_Deque_iterator_base@PAVPacket@@@_STL@@QAEXH@Z ; _STL::_Deque_iterator_base<Packet *>::_M_advance
; Function compile flags: /Ogsy
; File c:\stlport-4.6.1\stlport\stl\_deque.h
;	COMDAT ?_M_advance@?$_Deque_iterator_base@PAVPacket@@@_STL@@QAEXH@Z
_TEXT	SEGMENT
___n$ = 8						; size = 4
?_M_advance@?$_Deque_iterator_base@PAVPacket@@@_STL@@QAEXH@Z PROC NEAR ; _STL::_Deque_iterator_base<Packet *>::_M_advance, COMDAT
; _this$ = ecx

; 135  :     difference_type __offset = __n + (_M_cur - _M_first);

  00000	8b 01		 mov	 eax, DWORD PTR [ecx]
  00002	8b 54 24 04	 mov	 edx, DWORD PTR ___n$[esp-4]
  00006	56		 push	 esi
  00007	8b f0		 mov	 esi, eax
  00009	2b 71 04	 sub	 esi, DWORD PTR [ecx+4]
  0000c	c1 fe 02	 sar	 esi, 2
  0000f	03 f2		 add	 esi, edx

; 136  :     if (__offset >= 0 && __offset < difference_type(__buffer_size))

  00011	78 0a		 js	 SHORT $L112538
  00013	83 fe 20	 cmp	 esi, 32			; 00000020H
  00016	7d 05		 jge	 SHORT $L112538

; 137  :       _M_cur += __n;

  00018	8d 04 90	 lea	 eax, DWORD PTR [eax+edx*4]

; 138  :     else {

  0001b	eb 39		 jmp	 SHORT $L114840
$L112538:

; 139  :       difference_type __node_offset =
; 140  :         __offset > 0 ? __offset / __buffer_size
; 141  :                    : -difference_type((-__offset - 1) / __buffer_size) - 1;

  0001d	85 f6		 test	 esi, esi
  0001f	57		 push	 edi
  00020	6a 20		 push	 32			; 00000020H
  00022	5f		 pop	 edi
  00023	7e 07		 jle	 SHORT $L114834
  00025	8b c6		 mov	 eax, esi
  00027	99		 cdq
  00028	f7 ff		 idiv	 edi
  0002a	eb 07		 jmp	 SHORT $L114835
$L114834:
  0002c	8d 46 01	 lea	 eax, DWORD PTR [esi+1]
  0002f	99		 cdq
  00030	f7 ff		 idiv	 edi
  00032	48		 dec	 eax
$L114835:

; 142  :       _M_set_node(_M_node + __node_offset);

  00033	8b 51 0c	 mov	 edx, DWORD PTR [ecx+12]
  00036	8d 14 82	 lea	 edx, DWORD PTR [edx+eax*4]
  00039	89 51 0c	 mov	 DWORD PTR [ecx+12], edx
  0003c	8b 12		 mov	 edx, DWORD PTR [edx]

; 143  :       _M_cur = _M_first + 
; 144  :         (__offset - __node_offset * difference_type(__buffer_size));

  0003e	c1 e0 05	 shl	 eax, 5
  00041	89 51 04	 mov	 DWORD PTR [ecx+4], edx
  00044	81 c2 80 00 00
	00		 add	 edx, 128		; 00000080H
  0004a	2b f0		 sub	 esi, eax
  0004c	8b 41 04	 mov	 eax, DWORD PTR [ecx+4]
  0004f	89 51 08	 mov	 DWORD PTR [ecx+8], edx
  00052	8d 04 b0	 lea	 eax, DWORD PTR [eax+esi*4]
  00055	5f		 pop	 edi
$L114840:
  00056	89 01		 mov	 DWORD PTR [ecx], eax
  00058	5e		 pop	 esi

; 145  :     }
; 146  :   }

  00059	c2 04 00	 ret	 4
?_M_advance@?$_Deque_iterator_base@PAVPacket@@@_STL@@QAEXH@Z ENDP ; _STL::_Deque_iterator_base<Packet *>::_M_advance
_TEXT	ENDS
PUBLIC	??$?8PAVPacket@@@_STL@@YA_NABU?$_Deque_iterator_base@PAVPacket@@@0@0@Z ; _STL::operator==<Packet *>
; Function compile flags: /Ogsy
;	COMDAT ??$?8PAVPacket@@@_STL@@YA_NABU?$_Deque_iterator_base@PAVPacket@@@0@0@Z
_TEXT	SEGMENT
___x$ = 8						; size = 4
___y$ = 12						; size = 4
??$?8PAVPacket@@@_STL@@YA_NABU?$_Deque_iterator_base@PAVPacket@@@0@0@Z PROC NEAR ; _STL::operator==<Packet *>, COMDAT

; 230  :     return __x._M_cur == __y._M_cur; 

  00000	8b 44 24 04	 mov	 eax, DWORD PTR ___x$[esp-4]
  00004	8b 00		 mov	 eax, DWORD PTR [eax]
  00006	8b 4c 24 08	 mov	 ecx, DWORD PTR ___y$[esp-4]
  0000a	2b 01		 sub	 eax, DWORD PTR [ecx]
  0000c	f7 d8		 neg	 eax
  0000e	1b c0		 sbb	 eax, eax
  00010	40		 inc	 eax

; 231  : }

  00011	c3		 ret	 0
??$?8PAVPacket@@@_STL@@YA_NABU?$_Deque_iterator_base@PAVPacket@@@0@0@Z ENDP ; _STL::operator==<Packet *>
_TEXT	ENDS
PUBLIC	??$_Construct@PAVPacket@@PAV1@@_STL@@YAXPAPAVPacket@@ABQAV1@@Z ; _STL::_Construct<Packet *,Packet *>
; Function compile flags: /Ogsy
; File c:\stlport-4.6.1\stlport\stl\_construct.h
;	COMDAT ??$_Construct@PAVPacket@@PAV1@@_STL@@YAXPAPAVPacket@@ABQAV1@@Z
_TEXT	SEGMENT
___p$ = 8						; size = 4
___val$ = 12						; size = 4
??$_Construct@PAVPacket@@PAV1@@_STL@@YAXPAPAVPacket@@ABQAV1@@Z PROC NEAR ; _STL::_Construct<Packet *,Packet *>, COMDAT

; 94   : # ifdef _STLP_DEBUG_UNINITIALIZED
; 95   : 	memset((char*)__p, _STLP_SHRED_BYTE, sizeof(_T1));
; 96   : # endif
; 97   :     _STLP_PLACEMENT_NEW (__p) _T1(__val);

  00000	8b 44 24 04	 mov	 eax, DWORD PTR ___p$[esp-4]
  00004	85 c0		 test	 eax, eax
  00006	74 08		 je	 SHORT $L114848
  00008	8b 4c 24 08	 mov	 ecx, DWORD PTR ___val$[esp-4]
  0000c	8b 09		 mov	 ecx, DWORD PTR [ecx]
  0000e	89 08		 mov	 DWORD PTR [eax], ecx
$L114848:

; 98   : }

  00010	c3		 ret	 0
??$_Construct@PAVPacket@@PAV1@@_STL@@YAXPAPAVPacket@@ABQAV1@@Z ENDP ; _STL::_Construct<Packet *,Packet *>
_TEXT	ENDS
PUBLIC	??$_Destroy@PAVPacket@@@_STL@@YAXPAPAVPacket@@@Z ; _STL::_Destroy<Packet *>
; Function compile flags: /Ogsy
;	COMDAT ??$_Destroy@PAVPacket@@@_STL@@YAXPAPAVPacket@@@Z
_TEXT	SEGMENT
___pointer$ = 8						; size = 4
??$_Destroy@PAVPacket@@@_STL@@YAXPAPAVPacket@@@Z PROC NEAR ; _STL::_Destroy<Packet *>, COMDAT

; 57   : # if _MSC_VER >= 1010
; 58   :   __pointer;
; 59   : # endif	// _MSC_VER >= 1000
; 60   : # ifdef _STLP_TRIVIAL_DESTRUCTOR_BUG
; 61   :   typedef typename __type_traits<_Tp>::has_trivial_destructor _Trivial_destructor;
; 62   :   __destroy_aux(__pointer, _Trivial_destructor());
; 63   : # else
; 64   : #  if ( defined (__BORLANDC__) && ( __BORLANDC__ < 0x500 ) )
; 65   :     __pointer->_Tp::~_Tp();
; 66   : #  else
; 67   :     __pointer->~_Tp();
; 68   : #  endif
; 69   : # endif
; 70   : # ifdef _STLP_DEBUG_UNINITIALIZED
; 71   : 	memset((char*)__pointer, _STLP_SHRED_BYTE, sizeof(_Tp));
; 72   : # endif
; 73   : }

  00000	c3		 ret	 0
??$_Destroy@PAVPacket@@@_STL@@YAXPAPAVPacket@@@Z ENDP	; _STL::_Destroy<Packet *>
_TEXT	ENDS
PUBLIC	??$?0U?$_List_node@V?$basic_string@DV?$char_traits@D@_STL@@V?$allocator@D@2@@_STL@@@_STL@@@?$allocator@V?$basic_string@DV?$char_traits@D@_STL@@V?$allocator@D@2@@_STL@@@_STL@@QAE@ABV?$allocator@U?$_List_node@V?$basic_string@DV?$char_traits@D@_STL@@V?$allocator@D@2@@_STL@@@_STL@@@1@@Z ; _STL::allocator<_STL::basic_string<char,_STL::char_traits<char>,_STL::allocator<char> > >::allocator<_STL::basic_string<char,_STL::char_traits<char>,_STL::allocator<char> > ><_STL::_List_node<_STL::basic_string<char,_STL::char_traits<char>,_STL::allocator<char> > > >
; Function compile flags: /Ogsy
; File c:\stlport-4.6.1\stlport\stl\_alloc.h
;	COMDAT ??$?0U?$_List_node@V?$basic_string@DV?$char_traits@D@_STL@@V?$allocator@D@2@@_STL@@@_STL@@@?$allocator@V?$basic_string@DV?$char_traits@D@_STL@@V?$allocator@D@2@@_STL@@@_STL@@QAE@ABV?$allocator@U?$_List_node@V?$basic_string@DV?$char_traits@D@_STL@@V?$allocator@D@2@@_STL@@@_STL@@@1@@Z
_TEXT	SEGMENT
___formal$ = 8						; size = 4
??$?0U?$_List_node@V?$basic_string@DV?$char_traits@D@_STL@@V?$allocator@D@2@@_STL@@@_STL@@@?$allocator@V?$basic_string@DV?$char_traits@D@_STL@@V?$allocator@D@2@@_STL@@@_STL@@QAE@ABV?$allocator@U?$_List_node@V?$basic_string@DV?$char_traits@D@_STL@@V?$allocator@D@2@@_STL@@@_STL@@@1@@Z PROC NEAR ; _STL::allocator<_STL::basic_string<char,_STL::char_traits<char>,_STL::allocator<char> > >::allocator<_STL::basic_string<char,_STL::char_traits<char>,_STL::allocator<char> > ><_STL::_List_node<_STL::basic_string<char,_STL::char_traits<char>,_STL::allocator<char> > > >, COMDAT
; _this$ = ecx

; 347  :   template <class _Tp1> allocator(const allocator<_Tp1>&) _STLP_NOTHROW {}

  00000	8b c1		 mov	 eax, ecx
  00002	c2 04 00	 ret	 4
??$?0U?$_List_node@V?$basic_string@DV?$char_traits@D@_STL@@V?$allocator@D@2@@_STL@@@_STL@@@?$allocator@V?$basic_string@DV?$char_traits@D@_STL@@V?$allocator@D@2@@_STL@@@_STL@@QAE@ABV?$allocator@U?$_List_node@V?$basic_string@DV?$char_traits@D@_STL@@V?$allocator@D@2@@_STL@@@_STL@@@1@@Z ENDP ; _STL::allocator<_STL::basic_string<char,_STL::char_traits<char>,_STL::allocator<char> > >::allocator<_STL::basic_string<char,_STL::char_traits<char>,_STL::allocator<char> > ><_STL::_List_node<_STL::basic_string<char,_STL::char_traits<char>,_STL::allocator<char> > > >
_TEXT	ENDS
PUBLIC	??$?0PAVPacket@@@?$allocator@PAPAVPacket@@@_STL@@QAE@ABV?$allocator@PAVPacket@@@1@@Z ; _STL::allocator<Packet * *>::allocator<Packet * *><Packet *>
; Function compile flags: /Ogsy
;	COMDAT ??$?0PAVPacket@@@?$allocator@PAPAVPacket@@@_STL@@QAE@ABV?$allocator@PAVPacket@@@1@@Z
_TEXT	SEGMENT
___formal$ = 8						; size = 4
??$?0PAVPacket@@@?$allocator@PAPAVPacket@@@_STL@@QAE@ABV?$allocator@PAVPacket@@@1@@Z PROC NEAR ; _STL::allocator<Packet * *>::allocator<Packet * *><Packet *>, COMDAT
; _this$ = ecx

; 347  :   template <class _Tp1> allocator(const allocator<_Tp1>&) _STLP_NOTHROW {}

  00000	8b c1		 mov	 eax, ecx
  00002	c2 04 00	 ret	 4
??$?0PAVPacket@@@?$allocator@PAPAVPacket@@@_STL@@QAE@ABV?$allocator@PAVPacket@@@1@@Z ENDP ; _STL::allocator<Packet * *>::allocator<Packet * *><Packet *>
_TEXT	ENDS
PUBLIC	??0?$_List_iterator@V?$basic_string@DV?$char_traits@D@_STL@@V?$allocator@D@2@@_STL@@U?$_Nonconst_traits@V?$basic_string@DV?$char_traits@D@_STL@@V?$allocator@D@2@@_STL@@@2@@_STL@@QAE@ABU01@@Z ; _STL::_List_iterator<_STL::basic_string<char,_STL::char_traits<char>,_STL::allocator<char> >,_STL::_Nonconst_traits<_STL::basic_string<char,_STL::char_traits<char>,_STL::allocator<char> > > >::_List_iterator<_STL::basic_string<char,_STL::char_traits<char>,_STL::allocator<char> >,_STL::_Nonconst_traits<_STL::basic_string<char,_STL::char_traits<char>,_STL::allocator<char> > > >
; Function compile flags: /Ogsy
; File c:\stlport-4.6.1\stlport\stl\_list.h
;	COMDAT ??0?$_List_iterator@V?$basic_string@DV?$char_traits@D@_STL@@V?$allocator@D@2@@_STL@@U?$_Nonconst_traits@V?$basic_string@DV?$char_traits@D@_STL@@V?$allocator@D@2@@_STL@@@2@@_STL@@QAE@ABU01@@Z
_TEXT	SEGMENT
___x$ = 8						; size = 4
??0?$_List_iterator@V?$basic_string@DV?$char_traits@D@_STL@@V?$allocator@D@2@@_STL@@U?$_Nonconst_traits@V?$basic_string@DV?$char_traits@D@_STL@@V?$allocator@D@2@@_STL@@@2@@_STL@@QAE@ABU01@@Z PROC NEAR ; _STL::_List_iterator<_STL::basic_string<char,_STL::char_traits<char>,_STL::allocator<char> >,_STL::_Nonconst_traits<_STL::basic_string<char,_STL::char_traits<char>,_STL::allocator<char> > > >::_List_iterator<_STL::basic_string<char,_STL::char_traits<char>,_STL::allocator<char> >,_STL::_Nonconst_traits<_STL::basic_string<char,_STL::char_traits<char>,_STL::allocator<char> > > >, COMDAT
; _this$ = ecx

; 128  :   _List_iterator(const iterator& __x) :  _List_iterator_base(__x._M_node) {}

  00000	8b c1		 mov	 eax, ecx
  00002	8b 4c 24 04	 mov	 ecx, DWORD PTR ___x$[esp-4]
  00006	8b 09		 mov	 ecx, DWORD PTR [ecx]
  00008	89 08		 mov	 DWORD PTR [eax], ecx
  0000a	c2 04 00	 ret	 4
??0?$_List_iterator@V?$basic_string@DV?$char_traits@D@_STL@@V?$allocator@D@2@@_STL@@U?$_Nonconst_traits@V?$basic_string@DV?$char_traits@D@_STL@@V?$allocator@D@2@@_STL@@@2@@_STL@@QAE@ABU01@@Z ENDP ; _STL::_List_iterator<_STL::basic_string<char,_STL::char_traits<char>,_STL::allocator<char> >,_STL::_Nonconst_traits<_STL::basic_string<char,_STL::char_traits<char>,_STL::allocator<char> > > >::_List_iterator<_STL::basic_string<char,_STL::char_traits<char>,_STL::allocator<char> >,_STL::_Nonconst_traits<_STL::basic_string<char,_STL::char_traits<char>,_STL::allocator<char> > > >
_TEXT	ENDS
PUBLIC	?buffer_size@?$_Deque_base@PAVPacket@@V?$allocator@PAVPacket@@@_STL@@@_STL@@SAIXZ ; _STL::_Deque_base<Packet *,_STL::allocator<Packet *> >::buffer_size
; Function compile flags: /Ogsy
; File c:\stlport-4.6.1\stlport\stl\_deque.h
;	COMDAT ?buffer_size@?$_Deque_base@PAVPacket@@V?$allocator@PAVPacket@@@_STL@@@_STL@@SAIXZ
_TEXT	SEGMENT
?buffer_size@?$_Deque_base@PAVPacket@@V?$allocator@PAVPacket@@@_STL@@@_STL@@SAIXZ PROC NEAR ; _STL::_Deque_base<Packet *,_STL::allocator<Packet *> >::buffer_size, COMDAT

; 332  :   static size_t  _STLP_CALL buffer_size() { return (size_t)_Deque_iterator_base<_Tp>::__buffer_size; } 

  00000	6a 20		 push	 32			; 00000020H
  00002	58		 pop	 eax
  00003	c3		 ret	 0
?buffer_size@?$_Deque_base@PAVPacket@@V?$allocator@PAVPacket@@@_STL@@@_STL@@SAIXZ ENDP ; _STL::_Deque_base<Packet *,_STL::allocator<Packet *> >::buffer_size
_TEXT	ENDS
PUBLIC	??$max@I@_STL@@YAABIABI0@Z			; _STL::max<unsigned int>
; Function compile flags: /Ogsy
; File c:\stlport-4.6.1\stlport\stl\_algobase.h
;	COMDAT ??$max@I@_STL@@YAABIABI0@Z
_TEXT	SEGMENT
___a$ = 8						; size = 4
___b$ = 12						; size = 4
??$max@I@_STL@@YAABIABI0@Z PROC NEAR			; _STL::max<unsigned int>, COMDAT

; 79   : inline const _Tp& (max)(const _Tp& __a, const _Tp& __b) {  return  __a < __b ? __b : __a; }

  00000	8b 44 24 04	 mov	 eax, DWORD PTR ___a$[esp-4]
  00004	8b 10		 mov	 edx, DWORD PTR [eax]
  00006	8b 4c 24 08	 mov	 ecx, DWORD PTR ___b$[esp-4]
  0000a	3b 11		 cmp	 edx, DWORD PTR [ecx]
  0000c	73 02		 jae	 SHORT $L114877
  0000e	8b c1		 mov	 eax, ecx
$L114877:
  00010	c3		 ret	 0
??$max@I@_STL@@YAABIABI0@Z ENDP				; _STL::max<unsigned int>
_TEXT	ENDS
PUBLIC	??E?$_List_iterator@V?$basic_string@DV?$char_traits@D@_STL@@V?$allocator@D@2@@_STL@@U?$_Const_traits@V?$basic_string@DV?$char_traits@D@_STL@@V?$allocator@D@2@@_STL@@@2@@_STL@@QAEAAU01@XZ ; _STL::_List_iterator<_STL::basic_string<char,_STL::char_traits<char>,_STL::allocator<char> >,_STL::_Const_traits<_STL::basic_string<char,_STL::char_traits<char>,_STL::allocator<char> > > >::operator++
; Function compile flags: /Ogsy
; File c:\stlport-4.6.1\stlport\stl\_list.h
;	COMDAT ??E?$_List_iterator@V?$basic_string@DV?$char_traits@D@_STL@@V?$allocator@D@2@@_STL@@U?$_Const_traits@V?$basic_string@DV?$char_traits@D@_STL@@V?$allocator@D@2@@_STL@@@2@@_STL@@QAEAAU01@XZ
_TEXT	SEGMENT
??E?$_List_iterator@V?$basic_string@DV?$char_traits@D@_STL@@V?$allocator@D@2@@_STL@@U?$_Const_traits@V?$basic_string@DV?$char_traits@D@_STL@@V?$allocator@D@2@@_STL@@@2@@_STL@@QAEAAU01@XZ PROC NEAR ; _STL::_List_iterator<_STL::basic_string<char,_STL::char_traits<char>,_STL::allocator<char> >,_STL::_Const_traits<_STL::basic_string<char,_STL::char_traits<char>,_STL::allocator<char> > > >::operator++, COMDAT
; _this$ = ecx

; 134  :   _Self& operator++() { 

  00000	8b c1		 mov	 eax, ecx

; 135  :     this->_M_incr();

  00002	8b 08		 mov	 ecx, DWORD PTR [eax]
  00004	8b 09		 mov	 ecx, DWORD PTR [ecx]
  00006	89 08		 mov	 DWORD PTR [eax], ecx

; 136  :     return *this;
; 137  :   }

  00008	c3		 ret	 0
??E?$_List_iterator@V?$basic_string@DV?$char_traits@D@_STL@@V?$allocator@D@2@@_STL@@U?$_Const_traits@V?$basic_string@DV?$char_traits@D@_STL@@V?$allocator@D@2@@_STL@@@2@@_STL@@QAEAAU01@XZ ENDP ; _STL::_List_iterator<_STL::basic_string<char,_STL::char_traits<char>,_STL::allocator<char> >,_STL::_Const_traits<_STL::basic_string<char,_STL::char_traits<char>,_STL::allocator<char> > > >::operator++
_TEXT	ENDS
PUBLIC	?base@?$reverse_iterator@U?$_Deque_iterator@PAVPacket@@U?$_Nonconst_traits@PAVPacket@@@_STL@@@_STL@@@_STL@@QBE?AU?$_Deque_iterator@PAVPacket@@U?$_Nonconst_traits@PAVPacket@@@_STL@@@2@XZ ; _STL::reverse_iterator<_STL::_Deque_iterator<Packet *,_STL::_Nonconst_traits<Packet *> > >::base
; Function compile flags: /Ogsy
; File c:\stlport-4.6.1\stlport\stl\_iterator.h
;	COMDAT ?base@?$reverse_iterator@U?$_Deque_iterator@PAVPacket@@U?$_Nonconst_traits@PAVPacket@@@_STL@@@_STL@@@_STL@@QBE?AU?$_Deque_iterator@PAVPacket@@U?$_Nonconst_traits@PAVPacket@@@_STL@@@2@XZ
_TEXT	SEGMENT
___$ReturnUdt$ = 8					; size = 4
?base@?$reverse_iterator@U?$_Deque_iterator@PAVPacket@@U?$_Nonconst_traits@PAVPacket@@@_STL@@@_STL@@@_STL@@QBE?AU?$_Deque_iterator@PAVPacket@@U?$_Nonconst_traits@PAVPacket@@@_STL@@@2@XZ PROC NEAR ; _STL::reverse_iterator<_STL::_Deque_iterator<Packet *,_STL::_Nonconst_traits<Packet *> > >::base, COMDAT
; _this$ = ecx

; 76   :   iterator_type base() const { return current; }

  00000	8b 44 24 04	 mov	 eax, DWORD PTR ___$ReturnUdt$[esp-4]
  00004	56		 push	 esi
  00005	57		 push	 edi
  00006	8b f1		 mov	 esi, ecx
  00008	8b f8		 mov	 edi, eax
  0000a	a5		 movsd
  0000b	a5		 movsd
  0000c	a5		 movsd
  0000d	a5		 movsd
  0000e	5f		 pop	 edi
  0000f	5e		 pop	 esi
  00010	c2 04 00	 ret	 4
?base@?$reverse_iterator@U?$_Deque_iterator@PAVPacket@@U?$_Nonconst_traits@PAVPacket@@@_STL@@@_STL@@@_STL@@QBE?AU?$_Deque_iterator@PAVPacket@@U?$_Nonconst_traits@PAVPacket@@@_STL@@@2@XZ ENDP ; _STL::reverse_iterator<_STL::_Deque_iterator<Packet *,_STL::_Nonconst_traits<Packet *> > >::base
_TEXT	ENDS
PUBLIC	??$__destroy_aux@U?$_Deque_iterator@PAVPacket@@U?$_Nonconst_traits@PAVPacket@@@_STL@@@_STL@@@_STL@@YAXU?$_Deque_iterator@PAVPacket@@U?$_Nonconst_traits@PAVPacket@@@_STL@@@0@0ABU__true_type@0@@Z ; _STL::__destroy_aux<_STL::_Deque_iterator<Packet *,_STL::_Nonconst_traits<Packet *> > >
; Function compile flags: /Ogsy
; File c:\stlport-4.6.1\stlport\stl\_construct.h
;	COMDAT ??$__destroy_aux@U?$_Deque_iterator@PAVPacket@@U?$_Nonconst_traits@PAVPacket@@@_STL@@@_STL@@@_STL@@YAXU?$_Deque_iterator@PAVPacket@@U?$_Nonconst_traits@PAVPacket@@@_STL@@@0@0ABU__true_type@0@@Z
_TEXT	SEGMENT
___formal$ = 8						; size = 16
___formal$ = 24						; size = 16
___formal$ = 40						; size = 4
??$__destroy_aux@U?$_Deque_iterator@PAVPacket@@U?$_Nonconst_traits@PAVPacket@@@_STL@@@_STL@@@_STL@@YAXU?$_Deque_iterator@PAVPacket@@U?$_Nonconst_traits@PAVPacket@@@_STL@@@0@0ABU__true_type@0@@Z PROC NEAR ; _STL::__destroy_aux<_STL::_Deque_iterator<Packet *,_STL::_Nonconst_traits<Packet *> > >, COMDAT

; 128  : inline void __destroy_aux(_ForwardIterator, _ForwardIterator, const __true_type&) {}

  00000	c3		 ret	 0
??$__destroy_aux@U?$_Deque_iterator@PAVPacket@@U?$_Nonconst_traits@PAVPacket@@@_STL@@@_STL@@@_STL@@YAXU?$_Deque_iterator@PAVPacket@@U?$_Nonconst_traits@PAVPacket@@@_STL@@@0@0ABU__true_type@0@@Z ENDP ; _STL::__destroy_aux<_STL::_Deque_iterator<Packet *,_STL::_Nonconst_traits<Packet *> > >
_TEXT	ENDS
PUBLIC	?max_size@?$_String_base@DV?$allocator@D@_STL@@@_STL@@QBEIXZ ; _STL::_String_base<char,_STL::allocator<char> >::max_size
; Function compile flags: /Ogsy
; File c:\stlport-4.6.1\stlport\stl\_string.h
;	COMDAT ?max_size@?$_String_base@DV?$allocator@D@_STL@@@_STL@@QBEIXZ
_TEXT	SEGMENT
?max_size@?$_String_base@DV?$allocator@D@_STL@@@_STL@@QBEIXZ PROC NEAR ; _STL::_String_base<char,_STL::allocator<char> >::max_size, COMDAT
; _this$ = ecx

; 126  :   size_t max_size() const { return (size_t(-1) / sizeof(_Tp)) - 1; }

  00000	6a fe		 push	 -2			; fffffffeH
  00002	58		 pop	 eax
  00003	c3		 ret	 0
?max_size@?$_String_base@DV?$allocator@D@_STL@@@_STL@@QBEIXZ ENDP ; _STL::_String_base<char,_STL::allocator<char> >::max_size
_TEXT	ENDS
PUBLIC	?_Ret@?$_BothPtrType@PAPAPAVPacket@@PAPAPAV1@@_STL@@SA?AU__true_type@2@XZ ; _STL::_BothPtrType<Packet * * *,Packet * * *>::_Ret
; Function compile flags: /Ogsy
; File c:\stlport-4.6.1\stlport\stl\type_traits.h
;	COMDAT ?_Ret@?$_BothPtrType@PAPAPAVPacket@@PAPAPAV1@@_STL@@SA?AU__true_type@2@XZ
_TEXT	SEGMENT
$T114899 = -1						; size = 1
?_Ret@?$_BothPtrType@PAPAPAVPacket@@PAPAPAV1@@_STL@@SA?AU__true_type@2@XZ PROC NEAR ; _STL::_BothPtrType<Packet * * *,Packet * * *>::_Ret, COMDAT

; 234  :   static __true_type _Ret() { return __true_type();} 

  00000	55		 push	 ebp
  00001	8b ec		 mov	 ebp, esp
  00003	51		 push	 ecx
  00004	57		 push	 edi
  00005	33 c0		 xor	 eax, eax
  00007	8d 7d ff	 lea	 edi, DWORD PTR $T114899[ebp]
  0000a	aa		 stosb
  0000b	8a 45 ff	 mov	 al, BYTE PTR $T114899[ebp]
  0000e	5f		 pop	 edi
  0000f	c9		 leave
  00010	c3		 ret	 0
?_Ret@?$_BothPtrType@PAPAPAVPacket@@PAPAPAV1@@_STL@@SA?AU__true_type@2@XZ ENDP ; _STL::_BothPtrType<Packet * * *,Packet * * *>::_Ret
_TEXT	ENDS
PUBLIC	??$__distance@PBD@_STL@@YAHABQBD0ABUrandom_access_iterator_tag@0@@Z ; _STL::__distance<char const *>
; Function compile flags: /Ogsy
; File c:\stlport-4.6.1\stlport\stl\_iterator_base.h
;	COMDAT ??$__distance@PBD@_STL@@YAHABQBD0ABUrandom_access_iterator_tag@0@@Z
_TEXT	SEGMENT
___first$ = 8						; size = 4
___last$ = 12						; size = 4
___formal$ = 16						; size = 4
??$__distance@PBD@_STL@@YAHABQBD0ABUrandom_access_iterator_tag@0@@Z PROC NEAR ; _STL::__distance<char const *>, COMDAT

; 363  :   return __last - __first;

  00000	8b 44 24 08	 mov	 eax, DWORD PTR ___last$[esp-4]
  00004	8b 00		 mov	 eax, DWORD PTR [eax]
  00006	8b 4c 24 04	 mov	 ecx, DWORD PTR ___first$[esp-4]
  0000a	2b 01		 sub	 eax, DWORD PTR [ecx]

; 364  : }

  0000c	c3		 ret	 0
??$__distance@PBD@_STL@@YAHABQBD0ABUrandom_access_iterator_tag@0@@Z ENDP ; _STL::__distance<char const *>
_TEXT	ENDS
PUBLIC	??_C@_0N@GOPDCEEB@basic_string?$AA@		; `string'
PUBLIC	?_M_throw_length_error@?$_String_base@DV?$allocator@D@_STL@@@_STL@@QBEXXZ ; _STL::_String_base<char,_STL::allocator<char> >::_M_throw_length_error
EXTRN	?__stl_throw_length_error@_STL@@YAXPBD@Z:NEAR	; _STL::__stl_throw_length_error
;	COMDAT ??_C@_0N@GOPDCEEB@basic_string?$AA@
; File c:\stlport-4.6.1\stlport\stl\_string.c
CONST	SEGMENT
??_C@_0N@GOPDCEEB@basic_string?$AA@ DB 'basic_string', 00H ; `string'
; Function compile flags: /Ogsy
CONST	ENDS
;	COMDAT ?_M_throw_length_error@?$_String_base@DV?$allocator@D@_STL@@@_STL@@QBEXXZ
_TEXT	SEGMENT
?_M_throw_length_error@?$_String_base@DV?$allocator@D@_STL@@@_STL@@QBEXXZ PROC NEAR ; _STL::_String_base<char,_STL::allocator<char> >::_M_throw_length_error, COMDAT
; _this$ = ecx

; 523  :     __stl_throw_length_error("basic_string");

  00000	68 00 00 00 00	 push	 OFFSET FLAT:??_C@_0N@GOPDCEEB@basic_string?$AA@
  00005	e8 00 00 00 00	 call	 ?__stl_throw_length_error@_STL@@YAXPBD@Z ; _STL::__stl_throw_length_error
  0000a	59		 pop	 ecx

; 524  : }

  0000b	c3		 ret	 0
?_M_throw_length_error@?$_String_base@DV?$allocator@D@_STL@@@_STL@@QBEXXZ ENDP ; _STL::_String_base<char,_STL::allocator<char> >::_M_throw_length_error
_TEXT	ENDS
PUBLIC	??$__distance@PAD@_STL@@YAHABQAD0ABUrandom_access_iterator_tag@0@@Z ; _STL::__distance<char *>
; Function compile flags: /Ogsy
; File c:\stlport-4.6.1\stlport\stl\_iterator_base.h
;	COMDAT ??$__distance@PAD@_STL@@YAHABQAD0ABUrandom_access_iterator_tag@0@@Z
_TEXT	SEGMENT
___first$ = 8						; size = 4
___last$ = 12						; size = 4
___formal$ = 16						; size = 4
??$__distance@PAD@_STL@@YAHABQAD0ABUrandom_access_iterator_tag@0@@Z PROC NEAR ; _STL::__distance<char *>, COMDAT

; 363  :   return __last - __first;

  00000	8b 44 24 08	 mov	 eax, DWORD PTR ___last$[esp-4]
  00004	8b 00		 mov	 eax, DWORD PTR [eax]
  00006	8b 4c 24 04	 mov	 ecx, DWORD PTR ___first$[esp-4]
  0000a	2b 01		 sub	 eax, DWORD PTR [ecx]

; 364  : }

  0000c	c3		 ret	 0
??$__distance@PAD@_STL@@YAHABQAD0ABUrandom_access_iterator_tag@0@@Z ENDP ; _STL::__distance<char *>
_TEXT	ENDS
PUBLIC	?_Ret@?$_BothPtrType@PADPAD@_STL@@SA?AU__true_type@2@XZ ; _STL::_BothPtrType<char *,char *>::_Ret
; Function compile flags: /Ogsy
; File c:\stlport-4.6.1\stlport\stl\type_traits.h
;	COMDAT ?_Ret@?$_BothPtrType@PADPAD@_STL@@SA?AU__true_type@2@XZ
_TEXT	SEGMENT
$T114911 = -1						; size = 1
?_Ret@?$_BothPtrType@PADPAD@_STL@@SA?AU__true_type@2@XZ PROC NEAR ; _STL::_BothPtrType<char *,char *>::_Ret, COMDAT

; 234  :   static __true_type _Ret() { return __true_type();} 

  00000	55		 push	 ebp
  00001	8b ec		 mov	 ebp, esp
  00003	51		 push	 ecx
  00004	57		 push	 edi
  00005	33 c0		 xor	 eax, eax
  00007	8d 7d ff	 lea	 edi, DWORD PTR $T114911[ebp]
  0000a	aa		 stosb
  0000b	8a 45 ff	 mov	 al, BYTE PTR $T114911[ebp]
  0000e	5f		 pop	 edi
  0000f	c9		 leave
  00010	c3		 ret	 0
?_Ret@?$_BothPtrType@PADPAD@_STL@@SA?AU__true_type@2@XZ ENDP ; _STL::_BothPtrType<char *,char *>::_Ret
_TEXT	ENDS
PUBLIC	?_Ret@?$_OKToMemCpy@PAPAVPacket@@PAPAV1@@_STL@@SA?AU__true_type@2@XZ ; _STL::_OKToMemCpy<Packet * *,Packet * *>::_Ret
; Function compile flags: /Ogsy
;	COMDAT ?_Ret@?$_OKToMemCpy@PAPAVPacket@@PAPAV1@@_STL@@SA?AU__true_type@2@XZ
_TEXT	SEGMENT
$T114914 = -1						; size = 1
?_Ret@?$_OKToMemCpy@PAPAVPacket@@PAPAV1@@_STL@@SA?AU__true_type@2@XZ PROC NEAR ; _STL::_OKToMemCpy<Packet * *,Packet * *>::_Ret, COMDAT

; 361  :   static _Type _Ret() { return _Type(); }

  00000	55		 push	 ebp
  00001	8b ec		 mov	 ebp, esp
  00003	51		 push	 ecx
  00004	57		 push	 edi
  00005	33 c0		 xor	 eax, eax
  00007	8d 7d ff	 lea	 edi, DWORD PTR $T114914[ebp]
  0000a	aa		 stosb
  0000b	8a 45 ff	 mov	 al, BYTE PTR $T114914[ebp]
  0000e	5f		 pop	 edi
  0000f	c9		 leave
  00010	c3		 ret	 0
?_Ret@?$_OKToMemCpy@PAPAVPacket@@PAPAV1@@_STL@@SA?AU__true_type@2@XZ ENDP ; _STL::_OKToMemCpy<Packet * *,Packet * *>::_Ret
_TEXT	ENDS
PUBLIC	??$_IsOKToMemCpy@PAPAVPacket@@PAPAV1@@_STL@@YA?AU?$_OKToMemCpy@PAPAVPacket@@PAPAV1@@0@PAPAPAVPacket@@0@Z ; _STL::_IsOKToMemCpy<Packet * *,Packet * *>
; Function compile flags: /Ogsy
;	COMDAT ??$_IsOKToMemCpy@PAPAVPacket@@PAPAV1@@_STL@@YA?AU?$_OKToMemCpy@PAPAVPacket@@PAPAV1@@0@PAPAPAVPacket@@0@Z
_TEXT	SEGMENT
$T114917 = -1						; size = 1
___formal$ = 8						; size = 4
___formal$ = 12						; size = 4
??$_IsOKToMemCpy@PAPAVPacket@@PAPAV1@@_STL@@YA?AU?$_OKToMemCpy@PAPAVPacket@@PAPAV1@@0@PAPAPAVPacket@@0@Z PROC NEAR ; _STL::_IsOKToMemCpy<Packet * *,Packet * *>, COMDAT

; 365  : inline _OKToMemCpy<_Tp1, _Tp2> _IsOKToMemCpy(_Tp1*, _Tp2*)  {

  00000	55		 push	 ebp
  00001	8b ec		 mov	 ebp, esp
  00003	51		 push	 ecx
  00004	57		 push	 edi

; 366  :   return _OKToMemCpy<_Tp1, _Tp2>();

  00005	33 c0		 xor	 eax, eax
  00007	8d 7d ff	 lea	 edi, DWORD PTR $T114917[ebp]
  0000a	aa		 stosb
  0000b	8a 45 ff	 mov	 al, BYTE PTR $T114917[ebp]
  0000e	5f		 pop	 edi

; 367  : }

  0000f	c9		 leave
  00010	c3		 ret	 0
??$_IsOKToMemCpy@PAPAVPacket@@PAPAV1@@_STL@@YA?AU?$_OKToMemCpy@PAPAVPacket@@PAPAV1@@0@PAPAPAVPacket@@0@Z ENDP ; _STL::_IsOKToMemCpy<Packet * *,Packet * *>
_TEXT	ENDS
PUBLIC	??$__copy_ptrs@PAPAPAVPacket@@PAPAPAV1@@_STL@@YAPAPAPAVPacket@@PAPAPAV1@00ABU__true_type@0@@Z ; _STL::__copy_ptrs<Packet * * *,Packet * * *>
; Function compile flags: /Ogsy
; File c:\stlport-4.6.1\stlport\stl\_algobase.h
;	COMDAT ??$__copy_ptrs@PAPAPAVPacket@@PAPAPAV1@@_STL@@YAPAPAPAVPacket@@PAPAPAV1@00ABU__true_type@0@@Z
_TEXT	SEGMENT
___first$ = 8						; size = 4
___last$ = 12						; size = 4
___result$ = 16						; size = 4
___formal$ = 20						; size = 4
??$__copy_ptrs@PAPAPAVPacket@@PAPAPAV1@@_STL@@YAPAPAPAVPacket@@PAPAPAV1@00ABU__true_type@0@@Z PROC NEAR ; _STL::__copy_ptrs<Packet * * *,Packet * * *>, COMDAT

; 195  : // we know they all pointers, so this cast is OK 
; 196  :   //  return (_OutputIter)__copy_trivial(&(*__first), &(*__last), &(*__result));
; 197  :   return (_OutputIter)__copy_trivial(__first, __last, __result);

  00000	ff 74 24 0c	 push	 DWORD PTR ___result$[esp-4]
  00004	ff 74 24 0c	 push	 DWORD PTR ___last$[esp]
  00008	ff 74 24 0c	 push	 DWORD PTR ___first$[esp+4]
  0000c	e8 00 00 00 00	 call	 ?__copy_trivial@_STL@@YAPAXPBX0PAX@Z ; _STL::__copy_trivial
  00011	83 c4 0c	 add	 esp, 12			; 0000000cH

; 198  : }

  00014	c3		 ret	 0
??$__copy_ptrs@PAPAPAVPacket@@PAPAPAV1@@_STL@@YAPAPAPAVPacket@@PAPAPAV1@00ABU__true_type@0@@Z ENDP ; _STL::__copy_ptrs<Packet * * *,Packet * * *>
_TEXT	ENDS
PUBLIC	??$__copy_backward_ptrs@PAPAPAVPacket@@PAPAPAV1@@_STL@@YAPAPAPAVPacket@@PAPAPAV1@00ABU__true_type@0@@Z ; _STL::__copy_backward_ptrs<Packet * * *,Packet * * *>
; Function compile flags: /Ogsy
;	COMDAT ??$__copy_backward_ptrs@PAPAPAVPacket@@PAPAPAV1@@_STL@@YAPAPAPAVPacket@@PAPAPAV1@00ABU__true_type@0@@Z
_TEXT	SEGMENT
___first$ = 8						; size = 4
___last$ = 12						; size = 4
___result$ = 16						; size = 4
___formal$ = 20						; size = 4
??$__copy_backward_ptrs@PAPAPAVPacket@@PAPAPAV1@@_STL@@YAPAPAPAVPacket@@PAPAPAV1@00ABU__true_type@0@@Z PROC NEAR ; _STL::__copy_backward_ptrs<Packet * * *,Packet * * *>, COMDAT

; 225  :   return (_OutputIter)__copy_trivial_backward(__first, __last, __result);  

  00000	ff 74 24 0c	 push	 DWORD PTR ___result$[esp-4]
  00004	ff 74 24 0c	 push	 DWORD PTR ___last$[esp]
  00008	ff 74 24 0c	 push	 DWORD PTR ___first$[esp+4]
  0000c	e8 00 00 00 00	 call	 ?__copy_trivial_backward@_STL@@YAPAXPBX0PAX@Z ; _STL::__copy_trivial_backward
  00011	83 c4 0c	 add	 esp, 12			; 0000000cH

; 226  : }

  00014	c3		 ret	 0
??$__copy_backward_ptrs@PAPAPAVPacket@@PAPAPAV1@@_STL@@YAPAPAPAVPacket@@PAPAPAV1@00ABU__true_type@0@@Z ENDP ; _STL::__copy_backward_ptrs<Packet * * *,Packet * * *>
_TEXT	ENDS
PUBLIC	?_Ret@?$_OKToMemCpy@DD@_STL@@SA?AU__true_type@2@XZ ; _STL::_OKToMemCpy<char,char>::_Ret
; Function compile flags: /Ogsy
; File c:\stlport-4.6.1\stlport\stl\type_traits.h
;	COMDAT ?_Ret@?$_OKToMemCpy@DD@_STL@@SA?AU__true_type@2@XZ
_TEXT	SEGMENT
$T114926 = -1						; size = 1
?_Ret@?$_OKToMemCpy@DD@_STL@@SA?AU__true_type@2@XZ PROC NEAR ; _STL::_OKToMemCpy<char,char>::_Ret, COMDAT

; 361  :   static _Type _Ret() { return _Type(); }

  00000	55		 push	 ebp
  00001	8b ec		 mov	 ebp, esp
  00003	51		 push	 ecx
  00004	57		 push	 edi
  00005	33 c0		 xor	 eax, eax
  00007	8d 7d ff	 lea	 edi, DWORD PTR $T114926[ebp]
  0000a	aa		 stosb
  0000b	8a 45 ff	 mov	 al, BYTE PTR $T114926[ebp]
  0000e	5f		 pop	 edi
  0000f	c9		 leave
  00010	c3		 ret	 0
?_Ret@?$_OKToMemCpy@DD@_STL@@SA?AU__true_type@2@XZ ENDP	; _STL::_OKToMemCpy<char,char>::_Ret
_TEXT	ENDS
PUBLIC	??$_IsOKToMemCpy@DD@_STL@@YA?AU?$_OKToMemCpy@DD@0@PAD0@Z ; _STL::_IsOKToMemCpy<char,char>
; Function compile flags: /Ogsy
;	COMDAT ??$_IsOKToMemCpy@DD@_STL@@YA?AU?$_OKToMemCpy@DD@0@PAD0@Z
_TEXT	SEGMENT
$T114929 = -1						; size = 1
___formal$ = 8						; size = 4
___formal$ = 12						; size = 4
??$_IsOKToMemCpy@DD@_STL@@YA?AU?$_OKToMemCpy@DD@0@PAD0@Z PROC NEAR ; _STL::_IsOKToMemCpy<char,char>, COMDAT

; 365  : inline _OKToMemCpy<_Tp1, _Tp2> _IsOKToMemCpy(_Tp1*, _Tp2*)  {

  00000	55		 push	 ebp
  00001	8b ec		 mov	 ebp, esp
  00003	51		 push	 ecx
  00004	57		 push	 edi

; 366  :   return _OKToMemCpy<_Tp1, _Tp2>();

  00005	33 c0		 xor	 eax, eax
  00007	8d 7d ff	 lea	 edi, DWORD PTR $T114929[ebp]
  0000a	aa		 stosb
  0000b	8a 45 ff	 mov	 al, BYTE PTR $T114929[ebp]
  0000e	5f		 pop	 edi

; 367  : }

  0000f	c9		 leave
  00010	c3		 ret	 0
??$_IsOKToMemCpy@DD@_STL@@YA?AU?$_OKToMemCpy@DD@0@PAD0@Z ENDP ; _STL::_IsOKToMemCpy<char,char>
_TEXT	ENDS
PUBLIC	??$__copy_ptrs@PADPAD@_STL@@YAPADPAD00ABU__true_type@0@@Z ; _STL::__copy_ptrs<char *,char *>
; Function compile flags: /Ogsy
; File c:\stlport-4.6.1\stlport\stl\_algobase.h
;	COMDAT ??$__copy_ptrs@PADPAD@_STL@@YAPADPAD00ABU__true_type@0@@Z
_TEXT	SEGMENT
___first$ = 8						; size = 4
___last$ = 12						; size = 4
___result$ = 16						; size = 4
___formal$ = 20						; size = 4
??$__copy_ptrs@PADPAD@_STL@@YAPADPAD00ABU__true_type@0@@Z PROC NEAR ; _STL::__copy_ptrs<char *,char *>, COMDAT

; 195  : // we know they all pointers, so this cast is OK 
; 196  :   //  return (_OutputIter)__copy_trivial(&(*__first), &(*__last), &(*__result));
; 197  :   return (_OutputIter)__copy_trivial(__first, __last, __result);

  00000	ff 74 24 0c	 push	 DWORD PTR ___result$[esp-4]
  00004	ff 74 24 0c	 push	 DWORD PTR ___last$[esp]
  00008	ff 74 24 0c	 push	 DWORD PTR ___first$[esp+4]
  0000c	e8 00 00 00 00	 call	 ?__copy_trivial@_STL@@YAPAXPBX0PAX@Z ; _STL::__copy_trivial
  00011	83 c4 0c	 add	 esp, 12			; 0000000cH

; 198  : }

  00014	c3		 ret	 0
??$__copy_ptrs@PADPAD@_STL@@YAPADPAD00ABU__true_type@0@@Z ENDP ; _STL::__copy_ptrs<char *,char *>
_TEXT	ENDS
PUBLIC	??0?$allocator@D@_STL@@QAE@XZ			; _STL::allocator<char>::allocator<char>
; Function compile flags: /Ogsy
; File c:\stlport-4.6.1\stlport\stl\_alloc.h
;	COMDAT ??0?$allocator@D@_STL@@QAE@XZ
_TEXT	SEGMENT
??0?$allocator@D@_STL@@QAE@XZ PROC NEAR			; _STL::allocator<char>::allocator<char>, COMDAT
; _this$ = ecx

; 345  :   allocator() _STLP_NOTHROW {}

  00000	8b c1		 mov	 eax, ecx
  00002	c3		 ret	 0
??0?$allocator@D@_STL@@QAE@XZ ENDP			; _STL::allocator<char>::allocator<char>
_TEXT	ENDS
PUBLIC	??1?$allocator@D@_STL@@QAE@XZ			; _STL::allocator<char>::~allocator<char>
; Function compile flags: /Ogsy
;	COMDAT ??1?$allocator@D@_STL@@QAE@XZ
_TEXT	SEGMENT
??1?$allocator@D@_STL@@QAE@XZ PROC NEAR			; _STL::allocator<char>::~allocator<char>, COMDAT
; _this$ = ecx

; 350  :   ~allocator() _STLP_NOTHROW {}

  00000	c3		 ret	 0
??1?$allocator@D@_STL@@QAE@XZ ENDP			; _STL::allocator<char>::~allocator<char>
_TEXT	ENDS
PUBLIC	??0?$allocator@V?$basic_string@DV?$char_traits@D@_STL@@V?$allocator@D@2@@_STL@@@_STL@@QAE@XZ ; _STL::allocator<_STL::basic_string<char,_STL::char_traits<char>,_STL::allocator<char> > >::allocator<_STL::basic_string<char,_STL::char_traits<char>,_STL::allocator<char> > >
; Function compile flags: /Ogsy
;	COMDAT ??0?$allocator@V?$basic_string@DV?$char_traits@D@_STL@@V?$allocator@D@2@@_STL@@@_STL@@QAE@XZ
_TEXT	SEGMENT
??0?$allocator@V?$basic_string@DV?$char_traits@D@_STL@@V?$allocator@D@2@@_STL@@@_STL@@QAE@XZ PROC NEAR ; _STL::allocator<_STL::basic_string<char,_STL::char_traits<char>,_STL::allocator<char> > >::allocator<_STL::basic_string<char,_STL::char_traits<char>,_STL::allocator<char> > >, COMDAT
; _this$ = ecx

; 345  :   allocator() _STLP_NOTHROW {}

  00000	8b c1		 mov	 eax, ecx
  00002	c3		 ret	 0
??0?$allocator@V?$basic_string@DV?$char_traits@D@_STL@@V?$allocator@D@2@@_STL@@@_STL@@QAE@XZ ENDP ; _STL::allocator<_STL::basic_string<char,_STL::char_traits<char>,_STL::allocator<char> > >::allocator<_STL::basic_string<char,_STL::char_traits<char>,_STL::allocator<char> > >
_TEXT	ENDS
PUBLIC	??1?$allocator@V?$basic_string@DV?$char_traits@D@_STL@@V?$allocator@D@2@@_STL@@@_STL@@QAE@XZ ; _STL::allocator<_STL::basic_string<char,_STL::char_traits<char>,_STL::allocator<char> > >::~allocator<_STL::basic_string<char,_STL::char_traits<char>,_STL::allocator<char> > >
; Function compile flags: /Ogsy
;	COMDAT ??1?$allocator@V?$basic_string@DV?$char_traits@D@_STL@@V?$allocator@D@2@@_STL@@@_STL@@QAE@XZ
_TEXT	SEGMENT
??1?$allocator@V?$basic_string@DV?$char_traits@D@_STL@@V?$allocator@D@2@@_STL@@@_STL@@QAE@XZ PROC NEAR ; _STL::allocator<_STL::basic_string<char,_STL::char_traits<char>,_STL::allocator<char> > >::~allocator<_STL::basic_string<char,_STL::char_traits<char>,_STL::allocator<char> > >, COMDAT
; _this$ = ecx

; 350  :   ~allocator() _STLP_NOTHROW {}

  00000	c3		 ret	 0
??1?$allocator@V?$basic_string@DV?$char_traits@D@_STL@@V?$allocator@D@2@@_STL@@@_STL@@QAE@XZ ENDP ; _STL::allocator<_STL::basic_string<char,_STL::char_traits<char>,_STL::allocator<char> > >::~allocator<_STL::basic_string<char,_STL::char_traits<char>,_STL::allocator<char> > >
_TEXT	ENDS
PUBLIC	??D?$_List_iterator@V?$basic_string@DV?$char_traits@D@_STL@@V?$allocator@D@2@@_STL@@U?$_Const_traits@V?$basic_string@DV?$char_traits@D@_STL@@V?$allocator@D@2@@_STL@@@2@@_STL@@QBEABV?$basic_string@DV?$char_traits@D@_STL@@V?$allocator@D@2@@1@XZ ; _STL::_List_iterator<_STL::basic_string<char,_STL::char_traits<char>,_STL::allocator<char> >,_STL::_Const_traits<_STL::basic_string<char,_STL::char_traits<char>,_STL::allocator<char> > > >::operator*
; Function compile flags: /Ogsy
; File c:\stlport-4.6.1\stlport\stl\_list.h
;	COMDAT ??D?$_List_iterator@V?$basic_string@DV?$char_traits@D@_STL@@V?$allocator@D@2@@_STL@@U?$_Const_traits@V?$basic_string@DV?$char_traits@D@_STL@@V?$allocator@D@2@@_STL@@@2@@_STL@@QBEABV?$basic_string@DV?$char_traits@D@_STL@@V?$allocator@D@2@@1@XZ
_TEXT	SEGMENT
??D?$_List_iterator@V?$basic_string@DV?$char_traits@D@_STL@@V?$allocator@D@2@@_STL@@U?$_Const_traits@V?$basic_string@DV?$char_traits@D@_STL@@V?$allocator@D@2@@_STL@@@2@@_STL@@QBEABV?$basic_string@DV?$char_traits@D@_STL@@V?$allocator@D@2@@1@XZ PROC NEAR ; _STL::_List_iterator<_STL::basic_string<char,_STL::char_traits<char>,_STL::allocator<char> >,_STL::_Const_traits<_STL::basic_string<char,_STL::char_traits<char>,_STL::allocator<char> > > >::operator*, COMDAT
; _this$ = ecx

; 130  :   reference operator*() const { return ((_Node*)_M_node)->_M_data; }

  00000	8b 01		 mov	 eax, DWORD PTR [ecx]
  00002	83 c0 08	 add	 eax, 8
  00005	c3		 ret	 0
??D?$_List_iterator@V?$basic_string@DV?$char_traits@D@_STL@@V?$allocator@D@2@@_STL@@U?$_Const_traits@V?$basic_string@DV?$char_traits@D@_STL@@V?$allocator@D@2@@_STL@@@2@@_STL@@QBEABV?$basic_string@DV?$char_traits@D@_STL@@V?$allocator@D@2@@1@XZ ENDP ; _STL::_List_iterator<_STL::basic_string<char,_STL::char_traits<char>,_STL::allocator<char> >,_STL::_Const_traits<_STL::basic_string<char,_STL::char_traits<char>,_STL::allocator<char> > > >::operator*
_TEXT	ENDS
PUBLIC	??0?$_List_iterator@V?$basic_string@DV?$char_traits@D@_STL@@V?$allocator@D@2@@_STL@@U?$_Const_traits@V?$basic_string@DV?$char_traits@D@_STL@@V?$allocator@D@2@@_STL@@@2@@_STL@@QAE@PAU?$_List_node@V?$basic_string@DV?$char_traits@D@_STL@@V?$allocator@D@2@@_STL@@@1@@Z ; _STL::_List_iterator<_STL::basic_string<char,_STL::char_traits<char>,_STL::allocator<char> >,_STL::_Const_traits<_STL::basic_string<char,_STL::char_traits<char>,_STL::allocator<char> > > >::_List_iterator<_STL::basic_string<char,_STL::char_traits<char>,_STL::allocator<char> >,_STL::_Const_traits<_STL::basic_string<char,_STL::char_traits<char>,_STL::allocator<char> > > >
; Function compile flags: /Ogsy
;	COMDAT ??0?$_List_iterator@V?$basic_string@DV?$char_traits@D@_STL@@V?$allocator@D@2@@_STL@@U?$_Const_traits@V?$basic_string@DV?$char_traits@D@_STL@@V?$allocator@D@2@@_STL@@@2@@_STL@@QAE@PAU?$_List_node@V?$basic_string@DV?$char_traits@D@_STL@@V?$allocator@D@2@@_STL@@@1@@Z
_TEXT	SEGMENT
___x$ = 8						; size = 4
??0?$_List_iterator@V?$basic_string@DV?$char_traits@D@_STL@@V?$allocator@D@2@@_STL@@U?$_Const_traits@V?$basic_string@DV?$char_traits@D@_STL@@V?$allocator@D@2@@_STL@@@2@@_STL@@QAE@PAU?$_List_node@V?$basic_string@DV?$char_traits@D@_STL@@V?$allocator@D@2@@_STL@@@1@@Z PROC NEAR ; _STL::_List_iterator<_STL::basic_string<char,_STL::char_traits<char>,_STL::allocator<char> >,_STL::_Const_traits<_STL::basic_string<char,_STL::char_traits<char>,_STL::allocator<char> > > >::_List_iterator<_STL::basic_string<char,_STL::char_traits<char>,_STL::allocator<char> >,_STL::_Const_traits<_STL::basic_string<char,_STL::char_traits<char>,_STL::allocator<char> > > >, COMDAT
; _this$ = ecx

; 126  :   _List_iterator(_Node* __x) : _List_iterator_base(__x) {}

  00000	8b c1		 mov	 eax, ecx
  00002	8b 4c 24 04	 mov	 ecx, DWORD PTR ___x$[esp-4]
  00006	89 08		 mov	 DWORD PTR [eax], ecx
  00008	c2 04 00	 ret	 4
??0?$_List_iterator@V?$basic_string@DV?$char_traits@D@_STL@@V?$allocator@D@2@@_STL@@U?$_Const_traits@V?$basic_string@DV?$char_traits@D@_STL@@V?$allocator@D@2@@_STL@@@2@@_STL@@QAE@PAU?$_List_node@V?$basic_string@DV?$char_traits@D@_STL@@V?$allocator@D@2@@_STL@@@1@@Z ENDP ; _STL::_List_iterator<_STL::basic_string<char,_STL::char_traits<char>,_STL::allocator<char> >,_STL::_Const_traits<_STL::basic_string<char,_STL::char_traits<char>,_STL::allocator<char> > > >::_List_iterator<_STL::basic_string<char,_STL::char_traits<char>,_STL::allocator<char> >,_STL::_Const_traits<_STL::basic_string<char,_STL::char_traits<char>,_STL::allocator<char> > > >
_TEXT	ENDS
PUBLIC	??1?$_STLP_alloc_proxy@PADDV?$allocator@D@_STL@@@_STL@@QAE@XZ ; _STL::_STLP_alloc_proxy<char *,char,_STL::allocator<char> >::~_STLP_alloc_proxy<char *,char,_STL::allocator<char> >
; Function compile flags: /Ogsy
;	COMDAT ??1?$_STLP_alloc_proxy@PADDV?$allocator@D@_STL@@@_STL@@QAE@XZ
_TEXT	SEGMENT
??1?$_STLP_alloc_proxy@PADDV?$allocator@D@_STL@@@_STL@@QAE@XZ PROC NEAR ; _STL::_STLP_alloc_proxy<char *,char,_STL::allocator<char> >::~_STLP_alloc_proxy<char *,char,_STL::allocator<char> >, COMDAT
; _this$ = ecx
  00000	c3		 ret	 0
??1?$_STLP_alloc_proxy@PADDV?$allocator@D@_STL@@@_STL@@QAE@XZ ENDP ; _STL::_STLP_alloc_proxy<char *,char,_STL::allocator<char> >::~_STLP_alloc_proxy<char *,char,_STL::allocator<char> >
_TEXT	ENDS
PUBLIC	??1?$allocator@U?$_List_node@V?$basic_string@DV?$char_traits@D@_STL@@V?$allocator@D@2@@_STL@@@_STL@@@_STL@@QAE@XZ ; _STL::allocator<_STL::_List_node<_STL::basic_string<char,_STL::char_traits<char>,_STL::allocator<char> > > >::~allocator<_STL::_List_node<_STL::basic_string<char,_STL::char_traits<char>,_STL::allocator<char> > > >
; Function compile flags: /Ogsy
; File c:\stlport-4.6.1\stlport\stl\_alloc.h
;	COMDAT ??1?$allocator@U?$_List_node@V?$basic_string@DV?$char_traits@D@_STL@@V?$allocator@D@2@@_STL@@@_STL@@@_STL@@QAE@XZ
_TEXT	SEGMENT
??1?$allocator@U?$_List_node@V?$basic_string@DV?$char_traits@D@_STL@@V?$allocator@D@2@@_STL@@@_STL@@@_STL@@QAE@XZ PROC NEAR ; _STL::allocator<_STL::_List_node<_STL::basic_string<char,_STL::char_traits<char>,_STL::allocator<char> > > >::~allocator<_STL::_List_node<_STL::basic_string<char,_STL::char_traits<char>,_STL::allocator<char> > > >, COMDAT
; _this$ = ecx

; 350  :   ~allocator() _STLP_NOTHROW {}

  00000	c3		 ret	 0
??1?$allocator@U?$_List_node@V?$basic_string@DV?$char_traits@D@_STL@@V?$allocator@D@2@@_STL@@@_STL@@@_STL@@QAE@XZ ENDP ; _STL::allocator<_STL::_List_node<_STL::basic_string<char,_STL::char_traits<char>,_STL::allocator<char> > > >::~allocator<_STL::_List_node<_STL::basic_string<char,_STL::char_traits<char>,_STL::allocator<char> > > >
_TEXT	ENDS
PUBLIC	??0?$_List_iterator@V?$basic_string@DV?$char_traits@D@_STL@@V?$allocator@D@2@@_STL@@U?$_Nonconst_traits@V?$basic_string@DV?$char_traits@D@_STL@@V?$allocator@D@2@@_STL@@@2@@_STL@@QAE@PAU?$_List_node@V?$basic_string@DV?$char_traits@D@_STL@@V?$allocator@D@2@@_STL@@@1@@Z ; _STL::_List_iterator<_STL::basic_string<char,_STL::char_traits<char>,_STL::allocator<char> >,_STL::_Nonconst_traits<_STL::basic_string<char,_STL::char_traits<char>,_STL::allocator<char> > > >::_List_iterator<_STL::basic_string<char,_STL::char_traits<char>,_STL::allocator<char> >,_STL::_Nonconst_traits<_STL::basic_string<char,_STL::char_traits<char>,_STL::allocator<char> > > >
; Function compile flags: /Ogsy
; File c:\stlport-4.6.1\stlport\stl\_list.h
;	COMDAT ??0?$_List_iterator@V?$basic_string@DV?$char_traits@D@_STL@@V?$allocator@D@2@@_STL@@U?$_Nonconst_traits@V?$basic_string@DV?$char_traits@D@_STL@@V?$allocator@D@2@@_STL@@@2@@_STL@@QAE@PAU?$_List_node@V?$basic_string@DV?$char_traits@D@_STL@@V?$allocator@D@2@@_STL@@@1@@Z
_TEXT	SEGMENT
___x$ = 8						; size = 4
??0?$_List_iterator@V?$basic_string@DV?$char_traits@D@_STL@@V?$allocator@D@2@@_STL@@U?$_Nonconst_traits@V?$basic_string@DV?$char_traits@D@_STL@@V?$allocator@D@2@@_STL@@@2@@_STL@@QAE@PAU?$_List_node@V?$basic_string@DV?$char_traits@D@_STL@@V?$allocator@D@2@@_STL@@@1@@Z PROC NEAR ; _STL::_List_iterator<_STL::basic_string<char,_STL::char_traits<char>,_STL::allocator<char> >,_STL::_Nonconst_traits<_STL::basic_string<char,_STL::char_traits<char>,_STL::allocator<char> > > >::_List_iterator<_STL::basic_string<char,_STL::char_traits<char>,_STL::allocator<char> >,_STL::_Nonconst_traits<_STL::basic_string<char,_STL::char_traits<char>,_STL::allocator<char> > > >, COMDAT
; _this$ = ecx

; 126  :   _List_iterator(_Node* __x) : _List_iterator_base(__x) {}

  00000	8b c1		 mov	 eax, ecx
  00002	8b 4c 24 04	 mov	 ecx, DWORD PTR ___x$[esp-4]
  00006	89 08		 mov	 DWORD PTR [eax], ecx
  00008	c2 04 00	 ret	 4
??0?$_List_iterator@V?$basic_string@DV?$char_traits@D@_STL@@V?$allocator@D@2@@_STL@@U?$_Nonconst_traits@V?$basic_string@DV?$char_traits@D@_STL@@V?$allocator@D@2@@_STL@@@2@@_STL@@QAE@PAU?$_List_node@V?$basic_string@DV?$char_traits@D@_STL@@V?$allocator@D@2@@_STL@@@1@@Z ENDP ; _STL::_List_iterator<_STL::basic_string<char,_STL::char_traits<char>,_STL::allocator<char> >,_STL::_Nonconst_traits<_STL::basic_string<char,_STL::char_traits<char>,_STL::allocator<char> > > >::_List_iterator<_STL::basic_string<char,_STL::char_traits<char>,_STL::allocator<char> >,_STL::_Nonconst_traits<_STL::basic_string<char,_STL::char_traits<char>,_STL::allocator<char> > > >
_TEXT	ENDS
PUBLIC	??0?$allocator@U?$_List_node@V?$basic_string@DV?$char_traits@D@_STL@@V?$allocator@D@2@@_STL@@@_STL@@@_STL@@QAE@ABV01@@Z ; _STL::allocator<_STL::_List_node<_STL::basic_string<char,_STL::char_traits<char>,_STL::allocator<char> > > >::allocator<_STL::_List_node<_STL::basic_string<char,_STL::char_traits<char>,_STL::allocator<char> > > >
; Function compile flags: /Ogsy
; File c:\stlport-4.6.1\stlport\stl\_alloc.h
;	COMDAT ??0?$allocator@U?$_List_node@V?$basic_string@DV?$char_traits@D@_STL@@V?$allocator@D@2@@_STL@@@_STL@@@_STL@@QAE@ABV01@@Z
_TEXT	SEGMENT
___formal$ = 8						; size = 4
??0?$allocator@U?$_List_node@V?$basic_string@DV?$char_traits@D@_STL@@V?$allocator@D@2@@_STL@@@_STL@@@_STL@@QAE@ABV01@@Z PROC NEAR ; _STL::allocator<_STL::_List_node<_STL::basic_string<char,_STL::char_traits<char>,_STL::allocator<char> > > >::allocator<_STL::_List_node<_STL::basic_string<char,_STL::char_traits<char>,_STL::allocator<char> > > >, COMDAT
; _this$ = ecx

; 349  :   allocator(const allocator<_Tp>&) _STLP_NOTHROW {}

  00000	8b c1		 mov	 eax, ecx
  00002	c2 04 00	 ret	 4
??0?$allocator@U?$_List_node@V?$basic_string@DV?$char_traits@D@_STL@@V?$allocator@D@2@@_STL@@@_STL@@@_STL@@QAE@ABV01@@Z ENDP ; _STL::allocator<_STL::_List_node<_STL::basic_string<char,_STL::char_traits<char>,_STL::allocator<char> > > >::allocator<_STL::_List_node<_STL::basic_string<char,_STL::char_traits<char>,_STL::allocator<char> > > >
_TEXT	ENDS
PUBLIC	?allocate@?$__node_alloc@$00$0A@@_STL@@SAPAXI@Z	; _STL::__node_alloc<1,0>::allocate
EXTRN	?_M_allocate@?$__node_alloc@$00$0A@@_STL@@CAPAXI@Z:NEAR ; _STL::__node_alloc<1,0>::_M_allocate
; Function compile flags: /Ogsy
;	COMDAT ?allocate@?$__node_alloc@$00$0A@@_STL@@SAPAXI@Z
_TEXT	SEGMENT
___n$ = 8						; size = 4
?allocate@?$__node_alloc@$00$0A@@_STL@@SAPAXI@Z PROC NEAR ; _STL::__node_alloc<1,0>::allocate, COMDAT

; 251  :   static void * _STLP_CALL allocate(size_t __n) { return (__n > (size_t)_MAX_BYTES) ?  __stl_new(__n) : _M_allocate(__n); }

  00000	8b 44 24 04	 mov	 eax, DWORD PTR ___n$[esp-4]
  00004	3d 80 00 00 00	 cmp	 eax, 128		; 00000080H
  00009	50		 push	 eax
  0000a	76 07		 jbe	 SHORT $L114974
  0000c	e8 00 00 00 00	 call	 ??2@YAPAXI@Z		; operator new
  00011	59		 pop	 ecx
  00012	c3		 ret	 0
$L114974:
  00013	e8 00 00 00 00	 call	 ?_M_allocate@?$__node_alloc@$00$0A@@_STL@@CAPAXI@Z ; _STL::__node_alloc<1,0>::_M_allocate
  00018	59		 pop	 ecx
  00019	c3		 ret	 0
?allocate@?$__node_alloc@$00$0A@@_STL@@SAPAXI@Z ENDP	; _STL::__node_alloc<1,0>::allocate
_TEXT	ENDS
PUBLIC	?deallocate@?$__node_alloc@$00$0A@@_STL@@SAXPAXI@Z ; _STL::__node_alloc<1,0>::deallocate
EXTRN	?_M_deallocate@?$__node_alloc@$00$0A@@_STL@@CAXPAXI@Z:NEAR ; _STL::__node_alloc<1,0>::_M_deallocate
; Function compile flags: /Ogsy
;	COMDAT ?deallocate@?$__node_alloc@$00$0A@@_STL@@SAXPAXI@Z
_TEXT	SEGMENT
___p$ = 8						; size = 4
___n$ = 12						; size = 4
?deallocate@?$__node_alloc@$00$0A@@_STL@@SAXPAXI@Z PROC NEAR ; _STL::__node_alloc<1,0>::deallocate, COMDAT

; 253  :   static void _STLP_CALL deallocate(void *__p, size_t __n) { if (__n > (size_t)_MAX_BYTES) __stl_delete(__p); else _M_deallocate(__p, __n); }

  00000	81 7c 24 08 80
	00 00 00	 cmp	 DWORD PTR ___n$[esp-4], 128 ; 00000080H
  00008	76 0b		 jbe	 SHORT $L98677
  0000a	ff 74 24 04	 push	 DWORD PTR ___p$[esp-4]
  0000e	e8 00 00 00 00	 call	 ??3@YAXPAX@Z		; operator delete
  00013	59		 pop	 ecx
  00014	c3		 ret	 0
$L98677:
  00015	e9 00 00 00 00	 jmp	 ?_M_deallocate@?$__node_alloc@$00$0A@@_STL@@CAXPAXI@Z ; _STL::__node_alloc<1,0>::_M_deallocate
?deallocate@?$__node_alloc@$00$0A@@_STL@@SAXPAXI@Z ENDP	; _STL::__node_alloc<1,0>::deallocate
_TEXT	ENDS
PUBLIC	??$?0V?$basic_string@DV?$char_traits@D@_STL@@V?$allocator@D@2@@_STL@@@?$allocator@U?$_List_node@V?$basic_string@DV?$char_traits@D@_STL@@V?$allocator@D@2@@_STL@@@_STL@@@_STL@@QAE@ABV?$allocator@V?$basic_string@DV?$char_traits@D@_STL@@V?$allocator@D@2@@_STL@@@1@@Z ; _STL::allocator<_STL::_List_node<_STL::basic_string<char,_STL::char_traits<char>,_STL::allocator<char> > > >::allocator<_STL::_List_node<_STL::basic_string<char,_STL::char_traits<char>,_STL::allocator<char> > > ><_STL::basic_string<char,_STL::char_traits<char>,_STL::allocator<char> > >
; Function compile flags: /Ogsy
;	COMDAT ??$?0V?$basic_string@DV?$char_traits@D@_STL@@V?$allocator@D@2@@_STL@@@?$allocator@U?$_List_node@V?$basic_string@DV?$char_traits@D@_STL@@V?$allocator@D@2@@_STL@@@_STL@@@_STL@@QAE@ABV?$allocator@V?$basic_string@DV?$char_traits@D@_STL@@V?$allocator@D@2@@_STL@@@1@@Z
_TEXT	SEGMENT
___formal$ = 8						; size = 4
??$?0V?$basic_string@DV?$char_traits@D@_STL@@V?$allocator@D@2@@_STL@@@?$allocator@U?$_List_node@V?$basic_string@DV?$char_traits@D@_STL@@V?$allocator@D@2@@_STL@@@_STL@@@_STL@@QAE@ABV?$allocator@V?$basic_string@DV?$char_traits@D@_STL@@V?$allocator@D@2@@_STL@@@1@@Z PROC NEAR ; _STL::allocator<_STL::_List_node<_STL::basic_string<char,_STL::char_traits<char>,_STL::allocator<char> > > >::allocator<_STL::_List_node<_STL::basic_string<char,_STL::char_traits<char>,_STL::allocator<char> > > ><_STL::basic_string<char,_STL::char_traits<char>,_STL::allocator<char> > >, COMDAT
; _this$ = ecx

; 347  :   template <class _Tp1> allocator(const allocator<_Tp1>&) _STLP_NOTHROW {}

  00000	8b c1		 mov	 eax, ecx
  00002	c2 04 00	 ret	 4
??$?0V?$basic_string@DV?$char_traits@D@_STL@@V?$allocator@D@2@@_STL@@@?$allocator@U?$_List_node@V?$basic_string@DV?$char_traits@D@_STL@@V?$allocator@D@2@@_STL@@@_STL@@@_STL@@QAE@ABV?$allocator@V?$basic_string@DV?$char_traits@D@_STL@@V?$allocator@D@2@@_STL@@@1@@Z ENDP ; _STL::allocator<_STL::_List_node<_STL::basic_string<char,_STL::char_traits<char>,_STL::allocator<char> > > >::allocator<_STL::_List_node<_STL::basic_string<char,_STL::char_traits<char>,_STL::allocator<char> > > ><_STL::basic_string<char,_STL::char_traits<char>,_STL::allocator<char> > >
_TEXT	ENDS
PUBLIC	?get_allocator@?$basic_string@DV?$char_traits@D@_STL@@V?$allocator@D@2@@_STL@@QBE?AV?$allocator@D@2@XZ ; _STL::basic_string<char,_STL::char_traits<char>,_STL::allocator<char> >::get_allocator
; Function compile flags: /Ogsy
; File c:\stlport-4.6.1\stlport\stl\_string.h
;	COMDAT ?get_allocator@?$basic_string@DV?$char_traits@D@_STL@@V?$allocator@D@2@@_STL@@QBE?AV?$allocator@D@2@XZ
_TEXT	SEGMENT
___$ReturnUdt$ = 8					; size = 4
?get_allocator@?$basic_string@DV?$char_traits@D@_STL@@V?$allocator@D@2@@_STL@@QBE?AV?$allocator@D@2@XZ PROC NEAR ; _STL::basic_string<char,_STL::char_traits<char>,_STL::allocator<char> >::get_allocator, COMDAT
; _this$ = ecx

; 216  :     return _STLP_CONVERT_ALLOCATOR((const allocator_type&)this->_M_end_of_storage, _CharT);

  00000	8b 44 24 04	 mov	 eax, DWORD PTR ___$ReturnUdt$[esp-4]

; 217  :   }

  00004	c2 04 00	 ret	 4
?get_allocator@?$basic_string@DV?$char_traits@D@_STL@@V?$allocator@D@2@@_STL@@QBE?AV?$allocator@D@2@XZ ENDP ; _STL::basic_string<char,_STL::char_traits<char>,_STL::allocator<char> >::get_allocator
_TEXT	ENDS
PUBLIC	?_M_terminate_string@?$basic_string@DV?$char_traits@D@_STL@@V?$allocator@D@2@@_STL@@AAEXXZ ; _STL::basic_string<char,_STL::char_traits<char>,_STL::allocator<char> >::_M_terminate_string
; Function compile flags: /Ogsy
;	COMDAT ?_M_terminate_string@?$basic_string@DV?$char_traits@D@_STL@@V?$allocator@D@2@@_STL@@AAEXXZ
_TEXT	SEGMENT
?_M_terminate_string@?$basic_string@DV?$char_traits@D@_STL@@V?$allocator@D@2@@_STL@@AAEXXZ PROC NEAR ; _STL::basic_string<char,_STL::char_traits<char>,_STL::allocator<char> >::_M_terminate_string, COMDAT
; _this$ = ecx

; 355  :     _M_terminate_string_aux(_Char_Is_Integral());

  00000	8b 41 04	 mov	 eax, DWORD PTR [ecx+4]
  00003	c6 00 00	 mov	 BYTE PTR [eax], 0

; 356  :   }

  00006	c3		 ret	 0
?_M_terminate_string@?$basic_string@DV?$char_traits@D@_STL@@V?$allocator@D@2@@_STL@@AAEXXZ ENDP ; _STL::basic_string<char,_STL::char_traits<char>,_STL::allocator<char> >::_M_terminate_string
_TEXT	ENDS
PUBLIC	?allocate@?$allocator@D@_STL@@QAEPADIPBX@Z	; _STL::allocator<char>::allocate
; Function compile flags: /Ogsy
; File c:\stlport-4.6.1\stlport\stl\_alloc.h
;	COMDAT ?allocate@?$allocator@D@_STL@@QAEPADIPBX@Z
_TEXT	SEGMENT
___n$ = 8						; size = 4
___formal$ = 12						; size = 4
?allocate@?$allocator@D@_STL@@QAEPADIPBX@Z PROC NEAR	; _STL::allocator<char>::allocate, COMDAT
; _this$ = ecx

; 355  :     return __n != 0 ? __REINTERPRET_CAST(value_type*,__sgi_alloc::allocate(__n * sizeof(value_type))) : 0;

  00000	33 c0		 xor	 eax, eax
  00002	39 44 24 04	 cmp	 DWORD PTR ___n$[esp-4], eax
  00006	74 0a		 je	 SHORT $L115003
  00008	ff 74 24 04	 push	 DWORD PTR ___n$[esp-4]
  0000c	e8 00 00 00 00	 call	 ?allocate@?$__node_alloc@$00$0A@@_STL@@SAPAXI@Z ; _STL::__node_alloc<1,0>::allocate
  00011	59		 pop	 ecx
$L115003:

; 356  :   }

  00012	c2 08 00	 ret	 8
?allocate@?$allocator@D@_STL@@QAEPADIPBX@Z ENDP		; _STL::allocator<char>::allocate
_TEXT	ENDS
PUBLIC	?rbegin@?$deque@PAVPacket@@V?$allocator@PAVPacket@@@_STL@@@_STL@@QAE?AV?$reverse_iterator@U?$_Deque_iterator@PAVPacket@@U?$_Nonconst_traits@PAVPacket@@@_STL@@@_STL@@@2@XZ ; _STL::deque<Packet *,_STL::allocator<Packet *> >::rbegin
; Function compile flags: /Ogsy
; File c:\stlport-4.6.1\stlport\stl\_deque.h
;	COMDAT ?rbegin@?$deque@PAVPacket@@V?$allocator@PAVPacket@@@_STL@@@_STL@@QAE?AV?$reverse_iterator@U?$_Deque_iterator@PAVPacket@@U?$_Nonconst_traits@PAVPacket@@@_STL@@@_STL@@@2@XZ
_TEXT	SEGMENT
___$ReturnUdt$ = 8					; size = 4
?rbegin@?$deque@PAVPacket@@V?$allocator@PAVPacket@@@_STL@@@_STL@@QAE?AV?$reverse_iterator@U?$_Deque_iterator@PAVPacket@@U?$_Nonconst_traits@PAVPacket@@@_STL@@@_STL@@@2@XZ PROC NEAR ; _STL::deque<Packet *,_STL::allocator<Packet *> >::rbegin, COMDAT
; _this$ = ecx

; 392  :   reverse_iterator rbegin() { return reverse_iterator(this->_M_finish); }

  00000	8b 44 24 04	 mov	 eax, DWORD PTR ___$ReturnUdt$[esp-4]
  00004	56		 push	 esi
  00005	57		 push	 edi
  00006	8d 71 10	 lea	 esi, DWORD PTR [ecx+16]
  00009	8b f8		 mov	 edi, eax
  0000b	a5		 movsd
  0000c	a5		 movsd
  0000d	a5		 movsd
  0000e	a5		 movsd
  0000f	5f		 pop	 edi
  00010	5e		 pop	 esi
  00011	c2 04 00	 ret	 4
?rbegin@?$deque@PAVPacket@@V?$allocator@PAVPacket@@@_STL@@@_STL@@QAE?AV?$reverse_iterator@U?$_Deque_iterator@PAVPacket@@U?$_Nonconst_traits@PAVPacket@@@_STL@@@_STL@@@2@XZ ENDP ; _STL::deque<Packet *,_STL::allocator<Packet *> >::rbegin
_TEXT	ENDS
PUBLIC	?rend@?$deque@PAVPacket@@V?$allocator@PAVPacket@@@_STL@@@_STL@@QAE?AV?$reverse_iterator@U?$_Deque_iterator@PAVPacket@@U?$_Nonconst_traits@PAVPacket@@@_STL@@@_STL@@@2@XZ ; _STL::deque<Packet *,_STL::allocator<Packet *> >::rend
; Function compile flags: /Ogsy
;	COMDAT ?rend@?$deque@PAVPacket@@V?$allocator@PAVPacket@@@_STL@@@_STL@@QAE?AV?$reverse_iterator@U?$_Deque_iterator@PAVPacket@@U?$_Nonconst_traits@PAVPacket@@@_STL@@@_STL@@@2@XZ
_TEXT	SEGMENT
___$ReturnUdt$ = 8					; size = 4
?rend@?$deque@PAVPacket@@V?$allocator@PAVPacket@@@_STL@@@_STL@@QAE?AV?$reverse_iterator@U?$_Deque_iterator@PAVPacket@@U?$_Nonconst_traits@PAVPacket@@@_STL@@@_STL@@@2@XZ PROC NEAR ; _STL::deque<Packet *,_STL::allocator<Packet *> >::rend, COMDAT
; _this$ = ecx

; 393  :   reverse_iterator rend() { return reverse_iterator(this->_M_start); }

  00000	8b 44 24 04	 mov	 eax, DWORD PTR ___$ReturnUdt$[esp-4]
  00004	56		 push	 esi
  00005	57		 push	 edi
  00006	8b f1		 mov	 esi, ecx
  00008	8b f8		 mov	 edi, eax
  0000a	a5		 movsd
  0000b	a5		 movsd
  0000c	a5		 movsd
  0000d	a5		 movsd
  0000e	5f		 pop	 edi
  0000f	5e		 pop	 esi
  00010	c2 04 00	 ret	 4
?rend@?$deque@PAVPacket@@V?$allocator@PAVPacket@@@_STL@@@_STL@@QAE?AV?$reverse_iterator@U?$_Deque_iterator@PAVPacket@@U?$_Nonconst_traits@PAVPacket@@@_STL@@@_STL@@@2@XZ ENDP ; _STL::deque<Packet *,_STL::allocator<Packet *> >::rend
_TEXT	ENDS
PUBLIC	?front@?$deque@PAVPacket@@V?$allocator@PAVPacket@@@_STL@@@_STL@@QAEAAPAVPacket@@XZ ; _STL::deque<Packet *,_STL::allocator<Packet *> >::front
; Function compile flags: /Ogsy
;	COMDAT ?front@?$deque@PAVPacket@@V?$allocator@PAVPacket@@@_STL@@@_STL@@QAEAAPAVPacket@@XZ
_TEXT	SEGMENT
?front@?$deque@PAVPacket@@V?$allocator@PAVPacket@@@_STL@@@_STL@@QAEAAPAVPacket@@XZ PROC NEAR ; _STL::deque<Packet *,_STL::allocator<Packet *> >::front, COMDAT
; _this$ = ecx

; 413  :   reference front() { return *this->_M_start; }

  00000	8b 01		 mov	 eax, DWORD PTR [ecx]
  00002	c3		 ret	 0
?front@?$deque@PAVPacket@@V?$allocator@PAVPacket@@@_STL@@@_STL@@QAEAAPAVPacket@@XZ ENDP ; _STL::deque<Packet *,_STL::allocator<Packet *> >::front
_TEXT	ENDS
PUBLIC	?empty@?$deque@PAVPacket@@V?$allocator@PAVPacket@@@_STL@@@_STL@@QBE_NXZ ; _STL::deque<Packet *,_STL::allocator<Packet *> >::empty
; Function compile flags: /Ogsy
;	COMDAT ?empty@?$deque@PAVPacket@@V?$allocator@PAVPacket@@@_STL@@@_STL@@QBE_NXZ
_TEXT	SEGMENT
?empty@?$deque@PAVPacket@@V?$allocator@PAVPacket@@@_STL@@@_STL@@QBE_NXZ PROC NEAR ; _STL::deque<Packet *,_STL::allocator<Packet *> >::empty, COMDAT
; _this$ = ecx

; 428  :   bool empty() const { return this->_M_finish == this->_M_start; }

  00000	8b 41 10	 mov	 eax, DWORD PTR [ecx+16]
  00003	2b 01		 sub	 eax, DWORD PTR [ecx]
  00005	f7 d8		 neg	 eax
  00007	1b c0		 sbb	 eax, eax
  00009	40		 inc	 eax
  0000a	c3		 ret	 0
?empty@?$deque@PAVPacket@@V?$allocator@PAVPacket@@@_STL@@@_STL@@QBE_NXZ ENDP ; _STL::deque<Packet *,_STL::allocator<Packet *> >::empty
_TEXT	ENDS
PUBLIC	??0?$_STLP_alloc_proxy@PADDV?$allocator@D@_STL@@@_STL@@QAE@ABV?$allocator@D@1@PAD@Z ; _STL::_STLP_alloc_proxy<char *,char,_STL::allocator<char> >::_STLP_alloc_proxy<char *,char,_STL::allocator<char> >
; Function compile flags: /Ogsy
; File c:\stlport-4.6.1\stlport\stl\_alloc.h
;	COMDAT ??0?$_STLP_alloc_proxy@PADDV?$allocator@D@_STL@@@_STL@@QAE@ABV?$allocator@D@1@PAD@Z
_TEXT	SEGMENT
___a$ = 8						; size = 4
___p$ = 12						; size = 4
??0?$_STLP_alloc_proxy@PADDV?$allocator@D@_STL@@@_STL@@QAE@ABV?$allocator@D@1@PAD@Z PROC NEAR ; _STL::_STLP_alloc_proxy<char *,char,_STL::allocator<char> >::_STLP_alloc_proxy<char *,char,_STL::allocator<char> >, COMDAT
; _this$ = ecx

; 487  :   inline _STLP_alloc_proxy(const _MaybeReboundAlloc& __a, _Value __p) : _MaybeReboundAlloc(__a), _M_data(__p) {}

  00000	8b c1		 mov	 eax, ecx
  00002	8b 4c 24 08	 mov	 ecx, DWORD PTR ___p$[esp-4]
  00006	89 08		 mov	 DWORD PTR [eax], ecx
  00008	c2 08 00	 ret	 8
??0?$_STLP_alloc_proxy@PADDV?$allocator@D@_STL@@@_STL@@QAE@ABV?$allocator@D@1@PAD@Z ENDP ; _STL::_STLP_alloc_proxy<char *,char,_STL::allocator<char> >::_STLP_alloc_proxy<char *,char,_STL::allocator<char> >
_TEXT	ENDS
PUBLIC	?get_allocator@?$_List_base@V?$basic_string@DV?$char_traits@D@_STL@@V?$allocator@D@2@@_STL@@V?$allocator@V?$basic_string@DV?$char_traits@D@_STL@@V?$allocator@D@2@@_STL@@@2@@_STL@@QBE?AV?$allocator@V?$basic_string@DV?$char_traits@D@_STL@@V?$allocator@D@2@@_STL@@@2@XZ ; _STL::_List_base<_STL::basic_string<char,_STL::char_traits<char>,_STL::allocator<char> >,_STL::allocator<_STL::basic_string<char,_STL::char_traits<char>,_STL::allocator<char> > > >::get_allocator
; Function compile flags: /Ogsy
; File c:\stlport-4.6.1\stlport\stl\_list.h
;	COMDAT ?get_allocator@?$_List_base@V?$basic_string@DV?$char_traits@D@_STL@@V?$allocator@D@2@@_STL@@V?$allocator@V?$basic_string@DV?$char_traits@D@_STL@@V?$allocator@D@2@@_STL@@@2@@_STL@@QBE?AV?$allocator@V?$basic_string@DV?$char_traits@D@_STL@@V?$allocator@D@2@@_STL@@@2@XZ
_TEXT	SEGMENT
___$ReturnUdt$ = 8					; size = 4
?get_allocator@?$_List_base@V?$basic_string@DV?$char_traits@D@_STL@@V?$allocator@D@2@@_STL@@V?$allocator@V?$basic_string@DV?$char_traits@D@_STL@@V?$allocator@D@2@@_STL@@@2@@_STL@@QBE?AV?$allocator@V?$basic_string@DV?$char_traits@D@_STL@@V?$allocator@D@2@@_STL@@@2@XZ PROC NEAR ; _STL::_List_base<_STL::basic_string<char,_STL::char_traits<char>,_STL::allocator<char> >,_STL::allocator<_STL::basic_string<char,_STL::char_traits<char>,_STL::allocator<char> > > >::get_allocator, COMDAT
; _this$ = ecx

; 179  :     return _STLP_CONVERT_ALLOCATOR((const _Node_allocator_type&)_M_node, _Tp);

  00000	8b 44 24 04	 mov	 eax, DWORD PTR ___$ReturnUdt$[esp-4]

; 180  :   }

  00004	c2 04 00	 ret	 4
?get_allocator@?$_List_base@V?$basic_string@DV?$char_traits@D@_STL@@V?$allocator@D@2@@_STL@@V?$allocator@V?$basic_string@DV?$char_traits@D@_STL@@V?$allocator@D@2@@_STL@@@2@@_STL@@QBE?AV?$allocator@V?$basic_string@DV?$char_traits@D@_STL@@V?$allocator@D@2@@_STL@@@2@XZ ENDP ; _STL::_List_base<_STL::basic_string<char,_STL::char_traits<char>,_STL::allocator<char> >,_STL::allocator<_STL::basic_string<char,_STL::char_traits<char>,_STL::allocator<char> > > >::get_allocator
_TEXT	ENDS
PUBLIC	??G?$_Deque_iterator@PAVPacket@@U?$_Nonconst_traits@PAVPacket@@@_STL@@@_STL@@QBEHABU01@@Z ; _STL::_Deque_iterator<Packet *,_STL::_Nonconst_traits<Packet *> >::operator-
; Function compile flags: /Ogsy
; File c:\stlport-4.6.1\stlport\stl\_deque.h
;	COMDAT ??G?$_Deque_iterator@PAVPacket@@U?$_Nonconst_traits@PAVPacket@@@_STL@@@_STL@@QBEHABU01@@Z
_TEXT	SEGMENT
___x$ = 8						; size = 4
??G?$_Deque_iterator@PAVPacket@@U?$_Nonconst_traits@PAVPacket@@@_STL@@@_STL@@QBEHABU01@@Z PROC NEAR ; _STL::_Deque_iterator<Packet *,_STL::_Nonconst_traits<Packet *> >::operator-, COMDAT
; _this$ = ecx

; 184  :   difference_type operator-(const _Self& __x) const { return this->_M_subtract(__x); }

  00000	e9 00 00 00 00	 jmp	 ?_M_subtract@?$_Deque_iterator_base@PAVPacket@@@_STL@@QBEHABU12@@Z ; _STL::_Deque_iterator_base<Packet *>::_M_subtract
??G?$_Deque_iterator@PAVPacket@@U?$_Nonconst_traits@PAVPacket@@@_STL@@@_STL@@QBEHABU01@@Z ENDP ; _STL::_Deque_iterator<Packet *,_STL::_Nonconst_traits<Packet *> >::operator-
_TEXT	ENDS
PUBLIC	??1?$_STLP_alloc_proxy@PAPAPAVPacket@@PAPAV1@V?$allocator@PAPAVPacket@@@_STL@@@_STL@@QAE@XZ ; _STL::_STLP_alloc_proxy<Packet * * *,Packet * *,_STL::allocator<Packet * *> >::~_STLP_alloc_proxy<Packet * * *,Packet * *,_STL::allocator<Packet * *> >
; Function compile flags: /Ogsy
;	COMDAT ??1?$_STLP_alloc_proxy@PAPAPAVPacket@@PAPAV1@V?$allocator@PAPAVPacket@@@_STL@@@_STL@@QAE@XZ
_TEXT	SEGMENT
??1?$_STLP_alloc_proxy@PAPAPAVPacket@@PAPAV1@V?$allocator@PAPAVPacket@@@_STL@@@_STL@@QAE@XZ PROC NEAR ; _STL::_STLP_alloc_proxy<Packet * * *,Packet * *,_STL::allocator<Packet * *> >::~_STLP_alloc_proxy<Packet * * *,Packet * *,_STL::allocator<Packet * *> >, COMDAT
; _this$ = ecx
  00000	c3		 ret	 0
??1?$_STLP_alloc_proxy@PAPAPAVPacket@@PAPAV1@V?$allocator@PAPAVPacket@@@_STL@@@_STL@@QAE@XZ ENDP ; _STL::_STLP_alloc_proxy<Packet * * *,Packet * *,_STL::allocator<Packet * *> >::~_STLP_alloc_proxy<Packet * * *,Packet * *,_STL::allocator<Packet * *> >
_TEXT	ENDS
PUBLIC	??0?$_Deque_iterator@PAVPacket@@U?$_Nonconst_traits@PAVPacket@@@_STL@@@_STL@@QAE@XZ ; _STL::_Deque_iterator<Packet *,_STL::_Nonconst_traits<Packet *> >::_Deque_iterator<Packet *,_STL::_Nonconst_traits<Packet *> >
; Function compile flags: /Ogsy
;	COMDAT ??0?$_Deque_iterator@PAVPacket@@U?$_Nonconst_traits@PAVPacket@@@_STL@@@_STL@@QAE@XZ
_TEXT	SEGMENT
??0?$_Deque_iterator@PAVPacket@@U?$_Nonconst_traits@PAVPacket@@@_STL@@@_STL@@QAE@XZ PROC NEAR ; _STL::_Deque_iterator<Packet *,_STL::_Nonconst_traits<Packet *> >::_Deque_iterator<Packet *,_STL::_Nonconst_traits<Packet *> >, COMDAT
; _this$ = ecx

; 174  :   _Deque_iterator() {}

  00000	8b c1		 mov	 eax, ecx
  00002	33 c9		 xor	 ecx, ecx
  00004	89 08		 mov	 DWORD PTR [eax], ecx
  00006	89 48 04	 mov	 DWORD PTR [eax+4], ecx
  00009	89 48 08	 mov	 DWORD PTR [eax+8], ecx
  0000c	89 48 0c	 mov	 DWORD PTR [eax+12], ecx
  0000f	c3		 ret	 0
??0?$_Deque_iterator@PAVPacket@@U?$_Nonconst_traits@PAVPacket@@@_STL@@@_STL@@QAE@XZ ENDP ; _STL::_Deque_iterator<Packet *,_STL::_Nonconst_traits<Packet *> >::_Deque_iterator<Packet *,_STL::_Nonconst_traits<Packet *> >
_TEXT	ENDS
PUBLIC	?_M_decrement@?$_Deque_iterator_base@PAVPacket@@@_STL@@QAEXXZ ; _STL::_Deque_iterator_base<Packet *>::_M_decrement
; Function compile flags: /Ogsy
;	COMDAT ?_M_decrement@?$_Deque_iterator_base@PAVPacket@@@_STL@@QAEXXZ
_TEXT	SEGMENT
?_M_decrement@?$_Deque_iterator_base@PAVPacket@@@_STL@@QAEXXZ PROC NEAR ; _STL::_Deque_iterator_base<Packet *>::_M_decrement, COMDAT
; _this$ = ecx

; 126  :     if (_M_cur == _M_first) {

  00000	8b 01		 mov	 eax, DWORD PTR [ecx]
  00002	3b 41 04	 cmp	 eax, DWORD PTR [ecx+4]
  00005	75 18		 jne	 SHORT $L112398

; 127  :       _M_set_node(_M_node - 1);

  00007	8b 41 0c	 mov	 eax, DWORD PTR [ecx+12]
  0000a	83 e8 04	 sub	 eax, 4
  0000d	89 41 0c	 mov	 DWORD PTR [ecx+12], eax
  00010	8b 00		 mov	 eax, DWORD PTR [eax]
  00012	89 41 04	 mov	 DWORD PTR [ecx+4], eax
  00015	05 80 00 00 00	 add	 eax, 128		; 00000080H
  0001a	89 41 08	 mov	 DWORD PTR [ecx+8], eax

; 128  :       _M_cur = _M_last;

  0001d	89 01		 mov	 DWORD PTR [ecx], eax
$L112398:

; 129  :     }
; 130  :     --_M_cur;

  0001f	83 01 fc	 add	 DWORD PTR [ecx], -4	; fffffffcH

; 131  :   }

  00022	c3		 ret	 0
?_M_decrement@?$_Deque_iterator_base@PAVPacket@@@_STL@@QAEXXZ ENDP ; _STL::_Deque_iterator_base<Packet *>::_M_decrement
_TEXT	ENDS
PUBLIC	??0?$_STLP_alloc_proxy@PAPAPAVPacket@@PAPAV1@V?$allocator@PAPAVPacket@@@_STL@@@_STL@@QAE@ABV?$allocator@PAPAVPacket@@@1@PAPAPAVPacket@@@Z ; _STL::_STLP_alloc_proxy<Packet * * *,Packet * *,_STL::allocator<Packet * *> >::_STLP_alloc_proxy<Packet * * *,Packet * *,_STL::allocator<Packet * *> >
; Function compile flags: /Ogsy
; File c:\stlport-4.6.1\stlport\stl\_alloc.h
;	COMDAT ??0?$_STLP_alloc_proxy@PAPAPAVPacket@@PAPAV1@V?$allocator@PAPAVPacket@@@_STL@@@_STL@@QAE@ABV?$allocator@PAPAVPacket@@@1@PAPAPAVPacket@@@Z
_TEXT	SEGMENT
___a$ = 8						; size = 4
___p$ = 12						; size = 4
??0?$_STLP_alloc_proxy@PAPAPAVPacket@@PAPAV1@V?$allocator@PAPAVPacket@@@_STL@@@_STL@@QAE@ABV?$allocator@PAPAVPacket@@@1@PAPAPAVPacket@@@Z PROC NEAR ; _STL::_STLP_alloc_proxy<Packet * * *,Packet * *,_STL::allocator<Packet * *> >::_STLP_alloc_proxy<Packet * * *,Packet * *,_STL::allocator<Packet * *> >, COMDAT
; _this$ = ecx

; 487  :   inline _STLP_alloc_proxy(const _MaybeReboundAlloc& __a, _Value __p) : _MaybeReboundAlloc(__a), _M_data(__p) {}

  00000	8b c1		 mov	 eax, ecx
  00002	8b 4c 24 08	 mov	 ecx, DWORD PTR ___p$[esp-4]
  00006	89 08		 mov	 DWORD PTR [eax], ecx
  00008	c2 08 00	 ret	 8
??0?$_STLP_alloc_proxy@PAPAPAVPacket@@PAPAV1@V?$allocator@PAPAVPacket@@@_STL@@@_STL@@QAE@ABV?$allocator@PAPAVPacket@@@1@PAPAPAVPacket@@@Z ENDP ; _STL::_STLP_alloc_proxy<Packet * * *,Packet * *,_STL::allocator<Packet * *> >::_STLP_alloc_proxy<Packet * * *,Packet * *,_STL::allocator<Packet * *> >
_TEXT	ENDS
PUBLIC	??0?$_STLP_alloc_proxy@IPAVPacket@@V?$allocator@PAVPacket@@@_STL@@@_STL@@QAE@ABV?$allocator@PAVPacket@@@1@I@Z ; _STL::_STLP_alloc_proxy<unsigned int,Packet *,_STL::allocator<Packet *> >::_STLP_alloc_proxy<unsigned int,Packet *,_STL::allocator<Packet *> >
; Function compile flags: /Ogsy
;	COMDAT ??0?$_STLP_alloc_proxy@IPAVPacket@@V?$allocator@PAVPacket@@@_STL@@@_STL@@QAE@ABV?$allocator@PAVPacket@@@1@I@Z
_TEXT	SEGMENT
___a$ = 8						; size = 4
___p$ = 12						; size = 4
??0?$_STLP_alloc_proxy@IPAVPacket@@V?$allocator@PAVPacket@@@_STL@@@_STL@@QAE@ABV?$allocator@PAVPacket@@@1@I@Z PROC NEAR ; _STL::_STLP_alloc_proxy<unsigned int,Packet *,_STL::allocator<Packet *> >::_STLP_alloc_proxy<unsigned int,Packet *,_STL::allocator<Packet *> >, COMDAT
; _this$ = ecx

; 487  :   inline _STLP_alloc_proxy(const _MaybeReboundAlloc& __a, _Value __p) : _MaybeReboundAlloc(__a), _M_data(__p) {}

  00000	8b c1		 mov	 eax, ecx
  00002	8b 4c 24 08	 mov	 ecx, DWORD PTR ___p$[esp-4]
  00006	89 08		 mov	 DWORD PTR [eax], ecx
  00008	c2 08 00	 ret	 8
??0?$_STLP_alloc_proxy@IPAVPacket@@V?$allocator@PAVPacket@@@_STL@@@_STL@@QAE@ABV?$allocator@PAVPacket@@@1@I@Z ENDP ; _STL::_STLP_alloc_proxy<unsigned int,Packet *,_STL::allocator<Packet *> >::_STLP_alloc_proxy<unsigned int,Packet *,_STL::allocator<Packet *> >
_TEXT	ENDS
PUBLIC	??Y?$_Deque_iterator@PAVPacket@@U?$_Nonconst_traits@PAVPacket@@@_STL@@@_STL@@QAEAAU01@H@Z ; _STL::_Deque_iterator<Packet *,_STL::_Nonconst_traits<Packet *> >::operator+=
; Function compile flags: /Ogsy
; File c:\stlport-4.6.1\stlport\stl\_deque.h
;	COMDAT ??Y?$_Deque_iterator@PAVPacket@@U?$_Nonconst_traits@PAVPacket@@@_STL@@@_STL@@QAEAAU01@H@Z
_TEXT	SEGMENT
___n$ = 8						; size = 4
??Y?$_Deque_iterator@PAVPacket@@U?$_Nonconst_traits@PAVPacket@@@_STL@@@_STL@@QAEAAU01@H@Z PROC NEAR ; _STL::_Deque_iterator<Packet *,_STL::_Nonconst_traits<Packet *> >::operator+=, COMDAT
; _this$ = ecx

; 200  :   _Self& operator+=(difference_type __n) { this->_M_advance(__n); return *this; }

  00000	56		 push	 esi
  00001	ff 74 24 08	 push	 DWORD PTR ___n$[esp]
  00005	8b f1		 mov	 esi, ecx
  00007	e8 00 00 00 00	 call	 ?_M_advance@?$_Deque_iterator_base@PAVPacket@@@_STL@@QAEXH@Z ; _STL::_Deque_iterator_base<Packet *>::_M_advance
  0000c	8b c6		 mov	 eax, esi
  0000e	5e		 pop	 esi
  0000f	c2 04 00	 ret	 4
??Y?$_Deque_iterator@PAVPacket@@U?$_Nonconst_traits@PAVPacket@@@_STL@@@_STL@@QAEAAU01@H@Z ENDP ; _STL::_Deque_iterator<Packet *,_STL::_Nonconst_traits<Packet *> >::operator+=
_TEXT	ENDS
PUBLIC	?allocate@?$allocator@PAVPacket@@@_STL@@QAEPAPAVPacket@@IPBX@Z ; _STL::allocator<Packet *>::allocate
; Function compile flags: /Ogsy
; File c:\stlport-4.6.1\stlport\stl\_alloc.h
;	COMDAT ?allocate@?$allocator@PAVPacket@@@_STL@@QAEPAPAVPacket@@IPBX@Z
_TEXT	SEGMENT
___n$ = 8						; size = 4
___formal$ = 12						; size = 4
?allocate@?$allocator@PAVPacket@@@_STL@@QAEPAPAVPacket@@IPBX@Z PROC NEAR ; _STL::allocator<Packet *>::allocate, COMDAT
; _this$ = ecx

; 355  :     return __n != 0 ? __REINTERPRET_CAST(value_type*,__sgi_alloc::allocate(__n * sizeof(value_type))) : 0;

  00000	8b 44 24 04	 mov	 eax, DWORD PTR ___n$[esp-4]
  00004	85 c0		 test	 eax, eax
  00006	74 0c		 je	 SHORT $L115092
  00008	c1 e0 02	 shl	 eax, 2
  0000b	50		 push	 eax
  0000c	e8 00 00 00 00	 call	 ?allocate@?$__node_alloc@$00$0A@@_STL@@SAPAXI@Z ; _STL::__node_alloc<1,0>::allocate
  00011	59		 pop	 ecx
  00012	eb 02		 jmp	 SHORT $L115093
$L115092:
  00014	33 c0		 xor	 eax, eax
$L115093:

; 356  :   }

  00016	c2 08 00	 ret	 8
?allocate@?$allocator@PAVPacket@@@_STL@@QAEPAPAVPacket@@IPBX@Z ENDP ; _STL::allocator<Packet *>::allocate
_TEXT	ENDS
PUBLIC	?deallocate@?$allocator@PAVPacket@@@_STL@@QAEXPAPAVPacket@@I@Z ; _STL::allocator<Packet *>::deallocate
; Function compile flags: /Ogsy
;	COMDAT ?deallocate@?$allocator@PAVPacket@@@_STL@@QAEXPAPAVPacket@@I@Z
_TEXT	SEGMENT
___p$ = 8						; size = 4
___n$ = 12						; size = 4
?deallocate@?$allocator@PAVPacket@@@_STL@@QAEXPAPAVPacket@@I@Z PROC NEAR ; _STL::allocator<Packet *>::deallocate, COMDAT
; _this$ = ecx

; 359  :     _STLP_ASSERT( (__p == 0) == (__n == 0) )
; 360  :       if (__p != 0) __sgi_alloc::deallocate((void*)__p, __n * sizeof(value_type));

  00000	83 7c 24 04 00	 cmp	 DWORD PTR ___p$[esp-4], 0
  00005	74 13		 je	 SHORT $L113055
  00007	8b 44 24 08	 mov	 eax, DWORD PTR ___n$[esp-4]
  0000b	c1 e0 02	 shl	 eax, 2
  0000e	50		 push	 eax
  0000f	ff 74 24 08	 push	 DWORD PTR ___p$[esp]
  00013	e8 00 00 00 00	 call	 ?deallocate@?$__node_alloc@$00$0A@@_STL@@SAXPAXI@Z ; _STL::__node_alloc<1,0>::deallocate
  00018	59		 pop	 ecx
  00019	59		 pop	 ecx
$L113055:

; 361  :   }

  0001a	c2 08 00	 ret	 8
?deallocate@?$allocator@PAVPacket@@@_STL@@QAEXPAPAVPacket@@I@Z ENDP ; _STL::allocator<Packet *>::deallocate
_TEXT	ENDS
PUBLIC	?allocate@?$allocator@PAPAVPacket@@@_STL@@QAEPAPAPAVPacket@@IPBX@Z ; _STL::allocator<Packet * *>::allocate
; Function compile flags: /Ogsy
;	COMDAT ?allocate@?$allocator@PAPAVPacket@@@_STL@@QAEPAPAPAVPacket@@IPBX@Z
_TEXT	SEGMENT
___n$ = 8						; size = 4
___formal$ = 12						; size = 4
?allocate@?$allocator@PAPAVPacket@@@_STL@@QAEPAPAPAVPacket@@IPBX@Z PROC NEAR ; _STL::allocator<Packet * *>::allocate, COMDAT
; _this$ = ecx

; 355  :     return __n != 0 ? __REINTERPRET_CAST(value_type*,__sgi_alloc::allocate(__n * sizeof(value_type))) : 0;

  00000	8b 44 24 04	 mov	 eax, DWORD PTR ___n$[esp-4]
  00004	85 c0		 test	 eax, eax
  00006	74 0c		 je	 SHORT $L115100
  00008	c1 e0 02	 shl	 eax, 2
  0000b	50		 push	 eax
  0000c	e8 00 00 00 00	 call	 ?allocate@?$__node_alloc@$00$0A@@_STL@@SAPAXI@Z ; _STL::__node_alloc<1,0>::allocate
  00011	59		 pop	 ecx
  00012	eb 02		 jmp	 SHORT $L115101
$L115100:
  00014	33 c0		 xor	 eax, eax
$L115101:

; 356  :   }

  00016	c2 08 00	 ret	 8
?allocate@?$allocator@PAPAVPacket@@@_STL@@QAEPAPAPAVPacket@@IPBX@Z ENDP ; _STL::allocator<Packet * *>::allocate
_TEXT	ENDS
PUBLIC	?deallocate@?$allocator@PAPAVPacket@@@_STL@@QAEXPAPAPAVPacket@@I@Z ; _STL::allocator<Packet * *>::deallocate
; Function compile flags: /Ogsy
;	COMDAT ?deallocate@?$allocator@PAPAVPacket@@@_STL@@QAEXPAPAPAVPacket@@I@Z
_TEXT	SEGMENT
___p$ = 8						; size = 4
___n$ = 12						; size = 4
?deallocate@?$allocator@PAPAVPacket@@@_STL@@QAEXPAPAPAVPacket@@I@Z PROC NEAR ; _STL::allocator<Packet * *>::deallocate, COMDAT
; _this$ = ecx

; 359  :     _STLP_ASSERT( (__p == 0) == (__n == 0) )
; 360  :       if (__p != 0) __sgi_alloc::deallocate((void*)__p, __n * sizeof(value_type));

  00000	83 7c 24 04 00	 cmp	 DWORD PTR ___p$[esp-4], 0
  00005	74 13		 je	 SHORT $L113064
  00007	8b 44 24 08	 mov	 eax, DWORD PTR ___n$[esp-4]
  0000b	c1 e0 02	 shl	 eax, 2
  0000e	50		 push	 eax
  0000f	ff 74 24 08	 push	 DWORD PTR ___p$[esp]
  00013	e8 00 00 00 00	 call	 ?deallocate@?$__node_alloc@$00$0A@@_STL@@SAXPAXI@Z ; _STL::__node_alloc<1,0>::deallocate
  00018	59		 pop	 ecx
  00019	59		 pop	 ecx
$L113064:

; 361  :   }

  0001a	c2 08 00	 ret	 8
?deallocate@?$allocator@PAPAVPacket@@@_STL@@QAEXPAPAPAVPacket@@I@Z ENDP ; _STL::allocator<Packet * *>::deallocate
_TEXT	ENDS
PUBLIC	?_M_destroy_nodes@?$_Deque_base@PAVPacket@@V?$allocator@PAVPacket@@@_STL@@@_STL@@IAEXPAPAPAVPacket@@0@Z ; _STL::_Deque_base<Packet *,_STL::allocator<Packet *> >::_M_destroy_nodes
; Function compile flags: /Ogsy
; File c:\stlport-4.6.1\stlport\stl\_deque.c
;	COMDAT ?_M_destroy_nodes@?$_Deque_base@PAVPacket@@V?$allocator@PAVPacket@@@_STL@@@_STL@@IAEXPAPAPAVPacket@@0@Z
_TEXT	SEGMENT
___nstart$ = 8						; size = 4
___nfinish$ = 12					; size = 4
?_M_destroy_nodes@?$_Deque_base@PAVPacket@@V?$allocator@PAVPacket@@@_STL@@@_STL@@IAEXPAPAPAVPacket@@0@Z PROC NEAR ; _STL::_Deque_base<Packet *,_STL::allocator<Packet *> >::_M_destroy_nodes, COMDAT
; _this$ = ecx

; 87   : {

  00000	56		 push	 esi

; 88   :   for (_Tp** __n = __nstart; __n < __nfinish; ++__n)

  00001	8b 74 24 08	 mov	 esi, DWORD PTR ___nstart$[esp]
  00005	3b 74 24 0c	 cmp	 esi, DWORD PTR ___nfinish$[esp]
  00009	73 19		 jae	 SHORT $L113298
  0000b	57		 push	 edi
  0000c	8d 79 24	 lea	 edi, DWORD PTR [ecx+36]
$L113296:

; 89   :     _M_map_size.deallocate(*__n, this->buffer_size());

  0000f	6a 20		 push	 32			; 00000020H
  00011	ff 36		 push	 DWORD PTR [esi]
  00013	8b cf		 mov	 ecx, edi
  00015	e8 00 00 00 00	 call	 ?deallocate@?$allocator@PAVPacket@@@_STL@@QAEXPAPAVPacket@@I@Z ; _STL::allocator<Packet *>::deallocate
  0001a	83 c6 04	 add	 esi, 4
  0001d	3b 74 24 10	 cmp	 esi, DWORD PTR ___nfinish$[esp+4]
  00021	72 ec		 jb	 SHORT $L113296
  00023	5f		 pop	 edi
$L113298:
  00024	5e		 pop	 esi

; 90   : }

  00025	c2 08 00	 ret	 8
?_M_destroy_nodes@?$_Deque_base@PAVPacket@@V?$allocator@PAVPacket@@@_STL@@@_STL@@IAEXPAPAPAVPacket@@0@Z ENDP ; _STL::_Deque_base<Packet *,_STL::allocator<Packet *> >::_M_destroy_nodes
_TEXT	ENDS
PUBLIC	??$?8U?$_Deque_iterator@PAVPacket@@U?$_Nonconst_traits@PAVPacket@@@_STL@@@_STL@@@_STL@@YA_NABV?$reverse_iterator@U?$_Deque_iterator@PAVPacket@@U?$_Nonconst_traits@PAVPacket@@@_STL@@@_STL@@@0@0@Z ; _STL::operator==<_STL::_Deque_iterator<Packet *,_STL::_Nonconst_traits<Packet *> > >
; Function compile flags: /Ogsy
; File c:\stlport-4.6.1\stlport\stl\_iterator.h
;	COMDAT ??$?8U?$_Deque_iterator@PAVPacket@@U?$_Nonconst_traits@PAVPacket@@@_STL@@@_STL@@@_STL@@YA_NABV?$reverse_iterator@U?$_Deque_iterator@PAVPacket@@U?$_Nonconst_traits@PAVPacket@@@_STL@@@_STL@@@0@0@Z
_TEXT	SEGMENT
$T115116 = -32						; size = 16
$T115117 = -16						; size = 16
___x$ = 8						; size = 4
___y$ = 12						; size = 4
??$?8U?$_Deque_iterator@PAVPacket@@U?$_Nonconst_traits@PAVPacket@@@_STL@@@_STL@@@_STL@@YA_NABV?$reverse_iterator@U?$_Deque_iterator@PAVPacket@@U?$_Nonconst_traits@PAVPacket@@@_STL@@@_STL@@@0@0@Z PROC NEAR ; _STL::operator==<_STL::_Deque_iterator<Packet *,_STL::_Nonconst_traits<Packet *> > >, COMDAT

; 120  :                        const reverse_iterator<_Iterator>& __y) {

  00000	55		 push	 ebp
  00001	8b ec		 mov	 ebp, esp
  00003	83 ec 20	 sub	 esp, 32			; 00000020H
  00006	56		 push	 esi

; 121  :   return __x.base() == __y.base();

  00007	8b 75 0c	 mov	 esi, DWORD PTR ___y$[ebp]
  0000a	57		 push	 edi
  0000b	8d 7d e0	 lea	 edi, DWORD PTR $T115116[ebp]
  0000e	a5		 movsd
  0000f	a5		 movsd
  00010	a5		 movsd
  00011	a5		 movsd
  00012	8b 75 08	 mov	 esi, DWORD PTR ___x$[ebp]
  00015	8d 7d f0	 lea	 edi, DWORD PTR $T115117[ebp]
  00018	a5		 movsd
  00019	a5		 movsd
  0001a	a5		 movsd
  0001b	a5		 movsd
  0001c	8b 4d f0	 mov	 ecx, DWORD PTR $T115117[ebp]
  0001f	33 c0		 xor	 eax, eax
  00021	3b 4d e0	 cmp	 ecx, DWORD PTR $T115116[ebp]
  00024	5f		 pop	 edi
  00025	0f 94 c0	 sete	 al
  00028	5e		 pop	 esi

; 122  : }

  00029	c9		 leave
  0002a	c3		 ret	 0
??$?8U?$_Deque_iterator@PAVPacket@@U?$_Nonconst_traits@PAVPacket@@@_STL@@@_STL@@@_STL@@YA_NABV?$reverse_iterator@U?$_Deque_iterator@PAVPacket@@U?$_Nonconst_traits@PAVPacket@@@_STL@@@_STL@@@0@0@Z ENDP ; _STL::operator==<_STL::_Deque_iterator<Packet *,_STL::_Nonconst_traits<Packet *> > >
_TEXT	ENDS
PUBLIC	??$__destroy@U?$_Deque_iterator@PAVPacket@@U?$_Nonconst_traits@PAVPacket@@@_STL@@@_STL@@PAVPacket@@@_STL@@YAXU?$_Deque_iterator@PAVPacket@@U?$_Nonconst_traits@PAVPacket@@@_STL@@@0@0PAPAVPacket@@@Z ; _STL::__destroy<_STL::_Deque_iterator<Packet *,_STL::_Nonconst_traits<Packet *> >,Packet *>
; Function compile flags: /Ogsy
; File c:\stlport-4.6.1\stlport\stl\_construct.h
;	COMDAT ??$__destroy@U?$_Deque_iterator@PAVPacket@@U?$_Nonconst_traits@PAVPacket@@@_STL@@@_STL@@PAVPacket@@@_STL@@YAXU?$_Deque_iterator@PAVPacket@@U?$_Nonconst_traits@PAVPacket@@@_STL@@@0@0PAPAVPacket@@@Z
_TEXT	SEGMENT
___first$ = 8						; size = 16
___last$ = 24						; size = 16
___formal$ = 40						; size = 4
??$__destroy@U?$_Deque_iterator@PAVPacket@@U?$_Nonconst_traits@PAVPacket@@@_STL@@@_STL@@PAVPacket@@@_STL@@YAXU?$_Deque_iterator@PAVPacket@@U?$_Nonconst_traits@PAVPacket@@@_STL@@@0@0PAPAVPacket@@@Z PROC NEAR ; _STL::__destroy<_STL::_Deque_iterator<Packet *,_STL::_Nonconst_traits<Packet *> >,Packet *>, COMDAT

; 133  :   typedef typename __type_traits<_Tp>::has_trivial_destructor _Trivial_destructor;
; 134  :   __destroy_aux(__first, __last, _Trivial_destructor());
; 135  : }

  00000	c3		 ret	 0
??$__destroy@U?$_Deque_iterator@PAVPacket@@U?$_Nonconst_traits@PAVPacket@@@_STL@@@_STL@@PAVPacket@@@_STL@@YAXU?$_Deque_iterator@PAVPacket@@U?$_Nonconst_traits@PAVPacket@@@_STL@@@0@0PAPAVPacket@@@Z ENDP ; _STL::__destroy<_STL::_Deque_iterator<Packet *,_STL::_Nonconst_traits<Packet *> >,Packet *>
_TEXT	ENDS
PUBLIC	??$distance@PBD@_STL@@YAHABQBD0@Z		; _STL::distance<char const *>
; Function compile flags: /Ogsy
; File c:\stlport-4.6.1\stlport\stl\_iterator_base.h
;	COMDAT ??$distance@PBD@_STL@@YAHABQBD0@Z
_TEXT	SEGMENT
___first$ = 8						; size = 4
___last$ = 12						; size = 4
??$distance@PBD@_STL@@YAHABQBD0@Z PROC NEAR		; _STL::distance<char const *>, COMDAT

; 369  :   return __distance(__first, __last, _STLP_ITERATOR_CATEGORY(__first, _InputIterator));  

  00000	8b 44 24 08	 mov	 eax, DWORD PTR ___last$[esp-4]
  00004	8b 00		 mov	 eax, DWORD PTR [eax]
  00006	8b 4c 24 04	 mov	 ecx, DWORD PTR ___first$[esp-4]
  0000a	2b 01		 sub	 eax, DWORD PTR [ecx]

; 370  : }

  0000c	c3		 ret	 0
??$distance@PBD@_STL@@YAHABQBD0@Z ENDP			; _STL::distance<char const *>
_TEXT	ENDS
PUBLIC	?_M_allocate_block@?$_String_base@DV?$allocator@D@_STL@@@_STL@@QAEXI@Z ; _STL::_String_base<char,_STL::allocator<char> >::_M_allocate_block
; Function compile flags: /Ogsy
; File c:\stlport-4.6.1\stlport\stl\_string.c
;	COMDAT ?_M_allocate_block@?$_String_base@DV?$allocator@D@_STL@@@_STL@@QAEXI@Z
_TEXT	SEGMENT
___n$ = 8						; size = 4
?_M_allocate_block@?$_String_base@DV?$allocator@D@_STL@@@_STL@@QAEXI@Z PROC NEAR ; _STL::_String_base<char,_STL::allocator<char> >::_M_allocate_block, COMDAT
; _this$ = ecx

; 530  : template <class _Tp, class _Alloc> void _String_base<_Tp, _Alloc>::_M_allocate_block(size_t __n) {  

  00000	56		 push	 esi
  00001	57		 push	 edi

; 531  :   if ((__n <= (max_size()+1)) && (__n>0)){ 

  00002	8b 7c 24 0c	 mov	 edi, DWORD PTR ___n$[esp+4]
  00006	83 ff ff	 cmp	 edi, -1
  00009	8b f1		 mov	 esi, ecx
  0000b	77 17		 ja	 SHORT $L113520
  0000d	85 ff		 test	 edi, edi
  0000f	76 13		 jbe	 SHORT $L113520

; 532  :     _M_start  = _M_end_of_storage.allocate(__n); 

  00011	57		 push	 edi
  00012	e8 00 00 00 00	 call	 ?allocate@?$__node_alloc@$00$0A@@_STL@@SAPAXI@Z ; _STL::__node_alloc<1,0>::allocate
  00017	89 06		 mov	 DWORD PTR [esi], eax

; 533  :     _M_finish = _M_start; 

  00019	89 46 04	 mov	 DWORD PTR [esi+4], eax

; 534  :     _M_end_of_storage._M_data = _M_start + __n; 

  0001c	03 c7		 add	 eax, edi
  0001e	59		 pop	 ecx
  0001f	89 46 08	 mov	 DWORD PTR [esi+8], eax

; 535  :   } 
; 536  :     else 

  00022	eb 07		 jmp	 SHORT $L113521
$L113520:

; 537  :       _M_throw_length_error(); 

  00024	8b ce		 mov	 ecx, esi
  00026	e8 00 00 00 00	 call	 ?_M_throw_length_error@?$_String_base@DV?$allocator@D@_STL@@@_STL@@QBEXXZ ; _STL::_String_base<char,_STL::allocator<char> >::_M_throw_length_error
$L113521:
  0002b	5f		 pop	 edi
  0002c	5e		 pop	 esi

; 538  : } 

  0002d	c2 04 00	 ret	 4
?_M_allocate_block@?$_String_base@DV?$allocator@D@_STL@@@_STL@@QAEXI@Z ENDP ; _STL::_String_base<char,_STL::allocator<char> >::_M_allocate_block
_TEXT	ENDS
PUBLIC	??$distance@PAD@_STL@@YAHABQAD0@Z		; _STL::distance<char *>
; Function compile flags: /Ogsy
; File c:\stlport-4.6.1\stlport\stl\_iterator_base.h
;	COMDAT ??$distance@PAD@_STL@@YAHABQAD0@Z
_TEXT	SEGMENT
___first$ = 8						; size = 4
___last$ = 12						; size = 4
??$distance@PAD@_STL@@YAHABQAD0@Z PROC NEAR		; _STL::distance<char *>, COMDAT

; 369  :   return __distance(__first, __last, _STLP_ITERATOR_CATEGORY(__first, _InputIterator));  

  00000	8b 44 24 08	 mov	 eax, DWORD PTR ___last$[esp-4]
  00004	8b 00		 mov	 eax, DWORD PTR [eax]
  00006	8b 4c 24 04	 mov	 ecx, DWORD PTR ___first$[esp-4]
  0000a	2b 01		 sub	 eax, DWORD PTR [ecx]

; 370  : }

  0000c	c3		 ret	 0
??$distance@PAD@_STL@@YAHABQAD0@Z ENDP			; _STL::distance<char *>
_TEXT	ENDS
PUBLIC	??$__copy_aux@PAPAPAVPacket@@PAPAPAV1@@_STL@@YAPAPAPAVPacket@@PAPAPAV1@00ABU__true_type@0@@Z ; _STL::__copy_aux<Packet * * *,Packet * * *>
; Function compile flags: /Ogsy
; File c:\stlport-4.6.1\stlport\stl\_algobase.h
;	COMDAT ??$__copy_aux@PAPAPAVPacket@@PAPAPAV1@@_STL@@YAPAPAPAVPacket@@PAPAPAV1@00ABU__true_type@0@@Z
_TEXT	SEGMENT
___first$ = 8						; size = 4
___last$ = 12						; size = 4
___result$ = 16						; size = 4
___formal$ = 20						; size = 4
??$__copy_aux@PAPAPAVPacket@@PAPAPAV1@@_STL@@YAPAPAPAVPacket@@PAPAPAV1@00ABU__true_type@0@@Z PROC NEAR ; _STL::__copy_aux<Packet * * *,Packet * * *>, COMDAT

; 202  :   return __copy_ptrs(__first, __last, __result, 
; 203  :                      _IsOKToMemCpy(_STLP_VALUE_TYPE(__first, _InputIter), 
; 204  :                                    _STLP_VALUE_TYPE(__result, _OutputIter))._Ret());

  00000	ff 74 24 0c	 push	 DWORD PTR ___result$[esp-4]
  00004	ff 74 24 0c	 push	 DWORD PTR ___last$[esp]
  00008	ff 74 24 0c	 push	 DWORD PTR ___first$[esp+4]
  0000c	e8 00 00 00 00	 call	 ?__copy_trivial@_STL@@YAPAXPBX0PAX@Z ; _STL::__copy_trivial
  00011	83 c4 0c	 add	 esp, 12			; 0000000cH

; 205  : }

  00014	c3		 ret	 0
??$__copy_aux@PAPAPAVPacket@@PAPAPAV1@@_STL@@YAPAPAPAVPacket@@PAPAPAV1@00ABU__true_type@0@@Z ENDP ; _STL::__copy_aux<Packet * * *,Packet * * *>
_TEXT	ENDS
PUBLIC	??$__copy_backward_aux@PAPAPAVPacket@@PAPAPAV1@@_STL@@YAPAPAPAVPacket@@PAPAPAV1@00ABU__true_type@0@@Z ; _STL::__copy_backward_aux<Packet * * *,Packet * * *>
; Function compile flags: /Ogsy
;	COMDAT ??$__copy_backward_aux@PAPAPAVPacket@@PAPAPAV1@@_STL@@YAPAPAPAVPacket@@PAPAPAV1@00ABU__true_type@0@@Z
_TEXT	SEGMENT
___first$ = 8						; size = 4
___last$ = 12						; size = 4
___result$ = 16						; size = 4
___formal$ = 20						; size = 4
??$__copy_backward_aux@PAPAPAVPacket@@PAPAPAV1@@_STL@@YAPAPAPAVPacket@@PAPAPAV1@00ABU__true_type@0@@Z PROC NEAR ; _STL::__copy_backward_aux<Packet * * *,Packet * * *>, COMDAT

; 235  :   return __copy_backward_ptrs(__first, __last, __result,  
; 236  :                               _IsOKToMemCpy(_STLP_VALUE_TYPE(__first, _InputIter), 
; 237  :                                             _STLP_VALUE_TYPE(__result, _OutputIter))._Ret());

  00000	ff 74 24 0c	 push	 DWORD PTR ___result$[esp-4]
  00004	ff 74 24 0c	 push	 DWORD PTR ___last$[esp]
  00008	ff 74 24 0c	 push	 DWORD PTR ___first$[esp+4]
  0000c	e8 00 00 00 00	 call	 ?__copy_trivial_backward@_STL@@YAPAXPBX0PAX@Z ; _STL::__copy_trivial_backward
  00011	83 c4 0c	 add	 esp, 12			; 0000000cH

; 238  : }

  00014	c3		 ret	 0
??$__copy_backward_aux@PAPAPAVPacket@@PAPAPAV1@@_STL@@YAPAPAPAVPacket@@PAPAPAV1@00ABU__true_type@0@@Z ENDP ; _STL::__copy_backward_aux<Packet * * *,Packet * * *>
_TEXT	ENDS
PUBLIC	??$__copy_aux@PADPAD@_STL@@YAPADPAD00ABU__true_type@0@@Z ; _STL::__copy_aux<char *,char *>
; Function compile flags: /Ogsy
;	COMDAT ??$__copy_aux@PADPAD@_STL@@YAPADPAD00ABU__true_type@0@@Z
_TEXT	SEGMENT
___first$ = 8						; size = 4
___last$ = 12						; size = 4
___result$ = 16						; size = 4
___formal$ = 20						; size = 4
??$__copy_aux@PADPAD@_STL@@YAPADPAD00ABU__true_type@0@@Z PROC NEAR ; _STL::__copy_aux<char *,char *>, COMDAT

; 202  :   return __copy_ptrs(__first, __last, __result, 
; 203  :                      _IsOKToMemCpy(_STLP_VALUE_TYPE(__first, _InputIter), 
; 204  :                                    _STLP_VALUE_TYPE(__result, _OutputIter))._Ret());

  00000	ff 74 24 0c	 push	 DWORD PTR ___result$[esp-4]
  00004	ff 74 24 0c	 push	 DWORD PTR ___last$[esp]
  00008	ff 74 24 0c	 push	 DWORD PTR ___first$[esp+4]
  0000c	e8 00 00 00 00	 call	 ?__copy_trivial@_STL@@YAPAXPBX0PAX@Z ; _STL::__copy_trivial
  00011	83 c4 0c	 add	 esp, 12			; 0000000cH

; 205  : }

  00014	c3		 ret	 0
??$__copy_aux@PADPAD@_STL@@YAPADPAD00ABU__true_type@0@@Z ENDP ; _STL::__copy_aux<char *,char *>
_TEXT	ENDS
PUBLIC	?begin@?$list@V?$basic_string@DV?$char_traits@D@_STL@@V?$allocator@D@2@@_STL@@V?$allocator@V?$basic_string@DV?$char_traits@D@_STL@@V?$allocator@D@2@@_STL@@@2@@_STL@@QBE?AU?$_List_iterator@V?$basic_string@DV?$char_traits@D@_STL@@V?$allocator@D@2@@_STL@@U?$_Const_traits@V?$basic_string@DV?$char_traits@D@_STL@@V?$allocator@D@2@@_STL@@@2@@2@XZ ; _STL::list<_STL::basic_string<char,_STL::char_traits<char>,_STL::allocator<char> >,_STL::allocator<_STL::basic_string<char,_STL::char_traits<char>,_STL::allocator<char> > > >::begin
; Function compile flags: /Ogsy
; File c:\stlport-4.6.1\stlport\stl\_list.h
;	COMDAT ?begin@?$list@V?$basic_string@DV?$char_traits@D@_STL@@V?$allocator@D@2@@_STL@@V?$allocator@V?$basic_string@DV?$char_traits@D@_STL@@V?$allocator@D@2@@_STL@@@2@@_STL@@QBE?AU?$_List_iterator@V?$basic_string@DV?$char_traits@D@_STL@@V?$allocator@D@2@@_STL@@U?$_Const_traits@V?$basic_string@DV?$char_traits@D@_STL@@V?$allocator@D@2@@_STL@@@2@@2@XZ
_TEXT	SEGMENT
___$ReturnUdt$ = 8					; size = 4
?begin@?$list@V?$basic_string@DV?$char_traits@D@_STL@@V?$allocator@D@2@@_STL@@V?$allocator@V?$basic_string@DV?$char_traits@D@_STL@@V?$allocator@D@2@@_STL@@@2@@_STL@@QBE?AU?$_List_iterator@V?$basic_string@DV?$char_traits@D@_STL@@V?$allocator@D@2@@_STL@@U?$_Const_traits@V?$basic_string@DV?$char_traits@D@_STL@@V?$allocator@D@2@@_STL@@@2@@2@XZ PROC NEAR ; _STL::list<_STL::basic_string<char,_STL::char_traits<char>,_STL::allocator<char> >,_STL::allocator<_STL::basic_string<char,_STL::char_traits<char>,_STL::allocator<char> > > >::begin, COMDAT
; _this$ = ecx

; 267  :   const_iterator begin() const { return const_iterator((_Node*)(this->_M_node._M_data->_M_next)); }

  00000	8b 01		 mov	 eax, DWORD PTR [ecx]
  00002	8b 08		 mov	 ecx, DWORD PTR [eax]
  00004	8b 44 24 04	 mov	 eax, DWORD PTR ___$ReturnUdt$[esp-4]
  00008	89 08		 mov	 DWORD PTR [eax], ecx
  0000a	c2 04 00	 ret	 4
?begin@?$list@V?$basic_string@DV?$char_traits@D@_STL@@V?$allocator@D@2@@_STL@@V?$allocator@V?$basic_string@DV?$char_traits@D@_STL@@V?$allocator@D@2@@_STL@@@2@@_STL@@QBE?AU?$_List_iterator@V?$basic_string@DV?$char_traits@D@_STL@@V?$allocator@D@2@@_STL@@U?$_Const_traits@V?$basic_string@DV?$char_traits@D@_STL@@V?$allocator@D@2@@_STL@@@2@@2@XZ ENDP ; _STL::list<_STL::basic_string<char,_STL::char_traits<char>,_STL::allocator<char> >,_STL::allocator<_STL::basic_string<char,_STL::char_traits<char>,_STL::allocator<char> > > >::begin
_TEXT	ENDS
PUBLIC	?end@?$list@V?$basic_string@DV?$char_traits@D@_STL@@V?$allocator@D@2@@_STL@@V?$allocator@V?$basic_string@DV?$char_traits@D@_STL@@V?$allocator@D@2@@_STL@@@2@@_STL@@QBE?AU?$_List_iterator@V?$basic_string@DV?$char_traits@D@_STL@@V?$allocator@D@2@@_STL@@U?$_Const_traits@V?$basic_string@DV?$char_traits@D@_STL@@V?$allocator@D@2@@_STL@@@2@@2@XZ ; _STL::list<_STL::basic_string<char,_STL::char_traits<char>,_STL::allocator<char> >,_STL::allocator<_STL::basic_string<char,_STL::char_traits<char>,_STL::allocator<char> > > >::end
; Function compile flags: /Ogsy
;	COMDAT ?end@?$list@V?$basic_string@DV?$char_traits@D@_STL@@V?$allocator@D@2@@_STL@@V?$allocator@V?$basic_string@DV?$char_traits@D@_STL@@V?$allocator@D@2@@_STL@@@2@@_STL@@QBE?AU?$_List_iterator@V?$basic_string@DV?$char_traits@D@_STL@@V?$allocator@D@2@@_STL@@U?$_Const_traits@V?$basic_string@DV?$char_traits@D@_STL@@V?$allocator@D@2@@_STL@@@2@@2@XZ
_TEXT	SEGMENT
___$ReturnUdt$ = 8					; size = 4
?end@?$list@V?$basic_string@DV?$char_traits@D@_STL@@V?$allocator@D@2@@_STL@@V?$allocator@V?$basic_string@DV?$char_traits@D@_STL@@V?$allocator@D@2@@_STL@@@2@@_STL@@QBE?AU?$_List_iterator@V?$basic_string@DV?$char_traits@D@_STL@@V?$allocator@D@2@@_STL@@U?$_Const_traits@V?$basic_string@DV?$char_traits@D@_STL@@V?$allocator@D@2@@_STL@@@2@@2@XZ PROC NEAR ; _STL::list<_STL::basic_string<char,_STL::char_traits<char>,_STL::allocator<char> >,_STL::allocator<_STL::basic_string<char,_STL::char_traits<char>,_STL::allocator<char> > > >::end, COMDAT
; _this$ = ecx

; 270  :   const_iterator end() const { return this->_M_node._M_data; }

  00000	8b 09		 mov	 ecx, DWORD PTR [ecx]
  00002	8b 44 24 04	 mov	 eax, DWORD PTR ___$ReturnUdt$[esp-4]
  00006	89 08		 mov	 DWORD PTR [eax], ecx
  00008	c2 04 00	 ret	 4
?end@?$list@V?$basic_string@DV?$char_traits@D@_STL@@V?$allocator@D@2@@_STL@@V?$allocator@V?$basic_string@DV?$char_traits@D@_STL@@V?$allocator@D@2@@_STL@@@2@@_STL@@QBE?AU?$_List_iterator@V?$basic_string@DV?$char_traits@D@_STL@@V?$allocator@D@2@@_STL@@U?$_Const_traits@V?$basic_string@DV?$char_traits@D@_STL@@V?$allocator@D@2@@_STL@@@2@@2@XZ ENDP ; _STL::list<_STL::basic_string<char,_STL::char_traits<char>,_STL::allocator<char> >,_STL::allocator<_STL::basic_string<char,_STL::char_traits<char>,_STL::allocator<char> > > >::end
_TEXT	ENDS
PUBLIC	?begin@?$list@V?$basic_string@DV?$char_traits@D@_STL@@V?$allocator@D@2@@_STL@@V?$allocator@V?$basic_string@DV?$char_traits@D@_STL@@V?$allocator@D@2@@_STL@@@2@@_STL@@QAE?AU?$_List_iterator@V?$basic_string@DV?$char_traits@D@_STL@@V?$allocator@D@2@@_STL@@U?$_Nonconst_traits@V?$basic_string@DV?$char_traits@D@_STL@@V?$allocator@D@2@@_STL@@@2@@2@XZ ; _STL::list<_STL::basic_string<char,_STL::char_traits<char>,_STL::allocator<char> >,_STL::allocator<_STL::basic_string<char,_STL::char_traits<char>,_STL::allocator<char> > > >::begin
; Function compile flags: /Ogsy
;	COMDAT ?begin@?$list@V?$basic_string@DV?$char_traits@D@_STL@@V?$allocator@D@2@@_STL@@V?$allocator@V?$basic_string@DV?$char_traits@D@_STL@@V?$allocator@D@2@@_STL@@@2@@_STL@@QAE?AU?$_List_iterator@V?$basic_string@DV?$char_traits@D@_STL@@V?$allocator@D@2@@_STL@@U?$_Nonconst_traits@V?$basic_string@DV?$char_traits@D@_STL@@V?$allocator@D@2@@_STL@@@2@@2@XZ
_TEXT	SEGMENT
___$ReturnUdt$ = 8					; size = 4
?begin@?$list@V?$basic_string@DV?$char_traits@D@_STL@@V?$allocator@D@2@@_STL@@V?$allocator@V?$basic_string@DV?$char_traits@D@_STL@@V?$allocator@D@2@@_STL@@@2@@_STL@@QAE?AU?$_List_iterator@V?$basic_string@DV?$char_traits@D@_STL@@V?$allocator@D@2@@_STL@@U?$_Nonconst_traits@V?$basic_string@DV?$char_traits@D@_STL@@V?$allocator@D@2@@_STL@@@2@@2@XZ PROC NEAR ; _STL::list<_STL::basic_string<char,_STL::char_traits<char>,_STL::allocator<char> >,_STL::allocator<_STL::basic_string<char,_STL::char_traits<char>,_STL::allocator<char> > > >::begin, COMDAT
; _this$ = ecx

; 266  :   iterator begin()             { return iterator((_Node*)(this->_M_node._M_data->_M_next)); }

  00000	8b 01		 mov	 eax, DWORD PTR [ecx]
  00002	8b 08		 mov	 ecx, DWORD PTR [eax]
  00004	8b 44 24 04	 mov	 eax, DWORD PTR ___$ReturnUdt$[esp-4]
  00008	89 08		 mov	 DWORD PTR [eax], ecx
  0000a	c2 04 00	 ret	 4
?begin@?$list@V?$basic_string@DV?$char_traits@D@_STL@@V?$allocator@D@2@@_STL@@V?$allocator@V?$basic_string@DV?$char_traits@D@_STL@@V?$allocator@D@2@@_STL@@@2@@_STL@@QAE?AU?$_List_iterator@V?$basic_string@DV?$char_traits@D@_STL@@V?$allocator@D@2@@_STL@@U?$_Nonconst_traits@V?$basic_string@DV?$char_traits@D@_STL@@V?$allocator@D@2@@_STL@@@2@@2@XZ ENDP ; _STL::list<_STL::basic_string<char,_STL::char_traits<char>,_STL::allocator<char> >,_STL::allocator<_STL::basic_string<char,_STL::char_traits<char>,_STL::allocator<char> > > >::begin
_TEXT	ENDS
PUBLIC	??1?$_STLP_alloc_proxy@PAU?$_List_node@V?$basic_string@DV?$char_traits@D@_STL@@V?$allocator@D@2@@_STL@@@_STL@@U12@V?$allocator@U?$_List_node@V?$basic_string@DV?$char_traits@D@_STL@@V?$allocator@D@2@@_STL@@@_STL@@@2@@_STL@@QAE@XZ ; _STL::_STLP_alloc_proxy<_STL::_List_node<_STL::basic_string<char,_STL::char_traits<char>,_STL::allocator<char> > > *,_STL::_List_node<_STL::basic_string<char,_STL::char_traits<char>,_STL::allocator<char> > >,_STL::allocator<_STL::_List_node<_STL::basic_string<char,_STL::char_traits<char>,_STL::allocator<char> > > > >::~_STLP_alloc_proxy<_STL::_List_node<_STL::basic_string<char,_STL::char_traits<char>,_STL::allocator<char> > > *,_STL::_List_node<_STL::basic_string<char,_STL::char_traits<char>,_STL::allocator<char> > >,_STL::allocator<_STL::_List_node<_STL::basic_string<char,_STL::char_traits<char>,_STL::allocator<char> > > > >
; Function compile flags: /Ogsy
;	COMDAT ??1?$_STLP_alloc_proxy@PAU?$_List_node@V?$basic_string@DV?$char_traits@D@_STL@@V?$allocator@D@2@@_STL@@@_STL@@U12@V?$allocator@U?$_List_node@V?$basic_string@DV?$char_traits@D@_STL@@V?$allocator@D@2@@_STL@@@_STL@@@2@@_STL@@QAE@XZ
_TEXT	SEGMENT
??1?$_STLP_alloc_proxy@PAU?$_List_node@V?$basic_string@DV?$char_traits@D@_STL@@V?$allocator@D@2@@_STL@@@_STL@@U12@V?$allocator@U?$_List_node@V?$basic_string@DV?$char_traits@D@_STL@@V?$allocator@D@2@@_STL@@@_STL@@@2@@_STL@@QAE@XZ PROC NEAR ; _STL::_STLP_alloc_proxy<_STL::_List_node<_STL::basic_string<char,_STL::char_traits<char>,_STL::allocator<char> > > *,_STL::_List_node<_STL::basic_string<char,_STL::char_traits<char>,_STL::allocator<char> > >,_STL::allocator<_STL::_List_node<_STL::basic_string<char,_STL::char_traits<char>,_STL::allocator<char> > > > >::~_STLP_alloc_proxy<_STL::_List_node<_STL::basic_string<char,_STL::char_traits<char>,_STL::allocator<char> > > *,_STL::_List_node<_STL::basic_string<char,_STL::char_traits<char>,_STL::allocator<char> > >,_STL::allocator<_STL::_List_node<_STL::basic_string<char,_STL::char_traits<char>,_STL::allocator<char> > > > >, COMDAT
; _this$ = ecx
  00000	c3		 ret	 0
??1?$_STLP_alloc_proxy@PAU?$_List_node@V?$basic_string@DV?$char_traits@D@_STL@@V?$allocator@D@2@@_STL@@@_STL@@U12@V?$allocator@U?$_List_node@V?$basic_string@DV?$char_traits@D@_STL@@V?$allocator@D@2@@_STL@@@_STL@@@2@@_STL@@QAE@XZ ENDP ; _STL::_STLP_alloc_proxy<_STL::_List_node<_STL::basic_string<char,_STL::char_traits<char>,_STL::allocator<char> > > *,_STL::_List_node<_STL::basic_string<char,_STL::char_traits<char>,_STL::allocator<char> > >,_STL::allocator<_STL::_List_node<_STL::basic_string<char,_STL::char_traits<char>,_STL::allocator<char> > > > >::~_STLP_alloc_proxy<_STL::_List_node<_STL::basic_string<char,_STL::char_traits<char>,_STL::allocator<char> > > *,_STL::_List_node<_STL::basic_string<char,_STL::char_traits<char>,_STL::allocator<char> > >,_STL::allocator<_STL::_List_node<_STL::basic_string<char,_STL::char_traits<char>,_STL::allocator<char> > > > >
_TEXT	ENDS
PUBLIC	??0?$_STLP_alloc_proxy@PAU?$_List_node@V?$basic_string@DV?$char_traits@D@_STL@@V?$allocator@D@2@@_STL@@@_STL@@U12@V?$allocator@U?$_List_node@V?$basic_string@DV?$char_traits@D@_STL@@V?$allocator@D@2@@_STL@@@_STL@@@2@@_STL@@QAE@ABV?$allocator@U?$_List_node@V?$basic_string@DV?$char_traits@D@_STL@@V?$allocator@D@2@@_STL@@@_STL@@@1@PAU?$_List_node@V?$basic_string@DV?$char_traits@D@_STL@@V?$allocator@D@2@@_STL@@@1@@Z ; _STL::_STLP_alloc_proxy<_STL::_List_node<_STL::basic_string<char,_STL::char_traits<char>,_STL::allocator<char> > > *,_STL::_List_node<_STL::basic_string<char,_STL::char_traits<char>,_STL::allocator<char> > >,_STL::allocator<_STL::_List_node<_STL::basic_string<char,_STL::char_traits<char>,_STL::allocator<char> > > > >::_STLP_alloc_proxy<_STL::_List_node<_STL::basic_string<char,_STL::char_traits<char>,_STL::allocator<char> > > *,_STL::_List_node<_STL::basic_string<char,_STL::char_traits<char>,_STL::allocator<char> > >,_STL::allocator<_STL::_List_node<_STL::basic_string<char,_STL::char_traits<char>,_STL::allocator<char> > > > >
; Function compile flags: /Ogsy
; File c:\stlport-4.6.1\stlport\stl\_alloc.h
;	COMDAT ??0?$_STLP_alloc_proxy@PAU?$_List_node@V?$basic_string@DV?$char_traits@D@_STL@@V?$allocator@D@2@@_STL@@@_STL@@U12@V?$allocator@U?$_List_node@V?$basic_string@DV?$char_traits@D@_STL@@V?$allocator@D@2@@_STL@@@_STL@@@2@@_STL@@QAE@ABV?$allocator@U?$_List_node@V?$basic_string@DV?$char_traits@D@_STL@@V?$allocator@D@2@@_STL@@@_STL@@@1@PAU?$_List_node@V?$basic_string@DV?$char_traits@D@_STL@@V?$allocator@D@2@@_STL@@@1@@Z
_TEXT	SEGMENT
___a$ = 8						; size = 4
___p$ = 12						; size = 4
??0?$_STLP_alloc_proxy@PAU?$_List_node@V?$basic_string@DV?$char_traits@D@_STL@@V?$allocator@D@2@@_STL@@@_STL@@U12@V?$allocator@U?$_List_node@V?$basic_string@DV?$char_traits@D@_STL@@V?$allocator@D@2@@_STL@@@_STL@@@2@@_STL@@QAE@ABV?$allocator@U?$_List_node@V?$basic_string@DV?$char_traits@D@_STL@@V?$allocator@D@2@@_STL@@@_STL@@@1@PAU?$_List_node@V?$basic_string@DV?$char_traits@D@_STL@@V?$allocator@D@2@@_STL@@@1@@Z PROC NEAR ; _STL::_STLP_alloc_proxy<_STL::_List_node<_STL::basic_string<char,_STL::char_traits<char>,_STL::allocator<char> > > *,_STL::_List_node<_STL::basic_string<char,_STL::char_traits<char>,_STL::allocator<char> > >,_STL::allocator<_STL::_List_node<_STL::basic_string<char,_STL::char_traits<char>,_STL::allocator<char> > > > >::_STLP_alloc_proxy<_STL::_List_node<_STL::basic_string<char,_STL::char_traits<char>,_STL::allocator<char> > > *,_STL::_List_node<_STL::basic_string<char,_STL::char_traits<char>,_STL::allocator<char> > >,_STL::allocator<_STL::_List_node<_STL::basic_string<char,_STL::char_traits<char>,_STL::allocator<char> > > > >, COMDAT
; _this$ = ecx

; 487  :   inline _STLP_alloc_proxy(const _MaybeReboundAlloc& __a, _Value __p) : _MaybeReboundAlloc(__a), _M_data(__p) {}

  00000	8b c1		 mov	 eax, ecx
  00002	8b 4c 24 08	 mov	 ecx, DWORD PTR ___p$[esp-4]
  00006	89 08		 mov	 DWORD PTR [eax], ecx
  00008	c2 08 00	 ret	 8
??0?$_STLP_alloc_proxy@PAU?$_List_node@V?$basic_string@DV?$char_traits@D@_STL@@V?$allocator@D@2@@_STL@@@_STL@@U12@V?$allocator@U?$_List_node@V?$basic_string@DV?$char_traits@D@_STL@@V?$allocator@D@2@@_STL@@@_STL@@@2@@_STL@@QAE@ABV?$allocator@U?$_List_node@V?$basic_string@DV?$char_traits@D@_STL@@V?$allocator@D@2@@_STL@@@_STL@@@1@PAU?$_List_node@V?$basic_string@DV?$char_traits@D@_STL@@V?$allocator@D@2@@_STL@@@1@@Z ENDP ; _STL::_STLP_alloc_proxy<_STL::_List_node<_STL::basic_string<char,_STL::char_traits<char>,_STL::allocator<char> > > *,_STL::_List_node<_STL::basic_string<char,_STL::char_traits<char>,_STL::allocator<char> > >,_STL::allocator<_STL::_List_node<_STL::basic_string<char,_STL::char_traits<char>,_STL::allocator<char> > > > >::_STLP_alloc_proxy<_STL::_List_node<_STL::basic_string<char,_STL::char_traits<char>,_STL::allocator<char> > > *,_STL::_List_node<_STL::basic_string<char,_STL::char_traits<char>,_STL::allocator<char> > >,_STL::allocator<_STL::_List_node<_STL::basic_string<char,_STL::char_traits<char>,_STL::allocator<char> > > > >
_TEXT	ENDS
PUBLIC	?allocate@?$allocator@U?$_List_node@V?$basic_string@DV?$char_traits@D@_STL@@V?$allocator@D@2@@_STL@@@_STL@@@_STL@@QAEPAU?$_List_node@V?$basic_string@DV?$char_traits@D@_STL@@V?$allocator@D@2@@_STL@@@2@IPBX@Z ; _STL::allocator<_STL::_List_node<_STL::basic_string<char,_STL::char_traits<char>,_STL::allocator<char> > > >::allocate
; Function compile flags: /Ogsy
;	COMDAT ?allocate@?$allocator@U?$_List_node@V?$basic_string@DV?$char_traits@D@_STL@@V?$allocator@D@2@@_STL@@@_STL@@@_STL@@QAEPAU?$_List_node@V?$basic_string@DV?$char_traits@D@_STL@@V?$allocator@D@2@@_STL@@@2@IPBX@Z
_TEXT	SEGMENT
___n$ = 8						; size = 4
___formal$ = 12						; size = 4
?allocate@?$allocator@U?$_List_node@V?$basic_string@DV?$char_traits@D@_STL@@V?$allocator@D@2@@_STL@@@_STL@@@_STL@@QAEPAU?$_List_node@V?$basic_string@DV?$char_traits@D@_STL@@V?$allocator@D@2@@_STL@@@2@IPBX@Z PROC NEAR ; _STL::allocator<_STL::_List_node<_STL::basic_string<char,_STL::char_traits<char>,_STL::allocator<char> > > >::allocate, COMDAT
; _this$ = ecx

; 355  :     return __n != 0 ? __REINTERPRET_CAST(value_type*,__sgi_alloc::allocate(__n * sizeof(value_type))) : 0;

  00000	8b 44 24 04	 mov	 eax, DWORD PTR ___n$[esp-4]
  00004	85 c0		 test	 eax, eax
  00006	74 0f		 je	 SHORT $L115284
  00008	8d 04 80	 lea	 eax, DWORD PTR [eax+eax*4]
  0000b	c1 e0 02	 shl	 eax, 2
  0000e	50		 push	 eax
  0000f	e8 00 00 00 00	 call	 ?allocate@?$__node_alloc@$00$0A@@_STL@@SAPAXI@Z ; _STL::__node_alloc<1,0>::allocate
  00014	59		 pop	 ecx
  00015	eb 02		 jmp	 SHORT $L115285
$L115284:
  00017	33 c0		 xor	 eax, eax
$L115285:

; 356  :   }

  00019	c2 08 00	 ret	 8
?allocate@?$allocator@U?$_List_node@V?$basic_string@DV?$char_traits@D@_STL@@V?$allocator@D@2@@_STL@@@_STL@@@_STL@@QAEPAU?$_List_node@V?$basic_string@DV?$char_traits@D@_STL@@V?$allocator@D@2@@_STL@@@2@IPBX@Z ENDP ; _STL::allocator<_STL::_List_node<_STL::basic_string<char,_STL::char_traits<char>,_STL::allocator<char> > > >::allocate
_TEXT	ENDS
PUBLIC	?deallocate@?$allocator@U?$_List_node@V?$basic_string@DV?$char_traits@D@_STL@@V?$allocator@D@2@@_STL@@@_STL@@@_STL@@QAEXPAU?$_List_node@V?$basic_string@DV?$char_traits@D@_STL@@V?$allocator@D@2@@_STL@@@2@I@Z ; _STL::allocator<_STL::_List_node<_STL::basic_string<char,_STL::char_traits<char>,_STL::allocator<char> > > >::deallocate
; Function compile flags: /Ogsy
;	COMDAT ?deallocate@?$allocator@U?$_List_node@V?$basic_string@DV?$char_traits@D@_STL@@V?$allocator@D@2@@_STL@@@_STL@@@_STL@@QAEXPAU?$_List_node@V?$basic_string@DV?$char_traits@D@_STL@@V?$allocator@D@2@@_STL@@@2@I@Z
_TEXT	SEGMENT
___p$ = 8						; size = 4
___n$ = 12						; size = 4
?deallocate@?$allocator@U?$_List_node@V?$basic_string@DV?$char_traits@D@_STL@@V?$allocator@D@2@@_STL@@@_STL@@@_STL@@QAEXPAU?$_List_node@V?$basic_string@DV?$char_traits@D@_STL@@V?$allocator@D@2@@_STL@@@2@I@Z PROC NEAR ; _STL::allocator<_STL::_List_node<_STL::basic_string<char,_STL::char_traits<char>,_STL::allocator<char> > > >::deallocate, COMDAT
; _this$ = ecx

; 359  :     _STLP_ASSERT( (__p == 0) == (__n == 0) )
; 360  :       if (__p != 0) __sgi_alloc::deallocate((void*)__p, __n * sizeof(value_type));

  00000	83 7c 24 04 00	 cmp	 DWORD PTR ___p$[esp-4], 0
  00005	74 16		 je	 SHORT $L98656
  00007	8b 44 24 08	 mov	 eax, DWORD PTR ___n$[esp-4]
  0000b	8d 04 80	 lea	 eax, DWORD PTR [eax+eax*4]
  0000e	c1 e0 02	 shl	 eax, 2
  00011	50		 push	 eax
  00012	ff 74 24 08	 push	 DWORD PTR ___p$[esp]
  00016	e8 00 00 00 00	 call	 ?deallocate@?$__node_alloc@$00$0A@@_STL@@SAXPAXI@Z ; _STL::__node_alloc<1,0>::deallocate
  0001b	59		 pop	 ecx
  0001c	59		 pop	 ecx
$L98656:

; 361  :   }

  0001d	c2 08 00	 ret	 8
?deallocate@?$allocator@U?$_List_node@V?$basic_string@DV?$char_traits@D@_STL@@V?$allocator@D@2@@_STL@@@_STL@@@_STL@@QAEXPAU?$_List_node@V?$basic_string@DV?$char_traits@D@_STL@@V?$allocator@D@2@@_STL@@@2@I@Z ENDP ; _STL::allocator<_STL::_List_node<_STL::basic_string<char,_STL::char_traits<char>,_STL::allocator<char> > > >::deallocate
_TEXT	ENDS
PUBLIC	?deallocate@?$allocator@D@_STL@@QAEXPADI@Z	; _STL::allocator<char>::deallocate
; Function compile flags: /Ogsy
;	COMDAT ?deallocate@?$allocator@D@_STL@@QAEXPADI@Z
_TEXT	SEGMENT
___p$ = 8						; size = 4
___n$ = 12						; size = 4
?deallocate@?$allocator@D@_STL@@QAEXPADI@Z PROC NEAR	; _STL::allocator<char>::deallocate, COMDAT
; _this$ = ecx

; 359  :     _STLP_ASSERT( (__p == 0) == (__n == 0) )
; 360  :       if (__p != 0) __sgi_alloc::deallocate((void*)__p, __n * sizeof(value_type));

  00000	83 7c 24 04 00	 cmp	 DWORD PTR ___p$[esp-4], 0
  00005	74 0f		 je	 SHORT $L98663
  00007	ff 74 24 08	 push	 DWORD PTR ___n$[esp-4]
  0000b	ff 74 24 08	 push	 DWORD PTR ___p$[esp]
  0000f	e8 00 00 00 00	 call	 ?deallocate@?$__node_alloc@$00$0A@@_STL@@SAXPAXI@Z ; _STL::__node_alloc<1,0>::deallocate
  00014	59		 pop	 ecx
  00015	59		 pop	 ecx
$L98663:

; 361  :   }

  00016	c2 08 00	 ret	 8
?deallocate@?$allocator@D@_STL@@QAEXPADI@Z ENDP		; _STL::allocator<char>::deallocate
_TEXT	ENDS
PUBLIC	??0?$_String_base@DV?$allocator@D@_STL@@@_STL@@QAE@ABV?$allocator@D@1@@Z ; _STL::_String_base<char,_STL::allocator<char> >::_String_base<char,_STL::allocator<char> >
; Function compile flags: /Ogsy
; File c:\stlport-4.6.1\stlport\stl\_string.h
;	COMDAT ??0?$_String_base@DV?$allocator@D@_STL@@@_STL@@QAE@ABV?$allocator@D@1@@Z
_TEXT	SEGMENT
___a$ = 8						; size = 4
??0?$_String_base@DV?$allocator@D@_STL@@@_STL@@QAE@ABV?$allocator@D@1@@Z PROC NEAR ; _STL::_String_base<char,_STL::allocator<char> >::_String_base<char,_STL::allocator<char> >, COMDAT
; _this$ = ecx

; 129  :     : _M_start(0), _M_finish(0), _M_end_of_storage(__a, (_Tp*)0) {}

  00000	56		 push	 esi
  00001	33 c0		 xor	 eax, eax
  00003	8b f1		 mov	 esi, ecx
  00005	50		 push	 eax
  00006	ff 74 24 0c	 push	 DWORD PTR ___a$[esp+4]
  0000a	8d 4e 08	 lea	 ecx, DWORD PTR [esi+8]
  0000d	89 06		 mov	 DWORD PTR [esi], eax
  0000f	89 46 04	 mov	 DWORD PTR [esi+4], eax
  00012	e8 00 00 00 00	 call	 ??0?$_STLP_alloc_proxy@PADDV?$allocator@D@_STL@@@_STL@@QAE@ABV?$allocator@D@1@PAD@Z ; _STL::_STLP_alloc_proxy<char *,char,_STL::allocator<char> >::_STLP_alloc_proxy<char *,char,_STL::allocator<char> >
  00017	8b c6		 mov	 eax, esi
  00019	5e		 pop	 esi
  0001a	c2 04 00	 ret	 4
??0?$_String_base@DV?$allocator@D@_STL@@@_STL@@QAE@ABV?$allocator@D@1@@Z ENDP ; _STL::_String_base<char,_STL::allocator<char> >::_String_base<char,_STL::allocator<char> >
_TEXT	ENDS
PUBLIC	?size@?$deque@PAVPacket@@V?$allocator@PAVPacket@@@_STL@@@_STL@@QBEIXZ ; _STL::deque<Packet *,_STL::allocator<Packet *> >::size
; Function compile flags: /Ogsy
; File c:\stlport-4.6.1\stlport\stl\_deque.h
;	COMDAT ?size@?$deque@PAVPacket@@V?$allocator@PAVPacket@@@_STL@@@_STL@@QBEIXZ
_TEXT	SEGMENT
?size@?$deque@PAVPacket@@V?$allocator@PAVPacket@@@_STL@@@_STL@@QBEIXZ PROC NEAR ; _STL::deque<Packet *,_STL::allocator<Packet *> >::size, COMDAT
; _this$ = ecx

; 426  :   size_type size() const { return this->_M_finish - this->_M_start; }

  00000	51		 push	 ecx
  00001	83 c1 10	 add	 ecx, 16			; 00000010H
  00004	e8 00 00 00 00	 call	 ?_M_subtract@?$_Deque_iterator_base@PAVPacket@@@_STL@@QBEHABU12@@Z ; _STL::_Deque_iterator_base<Packet *>::_M_subtract
  00009	c3		 ret	 0
?size@?$deque@PAVPacket@@V?$allocator@PAVPacket@@@_STL@@@_STL@@QBEIXZ ENDP ; _STL::deque<Packet *,_STL::allocator<Packet *> >::size
_TEXT	ENDS
PUBLIC	??F?$_Deque_iterator@PAVPacket@@U?$_Nonconst_traits@PAVPacket@@@_STL@@@_STL@@QAEAAU01@XZ ; _STL::_Deque_iterator<Packet *,_STL::_Nonconst_traits<Packet *> >::operator--
; Function compile flags: /Ogsy
;	COMDAT ??F?$_Deque_iterator@PAVPacket@@U?$_Nonconst_traits@PAVPacket@@@_STL@@@_STL@@QAEAAU01@XZ
_TEXT	SEGMENT
??F?$_Deque_iterator@PAVPacket@@U?$_Nonconst_traits@PAVPacket@@@_STL@@@_STL@@QAEAAU01@XZ PROC NEAR ; _STL::_Deque_iterator<Packet *,_STL::_Nonconst_traits<Packet *> >::operator--, COMDAT
; _this$ = ecx

; 193  :   _Self& operator--() { this->_M_decrement(); return *this; }

  00000	56		 push	 esi
  00001	8b f1		 mov	 esi, ecx
  00003	e8 00 00 00 00	 call	 ?_M_decrement@?$_Deque_iterator_base@PAVPacket@@@_STL@@QAEXXZ ; _STL::_Deque_iterator_base<Packet *>::_M_decrement
  00008	8b c6		 mov	 eax, esi
  0000a	5e		 pop	 esi
  0000b	c3		 ret	 0
??F?$_Deque_iterator@PAVPacket@@U?$_Nonconst_traits@PAVPacket@@@_STL@@@_STL@@QAEAAU01@XZ ENDP ; _STL::_Deque_iterator<Packet *,_STL::_Nonconst_traits<Packet *> >::operator--
_TEXT	ENDS
PUBLIC	??H?$_Deque_iterator@PAVPacket@@U?$_Nonconst_traits@PAVPacket@@@_STL@@@_STL@@QBE?AU01@H@Z ; _STL::_Deque_iterator<Packet *,_STL::_Nonconst_traits<Packet *> >::operator+
; Function compile flags: /Ogsy
;	COMDAT ??H?$_Deque_iterator@PAVPacket@@U?$_Nonconst_traits@PAVPacket@@@_STL@@@_STL@@QBE?AU01@H@Z
_TEXT	SEGMENT
___tmp$ = -16						; size = 16
___$ReturnUdt$ = 8					; size = 4
___n$ = 12						; size = 4
??H?$_Deque_iterator@PAVPacket@@U?$_Nonconst_traits@PAVPacket@@@_STL@@@_STL@@QBE?AU01@H@Z PROC NEAR ; _STL::_Deque_iterator<Packet *,_STL::_Nonconst_traits<Packet *> >::operator+, COMDAT
; _this$ = ecx

; 202  :   {

  00000	55		 push	 ebp
  00001	8b ec		 mov	 ebp, esp
  00003	83 ec 10	 sub	 esp, 16			; 00000010H
  00006	56		 push	 esi
  00007	57		 push	 edi

; 203  :     _Self __tmp = *this;
; 204  :     return __tmp += __n;

  00008	ff 75 0c	 push	 DWORD PTR ___n$[ebp]
  0000b	8b f1		 mov	 esi, ecx
  0000d	8d 7d f0	 lea	 edi, DWORD PTR ___tmp$[ebp]
  00010	a5		 movsd
  00011	a5		 movsd
  00012	a5		 movsd
  00013	8d 4d f0	 lea	 ecx, DWORD PTR ___tmp$[ebp]
  00016	a5		 movsd
  00017	e8 00 00 00 00	 call	 ?_M_advance@?$_Deque_iterator_base@PAVPacket@@@_STL@@QAEXH@Z ; _STL::_Deque_iterator_base<Packet *>::_M_advance
  0001c	8b 45 08	 mov	 eax, DWORD PTR ___$ReturnUdt$[ebp]
  0001f	8d 75 f0	 lea	 esi, DWORD PTR ___tmp$[ebp]
  00022	8b f8		 mov	 edi, eax
  00024	a5		 movsd
  00025	a5		 movsd
  00026	a5		 movsd
  00027	a5		 movsd
  00028	5f		 pop	 edi
  00029	5e		 pop	 esi

; 205  :   }

  0002a	c9		 leave
  0002b	c2 08 00	 ret	 8
??H?$_Deque_iterator@PAVPacket@@U?$_Nonconst_traits@PAVPacket@@@_STL@@@_STL@@QBE?AU01@H@Z ENDP ; _STL::_Deque_iterator<Packet *,_STL::_Nonconst_traits<Packet *> >::operator+
_TEXT	ENDS
PUBLIC	??1?$_Deque_base@PAVPacket@@V?$allocator@PAVPacket@@@_STL@@@_STL@@QAE@XZ ; _STL::_Deque_base<Packet *,_STL::allocator<Packet *> >::~_Deque_base<Packet *,_STL::allocator<Packet *> >
; Function compile flags: /Ogsy
; File c:\stlport-4.6.1\stlport\stl\_deque.c
;	COMDAT ??1?$_Deque_base@PAVPacket@@V?$allocator@PAVPacket@@@_STL@@@_STL@@QAE@XZ
_TEXT	SEGMENT
??1?$_Deque_base@PAVPacket@@V?$allocator@PAVPacket@@@_STL@@@_STL@@QAE@XZ PROC NEAR ; _STL::_Deque_base<Packet *,_STL::allocator<Packet *> >::~_Deque_base<Packet *,_STL::allocator<Packet *> >, COMDAT
; _this$ = ecx

; 38   : _Deque_base<_Tp,_Alloc >::~_Deque_base() {

  00000	56		 push	 esi
  00001	8b f1		 mov	 esi, ecx
  00003	57		 push	 edi

; 39   :   if (_M_map._M_data) {

  00004	8d 7e 20	 lea	 edi, DWORD PTR [esi+32]
  00007	83 3f 00	 cmp	 DWORD PTR [edi], 0
  0000a	74 1b		 je	 SHORT $L112693

; 40   :     _M_destroy_nodes(_M_start._M_node, this->_M_finish._M_node + 1);

  0000c	8b 46 1c	 mov	 eax, DWORD PTR [esi+28]
  0000f	83 c0 04	 add	 eax, 4
  00012	50		 push	 eax
  00013	ff 76 0c	 push	 DWORD PTR [esi+12]
  00016	e8 00 00 00 00	 call	 ?_M_destroy_nodes@?$_Deque_base@PAVPacket@@V?$allocator@PAVPacket@@@_STL@@@_STL@@IAEXPAPAPAVPacket@@0@Z ; _STL::_Deque_base<Packet *,_STL::allocator<Packet *> >::_M_destroy_nodes

; 41   :     _M_map.deallocate(_M_map._M_data, _M_map_size._M_data);

  0001b	ff 76 24	 push	 DWORD PTR [esi+36]
  0001e	8b cf		 mov	 ecx, edi
  00020	ff 37		 push	 DWORD PTR [edi]
  00022	e8 00 00 00 00	 call	 ?deallocate@?$allocator@PAPAVPacket@@@_STL@@QAEXPAPAPAVPacket@@I@Z ; _STL::allocator<Packet * *>::deallocate
$L112693:
  00027	5f		 pop	 edi
  00028	5e		 pop	 esi

; 42   :   }
; 43   : }

  00029	c3		 ret	 0
??1?$_Deque_base@PAVPacket@@V?$allocator@PAVPacket@@@_STL@@@_STL@@QAE@XZ ENDP ; _STL::_Deque_base<Packet *,_STL::allocator<Packet *> >::~_Deque_base<Packet *,_STL::allocator<Packet *> >
_TEXT	ENDS
PUBLIC	?_M_pop_front_aux@?$deque@PAVPacket@@V?$allocator@PAVPacket@@@_STL@@@_STL@@IAEXXZ ; _STL::deque<Packet *,_STL::allocator<Packet *> >::_M_pop_front_aux
; Function compile flags: /Ogsy
;	COMDAT ?_M_pop_front_aux@?$deque@PAVPacket@@V?$allocator@PAVPacket@@@_STL@@@_STL@@IAEXXZ
_TEXT	SEGMENT
?_M_pop_front_aux@?$deque@PAVPacket@@V?$allocator@PAVPacket@@@_STL@@@_STL@@IAEXXZ PROC NEAR ; _STL::deque<Packet *,_STL::allocator<Packet *> >::_M_pop_front_aux, COMDAT
; _this$ = ecx

; 358  : {

  00000	56		 push	 esi
  00001	8b f1		 mov	 esi, ecx

; 359  :   _STLP_STD::_Destroy(this->_M_start._M_cur);
; 360  :   this->_M_map_size.deallocate(this->_M_start._M_first, this->buffer_size());

  00003	6a 20		 push	 32			; 00000020H
  00005	ff 76 04	 push	 DWORD PTR [esi+4]
  00008	8d 4e 24	 lea	 ecx, DWORD PTR [esi+36]
  0000b	e8 00 00 00 00	 call	 ?deallocate@?$allocator@PAVPacket@@@_STL@@QAEXPAPAVPacket@@I@Z ; _STL::allocator<Packet *>::deallocate

; 361  :   this->_M_start._M_set_node(this->_M_start._M_node + 1);

  00010	8b 46 0c	 mov	 eax, DWORD PTR [esi+12]
  00013	83 c0 04	 add	 eax, 4
  00016	89 46 0c	 mov	 DWORD PTR [esi+12], eax
  00019	8b 00		 mov	 eax, DWORD PTR [eax]
  0001b	89 46 04	 mov	 DWORD PTR [esi+4], eax
  0001e	05 80 00 00 00	 add	 eax, 128		; 00000080H
  00023	89 46 08	 mov	 DWORD PTR [esi+8], eax

; 362  :   this->_M_start._M_cur = this->_M_start._M_first;

  00026	8b 46 04	 mov	 eax, DWORD PTR [esi+4]
  00029	89 06		 mov	 DWORD PTR [esi], eax
  0002b	5e		 pop	 esi

; 363  : }      

  0002c	c3		 ret	 0
?_M_pop_front_aux@?$deque@PAVPacket@@V?$allocator@PAVPacket@@@_STL@@@_STL@@IAEXXZ ENDP ; _STL::deque<Packet *,_STL::allocator<Packet *> >::_M_pop_front_aux
_TEXT	ENDS
PUBLIC	??$?9U?$_Deque_iterator@PAVPacket@@U?$_Nonconst_traits@PAVPacket@@@_STL@@@_STL@@@_STL@@YA_NABV?$reverse_iterator@U?$_Deque_iterator@PAVPacket@@U?$_Nonconst_traits@PAVPacket@@@_STL@@@_STL@@@0@0@Z ; _STL::operator!=<_STL::_Deque_iterator<Packet *,_STL::_Nonconst_traits<Packet *> > >
; Function compile flags: /Ogsy
; File c:\stlport-4.6.1\stlport\stl\_iterator.h
;	COMDAT ??$?9U?$_Deque_iterator@PAVPacket@@U?$_Nonconst_traits@PAVPacket@@@_STL@@@_STL@@@_STL@@YA_NABV?$reverse_iterator@U?$_Deque_iterator@PAVPacket@@U?$_Nonconst_traits@PAVPacket@@@_STL@@@_STL@@@0@0@Z
_TEXT	SEGMENT
___x$ = 8						; size = 4
___y$ = 12						; size = 4
??$?9U?$_Deque_iterator@PAVPacket@@U?$_Nonconst_traits@PAVPacket@@@_STL@@@_STL@@@_STL@@YA_NABV?$reverse_iterator@U?$_Deque_iterator@PAVPacket@@U?$_Nonconst_traits@PAVPacket@@@_STL@@@_STL@@@0@0@Z PROC NEAR ; _STL::operator!=<_STL::_Deque_iterator<Packet *,_STL::_Nonconst_traits<Packet *> > >, COMDAT

; 135  :   return !(__x == __y);

  00000	ff 74 24 08	 push	 DWORD PTR ___y$[esp-4]
  00004	ff 74 24 08	 push	 DWORD PTR ___x$[esp]
  00008	e8 00 00 00 00	 call	 ??$?8U?$_Deque_iterator@PAVPacket@@U?$_Nonconst_traits@PAVPacket@@@_STL@@@_STL@@@_STL@@YA_NABV?$reverse_iterator@U?$_Deque_iterator@PAVPacket@@U?$_Nonconst_traits@PAVPacket@@@_STL@@@_STL@@@0@0@Z ; _STL::operator==<_STL::_Deque_iterator<Packet *,_STL::_Nonconst_traits<Packet *> > >
  0000d	f6 d8		 neg	 al
  0000f	59		 pop	 ecx
  00010	59		 pop	 ecx
  00011	1b c0		 sbb	 eax, eax
  00013	40		 inc	 eax

; 136  : }

  00014	c3		 ret	 0
??$?9U?$_Deque_iterator@PAVPacket@@U?$_Nonconst_traits@PAVPacket@@@_STL@@@_STL@@@_STL@@YA_NABV?$reverse_iterator@U?$_Deque_iterator@PAVPacket@@U?$_Nonconst_traits@PAVPacket@@@_STL@@@_STL@@@0@0@Z ENDP ; _STL::operator!=<_STL::_Deque_iterator<Packet *,_STL::_Nonconst_traits<Packet *> > >
_TEXT	ENDS
PUBLIC	??$_Destroy@U?$_Deque_iterator@PAVPacket@@U?$_Nonconst_traits@PAVPacket@@@_STL@@@_STL@@@_STL@@YAXU?$_Deque_iterator@PAVPacket@@U?$_Nonconst_traits@PAVPacket@@@_STL@@@0@0@Z ; _STL::_Destroy<_STL::_Deque_iterator<Packet *,_STL::_Nonconst_traits<Packet *> > >
; Function compile flags: /Ogsy
; File c:\stlport-4.6.1\stlport\stl\_construct.h
;	COMDAT ??$_Destroy@U?$_Deque_iterator@PAVPacket@@U?$_Nonconst_traits@PAVPacket@@@_STL@@@_STL@@@_STL@@YAXU?$_Deque_iterator@PAVPacket@@U?$_Nonconst_traits@PAVPacket@@@_STL@@@0@0@Z
_TEXT	SEGMENT
___first$ = 8						; size = 16
___last$ = 24						; size = 16
??$_Destroy@U?$_Deque_iterator@PAVPacket@@U?$_Nonconst_traits@PAVPacket@@@_STL@@@_STL@@@_STL@@YAXU?$_Deque_iterator@PAVPacket@@U?$_Nonconst_traits@PAVPacket@@@_STL@@@0@0@Z PROC NEAR ; _STL::_Destroy<_STL::_Deque_iterator<Packet *,_STL::_Nonconst_traits<Packet *> > >, COMDAT

; 139  :   __destroy(__first, __last, _STLP_VALUE_TYPE(__first, _ForwardIterator));
; 140  : }

  00000	c3		 ret	 0
??$_Destroy@U?$_Deque_iterator@PAVPacket@@U?$_Nonconst_traits@PAVPacket@@@_STL@@@_STL@@@_STL@@YAXU?$_Deque_iterator@PAVPacket@@U?$_Nonconst_traits@PAVPacket@@@_STL@@@0@0@Z ENDP ; _STL::_Destroy<_STL::_Deque_iterator<Packet *,_STL::_Nonconst_traits<Packet *> > >
_TEXT	ENDS
PUBLIC	??$_M_range_initialize@PBD@?$basic_string@DV?$char_traits@D@_STL@@V?$allocator@D@2@@_STL@@AAEXPBD0ABUforward_iterator_tag@1@@Z ; _STL::basic_string<char,_STL::char_traits<char>,_STL::allocator<char> >::_M_range_initialize<char const *>
; Function compile flags: /Ogsy
; File c:\stlport-4.6.1\stlport\stl\_string.h
;	COMDAT ??$_M_range_initialize@PBD@?$basic_string@DV?$char_traits@D@_STL@@V?$allocator@D@2@@_STL@@AAEXPBD0ABUforward_iterator_tag@1@@Z
_TEXT	SEGMENT
___f$ = 8						; size = 4
___l$ = 12						; size = 4
___formal$ = 16						; size = 4
??$_M_range_initialize@PBD@?$basic_string@DV?$char_traits@D@_STL@@V?$allocator@D@2@@_STL@@AAEXPBD0ABUforward_iterator_tag@1@@Z PROC NEAR ; _STL::basic_string<char,_STL::char_traits<char>,_STL::allocator<char> >::_M_range_initialize<char const *>, COMDAT
; _this$ = ecx

; 383  :                            const forward_iterator_tag &) {
; 384  :     difference_type __n = distance(__f, __l);
; 385  :     this->_M_allocate_block(__n + 1);

  00000	8b 44 24 08	 mov	 eax, DWORD PTR ___l$[esp-4]
  00004	2b 44 24 04	 sub	 eax, DWORD PTR ___f$[esp-4]
  00008	56		 push	 esi
  00009	40		 inc	 eax
  0000a	50		 push	 eax
  0000b	8b f1		 mov	 esi, ecx
  0000d	e8 00 00 00 00	 call	 ?_M_allocate_block@?$_String_base@DV?$allocator@D@_STL@@@_STL@@QAEXI@Z ; _STL::_String_base<char,_STL::allocator<char> >::_M_allocate_block

; 386  :     this->_M_finish = uninitialized_copy(__f, __l, this->_M_start);

  00012	ff 36		 push	 DWORD PTR [esi]
  00014	ff 74 24 10	 push	 DWORD PTR ___l$[esp+4]
  00018	ff 74 24 10	 push	 DWORD PTR ___f$[esp+8]
  0001c	e8 00 00 00 00	 call	 ?__copy_trivial@_STL@@YAPAXPBX0PAX@Z ; _STL::__copy_trivial
  00021	83 c4 0c	 add	 esp, 12			; 0000000cH
  00024	89 46 04	 mov	 DWORD PTR [esi+4], eax

; 387  :     _M_terminate_string();

  00027	c6 00 00	 mov	 BYTE PTR [eax], 0
  0002a	5e		 pop	 esi

; 388  :   }

  0002b	c2 0c 00	 ret	 12			; 0000000cH
??$_M_range_initialize@PBD@?$basic_string@DV?$char_traits@D@_STL@@V?$allocator@D@2@@_STL@@AAEXPBD0ABUforward_iterator_tag@1@@Z ENDP ; _STL::basic_string<char,_STL::char_traits<char>,_STL::allocator<char> >::_M_range_initialize<char const *>
_TEXT	ENDS
PUBLIC	?_M_create_nodes@?$_Deque_base@PAVPacket@@V?$allocator@PAVPacket@@@_STL@@@_STL@@IAEXPAPAPAVPacket@@0@Z ; _STL::_Deque_base<Packet *,_STL::allocator<Packet *> >::_M_create_nodes
EXTRN	__CxxThrowException@8:NEAR
EXTRN	__EH_prolog:NEAR
EXTRN	__except_list:DWORD
EXTRN	___CxxFrameHandler:NEAR
;	COMDAT xdata$x
; File c:\stlport-4.6.1\stlport\stl\_alloc.h
xdata$x	SEGMENT
$T115432 DD	0ffffffffH
	DD	00H
	DD	0ffffffffH
	DD	00H
$T115434 DD	00H
	DD	00H
	DD	00H
	DD	FLAT:$L115411
$T115433 DD	00H
	DD	00H
	DD	01H
	DD	01H
	DD	FLAT:$T115434
$T115425 DD	019930520H
	DD	02H
	DD	FLAT:$T115432
	DD	01H
	DD	FLAT:$T115433
	DD	2 DUP(00H)
; Function compile flags: /Ogsy
; File c:\stlport-4.6.1\stlport\stl\_deque.c
xdata$x	ENDS
;	COMDAT ?_M_create_nodes@?$_Deque_base@PAVPacket@@V?$allocator@PAVPacket@@@_STL@@@_STL@@IAEXPAPAPAVPacket@@0@Z
_TEXT	SEGMENT
_this$ = -24						; size = 4
___cur$ = -20						; size = 4
__$EHRec$ = -16						; size = 16
___nstart$ = 8						; size = 4
___nfinish$ = 12					; size = 4
?_M_create_nodes@?$_Deque_base@PAVPacket@@V?$allocator@PAVPacket@@@_STL@@@_STL@@IAEXPAPAPAVPacket@@0@Z PROC NEAR ; _STL::_Deque_base<Packet *,_STL::allocator<Packet *> >::_M_create_nodes, COMDAT
; _this$ = ecx

; 74   : {

  00000	b8 00 00 00 00	 mov	 eax, __ehhandler$?_M_create_nodes@?$_Deque_base@PAVPacket@@V?$allocator@PAVPacket@@@_STL@@@_STL@@IAEXPAPAPAVPacket@@0@Z
  00005	e8 00 00 00 00	 call	 __EH_prolog
  0000a	83 ec 0c	 sub	 esp, 12			; 0000000cH

; 75   :   _Tp** __cur;
; 76   :   _STLP_TRY {

  0000d	83 65 fc 00	 and	 DWORD PTR __$EHRec$[ebp+12], 0
  00011	53		 push	 ebx
  00012	56		 push	 esi

; 77   :     for (__cur = __nstart; __cur < __nfinish; ++__cur)

  00013	8b 75 08	 mov	 esi, DWORD PTR ___nstart$[ebp]
  00016	57		 push	 edi
  00017	89 65 f0	 mov	 DWORD PTR __$EHRec$[ebp], esp
  0001a	89 4d e8	 mov	 DWORD PTR _this$[ebp], ecx
$L115431:
  0001d	3b 75 0c	 cmp	 esi, DWORD PTR ___nfinish$[ebp]
  00020	89 75 ec	 mov	 DWORD PTR ___cur$[ebp], esi
  00023	73 29		 jae	 SHORT $L113287

; 78   :       *__cur = _M_map_size.allocate(this->buffer_size());

  00025	68 80 00 00 00	 push	 128			; 00000080H
  0002a	e8 00 00 00 00	 call	 ?allocate@?$__node_alloc@$00$0A@@_STL@@SAPAXI@Z ; _STL::__node_alloc<1,0>::allocate
  0002f	89 06		 mov	 DWORD PTR [esi], eax
  00031	59		 pop	 ecx
  00032	83 c6 04	 add	 esi, 4
  00035	eb e6		 jmp	 SHORT $L115431
$L115411:

; 79   :   }
; 80   :   _STLP_UNWIND(_M_destroy_nodes(__nstart, __cur));

  00037	ff 75 ec	 push	 DWORD PTR ___cur$[ebp]
  0003a	8b 4d e8	 mov	 ecx, DWORD PTR _this$[ebp]
  0003d	ff 75 08	 push	 DWORD PTR ___nstart$[ebp]
  00040	e8 00 00 00 00	 call	 ?_M_destroy_nodes@?$_Deque_base@PAVPacket@@V?$allocator@PAVPacket@@@_STL@@@_STL@@IAEXPAPAPAVPacket@@0@Z ; _STL::_Deque_base<Packet *,_STL::allocator<Packet *> >::_M_destroy_nodes
  00045	6a 00		 push	 0
  00047	6a 00		 push	 0
  00049	e8 00 00 00 00	 call	 __CxxThrowException@8
$L115436:
$L113287:

; 81   : }

  0004e	8b 4d f4	 mov	 ecx, DWORD PTR __$EHRec$[ebp+4]
  00051	5f		 pop	 edi
  00052	5e		 pop	 esi
  00053	64 89 0d 00 00
	00 00		 mov	 DWORD PTR fs:__except_list, ecx
  0005a	5b		 pop	 ebx
  0005b	c9		 leave
  0005c	c2 08 00	 ret	 8
$L115430:
_TEXT	ENDS
;	COMDAT text$x
text$x	SEGMENT
__ehhandler$?_M_create_nodes@?$_Deque_base@PAVPacket@@V?$allocator@PAVPacket@@@_STL@@@_STL@@IAEXPAPAPAVPacket@@0@Z:
  00000	b8 00 00 00 00	 mov	 eax, OFFSET FLAT:$T115425
  00005	e9 00 00 00 00	 jmp	 ___CxxFrameHandler
text$x	ENDS
?_M_create_nodes@?$_Deque_base@PAVPacket@@V?$allocator@PAVPacket@@@_STL@@@_STL@@IAEXPAPAPAVPacket@@0@Z ENDP ; _STL::_Deque_base<Packet *,_STL::allocator<Packet *> >::_M_create_nodes
PUBLIC	??$copy@PAPAPAVPacket@@PAPAPAV1@@_STL@@YAPAPAPAVPacket@@PAPAPAV1@00@Z ; _STL::copy<Packet * * *,Packet * * *>
; Function compile flags: /Ogsy
; File c:\stlport-4.6.1\stlport\stl\_algobase.h
;	COMDAT ??$copy@PAPAPAVPacket@@PAPAPAV1@@_STL@@YAPAPAPAVPacket@@PAPAPAV1@00@Z
_TEXT	SEGMENT
___first$ = 8						; size = 4
___last$ = 12						; size = 4
___result$ = 16						; size = 4
??$copy@PAPAPAVPacket@@PAPAPAV1@@_STL@@YAPAPAPAVPacket@@PAPAPAV1@00@Z PROC NEAR ; _STL::copy<Packet * * *,Packet * * *>, COMDAT

; 215  :   _STLP_DEBUG_CHECK(__check_range(__first, __last))
; 216  :     return __copy_aux(__first, __last, __result, _BothPtrType< _InputIter, _OutputIter> :: _Ret());

  00000	e9 00 00 00 00	 jmp	 ?__copy_trivial@_STL@@YAPAXPBX0PAX@Z ; _STL::__copy_trivial
??$copy@PAPAPAVPacket@@PAPAPAV1@@_STL@@YAPAPAPAVPacket@@PAPAPAV1@00@Z ENDP ; _STL::copy<Packet * * *,Packet * * *>
_TEXT	ENDS
PUBLIC	??$copy_backward@PAPAPAVPacket@@PAPAPAV1@@_STL@@YAPAPAPAVPacket@@PAPAPAV1@00@Z ; _STL::copy_backward<Packet * * *,Packet * * *>
; Function compile flags: /Ogsy
;	COMDAT ??$copy_backward@PAPAPAVPacket@@PAPAPAV1@@_STL@@YAPAPAPAVPacket@@PAPAPAV1@00@Z
_TEXT	SEGMENT
___first$ = 8						; size = 4
___last$ = 12						; size = 4
___result$ = 16						; size = 4
??$copy_backward@PAPAPAVPacket@@PAPAPAV1@@_STL@@YAPAPAPAVPacket@@PAPAPAV1@00@Z PROC NEAR ; _STL::copy_backward<Packet * * *,Packet * * *>, COMDAT

; 242  :   _STLP_DEBUG_CHECK(__check_range(__first, __last))
; 243  :     return __copy_backward_aux(__first, __last, __result, _BothPtrType< _InputIter, _OutputIter> :: _Ret() );

  00000	e9 00 00 00 00	 jmp	 ?__copy_trivial_backward@_STL@@YAPAXPBX0PAX@Z ; _STL::__copy_trivial_backward
??$copy_backward@PAPAPAVPacket@@PAPAPAV1@@_STL@@YAPAPAPAVPacket@@PAPAPAV1@00@Z ENDP ; _STL::copy_backward<Packet * * *,Packet * * *>
_TEXT	ENDS
PUBLIC	??$__uninitialized_copy@PADPAD@_STL@@YAPADPAD00ABU__true_type@0@@Z ; _STL::__uninitialized_copy<char *,char *>
; Function compile flags: /Ogsy
; File c:\stlport-4.6.1\stlport\stl\_uninitialized.h
;	COMDAT ??$__uninitialized_copy@PADPAD@_STL@@YAPADPAD00ABU__true_type@0@@Z
_TEXT	SEGMENT
___first$ = 8						; size = 4
___last$ = 12						; size = 4
___result$ = 16						; size = 4
___formal$ = 20						; size = 4
??$__uninitialized_copy@PADPAD@_STL@@YAPADPAD00ABU__true_type@0@@Z PROC NEAR ; _STL::__uninitialized_copy<char *,char *>, COMDAT

; 55   :   return __copy_aux(__first, __last, __result, _BothPtrType< _InputIter, _ForwardIter> :: _Ret());

  00000	ff 74 24 0c	 push	 DWORD PTR ___result$[esp-4]
  00004	ff 74 24 0c	 push	 DWORD PTR ___last$[esp]
  00008	ff 74 24 0c	 push	 DWORD PTR ___first$[esp+4]
  0000c	e8 00 00 00 00	 call	 ?__copy_trivial@_STL@@YAPAXPBX0PAX@Z ; _STL::__copy_trivial
  00011	83 c4 0c	 add	 esp, 12			; 0000000cH

; 56   : }

  00014	c3		 ret	 0
??$__uninitialized_copy@PADPAD@_STL@@YAPADPAD00ABU__true_type@0@@Z ENDP ; _STL::__uninitialized_copy<char *,char *>
_TEXT	ENDS
PUBLIC	??0?$_List_base@V?$basic_string@DV?$char_traits@D@_STL@@V?$allocator@D@2@@_STL@@V?$allocator@V?$basic_string@DV?$char_traits@D@_STL@@V?$allocator@D@2@@_STL@@@2@@_STL@@QAE@ABV?$allocator@V?$basic_string@DV?$char_traits@D@_STL@@V?$allocator@D@2@@_STL@@@1@@Z ; _STL::_List_base<_STL::basic_string<char,_STL::char_traits<char>,_STL::allocator<char> >,_STL::allocator<_STL::basic_string<char,_STL::char_traits<char>,_STL::allocator<char> > > >::_List_base<_STL::basic_string<char,_STL::char_traits<char>,_STL::allocator<char> >,_STL::allocator<_STL::basic_string<char,_STL::char_traits<char>,_STL::allocator<char> > > >
; Function compile flags: /Ogsy
; File c:\stlport-4.6.1\stlport\stl\_list.h
;	COMDAT ??0?$_List_base@V?$basic_string@DV?$char_traits@D@_STL@@V?$allocator@D@2@@_STL@@V?$allocator@V?$basic_string@DV?$char_traits@D@_STL@@V?$allocator@D@2@@_STL@@@2@@_STL@@QAE@ABV?$allocator@V?$basic_string@DV?$char_traits@D@_STL@@V?$allocator@D@2@@_STL@@@1@@Z
_TEXT	SEGMENT
$T115554 = -1						; size = 1
___a$ = 8						; size = 4
??0?$_List_base@V?$basic_string@DV?$char_traits@D@_STL@@V?$allocator@D@2@@_STL@@V?$allocator@V?$basic_string@DV?$char_traits@D@_STL@@V?$allocator@D@2@@_STL@@@2@@_STL@@QAE@ABV?$allocator@V?$basic_string@DV?$char_traits@D@_STL@@V?$allocator@D@2@@_STL@@@1@@Z PROC NEAR ; _STL::_List_base<_STL::basic_string<char,_STL::char_traits<char>,_STL::allocator<char> >,_STL::allocator<_STL::basic_string<char,_STL::char_traits<char>,_STL::allocator<char> > > >::_List_base<_STL::basic_string<char,_STL::char_traits<char>,_STL::allocator<char> >,_STL::allocator<_STL::basic_string<char,_STL::char_traits<char>,_STL::allocator<char> > > >, COMDAT
; _this$ = ecx

; 182  :   _List_base(const allocator_type& __a) : _M_node(_STLP_CONVERT_ALLOCATOR(__a, _Node), (_Node*)0) {

  00000	51		 push	 ecx
  00001	56		 push	 esi
  00002	6a 00		 push	 0
  00004	8d 44 24 0b	 lea	 eax, DWORD PTR $T115554[esp+12]
  00008	50		 push	 eax
  00009	8b f1		 mov	 esi, ecx
  0000b	e8 00 00 00 00	 call	 ??0?$_STLP_alloc_proxy@PAU?$_List_node@V?$basic_string@DV?$char_traits@D@_STL@@V?$allocator@D@2@@_STL@@@_STL@@U12@V?$allocator@U?$_List_node@V?$basic_string@DV?$char_traits@D@_STL@@V?$allocator@D@2@@_STL@@@_STL@@@2@@_STL@@QAE@ABV?$allocator@U?$_List_node@V?$basic_string@DV?$char_traits@D@_STL@@V?$allocator@D@2@@_STL@@@_STL@@@1@PAU?$_List_node@V?$basic_string@DV?$char_traits@D@_STL@@V?$allocator@D@2@@_STL@@@1@@Z ; _STL::_STLP_alloc_proxy<_STL::_List_node<_STL::basic_string<char,_STL::char_traits<char>,_STL::allocator<char> > > *,_STL::_List_node<_STL::basic_string<char,_STL::char_traits<char>,_STL::allocator<char> > >,_STL::allocator<_STL::_List_node<_STL::basic_string<char,_STL::char_traits<char>,_STL::allocator<char> > > > >::_STLP_alloc_proxy<_STL::_List_node<_STL::basic_string<char,_STL::char_traits<char>,_STL::allocator<char> > > *,_STL::_List_node<_STL::basic_string<char,_STL::char_traits<char>,_STL::allocator<char> > >,_STL::allocator<_STL::_List_node<_STL::basic_string<char,_STL::char_traits<char>,_STL::allocator<char> > > > >

; 183  :     _Node* __n = _M_node.allocate(1);

  00010	6a 14		 push	 20			; 00000014H
  00012	e8 00 00 00 00	 call	 ?allocate@?$__node_alloc@$00$0A@@_STL@@SAPAXI@Z ; _STL::__node_alloc<1,0>::allocate

; 184  :     __n->_M_next = __n;

  00017	89 00		 mov	 DWORD PTR [eax], eax

; 185  :     __n->_M_prev = __n;

  00019	89 40 04	 mov	 DWORD PTR [eax+4], eax

; 186  :     _M_node._M_data = __n;

  0001c	89 06		 mov	 DWORD PTR [esi], eax
  0001e	59		 pop	 ecx

; 187  :   }

  0001f	8b c6		 mov	 eax, esi
  00021	5e		 pop	 esi
  00022	59		 pop	 ecx
  00023	c2 04 00	 ret	 4
??0?$_List_base@V?$basic_string@DV?$char_traits@D@_STL@@V?$allocator@D@2@@_STL@@V?$allocator@V?$basic_string@DV?$char_traits@D@_STL@@V?$allocator@D@2@@_STL@@@2@@_STL@@QAE@ABV?$allocator@V?$basic_string@DV?$char_traits@D@_STL@@V?$allocator@D@2@@_STL@@@1@@Z ENDP ; _STL::_List_base<_STL::basic_string<char,_STL::char_traits<char>,_STL::allocator<char> >,_STL::allocator<_STL::basic_string<char,_STL::char_traits<char>,_STL::allocator<char> > > >::_List_base<_STL::basic_string<char,_STL::char_traits<char>,_STL::allocator<char> >,_STL::allocator<_STL::basic_string<char,_STL::char_traits<char>,_STL::allocator<char> > > >
_TEXT	ENDS
PUBLIC	?_M_deallocate_block@?$_String_base@DV?$allocator@D@_STL@@@_STL@@QAEXXZ ; _STL::_String_base<char,_STL::allocator<char> >::_M_deallocate_block
; Function compile flags: /Ogsy
; File c:\stlport-4.6.1\stlport\stl\_string.h
;	COMDAT ?_M_deallocate_block@?$_String_base@DV?$allocator@D@_STL@@@_STL@@QAEXXZ
_TEXT	SEGMENT
?_M_deallocate_block@?$_String_base@DV?$allocator@D@_STL@@@_STL@@QAEXXZ PROC NEAR ; _STL::_String_base<char,_STL::allocator<char> >::_M_deallocate_block, COMDAT
; _this$ = ecx

; 124  :     { _M_end_of_storage.deallocate(_M_start, _M_end_of_storage._M_data - _M_start); }

  00000	8b c1		 mov	 eax, ecx
  00002	8d 48 08	 lea	 ecx, DWORD PTR [eax+8]
  00005	8b 00		 mov	 eax, DWORD PTR [eax]
  00007	8b 11		 mov	 edx, DWORD PTR [ecx]
  00009	2b d0		 sub	 edx, eax
  0000b	52		 push	 edx
  0000c	50		 push	 eax
  0000d	e8 00 00 00 00	 call	 ?deallocate@?$allocator@D@_STL@@QAEXPADI@Z ; _STL::allocator<char>::deallocate
  00012	c3		 ret	 0
?_M_deallocate_block@?$_String_base@DV?$allocator@D@_STL@@@_STL@@QAEXXZ ENDP ; _STL::_String_base<char,_STL::allocator<char> >::_M_deallocate_block
_TEXT	ENDS
PUBLIC	??1?$deque@PAVPacket@@V?$allocator@PAVPacket@@@_STL@@@_STL@@QAE@XZ ; _STL::deque<Packet *,_STL::allocator<Packet *> >::~deque<Packet *,_STL::allocator<Packet *> >
; Function compile flags: /Ogsy
; File c:\stlport-4.6.1\stlport\stl\_deque.h
;	COMDAT ??1?$deque@PAVPacket@@V?$allocator@PAVPacket@@@_STL@@@_STL@@QAE@XZ
_TEXT	SEGMENT
??1?$deque@PAVPacket@@V?$allocator@PAVPacket@@@_STL@@@_STL@@QAE@XZ PROC NEAR ; _STL::deque<Packet *,_STL::allocator<Packet *> >::~deque<Packet *,_STL::allocator<Packet *> >, COMDAT
; _this$ = ecx

; 496  :     _STLP_STD::_Destroy(this->_M_start, this->_M_finish); 
; 497  :   }

  00000	e9 00 00 00 00	 jmp	 ??1?$_Deque_base@PAVPacket@@V?$allocator@PAVPacket@@@_STL@@@_STL@@QAE@XZ ; _STL::_Deque_base<Packet *,_STL::allocator<Packet *> >::~_Deque_base<Packet *,_STL::allocator<Packet *> >
??1?$deque@PAVPacket@@V?$allocator@PAVPacket@@@_STL@@@_STL@@QAE@XZ ENDP ; _STL::deque<Packet *,_STL::allocator<Packet *> >::~deque<Packet *,_STL::allocator<Packet *> >
_TEXT	ENDS
PUBLIC	?pop_front@?$deque@PAVPacket@@V?$allocator@PAVPacket@@@_STL@@@_STL@@QAEXXZ ; _STL::deque<Packet *,_STL::allocator<Packet *> >::pop_front
; Function compile flags: /Ogsy
;	COMDAT ?pop_front@?$deque@PAVPacket@@V?$allocator@PAVPacket@@@_STL@@@_STL@@QAEXXZ
_TEXT	SEGMENT
?pop_front@?$deque@PAVPacket@@V?$allocator@PAVPacket@@@_STL@@@_STL@@QAEXXZ PROC NEAR ; _STL::deque<Packet *,_STL::allocator<Packet *> >::pop_front, COMDAT
; _this$ = ecx

; 624  :     if (this->_M_start._M_cur != this->_M_start._M_last - 1) {

  00000	8b 51 08	 mov	 edx, DWORD PTR [ecx+8]
  00003	8b 01		 mov	 eax, DWORD PTR [ecx]
  00005	83 ea 04	 sub	 edx, 4
  00008	3b c2		 cmp	 eax, edx
  0000a	74 06		 je	 SHORT $L111998

; 625  :       _STLP_STD::_Destroy(this->_M_start._M_cur);
; 626  :       ++this->_M_start._M_cur;

  0000c	83 c0 04	 add	 eax, 4
  0000f	89 01		 mov	 DWORD PTR [ecx], eax

; 630  :   }

  00011	c3		 ret	 0
$L111998:

; 627  :     }
; 628  :     else 
; 629  :       _M_pop_front_aux();

  00012	e9 00 00 00 00	 jmp	 ?_M_pop_front_aux@?$deque@PAVPacket@@V?$allocator@PAVPacket@@@_STL@@@_STL@@IAEXXZ ; _STL::deque<Packet *,_STL::allocator<Packet *> >::_M_pop_front_aux
?pop_front@?$deque@PAVPacket@@V?$allocator@PAVPacket@@@_STL@@@_STL@@QAEXXZ ENDP ; _STL::deque<Packet *,_STL::allocator<Packet *> >::pop_front
_TEXT	ENDS
PUBLIC	??D?$reverse_iterator@U?$_Deque_iterator@PAVPacket@@U?$_Nonconst_traits@PAVPacket@@@_STL@@@_STL@@@_STL@@QBEAAPAVPacket@@XZ ; _STL::reverse_iterator<_STL::_Deque_iterator<Packet *,_STL::_Nonconst_traits<Packet *> > >::operator*
; Function compile flags: /Ogsy
; File c:\stlport-4.6.1\stlport\stl\_iterator.h
;	COMDAT ??D?$reverse_iterator@U?$_Deque_iterator@PAVPacket@@U?$_Nonconst_traits@PAVPacket@@@_STL@@@_STL@@@_STL@@QBEAAPAVPacket@@XZ
_TEXT	SEGMENT
___tmp$ = -16						; size = 16
??D?$reverse_iterator@U?$_Deque_iterator@PAVPacket@@U?$_Nonconst_traits@PAVPacket@@@_STL@@@_STL@@@_STL@@QBEAAPAVPacket@@XZ PROC NEAR ; _STL::reverse_iterator<_STL::_Deque_iterator<Packet *,_STL::_Nonconst_traits<Packet *> > >::operator*, COMDAT
; _this$ = ecx

; 77   :   reference operator*() const {

  00000	55		 push	 ebp
  00001	8b ec		 mov	 ebp, esp
  00003	83 ec 10	 sub	 esp, 16			; 00000010H
  00006	56		 push	 esi
  00007	57		 push	 edi

; 78   :     _Iterator __tmp = current;

  00008	8b f1		 mov	 esi, ecx
  0000a	8d 7d f0	 lea	 edi, DWORD PTR ___tmp$[ebp]
  0000d	a5		 movsd
  0000e	a5		 movsd
  0000f	a5		 movsd

; 79   :     return *--__tmp;

  00010	8d 4d f0	 lea	 ecx, DWORD PTR ___tmp$[ebp]
  00013	a5		 movsd
  00014	e8 00 00 00 00	 call	 ?_M_decrement@?$_Deque_iterator_base@PAVPacket@@@_STL@@QAEXXZ ; _STL::_Deque_iterator_base<Packet *>::_M_decrement
  00019	8b 45 f0	 mov	 eax, DWORD PTR ___tmp$[ebp]
  0001c	5f		 pop	 edi
  0001d	5e		 pop	 esi

; 80   :   }

  0001e	c9		 leave
  0001f	c3		 ret	 0
??D?$reverse_iterator@U?$_Deque_iterator@PAVPacket@@U?$_Nonconst_traits@PAVPacket@@@_STL@@@_STL@@@_STL@@QBEAAPAVPacket@@XZ ENDP ; _STL::reverse_iterator<_STL::_Deque_iterator<Packet *,_STL::_Nonconst_traits<Packet *> > >::operator*
_TEXT	ENDS
PUBLIC	??E?$reverse_iterator@U?$_Deque_iterator@PAVPacket@@U?$_Nonconst_traits@PAVPacket@@@_STL@@@_STL@@@_STL@@QAE?AV01@H@Z ; _STL::reverse_iterator<_STL::_Deque_iterator<Packet *,_STL::_Nonconst_traits<Packet *> > >::operator++
; Function compile flags: /Ogsy
;	COMDAT ??E?$reverse_iterator@U?$_Deque_iterator@PAVPacket@@U?$_Nonconst_traits@PAVPacket@@@_STL@@@_STL@@@_STL@@QAE?AV01@H@Z
_TEXT	SEGMENT
___tmp$ = -16						; size = 16
___$ReturnUdt$ = 8					; size = 4
___formal$ = 12						; size = 4
??E?$reverse_iterator@U?$_Deque_iterator@PAVPacket@@U?$_Nonconst_traits@PAVPacket@@@_STL@@@_STL@@@_STL@@QAE?AV01@H@Z PROC NEAR ; _STL::reverse_iterator<_STL::_Deque_iterator<Packet *,_STL::_Nonconst_traits<Packet *> > >::operator++, COMDAT
; _this$ = ecx

; 86   :   _Self operator++(int) {

  00000	55		 push	 ebp
  00001	8b ec		 mov	 ebp, esp
  00003	83 ec 10	 sub	 esp, 16			; 00000010H
  00006	56		 push	 esi
  00007	57		 push	 edi

; 87   :     _Self __tmp = *this;

  00008	8b f1		 mov	 esi, ecx
  0000a	8d 7d f0	 lea	 edi, DWORD PTR ___tmp$[ebp]
  0000d	a5		 movsd
  0000e	a5		 movsd
  0000f	a5		 movsd
  00010	a5		 movsd

; 88   :     --current;

  00011	e8 00 00 00 00	 call	 ?_M_decrement@?$_Deque_iterator_base@PAVPacket@@@_STL@@QAEXXZ ; _STL::_Deque_iterator_base<Packet *>::_M_decrement

; 89   :     return __tmp;

  00016	8b 45 08	 mov	 eax, DWORD PTR ___$ReturnUdt$[ebp]
  00019	8d 75 f0	 lea	 esi, DWORD PTR ___tmp$[ebp]
  0001c	8b f8		 mov	 edi, eax
  0001e	a5		 movsd
  0001f	a5		 movsd
  00020	a5		 movsd
  00021	a5		 movsd
  00022	5f		 pop	 edi
  00023	5e		 pop	 esi

; 90   :   }

  00024	c9		 leave
  00025	c2 08 00	 ret	 8
??E?$reverse_iterator@U?$_Deque_iterator@PAVPacket@@U?$_Nonconst_traits@PAVPacket@@@_STL@@@_STL@@@_STL@@QAE?AV01@H@Z ENDP ; _STL::reverse_iterator<_STL::_Deque_iterator<Packet *,_STL::_Nonconst_traits<Packet *> > >::operator++
_TEXT	ENDS
PUBLIC	??A?$_Deque_iterator@PAVPacket@@U?$_Nonconst_traits@PAVPacket@@@_STL@@@_STL@@QBEAAPAVPacket@@H@Z ; _STL::_Deque_iterator<Packet *,_STL::_Nonconst_traits<Packet *> >::operator[]
; Function compile flags: /Ogsy
; File c:\stlport-4.6.1\stlport\stl\_deque.h
;	COMDAT ??A?$_Deque_iterator@PAVPacket@@U?$_Nonconst_traits@PAVPacket@@@_STL@@@_STL@@QBEAAPAVPacket@@H@Z
_TEXT	SEGMENT
$T115685 = -16						; size = 16
___n$ = 8						; size = 4
??A?$_Deque_iterator@PAVPacket@@U?$_Nonconst_traits@PAVPacket@@@_STL@@@_STL@@QBEAAPAVPacket@@H@Z PROC NEAR ; _STL::_Deque_iterator<Packet *,_STL::_Nonconst_traits<Packet *> >::operator[], COMDAT
; _this$ = ecx

; 213  :   reference operator[](difference_type __n) const { return *(*this + __n); }

  00000	55		 push	 ebp
  00001	8b ec		 mov	 ebp, esp
  00003	83 ec 10	 sub	 esp, 16			; 00000010H
  00006	ff 75 08	 push	 DWORD PTR ___n$[ebp]
  00009	8d 45 f0	 lea	 eax, DWORD PTR $T115685[ebp]
  0000c	50		 push	 eax
  0000d	e8 00 00 00 00	 call	 ??H?$_Deque_iterator@PAVPacket@@U?$_Nonconst_traits@PAVPacket@@@_STL@@@_STL@@QBE?AU01@H@Z ; _STL::_Deque_iterator<Packet *,_STL::_Nonconst_traits<Packet *> >::operator+
  00012	8b 00		 mov	 eax, DWORD PTR [eax]
  00014	c9		 leave
  00015	c2 04 00	 ret	 4
??A?$_Deque_iterator@PAVPacket@@U?$_Nonconst_traits@PAVPacket@@@_STL@@@_STL@@QBEAAPAVPacket@@H@Z ENDP ; _STL::_Deque_iterator<Packet *,_STL::_Nonconst_traits<Packet *> >::operator[]
_TEXT	ENDS
PUBLIC	??$_M_range_initialize@PBD@?$basic_string@DV?$char_traits@D@_STL@@V?$allocator@D@2@@_STL@@AAEXPBD0@Z ; _STL::basic_string<char,_STL::char_traits<char>,_STL::allocator<char> >::_M_range_initialize<char const *>
; Function compile flags: /Ogsy
; File c:\stlport-4.6.1\stlport\stl\_string.h
;	COMDAT ??$_M_range_initialize@PBD@?$basic_string@DV?$char_traits@D@_STL@@V?$allocator@D@2@@_STL@@AAEXPBD0@Z
_TEXT	SEGMENT
___f$ = 8						; size = 4
___l$ = 12						; size = 4
$T115693 = 15						; size = 1
??$_M_range_initialize@PBD@?$basic_string@DV?$char_traits@D@_STL@@V?$allocator@D@2@@_STL@@AAEXPBD0@Z PROC NEAR ; _STL::basic_string<char,_STL::char_traits<char>,_STL::allocator<char> >::_M_range_initialize<char const *>, COMDAT
; _this$ = ecx

; 390  :   template <class _InputIter> void _M_range_initialize(_InputIter __f, _InputIter __l) {

  00000	55		 push	 ebp
  00001	8b ec		 mov	 ebp, esp

; 391  :     _M_range_initialize(__f, __l, _STLP_ITERATOR_CATEGORY(__f, _InputIter));

  00003	8d 45 0f	 lea	 eax, DWORD PTR $T115693[ebp]
  00006	50		 push	 eax
  00007	ff 75 0c	 push	 DWORD PTR ___l$[ebp]
  0000a	ff 75 08	 push	 DWORD PTR ___f$[ebp]
  0000d	e8 00 00 00 00	 call	 ??$_M_range_initialize@PBD@?$basic_string@DV?$char_traits@D@_STL@@V?$allocator@D@2@@_STL@@AAEXPBD0ABUforward_iterator_tag@1@@Z ; _STL::basic_string<char,_STL::char_traits<char>,_STL::allocator<char> >::_M_range_initialize<char const *>

; 392  :   }

  00012	5d		 pop	 ebp
  00013	c2 08 00	 ret	 8
??$_M_range_initialize@PBD@?$basic_string@DV?$char_traits@D@_STL@@V?$allocator@D@2@@_STL@@AAEXPBD0@Z ENDP ; _STL::basic_string<char,_STL::char_traits<char>,_STL::allocator<char> >::_M_range_initialize<char const *>
_TEXT	ENDS
PUBLIC	?_M_initialize_map@?$_Deque_base@PAVPacket@@V?$allocator@PAVPacket@@@_STL@@@_STL@@IAEXI@Z ; _STL::_Deque_base<Packet *,_STL::allocator<Packet *> >::_M_initialize_map
;	COMDAT xdata$x
; File c:\stlport-4.6.1\stlport\stl\_deque.h
xdata$x	SEGMENT
$T115735 DD	0ffffffffH
	DD	00H
	DD	0ffffffffH
	DD	00H
$T115737 DD	00H
	DD	00H
	DD	00H
	DD	FLAT:$L115699
$T115736 DD	00H
	DD	00H
	DD	01H
	DD	01H
	DD	FLAT:$T115737
$T115732 DD	019930520H
	DD	02H
	DD	FLAT:$T115735
	DD	01H
	DD	FLAT:$T115736
	DD	2 DUP(00H)
; Function compile flags: /Ogsy
; File c:\stlport-4.6.1\stlport\stl\_deque.c
xdata$x	ENDS
;	COMDAT ?_M_initialize_map@?$_Deque_base@PAVPacket@@V?$allocator@PAVPacket@@@_STL@@@_STL@@IAEXI@Z
_TEXT	SEGMENT
_this$ = -28						; size = 4
$T115697 = -24						; size = 4
$T115696 = -20						; size = 4
__$EHRec$ = -16						; size = 16
___num_elements$ = 8					; size = 4
?_M_initialize_map@?$_Deque_base@PAVPacket@@V?$allocator@PAVPacket@@@_STL@@@_STL@@IAEXI@Z PROC NEAR ; _STL::_Deque_base<Packet *,_STL::allocator<Packet *> >::_M_initialize_map, COMDAT
; _this$ = ecx

; 48   : {

  00000	b8 00 00 00 00	 mov	 eax, __ehhandler$?_M_initialize_map@?$_Deque_base@PAVPacket@@V?$allocator@PAVPacket@@@_STL@@@_STL@@IAEXI@Z
  00005	e8 00 00 00 00	 call	 __EH_prolog
  0000a	83 ec 10	 sub	 esp, 16			; 00000010H
  0000d	53		 push	 ebx

; 49   :   size_t __num_nodes = 
; 50   :     __num_elements / this->buffer_size() + 1 ;

  0000e	8b 5d 08	 mov	 ebx, DWORD PTR ___num_elements$[ebp]
  00011	56		 push	 esi
  00012	57		 push	 edi
  00013	c1 eb 05	 shr	 ebx, 5
  00016	89 65 f0	 mov	 DWORD PTR __$EHRec$[ebp], esp
  00019	43		 inc	 ebx
  0001a	8b f1		 mov	 esi, ecx

; 51   : 
; 52   :   _M_map_size._M_data = (max)((size_t) _S_initial_map_size, __num_nodes + 2);

  0001c	8d 43 02	 lea	 eax, DWORD PTR [ebx+2]
  0001f	6a 08		 push	 8
  00021	59		 pop	 ecx
  00022	89 45 ec	 mov	 DWORD PTR $T115696[ebp], eax
  00025	3b c1		 cmp	 eax, ecx
  00027	89 75 e4	 mov	 DWORD PTR _this$[ebp], esi
  0002a	89 4d e8	 mov	 DWORD PTR $T115697[ebp], ecx
  0002d	8d 45 ec	 lea	 eax, DWORD PTR $T115696[ebp]
  00030	77 03		 ja	 SHORT $L115711
  00032	8d 45 e8	 lea	 eax, DWORD PTR $T115697[ebp]
$L115711:
  00035	8b 00		 mov	 eax, DWORD PTR [eax]

; 53   :   _M_map._M_data = _M_map.allocate(_M_map_size._M_data);

  00037	85 c0		 test	 eax, eax
  00039	89 46 24	 mov	 DWORD PTR [esi+36], eax
  0003c	74 0c		 je	 SHORT $L115716
  0003e	c1 e0 02	 shl	 eax, 2
  00041	50		 push	 eax
  00042	e8 00 00 00 00	 call	 ?allocate@?$__node_alloc@$00$0A@@_STL@@SAPAXI@Z ; _STL::__node_alloc<1,0>::allocate
  00047	59		 pop	 ecx
  00048	eb 02		 jmp	 SHORT $L115717
$L115716:
  0004a	33 c0		 xor	 eax, eax
$L115717:

; 54   : 
; 55   :   _Tp** __nstart = _M_map._M_data + (_M_map_size._M_data - __num_nodes) / 2;

  0004c	8b 4e 24	 mov	 ecx, DWORD PTR [esi+36]

; 56   :   _Tp** __nfinish = __nstart + __num_nodes;
; 57   :     
; 58   :   _STLP_TRY {

  0004f	83 65 fc 00	 and	 DWORD PTR __$EHRec$[ebp+12], 0
  00053	2b cb		 sub	 ecx, ebx
  00055	d1 e9		 shr	 ecx, 1
  00057	8d 3c 88	 lea	 edi, DWORD PTR [eax+ecx*4]
  0005a	8d 1c 9f	 lea	 ebx, DWORD PTR [edi+ebx*4]

; 59   :     _M_create_nodes(__nstart, __nfinish);

  0005d	53		 push	 ebx
  0005e	57		 push	 edi
  0005f	8b ce		 mov	 ecx, esi
  00061	89 46 20	 mov	 DWORD PTR [esi+32], eax
  00064	e8 00 00 00 00	 call	 ?_M_create_nodes@?$_Deque_base@PAVPacket@@V?$allocator@PAVPacket@@@_STL@@@_STL@@IAEXPAPAPAVPacket@@0@Z ; _STL::_Deque_base<Packet *,_STL::allocator<Packet *> >::_M_create_nodes

; 62   :                 _M_map._M_data = 0, _M_map_size._M_data = 0));
; 63   :   _M_start._M_set_node(__nstart);

  00069	89 7e 0c	 mov	 DWORD PTR [esi+12], edi
  0006c	8b 3f		 mov	 edi, DWORD PTR [edi]
  0006e	89 7e 04	 mov	 DWORD PTR [esi+4], edi
  00071	81 c7 80 00 00
	00		 add	 edi, 128		; 00000080H
  00077	89 7e 08	 mov	 DWORD PTR [esi+8], edi

; 64   :   this->_M_finish._M_set_node(__nfinish - 1);

  0007a	8d 43 fc	 lea	 eax, DWORD PTR [ebx-4]
  0007d	89 46 1c	 mov	 DWORD PTR [esi+28], eax
  00080	8b 00		 mov	 eax, DWORD PTR [eax]
  00082	89 46 14	 mov	 DWORD PTR [esi+20], eax
  00085	05 80 00 00 00	 add	 eax, 128		; 00000080H
  0008a	89 46 18	 mov	 DWORD PTR [esi+24], eax

; 65   :   _M_start._M_cur = _M_start._M_first;

  0008d	8b 46 04	 mov	 eax, DWORD PTR [esi+4]

; 66   :   this->_M_finish._M_cur = this->_M_finish._M_first +
; 67   :                __num_elements % this->buffer_size();

  00090	8b 4e 14	 mov	 ecx, DWORD PTR [esi+20]
  00093	89 06		 mov	 DWORD PTR [esi], eax
  00095	8b 45 08	 mov	 eax, DWORD PTR ___num_elements$[ebp]
  00098	83 e0 1f	 and	 eax, 31			; 0000001fH
  0009b	8d 04 81	 lea	 eax, DWORD PTR [ecx+eax*4]

; 68   : }

  0009e	8b 4d f4	 mov	 ecx, DWORD PTR __$EHRec$[ebp+4]
  000a1	5f		 pop	 edi
  000a2	89 46 10	 mov	 DWORD PTR [esi+16], eax
  000a5	5e		 pop	 esi
  000a6	64 89 0d 00 00
	00 00		 mov	 DWORD PTR fs:__except_list, ecx
  000ad	5b		 pop	 ebx
  000ae	c9		 leave
  000af	c2 04 00	 ret	 4
$L115699:

; 60   :   }
; 61   :   _STLP_UNWIND((_M_map.deallocate(_M_map._M_data, _M_map_size._M_data), 

  000b2	8b 7d e4	 mov	 edi, DWORD PTR _this$[ebp]
  000b5	ff 77 24	 push	 DWORD PTR [edi+36]
  000b8	8d 77 20	 lea	 esi, DWORD PTR [edi+32]
  000bb	ff 36		 push	 DWORD PTR [esi]
  000bd	8b ce		 mov	 ecx, esi
  000bf	e8 00 00 00 00	 call	 ?deallocate@?$allocator@PAPAVPacket@@@_STL@@QAEXPAPAPAVPacket@@I@Z ; _STL::allocator<Packet * *>::deallocate
  000c4	33 c0		 xor	 eax, eax
  000c6	50		 push	 eax
  000c7	50		 push	 eax
  000c8	89 06		 mov	 DWORD PTR [esi], eax
  000ca	89 47 24	 mov	 DWORD PTR [edi+36], eax
  000cd	e8 00 00 00 00	 call	 __CxxThrowException@8
$L115738:
$L115734:
  000d2	cc		 int	 3
_TEXT	ENDS
;	COMDAT text$x
text$x	SEGMENT
__ehhandler$?_M_initialize_map@?$_Deque_base@PAVPacket@@V?$allocator@PAVPacket@@@_STL@@@_STL@@IAEXI@Z:
  00000	b8 00 00 00 00	 mov	 eax, OFFSET FLAT:$T115732
  00005	e9 00 00 00 00	 jmp	 ___CxxFrameHandler
text$x	ENDS
?_M_initialize_map@?$_Deque_base@PAVPacket@@V?$allocator@PAVPacket@@@_STL@@@_STL@@IAEXI@Z ENDP ; _STL::_Deque_base<Packet *,_STL::allocator<Packet *> >::_M_initialize_map
PUBLIC	?_M_reallocate_map@?$deque@PAVPacket@@V?$allocator@PAVPacket@@@_STL@@@_STL@@IAEXI_N@Z ; _STL::deque<Packet *,_STL::allocator<Packet *> >::_M_reallocate_map
; Function compile flags: /Ogsy
;	COMDAT ?_M_reallocate_map@?$deque@PAVPacket@@V?$allocator@PAVPacket@@@_STL@@@_STL@@IAEXI_N@Z
_TEXT	SEGMENT
___new_map_size$113330 = -8				; size = 4
___new_map$113332 = -4					; size = 4
___nodes_to_add$ = 8					; size = 4
___add_at_front$ = 12					; size = 1
?_M_reallocate_map@?$deque@PAVPacket@@V?$allocator@PAVPacket@@@_STL@@@_STL@@IAEXI_N@Z PROC NEAR ; _STL::deque<Packet *,_STL::allocator<Packet *> >::_M_reallocate_map, COMDAT
; _this$ = ecx

; 632  : {

  00000	55		 push	 ebp
  00001	8b ec		 mov	 ebp, esp
  00003	51		 push	 ecx
  00004	51		 push	 ecx
  00005	53		 push	 ebx
  00006	56		 push	 esi
  00007	8b f1		 mov	 esi, ecx

; 633  :   size_type __old_num_nodes = this->_M_finish._M_node - this->_M_start._M_node + 1;

  00009	8b 46 0c	 mov	 eax, DWORD PTR [esi+12]
  0000c	8b 5e 1c	 mov	 ebx, DWORD PTR [esi+28]
  0000f	2b d8		 sub	 ebx, eax

; 634  :   size_type __new_num_nodes = __old_num_nodes + __nodes_to_add;

  00011	8b 45 08	 mov	 eax, DWORD PTR ___nodes_to_add$[ebp]
  00014	c1 fb 02	 sar	 ebx, 2
  00017	43		 inc	 ebx
  00018	57		 push	 edi
  00019	8d 3c 03	 lea	 edi, DWORD PTR [ebx+eax]

; 635  : 
; 636  :   _Map_pointer __new_nstart;
; 637  :   if (this->_M_map_size._M_data > 2 * __new_num_nodes) {

  0001c	8d 4e 24	 lea	 ecx, DWORD PTR [esi+36]
  0001f	8b 01		 mov	 eax, DWORD PTR [ecx]
  00021	8d 14 3f	 lea	 edx, DWORD PTR [edi+edi]
  00024	3b c2		 cmp	 eax, edx
  00026	76 46		 jbe	 SHORT $L113312

; 638  :     __new_nstart = this->_M_map._M_data + (this->_M_map_size._M_data - __new_num_nodes) / 2 
; 639  :                      + (__add_at_front ? __nodes_to_add : 0);

  00028	8a 4d 0c	 mov	 cl, BYTE PTR ___add_at_front$[ebp]
  0002b	2b c7		 sub	 eax, edi
  0002d	d1 e8		 shr	 eax, 1
  0002f	f6 d9		 neg	 cl
  00031	1b c9		 sbb	 ecx, ecx
  00033	23 4d 08	 and	 ecx, DWORD PTR ___nodes_to_add$[ebp]
  00036	03 c1		 add	 eax, ecx
  00038	8b 4e 20	 mov	 ecx, DWORD PTR [esi+32]
  0003b	8d 3c 81	 lea	 edi, DWORD PTR [ecx+eax*4]

; 640  :     if (__new_nstart < this->_M_start._M_node)

  0003e	8b 4e 0c	 mov	 ecx, DWORD PTR [esi+12]
  00041	3b f9		 cmp	 edi, ecx
  00043	73 16		 jae	 SHORT $L113313

; 641  :       copy(this->_M_start._M_node, this->_M_finish._M_node + 1, __new_nstart);

  00045	8b 46 1c	 mov	 eax, DWORD PTR [esi+28]
  00048	57		 push	 edi
  00049	83 c0 04	 add	 eax, 4
  0004c	50		 push	 eax
  0004d	51		 push	 ecx
  0004e	e8 00 00 00 00	 call	 ?__copy_trivial@_STL@@YAPAXPBX0PAX@Z ; _STL::__copy_trivial
$L115933:
  00053	83 c4 0c	 add	 esp, 12			; 0000000cH

; 642  :     else

  00056	e9 82 00 00 00	 jmp	 $L113329
$L113313:

; 643  :       copy_backward(this->_M_start._M_node, this->_M_finish._M_node + 1, 
; 644  :                     __new_nstart + __old_num_nodes);

  0005b	8d 04 9f	 lea	 eax, DWORD PTR [edi+ebx*4]
  0005e	50		 push	 eax
  0005f	8b 46 1c	 mov	 eax, DWORD PTR [esi+28]
  00062	83 c0 04	 add	 eax, 4
  00065	50		 push	 eax
  00066	51		 push	 ecx
  00067	e8 00 00 00 00	 call	 ?__copy_trivial_backward@_STL@@YAPAXPBX0PAX@Z ; _STL::__copy_trivial_backward

; 645  :   }
; 646  :   else {

  0006c	eb e5		 jmp	 SHORT $L115933
$L113312:

; 647  :     size_type __new_map_size = 
; 648  :       this->_M_map_size._M_data + (max)((size_t)this->_M_map_size._M_data, __nodes_to_add) + 2;

  0006e	8b 11		 mov	 edx, DWORD PTR [ecx]
  00070	3b 55 08	 cmp	 edx, DWORD PTR ___nodes_to_add$[ebp]
  00073	73 03		 jae	 SHORT $L115860
  00075	8d 4d 08	 lea	 ecx, DWORD PTR ___nodes_to_add$[ebp]
$L115860:
  00078	8b 09		 mov	 ecx, DWORD PTR [ecx]
  0007a	8d 44 01 02	 lea	 eax, DWORD PTR [ecx+eax+2]

; 649  : 
; 650  :     _Map_pointer __new_map = this->_M_map.allocate(__new_map_size);

  0007e	85 c0		 test	 eax, eax
  00080	89 45 f8	 mov	 DWORD PTR ___new_map_size$113330[ebp], eax
  00083	74 12		 je	 SHORT $L115867
  00085	c1 e0 02	 shl	 eax, 2
  00088	50		 push	 eax
  00089	e8 00 00 00 00	 call	 ?allocate@?$__node_alloc@$00$0A@@_STL@@SAPAXI@Z ; _STL::__node_alloc<1,0>::allocate
  0008e	89 45 fc	 mov	 DWORD PTR ___new_map$113332[ebp], eax
  00091	8b 45 f8	 mov	 eax, DWORD PTR ___new_map_size$113330[ebp]
  00094	59		 pop	 ecx
  00095	eb 04		 jmp	 SHORT $L115868
$L115867:
  00097	83 65 fc 00	 and	 DWORD PTR ___new_map$113332[ebp], 0
$L115868:

; 651  :     __new_nstart = __new_map + (__new_map_size - __new_num_nodes) / 2
; 652  :                          + (__add_at_front ? __nodes_to_add : 0);

  0009b	8a 4d 0c	 mov	 cl, BYTE PTR ___add_at_front$[ebp]
  0009e	2b c7		 sub	 eax, edi
  000a0	d1 e8		 shr	 eax, 1
  000a2	f6 d9		 neg	 cl
  000a4	1b c9		 sbb	 ecx, ecx
  000a6	23 4d 08	 and	 ecx, DWORD PTR ___nodes_to_add$[ebp]
  000a9	03 c1		 add	 eax, ecx
  000ab	8b 4d fc	 mov	 ecx, DWORD PTR ___new_map$113332[ebp]
  000ae	8d 3c 81	 lea	 edi, DWORD PTR [ecx+eax*4]

; 653  :     copy(this->_M_start._M_node, this->_M_finish._M_node + 1, __new_nstart);

  000b1	8b 46 1c	 mov	 eax, DWORD PTR [esi+28]
  000b4	57		 push	 edi
  000b5	83 c0 04	 add	 eax, 4
  000b8	50		 push	 eax
  000b9	ff 76 0c	 push	 DWORD PTR [esi+12]
  000bc	e8 00 00 00 00	 call	 ?__copy_trivial@_STL@@YAPAXPBX0PAX@Z ; _STL::__copy_trivial
  000c1	83 c4 0c	 add	 esp, 12			; 0000000cH

; 654  :     this->_M_map.deallocate(this->_M_map._M_data, this->_M_map_size._M_data);

  000c4	ff 76 24	 push	 DWORD PTR [esi+36]
  000c7	8d 4e 20	 lea	 ecx, DWORD PTR [esi+32]
  000ca	ff 31		 push	 DWORD PTR [ecx]
  000cc	e8 00 00 00 00	 call	 ?deallocate@?$allocator@PAPAVPacket@@@_STL@@QAEXPAPAPAVPacket@@I@Z ; _STL::allocator<Packet * *>::deallocate

; 655  : 
; 656  :     this->_M_map._M_data = __new_map;

  000d1	8b 45 fc	 mov	 eax, DWORD PTR ___new_map$113332[ebp]
  000d4	89 46 20	 mov	 DWORD PTR [esi+32], eax

; 657  :     this->_M_map_size._M_data = __new_map_size;

  000d7	8b 45 f8	 mov	 eax, DWORD PTR ___new_map_size$113330[ebp]
  000da	89 46 24	 mov	 DWORD PTR [esi+36], eax
$L113329:

; 658  :   }
; 659  : 
; 660  :   this->_M_start._M_set_node(__new_nstart);

  000dd	89 7e 0c	 mov	 DWORD PTR [esi+12], edi
  000e0	8b 07		 mov	 eax, DWORD PTR [edi]
  000e2	89 46 04	 mov	 DWORD PTR [esi+4], eax
  000e5	05 80 00 00 00	 add	 eax, 128		; 00000080H
  000ea	89 46 08	 mov	 DWORD PTR [esi+8], eax

; 661  :   this->_M_finish._M_set_node(__new_nstart + __old_num_nodes - 1);

  000ed	8d 44 9f fc	 lea	 eax, DWORD PTR [edi+ebx*4-4]
  000f1	89 46 1c	 mov	 DWORD PTR [esi+28], eax
  000f4	8b 00		 mov	 eax, DWORD PTR [eax]
  000f6	89 46 14	 mov	 DWORD PTR [esi+20], eax
  000f9	05 80 00 00 00	 add	 eax, 128		; 00000080H
  000fe	5f		 pop	 edi
  000ff	89 46 18	 mov	 DWORD PTR [esi+24], eax
  00102	5e		 pop	 esi
  00103	5b		 pop	 ebx

; 662  : }

  00104	c9		 leave
  00105	c2 08 00	 ret	 8
?_M_reallocate_map@?$deque@PAVPacket@@V?$allocator@PAVPacket@@@_STL@@@_STL@@IAEXI_N@Z ENDP ; _STL::deque<Packet *,_STL::allocator<Packet *> >::_M_reallocate_map
_TEXT	ENDS
PUBLIC	??$uninitialized_copy@PADPAD@_STL@@YAPADPAD00@Z	; _STL::uninitialized_copy<char *,char *>
; Function compile flags: /Ogsy
; File c:\stlport-4.6.1\stlport\stl\_uninitialized.h
;	COMDAT ??$uninitialized_copy@PADPAD@_STL@@YAPADPAD00@Z
_TEXT	SEGMENT
___first$ = 8						; size = 4
___last$ = 12						; size = 4
___result$ = 16						; size = 4
??$uninitialized_copy@PADPAD@_STL@@YAPADPAD00@Z PROC NEAR ; _STL::uninitialized_copy<char *,char *>, COMDAT

; 79   :   return __uninitialized_copy(__first, __last, __result,  _IS_POD_ITER(__result, _ForwardIter));

  00000	e9 00 00 00 00	 jmp	 ?__copy_trivial@_STL@@YAPAXPBX0PAX@Z ; _STL::__copy_trivial
??$uninitialized_copy@PADPAD@_STL@@YAPADPAD00@Z ENDP	; _STL::uninitialized_copy<char *,char *>
_TEXT	ENDS
PUBLIC	??1?$_String_base@DV?$allocator@D@_STL@@@_STL@@QAE@XZ ; _STL::_String_base<char,_STL::allocator<char> >::~_String_base<char,_STL::allocator<char> >
; Function compile flags: /Ogsy
; File c:\stlport-4.6.1\stlport\stl\_string.h
;	COMDAT ??1?$_String_base@DV?$allocator@D@_STL@@@_STL@@QAE@XZ
_TEXT	SEGMENT
??1?$_String_base@DV?$allocator@D@_STL@@@_STL@@QAE@XZ PROC NEAR ; _STL::_String_base<char,_STL::allocator<char> >::~_String_base<char,_STL::allocator<char> >, COMDAT
; _this$ = ecx

; 135  :   ~_String_base() { _M_deallocate_block(); }

  00000	e9 00 00 00 00	 jmp	 ?_M_deallocate_block@?$_String_base@DV?$allocator@D@_STL@@@_STL@@QAEXXZ ; _STL::_String_base<char,_STL::allocator<char> >::_M_deallocate_block
??1?$_String_base@DV?$allocator@D@_STL@@@_STL@@QAE@XZ ENDP ; _STL::_String_base<char,_STL::allocator<char> >::~_String_base<char,_STL::allocator<char> >
_TEXT	ENDS
PUBLIC	??0?$basic_string@DV?$char_traits@D@_STL@@V?$allocator@D@2@@_STL@@QAE@PBDABV?$allocator@D@1@@Z ; _STL::basic_string<char,_STL::char_traits<char>,_STL::allocator<char> >::basic_string<char,_STL::char_traits<char>,_STL::allocator<char> >
;	COMDAT xdata$x
xdata$x	SEGMENT
$T116010 DD	0ffffffffH
	DD	FLAT:$L115997
$T116008 DD	019930520H
	DD	01H
	DD	FLAT:$T116010
	DD	2 DUP(00H)
	DD	2 DUP(00H)
; Function compile flags: /Ogsy
; File c:\stlport-4.6.1\stlport\stl\_string.c
xdata$x	ENDS
;	COMDAT ??0?$basic_string@DV?$char_traits@D@_STL@@V?$allocator@D@2@@_STL@@QAE@PBDABV?$allocator@D@1@@Z
_TEXT	SEGMENT
_this$ = -16						; size = 4
__$EHRec$ = -12						; size = 12
___s$ = 8						; size = 4
$T116004 = 11						; size = 1
___a$ = 12						; size = 4
??0?$basic_string@DV?$char_traits@D@_STL@@V?$allocator@D@2@@_STL@@QAE@PBDABV?$allocator@D@1@@Z PROC NEAR ; _STL::basic_string<char,_STL::char_traits<char>,_STL::allocator<char> >::basic_string<char,_STL::char_traits<char>,_STL::allocator<char> >, COMDAT
; _this$ = ecx

; 552  : { 

  00000	b8 00 00 00 00	 mov	 eax, __ehhandler$??0?$basic_string@DV?$char_traits@D@_STL@@V?$allocator@D@2@@_STL@@QAE@PBDABV?$allocator@D@1@@Z
  00005	e8 00 00 00 00	 call	 __EH_prolog
  0000a	51		 push	 ecx
  0000b	56		 push	 esi
  0000c	ff 75 0c	 push	 DWORD PTR ___a$[ebp]
  0000f	8b f1		 mov	 esi, ecx
  00011	89 75 f0	 mov	 DWORD PTR _this$[ebp], esi
  00014	e8 00 00 00 00	 call	 ??0?$_String_base@DV?$allocator@D@_STL@@@_STL@@QAE@ABV?$allocator@D@1@@Z ; _STL::_String_base<char,_STL::allocator<char> >::_String_base<char,_STL::allocator<char> >

; 553  :   _STLP_FIX_LITERAL_BUG(__s) 
; 554  :     _M_range_initialize(__s, __s + traits_type::length(__s));  

  00019	ff 75 08	 push	 DWORD PTR ___s$[ebp]
  0001c	83 65 fc 00	 and	 DWORD PTR __$EHRec$[ebp+8], 0
  00020	e8 00 00 00 00	 call	 _strlen
  00025	03 45 08	 add	 eax, DWORD PTR ___s$[ebp]
  00028	59		 pop	 ecx
  00029	8d 4d 0b	 lea	 ecx, DWORD PTR $T116004[ebp]
  0002c	51		 push	 ecx
  0002d	50		 push	 eax
  0002e	ff 75 08	 push	 DWORD PTR ___s$[ebp]
  00031	8b ce		 mov	 ecx, esi
  00033	e8 00 00 00 00	 call	 ??$_M_range_initialize@PBD@?$basic_string@DV?$char_traits@D@_STL@@V?$allocator@D@2@@_STL@@AAEXPBD0ABUforward_iterator_tag@1@@Z ; _STL::basic_string<char,_STL::char_traits<char>,_STL::allocator<char> >::_M_range_initialize<char const *>

; 555  : } 

  00038	8b 4d f4	 mov	 ecx, DWORD PTR __$EHRec$[ebp]
  0003b	8b c6		 mov	 eax, esi
  0003d	5e		 pop	 esi
  0003e	64 89 0d 00 00
	00 00		 mov	 DWORD PTR fs:__except_list, ecx
  00045	c9		 leave
  00046	c2 08 00	 ret	 8
_TEXT	ENDS
;	COMDAT text$x
text$x	SEGMENT
$L115997:
  00000	8b 4d f0	 mov	 ecx, DWORD PTR _this$[ebp]
  00003	e9 00 00 00 00	 jmp	 ??1?$_String_base@DV?$allocator@D@_STL@@@_STL@@QAE@XZ ; _STL::_String_base<char,_STL::allocator<char> >::~_String_base<char,_STL::allocator<char> >
__ehhandler$??0?$basic_string@DV?$char_traits@D@_STL@@V?$allocator@D@2@@_STL@@QAE@PBDABV?$allocator@D@1@@Z:
  00008	b8 00 00 00 00	 mov	 eax, OFFSET FLAT:$T116008
  0000d	e9 00 00 00 00	 jmp	 ___CxxFrameHandler
text$x	ENDS
??0?$basic_string@DV?$char_traits@D@_STL@@V?$allocator@D@2@@_STL@@QAE@PBDABV?$allocator@D@1@@Z ENDP ; _STL::basic_string<char,_STL::char_traits<char>,_STL::allocator<char> >::basic_string<char,_STL::char_traits<char>,_STL::allocator<char> >
PUBLIC	??0?$basic_string@DV?$char_traits@D@_STL@@V?$allocator@D@2@@_STL@@QAE@XZ ; _STL::basic_string<char,_STL::char_traits<char>,_STL::allocator<char> >::basic_string<char,_STL::char_traits<char>,_STL::allocator<char> >
;	COMDAT xdata$x
; File c:\stlport-4.6.1\stlport\stl\_string.h
xdata$x	SEGMENT
$T116061 DD	0ffffffffH
	DD	FLAT:$L116016
$T116059 DD	019930520H
	DD	01H
	DD	FLAT:$T116061
	DD	2 DUP(00H)
	DD	2 DUP(00H)
; Function compile flags: /Ogsy
; File c:\stlport-4.6.1\stlport\stl\_string.c
xdata$x	ENDS
;	COMDAT ??0?$basic_string@DV?$char_traits@D@_STL@@V?$allocator@D@2@@_STL@@QAE@XZ
_TEXT	SEGMENT
_this$ = -20						; size = 4
$T116015 = -13						; size = 1
__$EHRec$ = -12						; size = 12
??0?$basic_string@DV?$char_traits@D@_STL@@V?$allocator@D@2@@_STL@@QAE@XZ PROC NEAR ; _STL::basic_string<char,_STL::char_traits<char>,_STL::allocator<char> >::basic_string<char,_STL::char_traits<char>,_STL::allocator<char> >, COMDAT
; _this$ = ecx

; 541  :   : _String_base<_CharT,_Alloc>(allocator_type()) {  

  00000	b8 00 00 00 00	 mov	 eax, __ehhandler$??0?$basic_string@DV?$char_traits@D@_STL@@V?$allocator@D@2@@_STL@@QAE@XZ
  00005	e8 00 00 00 00	 call	 __EH_prolog
  0000a	51		 push	 ecx
  0000b	51		 push	 ecx
  0000c	56		 push	 esi
  0000d	8d 45 f3	 lea	 eax, DWORD PTR $T116015[ebp]
  00010	8b f1		 mov	 esi, ecx
  00012	50		 push	 eax
  00013	89 75 ec	 mov	 DWORD PTR _this$[ebp], esi
  00016	e8 00 00 00 00	 call	 ??0?$_String_base@DV?$allocator@D@_STL@@@_STL@@QAE@ABV?$allocator@D@1@@Z ; _STL::_String_base<char,_STL::allocator<char> >::_String_base<char,_STL::allocator<char> >
  0001b	83 65 fc 00	 and	 DWORD PTR __$EHRec$[ebp+8], 0

; 542  :   this->_M_start = this->_M_end_of_storage.allocate(8); 

  0001f	6a 08		 push	 8
  00021	e8 00 00 00 00	 call	 ?_M_allocate@?$__node_alloc@$00$0A@@_STL@@CAPAXI@Z ; _STL::__node_alloc<1,0>::_M_allocate
  00026	59		 pop	 ecx

; 543  :   this->_M_finish = this->_M_start; 
; 544  :   this->_M_end_of_storage._M_data = this->_M_start + 8; 

  00027	8d 48 08	 lea	 ecx, DWORD PTR [eax+8]
  0002a	89 06		 mov	 DWORD PTR [esi], eax
  0002c	89 46 04	 mov	 DWORD PTR [esi+4], eax
  0002f	89 4e 08	 mov	 DWORD PTR [esi+8], ecx

; 545  :   _M_terminate_string();  
; 546  : } 

  00032	8b 4d f4	 mov	 ecx, DWORD PTR __$EHRec$[ebp]
  00035	c6 00 00	 mov	 BYTE PTR [eax], 0
  00038	8b c6		 mov	 eax, esi
  0003a	5e		 pop	 esi
  0003b	64 89 0d 00 00
	00 00		 mov	 DWORD PTR fs:__except_list, ecx
  00042	c9		 leave
  00043	c3		 ret	 0
_TEXT	ENDS
;	COMDAT text$x
text$x	SEGMENT
$L116016:
  00000	8b 4d ec	 mov	 ecx, DWORD PTR _this$[ebp]
  00003	e9 00 00 00 00	 jmp	 ??1?$_String_base@DV?$allocator@D@_STL@@@_STL@@QAE@XZ ; _STL::_String_base<char,_STL::allocator<char> >::~_String_base<char,_STL::allocator<char> >
__ehhandler$??0?$basic_string@DV?$char_traits@D@_STL@@V?$allocator@D@2@@_STL@@QAE@XZ:
  00008	b8 00 00 00 00	 mov	 eax, OFFSET FLAT:$T116059
  0000d	e9 00 00 00 00	 jmp	 ___CxxFrameHandler
text$x	ENDS
??0?$basic_string@DV?$char_traits@D@_STL@@V?$allocator@D@2@@_STL@@QAE@XZ ENDP ; _STL::basic_string<char,_STL::char_traits<char>,_STL::allocator<char> >::basic_string<char,_STL::char_traits<char>,_STL::allocator<char> >
PUBLIC	??A?$deque@PAVPacket@@V?$allocator@PAVPacket@@@_STL@@@_STL@@QAEAAPAVPacket@@I@Z ; _STL::deque<Packet *,_STL::allocator<Packet *> >::operator[]
; Function compile flags: /Ogsy
; File c:\stlport-4.6.1\stlport\stl\_deque.h
;	COMDAT ??A?$deque@PAVPacket@@V?$allocator@PAVPacket@@@_STL@@@_STL@@QAEAAPAVPacket@@I@Z
_TEXT	SEGMENT
___n$ = 8						; size = 4
??A?$deque@PAVPacket@@V?$allocator@PAVPacket@@@_STL@@@_STL@@QAEAAPAVPacket@@I@Z PROC NEAR ; _STL::deque<Packet *,_STL::allocator<Packet *> >::operator[], COMDAT
; _this$ = ecx

; 400  :     { return this->_M_start[difference_type(__n)]; }

  00000	e9 00 00 00 00	 jmp	 ??A?$_Deque_iterator@PAVPacket@@U?$_Nonconst_traits@PAVPacket@@@_STL@@@_STL@@QBEAAPAVPacket@@H@Z ; _STL::_Deque_iterator<Packet *,_STL::_Nonconst_traits<Packet *> >::operator[]
??A?$deque@PAVPacket@@V?$allocator@PAVPacket@@@_STL@@@_STL@@QAEAAPAVPacket@@I@Z ENDP ; _STL::deque<Packet *,_STL::allocator<Packet *> >::operator[]
_TEXT	ENDS
PUBLIC	??0?$_Deque_base@PAVPacket@@V?$allocator@PAVPacket@@@_STL@@@_STL@@QAE@ABV?$allocator@PAVPacket@@@1@I@Z ; _STL::_Deque_base<Packet *,_STL::allocator<Packet *> >::_Deque_base<Packet *,_STL::allocator<Packet *> >
; Function compile flags: /Ogsy
;	COMDAT ??0?$_Deque_base@PAVPacket@@V?$allocator@PAVPacket@@@_STL@@@_STL@@QAE@ABV?$allocator@PAVPacket@@@1@I@Z
_TEXT	SEGMENT
___a$ = 8						; size = 4
$T116070 = 11						; size = 1
___num_elements$ = 12					; size = 4
??0?$_Deque_base@PAVPacket@@V?$allocator@PAVPacket@@@_STL@@@_STL@@QAE@ABV?$allocator@PAVPacket@@@1@I@Z PROC NEAR ; _STL::_Deque_base<Packet *,_STL::allocator<Packet *> >::_Deque_base<Packet *,_STL::allocator<Packet *> >, COMDAT
; _this$ = ecx

; 336  :       _M_map_size(__a, (size_t)0) {

  00000	55		 push	 ebp
  00001	8b ec		 mov	 ebp, esp
  00003	56		 push	 esi
  00004	8b f1		 mov	 esi, ecx
  00006	57		 push	 edi
  00007	33 ff		 xor	 edi, edi
  00009	89 3e		 mov	 DWORD PTR [esi], edi
  0000b	89 7e 04	 mov	 DWORD PTR [esi+4], edi
  0000e	89 7e 08	 mov	 DWORD PTR [esi+8], edi
  00011	89 7e 0c	 mov	 DWORD PTR [esi+12], edi
  00014	57		 push	 edi
  00015	8d 45 0b	 lea	 eax, DWORD PTR $T116070[ebp]
  00018	50		 push	 eax
  00019	8d 4e 20	 lea	 ecx, DWORD PTR [esi+32]
  0001c	89 7e 10	 mov	 DWORD PTR [esi+16], edi
  0001f	89 7e 14	 mov	 DWORD PTR [esi+20], edi
  00022	89 7e 18	 mov	 DWORD PTR [esi+24], edi
  00025	89 7e 1c	 mov	 DWORD PTR [esi+28], edi
  00028	e8 00 00 00 00	 call	 ??0?$_STLP_alloc_proxy@PAPAPAVPacket@@PAPAV1@V?$allocator@PAPAVPacket@@@_STL@@@_STL@@QAE@ABV?$allocator@PAPAVPacket@@@1@PAPAPAVPacket@@@Z ; _STL::_STLP_alloc_proxy<Packet * * *,Packet * *,_STL::allocator<Packet * *> >::_STLP_alloc_proxy<Packet * * *,Packet * *,_STL::allocator<Packet * *> >
  0002d	57		 push	 edi
  0002e	ff 75 08	 push	 DWORD PTR ___a$[ebp]
  00031	8d 4e 24	 lea	 ecx, DWORD PTR [esi+36]
  00034	e8 00 00 00 00	 call	 ??0?$_STLP_alloc_proxy@IPAVPacket@@V?$allocator@PAVPacket@@@_STL@@@_STL@@QAE@ABV?$allocator@PAVPacket@@@1@I@Z ; _STL::_STLP_alloc_proxy<unsigned int,Packet *,_STL::allocator<Packet *> >::_STLP_alloc_proxy<unsigned int,Packet *,_STL::allocator<Packet *> >

; 337  : 	_M_initialize_map(__num_elements);

  00039	ff 75 0c	 push	 DWORD PTR ___num_elements$[ebp]
  0003c	8b ce		 mov	 ecx, esi
  0003e	e8 00 00 00 00	 call	 ?_M_initialize_map@?$_Deque_base@PAVPacket@@V?$allocator@PAVPacket@@@_STL@@@_STL@@IAEXI@Z ; _STL::_Deque_base<Packet *,_STL::allocator<Packet *> >::_M_initialize_map
  00043	5f		 pop	 edi

; 338  :   }

  00044	8b c6		 mov	 eax, esi
  00046	5e		 pop	 esi
  00047	5d		 pop	 ebp
  00048	c2 08 00	 ret	 8
??0?$_Deque_base@PAVPacket@@V?$allocator@PAVPacket@@@_STL@@@_STL@@QAE@ABV?$allocator@PAVPacket@@@1@I@Z ENDP ; _STL::_Deque_base<Packet *,_STL::allocator<Packet *> >::_Deque_base<Packet *,_STL::allocator<Packet *> >
_TEXT	ENDS
PUBLIC	?_M_reserve_map_at_back@?$deque@PAVPacket@@V?$allocator@PAVPacket@@@_STL@@@_STL@@IAEXI@Z ; _STL::deque<Packet *,_STL::allocator<Packet *> >::_M_reserve_map_at_back
; Function compile flags: /Ogsy
;	COMDAT ?_M_reserve_map_at_back@?$deque@PAVPacket@@V?$allocator@PAVPacket@@@_STL@@@_STL@@IAEXI@Z
_TEXT	SEGMENT
___nodes_to_add$ = 8					; size = 4
?_M_reserve_map_at_back@?$deque@PAVPacket@@V?$allocator@PAVPacket@@@_STL@@@_STL@@IAEXI@Z PROC NEAR ; _STL::deque<Packet *,_STL::allocator<Packet *> >::_M_reserve_map_at_back, COMDAT
; _this$ = ecx

; 910  :     if (__nodes_to_add + 1 > this->_M_map_size._M_data - (this->_M_finish._M_node - this->_M_map._M_data))

  00000	8b 41 1c	 mov	 eax, DWORD PTR [ecx+28]
  00003	2b 41 20	 sub	 eax, DWORD PTR [ecx+32]
  00006	8b 51 24	 mov	 edx, DWORD PTR [ecx+36]
  00009	c1 f8 02	 sar	 eax, 2
  0000c	2b d0		 sub	 edx, eax
  0000e	8b 44 24 04	 mov	 eax, DWORD PTR ___nodes_to_add$[esp-4]
  00012	56		 push	 esi
  00013	8d 70 01	 lea	 esi, DWORD PTR [eax+1]
  00016	3b f2		 cmp	 esi, edx
  00018	5e		 pop	 esi
  00019	76 08		 jbe	 SHORT $L113046

; 911  :       _M_reallocate_map(__nodes_to_add, false);

  0001b	6a 00		 push	 0
  0001d	50		 push	 eax
  0001e	e8 00 00 00 00	 call	 ?_M_reallocate_map@?$deque@PAVPacket@@V?$allocator@PAVPacket@@@_STL@@@_STL@@IAEXI_N@Z ; _STL::deque<Packet *,_STL::allocator<Packet *> >::_M_reallocate_map
$L113046:

; 912  :   }

  00023	c2 04 00	 ret	 4
?_M_reserve_map_at_back@?$deque@PAVPacket@@V?$allocator@PAVPacket@@@_STL@@@_STL@@IAEXI@Z ENDP ; _STL::deque<Packet *,_STL::allocator<Packet *> >::_M_reserve_map_at_back
_TEXT	ENDS
PUBLIC	??$_M_range_initialize@PAD@?$basic_string@DV?$char_traits@D@_STL@@V?$allocator@D@2@@_STL@@AAEXPAD0ABUforward_iterator_tag@1@@Z ; _STL::basic_string<char,_STL::char_traits<char>,_STL::allocator<char> >::_M_range_initialize<char *>
; Function compile flags: /Ogsy
; File c:\stlport-4.6.1\stlport\stl\_string.h
;	COMDAT ??$_M_range_initialize@PAD@?$basic_string@DV?$char_traits@D@_STL@@V?$allocator@D@2@@_STL@@AAEXPAD0ABUforward_iterator_tag@1@@Z
_TEXT	SEGMENT
___f$ = 8						; size = 4
___l$ = 12						; size = 4
___formal$ = 16						; size = 4
??$_M_range_initialize@PAD@?$basic_string@DV?$char_traits@D@_STL@@V?$allocator@D@2@@_STL@@AAEXPAD0ABUforward_iterator_tag@1@@Z PROC NEAR ; _STL::basic_string<char,_STL::char_traits<char>,_STL::allocator<char> >::_M_range_initialize<char *>, COMDAT
; _this$ = ecx

; 383  :                            const forward_iterator_tag &) {
; 384  :     difference_type __n = distance(__f, __l);
; 385  :     this->_M_allocate_block(__n + 1);

  00000	8b 44 24 08	 mov	 eax, DWORD PTR ___l$[esp-4]
  00004	2b 44 24 04	 sub	 eax, DWORD PTR ___f$[esp-4]
  00008	56		 push	 esi
  00009	40		 inc	 eax
  0000a	50		 push	 eax
  0000b	8b f1		 mov	 esi, ecx
  0000d	e8 00 00 00 00	 call	 ?_M_allocate_block@?$_String_base@DV?$allocator@D@_STL@@@_STL@@QAEXI@Z ; _STL::_String_base<char,_STL::allocator<char> >::_M_allocate_block

; 386  :     this->_M_finish = uninitialized_copy(__f, __l, this->_M_start);

  00012	ff 36		 push	 DWORD PTR [esi]
  00014	ff 74 24 10	 push	 DWORD PTR ___l$[esp+4]
  00018	ff 74 24 10	 push	 DWORD PTR ___f$[esp+8]
  0001c	e8 00 00 00 00	 call	 ?__copy_trivial@_STL@@YAPAXPBX0PAX@Z ; _STL::__copy_trivial
  00021	83 c4 0c	 add	 esp, 12			; 0000000cH
  00024	89 46 04	 mov	 DWORD PTR [esi+4], eax

; 387  :     _M_terminate_string();

  00027	c6 00 00	 mov	 BYTE PTR [eax], 0
  0002a	5e		 pop	 esi

; 388  :   }

  0002b	c2 0c 00	 ret	 12			; 0000000cH
??$_M_range_initialize@PAD@?$basic_string@DV?$char_traits@D@_STL@@V?$allocator@D@2@@_STL@@AAEXPAD0ABUforward_iterator_tag@1@@Z ENDP ; _STL::basic_string<char,_STL::char_traits<char>,_STL::allocator<char> >::_M_range_initialize<char *>
_TEXT	ENDS
PUBLIC	??1?$basic_string@DV?$char_traits@D@_STL@@V?$allocator@D@2@@_STL@@QAE@XZ ; _STL::basic_string<char,_STL::char_traits<char>,_STL::allocator<char> >::~basic_string<char,_STL::char_traits<char>,_STL::allocator<char> >
; Function compile flags: /Ogsy
;	COMDAT ??1?$basic_string@DV?$char_traits@D@_STL@@V?$allocator@D@2@@_STL@@QAE@XZ
_TEXT	SEGMENT
??1?$basic_string@DV?$char_traits@D@_STL@@V?$allocator@D@2@@_STL@@QAE@XZ PROC NEAR ; _STL::basic_string<char,_STL::char_traits<char>,_STL::allocator<char> >::~basic_string<char,_STL::char_traits<char>,_STL::allocator<char> >, COMDAT
; _this$ = ecx

; 305  :   ~basic_string() { _STLP_STD::_Destroy(this->_M_start, this->_M_finish + 1); }

  00000	e9 00 00 00 00	 jmp	 ?_M_deallocate_block@?$_String_base@DV?$allocator@D@_STL@@@_STL@@QAEXXZ ; _STL::_String_base<char,_STL::allocator<char> >::_M_deallocate_block
??1?$basic_string@DV?$char_traits@D@_STL@@V?$allocator@D@2@@_STL@@QAE@XZ ENDP ; _STL::basic_string<char,_STL::char_traits<char>,_STL::allocator<char> >::~basic_string<char,_STL::char_traits<char>,_STL::allocator<char> >
_TEXT	ENDS
PUBLIC	??1ClientPlayer@@UAE@XZ				; ClientPlayer::~ClientPlayer
PUBLIC	?processCommand@ClientPlayer@@UAEXXZ		; ClientPlayer::processCommand
PUBLIC	?disconnect@ClientPlayer@@UAEX_N@Z		; ClientPlayer::disconnect
PUBLIC	?toString@ClientPlayer@@UBE?AV?$basic_string@DV?$char_traits@D@_STL@@V?$allocator@D@2@@_STL@@XZ ; ClientPlayer::toString
PUBLIC	??_R4ClientPlayer@@6B@				; ClientPlayer::`RTTI Complete Object Locator'
PUBLIC	??_R0?AVClientPlayer@@@8			; ClientPlayer `RTTI Type Descriptor'
PUBLIC	??_R3ClientPlayer@@8				; ClientPlayer::`RTTI Class Hierarchy Descriptor'
PUBLIC	??_R2ClientPlayer@@8				; ClientPlayer::`RTTI Base Class Array'
PUBLIC	??_R1A@?0A@A@ClientPlayer@@8			; ClientPlayer::`RTTI Base Class Descriptor at (0,-1,0,0)'
PUBLIC	??_R1A@?0A@A@Player@@8				; Player::`RTTI Base Class Descriptor at (0,-1,0,0)'
PUBLIC	??_R0?AVPlayer@@@8				; Player `RTTI Type Descriptor'
PUBLIC	??_7ClientPlayer@@6B@				; ClientPlayer::`vftable'
PUBLIC	??_GClientPlayer@@UAEPAXI@Z			; ClientPlayer::`scalar deleting destructor'
EXTRN	??1Player@@UAE@XZ:NEAR				; Player::~Player
EXTRN	?processInput@Player@@UAEXXZ:NEAR		; Player::processInput
EXTRN	?processOutput@Player@@UAEXXZ:NEAR		; Player::processOutput
EXTRN	?sendPacket@Player@@UAEXPAVPacket@@@Z:NEAR	; Player::sendPacket
EXTRN	??_EClientPlayer@@UAEPAXI@Z:NEAR		; ClientPlayer::`vector deleting destructor'
;	COMDAT xdata$x
; File c:\stlport-4.6.1\stlport\stl\_alloc.h
xdata$x	SEGMENT
$T116385 DD	0ffffffffH
	DD	FLAT:$L116224
	DD	00H
	DD	FLAT:$L116225
	DD	01H
	DD	FLAT:$L116226
$T116379 DD	019930520H
	DD	03H
	DD	FLAT:$T116385
	DD	2 DUP(00H)
	DD	2 DUP(00H)
xdata$x	ENDS
;	COMDAT ??_7ClientPlayer@@6B@
CONST	SEGMENT
??_7ClientPlayer@@6B@ DD FLAT:??_R4ClientPlayer@@6B@	; ClientPlayer::`vftable'
	DD	FLAT:??_EClientPlayer@@UAEPAXI@Z
	DD	FLAT:?processInput@Player@@UAEXXZ
	DD	FLAT:?processCommand@ClientPlayer@@UAEXXZ
	DD	FLAT:?processOutput@Player@@UAEXXZ
	DD	FLAT:?sendPacket@Player@@UAEXPAVPacket@@@Z
	DD	FLAT:?disconnect@ClientPlayer@@UAEX_N@Z
	DD	FLAT:?toString@ClientPlayer@@UBE?AV?$basic_string@DV?$char_traits@D@_STL@@V?$allocator@D@2@@_STL@@XZ
CONST	ENDS
;	COMDAT ??_R4ClientPlayer@@6B@
rdata$r	SEGMENT
??_R4ClientPlayer@@6B@ DD 00H				; ClientPlayer::`RTTI Complete Object Locator'
	DD	00H
	DD	00H
	DD	FLAT:??_R0?AVClientPlayer@@@8
	DD	FLAT:??_R3ClientPlayer@@8
rdata$r	ENDS
;	COMDAT ??_R0?AVClientPlayer@@@8
_DATA	SEGMENT
??_R0?AVClientPlayer@@@8 DD FLAT:??_7type_info@@6B@	; ClientPlayer `RTTI Type Descriptor'
	DD	00H
	DB	'.?AVClientPlayer@@', 00H
_DATA	ENDS
;	COMDAT ??_R3ClientPlayer@@8
rdata$r	SEGMENT
??_R3ClientPlayer@@8 DD 00H				; ClientPlayer::`RTTI Class Hierarchy Descriptor'
	DD	00H
	DD	02H
	DD	FLAT:??_R2ClientPlayer@@8
rdata$r	ENDS
;	COMDAT ??_R2ClientPlayer@@8
rdata$r	SEGMENT
??_R2ClientPlayer@@8 DD FLAT:??_R1A@?0A@A@ClientPlayer@@8 ; ClientPlayer::`RTTI Base Class Array'
	DD	FLAT:??_R1A@?0A@A@Player@@8
rdata$r	ENDS
;	COMDAT ??_R1A@?0A@A@ClientPlayer@@8
rdata$r	SEGMENT
??_R1A@?0A@A@ClientPlayer@@8 DD FLAT:??_R0?AVClientPlayer@@@8 ; ClientPlayer::`RTTI Base Class Descriptor at (0,-1,0,0)'
	DD	01H
	DD	00H
	DD	0ffffffffH
	DD	00H
	DD	00H
rdata$r	ENDS
;	COMDAT ??_R1A@?0A@A@Player@@8
rdata$r	SEGMENT
??_R1A@?0A@A@Player@@8 DD FLAT:??_R0?AVPlayer@@@8	; Player::`RTTI Base Class Descriptor at (0,-1,0,0)'
	DD	00H
	DD	00H
	DD	0ffffffffH
	DD	00H
	DD	00H
rdata$r	ENDS
;	COMDAT ??_R0?AVPlayer@@@8
_DATA	SEGMENT
??_R0?AVPlayer@@@8 DD FLAT:??_7type_info@@6B@		; Player `RTTI Type Descriptor'
	DD	00H
	DB	'.?AVPlayer@@', 00H
; Function compile flags: /Ogsy
; File c:\darkeden\designed_common\project\client\packet\clientplayer.cpp
_DATA	ENDS
;	COMDAT ??1ClientPlayer@@UAE@XZ
_TEXT	SEGMENT
_this$ = -16						; size = 4
__$EHRec$ = -12						; size = 12
??1ClientPlayer@@UAE@XZ PROC NEAR			; ClientPlayer::~ClientPlayer, COMDAT
; _this$ = ecx

; 128  : {

  00000	b8 00 00 00 00	 mov	 eax, __ehhandler$??1ClientPlayer@@UAE@XZ
  00005	e8 00 00 00 00	 call	 __EH_prolog
  0000a	51		 push	 ecx
  0000b	56		 push	 esi
  0000c	57		 push	 edi
  0000d	8b f9		 mov	 edi, ecx
  0000f	89 7d f0	 mov	 DWORD PTR _this$[ebp], edi
  00012	c7 07 00 00 00
	00		 mov	 DWORD PTR [edi], OFFSET FLAT:??_7ClientPlayer@@6B@
  00018	c7 45 fc 02 00
	00 00		 mov	 DWORD PTR __$EHRec$[ebp+8], 2

; 129  : 	__BEGIN_TRY
; 130  : 		
; 131  : 	//      ,    .
; 132  : 	//      ,     .
; 133  : 	Assert( m_PlayerStatus == CPS_END_SESSION );
; 134  : 
; 135  : 	// delete all previous packets
; 136  : 	while ( ! m_PacketHistory.empty() ) {

  0001f	8d 77 30	 lea	 esi, DWORD PTR [edi+48]
  00022	eb 17		 jmp	 SHORT $L116384
$L111603:

; 137  : 		Packet * pPacket = m_PacketHistory.front();

  00024	8b 06		 mov	 eax, DWORD PTR [esi]

; 138  : 		delete pPacket;

  00026	8b 00		 mov	 eax, DWORD PTR [eax]
  00028	85 c0		 test	 eax, eax
  0002a	74 08		 je	 SHORT $L116222
  0002c	8b 10		 mov	 edx, DWORD PTR [eax]
  0002e	6a 01		 push	 1
  00030	8b c8		 mov	 ecx, eax
  00032	ff 12		 call	 DWORD PTR [edx]
$L116222:

; 139  : 		m_PacketHistory.pop_front();

  00034	8b ce		 mov	 ecx, esi
  00036	e8 00 00 00 00	 call	 ?pop_front@?$deque@PAVPacket@@V?$allocator@PAVPacket@@@_STL@@@_STL@@QAEXXZ ; _STL::deque<Packet *,_STL::allocator<Packet *> >::pop_front
$L116384:
  0003b	8b 46 10	 mov	 eax, DWORD PTR [esi+16]
  0003e	3b 06		 cmp	 eax, DWORD PTR [esi]
  00040	75 e2		 jne	 SHORT $L111603

; 140  : 	}
; 141  : 	
; 142  : 	__END_CATCH
; 143  : }

  00042	8b ce		 mov	 ecx, esi
  00044	c6 45 fc 01	 mov	 BYTE PTR __$EHRec$[ebp+8], 1
  00048	e8 00 00 00 00	 call	 ??1?$_Deque_base@PAVPacket@@V?$allocator@PAVPacket@@@_STL@@@_STL@@QAE@XZ ; _STL::_Deque_base<Packet *,_STL::allocator<Packet *> >::~_Deque_base<Packet *,_STL::allocator<Packet *> >
  0004d	8d 4f 20	 lea	 ecx, DWORD PTR [edi+32]
  00050	c6 45 fc 00	 mov	 BYTE PTR __$EHRec$[ebp+8], 0
  00054	e8 00 00 00 00	 call	 ?_M_deallocate_block@?$_String_base@DV?$allocator@D@_STL@@@_STL@@QAEXXZ ; _STL::_String_base<char,_STL::allocator<char> >::_M_deallocate_block
  00059	83 4d fc ff	 or	 DWORD PTR __$EHRec$[ebp+8], -1
  0005d	8b cf		 mov	 ecx, edi
  0005f	e8 00 00 00 00	 call	 ??1Player@@UAE@XZ	; Player::~Player
  00064	8b 4d f4	 mov	 ecx, DWORD PTR __$EHRec$[ebp]
  00067	5f		 pop	 edi
  00068	64 89 0d 00 00
	00 00		 mov	 DWORD PTR fs:__except_list, ecx
  0006f	5e		 pop	 esi
  00070	c9		 leave
  00071	c3		 ret	 0
_TEXT	ENDS
;	COMDAT text$x
text$x	SEGMENT
$L116224:
  00000	8b 4d f0	 mov	 ecx, DWORD PTR _this$[ebp]
  00003	e9 00 00 00 00	 jmp	 ??1Player@@UAE@XZ	; Player::~Player
$L116225:
  00008	8b 4d f0	 mov	 ecx, DWORD PTR _this$[ebp]
  0000b	83 c1 20	 add	 ecx, 32			; 00000020H
  0000e	e9 00 00 00 00	 jmp	 ??1?$basic_string@DV?$char_traits@D@_STL@@V?$allocator@D@2@@_STL@@QAE@XZ ; _STL::basic_string<char,_STL::char_traits<char>,_STL::allocator<char> >::~basic_string<char,_STL::char_traits<char>,_STL::allocator<char> >
$L116226:
  00013	8b 4d f0	 mov	 ecx, DWORD PTR _this$[ebp]
  00016	83 c1 30	 add	 ecx, 48			; 00000030H
  00019	e9 00 00 00 00	 jmp	 ??1?$deque@PAVPacket@@V?$allocator@PAVPacket@@@_STL@@@_STL@@QAE@XZ ; _STL::deque<Packet *,_STL::allocator<Packet *> >::~deque<Packet *,_STL::allocator<Packet *> >
__ehhandler$??1ClientPlayer@@UAE@XZ:
  0001e	b8 00 00 00 00	 mov	 eax, OFFSET FLAT:$T116379
  00023	e9 00 00 00 00	 jmp	 ___CxxFrameHandler
text$x	ENDS
??1ClientPlayer@@UAE@XZ ENDP				; ClientPlayer::~ClientPlayer
PUBLIC	??_R0?AVThrowable@@@8				; Throwable `RTTI Type Descriptor'
PUBLIC	??_R0?AVConnectException@@@8			; ConnectException `RTTI Type Descriptor'
EXTRN	?flush@SocketOutputStream@@QAEIXZ:NEAR		; SocketOutputStream::flush
;	COMDAT xdata$x
; File c:\darkeden\designed_common\project\client\packet\socket.h
xdata$x	SEGMENT
$T116498 DD	0ffffffffH
	DD	00H
	DD	0ffffffffH
	DD	00H
	DD	0ffffffffH
	DD	00H
	DD	0ffffffffH
	DD	00H
$T116500 DD	08H
	DD	FLAT:??_R0?AVConnectException@@@8
	DD	08H
	DD	FLAT:$L116393
	DD	08H
	DD	FLAT:??_R0?AVThrowable@@@8
	DD	0ffffffe8H
	DD	FLAT:$L116394
$T116501 DD	08H
	DD	FLAT:??_R0?AVThrowable@@@8
	DD	00H
	DD	FLAT:$L116396
$T116499 DD	00H
	DD	00H
	DD	01H
	DD	02H
	DD	FLAT:$T116500
	DD	02H
	DD	02H
	DD	03H
	DD	01H
	DD	FLAT:$T116501
$T116494 DD	019930520H
	DD	04H
	DD	FLAT:$T116498
	DD	02H
	DD	FLAT:$T116499
	DD	2 DUP(00H)
xdata$x	ENDS
;	COMDAT ??_R0?AVConnectException@@@8
_DATA	SEGMENT
??_R0?AVConnectException@@@8 DD FLAT:??_7type_info@@6B@	; ConnectException `RTTI Type Descriptor'
	DD	00H
	DB	'.?AVConnectException@@', 00H
	ORG $-31
	DD	FLAT:??_7type_info@@6B@
	DD	00H
	DB	'.?AVConnectException@@', 00H
_DATA	ENDS
;	COMDAT ??_R0?AVThrowable@@@8
_DATA	SEGMENT
??_R0?AVThrowable@@@8 DD FLAT:??_7type_info@@6B@	; Throwable `RTTI Type Descriptor'
	DD	00H
	DB	'.?AVThrowable@@', 00H
	ORG $-24
	DD	FLAT:??_7type_info@@6B@
	DD	00H
	DB	'.?AVThrowable@@', 00H
; Function compile flags: /Ogsy
; File c:\darkeden\designed_common\project\client\packet\clientplayer.cpp
_DATA	ENDS
;	COMDAT ?disconnect@ClientPlayer@@UAEX_N@Z
_TEXT	SEGMENT
$T116391 = -48						; size = 12
$T116390 = -36						; size = 12
_t$111713 = -24						; size = 4
_this$ = -20						; size = 4
__$EHRec$ = -16						; size = 16
_t$111711 = 8						; size = 4
_bDisconnected$ = 8					; size = 1
?disconnect@ClientPlayer@@UAEX_N@Z PROC NEAR		; ClientPlayer::disconnect, COMDAT
; _this$ = ecx

; 422  : {

  00000	b8 00 00 00 00	 mov	 eax, __ehhandler$?disconnect@ClientPlayer@@UAEX_N@Z
  00005	e8 00 00 00 00	 call	 __EH_prolog
  0000a	83 ec 24	 sub	 esp, 36			; 00000024H

; 423  : 	__BEGIN_TRY
; 424  : 
; 425  : 	if ( bDisconnected == UNDISCONNECTED ) {

  0000d	80 7d 08 01	 cmp	 BYTE PTR _bDisconnected$[ebp], 1
  00011	53		 push	 ebx
  00012	56		 push	 esi
  00013	57		 push	 edi
  00014	8b f1		 mov	 esi, ecx
  00016	89 65 f0	 mov	 DWORD PTR __$EHRec$[ebp], esp
  00019	89 75 ec	 mov	 DWORD PTR _this$[ebp], esi
  0001c	75 59		 jne	 SHORT $L111710

; 426  : 
; 427  : 		//  GCDisconnect  .
; 428  : 		//GCDisconnect gcDisconnect;
; 429  : 		//sendPacket( gcDisconnect );
; 430  : 
; 431  : 		//     .
; 432  : 		try {
; 433  : 			m_pOutputStream->flush();

  0001e	8b 4e 18	 mov	 ecx, DWORD PTR [esi+24]
  00021	83 65 fc 00	 and	 DWORD PTR __$EHRec$[ebp+12], 0
  00025	e8 00 00 00 00	 call	 ?flush@SocketOutputStream@@QAEIXZ ; SocketOutputStream::flush
  0002a	eb 4b		 jmp	 SHORT $L111710
$L116393:

; 434  : 		} catch (ConnectException& t)	{
; 435  : 			DEBUG_ADD_ERR(t.toString().c_str());

  0002c	8b 4d 08	 mov	 ecx, DWORD PTR _t$111711[ebp]
  0002f	8b 01		 mov	 eax, DWORD PTR [ecx]
  00031	8d 55 dc	 lea	 edx, DWORD PTR $T116390[ebp]
  00034	52		 push	 edx
  00035	ff 50 08	 call	 DWORD PTR [eax+8]
  00038	8b 45 e4	 mov	 eax, DWORD PTR $T116390[ebp+8]
  0003b	2b 45 dc	 sub	 eax, DWORD PTR $T116390[ebp]
  0003e	8d 4d e4	 lea	 ecx, DWORD PTR $T116390[ebp+8]
  00041	50		 push	 eax
  00042	ff 75 dc	 push	 DWORD PTR $T116390[ebp]
  00045	e8 00 00 00 00	 call	 ?deallocate@?$allocator@D@_STL@@QAEXPADI@Z ; _STL::allocator<char>::deallocate

; 436  : 		} catch (Throwable& t) {

  0004a	b8 00 00 00 00	 mov	 eax, $L116495
  0004f	c3		 ret	 0
$L116394:

; 437  : 			DEBUG_ADD_ERR(t.toString().c_str());

  00050	8b 4d e8	 mov	 ecx, DWORD PTR _t$111713[ebp]
  00053	8b 01		 mov	 eax, DWORD PTR [ecx]
  00055	8d 55 d0	 lea	 edx, DWORD PTR $T116391[ebp]
  00058	52		 push	 edx
  00059	ff 50 08	 call	 DWORD PTR [eax+8]
  0005c	8b 45 d8	 mov	 eax, DWORD PTR $T116391[ebp+8]
  0005f	2b 45 d0	 sub	 eax, DWORD PTR $T116391[ebp]
  00062	8d 4d d8	 lea	 ecx, DWORD PTR $T116391[ebp+8]
  00065	50		 push	 eax
  00066	ff 75 d0	 push	 DWORD PTR $T116391[ebp]
  00069	e8 00 00 00 00	 call	 ?deallocate@?$allocator@D@_STL@@QAEXPADI@Z ; _STL::allocator<char>::deallocate

; 438  : 		}

  0006e	b8 00 00 00 00	 mov	 eax, $L116495
  00073	c3		 ret	 0
$L116495:
  00074	8b 75 ec	 mov	 esi, DWORD PTR _this$[ebp]
$L111710:

; 439  : 
; 440  : 	}
; 441  : 
; 442  : 	//   .
; 443  : 	try {
; 444  : 		m_pSocket->close();

  00077	8b 46 10	 mov	 eax, DWORD PTR [esi+16]
  0007a	8b 48 04	 mov	 ecx, DWORD PTR [eax+4]
  0007d	c7 45 fc 02 00
	00 00		 mov	 DWORD PTR __$EHRec$[ebp+12], 2
  00084	e8 00 00 00 00	 call	 ?close@SocketImpl@@QAEXXZ ; SocketImpl::close
  00089	eb 09		 jmp	 SHORT $L111715
$L116396:

; 445  : 	} catch (Throwable& ) {
; 446  : 		//  
; 447  : 	}

  0008b	b8 00 00 00 00	 mov	 eax, $L116496
  00090	c3		 ret	 0
$L116496:
  00091	8b 75 ec	 mov	 esi, DWORD PTR _this$[ebp]
$L111715:

; 448  : 
; 449  : 	//    .
; 450  : 	//cout<< "PlayerStatus : " << (int)m_PlayerStatus << endl;
; 451  : 	// 2001.10.5  ....
; 452  : 	//Assert( m_PlayerStatus != CPS_END_SESSION );
; 453  : 	m_PlayerStatus = CPS_END_SESSION;
; 454  : 
; 455  : 	__END_CATCH
; 456  : }

  00094	8b 4d f4	 mov	 ecx, DWORD PTR __$EHRec$[ebp+4]
  00097	5f		 pop	 edi
  00098	c7 46 58 0e 00
	00 00		 mov	 DWORD PTR [esi+88], 14	; 0000000eH
  0009f	5e		 pop	 esi
  000a0	64 89 0d 00 00
	00 00		 mov	 DWORD PTR fs:__except_list, ecx
  000a7	5b		 pop	 ebx
  000a8	c9		 leave
  000a9	c2 04 00	 ret	 4
_TEXT	ENDS
;	COMDAT text$x
text$x	SEGMENT
__ehhandler$?disconnect@ClientPlayer@@UAEX_N@Z:
  00000	b8 00 00 00 00	 mov	 eax, OFFSET FLAT:$T116494
  00005	e9 00 00 00 00	 jmp	 ___CxxFrameHandler
text$x	ENDS
?disconnect@ClientPlayer@@UAEX_N@Z ENDP			; ClientPlayer::disconnect
PUBLIC	??0?$deque@PAVPacket@@V?$allocator@PAVPacket@@@_STL@@@_STL@@QAE@ABV?$allocator@PAVPacket@@@1@@Z ; _STL::deque<Packet *,_STL::allocator<Packet *> >::deque<Packet *,_STL::allocator<Packet *> >
; Function compile flags: /Ogsy
; File c:\stlport-4.6.1\stlport\stl\_deque.h
;	COMDAT ??0?$deque@PAVPacket@@V?$allocator@PAVPacket@@@_STL@@@_STL@@QAE@ABV?$allocator@PAVPacket@@@1@@Z
_TEXT	SEGMENT
___a$ = 8						; size = 4
??0?$deque@PAVPacket@@V?$allocator@PAVPacket@@@_STL@@@_STL@@QAE@ABV?$allocator@PAVPacket@@@1@@Z PROC NEAR ; _STL::deque<Packet *,_STL::allocator<Packet *> >::deque<Packet *,_STL::allocator<Packet *> >, COMDAT
; _this$ = ecx

; 433  :     : _Deque_base<_Tp, _Alloc>(__a, 0) {}

  00000	56		 push	 esi
  00001	6a 00		 push	 0
  00003	ff 74 24 0c	 push	 DWORD PTR ___a$[esp+4]
  00007	8b f1		 mov	 esi, ecx
  00009	e8 00 00 00 00	 call	 ??0?$_Deque_base@PAVPacket@@V?$allocator@PAVPacket@@@_STL@@@_STL@@QAE@ABV?$allocator@PAVPacket@@@1@I@Z ; _STL::_Deque_base<Packet *,_STL::allocator<Packet *> >::_Deque_base<Packet *,_STL::allocator<Packet *> >
  0000e	8b c6		 mov	 eax, esi
  00010	5e		 pop	 esi
  00011	c2 04 00	 ret	 4
??0?$deque@PAVPacket@@V?$allocator@PAVPacket@@@_STL@@@_STL@@QAE@ABV?$allocator@PAVPacket@@@1@@Z ENDP ; _STL::deque<Packet *,_STL::allocator<Packet *> >::deque<Packet *,_STL::allocator<Packet *> >
_TEXT	ENDS
PUBLIC	??$_M_range_initialize@PAD@?$basic_string@DV?$char_traits@D@_STL@@V?$allocator@D@2@@_STL@@AAEXPAD0@Z ; _STL::basic_string<char,_STL::char_traits<char>,_STL::allocator<char> >::_M_range_initialize<char *>
; Function compile flags: /Ogsy
; File c:\stlport-4.6.1\stlport\stl\_string.h
;	COMDAT ??$_M_range_initialize@PAD@?$basic_string@DV?$char_traits@D@_STL@@V?$allocator@D@2@@_STL@@AAEXPAD0@Z
_TEXT	SEGMENT
___f$ = 8						; size = 4
___l$ = 12						; size = 4
$T116510 = 15						; size = 1
??$_M_range_initialize@PAD@?$basic_string@DV?$char_traits@D@_STL@@V?$allocator@D@2@@_STL@@AAEXPAD0@Z PROC NEAR ; _STL::basic_string<char,_STL::char_traits<char>,_STL::allocator<char> >::_M_range_initialize<char *>, COMDAT
; _this$ = ecx

; 390  :   template <class _InputIter> void _M_range_initialize(_InputIter __f, _InputIter __l) {

  00000	55		 push	 ebp
  00001	8b ec		 mov	 ebp, esp

; 391  :     _M_range_initialize(__f, __l, _STLP_ITERATOR_CATEGORY(__f, _InputIter));

  00003	8d 45 0f	 lea	 eax, DWORD PTR $T116510[ebp]
  00006	50		 push	 eax
  00007	ff 75 0c	 push	 DWORD PTR ___l$[ebp]
  0000a	ff 75 08	 push	 DWORD PTR ___f$[ebp]
  0000d	e8 00 00 00 00	 call	 ??$_M_range_initialize@PAD@?$basic_string@DV?$char_traits@D@_STL@@V?$allocator@D@2@@_STL@@AAEXPAD0ABUforward_iterator_tag@1@@Z ; _STL::basic_string<char,_STL::char_traits<char>,_STL::allocator<char> >::_M_range_initialize<char *>

; 392  :   }

  00012	5d		 pop	 ebp
  00013	c2 08 00	 ret	 8
??$_M_range_initialize@PAD@?$basic_string@DV?$char_traits@D@_STL@@V?$allocator@D@2@@_STL@@AAEXPAD0@Z ENDP ; _STL::basic_string<char,_STL::char_traits<char>,_STL::allocator<char> >::_M_range_initialize<char *>
_TEXT	ENDS
PUBLIC	?_M_push_back_aux_v@?$deque@PAVPacket@@V?$allocator@PAVPacket@@@_STL@@@_STL@@IAEXABQAVPacket@@@Z ; _STL::deque<Packet *,_STL::allocator<Packet *> >::_M_push_back_aux_v
; Function compile flags: /Ogsy
; File c:\stlport-4.6.1\stlport\stl\_deque.c
;	COMDAT ?_M_push_back_aux_v@?$deque@PAVPacket@@V?$allocator@PAVPacket@@@_STL@@@_STL@@IAEXABQAVPacket@@@Z
_TEXT	SEGMENT
___t$ = 8						; size = 4
?_M_push_back_aux_v@?$deque@PAVPacket@@V?$allocator@PAVPacket@@@_STL@@@_STL@@IAEXABQAVPacket@@@Z PROC NEAR ; _STL::deque<Packet *,_STL::allocator<Packet *> >::_M_push_back_aux_v, COMDAT
; _this$ = ecx

; 274  :   value_type __t_copy = __t;

  00000	8b 44 24 04	 mov	 eax, DWORD PTR ___t$[esp-4]
  00004	56		 push	 esi
  00005	57		 push	 edi
  00006	8b 38		 mov	 edi, DWORD PTR [eax]

; 275  :   _M_reserve_map_at_back();

  00008	6a 01		 push	 1
  0000a	8b f1		 mov	 esi, ecx
  0000c	e8 00 00 00 00	 call	 ?_M_reserve_map_at_back@?$deque@PAVPacket@@V?$allocator@PAVPacket@@@_STL@@@_STL@@IAEXI@Z ; _STL::deque<Packet *,_STL::allocator<Packet *> >::_M_reserve_map_at_back

; 276  :   *(this->_M_finish._M_node + 1) = this->_M_map_size.allocate(this->buffer_size());

  00011	68 80 00 00 00	 push	 128			; 00000080H
  00016	e8 00 00 00 00	 call	 ?allocate@?$__node_alloc@$00$0A@@_STL@@SAPAXI@Z ; _STL::__node_alloc<1,0>::allocate
  0001b	59		 pop	 ecx
  0001c	8b 4e 1c	 mov	 ecx, DWORD PTR [esi+28]
  0001f	89 41 04	 mov	 DWORD PTR [ecx+4], eax

; 277  :   _STLP_TRY {
; 278  :     _Construct(this->_M_finish._M_cur, __t_copy);

  00022	8b 46 10	 mov	 eax, DWORD PTR [esi+16]
  00025	85 c0		 test	 eax, eax
  00027	74 02		 je	 SHORT $L116535
  00029	89 38		 mov	 DWORD PTR [eax], edi
$L116535:

; 279  :     this->_M_finish._M_set_node(this->_M_finish._M_node + 1);

  0002b	8b 46 1c	 mov	 eax, DWORD PTR [esi+28]
  0002e	83 c0 04	 add	 eax, 4
  00031	89 46 1c	 mov	 DWORD PTR [esi+28], eax
  00034	8b 00		 mov	 eax, DWORD PTR [eax]
  00036	89 46 14	 mov	 DWORD PTR [esi+20], eax
  00039	05 80 00 00 00	 add	 eax, 128		; 00000080H
  0003e	89 46 18	 mov	 DWORD PTR [esi+24], eax

; 280  :     this->_M_finish._M_cur = this->_M_finish._M_first;

  00041	8b 46 14	 mov	 eax, DWORD PTR [esi+20]
  00044	5f		 pop	 edi
  00045	89 46 10	 mov	 DWORD PTR [esi+16], eax
  00048	5e		 pop	 esi

; 281  :   }
; 282  :   _STLP_UNWIND(this->_M_map_size.deallocate(*(this->_M_finish._M_node + 1), 
; 283  : 				      this->buffer_size()));
; 284  : }

  00049	c2 04 00	 ret	 4
?_M_push_back_aux_v@?$deque@PAVPacket@@V?$allocator@PAVPacket@@@_STL@@@_STL@@IAEXABQAVPacket@@@Z ENDP ; _STL::deque<Packet *,_STL::allocator<Packet *> >::_M_push_back_aux_v
_TEXT	ENDS
PUBLIC	??_G?$basic_string@DV?$char_traits@D@_STL@@V?$allocator@D@2@@_STL@@QAEPAXI@Z ; _STL::basic_string<char,_STL::char_traits<char>,_STL::allocator<char> >::`scalar deleting destructor'
; Function compile flags: /Ogsy
;	COMDAT ??_G?$basic_string@DV?$char_traits@D@_STL@@V?$allocator@D@2@@_STL@@QAEPAXI@Z
_TEXT	SEGMENT
___flags$ = 8						; size = 4
??_G?$basic_string@DV?$char_traits@D@_STL@@V?$allocator@D@2@@_STL@@QAEPAXI@Z PROC NEAR ; _STL::basic_string<char,_STL::char_traits<char>,_STL::allocator<char> >::`scalar deleting destructor', COMDAT
; _this$ = ecx
  00000	56		 push	 esi
  00001	8b f1		 mov	 esi, ecx
  00003	e8 00 00 00 00	 call	 ??1?$basic_string@DV?$char_traits@D@_STL@@V?$allocator@D@2@@_STL@@QAE@XZ ; _STL::basic_string<char,_STL::char_traits<char>,_STL::allocator<char> >::~basic_string<char,_STL::char_traits<char>,_STL::allocator<char> >
  00008	f6 44 24 08 01	 test	 BYTE PTR ___flags$[esp], 1
  0000d	74 07		 je	 SHORT $L113029
  0000f	56		 push	 esi
  00010	e8 00 00 00 00	 call	 ??3@YAXPAX@Z		; operator delete
  00015	59		 pop	 ecx
$L113029:
  00016	8b c6		 mov	 eax, esi
  00018	5e		 pop	 esi
  00019	c2 04 00	 ret	 4
??_G?$basic_string@DV?$char_traits@D@_STL@@V?$allocator@D@2@@_STL@@QAEPAXI@Z ENDP ; _STL::basic_string<char,_STL::char_traits<char>,_STL::allocator<char> >::`scalar deleting destructor'
_TEXT	ENDS
PUBLIC	??0?$basic_string@DV?$char_traits@D@_STL@@V?$allocator@D@2@@_STL@@QAE@ABV01@@Z ; _STL::basic_string<char,_STL::char_traits<char>,_STL::allocator<char> >::basic_string<char,_STL::char_traits<char>,_STL::allocator<char> >
;	COMDAT xdata$x
; File c:\stlport-4.6.1\stlport\stl\_string.h
xdata$x	SEGMENT
$T116571 DD	0ffffffffH
	DD	FLAT:$L116557
$T116569 DD	019930520H
	DD	01H
	DD	FLAT:$T116571
	DD	2 DUP(00H)
	DD	2 DUP(00H)
; Function compile flags: /Ogsy
; File c:\stlport-4.6.1\stlport\stl\_string.c
xdata$x	ENDS
;	COMDAT ??0?$basic_string@DV?$char_traits@D@_STL@@V?$allocator@D@2@@_STL@@QAE@ABV01@@Z
_TEXT	SEGMENT
_this$ = -16						; size = 4
__$EHRec$ = -12						; size = 12
___s$ = 8						; size = 4
$T116564 = 11						; size = 1
$T116556 = 11						; size = 1
??0?$basic_string@DV?$char_traits@D@_STL@@V?$allocator@D@2@@_STL@@QAE@ABV01@@Z PROC NEAR ; _STL::basic_string<char,_STL::char_traits<char>,_STL::allocator<char> >::basic_string<char,_STL::char_traits<char>,_STL::allocator<char> >, COMDAT
; _this$ = ecx

; 560  : {  

  00000	b8 00 00 00 00	 mov	 eax, __ehhandler$??0?$basic_string@DV?$char_traits@D@_STL@@V?$allocator@D@2@@_STL@@QAE@ABV01@@Z
  00005	e8 00 00 00 00	 call	 __EH_prolog
  0000a	51		 push	 ecx
  0000b	56		 push	 esi
  0000c	8b 75 08	 mov	 esi, DWORD PTR ___s$[ebp]
  0000f	57		 push	 edi
  00010	8b f9		 mov	 edi, ecx
  00012	8d 45 0b	 lea	 eax, DWORD PTR $T116556[ebp]
  00015	50		 push	 eax
  00016	8b ce		 mov	 ecx, esi
  00018	89 7d f0	 mov	 DWORD PTR _this$[ebp], edi
  0001b	e8 00 00 00 00	 call	 ?get_allocator@?$basic_string@DV?$char_traits@D@_STL@@V?$allocator@D@2@@_STL@@QBE?AV?$allocator@D@2@XZ ; _STL::basic_string<char,_STL::char_traits<char>,_STL::allocator<char> >::get_allocator
  00020	50		 push	 eax
  00021	8b cf		 mov	 ecx, edi
  00023	e8 00 00 00 00	 call	 ??0?$_String_base@DV?$allocator@D@_STL@@@_STL@@QAE@ABV?$allocator@D@1@@Z ; _STL::_String_base<char,_STL::allocator<char> >::_String_base<char,_STL::allocator<char> >
  00028	83 65 fc 00	 and	 DWORD PTR __$EHRec$[ebp+8], 0

; 561  :   _M_range_initialize(__s._M_start, __s._M_finish);  

  0002c	8d 45 0b	 lea	 eax, DWORD PTR $T116564[ebp]
  0002f	50		 push	 eax
  00030	ff 76 04	 push	 DWORD PTR [esi+4]
  00033	8b cf		 mov	 ecx, edi
  00035	ff 36		 push	 DWORD PTR [esi]
  00037	e8 00 00 00 00	 call	 ??$_M_range_initialize@PAD@?$basic_string@DV?$char_traits@D@_STL@@V?$allocator@D@2@@_STL@@AAEXPAD0ABUforward_iterator_tag@1@@Z ; _STL::basic_string<char,_STL::char_traits<char>,_STL::allocator<char> >::_M_range_initialize<char *>

; 562  : } 

  0003c	8b 4d f4	 mov	 ecx, DWORD PTR __$EHRec$[ebp]
  0003f	8b c7		 mov	 eax, edi
  00041	5f		 pop	 edi
  00042	5e		 pop	 esi
  00043	64 89 0d 00 00
	00 00		 mov	 DWORD PTR fs:__except_list, ecx
  0004a	c9		 leave
  0004b	c2 04 00	 ret	 4
_TEXT	ENDS
;	COMDAT text$x
text$x	SEGMENT
$L116557:
  00000	8b 4d f0	 mov	 ecx, DWORD PTR _this$[ebp]
  00003	e9 00 00 00 00	 jmp	 ??1?$_String_base@DV?$allocator@D@_STL@@@_STL@@QAE@XZ ; _STL::_String_base<char,_STL::allocator<char> >::~_String_base<char,_STL::allocator<char> >
__ehhandler$??0?$basic_string@DV?$char_traits@D@_STL@@V?$allocator@D@2@@_STL@@QAE@ABV01@@Z:
  00008	b8 00 00 00 00	 mov	 eax, OFFSET FLAT:$T116569
  0000d	e9 00 00 00 00	 jmp	 ___CxxFrameHandler
text$x	ENDS
??0?$basic_string@DV?$char_traits@D@_STL@@V?$allocator@D@2@@_STL@@QAE@ABV01@@Z ENDP ; _STL::basic_string<char,_STL::char_traits<char>,_STL::allocator<char> >::basic_string<char,_STL::char_traits<char>,_STL::allocator<char> >
PUBLIC	??$_Construct@V?$basic_string@DV?$char_traits@D@_STL@@V?$allocator@D@2@@_STL@@V12@@_STL@@YAXPAV?$basic_string@DV?$char_traits@D@_STL@@V?$allocator@D@2@@0@ABV10@@Z ; _STL::_Construct<_STL::basic_string<char,_STL::char_traits<char>,_STL::allocator<char> >,_STL::basic_string<char,_STL::char_traits<char>,_STL::allocator<char> > >
;	COMDAT xdata$x
; File c:\program files\microsoft visual studio .net 2003\vc7\include\new
xdata$x	SEGMENT
$T116587 DD	0ffffffffH
	DD	FLAT:$L116580
$T116585 DD	019930520H
	DD	01H
	DD	FLAT:$T116587
	DD	2 DUP(00H)
	DD	2 DUP(00H)
; Function compile flags: /Ogsy
; File c:\stlport-4.6.1\stlport\stl\_construct.h
xdata$x	ENDS
;	COMDAT ??$_Construct@V?$basic_string@DV?$char_traits@D@_STL@@V?$allocator@D@2@@_STL@@V12@@_STL@@YAXPAV?$basic_string@DV?$char_traits@D@_STL@@V?$allocator@D@2@@0@ABV10@@Z
_TEXT	SEGMENT
$T116577 = -16						; size = 4
__$EHRec$ = -12						; size = 12
___p$ = 8						; size = 4
___val$ = 12						; size = 4
??$_Construct@V?$basic_string@DV?$char_traits@D@_STL@@V?$allocator@D@2@@_STL@@V12@@_STL@@YAXPAV?$basic_string@DV?$char_traits@D@_STL@@V?$allocator@D@2@@0@ABV10@@Z PROC NEAR ; _STL::_Construct<_STL::basic_string<char,_STL::char_traits<char>,_STL::allocator<char> >,_STL::basic_string<char,_STL::char_traits<char>,_STL::allocator<char> > >, COMDAT

; 93   : inline void _Construct(_T1* __p, const _T2& __val) {

  00000	b8 00 00 00 00	 mov	 eax, __ehhandler$??$_Construct@V?$basic_string@DV?$char_traits@D@_STL@@V?$allocator@D@2@@_STL@@V12@@_STL@@YAXPAV?$basic_string@DV?$char_traits@D@_STL@@V?$allocator@D@2@@0@ABV10@@Z
  00005	e8 00 00 00 00	 call	 __EH_prolog
  0000a	51		 push	 ecx

; 94   : # ifdef _STLP_DEBUG_UNINITIALIZED
; 95   : 	memset((char*)__p, _STLP_SHRED_BYTE, sizeof(_T1));
; 96   : # endif
; 97   :     _STLP_PLACEMENT_NEW (__p) _T1(__val);

  0000b	8b 4d 08	 mov	 ecx, DWORD PTR ___p$[ebp]
  0000e	89 4d f0	 mov	 DWORD PTR $T116577[ebp], ecx
  00011	83 65 fc 00	 and	 DWORD PTR __$EHRec$[ebp+8], 0
  00015	85 c9		 test	 ecx, ecx
  00017	74 08		 je	 SHORT $L116578
  00019	ff 75 0c	 push	 DWORD PTR ___val$[ebp]
  0001c	e8 00 00 00 00	 call	 ??0?$basic_string@DV?$char_traits@D@_STL@@V?$allocator@D@2@@_STL@@QAE@ABV01@@Z ; _STL::basic_string<char,_STL::char_traits<char>,_STL::allocator<char> >::basic_string<char,_STL::char_traits<char>,_STL::allocator<char> >
$L116578:

; 98   : }

  00021	8b 4d f4	 mov	 ecx, DWORD PTR __$EHRec$[ebp]
  00024	64 89 0d 00 00
	00 00		 mov	 DWORD PTR fs:__except_list, ecx
  0002b	c9		 leave
  0002c	c3		 ret	 0
_TEXT	ENDS
;	COMDAT text$x
text$x	SEGMENT
$L116580:
  00000	ff 75 08	 push	 DWORD PTR ___p$[ebp]
  00003	ff 75 f0	 push	 DWORD PTR $T116577[ebp]
  00006	e8 00 00 00 00	 call	 ??3@YAXPAX0@Z		; operator delete
  0000b	59		 pop	 ecx
  0000c	59		 pop	 ecx
  0000d	c3		 ret	 0
__ehhandler$??$_Construct@V?$basic_string@DV?$char_traits@D@_STL@@V?$allocator@D@2@@_STL@@V12@@_STL@@YAXPAV?$basic_string@DV?$char_traits@D@_STL@@V?$allocator@D@2@@0@ABV10@@Z:
  0000e	b8 00 00 00 00	 mov	 eax, OFFSET FLAT:$T116585
  00013	e9 00 00 00 00	 jmp	 ___CxxFrameHandler
text$x	ENDS
??$_Construct@V?$basic_string@DV?$char_traits@D@_STL@@V?$allocator@D@2@@_STL@@V12@@_STL@@YAXPAV?$basic_string@DV?$char_traits@D@_STL@@V?$allocator@D@2@@0@ABV10@@Z ENDP ; _STL::_Construct<_STL::basic_string<char,_STL::char_traits<char>,_STL::allocator<char> >,_STL::basic_string<char,_STL::char_traits<char>,_STL::allocator<char> > >
PUBLIC	?getHost@SocketImpl@@QBE?AV?$basic_string@DV?$char_traits@D@_STL@@V?$allocator@D@2@@_STL@@XZ ; SocketImpl::getHost
; Function compile flags: /Ogsy
; File c:\darkeden\designed_common\project\client\packet\socketimpl.h
;	COMDAT ?getHost@SocketImpl@@QBE?AV?$basic_string@DV?$char_traits@D@_STL@@V?$allocator@D@2@@_STL@@XZ
_TEXT	SEGMENT
___$ReturnUdt$ = 8					; size = 4
?getHost@SocketImpl@@QBE?AV?$basic_string@DV?$char_traits@D@_STL@@V?$allocator@D@2@@_STL@@XZ PROC NEAR ; SocketImpl::getHost, COMDAT
; _this$ = ecx

; 116  :     std::string getHost () const throw () { return m_Host; }

  00000	83 c1 18	 add	 ecx, 24			; 00000018H
  00003	51		 push	 ecx
  00004	8b 4c 24 08	 mov	 ecx, DWORD PTR ___$ReturnUdt$[esp]
  00008	e8 00 00 00 00	 call	 ??0?$basic_string@DV?$char_traits@D@_STL@@V?$allocator@D@2@@_STL@@QAE@ABV01@@Z ; _STL::basic_string<char,_STL::char_traits<char>,_STL::allocator<char> >::basic_string<char,_STL::char_traits<char>,_STL::allocator<char> >
  0000d	8b 44 24 04	 mov	 eax, DWORD PTR ___$ReturnUdt$[esp-4]
  00011	c2 04 00	 ret	 4
?getHost@SocketImpl@@QBE?AV?$basic_string@DV?$char_traits@D@_STL@@V?$allocator@D@2@@_STL@@XZ ENDP ; SocketImpl::getHost
_TEXT	ENDS
PUBLIC	?getHost@Socket@@QBE?AV?$basic_string@DV?$char_traits@D@_STL@@V?$allocator@D@2@@_STL@@XZ ; Socket::getHost
; Function compile flags: /Ogsy
; File c:\darkeden\designed_common\project\client\packet\socket.h
;	COMDAT ?getHost@Socket@@QBE?AV?$basic_string@DV?$char_traits@D@_STL@@V?$allocator@D@2@@_STL@@XZ
_TEXT	SEGMENT
___$ReturnUdt$ = 8					; size = 4
?getHost@Socket@@QBE?AV?$basic_string@DV?$char_traits@D@_STL@@V?$allocator@D@2@@_STL@@XZ PROC NEAR ; Socket::getHost, COMDAT
; _this$ = ecx

; 95   : 	std::string getHost () const throw () { return m_pSocketImpl->getHost(); }

  00000	ff 74 24 04	 push	 DWORD PTR ___$ReturnUdt$[esp-4]
  00004	8b 49 04	 mov	 ecx, DWORD PTR [ecx+4]
  00007	e8 00 00 00 00	 call	 ?getHost@SocketImpl@@QBE?AV?$basic_string@DV?$char_traits@D@_STL@@V?$allocator@D@2@@_STL@@XZ ; SocketImpl::getHost
  0000c	8b 44 24 04	 mov	 eax, DWORD PTR ___$ReturnUdt$[esp-4]
  00010	c2 04 00	 ret	 4
?getHost@Socket@@QBE?AV?$basic_string@DV?$char_traits@D@_STL@@V?$allocator@D@2@@_STL@@XZ ENDP ; Socket::getHost
_TEXT	ENDS
PUBLIC	??0ClientPlayer@@QAE@PAVSocket@@@Z		; ClientPlayer::ClientPlayer
EXTRN	??0Player@@QAE@XZ:NEAR				; Player::Player
EXTRN	??0SocketEncryptInputStream@@QAE@PAVSocket@@I@Z:NEAR ; SocketEncryptInputStream::SocketEncryptInputStream
EXTRN	??0SocketEncryptOutputStream@@QAE@PAVSocket@@I@Z:NEAR ; SocketEncryptOutputStream::SocketEncryptOutputStream
;	COMDAT xdata$x
; File c:\stlport-4.6.1\stlport\stl\_alloc.h
xdata$x	SEGMENT
$T116626 DD	0ffffffffH
	DD	FLAT:$L116607
	DD	00H
	DD	FLAT:$L116608
	DD	01H
	DD	FLAT:$L116609
	DD	02H
	DD	FLAT:$L116610
	DD	02H
	DD	FLAT:$L116611
$T116624 DD	019930520H
	DD	05H
	DD	FLAT:$T116626
	DD	2 DUP(00H)
	DD	2 DUP(00H)
; Function compile flags: /Ogsy
; File c:\darkeden\designed_common\project\client\packet\clientplayer.cpp
xdata$x	ENDS
;	COMDAT ??0ClientPlayer@@QAE@PAVSocket@@@Z
_TEXT	SEGMENT
_this$ = -16						; size = 4
__$EHRec$ = -12						; size = 12
$T116604 = 8						; size = 4
$T116600 = 8						; size = 4
_pSocket$ = 8						; size = 4
$T116598 = 11						; size = 1
??0ClientPlayer@@QAE@PAVSocket@@@Z PROC NEAR		; ClientPlayer::ClientPlayer, COMDAT
; _this$ = ecx

; 90   : {

  00000	b8 00 00 00 00	 mov	 eax, __ehhandler$??0ClientPlayer@@QAE@PAVSocket@@@Z
  00005	e8 00 00 00 00	 call	 __EH_prolog
  0000a	51		 push	 ecx
  0000b	56		 push	 esi
  0000c	8b f1		 mov	 esi, ecx
  0000e	57		 push	 edi
  0000f	89 75 f0	 mov	 DWORD PTR _this$[ebp], esi
  00012	e8 00 00 00 00	 call	 ??0Player@@QAE@XZ	; Player::Player
  00017	83 65 fc 00	 and	 DWORD PTR __$EHRec$[ebp+8], 0
  0001b	8d 4e 20	 lea	 ecx, DWORD PTR [esi+32]
  0001e	c7 06 00 00 00
	00		 mov	 DWORD PTR [esi], OFFSET FLAT:??_7ClientPlayer@@6B@
  00024	e8 00 00 00 00	 call	 ??0?$basic_string@DV?$char_traits@D@_STL@@V?$allocator@D@2@@_STL@@QAE@XZ ; _STL::basic_string<char,_STL::char_traits<char>,_STL::allocator<char> >::basic_string<char,_STL::char_traits<char>,_STL::allocator<char> >
  00029	6a 00		 push	 0
  0002b	8d 45 0b	 lea	 eax, DWORD PTR $T116598[ebp]
  0002e	8d 4e 30	 lea	 ecx, DWORD PTR [esi+48]
  00031	50		 push	 eax
  00032	c6 45 fc 01	 mov	 BYTE PTR __$EHRec$[ebp+8], 1
  00036	e8 00 00 00 00	 call	 ??0?$_Deque_base@PAVPacket@@V?$allocator@PAVPacket@@@_STL@@@_STL@@QAE@ABV?$allocator@PAVPacket@@@1@I@Z ; _STL::_Deque_base<Packet *,_STL::allocator<Packet *> >::_Deque_base<Packet *,_STL::allocator<Packet *> >

; 91   : 	__BEGIN_TRY
; 92   : 		
; 93   : 	Assert( pSocket != NULL );
; 94   : 	m_pSocket = pSocket;

  0003b	8b 45 08	 mov	 eax, DWORD PTR _pSocket$[ebp]
  0003e	83 66 58 00	 and	 DWORD PTR [esi+88], 0

; 95   : 
; 96   : #ifdef __USE_ENCRYPTER__
; 97   : 	// create socket input stream
; 98   : 	m_pInputStream = new SocketEncryptInputStream( m_pSocket, 32768 );

  00042	6a 30		 push	 48			; 00000030H
  00044	c6 45 fc 02	 mov	 BYTE PTR __$EHRec$[ebp+8], 2
  00048	89 46 10	 mov	 DWORD PTR [esi+16], eax
  0004b	e8 00 00 00 00	 call	 ??2@YAPAXI@Z		; operator new
  00050	59		 pop	 ecx
  00051	8b c8		 mov	 ecx, eax
  00053	89 4d 08	 mov	 DWORD PTR $T116600[ebp], ecx
  00056	85 c9		 test	 ecx, ecx
  00058	c6 45 fc 03	 mov	 BYTE PTR __$EHRec$[ebp+8], 3
  0005c	bf 00 80 00 00	 mov	 edi, 32768		; 00008000H
  00061	74 0b		 je	 SHORT $L116601
  00063	57		 push	 edi
  00064	ff 76 10	 push	 DWORD PTR [esi+16]
  00067	e8 00 00 00 00	 call	 ??0SocketEncryptInputStream@@QAE@PAVSocket@@I@Z ; SocketEncryptInputStream::SocketEncryptInputStream
  0006c	eb 02		 jmp	 SHORT $L116602
$L116601:
  0006e	33 c0		 xor	 eax, eax
$L116602:

; 99   : 
; 100  : 	Assert( m_pInputStream != NULL );
; 101  : 	
; 102  : 	// create socket output stream
; 103  : 	m_pOutputStream = new SocketEncryptOutputStream( m_pSocket, 32768 );

  00070	6a 30		 push	 48			; 00000030H
  00072	c6 45 fc 02	 mov	 BYTE PTR __$EHRec$[ebp+8], 2
  00076	89 46 14	 mov	 DWORD PTR [esi+20], eax
  00079	e8 00 00 00 00	 call	 ??2@YAPAXI@Z		; operator new
  0007e	59		 pop	 ecx
  0007f	8b c8		 mov	 ecx, eax
  00081	89 4d 08	 mov	 DWORD PTR $T116604[ebp], ecx
  00084	85 c9		 test	 ecx, ecx
  00086	c6 45 fc 04	 mov	 BYTE PTR __$EHRec$[ebp+8], 4
  0008a	74 0b		 je	 SHORT $L116605
  0008c	57		 push	 edi
  0008d	ff 76 10	 push	 DWORD PTR [esi+16]
  00090	e8 00 00 00 00	 call	 ??0SocketEncryptOutputStream@@QAE@PAVSocket@@I@Z ; SocketEncryptOutputStream::SocketEncryptOutputStream
  00095	eb 02		 jmp	 SHORT $L116606
$L116605:
  00097	33 c0		 xor	 eax, eax
$L116606:

; 104  : 
; 105  : 	Assert( m_pOutputStream != NULL );
; 106  : #else
; 107  : 	// create socket input stream
; 108  : 	m_pInputStream = new SocketInputStream( m_pSocket, 32768 );
; 109  : 
; 110  : 	Assert( m_pInputStream != NULL );
; 111  : 	
; 112  : 	// create socket output stream
; 113  : 	m_pOutputStream = new SocketOutputStream( m_pSocket, 32768 );
; 114  : 
; 115  : 	Assert( m_pOutputStream != NULL );
; 116  : #endif
; 117  : 	__END_CATCH
; 118  : }

  00099	8b 4d f4	 mov	 ecx, DWORD PTR __$EHRec$[ebp]
  0009c	89 46 18	 mov	 DWORD PTR [esi+24], eax
  0009f	5f		 pop	 edi
  000a0	8b c6		 mov	 eax, esi
  000a2	5e		 pop	 esi
  000a3	64 89 0d 00 00
	00 00		 mov	 DWORD PTR fs:__except_list, ecx
  000aa	c9		 leave
  000ab	c2 04 00	 ret	 4
_TEXT	ENDS
;	COMDAT text$x
text$x	SEGMENT
$L116607:
  00000	8b 4d f0	 mov	 ecx, DWORD PTR _this$[ebp]
  00003	e9 00 00 00 00	 jmp	 ??1Player@@UAE@XZ	; Player::~Player
$L116608:
  00008	8b 4d f0	 mov	 ecx, DWORD PTR _this$[ebp]
  0000b	83 c1 20	 add	 ecx, 32			; 00000020H
  0000e	e9 00 00 00 00	 jmp	 ??1?$basic_string@DV?$char_traits@D@_STL@@V?$allocator@D@2@@_STL@@QAE@XZ ; _STL::basic_string<char,_STL::char_traits<char>,_STL::allocator<char> >::~basic_string<char,_STL::char_traits<char>,_STL::allocator<char> >
$L116609:
  00013	8b 4d f0	 mov	 ecx, DWORD PTR _this$[ebp]
  00016	83 c1 30	 add	 ecx, 48			; 00000030H
  00019	e9 00 00 00 00	 jmp	 ??1?$deque@PAVPacket@@V?$allocator@PAVPacket@@@_STL@@@_STL@@QAE@XZ ; _STL::deque<Packet *,_STL::allocator<Packet *> >::~deque<Packet *,_STL::allocator<Packet *> >
$L116610:
  0001e	ff 75 08	 push	 DWORD PTR $T116600[ebp]
  00021	e8 00 00 00 00	 call	 ??3@YAXPAX@Z		; operator delete
  00026	59		 pop	 ecx
  00027	c3		 ret	 0
$L116611:
  00028	ff 75 08	 push	 DWORD PTR $T116604[ebp]
  0002b	e8 00 00 00 00	 call	 ??3@YAXPAX@Z		; operator delete
  00030	59		 pop	 ecx
  00031	c3		 ret	 0
__ehhandler$??0ClientPlayer@@QAE@PAVSocket@@@Z:
  00032	b8 00 00 00 00	 mov	 eax, OFFSET FLAT:$T116624
  00037	e9 00 00 00 00	 jmp	 ___CxxFrameHandler
text$x	ENDS
??0ClientPlayer@@QAE@PAVSocket@@@Z ENDP			; ClientPlayer::ClientPlayer
; Function compile flags: /Ogsy
;	COMDAT ??_GClientPlayer@@UAEPAXI@Z
_TEXT	SEGMENT
___flags$ = 8						; size = 4
??_GClientPlayer@@UAEPAXI@Z PROC NEAR			; ClientPlayer::`scalar deleting destructor', COMDAT
; _this$ = ecx
  00000	56		 push	 esi
  00001	8b f1		 mov	 esi, ecx
  00003	e8 00 00 00 00	 call	 ??1ClientPlayer@@UAE@XZ	; ClientPlayer::~ClientPlayer
  00008	f6 44 24 08 01	 test	 BYTE PTR ___flags$[esp], 1
  0000d	74 07		 je	 SHORT $L111596
  0000f	56		 push	 esi
  00010	e8 00 00 00 00	 call	 ??3@YAXPAX@Z		; operator delete
  00015	59		 pop	 ecx
$L111596:
  00016	8b c6		 mov	 eax, esi
  00018	5e		 pop	 esi
  00019	c2 04 00	 ret	 4
??_GClientPlayer@@UAEPAXI@Z ENDP			; ClientPlayer::`scalar deleting destructor'
_TEXT	ENDS
PUBLIC	??_C@_0O@FJEGGDPN@ClientPlayer?$CI?$AA@		; `string'
PUBLIC	??_C@_09PKBEGPME@SocketID?3?$AA@		; `string'
PUBLIC	??_C@_06JNDMAKHD@?0Host?3?$AA@			; `string'
PUBLIC	??_C@_01PKGAHCOL@?$CJ?$AA@			; `string'
EXTRN	??0StringStream@@QAE@XZ:NEAR			; StringStream::StringStream
EXTRN	??1StringStream@@QAE@XZ:NEAR			; StringStream::~StringStream
EXTRN	??6StringStream@@QAEAAV0@I@Z:NEAR		; StringStream::operator<<
EXTRN	??6StringStream@@QAEAAV0@PBD@Z:NEAR		; StringStream::operator<<
EXTRN	??6StringStream@@QAEAAV0@ABV?$basic_string@DV?$char_traits@D@_STL@@V?$allocator@D@2@@_STL@@@Z:NEAR ; StringStream::operator<<
EXTRN	?toString@StringStream@@QBE?AV?$basic_string@DV?$char_traits@D@_STL@@V?$allocator@D@2@@_STL@@XZ:NEAR ; StringStream::toString
;	COMDAT xdata$x
; File c:\stlport-4.6.1\stlport\stl\_alloc.h
xdata$x	SEGMENT
$T116689 DD	0ffffffffH
	DD	FLAT:$L116635
$T116687 DD	019930520H
	DD	01H
	DD	FLAT:$T116689
	DD	2 DUP(00H)
	DD	2 DUP(00H)
xdata$x	ENDS
;	COMDAT ??_C@_01PKGAHCOL@?$CJ?$AA@
CONST	SEGMENT
??_C@_01PKGAHCOL@?$CJ?$AA@ DB ')', 00H			; `string'
CONST	ENDS
;	COMDAT ??_C@_06JNDMAKHD@?0Host?3?$AA@
CONST	SEGMENT
??_C@_06JNDMAKHD@?0Host?3?$AA@ DB ',Host:', 00H		; `string'
CONST	ENDS
;	COMDAT ??_C@_09PKBEGPME@SocketID?3?$AA@
CONST	SEGMENT
??_C@_09PKBEGPME@SocketID?3?$AA@ DB 'SocketID:', 00H	; `string'
CONST	ENDS
;	COMDAT ??_C@_0O@FJEGGDPN@ClientPlayer?$CI?$AA@
CONST	SEGMENT
??_C@_0O@FJEGGDPN@ClientPlayer?$CI?$AA@ DB 'ClientPlayer(', 00H ; `string'
; Function compile flags: /Ogsy
; File c:\darkeden\designed_common\project\client\packet\clientplayer.cpp
CONST	ENDS
;	COMDAT ?toString@ClientPlayer@@UBE?AV?$basic_string@DV?$char_traits@D@_STL@@V?$allocator@D@2@@_STL@@XZ
_TEXT	SEGMENT
_msg$ = -48						; size = 20
$T116634 = -28						; size = 12
$T116638 = -16						; size = 4
__$EHRec$ = -12						; size = 12
___$ReturnUdt$ = 8					; size = 4
?toString@ClientPlayer@@UBE?AV?$basic_string@DV?$char_traits@D@_STL@@V?$allocator@D@2@@_STL@@XZ PROC NEAR ; ClientPlayer::toString, COMDAT
; _this$ = ecx

; 526  : {

  00000	b8 00 00 00 00	 mov	 eax, __ehhandler$?toString@ClientPlayer@@UBE?AV?$basic_string@DV?$char_traits@D@_STL@@V?$allocator@D@2@@_STL@@XZ
  00005	e8 00 00 00 00	 call	 __EH_prolog
  0000a	83 ec 24	 sub	 esp, 36			; 00000024H
  0000d	83 65 f0 00	 and	 DWORD PTR $T116638[ebp], 0
  00011	56		 push	 esi
  00012	8b f1		 mov	 esi, ecx

; 527  : 	__BEGIN_TRY
; 528  : 		
; 529  : 	StringStream msg;

  00014	8d 4d d0	 lea	 ecx, DWORD PTR _msg$[ebp]
  00017	e8 00 00 00 00	 call	 ??0StringStream@@QAE@XZ	; StringStream::StringStream

; 530  : 	
; 531  : 	msg << "ClientPlayer("
; 532  : 		<< "SocketID:" << m_pSocket->getSOCKET() 
; 533  : 		<< ",Host:" << m_pSocket->getHost() 
; 534  : 		<< ")" ;

  0001c	8b 4e 10	 mov	 ecx, DWORD PTR [esi+16]
  0001f	83 65 fc 00	 and	 DWORD PTR __$EHRec$[ebp+8], 0
  00023	8d 45 e4	 lea	 eax, DWORD PTR $T116634[ebp]
  00026	50		 push	 eax
  00027	e8 00 00 00 00	 call	 ?getHost@Socket@@QBE?AV?$basic_string@DV?$char_traits@D@_STL@@V?$allocator@D@2@@_STL@@XZ ; Socket::getHost
  0002c	8b 4e 10	 mov	 ecx, DWORD PTR [esi+16]
  0002f	8b 49 04	 mov	 ecx, DWORD PTR [ecx+4]
  00032	8b 49 04	 mov	 ecx, DWORD PTR [ecx+4]
  00035	68 00 00 00 00	 push	 OFFSET FLAT:??_C@_01PKGAHCOL@?$CJ?$AA@
  0003a	50		 push	 eax
  0003b	68 00 00 00 00	 push	 OFFSET FLAT:??_C@_06JNDMAKHD@?0Host?3?$AA@
  00040	51		 push	 ecx
  00041	68 00 00 00 00	 push	 OFFSET FLAT:??_C@_09PKBEGPME@SocketID?3?$AA@
  00046	68 00 00 00 00	 push	 OFFSET FLAT:??_C@_0O@FJEGGDPN@ClientPlayer?$CI?$AA@
  0004b	8d 4d d0	 lea	 ecx, DWORD PTR _msg$[ebp]
  0004e	e8 00 00 00 00	 call	 ??6StringStream@@QAEAAV0@PBD@Z ; StringStream::operator<<
  00053	8b c8		 mov	 ecx, eax
  00055	e8 00 00 00 00	 call	 ??6StringStream@@QAEAAV0@PBD@Z ; StringStream::operator<<
  0005a	8b c8		 mov	 ecx, eax
  0005c	e8 00 00 00 00	 call	 ??6StringStream@@QAEAAV0@I@Z ; StringStream::operator<<
  00061	8b c8		 mov	 ecx, eax
  00063	e8 00 00 00 00	 call	 ??6StringStream@@QAEAAV0@PBD@Z ; StringStream::operator<<
  00068	8b c8		 mov	 ecx, eax
  0006a	e8 00 00 00 00	 call	 ??6StringStream@@QAEAAV0@ABV?$basic_string@DV?$char_traits@D@_STL@@V?$allocator@D@2@@_STL@@@Z ; StringStream::operator<<
  0006f	8b c8		 mov	 ecx, eax
  00071	e8 00 00 00 00	 call	 ??6StringStream@@QAEAAV0@PBD@Z ; StringStream::operator<<
  00076	8b 45 ec	 mov	 eax, DWORD PTR $T116634[ebp+8]
  00079	2b 45 e4	 sub	 eax, DWORD PTR $T116634[ebp]
  0007c	8d 4d ec	 lea	 ecx, DWORD PTR $T116634[ebp+8]
  0007f	50		 push	 eax
  00080	ff 75 e4	 push	 DWORD PTR $T116634[ebp]
  00083	e8 00 00 00 00	 call	 ?deallocate@?$allocator@D@_STL@@QAEXPADI@Z ; _STL::allocator<char>::deallocate

; 535  : 
; 536  : 	return msg.toString();

  00088	ff 75 08	 push	 DWORD PTR ___$ReturnUdt$[ebp]
  0008b	8d 4d d0	 lea	 ecx, DWORD PTR _msg$[ebp]
  0008e	e8 00 00 00 00	 call	 ?toString@StringStream@@QBE?AV?$basic_string@DV?$char_traits@D@_STL@@V?$allocator@D@2@@_STL@@XZ ; StringStream::toString
  00093	8d 4d d0	 lea	 ecx, DWORD PTR _msg$[ebp]
  00096	e8 00 00 00 00	 call	 ??1StringStream@@QAE@XZ	; StringStream::~StringStream

; 537  : 
; 538  : 	__END_CATCH
; 539  : }

  0009b	8b 4d f4	 mov	 ecx, DWORD PTR __$EHRec$[ebp]
  0009e	8b 45 08	 mov	 eax, DWORD PTR ___$ReturnUdt$[ebp]
  000a1	5e		 pop	 esi
  000a2	64 89 0d 00 00
	00 00		 mov	 DWORD PTR fs:__except_list, ecx
  000a9	c9		 leave
  000aa	c2 04 00	 ret	 4
_TEXT	ENDS
;	COMDAT text$x
text$x	SEGMENT
$L116635:
  00000	8d 4d d0	 lea	 ecx, DWORD PTR _msg$[ebp]
  00003	e9 00 00 00 00	 jmp	 ??1StringStream@@QAE@XZ	; StringStream::~StringStream
__ehhandler$?toString@ClientPlayer@@UBE?AV?$basic_string@DV?$char_traits@D@_STL@@V?$allocator@D@2@@_STL@@XZ:
  00008	b8 00 00 00 00	 mov	 eax, OFFSET FLAT:$T116687
  0000d	e9 00 00 00 00	 jmp	 ___CxxFrameHandler
text$x	ENDS
?toString@ClientPlayer@@UBE?AV?$basic_string@DV?$char_traits@D@_STL@@V?$allocator@D@2@@_STL@@XZ ENDP ; ClientPlayer::toString
PUBLIC	?push_back@?$deque@PAVPacket@@V?$allocator@PAVPacket@@@_STL@@@_STL@@QAEXABQAVPacket@@@Z ; _STL::deque<Packet *,_STL::allocator<Packet *> >::push_back
; Function compile flags: /Ogsy
; File c:\stlport-4.6.1\stlport\stl\_deque.h
;	COMDAT ?push_back@?$deque@PAVPacket@@V?$allocator@PAVPacket@@@_STL@@@_STL@@QAEXABQAVPacket@@@Z
_TEXT	SEGMENT
___t$ = 8						; size = 4
?push_back@?$deque@PAVPacket@@V?$allocator@PAVPacket@@@_STL@@@_STL@@QAEXABQAVPacket@@@Z PROC NEAR ; _STL::deque<Packet *,_STL::allocator<Packet *> >::push_back, COMDAT
; _this$ = ecx

; 579  :     if (this->_M_finish._M_cur != this->_M_finish._M_last - 1) {

  00000	8b 51 18	 mov	 edx, DWORD PTR [ecx+24]
  00003	8b 41 10	 mov	 eax, DWORD PTR [ecx+16]
  00006	83 ea 04	 sub	 edx, 4
  00009	3b c2		 cmp	 eax, edx
  0000b	74 13		 je	 SHORT $L111988

; 580  :       _Construct(this->_M_finish._M_cur, __t);

  0000d	85 c0		 test	 eax, eax
  0000f	74 08		 je	 SHORT $L116704
  00011	8b 54 24 04	 mov	 edx, DWORD PTR ___t$[esp-4]
  00015	8b 12		 mov	 edx, DWORD PTR [edx]
  00017	89 10		 mov	 DWORD PTR [eax], edx
$L116704:

; 581  :       ++this->_M_finish._M_cur;

  00019	83 41 10 04	 add	 DWORD PTR [ecx+16], 4

; 585  :   }

  0001d	c2 04 00	 ret	 4
$L111988:

; 582  :     }
; 583  :     else
; 584  :       _M_push_back_aux_v(__t);

  00020	e9 00 00 00 00	 jmp	 ?_M_push_back_aux_v@?$deque@PAVPacket@@V?$allocator@PAVPacket@@@_STL@@@_STL@@IAEXABQAVPacket@@@Z ; _STL::deque<Packet *,_STL::allocator<Packet *> >::_M_push_back_aux_v
?push_back@?$deque@PAVPacket@@V?$allocator@PAVPacket@@@_STL@@@_STL@@QAEXABQAVPacket@@@Z ENDP ; _STL::deque<Packet *,_STL::allocator<Packet *> >::push_back
_TEXT	ENDS
PUBLIC	??$_Destroy@V?$basic_string@DV?$char_traits@D@_STL@@V?$allocator@D@2@@_STL@@@_STL@@YAXPAV?$basic_string@DV?$char_traits@D@_STL@@V?$allocator@D@2@@0@@Z ; _STL::_Destroy<_STL::basic_string<char,_STL::char_traits<char>,_STL::allocator<char> > >
; Function compile flags: /Ogsy
; File c:\stlport-4.6.1\stlport\stl\_construct.h
;	COMDAT ??$_Destroy@V?$basic_string@DV?$char_traits@D@_STL@@V?$allocator@D@2@@_STL@@@_STL@@YAXPAV?$basic_string@DV?$char_traits@D@_STL@@V?$allocator@D@2@@0@@Z
_TEXT	SEGMENT
___pointer$ = 8						; size = 4
??$_Destroy@V?$basic_string@DV?$char_traits@D@_STL@@V?$allocator@D@2@@_STL@@@_STL@@YAXPAV?$basic_string@DV?$char_traits@D@_STL@@V?$allocator@D@2@@0@@Z PROC NEAR ; _STL::_Destroy<_STL::basic_string<char,_STL::char_traits<char>,_STL::allocator<char> > >, COMDAT

; 57   : # if _MSC_VER >= 1010
; 58   :   __pointer;
; 59   : # endif	// _MSC_VER >= 1000
; 60   : # ifdef _STLP_TRIVIAL_DESTRUCTOR_BUG
; 61   :   typedef typename __type_traits<_Tp>::has_trivial_destructor _Trivial_destructor;
; 62   :   __destroy_aux(__pointer, _Trivial_destructor());
; 63   : # else
; 64   : #  if ( defined (__BORLANDC__) && ( __BORLANDC__ < 0x500 ) )
; 65   :     __pointer->_Tp::~_Tp();
; 66   : #  else
; 67   :     __pointer->~_Tp();

  00000	8b 4c 24 04	 mov	 ecx, DWORD PTR ___pointer$[esp-4]
  00004	e9 00 00 00 00	 jmp	 ??1?$basic_string@DV?$char_traits@D@_STL@@V?$allocator@D@2@@_STL@@QAE@XZ ; _STL::basic_string<char,_STL::char_traits<char>,_STL::allocator<char> >::~basic_string<char,_STL::char_traits<char>,_STL::allocator<char> >
??$_Destroy@V?$basic_string@DV?$char_traits@D@_STL@@V?$allocator@D@2@@_STL@@@_STL@@YAXPAV?$basic_string@DV?$char_traits@D@_STL@@V?$allocator@D@2@@0@@Z ENDP ; _STL::_Destroy<_STL::basic_string<char,_STL::char_traits<char>,_STL::allocator<char> > >
_TEXT	ENDS
PUBLIC	?_M_create_node@?$list@V?$basic_string@DV?$char_traits@D@_STL@@V?$allocator@D@2@@_STL@@V?$allocator@V?$basic_string@DV?$char_traits@D@_STL@@V?$allocator@D@2@@_STL@@@2@@_STL@@IAEPAU?$_List_node@V?$basic_string@DV?$char_traits@D@_STL@@V?$allocator@D@2@@_STL@@@2@ABV?$basic_string@DV?$char_traits@D@_STL@@V?$allocator@D@2@@2@@Z ; _STL::list<_STL::basic_string<char,_STL::char_traits<char>,_STL::allocator<char> >,_STL::allocator<_STL::basic_string<char,_STL::char_traits<char>,_STL::allocator<char> > > >::_M_create_node
;	COMDAT xdata$x
; File c:\stlport-4.6.1\stlport\stl\_alloc.h
xdata$x	SEGMENT
$T116732 DD	0ffffffffH
	DD	00H
	DD	0ffffffffH
	DD	00H
$T116734 DD	00H
	DD	00H
	DD	00H
	DD	FLAT:$L116720
$T116733 DD	00H
	DD	00H
	DD	01H
	DD	01H
	DD	FLAT:$T116734
$T116729 DD	019930520H
	DD	02H
	DD	FLAT:$T116732
	DD	01H
	DD	FLAT:$T116733
	DD	2 DUP(00H)
; Function compile flags: /Ogsy
; File c:\stlport-4.6.1\stlport\stl\_list.h
xdata$x	ENDS
;	COMDAT ?_M_create_node@?$list@V?$basic_string@DV?$char_traits@D@_STL@@V?$allocator@D@2@@_STL@@V?$allocator@V?$basic_string@DV?$char_traits@D@_STL@@V?$allocator@D@2@@_STL@@@2@@_STL@@IAEPAU?$_List_node@V?$basic_string@DV?$char_traits@D@_STL@@V?$allocator@D@2@@_STL@@@2@ABV?$basic_string@DV?$char_traits@D@_STL@@V?$allocator@D@2@@2@@Z
_TEXT	SEGMENT
_this$ = -24						; size = 4
___p$ = -20						; size = 4
__$EHRec$ = -16						; size = 16
___x$ = 8						; size = 4
?_M_create_node@?$list@V?$basic_string@DV?$char_traits@D@_STL@@V?$allocator@D@2@@_STL@@V?$allocator@V?$basic_string@DV?$char_traits@D@_STL@@V?$allocator@D@2@@_STL@@@2@@_STL@@IAEPAU?$_List_node@V?$basic_string@DV?$char_traits@D@_STL@@V?$allocator@D@2@@_STL@@@2@ABV?$basic_string@DV?$char_traits@D@_STL@@V?$allocator@D@2@@2@@Z PROC NEAR ; _STL::list<_STL::basic_string<char,_STL::char_traits<char>,_STL::allocator<char> >,_STL::allocator<_STL::basic_string<char,_STL::char_traits<char>,_STL::allocator<char> > > >::_M_create_node, COMDAT
; _this$ = ecx

; 240  :   {

  00000	b8 00 00 00 00	 mov	 eax, __ehhandler$?_M_create_node@?$list@V?$basic_string@DV?$char_traits@D@_STL@@V?$allocator@D@2@@_STL@@V?$allocator@V?$basic_string@DV?$char_traits@D@_STL@@V?$allocator@D@2@@_STL@@@2@@_STL@@IAEPAU?$_List_node@V?$basic_string@DV?$char_traits@D@_STL@@V?$allocator@D@2@@_STL@@@2@ABV?$basic_string@DV?$char_traits@D@_STL@@V?$allocator@D@2@@2@@Z
  00005	e8 00 00 00 00	 call	 __EH_prolog
  0000a	83 ec 0c	 sub	 esp, 12			; 0000000cH
  0000d	53		 push	 ebx
  0000e	56		 push	 esi
  0000f	57		 push	 edi
  00010	89 65 f0	 mov	 DWORD PTR __$EHRec$[ebp], esp

; 241  :     _Node* __p = this->_M_node.allocate(1);

  00013	6a 14		 push	 20			; 00000014H
  00015	89 4d e8	 mov	 DWORD PTR _this$[ebp], ecx
  00018	e8 00 00 00 00	 call	 ?allocate@?$__node_alloc@$00$0A@@_STL@@SAPAXI@Z ; _STL::__node_alloc<1,0>::allocate

; 242  :     _STLP_TRY {
; 243  :       _Construct(&__p->_M_data, __x);

  0001d	ff 75 08	 push	 DWORD PTR ___x$[ebp]
  00020	83 65 fc 00	 and	 DWORD PTR __$EHRec$[ebp+12], 0
  00024	8b f0		 mov	 esi, eax
  00026	8d 46 08	 lea	 eax, DWORD PTR [esi+8]
  00029	50		 push	 eax
  0002a	89 75 ec	 mov	 DWORD PTR ___p$[ebp], esi
  0002d	e8 00 00 00 00	 call	 ??$_Construct@V?$basic_string@DV?$char_traits@D@_STL@@V?$allocator@D@2@@_STL@@V12@@_STL@@YAXPAV?$basic_string@DV?$char_traits@D@_STL@@V?$allocator@D@2@@0@ABV10@@Z ; _STL::_Construct<_STL::basic_string<char,_STL::char_traits<char>,_STL::allocator<char> >,_STL::basic_string<char,_STL::char_traits<char>,_STL::allocator<char> > >

; 246  :     return __p;
; 247  :   }

  00032	8b 4d f4	 mov	 ecx, DWORD PTR __$EHRec$[ebp+4]
  00035	83 c4 0c	 add	 esp, 12			; 0000000cH
  00038	5f		 pop	 edi
  00039	8b c6		 mov	 eax, esi
  0003b	5e		 pop	 esi
  0003c	64 89 0d 00 00
	00 00		 mov	 DWORD PTR fs:__except_list, ecx
  00043	5b		 pop	 ebx
  00044	c9		 leave
  00045	c2 04 00	 ret	 4
$L116720:

; 244  :     }
; 245  :     _STLP_UNWIND(this->_M_node.deallocate(__p, 1));

  00048	8b 4d e8	 mov	 ecx, DWORD PTR _this$[ebp]
  0004b	6a 01		 push	 1
  0004d	ff 75 ec	 push	 DWORD PTR ___p$[ebp]
  00050	e8 00 00 00 00	 call	 ?deallocate@?$allocator@U?$_List_node@V?$basic_string@DV?$char_traits@D@_STL@@V?$allocator@D@2@@_STL@@@_STL@@@_STL@@QAEXPAU?$_List_node@V?$basic_string@DV?$char_traits@D@_STL@@V?$allocator@D@2@@_STL@@@2@I@Z ; _STL::allocator<_STL::_List_node<_STL::basic_string<char,_STL::char_traits<char>,_STL::allocator<char> > > >::deallocate
  00055	6a 00		 push	 0
  00057	6a 00		 push	 0
  00059	e8 00 00 00 00	 call	 __CxxThrowException@8
$L116735:
$L116731:
  0005e	cc		 int	 3
_TEXT	ENDS
;	COMDAT text$x
text$x	SEGMENT
__ehhandler$?_M_create_node@?$list@V?$basic_string@DV?$char_traits@D@_STL@@V?$allocator@D@2@@_STL@@V?$allocator@V?$basic_string@DV?$char_traits@D@_STL@@V?$allocator@D@2@@_STL@@@2@@_STL@@IAEPAU?$_List_node@V?$basic_string@DV?$char_traits@D@_STL@@V?$allocator@D@2@@_STL@@@2@ABV?$basic_string@DV?$char_traits@D@_STL@@V?$allocator@D@2@@2@@Z:
  00000	b8 00 00 00 00	 mov	 eax, OFFSET FLAT:$T116729
  00005	e9 00 00 00 00	 jmp	 ___CxxFrameHandler
text$x	ENDS
?_M_create_node@?$list@V?$basic_string@DV?$char_traits@D@_STL@@V?$allocator@D@2@@_STL@@V?$allocator@V?$basic_string@DV?$char_traits@D@_STL@@V?$allocator@D@2@@_STL@@@2@@_STL@@IAEPAU?$_List_node@V?$basic_string@DV?$char_traits@D@_STL@@V?$allocator@D@2@@_STL@@@2@ABV?$basic_string@DV?$char_traits@D@_STL@@V?$allocator@D@2@@2@@Z ENDP ; _STL::list<_STL::basic_string<char,_STL::char_traits<char>,_STL::allocator<char> >,_STL::allocator<_STL::basic_string<char,_STL::char_traits<char>,_STL::allocator<char> > > >::_M_create_node
PUBLIC	?clear@?$_List_base@V?$basic_string@DV?$char_traits@D@_STL@@V?$allocator@D@2@@_STL@@V?$allocator@V?$basic_string@DV?$char_traits@D@_STL@@V?$allocator@D@2@@_STL@@@2@@_STL@@QAEXXZ ; _STL::_List_base<_STL::basic_string<char,_STL::char_traits<char>,_STL::allocator<char> >,_STL::allocator<_STL::basic_string<char,_STL::char_traits<char>,_STL::allocator<char> > > >::clear
; Function compile flags: /Ogsy
; File c:\stlport-4.6.1\stlport\stl\_list.c
;	COMDAT ?clear@?$_List_base@V?$basic_string@DV?$char_traits@D@_STL@@V?$allocator@D@2@@_STL@@V?$allocator@V?$basic_string@DV?$char_traits@D@_STL@@V?$allocator@D@2@@_STL@@@2@@_STL@@QAEXXZ
_TEXT	SEGMENT
?clear@?$_List_base@V?$basic_string@DV?$char_traits@D@_STL@@V?$allocator@D@2@@_STL@@V?$allocator@V?$basic_string@DV?$char_traits@D@_STL@@V?$allocator@D@2@@_STL@@@2@@_STL@@QAEXXZ PROC NEAR ; _STL::_List_base<_STL::basic_string<char,_STL::char_traits<char>,_STL::allocator<char> >,_STL::allocator<_STL::basic_string<char,_STL::char_traits<char>,_STL::allocator<char> > > >::clear, COMDAT
; _this$ = ecx

; 68   : {

  00000	56		 push	 esi
  00001	57		 push	 edi
  00002	8b f9		 mov	 edi, ecx

; 69   :   _List_node<_Tp>* __cur = (_List_node<_Tp>*) this->_M_node._M_data->_M_next;

  00004	8b 07		 mov	 eax, DWORD PTR [edi]
  00006	8b 30		 mov	 esi, DWORD PTR [eax]

; 70   :   while (__cur != this->_M_node._M_data) {

  00008	3b f0		 cmp	 esi, eax
  0000a	74 1c		 je	 SHORT $L98971
  0000c	53		 push	 ebx
$L98970:

; 71   :     _List_node<_Tp>* __tmp = __cur;

  0000d	8b de		 mov	 ebx, esi

; 72   :     __cur = (_List_node<_Tp>*) __cur->_M_next;

  0000f	8b 36		 mov	 esi, DWORD PTR [esi]

; 73   :     _STLP_STD::_Destroy(&__tmp->_M_data);

  00011	8d 4b 08	 lea	 ecx, DWORD PTR [ebx+8]
  00014	e8 00 00 00 00	 call	 ??1?$basic_string@DV?$char_traits@D@_STL@@V?$allocator@D@2@@_STL@@QAE@XZ ; _STL::basic_string<char,_STL::char_traits<char>,_STL::allocator<char> >::~basic_string<char,_STL::char_traits<char>,_STL::allocator<char> >

; 74   :     this->_M_node.deallocate(__tmp, 1);

  00019	6a 01		 push	 1
  0001b	53		 push	 ebx
  0001c	8b cf		 mov	 ecx, edi
  0001e	e8 00 00 00 00	 call	 ?deallocate@?$allocator@U?$_List_node@V?$basic_string@DV?$char_traits@D@_STL@@V?$allocator@D@2@@_STL@@@_STL@@@_STL@@QAEXPAU?$_List_node@V?$basic_string@DV?$char_traits@D@_STL@@V?$allocator@D@2@@_STL@@@2@I@Z ; _STL::allocator<_STL::_List_node<_STL::basic_string<char,_STL::char_traits<char>,_STL::allocator<char> > > >::deallocate
  00023	3b 37		 cmp	 esi, DWORD PTR [edi]
  00025	75 e6		 jne	 SHORT $L98970
  00027	5b		 pop	 ebx
$L98971:

; 75   :   }
; 76   :   this->_M_node._M_data->_M_next = this->_M_node._M_data;

  00028	8b 07		 mov	 eax, DWORD PTR [edi]
  0002a	89 00		 mov	 DWORD PTR [eax], eax

; 77   :   this->_M_node._M_data->_M_prev = this->_M_node._M_data;

  0002c	8b 3f		 mov	 edi, DWORD PTR [edi]
  0002e	89 7f 04	 mov	 DWORD PTR [edi+4], edi
  00031	5f		 pop	 edi
  00032	5e		 pop	 esi

; 78   : }

  00033	c3		 ret	 0
?clear@?$_List_base@V?$basic_string@DV?$char_traits@D@_STL@@V?$allocator@D@2@@_STL@@V?$allocator@V?$basic_string@DV?$char_traits@D@_STL@@V?$allocator@D@2@@_STL@@@2@@_STL@@QAEXXZ ENDP ; _STL::_List_base<_STL::basic_string<char,_STL::char_traits<char>,_STL::allocator<char> >,_STL::allocator<_STL::basic_string<char,_STL::char_traits<char>,_STL::allocator<char> > > >::clear
_TEXT	ENDS
PUBLIC	?insert@?$list@V?$basic_string@DV?$char_traits@D@_STL@@V?$allocator@D@2@@_STL@@V?$allocator@V?$basic_string@DV?$char_traits@D@_STL@@V?$allocator@D@2@@_STL@@@2@@_STL@@QAE?AU?$_List_iterator@V?$basic_string@DV?$char_traits@D@_STL@@V?$allocator@D@2@@_STL@@U?$_Nonconst_traits@V?$basic_string@DV?$char_traits@D@_STL@@V?$allocator@D@2@@_STL@@@2@@2@U32@ABV?$basic_string@DV?$char_traits@D@_STL@@V?$allocator@D@2@@2@@Z ; _STL::list<_STL::basic_string<char,_STL::char_traits<char>,_STL::allocator<char> >,_STL::allocator<_STL::basic_string<char,_STL::char_traits<char>,_STL::allocator<char> > > >::insert
; Function compile flags: /Ogsy
; File c:\stlport-4.6.1\stlport\stl\_list.h
;	COMDAT ?insert@?$list@V?$basic_string@DV?$char_traits@D@_STL@@V?$allocator@D@2@@_STL@@V?$allocator@V?$basic_string@DV?$char_traits@D@_STL@@V?$allocator@D@2@@_STL@@@2@@_STL@@QAE?AU?$_List_iterator@V?$basic_string@DV?$char_traits@D@_STL@@V?$allocator@D@2@@_STL@@U?$_Nonconst_traits@V?$basic_string@DV?$char_traits@D@_STL@@V?$allocator@D@2@@_STL@@@2@@2@U32@ABV?$basic_string@DV?$char_traits@D@_STL@@V?$allocator@D@2@@2@@Z
_TEXT	SEGMENT
___$ReturnUdt$ = 8					; size = 4
___position$ = 12					; size = 4
___x$ = 16						; size = 4
?insert@?$list@V?$basic_string@DV?$char_traits@D@_STL@@V?$allocator@D@2@@_STL@@V?$allocator@V?$basic_string@DV?$char_traits@D@_STL@@V?$allocator@D@2@@_STL@@@2@@_STL@@QAE?AU?$_List_iterator@V?$basic_string@DV?$char_traits@D@_STL@@V?$allocator@D@2@@_STL@@U?$_Nonconst_traits@V?$basic_string@DV?$char_traits@D@_STL@@V?$allocator@D@2@@_STL@@@2@@2@U32@ABV?$basic_string@DV?$char_traits@D@_STL@@V?$allocator@D@2@@2@@Z PROC NEAR ; _STL::list<_STL::basic_string<char,_STL::char_traits<char>,_STL::allocator<char> >,_STL::allocator<_STL::basic_string<char,_STL::char_traits<char>,_STL::allocator<char> > > >::insert, COMDAT
; _this$ = ecx

; 299  : 
; 300  :     _Node* __tmp = _M_create_node(__x);

  00000	ff 74 24 0c	 push	 DWORD PTR ___x$[esp-4]
  00004	e8 00 00 00 00	 call	 ?_M_create_node@?$list@V?$basic_string@DV?$char_traits@D@_STL@@V?$allocator@D@2@@_STL@@V?$allocator@V?$basic_string@DV?$char_traits@D@_STL@@V?$allocator@D@2@@_STL@@@2@@_STL@@IAEPAU?$_List_node@V?$basic_string@DV?$char_traits@D@_STL@@V?$allocator@D@2@@_STL@@@2@ABV?$basic_string@DV?$char_traits@D@_STL@@V?$allocator@D@2@@2@@Z ; _STL::list<_STL::basic_string<char,_STL::char_traits<char>,_STL::allocator<char> >,_STL::allocator<_STL::basic_string<char,_STL::char_traits<char>,_STL::allocator<char> > > >::_M_create_node

; 301  :     _List_node_base* __n = __position._M_node;
; 302  :     _List_node_base* __p = __n->_M_prev;

  00009	8b 4c 24 08	 mov	 ecx, DWORD PTR ___position$[esp-4]
  0000d	8b 51 04	 mov	 edx, DWORD PTR [ecx+4]

; 303  :     __tmp->_M_next = __n;

  00010	89 08		 mov	 DWORD PTR [eax], ecx

; 304  :     __tmp->_M_prev = __p;

  00012	89 50 04	 mov	 DWORD PTR [eax+4], edx

; 305  :     __p->_M_next = __tmp;

  00015	89 02		 mov	 DWORD PTR [edx], eax

; 306  :     __n->_M_prev = __tmp;

  00017	89 41 04	 mov	 DWORD PTR [ecx+4], eax

; 307  :     return __tmp;

  0001a	8b 4c 24 04	 mov	 ecx, DWORD PTR ___$ReturnUdt$[esp-4]
  0001e	89 01		 mov	 DWORD PTR [ecx], eax
  00020	8b c1		 mov	 eax, ecx

; 308  :   }

  00022	c2 0c 00	 ret	 12			; 0000000cH
?insert@?$list@V?$basic_string@DV?$char_traits@D@_STL@@V?$allocator@D@2@@_STL@@V?$allocator@V?$basic_string@DV?$char_traits@D@_STL@@V?$allocator@D@2@@_STL@@@2@@_STL@@QAE?AU?$_List_iterator@V?$basic_string@DV?$char_traits@D@_STL@@V?$allocator@D@2@@_STL@@U?$_Nonconst_traits@V?$basic_string@DV?$char_traits@D@_STL@@V?$allocator@D@2@@_STL@@@2@@2@U32@ABV?$basic_string@DV?$char_traits@D@_STL@@V?$allocator@D@2@@2@@Z ENDP ; _STL::list<_STL::basic_string<char,_STL::char_traits<char>,_STL::allocator<char> >,_STL::allocator<_STL::basic_string<char,_STL::char_traits<char>,_STL::allocator<char> > > >::insert
_TEXT	ENDS
PUBLIC	??1?$_List_base@V?$basic_string@DV?$char_traits@D@_STL@@V?$allocator@D@2@@_STL@@V?$allocator@V?$basic_string@DV?$char_traits@D@_STL@@V?$allocator@D@2@@_STL@@@2@@_STL@@QAE@XZ ; _STL::_List_base<_STL::basic_string<char,_STL::char_traits<char>,_STL::allocator<char> >,_STL::allocator<_STL::basic_string<char,_STL::char_traits<char>,_STL::allocator<char> > > >::~_List_base<_STL::basic_string<char,_STL::char_traits<char>,_STL::allocator<char> >,_STL::allocator<_STL::basic_string<char,_STL::char_traits<char>,_STL::allocator<char> > > >
; Function compile flags: /Ogsy
;	COMDAT ??1?$_List_base@V?$basic_string@DV?$char_traits@D@_STL@@V?$allocator@D@2@@_STL@@V?$allocator@V?$basic_string@DV?$char_traits@D@_STL@@V?$allocator@D@2@@_STL@@@2@@_STL@@QAE@XZ
_TEXT	SEGMENT
??1?$_List_base@V?$basic_string@DV?$char_traits@D@_STL@@V?$allocator@D@2@@_STL@@V?$allocator@V?$basic_string@DV?$char_traits@D@_STL@@V?$allocator@D@2@@_STL@@@2@@_STL@@QAE@XZ PROC NEAR ; _STL::_List_base<_STL::basic_string<char,_STL::char_traits<char>,_STL::allocator<char> >,_STL::allocator<_STL::basic_string<char,_STL::char_traits<char>,_STL::allocator<char> > > >::~_List_base<_STL::basic_string<char,_STL::char_traits<char>,_STL::allocator<char> >,_STL::allocator<_STL::basic_string<char,_STL::char_traits<char>,_STL::allocator<char> > > >, COMDAT
; _this$ = ecx

; 188  :   ~_List_base() {

  00000	56		 push	 esi
  00001	8b f1		 mov	 esi, ecx

; 189  :     clear();

  00003	e8 00 00 00 00	 call	 ?clear@?$_List_base@V?$basic_string@DV?$char_traits@D@_STL@@V?$allocator@D@2@@_STL@@V?$allocator@V?$basic_string@DV?$char_traits@D@_STL@@V?$allocator@D@2@@_STL@@@2@@_STL@@QAEXXZ ; _STL::_List_base<_STL::basic_string<char,_STL::char_traits<char>,_STL::allocator<char> >,_STL::allocator<_STL::basic_string<char,_STL::char_traits<char>,_STL::allocator<char> > > >::clear

; 190  :     _M_node.deallocate(_M_node._M_data, 1);

  00008	6a 01		 push	 1
  0000a	ff 36		 push	 DWORD PTR [esi]
  0000c	8b ce		 mov	 ecx, esi
  0000e	e8 00 00 00 00	 call	 ?deallocate@?$allocator@U?$_List_node@V?$basic_string@DV?$char_traits@D@_STL@@V?$allocator@D@2@@_STL@@@_STL@@@_STL@@QAEXPAU?$_List_node@V?$basic_string@DV?$char_traits@D@_STL@@V?$allocator@D@2@@_STL@@@2@I@Z ; _STL::allocator<_STL::_List_node<_STL::basic_string<char,_STL::char_traits<char>,_STL::allocator<char> > > >::deallocate
  00013	5e		 pop	 esi

; 191  :   }

  00014	c3		 ret	 0
??1?$_List_base@V?$basic_string@DV?$char_traits@D@_STL@@V?$allocator@D@2@@_STL@@V?$allocator@V?$basic_string@DV?$char_traits@D@_STL@@V?$allocator@D@2@@_STL@@@2@@_STL@@QAE@XZ ENDP ; _STL::_List_base<_STL::basic_string<char,_STL::char_traits<char>,_STL::allocator<char> >,_STL::allocator<_STL::basic_string<char,_STL::char_traits<char>,_STL::allocator<char> > > >::~_List_base<_STL::basic_string<char,_STL::char_traits<char>,_STL::allocator<char> >,_STL::allocator<_STL::basic_string<char,_STL::char_traits<char>,_STL::allocator<char> > > >
_TEXT	ENDS
PUBLIC	??$_M_insert_dispatch@U?$_List_iterator@V?$basic_string@DV?$char_traits@D@_STL@@V?$allocator@D@2@@_STL@@U?$_Const_traits@V?$basic_string@DV?$char_traits@D@_STL@@V?$allocator@D@2@@_STL@@@2@@_STL@@@?$list@V?$basic_string@DV?$char_traits@D@_STL@@V?$allocator@D@2@@_STL@@V?$allocator@V?$basic_string@DV?$char_traits@D@_STL@@V?$allocator@D@2@@_STL@@@2@@_STL@@QAEXU?$_List_iterator@V?$basic_string@DV?$char_traits@D@_STL@@V?$allocator@D@2@@_STL@@U?$_Nonconst_traits@V?$basic_string@DV?$char_traits@D@_STL@@V?$allocator@D@2@@_STL@@@2@@1@U?$_List_iterator@V?$basic_string@DV?$char_traits@D@_STL@@V?$allocator@D@2@@_STL@@U?$_Const_traits@V?$basic_string@DV?$char_traits@D@_STL@@V?$allocator@D@2@@_STL@@@2@@1@1ABU__false_type@1@@Z ; _STL::list<_STL::basic_string<char,_STL::char_traits<char>,_STL::allocator<char> >,_STL::allocator<_STL::basic_string<char,_STL::char_traits<char>,_STL::allocator<char> > > >::_M_insert_dispatch<_STL::_List_iterator<_STL::basic_string<char,_STL::char_traits<char>,_STL::allocator<char> >,_STL::_Const_traits<_STL::basic_string<char,_STL::char_traits<char>,_STL::allocator<char> > > > >
; Function compile flags: /Ogsy
;	COMDAT ??$_M_insert_dispatch@U?$_List_iterator@V?$basic_string@DV?$char_traits@D@_STL@@V?$allocator@D@2@@_STL@@U?$_Const_traits@V?$basic_string@DV?$char_traits@D@_STL@@V?$allocator@D@2@@_STL@@@2@@_STL@@@?$list@V?$basic_string@DV?$char_traits@D@_STL@@V?$allocator@D@2@@_STL@@V?$allocator@V?$basic_string@DV?$char_traits@D@_STL@@V?$allocator@D@2@@_STL@@@2@@_STL@@QAEXU?$_List_iterator@V?$basic_string@DV?$char_traits@D@_STL@@V?$allocator@D@2@@_STL@@U?$_Nonconst_traits@V?$basic_string@DV?$char_traits@D@_STL@@V?$allocator@D@2@@_STL@@@2@@1@U?$_List_iterator@V?$basic_string@DV?$char_traits@D@_STL@@V?$allocator@D@2@@_STL@@U?$_Const_traits@V?$basic_string@DV?$char_traits@D@_STL@@V?$allocator@D@2@@_STL@@@2@@1@1ABU__false_type@1@@Z
_TEXT	SEGMENT
___position$ = 8					; size = 4
$T116771 = 12						; size = 4
___first$ = 12						; size = 4
___last$ = 16						; size = 4
___formal$ = 20						; size = 4
??$_M_insert_dispatch@U?$_List_iterator@V?$basic_string@DV?$char_traits@D@_STL@@V?$allocator@D@2@@_STL@@U?$_Const_traits@V?$basic_string@DV?$char_traits@D@_STL@@V?$allocator@D@2@@_STL@@@2@@_STL@@@?$list@V?$basic_string@DV?$char_traits@D@_STL@@V?$allocator@D@2@@_STL@@V?$allocator@V?$basic_string@DV?$char_traits@D@_STL@@V?$allocator@D@2@@_STL@@@2@@_STL@@QAEXU?$_List_iterator@V?$basic_string@DV?$char_traits@D@_STL@@V?$allocator@D@2@@_STL@@U?$_Nonconst_traits@V?$basic_string@DV?$char_traits@D@_STL@@V?$allocator@D@2@@_STL@@@2@@1@U?$_List_iterator@V?$basic_string@DV?$char_traits@D@_STL@@V?$allocator@D@2@@_STL@@U?$_Const_traits@V?$basic_string@DV?$char_traits@D@_STL@@V?$allocator@D@2@@_STL@@@2@@1@1ABU__false_type@1@@Z PROC NEAR ; _STL::list<_STL::basic_string<char,_STL::char_traits<char>,_STL::allocator<char> >,_STL::allocator<_STL::basic_string<char,_STL::char_traits<char>,_STL::allocator<char> > > >::_M_insert_dispatch<_STL::_List_iterator<_STL::basic_string<char,_STL::char_traits<char>,_STL::allocator<char> >,_STL::_Const_traits<_STL::basic_string<char,_STL::char_traits<char>,_STL::allocator<char> > > > >, COMDAT
; _this$ = ecx

; 323  :   void 

  00000	55		 push	 ebp
  00001	8b ec		 mov	 ebp, esp
  00003	56		 push	 esi

; 324  :   _M_insert_dispatch(iterator __position,
; 325  : 		     _InputIter __first, _InputIter __last,
; 326  : 		     const __false_type&) 
; 327  : #else /* _STLP_MEMBER_TEMPLATES */
; 328  :   void insert(iterator __position, const _Tp* __first, const _Tp* __last) {
; 329  :     for ( ; __first != __last; ++__first)
; 330  :       insert(__position, *__first);
; 331  :   }
; 332  :   void insert(iterator __position, const_iterator __first, const_iterator __last)
; 333  : #endif /* _STLP_MEMBER_TEMPLATES */
; 334  :   {
; 335  :     for ( ; __first != __last; ++__first)

  00004	8b 75 0c	 mov	 esi, DWORD PTR ___first$[ebp]
  00007	57		 push	 edi
  00008	8b f9		 mov	 edi, ecx
  0000a	eb 19		 jmp	 SHORT $L116797
$L116779:

; 336  :       insert(__position, *__first);

  0000c	8d 46 08	 lea	 eax, DWORD PTR [esi+8]
  0000f	50		 push	 eax
  00010	51		 push	 ecx
  00011	8b 4d 08	 mov	 ecx, DWORD PTR ___position$[ebp]
  00014	8b c4		 mov	 eax, esp
  00016	89 08		 mov	 DWORD PTR [eax], ecx
  00018	8d 45 0c	 lea	 eax, DWORD PTR $T116771[ebp]
  0001b	50		 push	 eax
  0001c	8b cf		 mov	 ecx, edi
  0001e	e8 00 00 00 00	 call	 ?insert@?$list@V?$basic_string@DV?$char_traits@D@_STL@@V?$allocator@D@2@@_STL@@V?$allocator@V?$basic_string@DV?$char_traits@D@_STL@@V?$allocator@D@2@@_STL@@@2@@_STL@@QAE?AU?$_List_iterator@V?$basic_string@DV?$char_traits@D@_STL@@V?$allocator@D@2@@_STL@@U?$_Nonconst_traits@V?$basic_string@DV?$char_traits@D@_STL@@V?$allocator@D@2@@_STL@@@2@@2@U32@ABV?$basic_string@DV?$char_traits@D@_STL@@V?$allocator@D@2@@2@@Z ; _STL::list<_STL::basic_string<char,_STL::char_traits<char>,_STL::allocator<char> >,_STL::allocator<_STL::basic_string<char,_STL::char_traits<char>,_STL::allocator<char> > > >::insert
  00023	8b 36		 mov	 esi, DWORD PTR [esi]
$L116797:

; 324  :   _M_insert_dispatch(iterator __position,
; 325  : 		     _InputIter __first, _InputIter __last,
; 326  : 		     const __false_type&) 
; 327  : #else /* _STLP_MEMBER_TEMPLATES */
; 328  :   void insert(iterator __position, const _Tp* __first, const _Tp* __last) {
; 329  :     for ( ; __first != __last; ++__first)
; 330  :       insert(__position, *__first);
; 331  :   }
; 332  :   void insert(iterator __position, const_iterator __first, const_iterator __last)
; 333  : #endif /* _STLP_MEMBER_TEMPLATES */
; 334  :   {
; 335  :     for ( ; __first != __last; ++__first)

  00025	3b 75 10	 cmp	 esi, DWORD PTR ___last$[ebp]
  00028	75 e2		 jne	 SHORT $L116779

; 337  :   }

  0002a	5f		 pop	 edi
  0002b	5e		 pop	 esi
  0002c	5d		 pop	 ebp
  0002d	c2 10 00	 ret	 16			; 00000010H
??$_M_insert_dispatch@U?$_List_iterator@V?$basic_string@DV?$char_traits@D@_STL@@V?$allocator@D@2@@_STL@@U?$_Const_traits@V?$basic_string@DV?$char_traits@D@_STL@@V?$allocator@D@2@@_STL@@@2@@_STL@@@?$list@V?$basic_string@DV?$char_traits@D@_STL@@V?$allocator@D@2@@_STL@@V?$allocator@V?$basic_string@DV?$char_traits@D@_STL@@V?$allocator@D@2@@_STL@@@2@@_STL@@QAEXU?$_List_iterator@V?$basic_string@DV?$char_traits@D@_STL@@V?$allocator@D@2@@_STL@@U?$_Nonconst_traits@V?$basic_string@DV?$char_traits@D@_STL@@V?$allocator@D@2@@_STL@@@2@@1@U?$_List_iterator@V?$basic_string@DV?$char_traits@D@_STL@@V?$allocator@D@2@@_STL@@U?$_Const_traits@V?$basic_string@DV?$char_traits@D@_STL@@V?$allocator@D@2@@_STL@@@2@@1@1ABU__false_type@1@@Z ENDP ; _STL::list<_STL::basic_string<char,_STL::char_traits<char>,_STL::allocator<char> >,_STL::allocator<_STL::basic_string<char,_STL::char_traits<char>,_STL::allocator<char> > > >::_M_insert_dispatch<_STL::_List_iterator<_STL::basic_string<char,_STL::char_traits<char>,_STL::allocator<char> >,_STL::_Const_traits<_STL::basic_string<char,_STL::char_traits<char>,_STL::allocator<char> > > > >
_TEXT	ENDS
PUBLIC	??0?$list@V?$basic_string@DV?$char_traits@D@_STL@@V?$allocator@D@2@@_STL@@V?$allocator@V?$basic_string@DV?$char_traits@D@_STL@@V?$allocator@D@2@@_STL@@@2@@_STL@@QAE@ABV?$allocator@V?$basic_string@DV?$char_traits@D@_STL@@V?$allocator@D@2@@_STL@@@1@@Z ; _STL::list<_STL::basic_string<char,_STL::char_traits<char>,_STL::allocator<char> >,_STL::allocator<_STL::basic_string<char,_STL::char_traits<char>,_STL::allocator<char> > > >::list<_STL::basic_string<char,_STL::char_traits<char>,_STL::allocator<char> >,_STL::allocator<_STL::basic_string<char,_STL::char_traits<char>,_STL::allocator<char> > > >
; Function compile flags: /Ogsy
;	COMDAT ??0?$list@V?$basic_string@DV?$char_traits@D@_STL@@V?$allocator@D@2@@_STL@@V?$allocator@V?$basic_string@DV?$char_traits@D@_STL@@V?$allocator@D@2@@_STL@@@2@@_STL@@QAE@ABV?$allocator@V?$basic_string@DV?$char_traits@D@_STL@@V?$allocator@D@2@@_STL@@@1@@Z
_TEXT	SEGMENT
___a$ = 8						; size = 4
??0?$list@V?$basic_string@DV?$char_traits@D@_STL@@V?$allocator@D@2@@_STL@@V?$allocator@V?$basic_string@DV?$char_traits@D@_STL@@V?$allocator@D@2@@_STL@@@2@@_STL@@QAE@ABV?$allocator@V?$basic_string@DV?$char_traits@D@_STL@@V?$allocator@D@2@@_STL@@@1@@Z PROC NEAR ; _STL::list<_STL::basic_string<char,_STL::char_traits<char>,_STL::allocator<char> >,_STL::allocator<_STL::basic_string<char,_STL::char_traits<char>,_STL::allocator<char> > > >::list<_STL::basic_string<char,_STL::char_traits<char>,_STL::allocator<char> >,_STL::allocator<_STL::basic_string<char,_STL::char_traits<char>,_STL::allocator<char> > > >, COMDAT
; _this$ = ecx

; 264  :     _List_base<_Tp, _Alloc>(__a) {}

  00000	56		 push	 esi
  00001	ff 74 24 08	 push	 DWORD PTR ___a$[esp]
  00005	8b f1		 mov	 esi, ecx
  00007	e8 00 00 00 00	 call	 ??0?$_List_base@V?$basic_string@DV?$char_traits@D@_STL@@V?$allocator@D@2@@_STL@@V?$allocator@V?$basic_string@DV?$char_traits@D@_STL@@V?$allocator@D@2@@_STL@@@2@@_STL@@QAE@ABV?$allocator@V?$basic_string@DV?$char_traits@D@_STL@@V?$allocator@D@2@@_STL@@@1@@Z ; _STL::_List_base<_STL::basic_string<char,_STL::char_traits<char>,_STL::allocator<char> >,_STL::allocator<_STL::basic_string<char,_STL::char_traits<char>,_STL::allocator<char> > > >::_List_base<_STL::basic_string<char,_STL::char_traits<char>,_STL::allocator<char> >,_STL::allocator<_STL::basic_string<char,_STL::char_traits<char>,_STL::allocator<char> > > >
  0000c	8b c6		 mov	 eax, esi
  0000e	5e		 pop	 esi
  0000f	c2 04 00	 ret	 4
??0?$list@V?$basic_string@DV?$char_traits@D@_STL@@V?$allocator@D@2@@_STL@@V?$allocator@V?$basic_string@DV?$char_traits@D@_STL@@V?$allocator@D@2@@_STL@@@2@@_STL@@QAE@ABV?$allocator@V?$basic_string@DV?$char_traits@D@_STL@@V?$allocator@D@2@@_STL@@@1@@Z ENDP ; _STL::list<_STL::basic_string<char,_STL::char_traits<char>,_STL::allocator<char> >,_STL::allocator<_STL::basic_string<char,_STL::char_traits<char>,_STL::allocator<char> > > >::list<_STL::basic_string<char,_STL::char_traits<char>,_STL::allocator<char> >,_STL::allocator<_STL::basic_string<char,_STL::char_traits<char>,_STL::allocator<char> > > >
_TEXT	ENDS
PUBLIC	??1?$list@V?$basic_string@DV?$char_traits@D@_STL@@V?$allocator@D@2@@_STL@@V?$allocator@V?$basic_string@DV?$char_traits@D@_STL@@V?$allocator@D@2@@_STL@@@2@@_STL@@QAE@XZ ; _STL::list<_STL::basic_string<char,_STL::char_traits<char>,_STL::allocator<char> >,_STL::allocator<_STL::basic_string<char,_STL::char_traits<char>,_STL::allocator<char> > > >::~list<_STL::basic_string<char,_STL::char_traits<char>,_STL::allocator<char> >,_STL::allocator<_STL::basic_string<char,_STL::char_traits<char>,_STL::allocator<char> > > >
; Function compile flags: /Ogsy
;	COMDAT ??1?$list@V?$basic_string@DV?$char_traits@D@_STL@@V?$allocator@D@2@@_STL@@V?$allocator@V?$basic_string@DV?$char_traits@D@_STL@@V?$allocator@D@2@@_STL@@@2@@_STL@@QAE@XZ
_TEXT	SEGMENT
??1?$list@V?$basic_string@DV?$char_traits@D@_STL@@V?$allocator@D@2@@_STL@@V?$allocator@V?$basic_string@DV?$char_traits@D@_STL@@V?$allocator@D@2@@_STL@@@2@@_STL@@QAE@XZ PROC NEAR ; _STL::list<_STL::basic_string<char,_STL::char_traits<char>,_STL::allocator<char> >,_STL::allocator<_STL::basic_string<char,_STL::char_traits<char>,_STL::allocator<char> > > >::~list<_STL::basic_string<char,_STL::char_traits<char>,_STL::allocator<char> >,_STL::allocator<_STL::basic_string<char,_STL::char_traits<char>,_STL::allocator<char> > > >, COMDAT
; _this$ = ecx

; 416  :   ~list() { }

  00000	e9 00 00 00 00	 jmp	 ??1?$_List_base@V?$basic_string@DV?$char_traits@D@_STL@@V?$allocator@D@2@@_STL@@V?$allocator@V?$basic_string@DV?$char_traits@D@_STL@@V?$allocator@D@2@@_STL@@@2@@_STL@@QAE@XZ ; _STL::_List_base<_STL::basic_string<char,_STL::char_traits<char>,_STL::allocator<char> >,_STL::allocator<_STL::basic_string<char,_STL::char_traits<char>,_STL::allocator<char> > > >::~_List_base<_STL::basic_string<char,_STL::char_traits<char>,_STL::allocator<char> >,_STL::allocator<_STL::basic_string<char,_STL::char_traits<char>,_STL::allocator<char> > > >
??1?$list@V?$basic_string@DV?$char_traits@D@_STL@@V?$allocator@D@2@@_STL@@V?$allocator@V?$basic_string@DV?$char_traits@D@_STL@@V?$allocator@D@2@@_STL@@@2@@_STL@@QAE@XZ ENDP ; _STL::list<_STL::basic_string<char,_STL::char_traits<char>,_STL::allocator<char> >,_STL::allocator<_STL::basic_string<char,_STL::char_traits<char>,_STL::allocator<char> > > >::~list<_STL::basic_string<char,_STL::char_traits<char>,_STL::allocator<char> >,_STL::allocator<_STL::basic_string<char,_STL::char_traits<char>,_STL::allocator<char> > > >
_TEXT	ENDS
PUBLIC	??_R1A@?0A@A@Throwable@@8			; Throwable::`RTTI Base Class Descriptor at (0,-1,0,0)'
PUBLIC	??0Throwable@@QAE@XZ				; Throwable::Throwable
PUBLIC	?getName@Throwable@@UBE?AV?$basic_string@DV?$char_traits@D@_STL@@V?$allocator@D@2@@_STL@@XZ ; Throwable::getName
PUBLIC	?toString@Throwable@@UBE?AV?$basic_string@DV?$char_traits@D@_STL@@V?$allocator@D@2@@_STL@@XZ ; Throwable::toString
PUBLIC	??_R4Throwable@@6B@				; Throwable::`RTTI Complete Object Locator'
PUBLIC	??_R3Throwable@@8				; Throwable::`RTTI Class Hierarchy Descriptor'
PUBLIC	??_R2Throwable@@8				; Throwable::`RTTI Base Class Array'
PUBLIC	??_7Throwable@@6B@				; Throwable::`vftable'
PUBLIC	??_GThrowable@@UAEPAXI@Z			; Throwable::`scalar deleting destructor'
EXTRN	??_EThrowable@@UAEPAXI@Z:NEAR			; Throwable::`vector deleting destructor'
;	COMDAT ??_7Throwable@@6B@
; File c:\stlport-4.6.1\stlport\stl\_alloc.h
CONST	SEGMENT
??_7Throwable@@6B@ DD FLAT:??_R4Throwable@@6B@		; Throwable::`vftable'
	DD	FLAT:??_EThrowable@@UAEPAXI@Z
	DD	FLAT:?getName@Throwable@@UBE?AV?$basic_string@DV?$char_traits@D@_STL@@V?$allocator@D@2@@_STL@@XZ
	DD	FLAT:?toString@Throwable@@UBE?AV?$basic_string@DV?$char_traits@D@_STL@@V?$allocator@D@2@@_STL@@XZ
CONST	ENDS
;	COMDAT ??_R4Throwable@@6B@
rdata$r	SEGMENT
??_R4Throwable@@6B@ DD 00H				; Throwable::`RTTI Complete Object Locator'
	DD	00H
	DD	00H
	DD	FLAT:??_R0?AVThrowable@@@8
	DD	FLAT:??_R3Throwable@@8
rdata$r	ENDS
;	COMDAT ??_R3Throwable@@8
rdata$r	SEGMENT
??_R3Throwable@@8 DD 00H				; Throwable::`RTTI Class Hierarchy Descriptor'
	DD	00H
	DD	01H
	DD	FLAT:??_R2Throwable@@8
rdata$r	ENDS
;	COMDAT ??_R2Throwable@@8
rdata$r	SEGMENT
??_R2Throwable@@8 DD FLAT:??_R1A@?0A@A@Throwable@@8	; Throwable::`RTTI Base Class Array'
rdata$r	ENDS
;	COMDAT ??_R1A@?0A@A@Throwable@@8
rdata$r	SEGMENT
??_R1A@?0A@A@Throwable@@8 DD FLAT:??_R0?AVThrowable@@@8	; Throwable::`RTTI Base Class Descriptor at (0,-1,0,0)'
	DD	00H
	DD	00H
	DD	0ffffffffH
	DD	00H
	DD	00H
; Function compile flags: /Ogsy
; File c:\darkeden\designed_common\project\client\packet\exception.h
rdata$r	ENDS
;	COMDAT ??0Throwable@@QAE@XZ
_TEXT	SEGMENT
$T116808 = -1						; size = 1
??0Throwable@@QAE@XZ PROC NEAR				; Throwable::Throwable, COMDAT
; _this$ = ecx

; 37   : 	Throwable () throw () {}

  00000	51		 push	 ecx
  00001	56		 push	 esi
  00002	8b f1		 mov	 esi, ecx
  00004	8d 4e 04	 lea	 ecx, DWORD PTR [esi+4]
  00007	c7 06 00 00 00
	00		 mov	 DWORD PTR [esi], OFFSET FLAT:??_7Throwable@@6B@
  0000d	e8 00 00 00 00	 call	 ??0?$basic_string@DV?$char_traits@D@_STL@@V?$allocator@D@2@@_STL@@QAE@XZ ; _STL::basic_string<char,_STL::char_traits<char>,_STL::allocator<char> >::basic_string<char,_STL::char_traits<char>,_STL::allocator<char> >
  00012	8d 44 24 07	 lea	 eax, DWORD PTR $T116808[esp+8]
  00016	50		 push	 eax
  00017	8d 4e 10	 lea	 ecx, DWORD PTR [esi+16]
  0001a	e8 00 00 00 00	 call	 ??0?$list@V?$basic_string@DV?$char_traits@D@_STL@@V?$allocator@D@2@@_STL@@V?$allocator@V?$basic_string@DV?$char_traits@D@_STL@@V?$allocator@D@2@@_STL@@@2@@_STL@@QAE@ABV?$allocator@V?$basic_string@DV?$char_traits@D@_STL@@V?$allocator@D@2@@_STL@@@1@@Z ; _STL::list<_STL::basic_string<char,_STL::char_traits<char>,_STL::allocator<char> >,_STL::allocator<_STL::basic_string<char,_STL::char_traits<char>,_STL::allocator<char> > > >::list<_STL::basic_string<char,_STL::char_traits<char>,_STL::allocator<char> >,_STL::allocator<_STL::basic_string<char,_STL::char_traits<char>,_STL::allocator<char> > > >
  0001f	8b c6		 mov	 eax, esi
  00021	5e		 pop	 esi
  00022	59		 pop	 ecx
  00023	c3		 ret	 0
??0Throwable@@QAE@XZ ENDP				; Throwable::Throwable
_TEXT	ENDS
PUBLIC	??_C@_09KCKHMJEM@Throwable?$AA@			; `string'
;	COMDAT ??_C@_09KCKHMJEM@Throwable?$AA@
; File c:\stlport-4.6.1\stlport\stl\_alloc.h
CONST	SEGMENT
??_C@_09KCKHMJEM@Throwable?$AA@ DB 'Throwable', 00H	; `string'
; Function compile flags: /Ogsy
; File c:\darkeden\designed_common\project\client\packet\exception.h
CONST	ENDS
;	COMDAT ?getName@Throwable@@UBE?AV?$basic_string@DV?$char_traits@D@_STL@@V?$allocator@D@2@@_STL@@XZ
_TEXT	SEGMENT
___$ReturnUdt$ = 8					; size = 4
$T116818 = 11						; size = 1
?getName@Throwable@@UBE?AV?$basic_string@DV?$char_traits@D@_STL@@V?$allocator@D@2@@_STL@@XZ PROC NEAR ; Throwable::getName, COMDAT
; _this$ = ecx

; 46   : 	virtual std::string getName () const throw () { return "Throwable"; }

  00000	55		 push	 ebp
  00001	8b ec		 mov	 ebp, esp
  00003	8b 4d 08	 mov	 ecx, DWORD PTR ___$ReturnUdt$[ebp]
  00006	8d 45 0b	 lea	 eax, DWORD PTR $T116818[ebp]
  00009	50		 push	 eax
  0000a	68 00 00 00 00	 push	 OFFSET FLAT:??_C@_09KCKHMJEM@Throwable?$AA@
  0000f	e8 00 00 00 00	 call	 ??0?$basic_string@DV?$char_traits@D@_STL@@V?$allocator@D@2@@_STL@@QAE@PBDABV?$allocator@D@1@@Z ; _STL::basic_string<char,_STL::char_traits<char>,_STL::allocator<char> >::basic_string<char,_STL::char_traits<char>,_STL::allocator<char> >
  00014	8b 45 08	 mov	 eax, DWORD PTR ___$ReturnUdt$[ebp]
  00017	5d		 pop	 ebp
  00018	c2 04 00	 ret	 4
?getName@Throwable@@UBE?AV?$basic_string@DV?$char_traits@D@_STL@@V?$allocator@D@2@@_STL@@XZ ENDP ; Throwable::getName
_TEXT	ENDS
PUBLIC	?getStackTrace@Throwable@@QBE?AV?$basic_string@DV?$char_traits@D@_STL@@V?$allocator@D@2@@_STL@@XZ ; Throwable::getStackTrace
PUBLIC	??_C@_03MCPBMLDJ@?5?3?5?$AA@			; `string'
EXTRN	??6StringStream@@QAEAAV0@D@Z:NEAR		; StringStream::operator<<
;	COMDAT ??_C@_03MCPBMLDJ@?5?3?5?$AA@
CONST	SEGMENT
??_C@_03MCPBMLDJ@?5?3?5?$AA@ DB ' : ', 00H		; `string'
; Function compile flags: /Ogsy
CONST	ENDS
;	COMDAT ?toString@Throwable@@UBE?AV?$basic_string@DV?$char_traits@D@_STL@@V?$allocator@D@2@@_STL@@XZ
_TEXT	SEGMENT
_buf$ = -44						; size = 20
$T116829 = -24						; size = 12
$T116828 = -24						; size = 12
$T116827 = -12						; size = 12
___$ReturnUdt$ = 8					; size = 4
?toString@Throwable@@UBE?AV?$basic_string@DV?$char_traits@D@_STL@@V?$allocator@D@2@@_STL@@XZ PROC NEAR ; Throwable::toString, COMDAT
; _this$ = ecx

; 79   : 	{

  00000	55		 push	 ebp
  00001	8b ec		 mov	 ebp, esp
  00003	83 ec 2c	 sub	 esp, 44			; 0000002cH
  00006	56		 push	 esi
  00007	8b f1		 mov	 esi, ecx

; 80   : 		StringStream buf;

  00009	8d 4d d4	 lea	 ecx, DWORD PTR _buf$[ebp]
  0000c	e8 00 00 00 00	 call	 ??0StringStream@@QAE@XZ	; StringStream::StringStream

; 81   : 		buf << getName() << " : " << m_Message << '\n'
; 82   : 			<< getStackTrace () ;

  00011	8d 45 e8	 lea	 eax, DWORD PTR $T116828[ebp]
  00014	50		 push	 eax
  00015	8b ce		 mov	 ecx, esi
  00017	e8 00 00 00 00	 call	 ?getStackTrace@Throwable@@QBE?AV?$basic_string@DV?$char_traits@D@_STL@@V?$allocator@D@2@@_STL@@XZ ; Throwable::getStackTrace
  0001c	50		 push	 eax
  0001d	6a 0a		 push	 10			; 0000000aH
  0001f	8d 46 04	 lea	 eax, DWORD PTR [esi+4]
  00022	50		 push	 eax
  00023	8b 06		 mov	 eax, DWORD PTR [esi]
  00025	68 00 00 00 00	 push	 OFFSET FLAT:??_C@_03MCPBMLDJ@?5?3?5?$AA@
  0002a	8d 4d f4	 lea	 ecx, DWORD PTR $T116827[ebp]
  0002d	51		 push	 ecx
  0002e	8b ce		 mov	 ecx, esi
  00030	ff 50 04	 call	 DWORD PTR [eax+4]
  00033	50		 push	 eax
  00034	8d 4d d4	 lea	 ecx, DWORD PTR _buf$[ebp]
  00037	e8 00 00 00 00	 call	 ??6StringStream@@QAEAAV0@ABV?$basic_string@DV?$char_traits@D@_STL@@V?$allocator@D@2@@_STL@@@Z ; StringStream::operator<<
  0003c	8b c8		 mov	 ecx, eax
  0003e	e8 00 00 00 00	 call	 ??6StringStream@@QAEAAV0@PBD@Z ; StringStream::operator<<
  00043	8b c8		 mov	 ecx, eax
  00045	e8 00 00 00 00	 call	 ??6StringStream@@QAEAAV0@ABV?$basic_string@DV?$char_traits@D@_STL@@V?$allocator@D@2@@_STL@@@Z ; StringStream::operator<<
  0004a	8b c8		 mov	 ecx, eax
  0004c	e8 00 00 00 00	 call	 ??6StringStream@@QAEAAV0@D@Z ; StringStream::operator<<
  00051	8b c8		 mov	 ecx, eax
  00053	e8 00 00 00 00	 call	 ??6StringStream@@QAEAAV0@ABV?$basic_string@DV?$char_traits@D@_STL@@V?$allocator@D@2@@_STL@@@Z ; StringStream::operator<<
  00058	8d 4d f4	 lea	 ecx, DWORD PTR $T116827[ebp]
  0005b	e8 00 00 00 00	 call	 ??1?$basic_string@DV?$char_traits@D@_STL@@V?$allocator@D@2@@_STL@@QAE@XZ ; _STL::basic_string<char,_STL::char_traits<char>,_STL::allocator<char> >::~basic_string<char,_STL::char_traits<char>,_STL::allocator<char> >
  00060	8d 4d e8	 lea	 ecx, DWORD PTR $T116828[ebp]
  00063	e8 00 00 00 00	 call	 ??1?$basic_string@DV?$char_traits@D@_STL@@V?$allocator@D@2@@_STL@@QAE@XZ ; _STL::basic_string<char,_STL::char_traits<char>,_STL::allocator<char> >::~basic_string<char,_STL::char_traits<char>,_STL::allocator<char> >

; 83   : 		
; 84   : 		return std::string( buf.toString() );

  00068	8d 45 e8	 lea	 eax, DWORD PTR $T116829[ebp]
  0006b	50		 push	 eax
  0006c	8d 4d d4	 lea	 ecx, DWORD PTR _buf$[ebp]
  0006f	e8 00 00 00 00	 call	 ?toString@StringStream@@QBE?AV?$basic_string@DV?$char_traits@D@_STL@@V?$allocator@D@2@@_STL@@XZ ; StringStream::toString
  00074	8b 4d 08	 mov	 ecx, DWORD PTR ___$ReturnUdt$[ebp]
  00077	50		 push	 eax
  00078	e8 00 00 00 00	 call	 ??0?$basic_string@DV?$char_traits@D@_STL@@V?$allocator@D@2@@_STL@@QAE@ABV01@@Z ; _STL::basic_string<char,_STL::char_traits<char>,_STL::allocator<char> >::basic_string<char,_STL::char_traits<char>,_STL::allocator<char> >
  0007d	8d 4d e8	 lea	 ecx, DWORD PTR $T116829[ebp]
  00080	e8 00 00 00 00	 call	 ??1?$basic_string@DV?$char_traits@D@_STL@@V?$allocator@D@2@@_STL@@QAE@XZ ; _STL::basic_string<char,_STL::char_traits<char>,_STL::allocator<char> >::~basic_string<char,_STL::char_traits<char>,_STL::allocator<char> >
  00085	8d 4d d4	 lea	 ecx, DWORD PTR _buf$[ebp]
  00088	e8 00 00 00 00	 call	 ??1StringStream@@QAE@XZ	; StringStream::~StringStream
  0008d	8b 45 08	 mov	 eax, DWORD PTR ___$ReturnUdt$[ebp]
  00090	5e		 pop	 esi

; 85   : 	}

  00091	c9		 leave
  00092	c2 04 00	 ret	 4
?toString@Throwable@@UBE?AV?$basic_string@DV?$char_traits@D@_STL@@V?$allocator@D@2@@_STL@@XZ ENDP ; Throwable::toString
_TEXT	ENDS
PUBLIC	??_C@_01CLKCMJKC@?5?$AA@			; `string'
;	COMDAT ??_C@_01CLKCMJKC@?5?$AA@
; File c:\stlport-4.6.1\stlport\stl\_list.h
CONST	SEGMENT
??_C@_01CLKCMJKC@?5?$AA@ DB ' ', 00H			; `string'
; Function compile flags: /Ogsy
; File c:\darkeden\designed_common\project\client\packet\exception.h
CONST	ENDS
;	COMDAT ?getStackTrace@Throwable@@QBE?AV?$basic_string@DV?$char_traits@D@_STL@@V?$allocator@D@2@@_STL@@XZ
_TEXT	SEGMENT
_buf$ = -36						; size = 20
$T116834 = -16						; size = 12
tv90 = -4						; size = 4
___$ReturnUdt$ = 8					; size = 4
?getStackTrace@Throwable@@QBE?AV?$basic_string@DV?$char_traits@D@_STL@@V?$allocator@D@2@@_STL@@XZ PROC NEAR ; Throwable::getStackTrace, COMDAT
; _this$ = ecx

; 56   : 	{

  00000	55		 push	 ebp
  00001	8b ec		 mov	 ebp, esp
  00003	83 ec 24	 sub	 esp, 36			; 00000024H
  00006	53		 push	 ebx
  00007	56		 push	 esi
  00008	57		 push	 edi
  00009	8b f9		 mov	 edi, ecx

; 57   : 		StringStream buf;

  0000b	8d 4d dc	 lea	 ecx, DWORD PTR _buf$[ebp]
  0000e	e8 00 00 00 00	 call	 ??0StringStream@@QAE@XZ	; StringStream::StringStream

; 58   : 		int i = 1;
; 59   : 
; 60   : 		for ( std::list<std::string>::const_iterator itr = m_Stacks.begin() ;

  00013	8b 47 10	 mov	 eax, DWORD PTR [edi+16]
  00016	8b 30		 mov	 esi, DWORD PTR [eax]
  00018	33 db		 xor	 ebx, ebx
  0001a	43		 inc	 ebx

; 61   : 			  itr != m_Stacks.end() ;
; 62   : 			  itr ++ , i ++ ) {

  0001b	3b f0		 cmp	 esi, eax
  0001d	74 36		 je	 SHORT $L88001
$L87999:

; 63   : 			for ( int j = 0 ; j < i ; j ++ )

  0001f	85 db		 test	 ebx, ebx
  00021	7e 15		 jle	 SHORT $L88005
  00023	89 5d fc	 mov	 DWORD PTR tv90[ebp], ebx
$L88003:

; 64   : 				buf << " ";

  00026	68 00 00 00 00	 push	 OFFSET FLAT:??_C@_01CLKCMJKC@?5?$AA@
  0002b	8d 4d dc	 lea	 ecx, DWORD PTR _buf$[ebp]
  0002e	e8 00 00 00 00	 call	 ??6StringStream@@QAEAAV0@PBD@Z ; StringStream::operator<<
  00033	ff 4d fc	 dec	 DWORD PTR tv90[ebp]
  00036	75 ee		 jne	 SHORT $L88003
$L88005:

; 65   : 			buf << *itr << '\n' ;

  00038	6a 0a		 push	 10			; 0000000aH
  0003a	8d 46 08	 lea	 eax, DWORD PTR [esi+8]
  0003d	50		 push	 eax
  0003e	8d 4d dc	 lea	 ecx, DWORD PTR _buf$[ebp]
  00041	e8 00 00 00 00	 call	 ??6StringStream@@QAEAAV0@ABV?$basic_string@DV?$char_traits@D@_STL@@V?$allocator@D@2@@_STL@@@Z ; StringStream::operator<<
  00046	8b c8		 mov	 ecx, eax
  00048	e8 00 00 00 00	 call	 ??6StringStream@@QAEAAV0@D@Z ; StringStream::operator<<
  0004d	8b 36		 mov	 esi, DWORD PTR [esi]
  0004f	43		 inc	 ebx
  00050	3b 77 10	 cmp	 esi, DWORD PTR [edi+16]
  00053	75 ca		 jne	 SHORT $L87999
$L88001:

; 66   : 		}
; 67   : 		
; 68   : 		return std::string( buf.toString() );

  00055	8d 45 f0	 lea	 eax, DWORD PTR $T116834[ebp]
  00058	50		 push	 eax
  00059	8d 4d dc	 lea	 ecx, DWORD PTR _buf$[ebp]
  0005c	e8 00 00 00 00	 call	 ?toString@StringStream@@QBE?AV?$basic_string@DV?$char_traits@D@_STL@@V?$allocator@D@2@@_STL@@XZ ; StringStream::toString
  00061	8b 4d 08	 mov	 ecx, DWORD PTR ___$ReturnUdt$[ebp]
  00064	50		 push	 eax
  00065	e8 00 00 00 00	 call	 ??0?$basic_string@DV?$char_traits@D@_STL@@V?$allocator@D@2@@_STL@@QAE@ABV01@@Z ; _STL::basic_string<char,_STL::char_traits<char>,_STL::allocator<char> >::basic_string<char,_STL::char_traits<char>,_STL::allocator<char> >
  0006a	8d 4d f0	 lea	 ecx, DWORD PTR $T116834[ebp]
  0006d	e8 00 00 00 00	 call	 ??1?$basic_string@DV?$char_traits@D@_STL@@V?$allocator@D@2@@_STL@@QAE@XZ ; _STL::basic_string<char,_STL::char_traits<char>,_STL::allocator<char> >::~basic_string<char,_STL::char_traits<char>,_STL::allocator<char> >
  00072	8d 4d dc	 lea	 ecx, DWORD PTR _buf$[ebp]
  00075	e8 00 00 00 00	 call	 ??1StringStream@@QAE@XZ	; StringStream::~StringStream
  0007a	8b 45 08	 mov	 eax, DWORD PTR ___$ReturnUdt$[ebp]
  0007d	5f		 pop	 edi
  0007e	5e		 pop	 esi
  0007f	5b		 pop	 ebx

; 69   : 	}

  00080	c9		 leave
  00081	c2 04 00	 ret	 4
?getStackTrace@Throwable@@QBE?AV?$basic_string@DV?$char_traits@D@_STL@@V?$allocator@D@2@@_STL@@XZ ENDP ; Throwable::getStackTrace
_TEXT	ENDS
PUBLIC	??0Throwable@@QAE@V?$basic_string@DV?$char_traits@D@_STL@@V?$allocator@D@2@@_STL@@@Z ; Throwable::Throwable
; Function compile flags: /Ogsy
;	COMDAT ??0Throwable@@QAE@V?$basic_string@DV?$char_traits@D@_STL@@V?$allocator@D@2@@_STL@@@Z
_TEXT	SEGMENT
_message$ = 8						; size = 12
$T116888 = 19						; size = 1
??0Throwable@@QAE@V?$basic_string@DV?$char_traits@D@_STL@@V?$allocator@D@2@@_STL@@@Z PROC NEAR ; Throwable::Throwable, COMDAT
; _this$ = ecx

; 40   : 	Throwable ( std::string message ) throw () : m_Message(message) {}

  00000	55		 push	 ebp
  00001	8b ec		 mov	 ebp, esp
  00003	56		 push	 esi
  00004	8b f1		 mov	 esi, ecx
  00006	8d 45 08	 lea	 eax, DWORD PTR _message$[ebp]
  00009	50		 push	 eax
  0000a	8d 4e 04	 lea	 ecx, DWORD PTR [esi+4]
  0000d	c7 06 00 00 00
	00		 mov	 DWORD PTR [esi], OFFSET FLAT:??_7Throwable@@6B@
  00013	e8 00 00 00 00	 call	 ??0?$basic_string@DV?$char_traits@D@_STL@@V?$allocator@D@2@@_STL@@QAE@ABV01@@Z ; _STL::basic_string<char,_STL::char_traits<char>,_STL::allocator<char> >::basic_string<char,_STL::char_traits<char>,_STL::allocator<char> >
  00018	8d 45 13	 lea	 eax, DWORD PTR $T116888[ebp]
  0001b	50		 push	 eax
  0001c	8d 4e 10	 lea	 ecx, DWORD PTR [esi+16]
  0001f	e8 00 00 00 00	 call	 ??0?$list@V?$basic_string@DV?$char_traits@D@_STL@@V?$allocator@D@2@@_STL@@V?$allocator@V?$basic_string@DV?$char_traits@D@_STL@@V?$allocator@D@2@@_STL@@@2@@_STL@@QAE@ABV?$allocator@V?$basic_string@DV?$char_traits@D@_STL@@V?$allocator@D@2@@_STL@@@1@@Z ; _STL::list<_STL::basic_string<char,_STL::char_traits<char>,_STL::allocator<char> >,_STL::allocator<_STL::basic_string<char,_STL::char_traits<char>,_STL::allocator<char> > > >::list<_STL::basic_string<char,_STL::char_traits<char>,_STL::allocator<char> >,_STL::allocator<_STL::basic_string<char,_STL::char_traits<char>,_STL::allocator<char> > > >
  00024	8d 4d 08	 lea	 ecx, DWORD PTR _message$[ebp]
  00027	e8 00 00 00 00	 call	 ??1?$basic_string@DV?$char_traits@D@_STL@@V?$allocator@D@2@@_STL@@QAE@XZ ; _STL::basic_string<char,_STL::char_traits<char>,_STL::allocator<char> >::~basic_string<char,_STL::char_traits<char>,_STL::allocator<char> >
  0002c	8b c6		 mov	 eax, esi
  0002e	5e		 pop	 esi
  0002f	5d		 pop	 ebp
  00030	c2 0c 00	 ret	 12			; 0000000cH
??0Throwable@@QAE@V?$basic_string@DV?$char_traits@D@_STL@@V?$allocator@D@2@@_STL@@@Z ENDP ; Throwable::Throwable
_TEXT	ENDS
PUBLIC	??1Throwable@@UAE@XZ				; Throwable::~Throwable
; Function compile flags: /Ogsy
;	COMDAT ??1Throwable@@UAE@XZ
_TEXT	SEGMENT
??1Throwable@@UAE@XZ PROC NEAR				; Throwable::~Throwable, COMDAT
; _this$ = ecx

; 43   : 	virtual ~Throwable () throw () {}

  00000	56		 push	 esi
  00001	8b f1		 mov	 esi, ecx
  00003	8d 4e 10	 lea	 ecx, DWORD PTR [esi+16]
  00006	c7 06 00 00 00
	00		 mov	 DWORD PTR [esi], OFFSET FLAT:??_7Throwable@@6B@
  0000c	e8 00 00 00 00	 call	 ??1?$list@V?$basic_string@DV?$char_traits@D@_STL@@V?$allocator@D@2@@_STL@@V?$allocator@V?$basic_string@DV?$char_traits@D@_STL@@V?$allocator@D@2@@_STL@@@2@@_STL@@QAE@XZ ; _STL::list<_STL::basic_string<char,_STL::char_traits<char>,_STL::allocator<char> >,_STL::allocator<_STL::basic_string<char,_STL::char_traits<char>,_STL::allocator<char> > > >::~list<_STL::basic_string<char,_STL::char_traits<char>,_STL::allocator<char> >,_STL::allocator<_STL::basic_string<char,_STL::char_traits<char>,_STL::allocator<char> > > >
  00011	8d 4e 04	 lea	 ecx, DWORD PTR [esi+4]
  00014	5e		 pop	 esi
  00015	e9 00 00 00 00	 jmp	 ??1?$basic_string@DV?$char_traits@D@_STL@@V?$allocator@D@2@@_STL@@QAE@XZ ; _STL::basic_string<char,_STL::char_traits<char>,_STL::allocator<char> >::~basic_string<char,_STL::char_traits<char>,_STL::allocator<char> >
??1Throwable@@UAE@XZ ENDP				; Throwable::~Throwable
; Function compile flags: /Ogsy
_TEXT	ENDS
;	COMDAT ??_GThrowable@@UAEPAXI@Z
_TEXT	SEGMENT
___flags$ = 8						; size = 4
??_GThrowable@@UAEPAXI@Z PROC NEAR			; Throwable::`scalar deleting destructor', COMDAT
; _this$ = ecx
  00000	56		 push	 esi
  00001	8b f1		 mov	 esi, ecx
  00003	e8 00 00 00 00	 call	 ??1Throwable@@UAE@XZ	; Throwable::~Throwable
  00008	f6 44 24 08 01	 test	 BYTE PTR ___flags$[esp], 1
  0000d	74 07		 je	 SHORT $L88026
  0000f	56		 push	 esi
  00010	e8 00 00 00 00	 call	 ??3@YAXPAX@Z		; operator delete
  00015	59		 pop	 ecx
$L88026:
  00016	8b c6		 mov	 eax, esi
  00018	5e		 pop	 esi
  00019	c2 04 00	 ret	 4
??_GThrowable@@UAEPAXI@Z ENDP				; Throwable::`scalar deleting destructor'
_TEXT	ENDS
PUBLIC	??_R1A@?0A@A@Exception@@8			; Exception::`RTTI Base Class Descriptor at (0,-1,0,0)'
PUBLIC	??_R0?AVException@@@8				; Exception `RTTI Type Descriptor'
PUBLIC	??_R4Exception@@6B@				; Exception::`RTTI Complete Object Locator'
PUBLIC	??_R3Exception@@8				; Exception::`RTTI Class Hierarchy Descriptor'
PUBLIC	??_R2Exception@@8				; Exception::`RTTI Base Class Array'
PUBLIC	??0Exception@@QAE@XZ				; Exception::Exception
PUBLIC	?getName@Exception@@UBE?AV?$basic_string@DV?$char_traits@D@_STL@@V?$allocator@D@2@@_STL@@XZ ; Exception::getName
PUBLIC	??_7Exception@@6B@				; Exception::`vftable'
PUBLIC	??_GException@@UAEPAXI@Z			; Exception::`scalar deleting destructor'
EXTRN	??_EException@@UAEPAXI@Z:NEAR			; Exception::`vector deleting destructor'
;	COMDAT ??_7Exception@@6B@
CONST	SEGMENT
??_7Exception@@6B@ DD FLAT:??_R4Exception@@6B@		; Exception::`vftable'
	DD	FLAT:??_EException@@UAEPAXI@Z
	DD	FLAT:?getName@Exception@@UBE?AV?$basic_string@DV?$char_traits@D@_STL@@V?$allocator@D@2@@_STL@@XZ
	DD	FLAT:?toString@Throwable@@UBE?AV?$basic_string@DV?$char_traits@D@_STL@@V?$allocator@D@2@@_STL@@XZ
CONST	ENDS
;	COMDAT ??_R4Exception@@6B@
rdata$r	SEGMENT
??_R4Exception@@6B@ DD 00H				; Exception::`RTTI Complete Object Locator'
	DD	00H
	DD	00H
	DD	FLAT:??_R0?AVException@@@8
	DD	FLAT:??_R3Exception@@8
rdata$r	ENDS
;	COMDAT ??_R0?AVException@@@8
_DATA	SEGMENT
??_R0?AVException@@@8 DD FLAT:??_7type_info@@6B@	; Exception `RTTI Type Descriptor'
	DD	00H
	DB	'.?AVException@@', 00H
	ORG $-24
	DD	FLAT:??_7type_info@@6B@
	DD	00H
	DB	'.?AVException@@', 00H
_DATA	ENDS
;	COMDAT ??_R3Exception@@8
rdata$r	SEGMENT
??_R3Exception@@8 DD 00H				; Exception::`RTTI Class Hierarchy Descriptor'
	DD	00H
	DD	02H
	DD	FLAT:??_R2Exception@@8
rdata$r	ENDS
;	COMDAT ??_R2Exception@@8
rdata$r	SEGMENT
??_R2Exception@@8 DD FLAT:??_R1A@?0A@A@Exception@@8	; Exception::`RTTI Base Class Array'
	DD	FLAT:??_R1A@?0A@A@Throwable@@8
rdata$r	ENDS
;	COMDAT ??_R1A@?0A@A@Exception@@8
rdata$r	SEGMENT
??_R1A@?0A@A@Exception@@8 DD FLAT:??_R0?AVException@@@8	; Exception::`RTTI Base Class Descriptor at (0,-1,0,0)'
	DD	01H
	DD	00H
	DD	0ffffffffH
	DD	00H
	DD	00H
; Function compile flags: /Ogsy
rdata$r	ENDS
;	COMDAT ??0Exception@@QAE@XZ
_TEXT	SEGMENT
??0Exception@@QAE@XZ PROC NEAR				; Exception::Exception, COMDAT
; _this$ = ecx

; 174  : 	Exception () throw () : Throwable() {}

  00000	56		 push	 esi
  00001	8b f1		 mov	 esi, ecx
  00003	e8 00 00 00 00	 call	 ??0Throwable@@QAE@XZ	; Throwable::Throwable
  00008	c7 06 00 00 00
	00		 mov	 DWORD PTR [esi], OFFSET FLAT:??_7Exception@@6B@
  0000e	8b c6		 mov	 eax, esi
  00010	5e		 pop	 esi
  00011	c3		 ret	 0
??0Exception@@QAE@XZ ENDP				; Exception::Exception
_TEXT	ENDS
PUBLIC	??_C@_09FBNMMHMJ@Exception?$AA@			; `string'
;	COMDAT ??_C@_09FBNMMHMJ@Exception?$AA@
; File c:\stlport-4.6.1\stlport\stl\_alloc.h
CONST	SEGMENT
??_C@_09FBNMMHMJ@Exception?$AA@ DB 'Exception', 00H	; `string'
; Function compile flags: /Ogsy
; File c:\darkeden\designed_common\project\client\packet\exception.h
CONST	ENDS
;	COMDAT ?getName@Exception@@UBE?AV?$basic_string@DV?$char_traits@D@_STL@@V?$allocator@D@2@@_STL@@XZ
_TEXT	SEGMENT
___$ReturnUdt$ = 8					; size = 4
$T116907 = 11						; size = 1
?getName@Exception@@UBE?AV?$basic_string@DV?$char_traits@D@_STL@@V?$allocator@D@2@@_STL@@XZ PROC NEAR ; Exception::getName, COMDAT
; _this$ = ecx

; 176  : 	std::string getName () const throw () { return "Exception"; }

  00000	55		 push	 ebp
  00001	8b ec		 mov	 ebp, esp
  00003	8b 4d 08	 mov	 ecx, DWORD PTR ___$ReturnUdt$[ebp]
  00006	8d 45 0b	 lea	 eax, DWORD PTR $T116907[ebp]
  00009	50		 push	 eax
  0000a	68 00 00 00 00	 push	 OFFSET FLAT:??_C@_09FBNMMHMJ@Exception?$AA@
  0000f	e8 00 00 00 00	 call	 ??0?$basic_string@DV?$char_traits@D@_STL@@V?$allocator@D@2@@_STL@@QAE@PBDABV?$allocator@D@1@@Z ; _STL::basic_string<char,_STL::char_traits<char>,_STL::allocator<char> >::basic_string<char,_STL::char_traits<char>,_STL::allocator<char> >
  00014	8b 45 08	 mov	 eax, DWORD PTR ___$ReturnUdt$[ebp]
  00017	5d		 pop	 ebp
  00018	c2 04 00	 ret	 4
?getName@Exception@@UBE?AV?$basic_string@DV?$char_traits@D@_STL@@V?$allocator@D@2@@_STL@@XZ ENDP ; Exception::getName
_TEXT	ENDS
PUBLIC	??0Exception@@QAE@V?$basic_string@DV?$char_traits@D@_STL@@V?$allocator@D@2@@_STL@@@Z ; Exception::Exception
; Function compile flags: /Ogsy
;	COMDAT ??0Exception@@QAE@V?$basic_string@DV?$char_traits@D@_STL@@V?$allocator@D@2@@_STL@@@Z
_TEXT	SEGMENT
$T116916 = -4						; size = 4
_msg$ = 8						; size = 12
??0Exception@@QAE@V?$basic_string@DV?$char_traits@D@_STL@@V?$allocator@D@2@@_STL@@@Z PROC NEAR ; Exception::Exception, COMDAT
; _this$ = ecx

; 175  : 	Exception ( std::string msg ) throw () : Throwable(msg) {}

  00000	55		 push	 ebp
  00001	8b ec		 mov	 ebp, esp
  00003	51		 push	 ecx
  00004	56		 push	 esi
  00005	83 ec 0c	 sub	 esp, 12			; 0000000cH
  00008	8b f1		 mov	 esi, ecx
  0000a	8d 45 08	 lea	 eax, DWORD PTR _msg$[ebp]
  0000d	8b cc		 mov	 ecx, esp
  0000f	89 65 fc	 mov	 DWORD PTR $T116916[ebp], esp
  00012	50		 push	 eax
  00013	e8 00 00 00 00	 call	 ??0?$basic_string@DV?$char_traits@D@_STL@@V?$allocator@D@2@@_STL@@QAE@ABV01@@Z ; _STL::basic_string<char,_STL::char_traits<char>,_STL::allocator<char> >::basic_string<char,_STL::char_traits<char>,_STL::allocator<char> >
  00018	8b ce		 mov	 ecx, esi
  0001a	e8 00 00 00 00	 call	 ??0Throwable@@QAE@V?$basic_string@DV?$char_traits@D@_STL@@V?$allocator@D@2@@_STL@@@Z ; Throwable::Throwable
  0001f	8d 4d 08	 lea	 ecx, DWORD PTR _msg$[ebp]
  00022	c7 06 00 00 00
	00		 mov	 DWORD PTR [esi], OFFSET FLAT:??_7Exception@@6B@
  00028	e8 00 00 00 00	 call	 ??1?$basic_string@DV?$char_traits@D@_STL@@V?$allocator@D@2@@_STL@@QAE@XZ ; _STL::basic_string<char,_STL::char_traits<char>,_STL::allocator<char> >::~basic_string<char,_STL::char_traits<char>,_STL::allocator<char> >
  0002d	8b c6		 mov	 eax, esi
  0002f	5e		 pop	 esi
  00030	c9		 leave
  00031	c2 0c 00	 ret	 12			; 0000000cH
??0Exception@@QAE@V?$basic_string@DV?$char_traits@D@_STL@@V?$allocator@D@2@@_STL@@@Z ENDP ; Exception::Exception
_TEXT	ENDS
PUBLIC	??1Exception@@UAE@XZ				; Exception::~Exception
; Function compile flags: /Ogsy
;	COMDAT ??1Exception@@UAE@XZ
_TEXT	SEGMENT
??1Exception@@UAE@XZ PROC NEAR				; Exception::~Exception, COMDAT
; _this$ = ecx
  00000	e9 00 00 00 00	 jmp	 ??1Throwable@@UAE@XZ	; Throwable::~Throwable
??1Exception@@UAE@XZ ENDP				; Exception::~Exception
_TEXT	ENDS
PUBLIC	??0IOException@@QAE@XZ				; IOException::IOException
PUBLIC	?getName@IOException@@UBE?AV?$basic_string@DV?$char_traits@D@_STL@@V?$allocator@D@2@@_STL@@XZ ; IOException::getName
PUBLIC	??_R4IOException@@6B@				; IOException::`RTTI Complete Object Locator'
PUBLIC	??_R3IOException@@8				; IOException::`RTTI Class Hierarchy Descriptor'
PUBLIC	??_R2IOException@@8				; IOException::`RTTI Base Class Array'
PUBLIC	??_7IOException@@6B@				; IOException::`vftable'
PUBLIC	??_GIOException@@UAEPAXI@Z			; IOException::`scalar deleting destructor'
PUBLIC	??_R1A@?0A@A@IOException@@8			; IOException::`RTTI Base Class Descriptor at (0,-1,0,0)'
PUBLIC	??_R0?AVIOException@@@8				; IOException `RTTI Type Descriptor'
EXTRN	??_EIOException@@UAEPAXI@Z:NEAR			; IOException::`vector deleting destructor'
;	COMDAT ??_7IOException@@6B@
CONST	SEGMENT
??_7IOException@@6B@ DD FLAT:??_R4IOException@@6B@	; IOException::`vftable'
	DD	FLAT:??_EIOException@@UAEPAXI@Z
	DD	FLAT:?getName@IOException@@UBE?AV?$basic_string@DV?$char_traits@D@_STL@@V?$allocator@D@2@@_STL@@XZ
	DD	FLAT:?toString@Throwable@@UBE?AV?$basic_string@DV?$char_traits@D@_STL@@V?$allocator@D@2@@_STL@@XZ
CONST	ENDS
;	COMDAT ??_R4IOException@@6B@
rdata$r	SEGMENT
??_R4IOException@@6B@ DD 00H				; IOException::`RTTI Complete Object Locator'
	DD	00H
	DD	00H
	DD	FLAT:??_R0?AVIOException@@@8
	DD	FLAT:??_R3IOException@@8
rdata$r	ENDS
;	COMDAT ??_R0?AVIOException@@@8
_DATA	SEGMENT
??_R0?AVIOException@@@8 DD FLAT:??_7type_info@@6B@	; IOException `RTTI Type Descriptor'
	DD	00H
	DB	'.?AVIOException@@', 00H
	ORG $-26
	DD	FLAT:??_7type_info@@6B@
	DD	00H
	DB	'.?AVIOException@@', 00H
_DATA	ENDS
;	COMDAT ??_R3IOException@@8
rdata$r	SEGMENT
??_R3IOException@@8 DD 00H				; IOException::`RTTI Class Hierarchy Descriptor'
	DD	00H
	DD	03H
	DD	FLAT:??_R2IOException@@8
rdata$r	ENDS
;	COMDAT ??_R2IOException@@8
rdata$r	SEGMENT
??_R2IOException@@8 DD FLAT:??_R1A@?0A@A@IOException@@8	; IOException::`RTTI Base Class Array'
	DD	FLAT:??_R1A@?0A@A@Exception@@8
	DD	FLAT:??_R1A@?0A@A@Throwable@@8
rdata$r	ENDS
;	COMDAT ??_R1A@?0A@A@IOException@@8
rdata$r	SEGMENT
??_R1A@?0A@A@IOException@@8 DD FLAT:??_R0?AVIOException@@@8 ; IOException::`RTTI Base Class Descriptor at (0,-1,0,0)'
	DD	02H
	DD	00H
	DD	0ffffffffH
	DD	00H
	DD	00H
; Function compile flags: /Ogsy
rdata$r	ENDS
;	COMDAT ??0IOException@@QAE@XZ
_TEXT	SEGMENT
??0IOException@@QAE@XZ PROC NEAR			; IOException::IOException, COMDAT
; _this$ = ecx

; 189  : 		IOException () throw () : Exception () {}

  00000	56		 push	 esi
  00001	8b f1		 mov	 esi, ecx
  00003	e8 00 00 00 00	 call	 ??0Exception@@QAE@XZ	; Exception::Exception
  00008	c7 06 00 00 00
	00		 mov	 DWORD PTR [esi], OFFSET FLAT:??_7IOException@@6B@
  0000e	8b c6		 mov	 eax, esi
  00010	5e		 pop	 esi
  00011	c3		 ret	 0
??0IOException@@QAE@XZ ENDP				; IOException::IOException
_TEXT	ENDS
PUBLIC	??_C@_0M@CBPJAJJI@IOException?$AA@		; `string'
;	COMDAT ??_C@_0M@CBPJAJJI@IOException?$AA@
; File c:\stlport-4.6.1\stlport\stl\_alloc.h
CONST	SEGMENT
??_C@_0M@CBPJAJJI@IOException?$AA@ DB 'IOException', 00H ; `string'
; Function compile flags: /Ogsy
; File c:\darkeden\designed_common\project\client\packet\exception.h
CONST	ENDS
;	COMDAT ?getName@IOException@@UBE?AV?$basic_string@DV?$char_traits@D@_STL@@V?$allocator@D@2@@_STL@@XZ
_TEXT	SEGMENT
___$ReturnUdt$ = 8					; size = 4
$T116925 = 11						; size = 1
?getName@IOException@@UBE?AV?$basic_string@DV?$char_traits@D@_STL@@V?$allocator@D@2@@_STL@@XZ PROC NEAR ; IOException::getName, COMDAT
; _this$ = ecx

; 191  : 		std::string getName () const throw () { return "IOException"; }

  00000	55		 push	 ebp
  00001	8b ec		 mov	 ebp, esp
  00003	8b 4d 08	 mov	 ecx, DWORD PTR ___$ReturnUdt$[ebp]
  00006	8d 45 0b	 lea	 eax, DWORD PTR $T116925[ebp]
  00009	50		 push	 eax
  0000a	68 00 00 00 00	 push	 OFFSET FLAT:??_C@_0M@CBPJAJJI@IOException?$AA@
  0000f	e8 00 00 00 00	 call	 ??0?$basic_string@DV?$char_traits@D@_STL@@V?$allocator@D@2@@_STL@@QAE@PBDABV?$allocator@D@1@@Z ; _STL::basic_string<char,_STL::char_traits<char>,_STL::allocator<char> >::basic_string<char,_STL::char_traits<char>,_STL::allocator<char> >
  00014	8b 45 08	 mov	 eax, DWORD PTR ___$ReturnUdt$[ebp]
  00017	5d		 pop	 ebp
  00018	c2 04 00	 ret	 4
?getName@IOException@@UBE?AV?$basic_string@DV?$char_traits@D@_STL@@V?$allocator@D@2@@_STL@@XZ ENDP ; IOException::getName
_TEXT	ENDS
PUBLIC	??0IOException@@QAE@V?$basic_string@DV?$char_traits@D@_STL@@V?$allocator@D@2@@_STL@@@Z ; IOException::IOException
; Function compile flags: /Ogsy
;	COMDAT ??0IOException@@QAE@V?$basic_string@DV?$char_traits@D@_STL@@V?$allocator@D@2@@_STL@@@Z
_TEXT	SEGMENT
$T116934 = -4						; size = 4
_msg$ = 8						; size = 12
??0IOException@@QAE@V?$basic_string@DV?$char_traits@D@_STL@@V?$allocator@D@2@@_STL@@@Z PROC NEAR ; IOException::IOException, COMDAT
; _this$ = ecx

; 190  : 		IOException ( std::string msg ) throw () : Exception (msg) {}

  00000	55		 push	 ebp
  00001	8b ec		 mov	 ebp, esp
  00003	51		 push	 ecx
  00004	56		 push	 esi
  00005	83 ec 0c	 sub	 esp, 12			; 0000000cH
  00008	8b f1		 mov	 esi, ecx
  0000a	8d 45 08	 lea	 eax, DWORD PTR _msg$[ebp]
  0000d	8b cc		 mov	 ecx, esp
  0000f	89 65 fc	 mov	 DWORD PTR $T116934[ebp], esp
  00012	50		 push	 eax
  00013	e8 00 00 00 00	 call	 ??0?$basic_string@DV?$char_traits@D@_STL@@V?$allocator@D@2@@_STL@@QAE@ABV01@@Z ; _STL::basic_string<char,_STL::char_traits<char>,_STL::allocator<char> >::basic_string<char,_STL::char_traits<char>,_STL::allocator<char> >
  00018	8b ce		 mov	 ecx, esi
  0001a	e8 00 00 00 00	 call	 ??0Exception@@QAE@V?$basic_string@DV?$char_traits@D@_STL@@V?$allocator@D@2@@_STL@@@Z ; Exception::Exception
  0001f	8d 4d 08	 lea	 ecx, DWORD PTR _msg$[ebp]
  00022	c7 06 00 00 00
	00		 mov	 DWORD PTR [esi], OFFSET FLAT:??_7IOException@@6B@
  00028	e8 00 00 00 00	 call	 ??1?$basic_string@DV?$char_traits@D@_STL@@V?$allocator@D@2@@_STL@@QAE@XZ ; _STL::basic_string<char,_STL::char_traits<char>,_STL::allocator<char> >::~basic_string<char,_STL::char_traits<char>,_STL::allocator<char> >
  0002d	8b c6		 mov	 eax, esi
  0002f	5e		 pop	 esi
  00030	c9		 leave
  00031	c2 0c 00	 ret	 12			; 0000000cH
??0IOException@@QAE@V?$basic_string@DV?$char_traits@D@_STL@@V?$allocator@D@2@@_STL@@@Z ENDP ; IOException::IOException
_TEXT	ENDS
PUBLIC	??1IOException@@UAE@XZ				; IOException::~IOException
; Function compile flags: /Ogsy
;	COMDAT ??1IOException@@UAE@XZ
_TEXT	SEGMENT
??1IOException@@UAE@XZ PROC NEAR			; IOException::~IOException, COMDAT
; _this$ = ecx
  00000	e9 00 00 00 00	 jmp	 ??1Exception@@UAE@XZ
??1IOException@@UAE@XZ ENDP				; IOException::~IOException
_TEXT	ENDS
PUBLIC	??0ProtocolException@@QAE@XZ			; ProtocolException::ProtocolException
PUBLIC	?getName@ProtocolException@@UBE?AV?$basic_string@DV?$char_traits@D@_STL@@V?$allocator@D@2@@_STL@@XZ ; ProtocolException::getName
PUBLIC	??_7ProtocolException@@6B@			; ProtocolException::`vftable'
PUBLIC	??_GProtocolException@@UAEPAXI@Z		; ProtocolException::`scalar deleting destructor'
PUBLIC	??_R1A@?0A@A@ProtocolException@@8		; ProtocolException::`RTTI Base Class Descriptor at (0,-1,0,0)'
PUBLIC	??_R0?AVProtocolException@@@8			; ProtocolException `RTTI Type Descriptor'
PUBLIC	??_R4ProtocolException@@6B@			; ProtocolException::`RTTI Complete Object Locator'
PUBLIC	??_R3ProtocolException@@8			; ProtocolException::`RTTI Class Hierarchy Descriptor'
PUBLIC	??_R2ProtocolException@@8			; ProtocolException::`RTTI Base Class Array'
EXTRN	??_EProtocolException@@UAEPAXI@Z:NEAR		; ProtocolException::`vector deleting destructor'
;	COMDAT ??_7ProtocolException@@6B@
CONST	SEGMENT
??_7ProtocolException@@6B@ DD FLAT:??_R4ProtocolException@@6B@ ; ProtocolException::`vftable'
	DD	FLAT:??_EProtocolException@@UAEPAXI@Z
	DD	FLAT:?getName@ProtocolException@@UBE?AV?$basic_string@DV?$char_traits@D@_STL@@V?$allocator@D@2@@_STL@@XZ
	DD	FLAT:?toString@Throwable@@UBE?AV?$basic_string@DV?$char_traits@D@_STL@@V?$allocator@D@2@@_STL@@XZ
CONST	ENDS
;	COMDAT ??_R4ProtocolException@@6B@
rdata$r	SEGMENT
??_R4ProtocolException@@6B@ DD 00H			; ProtocolException::`RTTI Complete Object Locator'
	DD	00H
	DD	00H
	DD	FLAT:??_R0?AVProtocolException@@@8
	DD	FLAT:??_R3ProtocolException@@8
rdata$r	ENDS
;	COMDAT ??_R0?AVProtocolException@@@8
_DATA	SEGMENT
??_R0?AVProtocolException@@@8 DD FLAT:??_7type_info@@6B@ ; ProtocolException `RTTI Type Descriptor'
	DD	00H
	DB	'.?AVProtocolException@@', 00H
	ORG $-32
	DD	FLAT:??_7type_info@@6B@
	DD	00H
	DB	'.?AVProtocolException@@', 00H
_DATA	ENDS
;	COMDAT ??_R3ProtocolException@@8
rdata$r	SEGMENT
??_R3ProtocolException@@8 DD 00H			; ProtocolException::`RTTI Class Hierarchy Descriptor'
	DD	00H
	DD	04H
	DD	FLAT:??_R2ProtocolException@@8
rdata$r	ENDS
;	COMDAT ??_R2ProtocolException@@8
rdata$r	SEGMENT
??_R2ProtocolException@@8 DD FLAT:??_R1A@?0A@A@ProtocolException@@8 ; ProtocolException::`RTTI Base Class Array'
	DD	FLAT:??_R1A@?0A@A@IOException@@8
	DD	FLAT:??_R1A@?0A@A@Exception@@8
	DD	FLAT:??_R1A@?0A@A@Throwable@@8
rdata$r	ENDS
;	COMDAT ??_R1A@?0A@A@ProtocolException@@8
rdata$r	SEGMENT
??_R1A@?0A@A@ProtocolException@@8 DD FLAT:??_R0?AVProtocolException@@@8 ; ProtocolException::`RTTI Base Class Descriptor at (0,-1,0,0)'
	DD	03H
	DD	00H
	DD	0ffffffffH
	DD	00H
	DD	00H
; Function compile flags: /Ogsy
rdata$r	ENDS
;	COMDAT ??0ProtocolException@@QAE@XZ
_TEXT	SEGMENT
??0ProtocolException@@QAE@XZ PROC NEAR			; ProtocolException::ProtocolException, COMDAT
; _this$ = ecx

; 337  : 			ProtocolException () throw () : IOException () {}

  00000	56		 push	 esi
  00001	8b f1		 mov	 esi, ecx
  00003	e8 00 00 00 00	 call	 ??0IOException@@QAE@XZ	; IOException::IOException
  00008	c7 06 00 00 00
	00		 mov	 DWORD PTR [esi], OFFSET FLAT:??_7ProtocolException@@6B@
  0000e	8b c6		 mov	 eax, esi
  00010	5e		 pop	 esi
  00011	c3		 ret	 0
??0ProtocolException@@QAE@XZ ENDP			; ProtocolException::ProtocolException
_TEXT	ENDS
PUBLIC	??_C@_0BC@KDBIDNIF@ProtocolException?$AA@	; `string'
;	COMDAT ??_C@_0BC@KDBIDNIF@ProtocolException?$AA@
; File c:\stlport-4.6.1\stlport\stl\_alloc.h
CONST	SEGMENT
??_C@_0BC@KDBIDNIF@ProtocolException?$AA@ DB 'ProtocolException', 00H ; `string'
; Function compile flags: /Ogsy
; File c:\darkeden\designed_common\project\client\packet\exception.h
CONST	ENDS
;	COMDAT ?getName@ProtocolException@@UBE?AV?$basic_string@DV?$char_traits@D@_STL@@V?$allocator@D@2@@_STL@@XZ
_TEXT	SEGMENT
___$ReturnUdt$ = 8					; size = 4
$T116943 = 11						; size = 1
?getName@ProtocolException@@UBE?AV?$basic_string@DV?$char_traits@D@_STL@@V?$allocator@D@2@@_STL@@XZ PROC NEAR ; ProtocolException::getName, COMDAT
; _this$ = ecx

; 339  : 			std::string getName () const throw () { return "ProtocolException"; }

  00000	55		 push	 ebp
  00001	8b ec		 mov	 ebp, esp
  00003	8b 4d 08	 mov	 ecx, DWORD PTR ___$ReturnUdt$[ebp]
  00006	8d 45 0b	 lea	 eax, DWORD PTR $T116943[ebp]
  00009	50		 push	 eax
  0000a	68 00 00 00 00	 push	 OFFSET FLAT:??_C@_0BC@KDBIDNIF@ProtocolException?$AA@
  0000f	e8 00 00 00 00	 call	 ??0?$basic_string@DV?$char_traits@D@_STL@@V?$allocator@D@2@@_STL@@QAE@PBDABV?$allocator@D@1@@Z ; _STL::basic_string<char,_STL::char_traits<char>,_STL::allocator<char> >::basic_string<char,_STL::char_traits<char>,_STL::allocator<char> >
  00014	8b 45 08	 mov	 eax, DWORD PTR ___$ReturnUdt$[ebp]
  00017	5d		 pop	 ebp
  00018	c2 04 00	 ret	 4
?getName@ProtocolException@@UBE?AV?$basic_string@DV?$char_traits@D@_STL@@V?$allocator@D@2@@_STL@@XZ ENDP ; ProtocolException::getName
_TEXT	ENDS
PUBLIC	??0ProtocolException@@QAE@V?$basic_string@DV?$char_traits@D@_STL@@V?$allocator@D@2@@_STL@@@Z ; ProtocolException::ProtocolException
; Function compile flags: /Ogsy
;	COMDAT ??0ProtocolException@@QAE@V?$basic_string@DV?$char_traits@D@_STL@@V?$allocator@D@2@@_STL@@@Z
_TEXT	SEGMENT
$T116952 = -4						; size = 4
_msg$ = 8						; size = 12
??0ProtocolException@@QAE@V?$basic_string@DV?$char_traits@D@_STL@@V?$allocator@D@2@@_STL@@@Z PROC NEAR ; ProtocolException::ProtocolException, COMDAT
; _this$ = ecx

; 338  : 			ProtocolException ( std::string msg ) throw () : IOException (msg) {}

  00000	55		 push	 ebp
  00001	8b ec		 mov	 ebp, esp
  00003	51		 push	 ecx
  00004	56		 push	 esi
  00005	83 ec 0c	 sub	 esp, 12			; 0000000cH
  00008	8b f1		 mov	 esi, ecx
  0000a	8d 45 08	 lea	 eax, DWORD PTR _msg$[ebp]
  0000d	8b cc		 mov	 ecx, esp
  0000f	89 65 fc	 mov	 DWORD PTR $T116952[ebp], esp
  00012	50		 push	 eax
  00013	e8 00 00 00 00	 call	 ??0?$basic_string@DV?$char_traits@D@_STL@@V?$allocator@D@2@@_STL@@QAE@ABV01@@Z ; _STL::basic_string<char,_STL::char_traits<char>,_STL::allocator<char> >::basic_string<char,_STL::char_traits<char>,_STL::allocator<char> >
  00018	8b ce		 mov	 ecx, esi
  0001a	e8 00 00 00 00	 call	 ??0IOException@@QAE@V?$basic_string@DV?$char_traits@D@_STL@@V?$allocator@D@2@@_STL@@@Z ; IOException::IOException
  0001f	8d 4d 08	 lea	 ecx, DWORD PTR _msg$[ebp]
  00022	c7 06 00 00 00
	00		 mov	 DWORD PTR [esi], OFFSET FLAT:??_7ProtocolException@@6B@
  00028	e8 00 00 00 00	 call	 ??1?$basic_string@DV?$char_traits@D@_STL@@V?$allocator@D@2@@_STL@@QAE@XZ ; _STL::basic_string<char,_STL::char_traits<char>,_STL::allocator<char> >::~basic_string<char,_STL::char_traits<char>,_STL::allocator<char> >
  0002d	8b c6		 mov	 eax, esi
  0002f	5e		 pop	 esi
  00030	c9		 leave
  00031	c2 0c 00	 ret	 12			; 0000000cH
??0ProtocolException@@QAE@V?$basic_string@DV?$char_traits@D@_STL@@V?$allocator@D@2@@_STL@@@Z ENDP ; ProtocolException::ProtocolException
_TEXT	ENDS
PUBLIC	??1ProtocolException@@UAE@XZ			; ProtocolException::~ProtocolException
; Function compile flags: /Ogsy
;	COMDAT ??1ProtocolException@@UAE@XZ
_TEXT	SEGMENT
??1ProtocolException@@UAE@XZ PROC NEAR			; ProtocolException::~ProtocolException, COMDAT
; _this$ = ecx
  00000	e9 00 00 00 00	 jmp	 ??1IOException@@UAE@XZ
??1ProtocolException@@UAE@XZ ENDP			; ProtocolException::~ProtocolException
_TEXT	ENDS
PUBLIC	??0InvalidProtocolException@@QAE@V?$basic_string@DV?$char_traits@D@_STL@@V?$allocator@D@2@@_STL@@@Z ; InvalidProtocolException::InvalidProtocolException
PUBLIC	?getName@InvalidProtocolException@@UBE?AV?$basic_string@DV?$char_traits@D@_STL@@V?$allocator@D@2@@_STL@@XZ ; InvalidProtocolException::getName
PUBLIC	??_7InvalidProtocolException@@6B@		; InvalidProtocolException::`vftable'
PUBLIC	??_GInvalidProtocolException@@UAEPAXI@Z		; InvalidProtocolException::`scalar deleting destructor'
PUBLIC	??_R4InvalidProtocolException@@6B@		; InvalidProtocolException::`RTTI Complete Object Locator'
PUBLIC	??_R0?AVInvalidProtocolException@@@8		; InvalidProtocolException `RTTI Type Descriptor'
PUBLIC	??_R3InvalidProtocolException@@8		; InvalidProtocolException::`RTTI Class Hierarchy Descriptor'
PUBLIC	??_R2InvalidProtocolException@@8		; InvalidProtocolException::`RTTI Base Class Array'
PUBLIC	??_R1A@?0A@A@InvalidProtocolException@@8	; InvalidProtocolException::`RTTI Base Class Descriptor at (0,-1,0,0)'
EXTRN	??_EInvalidProtocolException@@UAEPAXI@Z:NEAR	; InvalidProtocolException::`vector deleting destructor'
;	COMDAT ??_7InvalidProtocolException@@6B@
CONST	SEGMENT
??_7InvalidProtocolException@@6B@ DD FLAT:??_R4InvalidProtocolException@@6B@ ; InvalidProtocolException::`vftable'
	DD	FLAT:??_EInvalidProtocolException@@UAEPAXI@Z
	DD	FLAT:?getName@InvalidProtocolException@@UBE?AV?$basic_string@DV?$char_traits@D@_STL@@V?$allocator@D@2@@_STL@@XZ
	DD	FLAT:?toString@Throwable@@UBE?AV?$basic_string@DV?$char_traits@D@_STL@@V?$allocator@D@2@@_STL@@XZ
CONST	ENDS
;	COMDAT ??_R4InvalidProtocolException@@6B@
rdata$r	SEGMENT
??_R4InvalidProtocolException@@6B@ DD 00H		; InvalidProtocolException::`RTTI Complete Object Locator'
	DD	00H
	DD	00H
	DD	FLAT:??_R0?AVInvalidProtocolException@@@8
	DD	FLAT:??_R3InvalidProtocolException@@8
rdata$r	ENDS
;	COMDAT ??_R0?AVInvalidProtocolException@@@8
_DATA	SEGMENT
??_R0?AVInvalidProtocolException@@@8 DD FLAT:??_7type_info@@6B@ ; InvalidProtocolException `RTTI Type Descriptor'
	DD	00H
	DB	'.?AVInvalidProtocolException@@', 00H
	ORG $-39
	DD	FLAT:??_7type_info@@6B@
	DD	00H
	DB	'.?AVInvalidProtocolException@@', 00H
_DATA	ENDS
;	COMDAT ??_R3InvalidProtocolException@@8
rdata$r	SEGMENT
??_R3InvalidProtocolException@@8 DD 00H			; InvalidProtocolException::`RTTI Class Hierarchy Descriptor'
	DD	00H
	DD	05H
	DD	FLAT:??_R2InvalidProtocolException@@8
rdata$r	ENDS
;	COMDAT ??_R2InvalidProtocolException@@8
rdata$r	SEGMENT
??_R2InvalidProtocolException@@8 DD FLAT:??_R1A@?0A@A@InvalidProtocolException@@8 ; InvalidProtocolException::`RTTI Base Class Array'
	DD	FLAT:??_R1A@?0A@A@ProtocolException@@8
	DD	FLAT:??_R1A@?0A@A@IOException@@8
	DD	FLAT:??_R1A@?0A@A@Exception@@8
	DD	FLAT:??_R1A@?0A@A@Throwable@@8
rdata$r	ENDS
;	COMDAT ??_R1A@?0A@A@InvalidProtocolException@@8
rdata$r	SEGMENT
??_R1A@?0A@A@InvalidProtocolException@@8 DD FLAT:??_R0?AVInvalidProtocolException@@@8 ; InvalidProtocolException::`RTTI Base Class Descriptor at (0,-1,0,0)'
	DD	04H
	DD	00H
	DD	0ffffffffH
	DD	00H
	DD	00H
; Function compile flags: /Ogsy
rdata$r	ENDS
;	COMDAT ??0InvalidProtocolException@@QAE@V?$basic_string@DV?$char_traits@D@_STL@@V?$allocator@D@2@@_STL@@@Z
_TEXT	SEGMENT
$T116958 = -4						; size = 4
_msg$ = 8						; size = 12
??0InvalidProtocolException@@QAE@V?$basic_string@DV?$char_traits@D@_STL@@V?$allocator@D@2@@_STL@@@Z PROC NEAR ; InvalidProtocolException::InvalidProtocolException, COMDAT
; _this$ = ecx

; 367  : 				InvalidProtocolException ( std::string msg ) throw () : ProtocolException (msg) {}

  00000	55		 push	 ebp
  00001	8b ec		 mov	 ebp, esp
  00003	51		 push	 ecx
  00004	56		 push	 esi
  00005	83 ec 0c	 sub	 esp, 12			; 0000000cH
  00008	8b f1		 mov	 esi, ecx
  0000a	8d 45 08	 lea	 eax, DWORD PTR _msg$[ebp]
  0000d	8b cc		 mov	 ecx, esp
  0000f	89 65 fc	 mov	 DWORD PTR $T116958[ebp], esp
  00012	50		 push	 eax
  00013	e8 00 00 00 00	 call	 ??0?$basic_string@DV?$char_traits@D@_STL@@V?$allocator@D@2@@_STL@@QAE@ABV01@@Z ; _STL::basic_string<char,_STL::char_traits<char>,_STL::allocator<char> >::basic_string<char,_STL::char_traits<char>,_STL::allocator<char> >
  00018	8b ce		 mov	 ecx, esi
  0001a	e8 00 00 00 00	 call	 ??0ProtocolException@@QAE@V?$basic_string@DV?$char_traits@D@_STL@@V?$allocator@D@2@@_STL@@@Z ; ProtocolException::ProtocolException
  0001f	8d 4d 08	 lea	 ecx, DWORD PTR _msg$[ebp]
  00022	c7 06 00 00 00
	00		 mov	 DWORD PTR [esi], OFFSET FLAT:??_7InvalidProtocolException@@6B@
  00028	e8 00 00 00 00	 call	 ??1?$basic_string@DV?$char_traits@D@_STL@@V?$allocator@D@2@@_STL@@QAE@XZ ; _STL::basic_string<char,_STL::char_traits<char>,_STL::allocator<char> >::~basic_string<char,_STL::char_traits<char>,_STL::allocator<char> >
  0002d	8b c6		 mov	 eax, esi
  0002f	5e		 pop	 esi
  00030	c9		 leave
  00031	c2 0c 00	 ret	 12			; 0000000cH
??0InvalidProtocolException@@QAE@V?$basic_string@DV?$char_traits@D@_STL@@V?$allocator@D@2@@_STL@@@Z ENDP ; InvalidProtocolException::InvalidProtocolException
_TEXT	ENDS
PUBLIC	??_C@_0BJ@BKELNFKP@InvalidProtocolException?$AA@ ; `string'
;	COMDAT ??_C@_0BJ@BKELNFKP@InvalidProtocolException?$AA@
; File c:\stlport-4.6.1\stlport\stl\_alloc.h
CONST	SEGMENT
??_C@_0BJ@BKELNFKP@InvalidProtocolException?$AA@ DB 'InvalidProtocolExcep'
	DB	'tion', 00H					; `string'
; Function compile flags: /Ogsy
; File c:\darkeden\designed_common\project\client\packet\exception.h
CONST	ENDS
;	COMDAT ?getName@InvalidProtocolException@@UBE?AV?$basic_string@DV?$char_traits@D@_STL@@V?$allocator@D@2@@_STL@@XZ
_TEXT	SEGMENT
___$ReturnUdt$ = 8					; size = 4
$T116961 = 11						; size = 1
?getName@InvalidProtocolException@@UBE?AV?$basic_string@DV?$char_traits@D@_STL@@V?$allocator@D@2@@_STL@@XZ PROC NEAR ; InvalidProtocolException::getName, COMDAT
; _this$ = ecx

; 368  : 				std::string getName () const throw () { return "InvalidProtocolException"; }

  00000	55		 push	 ebp
  00001	8b ec		 mov	 ebp, esp
  00003	8b 4d 08	 mov	 ecx, DWORD PTR ___$ReturnUdt$[ebp]
  00006	8d 45 0b	 lea	 eax, DWORD PTR $T116961[ebp]
  00009	50		 push	 eax
  0000a	68 00 00 00 00	 push	 OFFSET FLAT:??_C@_0BJ@BKELNFKP@InvalidProtocolException?$AA@
  0000f	e8 00 00 00 00	 call	 ??0?$basic_string@DV?$char_traits@D@_STL@@V?$allocator@D@2@@_STL@@QAE@PBDABV?$allocator@D@1@@Z ; _STL::basic_string<char,_STL::char_traits<char>,_STL::allocator<char> >::basic_string<char,_STL::char_traits<char>,_STL::allocator<char> >
  00014	8b 45 08	 mov	 eax, DWORD PTR ___$ReturnUdt$[ebp]
  00017	5d		 pop	 ebp
  00018	c2 04 00	 ret	 4
?getName@InvalidProtocolException@@UBE?AV?$basic_string@DV?$char_traits@D@_STL@@V?$allocator@D@2@@_STL@@XZ ENDP ; InvalidProtocolException::getName
_TEXT	ENDS
PUBLIC	??1InvalidProtocolException@@UAE@XZ		; InvalidProtocolException::~InvalidProtocolException
; Function compile flags: /Ogsy
;	COMDAT ??1InvalidProtocolException@@UAE@XZ
_TEXT	SEGMENT
??1InvalidProtocolException@@UAE@XZ PROC NEAR		; InvalidProtocolException::~InvalidProtocolException, COMDAT
; _this$ = ecx
  00000	e9 00 00 00 00	 jmp	 ??1ProtocolException@@UAE@XZ
??1InvalidProtocolException@@UAE@XZ ENDP		; InvalidProtocolException::~InvalidProtocolException
_TEXT	ENDS
PUBLIC	??0InsufficientDataException@@QAE@I@Z		; InsufficientDataException::InsufficientDataException
PUBLIC	?getName@InsufficientDataException@@UBE?AV?$basic_string@DV?$char_traits@D@_STL@@V?$allocator@D@2@@_STL@@XZ ; InsufficientDataException::getName
PUBLIC	?toString@InsufficientDataException@@UBE?AV?$basic_string@DV?$char_traits@D@_STL@@V?$allocator@D@2@@_STL@@XZ ; InsufficientDataException::toString
PUBLIC	??_7InsufficientDataException@@6B@		; InsufficientDataException::`vftable'
PUBLIC	??_GInsufficientDataException@@UAEPAXI@Z	; InsufficientDataException::`scalar deleting destructor'
PUBLIC	??_R4InsufficientDataException@@6B@		; InsufficientDataException::`RTTI Complete Object Locator'
PUBLIC	??_R0?AVInsufficientDataException@@@8		; InsufficientDataException `RTTI Type Descriptor'
PUBLIC	??_R3InsufficientDataException@@8		; InsufficientDataException::`RTTI Class Hierarchy Descriptor'
PUBLIC	??_R2InsufficientDataException@@8		; InsufficientDataException::`RTTI Base Class Array'
PUBLIC	??_R1A@?0A@A@InsufficientDataException@@8	; InsufficientDataException::`RTTI Base Class Descriptor at (0,-1,0,0)'
EXTRN	??_EInsufficientDataException@@UAEPAXI@Z:NEAR	; InsufficientDataException::`vector deleting destructor'
;	COMDAT ??_7InsufficientDataException@@6B@
CONST	SEGMENT
??_7InsufficientDataException@@6B@ DD FLAT:??_R4InsufficientDataException@@6B@ ; InsufficientDataException::`vftable'
	DD	FLAT:??_EInsufficientDataException@@UAEPAXI@Z
	DD	FLAT:?getName@InsufficientDataException@@UBE?AV?$basic_string@DV?$char_traits@D@_STL@@V?$allocator@D@2@@_STL@@XZ
	DD	FLAT:?toString@InsufficientDataException@@UBE?AV?$basic_string@DV?$char_traits@D@_STL@@V?$allocator@D@2@@_STL@@XZ
CONST	ENDS
;	COMDAT ??_R4InsufficientDataException@@6B@
rdata$r	SEGMENT
??_R4InsufficientDataException@@6B@ DD 00H		; InsufficientDataException::`RTTI Complete Object Locator'
	DD	00H
	DD	00H
	DD	FLAT:??_R0?AVInsufficientDataException@@@8
	DD	FLAT:??_R3InsufficientDataException@@8
rdata$r	ENDS
;	COMDAT ??_R0?AVInsufficientDataException@@@8
_DATA	SEGMENT
??_R0?AVInsufficientDataException@@@8 DD FLAT:??_7type_info@@6B@ ; InsufficientDataException `RTTI Type Descriptor'
	DD	00H
	DB	'.?AVInsufficientDataException@@', 00H
	ORG $-40
	DD	FLAT:??_7type_info@@6B@
	DD	00H
	DB	'.?AVInsufficientDataException@@', 00H
_DATA	ENDS
;	COMDAT ??_R3InsufficientDataException@@8
rdata$r	SEGMENT
??_R3InsufficientDataException@@8 DD 00H		; InsufficientDataException::`RTTI Class Hierarchy Descriptor'
	DD	00H
	DD	05H
	DD	FLAT:??_R2InsufficientDataException@@8
rdata$r	ENDS
;	COMDAT ??_R2InsufficientDataException@@8
rdata$r	SEGMENT
??_R2InsufficientDataException@@8 DD FLAT:??_R1A@?0A@A@InsufficientDataException@@8 ; InsufficientDataException::`RTTI Base Class Array'
	DD	FLAT:??_R1A@?0A@A@ProtocolException@@8
	DD	FLAT:??_R1A@?0A@A@IOException@@8
	DD	FLAT:??_R1A@?0A@A@Exception@@8
	DD	FLAT:??_R1A@?0A@A@Throwable@@8
rdata$r	ENDS
;	COMDAT ??_R1A@?0A@A@InsufficientDataException@@8
rdata$r	SEGMENT
??_R1A@?0A@A@InsufficientDataException@@8 DD FLAT:??_R0?AVInsufficientDataException@@@8 ; InsufficientDataException::`RTTI Base Class Descriptor at (0,-1,0,0)'
	DD	04H
	DD	00H
	DD	0ffffffffH
	DD	00H
	DD	00H
; Function compile flags: /Ogsy
rdata$r	ENDS
;	COMDAT ??0InsufficientDataException@@QAE@I@Z
_TEXT	SEGMENT
_size$ = 8						; size = 4
??0InsufficientDataException@@QAE@I@Z PROC NEAR		; InsufficientDataException::InsufficientDataException, COMDAT
; _this$ = ecx

; 380  : 				InsufficientDataException ( uint size = 0 ) throw () : ProtocolException () , m_Size(size) {}

  00000	56		 push	 esi
  00001	8b f1		 mov	 esi, ecx
  00003	e8 00 00 00 00	 call	 ??0ProtocolException@@QAE@XZ ; ProtocolException::ProtocolException
  00008	8b 44 24 08	 mov	 eax, DWORD PTR _size$[esp]
  0000c	89 46 14	 mov	 DWORD PTR [esi+20], eax
  0000f	c7 06 00 00 00
	00		 mov	 DWORD PTR [esi], OFFSET FLAT:??_7InsufficientDataException@@6B@
  00015	8b c6		 mov	 eax, esi
  00017	5e		 pop	 esi
  00018	c2 04 00	 ret	 4
??0InsufficientDataException@@QAE@I@Z ENDP		; InsufficientDataException::InsufficientDataException
_TEXT	ENDS
PUBLIC	??_C@_0BK@MPNKHNEB@InsufficientDataException?$AA@ ; `string'
;	COMDAT ??_C@_0BK@MPNKHNEB@InsufficientDataException?$AA@
; File c:\stlport-4.6.1\stlport\stl\_alloc.h
CONST	SEGMENT
??_C@_0BK@MPNKHNEB@InsufficientDataException?$AA@ DB 'InsufficientDataExc'
	DB	'eption', 00H				; `string'
; Function compile flags: /Ogsy
; File c:\darkeden\designed_common\project\client\packet\exception.h
CONST	ENDS
;	COMDAT ?getName@InsufficientDataException@@UBE?AV?$basic_string@DV?$char_traits@D@_STL@@V?$allocator@D@2@@_STL@@XZ
_TEXT	SEGMENT
___$ReturnUdt$ = 8					; size = 4
$T116976 = 11						; size = 1
?getName@InsufficientDataException@@UBE?AV?$basic_string@DV?$char_traits@D@_STL@@V?$allocator@D@2@@_STL@@XZ PROC NEAR ; InsufficientDataException::getName, COMDAT
; _this$ = ecx

; 382  : 				std::string getName () const throw () { return "InsufficientDataException"; }

  00000	55		 push	 ebp
  00001	8b ec		 mov	 ebp, esp
  00003	8b 4d 08	 mov	 ecx, DWORD PTR ___$ReturnUdt$[ebp]
  00006	8d 45 0b	 lea	 eax, DWORD PTR $T116976[ebp]
  00009	50		 push	 eax
  0000a	68 00 00 00 00	 push	 OFFSET FLAT:??_C@_0BK@MPNKHNEB@InsufficientDataException?$AA@
  0000f	e8 00 00 00 00	 call	 ??0?$basic_string@DV?$char_traits@D@_STL@@V?$allocator@D@2@@_STL@@QAE@PBDABV?$allocator@D@1@@Z ; _STL::basic_string<char,_STL::char_traits<char>,_STL::allocator<char> >::basic_string<char,_STL::char_traits<char>,_STL::allocator<char> >
  00014	8b 45 08	 mov	 eax, DWORD PTR ___$ReturnUdt$[ebp]
  00017	5d		 pop	 ebp
  00018	c2 04 00	 ret	 4
?getName@InsufficientDataException@@UBE?AV?$basic_string@DV?$char_traits@D@_STL@@V?$allocator@D@2@@_STL@@XZ ENDP ; InsufficientDataException::getName
_TEXT	ENDS
PUBLIC	??_C@_0M@OKDIKPDP@?5?$CI?5lack?5of?5?$AA@	; `string'
PUBLIC	??_C@_09BIPHNNF@?5bytes?5?$CJ?6?$AA@		; `string'
PUBLIC	?getMessage@Throwable@@QBE?AV?$basic_string@DV?$char_traits@D@_STL@@V?$allocator@D@2@@_STL@@XZ ; Throwable::getMessage
;	COMDAT ??_C@_09BIPHNNF@?5bytes?5?$CJ?6?$AA@
CONST	SEGMENT
??_C@_09BIPHNNF@?5bytes?5?$CJ?6?$AA@ DB ' bytes )', 0aH, 00H ; `string'
CONST	ENDS
;	COMDAT ??_C@_0M@OKDIKPDP@?5?$CI?5lack?5of?5?$AA@
CONST	SEGMENT
??_C@_0M@OKDIKPDP@?5?$CI?5lack?5of?5?$AA@ DB ' ( lack of ', 00H ; `string'
; Function compile flags: /Ogsy
CONST	ENDS
;	COMDAT ?toString@InsufficientDataException@@UBE?AV?$basic_string@DV?$char_traits@D@_STL@@V?$allocator@D@2@@_STL@@XZ
_TEXT	SEGMENT
_buf$ = -44						; size = 20
$T116987 = -24						; size = 12
$T116986 = -24						; size = 12
$T116985 = -12						; size = 12
___$ReturnUdt$ = 8					; size = 4
?toString@InsufficientDataException@@UBE?AV?$basic_string@DV?$char_traits@D@_STL@@V?$allocator@D@2@@_STL@@XZ PROC NEAR ; InsufficientDataException::toString, COMDAT
; _this$ = ecx

; 385  : 				{

  00000	55		 push	 ebp
  00001	8b ec		 mov	 ebp, esp
  00003	83 ec 2c	 sub	 esp, 44			; 0000002cH
  00006	56		 push	 esi
  00007	8b f1		 mov	 esi, ecx

; 386  : 					StringStream buf;

  00009	8d 4d d4	 lea	 ecx, DWORD PTR _buf$[ebp]
  0000c	e8 00 00 00 00	 call	 ??0StringStream@@QAE@XZ	; StringStream::StringStream

; 387  : 					buf << getName() << " : " << getMessage();

  00011	8d 45 e8	 lea	 eax, DWORD PTR $T116986[ebp]
  00014	50		 push	 eax
  00015	8b ce		 mov	 ecx, esi
  00017	e8 00 00 00 00	 call	 ?getMessage@Throwable@@QBE?AV?$basic_string@DV?$char_traits@D@_STL@@V?$allocator@D@2@@_STL@@XZ ; Throwable::getMessage
  0001c	50		 push	 eax
  0001d	8b 06		 mov	 eax, DWORD PTR [esi]
  0001f	68 00 00 00 00	 push	 OFFSET FLAT:??_C@_03MCPBMLDJ@?5?3?5?$AA@
  00024	8d 4d f4	 lea	 ecx, DWORD PTR $T116985[ebp]
  00027	51		 push	 ecx
  00028	8b ce		 mov	 ecx, esi
  0002a	ff 50 04	 call	 DWORD PTR [eax+4]
  0002d	50		 push	 eax
  0002e	8d 4d d4	 lea	 ecx, DWORD PTR _buf$[ebp]
  00031	e8 00 00 00 00	 call	 ??6StringStream@@QAEAAV0@ABV?$basic_string@DV?$char_traits@D@_STL@@V?$allocator@D@2@@_STL@@@Z ; StringStream::operator<<
  00036	8b c8		 mov	 ecx, eax
  00038	e8 00 00 00 00	 call	 ??6StringStream@@QAEAAV0@PBD@Z ; StringStream::operator<<
  0003d	8b c8		 mov	 ecx, eax
  0003f	e8 00 00 00 00	 call	 ??6StringStream@@QAEAAV0@ABV?$basic_string@DV?$char_traits@D@_STL@@V?$allocator@D@2@@_STL@@@Z ; StringStream::operator<<
  00044	8d 4d f4	 lea	 ecx, DWORD PTR $T116985[ebp]
  00047	e8 00 00 00 00	 call	 ??1?$basic_string@DV?$char_traits@D@_STL@@V?$allocator@D@2@@_STL@@QAE@XZ ; _STL::basic_string<char,_STL::char_traits<char>,_STL::allocator<char> >::~basic_string<char,_STL::char_traits<char>,_STL::allocator<char> >
  0004c	8d 4d e8	 lea	 ecx, DWORD PTR $T116986[ebp]
  0004f	e8 00 00 00 00	 call	 ??1?$basic_string@DV?$char_traits@D@_STL@@V?$allocator@D@2@@_STL@@QAE@XZ ; _STL::basic_string<char,_STL::char_traits<char>,_STL::allocator<char> >::~basic_string<char,_STL::char_traits<char>,_STL::allocator<char> >

; 388  : 					if ( m_Size > 0 ) {

  00054	8b 46 14	 mov	 eax, DWORD PTR [esi+20]
  00057	85 c0		 test	 eax, eax
  00059	76 21		 jbe	 SHORT $L88569

; 389  : 						buf << " ( lack of " << m_Size << " bytes )\n";

  0005b	68 00 00 00 00	 push	 OFFSET FLAT:??_C@_09BIPHNNF@?5bytes?5?$CJ?6?$AA@
  00060	50		 push	 eax
  00061	68 00 00 00 00	 push	 OFFSET FLAT:??_C@_0M@OKDIKPDP@?5?$CI?5lack?5of?5?$AA@
  00066	8d 4d d4	 lea	 ecx, DWORD PTR _buf$[ebp]
  00069	e8 00 00 00 00	 call	 ??6StringStream@@QAEAAV0@PBD@Z ; StringStream::operator<<
  0006e	8b c8		 mov	 ecx, eax
  00070	e8 00 00 00 00	 call	 ??6StringStream@@QAEAAV0@I@Z ; StringStream::operator<<
  00075	8b c8		 mov	 ecx, eax
  00077	e8 00 00 00 00	 call	 ??6StringStream@@QAEAAV0@PBD@Z ; StringStream::operator<<
$L88569:

; 390  : 					}
; 391  : 					buf << getStackTrace ();

  0007c	8d 45 e8	 lea	 eax, DWORD PTR $T116987[ebp]
  0007f	50		 push	 eax
  00080	8b ce		 mov	 ecx, esi
  00082	e8 00 00 00 00	 call	 ?getStackTrace@Throwable@@QBE?AV?$basic_string@DV?$char_traits@D@_STL@@V?$allocator@D@2@@_STL@@XZ ; Throwable::getStackTrace
  00087	50		 push	 eax
  00088	8d 4d d4	 lea	 ecx, DWORD PTR _buf$[ebp]
  0008b	e8 00 00 00 00	 call	 ??6StringStream@@QAEAAV0@ABV?$basic_string@DV?$char_traits@D@_STL@@V?$allocator@D@2@@_STL@@@Z ; StringStream::operator<<
  00090	8d 4d e8	 lea	 ecx, DWORD PTR $T116987[ebp]
  00093	e8 00 00 00 00	 call	 ??1?$basic_string@DV?$char_traits@D@_STL@@V?$allocator@D@2@@_STL@@QAE@XZ ; _STL::basic_string<char,_STL::char_traits<char>,_STL::allocator<char> >::~basic_string<char,_STL::char_traits<char>,_STL::allocator<char> >

; 392  : 			
; 393  : 					return buf.toString();

  00098	ff 75 08	 push	 DWORD PTR ___$ReturnUdt$[ebp]
  0009b	8d 4d d4	 lea	 ecx, DWORD PTR _buf$[ebp]
  0009e	e8 00 00 00 00	 call	 ?toString@StringStream@@QBE?AV?$basic_string@DV?$char_traits@D@_STL@@V?$allocator@D@2@@_STL@@XZ ; StringStream::toString
  000a3	8d 4d d4	 lea	 ecx, DWORD PTR _buf$[ebp]
  000a6	e8 00 00 00 00	 call	 ??1StringStream@@QAE@XZ	; StringStream::~StringStream
  000ab	8b 45 08	 mov	 eax, DWORD PTR ___$ReturnUdt$[ebp]
  000ae	5e		 pop	 esi

; 394  : 				}

  000af	c9		 leave
  000b0	c2 04 00	 ret	 4
?toString@InsufficientDataException@@UBE?AV?$basic_string@DV?$char_traits@D@_STL@@V?$allocator@D@2@@_STL@@XZ ENDP ; InsufficientDataException::toString
; Function compile flags: /Ogsy
_TEXT	ENDS
;	COMDAT ?getMessage@Throwable@@QBE?AV?$basic_string@DV?$char_traits@D@_STL@@V?$allocator@D@2@@_STL@@XZ
_TEXT	SEGMENT
___$ReturnUdt$ = 8					; size = 4
?getMessage@Throwable@@QBE?AV?$basic_string@DV?$char_traits@D@_STL@@V?$allocator@D@2@@_STL@@XZ PROC NEAR ; Throwable::getMessage, COMDAT
; _this$ = ecx

; 72   : 	std::string getMessage () const throw () { return m_Message; }

  00000	83 c1 04	 add	 ecx, 4
  00003	51		 push	 ecx
  00004	8b 4c 24 08	 mov	 ecx, DWORD PTR ___$ReturnUdt$[esp]
  00008	e8 00 00 00 00	 call	 ??0?$basic_string@DV?$char_traits@D@_STL@@V?$allocator@D@2@@_STL@@QAE@ABV01@@Z ; _STL::basic_string<char,_STL::char_traits<char>,_STL::allocator<char> >::basic_string<char,_STL::char_traits<char>,_STL::allocator<char> >
  0000d	8b 44 24 04	 mov	 eax, DWORD PTR ___$ReturnUdt$[esp-4]
  00011	c2 04 00	 ret	 4
?getMessage@Throwable@@QBE?AV?$basic_string@DV?$char_traits@D@_STL@@V?$allocator@D@2@@_STL@@XZ ENDP ; Throwable::getMessage
_TEXT	ENDS
PUBLIC	??$insert@U?$_List_iterator@V?$basic_string@DV?$char_traits@D@_STL@@V?$allocator@D@2@@_STL@@U?$_Const_traits@V?$basic_string@DV?$char_traits@D@_STL@@V?$allocator@D@2@@_STL@@@2@@_STL@@@?$list@V?$basic_string@DV?$char_traits@D@_STL@@V?$allocator@D@2@@_STL@@V?$allocator@V?$basic_string@DV?$char_traits@D@_STL@@V?$allocator@D@2@@_STL@@@2@@_STL@@QAEXU?$_List_iterator@V?$basic_string@DV?$char_traits@D@_STL@@V?$allocator@D@2@@_STL@@U?$_Nonconst_traits@V?$basic_string@DV?$char_traits@D@_STL@@V?$allocator@D@2@@_STL@@@2@@1@U?$_List_iterator@V?$basic_string@DV?$char_traits@D@_STL@@V?$allocator@D@2@@_STL@@U?$_Const_traits@V?$basic_string@DV?$char_traits@D@_STL@@V?$allocator@D@2@@_STL@@@2@@1@1@Z ; _STL::list<_STL::basic_string<char,_STL::char_traits<char>,_STL::allocator<char> >,_STL::allocator<_STL::basic_string<char,_STL::char_traits<char>,_STL::allocator<char> > > >::insert<_STL::_List_iterator<_STL::basic_string<char,_STL::char_traits<char>,_STL::allocator<char> >,_STL::_Const_traits<_STL::basic_string<char,_STL::char_traits<char>,_STL::allocator<char> > > > >
; Function compile flags: /Ogsy
; File c:\stlport-4.6.1\stlport\stl\_list.h
;	COMDAT ??$insert@U?$_List_iterator@V?$basic_string@DV?$char_traits@D@_STL@@V?$allocator@D@2@@_STL@@U?$_Const_traits@V?$basic_string@DV?$char_traits@D@_STL@@V?$allocator@D@2@@_STL@@@2@@_STL@@@?$list@V?$basic_string@DV?$char_traits@D@_STL@@V?$allocator@D@2@@_STL@@V?$allocator@V?$basic_string@DV?$char_traits@D@_STL@@V?$allocator@D@2@@_STL@@@2@@_STL@@QAEXU?$_List_iterator@V?$basic_string@DV?$char_traits@D@_STL@@V?$allocator@D@2@@_STL@@U?$_Nonconst_traits@V?$basic_string@DV?$char_traits@D@_STL@@V?$allocator@D@2@@_STL@@@2@@1@U?$_List_iterator@V?$basic_string@DV?$char_traits@D@_STL@@V?$allocator@D@2@@_STL@@U?$_Const_traits@V?$basic_string@DV?$char_traits@D@_STL@@V?$allocator@D@2@@_STL@@@2@@1@1@Z
_TEXT	SEGMENT
___pos$ = 8						; size = 4
___first$ = 12						; size = 4
___last$ = 16						; size = 4
$T116993 = 19						; size = 1
??$insert@U?$_List_iterator@V?$basic_string@DV?$char_traits@D@_STL@@V?$allocator@D@2@@_STL@@U?$_Const_traits@V?$basic_string@DV?$char_traits@D@_STL@@V?$allocator@D@2@@_STL@@@2@@_STL@@@?$list@V?$basic_string@DV?$char_traits@D@_STL@@V?$allocator@D@2@@_STL@@V?$allocator@V?$basic_string@DV?$char_traits@D@_STL@@V?$allocator@D@2@@_STL@@@2@@_STL@@QAEXU?$_List_iterator@V?$basic_string@DV?$char_traits@D@_STL@@V?$allocator@D@2@@_STL@@U?$_Nonconst_traits@V?$basic_string@DV?$char_traits@D@_STL@@V?$allocator@D@2@@_STL@@@2@@1@U?$_List_iterator@V?$basic_string@DV?$char_traits@D@_STL@@V?$allocator@D@2@@_STL@@U?$_Const_traits@V?$basic_string@DV?$char_traits@D@_STL@@V?$allocator@D@2@@_STL@@@2@@1@1@Z PROC NEAR ; _STL::list<_STL::basic_string<char,_STL::char_traits<char>,_STL::allocator<char> >,_STL::allocator<_STL::basic_string<char,_STL::char_traits<char>,_STL::allocator<char> > > >::insert<_STL::_List_iterator<_STL::basic_string<char,_STL::char_traits<char>,_STL::allocator<char> >,_STL::_Const_traits<_STL::basic_string<char,_STL::char_traits<char>,_STL::allocator<char> > > > >, COMDAT
; _this$ = ecx

; 312  :   void insert(iterator __pos, _InputIterator __first, _InputIterator __last) {

  00000	55		 push	 ebp
  00001	8b ec		 mov	 ebp, esp

; 313  :     typedef typename _Is_integer<_InputIterator>::_Integral _Integral;
; 314  :     _M_insert_dispatch(__pos, __first, __last, _Integral());

  00003	8b 55 08	 mov	 edx, DWORD PTR ___pos$[ebp]
  00006	8d 45 13	 lea	 eax, DWORD PTR $T116993[ebp]
  00009	50		 push	 eax
  0000a	ff 75 10	 push	 DWORD PTR ___last$[ebp]
  0000d	ff 75 0c	 push	 DWORD PTR ___first$[ebp]
  00010	51		 push	 ecx
  00011	8b c4		 mov	 eax, esp
  00013	89 10		 mov	 DWORD PTR [eax], edx
  00015	e8 00 00 00 00	 call	 ??$_M_insert_dispatch@U?$_List_iterator@V?$basic_string@DV?$char_traits@D@_STL@@V?$allocator@D@2@@_STL@@U?$_Const_traits@V?$basic_string@DV?$char_traits@D@_STL@@V?$allocator@D@2@@_STL@@@2@@_STL@@@?$list@V?$basic_string@DV?$char_traits@D@_STL@@V?$allocator@D@2@@_STL@@V?$allocator@V?$basic_string@DV?$char_traits@D@_STL@@V?$allocator@D@2@@_STL@@@2@@_STL@@QAEXU?$_List_iterator@V?$basic_string@DV?$char_traits@D@_STL@@V?$allocator@D@2@@_STL@@U?$_Nonconst_traits@V?$basic_string@DV?$char_traits@D@_STL@@V?$allocator@D@2@@_STL@@@2@@1@U?$_List_iterator@V?$basic_string@DV?$char_traits@D@_STL@@V?$allocator@D@2@@_STL@@U?$_Const_traits@V?$basic_string@DV?$char_traits@D@_STL@@V?$allocator@D@2@@_STL@@@2@@1@1ABU__false_type@1@@Z ; _STL::list<_STL::basic_string<char,_STL::char_traits<char>,_STL::allocator<char> >,_STL::allocator<_STL::basic_string<char,_STL::char_traits<char>,_STL::allocator<char> > > >::_M_insert_dispatch<_STL::_List_iterator<_STL::basic_string<char,_STL::char_traits<char>,_STL::allocator<char> >,_STL::_Const_traits<_STL::basic_string<char,_STL::char_traits<char>,_STL::allocator<char> > > > >

; 315  :   }

  0001a	5d		 pop	 ebp
  0001b	c2 0c 00	 ret	 12			; 0000000cH
??$insert@U?$_List_iterator@V?$basic_string@DV?$char_traits@D@_STL@@V?$allocator@D@2@@_STL@@U?$_Const_traits@V?$basic_string@DV?$char_traits@D@_STL@@V?$allocator@D@2@@_STL@@@2@@_STL@@@?$list@V?$basic_string@DV?$char_traits@D@_STL@@V?$allocator@D@2@@_STL@@V?$allocator@V?$basic_string@DV?$char_traits@D@_STL@@V?$allocator@D@2@@_STL@@@2@@_STL@@QAEXU?$_List_iterator@V?$basic_string@DV?$char_traits@D@_STL@@V?$allocator@D@2@@_STL@@U?$_Nonconst_traits@V?$basic_string@DV?$char_traits@D@_STL@@V?$allocator@D@2@@_STL@@@2@@1@U?$_List_iterator@V?$basic_string@DV?$char_traits@D@_STL@@V?$allocator@D@2@@_STL@@U?$_Const_traits@V?$basic_string@DV?$char_traits@D@_STL@@V?$allocator@D@2@@_STL@@@2@@1@1@Z ENDP ; _STL::list<_STL::basic_string<char,_STL::char_traits<char>,_STL::allocator<char> >,_STL::allocator<_STL::basic_string<char,_STL::char_traits<char>,_STL::allocator<char> > > >::insert<_STL::_List_iterator<_STL::basic_string<char,_STL::char_traits<char>,_STL::allocator<char> >,_STL::_Const_traits<_STL::basic_string<char,_STL::char_traits<char>,_STL::allocator<char> > > > >
_TEXT	ENDS
PUBLIC	??_R4RuntimeException@@6B@			; RuntimeException::`RTTI Complete Object Locator'
PUBLIC	??_R0?AVRuntimeException@@@8			; RuntimeException `RTTI Type Descriptor'
PUBLIC	??_R3RuntimeException@@8			; RuntimeException::`RTTI Class Hierarchy Descriptor'
PUBLIC	??_R2RuntimeException@@8			; RuntimeException::`RTTI Base Class Array'
PUBLIC	??_R1A@?0A@A@RuntimeException@@8		; RuntimeException::`RTTI Base Class Descriptor at (0,-1,0,0)'
PUBLIC	??0RuntimeException@@QAE@XZ			; RuntimeException::RuntimeException
PUBLIC	?getName@RuntimeException@@UBE?AV?$basic_string@DV?$char_traits@D@_STL@@V?$allocator@D@2@@_STL@@XZ ; RuntimeException::getName
PUBLIC	??_7RuntimeException@@6B@			; RuntimeException::`vftable'
PUBLIC	??_GRuntimeException@@UAEPAXI@Z			; RuntimeException::`scalar deleting destructor'
EXTRN	??_ERuntimeException@@UAEPAXI@Z:NEAR		; RuntimeException::`vector deleting destructor'
;	COMDAT ??_7RuntimeException@@6B@
; File c:\darkeden\designed_common\project\client\packet\exception.h
CONST	SEGMENT
??_7RuntimeException@@6B@ DD FLAT:??_R4RuntimeException@@6B@ ; RuntimeException::`vftable'
	DD	FLAT:??_ERuntimeException@@UAEPAXI@Z
	DD	FLAT:?getName@RuntimeException@@UBE?AV?$basic_string@DV?$char_traits@D@_STL@@V?$allocator@D@2@@_STL@@XZ
	DD	FLAT:?toString@Throwable@@UBE?AV?$basic_string@DV?$char_traits@D@_STL@@V?$allocator@D@2@@_STL@@XZ
CONST	ENDS
;	COMDAT ??_R4RuntimeException@@6B@
rdata$r	SEGMENT
??_R4RuntimeException@@6B@ DD 00H			; RuntimeException::`RTTI Complete Object Locator'
	DD	00H
	DD	00H
	DD	FLAT:??_R0?AVRuntimeException@@@8
	DD	FLAT:??_R3RuntimeException@@8
rdata$r	ENDS
;	COMDAT ??_R0?AVRuntimeException@@@8
_DATA	SEGMENT
??_R0?AVRuntimeException@@@8 DD FLAT:??_7type_info@@6B@	; RuntimeException `RTTI Type Descriptor'
	DD	00H
	DB	'.?AVRuntimeException@@', 00H
	ORG $-31
	DD	FLAT:??_7type_info@@6B@
	DD	00H
	DB	'.?AVRuntimeException@@', 00H
_DATA	ENDS
;	COMDAT ??_R3RuntimeException@@8
rdata$r	SEGMENT
??_R3RuntimeException@@8 DD 00H				; RuntimeException::`RTTI Class Hierarchy Descriptor'
	DD	00H
	DD	03H
	DD	FLAT:??_R2RuntimeException@@8
rdata$r	ENDS
;	COMDAT ??_R2RuntimeException@@8
rdata$r	SEGMENT
??_R2RuntimeException@@8 DD FLAT:??_R1A@?0A@A@RuntimeException@@8 ; RuntimeException::`RTTI Base Class Array'
	DD	FLAT:??_R1A@?0A@A@Exception@@8
	DD	FLAT:??_R1A@?0A@A@Throwable@@8
rdata$r	ENDS
;	COMDAT ??_R1A@?0A@A@RuntimeException@@8
rdata$r	SEGMENT
??_R1A@?0A@A@RuntimeException@@8 DD FLAT:??_R0?AVRuntimeException@@@8 ; RuntimeException::`RTTI Base Class Descriptor at (0,-1,0,0)'
	DD	02H
	DD	00H
	DD	0ffffffffH
	DD	00H
	DD	00H
; Function compile flags: /Ogsy
rdata$r	ENDS
;	COMDAT ??0RuntimeException@@QAE@XZ
_TEXT	SEGMENT
??0RuntimeException@@QAE@XZ PROC NEAR			; RuntimeException::RuntimeException, COMDAT
; _this$ = ecx

; 563  : 		RuntimeException () throw () : Exception () {}

  00000	56		 push	 esi
  00001	8b f1		 mov	 esi, ecx
  00003	e8 00 00 00 00	 call	 ??0Exception@@QAE@XZ	; Exception::Exception
  00008	c7 06 00 00 00
	00		 mov	 DWORD PTR [esi], OFFSET FLAT:??_7RuntimeException@@6B@
  0000e	8b c6		 mov	 eax, esi
  00010	5e		 pop	 esi
  00011	c3		 ret	 0
??0RuntimeException@@QAE@XZ ENDP			; RuntimeException::RuntimeException
_TEXT	ENDS
PUBLIC	??_C@_0BB@CDLLKKB@RuntimeException?$AA@		; `string'
;	COMDAT ??_C@_0BB@CDLLKKB@RuntimeException?$AA@
; File c:\stlport-4.6.1\stlport\stl\_alloc.h
CONST	SEGMENT
??_C@_0BB@CDLLKKB@RuntimeException?$AA@ DB 'RuntimeException', 00H ; `string'
; Function compile flags: /Ogsy
; File c:\darkeden\designed_common\project\client\packet\exception.h
CONST	ENDS
;	COMDAT ?getName@RuntimeException@@UBE?AV?$basic_string@DV?$char_traits@D@_STL@@V?$allocator@D@2@@_STL@@XZ
_TEXT	SEGMENT
___$ReturnUdt$ = 8					; size = 4
$T117010 = 11						; size = 1
?getName@RuntimeException@@UBE?AV?$basic_string@DV?$char_traits@D@_STL@@V?$allocator@D@2@@_STL@@XZ PROC NEAR ; RuntimeException::getName, COMDAT
; _this$ = ecx

; 565  : 		std::string getName () const throw () { return "RuntimeException"; }

  00000	55		 push	 ebp
  00001	8b ec		 mov	 ebp, esp
  00003	8b 4d 08	 mov	 ecx, DWORD PTR ___$ReturnUdt$[ebp]
  00006	8d 45 0b	 lea	 eax, DWORD PTR $T117010[ebp]
  00009	50		 push	 eax
  0000a	68 00 00 00 00	 push	 OFFSET FLAT:??_C@_0BB@CDLLKKB@RuntimeException?$AA@
  0000f	e8 00 00 00 00	 call	 ??0?$basic_string@DV?$char_traits@D@_STL@@V?$allocator@D@2@@_STL@@QAE@PBDABV?$allocator@D@1@@Z ; _STL::basic_string<char,_STL::char_traits<char>,_STL::allocator<char> >::basic_string<char,_STL::char_traits<char>,_STL::allocator<char> >
  00014	8b 45 08	 mov	 eax, DWORD PTR ___$ReturnUdt$[ebp]
  00017	5d		 pop	 ebp
  00018	c2 04 00	 ret	 4
?getName@RuntimeException@@UBE?AV?$basic_string@DV?$char_traits@D@_STL@@V?$allocator@D@2@@_STL@@XZ ENDP ; RuntimeException::getName
_TEXT	ENDS
PUBLIC	??0RuntimeException@@QAE@V?$basic_string@DV?$char_traits@D@_STL@@V?$allocator@D@2@@_STL@@@Z ; RuntimeException::RuntimeException
; Function compile flags: /Ogsy
;	COMDAT ??0RuntimeException@@QAE@V?$basic_string@DV?$char_traits@D@_STL@@V?$allocator@D@2@@_STL@@@Z
_TEXT	SEGMENT
$T117019 = -4						; size = 4
_msg$ = 8						; size = 12
??0RuntimeException@@QAE@V?$basic_string@DV?$char_traits@D@_STL@@V?$allocator@D@2@@_STL@@@Z PROC NEAR ; RuntimeException::RuntimeException, COMDAT
; _this$ = ecx

; 564  : 		RuntimeException ( std::string msg ) throw () : Exception (msg) {}

  00000	55		 push	 ebp
  00001	8b ec		 mov	 ebp, esp
  00003	51		 push	 ecx
  00004	56		 push	 esi
  00005	83 ec 0c	 sub	 esp, 12			; 0000000cH
  00008	8b f1		 mov	 esi, ecx
  0000a	8d 45 08	 lea	 eax, DWORD PTR _msg$[ebp]
  0000d	8b cc		 mov	 ecx, esp
  0000f	89 65 fc	 mov	 DWORD PTR $T117019[ebp], esp
  00012	50		 push	 eax
  00013	e8 00 00 00 00	 call	 ??0?$basic_string@DV?$char_traits@D@_STL@@V?$allocator@D@2@@_STL@@QAE@ABV01@@Z ; _STL::basic_string<char,_STL::char_traits<char>,_STL::allocator<char> >::basic_string<char,_STL::char_traits<char>,_STL::allocator<char> >
  00018	8b ce		 mov	 ecx, esi
  0001a	e8 00 00 00 00	 call	 ??0Exception@@QAE@V?$basic_string@DV?$char_traits@D@_STL@@V?$allocator@D@2@@_STL@@@Z ; Exception::Exception
  0001f	8d 4d 08	 lea	 ecx, DWORD PTR _msg$[ebp]
  00022	c7 06 00 00 00
	00		 mov	 DWORD PTR [esi], OFFSET FLAT:??_7RuntimeException@@6B@
  00028	e8 00 00 00 00	 call	 ??1?$basic_string@DV?$char_traits@D@_STL@@V?$allocator@D@2@@_STL@@QAE@XZ ; _STL::basic_string<char,_STL::char_traits<char>,_STL::allocator<char> >::~basic_string<char,_STL::char_traits<char>,_STL::allocator<char> >
  0002d	8b c6		 mov	 eax, esi
  0002f	5e		 pop	 esi
  00030	c9		 leave
  00031	c2 0c 00	 ret	 12			; 0000000cH
??0RuntimeException@@QAE@V?$basic_string@DV?$char_traits@D@_STL@@V?$allocator@D@2@@_STL@@@Z ENDP ; RuntimeException::RuntimeException
_TEXT	ENDS
PUBLIC	??1RuntimeException@@UAE@XZ			; RuntimeException::~RuntimeException
; Function compile flags: /Ogsy
;	COMDAT ??1RuntimeException@@UAE@XZ
_TEXT	SEGMENT
??1RuntimeException@@UAE@XZ PROC NEAR			; RuntimeException::~RuntimeException, COMDAT
; _this$ = ecx
  00000	e9 00 00 00 00	 jmp	 ??1Exception@@UAE@XZ
??1RuntimeException@@UAE@XZ ENDP			; RuntimeException::~RuntimeException
_TEXT	ENDS
PUBLIC	??0OutOfBoundException@@QAE@XZ			; OutOfBoundException::OutOfBoundException
PUBLIC	?getName@OutOfBoundException@@UBE?AV?$basic_string@DV?$char_traits@D@_STL@@V?$allocator@D@2@@_STL@@XZ ; OutOfBoundException::getName
PUBLIC	??_7OutOfBoundException@@6B@			; OutOfBoundException::`vftable'
PUBLIC	??_GOutOfBoundException@@UAEPAXI@Z		; OutOfBoundException::`scalar deleting destructor'
PUBLIC	??_R4OutOfBoundException@@6B@			; OutOfBoundException::`RTTI Complete Object Locator'
PUBLIC	??_R0?AVOutOfBoundException@@@8			; OutOfBoundException `RTTI Type Descriptor'
PUBLIC	??_R3OutOfBoundException@@8			; OutOfBoundException::`RTTI Class Hierarchy Descriptor'
PUBLIC	??_R2OutOfBoundException@@8			; OutOfBoundException::`RTTI Base Class Array'
PUBLIC	??_R1A@?0A@A@OutOfBoundException@@8		; OutOfBoundException::`RTTI Base Class Descriptor at (0,-1,0,0)'
EXTRN	??_EOutOfBoundException@@UAEPAXI@Z:NEAR		; OutOfBoundException::`vector deleting destructor'
;	COMDAT ??_7OutOfBoundException@@6B@
CONST	SEGMENT
??_7OutOfBoundException@@6B@ DD FLAT:??_R4OutOfBoundException@@6B@ ; OutOfBoundException::`vftable'
	DD	FLAT:??_EOutOfBoundException@@UAEPAXI@Z
	DD	FLAT:?getName@OutOfBoundException@@UBE?AV?$basic_string@DV?$char_traits@D@_STL@@V?$allocator@D@2@@_STL@@XZ
	DD	FLAT:?toString@Throwable@@UBE?AV?$basic_string@DV?$char_traits@D@_STL@@V?$allocator@D@2@@_STL@@XZ
CONST	ENDS
;	COMDAT ??_R4OutOfBoundException@@6B@
rdata$r	SEGMENT
??_R4OutOfBoundException@@6B@ DD 00H			; OutOfBoundException::`RTTI Complete Object Locator'
	DD	00H
	DD	00H
	DD	FLAT:??_R0?AVOutOfBoundException@@@8
	DD	FLAT:??_R3OutOfBoundException@@8
rdata$r	ENDS
;	COMDAT ??_R0?AVOutOfBoundException@@@8
_DATA	SEGMENT
??_R0?AVOutOfBoundException@@@8 DD FLAT:??_7type_info@@6B@ ; OutOfBoundException `RTTI Type Descriptor'
	DD	00H
	DB	'.?AVOutOfBoundException@@', 00H
	ORG $-34
	DD	FLAT:??_7type_info@@6B@
	DD	00H
	DB	'.?AVOutOfBoundException@@', 00H
_DATA	ENDS
;	COMDAT ??_R3OutOfBoundException@@8
rdata$r	SEGMENT
??_R3OutOfBoundException@@8 DD 00H			; OutOfBoundException::`RTTI Class Hierarchy Descriptor'
	DD	00H
	DD	04H
	DD	FLAT:??_R2OutOfBoundException@@8
rdata$r	ENDS
;	COMDAT ??_R2OutOfBoundException@@8
rdata$r	SEGMENT
??_R2OutOfBoundException@@8 DD FLAT:??_R1A@?0A@A@OutOfBoundException@@8 ; OutOfBoundException::`RTTI Base Class Array'
	DD	FLAT:??_R1A@?0A@A@RuntimeException@@8
	DD	FLAT:??_R1A@?0A@A@Exception@@8
	DD	FLAT:??_R1A@?0A@A@Throwable@@8
rdata$r	ENDS
;	COMDAT ??_R1A@?0A@A@OutOfBoundException@@8
rdata$r	SEGMENT
??_R1A@?0A@A@OutOfBoundException@@8 DD FLAT:??_R0?AVOutOfBoundException@@@8 ; OutOfBoundException::`RTTI Base Class Descriptor at (0,-1,0,0)'
	DD	03H
	DD	00H
	DD	0ffffffffH
	DD	00H
	DD	00H
; Function compile flags: /Ogsy
rdata$r	ENDS
;	COMDAT ??0OutOfBoundException@@QAE@XZ
_TEXT	SEGMENT
??0OutOfBoundException@@QAE@XZ PROC NEAR		; OutOfBoundException::OutOfBoundException, COMDAT
; _this$ = ecx

; 591  : 			OutOfBoundException () throw () : RuntimeException () {}

  00000	56		 push	 esi
  00001	8b f1		 mov	 esi, ecx
  00003	e8 00 00 00 00	 call	 ??0RuntimeException@@QAE@XZ ; RuntimeException::RuntimeException
  00008	c7 06 00 00 00
	00		 mov	 DWORD PTR [esi], OFFSET FLAT:??_7OutOfBoundException@@6B@
  0000e	8b c6		 mov	 eax, esi
  00010	5e		 pop	 esi
  00011	c3		 ret	 0
??0OutOfBoundException@@QAE@XZ ENDP			; OutOfBoundException::OutOfBoundException
_TEXT	ENDS
PUBLIC	??_C@_0BE@LPPFFNIN@OutOfBoundException?$AA@	; `string'
;	COMDAT ??_C@_0BE@LPPFFNIN@OutOfBoundException?$AA@
; File c:\stlport-4.6.1\stlport\stl\_alloc.h
CONST	SEGMENT
??_C@_0BE@LPPFFNIN@OutOfBoundException?$AA@ DB 'OutOfBoundException', 00H ; `string'
; Function compile flags: /Ogsy
; File c:\darkeden\designed_common\project\client\packet\exception.h
CONST	ENDS
;	COMDAT ?getName@OutOfBoundException@@UBE?AV?$basic_string@DV?$char_traits@D@_STL@@V?$allocator@D@2@@_STL@@XZ
_TEXT	SEGMENT
___$ReturnUdt$ = 8					; size = 4
$T117028 = 11						; size = 1
?getName@OutOfBoundException@@UBE?AV?$basic_string@DV?$char_traits@D@_STL@@V?$allocator@D@2@@_STL@@XZ PROC NEAR ; OutOfBoundException::getName, COMDAT
; _this$ = ecx

; 593  : 			std::string getName () const throw () { return "OutOfBoundException"; }

  00000	55		 push	 ebp
  00001	8b ec		 mov	 ebp, esp
  00003	8b 4d 08	 mov	 ecx, DWORD PTR ___$ReturnUdt$[ebp]
  00006	8d 45 0b	 lea	 eax, DWORD PTR $T117028[ebp]
  00009	50		 push	 eax
  0000a	68 00 00 00 00	 push	 OFFSET FLAT:??_C@_0BE@LPPFFNIN@OutOfBoundException?$AA@
  0000f	e8 00 00 00 00	 call	 ??0?$basic_string@DV?$char_traits@D@_STL@@V?$allocator@D@2@@_STL@@QAE@PBDABV?$allocator@D@1@@Z ; _STL::basic_string<char,_STL::char_traits<char>,_STL::allocator<char> >::basic_string<char,_STL::char_traits<char>,_STL::allocator<char> >
  00014	8b 45 08	 mov	 eax, DWORD PTR ___$ReturnUdt$[ebp]
  00017	5d		 pop	 ebp
  00018	c2 04 00	 ret	 4
?getName@OutOfBoundException@@UBE?AV?$basic_string@DV?$char_traits@D@_STL@@V?$allocator@D@2@@_STL@@XZ ENDP ; OutOfBoundException::getName
_TEXT	ENDS
PUBLIC	??_GNoSuchElementException@@UAEPAXI@Z		; NoSuchElementException::`scalar deleting destructor'
PUBLIC	??_R4NoSuchElementException@@6B@		; NoSuchElementException::`RTTI Complete Object Locator'
PUBLIC	??_R0?AVNoSuchElementException@@@8		; NoSuchElementException `RTTI Type Descriptor'
PUBLIC	??_R3NoSuchElementException@@8			; NoSuchElementException::`RTTI Class Hierarchy Descriptor'
PUBLIC	??_R2NoSuchElementException@@8			; NoSuchElementException::`RTTI Base Class Array'
PUBLIC	??_R1A@?0A@A@NoSuchElementException@@8		; NoSuchElementException::`RTTI Base Class Descriptor at (0,-1,0,0)'
PUBLIC	??0NoSuchElementException@@QAE@XZ		; NoSuchElementException::NoSuchElementException
PUBLIC	?getName@NoSuchElementException@@UBE?AV?$basic_string@DV?$char_traits@D@_STL@@V?$allocator@D@2@@_STL@@XZ ; NoSuchElementException::getName
PUBLIC	??_7NoSuchElementException@@6B@			; NoSuchElementException::`vftable'
EXTRN	??_ENoSuchElementException@@UAEPAXI@Z:NEAR	; NoSuchElementException::`vector deleting destructor'
;	COMDAT ??_7NoSuchElementException@@6B@
CONST	SEGMENT
??_7NoSuchElementException@@6B@ DD FLAT:??_R4NoSuchElementException@@6B@ ; NoSuchElementException::`vftable'
	DD	FLAT:??_ENoSuchElementException@@UAEPAXI@Z
	DD	FLAT:?getName@NoSuchElementException@@UBE?AV?$basic_string@DV?$char_traits@D@_STL@@V?$allocator@D@2@@_STL@@XZ
	DD	FLAT:?toString@Throwable@@UBE?AV?$basic_string@DV?$char_traits@D@_STL@@V?$allocator@D@2@@_STL@@XZ
CONST	ENDS
;	COMDAT ??_R4NoSuchElementException@@6B@
rdata$r	SEGMENT
??_R4NoSuchElementException@@6B@ DD 00H			; NoSuchElementException::`RTTI Complete Object Locator'
	DD	00H
	DD	00H
	DD	FLAT:??_R0?AVNoSuchElementException@@@8
	DD	FLAT:??_R3NoSuchElementException@@8
rdata$r	ENDS
;	COMDAT ??_R0?AVNoSuchElementException@@@8
_DATA	SEGMENT
??_R0?AVNoSuchElementException@@@8 DD FLAT:??_7type_info@@6B@ ; NoSuchElementException `RTTI Type Descriptor'
	DD	00H
	DB	'.?AVNoSuchElementException@@', 00H
	ORG $-37
	DD	FLAT:??_7type_info@@6B@
	DD	00H
	DB	'.?AVNoSuchElementException@@', 00H
_DATA	ENDS
;	COMDAT ??_R3NoSuchElementException@@8
rdata$r	SEGMENT
??_R3NoSuchElementException@@8 DD 00H			; NoSuchElementException::`RTTI Class Hierarchy Descriptor'
	DD	00H
	DD	04H
	DD	FLAT:??_R2NoSuchElementException@@8
rdata$r	ENDS
;	COMDAT ??_R2NoSuchElementException@@8
rdata$r	SEGMENT
??_R2NoSuchElementException@@8 DD FLAT:??_R1A@?0A@A@NoSuchElementException@@8 ; NoSuchElementException::`RTTI Base Class Array'
	DD	FLAT:??_R1A@?0A@A@RuntimeException@@8
	DD	FLAT:??_R1A@?0A@A@Exception@@8
	DD	FLAT:??_R1A@?0A@A@Throwable@@8
rdata$r	ENDS
;	COMDAT ??_R1A@?0A@A@NoSuchElementException@@8
rdata$r	SEGMENT
??_R1A@?0A@A@NoSuchElementException@@8 DD FLAT:??_R0?AVNoSuchElementException@@@8 ; NoSuchElementException::`RTTI Base Class Descriptor at (0,-1,0,0)'
	DD	03H
	DD	00H
	DD	0ffffffffH
	DD	00H
	DD	00H
; Function compile flags: /Ogsy
rdata$r	ENDS
;	COMDAT ??0NoSuchElementException@@QAE@XZ
_TEXT	SEGMENT
??0NoSuchElementException@@QAE@XZ PROC NEAR		; NoSuchElementException::NoSuchElementException, COMDAT
; _this$ = ecx

; 619  : 			NoSuchElementException () throw () : RuntimeException () {}

  00000	56		 push	 esi
  00001	8b f1		 mov	 esi, ecx
  00003	e8 00 00 00 00	 call	 ??0RuntimeException@@QAE@XZ ; RuntimeException::RuntimeException
  00008	c7 06 00 00 00
	00		 mov	 DWORD PTR [esi], OFFSET FLAT:??_7NoSuchElementException@@6B@
  0000e	8b c6		 mov	 eax, esi
  00010	5e		 pop	 esi
  00011	c3		 ret	 0
??0NoSuchElementException@@QAE@XZ ENDP			; NoSuchElementException::NoSuchElementException
_TEXT	ENDS
PUBLIC	??_C@_0BH@EPEGACME@NoSuchElementException?$AA@	; `string'
;	COMDAT ??_C@_0BH@EPEGACME@NoSuchElementException?$AA@
; File c:\stlport-4.6.1\stlport\stl\_alloc.h
CONST	SEGMENT
??_C@_0BH@EPEGACME@NoSuchElementException?$AA@ DB 'NoSuchElementException'
	DB	00H						; `string'
; Function compile flags: /Ogsy
; File c:\darkeden\designed_common\project\client\packet\exception.h
CONST	ENDS
;	COMDAT ?getName@NoSuchElementException@@UBE?AV?$basic_string@DV?$char_traits@D@_STL@@V?$allocator@D@2@@_STL@@XZ
_TEXT	SEGMENT
___$ReturnUdt$ = 8					; size = 4
$T117040 = 11						; size = 1
?getName@NoSuchElementException@@UBE?AV?$basic_string@DV?$char_traits@D@_STL@@V?$allocator@D@2@@_STL@@XZ PROC NEAR ; NoSuchElementException::getName, COMDAT
; _this$ = ecx

; 621  : 			std::string getName () const throw () { return "NoSuchElementException"; }

  00000	55		 push	 ebp
  00001	8b ec		 mov	 ebp, esp
  00003	8b 4d 08	 mov	 ecx, DWORD PTR ___$ReturnUdt$[ebp]
  00006	8d 45 0b	 lea	 eax, DWORD PTR $T117040[ebp]
  00009	50		 push	 eax
  0000a	68 00 00 00 00	 push	 OFFSET FLAT:??_C@_0BH@EPEGACME@NoSuchElementException?$AA@
  0000f	e8 00 00 00 00	 call	 ??0?$basic_string@DV?$char_traits@D@_STL@@V?$allocator@D@2@@_STL@@QAE@PBDABV?$allocator@D@1@@Z ; _STL::basic_string<char,_STL::char_traits<char>,_STL::allocator<char> >::basic_string<char,_STL::char_traits<char>,_STL::allocator<char> >
  00014	8b 45 08	 mov	 eax, DWORD PTR ___$ReturnUdt$[ebp]
  00017	5d		 pop	 ebp
  00018	c2 04 00	 ret	 4
?getName@NoSuchElementException@@UBE?AV?$basic_string@DV?$char_traits@D@_STL@@V?$allocator@D@2@@_STL@@XZ ENDP ; NoSuchElementException::getName
_TEXT	ENDS
PUBLIC	??0NoSuchElementException@@QAE@V?$basic_string@DV?$char_traits@D@_STL@@V?$allocator@D@2@@_STL@@@Z ; NoSuchElementException::NoSuchElementException
; Function compile flags: /Ogsy
;	COMDAT ??0NoSuchElementException@@QAE@V?$basic_string@DV?$char_traits@D@_STL@@V?$allocator@D@2@@_STL@@@Z
_TEXT	SEGMENT
$T117049 = -4						; size = 4
_msg$ = 8						; size = 12
??0NoSuchElementException@@QAE@V?$basic_string@DV?$char_traits@D@_STL@@V?$allocator@D@2@@_STL@@@Z PROC NEAR ; NoSuchElementException::NoSuchElementException, COMDAT
; _this$ = ecx

; 620  : 			NoSuchElementException ( std::string msg ) throw () : RuntimeException (msg) {}

  00000	55		 push	 ebp
  00001	8b ec		 mov	 ebp, esp
  00003	51		 push	 ecx
  00004	56		 push	 esi
  00005	83 ec 0c	 sub	 esp, 12			; 0000000cH
  00008	8b f1		 mov	 esi, ecx
  0000a	8d 45 08	 lea	 eax, DWORD PTR _msg$[ebp]
  0000d	8b cc		 mov	 ecx, esp
  0000f	89 65 fc	 mov	 DWORD PTR $T117049[ebp], esp
  00012	50		 push	 eax
  00013	e8 00 00 00 00	 call	 ??0?$basic_string@DV?$char_traits@D@_STL@@V?$allocator@D@2@@_STL@@QAE@ABV01@@Z ; _STL::basic_string<char,_STL::char_traits<char>,_STL::allocator<char> >::basic_string<char,_STL::char_traits<char>,_STL::allocator<char> >
  00018	8b ce		 mov	 ecx, esi
  0001a	e8 00 00 00 00	 call	 ??0RuntimeException@@QAE@V?$basic_string@DV?$char_traits@D@_STL@@V?$allocator@D@2@@_STL@@@Z ; RuntimeException::RuntimeException
  0001f	8d 4d 08	 lea	 ecx, DWORD PTR _msg$[ebp]
  00022	c7 06 00 00 00
	00		 mov	 DWORD PTR [esi], OFFSET FLAT:??_7NoSuchElementException@@6B@
  00028	e8 00 00 00 00	 call	 ??1?$basic_string@DV?$char_traits@D@_STL@@V?$allocator@D@2@@_STL@@QAE@XZ ; _STL::basic_string<char,_STL::char_traits<char>,_STL::allocator<char> >::~basic_string<char,_STL::char_traits<char>,_STL::allocator<char> >
  0002d	8b c6		 mov	 eax, esi
  0002f	5e		 pop	 esi
  00030	c9		 leave
  00031	c2 0c 00	 ret	 12			; 0000000cH
??0NoSuchElementException@@QAE@V?$basic_string@DV?$char_traits@D@_STL@@V?$allocator@D@2@@_STL@@@Z ENDP ; NoSuchElementException::NoSuchElementException
_TEXT	ENDS
PUBLIC	??1NoSuchElementException@@UAE@XZ		; NoSuchElementException::~NoSuchElementException
; Function compile flags: /Ogsy
;	COMDAT ??1NoSuchElementException@@UAE@XZ
_TEXT	SEGMENT
??1NoSuchElementException@@UAE@XZ PROC NEAR		; NoSuchElementException::~NoSuchElementException, COMDAT
; _this$ = ecx
  00000	e9 00 00 00 00	 jmp	 ??1RuntimeException@@UAE@XZ
??1NoSuchElementException@@UAE@XZ ENDP			; NoSuchElementException::~NoSuchElementException
_TEXT	ENDS
PUBLIC	__CT??_R0?AVException@@@8??0Exception@@QAE@ABV0@@Z20
PUBLIC	__CT??_R0?AVRuntimeException@@@8??0RuntimeException@@QAE@ABV0@@Z20
PUBLIC	__TI4?AVNoSuchElementException@@
PUBLIC	__CTA4?AVNoSuchElementException@@
PUBLIC	__CT??_R0?AVNoSuchElementException@@@8??0NoSuchElementException@@QAE@ABV0@@Z20
PUBLIC	__CT??_R0?AVThrowable@@@8??0Throwable@@QAE@ABV0@@Z20
PUBLIC	?getOldPacket@ClientPlayer@@QAEPAVPacket@@G@Z	; ClientPlayer::getOldPacket
PUBLIC	??0Throwable@@QAE@ABV0@@Z			; Throwable::Throwable
PUBLIC	??0RuntimeException@@QAE@ABV0@@Z		; RuntimeException::RuntimeException
PUBLIC	??0Exception@@QAE@ABV0@@Z			; Exception::Exception
PUBLIC	??0NoSuchElementException@@QAE@ABV0@@Z		; NoSuchElementException::NoSuchElementException
;	COMDAT __TI4?AVNoSuchElementException@@
; File c:\stlport-4.6.1\stlport\stl\_iterator.h
xdata$x	SEGMENT
__TI4?AVNoSuchElementException@@ DD 00H
	DD	FLAT:??1NoSuchElementException@@UAE@XZ
	DD	00H
	DD	FLAT:__CTA4?AVNoSuchElementException@@
xdata$x	ENDS
;	COMDAT __CTA4?AVNoSuchElementException@@
xdata$x	SEGMENT
__CTA4?AVNoSuchElementException@@ DD 04H
	DD	FLAT:__CT??_R0?AVNoSuchElementException@@@8??0NoSuchElementException@@QAE@ABV0@@Z20
	DD	FLAT:__CT??_R0?AVRuntimeException@@@8??0RuntimeException@@QAE@ABV0@@Z20
	DD	FLAT:__CT??_R0?AVException@@@8??0Exception@@QAE@ABV0@@Z20
	DD	FLAT:__CT??_R0?AVThrowable@@@8??0Throwable@@QAE@ABV0@@Z20
xdata$x	ENDS
;	COMDAT __CT??_R0?AVNoSuchElementException@@@8??0NoSuchElementException@@QAE@ABV0@@Z20
xdata$x	SEGMENT
__CT??_R0?AVNoSuchElementException@@@8??0NoSuchElementException@@QAE@ABV0@@Z20 DD 00H
	DD	FLAT:??_R0?AVNoSuchElementException@@@8
	DD	00H
	DD	0ffffffffH
	ORG $+4
	DD	014H
	DD	FLAT:??0NoSuchElementException@@QAE@ABV0@@Z
xdata$x	ENDS
;	COMDAT __CT??_R0?AVRuntimeException@@@8??0RuntimeException@@QAE@ABV0@@Z20
xdata$x	SEGMENT
__CT??_R0?AVRuntimeException@@@8??0RuntimeException@@QAE@ABV0@@Z20 DD 00H
	DD	FLAT:??_R0?AVRuntimeException@@@8
	DD	00H
	DD	0ffffffffH
	ORG $+4
	DD	014H
	DD	FLAT:??0RuntimeException@@QAE@ABV0@@Z
xdata$x	ENDS
;	COMDAT __CT??_R0?AVException@@@8??0Exception@@QAE@ABV0@@Z20
xdata$x	SEGMENT
__CT??_R0?AVException@@@8??0Exception@@QAE@ABV0@@Z20 DD 00H
	DD	FLAT:??_R0?AVException@@@8
	DD	00H
	DD	0ffffffffH
	ORG $+4
	DD	014H
	DD	FLAT:??0Exception@@QAE@ABV0@@Z
xdata$x	ENDS
;	COMDAT __CT??_R0?AVThrowable@@@8??0Throwable@@QAE@ABV0@@Z20
xdata$x	SEGMENT
__CT??_R0?AVThrowable@@@8??0Throwable@@QAE@ABV0@@Z20 DD 00H
	DD	FLAT:??_R0?AVThrowable@@@8
	DD	00H
	DD	0ffffffffH
	ORG $+4
	DD	014H
	DD	FLAT:??0Throwable@@QAE@ABV0@@Z
; Function compile flags: /Ogsy
; File c:\darkeden\designed_common\project\client\packet\clientplayer.cpp
xdata$x	ENDS
;	COMDAT ?getOldPacket@ClientPlayer@@QAEPAVPacket@@G@Z
_TEXT	SEGMENT
$T117057 = -52						; size = 20
$T117055 = -48						; size = 16
$T117056 = -32						; size = 16
_ritr$111829 = -16					; size = 16
_packetID$ = 8						; size = 2
?getOldPacket@ClientPlayer@@QAEPAVPacket@@G@Z PROC NEAR	; ClientPlayer::getOldPacket, COMDAT
; _this$ = ecx

; 496  : {

  00000	55		 push	 ebp
  00001	8b ec		 mov	 ebp, esp
  00003	83 ec 34	 sub	 esp, 52			; 00000034H
  00006	53		 push	 ebx
  00007	56		 push	 esi
  00008	57		 push	 edi

; 497  : 	__BEGIN_TRY
; 498  : 
; 499  : 	Packet * pPacket = NULL;
; 500  : 
; 501  : 	for ( std::deque<Packet*>::reverse_iterator ritr = m_PacketHistory.rbegin() ;

  00009	8d 71 40	 lea	 esi, DWORD PTR [ecx+64]
  0000c	8d 7d f0	 lea	 edi, DWORD PTR _ritr$111829[ebp]
  0000f	a5		 movsd
  00010	a5		 movsd
  00011	a5		 movsd
  00012	a5		 movsd

; 502  : 			ritr != m_PacketHistory.rend() ;
; 503  : 			ritr ++ ) {

  00013	8d 59 30	 lea	 ebx, DWORD PTR [ecx+48]
  00016	eb 23		 jmp	 SHORT $L117115
$L111841:

; 504  : 		if ( (*ritr)->getPacketID() == packetID ) {

  00018	8d 4d f0	 lea	 ecx, DWORD PTR _ritr$111829[ebp]
  0001b	e8 00 00 00 00	 call	 ??D?$reverse_iterator@U?$_Deque_iterator@PAVPacket@@U?$_Nonconst_traits@PAVPacket@@@_STL@@@_STL@@@_STL@@QBEAAPAVPacket@@XZ ; _STL::reverse_iterator<_STL::_Deque_iterator<Packet *,_STL::_Nonconst_traits<Packet *> > >::operator*
  00020	8b 08		 mov	 ecx, DWORD PTR [eax]
  00022	8b 01		 mov	 eax, DWORD PTR [ecx]
  00024	ff 50 18	 call	 DWORD PTR [eax+24]
  00027	66 3b 45 08	 cmp	 ax, WORD PTR _packetID$[ebp]
  0002b	8d 4d f0	 lea	 ecx, DWORD PTR _ritr$111829[ebp]
  0002e	74 29		 je	 SHORT $L117110
  00030	6a 00		 push	 0
  00032	8d 45 d0	 lea	 eax, DWORD PTR $T117055[ebp]
  00035	50		 push	 eax
  00036	e8 00 00 00 00	 call	 ??E?$reverse_iterator@U?$_Deque_iterator@PAVPacket@@U?$_Nonconst_traits@PAVPacket@@@_STL@@@_STL@@@_STL@@QAE?AV01@H@Z ; _STL::reverse_iterator<_STL::_Deque_iterator<Packet *,_STL::_Nonconst_traits<Packet *> > >::operator++
$L117115:
  0003b	8b f3		 mov	 esi, ebx
  0003d	8d 7d e0	 lea	 edi, DWORD PTR $T117056[ebp]
  00040	a5		 movsd
  00041	a5		 movsd
  00042	8d 45 e0	 lea	 eax, DWORD PTR $T117056[ebp]
  00045	50		 push	 eax
  00046	a5		 movsd
  00047	8d 45 f0	 lea	 eax, DWORD PTR _ritr$111829[ebp]
  0004a	50		 push	 eax
  0004b	a5		 movsd
  0004c	e8 00 00 00 00	 call	 ??$?8U?$_Deque_iterator@PAVPacket@@U?$_Nonconst_traits@PAVPacket@@@_STL@@@_STL@@@_STL@@YA_NABV?$reverse_iterator@U?$_Deque_iterator@PAVPacket@@U?$_Nonconst_traits@PAVPacket@@@_STL@@@_STL@@@0@0@Z ; _STL::operator==<_STL::_Deque_iterator<Packet *,_STL::_Nonconst_traits<Packet *> > >
  00051	84 c0		 test	 al, al
  00053	59		 pop	 ecx
  00054	59		 pop	 ecx
  00055	74 c1		 je	 SHORT $L111841
  00057	eb 0b		 jmp	 SHORT $L117112
$L117110:

; 505  : 			pPacket = (*ritr);

  00059	e8 00 00 00 00	 call	 ??D?$reverse_iterator@U?$_Deque_iterator@PAVPacket@@U?$_Nonconst_traits@PAVPacket@@@_STL@@@_STL@@@_STL@@QBEAAPAVPacket@@XZ ; _STL::reverse_iterator<_STL::_Deque_iterator<Packet *,_STL::_Nonconst_traits<Packet *> > >::operator*
  0005e	8b 00		 mov	 eax, DWORD PTR [eax]

; 506  : 			break;
; 507  : 		}	
; 508  : 	}
; 509  : 
; 510  : 	if ( pPacket == NULL )

  00060	85 c0		 test	 eax, eax
  00062	75 16		 jne	 SHORT $L111845
$L117112:

; 511  : 		throw NoSuchElementException();

  00064	8d 4d cc	 lea	 ecx, DWORD PTR $T117057[ebp]
  00067	e8 00 00 00 00	 call	 ??0NoSuchElementException@@QAE@XZ ; NoSuchElementException::NoSuchElementException
  0006c	68 00 00 00 00	 push	 OFFSET FLAT:__TI4?AVNoSuchElementException@@
  00071	8d 45 cc	 lea	 eax, DWORD PTR $T117057[ebp]
  00074	50		 push	 eax
  00075	e8 00 00 00 00	 call	 __CxxThrowException@8
$L117116:
$L111845:
  0007a	5f		 pop	 edi
  0007b	5e		 pop	 esi
  0007c	5b		 pop	 ebx

; 512  : 
; 513  : 	return pPacket;
; 514  : 
; 515  : 	__END_CATCH
; 516  : }

  0007d	c9		 leave
  0007e	c2 04 00	 ret	 4
$L117113:
?getOldPacket@ClientPlayer@@QAEPAVPacket@@G@Z ENDP	; ClientPlayer::getOldPacket
_TEXT	ENDS
PUBLIC	??0?$list@V?$basic_string@DV?$char_traits@D@_STL@@V?$allocator@D@2@@_STL@@V?$allocator@V?$basic_string@DV?$char_traits@D@_STL@@V?$allocator@D@2@@_STL@@@2@@_STL@@QAE@ABV01@@Z ; _STL::list<_STL::basic_string<char,_STL::char_traits<char>,_STL::allocator<char> >,_STL::allocator<_STL::basic_string<char,_STL::char_traits<char>,_STL::allocator<char> > > >::list<_STL::basic_string<char,_STL::char_traits<char>,_STL::allocator<char> >,_STL::allocator<_STL::basic_string<char,_STL::char_traits<char>,_STL::allocator<char> > > >
;	COMDAT xdata$x
; File c:\stlport-4.6.1\stlport\stl\_list.h
xdata$x	SEGMENT
$T117179 DD	0ffffffffH
	DD	FLAT:$L117123
$T117177 DD	019930520H
	DD	01H
	DD	FLAT:$T117179
	DD	2 DUP(00H)
	DD	2 DUP(00H)
; Function compile flags: /Ogsy
xdata$x	ENDS
;	COMDAT ??0?$list@V?$basic_string@DV?$char_traits@D@_STL@@V?$allocator@D@2@@_STL@@V?$allocator@V?$basic_string@DV?$char_traits@D@_STL@@V?$allocator@D@2@@_STL@@@2@@_STL@@QAE@ABV01@@Z
_TEXT	SEGMENT
$T117122 = -20						; size = 4
_this$ = -16						; size = 4
__$EHRec$ = -12						; size = 12
___x$ = 8						; size = 4
$T117119 = 11						; size = 1
??0?$list@V?$basic_string@DV?$char_traits@D@_STL@@V?$allocator@D@2@@_STL@@V?$allocator@V?$basic_string@DV?$char_traits@D@_STL@@V?$allocator@D@2@@_STL@@@2@@_STL@@QAE@ABV01@@Z PROC NEAR ; _STL::list<_STL::basic_string<char,_STL::char_traits<char>,_STL::allocator<char> >,_STL::allocator<_STL::basic_string<char,_STL::char_traits<char>,_STL::allocator<char> > > >::list<_STL::basic_string<char,_STL::char_traits<char>,_STL::allocator<char> >,_STL::allocator<_STL::basic_string<char,_STL::char_traits<char>,_STL::allocator<char> > > >, COMDAT
; _this$ = ecx

; 414  :     { insert(begin(), __x.begin(), __x.end()); }

  00000	b8 00 00 00 00	 mov	 eax, __ehhandler$??0?$list@V?$basic_string@DV?$char_traits@D@_STL@@V?$allocator@D@2@@_STL@@V?$allocator@V?$basic_string@DV?$char_traits@D@_STL@@V?$allocator@D@2@@_STL@@@2@@_STL@@QAE@ABV01@@Z
  00005	e8 00 00 00 00	 call	 __EH_prolog
  0000a	51		 push	 ecx
  0000b	51		 push	 ecx
  0000c	56		 push	 esi
  0000d	57		 push	 edi
  0000e	8b 7d 08	 mov	 edi, DWORD PTR ___x$[ebp]
  00011	8b f1		 mov	 esi, ecx
  00013	8d 45 0b	 lea	 eax, DWORD PTR $T117119[ebp]
  00016	50		 push	 eax
  00017	8b cf		 mov	 ecx, edi
  00019	89 75 f0	 mov	 DWORD PTR _this$[ebp], esi
  0001c	e8 00 00 00 00	 call	 ?get_allocator@?$_List_base@V?$basic_string@DV?$char_traits@D@_STL@@V?$allocator@D@2@@_STL@@V?$allocator@V?$basic_string@DV?$char_traits@D@_STL@@V?$allocator@D@2@@_STL@@@2@@_STL@@QBE?AV?$allocator@V?$basic_string@DV?$char_traits@D@_STL@@V?$allocator@D@2@@_STL@@@2@XZ ; _STL::_List_base<_STL::basic_string<char,_STL::char_traits<char>,_STL::allocator<char> >,_STL::allocator<_STL::basic_string<char,_STL::char_traits<char>,_STL::allocator<char> > > >::get_allocator
  00021	50		 push	 eax
  00022	8b ce		 mov	 ecx, esi
  00024	e8 00 00 00 00	 call	 ??0?$_List_base@V?$basic_string@DV?$char_traits@D@_STL@@V?$allocator@D@2@@_STL@@V?$allocator@V?$basic_string@DV?$char_traits@D@_STL@@V?$allocator@D@2@@_STL@@@2@@_STL@@QAE@ABV?$allocator@V?$basic_string@DV?$char_traits@D@_STL@@V?$allocator@D@2@@_STL@@@1@@Z ; _STL::_List_base<_STL::basic_string<char,_STL::char_traits<char>,_STL::allocator<char> >,_STL::allocator<_STL::basic_string<char,_STL::char_traits<char>,_STL::allocator<char> > > >::_List_base<_STL::basic_string<char,_STL::char_traits<char>,_STL::allocator<char> >,_STL::allocator<_STL::basic_string<char,_STL::char_traits<char>,_STL::allocator<char> > > >
  00029	8b 07		 mov	 eax, DWORD PTR [edi]
  0002b	8b 08		 mov	 ecx, DWORD PTR [eax]
  0002d	83 65 fc 00	 and	 DWORD PTR __$EHRec$[ebp+8], 0
  00031	50		 push	 eax
  00032	51		 push	 ecx
  00033	51		 push	 ecx
  00034	8b 0e		 mov	 ecx, DWORD PTR [esi]
  00036	8b 09		 mov	 ecx, DWORD PTR [ecx]
  00038	8b c4		 mov	 eax, esp
  0003a	89 08		 mov	 DWORD PTR [eax], ecx
  0003c	8b ce		 mov	 ecx, esi
  0003e	89 65 ec	 mov	 DWORD PTR $T117122[ebp], esp
  00041	e8 00 00 00 00	 call	 ??$insert@U?$_List_iterator@V?$basic_string@DV?$char_traits@D@_STL@@V?$allocator@D@2@@_STL@@U?$_Const_traits@V?$basic_string@DV?$char_traits@D@_STL@@V?$allocator@D@2@@_STL@@@2@@_STL@@@?$list@V?$basic_string@DV?$char_traits@D@_STL@@V?$allocator@D@2@@_STL@@V?$allocator@V?$basic_string@DV?$char_traits@D@_STL@@V?$allocator@D@2@@_STL@@@2@@_STL@@QAEXU?$_List_iterator@V?$basic_string@DV?$char_traits@D@_STL@@V?$allocator@D@2@@_STL@@U?$_Nonconst_traits@V?$basic_string@DV?$char_traits@D@_STL@@V?$allocator@D@2@@_STL@@@2@@1@U?$_List_iterator@V?$basic_string@DV?$char_traits@D@_STL@@V?$allocator@D@2@@_STL@@U?$_Const_traits@V?$basic_string@DV?$char_traits@D@_STL@@V?$allocator@D@2@@_STL@@@2@@1@1@Z ; _STL::list<_STL::basic_string<char,_STL::char_traits<char>,_STL::allocator<char> >,_STL::allocator<_STL::basic_string<char,_STL::char_traits<char>,_STL::allocator<char> > > >::insert<_STL::_List_iterator<_STL::basic_string<char,_STL::char_traits<char>,_STL::allocator<char> >,_STL::_Const_traits<_STL::basic_string<char,_STL::char_traits<char>,_STL::allocator<char> > > > >
  00046	8b 4d f4	 mov	 ecx, DWORD PTR __$EHRec$[ebp]
  00049	5f		 pop	 edi
  0004a	8b c6		 mov	 eax, esi
  0004c	64 89 0d 00 00
	00 00		 mov	 DWORD PTR fs:__except_list, ecx
  00053	5e		 pop	 esi
  00054	c9		 leave
  00055	c2 04 00	 ret	 4
_TEXT	ENDS
;	COMDAT text$x
text$x	SEGMENT
$L117123:
  00000	8b 4d f0	 mov	 ecx, DWORD PTR _this$[ebp]
  00003	e9 00 00 00 00	 jmp	 ??1?$_List_base@V?$basic_string@DV?$char_traits@D@_STL@@V?$allocator@D@2@@_STL@@V?$allocator@V?$basic_string@DV?$char_traits@D@_STL@@V?$allocator@D@2@@_STL@@@2@@_STL@@QAE@XZ ; _STL::_List_base<_STL::basic_string<char,_STL::char_traits<char>,_STL::allocator<char> >,_STL::allocator<_STL::basic_string<char,_STL::char_traits<char>,_STL::allocator<char> > > >::~_List_base<_STL::basic_string<char,_STL::char_traits<char>,_STL::allocator<char> >,_STL::allocator<_STL::basic_string<char,_STL::char_traits<char>,_STL::allocator<char> > > >
__ehhandler$??0?$list@V?$basic_string@DV?$char_traits@D@_STL@@V?$allocator@D@2@@_STL@@V?$allocator@V?$basic_string@DV?$char_traits@D@_STL@@V?$allocator@D@2@@_STL@@@2@@_STL@@QAE@ABV01@@Z:
  00008	b8 00 00 00 00	 mov	 eax, OFFSET FLAT:$T117177
  0000d	e9 00 00 00 00	 jmp	 ___CxxFrameHandler
text$x	ENDS
??0?$list@V?$basic_string@DV?$char_traits@D@_STL@@V?$allocator@D@2@@_STL@@V?$allocator@V?$basic_string@DV?$char_traits@D@_STL@@V?$allocator@D@2@@_STL@@@2@@_STL@@QAE@ABV01@@Z ENDP ; _STL::list<_STL::basic_string<char,_STL::char_traits<char>,_STL::allocator<char> >,_STL::allocator<_STL::basic_string<char,_STL::char_traits<char>,_STL::allocator<char> > > >::list<_STL::basic_string<char,_STL::char_traits<char>,_STL::allocator<char> >,_STL::allocator<_STL::basic_string<char,_STL::char_traits<char>,_STL::allocator<char> > > >
; Function compile flags: /Ogsy
;	COMDAT ??_GException@@UAEPAXI@Z
_TEXT	SEGMENT
___flags$ = 8						; size = 4
??_GException@@UAEPAXI@Z PROC NEAR			; Exception::`scalar deleting destructor', COMDAT
; _this$ = ecx
  00000	56		 push	 esi
  00001	8b f1		 mov	 esi, ecx
  00003	e8 00 00 00 00	 call	 ??1Exception@@UAE@XZ
  00008	f6 44 24 08 01	 test	 BYTE PTR ___flags$[esp], 1
  0000d	74 07		 je	 SHORT $L88063
  0000f	56		 push	 esi
  00010	e8 00 00 00 00	 call	 ??3@YAXPAX@Z		; operator delete
  00015	59		 pop	 ecx
$L88063:
  00016	8b c6		 mov	 eax, esi
  00018	5e		 pop	 esi
  00019	c2 04 00	 ret	 4
??_GException@@UAEPAXI@Z ENDP				; Exception::`scalar deleting destructor'
; Function compile flags: /Ogsy
_TEXT	ENDS
;	COMDAT ??_GIOException@@UAEPAXI@Z
_TEXT	SEGMENT
___flags$ = 8						; size = 4
??_GIOException@@UAEPAXI@Z PROC NEAR			; IOException::`scalar deleting destructor', COMDAT
; _this$ = ecx
  00000	56		 push	 esi
  00001	8b f1		 mov	 esi, ecx
  00003	e8 00 00 00 00	 call	 ??1IOException@@UAE@XZ
  00008	f6 44 24 08 01	 test	 BYTE PTR ___flags$[esp], 1
  0000d	74 07		 je	 SHORT $L88096
  0000f	56		 push	 esi
  00010	e8 00 00 00 00	 call	 ??3@YAXPAX@Z		; operator delete
  00015	59		 pop	 ecx
$L88096:
  00016	8b c6		 mov	 eax, esi
  00018	5e		 pop	 esi
  00019	c2 04 00	 ret	 4
??_GIOException@@UAEPAXI@Z ENDP				; IOException::`scalar deleting destructor'
; Function compile flags: /Ogsy
_TEXT	ENDS
;	COMDAT ??_GProtocolException@@UAEPAXI@Z
_TEXT	SEGMENT
___flags$ = 8						; size = 4
??_GProtocolException@@UAEPAXI@Z PROC NEAR		; ProtocolException::`scalar deleting destructor', COMDAT
; _this$ = ecx
  00000	56		 push	 esi
  00001	8b f1		 mov	 esi, ecx
  00003	e8 00 00 00 00	 call	 ??1ProtocolException@@UAE@XZ
  00008	f6 44 24 08 01	 test	 BYTE PTR ___flags$[esp], 1
  0000d	74 07		 je	 SHORT $L88459
  0000f	56		 push	 esi
  00010	e8 00 00 00 00	 call	 ??3@YAXPAX@Z		; operator delete
  00015	59		 pop	 ecx
$L88459:
  00016	8b c6		 mov	 eax, esi
  00018	5e		 pop	 esi
  00019	c2 04 00	 ret	 4
??_GProtocolException@@UAEPAXI@Z ENDP			; ProtocolException::`scalar deleting destructor'
; Function compile flags: /Ogsy
_TEXT	ENDS
;	COMDAT ??_GInvalidProtocolException@@UAEPAXI@Z
_TEXT	SEGMENT
___flags$ = 8						; size = 4
??_GInvalidProtocolException@@UAEPAXI@Z PROC NEAR	; InvalidProtocolException::`scalar deleting destructor', COMDAT
; _this$ = ecx
  00000	56		 push	 esi
  00001	8b f1		 mov	 esi, ecx
  00003	e8 00 00 00 00	 call	 ??1InvalidProtocolException@@UAE@XZ
  00008	f6 44 24 08 01	 test	 BYTE PTR ___flags$[esp], 1
  0000d	74 07		 je	 SHORT $L88525
  0000f	56		 push	 esi
  00010	e8 00 00 00 00	 call	 ??3@YAXPAX@Z		; operator delete
  00015	59		 pop	 ecx
$L88525:
  00016	8b c6		 mov	 eax, esi
  00018	5e		 pop	 esi
  00019	c2 04 00	 ret	 4
??_GInvalidProtocolException@@UAEPAXI@Z ENDP		; InvalidProtocolException::`scalar deleting destructor'
_TEXT	ENDS
PUBLIC	??1InsufficientDataException@@UAE@XZ		; InsufficientDataException::~InsufficientDataException
; Function compile flags: /Ogsy
;	COMDAT ??_GInsufficientDataException@@UAEPAXI@Z
_TEXT	SEGMENT
___flags$ = 8						; size = 4
??_GInsufficientDataException@@UAEPAXI@Z PROC NEAR	; InsufficientDataException::`scalar deleting destructor', COMDAT
; _this$ = ecx
  00000	56		 push	 esi
  00001	8b f1		 mov	 esi, ecx
  00003	e8 00 00 00 00	 call	 ??1InsufficientDataException@@UAE@XZ
  00008	f6 44 24 08 01	 test	 BYTE PTR ___flags$[esp], 1
  0000d	74 07		 je	 SHORT $L88577
  0000f	56		 push	 esi
  00010	e8 00 00 00 00	 call	 ??3@YAXPAX@Z		; operator delete
  00015	59		 pop	 ecx
$L88577:
  00016	8b c6		 mov	 eax, esi
  00018	5e		 pop	 esi
  00019	c2 04 00	 ret	 4
??_GInsufficientDataException@@UAEPAXI@Z ENDP		; InsufficientDataException::`scalar deleting destructor'
; Function compile flags: /Ogsy
_TEXT	ENDS
;	COMDAT ??1InsufficientDataException@@UAE@XZ
_TEXT	SEGMENT
??1InsufficientDataException@@UAE@XZ PROC NEAR		; InsufficientDataException::~InsufficientDataException, COMDAT
; _this$ = ecx
  00000	e9 00 00 00 00	 jmp	 ??1ProtocolException@@UAE@XZ
??1InsufficientDataException@@UAE@XZ ENDP		; InsufficientDataException::~InsufficientDataException
; Function compile flags: /Ogsy
_TEXT	ENDS
;	COMDAT ??_GRuntimeException@@UAEPAXI@Z
_TEXT	SEGMENT
___flags$ = 8						; size = 4
??_GRuntimeException@@UAEPAXI@Z PROC NEAR		; RuntimeException::`scalar deleting destructor', COMDAT
; _this$ = ecx
  00000	56		 push	 esi
  00001	8b f1		 mov	 esi, ecx
  00003	e8 00 00 00 00	 call	 ??1RuntimeException@@UAE@XZ
  00008	f6 44 24 08 01	 test	 BYTE PTR ___flags$[esp], 1
  0000d	74 07		 je	 SHORT $L88973
  0000f	56		 push	 esi
  00010	e8 00 00 00 00	 call	 ??3@YAXPAX@Z		; operator delete
  00015	59		 pop	 ecx
$L88973:
  00016	8b c6		 mov	 eax, esi
  00018	5e		 pop	 esi
  00019	c2 04 00	 ret	 4
??_GRuntimeException@@UAEPAXI@Z ENDP			; RuntimeException::`scalar deleting destructor'
_TEXT	ENDS
PUBLIC	??1OutOfBoundException@@UAE@XZ			; OutOfBoundException::~OutOfBoundException
; Function compile flags: /Ogsy
;	COMDAT ??_GOutOfBoundException@@UAEPAXI@Z
_TEXT	SEGMENT
___flags$ = 8						; size = 4
??_GOutOfBoundException@@UAEPAXI@Z PROC NEAR		; OutOfBoundException::`scalar deleting destructor', COMDAT
; _this$ = ecx
  00000	56		 push	 esi
  00001	8b f1		 mov	 esi, ecx
  00003	e8 00 00 00 00	 call	 ??1OutOfBoundException@@UAE@XZ
  00008	f6 44 24 08 01	 test	 BYTE PTR ___flags$[esp], 1
  0000d	74 07		 je	 SHORT $L89039
  0000f	56		 push	 esi
  00010	e8 00 00 00 00	 call	 ??3@YAXPAX@Z		; operator delete
  00015	59		 pop	 ecx
$L89039:
  00016	8b c6		 mov	 eax, esi
  00018	5e		 pop	 esi
  00019	c2 04 00	 ret	 4
??_GOutOfBoundException@@UAEPAXI@Z ENDP			; OutOfBoundException::`scalar deleting destructor'
; Function compile flags: /Ogsy
_TEXT	ENDS
;	COMDAT ??1OutOfBoundException@@UAE@XZ
_TEXT	SEGMENT
??1OutOfBoundException@@UAE@XZ PROC NEAR		; OutOfBoundException::~OutOfBoundException, COMDAT
; _this$ = ecx
  00000	e9 00 00 00 00	 jmp	 ??1RuntimeException@@UAE@XZ
??1OutOfBoundException@@UAE@XZ ENDP			; OutOfBoundException::~OutOfBoundException
; Function compile flags: /Ogsy
_TEXT	ENDS
;	COMDAT ??_GNoSuchElementException@@UAEPAXI@Z
_TEXT	SEGMENT
___flags$ = 8						; size = 4
??_GNoSuchElementException@@UAEPAXI@Z PROC NEAR		; NoSuchElementException::`scalar deleting destructor', COMDAT
; _this$ = ecx
  00000	56		 push	 esi
  00001	8b f1		 mov	 esi, ecx
  00003	e8 00 00 00 00	 call	 ??1NoSuchElementException@@UAE@XZ
  00008	f6 44 24 08 01	 test	 BYTE PTR ___flags$[esp], 1
  0000d	74 07		 je	 SHORT $L89105
  0000f	56		 push	 esi
  00010	e8 00 00 00 00	 call	 ??3@YAXPAX@Z		; operator delete
  00015	59		 pop	 ecx
$L89105:
  00016	8b c6		 mov	 eax, esi
  00018	5e		 pop	 esi
  00019	c2 04 00	 ret	 4
??_GNoSuchElementException@@UAEPAXI@Z ENDP		; NoSuchElementException::`scalar deleting destructor'
_TEXT	ENDS
;	COMDAT xdata$x
xdata$x	SEGMENT
$T117219 DD	0ffffffffH
	DD	FLAT:$L117214
$T117217 DD	019930520H
	DD	01H
	DD	FLAT:$T117219
	DD	2 DUP(00H)
	DD	2 DUP(00H)
; Function compile flags: /Ogsy
xdata$x	ENDS
;	COMDAT ??0Throwable@@QAE@ABV0@@Z
_TEXT	SEGMENT
_this$ = -16						; size = 4
__$EHRec$ = -12						; size = 12
___that$ = 8						; size = 4
??0Throwable@@QAE@ABV0@@Z PROC NEAR			; Throwable::Throwable, COMDAT
; _this$ = ecx
  00000	b8 00 00 00 00	 mov	 eax, __ehhandler$??0Throwable@@QAE@ABV0@@Z
  00005	e8 00 00 00 00	 call	 __EH_prolog
  0000a	51		 push	 ecx
  0000b	56		 push	 esi
  0000c	57		 push	 edi
  0000d	8b 7d 08	 mov	 edi, DWORD PTR ___that$[ebp]
  00010	8b f1		 mov	 esi, ecx
  00012	8d 47 04	 lea	 eax, DWORD PTR [edi+4]
  00015	50		 push	 eax
  00016	8d 4e 04	 lea	 ecx, DWORD PTR [esi+4]
  00019	89 75 f0	 mov	 DWORD PTR _this$[ebp], esi
  0001c	c7 06 00 00 00
	00		 mov	 DWORD PTR [esi], OFFSET FLAT:??_7Throwable@@6B@
  00022	e8 00 00 00 00	 call	 ??0?$basic_string@DV?$char_traits@D@_STL@@V?$allocator@D@2@@_STL@@QAE@ABV01@@Z ; _STL::basic_string<char,_STL::char_traits<char>,_STL::allocator<char> >::basic_string<char,_STL::char_traits<char>,_STL::allocator<char> >
  00027	83 65 fc 00	 and	 DWORD PTR __$EHRec$[ebp+8], 0
  0002b	83 c7 10	 add	 edi, 16			; 00000010H
  0002e	57		 push	 edi
  0002f	8d 4e 10	 lea	 ecx, DWORD PTR [esi+16]
  00032	e8 00 00 00 00	 call	 ??0?$list@V?$basic_string@DV?$char_traits@D@_STL@@V?$allocator@D@2@@_STL@@V?$allocator@V?$basic_string@DV?$char_traits@D@_STL@@V?$allocator@D@2@@_STL@@@2@@_STL@@QAE@ABV01@@Z ; _STL::list<_STL::basic_string<char,_STL::char_traits<char>,_STL::allocator<char> >,_STL::allocator<_STL::basic_string<char,_STL::char_traits<char>,_STL::allocator<char> > > >::list<_STL::basic_string<char,_STL::char_traits<char>,_STL::allocator<char> >,_STL::allocator<_STL::basic_string<char,_STL::char_traits<char>,_STL::allocator<char> > > >
  00037	8b 4d f4	 mov	 ecx, DWORD PTR __$EHRec$[ebp]
  0003a	5f		 pop	 edi
  0003b	8b c6		 mov	 eax, esi
  0003d	5e		 pop	 esi
  0003e	64 89 0d 00 00
	00 00		 mov	 DWORD PTR fs:__except_list, ecx
  00045	c9		 leave
  00046	c2 04 00	 ret	 4
_TEXT	ENDS
;	COMDAT text$x
text$x	SEGMENT
$L117214:
  00000	8b 4d f0	 mov	 ecx, DWORD PTR _this$[ebp]
  00003	83 c1 04	 add	 ecx, 4
  00006	e9 00 00 00 00	 jmp	 ??1?$basic_string@DV?$char_traits@D@_STL@@V?$allocator@D@2@@_STL@@QAE@XZ ; _STL::basic_string<char,_STL::char_traits<char>,_STL::allocator<char> >::~basic_string<char,_STL::char_traits<char>,_STL::allocator<char> >
__ehhandler$??0Throwable@@QAE@ABV0@@Z:
  0000b	b8 00 00 00 00	 mov	 eax, OFFSET FLAT:$T117217
  00010	e9 00 00 00 00	 jmp	 ___CxxFrameHandler
text$x	ENDS
??0Throwable@@QAE@ABV0@@Z ENDP				; Throwable::Throwable
; Function compile flags: /Ogsy
;	COMDAT ??0Exception@@QAE@ABV0@@Z
_TEXT	SEGMENT
___that$ = 8						; size = 4
??0Exception@@QAE@ABV0@@Z PROC NEAR			; Exception::Exception, COMDAT
; _this$ = ecx
  00000	56		 push	 esi
  00001	ff 74 24 08	 push	 DWORD PTR ___that$[esp]
  00005	8b f1		 mov	 esi, ecx
  00007	e8 00 00 00 00	 call	 ??0Throwable@@QAE@ABV0@@Z
  0000c	c7 06 00 00 00
	00		 mov	 DWORD PTR [esi], OFFSET FLAT:??_7Exception@@6B@
  00012	8b c6		 mov	 eax, esi
  00014	5e		 pop	 esi
  00015	c2 04 00	 ret	 4
??0Exception@@QAE@ABV0@@Z ENDP				; Exception::Exception
; Function compile flags: /Ogsy
_TEXT	ENDS
;	COMDAT ??0RuntimeException@@QAE@ABV0@@Z
_TEXT	SEGMENT
___that$ = 8						; size = 4
??0RuntimeException@@QAE@ABV0@@Z PROC NEAR		; RuntimeException::RuntimeException, COMDAT
; _this$ = ecx
  00000	56		 push	 esi
  00001	ff 74 24 08	 push	 DWORD PTR ___that$[esp]
  00005	8b f1		 mov	 esi, ecx
  00007	e8 00 00 00 00	 call	 ??0Exception@@QAE@ABV0@@Z
  0000c	c7 06 00 00 00
	00		 mov	 DWORD PTR [esi], OFFSET FLAT:??_7RuntimeException@@6B@
  00012	8b c6		 mov	 eax, esi
  00014	5e		 pop	 esi
  00015	c2 04 00	 ret	 4
??0RuntimeException@@QAE@ABV0@@Z ENDP			; RuntimeException::RuntimeException
_TEXT	ENDS
PUBLIC	??0IOException@@QAE@ABV0@@Z			; IOException::IOException
; Function compile flags: /Ogsy
;	COMDAT ??0IOException@@QAE@ABV0@@Z
_TEXT	SEGMENT
___that$ = 8						; size = 4
??0IOException@@QAE@ABV0@@Z PROC NEAR			; IOException::IOException, COMDAT
; _this$ = ecx
  00000	56		 push	 esi
  00001	ff 74 24 08	 push	 DWORD PTR ___that$[esp]
  00005	8b f1		 mov	 esi, ecx
  00007	e8 00 00 00 00	 call	 ??0Exception@@QAE@ABV0@@Z
  0000c	c7 06 00 00 00
	00		 mov	 DWORD PTR [esi], OFFSET FLAT:??_7IOException@@6B@
  00012	8b c6		 mov	 eax, esi
  00014	5e		 pop	 esi
  00015	c2 04 00	 ret	 4
??0IOException@@QAE@ABV0@@Z ENDP			; IOException::IOException
; Function compile flags: /Ogsy
_TEXT	ENDS
;	COMDAT ??0NoSuchElementException@@QAE@ABV0@@Z
_TEXT	SEGMENT
___that$ = 8						; size = 4
??0NoSuchElementException@@QAE@ABV0@@Z PROC NEAR	; NoSuchElementException::NoSuchElementException, COMDAT
; _this$ = ecx
  00000	56		 push	 esi
  00001	ff 74 24 08	 push	 DWORD PTR ___that$[esp]
  00005	8b f1		 mov	 esi, ecx
  00007	e8 00 00 00 00	 call	 ??0RuntimeException@@QAE@ABV0@@Z
  0000c	c7 06 00 00 00
	00		 mov	 DWORD PTR [esi], OFFSET FLAT:??_7NoSuchElementException@@6B@
  00012	8b c6		 mov	 eax, esi
  00014	5e		 pop	 esi
  00015	c2 04 00	 ret	 4
??0NoSuchElementException@@QAE@ABV0@@Z ENDP		; NoSuchElementException::NoSuchElementException
_TEXT	ENDS
PUBLIC	??0ProtocolException@@QAE@ABV0@@Z		; ProtocolException::ProtocolException
; Function compile flags: /Ogsy
;	COMDAT ??0ProtocolException@@QAE@ABV0@@Z
_TEXT	SEGMENT
___that$ = 8						; size = 4
??0ProtocolException@@QAE@ABV0@@Z PROC NEAR		; ProtocolException::ProtocolException, COMDAT
; _this$ = ecx
  00000	56		 push	 esi
  00001	ff 74 24 08	 push	 DWORD PTR ___that$[esp]
  00005	8b f1		 mov	 esi, ecx
  00007	e8 00 00 00 00	 call	 ??0IOException@@QAE@ABV0@@Z
  0000c	c7 06 00 00 00
	00		 mov	 DWORD PTR [esi], OFFSET FLAT:??_7ProtocolException@@6B@
  00012	8b c6		 mov	 eax, esi
  00014	5e		 pop	 esi
  00015	c2 04 00	 ret	 4
??0ProtocolException@@QAE@ABV0@@Z ENDP			; ProtocolException::ProtocolException
_TEXT	ENDS
PUBLIC	__TI4?AVOutOfBoundException@@
PUBLIC	__CTA4?AVOutOfBoundException@@
PUBLIC	__CT??_R0?AVOutOfBoundException@@@8??0OutOfBoundException@@QAE@ABV0@@Z20
PUBLIC	??_C@_0BI@LFOPAFAB@packet?5history?5is?5empty?$AA@ ; `string'
PUBLIC	?getOldPacket@ClientPlayer@@QAEPAVPacket@@I@Z	; ClientPlayer::getOldPacket
PUBLIC	??0OutOfBoundException@@QAE@ABV0@@Z		; OutOfBoundException::OutOfBoundException
;	COMDAT xdata$x
; File c:\stlport-4.6.1\stlport\stl\_alloc.h
xdata$x	SEGMENT
$T117295 DD	0ffffffffH
	DD	FLAT:$L117250
$T117291 DD	019930520H
	DD	01H
	DD	FLAT:$T117295
	DD	2 DUP(00H)
	DD	2 DUP(00H)
xdata$x	ENDS
;	COMDAT __TI4?AVOutOfBoundException@@
xdata$x	SEGMENT
__TI4?AVOutOfBoundException@@ DD 00H
	DD	FLAT:??1OutOfBoundException@@UAE@XZ
	DD	00H
	DD	FLAT:__CTA4?AVOutOfBoundException@@
xdata$x	ENDS
;	COMDAT ??_C@_0BI@LFOPAFAB@packet?5history?5is?5empty?$AA@
CONST	SEGMENT
??_C@_0BI@LFOPAFAB@packet?5history?5is?5empty?$AA@ DB 'packet history is '
	DB	'empty', 00H					; `string'
CONST	ENDS
;	COMDAT __CTA4?AVOutOfBoundException@@
xdata$x	SEGMENT
__CTA4?AVOutOfBoundException@@ DD 04H
	DD	FLAT:__CT??_R0?AVOutOfBoundException@@@8??0OutOfBoundException@@QAE@ABV0@@Z20
	DD	FLAT:__CT??_R0?AVRuntimeException@@@8??0RuntimeException@@QAE@ABV0@@Z20
	DD	FLAT:__CT??_R0?AVException@@@8??0Exception@@QAE@ABV0@@Z20
	DD	FLAT:__CT??_R0?AVThrowable@@@8??0Throwable@@QAE@ABV0@@Z20
xdata$x	ENDS
;	COMDAT __CT??_R0?AVOutOfBoundException@@@8??0OutOfBoundException@@QAE@ABV0@@Z20
xdata$x	SEGMENT
__CT??_R0?AVOutOfBoundException@@@8??0OutOfBoundException@@QAE@ABV0@@Z20 DD 00H
	DD	FLAT:??_R0?AVOutOfBoundException@@@8
	DD	00H
	DD	0ffffffffH
	ORG $+4
	DD	014H
	DD	FLAT:??0OutOfBoundException@@QAE@ABV0@@Z
; Function compile flags: /Ogsy
; File c:\darkeden\designed_common\project\client\packet\clientplayer.cpp
xdata$x	ENDS
;	COMDAT ?getOldPacket@ClientPlayer@@QAEPAVPacket@@I@Z
_TEXT	SEGMENT
$T117246 = -72						; size = 20
$T117245 = -52						; size = 20
$T117244 = -32						; size = 20
__$EHRec$ = -12						; size = 12
$T117247 = 8						; size = 4
_prev$ = 8						; size = 4
$T117248 = 11						; size = 1
?getOldPacket@ClientPlayer@@QAEPAVPacket@@I@Z PROC NEAR	; ClientPlayer::getOldPacket, COMDAT
; _this$ = ecx

; 470  : {

  00000	b8 00 00 00 00	 mov	 eax, __ehhandler$?getOldPacket@ClientPlayer@@QAEPAVPacket@@I@Z
  00005	e8 00 00 00 00	 call	 __EH_prolog
  0000a	83 ec 3c	 sub	 esp, 60			; 0000003cH

; 471  : 	__BEGIN_TRY
; 472  : 
; 473  : 	if ( prev >= nPacketHistory )

  0000d	83 7d 08 0a	 cmp	 DWORD PTR _prev$[ebp], 10 ; 0000000aH
  00011	72 19		 jb	 SHORT $L111723

; 474  : 		throw OutOfBoundException();

  00013	8d 4d e0	 lea	 ecx, DWORD PTR $T117244[ebp]
  00016	e8 00 00 00 00	 call	 ??0Throwable@@QAE@XZ	; Throwable::Throwable
  0001b	c7 45 e0 00 00
	00 00		 mov	 DWORD PTR $T117244[ebp], OFFSET FLAT:??_7OutOfBoundException@@6B@
  00022	68 00 00 00 00	 push	 OFFSET FLAT:__TI4?AVOutOfBoundException@@
  00027	8d 45 e0	 lea	 eax, DWORD PTR $T117244[ebp]
  0002a	eb 48		 jmp	 SHORT $L117294
$L111723:

; 475  : 
; 476  : 	// if prev == 0 , return m_PacketHistory[9]
; 477  : 	// if prev == 9 , return m_PacketHistory[0]
; 478  : 	Packet * pPacket = m_PacketHistory[ nPacketHistory - prev - 1 ];

  0002c	6a 09		 push	 9
  0002e	58		 pop	 eax
  0002f	2b 45 08	 sub	 eax, DWORD PTR _prev$[ebp]
  00032	83 c1 30	 add	 ecx, 48			; 00000030H
  00035	50		 push	 eax
  00036	e8 00 00 00 00	 call	 ??A?$_Deque_iterator@PAVPacket@@U?$_Nonconst_traits@PAVPacket@@@_STL@@@_STL@@QBEAAPAVPacket@@H@Z ; _STL::_Deque_iterator<Packet *,_STL::_Nonconst_traits<Packet *> >::operator[]
  0003b	8b 00		 mov	 eax, DWORD PTR [eax]

; 479  : 
; 480  : 	if ( pPacket == NULL )

  0003d	85 c0		 test	 eax, eax
  0003f	75 39		 jne	 SHORT $L111721

; 481  : 		throw NoSuchElementException("packet history is empty");

  00041	83 ec 0c	 sub	 esp, 12			; 0000000cH
  00044	8b cc		 mov	 ecx, esp
  00046	89 65 08	 mov	 DWORD PTR $T117247[ebp], esp
  00049	8d 45 0b	 lea	 eax, DWORD PTR $T117248[ebp]
  0004c	50		 push	 eax
  0004d	68 00 00 00 00	 push	 OFFSET FLAT:??_C@_0BI@LFOPAFAB@packet?5history?5is?5empty?$AA@
  00052	e8 00 00 00 00	 call	 ??0?$basic_string@DV?$char_traits@D@_STL@@V?$allocator@D@2@@_STL@@QAE@PBDABV?$allocator@D@1@@Z ; _STL::basic_string<char,_STL::char_traits<char>,_STL::allocator<char> >::basic_string<char,_STL::char_traits<char>,_STL::allocator<char> >
  00057	8d 4d b8	 lea	 ecx, DWORD PTR $T117246[ebp]
  0005a	e8 00 00 00 00	 call	 ??0NoSuchElementException@@QAE@V?$basic_string@DV?$char_traits@D@_STL@@V?$allocator@D@2@@_STL@@@Z ; NoSuchElementException::NoSuchElementException
  0005f	83 65 fc 00	 and	 DWORD PTR __$EHRec$[ebp+8], 0
  00063	50		 push	 eax
  00064	8d 4d cc	 lea	 ecx, DWORD PTR $T117245[ebp]
  00067	e8 00 00 00 00	 call	 ??0NoSuchElementException@@QAE@ABV0@@Z
  0006c	68 00 00 00 00	 push	 OFFSET FLAT:__TI4?AVNoSuchElementException@@
  00071	8d 45 cc	 lea	 eax, DWORD PTR $T117245[ebp]
$L117294:
  00074	50		 push	 eax
  00075	e8 00 00 00 00	 call	 __CxxThrowException@8
$L117296:
$L111721:

; 482  : 
; 483  : 	return pPacket;
; 484  : 
; 485  : 	__END_CATCH
; 486  : }

  0007a	8b 4d f4	 mov	 ecx, DWORD PTR __$EHRec$[ebp]
  0007d	64 89 0d 00 00
	00 00		 mov	 DWORD PTR fs:__except_list, ecx
  00084	c9		 leave
  00085	c2 04 00	 ret	 4
$L117293:
_TEXT	ENDS
;	COMDAT text$x
text$x	SEGMENT
$L117250:
  00000	8d 4d b8	 lea	 ecx, DWORD PTR $T117246[ebp]
  00003	e9 00 00 00 00	 jmp	 ??1NoSuchElementException@@UAE@XZ
__ehhandler$?getOldPacket@ClientPlayer@@QAEPAVPacket@@I@Z:
  00008	b8 00 00 00 00	 mov	 eax, OFFSET FLAT:$T117291
  0000d	e9 00 00 00 00	 jmp	 ___CxxFrameHandler
text$x	ENDS
?getOldPacket@ClientPlayer@@QAEPAVPacket@@I@Z ENDP	; ClientPlayer::getOldPacket
; Function compile flags: /Ogsy
;	COMDAT ??0OutOfBoundException@@QAE@ABV0@@Z
_TEXT	SEGMENT
___that$ = 8						; size = 4
??0OutOfBoundException@@QAE@ABV0@@Z PROC NEAR		; OutOfBoundException::OutOfBoundException, COMDAT
; _this$ = ecx
  00000	56		 push	 esi
  00001	ff 74 24 08	 push	 DWORD PTR ___that$[esp]
  00005	8b f1		 mov	 esi, ecx
  00007	e8 00 00 00 00	 call	 ??0RuntimeException@@QAE@ABV0@@Z
  0000c	c7 06 00 00 00
	00		 mov	 DWORD PTR [esi], OFFSET FLAT:??_7OutOfBoundException@@6B@
  00012	8b c6		 mov	 eax, esi
  00014	5e		 pop	 esi
  00015	c2 04 00	 ret	 4
??0OutOfBoundException@@QAE@ABV0@@Z ENDP		; OutOfBoundException::OutOfBoundException
_TEXT	ENDS
PUBLIC	??0InvalidProtocolException@@QAE@ABV0@@Z	; InvalidProtocolException::InvalidProtocolException
; Function compile flags: /Ogsy
;	COMDAT ??0InvalidProtocolException@@QAE@ABV0@@Z
_TEXT	SEGMENT
___that$ = 8						; size = 4
??0InvalidProtocolException@@QAE@ABV0@@Z PROC NEAR	; InvalidProtocolException::InvalidProtocolException, COMDAT
; _this$ = ecx
  00000	56		 push	 esi
  00001	ff 74 24 08	 push	 DWORD PTR ___that$[esp]
  00005	8b f1		 mov	 esi, ecx
  00007	e8 00 00 00 00	 call	 ??0ProtocolException@@QAE@ABV0@@Z
  0000c	c7 06 00 00 00
	00		 mov	 DWORD PTR [esi], OFFSET FLAT:??_7InvalidProtocolException@@6B@
  00012	8b c6		 mov	 eax, esi
  00014	5e		 pop	 esi
  00015	c2 04 00	 ret	 4
??0InvalidProtocolException@@QAE@ABV0@@Z ENDP		; InvalidProtocolException::InvalidProtocolException
_TEXT	ENDS
PUBLIC	??_C@_0BD@FANDPPKL@Exceed?5PacketID?3?$CFd?$AA@	; `string'
PUBLIC	__TI5?AVInvalidProtocolException@@
PUBLIC	__CTA5?AVInvalidProtocolException@@
PUBLIC	__CT??_R0?AVInvalidProtocolException@@@8??0InvalidProtocolException@@QAE@ABV0@@Z20
PUBLIC	__CT??_R0?AVProtocolException@@@8??0ProtocolException@@QAE@ABV0@@Z20
PUBLIC	__CT??_R0?AVIOException@@@8??0IOException@@QAE@ABV0@@Z20
PUBLIC	??_C@_0DP@KCFCDKPH@?$FLPacketError?9ClientPlayer?3?3proce@ ; `string'
PUBLIC	??_C@_0BF@PFHKPJMA@invalid?5packet?5ORDER?$AA@	; `string'
PUBLIC	??_C@_0CB@JHIBOMH@too?5large?5PacketSize?5ID?$CJ?$CFd?5?$CFd?1?$CFd@ ; `string'
PUBLIC	??_C@_0BG@CMAGOJAN@too?5large?5packet?5SIZE?$AA@ ; `string'
PUBLIC	__TI5?AVInsufficientDataException@@
PUBLIC	__CTA5?AVInsufficientDataException@@
PUBLIC	__CT??_R0?AVInsufficientDataException@@@8??0InsufficientDataException@@QAE@ABV0@@Z24
PUBLIC	??0InsufficientDataException@@QAE@ABV0@@Z	; InsufficientDataException::InsufficientDataException
PUBLIC	??_R0?AVIgnorePacketException@@@8		; IgnorePacketException `RTTI Type Descriptor'
EXTRN	?g_pClientConfig@@3PAVClientConfig@@A:DWORD	; g_pClientConfig
EXTRN	?read@SocketInputStream@@QAEXPAVPacket@@@Z:NEAR	; SocketInputStream::read
EXTRN	?peek@SocketInputStream@@QAEXPADII@Z:NEAR	; SocketInputStream::peek
EXTRN	?length@SocketInputStream@@QBEIXZ:NEAR		; SocketInputStream::length
EXTRN	?isValidPacketID@PacketValidator@@QAE_NW4PlayerStatus@@G@Z:NEAR ; PacketValidator::isValidPacketID
EXTRN	___security_cookie:DWORD
EXTRN	@__security_check_cookie@4:NEAR
EXTRN	?createPacket@PacketFactoryManager@@QAEPAVPacket@@G@Z:NEAR ; PacketFactoryManager::createPacket
EXTRN	?getPacketMaxSize@PacketFactoryManager@@QAEIG@Z:NEAR ; PacketFactoryManager::getPacketMaxSize
EXTRN	?g_pPacketFactoryManager@@3PAVPacketFactoryManager@@A:DWORD ; g_pPacketFactoryManager
EXTRN	?g_pPacketValidator@@3PAVPacketValidator@@A:DWORD ; g_pPacketValidator
EXTRN	_memcpy:NEAR
EXTRN	?SendBugReport@@YAXPBDZZ:NEAR			; SendBugReport
;	COMDAT xdata$x
; File c:\darkeden\designed_common\project\client\debuginfo.h
xdata$x	SEGMENT
$T117527 DD	0ffffffffH
	DD	00H
	DD	00H
	DD	00H
	DD	01H
	DD	FLAT:$L117339
	DD	01H
	DD	00H
	DD	03H
	DD	FLAT:$L117341
	DD	01H
	DD	00H
	DD	01H
	DD	FLAT:$L117344
	DD	00H
	DD	00H
	DD	0ffffffffH
	DD	00H
$T117529 DD	08H
	DD	FLAT:??_R0?AVIgnorePacketException@@@8
	DD	0ffffffc0H
	DD	FLAT:$L117335
$T117530 DD	08H
	DD	FLAT:??_R0?AVInsufficientDataException@@@8
	DD	00H
	DD	FLAT:$L117336
$T117531 DD	08H
	DD	FLAT:??_R0?AVThrowable@@@8
	DD	00H
	DD	FLAT:$L117337
$T117528 DD	03H
	DD	04H
	DD	05H
	DD	01H
	DD	FLAT:$T117529
	DD	01H
	DD	06H
	DD	07H
	DD	01H
	DD	FLAT:$T117530
	DD	00H
	DD	07H
	DD	08H
	DD	01H
	DD	FLAT:$T117531
$T117516 DD	019930520H
	DD	09H
	DD	FLAT:$T117527
	DD	03H
	DD	FLAT:$T117528
	DD	2 DUP(00H)
xdata$x	ENDS
;	COMDAT ??_C@_0BD@FANDPPKL@Exceed?5PacketID?3?$CFd?$AA@
CONST	SEGMENT
??_C@_0BD@FANDPPKL@Exceed?5PacketID?3?$CFd?$AA@ DB 'Exceed PacketID:%d', 00H ; `string'
CONST	ENDS
;	COMDAT ??_C@_0DP@KCFCDKPH@?$FLPacketError?9ClientPlayer?3?3proce@
CONST	SEGMENT
??_C@_0DP@KCFCDKPH@?$FLPacketError?9ClientPlayer?3?3proce@ DB '[PacketErr'
	DB	'or-ClientPlayer::processCommand] exceed MAX packetID', 00H ; `string'
CONST	ENDS
;	COMDAT __TI5?AVInvalidProtocolException@@
xdata$x	SEGMENT
__TI5?AVInvalidProtocolException@@ DD 00H
	DD	FLAT:??1InvalidProtocolException@@UAE@XZ
	DD	00H
	DD	FLAT:__CTA5?AVInvalidProtocolException@@
xdata$x	ENDS
;	COMDAT ??_C@_0BF@PFHKPJMA@invalid?5packet?5ORDER?$AA@
CONST	SEGMENT
??_C@_0BF@PFHKPJMA@invalid?5packet?5ORDER?$AA@ DB 'invalid packet ORDER', 00H ; `string'
CONST	ENDS
;	COMDAT ??_C@_0CB@JHIBOMH@too?5large?5PacketSize?5ID?$CJ?$CFd?5?$CFd?1?$CFd@
CONST	SEGMENT
??_C@_0CB@JHIBOMH@too?5large?5PacketSize?5ID?$CJ?$CFd?5?$CFd?1?$CFd@ DB 't'
	DB	'oo large PacketSize ID)%d %d/%d', 00H	; `string'
CONST	ENDS
;	COMDAT ??_C@_0BG@CMAGOJAN@too?5large?5packet?5SIZE?$AA@
CONST	SEGMENT
??_C@_0BG@CMAGOJAN@too?5large?5packet?5SIZE?$AA@ DB 'too large packet SIZ'
	DB	'E', 00H					; `string'
CONST	ENDS
;	COMDAT __TI5?AVInsufficientDataException@@
xdata$x	SEGMENT
__TI5?AVInsufficientDataException@@ DD 00H
	DD	FLAT:??1InsufficientDataException@@UAE@XZ
	DD	00H
	DD	FLAT:__CTA5?AVInsufficientDataException@@
xdata$x	ENDS
;	COMDAT ??_R0?AVIgnorePacketException@@@8
_DATA	SEGMENT
??_R0?AVIgnorePacketException@@@8 DD FLAT:??_7type_info@@6B@ ; IgnorePacketException `RTTI Type Descriptor'
	DD	00H
	DB	'.?AVIgnorePacketException@@', 00H
	ORG $-36
	DD	FLAT:??_7type_info@@6B@
	DD	00H
	DB	'.?AVIgnorePacketException@@', 00H
_DATA	ENDS
;	COMDAT __CTA5?AVInvalidProtocolException@@
xdata$x	SEGMENT
__CTA5?AVInvalidProtocolException@@ DD 05H
	DD	FLAT:__CT??_R0?AVInvalidProtocolException@@@8??0InvalidProtocolException@@QAE@ABV0@@Z20
	DD	FLAT:__CT??_R0?AVProtocolException@@@8??0ProtocolException@@QAE@ABV0@@Z20
	DD	FLAT:__CT??_R0?AVIOException@@@8??0IOException@@QAE@ABV0@@Z20
	DD	FLAT:__CT??_R0?AVException@@@8??0Exception@@QAE@ABV0@@Z20
	DD	FLAT:__CT??_R0?AVThrowable@@@8??0Throwable@@QAE@ABV0@@Z20
xdata$x	ENDS
;	COMDAT __CT??_R0?AVInvalidProtocolException@@@8??0InvalidProtocolException@@QAE@ABV0@@Z20
xdata$x	SEGMENT
__CT??_R0?AVInvalidProtocolException@@@8??0InvalidProtocolException@@QAE@ABV0@@Z20 DD 00H
	DD	FLAT:??_R0?AVInvalidProtocolException@@@8
	DD	00H
	DD	0ffffffffH
	ORG $+4
	DD	014H
	DD	FLAT:??0InvalidProtocolException@@QAE@ABV0@@Z
xdata$x	ENDS
;	COMDAT __CT??_R0?AVProtocolException@@@8??0ProtocolException@@QAE@ABV0@@Z20
xdata$x	SEGMENT
__CT??_R0?AVProtocolException@@@8??0ProtocolException@@QAE@ABV0@@Z20 DD 00H
	DD	FLAT:??_R0?AVProtocolException@@@8
	DD	00H
	DD	0ffffffffH
	ORG $+4
	DD	014H
	DD	FLAT:??0ProtocolException@@QAE@ABV0@@Z
xdata$x	ENDS
;	COMDAT __CT??_R0?AVIOException@@@8??0IOException@@QAE@ABV0@@Z20
xdata$x	SEGMENT
__CT??_R0?AVIOException@@@8??0IOException@@QAE@ABV0@@Z20 DD 00H
	DD	FLAT:??_R0?AVIOException@@@8
	DD	00H
	DD	0ffffffffH
	ORG $+4
	DD	014H
	DD	FLAT:??0IOException@@QAE@ABV0@@Z
xdata$x	ENDS
;	COMDAT __CTA5?AVInsufficientDataException@@
xdata$x	SEGMENT
__CTA5?AVInsufficientDataException@@ DD 05H
	DD	FLAT:__CT??_R0?AVInsufficientDataException@@@8??0InsufficientDataException@@QAE@ABV0@@Z24
	DD	FLAT:__CT??_R0?AVProtocolException@@@8??0ProtocolException@@QAE@ABV0@@Z20
	DD	FLAT:__CT??_R0?AVIOException@@@8??0IOException@@QAE@ABV0@@Z20
	DD	FLAT:__CT??_R0?AVException@@@8??0Exception@@QAE@ABV0@@Z20
	DD	FLAT:__CT??_R0?AVThrowable@@@8??0Throwable@@QAE@ABV0@@Z20
xdata$x	ENDS
;	COMDAT __CT??_R0?AVInsufficientDataException@@@8??0InsufficientDataException@@QAE@ABV0@@Z24
xdata$x	SEGMENT
__CT??_R0?AVInsufficientDataException@@@8??0InsufficientDataException@@QAE@ABV0@@Z24 DD 00H
	DD	FLAT:??_R0?AVInsufficientDataException@@@8
	DD	00H
	DD	0ffffffffH
	ORG $+4
	DD	018H
	DD	FLAT:??0InsufficientDataException@@QAE@ABV0@@Z
; Function compile flags: /Ogsy
; File c:\darkeden\designed_common\project\client\packet\clientplayer.cpp
xdata$x	ENDS
;	COMDAT ?processCommand@ClientPlayer@@UAEXXZ
_TEXT	SEGMENT
$T117323 = -188						; size = 24
$T117314 = -164						; size = 20
$T117320 = -144						; size = 20
$T117315 = -144						; size = 20
$T117319 = -124						; size = 20
$T117310 = -104						; size = 20
$T117311 = -84						; size = 20
$T117318 = -76						; size = 12
$T117321 = -64						; size = 4
_t$111652 = -64						; size = 4
_maxProcessPacket$111619 = -60				; size = 4
$T117312 = -56						; size = 4
_this$ = -56						; size = 4
_processedPacket$111620 = -52				; size = 4
$T117316 = -48						; size = 4
_bExecute$111641 = -48					; size = 4
_packetSize$111618 = -44				; size = 4
_pPacket$ = -40						; size = 4
_packetID$111617 = -36					; size = 2
$T117322 = -29						; size = 1
$T117317 = -29						; size = 1
$T117313 = -29						; size = 1
_header$111616 = -28					; size = 6
__$ArrayPad$ = -20					; size = 4
__$EHRec$ = -16						; size = 16
__$ReturnAddr$ = 4					; size = 4
?processCommand@ClientPlayer@@UAEXXZ PROC NEAR		; ClientPlayer::processCommand, COMDAT
; _this$ = ecx

; 153  : {

  00000	b8 00 00 00 00	 mov	 eax, __ehhandler$?processCommand@ClientPlayer@@UAEXXZ
  00005	e8 00 00 00 00	 call	 __EH_prolog
  0000a	81 ec b0 00 00
	00		 sub	 esp, 176		; 000000b0H
  00010	a1 00 00 00 00	 mov	 eax, DWORD PTR ___security_cookie
  00015	53		 push	 ebx

; 154  : 	__BEGIN_TRY
; 155  : 
; 156  : 	Packet * pPacket;
; 157  : #if __CONTENTS(__CRYPT)
; 158  : 	PACKETDATA pData;
; 159  : 	pData.m_wMsgSize = 0;
; 160  : #endif
; 161  : 
; 162  : 	try {

  00016	33 db		 xor	 ebx, ebx
  00018	89 45 ec	 mov	 DWORD PTR __$ArrayPad$[ebp], eax

; 163  : 		try {
; 164  : 
; 165  : 			//    
; 166  : 			char header[szPacketHeader];
; 167  : 			PacketID_t packetID = 0;
; 168  : 			PacketSize_t packetSize = 0;		
; 169  : 			pPacket = NULL;
; 170  : 
; 171  : 			//---------------------------------------------------------
; 172  : 			//  Loop  packet 
; 173  : 			//---------------------------------------------------------
; 174  : 			// packet   .. 
; 175  : 			//   ..    client  
; 176  : 			//    .
; 177  : 			//---------------------------------------------------------
; 178  : 			int maxProcessPacket = g_pClientConfig->MAX_PROCESS_PACKET;

  0001b	a1 00 00 00 00	 mov	 eax, DWORD PTR ?g_pClientConfig@@3PAVClientConfig@@A ; g_pClientConfig
  00020	56		 push	 esi
  00021	89 5d dc	 mov	 DWORD PTR _packetID$111617[ebp], ebx
  00024	89 5d d4	 mov	 DWORD PTR _packetSize$111618[ebp], ebx
  00027	8b 40 28	 mov	 eax, DWORD PTR [eax+40]
  0002a	57		 push	 edi
  0002b	8b f1		 mov	 esi, ecx
  0002d	89 5d fc	 mov	 DWORD PTR __$EHRec$[ebp+12], ebx
  00030	89 65 f0	 mov	 DWORD PTR __$EHRec$[ebp], esp
  00033	89 75 c8	 mov	 DWORD PTR _this$[ebp], esi
  00036	c6 45 fc 01	 mov	 BYTE PTR __$EHRec$[ebp+12], 1
  0003a	89 5d d8	 mov	 DWORD PTR _pPacket$[ebp], ebx
  0003d	89 45 c4	 mov	 DWORD PTR _maxProcessPacket$111619[ebp], eax

; 179  : 			int processedPacket = 0;

  00040	89 5d cc	 mov	 DWORD PTR _processedPacket$111620[ebp], ebx
$L111622:

; 180  :  
; 181  : 			//      .
; 182  : 			while ( true ) {
; 183  : 			
; 184  : 				//   .
; 185  : 				//       ,
; 186  : 				// Insufficient  ,  .
; 187  : #if __CONTENTS(__CRYPT)
; 188  : 				m_pInputStream->peek((char*)&pData , szPacketHeader);
; 189  : #else
; 190  : 				m_pInputStream->peek( header , szPacketHeader );

  00043	8b 4e 14	 mov	 ecx, DWORD PTR [esi+20]
  00046	53		 push	 ebx
  00047	6a 06		 push	 6
  00049	8d 45 e4	 lea	 eax, DWORD PTR _header$111616[ebp]
  0004c	50		 push	 eax
  0004d	e8 00 00 00 00	 call	 ?peek@SocketInputStream@@QAEXPADII@Z ; SocketInputStream::peek

; 191  : #endif
; 192  : 
; 193  : #if __CONTENTS(__CRYPT)
; 194  :             m_pInputStream->DecryptHeader(&pData); //    .
; 195  :        		packetSize = pData.m_wMsgSize;
; 196  : 
; 197  :             packetID = pData.m_wMsgType;
; 198  : #else
; 199  : 			//    .
; 200  : 			//    .
; 201  : 			memcpy( &packetID   , &header[0] , szPacketID ); 	

  00052	6a 02		 push	 2
  00054	8d 45 e4	 lea	 eax, DWORD PTR _header$111616[ebp]
  00057	50		 push	 eax
  00058	8d 45 dc	 lea	 eax, DWORD PTR _packetID$111617[ebp]
  0005b	50		 push	 eax
  0005c	e8 00 00 00 00	 call	 _memcpy

; 202  : 			memcpy( &packetSize , &header[szPacketID] , szPacketSize );

  00061	6a 04		 push	 4
  00063	8d 45 e6	 lea	 eax, DWORD PTR _header$111616[ebp+2]
  00066	50		 push	 eax
  00067	8d 45 d4	 lea	 eax, DWORD PTR _packetSize$111618[ebp]
  0006a	50		 push	 eax
  0006b	e8 00 00 00 00	 call	 _memcpy
  00070	83 c4 18	 add	 esp, 24			; 00000018H

; 203  : #endif
; 204  : 			
; 205  : #ifdef __DEBUG_OUTPUT__
; 206  : 				std::ofstream file("templog.log", std::ios::out | std::ios::app);
; 207  : 				file << "*** RECEIVED PacketID=" << packetID << ", PacketSize=" << packetSize << std::endl;
; 208  : 				file.close();
; 209  : #endif
; 210  : 				//#ifdef	__DEBUG_OUTPUT__
; 211  : 					//	DEBUG_ADD_FORMAT("ID=%d (%s), size=%d", packetID, g_pPacketFactoryManager->getPacketName( packetID ), packetSize);
; 212  : 				//#else
; 213  : 					//	DEBUG_ADD_FORMAT("ID=%d, size=%d", packetID, packetSize);
; 214  : 				//#endif
; 215  : 
; 216  : 				//      .
; 217  : 
; 218  : //  
; 219  : #if __CONTENTS(__AUTO_ITEM_ROOTING)
; 220  : //				if(g_pZone != NULL)
; 221  : //				{
; 222  : //					if(strstr(g_pPlayer->arrchRootingTest, "*command autoItemRooting"))
; 223  : //					{
; 224  : //						if(g_CurrentFrame % 320 == 0)
; 225  : //						{
; 226  : //							CGSay _CGSay;
; 227  : //							_CGSay.setMessage( g_pPlayer->arrchSummon );//+ 1 );	//pWansungString+1 );
; 228  : //							_CGSay.setColor( 0 );
; 229  : //							g_pSocket->sendPacket( &_CGSay );
; 230  : //						}
; 231  : //					}
; 232  : //				}
; 233  : #endif // __AUTO_ITEM_ROOTING
; 234  : 				DEBUG_ADD_FORMAT_ERR("*** RECEIVED PacketID=%d, Size=%d",  (int)packetID, (int)packetSize);
; 235  : 				if ( packetID >= Packet::PACKET_MAX ) 

  00073	66 81 7d dc 5a
	02		 cmp	 WORD PTR _packetID$111617[ebp], 602 ; 0000025aH
  00079	72 4a		 jb	 SHORT $L117373

; 236  : 				{					
; 237  : 					DEBUG_ADD_FORMAT_ERR("[PacketError-ClientPlayer::processCommand] exceed MAX=%d. packetID=%d", Packet::PACKET_MAX, packetID);
; 238  : 					SendBugReport("Exceed PacketID:%d",packetID);

  0007b	0f b7 45 dc	 movzx	 eax, WORD PTR _packetID$111617[ebp]
  0007f	50		 push	 eax
  00080	68 00 00 00 00	 push	 OFFSET FLAT:??_C@_0BD@FANDPPKL@Exceed?5PacketID?3?$CFd?$AA@
  00085	e8 00 00 00 00	 call	 ?SendBugReport@@YAXPBDZZ ; SendBugReport
  0008a	59		 pop	 ecx
  0008b	59		 pop	 ecx

; 239  : 					
; 240  : 					throw InvalidProtocolException("[PacketError-ClientPlayer::processCommand] exceed MAX packetID");

  0008c	83 ec 0c	 sub	 esp, 12			; 0000000cH
  0008f	8b cc		 mov	 ecx, esp
  00091	89 65 c8	 mov	 DWORD PTR $T117312[ebp], esp
  00094	8d 45 e3	 lea	 eax, DWORD PTR $T117313[ebp]
  00097	50		 push	 eax
  00098	68 00 00 00 00	 push	 OFFSET FLAT:??_C@_0DP@KCFCDKPH@?$FLPacketError?9ClientPlayer?3?3proce@
  0009d	e8 00 00 00 00	 call	 ??0?$basic_string@DV?$char_traits@D@_STL@@V?$allocator@D@2@@_STL@@QAE@PBDABV?$allocator@D@1@@Z ; _STL::basic_string<char,_STL::char_traits<char>,_STL::allocator<char> >::basic_string<char,_STL::char_traits<char>,_STL::allocator<char> >
  000a2	8d 4d ac	 lea	 ecx, DWORD PTR $T117311[ebp]
  000a5	e8 00 00 00 00	 call	 ??0InvalidProtocolException@@QAE@V?$basic_string@DV?$char_traits@D@_STL@@V?$allocator@D@2@@_STL@@@Z ; InvalidProtocolException::InvalidProtocolException
  000aa	50		 push	 eax
  000ab	8d 4d 98	 lea	 ecx, DWORD PTR $T117310[ebp]
  000ae	c6 45 fc 02	 mov	 BYTE PTR __$EHRec$[ebp+12], 2
  000b2	e8 00 00 00 00	 call	 ??0InvalidProtocolException@@QAE@ABV0@@Z
  000b7	68 00 00 00 00	 push	 OFFSET FLAT:__TI5?AVInvalidProtocolException@@
  000bc	8d 45 98	 lea	 eax, DWORD PTR $T117310[ebp]
$L117526:
  000bf	50		 push	 eax
  000c0	e9 f8 01 00 00	 jmp	 $L117525
$L117373:

; 241  : 				}
; 242  : 
; 243  : 				
; 244  : 
; 245  : 				#ifdef __DEBUG_OUTPUT__
; 246  : 					DEBUG_ADD_FORMAT("[RECEIVE] [ID=%d] %s", packetID, g_pPacketFactoryManager->getPacketName(packetID).c_str());
; 247  : 				#endif
; 248  : 				
; 249  : 				BOOL bExecute = TRUE;
; 250  : 
; 251  : 				try {
; 252  : 					if ( ! g_pPacketValidator->isValidPacketID( getPlayerStatus() , packetID ) )

  000c5	ff 75 dc	 push	 DWORD PTR _packetID$111617[ebp]
  000c8	8b 46 58	 mov	 eax, DWORD PTR [esi+88]
  000cb	8b 0d 00 00 00
	00		 mov	 ecx, DWORD PTR ?g_pPacketValidator@@3PAVPacketValidator@@A ; g_pPacketValidator
  000d1	50		 push	 eax
  000d2	c7 45 d0 01 00
	00 00		 mov	 DWORD PTR _bExecute$111641[ebp], 1
  000d9	c6 45 fc 03	 mov	 BYTE PTR __$EHRec$[ebp+12], 3
  000dd	e8 00 00 00 00	 call	 ?isValidPacketID@PacketValidator@@QAE_NW4PlayerStatus@@G@Z ; PacketValidator::isValidPacketID
  000e2	3a c3		 cmp	 al, bl
  000e4	75 7d		 jne	 SHORT $L111642

; 253  : 					{
; 254  : 						//---------------------------------------------------------------
; 255  : 						// Logout    
; 256  : 						//---------------------------------------------------------------
; 257  : 						if (getPlayerStatus()==CPS_WAITING_FOR_GC_RECONNECT_LOGIN)

  000e6	83 7e 58 0d	 cmp	 DWORD PTR [esi+88], 13	; 0000000dH
  000ea	75 0c		 jne	 SHORT $L111644

; 258  : 						{
; 259  : 							DEBUG_ADD_ERR("[PacketError] ignore Packet when RECONNECT");
; 260  : 
; 261  : 							//  execute  .
; 262  : 							bExecute = FALSE;

  000ec	89 5d d0	 mov	 DWORD PTR _bExecute$111641[ebp], ebx

; 263  : 							
; 264  : 							// .. ~~ -_-;
; 265  : 							maxProcessPacket = 0xFFFF;

  000ef	c7 45 c4 ff ff
	00 00		 mov	 DWORD PTR _maxProcessPacket$111619[ebp], 65535 ; 0000ffffH

; 266  : 						}
; 267  : 						//---------------------------------------------------------------
; 268  : 						//    .
; 269  : 						//---------------------------------------------------------------
; 270  : 						else

  000f6	eb 6b		 jmp	 SHORT $L111642
$L111644:

; 271  : 						{
; 272  : 							throw InvalidProtocolException("invalid packet ORDER");

  000f8	83 ec 0c	 sub	 esp, 12			; 0000000cH
  000fb	8b cc		 mov	 ecx, esp
  000fd	89 65 d0	 mov	 DWORD PTR $T117316[ebp], esp
  00100	8d 45 e3	 lea	 eax, DWORD PTR $T117317[ebp]
  00103	50		 push	 eax
  00104	68 00 00 00 00	 push	 OFFSET FLAT:??_C@_0BF@PFHKPJMA@invalid?5packet?5ORDER?$AA@
  00109	e8 00 00 00 00	 call	 ??0?$basic_string@DV?$char_traits@D@_STL@@V?$allocator@D@2@@_STL@@QAE@PBDABV?$allocator@D@1@@Z ; _STL::basic_string<char,_STL::char_traits<char>,_STL::allocator<char> >::basic_string<char,_STL::char_traits<char>,_STL::allocator<char> >
  0010e	8d 8d 70 ff ff
	ff		 lea	 ecx, DWORD PTR $T117315[ebp]
  00114	e8 00 00 00 00	 call	 ??0InvalidProtocolException@@QAE@V?$basic_string@DV?$char_traits@D@_STL@@V?$allocator@D@2@@_STL@@@Z ; InvalidProtocolException::InvalidProtocolException
  00119	50		 push	 eax
  0011a	8d 8d 5c ff ff
	ff		 lea	 ecx, DWORD PTR $T117314[ebp]
  00120	c6 45 fc 04	 mov	 BYTE PTR __$EHRec$[ebp+12], 4
  00124	e8 00 00 00 00	 call	 ??0InvalidProtocolException@@QAE@ABV0@@Z
  00129	68 00 00 00 00	 push	 OFFSET FLAT:__TI5?AVInvalidProtocolException@@
  0012e	8d 85 5c ff ff
	ff		 lea	 eax, DWORD PTR $T117314[ebp]
  00134	eb 89		 jmp	 SHORT $L117526
$L117335:

; 273  : 						}				
; 274  : 					}
; 275  : 				//} catch (InvalidProtocolException& t) {
; 276  : 				} catch (IgnorePacketException& t)	{
; 277  : 					
; 278  : 					DEBUG_ADD_ERR(t.toString().c_str());

  00136	8b 4d c0	 mov	 ecx, DWORD PTR _t$111652[ebp]
  00139	8b 01		 mov	 eax, DWORD PTR [ecx]
  0013b	8d 55 b4	 lea	 edx, DWORD PTR $T117318[ebp]
  0013e	52		 push	 edx
  0013f	ff 50 08	 call	 DWORD PTR [eax+8]
  00142	8b 45 bc	 mov	 eax, DWORD PTR $T117318[ebp+8]
  00145	2b 45 b4	 sub	 eax, DWORD PTR $T117318[ebp]
  00148	8d 4d bc	 lea	 ecx, DWORD PTR $T117318[ebp+8]
  0014b	50		 push	 eax
  0014c	ff 75 b4	 push	 DWORD PTR $T117318[ebp]
  0014f	e8 00 00 00 00	 call	 ?deallocate@?$allocator@D@_STL@@QAEXPADI@Z ; _STL::allocator<char>::deallocate

; 279  : 
; 280  : 					bExecute = FALSE;

  00154	83 65 d0 00	 and	 DWORD PTR _bExecute$111641[ebp], 0

; 281  : 				}

  00158	b8 00 00 00 00	 mov	 eax, $L117519
  0015d	c3		 ret	 0
$L117519:
  0015e	8b 75 c8	 mov	 esi, DWORD PTR _this$[ebp]
  00161	33 db		 xor	 ebx, ebx
$L111642:

; 282  : 				
; 283  : 				//       .
; 284  : 				if ( packetSize > g_pPacketFactoryManager->getPacketMaxSize( packetID ) )

  00163	ff 75 dc	 push	 DWORD PTR _packetID$111617[ebp]
  00166	8b 0d 00 00 00
	00		 mov	 ecx, DWORD PTR ?g_pPacketFactoryManager@@3PAVPacketFactoryManager@@A ; g_pPacketFactoryManager
  0016c	c7 45 fc 01 00
	00 00		 mov	 DWORD PTR __$EHRec$[ebp+12], 1
  00173	e8 00 00 00 00	 call	 ?getPacketMaxSize@PacketFactoryManager@@QAEIG@Z ; PacketFactoryManager::getPacketMaxSize
  00178	39 45 d4	 cmp	 DWORD PTR _packetSize$111618[ebp], eax
  0017b	76 6a		 jbe	 SHORT $L117489

; 285  : 				{
; 286  : 					DEBUG_ADD_FORMAT_ERR("[PacketError] too large packet SIZE: %d/%d", (int)packetSize, (int)g_pPacketFactoryManager->getPacketMaxSize( packetID ));		

  0017d	ff 75 dc	 push	 DWORD PTR _packetID$111617[ebp]
  00180	8b 0d 00 00 00
	00		 mov	 ecx, DWORD PTR ?g_pPacketFactoryManager@@3PAVPacketFactoryManager@@A ; g_pPacketFactoryManager
  00186	e8 00 00 00 00	 call	 ?getPacketMaxSize@PacketFactoryManager@@QAEIG@Z ; PacketFactoryManager::getPacketMaxSize

; 287  : 					SendBugReport("too large PacketSize ID)%d %d/%d", packetID, packetSize, g_pPacketFactoryManager->getPacketMaxSize( packetID ) );

  0018b	ff 75 dc	 push	 DWORD PTR _packetID$111617[ebp]
  0018e	8b 0d 00 00 00
	00		 mov	 ecx, DWORD PTR ?g_pPacketFactoryManager@@3PAVPacketFactoryManager@@A ; g_pPacketFactoryManager
  00194	e8 00 00 00 00	 call	 ?getPacketMaxSize@PacketFactoryManager@@QAEIG@Z ; PacketFactoryManager::getPacketMaxSize
  00199	50		 push	 eax
  0019a	ff 75 d4	 push	 DWORD PTR _packetSize$111618[ebp]
  0019d	0f b7 45 dc	 movzx	 eax, WORD PTR _packetID$111617[ebp]
  001a1	50		 push	 eax
  001a2	68 00 00 00 00	 push	 OFFSET FLAT:??_C@_0CB@JHIBOMH@too?5large?5PacketSize?5ID?$CJ?$CFd?5?$CFd?1?$CFd@
  001a7	e8 00 00 00 00	 call	 ?SendBugReport@@YAXPBDZZ ; SendBugReport

; 288  : 					throw InvalidProtocolException("too large packet SIZE");

  001ac	83 c4 04	 add	 esp, 4
  001af	8b cc		 mov	 ecx, esp
  001b1	89 65 c0	 mov	 DWORD PTR $T117321[ebp], esp
  001b4	8d 45 e3	 lea	 eax, DWORD PTR $T117322[ebp]
  001b7	50		 push	 eax
  001b8	68 00 00 00 00	 push	 OFFSET FLAT:??_C@_0BG@CMAGOJAN@too?5large?5packet?5SIZE?$AA@
  001bd	e8 00 00 00 00	 call	 ??0?$basic_string@DV?$char_traits@D@_STL@@V?$allocator@D@2@@_STL@@QAE@PBDABV?$allocator@D@1@@Z ; _STL::basic_string<char,_STL::char_traits<char>,_STL::allocator<char> >::basic_string<char,_STL::char_traits<char>,_STL::allocator<char> >
  001c2	8d 8d 70 ff ff
	ff		 lea	 ecx, DWORD PTR $T117320[ebp]
  001c8	e8 00 00 00 00	 call	 ??0InvalidProtocolException@@QAE@V?$basic_string@DV?$char_traits@D@_STL@@V?$allocator@D@2@@_STL@@@Z ; InvalidProtocolException::InvalidProtocolException
  001cd	50		 push	 eax
  001ce	8d 4d 84	 lea	 ecx, DWORD PTR $T117319[ebp]
  001d1	c6 45 fc 06	 mov	 BYTE PTR __$EHRec$[ebp+12], 6
  001d5	e8 00 00 00 00	 call	 ??0InvalidProtocolException@@QAE@ABV0@@Z
  001da	68 00 00 00 00	 push	 OFFSET FLAT:__TI5?AVInvalidProtocolException@@
  001df	8d 45 84	 lea	 eax, DWORD PTR $T117319[ebp]
  001e2	e9 d8 fe ff ff	 jmp	 $L117526
$L117489:

; 289  : 				}
; 290  : 				
; 291  : 				//     .
; 292  : 				//  break   . (  exception  .)
; 293  : 				if ( m_pInputStream->length() < szPacketHeader + packetSize )

  001e7	8b 4e 14	 mov	 ecx, DWORD PTR [esi+20]
  001ea	e8 00 00 00 00	 call	 ?length@SocketInputStream@@QBEIXZ ; SocketInputStream::length
  001ef	8b 4d d4	 mov	 ecx, DWORD PTR _packetSize$111618[ebp]
  001f2	83 c1 06	 add	 ecx, 6
  001f5	3b c1		 cmp	 eax, ecx
  001f7	73 24		 jae	 SHORT $L111664

; 294  : 				{
; 295  : 					DEBUG_ADD_FORMAT_ERR("[PacketError] InsufficientDataException: %d/%d", m_pInputStream->length(), szPacketHeader + packetSize);

  001f9	8b 4e 14	 mov	 ecx, DWORD PTR [esi+20]
  001fc	e8 00 00 00 00	 call	 ?length@SocketInputStream@@QBEIXZ ; SocketInputStream::length

; 296  : 		
; 297  : 					throw InsufficientDataException();

  00201	53		 push	 ebx
  00202	8d 8d 44 ff ff
	ff		 lea	 ecx, DWORD PTR $T117323[ebp]
  00208	e8 00 00 00 00	 call	 ??0InsufficientDataException@@QAE@I@Z ; InsufficientDataException::InsufficientDataException
  0020d	68 00 00 00 00	 push	 OFFSET FLAT:__TI5?AVInsufficientDataException@@
  00212	8d 85 44 ff ff
	ff		 lea	 eax, DWORD PTR $T117323[ebp]
  00218	e9 a2 fe ff ff	 jmp	 $L117526
$L111664:

; 298  : 				}
; 299  : 
; 300  : /*#if __CONTENTS(__CRYPT)
; 301  : 			if(pData.m_wMsgSize > 0)
; 302  : 			{
; 303  : 				if(pData.m_wMsgSize > 10000)
; 304  : 				{
; 305  : //					cout << "pData.m_wMsgSize > 10000" << endl;
; 306  : 				}
; 307  : 
; 308  : 	            pData.m_Buffer = new char[pData.m_wMsgSize];
; 309  : 				m_pInputStream->peek(pData.m_Buffer , pData.m_wMsgSize, MSG_HEADER_SIZE);
; 310  : 			}
; 311  : 
; 312  : 
; 313  :             if(!g_pCryptManager->Decrypt(&pData))
; 314  :             {
; 315  : //                filelog("CryptError.txt", "Packet Decrypt Error, RECV ID[%s],Host[%s]",
; 316  : //                   m_ID.c_str(),
; 317  : //                    getSocket()->getHost().c_str());
; 318  : 
; 319  :                 throw InvalidProtocolException("Packet Decrypt Error");
; 320  :             }
; 321  :             m_pInputStream->Replace(&pData, (pData.m_wMsgSize + MSG_HEADER_SIZE));
; 322  : #endif*/
; 323  : 
; 324  : 				#ifdef OUTPUT_DEBUG
; 325  : 				//       - chyaya
; 326  : 				static CComputPacketRecvForSec ComputPacketRecvForSec;
; 327  : 				ComputPacketRecvForSec.OnPacketRecv(szPacketHeader + packetSize);				
; 328  : 				#endif
; 329  : 				
; 330  : 				//         .
; 331  : 				//       .
; 332  : 				//     .
; 333  : 				pPacket = g_pPacketFactoryManager->createPacket( packetID );

  0021d	ff 75 dc	 push	 DWORD PTR _packetID$111617[ebp]
  00220	8b 0d 00 00 00
	00		 mov	 ecx, DWORD PTR ?g_pPacketFactoryManager@@3PAVPacketFactoryManager@@A ; g_pPacketFactoryManager
  00226	e8 00 00 00 00	 call	 ?createPacket@PacketFactoryManager@@QAEPAVPacket@@G@Z ; PacketFactoryManager::createPacket

; 334  : 
; 335  : 				//    .
; 336  : 				//   read() virtual   
; 337  : 				//  .
; 338  : 				m_pInputStream->read( pPacket );

  0022b	8b 4e 14	 mov	 ecx, DWORD PTR [esi+20]
  0022e	8b f8		 mov	 edi, eax
  00230	57		 push	 edi
  00231	89 7d d8	 mov	 DWORD PTR _pPacket$[ebp], edi
  00234	e8 00 00 00 00	 call	 ?read@SocketInputStream@@QAEXPAVPacket@@@Z ; SocketInputStream::read

; 339  : /*#if __CONTENTS(__CRYPT)
; 340  : 				if(pData.m_wMsgSize > 0)
; 341  : 				{
; 342  : 					if(iMod > 0)
; 343  : 						m_pInputStream->skip( sizeof(DWORD));
; 344  : 					if(m_pInputStream->length() > 0)
; 345  : 					{
; 346  : 						int adf = 0;
; 347  : 					}
; 348  : 					delete [] pData.m_Buffer;
; 349  : 				}
; 350  : #endif */
; 351  : 
; 352  : 				
; 353  : 				//       .
; 354  : 				//     .			
; 355  : 
; 356  : 				if (bExecute)

  00239	39 5d d0	 cmp	 DWORD PTR _bExecute$111641[ebp], ebx
  0023c	74 08		 je	 SHORT $L117492

; 357  : 				{
; 358  : 					#ifdef __DEBUG_OUTPUT__
; 359  : 						DEBUG_ADD(pPacket->toString().c_str());
; 360  : 					#endif
; 361  : 
; 362  : //					_MinTrace("Incomming Packet ID : %d\n",pPacket->getPacketID());
; 363  : 
; 364  : 					pPacket->execute( this );

  0023e	8b 07		 mov	 eax, DWORD PTR [edi]
  00240	56		 push	 esi
  00241	8b cf		 mov	 ecx, edi
  00243	ff 50 14	 call	 DWORD PTR [eax+20]

; 365  : 
; 366  : 
; 367  : 					//DEBUG_ADD_FORMAT("[Executed] %s", pPacket->toString().c_str());
; 368  : 					DEBUG_ADD("[PacketExecute OK]");				

$L117492:

; 369  : 				}
; 370  : 				
; 371  : 				
; 372  : 				//       .
; 373  : 				m_PacketHistory.push_back(pPacket);

  00246	8d 45 d8	 lea	 eax, DWORD PTR _pPacket$[ebp]
  00249	8d 7e 30	 lea	 edi, DWORD PTR [esi+48]
  0024c	50		 push	 eax
  0024d	8b cf		 mov	 ecx, edi
  0024f	e8 00 00 00 00	 call	 ?push_back@?$deque@PAVPacket@@V?$allocator@PAVPacket@@@_STL@@@_STL@@QAEXABQAVPacket@@@Z ; _STL::deque<Packet *,_STL::allocator<Packet *> >::push_back

; 374  : 				pPacket = NULL;

  00254	89 5d d8	 mov	 DWORD PTR _pPacket$[ebp], ebx
$L111674:

; 375  : 
; 376  : 				//  nPacketHistory  .
; 377  : 				while ( m_PacketHistory.size() > nPacketHistory ) {

  00257	57		 push	 edi
  00258	8d 4f 10	 lea	 ecx, DWORD PTR [edi+16]
  0025b	e8 00 00 00 00	 call	 ?_M_subtract@?$_Deque_iterator_base@PAVPacket@@@_STL@@QBEHABU12@@Z ; _STL::_Deque_iterator_base<Packet *>::_M_subtract
  00260	83 f8 0a	 cmp	 eax, 10			; 0000000aH
  00263	76 19		 jbe	 SHORT $L111675

; 378  : 					Packet * oldPacket = m_PacketHistory.front();

  00265	8b 07		 mov	 eax, DWORD PTR [edi]

; 379  : 					delete oldPacket;

  00267	8b 00		 mov	 eax, DWORD PTR [eax]
  00269	3b c3		 cmp	 eax, ebx
  0026b	74 08		 je	 SHORT $L117326
  0026d	8b 10		 mov	 edx, DWORD PTR [eax]
  0026f	6a 01		 push	 1
  00271	8b c8		 mov	 ecx, eax
  00273	ff 12		 call	 DWORD PTR [edx]
$L117326:

; 380  : 					m_PacketHistory.pop_front();

  00275	8b cf		 mov	 ecx, edi
  00277	e8 00 00 00 00	 call	 ?pop_front@?$deque@PAVPacket@@V?$allocator@PAVPacket@@@_STL@@@_STL@@QAEXXZ ; _STL::deque<Packet *,_STL::allocator<Packet *> >::pop_front

; 381  : 				}

  0027c	eb d9		 jmp	 SHORT $L111674
$L111675:

; 382  : 				DEBUG_ADD("[PacketExecute OK2]");
; 383  : 				
; 384  : 				//---------------------------------------------------------	
; 385  : 				//   packet    
; 386  : 				//   turn .
; 387  : 				//---------------------------------------------------------
; 388  : 				if (++processedPacket > maxProcessPacket)

  0027e	ff 45 cc	 inc	 DWORD PTR _processedPacket$111620[ebp]
  00281	8b 45 cc	 mov	 eax, DWORD PTR _processedPacket$111620[ebp]
  00284	3b 45 c4	 cmp	 eax, DWORD PTR _maxProcessPacket$111619[ebp]
  00287	0f 8e b6 fd ff
	ff		 jle	 $L111622
$L111615:

; 411  : 	}
; 412  : 
; 413  : 	__END_CATCH
; 414  : }

  0028d	8b 4d f4	 mov	 ecx, DWORD PTR __$EHRec$[ebp+4]
  00290	64 89 0d 00 00
	00 00		 mov	 DWORD PTR fs:__except_list, ecx
  00297	8b 4d ec	 mov	 ecx, DWORD PTR __$ArrayPad$[ebp]
  0029a	e8 00 00 00 00	 call	 @__security_check_cookie@4
  0029f	5f		 pop	 edi
  002a0	5e		 pop	 esi
  002a1	5b		 pop	 ebx
  002a2	c9		 leave
  002a3	c3		 ret	 0
$L117336:

; 389  : 				{
; 390  : 					DEBUG_ADD_FORMAT("[PacketSkip] So many Packets. MaxProcessPacket:%d, CurrentPacket:%d, File:%s, Line:%s",maxProcessPacket,processedPacket, __FILE__,__LINE__);
; 391  : 					//DEBUG_ADD_FORMAT_WAR(szBuf);
; 392  : 
; 393  : 					break;
; 394  : 				}			
; 395  : 			}
; 396  : 
; 397  : 		} catch ( InsufficientDataException& ) {
; 398  : 
; 399  : 			//     .    .
; 400  : 		}

  002a4	b8 00 00 00 00	 mov	 eax, $L111615
  002a9	c3		 ret	 0

; 411  : 	}
; 412  : 
; 413  : 	__END_CATCH
; 414  : }

  002aa	eb e1		 jmp	 SHORT $L111615
$L117337:

; 401  : 
; 402  : 	} catch (Throwable&)	{
; 403  : 		
; 404  : 		if (pPacket!=NULL)

  002ac	8b 4d d8	 mov	 ecx, DWORD PTR _pPacket$[ebp]
  002af	33 db		 xor	 ebx, ebx
  002b1	3b cb		 cmp	 ecx, ebx
  002b3	74 06		 je	 SHORT $L117330

; 405  : 		{
; 406  : 			delete pPacket;

  002b5	8b 01		 mov	 eax, DWORD PTR [ecx]
  002b7	6a 01		 push	 1
  002b9	ff 10		 call	 DWORD PTR [eax]
$L117330:

; 407  : 			pPacket = NULL;
; 408  : 		}
; 409  : 
; 410  : 		throw;

  002bb	53		 push	 ebx
  002bc	53		 push	 ebx
$L117525:
  002bd	e8 00 00 00 00	 call	 __CxxThrowException@8
$L117532:
$L117524:
  002c2	cc		 int	 3
_TEXT	ENDS
;	COMDAT text$x
text$x	SEGMENT
$L117339:
  00000	8d 4d ac	 lea	 ecx, DWORD PTR $T117311[ebp]
  00003	e9 00 00 00 00	 jmp	 ??1InvalidProtocolException@@UAE@XZ
$L117341:
  00008	8d 8d 70 ff ff
	ff		 lea	 ecx, DWORD PTR $T117315[ebp]
  0000e	e9 00 00 00 00	 jmp	 ??1InvalidProtocolException@@UAE@XZ
$L117344:
  00013	8d 8d 70 ff ff
	ff		 lea	 ecx, DWORD PTR $T117320[ebp]
  00019	e9 00 00 00 00	 jmp	 ??1InvalidProtocolException@@UAE@XZ
__ehhandler$?processCommand@ClientPlayer@@UAEXXZ:
  0001e	b8 00 00 00 00	 mov	 eax, OFFSET FLAT:$T117516
  00023	e9 00 00 00 00	 jmp	 ___CxxFrameHandler
text$x	ENDS
?processCommand@ClientPlayer@@UAEXXZ ENDP		; ClientPlayer::processCommand
; Function compile flags: /Ogsy
;	COMDAT ??0InsufficientDataException@@QAE@ABV0@@Z
_TEXT	SEGMENT
___that$ = 8						; size = 4
??0InsufficientDataException@@QAE@ABV0@@Z PROC NEAR	; InsufficientDataException::InsufficientDataException, COMDAT
; _this$ = ecx
  00000	56		 push	 esi
  00001	57		 push	 edi
  00002	8b 7c 24 0c	 mov	 edi, DWORD PTR ___that$[esp+4]
  00006	57		 push	 edi
  00007	8b f1		 mov	 esi, ecx
  00009	e8 00 00 00 00	 call	 ??0ProtocolException@@QAE@ABV0@@Z
  0000e	c7 06 00 00 00
	00		 mov	 DWORD PTR [esi], OFFSET FLAT:??_7InsufficientDataException@@6B@
  00014	8b 47 14	 mov	 eax, DWORD PTR [edi+20]
  00017	89 46 14	 mov	 DWORD PTR [esi+20], eax
  0001a	5f		 pop	 edi
  0001b	8b c6		 mov	 eax, esi
  0001d	5e		 pop	 esi
  0001e	c2 04 00	 ret	 4
??0InsufficientDataException@@QAE@ABV0@@Z ENDP		; InsufficientDataException::InsufficientDataException
_TEXT	ENDS
END
