; Listing generated by Microsoft (R) Optimizing Compiler Version 13.10.3077 

	TITLE	\darkeden\Designed_Common\Project\Client\CShadowPartManager.cpp
	.386P
include listing.inc
if @Version gt 510
.model FLAT
else
_TEXT	SEGMENT PARA USE32 PUBLIC 'CODE'
_TEXT	ENDS
_DATA	SEGMENT DWORD USE32 PUBLIC 'DATA'
_DATA	ENDS
CONST	SEGMENT DWORD USE32 PUBLIC 'CONST'
CONST	ENDS
_BSS	SEGMENT DWORD USE32 PUBLIC 'BSS'
_BSS	ENDS
$$SYMBOLS	SEGMENT BYTE USE32 'DEBSYM'
$$SYMBOLS	ENDS
$$TYPES	SEGMENT BYTE USE32 'DEBTYP'
$$TYPES	ENDS
_TLS	SEGMENT DWORD USE32 PUBLIC 'TLS'
_TLS	ENDS
;	COMDAT ??_C@_0BN@ODLNCKCA@Data?2?2Info?2?2ClientConfig?4inf?$AA@
CONST	SEGMENT DWORD USE32 PUBLIC 'CONST'
CONST	ENDS
;	COMDAT ??_C@_0BM@DFPLPGPC@Data?2?2Info?2?2GuildMapper?4inf?$AA@
CONST	SEGMENT DWORD USE32 PUBLIC 'CONST'
CONST	ENDS
;	COMDAT ??_C@_0BN@LHODHNBK@Data?2?2Info?2?2GuildVersion?4inf?$AA@
CONST	SEGMENT DWORD USE32 PUBLIC 'CONST'
CONST	ENDS
;	COMDAT ??_C@_0BH@DDPLNCOL@Data?2?2Info?2?2Player?4inf?$AA@
CONST	SEGMENT DWORD USE32 PUBLIC 'CONST'
CONST	ENDS
;	COMDAT ??_C@_0BL@ILLNAPHB@Data?2?2Info?2?2Resolution?4inf?$AA@
CONST	SEGMENT DWORD USE32 PUBLIC 'CONST'
CONST	ENDS
;	COMDAT ??_C@_0CA@HEIGFDLG@Data?2?2Info?2?2SelectedChannel?4inf?$AA@
CONST	SEGMENT DWORD USE32 PUBLIC 'CONST'
CONST	ENDS
;	COMDAT ??_C@_0O@JKENFCBN@MinTrace?52003?$AA@
CONST	SEGMENT DWORD USE32 PUBLIC 'CONST'
CONST	ENDS
;	COMDAT ??_C@_0BE@MNEJIGLM@__MinTrace?5Window__?$AA@
CONST	SEGMENT DWORD USE32 PUBLIC 'CONST'
CONST	ENDS
;	COMDAT ??_C@_06KLPNNMEP@?$CF8d?0?$CFs?$AA@
CONST	SEGMENT DWORD USE32 PUBLIC 'CONST'
CONST	ENDS
;	COMDAT ??_C@_03KLNPHJAI@?$CFsi?$AA@
CONST	SEGMENT DWORD USE32 PUBLIC 'CONST'
CONST	ENDS
;	COMDAT ??_C@_0BJ@MIBMMHPK@real?5size?5?3?5?$CFd?5size?5?3?5?$CFd?$AA@
CONST	SEGMENT DWORD USE32 PUBLIC 'CONST'
CONST	ENDS
;	COMDAT ??_C@_09DGBJGHJB@CTypePack?$AA@
CONST	SEGMENT DWORD USE32 PUBLIC 'CONST'
CONST	ENDS
;	COMDAT ??_C@_0M@KJGOGBJN@?2header?4inf?$AA@
CONST	SEGMENT DWORD USE32 PUBLIC 'CONST'
CONST	ENDS
;	COMDAT ??_C@_09EIKOIO@?$CFs?2?$CF05d?$CFs?$AA@
CONST	SEGMENT DWORD USE32 PUBLIC 'CONST'
CONST	ENDS
;	COMDAT ??_C@_0N@GOPDCEEB@basic_string?$AA@
CONST	SEGMENT DWORD USE32 PUBLIC 'CONST'
CONST	ENDS
rdata$r	SEGMENT DWORD USE32 PUBLIC 'CONST'
rdata$r	ENDS
text$yc	SEGMENT PARA USE32 PUBLIC 'CODE'
text$yc	ENDS
CRT$XCA	SEGMENT DWORD USE32 PUBLIC 'DATA'
CRT$XCA	ENDS
CRT$XCU	SEGMENT DWORD USE32 PUBLIC 'DATA'
CRT$XCU	ENDS
CRT$XCL	SEGMENT DWORD USE32 PUBLIC 'DATA'
CRT$XCL	ENDS
CRT$XCC	SEGMENT DWORD USE32 PUBLIC 'DATA'
CRT$XCC	ENDS
CRT$XCZ	SEGMENT DWORD USE32 PUBLIC 'DATA'
CRT$XCZ	ENDS
text$yd	SEGMENT PARA USE32 PUBLIC 'CODE'
text$yd	ENDS
;	COMDAT ??0_D3DVECTOR@@QAE@XZ
_TEXT	SEGMENT PARA USE32 PUBLIC 'CODE'
_TEXT	ENDS
;	COMDAT ??0_D3DMATRIX@@QAE@XZ
_TEXT	SEGMENT PARA USE32 PUBLIC 'CODE'
_TEXT	ENDS
;	COMDAT ??R_D3DMATRIX@@QAEAAMHH@Z
_TEXT	SEGMENT PARA USE32 PUBLIC 'CODE'
_TEXT	ENDS
;	COMDAT ??R_D3DMATRIX@@QBEABMHH@Z
_TEXT	SEGMENT PARA USE32 PUBLIC 'CODE'
_TEXT	ENDS
;	COMDAT _acosl
_TEXT	SEGMENT PARA USE32 PUBLIC 'CODE'
_TEXT	ENDS
;	COMDAT _asinl
_TEXT	SEGMENT PARA USE32 PUBLIC 'CODE'
_TEXT	ENDS
;	COMDAT _atanl
_TEXT	SEGMENT PARA USE32 PUBLIC 'CODE'
_TEXT	ENDS
;	COMDAT _atan2l
_TEXT	SEGMENT PARA USE32 PUBLIC 'CODE'
_TEXT	ENDS
;	COMDAT _ceill
_TEXT	SEGMENT PARA USE32 PUBLIC 'CODE'
_TEXT	ENDS
;	COMDAT _cosl
_TEXT	SEGMENT PARA USE32 PUBLIC 'CODE'
_TEXT	ENDS
;	COMDAT _coshl
_TEXT	SEGMENT PARA USE32 PUBLIC 'CODE'
_TEXT	ENDS
;	COMDAT _expl
_TEXT	SEGMENT PARA USE32 PUBLIC 'CODE'
_TEXT	ENDS
;	COMDAT _fabsl
_TEXT	SEGMENT PARA USE32 PUBLIC 'CODE'
_TEXT	ENDS
;	COMDAT _floorl
_TEXT	SEGMENT PARA USE32 PUBLIC 'CODE'
_TEXT	ENDS
;	COMDAT _fmodl
_TEXT	SEGMENT PARA USE32 PUBLIC 'CODE'
_TEXT	ENDS
;	COMDAT _frexpl
_TEXT	SEGMENT PARA USE32 PUBLIC 'CODE'
_TEXT	ENDS
;	COMDAT _ldexpl
_TEXT	SEGMENT PARA USE32 PUBLIC 'CODE'
_TEXT	ENDS
;	COMDAT _logl
_TEXT	SEGMENT PARA USE32 PUBLIC 'CODE'
_TEXT	ENDS
;	COMDAT _log10l
_TEXT	SEGMENT PARA USE32 PUBLIC 'CODE'
_TEXT	ENDS
;	COMDAT _modfl
_TEXT	SEGMENT PARA USE32 PUBLIC 'CODE'
_TEXT	ENDS
;	COMDAT _powl
_TEXT	SEGMENT PARA USE32 PUBLIC 'CODE'
_TEXT	ENDS
;	COMDAT _sinl
_TEXT	SEGMENT PARA USE32 PUBLIC 'CODE'
_TEXT	ENDS
;	COMDAT _sinhl
_TEXT	SEGMENT PARA USE32 PUBLIC 'CODE'
_TEXT	ENDS
;	COMDAT _sqrtl
_TEXT	SEGMENT PARA USE32 PUBLIC 'CODE'
_TEXT	ENDS
;	COMDAT _tanl
_TEXT	SEGMENT PARA USE32 PUBLIC 'CODE'
_TEXT	ENDS
;	COMDAT _tanhl
_TEXT	SEGMENT PARA USE32 PUBLIC 'CODE'
_TEXT	ENDS
;	COMDAT _frexpf
_TEXT	SEGMENT PARA USE32 PUBLIC 'CODE'
_TEXT	ENDS
;	COMDAT _ldexpf
_TEXT	SEGMENT PARA USE32 PUBLIC 'CODE'
_TEXT	ENDS
;	COMDAT _acosf
_TEXT	SEGMENT PARA USE32 PUBLIC 'CODE'
_TEXT	ENDS
;	COMDAT _asinf
_TEXT	SEGMENT PARA USE32 PUBLIC 'CODE'
_TEXT	ENDS
;	COMDAT _atanf
_TEXT	SEGMENT PARA USE32 PUBLIC 'CODE'
_TEXT	ENDS
;	COMDAT _atan2f
_TEXT	SEGMENT PARA USE32 PUBLIC 'CODE'
_TEXT	ENDS
;	COMDAT _ceilf
_TEXT	SEGMENT PARA USE32 PUBLIC 'CODE'
_TEXT	ENDS
;	COMDAT _cosf
_TEXT	SEGMENT PARA USE32 PUBLIC 'CODE'
_TEXT	ENDS
;	COMDAT _coshf
_TEXT	SEGMENT PARA USE32 PUBLIC 'CODE'
_TEXT	ENDS
;	COMDAT _expf
_TEXT	SEGMENT PARA USE32 PUBLIC 'CODE'
_TEXT	ENDS
;	COMDAT _fabsf
_TEXT	SEGMENT PARA USE32 PUBLIC 'CODE'
_TEXT	ENDS
;	COMDAT _floorf
_TEXT	SEGMENT PARA USE32 PUBLIC 'CODE'
_TEXT	ENDS
;	COMDAT _fmodf
_TEXT	SEGMENT PARA USE32 PUBLIC 'CODE'
_TEXT	ENDS
;	COMDAT _logf
_TEXT	SEGMENT PARA USE32 PUBLIC 'CODE'
_TEXT	ENDS
;	COMDAT _log10f
_TEXT	SEGMENT PARA USE32 PUBLIC 'CODE'
_TEXT	ENDS
;	COMDAT _modff
_TEXT	SEGMENT PARA USE32 PUBLIC 'CODE'
_TEXT	ENDS
;	COMDAT _powf
_TEXT	SEGMENT PARA USE32 PUBLIC 'CODE'
_TEXT	ENDS
;	COMDAT _sinf
_TEXT	SEGMENT PARA USE32 PUBLIC 'CODE'
_TEXT	ENDS
;	COMDAT _sinhf
_TEXT	SEGMENT PARA USE32 PUBLIC 'CODE'
_TEXT	ENDS
;	COMDAT _sqrtf
_TEXT	SEGMENT PARA USE32 PUBLIC 'CODE'
_TEXT	ENDS
;	COMDAT _tanf
_TEXT	SEGMENT PARA USE32 PUBLIC 'CODE'
_TEXT	ENDS
;	COMDAT _tanhf
_TEXT	SEGMENT PARA USE32 PUBLIC 'CODE'
_TEXT	ENDS
;	COMDAT ?sqrt@@YAMM@Z
_TEXT	SEGMENT PARA USE32 PUBLIC 'CODE'
_TEXT	ENDS
;	COMDAT ??0_D3DVECTOR@@QAE@MMM@Z
_TEXT	SEGMENT PARA USE32 PUBLIC 'CODE'
_TEXT	ENDS
;	COMDAT ??A_D3DVECTOR@@QBEABMH@Z
_TEXT	SEGMENT PARA USE32 PUBLIC 'CODE'
_TEXT	ENDS
;	COMDAT ??A_D3DVECTOR@@QAEAAMH@Z
_TEXT	SEGMENT PARA USE32 PUBLIC 'CODE'
_TEXT	ENDS
;	COMDAT ??K@YA?AU_D3DVECTOR@@ABU0@M@Z
_TEXT	SEGMENT PARA USE32 PUBLIC 'CODE'
_TEXT	ENDS
;	COMDAT ?Magnitude@@YAMABU_D3DVECTOR@@@Z
_TEXT	SEGMENT PARA USE32 PUBLIC 'CODE'
_TEXT	ENDS
;	COMDAT ?SquareMagnitude@@YAMABU_D3DVECTOR@@@Z
_TEXT	SEGMENT PARA USE32 PUBLIC 'CODE'
_TEXT	ENDS
;	COMDAT ?Is565@CDirectDraw@@SA_NXZ
_TEXT	SEGMENT PARA USE32 PUBLIC 'CODE'
_TEXT	ENDS
;	COMDAT ?Red@CDirectDraw@@SAEABG@Z
_TEXT	SEGMENT PARA USE32 PUBLIC 'CODE'
_TEXT	ENDS
;	COMDAT ?Green@CDirectDraw@@SAEABG@Z
_TEXT	SEGMENT PARA USE32 PUBLIC 'CODE'
_TEXT	ENDS
;	COMDAT ?Blue@CDirectDraw@@SAEABG@Z
_TEXT	SEGMENT PARA USE32 PUBLIC 'CODE'
_TEXT	ENDS
;	COMDAT ?IsTexturePow2@CDirect3D@@SA_NXZ
_TEXT	SEGMENT PARA USE32 PUBLIC 'CODE'
_TEXT	ENDS
;	COMDAT ?IsTextureSquareOnly@CDirect3D@@SA_NXZ
_TEXT	SEGMENT PARA USE32 PUBLIC 'CODE'
_TEXT	ENDS
;	COMDAT ?GetPixelFormat4444@CDirect3D@@SAQAU_DDPIXELFORMAT@@XZ
_TEXT	SEGMENT PARA USE32 PUBLIC 'CODE'
_TEXT	ENDS
;	COMDAT ?GetSurfacePointer@CDirectDrawSurface@@QAEPAXXZ
_TEXT	SEGMENT PARA USE32 PUBLIC 'CODE'
_TEXT	ENDS
;	COMDAT ?GetSurfacePitch@CDirectDrawSurface@@QAEJXZ
_TEXT	SEGMENT PARA USE32 PUBLIC 'CODE'
_TEXT	ENDS
;	COMDAT ?GetHeight@CDirectDrawSurface@@QBEHXZ
_TEXT	SEGMENT PARA USE32 PUBLIC 'CODE'
_TEXT	ENDS
;	COMDAT ?SetClipLeftTop@CDirectDrawSurface@@QAEXHH@Z
_TEXT	SEGMENT PARA USE32 PUBLIC 'CODE'
_TEXT	ENDS
;	COMDAT ?SetClipRightBottom@CDirectDrawSurface@@QAEXHH@Z
_TEXT	SEGMENT PARA USE32 PUBLIC 'CODE'
_TEXT	ENDS
;	COMDAT ?start@CNFS@@QAE_NPADH@Z
_TEXT	SEGMENT PARA USE32 PUBLIC 'CODE'
_TEXT	ENDS
;	COMDAT ?end@CNFS@@QAEXXZ
_TEXT	SEGMENT PARA USE32 PUBLIC 'CODE'
_TEXT	ENDS
;	COMDAT ?Init@VirtualFileHeader@@QAEXXZ
_TEXT	SEGMENT PARA USE32 PUBLIC 'CODE'
_TEXT	ENDS
;	COMDAT ??1IFileIO@@UAE@XZ
_TEXT	SEGMENT PARA USE32 PUBLIC 'CODE'
_TEXT	ENDS
;	COMDAT ??_GIFileIO@@UAEPAXI@Z
_TEXT	SEGMENT PARA USE32 PUBLIC 'CODE'
_TEXT	ENDS
;	COMDAT ?get_vfs@iovfs_base@@SAPAVVirtualFileSystem@@XZ
_TEXT	SEGMENT PARA USE32 PUBLIC 'CODE'
_TEXT	ENDS
;	COMDAT ??0iovfs_base@@QAE@XZ
_TEXT	SEGMENT PARA USE32 PUBLIC 'CODE'
_TEXT	ENDS
;	COMDAT ??_Giovfs_base@@UAEPAXI@Z
_TEXT	SEGMENT PARA USE32 PUBLIC 'CODE'
_TEXT	ENDS
;	COMDAT ??1iovfs_base@@UAE@XZ
_TEXT	SEGMENT PARA USE32 PUBLIC 'CODE'
_TEXT	ENDS
;	COMDAT ?Init@iovfs_base@@QAEXXZ
_TEXT	SEGMENT PARA USE32 PUBLIC 'CODE'
_TEXT	ENDS
;	COMDAT ?is_open@iovfs_base@@QBE_NXZ
_TEXT	SEGMENT PARA USE32 PUBLIC 'CODE'
_TEXT	ENDS
;	COMDAT ??0ivfstream@@QAE@XZ
_TEXT	SEGMENT PARA USE32 PUBLIC 'CODE'
_TEXT	ENDS
;	COMDAT ??_Givfstream@@UAEPAXI@Z
_TEXT	SEGMENT PARA USE32 PUBLIC 'CODE'
_TEXT	ENDS
;	COMDAT ??0ivfstream@@QAE@PBDH@Z
_TEXT	SEGMENT PARA USE32 PUBLIC 'CODE'
_TEXT	ENDS
;	COMDAT ??1ivfstream@@UAE@XZ
_TEXT	SEGMENT PARA USE32 PUBLIC 'CODE'
_TEXT	ENDS
;	COMDAT ?open@ivfstream@@UAEXPBDH@Z
_TEXT	SEGMENT PARA USE32 PUBLIC 'CODE'
_TEXT	ENDS
;	COMDAT ?read@ivfstream@@QAEXPADI@Z
_TEXT	SEGMENT PARA USE32 PUBLIC 'CODE'
_TEXT	ENDS
;	COMDAT ?seekg@ivfstream@@QAEXJH@Z
_TEXT	SEGMENT PARA USE32 PUBLIC 'CODE'
_TEXT	ENDS
;	COMDAT ?getline@ivfstream@@QAEPAXPADHD@Z
_TEXT	SEGMENT PARA USE32 PUBLIC 'CODE'
_TEXT	ENDS
;	COMDAT ??_Govfstream@@UAEPAXI@Z
_TEXT	SEGMENT PARA USE32 PUBLIC 'CODE'
_TEXT	ENDS
;	COMDAT ??1ovfstream@@UAE@XZ
_TEXT	SEGMENT PARA USE32 PUBLIC 'CODE'
_TEXT	ENDS
;	COMDAT ?open@ovfstream@@UAEXPBDH@Z
_TEXT	SEGMENT PARA USE32 PUBLIC 'CODE'
_TEXT	ENDS
;	COMDAT ??0ITypePackBase@@QAE@XZ
_TEXT	SEGMENT PARA USE32 PUBLIC 'CODE'
_TEXT	ENDS
;	COMDAT ??1ITypePackBase@@UAE@XZ
_TEXT	SEGMENT PARA USE32 PUBLIC 'CODE'
_TEXT	ENDS
;	COMDAT ??_GITypePackBase@@UAEPAXI@Z
_TEXT	SEGMENT PARA USE32 PUBLIC 'CODE'
_TEXT	ENDS
;	COMDAT ?IsInit@CSpritePalBase@@QBE_NXZ
_TEXT	SEGMENT PARA USE32 PUBLIC 'CODE'
_TEXT	ENDS
;	COMDAT ?IsInit@CShadowSprite@@QBE_NXZ
_TEXT	SEGMENT PARA USE32 PUBLIC 'CODE'
_TEXT	ENDS
;	COMDAT ?GetWidth@CShadowSprite@@QBEGXZ
_TEXT	SEGMENT PARA USE32 PUBLIC 'CODE'
_TEXT	ENDS
;	COMDAT ?GetHeight@CShadowSprite@@QBEGXZ
_TEXT	SEGMENT PARA USE32 PUBLIC 'CODE'
_TEXT	ENDS
;	COMDAT ?_MinTraceA@@YAXPBD@Z
_TEXT	SEGMENT PARA USE32 PUBLIC 'CODE'
_TEXT	ENDS
;	COMDAT ?_MinTraceErrA@@YAXPBD@Z
_TEXT	SEGMENT PARA USE32 PUBLIC 'CODE'
_TEXT	ENDS
;	COMDAT ?_MinTraceWarA@@YAXPBD@Z
_TEXT	SEGMENT PARA USE32 PUBLIC 'CODE'
_TEXT	ENDS
;	COMDAT ?_ClMinTraceA@@YAXKPBD@Z
_TEXT	SEGMENT PARA USE32 PUBLIC 'CODE'
_TEXT	ENDS
;	COMDAT ?_CmdMinTraceA@@YAXHPBD@Z
_TEXT	SEGMENT PARA USE32 PUBLIC 'CODE'
_TEXT	ENDS
;	COMDAT ?GetHour@MGameTime@@QBEEXZ
_TEXT	SEGMENT PARA USE32 PUBLIC 'CODE'
_TEXT	ENDS
;	COMDAT ?GetWeatherType@MWeather@@QBEEXZ
_TEXT	SEGMENT PARA USE32 PUBLIC 'CODE'
_TEXT	ENDS
;	COMDAT ??0CShadowPartManager@@QAE@PBDG@Z
_TEXT	SEGMENT PARA USE32 PUBLIC 'CODE'
_TEXT	ENDS
;	COMDAT ??1CShadowPartManager@@QAE@XZ
_TEXT	SEGMENT PARA USE32 PUBLIC 'CODE'
_TEXT	ENDS
;	COMDAT ?Init@CShadowPartManager@@QAEXPBDG@Z
_TEXT	SEGMENT PARA USE32 PUBLIC 'CODE'
_TEXT	ENDS
;	COMDAT ??_D?$basic_ifstream@DV?$char_traits@D@_STL@@@_STL@@QAEXXZ
_TEXT	SEGMENT PARA USE32 PUBLIC 'CODE'
_TEXT	ENDS
;	COMDAT ?Release@CShadowPartManager@@QAEXXZ
_TEXT	SEGMENT PARA USE32 PUBLIC 'CODE'
_TEXT	ENDS
;	COMDAT ??_GCSpriteSurface@@QAEPAXI@Z
_TEXT	SEGMENT PARA USE32 PUBLIC 'CODE'
_TEXT	ENDS
;	COMDAT ?DeleteRemoved@CShadowPartManager@@QAEXXZ
_TEXT	SEGMENT PARA USE32 PUBLIC 'CODE'
_TEXT	ENDS
;	COMDAT ?Clear@CShadowPartManager@@QAEXXZ
_TEXT	SEGMENT PARA USE32 PUBLIC 'CODE'
_TEXT	ENDS
;	COMDAT ?GetTexture@CShadowPartManager@@QAEPAVCSpriteSurface@@G@Z
_TEXT	SEGMENT PARA USE32 PUBLIC 'CODE'
_TEXT	ENDS
;	COMDAT ?GetSprite@CShadowPartManager@@QAEAAVCShadowSprite@@G@Z
_TEXT	SEGMENT PARA USE32 PUBLIC 'CODE'
_TEXT	ENDS
;	COMDAT ?eq@?$__char_traits_base@DH@_STL@@SA_NABD0@Z
_TEXT	SEGMENT PARA USE32 PUBLIC 'CODE'
_TEXT	ENDS
;	COMDAT ?not_eof@?$__char_traits_base@DH@_STL@@SAHABH@Z
_TEXT	SEGMENT PARA USE32 PUBLIC 'CODE'
_TEXT	ENDS
;	COMDAT ?eq_int_type@?$__char_traits_base@DH@_STL@@SA_NABH0@Z
_TEXT	SEGMENT PARA USE32 PUBLIC 'CODE'
_TEXT	ENDS
;	COMDAT ?get_allocator@?$basic_string@DV?$char_traits@D@_STL@@V?$allocator@D@2@@_STL@@QBE?AV?$allocator@D@2@XZ
_TEXT	SEGMENT PARA USE32 PUBLIC 'CODE'
_TEXT	ENDS
;	COMDAT ??4?$basic_string@DV?$char_traits@D@_STL@@V?$allocator@D@2@@_STL@@QAEAAV01@PBD@Z
_TEXT	SEGMENT PARA USE32 PUBLIC 'CODE'
_TEXT	ENDS
;	COMDAT ?_M_terminate_string@?$basic_string@DV?$char_traits@D@_STL@@V?$allocator@D@2@@_STL@@AAEXXZ
_TEXT	SEGMENT PARA USE32 PUBLIC 'CODE'
_TEXT	ENDS
;	COMDAT ??0?$_String_base@DV?$allocator@D@_STL@@@_STL@@QAE@ABV?$allocator@D@1@@Z
_TEXT	SEGMENT PARA USE32 PUBLIC 'CODE'
_TEXT	ENDS
;	COMDAT ?allocate@?$allocator@D@_STL@@QAEPADIPBX@Z
_TEXT	SEGMENT PARA USE32 PUBLIC 'CODE'
_TEXT	ENDS
;	COMDAT ??0?$fpos@H@_STL@@QAE@J@Z
_TEXT	SEGMENT PARA USE32 PUBLIC 'CODE'
_TEXT	ENDS
;	COMDAT ??B?$fpos@H@_STL@@QBEJXZ
_TEXT	SEGMENT PARA USE32 PUBLIC 'CODE'
_TEXT	ENDS
;	COMDAT ?state@?$fpos@H@_STL@@QBEHXZ
_TEXT	SEGMENT PARA USE32 PUBLIC 'CODE'
_TEXT	ENDS
;	COMDAT ?is_open@?$basic_filebuf@DV?$char_traits@D@_STL@@@_STL@@QBE_NXZ
_TEXT	SEGMENT PARA USE32 PUBLIC 'CODE'
_TEXT	ENDS
;	COMDAT ?_M_seek_return@?$basic_filebuf@DV?$char_traits@D@_STL@@@_STL@@AAE?AV?$fpos@H@2@JH@Z
_TEXT	SEGMENT PARA USE32 PUBLIC 'CODE'
_TEXT	ENDS
;	COMDAT ??0?$_Filebuf_Tmp_Buf@D@_STL@@QAE@H@Z
_TEXT	SEGMENT PARA USE32 PUBLIC 'CODE'
_TEXT	ENDS
;	COMDAT ??1?$_Filebuf_Tmp_Buf@D@_STL@@QAE@XZ
_TEXT	SEGMENT PARA USE32 PUBLIC 'CODE'
_TEXT	ENDS
;	COMDAT ?IsDataNULL@?$CPartManager@GGPAVCSpriteSurface@@@@QAE_NG@Z
_TEXT	SEGMENT PARA USE32 PUBLIC 'CODE'
_TEXT	ENDS
;	COMDAT ?GetSize@?$CTypePack@VCShadowSprite@@@@UBEKXZ
_TEXT	SEGMENT PARA USE32 PUBLIC 'CODE'
_TEXT	ENDS
;	COMDAT ??0?$list@PAVCSpriteSurface@@V?$allocator@PAVCSpriteSurface@@@_STL@@@_STL@@QAE@ABV?$allocator@PAVCSpriteSurface@@@1@@Z
_TEXT	SEGMENT PARA USE32 PUBLIC 'CODE'
_TEXT	ENDS
;	COMDAT ?begin@?$list@PAVCSpriteSurface@@V?$allocator@PAVCSpriteSurface@@@_STL@@@_STL@@QAE?AU?$_List_iterator@PAVCSpriteSurface@@U?$_Nonconst_traits@PAVCSpriteSurface@@@_STL@@@2@XZ
_TEXT	SEGMENT PARA USE32 PUBLIC 'CODE'
_TEXT	ENDS
;	COMDAT ?end@?$list@PAVCSpriteSurface@@V?$allocator@PAVCSpriteSurface@@@_STL@@@_STL@@QAE?AU?$_List_iterator@PAVCSpriteSurface@@U?$_Nonconst_traits@PAVCSpriteSurface@@@_STL@@@2@XZ
_TEXT	SEGMENT PARA USE32 PUBLIC 'CODE'
_TEXT	ENDS
;	COMDAT ?push_back@?$list@PAVCSpriteSurface@@V?$allocator@PAVCSpriteSurface@@@_STL@@@_STL@@QAEXABQAVCSpriteSurface@@@Z
_TEXT	SEGMENT PARA USE32 PUBLIC 'CODE'
_TEXT	ENDS
;	COMDAT ??1?$list@PAVCSpriteSurface@@V?$allocator@PAVCSpriteSurface@@@_STL@@@_STL@@QAE@XZ
_TEXT	SEGMENT PARA USE32 PUBLIC 'CODE'
_TEXT	ENDS
;	COMDAT ??0?$allocator@PAVCSpriteSurface@@@_STL@@QAE@XZ
_TEXT	SEGMENT PARA USE32 PUBLIC 'CODE'
_TEXT	ENDS
;	COMDAT ??1?$allocator@PAVCSpriteSurface@@@_STL@@QAE@XZ
_TEXT	SEGMENT PARA USE32 PUBLIC 'CODE'
_TEXT	ENDS
;	COMDAT ??0?$basic_ifstream@DV?$char_traits@D@_STL@@@_STL@@QAE@XZ
_TEXT	SEGMENT PARA USE32 PUBLIC 'CODE'
_TEXT	ENDS
;	COMDAT ??1?$basic_ifstream@DV?$char_traits@D@_STL@@@_STL@@UAE@XZ
_TEXT	SEGMENT PARA USE32 PUBLIC 'CODE'
_TEXT	ENDS
;	COMDAT ??D?$_List_iterator@PAVCSpriteSurface@@U?$_Nonconst_traits@PAVCSpriteSurface@@@_STL@@@_STL@@QBEAAPAVCSpriteSurface@@XZ
_TEXT	SEGMENT PARA USE32 PUBLIC 'CODE'
_TEXT	ENDS
;	COMDAT ??E?$_List_iterator@PAVCSpriteSurface@@U?$_Nonconst_traits@PAVCSpriteSurface@@@_STL@@@_STL@@QAE?AU01@H@Z
_TEXT	SEGMENT PARA USE32 PUBLIC 'CODE'
_TEXT	ENDS
;	COMDAT ??_G?$basic_ifstream@DV?$char_traits@D@_STL@@@_STL@@UAEPAXI@Z
_TEXT	SEGMENT PARA USE32 PUBLIC 'CODE'
_TEXT	ENDS
;	COMDAT ?_M_terminate_string_aux@?$basic_string@DV?$char_traits@D@_STL@@V?$allocator@D@2@@_STL@@AAEXABU__true_type@2@@Z
_TEXT	SEGMENT PARA USE32 PUBLIC 'CODE'
_TEXT	ENDS
;	COMDAT ?assign@?$basic_string@DV?$char_traits@D@_STL@@V?$allocator@D@2@@_STL@@QAEAAV12@PBD0@Z
_TEXT	SEGMENT PARA USE32 PUBLIC 'CODE'
_TEXT	ENDS
;	COMDAT ??0?$allocator@D@_STL@@QAE@ABV01@@Z
_TEXT	SEGMENT PARA USE32 PUBLIC 'CODE'
_TEXT	ENDS
;	COMDAT ??0?$_STLP_alloc_proxy@PADDV?$allocator@D@_STL@@@_STL@@QAE@ABV?$allocator@D@1@PAD@Z
_TEXT	SEGMENT PARA USE32 PUBLIC 'CODE'
_TEXT	ENDS
;	COMDAT ?state@?$fpos@H@_STL@@QAEXH@Z
_TEXT	SEGMENT PARA USE32 PUBLIC 'CODE'
_TEXT	ENDS
;	COMDAT ??0?$basic_istream@DV?$char_traits@D@_STL@@@_STL@@QAE@PAV?$basic_streambuf@DV?$char_traits@D@_STL@@@1@@Z
_TEXT	SEGMENT PARA USE32 PUBLIC 'CODE'
_TEXT	ENDS
;	COMDAT ?insert@?$list@PAVCSpriteSurface@@V?$allocator@PAVCSpriteSurface@@@_STL@@@_STL@@QAE?AU?$_List_iterator@PAVCSpriteSurface@@U?$_Nonconst_traits@PAVCSpriteSurface@@@_STL@@@2@U32@ABQAVCSpriteSurface@@@Z
_TEXT	SEGMENT PARA USE32 PUBLIC 'CODE'
_TEXT	ENDS
;	COMDAT ??0?$_List_base@PAVCSpriteSurface@@V?$allocator@PAVCSpriteSurface@@@_STL@@@_STL@@QAE@ABV?$allocator@PAVCSpriteSurface@@@1@@Z
_TEXT	SEGMENT PARA USE32 PUBLIC 'CODE'
_TEXT	ENDS
;	COMDAT ??1?$_List_base@PAVCSpriteSurface@@V?$allocator@PAVCSpriteSurface@@@_STL@@@_STL@@QAE@XZ
_TEXT	SEGMENT PARA USE32 PUBLIC 'CODE'
_TEXT	ENDS
;	COMDAT ??0?$_List_iterator@PAVCSpriteSurface@@U?$_Nonconst_traits@PAVCSpriteSurface@@@_STL@@@_STL@@QAE@PAU?$_List_node@PAVCSpriteSurface@@@1@@Z
_TEXT	SEGMENT PARA USE32 PUBLIC 'CODE'
_TEXT	ENDS
;	COMDAT ??0?$_List_iterator@PAVCSpriteSurface@@U?$_Nonconst_traits@PAVCSpriteSurface@@@_STL@@@_STL@@QAE@ABU01@@Z
_TEXT	SEGMENT PARA USE32 PUBLIC 'CODE'
_TEXT	ENDS
;	COMDAT ??1?$_STLP_alloc_proxy@PAU?$_List_node@PAVCSpriteSurface@@@_STL@@U12@V?$allocator@U?$_List_node@PAVCSpriteSurface@@@_STL@@@2@@_STL@@QAE@XZ
_TEXT	SEGMENT PARA USE32 PUBLIC 'CODE'
_TEXT	ENDS
;	COMDAT ?copy@?$__char_traits_base@DH@_STL@@SAPADPADPBDI@Z
_TEXT	SEGMENT PARA USE32 PUBLIC 'CODE'
_TEXT	ENDS
;	COMDAT ?begin@?$basic_string@DV?$char_traits@D@_STL@@V?$allocator@D@2@@_STL@@QAEPADXZ
_TEXT	SEGMENT PARA USE32 PUBLIC 'CODE'
_TEXT	ENDS
;	COMDAT ?end@?$basic_string@DV?$char_traits@D@_STL@@V?$allocator@D@2@@_STL@@QAEPADXZ
_TEXT	SEGMENT PARA USE32 PUBLIC 'CODE'
_TEXT	ENDS
;	COMDAT ?size@?$basic_string@DV?$char_traits@D@_STL@@V?$allocator@D@2@@_STL@@QBEIXZ
_TEXT	SEGMENT PARA USE32 PUBLIC 'CODE'
_TEXT	ENDS
;	COMDAT ?erase@?$basic_string@DV?$char_traits@D@_STL@@V?$allocator@D@2@@_STL@@QAEPADPAD0@Z
_TEXT	SEGMENT PARA USE32 PUBLIC 'CODE'
_TEXT	ENDS
;	COMDAT ?_M_create_node@?$list@PAVCSpriteSurface@@V?$allocator@PAVCSpriteSurface@@@_STL@@@_STL@@IAEPAU?$_List_node@PAVCSpriteSurface@@@2@ABQAVCSpriteSurface@@@Z
_TEXT	SEGMENT PARA USE32 PUBLIC 'CODE'
_TEXT	ENDS
;	COMDAT ??0?$_STLP_alloc_proxy@PAU?$_List_node@PAVCSpriteSurface@@@_STL@@U12@V?$allocator@U?$_List_node@PAVCSpriteSurface@@@_STL@@@2@@_STL@@QAE@ABV?$allocator@U?$_List_node@PAVCSpriteSurface@@@_STL@@@1@PAU?$_List_node@PAVCSpriteSurface@@@1@@Z
_TEXT	SEGMENT PARA USE32 PUBLIC 'CODE'
_TEXT	ENDS
;	COMDAT ??1?$allocator@U?$_List_node@PAVCSpriteSurface@@@_STL@@@_STL@@QAE@XZ
_TEXT	SEGMENT PARA USE32 PUBLIC 'CODE'
_TEXT	ENDS
;	COMDAT ?allocate@?$allocator@U?$_List_node@PAVCSpriteSurface@@@_STL@@@_STL@@QAEPAU?$_List_node@PAVCSpriteSurface@@@2@IPBX@Z
_TEXT	SEGMENT PARA USE32 PUBLIC 'CODE'
_TEXT	ENDS
;	COMDAT ?deallocate@?$allocator@U?$_List_node@PAVCSpriteSurface@@@_STL@@@_STL@@QAEXPAU?$_List_node@PAVCSpriteSurface@@@2@I@Z
_TEXT	SEGMENT PARA USE32 PUBLIC 'CODE'
_TEXT	ENDS
;	COMDAT ?move@?$__char_traits_base@DH@_STL@@SAPADPADPBDI@Z
_TEXT	SEGMENT PARA USE32 PUBLIC 'CODE'
_TEXT	ENDS
;	COMDAT ??0?$allocator@U?$_List_node@PAVCSpriteSurface@@@_STL@@@_STL@@QAE@ABV01@@Z
_TEXT	SEGMENT PARA USE32 PUBLIC 'CODE'
_TEXT	ENDS
;	COMDAT ??$_M_range_initialize@PBD@?$basic_string@DV?$char_traits@D@_STL@@V?$allocator@D@2@@_STL@@AAEXPBD0@Z
_TEXT	SEGMENT PARA USE32 PUBLIC 'CODE'
_TEXT	ENDS
;	COMDAT ??$_M_range_initialize@PAD@?$basic_string@DV?$char_traits@D@_STL@@V?$allocator@D@2@@_STL@@AAEXPAD0@Z
_TEXT	SEGMENT PARA USE32 PUBLIC 'CODE'
_TEXT	ENDS
;	COMDAT ??0?$basic_filebuf@DV?$char_traits@D@_STL@@@_STL@@QAE@XZ
_TEXT	SEGMENT PARA USE32 PUBLIC 'CODE'
_TEXT	ENDS
;	COMDAT ?close@?$basic_filebuf@DV?$char_traits@D@_STL@@@_STL@@QAEPAV12@XZ
_TEXT	SEGMENT PARA USE32 PUBLIC 'CODE'
_TEXT	ENDS
;	COMDAT ?_M_exit_input_mode@?$basic_filebuf@DV?$char_traits@D@_STL@@@_STL@@AAEXXZ
_TEXT	SEGMENT PARA USE32 PUBLIC 'CODE'
_TEXT	ENDS
;	COMDAT ?_M_switch_to_output_mode@?$basic_filebuf@DV?$char_traits@D@_STL@@@_STL@@AAE_NXZ
_TEXT	SEGMENT PARA USE32 PUBLIC 'CODE'
_TEXT	ENDS
;	COMDAT ?_M_output_error@?$basic_filebuf@DV?$char_traits@D@_STL@@@_STL@@AAEHXZ
_TEXT	SEGMENT PARA USE32 PUBLIC 'CODE'
_TEXT	ENDS
;	COMDAT ?_M_allocate_buffers@?$basic_filebuf@DV?$char_traits@D@_STL@@@_STL@@AAE_NPADH@Z
_TEXT	SEGMENT PARA USE32 PUBLIC 'CODE'
_TEXT	ENDS
;	COMDAT ?_M_deallocate_buffers@?$basic_filebuf@DV?$char_traits@D@_STL@@@_STL@@AAEXXZ
_TEXT	SEGMENT PARA USE32 PUBLIC 'CODE'
_TEXT	ENDS
;	COMDAT ?_M_seek_init@?$basic_filebuf@DV?$char_traits@D@_STL@@@_STL@@AAE_N_N@Z
_TEXT	SEGMENT PARA USE32 PUBLIC 'CODE'
_TEXT	ENDS
;	COMDAT ?_M_setup_codecvt@?$basic_filebuf@DV?$char_traits@D@_STL@@@_STL@@AAEXABVlocale@2@@Z
_TEXT	SEGMENT PARA USE32 PUBLIC 'CODE'
_TEXT	ENDS
;	COMDAT ??$equal@PADPADU?$_Eq_traits@V?$char_traits@D@_STL@@@_STL@@@_STL@@YA_NPAD00U?$_Eq_traits@V?$char_traits@D@_STL@@@0@@Z
_TEXT	SEGMENT PARA USE32 PUBLIC 'CODE'
_TEXT	ENDS
;	COMDAT ??$_Destroy@V?$basic_string@DV?$char_traits@D@_STL@@V?$allocator@D@2@@_STL@@@_STL@@YAXPAV?$basic_string@DV?$char_traits@D@_STL@@V?$allocator@D@2@@0@@Z
_TEXT	SEGMENT PARA USE32 PUBLIC 'CODE'
_TEXT	ENDS
;	COMDAT ??$_M_assign_dispatch@PAD@?$basic_string@DV?$char_traits@D@_STL@@V?$allocator@D@2@@_STL@@AAEAAV01@PAD0ABU__false_type@1@@Z
_TEXT	SEGMENT PARA USE32 PUBLIC 'CODE'
_TEXT	ENDS
;	COMDAT ??0?$basic_ios@DV?$char_traits@D@_STL@@@_STL@@IAE@XZ
_TEXT	SEGMENT PARA USE32 PUBLIC 'CODE'
_TEXT	ENDS
;	COMDAT ?init@?$basic_ios@DV?$char_traits@D@_STL@@@_STL@@IAEXPAV?$basic_streambuf@DV?$char_traits@D@_STL@@@2@@Z
_TEXT	SEGMENT PARA USE32 PUBLIC 'CODE'
_TEXT	ENDS
;	COMDAT ??$_Pow_int@N@@YANNH@Z
_TEXT	SEGMENT PARA USE32 PUBLIC 'CODE'
_TEXT	ENDS
;	COMDAT ??$_Pow_int@H@@YAHHH@Z
_TEXT	SEGMENT PARA USE32 PUBLIC 'CODE'
_TEXT	ENDS
;	COMDAT ??$_Pow_int@M@@YAMMH@Z
_TEXT	SEGMENT PARA USE32 PUBLIC 'CODE'
_TEXT	ENDS
;	COMDAT ??$_Pow_int@O@@YAOOH@Z
_TEXT	SEGMENT PARA USE32 PUBLIC 'CODE'
_TEXT	ENDS
;	COMDAT ??0?$CPartManager@GGPAVCSpriteSurface@@@@QAE@XZ
_TEXT	SEGMENT PARA USE32 PUBLIC 'CODE'
_TEXT	ENDS
;	COMDAT ??1?$CPartManager@GGPAVCSpriteSurface@@@@QAE@XZ
_TEXT	SEGMENT PARA USE32 PUBLIC 'CODE'
_TEXT	ENDS
;	COMDAT ?Init@?$CPartManager@GGPAVCSpriteSurface@@@@QAEXGG@Z
_TEXT	SEGMENT PARA USE32 PUBLIC 'CODE'
_TEXT	ENDS
;	COMDAT ?SetData@?$CPartManager@GGPAVCSpriteSurface@@@@QAEGGABQAVCSpriteSurface@@AAPAV2@@Z
_TEXT	SEGMENT PARA USE32 PUBLIC 'CODE'
_TEXT	ENDS
;	COMDAT ?GetData@?$CPartManager@GGPAVCSpriteSurface@@@@QAE_NGAAPAVCSpriteSurface@@@Z
_TEXT	SEGMENT PARA USE32 PUBLIC 'CODE'
_TEXT	ENDS
;	COMDAT ??0?$CTypePack@VCShadowSprite@@@@QAE@XZ
_TEXT	SEGMENT PARA USE32 PUBLIC 'CODE'
_TEXT	ENDS
;	COMDAT ??1?$CTypePack@VCShadowSprite@@@@UAE@XZ
_TEXT	SEGMENT PARA USE32 PUBLIC 'CODE'
_TEXT	ENDS
;	COMDAT ?Init@?$CTypePack@VCShadowSprite@@@@UAEXG@Z
_TEXT	SEGMENT PARA USE32 PUBLIC 'CODE'
_TEXT	ENDS
;	COMDAT ?Release@?$CTypePack@VCShadowSprite@@@@UAEXXZ
_TEXT	SEGMENT PARA USE32 PUBLIC 'CODE'
_TEXT	ENDS
;	COMDAT ??A?$CTypePack@VCShadowSprite@@@@UAEAAVCShadowSprite@@G@Z
_TEXT	SEGMENT PARA USE32 PUBLIC 'CODE'
_TEXT	ENDS
;	COMDAT ?Get@?$CTypePack@VCShadowSprite@@@@UAEAAVCShadowSprite@@G@Z
_TEXT	SEGMENT PARA USE32 PUBLIC 'CODE'
_TEXT	ENDS
;	COMDAT ?SaveToFile@?$CTypePack@VCShadowSprite@@@@UAE_NPBD@Z
_TEXT	SEGMENT PARA USE32 PUBLIC 'CODE'
_TEXT	ENDS
;	COMDAT ?SaveToFile@?$CTypePack@VCShadowSprite@@@@UAE_NAAV?$basic_ofstream@DV?$char_traits@D@_STL@@@_STL@@0@Z
_TEXT	SEGMENT PARA USE32 PUBLIC 'CODE'
_TEXT	ENDS
;	COMDAT ?LoadFromFileRunning@?$CTypePack@VCShadowSprite@@@@UAE_NPBD@Z
_TEXT	SEGMENT PARA USE32 PUBLIC 'CODE'
_TEXT	ENDS
;	COMDAT ?LoadFromFile@?$CTypePack@VCShadowSprite@@@@UAE_NPBD@Z
_TEXT	SEGMENT PARA USE32 PUBLIC 'CODE'
_TEXT	ENDS
;	COMDAT ?LoadFromFilePart@?$CTypePack@VCShadowSprite@@@@UAE_NAAVCSpriteSetManager@@@Z
_TEXT	SEGMENT PARA USE32 PUBLIC 'CODE'
_TEXT	ENDS
;	COMDAT ?LoadFromFilePart@?$CTypePack@VCShadowSprite@@@@UAE_NHH@Z
_TEXT	SEGMENT PARA USE32 PUBLIC 'CODE'
_TEXT	ENDS
;	COMDAT ?LoadFromFileData@?$CTypePack@VCShadowSprite@@@@UAE_NHHPBD0@Z
_TEXT	SEGMENT PARA USE32 PUBLIC 'CODE'
_TEXT	ENDS
;	COMDAT ?ReleasePart@?$CTypePack@VCShadowSprite@@@@UAE_NV?$COrderedList@G@@@Z
_TEXT	SEGMENT PARA USE32 PUBLIC 'CODE'
_TEXT	ENDS
;	COMDAT ?ReleasePart@?$CTypePack@VCShadowSprite@@@@UAE_NHH@Z
_TEXT	SEGMENT PARA USE32 PUBLIC 'CODE'
_TEXT	ENDS
;	COMDAT ?FinishRunningLoad@?$CTypePack@VCShadowSprite@@@@UAEXXZ
_TEXT	SEGMENT PARA USE32 PUBLIC 'CODE'
_TEXT	ENDS
;	COMDAT ?clear@?$_List_base@PAVCSpriteSurface@@V?$allocator@PAVCSpriteSurface@@@_STL@@@_STL@@QAEXXZ
_TEXT	SEGMENT PARA USE32 PUBLIC 'CODE'
_TEXT	ENDS
;	COMDAT ??$append@PBD@?$basic_string@DV?$char_traits@D@_STL@@V?$allocator@D@2@@_STL@@QAEAAV01@PBD0@Z
_TEXT	SEGMENT PARA USE32 PUBLIC 'CODE'
_TEXT	ENDS
;	COMDAT ??$?0PAVCSpriteSurface@@@?$allocator@U?$_List_node@PAVCSpriteSurface@@@_STL@@@_STL@@QAE@ABV?$allocator@PAVCSpriteSurface@@@1@@Z
_TEXT	SEGMENT PARA USE32 PUBLIC 'CODE'
_TEXT	ENDS
;	COMDAT ??$_Construct@PAVCSpriteSurface@@PAV1@@_STL@@YAXPAPAVCSpriteSurface@@ABQAV1@@Z
_TEXT	SEGMENT PARA USE32 PUBLIC 'CODE'
_TEXT	ENDS
;	COMDAT ??_G?$basic_string@DV?$char_traits@D@_STL@@V?$allocator@D@2@@_STL@@QAEPAXI@Z
_TEXT	SEGMENT PARA USE32 PUBLIC 'CODE'
_TEXT	ENDS
;	COMDAT ??_H@YGXPAXIHP6EPAX0@Z@Z
_TEXT	SEGMENT PARA USE32 PUBLIC 'CODE'
_TEXT	ENDS
;	COMDAT ??_G?$CTypePack@VCShadowSprite@@@@UAEPAXI@Z
_TEXT	SEGMENT PARA USE32 PUBLIC 'CODE'
_TEXT	ENDS
;	COMDAT ??1?$map@GPAVivfstream@@U?$less@G@_STL@@V?$allocator@U?$pair@$$CBGPAVivfstream@@@_STL@@@3@@_STL@@QAE@XZ
_TEXT	SEGMENT PARA USE32 PUBLIC 'CODE'
_TEXT	ENDS
;	COMDAT ??_ECShadowSprite@@QAEPAXI@Z
_TEXT	SEGMENT PARA USE32 PUBLIC 'CODE'
_TEXT	ENDS
;	COMDAT ??_D?$basic_ofstream@DV?$char_traits@D@_STL@@@_STL@@QAEXXZ
_TEXT	SEGMENT PARA USE32 PUBLIC 'CODE'
_TEXT	ENDS
;	COMDAT ??Y?$basic_string@DV?$char_traits@D@_STL@@V?$allocator@D@2@@_STL@@QAEAAV01@PBD@Z
_TEXT	SEGMENT PARA USE32 PUBLIC 'CODE'
_TEXT	ENDS
;	COMDAT ??Y?$basic_string@DV?$char_traits@D@_STL@@V?$allocator@D@2@@_STL@@QAEAAV01@D@Z
_TEXT	SEGMENT PARA USE32 PUBLIC 'CODE'
_TEXT	ENDS
;	COMDAT ?c_str@?$basic_string@DV?$char_traits@D@_STL@@V?$allocator@D@2@@_STL@@QBEPBDXZ
_TEXT	SEGMENT PARA USE32 PUBLIC 'CODE'
_TEXT	ENDS
;	COMDAT ??0?$allocator@G@_STL@@QAE@XZ
_TEXT	SEGMENT PARA USE32 PUBLIC 'CODE'
_TEXT	ENDS
;	COMDAT ?tie@?$basic_ios@DV?$char_traits@D@_STL@@@_STL@@QAEPAV?$basic_ostream@DV?$char_traits@D@_STL@@@2@PAV32@@Z
_TEXT	SEGMENT PARA USE32 PUBLIC 'CODE'
_TEXT	ENDS
;	COMDAT ?fill@?$basic_ios@DV?$char_traits@D@_STL@@@_STL@@QAEDD@Z
_TEXT	SEGMENT PARA USE32 PUBLIC 'CODE'
_TEXT	ENDS
;	COMDAT ?tellp@?$basic_ostream@DV?$char_traits@D@_STL@@@_STL@@QAE?AV?$fpos@H@2@XZ
_TEXT	SEGMENT PARA USE32 PUBLIC 'CODE'
_TEXT	ENDS
;	COMDAT ?seekp@?$basic_ostream@DV?$char_traits@D@_STL@@@_STL@@QAEAAV12@V?$fpos@H@2@@Z
_TEXT	SEGMENT PARA USE32 PUBLIC 'CODE'
_TEXT	ENDS
;	COMDAT ?_M_exit_putback_mode@?$basic_filebuf@DV?$char_traits@D@_STL@@@_STL@@AAEXXZ
_TEXT	SEGMENT PARA USE32 PUBLIC 'CODE'
_TEXT	ENDS
;	COMDAT ??R?$_Eq_traits@V?$char_traits@D@_STL@@@_STL@@QBE_NABD0@Z
_TEXT	SEGMENT PARA USE32 PUBLIC 'CODE'
_TEXT	ENDS
;	COMDAT ?GetSize@?$CSetManager@GG@@QBEGXZ
_TEXT	SEGMENT PARA USE32 PUBLIC 'CODE'
_TEXT	ENDS
;	COMDAT ?GetIterator@?$CSetManager@GG@@QBE?AU?$_List_iterator@GU?$_Const_traits@G@_STL@@@_STL@@XZ
_TEXT	SEGMENT PARA USE32 PUBLIC 'CODE'
_TEXT	ENDS
;	COMDAT ??0?$list@GV?$allocator@G@_STL@@@_STL@@QAE@ABV?$allocator@G@1@@Z
_TEXT	SEGMENT PARA USE32 PUBLIC 'CODE'
_TEXT	ENDS
;	COMDAT ?begin@?$list@GV?$allocator@G@_STL@@@_STL@@QAE?AU?$_List_iterator@GU?$_Nonconst_traits@G@_STL@@@2@XZ
_TEXT	SEGMENT PARA USE32 PUBLIC 'CODE'
_TEXT	ENDS
;	COMDAT ?end@?$list@GV?$allocator@G@_STL@@@_STL@@QAE?AU?$_List_iterator@GU?$_Nonconst_traits@G@_STL@@@2@XZ
_TEXT	SEGMENT PARA USE32 PUBLIC 'CODE'
_TEXT	ENDS
;	COMDAT ?push_front@?$list@GV?$allocator@G@_STL@@@_STL@@QAEXABG@Z
_TEXT	SEGMENT PARA USE32 PUBLIC 'CODE'
_TEXT	ENDS
;	COMDAT ?erase@?$list@GV?$allocator@G@_STL@@@_STL@@QAE?AU?$_List_iterator@GU?$_Nonconst_traits@G@_STL@@@2@U32@@Z
_TEXT	SEGMENT PARA USE32 PUBLIC 'CODE'
_TEXT	ENDS
;	COMDAT ??1?$list@GV?$allocator@G@_STL@@@_STL@@QAE@XZ
_TEXT	SEGMENT PARA USE32 PUBLIC 'CODE'
_TEXT	ENDS
;	COMDAT ??0?$map@GPAVivfstream@@U?$less@G@_STL@@V?$allocator@U?$pair@$$CBGPAVivfstream@@@_STL@@@3@@_STL@@QAE@XZ
_TEXT	SEGMENT PARA USE32 PUBLIC 'CODE'
_TEXT	ENDS
;	COMDAT ?begin@?$map@GPAVivfstream@@U?$less@G@_STL@@V?$allocator@U?$pair@$$CBGPAVivfstream@@@_STL@@@3@@_STL@@QAE?AU?$_Rb_tree_iterator@U?$pair@$$CBGPAVivfstream@@@_STL@@U?$_Nonconst_traits@U?$pair@$$CBGPAVivfstream@@@_STL@@@2@@2@XZ
_TEXT	SEGMENT PARA USE32 PUBLIC 'CODE'
_TEXT	ENDS
;	COMDAT ?end@?$map@GPAVivfstream@@U?$less@G@_STL@@V?$allocator@U?$pair@$$CBGPAVivfstream@@@_STL@@@3@@_STL@@QAE?AU?$_Rb_tree_iterator@U?$pair@$$CBGPAVivfstream@@@_STL@@U?$_Nonconst_traits@U?$pair@$$CBGPAVivfstream@@@_STL@@@2@@2@XZ
_TEXT	SEGMENT PARA USE32 PUBLIC 'CODE'
_TEXT	ENDS
;	COMDAT ?insert@?$map@GPAVivfstream@@U?$less@G@_STL@@V?$allocator@U?$pair@$$CBGPAVivfstream@@@_STL@@@3@@_STL@@QAE?AU?$pair@U?$_Rb_tree_iterator@U?$pair@$$CBGPAVivfstream@@@_STL@@U?$_Nonconst_traits@U?$pair@$$CBGPAVivfstream@@@_STL@@@2@@_STL@@_N@2@ABU?$pair@$$CBGPAVivfstream@@@2@@Z
_TEXT	SEGMENT PARA USE32 PUBLIC 'CODE'
_TEXT	ENDS
;	COMDAT ?erase@?$map@GPAVivfstream@@U?$less@G@_STL@@V?$allocator@U?$pair@$$CBGPAVivfstream@@@_STL@@@3@@_STL@@QAEXU?$_Rb_tree_iterator@U?$pair@$$CBGPAVivfstream@@@_STL@@U?$_Nonconst_traits@U?$pair@$$CBGPAVivfstream@@@_STL@@@2@@2@@Z
_TEXT	SEGMENT PARA USE32 PUBLIC 'CODE'
_TEXT	ENDS
;	COMDAT ?clear@?$map@GPAVivfstream@@U?$less@G@_STL@@V?$allocator@U?$pair@$$CBGPAVivfstream@@@_STL@@@3@@_STL@@QAEXXZ
_TEXT	SEGMENT PARA USE32 PUBLIC 'CODE'
_TEXT	ENDS
;	COMDAT ?find@?$map@GPAVivfstream@@U?$less@G@_STL@@V?$allocator@U?$pair@$$CBGPAVivfstream@@@_STL@@@3@@_STL@@QAE?AU?$_Rb_tree_iterator@U?$pair@$$CBGPAVivfstream@@@_STL@@U?$_Nonconst_traits@U?$pair@$$CBGPAVivfstream@@@_STL@@@2@@2@ABG@Z
_TEXT	SEGMENT PARA USE32 PUBLIC 'CODE'
_TEXT	ENDS
;	COMDAT ??1?$_Rb_tree@GU?$pair@$$CBGPAVivfstream@@@_STL@@U?$_Select1st@U?$pair@$$CBGPAVivfstream@@@_STL@@@2@U?$less@G@2@V?$allocator@U?$pair@$$CBGPAVivfstream@@@_STL@@@2@@_STL@@QAE@XZ
_TEXT	SEGMENT PARA USE32 PUBLIC 'CODE'
_TEXT	ENDS
;	COMDAT ??0?$_List_iterator@GU?$_Nonconst_traits@G@_STL@@@_STL@@QAE@XZ
_TEXT	SEGMENT PARA USE32 PUBLIC 'CODE'
_TEXT	ENDS
;	COMDAT ??0?$_List_iterator@GU?$_Nonconst_traits@G@_STL@@@_STL@@QAE@ABU01@@Z
_TEXT	SEGMENT PARA USE32 PUBLIC 'CODE'
_TEXT	ENDS
;	COMDAT ??0?$_Rb_tree_iterator@U?$pair@$$CBGPAVivfstream@@@_STL@@U?$_Nonconst_traits@U?$pair@$$CBGPAVivfstream@@@_STL@@@2@@_STL@@QAE@ABU01@@Z
_TEXT	SEGMENT PARA USE32 PUBLIC 'CODE'
_TEXT	ENDS
;	COMDAT ??C?$_Rb_tree_iterator@U?$pair@$$CBGPAVivfstream@@@_STL@@U?$_Nonconst_traits@U?$pair@$$CBGPAVivfstream@@@_STL@@@2@@_STL@@QBEPAU?$pair@$$CBGPAVivfstream@@@1@XZ
_TEXT	SEGMENT PARA USE32 PUBLIC 'CODE'
_TEXT	ENDS
;	COMDAT ??E?$_Rb_tree_iterator@U?$pair@$$CBGPAVivfstream@@@_STL@@U?$_Nonconst_traits@U?$pair@$$CBGPAVivfstream@@@_STL@@@2@@_STL@@QAEAAU01@XZ
_TEXT	SEGMENT PARA USE32 PUBLIC 'CODE'
_TEXT	ENDS
;	COMDAT ??0?$pair@$$CBGPAVivfstream@@@_STL@@QAE@ABGABQAVivfstream@@@Z
_TEXT	SEGMENT PARA USE32 PUBLIC 'CODE'
_TEXT	ENDS
;	COMDAT ??0?$basic_ofstream@DV?$char_traits@D@_STL@@@_STL@@QAE@PBDH@Z
_TEXT	SEGMENT PARA USE32 PUBLIC 'CODE'
_TEXT	ENDS
;	COMDAT ??1?$basic_ofstream@DV?$char_traits@D@_STL@@@_STL@@UAE@XZ
_TEXT	SEGMENT PARA USE32 PUBLIC 'CODE'
_TEXT	ENDS
;	COMDAT ?close@?$basic_ofstream@DV?$char_traits@D@_STL@@@_STL@@QAEXXZ
_TEXT	SEGMENT PARA USE32 PUBLIC 'CODE'
_TEXT	ENDS
;	COMDAT ?size@?$vector@KV?$allocator@K@_STL@@@_STL@@QBEIXZ
_TEXT	SEGMENT PARA USE32 PUBLIC 'CODE'
_TEXT	ENDS
;	COMDAT ??A?$vector@KV?$allocator@K@_STL@@@_STL@@QAEAAKI@Z
_TEXT	SEGMENT PARA USE32 PUBLIC 'CODE'
_TEXT	ENDS
;	COMDAT ??0?$vector@KV?$allocator@K@_STL@@@_STL@@QAE@ABV?$allocator@K@1@@Z
_TEXT	SEGMENT PARA USE32 PUBLIC 'CODE'
_TEXT	ENDS
;	COMDAT ??1?$vector@KV?$allocator@K@_STL@@@_STL@@QAE@XZ
_TEXT	SEGMENT PARA USE32 PUBLIC 'CODE'
_TEXT	ENDS
;	COMDAT ?push_back@?$vector@KV?$allocator@K@_STL@@@_STL@@QAEXABK@Z
_TEXT	SEGMENT PARA USE32 PUBLIC 'CODE'
_TEXT	ENDS
;	COMDAT ??0?$allocator@K@_STL@@QAE@XZ
_TEXT	SEGMENT PARA USE32 PUBLIC 'CODE'
_TEXT	ENDS
;	COMDAT ??1?$allocator@K@_STL@@QAE@XZ
_TEXT	SEGMENT PARA USE32 PUBLIC 'CODE'
_TEXT	ENDS
;	COMDAT ??D?$_List_iterator@GU?$_Const_traits@G@_STL@@@_STL@@QBEABGXZ
_TEXT	SEGMENT PARA USE32 PUBLIC 'CODE'
_TEXT	ENDS
;	COMDAT ??E?$_List_iterator@GU?$_Const_traits@G@_STL@@@_STL@@QAEAAU01@XZ
_TEXT	SEGMENT PARA USE32 PUBLIC 'CODE'
_TEXT	ENDS
;	COMDAT ?GetSize@?$COrderedList@G@@QBEHXZ
_TEXT	SEGMENT PARA USE32 PUBLIC 'CODE'
_TEXT	ENDS
;	COMDAT ?GetIterator@?$COrderedList@G@@QBE?AU?$_List_iterator@GU?$_Const_traits@G@_STL@@@_STL@@XZ
_TEXT	SEGMENT PARA USE32 PUBLIC 'CODE'
_TEXT	ENDS
;	COMDAT ??_G?$basic_ofstream@DV?$char_traits@D@_STL@@@_STL@@UAEPAXI@Z
_TEXT	SEGMENT PARA USE32 PUBLIC 'CODE'
_TEXT	ENDS
;	COMDAT ?append@?$basic_string@DV?$char_traits@D@_STL@@V?$allocator@D@2@@_STL@@QAEAAV12@PBD@Z
_TEXT	SEGMENT PARA USE32 PUBLIC 'CODE'
_TEXT	ENDS
;	COMDAT ?push_back@?$basic_string@DV?$char_traits@D@_STL@@V?$allocator@D@2@@_STL@@QAEXD@Z
_TEXT	SEGMENT PARA USE32 PUBLIC 'CODE'
_TEXT	ENDS
;	COMDAT ?rdbuf@?$basic_ios@DV?$char_traits@D@_STL@@@_STL@@QBEPAV?$basic_streambuf@DV?$char_traits@D@_STL@@@2@XZ
_TEXT	SEGMENT PARA USE32 PUBLIC 'CODE'
_TEXT	ENDS
;	COMDAT ?setstate@?$basic_ios@DV?$char_traits@D@_STL@@@_STL@@QAEXH@Z
_TEXT	SEGMENT PARA USE32 PUBLIC 'CODE'
_TEXT	ENDS
;	COMDAT ?open@?$basic_filebuf@DV?$char_traits@D@_STL@@@_STL@@QAEPAV12@PBDH@Z
_TEXT	SEGMENT PARA USE32 PUBLIC 'CODE'
_TEXT	ENDS
;	COMDAT ?begin@?$list@GV?$allocator@G@_STL@@@_STL@@QBE?AU?$_List_iterator@GU?$_Const_traits@G@_STL@@@2@XZ
_TEXT	SEGMENT PARA USE32 PUBLIC 'CODE'
_TEXT	ENDS
;	COMDAT ?size@?$list@GV?$allocator@G@_STL@@@_STL@@QBEIXZ
_TEXT	SEGMENT PARA USE32 PUBLIC 'CODE'
_TEXT	ENDS
;	COMDAT ?insert@?$list@GV?$allocator@G@_STL@@@_STL@@QAE?AU?$_List_iterator@GU?$_Nonconst_traits@G@_STL@@@2@U32@ABG@Z
_TEXT	SEGMENT PARA USE32 PUBLIC 'CODE'
_TEXT	ENDS
;	COMDAT ??0?$_List_base@GV?$allocator@G@_STL@@@_STL@@QAE@ABV?$allocator@G@1@@Z
_TEXT	SEGMENT PARA USE32 PUBLIC 'CODE'
_TEXT	ENDS
;	COMDAT ??1?$_List_base@GV?$allocator@G@_STL@@@_STL@@QAE@XZ
_TEXT	SEGMENT PARA USE32 PUBLIC 'CODE'
_TEXT	ENDS
;	COMDAT ?deallocate@?$allocator@U?$_List_node@G@_STL@@@_STL@@QAEXPAU?$_List_node@G@2@I@Z
_TEXT	SEGMENT PARA USE32 PUBLIC 'CODE'
_TEXT	ENDS
;	COMDAT ??0?$_Rb_tree@GU?$pair@$$CBGPAVivfstream@@@_STL@@U?$_Select1st@U?$pair@$$CBGPAVivfstream@@@_STL@@@2@U?$less@G@2@V?$allocator@U?$pair@$$CBGPAVivfstream@@@_STL@@@2@@_STL@@QAE@ABU?$less@G@1@ABV?$allocator@U?$pair@$$CBGPAVivfstream@@@_STL@@@1@@Z
_TEXT	SEGMENT PARA USE32 PUBLIC 'CODE'
_TEXT	ENDS
;	COMDAT ?begin@?$_Rb_tree@GU?$pair@$$CBGPAVivfstream@@@_STL@@U?$_Select1st@U?$pair@$$CBGPAVivfstream@@@_STL@@@2@U?$less@G@2@V?$allocator@U?$pair@$$CBGPAVivfstream@@@_STL@@@2@@_STL@@QAE?AU?$_Rb_tree_iterator@U?$pair@$$CBGPAVivfstream@@@_STL@@U?$_Nonconst_traits@U?$pair@$$CBGPAVivfstream@@@_STL@@@2@@2@XZ
_TEXT	SEGMENT PARA USE32 PUBLIC 'CODE'
_TEXT	ENDS
;	COMDAT ?end@?$_Rb_tree@GU?$pair@$$CBGPAVivfstream@@@_STL@@U?$_Select1st@U?$pair@$$CBGPAVivfstream@@@_STL@@@2@U?$less@G@2@V?$allocator@U?$pair@$$CBGPAVivfstream@@@_STL@@@2@@_STL@@QAE?AU?$_Rb_tree_iterator@U?$pair@$$CBGPAVivfstream@@@_STL@@U?$_Nonconst_traits@U?$pair@$$CBGPAVivfstream@@@_STL@@@2@@2@XZ
_TEXT	SEGMENT PARA USE32 PUBLIC 'CODE'
_TEXT	ENDS
;	COMDAT ?erase@?$_Rb_tree@GU?$pair@$$CBGPAVivfstream@@@_STL@@U?$_Select1st@U?$pair@$$CBGPAVivfstream@@@_STL@@@2@U?$less@G@2@V?$allocator@U?$pair@$$CBGPAVivfstream@@@_STL@@@2@@_STL@@QAEXU?$_Rb_tree_iterator@U?$pair@$$CBGPAVivfstream@@@_STL@@U?$_Nonconst_traits@U?$pair@$$CBGPAVivfstream@@@_STL@@@2@@2@@Z
_TEXT	SEGMENT PARA USE32 PUBLIC 'CODE'
_TEXT	ENDS
;	COMDAT ?clear@?$_Rb_tree@GU?$pair@$$CBGPAVivfstream@@@_STL@@U?$_Select1st@U?$pair@$$CBGPAVivfstream@@@_STL@@@2@U?$less@G@2@V?$allocator@U?$pair@$$CBGPAVivfstream@@@_STL@@@2@@_STL@@QAEXXZ
_TEXT	SEGMENT PARA USE32 PUBLIC 'CODE'
_TEXT	ENDS
;	COMDAT ??1?$_Rb_tree_base@U?$pair@$$CBGPAVivfstream@@@_STL@@V?$allocator@U?$pair@$$CBGPAVivfstream@@@_STL@@@2@@_STL@@QAE@XZ
_TEXT	SEGMENT PARA USE32 PUBLIC 'CODE'
_TEXT	ENDS
;	COMDAT ??0?$allocator@U?$pair@$$CBGPAVivfstream@@@_STL@@@_STL@@QAE@XZ
_TEXT	SEGMENT PARA USE32 PUBLIC 'CODE'
_TEXT	ENDS
;	COMDAT ??1?$allocator@U?$pair@$$CBGPAVivfstream@@@_STL@@@_STL@@QAE@XZ
_TEXT	SEGMENT PARA USE32 PUBLIC 'CODE'
_TEXT	ENDS
;	COMDAT ??0?$_List_iterator@GU?$_Nonconst_traits@G@_STL@@@_STL@@QAE@PAU?$_List_node@G@1@@Z
_TEXT	SEGMENT PARA USE32 PUBLIC 'CODE'
_TEXT	ENDS
;	COMDAT ??D?$_Rb_tree_iterator@U?$pair@$$CBGPAVivfstream@@@_STL@@U?$_Nonconst_traits@U?$pair@$$CBGPAVivfstream@@@_STL@@@2@@_STL@@QBEAAU?$pair@$$CBGPAVivfstream@@@1@XZ
_TEXT	SEGMENT PARA USE32 PUBLIC 'CODE'
_TEXT	ENDS
;	COMDAT ?rdbuf@?$basic_ofstream@DV?$char_traits@D@_STL@@@_STL@@QBEPAV?$basic_filebuf@DV?$char_traits@D@_STL@@@2@XZ
_TEXT	SEGMENT PARA USE32 PUBLIC 'CODE'
_TEXT	ENDS
;	COMDAT ?_M_insert_overflow@?$vector@KV?$allocator@K@_STL@@@_STL@@IAEXPAKABKABU__true_type@2@I_N@Z
_TEXT	SEGMENT PARA USE32 PUBLIC 'CODE'
_TEXT	ENDS
;	COMDAT ?begin@?$vector@KV?$allocator@K@_STL@@@_STL@@QAEPAKXZ
_TEXT	SEGMENT PARA USE32 PUBLIC 'CODE'
_TEXT	ENDS
;	COMDAT ??0?$_Vector_base@KV?$allocator@K@_STL@@@_STL@@QAE@ABV?$allocator@K@1@@Z
_TEXT	SEGMENT PARA USE32 PUBLIC 'CODE'
_TEXT	ENDS
;	COMDAT ??1?$_Vector_base@KV?$allocator@K@_STL@@@_STL@@QAE@XZ
_TEXT	SEGMENT PARA USE32 PUBLIC 'CODE'
_TEXT	ENDS
;	COMDAT ??1?$_STLP_alloc_proxy@PAU?$_List_node@G@_STL@@U12@V?$allocator@U?$_List_node@G@_STL@@@2@@_STL@@QAE@XZ
_TEXT	SEGMENT PARA USE32 PUBLIC 'CODE'
_TEXT	ENDS
;	COMDAT ??1?$_STLP_alloc_proxy@PAU?$_Rb_tree_node@U?$pair@$$CBGPAVivfstream@@@_STL@@@_STL@@U12@V?$allocator@U?$_Rb_tree_node@U?$pair@$$CBGPAVivfstream@@@_STL@@@_STL@@@2@@_STL@@QAE@XZ
_TEXT	SEGMENT PARA USE32 PUBLIC 'CODE'
_TEXT	ENDS
;	COMDAT ??1?$_STLP_alloc_proxy@PAKKV?$allocator@K@_STL@@@_STL@@QAE@XZ
_TEXT	SEGMENT PARA USE32 PUBLIC 'CODE'
_TEXT	ENDS
;	COMDAT ?_M_construct_null@?$basic_string@DV?$char_traits@D@_STL@@V?$allocator@D@2@@_STL@@AAEXPAD@Z
_TEXT	SEGMENT PARA USE32 PUBLIC 'CODE'
_TEXT	ENDS
;	COMDAT ?clear@?$basic_ios@DV?$char_traits@D@_STL@@@_STL@@QAEXH@Z
_TEXT	SEGMENT PARA USE32 PUBLIC 'CODE'
_TEXT	ENDS
;	COMDAT ?_M_create_node@?$list@GV?$allocator@G@_STL@@@_STL@@IAEPAU?$_List_node@G@2@ABG@Z
_TEXT	SEGMENT PARA USE32 PUBLIC 'CODE'
_TEXT	ENDS
;	COMDAT ?end@?$list@GV?$allocator@G@_STL@@@_STL@@QBE?AU?$_List_iterator@GU?$_Const_traits@G@_STL@@@2@XZ
_TEXT	SEGMENT PARA USE32 PUBLIC 'CODE'
_TEXT	ENDS
;	COMDAT ??0?$_STLP_alloc_proxy@PAU?$_List_node@G@_STL@@U12@V?$allocator@U?$_List_node@G@_STL@@@2@@_STL@@QAE@ABV?$allocator@U?$_List_node@G@_STL@@@1@PAU?$_List_node@G@1@@Z
_TEXT	SEGMENT PARA USE32 PUBLIC 'CODE'
_TEXT	ENDS
;	COMDAT ??1?$allocator@U?$_List_node@G@_STL@@@_STL@@QAE@XZ
_TEXT	SEGMENT PARA USE32 PUBLIC 'CODE'
_TEXT	ENDS
;	COMDAT ?allocate@?$allocator@U?$_List_node@G@_STL@@@_STL@@QAEPAU?$_List_node@G@2@IPBX@Z
_TEXT	SEGMENT PARA USE32 PUBLIC 'CODE'
_TEXT	ENDS
;	COMDAT ?_M_root@?$_Rb_tree@GU?$pair@$$CBGPAVivfstream@@@_STL@@U?$_Select1st@U?$pair@$$CBGPAVivfstream@@@_STL@@@2@U?$less@G@2@V?$allocator@U?$pair@$$CBGPAVivfstream@@@_STL@@@2@@_STL@@IBEAAPAU?$_Rb_tree_node@U?$pair@$$CBGPAVivfstream@@@_STL@@@2@XZ
_TEXT	SEGMENT PARA USE32 PUBLIC 'CODE'
_TEXT	ENDS
;	COMDAT ?_M_leftmost@?$_Rb_tree@GU?$pair@$$CBGPAVivfstream@@@_STL@@U?$_Select1st@U?$pair@$$CBGPAVivfstream@@@_STL@@@2@U?$less@G@2@V?$allocator@U?$pair@$$CBGPAVivfstream@@@_STL@@@2@@_STL@@IBEAAPAU?$_Rb_tree_node@U?$pair@$$CBGPAVivfstream@@@_STL@@@2@XZ
_TEXT	SEGMENT PARA USE32 PUBLIC 'CODE'
_TEXT	ENDS
;	COMDAT ?_M_rightmost@?$_Rb_tree@GU?$pair@$$CBGPAVivfstream@@@_STL@@U?$_Select1st@U?$pair@$$CBGPAVivfstream@@@_STL@@@2@U?$less@G@2@V?$allocator@U?$pair@$$CBGPAVivfstream@@@_STL@@@2@@_STL@@IBEAAPAU?$_Rb_tree_node@U?$pair@$$CBGPAVivfstream@@@_STL@@@2@XZ
_TEXT	SEGMENT PARA USE32 PUBLIC 'CODE'
_TEXT	ENDS
;	COMDAT ?_M_empty_initialize@?$_Rb_tree@GU?$pair@$$CBGPAVivfstream@@@_STL@@U?$_Select1st@U?$pair@$$CBGPAVivfstream@@@_STL@@@2@U?$less@G@2@V?$allocator@U?$pair@$$CBGPAVivfstream@@@_STL@@@2@@_STL@@AAEXXZ
_TEXT	SEGMENT PARA USE32 PUBLIC 'CODE'
_TEXT	ENDS
;	COMDAT ??0?$_Rb_tree_base@U?$pair@$$CBGPAVivfstream@@@_STL@@V?$allocator@U?$pair@$$CBGPAVivfstream@@@_STL@@@2@@_STL@@QAE@ABV?$allocator@U?$pair@$$CBGPAVivfstream@@@_STL@@@1@@Z
_TEXT	SEGMENT PARA USE32 PUBLIC 'CODE'
_TEXT	ENDS
;	COMDAT ??1?$allocator@U?$_Rb_tree_node@U?$pair@$$CBGPAVivfstream@@@_STL@@@_STL@@@_STL@@QAE@XZ
_TEXT	SEGMENT PARA USE32 PUBLIC 'CODE'
_TEXT	ENDS
;	COMDAT ?deallocate@?$allocator@U?$_Rb_tree_node@U?$pair@$$CBGPAVivfstream@@@_STL@@@_STL@@@_STL@@QAEXPAU?$_Rb_tree_node@U?$pair@$$CBGPAVivfstream@@@_STL@@@2@I@Z
_TEXT	SEGMENT PARA USE32 PUBLIC 'CODE'
_TEXT	ENDS
;	COMDAT ??0?$_Rb_tree_iterator@U?$pair@$$CBGPAVivfstream@@@_STL@@U?$_Nonconst_traits@U?$pair@$$CBGPAVivfstream@@@_STL@@@2@@_STL@@QAE@PAU?$_Rb_tree_node@U?$pair@$$CBGPAVivfstream@@@_STL@@@1@@Z
_TEXT	SEGMENT PARA USE32 PUBLIC 'CODE'
_TEXT	ENDS
;	COMDAT ?_M_clear@?$vector@KV?$allocator@K@_STL@@@_STL@@IAEXXZ
_TEXT	SEGMENT PARA USE32 PUBLIC 'CODE'
_TEXT	ENDS
;	COMDAT ?_M_set@?$vector@KV?$allocator@K@_STL@@@_STL@@IAEXPAK00@Z
_TEXT	SEGMENT PARA USE32 PUBLIC 'CODE'
_TEXT	ENDS
;	COMDAT ?allocate@?$allocator@K@_STL@@QAEPAKIPBX@Z
_TEXT	SEGMENT PARA USE32 PUBLIC 'CODE'
_TEXT	ENDS
;	COMDAT ?deallocate@?$allocator@K@_STL@@QAEXPAKI@Z
_TEXT	SEGMENT PARA USE32 PUBLIC 'CODE'
_TEXT	ENDS
;	COMDAT ??0?$_STLP_alloc_proxy@PAKKV?$allocator@K@_STL@@@_STL@@QAE@ABV?$allocator@K@1@PAK@Z
_TEXT	SEGMENT PARA USE32 PUBLIC 'CODE'
_TEXT	ENDS
;	COMDAT ??0?$_List_iterator@GU?$_Const_traits@G@_STL@@@_STL@@QAE@PAU?$_List_node@G@1@@Z
_TEXT	SEGMENT PARA USE32 PUBLIC 'CODE'
_TEXT	ENDS
;	COMDAT ?_M_construct_null_aux@?$basic_string@DV?$char_traits@D@_STL@@V?$allocator@D@2@@_STL@@AAEXPADABU__true_type@2@@Z
_TEXT	SEGMENT PARA USE32 PUBLIC 'CODE'
_TEXT	ENDS
;	COMDAT ??0?$allocator@U?$_List_node@G@_STL@@@_STL@@QAE@ABV01@@Z
_TEXT	SEGMENT PARA USE32 PUBLIC 'CODE'
_TEXT	ENDS
;	COMDAT ?_S_color@?$_Rb_tree@GU?$pair@$$CBGPAVivfstream@@@_STL@@U?$_Select1st@U?$pair@$$CBGPAVivfstream@@@_STL@@@2@U?$less@G@2@V?$allocator@U?$pair@$$CBGPAVivfstream@@@_STL@@@2@@_STL@@KAAA_NPAU?$_Rb_tree_node@U?$pair@$$CBGPAVivfstream@@@_STL@@@2@@Z
_TEXT	SEGMENT PARA USE32 PUBLIC 'CODE'
_TEXT	ENDS
;	COMDAT ??0?$_STLP_alloc_proxy@PAU?$_Rb_tree_node@U?$pair@$$CBGPAVivfstream@@@_STL@@@_STL@@U12@V?$allocator@U?$_Rb_tree_node@U?$pair@$$CBGPAVivfstream@@@_STL@@@_STL@@@2@@_STL@@QAE@ABV?$allocator@U?$_Rb_tree_node@U?$pair@$$CBGPAVivfstream@@@_STL@@@_STL@@@1@PAU?$_Rb_tree_node@U?$pair@$$CBGPAVivfstream@@@_STL@@@1@@Z
_TEXT	SEGMENT PARA USE32 PUBLIC 'CODE'
_TEXT	ENDS
;	COMDAT ?allocate@?$allocator@U?$_Rb_tree_node@U?$pair@$$CBGPAVivfstream@@@_STL@@@_STL@@@_STL@@QAEPAU?$_Rb_tree_node@U?$pair@$$CBGPAVivfstream@@@_STL@@@2@IPBX@Z
_TEXT	SEGMENT PARA USE32 PUBLIC 'CODE'
_TEXT	ENDS
;	COMDAT ??0?$allocator@K@_STL@@QAE@ABV01@@Z
_TEXT	SEGMENT PARA USE32 PUBLIC 'CODE'
_TEXT	ENDS
;	COMDAT ??0?$allocator@U?$_Rb_tree_node@U?$pair@$$CBGPAVivfstream@@@_STL@@@_STL@@@_STL@@QAE@ABV01@@Z
_TEXT	SEGMENT PARA USE32 PUBLIC 'CODE'
_TEXT	ENDS
;	COMDAT ?reserve@?$basic_string@DV?$char_traits@D@_STL@@V?$allocator@D@2@@_STL@@QAEXI@Z
_TEXT	SEGMENT PARA USE32 PUBLIC 'CODE'
_TEXT	ENDS
;	COMDAT ??$_M_range_initialize@PBD@?$basic_string@DV?$char_traits@D@_STL@@V?$allocator@D@2@@_STL@@AAEXPBD0ABUforward_iterator_tag@1@@Z
_TEXT	SEGMENT PARA USE32 PUBLIC 'CODE'
_TEXT	ENDS
;	COMDAT ??$_M_range_initialize@PAD@?$basic_string@DV?$char_traits@D@_STL@@V?$allocator@D@2@@_STL@@AAEXPAD0ABUforward_iterator_tag@1@@Z
_TEXT	SEGMENT PARA USE32 PUBLIC 'CODE'
_TEXT	ENDS
;	COMDAT ?_M_unshift@?$basic_filebuf@DV?$char_traits@D@_STL@@@_STL@@AAE_NXZ
_TEXT	SEGMENT PARA USE32 PUBLIC 'CODE'
_TEXT	ENDS
;	COMDAT ?_M_allocate_buffers@?$basic_filebuf@DV?$char_traits@D@_STL@@@_STL@@AAE_NXZ
_TEXT	SEGMENT PARA USE32 PUBLIC 'CODE'
_TEXT	ENDS
;	COMDAT ??$max@H@_STL@@YAABHABH0@Z
_TEXT	SEGMENT PARA USE32 PUBLIC 'CODE'
_TEXT	ENDS
;	COMDAT ??$use_facet@V?$codecvt@DDH@_STL@@@_STL@@YAABV?$codecvt@DDH@0@ABVlocale@0@@Z
_TEXT	SEGMENT PARA USE32 PUBLIC 'CODE'
_TEXT	ENDS
;	COMDAT ??$append@PAD@?$basic_string@DV?$char_traits@D@_STL@@V?$allocator@D@2@@_STL@@QAEAAV01@PAD0@Z
_TEXT	SEGMENT PARA USE32 PUBLIC 'CODE'
_TEXT	ENDS
;	COMDAT ?rdbuf@?$basic_ios@DV?$char_traits@D@_STL@@@_STL@@QAEPAV?$basic_streambuf@DV?$char_traits@D@_STL@@@2@PAV32@@Z
_TEXT	SEGMENT PARA USE32 PUBLIC 'CODE'
_TEXT	ENDS
;	COMDAT ?imbue@?$basic_ios@DV?$char_traits@D@_STL@@@_STL@@QAE?AVlocale@2@ABV32@@Z
_TEXT	SEGMENT PARA USE32 PUBLIC 'CODE'
_TEXT	ENDS
;	COMDAT ?widen@?$basic_ios@DV?$char_traits@D@_STL@@@_STL@@QBEDD@Z
_TEXT	SEGMENT PARA USE32 PUBLIC 'CODE'
_TEXT	ENDS
;	COMDAT ?Release@?$CPartManager@GGPAVCSpriteSurface@@@@QAEXXZ
_TEXT	SEGMENT PARA USE32 PUBLIC 'CODE'
_TEXT	ENDS
;	COMDAT ?GetLRU@?$CPartManager@GGPAVCSpriteSurface@@@@IBEGXZ
_TEXT	SEGMENT PARA USE32 PUBLIC 'CODE'
_TEXT	ENDS
;	COMDAT ?clear@?$_List_base@GV?$allocator@G@_STL@@@_STL@@QAEXXZ
_TEXT	SEGMENT PARA USE32 PUBLIC 'CODE'
_TEXT	ENDS
;	COMDAT ?LogTwoMultiplier@?$CTypePack@VCShadowSprite@@@@KAHH@Z
_TEXT	SEGMENT PARA USE32 PUBLIC 'CODE'
_TEXT	ENDS
;	COMDAT ?GetSplitFile@?$CTypePack@VCShadowSprite@@@@IAEHHPAD@Z
_TEXT	SEGMENT PARA USE32 PUBLIC 'CODE'
_TEXT	ENDS
;	COMDAT ??0?$basic_ostream@DV?$char_traits@D@_STL@@@_STL@@QAE@PAV?$basic_streambuf@DV?$char_traits@D@_STL@@@1@@Z
_TEXT	SEGMENT PARA USE32 PUBLIC 'CODE'
_TEXT	ENDS
;	COMDAT ?write@?$basic_ostream@DV?$char_traits@D@_STL@@@_STL@@QAEAAV12@PBDH@Z
_TEXT	SEGMENT PARA USE32 PUBLIC 'CODE'
_TEXT	ENDS
;	COMDAT ??1?$COrderedList@G@@QAE@XZ
_TEXT	SEGMENT PARA USE32 PUBLIC 'CODE'
_TEXT	ENDS
;	COMDAT ??$_Destroy@PAVCSpriteSurface@@@_STL@@YAXPAPAVCSpriteSurface@@@Z
_TEXT	SEGMENT PARA USE32 PUBLIC 'CODE'
_TEXT	ENDS
;	COMDAT ??$_M_append_dispatch@PBD@?$basic_string@DV?$char_traits@D@_STL@@V?$allocator@D@2@@_STL@@AAEAAV01@PBD0ABU__false_type@1@@Z
_TEXT	SEGMENT PARA USE32 PUBLIC 'CODE'
_TEXT	ENDS
;	COMDAT ?_M_erase@?$_Rb_tree@GU?$pair@$$CBGPAVivfstream@@@_STL@@U?$_Select1st@U?$pair@$$CBGPAVivfstream@@@_STL@@@2@U?$less@G@2@V?$allocator@U?$pair@$$CBGPAVivfstream@@@_STL@@@2@@_STL@@AAEXPAU?$_Rb_tree_node@U?$pair@$$CBGPAVivfstream@@@_STL@@@2@@Z
_TEXT	SEGMENT PARA USE32 PUBLIC 'CODE'
_TEXT	ENDS
;	COMDAT ?insert_unique@?$_Rb_tree@GU?$pair@$$CBGPAVivfstream@@@_STL@@U?$_Select1st@U?$pair@$$CBGPAVivfstream@@@_STL@@@2@U?$less@G@2@V?$allocator@U?$pair@$$CBGPAVivfstream@@@_STL@@@2@@_STL@@QAE?AU?$pair@U?$_Rb_tree_iterator@U?$pair@$$CBGPAVivfstream@@@_STL@@U?$_Nonconst_traits@U?$pair@$$CBGPAVivfstream@@@_STL@@@2@@_STL@@_N@2@ABU?$pair@$$CBGPAVivfstream@@@2@@Z
_TEXT	SEGMENT PARA USE32 PUBLIC 'CODE'
_TEXT	ENDS
;	COMDAT ??$_Destroy@G@_STL@@YAXPAG@Z
_TEXT	SEGMENT PARA USE32 PUBLIC 'CODE'
_TEXT	ENDS
;	COMDAT ??$find@G@?$_Rb_tree@GU?$pair@$$CBGPAVivfstream@@@_STL@@U?$_Select1st@U?$pair@$$CBGPAVivfstream@@@_STL@@@2@U?$less@G@2@V?$allocator@U?$pair@$$CBGPAVivfstream@@@_STL@@@2@@_STL@@QAE?AU?$_Rb_tree_iterator@U?$pair@$$CBGPAVivfstream@@@_STL@@U?$_Nonconst_traits@U?$pair@$$CBGPAVivfstream@@@_STL@@@2@@1@ABG@Z
_TEXT	SEGMENT PARA USE32 PUBLIC 'CODE'
_TEXT	ENDS
;	COMDAT ??$_Destroy@PAK@_STL@@YAXPAK0@Z
_TEXT	SEGMENT PARA USE32 PUBLIC 'CODE'
_TEXT	ENDS
;	COMDAT ??$_Construct@KK@_STL@@YAXPAKABK@Z
_TEXT	SEGMENT PARA USE32 PUBLIC 'CODE'
_TEXT	ENDS
;	COMDAT ??$max@I@_STL@@YAABIABI0@Z
_TEXT	SEGMENT PARA USE32 PUBLIC 'CODE'
_TEXT	ENDS
;	COMDAT ??$distance@U?$_List_iterator@GU?$_Const_traits@G@_STL@@@_STL@@@_STL@@YAHABU?$_List_iterator@GU?$_Const_traits@G@_STL@@@0@0@Z
_TEXT	SEGMENT PARA USE32 PUBLIC 'CODE'
_TEXT	ENDS
;	COMDAT ??$?0G@?$allocator@U?$_List_node@G@_STL@@@_STL@@QAE@ABV?$allocator@G@1@@Z
_TEXT	SEGMENT PARA USE32 PUBLIC 'CODE'
_TEXT	ENDS
;	COMDAT ??$_Destroy@U?$pair@$$CBGPAVivfstream@@@_STL@@@_STL@@YAXPAU?$pair@$$CBGPAVivfstream@@@0@@Z
_TEXT	SEGMENT PARA USE32 PUBLIC 'CODE'
_TEXT	ENDS
;	COMDAT ??$fill_n@PAKIK@_STL@@YAPAKPAKIABK@Z
_TEXT	SEGMENT PARA USE32 PUBLIC 'CODE'
_TEXT	ENDS
;	COMDAT ??$_Construct@GG@_STL@@YAXPAGABG@Z
_TEXT	SEGMENT PARA USE32 PUBLIC 'CODE'
_TEXT	ENDS
;	COMDAT ??$?0U?$pair@$$CBGPAVivfstream@@@_STL@@@?$allocator@U?$_Rb_tree_node@U?$pair@$$CBGPAVivfstream@@@_STL@@@_STL@@@_STL@@QAE@ABV?$allocator@U?$pair@$$CBGPAVivfstream@@@_STL@@@1@@Z
_TEXT	SEGMENT PARA USE32 PUBLIC 'CODE'
_TEXT	ENDS
;	COMDAT ?max_size@?$basic_string@DV?$char_traits@D@_STL@@V?$allocator@D@2@@_STL@@QBEIXZ
_TEXT	SEGMENT PARA USE32 PUBLIC 'CODE'
_TEXT	ENDS
;	COMDAT ?capacity@?$basic_string@DV?$char_traits@D@_STL@@V?$allocator@D@2@@_STL@@QBEIXZ
_TEXT	SEGMENT PARA USE32 PUBLIC 'CODE'
_TEXT	ENDS
;	COMDAT ?rbegin@?$list@GV?$allocator@G@_STL@@@_STL@@QBE?AV?$reverse_iterator@U?$_List_iterator@GU?$_Const_traits@G@_STL@@@_STL@@@2@XZ
_TEXT	SEGMENT PARA USE32 PUBLIC 'CODE'
_TEXT	ENDS
;	COMDAT ?_S_left@?$_Rb_tree@GU?$pair@$$CBGPAVivfstream@@@_STL@@U?$_Select1st@U?$pair@$$CBGPAVivfstream@@@_STL@@@2@U?$less@G@2@V?$allocator@U?$pair@$$CBGPAVivfstream@@@_STL@@@2@@_STL@@KAAAPAU?$_Rb_tree_node@U?$pair@$$CBGPAVivfstream@@@_STL@@@2@PAU32@@Z
_TEXT	SEGMENT PARA USE32 PUBLIC 'CODE'
_TEXT	ENDS
;	COMDAT ?_S_right@?$_Rb_tree@GU?$pair@$$CBGPAVivfstream@@@_STL@@U?$_Select1st@U?$pair@$$CBGPAVivfstream@@@_STL@@@2@U?$less@G@2@V?$allocator@U?$pair@$$CBGPAVivfstream@@@_STL@@@2@@_STL@@KAAAPAU?$_Rb_tree_node@U?$pair@$$CBGPAVivfstream@@@_STL@@@2@PAU32@@Z
_TEXT	SEGMENT PARA USE32 PUBLIC 'CODE'
_TEXT	ENDS
;	COMDAT ?_S_key@?$_Rb_tree@GU?$pair@$$CBGPAVivfstream@@@_STL@@U?$_Select1st@U?$pair@$$CBGPAVivfstream@@@_STL@@@2@U?$less@G@2@V?$allocator@U?$pair@$$CBGPAVivfstream@@@_STL@@@2@@_STL@@KAABGPAU?$_Rb_tree_node@U?$pair@$$CBGPAVivfstream@@@_STL@@@2@@Z
_TEXT	SEGMENT PARA USE32 PUBLIC 'CODE'
_TEXT	ENDS
;	COMDAT ?_S_key@?$_Rb_tree@GU?$pair@$$CBGPAVivfstream@@@_STL@@U?$_Select1st@U?$pair@$$CBGPAVivfstream@@@_STL@@@2@U?$less@G@2@V?$allocator@U?$pair@$$CBGPAVivfstream@@@_STL@@@2@@_STL@@KAABGPAU_Rb_tree_node_base@2@@Z
_TEXT	SEGMENT PARA USE32 PUBLIC 'CODE'
_TEXT	ENDS
;	COMDAT ??R?$less@G@_STL@@QBE_NABG0@Z
_TEXT	SEGMENT PARA USE32 PUBLIC 'CODE'
_TEXT	ENDS
;	COMDAT ??F?$_Rb_tree_iterator@U?$pair@$$CBGPAVivfstream@@@_STL@@U?$_Nonconst_traits@U?$pair@$$CBGPAVivfstream@@@_STL@@@2@@_STL@@QAEAAU01@XZ
_TEXT	SEGMENT PARA USE32 PUBLIC 'CODE'
_TEXT	ENDS
;	COMDAT ??0?$pair@U?$_Rb_tree_iterator@U?$pair@$$CBGPAVivfstream@@@_STL@@U?$_Nonconst_traits@U?$pair@$$CBGPAVivfstream@@@_STL@@@2@@_STL@@_N@_STL@@QAE@ABU?$_Rb_tree_iterator@U?$pair@$$CBGPAVivfstream@@@_STL@@U?$_Nonconst_traits@U?$pair@$$CBGPAVivfstream@@@_STL@@@2@@1@AB_N@Z
_TEXT	SEGMENT PARA USE32 PUBLIC 'CODE'
_TEXT	ENDS
;	COMDAT ??D?$reverse_iterator@U?$_List_iterator@GU?$_Const_traits@G@_STL@@@_STL@@@_STL@@QBEABGXZ
_TEXT	SEGMENT PARA USE32 PUBLIC 'CODE'
_TEXT	ENDS
;	COMDAT ??0sentry@?$basic_ostream@DV?$char_traits@D@_STL@@@_STL@@QAE@AAV12@@Z
_TEXT	SEGMENT PARA USE32 PUBLIC 'CODE'
_TEXT	ENDS
;	COMDAT ??1sentry@?$basic_ostream@DV?$char_traits@D@_STL@@@_STL@@QAE@XZ
_TEXT	SEGMENT PARA USE32 PUBLIC 'CODE'
_TEXT	ENDS
;	COMDAT ??Bsentry@?$basic_ostream@DV?$char_traits@D@_STL@@@_STL@@QBE_NXZ
_TEXT	SEGMENT PARA USE32 PUBLIC 'CODE'
_TEXT	ENDS
;	COMDAT ??R?$_Select1st@U?$pair@$$CBGPAVivfstream@@@_STL@@@_STL@@QBEABGABU?$pair@$$CBGPAVivfstream@@@1@@Z
_TEXT	SEGMENT PARA USE32 PUBLIC 'CODE'
_TEXT	ENDS
;	COMDAT ?max_size@?$_String_base@DV?$allocator@D@_STL@@@_STL@@QBEIXZ
_TEXT	SEGMENT PARA USE32 PUBLIC 'CODE'
_TEXT	ENDS
;	COMDAT ?flush@?$basic_ostream@DV?$char_traits@D@_STL@@@_STL@@QAEAAV12@XZ
_TEXT	SEGMENT PARA USE32 PUBLIC 'CODE'
_TEXT	ENDS
;	COMDAT ?_S_value@?$_Rb_tree@GU?$pair@$$CBGPAVivfstream@@@_STL@@U?$_Select1st@U?$pair@$$CBGPAVivfstream@@@_STL@@@2@U?$less@G@2@V?$allocator@U?$pair@$$CBGPAVivfstream@@@_STL@@@2@@_STL@@KAAAU?$pair@$$CBGPAVivfstream@@@2@PAU?$_Rb_tree_node@U?$pair@$$CBGPAVivfstream@@@_STL@@@2@@Z
_TEXT	SEGMENT PARA USE32 PUBLIC 'CODE'
_TEXT	ENDS
;	COMDAT ??F?$_List_iterator@GU?$_Const_traits@G@_STL@@@_STL@@QAEAAU01@XZ
_TEXT	SEGMENT PARA USE32 PUBLIC 'CODE'
_TEXT	ENDS
;	COMDAT ??0?$reverse_iterator@U?$_List_iterator@GU?$_Const_traits@G@_STL@@@_STL@@@_STL@@QAE@U?$_List_iterator@GU?$_Const_traits@G@_STL@@@1@@Z
_TEXT	SEGMENT PARA USE32 PUBLIC 'CODE'
_TEXT	ENDS
;	COMDAT ?_M_allocate_block@?$_String_base@DV?$allocator@D@_STL@@@_STL@@QAEXI@Z
_TEXT	SEGMENT PARA USE32 PUBLIC 'CODE'
_TEXT	ENDS
;	COMDAT ?_M_throw_length_error@?$_String_base@DV?$allocator@D@_STL@@@_STL@@QBEXXZ
_TEXT	SEGMENT PARA USE32 PUBLIC 'CODE'
_TEXT	ENDS
;	COMDAT ??$uninitialized_copy@PADPAD@_STL@@YAPADPAD00@Z
_TEXT	SEGMENT PARA USE32 PUBLIC 'CODE'
_TEXT	ENDS
;	COMDAT ??$distance@PBD@_STL@@YAHABQBD0@Z
_TEXT	SEGMENT PARA USE32 PUBLIC 'CODE'
_TEXT	ENDS
;	COMDAT ??$distance@PAD@_STL@@YAHABQAD0@Z
_TEXT	SEGMENT PARA USE32 PUBLIC 'CODE'
_TEXT	ENDS
;	COMDAT ??$_M_append_dispatch@PAD@?$basic_string@DV?$char_traits@D@_STL@@V?$allocator@D@2@@_STL@@AAEAAV01@PAD0ABU__false_type@1@@Z
_TEXT	SEGMENT PARA USE32 PUBLIC 'CODE'
_TEXT	ENDS
;	COMDAT ?_M_handle_exception@?$basic_ios@DV?$char_traits@D@_STL@@@_STL@@QAEXH@Z
_TEXT	SEGMENT PARA USE32 PUBLIC 'CODE'
_TEXT	ENDS
;	COMDAT ?Release@?$COrderedList@G@@QAEXXZ
_TEXT	SEGMENT PARA USE32 PUBLIC 'CODE'
_TEXT	ENDS
;	COMDAT ??$append@PBD@?$basic_string@DV?$char_traits@D@_STL@@V?$allocator@D@2@@_STL@@AAEAAV01@PBD0ABUforward_iterator_tag@1@@Z
_TEXT	SEGMENT PARA USE32 PUBLIC 'CODE'
_TEXT	ENDS
;	COMDAT ?_M_insert@?$_Rb_tree@GU?$pair@$$CBGPAVivfstream@@@_STL@@U?$_Select1st@U?$pair@$$CBGPAVivfstream@@@_STL@@@2@U?$less@G@2@V?$allocator@U?$pair@$$CBGPAVivfstream@@@_STL@@@2@@_STL@@AAE?AU?$_Rb_tree_iterator@U?$pair@$$CBGPAVivfstream@@@_STL@@U?$_Nonconst_traits@U?$pair@$$CBGPAVivfstream@@@_STL@@@2@@2@PAU_Rb_tree_node_base@2@0ABU?$pair@$$CBGPAVivfstream@@@2@0@Z
_TEXT	SEGMENT PARA USE32 PUBLIC 'CODE'
_TEXT	ENDS
;	COMDAT ??$_M_find@G@?$_Rb_tree@GU?$pair@$$CBGPAVivfstream@@@_STL@@U?$_Select1st@U?$pair@$$CBGPAVivfstream@@@_STL@@@2@U?$less@G@2@V?$allocator@U?$pair@$$CBGPAVivfstream@@@_STL@@@2@@_STL@@ABEPAU?$_Rb_tree_node@U?$pair@$$CBGPAVivfstream@@@_STL@@@1@ABG@Z
_TEXT	SEGMENT PARA USE32 PUBLIC 'CODE'
_TEXT	ENDS
;	COMDAT ??$__destroy@PAKK@_STL@@YAXPAK00@Z
_TEXT	SEGMENT PARA USE32 PUBLIC 'CODE'
_TEXT	ENDS
;	COMDAT ??$__distance@U?$_List_iterator@GU?$_Const_traits@G@_STL@@@_STL@@@_STL@@YAHABU?$_List_iterator@GU?$_Const_traits@G@_STL@@@0@0ABUinput_iterator_tag@0@@Z
_TEXT	SEGMENT PARA USE32 PUBLIC 'CODE'
_TEXT	ENDS
;	COMDAT ??$_M_init@DV?$char_traits@D@_STL@@@_STL@@YA_NAAV?$basic_ostream@DV?$char_traits@D@_STL@@@0@@Z
_TEXT	SEGMENT PARA USE32 PUBLIC 'CODE'
_TEXT	ENDS
;	COMDAT ?tie@?$basic_ios@DV?$char_traits@D@_STL@@@_STL@@QBEPAV?$basic_ostream@DV?$char_traits@D@_STL@@@2@XZ
_TEXT	SEGMENT PARA USE32 PUBLIC 'CODE'
_TEXT	ENDS
;	COMDAT ?_M_create_node@?$_Rb_tree@GU?$pair@$$CBGPAVivfstream@@@_STL@@U?$_Select1st@U?$pair@$$CBGPAVivfstream@@@_STL@@@2@U?$less@G@2@V?$allocator@U?$pair@$$CBGPAVivfstream@@@_STL@@@2@@_STL@@IAEPAU?$_Rb_tree_node@U?$pair@$$CBGPAVivfstream@@@_STL@@@2@ABU?$pair@$$CBGPAVivfstream@@@2@@Z
_TEXT	SEGMENT PARA USE32 PUBLIC 'CODE'
_TEXT	ENDS
;	COMDAT ?_S_parent@?$_Rb_tree@GU?$pair@$$CBGPAVivfstream@@@_STL@@U?$_Select1st@U?$pair@$$CBGPAVivfstream@@@_STL@@@2@U?$less@G@2@V?$allocator@U?$pair@$$CBGPAVivfstream@@@_STL@@@2@@_STL@@KAAAPAU?$_Rb_tree_node@U?$pair@$$CBGPAVivfstream@@@_STL@@@2@PAU32@@Z
_TEXT	SEGMENT PARA USE32 PUBLIC 'CODE'
_TEXT	ENDS
;	COMDAT ??$__uninitialized_copy@PADPAD@_STL@@YAPADPAD00ABU__true_type@0@@Z
_TEXT	SEGMENT PARA USE32 PUBLIC 'CODE'
_TEXT	ENDS
;	COMDAT ??$__distance@PBD@_STL@@YAHABQBD0ABUrandom_access_iterator_tag@0@@Z
_TEXT	SEGMENT PARA USE32 PUBLIC 'CODE'
_TEXT	ENDS
;	COMDAT ??$__distance@PAD@_STL@@YAHABQAD0ABUrandom_access_iterator_tag@0@@Z
_TEXT	SEGMENT PARA USE32 PUBLIC 'CODE'
_TEXT	ENDS
;	COMDAT ??$append@PAD@?$basic_string@DV?$char_traits@D@_STL@@V?$allocator@D@2@@_STL@@AAEAAV01@PAD0ABUforward_iterator_tag@1@@Z
_TEXT	SEGMENT PARA USE32 PUBLIC 'CODE'
_TEXT	ENDS
;	COMDAT ??$__destroy_aux@PAK@_STL@@YAXPAK0ABU__true_type@0@@Z
_TEXT	SEGMENT PARA USE32 PUBLIC 'CODE'
_TEXT	ENDS
;	COMDAT ??$_Construct@U?$pair@$$CBGPAVivfstream@@@_STL@@U12@@_STL@@YAXPAU?$pair@$$CBGPAVivfstream@@@0@ABU10@@Z
_TEXT	SEGMENT PARA USE32 PUBLIC 'CODE'
_TEXT	ENDS
;	COMDAT ??0?$pair@$$CBGPAVivfstream@@@_STL@@QAE@ABU01@@Z
_TEXT	SEGMENT PARA USE32 PUBLIC 'CODE'
_TEXT	ENDS
;	COMDAT ?_Ret@?$_BothPtrType@PADPAD@_STL@@SA?AU__true_type@2@XZ
_TEXT	SEGMENT PARA USE32 PUBLIC 'CODE'
_TEXT	ENDS
;	COMDAT ??$__copy_aux@PADPAD@_STL@@YAPADPAD00ABU__true_type@0@@Z
_TEXT	SEGMENT PARA USE32 PUBLIC 'CODE'
_TEXT	ENDS
;	COMDAT ?_Ret@?$_OKToMemCpy@DD@_STL@@SA?AU__true_type@2@XZ
_TEXT	SEGMENT PARA USE32 PUBLIC 'CODE'
_TEXT	ENDS
;	COMDAT ??$_IsOKToMemCpy@DD@_STL@@YA?AU?$_OKToMemCpy@DD@0@PAD0@Z
_TEXT	SEGMENT PARA USE32 PUBLIC 'CODE'
_TEXT	ENDS
;	COMDAT ??$__copy_ptrs@PADPAD@_STL@@YAPADPAD00ABU__true_type@0@@Z
_TEXT	SEGMENT PARA USE32 PUBLIC 'CODE'
_TEXT	ENDS
;	COMDAT ??_R3iovfs_base@@8
rdata$r	SEGMENT DWORD USE32 PUBLIC 'CONST'
rdata$r	ENDS
;	COMDAT ??_R3ovfstream@@8
rdata$r	SEGMENT DWORD USE32 PUBLIC 'CONST'
rdata$r	ENDS
;	COMDAT ??_R3ivfstream@@8
rdata$r	SEGMENT DWORD USE32 PUBLIC 'CONST'
rdata$r	ENDS
;	COMDAT ??_R3ITypePackBase@@8
rdata$r	SEGMENT DWORD USE32 PUBLIC 'CONST'
rdata$r	ENDS
;	COMDAT ??_R3?$CTypePack@VCShadowSprite@@@@8
rdata$r	SEGMENT DWORD USE32 PUBLIC 'CONST'
rdata$r	ENDS
;	COMDAT ??_R3?$basic_ofstream@DV?$char_traits@D@_STL@@@_STL@@8
rdata$r	SEGMENT DWORD USE32 PUBLIC 'CONST'
rdata$r	ENDS
;	COMDAT ??_R3?$basic_ifstream@DV?$char_traits@D@_STL@@@_STL@@8
rdata$r	SEGMENT DWORD USE32 PUBLIC 'CONST'
rdata$r	ENDS
;	COMDAT ??_R3IFileIO@@8
rdata$r	SEGMENT DWORD USE32 PUBLIC 'CONST'
rdata$r	ENDS
;	COMDAT ??_R2iovfs_base@@8
rdata$r	SEGMENT DWORD USE32 PUBLIC 'CONST'
rdata$r	ENDS
;	COMDAT ??_R2ovfstream@@8
rdata$r	SEGMENT DWORD USE32 PUBLIC 'CONST'
rdata$r	ENDS
;	COMDAT ??_R2ivfstream@@8
rdata$r	SEGMENT DWORD USE32 PUBLIC 'CONST'
rdata$r	ENDS
;	COMDAT ??_R2ITypePackBase@@8
rdata$r	SEGMENT DWORD USE32 PUBLIC 'CONST'
rdata$r	ENDS
;	COMDAT ??_R2?$CTypePack@VCShadowSprite@@@@8
rdata$r	SEGMENT DWORD USE32 PUBLIC 'CONST'
rdata$r	ENDS
;	COMDAT ??_R2?$basic_ofstream@DV?$char_traits@D@_STL@@@_STL@@8
rdata$r	SEGMENT DWORD USE32 PUBLIC 'CONST'
rdata$r	ENDS
;	COMDAT ??_R2?$basic_ifstream@DV?$char_traits@D@_STL@@@_STL@@8
rdata$r	SEGMENT DWORD USE32 PUBLIC 'CONST'
rdata$r	ENDS
;	COMDAT ??_R2IFileIO@@8
rdata$r	SEGMENT DWORD USE32 PUBLIC 'CONST'
rdata$r	ENDS
;	COMDAT ??_R1A@?0A@A@ovfstream@@8
rdata$r	SEGMENT DWORD USE32 PUBLIC 'CONST'
rdata$r	ENDS
;	COMDAT ??_R1A@?0A@A@iovfs_base@@8
rdata$r	SEGMENT DWORD USE32 PUBLIC 'CONST'
rdata$r	ENDS
;	COMDAT ??_R1A@?0A@A@ivfstream@@8
rdata$r	SEGMENT DWORD USE32 PUBLIC 'CONST'
rdata$r	ENDS
;	COMDAT ??_R1A@?0A@A@ITypePackBase@@8
rdata$r	SEGMENT DWORD USE32 PUBLIC 'CONST'
rdata$r	ENDS
;	COMDAT ??_R1A@?0A@A@?$CTypePack@VCShadowSprite@@@@8
rdata$r	SEGMENT DWORD USE32 PUBLIC 'CONST'
rdata$r	ENDS
;	COMDAT ??_R1A@?0A@A@?$basic_ostream@DV?$char_traits@D@_STL@@@_STL@@8
rdata$r	SEGMENT DWORD USE32 PUBLIC 'CONST'
rdata$r	ENDS
;	COMDAT ??_R0?AV?$basic_ostream@DV?$char_traits@D@_STL@@@_STL@@@8
_DATA	SEGMENT DWORD USE32 PUBLIC 'DATA'
_DATA	ENDS
;	COMDAT ??_R1A@?0A@A@?$basic_ofstream@DV?$char_traits@D@_STL@@@_STL@@8
rdata$r	SEGMENT DWORD USE32 PUBLIC 'CONST'
rdata$r	ENDS
;	COMDAT ??_R1A@A@3A@ios_base@_STL@@8
rdata$r	SEGMENT DWORD USE32 PUBLIC 'CONST'
rdata$r	ENDS
;	COMDAT ??_R0?AVios_base@_STL@@@8
_DATA	SEGMENT DWORD USE32 PUBLIC 'DATA'
_DATA	ENDS
;	COMDAT ??_R1A@A@3BA@?$basic_ios@DV?$char_traits@D@_STL@@@_STL@@8
rdata$r	SEGMENT DWORD USE32 PUBLIC 'CONST'
rdata$r	ENDS
;	COMDAT ??_R0?AV?$basic_ios@DV?$char_traits@D@_STL@@@_STL@@@8
_DATA	SEGMENT DWORD USE32 PUBLIC 'DATA'
_DATA	ENDS
;	COMDAT ??_R1A@?0A@A@?$basic_istream@DV?$char_traits@D@_STL@@@_STL@@8
rdata$r	SEGMENT DWORD USE32 PUBLIC 'CONST'
rdata$r	ENDS
;	COMDAT ??_R0?AV?$basic_istream@DV?$char_traits@D@_STL@@@_STL@@@8
_DATA	SEGMENT DWORD USE32 PUBLIC 'DATA'
_DATA	ENDS
;	COMDAT ??_R1A@?0A@A@?$basic_ifstream@DV?$char_traits@D@_STL@@@_STL@@8
rdata$r	SEGMENT DWORD USE32 PUBLIC 'CONST'
rdata$r	ENDS
;	COMDAT ??_R1A@?0A@A@IFileIO@@8
rdata$r	SEGMENT DWORD USE32 PUBLIC 'CONST'
rdata$r	ENDS
;	COMDAT ??_R0?AVovfstream@@@8
_DATA	SEGMENT DWORD USE32 PUBLIC 'DATA'
_DATA	ENDS
;	COMDAT ??_R0?AViovfs_base@@@8
_DATA	SEGMENT DWORD USE32 PUBLIC 'DATA'
_DATA	ENDS
;	COMDAT ??_R0?AVivfstream@@@8
_DATA	SEGMENT DWORD USE32 PUBLIC 'DATA'
_DATA	ENDS
;	COMDAT ??_R0?AVITypePackBase@@@8
_DATA	SEGMENT DWORD USE32 PUBLIC 'DATA'
_DATA	ENDS
;	COMDAT ??_R0?AV?$CTypePack@VCShadowSprite@@@@@8
_DATA	SEGMENT DWORD USE32 PUBLIC 'DATA'
_DATA	ENDS
;	COMDAT ??_R0?AV?$basic_ofstream@DV?$char_traits@D@_STL@@@_STL@@@8
_DATA	SEGMENT DWORD USE32 PUBLIC 'DATA'
_DATA	ENDS
;	COMDAT ??_R0?AV?$basic_ifstream@DV?$char_traits@D@_STL@@@_STL@@@8
_DATA	SEGMENT DWORD USE32 PUBLIC 'DATA'
_DATA	ENDS
;	COMDAT ??_R0?AVIFileIO@@@8
_DATA	SEGMENT DWORD USE32 PUBLIC 'DATA'
_DATA	ENDS
;	COMDAT ??_R4iovfs_base@@6B@
rdata$r	SEGMENT DWORD USE32 PUBLIC 'CONST'
rdata$r	ENDS
;	COMDAT ??_R4ovfstream@@6B@
rdata$r	SEGMENT DWORD USE32 PUBLIC 'CONST'
rdata$r	ENDS
;	COMDAT ??_R4ivfstream@@6B@
rdata$r	SEGMENT DWORD USE32 PUBLIC 'CONST'
rdata$r	ENDS
;	COMDAT ??_R4ITypePackBase@@6B@
rdata$r	SEGMENT DWORD USE32 PUBLIC 'CONST'
rdata$r	ENDS
;	COMDAT ??_R4?$CTypePack@VCShadowSprite@@@@6B@
rdata$r	SEGMENT DWORD USE32 PUBLIC 'CONST'
rdata$r	ENDS
;	COMDAT ??_R4?$basic_ofstream@DV?$char_traits@D@_STL@@@_STL@@6B@
rdata$r	SEGMENT DWORD USE32 PUBLIC 'CONST'
rdata$r	ENDS
;	COMDAT ??_R4?$basic_ifstream@DV?$char_traits@D@_STL@@@_STL@@6B@
rdata$r	SEGMENT DWORD USE32 PUBLIC 'CONST'
rdata$r	ENDS
;	COMDAT ??_R4IFileIO@@6B@
rdata$r	SEGMENT DWORD USE32 PUBLIC 'CONST'
rdata$r	ENDS
;	COMDAT ??3@YAXPAX0@Z
_TEXT	SEGMENT PARA USE32 PUBLIC 'CODE'
_TEXT	ENDS
;	COMDAT ?good@ios_base@_STL@@QBE_NXZ
_TEXT	SEGMENT PARA USE32 PUBLIC 'CODE'
_TEXT	ENDS
;	COMDAT ?_M_get_exception_mask@ios_base@_STL@@IBEHXZ
_TEXT	SEGMENT PARA USE32 PUBLIC 'CODE'
_TEXT	ENDS
;	COMDAT ?_M_setstate_nothrow@ios_base@_STL@@IAEXH@Z
_TEXT	SEGMENT PARA USE32 PUBLIC 'CODE'
_TEXT	ENDS
;	COMDAT ?_M_decr@_List_iterator_base@_STL@@QAEXXZ
_TEXT	SEGMENT PARA USE32 PUBLIC 'CODE'
_TEXT	ENDS
;	COMDAT ?pubsync@?$basic_streambuf@DV?$char_traits@D@_STL@@@_STL@@QAEHXZ
_TEXT	SEGMENT PARA USE32 PUBLIC 'CODE'
_TEXT	ENDS
;	COMDAT ?flags@ios_base@_STL@@QBEHXZ
_TEXT	SEGMENT PARA USE32 PUBLIC 'CODE'
_TEXT	ENDS
;	COMDAT ?sputn@?$basic_streambuf@DV?$char_traits@D@_STL@@@_STL@@QAEHPBDH@Z
_TEXT	SEGMENT PARA USE32 PUBLIC 'CODE'
_TEXT	ENDS
;	COMDAT ??_7?$basic_ostream@DV?$char_traits@D@_STL@@@_STL@@6B@
CONST	SEGMENT DWORD USE32 PUBLIC 'CONST'
CONST	ENDS
;	COMDAT ??_R4?$basic_ostream@DV?$char_traits@D@_STL@@@_STL@@6B@
rdata$r	SEGMENT DWORD USE32 PUBLIC 'CONST'
rdata$r	ENDS
;	COMDAT ??_R3?$basic_ostream@DV?$char_traits@D@_STL@@@_STL@@8
rdata$r	SEGMENT DWORD USE32 PUBLIC 'CONST'
rdata$r	ENDS
;	COMDAT ??_R2?$basic_ostream@DV?$char_traits@D@_STL@@@_STL@@8
rdata$r	SEGMENT DWORD USE32 PUBLIC 'CONST'
rdata$r	ENDS
;	COMDAT ??_G?$basic_ostream@DV?$char_traits@D@_STL@@@_STL@@UAEPAXI@Z
_TEXT	SEGMENT PARA USE32 PUBLIC 'CODE'
_TEXT	ENDS
;	COMDAT ??_D?$basic_ostream@DV?$char_traits@D@_STL@@@_STL@@QAEXXZ
_TEXT	SEGMENT PARA USE32 PUBLIC 'CODE'
_TEXT	ENDS
;	COMDAT ??_8?$basic_ostream@DV?$char_traits@D@_STL@@@_STL@@7B@
CONST	SEGMENT DWORD USE32 PUBLIC 'CONST'
CONST	ENDS
;	COMDAT ?_M_ctype_facet@ios_base@_STL@@QBEPBVfacet@locale@2@XZ
_TEXT	SEGMENT PARA USE32 PUBLIC 'CODE'
_TEXT	ENDS
;	COMDAT ?widen@?$ctype@D@_STL@@QBEDD@Z
_TEXT	SEGMENT PARA USE32 PUBLIC 'CODE'
_TEXT	ENDS
;	COMDAT ?grouping@?$numpunct@D@_STL@@QBE?AV?$basic_string@DV?$char_traits@D@_STL@@V?$allocator@D@2@@2@XZ
_TEXT	SEGMENT PARA USE32 PUBLIC 'CODE'
_TEXT	ENDS
;	COMDAT ??4?$basic_string@DV?$char_traits@D@_STL@@V?$allocator@D@2@@_STL@@QAEAAV01@ABV01@@Z
_TEXT	SEGMENT PARA USE32 PUBLIC 'CODE'
_TEXT	ENDS
;	COMDAT ??$assign@PAD@?$basic_string@DV?$char_traits@D@_STL@@V?$allocator@D@2@@_STL@@QAEAAV01@PAD0@Z
_TEXT	SEGMENT PARA USE32 PUBLIC 'CODE'
_TEXT	ENDS
;	COMDAT ?__page_size@_Filebuf_base@_STL@@SAIXZ
_TEXT	SEGMENT PARA USE32 PUBLIC 'CODE'
_TEXT	ENDS
;	COMDAT ?_M_write@?$basic_filebuf@DV?$char_traits@D@_STL@@@_STL@@QAE_NPADH@Z
_TEXT	SEGMENT PARA USE32 PUBLIC 'CODE'
_TEXT	ENDS
;	COMDAT ?unshift@?$codecvt@DDH@_STL@@QBE?AW4result@codecvt_base@2@AAHPAD1AAPAD@Z
_TEXT	SEGMENT PARA USE32 PUBLIC 'CODE'
_TEXT	ENDS
;	COMDAT ?uninitialized_copy@_STL@@YAPADPBD0PAD@Z
_TEXT	SEGMENT PARA USE32 PUBLIC 'CODE'
_TEXT	ENDS
;	COMDAT ?_M_deallocate_block@?$_String_base@DV?$allocator@D@_STL@@@_STL@@QAEXXZ
_TEXT	SEGMENT PARA USE32 PUBLIC 'CODE'
_TEXT	ENDS
;	COMDAT ?deallocate@?$allocator@D@_STL@@QAEXPADI@Z
_TEXT	SEGMENT PARA USE32 PUBLIC 'CODE'
_TEXT	ENDS
;	COMDAT ?_M_check_exception_mask@ios_base@_STL@@IAEXXZ
_TEXT	SEGMENT PARA USE32 PUBLIC 'CODE'
_TEXT	ENDS
;	COMDAT ?__copy_trivial@_STL@@YAPAXPBX0PAX@Z
_TEXT	SEGMENT PARA USE32 PUBLIC 'CODE'
_TEXT	ENDS
;	COMDAT ?rdstate@ios_base@_STL@@QBEHXZ
_TEXT	SEGMENT PARA USE32 PUBLIC 'CODE'
_TEXT	ENDS
;	COMDAT ??_7?$basic_ofstream@DV?$char_traits@D@_STL@@@_STL@@6B@
CONST	SEGMENT DWORD USE32 PUBLIC 'CONST'
CONST	ENDS
;	COMDAT ??1?$basic_ostream@DV?$char_traits@D@_STL@@@_STL@@UAE@XZ
_TEXT	SEGMENT PARA USE32 PUBLIC 'CODE'
_TEXT	ENDS
;	COMDAT ??_8?$basic_ofstream@DV?$char_traits@D@_STL@@@_STL@@7B@
CONST	SEGMENT DWORD USE32 PUBLIC 'CONST'
CONST	ENDS
;	COMDAT ??0_List_iterator_base@_STL@@QAE@XZ
_TEXT	SEGMENT PARA USE32 PUBLIC 'CODE'
_TEXT	ENDS
;	COMDAT ?pubseekpos@?$basic_streambuf@DV?$char_traits@D@_STL@@@_STL@@QAE?AV?$fpos@H@2@V32@H@Z
_TEXT	SEGMENT PARA USE32 PUBLIC 'CODE'
_TEXT	ENDS
;	COMDAT ?pubseekoff@?$basic_streambuf@DV?$char_traits@D@_STL@@@_STL@@QAE?AV?$fpos@H@2@JHH@Z
_TEXT	SEGMENT PARA USE32 PUBLIC 'CODE'
_TEXT	ENDS
;	COMDAT ?fail@ios_base@_STL@@QBE_NXZ
_TEXT	SEGMENT PARA USE32 PUBLIC 'CODE'
_TEXT	ENDS
;	COMDAT ??2@YAPAXIPAX@Z
_TEXT	SEGMENT PARA USE32 PUBLIC 'CODE'
_TEXT	ENDS
;	COMDAT ??0?$basic_string@DV?$char_traits@D@_STL@@V?$allocator@D@2@@_STL@@QAE@ABV01@@Z
_TEXT	SEGMENT PARA USE32 PUBLIC 'CODE'
_TEXT	ENDS
;	COMDAT ??1?$_String_base@DV?$allocator@D@_STL@@@_STL@@QAE@XZ
_TEXT	SEGMENT PARA USE32 PUBLIC 'CODE'
_TEXT	ENDS
;	COMDAT ??0?$allocator@D@_STL@@QAE@XZ
_TEXT	SEGMENT PARA USE32 PUBLIC 'CODE'
_TEXT	ENDS
;	COMDAT ??0?$basic_string@DV?$char_traits@D@_STL@@V?$allocator@D@2@@_STL@@QAE@PBDABV?$allocator@D@1@@Z
_TEXT	SEGMENT PARA USE32 PUBLIC 'CODE'
_TEXT	ENDS
;	COMDAT ??8_Rb_tree_base_iterator@_STL@@QBE_NABU01@@Z
_TEXT	SEGMENT PARA USE32 PUBLIC 'CODE'
_TEXT	ENDS
;	COMDAT ??9_Rb_tree_base_iterator@_STL@@QBE_NABU01@@Z
_TEXT	SEGMENT PARA USE32 PUBLIC 'CODE'
_TEXT	ENDS
;	COMDAT ??_7?$CTypePack@VCShadowSprite@@@@6B@
CONST	SEGMENT DWORD USE32 PUBLIC 'CONST'
CONST	ENDS
;	COMDAT ??1?$allocator@G@_STL@@QAE@XZ
_TEXT	SEGMENT PARA USE32 PUBLIC 'CODE'
_TEXT	ENDS
;	COMDAT ?precision@ios_base@_STL@@QAEHH@Z
_TEXT	SEGMENT PARA USE32 PUBLIC 'CODE'
_TEXT	ENDS
;	COMDAT ?width@ios_base@_STL@@QAEHH@Z
_TEXT	SEGMENT PARA USE32 PUBLIC 'CODE'
_TEXT	ENDS
;	COMDAT ?flags@ios_base@_STL@@QAEHH@Z
_TEXT	SEGMENT PARA USE32 PUBLIC 'CODE'
_TEXT	ENDS
;	COMDAT ?_M_clear_nothrow@ios_base@_STL@@IAEXH@Z
_TEXT	SEGMENT PARA USE32 PUBLIC 'CODE'
_TEXT	ENDS
;	COMDAT ?_M_set_exception_mask@ios_base@_STL@@IAEXH@Z
_TEXT	SEGMENT PARA USE32 PUBLIC 'CODE'
_TEXT	ENDS
;	COMDAT ??_7?$basic_ios@DV?$char_traits@D@_STL@@@_STL@@6B@
CONST	SEGMENT DWORD USE32 PUBLIC 'CONST'
CONST	ENDS
;	COMDAT ??_R4?$basic_ios@DV?$char_traits@D@_STL@@@_STL@@6B@
rdata$r	SEGMENT DWORD USE32 PUBLIC 'CONST'
rdata$r	ENDS
;	COMDAT ??_R3?$basic_ios@DV?$char_traits@D@_STL@@@_STL@@8
rdata$r	SEGMENT DWORD USE32 PUBLIC 'CONST'
rdata$r	ENDS
;	COMDAT ??_R2?$basic_ios@DV?$char_traits@D@_STL@@@_STL@@8
rdata$r	SEGMENT DWORD USE32 PUBLIC 'CONST'
rdata$r	ENDS
;	COMDAT ??_R1A@?0A@A@?$basic_ios@DV?$char_traits@D@_STL@@@_STL@@8
rdata$r	SEGMENT DWORD USE32 PUBLIC 'CONST'
rdata$r	ENDS
;	COMDAT ??_R1A@?0A@A@ios_base@_STL@@8
rdata$r	SEGMENT DWORD USE32 PUBLIC 'CONST'
rdata$r	ENDS
;	COMDAT ??_G?$basic_ios@DV?$char_traits@D@_STL@@@_STL@@UAEPAXI@Z
_TEXT	SEGMENT PARA USE32 PUBLIC 'CODE'
_TEXT	ENDS
;	COMDAT ?assign@?$char_traits@D@_STL@@SAXAADABD@Z
_TEXT	SEGMENT PARA USE32 PUBLIC 'CODE'
_TEXT	ENDS
;	COMDAT ?always_noconv@?$codecvt@DDH@_STL@@QBE_NXZ
_TEXT	SEGMENT PARA USE32 PUBLIC 'CODE'
_TEXT	ENDS
;	COMDAT ?encoding@?$codecvt@DDH@_STL@@QBEHXZ
_TEXT	SEGMENT PARA USE32 PUBLIC 'CODE'
_TEXT	ENDS
;	COMDAT ?max_length@?$codecvt@DDH@_STL@@QBEHXZ
_TEXT	SEGMENT PARA USE32 PUBLIC 'CODE'
_TEXT	ENDS
;	COMDAT ?__o_mode@_Filebuf_base@_STL@@QBEHXZ
_TEXT	SEGMENT PARA USE32 PUBLIC 'CODE'
_TEXT	ENDS
;	COMDAT ??_7?$basic_filebuf@DV?$char_traits@D@_STL@@@_STL@@6B@
CONST	SEGMENT DWORD USE32 PUBLIC 'CONST'
CONST	ENDS
;	COMDAT ??_R4?$basic_filebuf@DV?$char_traits@D@_STL@@@_STL@@6B@
rdata$r	SEGMENT DWORD USE32 PUBLIC 'CONST'
rdata$r	ENDS
;	COMDAT ??_R0?AV?$basic_filebuf@DV?$char_traits@D@_STL@@@_STL@@@8
_DATA	SEGMENT DWORD USE32 PUBLIC 'DATA'
_DATA	ENDS
;	COMDAT ??_R3?$basic_filebuf@DV?$char_traits@D@_STL@@@_STL@@8
rdata$r	SEGMENT DWORD USE32 PUBLIC 'CONST'
rdata$r	ENDS
;	COMDAT ??_R2?$basic_filebuf@DV?$char_traits@D@_STL@@@_STL@@8
rdata$r	SEGMENT DWORD USE32 PUBLIC 'CONST'
rdata$r	ENDS
;	COMDAT ??_R1A@?0A@A@?$basic_filebuf@DV?$char_traits@D@_STL@@@_STL@@8
rdata$r	SEGMENT DWORD USE32 PUBLIC 'CONST'
rdata$r	ENDS
;	COMDAT ??_R1A@?0A@A@?$basic_streambuf@DV?$char_traits@D@_STL@@@_STL@@8
rdata$r	SEGMENT DWORD USE32 PUBLIC 'CONST'
rdata$r	ENDS
;	COMDAT ??_R0?AV?$basic_streambuf@DV?$char_traits@D@_STL@@@_STL@@@8
_DATA	SEGMENT DWORD USE32 PUBLIC 'DATA'
_DATA	ENDS
;	COMDAT ??_G?$basic_filebuf@DV?$char_traits@D@_STL@@@_STL@@UAEPAXI@Z
_TEXT	SEGMENT PARA USE32 PUBLIC 'CODE'
_TEXT	ENDS
;	COMDAT ?setbuf@?$basic_filebuf@DV?$char_traits@D@_STL@@@_STL@@MAEPAV?$basic_streambuf@DV?$char_traits@D@_STL@@@2@PADH@Z
_TEXT	SEGMENT PARA USE32 PUBLIC 'CODE'
_TEXT	ENDS
;	COMDAT ?seekoff@?$basic_filebuf@DV?$char_traits@D@_STL@@@_STL@@MAE?AV?$fpos@H@2@JHH@Z
_TEXT	SEGMENT PARA USE32 PUBLIC 'CODE'
_TEXT	ENDS
;	COMDAT ?_M_in_binary_mode@_Filebuf_base@_STL@@QBE_NXZ
_TEXT	SEGMENT PARA USE32 PUBLIC 'CODE'
_TEXT	ENDS
;	COMDAT ?length@?$codecvt@DDH@_STL@@QBEHABHPBD1I@Z
_TEXT	SEGMENT PARA USE32 PUBLIC 'CODE'
_TEXT	ENDS
;	COMDAT ?in@?$codecvt@DDH@_STL@@QBE?AW4result@codecvt_base@2@AAHPBD1AAPBDPAD3AAPAD@Z
_TEXT	SEGMENT PARA USE32 PUBLIC 'CODE'
_TEXT	ENDS
;	COMDAT ?eback@?$basic_streambuf@DV?$char_traits@D@_STL@@@_STL@@IBEPADXZ
_TEXT	SEGMENT PARA USE32 PUBLIC 'CODE'
_TEXT	ENDS
;	COMDAT ?_FILE_I_begin@_STL@@YAPADPBU_iobuf@@@Z
_TEXT	SEGMENT PARA USE32 PUBLIC 'CODE'
_TEXT	ENDS
;	COMDAT ?gptr@?$basic_streambuf@DV?$char_traits@D@_STL@@@_STL@@IBEPADXZ
_TEXT	SEGMENT PARA USE32 PUBLIC 'CODE'
_TEXT	ENDS
;	COMDAT ?_FILE_I_next@_STL@@YAPADPBU_iobuf@@@Z
_TEXT	SEGMENT PARA USE32 PUBLIC 'CODE'
_TEXT	ENDS
;	COMDAT ?_M_get_offset@_Filebuf_base@_STL@@QAEJPAD0@Z
_TEXT	SEGMENT PARA USE32 PUBLIC 'CODE'
_TEXT	ENDS
;	COMDAT ??$count@PADD@_STL@@YAHPAD0ABD@Z
_TEXT	SEGMENT PARA USE32 PUBLIC 'CODE'
_TEXT	ENDS
;	COMDAT ?seekpos@?$basic_filebuf@DV?$char_traits@D@_STL@@@_STL@@MAE?AV?$fpos@H@2@V32@H@Z
_TEXT	SEGMENT PARA USE32 PUBLIC 'CODE'
_TEXT	ENDS
;	COMDAT ?sync@?$basic_filebuf@DV?$char_traits@D@_STL@@@_STL@@MAEHXZ
_TEXT	SEGMENT PARA USE32 PUBLIC 'CODE'
_TEXT	ENDS
;	COMDAT ?showmanyc@?$basic_filebuf@DV?$char_traits@D@_STL@@@_STL@@MAEHXZ
_TEXT	SEGMENT PARA USE32 PUBLIC 'CODE'
_TEXT	ENDS
;	COMDAT ?egptr@?$basic_streambuf@DV?$char_traits@D@_STL@@@_STL@@IBEPADXZ
_TEXT	SEGMENT PARA USE32 PUBLIC 'CODE'
_TEXT	ENDS
;	COMDAT ?_FILE_I_end@_STL@@YAPADPBU_iobuf@@@Z
_TEXT	SEGMENT PARA USE32 PUBLIC 'CODE'
_TEXT	ENDS
;	COMDAT ?underflow@?$basic_filebuf@DV?$char_traits@D@_STL@@@_STL@@MAEHXZ
_TEXT	SEGMENT PARA USE32 PUBLIC 'CODE'
_TEXT	ENDS
;	COMDAT ?pbackfail@?$basic_filebuf@DV?$char_traits@D@_STL@@@_STL@@MAEHH@Z
_TEXT	SEGMENT PARA USE32 PUBLIC 'CODE'
_TEXT	ENDS
;	COMDAT ?gbump@?$basic_streambuf@DV?$char_traits@D@_STL@@@_STL@@IAEXH@Z
_TEXT	SEGMENT PARA USE32 PUBLIC 'CODE'
_TEXT	ENDS
;	COMDAT ?_FILE_I_bump@_STL@@YAXPAU_iobuf@@H@Z
_TEXT	SEGMENT PARA USE32 PUBLIC 'CODE'
_TEXT	ENDS
;	COMDAT ?to_int_type@?$char_traits@D@_STL@@SAHABD@Z
_TEXT	SEGMENT PARA USE32 PUBLIC 'CODE'
_TEXT	ENDS
;	COMDAT ?to_char_type@?$char_traits@D@_STL@@SADABH@Z
_TEXT	SEGMENT PARA USE32 PUBLIC 'CODE'
_TEXT	ENDS
;	COMDAT ?overflow@?$basic_filebuf@DV?$char_traits@D@_STL@@@_STL@@MAEHH@Z
_TEXT	SEGMENT PARA USE32 PUBLIC 'CODE'
_TEXT	ENDS
;	COMDAT ?pptr@?$basic_streambuf@DV?$char_traits@D@_STL@@@_STL@@IBEPADXZ
_TEXT	SEGMENT PARA USE32 PUBLIC 'CODE'
_TEXT	ENDS
;	COMDAT ?_FILE_O_next@_STL@@YAPADPBU_iobuf@@@Z
_TEXT	SEGMENT PARA USE32 PUBLIC 'CODE'
_TEXT	ENDS
;	COMDAT ?out@?$codecvt@DDH@_STL@@QBE?AW4result@codecvt_base@2@AAHPBD1AAPBDPAD3AAPAD@Z
_TEXT	SEGMENT PARA USE32 PUBLIC 'CODE'
_TEXT	ENDS
;	COMDAT ?_M_doit@?$_Noconv_output@V?$char_traits@D@_STL@@@_STL@@SA_NPAV?$basic_filebuf@DV?$char_traits@D@_STL@@@2@PAD1@Z
_TEXT	SEGMENT PARA USE32 PUBLIC 'CODE'
_TEXT	ENDS
;	COMDAT ?imbue@?$basic_filebuf@DV?$char_traits@D@_STL@@@_STL@@MAEXABVlocale@2@@Z
_TEXT	SEGMENT PARA USE32 PUBLIC 'CODE'
_TEXT	ENDS
;	COMDAT ??0?$basic_streambuf@DV?$char_traits@D@_STL@@@_STL@@IAE@XZ
_TEXT	SEGMENT PARA USE32 PUBLIC 'CODE'
_TEXT	ENDS
;	COMDAT ??_7?$basic_streambuf@DV?$char_traits@D@_STL@@@_STL@@6B@
CONST	SEGMENT DWORD USE32 PUBLIC 'CONST'
CONST	ENDS
;	COMDAT ??_R4?$basic_streambuf@DV?$char_traits@D@_STL@@@_STL@@6B@
rdata$r	SEGMENT DWORD USE32 PUBLIC 'CONST'
rdata$r	ENDS
;	COMDAT ??_R3?$basic_streambuf@DV?$char_traits@D@_STL@@@_STL@@8
rdata$r	SEGMENT DWORD USE32 PUBLIC 'CONST'
rdata$r	ENDS
;	COMDAT ??_R2?$basic_streambuf@DV?$char_traits@D@_STL@@@_STL@@8
rdata$r	SEGMENT DWORD USE32 PUBLIC 'CONST'
rdata$r	ENDS
;	COMDAT ??_G?$basic_streambuf@DV?$char_traits@D@_STL@@@_STL@@UAEPAXI@Z
_TEXT	SEGMENT PARA USE32 PUBLIC 'CODE'
_TEXT	ENDS
;	COMDAT ??0_STLP_mutex@_STL@@QAE@XZ
_TEXT	SEGMENT PARA USE32 PUBLIC 'CODE'
_TEXT	ENDS
;	COMDAT ?_M_initialize@_STLP_mutex_base@_STL@@QAEXXZ
_TEXT	SEGMENT PARA USE32 PUBLIC 'CODE'
_TEXT	ENDS
;	COMDAT ??1_STLP_mutex@_STL@@QAE@XZ
_TEXT	SEGMENT PARA USE32 PUBLIC 'CODE'
_TEXT	ENDS
;	COMDAT ?_M_destroy@_STLP_mutex_base@_STL@@QAEXXZ
_TEXT	SEGMENT PARA USE32 PUBLIC 'CODE'
_TEXT	ENDS
;	COMDAT ?_FILE_I_set@_STL@@YAXPAU_iobuf@@PAD11@Z
_TEXT	SEGMENT PARA USE32 PUBLIC 'CODE'
_TEXT	ENDS
;	COMDAT ?_FILE_O_set@_STL@@YAXPAU_iobuf@@PAD11@Z
_TEXT	SEGMENT PARA USE32 PUBLIC 'CODE'
_TEXT	ENDS
;	COMDAT ?deallocate@?$__node_alloc@$00$0A@@_STL@@SAXPAXI@Z
_TEXT	SEGMENT PARA USE32 PUBLIC 'CODE'
_TEXT	ENDS
;	COMDAT ?__stl_delete@_STL@@YAXPAX@Z
_TEXT	SEGMENT PARA USE32 PUBLIC 'CODE'
_TEXT	ENDS
;	COMDAT ?_Destroy@_STL@@YAXPAD0@Z
_TEXT	SEGMENT PARA USE32 PUBLIC 'CODE'
_TEXT	ENDS
;	COMDAT ??0_List_iterator_base@_STL@@QAE@PAU_List_node_base@1@@Z
_TEXT	SEGMENT PARA USE32 PUBLIC 'CODE'
_TEXT	ENDS
;	COMDAT ??_7?$basic_istream@DV?$char_traits@D@_STL@@@_STL@@6B@
CONST	SEGMENT DWORD USE32 PUBLIC 'CONST'
CONST	ENDS
;	COMDAT ??_R4?$basic_istream@DV?$char_traits@D@_STL@@@_STL@@6B@
rdata$r	SEGMENT DWORD USE32 PUBLIC 'CONST'
rdata$r	ENDS
;	COMDAT ??_R3?$basic_istream@DV?$char_traits@D@_STL@@@_STL@@8
rdata$r	SEGMENT DWORD USE32 PUBLIC 'CONST'
rdata$r	ENDS
;	COMDAT ??_R2?$basic_istream@DV?$char_traits@D@_STL@@@_STL@@8
rdata$r	SEGMENT DWORD USE32 PUBLIC 'CONST'
rdata$r	ENDS
;	COMDAT ??_G?$basic_istream@DV?$char_traits@D@_STL@@@_STL@@UAEPAXI@Z
_TEXT	SEGMENT PARA USE32 PUBLIC 'CODE'
_TEXT	ENDS
;	COMDAT ??_D?$basic_istream@DV?$char_traits@D@_STL@@@_STL@@QAEXXZ
_TEXT	SEGMENT PARA USE32 PUBLIC 'CODE'
_TEXT	ENDS
;	COMDAT ??_8?$basic_istream@DV?$char_traits@D@_STL@@@_STL@@7B@
CONST	SEGMENT DWORD USE32 PUBLIC 'CONST'
CONST	ENDS
;	COMDAT ?_M_incr@_List_iterator_base@_STL@@QAEXXZ
_TEXT	SEGMENT PARA USE32 PUBLIC 'CODE'
_TEXT	ENDS
;	COMDAT ??1?$basic_filebuf@DV?$char_traits@D@_STL@@@_STL@@UAE@XZ
_TEXT	SEGMENT PARA USE32 PUBLIC 'CODE'
_TEXT	ENDS
;	COMDAT ??_7?$basic_ifstream@DV?$char_traits@D@_STL@@@_STL@@6B@
CONST	SEGMENT DWORD USE32 PUBLIC 'CONST'
CONST	ENDS
;	COMDAT ??1?$basic_istream@DV?$char_traits@D@_STL@@@_STL@@UAE@XZ
_TEXT	SEGMENT PARA USE32 PUBLIC 'CODE'
_TEXT	ENDS
;	COMDAT ??_8?$basic_ifstream@DV?$char_traits@D@_STL@@@_STL@@7B@
CONST	SEGMENT DWORD USE32 PUBLIC 'CONST'
CONST	ENDS
;	COMDAT ?setp@?$basic_streambuf@DV?$char_traits@D@_STL@@@_STL@@IAEXPAD0@Z
_TEXT	SEGMENT PARA USE32 PUBLIC 'CODE'
_TEXT	ENDS
;	COMDAT ?setg@?$basic_streambuf@DV?$char_traits@D@_STL@@@_STL@@IAEXPAD00@Z
_TEXT	SEGMENT PARA USE32 PUBLIC 'CODE'
_TEXT	ENDS
;	COMDAT ?__is_open@_Filebuf_base@_STL@@QBE_NXZ
_TEXT	SEGMENT PARA USE32 PUBLIC 'CODE'
_TEXT	ENDS
;	COMDAT ?allocate@?$__node_alloc@$00$0A@@_STL@@SAPAXI@Z
_TEXT	SEGMENT PARA USE32 PUBLIC 'CODE'
_TEXT	ENDS
;	COMDAT ?__stl_new@_STL@@YAPAXI@Z
_TEXT	SEGMENT PARA USE32 PUBLIC 'CODE'
_TEXT	ENDS
;	COMDAT ??1?$_STLP_alloc_proxy@PADDV?$allocator@D@_STL@@@_STL@@QAE@XZ
_TEXT	SEGMENT PARA USE32 PUBLIC 'CODE'
_TEXT	ENDS
;	COMDAT ?length@?$char_traits@D@_STL@@SAIPBD@Z
_TEXT	SEGMENT PARA USE32 PUBLIC 'CODE'
_TEXT	ENDS
;	COMDAT ??1?$allocator@D@_STL@@QAE@XZ
_TEXT	SEGMENT PARA USE32 PUBLIC 'CODE'
_TEXT	ENDS
;	COMDAT ?eof@?$__char_traits_base@DH@_STL@@SAHXZ
_TEXT	SEGMENT PARA USE32 PUBLIC 'CODE'
_TEXT	ENDS
;	COMDAT ??9_List_iterator_base@_STL@@QBE_NABU01@@Z
_TEXT	SEGMENT PARA USE32 PUBLIC 'CODE'
_TEXT	ENDS
;	COMDAT ??1?$basic_ios@DV?$char_traits@D@_STL@@@_STL@@UAE@XZ
_TEXT	SEGMENT PARA USE32 PUBLIC 'CODE'
_TEXT	ENDS
;	COMDAT ??_7ITypePackBase@@6B@
CONST	SEGMENT DWORD USE32 PUBLIC 'CONST'
CONST	ENDS
;	COMDAT ??_7ovfstream@@6B@
CONST	SEGMENT DWORD USE32 PUBLIC 'CONST'
CONST	ENDS
;	COMDAT ??_7ivfstream@@6B@
CONST	SEGMENT DWORD USE32 PUBLIC 'CONST'
CONST	ENDS
;	COMDAT ??0?$basic_string@DV?$char_traits@D@_STL@@V?$allocator@D@2@@_STL@@QAE@XZ
_TEXT	SEGMENT PARA USE32 PUBLIC 'CODE'
_TEXT	ENDS
;	COMDAT ??1?$basic_string@DV?$char_traits@D@_STL@@V?$allocator@D@2@@_STL@@QAE@XZ
_TEXT	SEGMENT PARA USE32 PUBLIC 'CODE'
_TEXT	ENDS
;	COMDAT ??_7iovfs_base@@6B@
CONST	SEGMENT DWORD USE32 PUBLIC 'CONST'
CONST	ENDS
;	COMDAT ??_7IFileIO@@6B@
CONST	SEGMENT DWORD USE32 PUBLIC 'CONST'
CONST	ENDS
sxdata	SEGMENT DWORD USE32 'SXDATA'
sxdata	ENDS
FLAT	GROUP _DATA, CONST, _BSS
	ASSUME	CS: FLAT, DS: FLAT, SS: FLAT
endif

INCLUDELIB LIBCMT
INCLUDELIB OLDNAMES

PUBLIC	??_C@_0O@JKENFCBN@MinTrace?52003?$AA@		; `string'
PUBLIC	??_C@_0BE@MNEJIGLM@__MinTrace?5Window__?$AA@	; `string'
;	COMDAT ??_C@_0O@JKENFCBN@MinTrace?52003?$AA@
CONST	SEGMENT
??_C@_0O@JKENFCBN@MinTrace?52003?$AA@ DB 'MinTrace 2003', 00H ; `string'
CONST	ENDS
_DATA	SEGMENT
_g_pszMinTraceTitle DD FLAT:??_C@_0O@JKENFCBN@MinTrace?52003?$AA@
_DATA	ENDS
;	COMDAT ??_C@_0BE@MNEJIGLM@__MinTrace?5Window__?$AA@
CONST	SEGMENT
??_C@_0BE@MNEJIGLM@__MinTrace?5Window__?$AA@ DB '__MinTrace Window__', 00H ; `string'
CONST	ENDS
_DATA	SEGMENT
_g_pszMinTraceClassName DD FLAT:??_C@_0BE@MNEJIGLM@__MinTrace?5Window__?$AA@
_DATA	ENDS
PUBLIC	??2@YAPAXIPAX@Z					; operator new
; Function compile flags: /Ogsy
; File c:\program files\microsoft visual studio .net 2003\vc7\include\new
;	COMDAT ??2@YAPAXIPAX@Z
_TEXT	SEGMENT
___formal$ = 8						; size = 4
__Where$ = 12						; size = 4
??2@YAPAXIPAX@Z PROC NEAR				; operator new, COMDAT

; 64   : 	return (_Where);

  00000	8b 44 24 08	 mov	 eax, DWORD PTR __Where$[esp-4]

; 65   : 	}

  00004	c3		 ret	 0
??2@YAPAXIPAX@Z ENDP					; operator new
_TEXT	ENDS
PUBLIC	?__stl_new@_STL@@YAPAXI@Z			; _STL::__stl_new
EXTRN	??2@YAPAXI@Z:NEAR				; operator new
; Function compile flags: /Ogsy
; File c:\stlport-4.6.1\stlport\stl\_new.h
;	COMDAT ?__stl_new@_STL@@YAPAXI@Z
_TEXT	SEGMENT
___n$ = 8						; size = 4
?__stl_new@_STL@@YAPAXI@Z PROC NEAR			; _STL::__stl_new, COMDAT

; 86   : inline void*  _STLP_CALL __stl_new(size_t __n)   { _STLP_CHECK_NULL_ALLOC(::operator _STLP_NEW(__n)); }

  00000	e9 00 00 00 00	 jmp	 ??2@YAPAXI@Z		; operator new
?__stl_new@_STL@@YAPAXI@Z ENDP				; _STL::__stl_new
_TEXT	ENDS
PUBLIC	?__stl_delete@_STL@@YAXPAX@Z			; _STL::__stl_delete
EXTRN	??3@YAXPAX@Z:NEAR				; operator delete
; Function compile flags: /Ogsy
;	COMDAT ?__stl_delete@_STL@@YAXPAX@Z
_TEXT	SEGMENT
___p$ = 8						; size = 4
?__stl_delete@_STL@@YAXPAX@Z PROC NEAR			; _STL::__stl_delete, COMDAT

; 87   : inline void   _STLP_CALL __stl_delete(void* __p) { ::operator delete(__p); }

  00000	e9 00 00 00 00	 jmp	 ??3@YAXPAX@Z		; operator delete
?__stl_delete@_STL@@YAXPAX@Z ENDP			; _STL::__stl_delete
_TEXT	ENDS
PUBLIC	?_M_initialize@_STLP_mutex_base@_STL@@QAEXXZ	; _STL::_STLP_mutex_base::_M_initialize
; Function compile flags: /Ogsy
; File c:\stlport-4.6.1\stlport\stl\_threads.h
;	COMDAT ?_M_initialize@_STLP_mutex_base@_STL@@QAEXXZ
_TEXT	SEGMENT
?_M_initialize@_STLP_mutex_base@_STL@@QAEXXZ PROC NEAR	; _STL::_STLP_mutex_base::_M_initialize, COMDAT
; _this$ = ecx

; 321  :   inline void _M_initialize() { _M_lock=0; }

  00000	c7 01 00 00 00
	00		 mov	 DWORD PTR [ecx], 0
  00006	c3		 ret	 0
?_M_initialize@_STLP_mutex_base@_STL@@QAEXXZ ENDP	; _STL::_STLP_mutex_base::_M_initialize
_TEXT	ENDS
PUBLIC	?_M_destroy@_STLP_mutex_base@_STL@@QAEXXZ	; _STL::_STLP_mutex_base::_M_destroy
; Function compile flags: /Ogsy
;	COMDAT ?_M_destroy@_STLP_mutex_base@_STL@@QAEXXZ
_TEXT	SEGMENT
?_M_destroy@_STLP_mutex_base@_STL@@QAEXXZ PROC NEAR	; _STL::_STLP_mutex_base::_M_destroy, COMDAT
; _this$ = ecx

; 322  :   inline void _M_destroy() {}

  00000	c3		 ret	 0
?_M_destroy@_STLP_mutex_base@_STL@@QAEXXZ ENDP		; _STL::_STLP_mutex_base::_M_destroy
_TEXT	ENDS
PUBLIC	??0_STLP_mutex@_STL@@QAE@XZ			; _STL::_STLP_mutex::_STLP_mutex
; Function compile flags: /Ogsy
;	COMDAT ??0_STLP_mutex@_STL@@QAE@XZ
_TEXT	SEGMENT
??0_STLP_mutex@_STL@@QAE@XZ PROC NEAR			; _STL::_STLP_mutex::_STLP_mutex, COMDAT
; _this$ = ecx

; 467  :     inline _STLP_mutex () { _M_initialize(); }

  00000	8b c1		 mov	 eax, ecx
  00002	c7 00 00 00 00
	00		 mov	 DWORD PTR [eax], 0
  00008	c3		 ret	 0
??0_STLP_mutex@_STL@@QAE@XZ ENDP			; _STL::_STLP_mutex::_STLP_mutex
_TEXT	ENDS
PUBLIC	??1_STLP_mutex@_STL@@QAE@XZ			; _STL::_STLP_mutex::~_STLP_mutex
; Function compile flags: /Ogsy
;	COMDAT ??1_STLP_mutex@_STL@@QAE@XZ
_TEXT	SEGMENT
??1_STLP_mutex@_STL@@QAE@XZ PROC NEAR			; _STL::_STLP_mutex::~_STLP_mutex, COMDAT
; _this$ = ecx

; 468  :     inline ~_STLP_mutex () { _M_destroy(); }

  00000	c3		 ret	 0
??1_STLP_mutex@_STL@@QAE@XZ ENDP			; _STL::_STLP_mutex::~_STLP_mutex
_TEXT	ENDS
PUBLIC	?_Destroy@_STL@@YAXPAD0@Z			; _STL::_Destroy
; Function compile flags: /Ogsy
; File c:\stlport-4.6.1\stlport\stl\_construct.h
;	COMDAT ?_Destroy@_STL@@YAXPAD0@Z
_TEXT	SEGMENT
___formal$ = 8						; size = 4
___formal$ = 12						; size = 4
?_Destroy@_STL@@YAXPAD0@Z PROC NEAR			; _STL::_Destroy, COMDAT

; 142  : inline void _Destroy(char*, char*) {}

  00000	c3		 ret	 0
?_Destroy@_STL@@YAXPAD0@Z ENDP				; _STL::_Destroy
_TEXT	ENDS
PUBLIC	?__copy_trivial@_STL@@YAPAXPBX0PAX@Z		; _STL::__copy_trivial
EXTRN	_memmove:NEAR
; Function compile flags: /Ogsy
; File c:\stlport-4.6.1\stlport\stl\_algobase.h
;	COMDAT ?__copy_trivial@_STL@@YAPAXPBX0PAX@Z
_TEXT	SEGMENT
___first$ = 8						; size = 4
___last$ = 12						; size = 4
___result$ = 16						; size = 4
?__copy_trivial@_STL@@YAPAXPBX0PAX@Z PROC NEAR		; _STL::__copy_trivial, COMDAT

; 147  : __copy_trivial(const void* __first, const void* __last, void* __result) {

  00000	55		 push	 ebp
  00001	8b ec		 mov	 ebp, esp
  00003	56		 push	 esi

; 148  :   return (__last == __first) ? __result : 
; 149  :     ((char*)memmove(__result, __first, ((const char*)__last - (const char*)__first))) + 
; 150  :     ((const char*)__last - (const char*)__first);

  00004	8b 75 0c	 mov	 esi, DWORD PTR ___last$[ebp]
  00007	3b 75 08	 cmp	 esi, DWORD PTR ___first$[ebp]
  0000a	75 05		 jne	 SHORT $L115192
  0000c	8b 45 10	 mov	 eax, DWORD PTR ___result$[ebp]
  0000f	eb 14		 jmp	 SHORT $L115193
$L115192:
  00011	2b 75 08	 sub	 esi, DWORD PTR ___first$[ebp]
  00014	56		 push	 esi
  00015	ff 75 08	 push	 DWORD PTR ___first$[ebp]
  00018	ff 75 10	 push	 DWORD PTR ___result$[ebp]
  0001b	e8 00 00 00 00	 call	 _memmove
  00020	83 c4 0c	 add	 esp, 12			; 0000000cH
  00023	03 c6		 add	 eax, esi
$L115193:
  00025	5e		 pop	 esi

; 151  : }

  00026	5d		 pop	 ebp
  00027	c3		 ret	 0
?__copy_trivial@_STL@@YAPAXPBX0PAX@Z ENDP		; _STL::__copy_trivial
_TEXT	ENDS
PUBLIC	?assign@?$char_traits@D@_STL@@SAXAADABD@Z	; _STL::char_traits<char>::assign
; Function compile flags: /Ogsy
; File c:\stlport-4.6.1\stlport\stl\char_traits.h
;	COMDAT ?assign@?$char_traits@D@_STL@@SAXAADABD@Z
_TEXT	SEGMENT
___c1$ = 8						; size = 4
___c2$ = 12						; size = 4
?assign@?$char_traits@D@_STL@@SAXAADABD@Z PROC NEAR	; _STL::char_traits<char>::assign, COMDAT

; 240  :   static void _STLP_CALL assign(char& __c1, const char& __c2) { __c1 = __c2; }

  00000	8b 44 24 08	 mov	 eax, DWORD PTR ___c2$[esp-4]
  00004	8a 00		 mov	 al, BYTE PTR [eax]
  00006	8b 4c 24 04	 mov	 ecx, DWORD PTR ___c1$[esp-4]
  0000a	88 01		 mov	 BYTE PTR [ecx], al
  0000c	c3		 ret	 0
?assign@?$char_traits@D@_STL@@SAXAADABD@Z ENDP		; _STL::char_traits<char>::assign
_TEXT	ENDS
PUBLIC	?widen@?$ctype@D@_STL@@QBEDD@Z			; _STL::ctype<char>::widen
; Function compile flags: /Ogsy
; File c:\stlport-4.6.1\stlport\stl\_ctype.h
;	COMDAT ?widen@?$ctype@D@_STL@@QBEDD@Z
_TEXT	SEGMENT
___c$ = 8						; size = 1
?widen@?$ctype@D@_STL@@QBEDD@Z PROC NEAR		; _STL::ctype<char>::widen, COMDAT
; _this$ = ecx

; 102  :   char        widen(char __c) const { return do_widen(__c); }

  00000	8b 01		 mov	 eax, DWORD PTR [ecx]
  00002	ff 60 18	 jmp	 DWORD PTR [eax+24]
?widen@?$ctype@D@_STL@@QBEDD@Z ENDP			; _STL::ctype<char>::widen
_TEXT	ENDS
PUBLIC	?IsTexturePow2@CDirect3D@@SA_NXZ		; CDirect3D::IsTexturePow2
EXTRN	?m_bTexturePow2@CDirect3D@@1_NA:BYTE		; CDirect3D::m_bTexturePow2
; Function compile flags: /Ogsy
; File c:\darkeden\designed_common\project\client\d3dlib\cdirect3d.h
;	COMDAT ?IsTexturePow2@CDirect3D@@SA_NXZ
_TEXT	SEGMENT
?IsTexturePow2@CDirect3D@@SA_NXZ PROC NEAR		; CDirect3D::IsTexturePow2, COMDAT

; 66   : 		static bool		IsTexturePow2()			{ return m_bTexturePow2; }

  00000	a0 00 00 00 00	 mov	 al, BYTE PTR ?m_bTexturePow2@CDirect3D@@1_NA ; CDirect3D::m_bTexturePow2
  00005	c3		 ret	 0
?IsTexturePow2@CDirect3D@@SA_NXZ ENDP			; CDirect3D::IsTexturePow2
_TEXT	ENDS
PUBLIC	?IsTextureSquareOnly@CDirect3D@@SA_NXZ		; CDirect3D::IsTextureSquareOnly
EXTRN	?m_bTextureSquareOnly@CDirect3D@@1_NA:BYTE	; CDirect3D::m_bTextureSquareOnly
; Function compile flags: /Ogsy
;	COMDAT ?IsTextureSquareOnly@CDirect3D@@SA_NXZ
_TEXT	SEGMENT
?IsTextureSquareOnly@CDirect3D@@SA_NXZ PROC NEAR	; CDirect3D::IsTextureSquareOnly, COMDAT

; 67   : 		static bool		IsTextureSquareOnly()	{ return m_bTextureSquareOnly; }

  00000	a0 00 00 00 00	 mov	 al, BYTE PTR ?m_bTextureSquareOnly@CDirect3D@@1_NA ; CDirect3D::m_bTextureSquareOnly
  00005	c3		 ret	 0
?IsTextureSquareOnly@CDirect3D@@SA_NXZ ENDP		; CDirect3D::IsTextureSquareOnly
_TEXT	ENDS
PUBLIC	?GetPixelFormat4444@CDirect3D@@SAQAU_DDPIXELFORMAT@@XZ ; CDirect3D::GetPixelFormat4444
EXTRN	?m_PixelFormat4444@CDirect3D@@2U_DDPIXELFORMAT@@A:BYTE ; CDirect3D::m_PixelFormat4444
; Function compile flags: /Ogsy
;	COMDAT ?GetPixelFormat4444@CDirect3D@@SAQAU_DDPIXELFORMAT@@XZ
_TEXT	SEGMENT
?GetPixelFormat4444@CDirect3D@@SAQAU_DDPIXELFORMAT@@XZ PROC NEAR ; CDirect3D::GetPixelFormat4444, COMDAT

; 69   : 		static const LPDDPIXELFORMAT	GetPixelFormat4444() { return &m_PixelFormat4444; }

  00000	b8 00 00 00 00	 mov	 eax, OFFSET FLAT:?m_PixelFormat4444@CDirect3D@@2U_DDPIXELFORMAT@@A ; CDirect3D::m_PixelFormat4444
  00005	c3		 ret	 0
?GetPixelFormat4444@CDirect3D@@SAQAU_DDPIXELFORMAT@@XZ ENDP ; CDirect3D::GetPixelFormat4444
_TEXT	ENDS
PUBLIC	?flags@ios_base@_STL@@QAEHH@Z			; _STL::ios_base::flags
; Function compile flags: /Ogsy
; File c:\stlport-4.6.1\stlport\stl\_ios_base.h
;	COMDAT ?flags@ios_base@_STL@@QAEHH@Z
_TEXT	SEGMENT
___flags$ = 8						; size = 4
?flags@ios_base@_STL@@QAEHH@Z PROC NEAR			; _STL::ios_base::flags, COMDAT
; _this$ = ecx

; 117  :     fmtflags __tmp = _M_fmtflags;
; 118  :     _M_fmtflags = __flags;

  00000	8b 54 24 04	 mov	 edx, DWORD PTR ___flags$[esp-4]
  00004	8b 41 04	 mov	 eax, DWORD PTR [ecx+4]
  00007	89 51 04	 mov	 DWORD PTR [ecx+4], edx

; 119  :     return __tmp;
; 120  :   }

  0000a	c2 04 00	 ret	 4
?flags@ios_base@_STL@@QAEHH@Z ENDP			; _STL::ios_base::flags
_TEXT	ENDS
PUBLIC	?GetSurfacePointer@CDirectDrawSurface@@QAEPAXXZ	; CDirectDrawSurface::GetSurfacePointer
EXTRN	?m_ddsd@CDirectDraw@@1U_DDSURFACEDESC2@@A:BYTE	; CDirectDraw::m_ddsd
; Function compile flags: /Ogsy
; File c:\darkeden\designed_common\project\client\cdirectdrawsurface.h
;	COMDAT ?GetSurfacePointer@CDirectDrawSurface@@QAEPAXXZ
_TEXT	SEGMENT
?GetSurfacePointer@CDirectDrawSurface@@QAEPAXXZ PROC NEAR ; CDirectDrawSurface::GetSurfacePointer, COMDAT
; _this$ = ecx

; 125  : 	inline void *	GetSurfacePointer() { return m_ddsd.lpSurface; }

  00000	a1 24 00 00 00	 mov	 eax, DWORD PTR ?m_ddsd@CDirectDraw@@1U_DDSURFACEDESC2@@A+36
  00005	c3		 ret	 0
?GetSurfacePointer@CDirectDrawSurface@@QAEPAXXZ ENDP	; CDirectDrawSurface::GetSurfacePointer
_TEXT	ENDS
PUBLIC	?GetSurfacePitch@CDirectDrawSurface@@QAEJXZ	; CDirectDrawSurface::GetSurfacePitch
; Function compile flags: /Ogsy
;	COMDAT ?GetSurfacePitch@CDirectDrawSurface@@QAEJXZ
_TEXT	SEGMENT
?GetSurfacePitch@CDirectDrawSurface@@QAEJXZ PROC NEAR	; CDirectDrawSurface::GetSurfacePitch, COMDAT
; _this$ = ecx

; 126  : 	inline long		GetSurfacePitch() { return m_ddsd.lPitch; }

  00000	a1 10 00 00 00	 mov	 eax, DWORD PTR ?m_ddsd@CDirectDraw@@1U_DDSURFACEDESC2@@A+16
  00005	c3		 ret	 0
?GetSurfacePitch@CDirectDrawSurface@@QAEJXZ ENDP	; CDirectDrawSurface::GetSurfacePitch
_TEXT	ENDS
PUBLIC	?GetHeight@CDirectDrawSurface@@QBEHXZ		; CDirectDrawSurface::GetHeight
; Function compile flags: /Ogsy
;	COMDAT ?GetHeight@CDirectDrawSurface@@QBEHXZ
_TEXT	SEGMENT
?GetHeight@CDirectDrawSurface@@QBEHXZ PROC NEAR		; CDirectDrawSurface::GetHeight, COMDAT
; _this$ = ecx

; 130  : 	inline int		GetHeight() const	{ return m_Height; } // no const...

  00000	8b 41 08	 mov	 eax, DWORD PTR [ecx+8]
  00003	c3		 ret	 0
?GetHeight@CDirectDrawSurface@@QBEHXZ ENDP		; CDirectDrawSurface::GetHeight
_TEXT	ENDS
PUBLIC	?precision@ios_base@_STL@@QAEHH@Z		; _STL::ios_base::precision
; Function compile flags: /Ogsy
; File c:\stlport-4.6.1\stlport\stl\_ios_base.h
;	COMDAT ?precision@ios_base@_STL@@QAEHH@Z
_TEXT	SEGMENT
___newprecision$ = 8					; size = 4
?precision@ios_base@_STL@@QAEHH@Z PROC NEAR		; _STL::ios_base::precision, COMDAT
; _this$ = ecx

; 137  :     streamsize __tmp = _M_precision;
; 138  :     _M_precision = __newprecision;

  00000	8b 54 24 04	 mov	 edx, DWORD PTR ___newprecision$[esp-4]
  00004	8b 41 18	 mov	 eax, DWORD PTR [ecx+24]
  00007	89 51 18	 mov	 DWORD PTR [ecx+24], edx

; 139  :     return __tmp;
; 140  :   }

  0000a	c2 04 00	 ret	 4
?precision@ios_base@_STL@@QAEHH@Z ENDP			; _STL::ios_base::precision
_TEXT	ENDS
PUBLIC	?width@ios_base@_STL@@QAEHH@Z			; _STL::ios_base::width
; Function compile flags: /Ogsy
;	COMDAT ?width@ios_base@_STL@@QAEHH@Z
_TEXT	SEGMENT
___newwidth$ = 8					; size = 4
?width@ios_base@_STL@@QAEHH@Z PROC NEAR			; _STL::ios_base::width, COMDAT
; _this$ = ecx

; 144  :     streamsize __tmp = _M_width;
; 145  :     _M_width = __newwidth;

  00000	8b 54 24 04	 mov	 edx, DWORD PTR ___newwidth$[esp-4]
  00004	8b 41 1c	 mov	 eax, DWORD PTR [ecx+28]
  00007	89 51 1c	 mov	 DWORD PTR [ecx+28], edx

; 146  :     return __tmp;
; 147  :   }

  0000a	c2 04 00	 ret	 4
?width@ios_base@_STL@@QAEHH@Z ENDP			; _STL::ios_base::width
_TEXT	ENDS
PUBLIC	?_M_clear_nothrow@ios_base@_STL@@IAEXH@Z	; _STL::ios_base::_M_clear_nothrow
; Function compile flags: /Ogsy
;	COMDAT ?_M_clear_nothrow@ios_base@_STL@@IAEXH@Z
_TEXT	SEGMENT
___state$ = 8						; size = 4
?_M_clear_nothrow@ios_base@_STL@@IAEXH@Z PROC NEAR	; _STL::ios_base::_M_clear_nothrow, COMDAT
; _this$ = ecx

; 194  :   void _M_clear_nothrow(iostate __state) { _M_iostate = __state; }

  00000	8b 44 24 04	 mov	 eax, DWORD PTR ___state$[esp-4]
  00004	89 41 08	 mov	 DWORD PTR [ecx+8], eax
  00007	c2 04 00	 ret	 4
?_M_clear_nothrow@ios_base@_STL@@IAEXH@Z ENDP		; _STL::ios_base::_M_clear_nothrow
_TEXT	ENDS
PUBLIC	?_M_set_exception_mask@ios_base@_STL@@IAEXH@Z	; _STL::ios_base::_M_set_exception_mask
; Function compile flags: /Ogsy
;	COMDAT ?_M_set_exception_mask@ios_base@_STL@@IAEXH@Z
_TEXT	SEGMENT
___mask$ = 8						; size = 4
?_M_set_exception_mask@ios_base@_STL@@IAEXH@Z PROC NEAR	; _STL::ios_base::_M_set_exception_mask, COMDAT
; _this$ = ecx

; 196  :   void _M_set_exception_mask(iostate __mask) { _M_exception_mask = __mask; }

  00000	8b 44 24 04	 mov	 eax, DWORD PTR ___mask$[esp-4]
  00004	89 41 14	 mov	 DWORD PTR [ecx+20], eax
  00007	c2 04 00	 ret	 4
?_M_set_exception_mask@ios_base@_STL@@IAEXH@Z ENDP	; _STL::ios_base::_M_set_exception_mask
_TEXT	ENDS
PUBLIC	?_M_check_exception_mask@ios_base@_STL@@IAEXXZ	; _STL::ios_base::_M_check_exception_mask
EXTRN	?_M_throw_failure@ios_base@_STL@@IAEXXZ:NEAR	; _STL::ios_base::_M_throw_failure
; Function compile flags: /Ogsy
;	COMDAT ?_M_check_exception_mask@ios_base@_STL@@IAEXXZ
_TEXT	SEGMENT
?_M_check_exception_mask@ios_base@_STL@@IAEXXZ PROC NEAR ; _STL::ios_base::_M_check_exception_mask, COMDAT
; _this$ = ecx

; 198  :     if (_M_iostate & _M_exception_mask)

  00000	8b 41 14	 mov	 eax, DWORD PTR [ecx+20]
  00003	85 41 08	 test	 eax, DWORD PTR [ecx+8]
  00006	74 05		 je	 SHORT $L79498

; 199  :       _M_throw_failure(); 

  00008	e9 00 00 00 00	 jmp	 ?_M_throw_failure@ios_base@_STL@@IAEXXZ ; _STL::ios_base::_M_throw_failure
$L79498:

; 200  :   }

  0000d	c3		 ret	 0
?_M_check_exception_mask@ios_base@_STL@@IAEXXZ ENDP	; _STL::ios_base::_M_check_exception_mask
_TEXT	ENDS
PUBLIC	?_M_ctype_facet@ios_base@_STL@@QBEPBVfacet@locale@2@XZ ; _STL::ios_base::_M_ctype_facet
; Function compile flags: /Ogsy
;	COMDAT ?_M_ctype_facet@ios_base@_STL@@QBEPBVfacet@locale@2@XZ
_TEXT	SEGMENT
?_M_ctype_facet@ios_base@_STL@@QBEPBVfacet@locale@2@XZ PROC NEAR ; _STL::ios_base::_M_ctype_facet, COMDAT
; _this$ = ecx

; 250  :   const locale::facet* _M_ctype_facet() const { return _M_cached_ctype; }

  00000	8b 41 40	 mov	 eax, DWORD PTR [ecx+64]
  00003	c3		 ret	 0
?_M_ctype_facet@ios_base@_STL@@QBEPBVfacet@locale@2@XZ ENDP ; _STL::ios_base::_M_ctype_facet
_TEXT	ENDS
PUBLIC	?_FILE_I_set@_STL@@YAXPAU_iobuf@@PAD11@Z	; _STL::_FILE_I_set
; Function compile flags: /Ogsy
; File c:\stlport-4.6.1\stlport\stl\_stdio_file.h
;	COMDAT ?_FILE_I_set@_STL@@YAXPAU_iobuf@@PAD11@Z
_TEXT	SEGMENT
___f$ = 8						; size = 4
___begin$ = 12						; size = 4
___next$ = 16						; size = 4
___end$ = 20						; size = 4
?_FILE_I_set@_STL@@YAXPAU_iobuf@@PAD11@Z PROC NEAR	; _STL::_FILE_I_set, COMDAT

; 117  :   __f->_base = (_File_ptr_type) __begin;

  00000	8b 44 24 04	 mov	 eax, DWORD PTR ___f$[esp-4]
  00004	8b 4c 24 08	 mov	 ecx, DWORD PTR ___begin$[esp-4]

; 118  :   __f->_ptr  = (_File_ptr_type) __next;
; 119  :   __f->_cnt  = __end - __next;

  00008	8b 54 24 10	 mov	 edx, DWORD PTR ___end$[esp-4]
  0000c	89 48 08	 mov	 DWORD PTR [eax+8], ecx
  0000f	8b 4c 24 0c	 mov	 ecx, DWORD PTR ___next$[esp-4]
  00013	2b d1		 sub	 edx, ecx
  00015	89 08		 mov	 DWORD PTR [eax], ecx
  00017	89 50 04	 mov	 DWORD PTR [eax+4], edx

; 120  : }

  0001a	c3		 ret	 0
?_FILE_I_set@_STL@@YAXPAU_iobuf@@PAD11@Z ENDP		; _STL::_FILE_I_set
_TEXT	ENDS
PUBLIC	?_FILE_O_set@_STL@@YAXPAU_iobuf@@PAD11@Z	; _STL::_FILE_O_set
; Function compile flags: /Ogsy
;	COMDAT ?_FILE_O_set@_STL@@YAXPAU_iobuf@@PAD11@Z
_TEXT	SEGMENT
___f$ = 8						; size = 4
___begin$ = 12						; size = 4
___next$ = 16						; size = 4
___end$ = 20						; size = 4
?_FILE_O_set@_STL@@YAXPAU_iobuf@@PAD11@Z PROC NEAR	; _STL::_FILE_O_set, COMDAT

; 745  :   { _FILE_I_set(__f, __begin, __next, __end); }

  00000	8b 44 24 04	 mov	 eax, DWORD PTR ___f$[esp-4]
  00004	8b 4c 24 08	 mov	 ecx, DWORD PTR ___begin$[esp-4]
  00008	8b 54 24 10	 mov	 edx, DWORD PTR ___end$[esp-4]
  0000c	89 48 08	 mov	 DWORD PTR [eax+8], ecx
  0000f	8b 4c 24 0c	 mov	 ecx, DWORD PTR ___next$[esp-4]
  00013	2b d1		 sub	 edx, ecx
  00015	89 08		 mov	 DWORD PTR [eax], ecx
  00017	89 50 04	 mov	 DWORD PTR [eax+4], edx
  0001a	c3		 ret	 0
?_FILE_O_set@_STL@@YAXPAU_iobuf@@PAD11@Z ENDP		; _STL::_FILE_O_set
_TEXT	ENDS
PUBLIC	??_7?$basic_streambuf@DV?$char_traits@D@_STL@@@_STL@@6B@ ; _STL::basic_streambuf<char,_STL::char_traits<char> >::`vftable'
PUBLIC	??_G?$basic_streambuf@DV?$char_traits@D@_STL@@@_STL@@UAEPAXI@Z ; _STL::basic_streambuf<char,_STL::char_traits<char> >::`scalar deleting destructor'
PUBLIC	??_R4?$basic_streambuf@DV?$char_traits@D@_STL@@@_STL@@6B@ ; _STL::basic_streambuf<char,_STL::char_traits<char> >::`RTTI Complete Object Locator'
PUBLIC	??_R0?AV?$basic_streambuf@DV?$char_traits@D@_STL@@@_STL@@@8 ; _STL::basic_streambuf<char,_STL::char_traits<char> > `RTTI Type Descriptor'
PUBLIC	??_R3?$basic_streambuf@DV?$char_traits@D@_STL@@@_STL@@8 ; _STL::basic_streambuf<char,_STL::char_traits<char> >::`RTTI Class Hierarchy Descriptor'
PUBLIC	??_R2?$basic_streambuf@DV?$char_traits@D@_STL@@@_STL@@8 ; _STL::basic_streambuf<char,_STL::char_traits<char> >::`RTTI Base Class Array'
PUBLIC	??_R1A@?0A@A@?$basic_streambuf@DV?$char_traits@D@_STL@@@_STL@@8 ; _STL::basic_streambuf<char,_STL::char_traits<char> >::`RTTI Base Class Descriptor at (0,-1,0,0)'
PUBLIC	??0?$basic_streambuf@DV?$char_traits@D@_STL@@@_STL@@IAE@XZ ; _STL::basic_streambuf<char,_STL::char_traits<char> >::basic_streambuf<char,_STL::char_traits<char> >
EXTRN	?showmanyc@?$basic_streambuf@DV?$char_traits@D@_STL@@@_STL@@MAEHXZ:NEAR ; _STL::basic_streambuf<char,_STL::char_traits<char> >::showmanyc
EXTRN	?xsgetn@?$basic_streambuf@DV?$char_traits@D@_STL@@@_STL@@MAEHPADH@Z:NEAR ; _STL::basic_streambuf<char,_STL::char_traits<char> >::xsgetn
EXTRN	?underflow@?$basic_streambuf@DV?$char_traits@D@_STL@@@_STL@@MAEHXZ:NEAR ; _STL::basic_streambuf<char,_STL::char_traits<char> >::underflow
EXTRN	?uflow@?$basic_streambuf@DV?$char_traits@D@_STL@@@_STL@@MAEHXZ:NEAR ; _STL::basic_streambuf<char,_STL::char_traits<char> >::uflow
EXTRN	?pbackfail@?$basic_streambuf@DV?$char_traits@D@_STL@@@_STL@@MAEHH@Z:NEAR ; _STL::basic_streambuf<char,_STL::char_traits<char> >::pbackfail
EXTRN	?xsputn@?$basic_streambuf@DV?$char_traits@D@_STL@@@_STL@@MAEHPBDH@Z:NEAR ; _STL::basic_streambuf<char,_STL::char_traits<char> >::xsputn
EXTRN	?_M_xsputnc@?$basic_streambuf@DV?$char_traits@D@_STL@@@_STL@@MAEHDH@Z:NEAR ; _STL::basic_streambuf<char,_STL::char_traits<char> >::_M_xsputnc
EXTRN	?overflow@?$basic_streambuf@DV?$char_traits@D@_STL@@@_STL@@MAEHH@Z:NEAR ; _STL::basic_streambuf<char,_STL::char_traits<char> >::overflow
EXTRN	?imbue@?$basic_streambuf@DV?$char_traits@D@_STL@@@_STL@@MAEXABVlocale@2@@Z:NEAR ; _STL::basic_streambuf<char,_STL::char_traits<char> >::imbue
EXTRN	??_7type_info@@6B@:QWORD			; type_info::`vftable'
EXTRN	??_E?$basic_streambuf@DV?$char_traits@D@_STL@@@_STL@@UAEPAXI@Z:NEAR ; _STL::basic_streambuf<char,_STL::char_traits<char> >::`vector deleting destructor'
EXTRN	??0locale@_STL@@QAE@XZ:NEAR			; _STL::locale::locale
EXTRN	?setbuf@?$basic_streambuf@DV?$char_traits@D@_STL@@@_STL@@MAEPAV12@PADH@Z:NEAR ; _STL::basic_streambuf<char,_STL::char_traits<char> >::setbuf
EXTRN	?seekoff@?$basic_streambuf@DV?$char_traits@D@_STL@@@_STL@@MAE?AV?$fpos@H@2@JHH@Z:NEAR ; _STL::basic_streambuf<char,_STL::char_traits<char> >::seekoff
EXTRN	?seekpos@?$basic_streambuf@DV?$char_traits@D@_STL@@@_STL@@MAE?AV?$fpos@H@2@V32@H@Z:NEAR ; _STL::basic_streambuf<char,_STL::char_traits<char> >::seekpos
EXTRN	?sync@?$basic_streambuf@DV?$char_traits@D@_STL@@@_STL@@MAEHXZ:NEAR ; _STL::basic_streambuf<char,_STL::char_traits<char> >::sync
;	COMDAT ??_7?$basic_streambuf@DV?$char_traits@D@_STL@@@_STL@@6B@
CONST	SEGMENT
??_7?$basic_streambuf@DV?$char_traits@D@_STL@@@_STL@@6B@ DD FLAT:??_R4?$basic_streambuf@DV?$char_traits@D@_STL@@@_STL@@6B@ ; _STL::basic_streambuf<char,_STL::char_traits<char> >::`vftable'
	DD	FLAT:??_E?$basic_streambuf@DV?$char_traits@D@_STL@@@_STL@@UAEPAXI@Z
	DD	FLAT:?setbuf@?$basic_streambuf@DV?$char_traits@D@_STL@@@_STL@@MAEPAV12@PADH@Z
	DD	FLAT:?seekoff@?$basic_streambuf@DV?$char_traits@D@_STL@@@_STL@@MAE?AV?$fpos@H@2@JHH@Z
	DD	FLAT:?seekpos@?$basic_streambuf@DV?$char_traits@D@_STL@@@_STL@@MAE?AV?$fpos@H@2@V32@H@Z
	DD	FLAT:?sync@?$basic_streambuf@DV?$char_traits@D@_STL@@@_STL@@MAEHXZ
	DD	FLAT:?showmanyc@?$basic_streambuf@DV?$char_traits@D@_STL@@@_STL@@MAEHXZ
	DD	FLAT:?xsgetn@?$basic_streambuf@DV?$char_traits@D@_STL@@@_STL@@MAEHPADH@Z
	DD	FLAT:?underflow@?$basic_streambuf@DV?$char_traits@D@_STL@@@_STL@@MAEHXZ
	DD	FLAT:?uflow@?$basic_streambuf@DV?$char_traits@D@_STL@@@_STL@@MAEHXZ
	DD	FLAT:?pbackfail@?$basic_streambuf@DV?$char_traits@D@_STL@@@_STL@@MAEHH@Z
	DD	FLAT:?xsputn@?$basic_streambuf@DV?$char_traits@D@_STL@@@_STL@@MAEHPBDH@Z
	DD	FLAT:?_M_xsputnc@?$basic_streambuf@DV?$char_traits@D@_STL@@@_STL@@MAEHDH@Z
	DD	FLAT:?overflow@?$basic_streambuf@DV?$char_traits@D@_STL@@@_STL@@MAEHH@Z
	DD	FLAT:?imbue@?$basic_streambuf@DV?$char_traits@D@_STL@@@_STL@@MAEXABVlocale@2@@Z
CONST	ENDS
;	COMDAT ??_R4?$basic_streambuf@DV?$char_traits@D@_STL@@@_STL@@6B@
rdata$r	SEGMENT
??_R4?$basic_streambuf@DV?$char_traits@D@_STL@@@_STL@@6B@ DD 00H ; _STL::basic_streambuf<char,_STL::char_traits<char> >::`RTTI Complete Object Locator'
	DD	00H
	DD	00H
	DD	FLAT:??_R0?AV?$basic_streambuf@DV?$char_traits@D@_STL@@@_STL@@@8
	DD	FLAT:??_R3?$basic_streambuf@DV?$char_traits@D@_STL@@@_STL@@8
rdata$r	ENDS
;	COMDAT ??_R0?AV?$basic_streambuf@DV?$char_traits@D@_STL@@@_STL@@@8
_DATA	SEGMENT
??_R0?AV?$basic_streambuf@DV?$char_traits@D@_STL@@@_STL@@@8 DD FLAT:??_7type_info@@6B@ ; _STL::basic_streambuf<char,_STL::char_traits<char> > `RTTI Type Descriptor'
	DD	00H
	DB	'.?AV?$basic_streambuf@DV?$char_traits@D@_STL@@@_STL@@', 00H
_DATA	ENDS
;	COMDAT ??_R3?$basic_streambuf@DV?$char_traits@D@_STL@@@_STL@@8
rdata$r	SEGMENT
??_R3?$basic_streambuf@DV?$char_traits@D@_STL@@@_STL@@8 DD 00H ; _STL::basic_streambuf<char,_STL::char_traits<char> >::`RTTI Class Hierarchy Descriptor'
	DD	00H
	DD	01H
	DD	FLAT:??_R2?$basic_streambuf@DV?$char_traits@D@_STL@@@_STL@@8
rdata$r	ENDS
;	COMDAT ??_R2?$basic_streambuf@DV?$char_traits@D@_STL@@@_STL@@8
rdata$r	SEGMENT
??_R2?$basic_streambuf@DV?$char_traits@D@_STL@@@_STL@@8 DD FLAT:??_R1A@?0A@A@?$basic_streambuf@DV?$char_traits@D@_STL@@@_STL@@8 ; _STL::basic_streambuf<char,_STL::char_traits<char> >::`RTTI Base Class Array'
rdata$r	ENDS
;	COMDAT ??_R1A@?0A@A@?$basic_streambuf@DV?$char_traits@D@_STL@@@_STL@@8
rdata$r	SEGMENT
??_R1A@?0A@A@?$basic_streambuf@DV?$char_traits@D@_STL@@@_STL@@8 DD FLAT:??_R0?AV?$basic_streambuf@DV?$char_traits@D@_STL@@@_STL@@@8 ; _STL::basic_streambuf<char,_STL::char_traits<char> >::`RTTI Base Class Descriptor at (0,-1,0,0)'
	DD	00H
	DD	00H
	DD	0ffffffffH
	DD	00H
	DD	00H
; Function compile flags: /Ogsy
; File c:\stlport-4.6.1\stlport\stl\_streambuf.h
rdata$r	ENDS
;	COMDAT ??0?$basic_streambuf@DV?$char_traits@D@_STL@@@_STL@@IAE@XZ
_TEXT	SEGMENT
??0?$basic_streambuf@DV?$char_traits@D@_STL@@@_STL@@IAE@XZ PROC NEAR ; _STL::basic_streambuf<char,_STL::char_traits<char> >::basic_streambuf<char,_STL::char_traits<char> >, COMDAT
; _this$ = ecx

; 352  :   {

  00000	56		 push	 esi
  00001	8b f1		 mov	 esi, ecx
  00003	8d 46 0c	 lea	 eax, DWORD PTR [esi+12]
  00006	89 46 04	 mov	 DWORD PTR [esi+4], eax
  00009	8d 46 2c	 lea	 eax, DWORD PTR [esi+44]
  0000c	8d 4e 4c	 lea	 ecx, DWORD PTR [esi+76]
  0000f	c7 06 00 00 00
	00		 mov	 DWORD PTR [esi], OFFSET FLAT:??_7?$basic_streambuf@DV?$char_traits@D@_STL@@@_STL@@6B@
  00015	89 46 08	 mov	 DWORD PTR [esi+8], eax
  00018	e8 00 00 00 00	 call	 ??0locale@_STL@@QAE@XZ	; _STL::locale::locale
  0001d	33 c9		 xor	 ecx, ecx
  0001f	89 4e 50	 mov	 DWORD PTR [esi+80], ecx

; 353  :     // _M_lock._M_initialize();
; 354  :     _FILE_I_set(_M_get, 0, 0, 0);

  00022	8b 46 04	 mov	 eax, DWORD PTR [esi+4]
  00025	89 48 08	 mov	 DWORD PTR [eax+8], ecx
  00028	89 08		 mov	 DWORD PTR [eax], ecx
  0002a	89 48 04	 mov	 DWORD PTR [eax+4], ecx

; 355  :     _FILE_O_set(_M_put, 0, 0, 0);

  0002d	8b 46 08	 mov	 eax, DWORD PTR [esi+8]
  00030	89 48 08	 mov	 DWORD PTR [eax+8], ecx
  00033	89 08		 mov	 DWORD PTR [eax], ecx
  00035	89 48 04	 mov	 DWORD PTR [eax+4], ecx

; 356  :   }

  00038	8b c6		 mov	 eax, esi
  0003a	5e		 pop	 esi
  0003b	c3		 ret	 0
??0?$basic_streambuf@DV?$char_traits@D@_STL@@@_STL@@IAE@XZ ENDP ; _STL::basic_streambuf<char,_STL::char_traits<char> >::basic_streambuf<char,_STL::char_traits<char> >
_TEXT	ENDS
PUBLIC	?setg@?$basic_streambuf@DV?$char_traits@D@_STL@@@_STL@@IAEXPAD00@Z ; _STL::basic_streambuf<char,_STL::char_traits<char> >::setg
; Function compile flags: /Ogsy
;	COMDAT ?setg@?$basic_streambuf@DV?$char_traits@D@_STL@@@_STL@@IAEXPAD00@Z
_TEXT	SEGMENT
___gbegin$ = 8						; size = 4
___gnext$ = 12						; size = 4
___gend$ = 16						; size = 4
?setg@?$basic_streambuf@DV?$char_traits@D@_STL@@@_STL@@IAEXPAD00@Z PROC NEAR ; _STL::basic_streambuf<char,_STL::char_traits<char> >::setg, COMDAT
; _this$ = ecx

; 367  :     { _FILE_I_set(_M_get, __gbegin, __gnext, __gend); }

  00000	8b 41 04	 mov	 eax, DWORD PTR [ecx+4]
  00003	8b 4c 24 04	 mov	 ecx, DWORD PTR ___gbegin$[esp-4]
  00007	8b 54 24 0c	 mov	 edx, DWORD PTR ___gend$[esp-4]
  0000b	89 48 08	 mov	 DWORD PTR [eax+8], ecx
  0000e	8b 4c 24 08	 mov	 ecx, DWORD PTR ___gnext$[esp-4]
  00012	2b d1		 sub	 edx, ecx
  00014	89 08		 mov	 DWORD PTR [eax], ecx
  00016	89 50 04	 mov	 DWORD PTR [eax+4], edx
  00019	c2 0c 00	 ret	 12			; 0000000cH
?setg@?$basic_streambuf@DV?$char_traits@D@_STL@@@_STL@@IAEXPAD00@Z ENDP ; _STL::basic_streambuf<char,_STL::char_traits<char> >::setg
_TEXT	ENDS
PUBLIC	??0ITypePackBase@@QAE@XZ			; ITypePackBase::ITypePackBase
PUBLIC	??_7ITypePackBase@@6B@				; ITypePackBase::`vftable'
PUBLIC	??_GITypePackBase@@UAEPAXI@Z			; ITypePackBase::`scalar deleting destructor'
PUBLIC	??_R1A@?0A@A@ITypePackBase@@8			; ITypePackBase::`RTTI Base Class Descriptor at (0,-1,0,0)'
PUBLIC	??_R0?AVITypePackBase@@@8			; ITypePackBase `RTTI Type Descriptor'
PUBLIC	??_R4ITypePackBase@@6B@				; ITypePackBase::`RTTI Complete Object Locator'
PUBLIC	??_R3ITypePackBase@@8				; ITypePackBase::`RTTI Class Hierarchy Descriptor'
PUBLIC	??_R2ITypePackBase@@8				; ITypePackBase::`RTTI Base Class Array'
EXTRN	__purecall:NEAR
EXTRN	??_EITypePackBase@@UAEPAXI@Z:NEAR		; ITypePackBase::`vector deleting destructor'
;	COMDAT ??_7ITypePackBase@@6B@
; File c:\darkeden\designed_common\project\client\spritelib\ctypepack.h
CONST	SEGMENT
??_7ITypePackBase@@6B@ DD FLAT:??_R4ITypePackBase@@6B@	; ITypePackBase::`vftable'
	DD	FLAT:??_EITypePackBase@@UAEPAXI@Z
	DD	FLAT:__purecall
	DD	FLAT:__purecall
	DD	FLAT:__purecall
	DD	FLAT:__purecall
	DD	FLAT:__purecall
	DD	FLAT:__purecall
	DD	FLAT:__purecall
	DD	FLAT:__purecall
	DD	FLAT:__purecall
	DD	FLAT:__purecall
	DD	FLAT:__purecall
	DD	FLAT:__purecall
	DD	FLAT:__purecall
CONST	ENDS
;	COMDAT ??_R4ITypePackBase@@6B@
rdata$r	SEGMENT
??_R4ITypePackBase@@6B@ DD 00H				; ITypePackBase::`RTTI Complete Object Locator'
	DD	00H
	DD	00H
	DD	FLAT:??_R0?AVITypePackBase@@@8
	DD	FLAT:??_R3ITypePackBase@@8
rdata$r	ENDS
;	COMDAT ??_R0?AVITypePackBase@@@8
_DATA	SEGMENT
??_R0?AVITypePackBase@@@8 DD FLAT:??_7type_info@@6B@	; ITypePackBase `RTTI Type Descriptor'
	DD	00H
	DB	'.?AVITypePackBase@@', 00H
_DATA	ENDS
;	COMDAT ??_R3ITypePackBase@@8
rdata$r	SEGMENT
??_R3ITypePackBase@@8 DD 00H				; ITypePackBase::`RTTI Class Hierarchy Descriptor'
	DD	00H
	DD	01H
	DD	FLAT:??_R2ITypePackBase@@8
rdata$r	ENDS
;	COMDAT ??_R2ITypePackBase@@8
rdata$r	SEGMENT
??_R2ITypePackBase@@8 DD FLAT:??_R1A@?0A@A@ITypePackBase@@8 ; ITypePackBase::`RTTI Base Class Array'
rdata$r	ENDS
;	COMDAT ??_R1A@?0A@A@ITypePackBase@@8
rdata$r	SEGMENT
??_R1A@?0A@A@ITypePackBase@@8 DD FLAT:??_R0?AVITypePackBase@@@8 ; ITypePackBase::`RTTI Base Class Descriptor at (0,-1,0,0)'
	DD	00H
	DD	00H
	DD	0ffffffffH
	DD	00H
	DD	00H
; Function compile flags: /Ogsy
rdata$r	ENDS
;	COMDAT ??0ITypePackBase@@QAE@XZ
_TEXT	SEGMENT
??0ITypePackBase@@QAE@XZ PROC NEAR			; ITypePackBase::ITypePackBase, COMDAT
; _this$ = ecx

; 16   : 	ITypePackBase() {}

  00000	8b c1		 mov	 eax, ecx
  00002	c7 00 00 00 00
	00		 mov	 DWORD PTR [eax], OFFSET FLAT:??_7ITypePackBase@@6B@
  00008	c3		 ret	 0
??0ITypePackBase@@QAE@XZ ENDP				; ITypePackBase::ITypePackBase
_TEXT	ENDS
PUBLIC	??1ITypePackBase@@UAE@XZ			; ITypePackBase::~ITypePackBase
; Function compile flags: /Ogsy
;	COMDAT ??1ITypePackBase@@UAE@XZ
_TEXT	SEGMENT
??1ITypePackBase@@UAE@XZ PROC NEAR			; ITypePackBase::~ITypePackBase, COMDAT
; _this$ = ecx

; 17   : 	virtual ~ITypePackBase() {}

  00000	c7 01 00 00 00
	00		 mov	 DWORD PTR [ecx], OFFSET FLAT:??_7ITypePackBase@@6B@
  00006	c3		 ret	 0
??1ITypePackBase@@UAE@XZ ENDP				; ITypePackBase::~ITypePackBase
; Function compile flags: /Ogsy
_TEXT	ENDS
;	COMDAT ??_GITypePackBase@@UAEPAXI@Z
_TEXT	SEGMENT
___flags$ = 8						; size = 4
??_GITypePackBase@@UAEPAXI@Z PROC NEAR			; ITypePackBase::`scalar deleting destructor', COMDAT
; _this$ = ecx
  00000	f6 44 24 04 01	 test	 BYTE PTR ___flags$[esp-4], 1
  00005	56		 push	 esi
  00006	8b f1		 mov	 esi, ecx
  00008	c7 06 00 00 00
	00		 mov	 DWORD PTR [esi], OFFSET FLAT:??_7ITypePackBase@@6B@
  0000e	74 07		 je	 SHORT $L106182
  00010	56		 push	 esi
  00011	e8 00 00 00 00	 call	 ??3@YAXPAX@Z		; operator delete
  00016	59		 pop	 ecx
$L106182:
  00017	8b c6		 mov	 eax, esi
  00019	5e		 pop	 esi
  0001a	c2 04 00	 ret	 4
??_GITypePackBase@@UAEPAXI@Z ENDP			; ITypePackBase::`scalar deleting destructor'
_TEXT	ENDS
PUBLIC	?setp@?$basic_streambuf@DV?$char_traits@D@_STL@@@_STL@@IAEXPAD0@Z ; _STL::basic_streambuf<char,_STL::char_traits<char> >::setp
; Function compile flags: /Ogsy
; File c:\stlport-4.6.1\stlport\stl\_streambuf.h
;	COMDAT ?setp@?$basic_streambuf@DV?$char_traits@D@_STL@@@_STL@@IAEXPAD0@Z
_TEXT	SEGMENT
___pbegin$ = 8						; size = 4
___pend$ = 12						; size = 4
?setp@?$basic_streambuf@DV?$char_traits@D@_STL@@@_STL@@IAEXPAD0@Z PROC NEAR ; _STL::basic_streambuf<char,_STL::char_traits<char> >::setp, COMDAT
; _this$ = ecx

; 389  :     { _FILE_O_set(_M_put, __pbegin, __pbegin, __pend); }

  00000	8b 41 08	 mov	 eax, DWORD PTR [ecx+8]
  00003	8b 4c 24 04	 mov	 ecx, DWORD PTR ___pbegin$[esp-4]
  00007	8b 54 24 08	 mov	 edx, DWORD PTR ___pend$[esp-4]
  0000b	2b d1		 sub	 edx, ecx
  0000d	89 48 08	 mov	 DWORD PTR [eax+8], ecx
  00010	89 08		 mov	 DWORD PTR [eax], ecx
  00012	89 50 04	 mov	 DWORD PTR [eax+4], edx
  00015	c2 08 00	 ret	 8
?setp@?$basic_streambuf@DV?$char_traits@D@_STL@@@_STL@@IAEXPAD0@Z ENDP ; _STL::basic_streambuf<char,_STL::char_traits<char> >::setp
_TEXT	ENDS
EXTRN	??1?$basic_streambuf@DV?$char_traits@D@_STL@@@_STL@@UAE@XZ:NEAR ; _STL::basic_streambuf<char,_STL::char_traits<char> >::~basic_streambuf<char,_STL::char_traits<char> >
; Function compile flags: /Ogsy
;	COMDAT ??_G?$basic_streambuf@DV?$char_traits@D@_STL@@@_STL@@UAEPAXI@Z
_TEXT	SEGMENT
___flags$ = 8						; size = 4
??_G?$basic_streambuf@DV?$char_traits@D@_STL@@@_STL@@UAEPAXI@Z PROC NEAR ; _STL::basic_streambuf<char,_STL::char_traits<char> >::`scalar deleting destructor', COMDAT
; _this$ = ecx
  00000	56		 push	 esi
  00001	8b f1		 mov	 esi, ecx
  00003	e8 00 00 00 00	 call	 ??1?$basic_streambuf@DV?$char_traits@D@_STL@@@_STL@@UAE@XZ ; _STL::basic_streambuf<char,_STL::char_traits<char> >::~basic_streambuf<char,_STL::char_traits<char> >
  00008	f6 44 24 08 01	 test	 BYTE PTR ___flags$[esp], 1
  0000d	74 07		 je	 SHORT $L81055
  0000f	56		 push	 esi
  00010	e8 00 00 00 00	 call	 ??3@YAXPAX@Z		; operator delete
  00015	59		 pop	 ecx
$L81055:
  00016	8b c6		 mov	 eax, esi
  00018	5e		 pop	 esi
  00019	c2 04 00	 ret	 4
??_G?$basic_streambuf@DV?$char_traits@D@_STL@@@_STL@@UAEPAXI@Z ENDP ; _STL::basic_streambuf<char,_STL::char_traits<char> >::`scalar deleting destructor'
_TEXT	ENDS
PUBLIC	?GetWidth@CShadowSprite@@QBEGXZ			; CShadowSprite::GetWidth
; Function compile flags: /Ogsy
; File c:\darkeden\designed_common\project\client\spritelib\cshadowsprite.h
;	COMDAT ?GetWidth@CShadowSprite@@QBEGXZ
_TEXT	SEGMENT
?GetWidth@CShadowSprite@@QBEGXZ PROC NEAR		; CShadowSprite::GetWidth, COMDAT
; _this$ = ecx

; 89   : 		WORD		GetWidth()		const			{ return m_Width; }

  00000	66 8b 01	 mov	 ax, WORD PTR [ecx]
  00003	c3		 ret	 0
?GetWidth@CShadowSprite@@QBEGXZ ENDP			; CShadowSprite::GetWidth
_TEXT	ENDS
PUBLIC	?GetHeight@CShadowSprite@@QBEGXZ		; CShadowSprite::GetHeight
; Function compile flags: /Ogsy
;	COMDAT ?GetHeight@CShadowSprite@@QBEGXZ
_TEXT	SEGMENT
?GetHeight@CShadowSprite@@QBEGXZ PROC NEAR		; CShadowSprite::GetHeight, COMDAT
; _this$ = ecx

; 90   : 		WORD		GetHeight()		const			{ return m_Height; }

  00000	66 8b 41 02	 mov	 ax, WORD PTR [ecx+2]
  00004	c3		 ret	 0
?GetHeight@CShadowSprite@@QBEGXZ ENDP			; CShadowSprite::GetHeight
_TEXT	ENDS
PUBLIC	?unshift@?$codecvt@DDH@_STL@@QBE?AW4result@codecvt_base@2@AAHPAD1AAPAD@Z ; _STL::codecvt<char,char,int>::unshift
; Function compile flags: /Ogsy
; File c:\stlport-4.6.1\stlport\stl\_codecvt.h
;	COMDAT ?unshift@?$codecvt@DDH@_STL@@QBE?AW4result@codecvt_base@2@AAHPAD1AAPAD@Z
_TEXT	SEGMENT
___state$ = 8						; size = 4
___to$ = 12						; size = 4
___to_limit$ = 16					; size = 4
___to_next$ = 20					; size = 4
?unshift@?$codecvt@DDH@_STL@@QBE?AW4result@codecvt_base@2@AAHPAD1AAPAD@Z PROC NEAR ; _STL::codecvt<char,char,int>::unshift, COMDAT
; _this$ = ecx

; 76   :     { return do_unshift(__state, __to, __to_limit, __to_next); }

  00000	8b 01		 mov	 eax, DWORD PTR [ecx]
  00002	ff 60 0c	 jmp	 DWORD PTR [eax+12]
?unshift@?$codecvt@DDH@_STL@@QBE?AW4result@codecvt_base@2@AAHPAD1AAPAD@Z ENDP ; _STL::codecvt<char,char,int>::unshift
_TEXT	ENDS
PUBLIC	?encoding@?$codecvt@DDH@_STL@@QBEHXZ		; _STL::codecvt<char,char,int>::encoding
; Function compile flags: /Ogsy
;	COMDAT ?encoding@?$codecvt@DDH@_STL@@QBEHXZ
_TEXT	SEGMENT
?encoding@?$codecvt@DDH@_STL@@QBEHXZ PROC NEAR		; _STL::codecvt<char,char,int>::encoding, COMDAT
; _this$ = ecx

; 90   :   int encoding() const _STLP_NOTHROW { return do_encoding(); }

  00000	8b 01		 mov	 eax, DWORD PTR [ecx]
  00002	ff 60 10	 jmp	 DWORD PTR [eax+16]
?encoding@?$codecvt@DDH@_STL@@QBEHXZ ENDP		; _STL::codecvt<char,char,int>::encoding
_TEXT	ENDS
PUBLIC	?always_noconv@?$codecvt@DDH@_STL@@QBE_NXZ	; _STL::codecvt<char,char,int>::always_noconv
; Function compile flags: /Ogsy
;	COMDAT ?always_noconv@?$codecvt@DDH@_STL@@QBE_NXZ
_TEXT	SEGMENT
?always_noconv@?$codecvt@DDH@_STL@@QBE_NXZ PROC NEAR	; _STL::codecvt<char,char,int>::always_noconv, COMDAT
; _this$ = ecx

; 92   :   bool always_noconv() const _STLP_NOTHROW { return do_always_noconv(); }

  00000	8b 01		 mov	 eax, DWORD PTR [ecx]
  00002	ff 60 14	 jmp	 DWORD PTR [eax+20]
?always_noconv@?$codecvt@DDH@_STL@@QBE_NXZ ENDP		; _STL::codecvt<char,char,int>::always_noconv
_TEXT	ENDS
PUBLIC	?max_length@?$codecvt@DDH@_STL@@QBEHXZ		; _STL::codecvt<char,char,int>::max_length
; Function compile flags: /Ogsy
;	COMDAT ?max_length@?$codecvt@DDH@_STL@@QBEHXZ
_TEXT	SEGMENT
?max_length@?$codecvt@DDH@_STL@@QBEHXZ PROC NEAR	; _STL::codecvt<char,char,int>::max_length, COMDAT
; _this$ = ecx

; 99   :   int max_length() const _STLP_NOTHROW { return do_max_length(); }

  00000	8b 01		 mov	 eax, DWORD PTR [ecx]
  00002	ff 60 1c	 jmp	 DWORD PTR [eax+28]
?max_length@?$codecvt@DDH@_STL@@QBEHXZ ENDP		; _STL::codecvt<char,char,int>::max_length
_TEXT	ENDS
PUBLIC	?__is_open@_Filebuf_base@_STL@@QBE_NXZ		; _STL::_Filebuf_base::__is_open
; Function compile flags: /Ogsy
; File c:\stlport-4.6.1\stlport\stl\_fstream.h
;	COMDAT ?__is_open@_Filebuf_base@_STL@@QBE_NXZ
_TEXT	SEGMENT
?__is_open@_Filebuf_base@_STL@@QBE_NXZ PROC NEAR	; _STL::_Filebuf_base::__is_open, COMDAT
; _this$ = ecx

; 150  :   bool __is_open()      const { return (_M_is_open !=0 ); } 

  00000	33 c0		 xor	 eax, eax
  00002	38 41 0c	 cmp	 BYTE PTR [ecx+12], al
  00005	0f 95 c0	 setne	 al
  00008	c3		 ret	 0
?__is_open@_Filebuf_base@_STL@@QBE_NXZ ENDP		; _STL::_Filebuf_base::__is_open
_TEXT	ENDS
PUBLIC	?GetHour@MGameTime@@QBEEXZ			; MGameTime::GetHour
; Function compile flags: /Ogsy
; File c:\darkeden\designed_common\project\client\mgametime.h
;	COMDAT ?GetHour@MGameTime@@QBEEXZ
_TEXT	SEGMENT
?GetHour@MGameTime@@QBEEXZ PROC NEAR			; MGameTime::GetHour, COMDAT
; _this$ = ecx

; 43   : 		BYTE	GetHour() const			{ return m_Hour; }

  00000	8a 41 14	 mov	 al, BYTE PTR [ecx+20]
  00003	c3		 ret	 0
?GetHour@MGameTime@@QBEEXZ ENDP				; MGameTime::GetHour
_TEXT	ENDS
PUBLIC	?GetWeatherType@MWeather@@QBEEXZ		; MWeather::GetWeatherType
; Function compile flags: /Ogsy
; File c:\darkeden\designed_common\project\client\mweather.h
;	COMDAT ?GetWeatherType@MWeather@@QBEEXZ
_TEXT	SEGMENT
?GetWeatherType@MWeather@@QBEEXZ PROC NEAR		; MWeather::GetWeatherType, COMDAT
; _this$ = ecx

; 122  : 		BYTE		GetWeatherType() const	{ return m_WeatherType; }		

  00000	8a 41 08	 mov	 al, BYTE PTR [ecx+8]
  00003	c3		 ret	 0
?GetWeatherType@MWeather@@QBEEXZ ENDP			; MWeather::GetWeatherType
_TEXT	ENDS
PUBLIC	??_GCSpriteSurface@@QAEPAXI@Z			; CSpriteSurface::`scalar deleting destructor'
EXTRN	??1CSpriteSurface@@QAE@XZ:NEAR			; CSpriteSurface::~CSpriteSurface
; Function compile flags: /Ogsy
;	COMDAT ??_GCSpriteSurface@@QAEPAXI@Z
_TEXT	SEGMENT
___flags$ = 8						; size = 4
??_GCSpriteSurface@@QAEPAXI@Z PROC NEAR			; CSpriteSurface::`scalar deleting destructor', COMDAT
; _this$ = ecx
  00000	56		 push	 esi
  00001	8b f1		 mov	 esi, ecx
  00003	e8 00 00 00 00	 call	 ??1CSpriteSurface@@QAE@XZ ; CSpriteSurface::~CSpriteSurface
  00008	f6 44 24 08 01	 test	 BYTE PTR ___flags$[esp], 1
  0000d	74 07		 je	 SHORT $L111700
  0000f	56		 push	 esi
  00010	e8 00 00 00 00	 call	 ??3@YAXPAX@Z		; operator delete
  00015	59		 pop	 ecx
$L111700:
  00016	8b c6		 mov	 eax, esi
  00018	5e		 pop	 esi
  00019	c2 04 00	 ret	 4
??_GCSpriteSurface@@QAEPAXI@Z ENDP			; CSpriteSurface::`scalar deleting destructor'
_TEXT	ENDS
PUBLIC	?GetSprite@CShadowPartManager@@QAEAAVCShadowSprite@@G@Z ; CShadowPartManager::GetSprite
; Function compile flags: /Ogsy
; File c:\darkeden\designed_common\project\client\cshadowpartmanager.cpp
;	COMDAT ?GetSprite@CShadowPartManager@@QAEAAVCShadowSprite@@G@Z
_TEXT	SEGMENT
_id$ = 8						; size = 2
?GetSprite@CShadowPartManager@@QAEAAVCShadowSprite@@G@Z PROC NEAR ; CShadowPartManager::GetSprite, COMDAT
; _this$ = ecx

; 817  : 	//------------------------------------------------------
; 818  : 	// Load   load .
; 819  : 	//------------------------------------------------------
; 820  : //	if (m_SSPK[id].IsNotInit())
; 821  : //	{
; 822  : //		int temp = m_SSPKIndex[id];
; 823  : //		m_SSPKFile.seekg(m_SSPKIndex[id], ios::beg);
; 824  : //		m_SSPK[id].LoadFromFile( m_SSPKFile );
; 825  : //	}
; 826  : //
; 827  : 	return m_SSPK[id];

  00000	83 c1 28	 add	 ecx, 40			; 00000028H
  00003	8b 01		 mov	 eax, DWORD PTR [ecx]
  00005	ff 60 38	 jmp	 DWORD PTR [eax+56]
?GetSprite@CShadowPartManager@@QAEAAVCShadowSprite@@G@Z ENDP ; CShadowPartManager::GetSprite
_TEXT	ENDS
PUBLIC	?eq_int_type@?$__char_traits_base@DH@_STL@@SA_NABH0@Z ; _STL::__char_traits_base<char,int>::eq_int_type
; Function compile flags: /Ogsy
; File c:\stlport-4.6.1\stlport\stl\char_traits.h
;	COMDAT ?eq_int_type@?$__char_traits_base@DH@_STL@@SA_NABH0@Z
_TEXT	SEGMENT
___c1$ = 8						; size = 4
___c2$ = 12						; size = 4
?eq_int_type@?$__char_traits_base@DH@_STL@@SA_NABH0@Z PROC NEAR ; _STL::__char_traits_base<char,int>::eq_int_type, COMDAT

; 193  :     return __c1 == __c2;

  00000	8b 44 24 04	 mov	 eax, DWORD PTR ___c1$[esp-4]
  00004	8b 00		 mov	 eax, DWORD PTR [eax]
  00006	8b 4c 24 08	 mov	 ecx, DWORD PTR ___c2$[esp-4]
  0000a	2b 01		 sub	 eax, DWORD PTR [ecx]
  0000c	f7 d8		 neg	 eax
  0000e	1b c0		 sbb	 eax, eax
  00010	40		 inc	 eax

; 194  :   }

  00011	c3		 ret	 0
?eq_int_type@?$__char_traits_base@DH@_STL@@SA_NABH0@Z ENDP ; _STL::__char_traits_base<char,int>::eq_int_type
_TEXT	ENDS
PUBLIC	?is_open@?$basic_filebuf@DV?$char_traits@D@_STL@@@_STL@@QBE_NXZ ; _STL::basic_filebuf<char,_STL::char_traits<char> >::is_open
; Function compile flags: /Ogsy
; File c:\stlport-4.6.1\stlport\stl\_fstream.h
;	COMDAT ?is_open@?$basic_filebuf@DV?$char_traits@D@_STL@@@_STL@@QBE_NXZ
_TEXT	SEGMENT
?is_open@?$basic_filebuf@DV?$char_traits@D@_STL@@@_STL@@QBE_NXZ PROC NEAR ; _STL::basic_filebuf<char,_STL::char_traits<char> >::is_open, COMDAT
; _this$ = ecx

; 198  :   bool is_open() const { return _M_base.__is_open(); }

  00000	33 c0		 xor	 eax, eax
  00002	38 41 60	 cmp	 BYTE PTR [ecx+96], al
  00005	0f 95 c0	 setne	 al
  00008	c3		 ret	 0
?is_open@?$basic_filebuf@DV?$char_traits@D@_STL@@@_STL@@QBE_NXZ ENDP ; _STL::basic_filebuf<char,_STL::char_traits<char> >::is_open
_TEXT	ENDS
PUBLIC	?IsDataNULL@?$CPartManager@GGPAVCSpriteSurface@@@@QAE_NG@Z ; CPartManager<unsigned short,unsigned short,CSpriteSurface *>::IsDataNULL
; Function compile flags: /Ogsy
; File c:\darkeden\designed_common\project\client\cpartmanager.h
;	COMDAT ?IsDataNULL@?$CPartManager@GGPAVCSpriteSurface@@@@QAE_NG@Z
_TEXT	SEGMENT
_index$ = 8						; size = 2
?IsDataNULL@?$CPartManager@GGPAVCSpriteSurface@@@@QAE_NG@Z PROC NEAR ; CPartManager<unsigned short,unsigned short,CSpriteSurface *>::IsDataNULL, COMDAT
; _this$ = ecx

; 96   : 		bool			IsDataNULL(IndexType index)		{ return m_pPartIndex[index]==m_PartIndexNULL; }

  00000	0f b7 44 24 04	 movzx	 eax, WORD PTR _index$[esp-4]
  00005	8b 51 04	 mov	 edx, DWORD PTR [ecx+4]
  00008	66 8b 04 42	 mov	 ax, WORD PTR [edx+eax*2]
  0000c	66 2b 41 22	 sub	 ax, WORD PTR [ecx+34]
  00010	66 f7 d8	 neg	 ax
  00013	1b c0		 sbb	 eax, eax
  00015	40		 inc	 eax
  00016	c2 04 00	 ret	 4
?IsDataNULL@?$CPartManager@GGPAVCSpriteSurface@@@@QAE_NG@Z ENDP ; CPartManager<unsigned short,unsigned short,CSpriteSurface *>::IsDataNULL
_TEXT	ENDS
PUBLIC	??0?$allocator@PAVCSpriteSurface@@@_STL@@QAE@XZ	; _STL::allocator<CSpriteSurface *>::allocator<CSpriteSurface *>
; Function compile flags: /Ogsy
; File c:\stlport-4.6.1\stlport\stl\_alloc.h
;	COMDAT ??0?$allocator@PAVCSpriteSurface@@@_STL@@QAE@XZ
_TEXT	SEGMENT
??0?$allocator@PAVCSpriteSurface@@@_STL@@QAE@XZ PROC NEAR ; _STL::allocator<CSpriteSurface *>::allocator<CSpriteSurface *>, COMDAT
; _this$ = ecx

; 345  :   allocator() _STLP_NOTHROW {}

  00000	8b c1		 mov	 eax, ecx
  00002	c3		 ret	 0
??0?$allocator@PAVCSpriteSurface@@@_STL@@QAE@XZ ENDP	; _STL::allocator<CSpriteSurface *>::allocator<CSpriteSurface *>
_TEXT	ENDS
PUBLIC	??1?$allocator@PAVCSpriteSurface@@@_STL@@QAE@XZ	; _STL::allocator<CSpriteSurface *>::~allocator<CSpriteSurface *>
; Function compile flags: /Ogsy
;	COMDAT ??1?$allocator@PAVCSpriteSurface@@@_STL@@QAE@XZ
_TEXT	SEGMENT
??1?$allocator@PAVCSpriteSurface@@@_STL@@QAE@XZ PROC NEAR ; _STL::allocator<CSpriteSurface *>::~allocator<CSpriteSurface *>, COMDAT
; _this$ = ecx

; 350  :   ~allocator() _STLP_NOTHROW {}

  00000	c3		 ret	 0
??1?$allocator@PAVCSpriteSurface@@@_STL@@QAE@XZ ENDP	; _STL::allocator<CSpriteSurface *>::~allocator<CSpriteSurface *>
_TEXT	ENDS
PUBLIC	??D?$_List_iterator@PAVCSpriteSurface@@U?$_Nonconst_traits@PAVCSpriteSurface@@@_STL@@@_STL@@QBEAAPAVCSpriteSurface@@XZ ; _STL::_List_iterator<CSpriteSurface *,_STL::_Nonconst_traits<CSpriteSurface *> >::operator*
; Function compile flags: /Ogsy
; File c:\stlport-4.6.1\stlport\stl\_list.h
;	COMDAT ??D?$_List_iterator@PAVCSpriteSurface@@U?$_Nonconst_traits@PAVCSpriteSurface@@@_STL@@@_STL@@QBEAAPAVCSpriteSurface@@XZ
_TEXT	SEGMENT
??D?$_List_iterator@PAVCSpriteSurface@@U?$_Nonconst_traits@PAVCSpriteSurface@@@_STL@@@_STL@@QBEAAPAVCSpriteSurface@@XZ PROC NEAR ; _STL::_List_iterator<CSpriteSurface *,_STL::_Nonconst_traits<CSpriteSurface *> >::operator*, COMDAT
; _this$ = ecx

; 130  :   reference operator*() const { return ((_Node*)_M_node)->_M_data; }

  00000	8b 01		 mov	 eax, DWORD PTR [ecx]
  00002	83 c0 08	 add	 eax, 8
  00005	c3		 ret	 0
??D?$_List_iterator@PAVCSpriteSurface@@U?$_Nonconst_traits@PAVCSpriteSurface@@@_STL@@@_STL@@QBEAAPAVCSpriteSurface@@XZ ENDP ; _STL::_List_iterator<CSpriteSurface *,_STL::_Nonconst_traits<CSpriteSurface *> >::operator*
_TEXT	ENDS
PUBLIC	?_M_terminate_string_aux@?$basic_string@DV?$char_traits@D@_STL@@V?$allocator@D@2@@_STL@@AAEXABU__true_type@2@@Z ; _STL::basic_string<char,_STL::char_traits<char>,_STL::allocator<char> >::_M_terminate_string_aux
; Function compile flags: /Ogsy
; File c:\stlport-4.6.1\stlport\stl\_string.h
;	COMDAT ?_M_terminate_string_aux@?$basic_string@DV?$char_traits@D@_STL@@V?$allocator@D@2@@_STL@@AAEXABU__true_type@2@@Z
_TEXT	SEGMENT
___formal$ = 8						; size = 4
?_M_terminate_string_aux@?$basic_string@DV?$char_traits@D@_STL@@V?$allocator@D@2@@_STL@@AAEXABU__true_type@2@@Z PROC NEAR ; _STL::basic_string<char,_STL::char_traits<char>,_STL::allocator<char> >::_M_terminate_string_aux, COMDAT
; _this$ = ecx

; 351  :     *(this->_M_finish)=0;

  00000	8b 41 04	 mov	 eax, DWORD PTR [ecx+4]
  00003	c6 00 00	 mov	 BYTE PTR [eax], 0

; 352  :   }

  00006	c2 04 00	 ret	 4
?_M_terminate_string_aux@?$basic_string@DV?$char_traits@D@_STL@@V?$allocator@D@2@@_STL@@AAEXABU__true_type@2@@Z ENDP ; _STL::basic_string<char,_STL::char_traits<char>,_STL::allocator<char> >::_M_terminate_string_aux
_TEXT	ENDS
PUBLIC	??0?$allocator@D@_STL@@QAE@ABV01@@Z		; _STL::allocator<char>::allocator<char>
; Function compile flags: /Ogsy
; File c:\stlport-4.6.1\stlport\stl\_alloc.h
;	COMDAT ??0?$allocator@D@_STL@@QAE@ABV01@@Z
_TEXT	SEGMENT
___formal$ = 8						; size = 4
??0?$allocator@D@_STL@@QAE@ABV01@@Z PROC NEAR		; _STL::allocator<char>::allocator<char>, COMDAT
; _this$ = ecx

; 349  :   allocator(const allocator<_Tp>&) _STLP_NOTHROW {}

  00000	8b c1		 mov	 eax, ecx
  00002	c2 04 00	 ret	 4
??0?$allocator@D@_STL@@QAE@ABV01@@Z ENDP		; _STL::allocator<char>::allocator<char>
_TEXT	ENDS
PUBLIC	??0_List_iterator_base@_STL@@QAE@PAU_List_node_base@1@@Z ; _STL::_List_iterator_base::_List_iterator_base
; Function compile flags: /Ogsy
; File c:\stlport-4.6.1\stlport\stl\_list.h
;	COMDAT ??0_List_iterator_base@_STL@@QAE@PAU_List_node_base@1@@Z
_TEXT	SEGMENT
___x$ = 8						; size = 4
??0_List_iterator_base@_STL@@QAE@PAU_List_node_base@1@@Z PROC NEAR ; _STL::_List_iterator_base::_List_iterator_base, COMDAT
; _this$ = ecx

; 95   :   _List_iterator_base(_List_node_base* __x) : _M_node(__x) {}

  00000	8b c1		 mov	 eax, ecx
  00002	8b 4c 24 04	 mov	 ecx, DWORD PTR ___x$[esp-4]
  00006	89 08		 mov	 DWORD PTR [eax], ecx
  00008	c2 04 00	 ret	 4
??0_List_iterator_base@_STL@@QAE@PAU_List_node_base@1@@Z ENDP ; _STL::_List_iterator_base::_List_iterator_base
_TEXT	ENDS
PUBLIC	??0_List_iterator_base@_STL@@QAE@XZ		; _STL::_List_iterator_base::_List_iterator_base
; Function compile flags: /Ogsy
;	COMDAT ??0_List_iterator_base@_STL@@QAE@XZ
_TEXT	SEGMENT
??0_List_iterator_base@_STL@@QAE@XZ PROC NEAR		; _STL::_List_iterator_base::_List_iterator_base, COMDAT
; _this$ = ecx

; 96   :   _List_iterator_base() {}

  00000	8b c1		 mov	 eax, ecx
  00002	c3		 ret	 0
??0_List_iterator_base@_STL@@QAE@XZ ENDP		; _STL::_List_iterator_base::_List_iterator_base
_TEXT	ENDS
PUBLIC	?_M_incr@_List_iterator_base@_STL@@QAEXXZ	; _STL::_List_iterator_base::_M_incr
; Function compile flags: /Ogsy
;	COMDAT ?_M_incr@_List_iterator_base@_STL@@QAEXXZ
_TEXT	SEGMENT
?_M_incr@_List_iterator_base@_STL@@QAEXXZ PROC NEAR	; _STL::_List_iterator_base::_M_incr, COMDAT
; _this$ = ecx

; 98   :   void _M_incr() { _M_node = _M_node->_M_next; }

  00000	8b 01		 mov	 eax, DWORD PTR [ecx]
  00002	8b 00		 mov	 eax, DWORD PTR [eax]
  00004	89 01		 mov	 DWORD PTR [ecx], eax
  00006	c3		 ret	 0
?_M_incr@_List_iterator_base@_STL@@QAEXXZ ENDP		; _STL::_List_iterator_base::_M_incr
_TEXT	ENDS
PUBLIC	?_M_decr@_List_iterator_base@_STL@@QAEXXZ	; _STL::_List_iterator_base::_M_decr
; Function compile flags: /Ogsy
;	COMDAT ?_M_decr@_List_iterator_base@_STL@@QAEXXZ
_TEXT	SEGMENT
?_M_decr@_List_iterator_base@_STL@@QAEXXZ PROC NEAR	; _STL::_List_iterator_base::_M_decr, COMDAT
; _this$ = ecx

; 99   :   void _M_decr() { _M_node = _M_node->_M_prev; }

  00000	8b 01		 mov	 eax, DWORD PTR [ecx]
  00002	8b 40 04	 mov	 eax, DWORD PTR [eax+4]
  00005	89 01		 mov	 DWORD PTR [ecx], eax
  00007	c3		 ret	 0
?_M_decr@_List_iterator_base@_STL@@QAEXXZ ENDP		; _STL::_List_iterator_base::_M_decr
_TEXT	ENDS
PUBLIC	?end@?$basic_string@DV?$char_traits@D@_STL@@V?$allocator@D@2@@_STL@@QAEPADXZ ; _STL::basic_string<char,_STL::char_traits<char>,_STL::allocator<char> >::end
; Function compile flags: /Ogsy
; File c:\stlport-4.6.1\stlport\stl\_string.h
;	COMDAT ?end@?$basic_string@DV?$char_traits@D@_STL@@V?$allocator@D@2@@_STL@@QAEPADXZ
_TEXT	SEGMENT
?end@?$basic_string@DV?$char_traits@D@_STL@@V?$allocator@D@2@@_STL@@QAEPADXZ PROC NEAR ; _STL::basic_string<char,_STL::char_traits<char>,_STL::allocator<char> >::end, COMDAT
; _this$ = ecx

; 417  :   iterator end()               { return this->_M_finish; }

  00000	8b 41 04	 mov	 eax, DWORD PTR [ecx+4]
  00003	c3		 ret	 0
?end@?$basic_string@DV?$char_traits@D@_STL@@V?$allocator@D@2@@_STL@@QAEPADXZ ENDP ; _STL::basic_string<char,_STL::char_traits<char>,_STL::allocator<char> >::end
_TEXT	ENDS
PUBLIC	?size@?$basic_string@DV?$char_traits@D@_STL@@V?$allocator@D@2@@_STL@@QBEIXZ ; _STL::basic_string<char,_STL::char_traits<char>,_STL::allocator<char> >::size
; Function compile flags: /Ogsy
;	COMDAT ?size@?$basic_string@DV?$char_traits@D@_STL@@V?$allocator@D@2@@_STL@@QBEIXZ
_TEXT	SEGMENT
?size@?$basic_string@DV?$char_traits@D@_STL@@V?$allocator@D@2@@_STL@@QBEIXZ PROC NEAR ; _STL::basic_string<char,_STL::char_traits<char>,_STL::allocator<char> >::size, COMDAT
; _this$ = ecx

; 431  :   size_type size() const { return this->_M_finish - this->_M_start; }

  00000	8b 41 04	 mov	 eax, DWORD PTR [ecx+4]
  00003	2b 01		 sub	 eax, DWORD PTR [ecx]
  00005	c3		 ret	 0
?size@?$basic_string@DV?$char_traits@D@_STL@@V?$allocator@D@2@@_STL@@QBEIXZ ENDP ; _STL::basic_string<char,_STL::char_traits<char>,_STL::allocator<char> >::size
_TEXT	ENDS
PUBLIC	??9_List_iterator_base@_STL@@QBE_NABU01@@Z	; _STL::_List_iterator_base::operator!=
; Function compile flags: /Ogsy
; File c:\stlport-4.6.1\stlport\stl\_list.h
;	COMDAT ??9_List_iterator_base@_STL@@QBE_NABU01@@Z
_TEXT	SEGMENT
___y$ = 8						; size = 4
??9_List_iterator_base@_STL@@QBE_NABU01@@Z PROC NEAR	; _STL::_List_iterator_base::operator!=, COMDAT
; _this$ = ecx

; 104  :     return _M_node != __y._M_node; 

  00000	8b 01		 mov	 eax, DWORD PTR [ecx]
  00002	8b 54 24 04	 mov	 edx, DWORD PTR ___y$[esp-4]
  00006	33 c9		 xor	 ecx, ecx
  00008	3b 02		 cmp	 eax, DWORD PTR [edx]
  0000a	0f 95 c1	 setne	 cl
  0000d	8a c1		 mov	 al, cl

; 105  :   }

  0000f	c2 04 00	 ret	 4
??9_List_iterator_base@_STL@@QBE_NABU01@@Z ENDP		; _STL::_List_iterator_base::operator!=
_TEXT	ENDS
PUBLIC	??1?$allocator@U?$_List_node@PAVCSpriteSurface@@@_STL@@@_STL@@QAE@XZ ; _STL::allocator<_STL::_List_node<CSpriteSurface *> >::~allocator<_STL::_List_node<CSpriteSurface *> >
; Function compile flags: /Ogsy
; File c:\stlport-4.6.1\stlport\stl\_alloc.h
;	COMDAT ??1?$allocator@U?$_List_node@PAVCSpriteSurface@@@_STL@@@_STL@@QAE@XZ
_TEXT	SEGMENT
??1?$allocator@U?$_List_node@PAVCSpriteSurface@@@_STL@@@_STL@@QAE@XZ PROC NEAR ; _STL::allocator<_STL::_List_node<CSpriteSurface *> >::~allocator<_STL::_List_node<CSpriteSurface *> >, COMDAT
; _this$ = ecx

; 350  :   ~allocator() _STLP_NOTHROW {}

  00000	c3		 ret	 0
??1?$allocator@U?$_List_node@PAVCSpriteSurface@@@_STL@@@_STL@@QAE@XZ ENDP ; _STL::allocator<_STL::_List_node<CSpriteSurface *> >::~allocator<_STL::_List_node<CSpriteSurface *> >
_TEXT	ENDS
PUBLIC	?move@?$__char_traits_base@DH@_STL@@SAPADPADPBDI@Z ; _STL::__char_traits_base<char,int>::move
; Function compile flags: /Ogsy
; File c:\stlport-4.6.1\stlport\stl\char_traits.h
;	COMDAT ?move@?$__char_traits_base@DH@_STL@@SAPADPADPBDI@Z
_TEXT	SEGMENT
___s1$ = 8						; size = 4
___s2$ = 12						; size = 4
__Sz$ = 16						; size = 4
?move@?$__char_traits_base@DH@_STL@@SAPADPADPBDI@Z PROC NEAR ; _STL::__char_traits_base<char,int>::move, COMDAT

; 165  :   static _CharT* _STLP_CALL move(_CharT* __s1, const _CharT* __s2, size_t _Sz) {    

  00000	55		 push	 ebp
  00001	8b ec		 mov	 ebp, esp

; 166  :     return (_Sz == 0 ? __s1 : (_CharT*)memmove(__s1, __s2, _Sz * sizeof(_CharT)));

  00003	83 7d 10 00	 cmp	 DWORD PTR __Sz$[ebp], 0
  00007	75 05		 jne	 SHORT $L115401
  00009	8b 45 08	 mov	 eax, DWORD PTR ___s1$[ebp]

; 167  :   }

  0000c	5d		 pop	 ebp
  0000d	c3		 ret	 0
$L115401:
  0000e	5d		 pop	 ebp

; 166  :     return (_Sz == 0 ? __s1 : (_CharT*)memmove(__s1, __s2, _Sz * sizeof(_CharT)));

  0000f	e9 00 00 00 00	 jmp	 _memmove
?move@?$__char_traits_base@DH@_STL@@SAPADPADPBDI@Z ENDP	; _STL::__char_traits_base<char,int>::move
_TEXT	ENDS
PUBLIC	??0?$allocator@U?$_List_node@PAVCSpriteSurface@@@_STL@@@_STL@@QAE@ABV01@@Z ; _STL::allocator<_STL::_List_node<CSpriteSurface *> >::allocator<_STL::_List_node<CSpriteSurface *> >
; Function compile flags: /Ogsy
; File c:\stlport-4.6.1\stlport\stl\_alloc.h
;	COMDAT ??0?$allocator@U?$_List_node@PAVCSpriteSurface@@@_STL@@@_STL@@QAE@ABV01@@Z
_TEXT	SEGMENT
___formal$ = 8						; size = 4
??0?$allocator@U?$_List_node@PAVCSpriteSurface@@@_STL@@@_STL@@QAE@ABV01@@Z PROC NEAR ; _STL::allocator<_STL::_List_node<CSpriteSurface *> >::allocator<_STL::_List_node<CSpriteSurface *> >, COMDAT
; _this$ = ecx

; 349  :   allocator(const allocator<_Tp>&) _STLP_NOTHROW {}

  00000	8b c1		 mov	 eax, ecx
  00002	c2 04 00	 ret	 4
??0?$allocator@U?$_List_node@PAVCSpriteSurface@@@_STL@@@_STL@@QAE@ABV01@@Z ENDP ; _STL::allocator<_STL::_List_node<CSpriteSurface *> >::allocator<_STL::_List_node<CSpriteSurface *> >
_TEXT	ENDS
PUBLIC	?_M_exit_input_mode@?$basic_filebuf@DV?$char_traits@D@_STL@@@_STL@@AAEXXZ ; _STL::basic_filebuf<char,_STL::char_traits<char> >::_M_exit_input_mode
EXTRN	?_M_unmap@_Filebuf_base@_STL@@QAEXPAXJ@Z:NEAR	; _STL::_Filebuf_base::_M_unmap
; Function compile flags: /Ogsy
; File c:\stlport-4.6.1\stlport\stl\_fstream.c
;	COMDAT ?_M_exit_input_mode@?$basic_filebuf@DV?$char_traits@D@_STL@@@_STL@@AAEXXZ
_TEXT	SEGMENT
?_M_exit_input_mode@?$basic_filebuf@DV?$char_traits@D@_STL@@@_STL@@AAEXXZ PROC NEAR ; _STL::basic_filebuf<char,_STL::char_traits<char> >::_M_exit_input_mode, COMDAT
; _this$ = ecx

; 119  : {

  00000	56		 push	 esi
  00001	8b f1		 mov	 esi, ecx

; 120  :    if (_M_mmap_base != 0)

  00003	8b 86 8c 00 00
	00		 mov	 eax, DWORD PTR [esi+140]
  00009	85 c0		 test	 eax, eax
  0000b	74 0f		 je	 SHORT $L112101

; 121  :      _M_base._M_unmap(_M_mmap_base, _M_mmap_len); 

  0000d	ff b6 90 00 00
	00		 push	 DWORD PTR [esi+144]
  00013	8d 4e 54	 lea	 ecx, DWORD PTR [esi+84]
  00016	50		 push	 eax
  00017	e8 00 00 00 00	 call	 ?_M_unmap@_Filebuf_base@_STL@@QAEXPAXJ@Z ; _STL::_Filebuf_base::_M_unmap
$L112101:

; 122  :    _M_in_input_mode = false;
; 123  :    _M_mmap_base = 0;

  0001c	83 a6 8c 00 00
	00 00		 and	 DWORD PTR [esi+140], 0
  00023	c6 46 67 00	 mov	 BYTE PTR [esi+103], 0
  00027	5e		 pop	 esi

; 124  : }

  00028	c3		 ret	 0
?_M_exit_input_mode@?$basic_filebuf@DV?$char_traits@D@_STL@@@_STL@@AAEXXZ ENDP ; _STL::basic_filebuf<char,_STL::char_traits<char> >::_M_exit_input_mode
_TEXT	ENDS
PUBLIC	?_M_deallocate_buffers@?$basic_filebuf@DV?$char_traits@D@_STL@@@_STL@@AAEXXZ ; _STL::basic_filebuf<char,_STL::char_traits<char> >::_M_deallocate_buffers
EXTRN	_free:NEAR
; Function compile flags: /Ogsy
;	COMDAT ?_M_deallocate_buffers@?$basic_filebuf@DV?$char_traits@D@_STL@@@_STL@@AAEXXZ
_TEXT	SEGMENT
?_M_deallocate_buffers@?$basic_filebuf@DV?$char_traits@D@_STL@@@_STL@@AAEXXZ PROC NEAR ; _STL::basic_filebuf<char,_STL::char_traits<char> >::_M_deallocate_buffers, COMDAT
; _this$ = ecx

; 684  : {

  00000	53		 push	 ebx
  00001	56		 push	 esi
  00002	8b f1		 mov	 esi, ecx

; 685  :   if (_M_int_buf_dynamic)

  00004	33 db		 xor	 ebx, ebx
  00006	38 5e 66	 cmp	 BYTE PTR [esi+102], bl
  00009	74 09		 je	 SHORT $L112146

; 686  :     free(_M_int_buf);

  0000b	ff 76 6c	 push	 DWORD PTR [esi+108]
  0000e	e8 00 00 00 00	 call	 _free
  00013	59		 pop	 ecx
$L112146:

; 687  :   free(_M_ext_buf);

  00014	ff 76 74	 push	 DWORD PTR [esi+116]
  00017	e8 00 00 00 00	 call	 _free
  0001c	59		 pop	 ecx

; 688  :   _M_int_buf     = 0;

  0001d	89 5e 6c	 mov	 DWORD PTR [esi+108], ebx

; 689  :   _M_int_buf_EOS = 0;

  00020	89 5e 70	 mov	 DWORD PTR [esi+112], ebx

; 690  :   _M_ext_buf     = 0;

  00023	89 5e 74	 mov	 DWORD PTR [esi+116], ebx

; 691  :   _M_ext_buf_EOS = 0;

  00026	89 5e 78	 mov	 DWORD PTR [esi+120], ebx
  00029	5e		 pop	 esi
  0002a	5b		 pop	 ebx

; 692  : }

  0002b	c3		 ret	 0
?_M_deallocate_buffers@?$basic_filebuf@DV?$char_traits@D@_STL@@@_STL@@AAEXXZ ENDP ; _STL::basic_filebuf<char,_STL::char_traits<char> >::_M_deallocate_buffers
_TEXT	ENDS
PUBLIC	??_R4?$basic_ios@DV?$char_traits@D@_STL@@@_STL@@6B@ ; _STL::basic_ios<char,_STL::char_traits<char> >::`RTTI Complete Object Locator'
PUBLIC	??_R3?$basic_ios@DV?$char_traits@D@_STL@@@_STL@@8 ; _STL::basic_ios<char,_STL::char_traits<char> >::`RTTI Class Hierarchy Descriptor'
PUBLIC	??_R2?$basic_ios@DV?$char_traits@D@_STL@@@_STL@@8 ; _STL::basic_ios<char,_STL::char_traits<char> >::`RTTI Base Class Array'
PUBLIC	??_R1A@?0A@A@?$basic_ios@DV?$char_traits@D@_STL@@@_STL@@8 ; _STL::basic_ios<char,_STL::char_traits<char> >::`RTTI Base Class Descriptor at (0,-1,0,0)'
PUBLIC	??_R1A@?0A@A@ios_base@_STL@@8			; _STL::ios_base::`RTTI Base Class Descriptor at (0,-1,0,0)'
PUBLIC	??0?$basic_ios@DV?$char_traits@D@_STL@@@_STL@@IAE@XZ ; _STL::basic_ios<char,_STL::char_traits<char> >::basic_ios<char,_STL::char_traits<char> >
PUBLIC	??_7?$basic_ios@DV?$char_traits@D@_STL@@@_STL@@6B@ ; _STL::basic_ios<char,_STL::char_traits<char> >::`vftable'
PUBLIC	??_G?$basic_ios@DV?$char_traits@D@_STL@@@_STL@@UAEPAXI@Z ; _STL::basic_ios<char,_STL::char_traits<char> >::`scalar deleting destructor'
PUBLIC	??_R0?AV?$basic_ios@DV?$char_traits@D@_STL@@@_STL@@@8 ; _STL::basic_ios<char,_STL::char_traits<char> > `RTTI Type Descriptor'
PUBLIC	??_R0?AVios_base@_STL@@@8			; _STL::ios_base `RTTI Type Descriptor'
EXTRN	??_E?$basic_ios@DV?$char_traits@D@_STL@@@_STL@@UAEPAXI@Z:NEAR ; _STL::basic_ios<char,_STL::char_traits<char> >::`vector deleting destructor'
EXTRN	??0ios_base@_STL@@IAE@XZ:NEAR			; _STL::ios_base::ios_base
;	COMDAT ??_7?$basic_ios@DV?$char_traits@D@_STL@@@_STL@@6B@
; File c:\stlport-4.6.1\stlport\stl\_ios.c
CONST	SEGMENT
??_7?$basic_ios@DV?$char_traits@D@_STL@@@_STL@@6B@ DD FLAT:??_R4?$basic_ios@DV?$char_traits@D@_STL@@@_STL@@6B@ ; _STL::basic_ios<char,_STL::char_traits<char> >::`vftable'
	DD	FLAT:??_E?$basic_ios@DV?$char_traits@D@_STL@@@_STL@@UAEPAXI@Z
CONST	ENDS
;	COMDAT ??_R4?$basic_ios@DV?$char_traits@D@_STL@@@_STL@@6B@
rdata$r	SEGMENT
??_R4?$basic_ios@DV?$char_traits@D@_STL@@@_STL@@6B@ DD 00H ; _STL::basic_ios<char,_STL::char_traits<char> >::`RTTI Complete Object Locator'
	DD	00H
	DD	00H
	DD	FLAT:??_R0?AV?$basic_ios@DV?$char_traits@D@_STL@@@_STL@@@8
	DD	FLAT:??_R3?$basic_ios@DV?$char_traits@D@_STL@@@_STL@@8
rdata$r	ENDS
;	COMDAT ??_R0?AV?$basic_ios@DV?$char_traits@D@_STL@@@_STL@@@8
_DATA	SEGMENT
??_R0?AV?$basic_ios@DV?$char_traits@D@_STL@@@_STL@@@8 DD FLAT:??_7type_info@@6B@ ; _STL::basic_ios<char,_STL::char_traits<char> > `RTTI Type Descriptor'
	DD	00H
	DB	'.?AV?$basic_ios@DV?$char_traits@D@_STL@@@_STL@@', 00H
_DATA	ENDS
;	COMDAT ??_R3?$basic_ios@DV?$char_traits@D@_STL@@@_STL@@8
rdata$r	SEGMENT
??_R3?$basic_ios@DV?$char_traits@D@_STL@@@_STL@@8 DD 00H ; _STL::basic_ios<char,_STL::char_traits<char> >::`RTTI Class Hierarchy Descriptor'
	DD	00H
	DD	02H
	DD	FLAT:??_R2?$basic_ios@DV?$char_traits@D@_STL@@@_STL@@8
rdata$r	ENDS
;	COMDAT ??_R2?$basic_ios@DV?$char_traits@D@_STL@@@_STL@@8
rdata$r	SEGMENT
??_R2?$basic_ios@DV?$char_traits@D@_STL@@@_STL@@8 DD FLAT:??_R1A@?0A@A@?$basic_ios@DV?$char_traits@D@_STL@@@_STL@@8 ; _STL::basic_ios<char,_STL::char_traits<char> >::`RTTI Base Class Array'
	DD	FLAT:??_R1A@?0A@A@ios_base@_STL@@8
rdata$r	ENDS
;	COMDAT ??_R1A@?0A@A@?$basic_ios@DV?$char_traits@D@_STL@@@_STL@@8
rdata$r	SEGMENT
??_R1A@?0A@A@?$basic_ios@DV?$char_traits@D@_STL@@@_STL@@8 DD FLAT:??_R0?AV?$basic_ios@DV?$char_traits@D@_STL@@@_STL@@@8 ; _STL::basic_ios<char,_STL::char_traits<char> >::`RTTI Base Class Descriptor at (0,-1,0,0)'
	DD	01H
	DD	00H
	DD	0ffffffffH
	DD	00H
	DD	00H
rdata$r	ENDS
;	COMDAT ??_R1A@?0A@A@ios_base@_STL@@8
rdata$r	SEGMENT
??_R1A@?0A@A@ios_base@_STL@@8 DD FLAT:??_R0?AVios_base@_STL@@@8 ; _STL::ios_base::`RTTI Base Class Descriptor at (0,-1,0,0)'
	DD	00H
	DD	00H
	DD	0ffffffffH
	DD	00H
	DD	00H
rdata$r	ENDS
;	COMDAT ??_R0?AVios_base@_STL@@@8
_DATA	SEGMENT
??_R0?AVios_base@_STL@@@8 DD FLAT:??_7type_info@@6B@	; _STL::ios_base `RTTI Type Descriptor'
	DD	00H
	DB	'.?AVios_base@_STL@@', 00H
; Function compile flags: /Ogsy
_DATA	ENDS
;	COMDAT ??0?$basic_ios@DV?$char_traits@D@_STL@@@_STL@@IAE@XZ
_TEXT	SEGMENT
??0?$basic_ios@DV?$char_traits@D@_STL@@@_STL@@IAE@XZ PROC NEAR ; _STL::basic_ios<char,_STL::char_traits<char> >::basic_ios<char,_STL::char_traits<char> >, COMDAT
; _this$ = ecx

; 95   : {}

  00000	56		 push	 esi
  00001	8b f1		 mov	 esi, ecx
  00003	e8 00 00 00 00	 call	 ??0ios_base@_STL@@IAE@XZ ; _STL::ios_base::ios_base
  00008	33 c0		 xor	 eax, eax
  0000a	88 46 54	 mov	 BYTE PTR [esi+84], al
  0000d	89 46 58	 mov	 DWORD PTR [esi+88], eax
  00010	89 46 5c	 mov	 DWORD PTR [esi+92], eax
  00013	c7 06 00 00 00
	00		 mov	 DWORD PTR [esi], OFFSET FLAT:??_7?$basic_ios@DV?$char_traits@D@_STL@@@_STL@@6B@
  00019	8b c6		 mov	 eax, esi
  0001b	5e		 pop	 esi
  0001c	c3		 ret	 0
??0?$basic_ios@DV?$char_traits@D@_STL@@@_STL@@IAE@XZ ENDP ; _STL::basic_ios<char,_STL::char_traits<char> >::basic_ios<char,_STL::char_traits<char> >
_TEXT	ENDS
PUBLIC	??$?0PAVCSpriteSurface@@@?$allocator@U?$_List_node@PAVCSpriteSurface@@@_STL@@@_STL@@QAE@ABV?$allocator@PAVCSpriteSurface@@@1@@Z ; _STL::allocator<_STL::_List_node<CSpriteSurface *> >::allocator<_STL::_List_node<CSpriteSurface *> ><CSpriteSurface *>
; Function compile flags: /Ogsy
; File c:\stlport-4.6.1\stlport\stl\_alloc.h
;	COMDAT ??$?0PAVCSpriteSurface@@@?$allocator@U?$_List_node@PAVCSpriteSurface@@@_STL@@@_STL@@QAE@ABV?$allocator@PAVCSpriteSurface@@@1@@Z
_TEXT	SEGMENT
___formal$ = 8						; size = 4
??$?0PAVCSpriteSurface@@@?$allocator@U?$_List_node@PAVCSpriteSurface@@@_STL@@@_STL@@QAE@ABV?$allocator@PAVCSpriteSurface@@@1@@Z PROC NEAR ; _STL::allocator<_STL::_List_node<CSpriteSurface *> >::allocator<_STL::_List_node<CSpriteSurface *> ><CSpriteSurface *>, COMDAT
; _this$ = ecx

; 347  :   template <class _Tp1> allocator(const allocator<_Tp1>&) _STLP_NOTHROW {}

  00000	8b c1		 mov	 eax, ecx
  00002	c2 04 00	 ret	 4
??$?0PAVCSpriteSurface@@@?$allocator@U?$_List_node@PAVCSpriteSurface@@@_STL@@@_STL@@QAE@ABV?$allocator@PAVCSpriteSurface@@@1@@Z ENDP ; _STL::allocator<_STL::_List_node<CSpriteSurface *> >::allocator<_STL::_List_node<CSpriteSurface *> ><CSpriteSurface *>
_TEXT	ENDS
PUBLIC	??$_Construct@PAVCSpriteSurface@@PAV1@@_STL@@YAXPAPAVCSpriteSurface@@ABQAV1@@Z ; _STL::_Construct<CSpriteSurface *,CSpriteSurface *>
; Function compile flags: /Ogsy
; File c:\stlport-4.6.1\stlport\stl\_construct.h
;	COMDAT ??$_Construct@PAVCSpriteSurface@@PAV1@@_STL@@YAXPAPAVCSpriteSurface@@ABQAV1@@Z
_TEXT	SEGMENT
___p$ = 8						; size = 4
___val$ = 12						; size = 4
??$_Construct@PAVCSpriteSurface@@PAV1@@_STL@@YAXPAPAVCSpriteSurface@@ABQAV1@@Z PROC NEAR ; _STL::_Construct<CSpriteSurface *,CSpriteSurface *>, COMDAT

; 94   : # ifdef _STLP_DEBUG_UNINITIALIZED
; 95   : 	memset((char*)__p, _STLP_SHRED_BYTE, sizeof(_T1));
; 96   : # endif
; 97   :     _STLP_PLACEMENT_NEW (__p) _T1(__val);

  00000	8b 44 24 04	 mov	 eax, DWORD PTR ___p$[esp-4]
  00004	85 c0		 test	 eax, eax
  00006	74 08		 je	 SHORT $L115423
  00008	8b 4c 24 08	 mov	 ecx, DWORD PTR ___val$[esp-4]
  0000c	8b 09		 mov	 ecx, DWORD PTR [ecx]
  0000e	89 08		 mov	 DWORD PTR [eax], ecx
$L115423:

; 98   : }

  00010	c3		 ret	 0
??$_Construct@PAVCSpriteSurface@@PAV1@@_STL@@YAXPAPAVCSpriteSurface@@ABQAV1@@Z ENDP ; _STL::_Construct<CSpriteSurface *,CSpriteSurface *>
_TEXT	ENDS
PUBLIC	??_H@YGXPAXIHP6EPAX0@Z@Z			; `vector constructor iterator'
; Function compile flags: /Ogsy
;	COMDAT ??_H@YGXPAXIHP6EPAX0@Z@Z
_TEXT	SEGMENT
___t$ = 8						; size = 4
___s$ = 12						; size = 4
___n$ = 16						; size = 4
___f$ = 20						; size = 4
??_H@YGXPAXIHP6EPAX0@Z@Z PROC NEAR			; `vector constructor iterator', COMDAT
  00000	8b 44 24 0c	 mov	 eax, DWORD PTR ___n$[esp-4]
  00004	48		 dec	 eax
  00005	78 18		 js	 SHORT $L113259
  00007	56		 push	 esi
  00008	8b 74 24 08	 mov	 esi, DWORD PTR ___t$[esp]
  0000c	57		 push	 edi
  0000d	8d 78 01	 lea	 edi, DWORD PTR [eax+1]
$L113258:
  00010	8b ce		 mov	 ecx, esi
  00012	ff 54 24 18	 call	 DWORD PTR ___f$[esp+4]
  00016	03 74 24 10	 add	 esi, DWORD PTR ___s$[esp+4]
  0001a	4f		 dec	 edi
  0001b	75 f3		 jne	 SHORT $L113258
  0001d	5f		 pop	 edi
  0001e	5e		 pop	 esi
$L113259:
  0001f	c2 10 00	 ret	 16			; 00000010H
??_H@YGXPAXIHP6EPAX0@Z@Z ENDP				; `vector constructor iterator'
_TEXT	ENDS
PUBLIC	??_ECShadowSprite@@QAEPAXI@Z			; CShadowSprite::`vector deleting destructor'
EXTRN	??_M@YGXPAXIHP6EX0@Z@Z:NEAR			; `eh vector destructor iterator'
EXTRN	??1CShadowSprite@@QAE@XZ:NEAR			; CShadowSprite::~CShadowSprite
EXTRN	??_V@YAXPAX@Z:NEAR				; operator delete[]
; Function compile flags: /Ogsy
;	COMDAT ??_ECShadowSprite@@QAEPAXI@Z
_TEXT	SEGMENT
___flags$ = 8						; size = 4
??_ECShadowSprite@@QAEPAXI@Z PROC NEAR			; CShadowSprite::`vector deleting destructor', COMDAT
; _this$ = ecx
  00000	53		 push	 ebx
  00001	8a 5c 24 08	 mov	 bl, BYTE PTR ___flags$[esp]
  00005	f6 c3 02	 test	 bl, 2
  00008	56		 push	 esi
  00009	8b f1		 mov	 esi, ecx
  0000b	74 24		 je	 SHORT $L113268
  0000d	57		 push	 edi
  0000e	68 00 00 00 00	 push	 OFFSET FLAT:??1CShadowSprite@@QAE@XZ ; CShadowSprite::~CShadowSprite
  00013	8d 7e fc	 lea	 edi, DWORD PTR [esi-4]
  00016	ff 37		 push	 DWORD PTR [edi]
  00018	6a 0c		 push	 12			; 0000000cH
  0001a	56		 push	 esi
  0001b	e8 00 00 00 00	 call	 ??_M@YGXPAXIHP6EX0@Z@Z
  00020	f6 c3 01	 test	 bl, 1
  00023	74 07		 je	 SHORT $L113269
  00025	57		 push	 edi
  00026	e8 00 00 00 00	 call	 ??_V@YAXPAX@Z		; operator delete[]
  0002b	59		 pop	 ecx
$L113269:
  0002c	8b c7		 mov	 eax, edi
  0002e	5f		 pop	 edi
  0002f	eb 15		 jmp	 SHORT $L113267
$L113268:
  00031	8b ce		 mov	 ecx, esi
  00033	e8 00 00 00 00	 call	 ??1CShadowSprite@@QAE@XZ ; CShadowSprite::~CShadowSprite
  00038	f6 c3 01	 test	 bl, 1
  0003b	74 07		 je	 SHORT $L113271
  0003d	56		 push	 esi
  0003e	e8 00 00 00 00	 call	 ??3@YAXPAX@Z		; operator delete
  00043	59		 pop	 ecx
$L113271:
  00044	8b c6		 mov	 eax, esi
$L113267:
  00046	5e		 pop	 esi
  00047	5b		 pop	 ebx
  00048	c2 04 00	 ret	 4
??_ECShadowSprite@@QAEPAXI@Z ENDP			; CShadowSprite::`vector deleting destructor'
_TEXT	ENDS
PUBLIC	??0?$allocator@G@_STL@@QAE@XZ			; _STL::allocator<unsigned short>::allocator<unsigned short>
; Function compile flags: /Ogsy
; File c:\stlport-4.6.1\stlport\stl\_alloc.h
;	COMDAT ??0?$allocator@G@_STL@@QAE@XZ
_TEXT	SEGMENT
??0?$allocator@G@_STL@@QAE@XZ PROC NEAR			; _STL::allocator<unsigned short>::allocator<unsigned short>, COMDAT
; _this$ = ecx

; 345  :   allocator() _STLP_NOTHROW {}

  00000	8b c1		 mov	 eax, ecx
  00002	c3		 ret	 0
??0?$allocator@G@_STL@@QAE@XZ ENDP			; _STL::allocator<unsigned short>::allocator<unsigned short>
_TEXT	ENDS
PUBLIC	?tie@?$basic_ios@DV?$char_traits@D@_STL@@@_STL@@QAEPAV?$basic_ostream@DV?$char_traits@D@_STL@@@2@PAV32@@Z ; _STL::basic_ios<char,_STL::char_traits<char> >::tie
; Function compile flags: /Ogsy
; File c:\stlport-4.6.1\stlport\stl\_ios.h
;	COMDAT ?tie@?$basic_ios@DV?$char_traits@D@_STL@@@_STL@@QAEPAV?$basic_ostream@DV?$char_traits@D@_STL@@@2@PAV32@@Z
_TEXT	SEGMENT
___new_tied_ostream$ = 8				; size = 4
?tie@?$basic_ios@DV?$char_traits@D@_STL@@@_STL@@QAEPAV?$basic_ostream@DV?$char_traits@D@_STL@@@2@PAV32@@Z PROC NEAR ; _STL::basic_ios<char,_STL::char_traits<char> >::tie, COMDAT
; _this$ = ecx

; 66   :     basic_ostream<char_type, traits_type>* __tmp = _M_tied_ostream;
; 67   :     _M_tied_ostream = __new_tied_ostream;

  00000	8b 54 24 04	 mov	 edx, DWORD PTR ___new_tied_ostream$[esp-4]
  00004	8b 41 5c	 mov	 eax, DWORD PTR [ecx+92]
  00007	89 51 5c	 mov	 DWORD PTR [ecx+92], edx

; 68   :     return __tmp;
; 69   :   }

  0000a	c2 04 00	 ret	 4
?tie@?$basic_ios@DV?$char_traits@D@_STL@@@_STL@@QAEPAV?$basic_ostream@DV?$char_traits@D@_STL@@@2@PAV32@@Z ENDP ; _STL::basic_ios<char,_STL::char_traits<char> >::tie
_TEXT	ENDS
PUBLIC	?fill@?$basic_ios@DV?$char_traits@D@_STL@@@_STL@@QAEDD@Z ; _STL::basic_ios<char,_STL::char_traits<char> >::fill
; Function compile flags: /Ogsy
;	COMDAT ?fill@?$basic_ios@DV?$char_traits@D@_STL@@@_STL@@QAEDD@Z
_TEXT	SEGMENT
___fill$ = 8						; size = 1
?fill@?$basic_ios@DV?$char_traits@D@_STL@@@_STL@@QAEDD@Z PROC NEAR ; _STL::basic_ios<char,_STL::char_traits<char> >::fill, COMDAT
; _this$ = ecx

; 82   :     char_type __tmp(_M_fill);
; 83   :     _M_fill = __fill;

  00000	8a 54 24 04	 mov	 dl, BYTE PTR ___fill$[esp-4]
  00004	8a 41 54	 mov	 al, BYTE PTR [ecx+84]
  00007	88 51 54	 mov	 BYTE PTR [ecx+84], dl

; 84   :     return __tmp;
; 85   :   }

  0000a	c2 04 00	 ret	 4
?fill@?$basic_ios@DV?$char_traits@D@_STL@@@_STL@@QAEDD@Z ENDP ; _STL::basic_ios<char,_STL::char_traits<char> >::fill
_TEXT	ENDS
PUBLIC	??0?$_List_iterator@GU?$_Nonconst_traits@G@_STL@@@_STL@@QAE@XZ ; _STL::_List_iterator<unsigned short,_STL::_Nonconst_traits<unsigned short> >::_List_iterator<unsigned short,_STL::_Nonconst_traits<unsigned short> >
; Function compile flags: /Ogsy
; File c:\stlport-4.6.1\stlport\stl\_list.h
;	COMDAT ??0?$_List_iterator@GU?$_Nonconst_traits@G@_STL@@@_STL@@QAE@XZ
_TEXT	SEGMENT
??0?$_List_iterator@GU?$_Nonconst_traits@G@_STL@@@_STL@@QAE@XZ PROC NEAR ; _STL::_List_iterator<unsigned short,_STL::_Nonconst_traits<unsigned short> >::_List_iterator<unsigned short,_STL::_Nonconst_traits<unsigned short> >, COMDAT
; _this$ = ecx

; 127  :   _List_iterator() {}

  00000	8b c1		 mov	 eax, ecx
  00002	c3		 ret	 0
??0?$_List_iterator@GU?$_Nonconst_traits@G@_STL@@@_STL@@QAE@XZ ENDP ; _STL::_List_iterator<unsigned short,_STL::_Nonconst_traits<unsigned short> >::_List_iterator<unsigned short,_STL::_Nonconst_traits<unsigned short> >
_TEXT	ENDS
PUBLIC	??0?$_List_iterator@GU?$_Nonconst_traits@G@_STL@@@_STL@@QAE@ABU01@@Z ; _STL::_List_iterator<unsigned short,_STL::_Nonconst_traits<unsigned short> >::_List_iterator<unsigned short,_STL::_Nonconst_traits<unsigned short> >
; Function compile flags: /Ogsy
;	COMDAT ??0?$_List_iterator@GU?$_Nonconst_traits@G@_STL@@@_STL@@QAE@ABU01@@Z
_TEXT	SEGMENT
___x$ = 8						; size = 4
??0?$_List_iterator@GU?$_Nonconst_traits@G@_STL@@@_STL@@QAE@ABU01@@Z PROC NEAR ; _STL::_List_iterator<unsigned short,_STL::_Nonconst_traits<unsigned short> >::_List_iterator<unsigned short,_STL::_Nonconst_traits<unsigned short> >, COMDAT
; _this$ = ecx

; 128  :   _List_iterator(const iterator& __x) :  _List_iterator_base(__x._M_node) {}

  00000	8b c1		 mov	 eax, ecx
  00002	8b 4c 24 04	 mov	 ecx, DWORD PTR ___x$[esp-4]
  00006	8b 09		 mov	 ecx, DWORD PTR [ecx]
  00008	89 08		 mov	 DWORD PTR [eax], ecx
  0000a	c2 04 00	 ret	 4
??0?$_List_iterator@GU?$_Nonconst_traits@G@_STL@@@_STL@@QAE@ABU01@@Z ENDP ; _STL::_List_iterator<unsigned short,_STL::_Nonconst_traits<unsigned short> >::_List_iterator<unsigned short,_STL::_Nonconst_traits<unsigned short> >
_TEXT	ENDS
PUBLIC	??D?$_List_iterator@GU?$_Const_traits@G@_STL@@@_STL@@QBEABGXZ ; _STL::_List_iterator<unsigned short,_STL::_Const_traits<unsigned short> >::operator*
; Function compile flags: /Ogsy
;	COMDAT ??D?$_List_iterator@GU?$_Const_traits@G@_STL@@@_STL@@QBEABGXZ
_TEXT	SEGMENT
??D?$_List_iterator@GU?$_Const_traits@G@_STL@@@_STL@@QBEABGXZ PROC NEAR ; _STL::_List_iterator<unsigned short,_STL::_Const_traits<unsigned short> >::operator*, COMDAT
; _this$ = ecx

; 130  :   reference operator*() const { return ((_Node*)_M_node)->_M_data; }

  00000	8b 01		 mov	 eax, DWORD PTR [ecx]
  00002	83 c0 08	 add	 eax, 8
  00005	c3		 ret	 0
??D?$_List_iterator@GU?$_Const_traits@G@_STL@@@_STL@@QBEABGXZ ENDP ; _STL::_List_iterator<unsigned short,_STL::_Const_traits<unsigned short> >::operator*
_TEXT	ENDS
PUBLIC	?rdbuf@?$basic_ios@DV?$char_traits@D@_STL@@@_STL@@QBEPAV?$basic_streambuf@DV?$char_traits@D@_STL@@@2@XZ ; _STL::basic_ios<char,_STL::char_traits<char> >::rdbuf
; Function compile flags: /Ogsy
; File c:\stlport-4.6.1\stlport\stl\_ios.h
;	COMDAT ?rdbuf@?$basic_ios@DV?$char_traits@D@_STL@@@_STL@@QBEPAV?$basic_streambuf@DV?$char_traits@D@_STL@@@2@XZ
_TEXT	SEGMENT
?rdbuf@?$basic_ios@DV?$char_traits@D@_STL@@@_STL@@QBEPAV?$basic_streambuf@DV?$char_traits@D@_STL@@@2@XZ PROC NEAR ; _STL::basic_ios<char,_STL::char_traits<char> >::rdbuf, COMDAT
; _this$ = ecx

; 72   :     { return _M_streambuf; }

  00000	8b 41 58	 mov	 eax, DWORD PTR [ecx+88]
  00003	c3		 ret	 0
?rdbuf@?$basic_ios@DV?$char_traits@D@_STL@@@_STL@@QBEPAV?$basic_streambuf@DV?$char_traits@D@_STL@@@2@XZ ENDP ; _STL::basic_ios<char,_STL::char_traits<char> >::rdbuf
_TEXT	ENDS
PUBLIC	??0?$allocator@U?$pair@$$CBGPAVivfstream@@@_STL@@@_STL@@QAE@XZ ; _STL::allocator<_STL::pair<unsigned short const ,ivfstream *> >::allocator<_STL::pair<unsigned short const ,ivfstream *> >
; Function compile flags: /Ogsy
; File c:\stlport-4.6.1\stlport\stl\_alloc.h
;	COMDAT ??0?$allocator@U?$pair@$$CBGPAVivfstream@@@_STL@@@_STL@@QAE@XZ
_TEXT	SEGMENT
??0?$allocator@U?$pair@$$CBGPAVivfstream@@@_STL@@@_STL@@QAE@XZ PROC NEAR ; _STL::allocator<_STL::pair<unsigned short const ,ivfstream *> >::allocator<_STL::pair<unsigned short const ,ivfstream *> >, COMDAT
; _this$ = ecx

; 345  :   allocator() _STLP_NOTHROW {}

  00000	8b c1		 mov	 eax, ecx
  00002	c3		 ret	 0
??0?$allocator@U?$pair@$$CBGPAVivfstream@@@_STL@@@_STL@@QAE@XZ ENDP ; _STL::allocator<_STL::pair<unsigned short const ,ivfstream *> >::allocator<_STL::pair<unsigned short const ,ivfstream *> >
_TEXT	ENDS
PUBLIC	??1?$allocator@U?$pair@$$CBGPAVivfstream@@@_STL@@@_STL@@QAE@XZ ; _STL::allocator<_STL::pair<unsigned short const ,ivfstream *> >::~allocator<_STL::pair<unsigned short const ,ivfstream *> >
; Function compile flags: /Ogsy
;	COMDAT ??1?$allocator@U?$pair@$$CBGPAVivfstream@@@_STL@@@_STL@@QAE@XZ
_TEXT	SEGMENT
??1?$allocator@U?$pair@$$CBGPAVivfstream@@@_STL@@@_STL@@QAE@XZ PROC NEAR ; _STL::allocator<_STL::pair<unsigned short const ,ivfstream *> >::~allocator<_STL::pair<unsigned short const ,ivfstream *> >, COMDAT
; _this$ = ecx

; 350  :   ~allocator() _STLP_NOTHROW {}

  00000	c3		 ret	 0
??1?$allocator@U?$pair@$$CBGPAVivfstream@@@_STL@@@_STL@@QAE@XZ ENDP ; _STL::allocator<_STL::pair<unsigned short const ,ivfstream *> >::~allocator<_STL::pair<unsigned short const ,ivfstream *> >
_TEXT	ENDS
PUBLIC	??0?$_List_iterator@GU?$_Nonconst_traits@G@_STL@@@_STL@@QAE@PAU?$_List_node@G@1@@Z ; _STL::_List_iterator<unsigned short,_STL::_Nonconst_traits<unsigned short> >::_List_iterator<unsigned short,_STL::_Nonconst_traits<unsigned short> >
; Function compile flags: /Ogsy
; File c:\stlport-4.6.1\stlport\stl\_list.h
;	COMDAT ??0?$_List_iterator@GU?$_Nonconst_traits@G@_STL@@@_STL@@QAE@PAU?$_List_node@G@1@@Z
_TEXT	SEGMENT
___x$ = 8						; size = 4
??0?$_List_iterator@GU?$_Nonconst_traits@G@_STL@@@_STL@@QAE@PAU?$_List_node@G@1@@Z PROC NEAR ; _STL::_List_iterator<unsigned short,_STL::_Nonconst_traits<unsigned short> >::_List_iterator<unsigned short,_STL::_Nonconst_traits<unsigned short> >, COMDAT
; _this$ = ecx

; 126  :   _List_iterator(_Node* __x) : _List_iterator_base(__x) {}

  00000	8b c1		 mov	 eax, ecx
  00002	8b 4c 24 04	 mov	 ecx, DWORD PTR ___x$[esp-4]
  00006	89 08		 mov	 DWORD PTR [eax], ecx
  00008	c2 04 00	 ret	 4
??0?$_List_iterator@GU?$_Nonconst_traits@G@_STL@@@_STL@@QAE@PAU?$_List_node@G@1@@Z ENDP ; _STL::_List_iterator<unsigned short,_STL::_Nonconst_traits<unsigned short> >::_List_iterator<unsigned short,_STL::_Nonconst_traits<unsigned short> >
_TEXT	ENDS
PUBLIC	?clear@?$basic_ios@DV?$char_traits@D@_STL@@@_STL@@QAEXH@Z ; _STL::basic_ios<char,_STL::char_traits<char> >::clear
; Function compile flags: /Ogsy
; File c:\stlport-4.6.1\stlport\stl\_ios.h
;	COMDAT ?clear@?$basic_ios@DV?$char_traits@D@_STL@@@_STL@@QAEXH@Z
_TEXT	SEGMENT
___state$ = 8						; size = 4
?clear@?$basic_ios@DV?$char_traits@D@_STL@@@_STL@@QAEXH@Z PROC NEAR ; _STL::basic_ios<char,_STL::char_traits<char> >::clear, COMDAT
; _this$ = ecx

; 91   :     _M_clear_nothrow(this->rdbuf() ? __state : iostate(__state|ios_base::badbit));

  00000	83 79 58 00	 cmp	 DWORD PTR [ecx+88], 0
  00004	8b 44 24 04	 mov	 eax, DWORD PTR ___state$[esp-4]
  00008	75 03		 jne	 SHORT $L115480
  0000a	83 c8 01	 or	 eax, 1
$L115480:

; 92   :     _M_check_exception_mask();

  0000d	85 41 14	 test	 DWORD PTR [ecx+20], eax
  00010	89 41 08	 mov	 DWORD PTR [ecx+8], eax
  00013	74 05		 je	 SHORT $L115491
  00015	e8 00 00 00 00	 call	 ?_M_throw_failure@ios_base@_STL@@IAEXXZ ; _STL::ios_base::_M_throw_failure
$L115491:

; 93   :   }

  0001a	c2 04 00	 ret	 4
?clear@?$basic_ios@DV?$char_traits@D@_STL@@@_STL@@QAEXH@Z ENDP ; _STL::basic_ios<char,_STL::char_traits<char> >::clear
_TEXT	ENDS
PUBLIC	??1?$allocator@U?$_List_node@G@_STL@@@_STL@@QAE@XZ ; _STL::allocator<_STL::_List_node<unsigned short> >::~allocator<_STL::_List_node<unsigned short> >
; Function compile flags: /Ogsy
; File c:\stlport-4.6.1\stlport\stl\_alloc.h
;	COMDAT ??1?$allocator@U?$_List_node@G@_STL@@@_STL@@QAE@XZ
_TEXT	SEGMENT
??1?$allocator@U?$_List_node@G@_STL@@@_STL@@QAE@XZ PROC NEAR ; _STL::allocator<_STL::_List_node<unsigned short> >::~allocator<_STL::_List_node<unsigned short> >, COMDAT
; _this$ = ecx

; 350  :   ~allocator() _STLP_NOTHROW {}

  00000	c3		 ret	 0
??1?$allocator@U?$_List_node@G@_STL@@@_STL@@QAE@XZ ENDP	; _STL::allocator<_STL::_List_node<unsigned short> >::~allocator<_STL::_List_node<unsigned short> >
_TEXT	ENDS
PUBLIC	?_M_root@?$_Rb_tree@GU?$pair@$$CBGPAVivfstream@@@_STL@@U?$_Select1st@U?$pair@$$CBGPAVivfstream@@@_STL@@@2@U?$less@G@2@V?$allocator@U?$pair@$$CBGPAVivfstream@@@_STL@@@2@@_STL@@IBEAAPAU?$_Rb_tree_node@U?$pair@$$CBGPAVivfstream@@@_STL@@@2@XZ ; _STL::_Rb_tree<unsigned short,_STL::pair<unsigned short const ,ivfstream *>,_STL::_Select1st<_STL::pair<unsigned short const ,ivfstream *> >,_STL::less<unsigned short>,_STL::allocator<_STL::pair<unsigned short const ,ivfstream *> > >::_M_root
; Function compile flags: /Ogsy
; File c:\stlport-4.6.1\stlport\stl\_tree.h
;	COMDAT ?_M_root@?$_Rb_tree@GU?$pair@$$CBGPAVivfstream@@@_STL@@U?$_Select1st@U?$pair@$$CBGPAVivfstream@@@_STL@@@2@U?$less@G@2@V?$allocator@U?$pair@$$CBGPAVivfstream@@@_STL@@@2@@_STL@@IBEAAPAU?$_Rb_tree_node@U?$pair@$$CBGPAVivfstream@@@_STL@@@2@XZ
_TEXT	SEGMENT
?_M_root@?$_Rb_tree@GU?$pair@$$CBGPAVivfstream@@@_STL@@U?$_Select1st@U?$pair@$$CBGPAVivfstream@@@_STL@@@2@U?$less@G@2@V?$allocator@U?$pair@$$CBGPAVivfstream@@@_STL@@@2@@_STL@@IBEAAPAU?$_Rb_tree_node@U?$pair@$$CBGPAVivfstream@@@_STL@@@2@XZ PROC NEAR ; _STL::_Rb_tree<unsigned short,_STL::pair<unsigned short const ,ivfstream *>,_STL::_Select1st<_STL::pair<unsigned short const ,ivfstream *> >,_STL::less<unsigned short>,_STL::allocator<_STL::pair<unsigned short const ,ivfstream *> > >::_M_root, COMDAT
; _this$ = ecx

; 265  :     { return (_Link_type&) this->_M_header._M_data->_M_parent; }

  00000	8b 01		 mov	 eax, DWORD PTR [ecx]
  00002	83 c0 04	 add	 eax, 4
  00005	c3		 ret	 0
?_M_root@?$_Rb_tree@GU?$pair@$$CBGPAVivfstream@@@_STL@@U?$_Select1st@U?$pair@$$CBGPAVivfstream@@@_STL@@@2@U?$less@G@2@V?$allocator@U?$pair@$$CBGPAVivfstream@@@_STL@@@2@@_STL@@IBEAAPAU?$_Rb_tree_node@U?$pair@$$CBGPAVivfstream@@@_STL@@@2@XZ ENDP ; _STL::_Rb_tree<unsigned short,_STL::pair<unsigned short const ,ivfstream *>,_STL::_Select1st<_STL::pair<unsigned short const ,ivfstream *> >,_STL::less<unsigned short>,_STL::allocator<_STL::pair<unsigned short const ,ivfstream *> > >::_M_root
_TEXT	ENDS
PUBLIC	?_M_leftmost@?$_Rb_tree@GU?$pair@$$CBGPAVivfstream@@@_STL@@U?$_Select1st@U?$pair@$$CBGPAVivfstream@@@_STL@@@2@U?$less@G@2@V?$allocator@U?$pair@$$CBGPAVivfstream@@@_STL@@@2@@_STL@@IBEAAPAU?$_Rb_tree_node@U?$pair@$$CBGPAVivfstream@@@_STL@@@2@XZ ; _STL::_Rb_tree<unsigned short,_STL::pair<unsigned short const ,ivfstream *>,_STL::_Select1st<_STL::pair<unsigned short const ,ivfstream *> >,_STL::less<unsigned short>,_STL::allocator<_STL::pair<unsigned short const ,ivfstream *> > >::_M_leftmost
; Function compile flags: /Ogsy
;	COMDAT ?_M_leftmost@?$_Rb_tree@GU?$pair@$$CBGPAVivfstream@@@_STL@@U?$_Select1st@U?$pair@$$CBGPAVivfstream@@@_STL@@@2@U?$less@G@2@V?$allocator@U?$pair@$$CBGPAVivfstream@@@_STL@@@2@@_STL@@IBEAAPAU?$_Rb_tree_node@U?$pair@$$CBGPAVivfstream@@@_STL@@@2@XZ
_TEXT	SEGMENT
?_M_leftmost@?$_Rb_tree@GU?$pair@$$CBGPAVivfstream@@@_STL@@U?$_Select1st@U?$pair@$$CBGPAVivfstream@@@_STL@@@2@U?$less@G@2@V?$allocator@U?$pair@$$CBGPAVivfstream@@@_STL@@@2@@_STL@@IBEAAPAU?$_Rb_tree_node@U?$pair@$$CBGPAVivfstream@@@_STL@@@2@XZ PROC NEAR ; _STL::_Rb_tree<unsigned short,_STL::pair<unsigned short const ,ivfstream *>,_STL::_Select1st<_STL::pair<unsigned short const ,ivfstream *> >,_STL::less<unsigned short>,_STL::allocator<_STL::pair<unsigned short const ,ivfstream *> > >::_M_leftmost, COMDAT
; _this$ = ecx

; 267  :     { return (_Link_type&) this->_M_header._M_data->_M_left; }

  00000	8b 01		 mov	 eax, DWORD PTR [ecx]
  00002	83 c0 08	 add	 eax, 8
  00005	c3		 ret	 0
?_M_leftmost@?$_Rb_tree@GU?$pair@$$CBGPAVivfstream@@@_STL@@U?$_Select1st@U?$pair@$$CBGPAVivfstream@@@_STL@@@2@U?$less@G@2@V?$allocator@U?$pair@$$CBGPAVivfstream@@@_STL@@@2@@_STL@@IBEAAPAU?$_Rb_tree_node@U?$pair@$$CBGPAVivfstream@@@_STL@@@2@XZ ENDP ; _STL::_Rb_tree<unsigned short,_STL::pair<unsigned short const ,ivfstream *>,_STL::_Select1st<_STL::pair<unsigned short const ,ivfstream *> >,_STL::less<unsigned short>,_STL::allocator<_STL::pair<unsigned short const ,ivfstream *> > >::_M_leftmost
_TEXT	ENDS
PUBLIC	?_M_rightmost@?$_Rb_tree@GU?$pair@$$CBGPAVivfstream@@@_STL@@U?$_Select1st@U?$pair@$$CBGPAVivfstream@@@_STL@@@2@U?$less@G@2@V?$allocator@U?$pair@$$CBGPAVivfstream@@@_STL@@@2@@_STL@@IBEAAPAU?$_Rb_tree_node@U?$pair@$$CBGPAVivfstream@@@_STL@@@2@XZ ; _STL::_Rb_tree<unsigned short,_STL::pair<unsigned short const ,ivfstream *>,_STL::_Select1st<_STL::pair<unsigned short const ,ivfstream *> >,_STL::less<unsigned short>,_STL::allocator<_STL::pair<unsigned short const ,ivfstream *> > >::_M_rightmost
; Function compile flags: /Ogsy
;	COMDAT ?_M_rightmost@?$_Rb_tree@GU?$pair@$$CBGPAVivfstream@@@_STL@@U?$_Select1st@U?$pair@$$CBGPAVivfstream@@@_STL@@@2@U?$less@G@2@V?$allocator@U?$pair@$$CBGPAVivfstream@@@_STL@@@2@@_STL@@IBEAAPAU?$_Rb_tree_node@U?$pair@$$CBGPAVivfstream@@@_STL@@@2@XZ
_TEXT	SEGMENT
?_M_rightmost@?$_Rb_tree@GU?$pair@$$CBGPAVivfstream@@@_STL@@U?$_Select1st@U?$pair@$$CBGPAVivfstream@@@_STL@@@2@U?$less@G@2@V?$allocator@U?$pair@$$CBGPAVivfstream@@@_STL@@@2@@_STL@@IBEAAPAU?$_Rb_tree_node@U?$pair@$$CBGPAVivfstream@@@_STL@@@2@XZ PROC NEAR ; _STL::_Rb_tree<unsigned short,_STL::pair<unsigned short const ,ivfstream *>,_STL::_Select1st<_STL::pair<unsigned short const ,ivfstream *> >,_STL::less<unsigned short>,_STL::allocator<_STL::pair<unsigned short const ,ivfstream *> > >::_M_rightmost, COMDAT
; _this$ = ecx

; 269  :     { return (_Link_type&) this->_M_header._M_data->_M_right; }

  00000	8b 01		 mov	 eax, DWORD PTR [ecx]
  00002	83 c0 0c	 add	 eax, 12			; 0000000cH
  00005	c3		 ret	 0
?_M_rightmost@?$_Rb_tree@GU?$pair@$$CBGPAVivfstream@@@_STL@@U?$_Select1st@U?$pair@$$CBGPAVivfstream@@@_STL@@@2@U?$less@G@2@V?$allocator@U?$pair@$$CBGPAVivfstream@@@_STL@@@2@@_STL@@IBEAAPAU?$_Rb_tree_node@U?$pair@$$CBGPAVivfstream@@@_STL@@@2@XZ ENDP ; _STL::_Rb_tree<unsigned short,_STL::pair<unsigned short const ,ivfstream *>,_STL::_Select1st<_STL::pair<unsigned short const ,ivfstream *> >,_STL::less<unsigned short>,_STL::allocator<_STL::pair<unsigned short const ,ivfstream *> > >::_M_rightmost
_TEXT	ENDS
PUBLIC	??1?$allocator@U?$_Rb_tree_node@U?$pair@$$CBGPAVivfstream@@@_STL@@@_STL@@@_STL@@QAE@XZ ; _STL::allocator<_STL::_Rb_tree_node<_STL::pair<unsigned short const ,ivfstream *> > >::~allocator<_STL::_Rb_tree_node<_STL::pair<unsigned short const ,ivfstream *> > >
; Function compile flags: /Ogsy
; File c:\stlport-4.6.1\stlport\stl\_alloc.h
;	COMDAT ??1?$allocator@U?$_Rb_tree_node@U?$pair@$$CBGPAVivfstream@@@_STL@@@_STL@@@_STL@@QAE@XZ
_TEXT	SEGMENT
??1?$allocator@U?$_Rb_tree_node@U?$pair@$$CBGPAVivfstream@@@_STL@@@_STL@@@_STL@@QAE@XZ PROC NEAR ; _STL::allocator<_STL::_Rb_tree_node<_STL::pair<unsigned short const ,ivfstream *> > >::~allocator<_STL::_Rb_tree_node<_STL::pair<unsigned short const ,ivfstream *> > >, COMDAT
; _this$ = ecx

; 350  :   ~allocator() _STLP_NOTHROW {}

  00000	c3		 ret	 0
??1?$allocator@U?$_Rb_tree_node@U?$pair@$$CBGPAVivfstream@@@_STL@@@_STL@@@_STL@@QAE@XZ ENDP ; _STL::allocator<_STL::_Rb_tree_node<_STL::pair<unsigned short const ,ivfstream *> > >::~allocator<_STL::_Rb_tree_node<_STL::pair<unsigned short const ,ivfstream *> > >
_TEXT	ENDS
PUBLIC	??0?$_List_iterator@GU?$_Const_traits@G@_STL@@@_STL@@QAE@PAU?$_List_node@G@1@@Z ; _STL::_List_iterator<unsigned short,_STL::_Const_traits<unsigned short> >::_List_iterator<unsigned short,_STL::_Const_traits<unsigned short> >
; Function compile flags: /Ogsy
; File c:\stlport-4.6.1\stlport\stl\_list.h
;	COMDAT ??0?$_List_iterator@GU?$_Const_traits@G@_STL@@@_STL@@QAE@PAU?$_List_node@G@1@@Z
_TEXT	SEGMENT
___x$ = 8						; size = 4
??0?$_List_iterator@GU?$_Const_traits@G@_STL@@@_STL@@QAE@PAU?$_List_node@G@1@@Z PROC NEAR ; _STL::_List_iterator<unsigned short,_STL::_Const_traits<unsigned short> >::_List_iterator<unsigned short,_STL::_Const_traits<unsigned short> >, COMDAT
; _this$ = ecx

; 126  :   _List_iterator(_Node* __x) : _List_iterator_base(__x) {}

  00000	8b c1		 mov	 eax, ecx
  00002	8b 4c 24 04	 mov	 ecx, DWORD PTR ___x$[esp-4]
  00006	89 08		 mov	 DWORD PTR [eax], ecx
  00008	c2 04 00	 ret	 4
??0?$_List_iterator@GU?$_Const_traits@G@_STL@@@_STL@@QAE@PAU?$_List_node@G@1@@Z ENDP ; _STL::_List_iterator<unsigned short,_STL::_Const_traits<unsigned short> >::_List_iterator<unsigned short,_STL::_Const_traits<unsigned short> >
_TEXT	ENDS
PUBLIC	?_M_construct_null_aux@?$basic_string@DV?$char_traits@D@_STL@@V?$allocator@D@2@@_STL@@AAEXPADABU__true_type@2@@Z ; _STL::basic_string<char,_STL::char_traits<char>,_STL::allocator<char> >::_M_construct_null_aux
; Function compile flags: /Ogsy
; File c:\stlport-4.6.1\stlport\stl\_string.h
;	COMDAT ?_M_construct_null_aux@?$basic_string@DV?$char_traits@D@_STL@@V?$allocator@D@2@@_STL@@AAEXPADABU__true_type@2@@Z
_TEXT	SEGMENT
___p$ = 8						; size = 4
___formal$ = 12						; size = 4
?_M_construct_null_aux@?$basic_string@DV?$char_traits@D@_STL@@V?$allocator@D@2@@_STL@@AAEXPADABU__true_type@2@@Z PROC NEAR ; _STL::basic_string<char,_STL::char_traits<char>,_STL::allocator<char> >::_M_construct_null_aux, COMDAT
; _this$ = ecx

; 332  :     *__p = 0;

  00000	8b 44 24 04	 mov	 eax, DWORD PTR ___p$[esp-4]
  00004	c6 00 00	 mov	 BYTE PTR [eax], 0

; 333  :   }

  00007	c2 08 00	 ret	 8
?_M_construct_null_aux@?$basic_string@DV?$char_traits@D@_STL@@V?$allocator@D@2@@_STL@@AAEXPADABU__true_type@2@@Z ENDP ; _STL::basic_string<char,_STL::char_traits<char>,_STL::allocator<char> >::_M_construct_null_aux
_TEXT	ENDS
PUBLIC	??0?$allocator@U?$_List_node@G@_STL@@@_STL@@QAE@ABV01@@Z ; _STL::allocator<_STL::_List_node<unsigned short> >::allocator<_STL::_List_node<unsigned short> >
; Function compile flags: /Ogsy
; File c:\stlport-4.6.1\stlport\stl\_alloc.h
;	COMDAT ??0?$allocator@U?$_List_node@G@_STL@@@_STL@@QAE@ABV01@@Z
_TEXT	SEGMENT
___formal$ = 8						; size = 4
??0?$allocator@U?$_List_node@G@_STL@@@_STL@@QAE@ABV01@@Z PROC NEAR ; _STL::allocator<_STL::_List_node<unsigned short> >::allocator<_STL::_List_node<unsigned short> >, COMDAT
; _this$ = ecx

; 349  :   allocator(const allocator<_Tp>&) _STLP_NOTHROW {}

  00000	8b c1		 mov	 eax, ecx
  00002	c2 04 00	 ret	 4
??0?$allocator@U?$_List_node@G@_STL@@@_STL@@QAE@ABV01@@Z ENDP ; _STL::allocator<_STL::_List_node<unsigned short> >::allocator<_STL::_List_node<unsigned short> >
_TEXT	ENDS
PUBLIC	?_S_color@?$_Rb_tree@GU?$pair@$$CBGPAVivfstream@@@_STL@@U?$_Select1st@U?$pair@$$CBGPAVivfstream@@@_STL@@@2@U?$less@G@2@V?$allocator@U?$pair@$$CBGPAVivfstream@@@_STL@@@2@@_STL@@KAAA_NPAU?$_Rb_tree_node@U?$pair@$$CBGPAVivfstream@@@_STL@@@2@@Z ; _STL::_Rb_tree<unsigned short,_STL::pair<unsigned short const ,ivfstream *>,_STL::_Select1st<_STL::pair<unsigned short const ,ivfstream *> >,_STL::less<unsigned short>,_STL::allocator<_STL::pair<unsigned short const ,ivfstream *> > >::_S_color
; Function compile flags: /Ogsy
; File c:\stlport-4.6.1\stlport\stl\_tree.h
;	COMDAT ?_S_color@?$_Rb_tree@GU?$pair@$$CBGPAVivfstream@@@_STL@@U?$_Select1st@U?$pair@$$CBGPAVivfstream@@@_STL@@@2@U?$less@G@2@V?$allocator@U?$pair@$$CBGPAVivfstream@@@_STL@@@2@@_STL@@KAAA_NPAU?$_Rb_tree_node@U?$pair@$$CBGPAVivfstream@@@_STL@@@2@@Z
_TEXT	SEGMENT
___x$ = 8						; size = 4
?_S_color@?$_Rb_tree@GU?$pair@$$CBGPAVivfstream@@@_STL@@U?$_Select1st@U?$pair@$$CBGPAVivfstream@@@_STL@@@2@U?$less@G@2@V?$allocator@U?$pair@$$CBGPAVivfstream@@@_STL@@@2@@_STL@@KAAA_NPAU?$_Rb_tree_node@U?$pair@$$CBGPAVivfstream@@@_STL@@@2@@Z PROC NEAR ; _STL::_Rb_tree<unsigned short,_STL::pair<unsigned short const ,ivfstream *>,_STL::_Select1st<_STL::pair<unsigned short const ,ivfstream *> >,_STL::less<unsigned short>,_STL::allocator<_STL::pair<unsigned short const ,ivfstream *> > >::_S_color, COMDAT

; 282  :     { return (_Color_type&)(__x->_M_color); }

  00000	8b 44 24 04	 mov	 eax, DWORD PTR ___x$[esp-4]
  00004	c3		 ret	 0
?_S_color@?$_Rb_tree@GU?$pair@$$CBGPAVivfstream@@@_STL@@U?$_Select1st@U?$pair@$$CBGPAVivfstream@@@_STL@@@2@U?$less@G@2@V?$allocator@U?$pair@$$CBGPAVivfstream@@@_STL@@@2@@_STL@@KAAA_NPAU?$_Rb_tree_node@U?$pair@$$CBGPAVivfstream@@@_STL@@@2@@Z ENDP ; _STL::_Rb_tree<unsigned short,_STL::pair<unsigned short const ,ivfstream *>,_STL::_Select1st<_STL::pair<unsigned short const ,ivfstream *> >,_STL::less<unsigned short>,_STL::allocator<_STL::pair<unsigned short const ,ivfstream *> > >::_S_color
_TEXT	ENDS
PUBLIC	??0?$allocator@U?$_Rb_tree_node@U?$pair@$$CBGPAVivfstream@@@_STL@@@_STL@@@_STL@@QAE@ABV01@@Z ; _STL::allocator<_STL::_Rb_tree_node<_STL::pair<unsigned short const ,ivfstream *> > >::allocator<_STL::_Rb_tree_node<_STL::pair<unsigned short const ,ivfstream *> > >
; Function compile flags: /Ogsy
; File c:\stlport-4.6.1\stlport\stl\_alloc.h
;	COMDAT ??0?$allocator@U?$_Rb_tree_node@U?$pair@$$CBGPAVivfstream@@@_STL@@@_STL@@@_STL@@QAE@ABV01@@Z
_TEXT	SEGMENT
___formal$ = 8						; size = 4
??0?$allocator@U?$_Rb_tree_node@U?$pair@$$CBGPAVivfstream@@@_STL@@@_STL@@@_STL@@QAE@ABV01@@Z PROC NEAR ; _STL::allocator<_STL::_Rb_tree_node<_STL::pair<unsigned short const ,ivfstream *> > >::allocator<_STL::_Rb_tree_node<_STL::pair<unsigned short const ,ivfstream *> > >, COMDAT
; _this$ = ecx

; 349  :   allocator(const allocator<_Tp>&) _STLP_NOTHROW {}

  00000	8b c1		 mov	 eax, ecx
  00002	c2 04 00	 ret	 4
??0?$allocator@U?$_Rb_tree_node@U?$pair@$$CBGPAVivfstream@@@_STL@@@_STL@@@_STL@@QAE@ABV01@@Z ENDP ; _STL::allocator<_STL::_Rb_tree_node<_STL::pair<unsigned short const ,ivfstream *> > >::allocator<_STL::_Rb_tree_node<_STL::pair<unsigned short const ,ivfstream *> > >
_TEXT	ENDS
PUBLIC	??$max@H@_STL@@YAABHABH0@Z			; _STL::max<int>
; Function compile flags: /Ogsy
; File c:\stlport-4.6.1\stlport\stl\_algobase.h
;	COMDAT ??$max@H@_STL@@YAABHABH0@Z
_TEXT	SEGMENT
___a$ = 8						; size = 4
___b$ = 12						; size = 4
??$max@H@_STL@@YAABHABH0@Z PROC NEAR			; _STL::max<int>, COMDAT

; 79   : inline const _Tp& (max)(const _Tp& __a, const _Tp& __b) {  return  __a < __b ? __b : __a; }

  00000	8b 44 24 04	 mov	 eax, DWORD PTR ___a$[esp-4]
  00004	8b 10		 mov	 edx, DWORD PTR [eax]
  00006	8b 4c 24 08	 mov	 ecx, DWORD PTR ___b$[esp-4]
  0000a	3b 11		 cmp	 edx, DWORD PTR [ecx]
  0000c	7d 02		 jge	 SHORT $L115531
  0000e	8b c1		 mov	 eax, ecx
$L115531:
  00010	c3		 ret	 0
??$max@H@_STL@@YAABHABH0@Z ENDP				; _STL::max<int>
_TEXT	ENDS
PUBLIC	??$use_facet@V?$codecvt@DDH@_STL@@@_STL@@YAABV?$codecvt@DDH@0@ABVlocale@0@@Z ; _STL::use_facet<_STL::codecvt<char,char,int> >
EXTRN	?_M_use_facet@locale@_STL@@QBEPAVfacet@12@ABVid@12@@Z:NEAR ; _STL::locale::_M_use_facet
EXTRN	?id@?$codecvt@DDH@_STL@@2V0locale@2@A:DWORD	; _STL::codecvt<char,char,int>::id
; Function compile flags: /Ogsy
; File c:\stlport-4.6.1\stlport\stl\_locale.h
;	COMDAT ??$use_facet@V?$codecvt@DDH@_STL@@@_STL@@YAABV?$codecvt@DDH@0@ABVlocale@0@@Z
_TEXT	SEGMENT
___loc$ = 8						; size = 4
??$use_facet@V?$codecvt@DDH@_STL@@@_STL@@YAABV?$codecvt@DDH@0@ABVlocale@0@@Z PROC NEAR ; _STL::use_facet<_STL::codecvt<char,char,int> >, COMDAT

; 204  :   return *__STATIC_CAST(const _Facet*,__loc._M_use_facet(_Facet::id));

  00000	8b 4c 24 04	 mov	 ecx, DWORD PTR ___loc$[esp-4]
  00004	68 00 00 00 00	 push	 OFFSET FLAT:?id@?$codecvt@DDH@_STL@@2V0locale@2@A ; _STL::codecvt<char,char,int>::id
  00009	e8 00 00 00 00	 call	 ?_M_use_facet@locale@_STL@@QBEPAVfacet@12@ABVid@12@@Z ; _STL::locale::_M_use_facet

; 205  : }

  0000e	c3		 ret	 0
??$use_facet@V?$codecvt@DDH@_STL@@@_STL@@YAABV?$codecvt@DDH@0@ABVlocale@0@@Z ENDP ; _STL::use_facet<_STL::codecvt<char,char,int> >
_TEXT	ENDS
PUBLIC	?rdbuf@?$basic_ios@DV?$char_traits@D@_STL@@@_STL@@QAEPAV?$basic_streambuf@DV?$char_traits@D@_STL@@@2@PAV32@@Z ; _STL::basic_ios<char,_STL::char_traits<char> >::rdbuf
; Function compile flags: /Ogsy
; File c:\stlport-4.6.1\stlport\stl\_ios.c
;	COMDAT ?rdbuf@?$basic_ios@DV?$char_traits@D@_STL@@@_STL@@QAEPAV?$basic_streambuf@DV?$char_traits@D@_STL@@@2@PAV32@@Z
_TEXT	SEGMENT
___buf$ = 8						; size = 4
?rdbuf@?$basic_ios@DV?$char_traits@D@_STL@@@_STL@@QAEPAV?$basic_streambuf@DV?$char_traits@D@_STL@@@2@PAV32@@Z PROC NEAR ; _STL::basic_ios<char,_STL::char_traits<char> >::rdbuf, COMDAT
; _this$ = ecx

; 53   :   basic_streambuf<_CharT, _Traits>* __tmp = _M_streambuf;
; 54   :   _M_streambuf = __buf;

  00000	8b 44 24 04	 mov	 eax, DWORD PTR ___buf$[esp-4]
  00004	56		 push	 esi
  00005	8b 71 58	 mov	 esi, DWORD PTR [ecx+88]

; 55   :   this->clear();

  00008	6a 00		 push	 0
  0000a	89 41 58	 mov	 DWORD PTR [ecx+88], eax
  0000d	e8 00 00 00 00	 call	 ?clear@?$basic_ios@DV?$char_traits@D@_STL@@@_STL@@QAEXH@Z ; _STL::basic_ios<char,_STL::char_traits<char> >::clear

; 56   :   return __tmp;

  00012	8b c6		 mov	 eax, esi
  00014	5e		 pop	 esi

; 57   : }

  00015	c2 04 00	 ret	 4
?rdbuf@?$basic_ios@DV?$char_traits@D@_STL@@@_STL@@QAEPAV?$basic_streambuf@DV?$char_traits@D@_STL@@@2@PAV32@@Z ENDP ; _STL::basic_ios<char,_STL::char_traits<char> >::rdbuf
_TEXT	ENDS
PUBLIC	?widen@?$basic_ios@DV?$char_traits@D@_STL@@@_STL@@QBEDD@Z ; _STL::basic_ios<char,_STL::char_traits<char> >::widen
; Function compile flags: /Ogsy
; File c:\stlport-4.6.1\stlport\stl\_ios.h
;	COMDAT ?widen@?$basic_ios@DV?$char_traits@D@_STL@@@_STL@@QBEDD@Z
_TEXT	SEGMENT
___c$ = 8						; size = 1
?widen@?$basic_ios@DV?$char_traits@D@_STL@@@_STL@@QBEDD@Z PROC NEAR ; _STL::basic_ios<char,_STL::char_traits<char> >::widen, COMDAT
; _this$ = ecx

; 143  :   return ((const ctype<_CharT>*)this->_M_ctype_facet())->widen(__c); }

  00000	8b 49 40	 mov	 ecx, DWORD PTR [ecx+64]
  00003	8b 01		 mov	 eax, DWORD PTR [ecx]
  00005	ff 60 18	 jmp	 DWORD PTR [eax+24]
?widen@?$basic_ios@DV?$char_traits@D@_STL@@@_STL@@QBEDD@Z ENDP ; _STL::basic_ios<char,_STL::char_traits<char> >::widen
_TEXT	ENDS
PUBLIC	??$_Destroy@PAVCSpriteSurface@@@_STL@@YAXPAPAVCSpriteSurface@@@Z ; _STL::_Destroy<CSpriteSurface *>
; Function compile flags: /Ogsy
; File c:\stlport-4.6.1\stlport\stl\_construct.h
;	COMDAT ??$_Destroy@PAVCSpriteSurface@@@_STL@@YAXPAPAVCSpriteSurface@@@Z
_TEXT	SEGMENT
___pointer$ = 8						; size = 4
??$_Destroy@PAVCSpriteSurface@@@_STL@@YAXPAPAVCSpriteSurface@@@Z PROC NEAR ; _STL::_Destroy<CSpriteSurface *>, COMDAT

; 57   : # if _MSC_VER >= 1010
; 58   :   __pointer;
; 59   : # endif	// _MSC_VER >= 1000
; 60   : # ifdef _STLP_TRIVIAL_DESTRUCTOR_BUG
; 61   :   typedef typename __type_traits<_Tp>::has_trivial_destructor _Trivial_destructor;
; 62   :   __destroy_aux(__pointer, _Trivial_destructor());
; 63   : # else
; 64   : #  if ( defined (__BORLANDC__) && ( __BORLANDC__ < 0x500 ) )
; 65   :     __pointer->_Tp::~_Tp();
; 66   : #  else
; 67   :     __pointer->~_Tp();
; 68   : #  endif
; 69   : # endif
; 70   : # ifdef _STLP_DEBUG_UNINITIALIZED
; 71   : 	memset((char*)__pointer, _STLP_SHRED_BYTE, sizeof(_Tp));
; 72   : # endif
; 73   : }

  00000	c3		 ret	 0
??$_Destroy@PAVCSpriteSurface@@@_STL@@YAXPAPAVCSpriteSurface@@@Z ENDP ; _STL::_Destroy<CSpriteSurface *>
_TEXT	ENDS
PUBLIC	??$_Destroy@G@_STL@@YAXPAG@Z			; _STL::_Destroy<unsigned short>
; Function compile flags: /Ogsy
;	COMDAT ??$_Destroy@G@_STL@@YAXPAG@Z
_TEXT	SEGMENT
___pointer$ = 8						; size = 4
??$_Destroy@G@_STL@@YAXPAG@Z PROC NEAR			; _STL::_Destroy<unsigned short>, COMDAT

; 57   : # if _MSC_VER >= 1010
; 58   :   __pointer;
; 59   : # endif	// _MSC_VER >= 1000
; 60   : # ifdef _STLP_TRIVIAL_DESTRUCTOR_BUG
; 61   :   typedef typename __type_traits<_Tp>::has_trivial_destructor _Trivial_destructor;
; 62   :   __destroy_aux(__pointer, _Trivial_destructor());
; 63   : # else
; 64   : #  if ( defined (__BORLANDC__) && ( __BORLANDC__ < 0x500 ) )
; 65   :     __pointer->_Tp::~_Tp();
; 66   : #  else
; 67   :     __pointer->~_Tp();
; 68   : #  endif
; 69   : # endif
; 70   : # ifdef _STLP_DEBUG_UNINITIALIZED
; 71   : 	memset((char*)__pointer, _STLP_SHRED_BYTE, sizeof(_Tp));
; 72   : # endif
; 73   : }

  00000	c3		 ret	 0
??$_Destroy@G@_STL@@YAXPAG@Z ENDP			; _STL::_Destroy<unsigned short>
_TEXT	ENDS
PUBLIC	??$max@I@_STL@@YAABIABI0@Z			; _STL::max<unsigned int>
; Function compile flags: /Ogsy
; File c:\stlport-4.6.1\stlport\stl\_algobase.h
;	COMDAT ??$max@I@_STL@@YAABIABI0@Z
_TEXT	SEGMENT
___a$ = 8						; size = 4
___b$ = 12						; size = 4
??$max@I@_STL@@YAABIABI0@Z PROC NEAR			; _STL::max<unsigned int>, COMDAT

; 79   : inline const _Tp& (max)(const _Tp& __a, const _Tp& __b) {  return  __a < __b ? __b : __a; }

  00000	8b 44 24 04	 mov	 eax, DWORD PTR ___a$[esp-4]
  00004	8b 10		 mov	 edx, DWORD PTR [eax]
  00006	8b 4c 24 08	 mov	 ecx, DWORD PTR ___b$[esp-4]
  0000a	3b 11		 cmp	 edx, DWORD PTR [ecx]
  0000c	73 02		 jae	 SHORT $L115560
  0000e	8b c1		 mov	 eax, ecx
$L115560:
  00010	c3		 ret	 0
??$max@I@_STL@@YAABIABI0@Z ENDP				; _STL::max<unsigned int>
_TEXT	ENDS
PUBLIC	??$?0G@?$allocator@U?$_List_node@G@_STL@@@_STL@@QAE@ABV?$allocator@G@1@@Z ; _STL::allocator<_STL::_List_node<unsigned short> >::allocator<_STL::_List_node<unsigned short> ><unsigned short>
; Function compile flags: /Ogsy
; File c:\stlport-4.6.1\stlport\stl\_alloc.h
;	COMDAT ??$?0G@?$allocator@U?$_List_node@G@_STL@@@_STL@@QAE@ABV?$allocator@G@1@@Z
_TEXT	SEGMENT
___formal$ = 8						; size = 4
??$?0G@?$allocator@U?$_List_node@G@_STL@@@_STL@@QAE@ABV?$allocator@G@1@@Z PROC NEAR ; _STL::allocator<_STL::_List_node<unsigned short> >::allocator<_STL::_List_node<unsigned short> ><unsigned short>, COMDAT
; _this$ = ecx

; 347  :   template <class _Tp1> allocator(const allocator<_Tp1>&) _STLP_NOTHROW {}

  00000	8b c1		 mov	 eax, ecx
  00002	c2 04 00	 ret	 4
??$?0G@?$allocator@U?$_List_node@G@_STL@@@_STL@@QAE@ABV?$allocator@G@1@@Z ENDP ; _STL::allocator<_STL::_List_node<unsigned short> >::allocator<_STL::_List_node<unsigned short> ><unsigned short>
_TEXT	ENDS
PUBLIC	??$_Destroy@U?$pair@$$CBGPAVivfstream@@@_STL@@@_STL@@YAXPAU?$pair@$$CBGPAVivfstream@@@0@@Z ; _STL::_Destroy<_STL::pair<unsigned short const ,ivfstream *> >
; Function compile flags: /Ogsy
; File c:\stlport-4.6.1\stlport\stl\_construct.h
;	COMDAT ??$_Destroy@U?$pair@$$CBGPAVivfstream@@@_STL@@@_STL@@YAXPAU?$pair@$$CBGPAVivfstream@@@0@@Z
_TEXT	SEGMENT
___pointer$ = 8						; size = 4
??$_Destroy@U?$pair@$$CBGPAVivfstream@@@_STL@@@_STL@@YAXPAU?$pair@$$CBGPAVivfstream@@@0@@Z PROC NEAR ; _STL::_Destroy<_STL::pair<unsigned short const ,ivfstream *> >, COMDAT

; 57   : # if _MSC_VER >= 1010
; 58   :   __pointer;
; 59   : # endif	// _MSC_VER >= 1000
; 60   : # ifdef _STLP_TRIVIAL_DESTRUCTOR_BUG
; 61   :   typedef typename __type_traits<_Tp>::has_trivial_destructor _Trivial_destructor;
; 62   :   __destroy_aux(__pointer, _Trivial_destructor());
; 63   : # else
; 64   : #  if ( defined (__BORLANDC__) && ( __BORLANDC__ < 0x500 ) )
; 65   :     __pointer->_Tp::~_Tp();
; 66   : #  else
; 67   :     __pointer->~_Tp();
; 68   : #  endif
; 69   : # endif
; 70   : # ifdef _STLP_DEBUG_UNINITIALIZED
; 71   : 	memset((char*)__pointer, _STLP_SHRED_BYTE, sizeof(_Tp));
; 72   : # endif
; 73   : }

  00000	c3		 ret	 0
??$_Destroy@U?$pair@$$CBGPAVivfstream@@@_STL@@@_STL@@YAXPAU?$pair@$$CBGPAVivfstream@@@0@@Z ENDP ; _STL::_Destroy<_STL::pair<unsigned short const ,ivfstream *> >
_TEXT	ENDS
PUBLIC	??$_Construct@GG@_STL@@YAXPAGABG@Z		; _STL::_Construct<unsigned short,unsigned short>
; Function compile flags: /Ogsy
;	COMDAT ??$_Construct@GG@_STL@@YAXPAGABG@Z
_TEXT	SEGMENT
___p$ = 8						; size = 4
___val$ = 12						; size = 4
??$_Construct@GG@_STL@@YAXPAGABG@Z PROC NEAR		; _STL::_Construct<unsigned short,unsigned short>, COMDAT

; 94   : # ifdef _STLP_DEBUG_UNINITIALIZED
; 95   : 	memset((char*)__p, _STLP_SHRED_BYTE, sizeof(_T1));
; 96   : # endif
; 97   :     _STLP_PLACEMENT_NEW (__p) _T1(__val);

  00000	8b 44 24 04	 mov	 eax, DWORD PTR ___p$[esp-4]
  00004	85 c0		 test	 eax, eax
  00006	74 0a		 je	 SHORT $L115571
  00008	8b 4c 24 08	 mov	 ecx, DWORD PTR ___val$[esp-4]
  0000c	66 8b 09	 mov	 cx, WORD PTR [ecx]
  0000f	66 89 08	 mov	 WORD PTR [eax], cx
$L115571:

; 98   : }

  00012	c3		 ret	 0
??$_Construct@GG@_STL@@YAXPAGABG@Z ENDP			; _STL::_Construct<unsigned short,unsigned short>
_TEXT	ENDS
PUBLIC	??$?0U?$pair@$$CBGPAVivfstream@@@_STL@@@?$allocator@U?$_Rb_tree_node@U?$pair@$$CBGPAVivfstream@@@_STL@@@_STL@@@_STL@@QAE@ABV?$allocator@U?$pair@$$CBGPAVivfstream@@@_STL@@@1@@Z ; _STL::allocator<_STL::_Rb_tree_node<_STL::pair<unsigned short const ,ivfstream *> > >::allocator<_STL::_Rb_tree_node<_STL::pair<unsigned short const ,ivfstream *> > ><_STL::pair<unsigned short const ,ivfstream *> >
; Function compile flags: /Ogsy
; File c:\stlport-4.6.1\stlport\stl\_alloc.h
;	COMDAT ??$?0U?$pair@$$CBGPAVivfstream@@@_STL@@@?$allocator@U?$_Rb_tree_node@U?$pair@$$CBGPAVivfstream@@@_STL@@@_STL@@@_STL@@QAE@ABV?$allocator@U?$pair@$$CBGPAVivfstream@@@_STL@@@1@@Z
_TEXT	SEGMENT
___formal$ = 8						; size = 4
??$?0U?$pair@$$CBGPAVivfstream@@@_STL@@@?$allocator@U?$_Rb_tree_node@U?$pair@$$CBGPAVivfstream@@@_STL@@@_STL@@@_STL@@QAE@ABV?$allocator@U?$pair@$$CBGPAVivfstream@@@_STL@@@1@@Z PROC NEAR ; _STL::allocator<_STL::_Rb_tree_node<_STL::pair<unsigned short const ,ivfstream *> > >::allocator<_STL::_Rb_tree_node<_STL::pair<unsigned short const ,ivfstream *> > ><_STL::pair<unsigned short const ,ivfstream *> >, COMDAT
; _this$ = ecx

; 347  :   template <class _Tp1> allocator(const allocator<_Tp1>&) _STLP_NOTHROW {}

  00000	8b c1		 mov	 eax, ecx
  00002	c2 04 00	 ret	 4
??$?0U?$pair@$$CBGPAVivfstream@@@_STL@@@?$allocator@U?$_Rb_tree_node@U?$pair@$$CBGPAVivfstream@@@_STL@@@_STL@@@_STL@@QAE@ABV?$allocator@U?$pair@$$CBGPAVivfstream@@@_STL@@@1@@Z ENDP ; _STL::allocator<_STL::_Rb_tree_node<_STL::pair<unsigned short const ,ivfstream *> > >::allocator<_STL::_Rb_tree_node<_STL::pair<unsigned short const ,ivfstream *> > ><_STL::pair<unsigned short const ,ivfstream *> >
_TEXT	ENDS
PUBLIC	?capacity@?$basic_string@DV?$char_traits@D@_STL@@V?$allocator@D@2@@_STL@@QBEIXZ ; _STL::basic_string<char,_STL::char_traits<char>,_STL::allocator<char> >::capacity
; Function compile flags: /Ogsy
; File c:\stlport-4.6.1\stlport\stl\_string.h
;	COMDAT ?capacity@?$basic_string@DV?$char_traits@D@_STL@@V?$allocator@D@2@@_STL@@QBEIXZ
_TEXT	SEGMENT
?capacity@?$basic_string@DV?$char_traits@D@_STL@@V?$allocator@D@2@@_STL@@QBEIXZ PROC NEAR ; _STL::basic_string<char,_STL::char_traits<char>,_STL::allocator<char> >::capacity, COMDAT
; _this$ = ecx

; 447  :   size_type capacity() const { return (this->_M_end_of_storage._M_data - this->_M_start) - 1; }

  00000	8b 41 08	 mov	 eax, DWORD PTR [ecx+8]
  00003	2b 01		 sub	 eax, DWORD PTR [ecx]
  00005	48		 dec	 eax
  00006	c3		 ret	 0
?capacity@?$basic_string@DV?$char_traits@D@_STL@@V?$allocator@D@2@@_STL@@QBEIXZ ENDP ; _STL::basic_string<char,_STL::char_traits<char>,_STL::allocator<char> >::capacity
_TEXT	ENDS
PUBLIC	?_S_left@?$_Rb_tree@GU?$pair@$$CBGPAVivfstream@@@_STL@@U?$_Select1st@U?$pair@$$CBGPAVivfstream@@@_STL@@@2@U?$less@G@2@V?$allocator@U?$pair@$$CBGPAVivfstream@@@_STL@@@2@@_STL@@KAAAPAU?$_Rb_tree_node@U?$pair@$$CBGPAVivfstream@@@_STL@@@2@PAU32@@Z ; _STL::_Rb_tree<unsigned short,_STL::pair<unsigned short const ,ivfstream *>,_STL::_Select1st<_STL::pair<unsigned short const ,ivfstream *> >,_STL::less<unsigned short>,_STL::allocator<_STL::pair<unsigned short const ,ivfstream *> > >::_S_left
; Function compile flags: /Ogsy
; File c:\stlport-4.6.1\stlport\stl\_tree.h
;	COMDAT ?_S_left@?$_Rb_tree@GU?$pair@$$CBGPAVivfstream@@@_STL@@U?$_Select1st@U?$pair@$$CBGPAVivfstream@@@_STL@@@2@U?$less@G@2@V?$allocator@U?$pair@$$CBGPAVivfstream@@@_STL@@@2@@_STL@@KAAAPAU?$_Rb_tree_node@U?$pair@$$CBGPAVivfstream@@@_STL@@@2@PAU32@@Z
_TEXT	SEGMENT
___x$ = 8						; size = 4
?_S_left@?$_Rb_tree@GU?$pair@$$CBGPAVivfstream@@@_STL@@U?$_Select1st@U?$pair@$$CBGPAVivfstream@@@_STL@@@2@U?$less@G@2@V?$allocator@U?$pair@$$CBGPAVivfstream@@@_STL@@@2@@_STL@@KAAAPAU?$_Rb_tree_node@U?$pair@$$CBGPAVivfstream@@@_STL@@@2@PAU32@@Z PROC NEAR ; _STL::_Rb_tree<unsigned short,_STL::pair<unsigned short const ,ivfstream *>,_STL::_Select1st<_STL::pair<unsigned short const ,ivfstream *> >,_STL::less<unsigned short>,_STL::allocator<_STL::pair<unsigned short const ,ivfstream *> > >::_S_left, COMDAT

; 272  :     { return (_Link_type&)(__x->_M_left); }

  00000	8b 44 24 04	 mov	 eax, DWORD PTR ___x$[esp-4]
  00004	83 c0 08	 add	 eax, 8
  00007	c3		 ret	 0
?_S_left@?$_Rb_tree@GU?$pair@$$CBGPAVivfstream@@@_STL@@U?$_Select1st@U?$pair@$$CBGPAVivfstream@@@_STL@@@2@U?$less@G@2@V?$allocator@U?$pair@$$CBGPAVivfstream@@@_STL@@@2@@_STL@@KAAAPAU?$_Rb_tree_node@U?$pair@$$CBGPAVivfstream@@@_STL@@@2@PAU32@@Z ENDP ; _STL::_Rb_tree<unsigned short,_STL::pair<unsigned short const ,ivfstream *>,_STL::_Select1st<_STL::pair<unsigned short const ,ivfstream *> >,_STL::less<unsigned short>,_STL::allocator<_STL::pair<unsigned short const ,ivfstream *> > >::_S_left
_TEXT	ENDS
PUBLIC	?_S_right@?$_Rb_tree@GU?$pair@$$CBGPAVivfstream@@@_STL@@U?$_Select1st@U?$pair@$$CBGPAVivfstream@@@_STL@@@2@U?$less@G@2@V?$allocator@U?$pair@$$CBGPAVivfstream@@@_STL@@@2@@_STL@@KAAAPAU?$_Rb_tree_node@U?$pair@$$CBGPAVivfstream@@@_STL@@@2@PAU32@@Z ; _STL::_Rb_tree<unsigned short,_STL::pair<unsigned short const ,ivfstream *>,_STL::_Select1st<_STL::pair<unsigned short const ,ivfstream *> >,_STL::less<unsigned short>,_STL::allocator<_STL::pair<unsigned short const ,ivfstream *> > >::_S_right
; Function compile flags: /Ogsy
;	COMDAT ?_S_right@?$_Rb_tree@GU?$pair@$$CBGPAVivfstream@@@_STL@@U?$_Select1st@U?$pair@$$CBGPAVivfstream@@@_STL@@@2@U?$less@G@2@V?$allocator@U?$pair@$$CBGPAVivfstream@@@_STL@@@2@@_STL@@KAAAPAU?$_Rb_tree_node@U?$pair@$$CBGPAVivfstream@@@_STL@@@2@PAU32@@Z
_TEXT	SEGMENT
___x$ = 8						; size = 4
?_S_right@?$_Rb_tree@GU?$pair@$$CBGPAVivfstream@@@_STL@@U?$_Select1st@U?$pair@$$CBGPAVivfstream@@@_STL@@@2@U?$less@G@2@V?$allocator@U?$pair@$$CBGPAVivfstream@@@_STL@@@2@@_STL@@KAAAPAU?$_Rb_tree_node@U?$pair@$$CBGPAVivfstream@@@_STL@@@2@PAU32@@Z PROC NEAR ; _STL::_Rb_tree<unsigned short,_STL::pair<unsigned short const ,ivfstream *>,_STL::_Select1st<_STL::pair<unsigned short const ,ivfstream *> >,_STL::less<unsigned short>,_STL::allocator<_STL::pair<unsigned short const ,ivfstream *> > >::_S_right, COMDAT

; 274  :     { return (_Link_type&)(__x->_M_right); }

  00000	8b 44 24 04	 mov	 eax, DWORD PTR ___x$[esp-4]
  00004	83 c0 0c	 add	 eax, 12			; 0000000cH
  00007	c3		 ret	 0
?_S_right@?$_Rb_tree@GU?$pair@$$CBGPAVivfstream@@@_STL@@U?$_Select1st@U?$pair@$$CBGPAVivfstream@@@_STL@@@2@U?$less@G@2@V?$allocator@U?$pair@$$CBGPAVivfstream@@@_STL@@@2@@_STL@@KAAAPAU?$_Rb_tree_node@U?$pair@$$CBGPAVivfstream@@@_STL@@@2@PAU32@@Z ENDP ; _STL::_Rb_tree<unsigned short,_STL::pair<unsigned short const ,ivfstream *>,_STL::_Select1st<_STL::pair<unsigned short const ,ivfstream *> >,_STL::less<unsigned short>,_STL::allocator<_STL::pair<unsigned short const ,ivfstream *> > >::_S_right
_TEXT	ENDS
PUBLIC	?max_size@?$_String_base@DV?$allocator@D@_STL@@@_STL@@QBEIXZ ; _STL::_String_base<char,_STL::allocator<char> >::max_size
; Function compile flags: /Ogsy
; File c:\stlport-4.6.1\stlport\stl\_string.h
;	COMDAT ?max_size@?$_String_base@DV?$allocator@D@_STL@@@_STL@@QBEIXZ
_TEXT	SEGMENT
?max_size@?$_String_base@DV?$allocator@D@_STL@@@_STL@@QBEIXZ PROC NEAR ; _STL::_String_base<char,_STL::allocator<char> >::max_size, COMDAT
; _this$ = ecx

; 126  :   size_t max_size() const { return (size_t(-1) / sizeof(_Tp)) - 1; }

  00000	6a fe		 push	 -2			; fffffffeH
  00002	58		 pop	 eax
  00003	c3		 ret	 0
?max_size@?$_String_base@DV?$allocator@D@_STL@@@_STL@@QBEIXZ ENDP ; _STL::_String_base<char,_STL::allocator<char> >::max_size
_TEXT	ENDS
PUBLIC	??F?$_List_iterator@GU?$_Const_traits@G@_STL@@@_STL@@QAEAAU01@XZ ; _STL::_List_iterator<unsigned short,_STL::_Const_traits<unsigned short> >::operator--
; Function compile flags: /Ogsy
; File c:\stlport-4.6.1\stlport\stl\_list.h
;	COMDAT ??F?$_List_iterator@GU?$_Const_traits@G@_STL@@@_STL@@QAEAAU01@XZ
_TEXT	SEGMENT
??F?$_List_iterator@GU?$_Const_traits@G@_STL@@@_STL@@QAEAAU01@XZ PROC NEAR ; _STL::_List_iterator<unsigned short,_STL::_Const_traits<unsigned short> >::operator--, COMDAT
; _this$ = ecx

; 143  :   _Self& operator--() { 

  00000	8b c1		 mov	 eax, ecx

; 144  :     this->_M_decr();

  00002	8b 08		 mov	 ecx, DWORD PTR [eax]
  00004	8b 49 04	 mov	 ecx, DWORD PTR [ecx+4]
  00007	89 08		 mov	 DWORD PTR [eax], ecx

; 145  :     return *this;
; 146  :   }

  00009	c3		 ret	 0
??F?$_List_iterator@GU?$_Const_traits@G@_STL@@@_STL@@QAEAAU01@XZ ENDP ; _STL::_List_iterator<unsigned short,_STL::_Const_traits<unsigned short> >::operator--
_TEXT	ENDS
PUBLIC	??0?$reverse_iterator@U?$_List_iterator@GU?$_Const_traits@G@_STL@@@_STL@@@_STL@@QAE@U?$_List_iterator@GU?$_Const_traits@G@_STL@@@1@@Z ; _STL::reverse_iterator<_STL::_List_iterator<unsigned short,_STL::_Const_traits<unsigned short> > >::reverse_iterator<_STL::_List_iterator<unsigned short,_STL::_Const_traits<unsigned short> > >
; Function compile flags: /Ogsy
; File c:\stlport-4.6.1\stlport\stl\_iterator.h
;	COMDAT ??0?$reverse_iterator@U?$_List_iterator@GU?$_Const_traits@G@_STL@@@_STL@@@_STL@@QAE@U?$_List_iterator@GU?$_Const_traits@G@_STL@@@1@@Z
_TEXT	SEGMENT
___x$ = 8						; size = 4
??0?$reverse_iterator@U?$_List_iterator@GU?$_Const_traits@G@_STL@@@_STL@@@_STL@@QAE@U?$_List_iterator@GU?$_Const_traits@G@_STL@@@1@@Z PROC NEAR ; _STL::reverse_iterator<_STL::_List_iterator<unsigned short,_STL::_Const_traits<unsigned short> > >::reverse_iterator<_STL::_List_iterator<unsigned short,_STL::_Const_traits<unsigned short> > >, COMDAT
; _this$ = ecx

; 66   :   explicit reverse_iterator(iterator_type __x) : current(__x) {}

  00000	8b c1		 mov	 eax, ecx
  00002	8b 4c 24 04	 mov	 ecx, DWORD PTR ___x$[esp-4]
  00006	89 08		 mov	 DWORD PTR [eax], ecx
  00008	c2 04 00	 ret	 4
??0?$reverse_iterator@U?$_List_iterator@GU?$_Const_traits@G@_STL@@@_STL@@@_STL@@QAE@U?$_List_iterator@GU?$_Const_traits@G@_STL@@@1@@Z ENDP ; _STL::reverse_iterator<_STL::_List_iterator<unsigned short,_STL::_Const_traits<unsigned short> > >::reverse_iterator<_STL::_List_iterator<unsigned short,_STL::_Const_traits<unsigned short> > >
_TEXT	ENDS
PUBLIC	??_C@_0N@GOPDCEEB@basic_string?$AA@		; `string'
PUBLIC	?_M_throw_length_error@?$_String_base@DV?$allocator@D@_STL@@@_STL@@QBEXXZ ; _STL::_String_base<char,_STL::allocator<char> >::_M_throw_length_error
EXTRN	?__stl_throw_length_error@_STL@@YAXPBD@Z:NEAR	; _STL::__stl_throw_length_error
;	COMDAT ??_C@_0N@GOPDCEEB@basic_string?$AA@
; File c:\stlport-4.6.1\stlport\stl\_string.c
CONST	SEGMENT
??_C@_0N@GOPDCEEB@basic_string?$AA@ DB 'basic_string', 00H ; `string'
; Function compile flags: /Ogsy
CONST	ENDS
;	COMDAT ?_M_throw_length_error@?$_String_base@DV?$allocator@D@_STL@@@_STL@@QBEXXZ
_TEXT	SEGMENT
?_M_throw_length_error@?$_String_base@DV?$allocator@D@_STL@@@_STL@@QBEXXZ PROC NEAR ; _STL::_String_base<char,_STL::allocator<char> >::_M_throw_length_error, COMDAT
; _this$ = ecx

; 523  :     __stl_throw_length_error("basic_string");

  00000	68 00 00 00 00	 push	 OFFSET FLAT:??_C@_0N@GOPDCEEB@basic_string?$AA@
  00005	e8 00 00 00 00	 call	 ?__stl_throw_length_error@_STL@@YAXPBD@Z ; _STL::__stl_throw_length_error
  0000a	59		 pop	 ecx

; 524  : }

  0000b	c3		 ret	 0
?_M_throw_length_error@?$_String_base@DV?$allocator@D@_STL@@@_STL@@QBEXXZ ENDP ; _STL::_String_base<char,_STL::allocator<char> >::_M_throw_length_error
_TEXT	ENDS
PUBLIC	??$__distance@PAD@_STL@@YAHABQAD0ABUrandom_access_iterator_tag@0@@Z ; _STL::__distance<char *>
; Function compile flags: /Ogsy
; File c:\stlport-4.6.1\stlport\stl\_iterator_base.h
;	COMDAT ??$__distance@PAD@_STL@@YAHABQAD0ABUrandom_access_iterator_tag@0@@Z
_TEXT	SEGMENT
___first$ = 8						; size = 4
___last$ = 12						; size = 4
___formal$ = 16						; size = 4
??$__distance@PAD@_STL@@YAHABQAD0ABUrandom_access_iterator_tag@0@@Z PROC NEAR ; _STL::__distance<char *>, COMDAT

; 363  :   return __last - __first;

  00000	8b 44 24 08	 mov	 eax, DWORD PTR ___last$[esp-4]
  00004	8b 00		 mov	 eax, DWORD PTR [eax]
  00006	8b 4c 24 04	 mov	 ecx, DWORD PTR ___first$[esp-4]
  0000a	2b 01		 sub	 eax, DWORD PTR [ecx]

; 364  : }

  0000c	c3		 ret	 0
??$__distance@PAD@_STL@@YAHABQAD0ABUrandom_access_iterator_tag@0@@Z ENDP ; _STL::__distance<char *>
_TEXT	ENDS
PUBLIC	?_Ret@?$_BothPtrType@PADPAD@_STL@@SA?AU__true_type@2@XZ ; _STL::_BothPtrType<char *,char *>::_Ret
; Function compile flags: /Ogsy
; File c:\stlport-4.6.1\stlport\stl\type_traits.h
;	COMDAT ?_Ret@?$_BothPtrType@PADPAD@_STL@@SA?AU__true_type@2@XZ
_TEXT	SEGMENT
$T115609 = -1						; size = 1
?_Ret@?$_BothPtrType@PADPAD@_STL@@SA?AU__true_type@2@XZ PROC NEAR ; _STL::_BothPtrType<char *,char *>::_Ret, COMDAT

; 234  :   static __true_type _Ret() { return __true_type();} 

  00000	55		 push	 ebp
  00001	8b ec		 mov	 ebp, esp
  00003	51		 push	 ecx
  00004	57		 push	 edi
  00005	33 c0		 xor	 eax, eax
  00007	8d 7d ff	 lea	 edi, DWORD PTR $T115609[ebp]
  0000a	aa		 stosb
  0000b	8a 45 ff	 mov	 al, BYTE PTR $T115609[ebp]
  0000e	5f		 pop	 edi
  0000f	c9		 leave
  00010	c3		 ret	 0
?_Ret@?$_BothPtrType@PADPAD@_STL@@SA?AU__true_type@2@XZ ENDP ; _STL::_BothPtrType<char *,char *>::_Ret
_TEXT	ENDS
PUBLIC	?_Ret@?$_OKToMemCpy@DD@_STL@@SA?AU__true_type@2@XZ ; _STL::_OKToMemCpy<char,char>::_Ret
; Function compile flags: /Ogsy
;	COMDAT ?_Ret@?$_OKToMemCpy@DD@_STL@@SA?AU__true_type@2@XZ
_TEXT	SEGMENT
$T115612 = -1						; size = 1
?_Ret@?$_OKToMemCpy@DD@_STL@@SA?AU__true_type@2@XZ PROC NEAR ; _STL::_OKToMemCpy<char,char>::_Ret, COMDAT

; 361  :   static _Type _Ret() { return _Type(); }

  00000	55		 push	 ebp
  00001	8b ec		 mov	 ebp, esp
  00003	51		 push	 ecx
  00004	57		 push	 edi
  00005	33 c0		 xor	 eax, eax
  00007	8d 7d ff	 lea	 edi, DWORD PTR $T115612[ebp]
  0000a	aa		 stosb
  0000b	8a 45 ff	 mov	 al, BYTE PTR $T115612[ebp]
  0000e	5f		 pop	 edi
  0000f	c9		 leave
  00010	c3		 ret	 0
?_Ret@?$_OKToMemCpy@DD@_STL@@SA?AU__true_type@2@XZ ENDP	; _STL::_OKToMemCpy<char,char>::_Ret
_TEXT	ENDS
PUBLIC	??$_IsOKToMemCpy@DD@_STL@@YA?AU?$_OKToMemCpy@DD@0@PAD0@Z ; _STL::_IsOKToMemCpy<char,char>
; Function compile flags: /Ogsy
;	COMDAT ??$_IsOKToMemCpy@DD@_STL@@YA?AU?$_OKToMemCpy@DD@0@PAD0@Z
_TEXT	SEGMENT
$T115615 = -1						; size = 1
___formal$ = 8						; size = 4
___formal$ = 12						; size = 4
??$_IsOKToMemCpy@DD@_STL@@YA?AU?$_OKToMemCpy@DD@0@PAD0@Z PROC NEAR ; _STL::_IsOKToMemCpy<char,char>, COMDAT

; 365  : inline _OKToMemCpy<_Tp1, _Tp2> _IsOKToMemCpy(_Tp1*, _Tp2*)  {

  00000	55		 push	 ebp
  00001	8b ec		 mov	 ebp, esp
  00003	51		 push	 ecx
  00004	57		 push	 edi

; 366  :   return _OKToMemCpy<_Tp1, _Tp2>();

  00005	33 c0		 xor	 eax, eax
  00007	8d 7d ff	 lea	 edi, DWORD PTR $T115615[ebp]
  0000a	aa		 stosb
  0000b	8a 45 ff	 mov	 al, BYTE PTR $T115615[ebp]
  0000e	5f		 pop	 edi

; 367  : }

  0000f	c9		 leave
  00010	c3		 ret	 0
??$_IsOKToMemCpy@DD@_STL@@YA?AU?$_OKToMemCpy@DD@0@PAD0@Z ENDP ; _STL::_IsOKToMemCpy<char,char>
_TEXT	ENDS
PUBLIC	??$__copy_ptrs@PADPAD@_STL@@YAPADPAD00ABU__true_type@0@@Z ; _STL::__copy_ptrs<char *,char *>
; Function compile flags: /Ogsy
; File c:\stlport-4.6.1\stlport\stl\_algobase.h
;	COMDAT ??$__copy_ptrs@PADPAD@_STL@@YAPADPAD00ABU__true_type@0@@Z
_TEXT	SEGMENT
___first$ = 8						; size = 4
___last$ = 12						; size = 4
___result$ = 16						; size = 4
___formal$ = 20						; size = 4
??$__copy_ptrs@PADPAD@_STL@@YAPADPAD00ABU__true_type@0@@Z PROC NEAR ; _STL::__copy_ptrs<char *,char *>, COMDAT

; 195  : // we know they all pointers, so this cast is OK 
; 196  :   //  return (_OutputIter)__copy_trivial(&(*__first), &(*__last), &(*__result));
; 197  :   return (_OutputIter)__copy_trivial(__first, __last, __result);

  00000	ff 74 24 0c	 push	 DWORD PTR ___result$[esp-4]
  00004	ff 74 24 0c	 push	 DWORD PTR ___last$[esp]
  00008	ff 74 24 0c	 push	 DWORD PTR ___first$[esp+4]
  0000c	e8 00 00 00 00	 call	 ?__copy_trivial@_STL@@YAPAXPBX0PAX@Z ; _STL::__copy_trivial
  00011	83 c4 0c	 add	 esp, 12			; 0000000cH

; 198  : }

  00014	c3		 ret	 0
??$__copy_ptrs@PADPAD@_STL@@YAPADPAD00ABU__true_type@0@@Z ENDP ; _STL::__copy_ptrs<char *,char *>
_TEXT	ENDS
PUBLIC	?eof@?$__char_traits_base@DH@_STL@@SAHXZ	; _STL::__char_traits_base<char,int>::eof
; Function compile flags: /Ogsy
; File c:\stlport-4.6.1\stlport\stl\char_traits.h
;	COMDAT ?eof@?$__char_traits_base@DH@_STL@@SAHXZ
_TEXT	SEGMENT
?eof@?$__char_traits_base@DH@_STL@@SAHXZ PROC NEAR	; _STL::__char_traits_base<char,int>::eof, COMDAT

; 197  :     return (int_type)-1;

  00000	83 c8 ff	 or	 eax, -1

; 198  :     //    return __STATIC_CAST(int_type,-1);
; 199  :   }

  00003	c3		 ret	 0
?eof@?$__char_traits_base@DH@_STL@@SAHXZ ENDP		; _STL::__char_traits_base<char,int>::eof
_TEXT	ENDS
PUBLIC	??0?$allocator@D@_STL@@QAE@XZ			; _STL::allocator<char>::allocator<char>
; Function compile flags: /Ogsy
; File c:\stlport-4.6.1\stlport\stl\_alloc.h
;	COMDAT ??0?$allocator@D@_STL@@QAE@XZ
_TEXT	SEGMENT
??0?$allocator@D@_STL@@QAE@XZ PROC NEAR			; _STL::allocator<char>::allocator<char>, COMDAT
; _this$ = ecx

; 345  :   allocator() _STLP_NOTHROW {}

  00000	8b c1		 mov	 eax, ecx
  00002	c3		 ret	 0
??0?$allocator@D@_STL@@QAE@XZ ENDP			; _STL::allocator<char>::allocator<char>
_TEXT	ENDS
PUBLIC	??1?$allocator@D@_STL@@QAE@XZ			; _STL::allocator<char>::~allocator<char>
; Function compile flags: /Ogsy
;	COMDAT ??1?$allocator@D@_STL@@QAE@XZ
_TEXT	SEGMENT
??1?$allocator@D@_STL@@QAE@XZ PROC NEAR			; _STL::allocator<char>::~allocator<char>, COMDAT
; _this$ = ecx

; 350  :   ~allocator() _STLP_NOTHROW {}

  00000	c3		 ret	 0
??1?$allocator@D@_STL@@QAE@XZ ENDP			; _STL::allocator<char>::~allocator<char>
_TEXT	ENDS
PUBLIC	??1?$basic_istream@DV?$char_traits@D@_STL@@@_STL@@UAE@XZ ; _STL::basic_istream<char,_STL::char_traits<char> >::~basic_istream<char,_STL::char_traits<char> >
PUBLIC	??_7?$basic_istream@DV?$char_traits@D@_STL@@@_STL@@6B@ ; _STL::basic_istream<char,_STL::char_traits<char> >::`vftable'
PUBLIC	??_G?$basic_istream@DV?$char_traits@D@_STL@@@_STL@@UAEPAXI@Z ; _STL::basic_istream<char,_STL::char_traits<char> >::`scalar deleting destructor'
PUBLIC	??_R4?$basic_istream@DV?$char_traits@D@_STL@@@_STL@@6B@ ; _STL::basic_istream<char,_STL::char_traits<char> >::`RTTI Complete Object Locator'
PUBLIC	??_R0?AV?$basic_istream@DV?$char_traits@D@_STL@@@_STL@@@8 ; _STL::basic_istream<char,_STL::char_traits<char> > `RTTI Type Descriptor'
PUBLIC	??_R3?$basic_istream@DV?$char_traits@D@_STL@@@_STL@@8 ; _STL::basic_istream<char,_STL::char_traits<char> >::`RTTI Class Hierarchy Descriptor'
PUBLIC	??_R2?$basic_istream@DV?$char_traits@D@_STL@@@_STL@@8 ; _STL::basic_istream<char,_STL::char_traits<char> >::`RTTI Base Class Array'
PUBLIC	??_R1A@?0A@A@?$basic_istream@DV?$char_traits@D@_STL@@@_STL@@8 ; _STL::basic_istream<char,_STL::char_traits<char> >::`RTTI Base Class Descriptor at (0,-1,0,0)'
PUBLIC	??_R1A@A@3BA@?$basic_ios@DV?$char_traits@D@_STL@@@_STL@@8 ; _STL::basic_ios<char,_STL::char_traits<char> >::`RTTI Base Class Descriptor at (0,0,4,16)'
PUBLIC	??_R1A@A@3A@ios_base@_STL@@8			; _STL::ios_base::`RTTI Base Class Descriptor at (0,0,4,0)'
EXTRN	??_E?$basic_istream@DV?$char_traits@D@_STL@@@_STL@@UAEPAXI@Z:NEAR ; _STL::basic_istream<char,_STL::char_traits<char> >::`vector deleting destructor'
;	COMDAT ??_7?$basic_istream@DV?$char_traits@D@_STL@@@_STL@@6B@
; File c:\stlport-4.6.1\stlport\stl\_istream.h
CONST	SEGMENT
??_7?$basic_istream@DV?$char_traits@D@_STL@@@_STL@@6B@ DD FLAT:??_R4?$basic_istream@DV?$char_traits@D@_STL@@@_STL@@6B@ ; _STL::basic_istream<char,_STL::char_traits<char> >::`vftable'
	DD	FLAT:??_E?$basic_istream@DV?$char_traits@D@_STL@@@_STL@@UAEPAXI@Z
CONST	ENDS
;	COMDAT ??_R4?$basic_istream@DV?$char_traits@D@_STL@@@_STL@@6B@
rdata$r	SEGMENT
??_R4?$basic_istream@DV?$char_traits@D@_STL@@@_STL@@6B@ DD 00H ; _STL::basic_istream<char,_STL::char_traits<char> >::`RTTI Complete Object Locator'
	DD	08H
	DD	00H
	DD	FLAT:??_R0?AV?$basic_istream@DV?$char_traits@D@_STL@@@_STL@@@8
	DD	FLAT:??_R3?$basic_istream@DV?$char_traits@D@_STL@@@_STL@@8
rdata$r	ENDS
;	COMDAT ??_R0?AV?$basic_istream@DV?$char_traits@D@_STL@@@_STL@@@8
_DATA	SEGMENT
??_R0?AV?$basic_istream@DV?$char_traits@D@_STL@@@_STL@@@8 DD FLAT:??_7type_info@@6B@ ; _STL::basic_istream<char,_STL::char_traits<char> > `RTTI Type Descriptor'
	DD	00H
	DB	'.?AV?$basic_istream@DV?$char_traits@D@_STL@@@_STL@@', 00H
_DATA	ENDS
;	COMDAT ??_R3?$basic_istream@DV?$char_traits@D@_STL@@@_STL@@8
rdata$r	SEGMENT
??_R3?$basic_istream@DV?$char_traits@D@_STL@@@_STL@@8 DD 00H ; _STL::basic_istream<char,_STL::char_traits<char> >::`RTTI Class Hierarchy Descriptor'
	DD	00H
	DD	03H
	DD	FLAT:??_R2?$basic_istream@DV?$char_traits@D@_STL@@@_STL@@8
rdata$r	ENDS
;	COMDAT ??_R2?$basic_istream@DV?$char_traits@D@_STL@@@_STL@@8
rdata$r	SEGMENT
??_R2?$basic_istream@DV?$char_traits@D@_STL@@@_STL@@8 DD FLAT:??_R1A@?0A@A@?$basic_istream@DV?$char_traits@D@_STL@@@_STL@@8 ; _STL::basic_istream<char,_STL::char_traits<char> >::`RTTI Base Class Array'
	DD	FLAT:??_R1A@A@3BA@?$basic_ios@DV?$char_traits@D@_STL@@@_STL@@8
	DD	FLAT:??_R1A@A@3A@ios_base@_STL@@8
rdata$r	ENDS
;	COMDAT ??_R1A@?0A@A@?$basic_istream@DV?$char_traits@D@_STL@@@_STL@@8
rdata$r	SEGMENT
??_R1A@?0A@A@?$basic_istream@DV?$char_traits@D@_STL@@@_STL@@8 DD FLAT:??_R0?AV?$basic_istream@DV?$char_traits@D@_STL@@@_STL@@@8 ; _STL::basic_istream<char,_STL::char_traits<char> >::`RTTI Base Class Descriptor at (0,-1,0,0)'
	DD	02H
	DD	00H
	DD	0ffffffffH
	DD	00H
	DD	00H
rdata$r	ENDS
;	COMDAT ??_R1A@A@3BA@?$basic_ios@DV?$char_traits@D@_STL@@@_STL@@8
rdata$r	SEGMENT
??_R1A@A@3BA@?$basic_ios@DV?$char_traits@D@_STL@@@_STL@@8 DD FLAT:??_R0?AV?$basic_ios@DV?$char_traits@D@_STL@@@_STL@@@8 ; _STL::basic_ios<char,_STL::char_traits<char> >::`RTTI Base Class Descriptor at (0,0,4,16)'
	DD	01H
	DD	00H
	DD	00H
	DD	04H
	DD	010H
rdata$r	ENDS
;	COMDAT ??_R1A@A@3A@ios_base@_STL@@8
rdata$r	SEGMENT
??_R1A@A@3A@ios_base@_STL@@8 DD FLAT:??_R0?AVios_base@_STL@@@8 ; _STL::ios_base::`RTTI Base Class Descriptor at (0,0,4,0)'
	DD	00H
	DD	00H
	DD	00H
	DD	04H
	DD	00H
; Function compile flags: /Ogsy
rdata$r	ENDS
;	COMDAT ??1?$basic_istream@DV?$char_traits@D@_STL@@@_STL@@UAE@XZ
_TEXT	SEGMENT
??1?$basic_istream@DV?$char_traits@D@_STL@@@_STL@@UAE@XZ PROC NEAR ; _STL::basic_istream<char,_STL::char_traits<char> >::~basic_istream<char,_STL::char_traits<char> >, COMDAT
; _this$ = ecx

; 87   :   ~basic_istream() {};

  00000	8b 41 f8	 mov	 eax, DWORD PTR [ecx-8]
  00003	8b 40 04	 mov	 eax, DWORD PTR [eax+4]
  00006	c7 44 08 f8 00
	00 00 00	 mov	 DWORD PTR [eax+ecx-8], OFFSET FLAT:??_7?$basic_istream@DV?$char_traits@D@_STL@@@_STL@@6B@
  0000e	c3		 ret	 0
??1?$basic_istream@DV?$char_traits@D@_STL@@@_STL@@UAE@XZ ENDP ; _STL::basic_istream<char,_STL::char_traits<char> >::~basic_istream<char,_STL::char_traits<char> >
_TEXT	ENDS
PUBLIC	??1?$basic_ios@DV?$char_traits@D@_STL@@@_STL@@UAE@XZ ; _STL::basic_ios<char,_STL::char_traits<char> >::~basic_ios<char,_STL::char_traits<char> >
EXTRN	??1ios_base@_STL@@UAE@XZ:NEAR			; _STL::ios_base::~ios_base
; Function compile flags: /Ogsy
; File c:\stlport-4.6.1\stlport\stl\_ios.h
;	COMDAT ??1?$basic_ios@DV?$char_traits@D@_STL@@@_STL@@UAE@XZ
_TEXT	SEGMENT
??1?$basic_ios@DV?$char_traits@D@_STL@@@_STL@@UAE@XZ PROC NEAR ; _STL::basic_ios<char,_STL::char_traits<char> >::~basic_ios<char,_STL::char_traits<char> >, COMDAT
; _this$ = ecx

; 58   :   virtual ~basic_ios() {}

  00000	c7 01 00 00 00
	00		 mov	 DWORD PTR [ecx], OFFSET FLAT:??_7?$basic_ios@DV?$char_traits@D@_STL@@@_STL@@6B@
  00006	e9 00 00 00 00	 jmp	 ??1ios_base@_STL@@UAE@XZ ; _STL::ios_base::~ios_base
??1?$basic_ios@DV?$char_traits@D@_STL@@@_STL@@UAE@XZ ENDP ; _STL::basic_ios<char,_STL::char_traits<char> >::~basic_ios<char,_STL::char_traits<char> >
_TEXT	ENDS
PUBLIC	?_M_write@?$basic_filebuf@DV?$char_traits@D@_STL@@@_STL@@QAE_NPADH@Z ; _STL::basic_filebuf<char,_STL::char_traits<char> >::_M_write
EXTRN	?_M_write@_Filebuf_base@_STL@@QAE_NPADH@Z:NEAR	; _STL::_Filebuf_base::_M_write
; Function compile flags: /Ogsy
; File c:\stlport-4.6.1\stlport\stl\_fstream.h
;	COMDAT ?_M_write@?$basic_filebuf@DV?$char_traits@D@_STL@@@_STL@@QAE_NPADH@Z
_TEXT	SEGMENT
___buf$ = 8						; size = 4
___n$ = 12						; size = 4
?_M_write@?$basic_filebuf@DV?$char_traits@D@_STL@@@_STL@@QAE_NPADH@Z PROC NEAR ; _STL::basic_filebuf<char,_STL::char_traits<char> >::_M_write, COMDAT
; _this$ = ecx

; 349  :   bool _M_write(char* __buf,  ptrdiff_t __n) {return _M_base._M_write(__buf, __n); }

  00000	83 c1 54	 add	 ecx, 84			; 00000054H
  00003	e9 00 00 00 00	 jmp	 ?_M_write@_Filebuf_base@_STL@@QAE_NPADH@Z ; _STL::_Filebuf_base::_M_write
?_M_write@?$basic_filebuf@DV?$char_traits@D@_STL@@@_STL@@QAE_NPADH@Z ENDP ; _STL::basic_filebuf<char,_STL::char_traits<char> >::_M_write
; Function compile flags: /Ogsy
_TEXT	ENDS
;	COMDAT ??_G?$basic_ios@DV?$char_traits@D@_STL@@@_STL@@UAEPAXI@Z
_TEXT	SEGMENT
___flags$ = 8						; size = 4
??_G?$basic_ios@DV?$char_traits@D@_STL@@@_STL@@UAEPAXI@Z PROC NEAR ; _STL::basic_ios<char,_STL::char_traits<char> >::`scalar deleting destructor', COMDAT
; _this$ = ecx
  00000	56		 push	 esi
  00001	8b f1		 mov	 esi, ecx
  00003	e8 00 00 00 00	 call	 ??1?$basic_ios@DV?$char_traits@D@_STL@@@_STL@@UAE@XZ ; _STL::basic_ios<char,_STL::char_traits<char> >::~basic_ios<char,_STL::char_traits<char> >
  00008	f6 44 24 08 01	 test	 BYTE PTR ___flags$[esp], 1
  0000d	74 07		 je	 SHORT $L98548
  0000f	56		 push	 esi
  00010	e8 00 00 00 00	 call	 ??3@YAXPAX@Z		; operator delete
  00015	59		 pop	 ecx
$L98548:
  00016	8b c6		 mov	 eax, esi
  00018	5e		 pop	 esi
  00019	c2 04 00	 ret	 4
??_G?$basic_ios@DV?$char_traits@D@_STL@@@_STL@@UAEPAXI@Z ENDP ; _STL::basic_ios<char,_STL::char_traits<char> >::`scalar deleting destructor'
_TEXT	ENDS
PUBLIC	??1?$_STLP_alloc_proxy@PADDV?$allocator@D@_STL@@@_STL@@QAE@XZ ; _STL::_STLP_alloc_proxy<char *,char,_STL::allocator<char> >::~_STLP_alloc_proxy<char *,char,_STL::allocator<char> >
; Function compile flags: /Ogsy
;	COMDAT ??1?$_STLP_alloc_proxy@PADDV?$allocator@D@_STL@@@_STL@@QAE@XZ
_TEXT	SEGMENT
??1?$_STLP_alloc_proxy@PADDV?$allocator@D@_STL@@@_STL@@QAE@XZ PROC NEAR ; _STL::_STLP_alloc_proxy<char *,char,_STL::allocator<char> >::~_STLP_alloc_proxy<char *,char,_STL::allocator<char> >, COMDAT
; _this$ = ecx
  00000	c3		 ret	 0
??1?$_STLP_alloc_proxy@PADDV?$allocator@D@_STL@@@_STL@@QAE@XZ ENDP ; _STL::_STLP_alloc_proxy<char *,char,_STL::allocator<char> >::~_STLP_alloc_proxy<char *,char,_STL::allocator<char> >
_TEXT	ENDS
PUBLIC	??1?$allocator@G@_STL@@QAE@XZ			; _STL::allocator<unsigned short>::~allocator<unsigned short>
; Function compile flags: /Ogsy
; File c:\stlport-4.6.1\stlport\stl\_alloc.h
;	COMDAT ??1?$allocator@G@_STL@@QAE@XZ
_TEXT	SEGMENT
??1?$allocator@G@_STL@@QAE@XZ PROC NEAR			; _STL::allocator<unsigned short>::~allocator<unsigned short>, COMDAT
; _this$ = ecx

; 350  :   ~allocator() _STLP_NOTHROW {}

  00000	c3		 ret	 0
??1?$allocator@G@_STL@@QAE@XZ ENDP			; _STL::allocator<unsigned short>::~allocator<unsigned short>
_TEXT	ENDS
PUBLIC	?allocate@?$__node_alloc@$00$0A@@_STL@@SAPAXI@Z	; _STL::__node_alloc<1,0>::allocate
EXTRN	?_M_allocate@?$__node_alloc@$00$0A@@_STL@@CAPAXI@Z:NEAR ; _STL::__node_alloc<1,0>::_M_allocate
; Function compile flags: /Ogsy
;	COMDAT ?allocate@?$__node_alloc@$00$0A@@_STL@@SAPAXI@Z
_TEXT	SEGMENT
___n$ = 8						; size = 4
?allocate@?$__node_alloc@$00$0A@@_STL@@SAPAXI@Z PROC NEAR ; _STL::__node_alloc<1,0>::allocate, COMDAT

; 251  :   static void * _STLP_CALL allocate(size_t __n) { return (__n > (size_t)_MAX_BYTES) ?  __stl_new(__n) : _M_allocate(__n); }

  00000	8b 44 24 04	 mov	 eax, DWORD PTR ___n$[esp-4]
  00004	3d 80 00 00 00	 cmp	 eax, 128		; 00000080H
  00009	50		 push	 eax
  0000a	76 07		 jbe	 SHORT $L115653
  0000c	e8 00 00 00 00	 call	 ??2@YAPAXI@Z		; operator new
  00011	59		 pop	 ecx
  00012	c3		 ret	 0
$L115653:
  00013	e8 00 00 00 00	 call	 ?_M_allocate@?$__node_alloc@$00$0A@@_STL@@CAPAXI@Z ; _STL::__node_alloc<1,0>::_M_allocate
  00018	59		 pop	 ecx
  00019	c3		 ret	 0
?allocate@?$__node_alloc@$00$0A@@_STL@@SAPAXI@Z ENDP	; _STL::__node_alloc<1,0>::allocate
_TEXT	ENDS
PUBLIC	?deallocate@?$__node_alloc@$00$0A@@_STL@@SAXPAXI@Z ; _STL::__node_alloc<1,0>::deallocate
EXTRN	?_M_deallocate@?$__node_alloc@$00$0A@@_STL@@CAXPAXI@Z:NEAR ; _STL::__node_alloc<1,0>::_M_deallocate
; Function compile flags: /Ogsy
;	COMDAT ?deallocate@?$__node_alloc@$00$0A@@_STL@@SAXPAXI@Z
_TEXT	SEGMENT
___p$ = 8						; size = 4
___n$ = 12						; size = 4
?deallocate@?$__node_alloc@$00$0A@@_STL@@SAXPAXI@Z PROC NEAR ; _STL::__node_alloc<1,0>::deallocate, COMDAT

; 253  :   static void _STLP_CALL deallocate(void *__p, size_t __n) { if (__n > (size_t)_MAX_BYTES) __stl_delete(__p); else _M_deallocate(__p, __n); }

  00000	81 7c 24 08 80
	00 00 00	 cmp	 DWORD PTR ___n$[esp-4], 128 ; 00000080H
  00008	76 0b		 jbe	 SHORT $L98677
  0000a	ff 74 24 04	 push	 DWORD PTR ___p$[esp-4]
  0000e	e8 00 00 00 00	 call	 ??3@YAXPAX@Z		; operator delete
  00013	59		 pop	 ecx
  00014	c3		 ret	 0
$L98677:
  00015	e9 00 00 00 00	 jmp	 ?_M_deallocate@?$__node_alloc@$00$0A@@_STL@@CAXPAXI@Z ; _STL::__node_alloc<1,0>::_M_deallocate
?deallocate@?$__node_alloc@$00$0A@@_STL@@SAXPAXI@Z ENDP	; _STL::__node_alloc<1,0>::deallocate
_TEXT	ENDS
PUBLIC	?_M_terminate_string@?$basic_string@DV?$char_traits@D@_STL@@V?$allocator@D@2@@_STL@@AAEXXZ ; _STL::basic_string<char,_STL::char_traits<char>,_STL::allocator<char> >::_M_terminate_string
; Function compile flags: /Ogsy
; File c:\stlport-4.6.1\stlport\stl\_string.h
;	COMDAT ?_M_terminate_string@?$basic_string@DV?$char_traits@D@_STL@@V?$allocator@D@2@@_STL@@AAEXXZ
_TEXT	SEGMENT
?_M_terminate_string@?$basic_string@DV?$char_traits@D@_STL@@V?$allocator@D@2@@_STL@@AAEXXZ PROC NEAR ; _STL::basic_string<char,_STL::char_traits<char>,_STL::allocator<char> >::_M_terminate_string, COMDAT
; _this$ = ecx

; 355  :     _M_terminate_string_aux(_Char_Is_Integral());

  00000	8b 41 04	 mov	 eax, DWORD PTR [ecx+4]
  00003	c6 00 00	 mov	 BYTE PTR [eax], 0

; 356  :   }

  00006	c3		 ret	 0
?_M_terminate_string@?$basic_string@DV?$char_traits@D@_STL@@V?$allocator@D@2@@_STL@@AAEXXZ ENDP ; _STL::basic_string<char,_STL::char_traits<char>,_STL::allocator<char> >::_M_terminate_string
_TEXT	ENDS
PUBLIC	?allocate@?$allocator@D@_STL@@QAEPADIPBX@Z	; _STL::allocator<char>::allocate
; Function compile flags: /Ogsy
; File c:\stlport-4.6.1\stlport\stl\_alloc.h
;	COMDAT ?allocate@?$allocator@D@_STL@@QAEPADIPBX@Z
_TEXT	SEGMENT
___n$ = 8						; size = 4
___formal$ = 12						; size = 4
?allocate@?$allocator@D@_STL@@QAEPADIPBX@Z PROC NEAR	; _STL::allocator<char>::allocate, COMDAT
; _this$ = ecx

; 355  :     return __n != 0 ? __REINTERPRET_CAST(value_type*,__sgi_alloc::allocate(__n * sizeof(value_type))) : 0;

  00000	33 c0		 xor	 eax, eax
  00002	39 44 24 04	 cmp	 DWORD PTR ___n$[esp-4], eax
  00006	74 0a		 je	 SHORT $L115676
  00008	ff 74 24 04	 push	 DWORD PTR ___n$[esp-4]
  0000c	e8 00 00 00 00	 call	 ?allocate@?$__node_alloc@$00$0A@@_STL@@SAPAXI@Z ; _STL::__node_alloc<1,0>::allocate
  00011	59		 pop	 ecx
$L115676:

; 356  :   }

  00012	c2 08 00	 ret	 8
?allocate@?$allocator@D@_STL@@QAEPADIPBX@Z ENDP		; _STL::allocator<char>::allocate
_TEXT	ENDS
PUBLIC	??0?$_STLP_alloc_proxy@PADDV?$allocator@D@_STL@@@_STL@@QAE@ABV?$allocator@D@1@PAD@Z ; _STL::_STLP_alloc_proxy<char *,char,_STL::allocator<char> >::_STLP_alloc_proxy<char *,char,_STL::allocator<char> >
; Function compile flags: /Ogsy
;	COMDAT ??0?$_STLP_alloc_proxy@PADDV?$allocator@D@_STL@@@_STL@@QAE@ABV?$allocator@D@1@PAD@Z
_TEXT	SEGMENT
___a$ = 8						; size = 4
___p$ = 12						; size = 4
??0?$_STLP_alloc_proxy@PADDV?$allocator@D@_STL@@@_STL@@QAE@ABV?$allocator@D@1@PAD@Z PROC NEAR ; _STL::_STLP_alloc_proxy<char *,char,_STL::allocator<char> >::_STLP_alloc_proxy<char *,char,_STL::allocator<char> >, COMDAT
; _this$ = ecx

; 487  :   inline _STLP_alloc_proxy(const _MaybeReboundAlloc& __a, _Value __p) : _MaybeReboundAlloc(__a), _M_data(__p) {}

  00000	8b c1		 mov	 eax, ecx
  00002	8b 4c 24 08	 mov	 ecx, DWORD PTR ___p$[esp-4]
  00006	89 08		 mov	 DWORD PTR [eax], ecx
  00008	c2 08 00	 ret	 8
??0?$_STLP_alloc_proxy@PADDV?$allocator@D@_STL@@@_STL@@QAE@ABV?$allocator@D@1@PAD@Z ENDP ; _STL::_STLP_alloc_proxy<char *,char,_STL::allocator<char> >::_STLP_alloc_proxy<char *,char,_STL::allocator<char> >
_TEXT	ENDS
PUBLIC	??0?$_List_iterator@PAVCSpriteSurface@@U?$_Nonconst_traits@PAVCSpriteSurface@@@_STL@@@_STL@@QAE@PAU?$_List_node@PAVCSpriteSurface@@@1@@Z ; _STL::_List_iterator<CSpriteSurface *,_STL::_Nonconst_traits<CSpriteSurface *> >::_List_iterator<CSpriteSurface *,_STL::_Nonconst_traits<CSpriteSurface *> >
; Function compile flags: /Ogsy
; File c:\stlport-4.6.1\stlport\stl\_list.h
;	COMDAT ??0?$_List_iterator@PAVCSpriteSurface@@U?$_Nonconst_traits@PAVCSpriteSurface@@@_STL@@@_STL@@QAE@PAU?$_List_node@PAVCSpriteSurface@@@1@@Z
_TEXT	SEGMENT
___x$ = 8						; size = 4
??0?$_List_iterator@PAVCSpriteSurface@@U?$_Nonconst_traits@PAVCSpriteSurface@@@_STL@@@_STL@@QAE@PAU?$_List_node@PAVCSpriteSurface@@@1@@Z PROC NEAR ; _STL::_List_iterator<CSpriteSurface *,_STL::_Nonconst_traits<CSpriteSurface *> >::_List_iterator<CSpriteSurface *,_STL::_Nonconst_traits<CSpriteSurface *> >, COMDAT
; _this$ = ecx

; 126  :   _List_iterator(_Node* __x) : _List_iterator_base(__x) {}

  00000	8b c1		 mov	 eax, ecx
  00002	8b 4c 24 04	 mov	 ecx, DWORD PTR ___x$[esp-4]
  00006	89 08		 mov	 DWORD PTR [eax], ecx
  00008	c2 04 00	 ret	 4
??0?$_List_iterator@PAVCSpriteSurface@@U?$_Nonconst_traits@PAVCSpriteSurface@@@_STL@@@_STL@@QAE@PAU?$_List_node@PAVCSpriteSurface@@@1@@Z ENDP ; _STL::_List_iterator<CSpriteSurface *,_STL::_Nonconst_traits<CSpriteSurface *> >::_List_iterator<CSpriteSurface *,_STL::_Nonconst_traits<CSpriteSurface *> >
_TEXT	ENDS
PUBLIC	??0?$_List_iterator@PAVCSpriteSurface@@U?$_Nonconst_traits@PAVCSpriteSurface@@@_STL@@@_STL@@QAE@ABU01@@Z ; _STL::_List_iterator<CSpriteSurface *,_STL::_Nonconst_traits<CSpriteSurface *> >::_List_iterator<CSpriteSurface *,_STL::_Nonconst_traits<CSpriteSurface *> >
; Function compile flags: /Ogsy
;	COMDAT ??0?$_List_iterator@PAVCSpriteSurface@@U?$_Nonconst_traits@PAVCSpriteSurface@@@_STL@@@_STL@@QAE@ABU01@@Z
_TEXT	SEGMENT
___x$ = 8						; size = 4
??0?$_List_iterator@PAVCSpriteSurface@@U?$_Nonconst_traits@PAVCSpriteSurface@@@_STL@@@_STL@@QAE@ABU01@@Z PROC NEAR ; _STL::_List_iterator<CSpriteSurface *,_STL::_Nonconst_traits<CSpriteSurface *> >::_List_iterator<CSpriteSurface *,_STL::_Nonconst_traits<CSpriteSurface *> >, COMDAT
; _this$ = ecx

; 128  :   _List_iterator(const iterator& __x) :  _List_iterator_base(__x._M_node) {}

  00000	8b c1		 mov	 eax, ecx
  00002	8b 4c 24 04	 mov	 ecx, DWORD PTR ___x$[esp-4]
  00006	8b 09		 mov	 ecx, DWORD PTR [ecx]
  00008	89 08		 mov	 DWORD PTR [eax], ecx
  0000a	c2 04 00	 ret	 4
??0?$_List_iterator@PAVCSpriteSurface@@U?$_Nonconst_traits@PAVCSpriteSurface@@@_STL@@@_STL@@QAE@ABU01@@Z ENDP ; _STL::_List_iterator<CSpriteSurface *,_STL::_Nonconst_traits<CSpriteSurface *> >::_List_iterator<CSpriteSurface *,_STL::_Nonconst_traits<CSpriteSurface *> >
_TEXT	ENDS
PUBLIC	??1?$_STLP_alloc_proxy@PAU?$_List_node@PAVCSpriteSurface@@@_STL@@U12@V?$allocator@U?$_List_node@PAVCSpriteSurface@@@_STL@@@2@@_STL@@QAE@XZ ; _STL::_STLP_alloc_proxy<_STL::_List_node<CSpriteSurface *> *,_STL::_List_node<CSpriteSurface *>,_STL::allocator<_STL::_List_node<CSpriteSurface *> > >::~_STLP_alloc_proxy<_STL::_List_node<CSpriteSurface *> *,_STL::_List_node<CSpriteSurface *>,_STL::allocator<_STL::_List_node<CSpriteSurface *> > >
; Function compile flags: /Ogsy
;	COMDAT ??1?$_STLP_alloc_proxy@PAU?$_List_node@PAVCSpriteSurface@@@_STL@@U12@V?$allocator@U?$_List_node@PAVCSpriteSurface@@@_STL@@@2@@_STL@@QAE@XZ
_TEXT	SEGMENT
??1?$_STLP_alloc_proxy@PAU?$_List_node@PAVCSpriteSurface@@@_STL@@U12@V?$allocator@U?$_List_node@PAVCSpriteSurface@@@_STL@@@2@@_STL@@QAE@XZ PROC NEAR ; _STL::_STLP_alloc_proxy<_STL::_List_node<CSpriteSurface *> *,_STL::_List_node<CSpriteSurface *>,_STL::allocator<_STL::_List_node<CSpriteSurface *> > >::~_STLP_alloc_proxy<_STL::_List_node<CSpriteSurface *> *,_STL::_List_node<CSpriteSurface *>,_STL::allocator<_STL::_List_node<CSpriteSurface *> > >, COMDAT
; _this$ = ecx
  00000	c3		 ret	 0
??1?$_STLP_alloc_proxy@PAU?$_List_node@PAVCSpriteSurface@@@_STL@@U12@V?$allocator@U?$_List_node@PAVCSpriteSurface@@@_STL@@@2@@_STL@@QAE@XZ ENDP ; _STL::_STLP_alloc_proxy<_STL::_List_node<CSpriteSurface *> *,_STL::_List_node<CSpriteSurface *>,_STL::allocator<_STL::_List_node<CSpriteSurface *> > >::~_STLP_alloc_proxy<_STL::_List_node<CSpriteSurface *> *,_STL::_List_node<CSpriteSurface *>,_STL::allocator<_STL::_List_node<CSpriteSurface *> > >
_TEXT	ENDS
PUBLIC	?erase@?$basic_string@DV?$char_traits@D@_STL@@V?$allocator@D@2@@_STL@@QAEPADPAD0@Z ; _STL::basic_string<char,_STL::char_traits<char>,_STL::allocator<char> >::erase
; Function compile flags: /Ogsy
; File c:\stlport-4.6.1\stlport\stl\_string.h
;	COMDAT ?erase@?$basic_string@DV?$char_traits@D@_STL@@V?$allocator@D@2@@_STL@@QAEPADPAD0@Z
_TEXT	SEGMENT
___first$ = 8						; size = 4
___last$ = 12						; size = 4
?erase@?$basic_string@DV?$char_traits@D@_STL@@V?$allocator@D@2@@_STL@@QAEPADPAD0@Z PROC NEAR ; _STL::basic_string<char,_STL::char_traits<char>,_STL::allocator<char> >::erase, COMDAT
; _this$ = ecx

; 862  :   iterator erase(iterator __first, iterator __last) {

  00000	53		 push	 ebx

; 863  :     if (__first != __last) {

  00001	8b 5c 24 08	 mov	 ebx, DWORD PTR ___first$[esp]
  00005	56		 push	 esi
  00006	57		 push	 edi
  00007	8b 7c 24 14	 mov	 edi, DWORD PTR ___last$[esp+8]
  0000b	3b df		 cmp	 ebx, edi
  0000d	8b f1		 mov	 esi, ecx
  0000f	74 1a		 je	 SHORT $L112005

; 864  :                                 // The move includes the terminating _CharT().
; 865  :       traits_type::move(__first, __last, (this->_M_finish - __last) + 1);

  00011	8b 46 04	 mov	 eax, DWORD PTR [esi+4]
  00014	2b c7		 sub	 eax, edi
  00016	40		 inc	 eax
  00017	74 0b		 je	 SHORT $L115708
  00019	50		 push	 eax
  0001a	57		 push	 edi
  0001b	53		 push	 ebx
  0001c	e8 00 00 00 00	 call	 _memmove
  00021	83 c4 0c	 add	 esp, 12			; 0000000cH
$L115708:

; 866  :       pointer __new_finish = this->_M_finish - (__last - __first);

  00024	8b c3		 mov	 eax, ebx
  00026	2b c7		 sub	 eax, edi

; 867  :       _STLP_STD::_Destroy(__new_finish + 1, this->_M_finish + 1);
; 868  :       this->_M_finish = __new_finish;

  00028	01 46 04	 add	 DWORD PTR [esi+4], eax
$L112005:
  0002b	5f		 pop	 edi
  0002c	5e		 pop	 esi

; 869  :     }
; 870  :     return __first;

  0002d	8b c3		 mov	 eax, ebx
  0002f	5b		 pop	 ebx

; 871  :   }

  00030	c2 08 00	 ret	 8
?erase@?$basic_string@DV?$char_traits@D@_STL@@V?$allocator@D@2@@_STL@@QAEPADPAD0@Z ENDP ; _STL::basic_string<char,_STL::char_traits<char>,_STL::allocator<char> >::erase
_TEXT	ENDS
PUBLIC	??0?$_STLP_alloc_proxy@PAU?$_List_node@PAVCSpriteSurface@@@_STL@@U12@V?$allocator@U?$_List_node@PAVCSpriteSurface@@@_STL@@@2@@_STL@@QAE@ABV?$allocator@U?$_List_node@PAVCSpriteSurface@@@_STL@@@1@PAU?$_List_node@PAVCSpriteSurface@@@1@@Z ; _STL::_STLP_alloc_proxy<_STL::_List_node<CSpriteSurface *> *,_STL::_List_node<CSpriteSurface *>,_STL::allocator<_STL::_List_node<CSpriteSurface *> > >::_STLP_alloc_proxy<_STL::_List_node<CSpriteSurface *> *,_STL::_List_node<CSpriteSurface *>,_STL::allocator<_STL::_List_node<CSpriteSurface *> > >
; Function compile flags: /Ogsy
; File c:\stlport-4.6.1\stlport\stl\_alloc.h
;	COMDAT ??0?$_STLP_alloc_proxy@PAU?$_List_node@PAVCSpriteSurface@@@_STL@@U12@V?$allocator@U?$_List_node@PAVCSpriteSurface@@@_STL@@@2@@_STL@@QAE@ABV?$allocator@U?$_List_node@PAVCSpriteSurface@@@_STL@@@1@PAU?$_List_node@PAVCSpriteSurface@@@1@@Z
_TEXT	SEGMENT
___a$ = 8						; size = 4
___p$ = 12						; size = 4
??0?$_STLP_alloc_proxy@PAU?$_List_node@PAVCSpriteSurface@@@_STL@@U12@V?$allocator@U?$_List_node@PAVCSpriteSurface@@@_STL@@@2@@_STL@@QAE@ABV?$allocator@U?$_List_node@PAVCSpriteSurface@@@_STL@@@1@PAU?$_List_node@PAVCSpriteSurface@@@1@@Z PROC NEAR ; _STL::_STLP_alloc_proxy<_STL::_List_node<CSpriteSurface *> *,_STL::_List_node<CSpriteSurface *>,_STL::allocator<_STL::_List_node<CSpriteSurface *> > >::_STLP_alloc_proxy<_STL::_List_node<CSpriteSurface *> *,_STL::_List_node<CSpriteSurface *>,_STL::allocator<_STL::_List_node<CSpriteSurface *> > >, COMDAT
; _this$ = ecx

; 487  :   inline _STLP_alloc_proxy(const _MaybeReboundAlloc& __a, _Value __p) : _MaybeReboundAlloc(__a), _M_data(__p) {}

  00000	8b c1		 mov	 eax, ecx
  00002	8b 4c 24 08	 mov	 ecx, DWORD PTR ___p$[esp-4]
  00006	89 08		 mov	 DWORD PTR [eax], ecx
  00008	c2 08 00	 ret	 8
??0?$_STLP_alloc_proxy@PAU?$_List_node@PAVCSpriteSurface@@@_STL@@U12@V?$allocator@U?$_List_node@PAVCSpriteSurface@@@_STL@@@2@@_STL@@QAE@ABV?$allocator@U?$_List_node@PAVCSpriteSurface@@@_STL@@@1@PAU?$_List_node@PAVCSpriteSurface@@@1@@Z ENDP ; _STL::_STLP_alloc_proxy<_STL::_List_node<CSpriteSurface *> *,_STL::_List_node<CSpriteSurface *>,_STL::allocator<_STL::_List_node<CSpriteSurface *> > >::_STLP_alloc_proxy<_STL::_List_node<CSpriteSurface *> *,_STL::_List_node<CSpriteSurface *>,_STL::allocator<_STL::_List_node<CSpriteSurface *> > >
_TEXT	ENDS
PUBLIC	?allocate@?$allocator@U?$_List_node@PAVCSpriteSurface@@@_STL@@@_STL@@QAEPAU?$_List_node@PAVCSpriteSurface@@@2@IPBX@Z ; _STL::allocator<_STL::_List_node<CSpriteSurface *> >::allocate
; Function compile flags: /Ogsy
;	COMDAT ?allocate@?$allocator@U?$_List_node@PAVCSpriteSurface@@@_STL@@@_STL@@QAEPAU?$_List_node@PAVCSpriteSurface@@@2@IPBX@Z
_TEXT	SEGMENT
___n$ = 8						; size = 4
___formal$ = 12						; size = 4
?allocate@?$allocator@U?$_List_node@PAVCSpriteSurface@@@_STL@@@_STL@@QAEPAU?$_List_node@PAVCSpriteSurface@@@2@IPBX@Z PROC NEAR ; _STL::allocator<_STL::_List_node<CSpriteSurface *> >::allocate, COMDAT
; _this$ = ecx

; 355  :     return __n != 0 ? __REINTERPRET_CAST(value_type*,__sgi_alloc::allocate(__n * sizeof(value_type))) : 0;

  00000	8b 44 24 04	 mov	 eax, DWORD PTR ___n$[esp-4]
  00004	85 c0		 test	 eax, eax
  00006	74 0f		 je	 SHORT $L115719
  00008	8d 04 40	 lea	 eax, DWORD PTR [eax+eax*2]
  0000b	c1 e0 02	 shl	 eax, 2
  0000e	50		 push	 eax
  0000f	e8 00 00 00 00	 call	 ?allocate@?$__node_alloc@$00$0A@@_STL@@SAPAXI@Z ; _STL::__node_alloc<1,0>::allocate
  00014	59		 pop	 ecx
  00015	eb 02		 jmp	 SHORT $L115720
$L115719:
  00017	33 c0		 xor	 eax, eax
$L115720:

; 356  :   }

  00019	c2 08 00	 ret	 8
?allocate@?$allocator@U?$_List_node@PAVCSpriteSurface@@@_STL@@@_STL@@QAEPAU?$_List_node@PAVCSpriteSurface@@@2@IPBX@Z ENDP ; _STL::allocator<_STL::_List_node<CSpriteSurface *> >::allocate
_TEXT	ENDS
PUBLIC	?deallocate@?$allocator@U?$_List_node@PAVCSpriteSurface@@@_STL@@@_STL@@QAEXPAU?$_List_node@PAVCSpriteSurface@@@2@I@Z ; _STL::allocator<_STL::_List_node<CSpriteSurface *> >::deallocate
; Function compile flags: /Ogsy
;	COMDAT ?deallocate@?$allocator@U?$_List_node@PAVCSpriteSurface@@@_STL@@@_STL@@QAEXPAU?$_List_node@PAVCSpriteSurface@@@2@I@Z
_TEXT	SEGMENT
___p$ = 8						; size = 4
___n$ = 12						; size = 4
?deallocate@?$allocator@U?$_List_node@PAVCSpriteSurface@@@_STL@@@_STL@@QAEXPAU?$_List_node@PAVCSpriteSurface@@@2@I@Z PROC NEAR ; _STL::allocator<_STL::_List_node<CSpriteSurface *> >::deallocate, COMDAT
; _this$ = ecx

; 359  :     _STLP_ASSERT( (__p == 0) == (__n == 0) )
; 360  :       if (__p != 0) __sgi_alloc::deallocate((void*)__p, __n * sizeof(value_type));

  00000	83 7c 24 04 00	 cmp	 DWORD PTR ___p$[esp-4], 0
  00005	74 16		 je	 SHORT $L112030
  00007	8b 44 24 08	 mov	 eax, DWORD PTR ___n$[esp-4]
  0000b	8d 04 40	 lea	 eax, DWORD PTR [eax+eax*2]
  0000e	c1 e0 02	 shl	 eax, 2
  00011	50		 push	 eax
  00012	ff 74 24 08	 push	 DWORD PTR ___p$[esp]
  00016	e8 00 00 00 00	 call	 ?deallocate@?$__node_alloc@$00$0A@@_STL@@SAXPAXI@Z ; _STL::__node_alloc<1,0>::deallocate
  0001b	59		 pop	 ecx
  0001c	59		 pop	 ecx
$L112030:

; 361  :   }

  0001d	c2 08 00	 ret	 8
?deallocate@?$allocator@U?$_List_node@PAVCSpriteSurface@@@_STL@@@_STL@@QAEXPAU?$_List_node@PAVCSpriteSurface@@@2@I@Z ENDP ; _STL::allocator<_STL::_List_node<CSpriteSurface *> >::deallocate
_TEXT	ENDS
PUBLIC	?_M_setup_codecvt@?$basic_filebuf@DV?$char_traits@D@_STL@@@_STL@@AAEXABVlocale@2@@Z ; _STL::basic_filebuf<char,_STL::char_traits<char> >::_M_setup_codecvt
; Function compile flags: /Ogsy
; File c:\stlport-4.6.1\stlport\stl\_fstream.c
;	COMDAT ?_M_setup_codecvt@?$basic_filebuf@DV?$char_traits@D@_STL@@@_STL@@AAEXABVlocale@2@@Z
_TEXT	SEGMENT
$T115727 = -4						; size = 4
___encoding$ = 8					; size = 4
___loc$ = 8						; size = 4
?_M_setup_codecvt@?$basic_filebuf@DV?$char_traits@D@_STL@@@_STL@@AAEXABVlocale@2@@Z PROC NEAR ; _STL::basic_filebuf<char,_STL::char_traits<char> >::_M_setup_codecvt, COMDAT
; _this$ = ecx

; 730  : {

  00000	55		 push	 ebp
  00001	8b ec		 mov	 ebp, esp
  00003	51		 push	 ecx
  00004	56		 push	 esi
  00005	8b f1		 mov	 esi, ecx

; 731  :   _M_codecvt = &use_facet<_Codecvt>(__loc) ;

  00007	8b 4d 08	 mov	 ecx, DWORD PTR ___loc$[ebp]
  0000a	68 00 00 00 00	 push	 OFFSET FLAT:?id@?$codecvt@DDH@_STL@@2V0locale@2@A ; _STL::codecvt<char,char,int>::id
  0000f	e8 00 00 00 00	 call	 ?_M_use_facet@locale@_STL@@QBEPAVfacet@12@ABVid@12@@Z ; _STL::locale::_M_use_facet
  00014	89 86 a0 00 00
	00		 mov	 DWORD PTR [esi+160], eax

; 732  :   int __encoding    = _M_codecvt->encoding();

  0001a	8b 10		 mov	 edx, DWORD PTR [eax]
  0001c	8b c8		 mov	 ecx, eax
  0001e	ff 52 10	 call	 DWORD PTR [edx+16]
  00021	89 45 08	 mov	 DWORD PTR ___encoding$[ebp], eax

; 733  : 
; 734  :   _M_width          = (max)(__encoding, 1);

  00024	33 c0		 xor	 eax, eax
  00026	40		 inc	 eax
  00027	39 45 08	 cmp	 DWORD PTR ___encoding$[ebp], eax
  0002a	89 45 fc	 mov	 DWORD PTR $T115727[ebp], eax
  0002d	8d 45 fc	 lea	 eax, DWORD PTR $T115727[ebp]
  00030	7c 03		 jl	 SHORT $L115742
  00032	8d 45 08	 lea	 eax, DWORD PTR ___encoding$[ebp]
$L115742:
  00035	8b 00		 mov	 eax, DWORD PTR [eax]

; 735  :   _M_max_width      = _M_codecvt->max_length();

  00037	8b 8e a0 00 00
	00		 mov	 ecx, DWORD PTR [esi+160]
  0003d	89 86 a4 00 00
	00		 mov	 DWORD PTR [esi+164], eax
  00043	8b 01		 mov	 eax, DWORD PTR [ecx]
  00045	ff 50 1c	 call	 DWORD PTR [eax+28]

; 736  :   _M_constant_width = __encoding > 0;

  00048	83 7d 08 00	 cmp	 DWORD PTR ___encoding$[ebp], 0

; 737  :   _M_always_noconv  = _M_codecvt->always_noconv();

  0004c	8b 8e a0 00 00
	00		 mov	 ecx, DWORD PTR [esi+160]
  00052	89 86 a8 00 00
	00		 mov	 DWORD PTR [esi+168], eax
  00058	0f 9f c0	 setg	 al
  0005b	88 46 64	 mov	 BYTE PTR [esi+100], al
  0005e	8b 01		 mov	 eax, DWORD PTR [ecx]
  00060	ff 50 14	 call	 DWORD PTR [eax+20]
  00063	88 46 65	 mov	 BYTE PTR [esi+101], al
  00066	5e		 pop	 esi

; 738  : }

  00067	c9		 leave
  00068	c2 04 00	 ret	 4
?_M_setup_codecvt@?$basic_filebuf@DV?$char_traits@D@_STL@@@_STL@@AAEXABVlocale@2@@Z ENDP ; _STL::basic_filebuf<char,_STL::char_traits<char> >::_M_setup_codecvt
_TEXT	ENDS
PUBLIC	?Release@?$CTypePack@VCShadowSprite@@@@UAEXXZ	; CTypePack<CShadowSprite>::Release
; Function compile flags: /Ogsy
; File c:\darkeden\designed_common\project\client\spritelib\ctypepack.h
;	COMDAT ?Release@?$CTypePack@VCShadowSprite@@@@UAEXXZ
_TEXT	SEGMENT
?Release@?$CTypePack@VCShadowSprite@@@@UAEXXZ PROC NEAR	; CTypePack<CShadowSprite>::Release, COMDAT
; _this$ = ecx

; 139  : {

  00000	56		 push	 esi
  00001	8b f1		 mov	 esi, ecx

; 140  : 	FinishRunningLoad();

  00003	8b 06		 mov	 eax, DWORD PTR [esi]
  00005	ff 50 34	 call	 DWORD PTR [eax+52]

; 141  : 
; 142  : 	if(m_pData != NULL)

  00008	8b 4e 04	 mov	 ecx, DWORD PTR [esi+4]
  0000b	85 c9		 test	 ecx, ecx
  0000d	74 10		 je	 SHORT $L112401

; 143  : 	{
; 144  : 		delete [] m_pData;

  0000f	6a 03		 push	 3
  00011	e8 00 00 00 00	 call	 ??_ECShadowSprite@@QAEPAXI@Z

; 145  : 		m_pData = NULL;

  00016	83 66 04 00	 and	 DWORD PTR [esi+4], 0

; 146  : 		m_Size = 0;

  0001a	66 83 66 08 00	 and	 WORD PTR [esi+8], 0
$L112401:
  0001f	5e		 pop	 esi

; 147  : 	}
; 148  : }

  00020	c3		 ret	 0
?Release@?$CTypePack@VCShadowSprite@@@@UAEXXZ ENDP	; CTypePack<CShadowSprite>::Release
_TEXT	ENDS
PUBLIC	?clear@?$_List_base@PAVCSpriteSurface@@V?$allocator@PAVCSpriteSurface@@@_STL@@@_STL@@QAEXXZ ; _STL::_List_base<CSpriteSurface *,_STL::allocator<CSpriteSurface *> >::clear
; Function compile flags: /Ogsy
; File c:\stlport-4.6.1\stlport\stl\_list.c
;	COMDAT ?clear@?$_List_base@PAVCSpriteSurface@@V?$allocator@PAVCSpriteSurface@@@_STL@@@_STL@@QAEXXZ
_TEXT	SEGMENT
?clear@?$_List_base@PAVCSpriteSurface@@V?$allocator@PAVCSpriteSurface@@@_STL@@@_STL@@QAEXXZ PROC NEAR ; _STL::_List_base<CSpriteSurface *,_STL::allocator<CSpriteSurface *> >::clear, COMDAT
; _this$ = ecx

; 68   : {

  00000	56		 push	 esi
  00001	57		 push	 edi
  00002	8b f9		 mov	 edi, ecx

; 69   :   _List_node<_Tp>* __cur = (_List_node<_Tp>*) this->_M_node._M_data->_M_next;

  00004	8b 07		 mov	 eax, DWORD PTR [edi]
  00006	8b 30		 mov	 esi, DWORD PTR [eax]

; 70   :   while (__cur != this->_M_node._M_data) {

  00008	3b f0		 cmp	 esi, eax
  0000a	74 12		 je	 SHORT $L113209
$L113208:

; 71   :     _List_node<_Tp>* __tmp = __cur;

  0000c	8b c6		 mov	 eax, esi

; 72   :     __cur = (_List_node<_Tp>*) __cur->_M_next;

  0000e	8b 36		 mov	 esi, DWORD PTR [esi]

; 73   :     _STLP_STD::_Destroy(&__tmp->_M_data);
; 74   :     this->_M_node.deallocate(__tmp, 1);

  00010	6a 01		 push	 1
  00012	50		 push	 eax
  00013	8b cf		 mov	 ecx, edi
  00015	e8 00 00 00 00	 call	 ?deallocate@?$allocator@U?$_List_node@PAVCSpriteSurface@@@_STL@@@_STL@@QAEXPAU?$_List_node@PAVCSpriteSurface@@@2@I@Z ; _STL::allocator<_STL::_List_node<CSpriteSurface *> >::deallocate
  0001a	3b 37		 cmp	 esi, DWORD PTR [edi]
  0001c	75 ee		 jne	 SHORT $L113208
$L113209:

; 75   :   }
; 76   :   this->_M_node._M_data->_M_next = this->_M_node._M_data;

  0001e	8b 07		 mov	 eax, DWORD PTR [edi]
  00020	89 00		 mov	 DWORD PTR [eax], eax

; 77   :   this->_M_node._M_data->_M_prev = this->_M_node._M_data;

  00022	8b 3f		 mov	 edi, DWORD PTR [edi]
  00024	89 7f 04	 mov	 DWORD PTR [edi+4], edi
  00027	5f		 pop	 edi
  00028	5e		 pop	 esi

; 78   : }

  00029	c3		 ret	 0
?clear@?$_List_base@PAVCSpriteSurface@@V?$allocator@PAVCSpriteSurface@@@_STL@@@_STL@@QAEXXZ ENDP ; _STL::_List_base<CSpriteSurface *,_STL::allocator<CSpriteSurface *> >::clear
_TEXT	ENDS
PUBLIC	?begin@?$list@GV?$allocator@G@_STL@@@_STL@@QAE?AU?$_List_iterator@GU?$_Nonconst_traits@G@_STL@@@2@XZ ; _STL::list<unsigned short,_STL::allocator<unsigned short> >::begin
; Function compile flags: /Ogsy
; File c:\stlport-4.6.1\stlport\stl\_list.h
;	COMDAT ?begin@?$list@GV?$allocator@G@_STL@@@_STL@@QAE?AU?$_List_iterator@GU?$_Nonconst_traits@G@_STL@@@2@XZ
_TEXT	SEGMENT
___$ReturnUdt$ = 8					; size = 4
?begin@?$list@GV?$allocator@G@_STL@@@_STL@@QAE?AU?$_List_iterator@GU?$_Nonconst_traits@G@_STL@@@2@XZ PROC NEAR ; _STL::list<unsigned short,_STL::allocator<unsigned short> >::begin, COMDAT
; _this$ = ecx

; 266  :   iterator begin()             { return iterator((_Node*)(this->_M_node._M_data->_M_next)); }

  00000	8b 01		 mov	 eax, DWORD PTR [ecx]
  00002	8b 08		 mov	 ecx, DWORD PTR [eax]
  00004	8b 44 24 04	 mov	 eax, DWORD PTR ___$ReturnUdt$[esp-4]
  00008	89 08		 mov	 DWORD PTR [eax], ecx
  0000a	c2 04 00	 ret	 4
?begin@?$list@GV?$allocator@G@_STL@@@_STL@@QAE?AU?$_List_iterator@GU?$_Nonconst_traits@G@_STL@@@2@XZ ENDP ; _STL::list<unsigned short,_STL::allocator<unsigned short> >::begin
_TEXT	ENDS
PUBLIC	?end@?$list@GV?$allocator@G@_STL@@@_STL@@QAE?AU?$_List_iterator@GU?$_Nonconst_traits@G@_STL@@@2@XZ ; _STL::list<unsigned short,_STL::allocator<unsigned short> >::end
; Function compile flags: /Ogsy
;	COMDAT ?end@?$list@GV?$allocator@G@_STL@@@_STL@@QAE?AU?$_List_iterator@GU?$_Nonconst_traits@G@_STL@@@2@XZ
_TEXT	SEGMENT
___$ReturnUdt$ = 8					; size = 4
?end@?$list@GV?$allocator@G@_STL@@@_STL@@QAE?AU?$_List_iterator@GU?$_Nonconst_traits@G@_STL@@@2@XZ PROC NEAR ; _STL::list<unsigned short,_STL::allocator<unsigned short> >::end, COMDAT
; _this$ = ecx

; 269  :   iterator end()             { return this->_M_node._M_data; }

  00000	8b 09		 mov	 ecx, DWORD PTR [ecx]
  00002	8b 44 24 04	 mov	 eax, DWORD PTR ___$ReturnUdt$[esp-4]
  00006	89 08		 mov	 DWORD PTR [eax], ecx
  00008	c2 04 00	 ret	 4
?end@?$list@GV?$allocator@G@_STL@@@_STL@@QAE?AU?$_List_iterator@GU?$_Nonconst_traits@G@_STL@@@2@XZ ENDP ; _STL::list<unsigned short,_STL::allocator<unsigned short> >::end
_TEXT	ENDS
PUBLIC	?deallocate@?$allocator@U?$_List_node@G@_STL@@@_STL@@QAEXPAU?$_List_node@G@2@I@Z ; _STL::allocator<_STL::_List_node<unsigned short> >::deallocate
; Function compile flags: /Ogsy
; File c:\stlport-4.6.1\stlport\stl\_alloc.h
;	COMDAT ?deallocate@?$allocator@U?$_List_node@G@_STL@@@_STL@@QAEXPAU?$_List_node@G@2@I@Z
_TEXT	SEGMENT
___p$ = 8						; size = 4
___n$ = 12						; size = 4
?deallocate@?$allocator@U?$_List_node@G@_STL@@@_STL@@QAEXPAU?$_List_node@G@2@I@Z PROC NEAR ; _STL::allocator<_STL::_List_node<unsigned short> >::deallocate, COMDAT
; _this$ = ecx

; 359  :     _STLP_ASSERT( (__p == 0) == (__n == 0) )
; 360  :       if (__p != 0) __sgi_alloc::deallocate((void*)__p, __n * sizeof(value_type));

  00000	83 7c 24 04 00	 cmp	 DWORD PTR ___p$[esp-4], 0
  00005	74 16		 je	 SHORT $L113539
  00007	8b 44 24 08	 mov	 eax, DWORD PTR ___n$[esp-4]
  0000b	8d 04 40	 lea	 eax, DWORD PTR [eax+eax*2]
  0000e	c1 e0 02	 shl	 eax, 2
  00011	50		 push	 eax
  00012	ff 74 24 08	 push	 DWORD PTR ___p$[esp]
  00016	e8 00 00 00 00	 call	 ?deallocate@?$__node_alloc@$00$0A@@_STL@@SAXPAXI@Z ; _STL::__node_alloc<1,0>::deallocate
  0001b	59		 pop	 ecx
  0001c	59		 pop	 ecx
$L113539:

; 361  :   }

  0001d	c2 08 00	 ret	 8
?deallocate@?$allocator@U?$_List_node@G@_STL@@@_STL@@QAEXPAU?$_List_node@G@2@I@Z ENDP ; _STL::allocator<_STL::_List_node<unsigned short> >::deallocate
_TEXT	ENDS
PUBLIC	??1?$_STLP_alloc_proxy@PAU?$_List_node@G@_STL@@U12@V?$allocator@U?$_List_node@G@_STL@@@2@@_STL@@QAE@XZ ; _STL::_STLP_alloc_proxy<_STL::_List_node<unsigned short> *,_STL::_List_node<unsigned short>,_STL::allocator<_STL::_List_node<unsigned short> > >::~_STLP_alloc_proxy<_STL::_List_node<unsigned short> *,_STL::_List_node<unsigned short>,_STL::allocator<_STL::_List_node<unsigned short> > >
; Function compile flags: /Ogsy
;	COMDAT ??1?$_STLP_alloc_proxy@PAU?$_List_node@G@_STL@@U12@V?$allocator@U?$_List_node@G@_STL@@@2@@_STL@@QAE@XZ
_TEXT	SEGMENT
??1?$_STLP_alloc_proxy@PAU?$_List_node@G@_STL@@U12@V?$allocator@U?$_List_node@G@_STL@@@2@@_STL@@QAE@XZ PROC NEAR ; _STL::_STLP_alloc_proxy<_STL::_List_node<unsigned short> *,_STL::_List_node<unsigned short>,_STL::allocator<_STL::_List_node<unsigned short> > >::~_STLP_alloc_proxy<_STL::_List_node<unsigned short> *,_STL::_List_node<unsigned short>,_STL::allocator<_STL::_List_node<unsigned short> > >, COMDAT
; _this$ = ecx
  00000	c3		 ret	 0
??1?$_STLP_alloc_proxy@PAU?$_List_node@G@_STL@@U12@V?$allocator@U?$_List_node@G@_STL@@@2@@_STL@@QAE@XZ ENDP ; _STL::_STLP_alloc_proxy<_STL::_List_node<unsigned short> *,_STL::_List_node<unsigned short>,_STL::allocator<_STL::_List_node<unsigned short> > >::~_STLP_alloc_proxy<_STL::_List_node<unsigned short> *,_STL::_List_node<unsigned short>,_STL::allocator<_STL::_List_node<unsigned short> > >
_TEXT	ENDS
PUBLIC	??1?$_STLP_alloc_proxy@PAU?$_Rb_tree_node@U?$pair@$$CBGPAVivfstream@@@_STL@@@_STL@@U12@V?$allocator@U?$_Rb_tree_node@U?$pair@$$CBGPAVivfstream@@@_STL@@@_STL@@@2@@_STL@@QAE@XZ ; _STL::_STLP_alloc_proxy<_STL::_Rb_tree_node<_STL::pair<unsigned short const ,ivfstream *> > *,_STL::_Rb_tree_node<_STL::pair<unsigned short const ,ivfstream *> >,_STL::allocator<_STL::_Rb_tree_node<_STL::pair<unsigned short const ,ivfstream *> > > >::~_STLP_alloc_proxy<_STL::_Rb_tree_node<_STL::pair<unsigned short const ,ivfstream *> > *,_STL::_Rb_tree_node<_STL::pair<unsigned short const ,ivfstream *> >,_STL::allocator<_STL::_Rb_tree_node<_STL::pair<unsigned short const ,ivfstream *> > > >
; Function compile flags: /Ogsy
;	COMDAT ??1?$_STLP_alloc_proxy@PAU?$_Rb_tree_node@U?$pair@$$CBGPAVivfstream@@@_STL@@@_STL@@U12@V?$allocator@U?$_Rb_tree_node@U?$pair@$$CBGPAVivfstream@@@_STL@@@_STL@@@2@@_STL@@QAE@XZ
_TEXT	SEGMENT
??1?$_STLP_alloc_proxy@PAU?$_Rb_tree_node@U?$pair@$$CBGPAVivfstream@@@_STL@@@_STL@@U12@V?$allocator@U?$_Rb_tree_node@U?$pair@$$CBGPAVivfstream@@@_STL@@@_STL@@@2@@_STL@@QAE@XZ PROC NEAR ; _STL::_STLP_alloc_proxy<_STL::_Rb_tree_node<_STL::pair<unsigned short const ,ivfstream *> > *,_STL::_Rb_tree_node<_STL::pair<unsigned short const ,ivfstream *> >,_STL::allocator<_STL::_Rb_tree_node<_STL::pair<unsigned short const ,ivfstream *> > > >::~_STLP_alloc_proxy<_STL::_Rb_tree_node<_STL::pair<unsigned short const ,ivfstream *> > *,_STL::_Rb_tree_node<_STL::pair<unsigned short const ,ivfstream *> >,_STL::allocator<_STL::_Rb_tree_node<_STL::pair<unsigned short const ,ivfstream *> > > >, COMDAT
; _this$ = ecx
  00000	c3		 ret	 0
??1?$_STLP_alloc_proxy@PAU?$_Rb_tree_node@U?$pair@$$CBGPAVivfstream@@@_STL@@@_STL@@U12@V?$allocator@U?$_Rb_tree_node@U?$pair@$$CBGPAVivfstream@@@_STL@@@_STL@@@2@@_STL@@QAE@XZ ENDP ; _STL::_STLP_alloc_proxy<_STL::_Rb_tree_node<_STL::pair<unsigned short const ,ivfstream *> > *,_STL::_Rb_tree_node<_STL::pair<unsigned short const ,ivfstream *> >,_STL::allocator<_STL::_Rb_tree_node<_STL::pair<unsigned short const ,ivfstream *> > > >::~_STLP_alloc_proxy<_STL::_Rb_tree_node<_STL::pair<unsigned short const ,ivfstream *> > *,_STL::_Rb_tree_node<_STL::pair<unsigned short const ,ivfstream *> >,_STL::allocator<_STL::_Rb_tree_node<_STL::pair<unsigned short const ,ivfstream *> > > >
_TEXT	ENDS
PUBLIC	?_M_construct_null@?$basic_string@DV?$char_traits@D@_STL@@V?$allocator@D@2@@_STL@@AAEXPAD@Z ; _STL::basic_string<char,_STL::char_traits<char>,_STL::allocator<char> >::_M_construct_null
; Function compile flags: /Ogsy
; File c:\stlport-4.6.1\stlport\stl\_string.h
;	COMDAT ?_M_construct_null@?$basic_string@DV?$char_traits@D@_STL@@V?$allocator@D@2@@_STL@@AAEXPAD@Z
_TEXT	SEGMENT
___p$ = 8						; size = 4
?_M_construct_null@?$basic_string@DV?$char_traits@D@_STL@@V?$allocator@D@2@@_STL@@AAEXPAD@Z PROC NEAR ; _STL::basic_string<char,_STL::char_traits<char>,_STL::allocator<char> >::_M_construct_null, COMDAT
; _this$ = ecx

; 336  :     _M_construct_null_aux(__p, _Char_Is_Integral());

  00000	8b 44 24 04	 mov	 eax, DWORD PTR ___p$[esp-4]
  00004	c6 00 00	 mov	 BYTE PTR [eax], 0

; 337  :   }

  00007	c2 04 00	 ret	 4
?_M_construct_null@?$basic_string@DV?$char_traits@D@_STL@@V?$allocator@D@2@@_STL@@AAEXPAD@Z ENDP ; _STL::basic_string<char,_STL::char_traits<char>,_STL::allocator<char> >::_M_construct_null
_TEXT	ENDS
PUBLIC	?end@?$list@GV?$allocator@G@_STL@@@_STL@@QBE?AU?$_List_iterator@GU?$_Const_traits@G@_STL@@@2@XZ ; _STL::list<unsigned short,_STL::allocator<unsigned short> >::end
; Function compile flags: /Ogsy
; File c:\stlport-4.6.1\stlport\stl\_list.h
;	COMDAT ?end@?$list@GV?$allocator@G@_STL@@@_STL@@QBE?AU?$_List_iterator@GU?$_Const_traits@G@_STL@@@2@XZ
_TEXT	SEGMENT
___$ReturnUdt$ = 8					; size = 4
?end@?$list@GV?$allocator@G@_STL@@@_STL@@QBE?AU?$_List_iterator@GU?$_Const_traits@G@_STL@@@2@XZ PROC NEAR ; _STL::list<unsigned short,_STL::allocator<unsigned short> >::end, COMDAT
; _this$ = ecx

; 270  :   const_iterator end() const { return this->_M_node._M_data; }

  00000	8b 09		 mov	 ecx, DWORD PTR [ecx]
  00002	8b 44 24 04	 mov	 eax, DWORD PTR ___$ReturnUdt$[esp-4]
  00006	89 08		 mov	 DWORD PTR [eax], ecx
  00008	c2 04 00	 ret	 4
?end@?$list@GV?$allocator@G@_STL@@@_STL@@QBE?AU?$_List_iterator@GU?$_Const_traits@G@_STL@@@2@XZ ENDP ; _STL::list<unsigned short,_STL::allocator<unsigned short> >::end
_TEXT	ENDS
PUBLIC	??0?$_STLP_alloc_proxy@PAU?$_List_node@G@_STL@@U12@V?$allocator@U?$_List_node@G@_STL@@@2@@_STL@@QAE@ABV?$allocator@U?$_List_node@G@_STL@@@1@PAU?$_List_node@G@1@@Z ; _STL::_STLP_alloc_proxy<_STL::_List_node<unsigned short> *,_STL::_List_node<unsigned short>,_STL::allocator<_STL::_List_node<unsigned short> > >::_STLP_alloc_proxy<_STL::_List_node<unsigned short> *,_STL::_List_node<unsigned short>,_STL::allocator<_STL::_List_node<unsigned short> > >
; Function compile flags: /Ogsy
; File c:\stlport-4.6.1\stlport\stl\_alloc.h
;	COMDAT ??0?$_STLP_alloc_proxy@PAU?$_List_node@G@_STL@@U12@V?$allocator@U?$_List_node@G@_STL@@@2@@_STL@@QAE@ABV?$allocator@U?$_List_node@G@_STL@@@1@PAU?$_List_node@G@1@@Z
_TEXT	SEGMENT
___a$ = 8						; size = 4
___p$ = 12						; size = 4
??0?$_STLP_alloc_proxy@PAU?$_List_node@G@_STL@@U12@V?$allocator@U?$_List_node@G@_STL@@@2@@_STL@@QAE@ABV?$allocator@U?$_List_node@G@_STL@@@1@PAU?$_List_node@G@1@@Z PROC NEAR ; _STL::_STLP_alloc_proxy<_STL::_List_node<unsigned short> *,_STL::_List_node<unsigned short>,_STL::allocator<_STL::_List_node<unsigned short> > >::_STLP_alloc_proxy<_STL::_List_node<unsigned short> *,_STL::_List_node<unsigned short>,_STL::allocator<_STL::_List_node<unsigned short> > >, COMDAT
; _this$ = ecx

; 487  :   inline _STLP_alloc_proxy(const _MaybeReboundAlloc& __a, _Value __p) : _MaybeReboundAlloc(__a), _M_data(__p) {}

  00000	8b c1		 mov	 eax, ecx
  00002	8b 4c 24 08	 mov	 ecx, DWORD PTR ___p$[esp-4]
  00006	89 08		 mov	 DWORD PTR [eax], ecx
  00008	c2 08 00	 ret	 8
??0?$_STLP_alloc_proxy@PAU?$_List_node@G@_STL@@U12@V?$allocator@U?$_List_node@G@_STL@@@2@@_STL@@QAE@ABV?$allocator@U?$_List_node@G@_STL@@@1@PAU?$_List_node@G@1@@Z ENDP ; _STL::_STLP_alloc_proxy<_STL::_List_node<unsigned short> *,_STL::_List_node<unsigned short>,_STL::allocator<_STL::_List_node<unsigned short> > >::_STLP_alloc_proxy<_STL::_List_node<unsigned short> *,_STL::_List_node<unsigned short>,_STL::allocator<_STL::_List_node<unsigned short> > >
_TEXT	ENDS
PUBLIC	?allocate@?$allocator@U?$_List_node@G@_STL@@@_STL@@QAEPAU?$_List_node@G@2@IPBX@Z ; _STL::allocator<_STL::_List_node<unsigned short> >::allocate
; Function compile flags: /Ogsy
;	COMDAT ?allocate@?$allocator@U?$_List_node@G@_STL@@@_STL@@QAEPAU?$_List_node@G@2@IPBX@Z
_TEXT	SEGMENT
___n$ = 8						; size = 4
___formal$ = 12						; size = 4
?allocate@?$allocator@U?$_List_node@G@_STL@@@_STL@@QAEPAU?$_List_node@G@2@IPBX@Z PROC NEAR ; _STL::allocator<_STL::_List_node<unsigned short> >::allocate, COMDAT
; _this$ = ecx

; 355  :     return __n != 0 ? __REINTERPRET_CAST(value_type*,__sgi_alloc::allocate(__n * sizeof(value_type))) : 0;

  00000	8b 44 24 04	 mov	 eax, DWORD PTR ___n$[esp-4]
  00004	85 c0		 test	 eax, eax
  00006	74 0f		 je	 SHORT $L115830
  00008	8d 04 40	 lea	 eax, DWORD PTR [eax+eax*2]
  0000b	c1 e0 02	 shl	 eax, 2
  0000e	50		 push	 eax
  0000f	e8 00 00 00 00	 call	 ?allocate@?$__node_alloc@$00$0A@@_STL@@SAPAXI@Z ; _STL::__node_alloc<1,0>::allocate
  00014	59		 pop	 ecx
  00015	eb 02		 jmp	 SHORT $L115831
$L115830:
  00017	33 c0		 xor	 eax, eax
$L115831:

; 356  :   }

  00019	c2 08 00	 ret	 8
?allocate@?$allocator@U?$_List_node@G@_STL@@@_STL@@QAEPAU?$_List_node@G@2@IPBX@Z ENDP ; _STL::allocator<_STL::_List_node<unsigned short> >::allocate
_TEXT	ENDS
PUBLIC	?_M_empty_initialize@?$_Rb_tree@GU?$pair@$$CBGPAVivfstream@@@_STL@@U?$_Select1st@U?$pair@$$CBGPAVivfstream@@@_STL@@@2@U?$less@G@2@V?$allocator@U?$pair@$$CBGPAVivfstream@@@_STL@@@2@@_STL@@AAEXXZ ; _STL::_Rb_tree<unsigned short,_STL::pair<unsigned short const ,ivfstream *>,_STL::_Select1st<_STL::pair<unsigned short const ,ivfstream *> >,_STL::less<unsigned short>,_STL::allocator<_STL::pair<unsigned short const ,ivfstream *> > >::_M_empty_initialize
; Function compile flags: /Ogsy
; File c:\stlport-4.6.1\stlport\stl\_tree.h
;	COMDAT ?_M_empty_initialize@?$_Rb_tree@GU?$pair@$$CBGPAVivfstream@@@_STL@@U?$_Select1st@U?$pair@$$CBGPAVivfstream@@@_STL@@@2@U?$less@G@2@V?$allocator@U?$pair@$$CBGPAVivfstream@@@_STL@@@2@@_STL@@AAEXXZ
_TEXT	SEGMENT
?_M_empty_initialize@?$_Rb_tree@GU?$pair@$$CBGPAVivfstream@@@_STL@@U?$_Select1st@U?$pair@$$CBGPAVivfstream@@@_STL@@@2@U?$less@G@2@V?$allocator@U?$pair@$$CBGPAVivfstream@@@_STL@@@2@@_STL@@AAEXXZ PROC NEAR ; _STL::_Rb_tree<unsigned short,_STL::pair<unsigned short const ,ivfstream *>,_STL::_Select1st<_STL::pair<unsigned short const ,ivfstream *> >,_STL::less<unsigned short>,_STL::allocator<_STL::pair<unsigned short const ,ivfstream *> > >::_M_empty_initialize, COMDAT
; _this$ = ecx

; 346  :     _S_color(this->_M_header._M_data) = _S_rb_tree_red; // used to distinguish header from 

  00000	8b 01		 mov	 eax, DWORD PTR [ecx]
  00002	c6 00 00	 mov	 BYTE PTR [eax], 0

; 347  :                                           // __root, in iterator.operator++
; 348  :     _M_root() = 0;

  00005	8b 01		 mov	 eax, DWORD PTR [ecx]
  00007	83 60 04 00	 and	 DWORD PTR [eax+4], 0

; 349  :     _M_leftmost() = this->_M_header._M_data;

  0000b	8b 01		 mov	 eax, DWORD PTR [ecx]
  0000d	89 40 08	 mov	 DWORD PTR [eax+8], eax

; 350  :     _M_rightmost() = this->_M_header._M_data;

  00010	8b 09		 mov	 ecx, DWORD PTR [ecx]
  00012	89 49 0c	 mov	 DWORD PTR [ecx+12], ecx

; 351  :   }

  00015	c3		 ret	 0
?_M_empty_initialize@?$_Rb_tree@GU?$pair@$$CBGPAVivfstream@@@_STL@@U?$_Select1st@U?$pair@$$CBGPAVivfstream@@@_STL@@@2@U?$less@G@2@V?$allocator@U?$pair@$$CBGPAVivfstream@@@_STL@@@2@@_STL@@AAEXXZ ENDP ; _STL::_Rb_tree<unsigned short,_STL::pair<unsigned short const ,ivfstream *>,_STL::_Select1st<_STL::pair<unsigned short const ,ivfstream *> >,_STL::less<unsigned short>,_STL::allocator<_STL::pair<unsigned short const ,ivfstream *> > >::_M_empty_initialize
_TEXT	ENDS
PUBLIC	?deallocate@?$allocator@U?$_Rb_tree_node@U?$pair@$$CBGPAVivfstream@@@_STL@@@_STL@@@_STL@@QAEXPAU?$_Rb_tree_node@U?$pair@$$CBGPAVivfstream@@@_STL@@@2@I@Z ; _STL::allocator<_STL::_Rb_tree_node<_STL::pair<unsigned short const ,ivfstream *> > >::deallocate
; Function compile flags: /Ogsy
; File c:\stlport-4.6.1\stlport\stl\_alloc.h
;	COMDAT ?deallocate@?$allocator@U?$_Rb_tree_node@U?$pair@$$CBGPAVivfstream@@@_STL@@@_STL@@@_STL@@QAEXPAU?$_Rb_tree_node@U?$pair@$$CBGPAVivfstream@@@_STL@@@2@I@Z
_TEXT	SEGMENT
___p$ = 8						; size = 4
___n$ = 12						; size = 4
?deallocate@?$allocator@U?$_Rb_tree_node@U?$pair@$$CBGPAVivfstream@@@_STL@@@_STL@@@_STL@@QAEXPAU?$_Rb_tree_node@U?$pair@$$CBGPAVivfstream@@@_STL@@@2@I@Z PROC NEAR ; _STL::allocator<_STL::_Rb_tree_node<_STL::pair<unsigned short const ,ivfstream *> > >::deallocate, COMDAT
; _this$ = ecx

; 359  :     _STLP_ASSERT( (__p == 0) == (__n == 0) )
; 360  :       if (__p != 0) __sgi_alloc::deallocate((void*)__p, __n * sizeof(value_type));

  00000	83 7c 24 04 00	 cmp	 DWORD PTR ___p$[esp-4], 0
  00005	74 16		 je	 SHORT $L113681
  00007	8b 44 24 08	 mov	 eax, DWORD PTR ___n$[esp-4]
  0000b	8d 04 40	 lea	 eax, DWORD PTR [eax+eax*2]
  0000e	c1 e0 03	 shl	 eax, 3
  00011	50		 push	 eax
  00012	ff 74 24 08	 push	 DWORD PTR ___p$[esp]
  00016	e8 00 00 00 00	 call	 ?deallocate@?$__node_alloc@$00$0A@@_STL@@SAXPAXI@Z ; _STL::__node_alloc<1,0>::deallocate
  0001b	59		 pop	 ecx
  0001c	59		 pop	 ecx
$L113681:

; 361  :   }

  0001d	c2 08 00	 ret	 8
?deallocate@?$allocator@U?$_Rb_tree_node@U?$pair@$$CBGPAVivfstream@@@_STL@@@_STL@@@_STL@@QAEXPAU?$_Rb_tree_node@U?$pair@$$CBGPAVivfstream@@@_STL@@@2@I@Z ENDP ; _STL::allocator<_STL::_Rb_tree_node<_STL::pair<unsigned short const ,ivfstream *> > >::deallocate
_TEXT	ENDS
PUBLIC	??0?$_STLP_alloc_proxy@PAU?$_Rb_tree_node@U?$pair@$$CBGPAVivfstream@@@_STL@@@_STL@@U12@V?$allocator@U?$_Rb_tree_node@U?$pair@$$CBGPAVivfstream@@@_STL@@@_STL@@@2@@_STL@@QAE@ABV?$allocator@U?$_Rb_tree_node@U?$pair@$$CBGPAVivfstream@@@_STL@@@_STL@@@1@PAU?$_Rb_tree_node@U?$pair@$$CBGPAVivfstream@@@_STL@@@1@@Z ; _STL::_STLP_alloc_proxy<_STL::_Rb_tree_node<_STL::pair<unsigned short const ,ivfstream *> > *,_STL::_Rb_tree_node<_STL::pair<unsigned short const ,ivfstream *> >,_STL::allocator<_STL::_Rb_tree_node<_STL::pair<unsigned short const ,ivfstream *> > > >::_STLP_alloc_proxy<_STL::_Rb_tree_node<_STL::pair<unsigned short const ,ivfstream *> > *,_STL::_Rb_tree_node<_STL::pair<unsigned short const ,ivfstream *> >,_STL::allocator<_STL::_Rb_tree_node<_STL::pair<unsigned short const ,ivfstream *> > > >
; Function compile flags: /Ogsy
;	COMDAT ??0?$_STLP_alloc_proxy@PAU?$_Rb_tree_node@U?$pair@$$CBGPAVivfstream@@@_STL@@@_STL@@U12@V?$allocator@U?$_Rb_tree_node@U?$pair@$$CBGPAVivfstream@@@_STL@@@_STL@@@2@@_STL@@QAE@ABV?$allocator@U?$_Rb_tree_node@U?$pair@$$CBGPAVivfstream@@@_STL@@@_STL@@@1@PAU?$_Rb_tree_node@U?$pair@$$CBGPAVivfstream@@@_STL@@@1@@Z
_TEXT	SEGMENT
___a$ = 8						; size = 4
___p$ = 12						; size = 4
??0?$_STLP_alloc_proxy@PAU?$_Rb_tree_node@U?$pair@$$CBGPAVivfstream@@@_STL@@@_STL@@U12@V?$allocator@U?$_Rb_tree_node@U?$pair@$$CBGPAVivfstream@@@_STL@@@_STL@@@2@@_STL@@QAE@ABV?$allocator@U?$_Rb_tree_node@U?$pair@$$CBGPAVivfstream@@@_STL@@@_STL@@@1@PAU?$_Rb_tree_node@U?$pair@$$CBGPAVivfstream@@@_STL@@@1@@Z PROC NEAR ; _STL::_STLP_alloc_proxy<_STL::_Rb_tree_node<_STL::pair<unsigned short const ,ivfstream *> > *,_STL::_Rb_tree_node<_STL::pair<unsigned short const ,ivfstream *> >,_STL::allocator<_STL::_Rb_tree_node<_STL::pair<unsigned short const ,ivfstream *> > > >::_STLP_alloc_proxy<_STL::_Rb_tree_node<_STL::pair<unsigned short const ,ivfstream *> > *,_STL::_Rb_tree_node<_STL::pair<unsigned short const ,ivfstream *> >,_STL::allocator<_STL::_Rb_tree_node<_STL::pair<unsigned short const ,ivfstream *> > > >, COMDAT
; _this$ = ecx

; 487  :   inline _STLP_alloc_proxy(const _MaybeReboundAlloc& __a, _Value __p) : _MaybeReboundAlloc(__a), _M_data(__p) {}

  00000	8b c1		 mov	 eax, ecx
  00002	8b 4c 24 08	 mov	 ecx, DWORD PTR ___p$[esp-4]
  00006	89 08		 mov	 DWORD PTR [eax], ecx
  00008	c2 08 00	 ret	 8
??0?$_STLP_alloc_proxy@PAU?$_Rb_tree_node@U?$pair@$$CBGPAVivfstream@@@_STL@@@_STL@@U12@V?$allocator@U?$_Rb_tree_node@U?$pair@$$CBGPAVivfstream@@@_STL@@@_STL@@@2@@_STL@@QAE@ABV?$allocator@U?$_Rb_tree_node@U?$pair@$$CBGPAVivfstream@@@_STL@@@_STL@@@1@PAU?$_Rb_tree_node@U?$pair@$$CBGPAVivfstream@@@_STL@@@1@@Z ENDP ; _STL::_STLP_alloc_proxy<_STL::_Rb_tree_node<_STL::pair<unsigned short const ,ivfstream *> > *,_STL::_Rb_tree_node<_STL::pair<unsigned short const ,ivfstream *> >,_STL::allocator<_STL::_Rb_tree_node<_STL::pair<unsigned short const ,ivfstream *> > > >::_STLP_alloc_proxy<_STL::_Rb_tree_node<_STL::pair<unsigned short const ,ivfstream *> > *,_STL::_Rb_tree_node<_STL::pair<unsigned short const ,ivfstream *> >,_STL::allocator<_STL::_Rb_tree_node<_STL::pair<unsigned short const ,ivfstream *> > > >
_TEXT	ENDS
PUBLIC	?allocate@?$allocator@U?$_Rb_tree_node@U?$pair@$$CBGPAVivfstream@@@_STL@@@_STL@@@_STL@@QAEPAU?$_Rb_tree_node@U?$pair@$$CBGPAVivfstream@@@_STL@@@2@IPBX@Z ; _STL::allocator<_STL::_Rb_tree_node<_STL::pair<unsigned short const ,ivfstream *> > >::allocate
; Function compile flags: /Ogsy
;	COMDAT ?allocate@?$allocator@U?$_Rb_tree_node@U?$pair@$$CBGPAVivfstream@@@_STL@@@_STL@@@_STL@@QAEPAU?$_Rb_tree_node@U?$pair@$$CBGPAVivfstream@@@_STL@@@2@IPBX@Z
_TEXT	SEGMENT
___n$ = 8						; size = 4
___formal$ = 12						; size = 4
?allocate@?$allocator@U?$_Rb_tree_node@U?$pair@$$CBGPAVivfstream@@@_STL@@@_STL@@@_STL@@QAEPAU?$_Rb_tree_node@U?$pair@$$CBGPAVivfstream@@@_STL@@@2@IPBX@Z PROC NEAR ; _STL::allocator<_STL::_Rb_tree_node<_STL::pair<unsigned short const ,ivfstream *> > >::allocate, COMDAT
; _this$ = ecx

; 355  :     return __n != 0 ? __REINTERPRET_CAST(value_type*,__sgi_alloc::allocate(__n * sizeof(value_type))) : 0;

  00000	8b 44 24 04	 mov	 eax, DWORD PTR ___n$[esp-4]
  00004	85 c0		 test	 eax, eax
  00006	74 0f		 je	 SHORT $L115857
  00008	8d 04 40	 lea	 eax, DWORD PTR [eax+eax*2]
  0000b	c1 e0 03	 shl	 eax, 3
  0000e	50		 push	 eax
  0000f	e8 00 00 00 00	 call	 ?allocate@?$__node_alloc@$00$0A@@_STL@@SAPAXI@Z ; _STL::__node_alloc<1,0>::allocate
  00014	59		 pop	 ecx
  00015	eb 02		 jmp	 SHORT $L115858
$L115857:
  00017	33 c0		 xor	 eax, eax
$L115858:

; 356  :   }

  00019	c2 08 00	 ret	 8
?allocate@?$allocator@U?$_Rb_tree_node@U?$pair@$$CBGPAVivfstream@@@_STL@@@_STL@@@_STL@@QAEPAU?$_Rb_tree_node@U?$pair@$$CBGPAVivfstream@@@_STL@@@2@IPBX@Z ENDP ; _STL::allocator<_STL::_Rb_tree_node<_STL::pair<unsigned short const ,ivfstream *> > >::allocate
_TEXT	ENDS
PUBLIC	?_M_unshift@?$basic_filebuf@DV?$char_traits@D@_STL@@@_STL@@AAE_NXZ ; _STL::basic_filebuf<char,_STL::char_traits<char> >::_M_unshift
; Function compile flags: /Ogsy
; File c:\stlport-4.6.1\stlport\stl\_fstream.c
;	COMDAT ?_M_unshift@?$basic_filebuf@DV?$char_traits@D@_STL@@@_STL@@AAE_NXZ
_TEXT	SEGMENT
___enext$113778 = -4					; size = 4
?_M_unshift@?$basic_filebuf@DV?$char_traits@D@_STL@@@_STL@@AAE_NXZ PROC NEAR ; _STL::basic_filebuf<char,_STL::char_traits<char> >::_M_unshift, COMDAT
; _this$ = ecx

; 605  : {

  00000	55		 push	 ebp
  00001	8b ec		 mov	 ebp, esp
  00003	51		 push	 ecx
  00004	53		 push	 ebx
  00005	56		 push	 esi
  00006	8b f1		 mov	 esi, ecx

; 606  :   if (_M_in_output_mode && !_M_constant_width) {

  00008	80 7e 68 00	 cmp	 BYTE PTR [esi+104], 0
  0000c	57		 push	 edi
  0000d	74 57		 je	 SHORT $L113777
  0000f	80 7e 64 00	 cmp	 BYTE PTR [esi+100], 0
  00013	75 51		 jne	 SHORT $L113777
$L113775:

; 607  :     typename _Codecvt::result __status;
; 608  :     do {
; 609  :       char* __enext = _M_ext_buf;

  00015	8b 46 74	 mov	 eax, DWORD PTR [esi+116]

; 610  :       __status = _M_codecvt->unshift(_M_state,
; 611  :                                      _M_ext_buf, _M_ext_buf_EOS, __enext);

  00018	8b 56 78	 mov	 edx, DWORD PTR [esi+120]
  0001b	8b 8e a0 00 00
	00		 mov	 ecx, DWORD PTR [esi+160]
  00021	8d 5d fc	 lea	 ebx, DWORD PTR ___enext$113778[ebp]
  00024	53		 push	 ebx
  00025	52		 push	 edx
  00026	89 45 fc	 mov	 DWORD PTR ___enext$113778[ebp], eax
  00029	8b 39		 mov	 edi, DWORD PTR [ecx]
  0002b	50		 push	 eax
  0002c	8d 86 84 00 00
	00		 lea	 eax, DWORD PTR [esi+132]
  00032	50		 push	 eax
  00033	ff 57 0c	 call	 DWORD PTR [edi+12]
  00036	8b f8		 mov	 edi, eax

; 612  :       if (__status == _Codecvt::noconv ||
; 613  :           (__enext == _M_ext_buf && __status == _Codecvt::ok))

  00038	83 ff 03	 cmp	 edi, 3
  0003b	74 29		 je	 SHORT $L113777
  0003d	8b 45 fc	 mov	 eax, DWORD PTR ___enext$113778[ebp]
  00040	3b 46 74	 cmp	 eax, DWORD PTR [esi+116]
  00043	75 04		 jne	 SHORT $L113779
  00045	85 ff		 test	 edi, edi
  00047	74 1d		 je	 SHORT $L113777
$L113779:

; 614  :         return true;
; 615  :       else if (__status == _Codecvt::error)

  00049	83 ff 02	 cmp	 edi, 2
  0004c	74 1f		 je	 SHORT $L115877

; 616  :         return false;
; 617  :       else if (!_M_write(_M_ext_buf, __enext - _M_ext_buf))

  0004e	8b 4e 74	 mov	 ecx, DWORD PTR [esi+116]
  00051	2b c1		 sub	 eax, ecx
  00053	50		 push	 eax
  00054	51		 push	 ecx
  00055	8d 4e 54	 lea	 ecx, DWORD PTR [esi+84]
  00058	e8 00 00 00 00	 call	 ?_M_write@_Filebuf_base@_STL@@QAE_NPADH@Z ; _STL::_Filebuf_base::_M_write
  0005d	84 c0		 test	 al, al
  0005f	74 0c		 je	 SHORT $L115877

; 619  :     } while(__status == _Codecvt::partial);

  00061	83 ff 01	 cmp	 edi, 1
  00064	74 af		 je	 SHORT $L113775
$L113777:

; 620  :   }
; 621  : 
; 622  :   return true;

  00066	b0 01		 mov	 al, 1
$L113772:
  00068	5f		 pop	 edi
  00069	5e		 pop	 esi
  0006a	5b		 pop	 ebx

; 623  : }

  0006b	c9		 leave
  0006c	c3		 ret	 0
$L115877:

; 618  :         return false;

  0006d	32 c0		 xor	 al, al
  0006f	eb f7		 jmp	 SHORT $L113772
?_M_unshift@?$basic_filebuf@DV?$char_traits@D@_STL@@@_STL@@AAE_NXZ ENDP ; _STL::basic_filebuf<char,_STL::char_traits<char> >::_M_unshift
_TEXT	ENDS
PUBLIC	?clear@?$_List_base@GV?$allocator@G@_STL@@@_STL@@QAEXXZ ; _STL::_List_base<unsigned short,_STL::allocator<unsigned short> >::clear
; Function compile flags: /Ogsy
; File c:\stlport-4.6.1\stlport\stl\_list.c
;	COMDAT ?clear@?$_List_base@GV?$allocator@G@_STL@@@_STL@@QAEXXZ
_TEXT	SEGMENT
?clear@?$_List_base@GV?$allocator@G@_STL@@@_STL@@QAEXXZ PROC NEAR ; _STL::_List_base<unsigned short,_STL::allocator<unsigned short> >::clear, COMDAT
; _this$ = ecx

; 68   : {

  00000	56		 push	 esi
  00001	57		 push	 edi
  00002	8b f9		 mov	 edi, ecx

; 69   :   _List_node<_Tp>* __cur = (_List_node<_Tp>*) this->_M_node._M_data->_M_next;

  00004	8b 07		 mov	 eax, DWORD PTR [edi]
  00006	8b 30		 mov	 esi, DWORD PTR [eax]

; 70   :   while (__cur != this->_M_node._M_data) {

  00008	3b f0		 cmp	 esi, eax
  0000a	74 12		 je	 SHORT $L113930
$L113929:

; 71   :     _List_node<_Tp>* __tmp = __cur;

  0000c	8b c6		 mov	 eax, esi

; 72   :     __cur = (_List_node<_Tp>*) __cur->_M_next;

  0000e	8b 36		 mov	 esi, DWORD PTR [esi]

; 73   :     _STLP_STD::_Destroy(&__tmp->_M_data);
; 74   :     this->_M_node.deallocate(__tmp, 1);

  00010	6a 01		 push	 1
  00012	50		 push	 eax
  00013	8b cf		 mov	 ecx, edi
  00015	e8 00 00 00 00	 call	 ?deallocate@?$allocator@U?$_List_node@G@_STL@@@_STL@@QAEXPAU?$_List_node@G@2@I@Z ; _STL::allocator<_STL::_List_node<unsigned short> >::deallocate
  0001a	3b 37		 cmp	 esi, DWORD PTR [edi]
  0001c	75 ee		 jne	 SHORT $L113929
$L113930:

; 75   :   }
; 76   :   this->_M_node._M_data->_M_next = this->_M_node._M_data;

  0001e	8b 07		 mov	 eax, DWORD PTR [edi]
  00020	89 00		 mov	 DWORD PTR [eax], eax

; 77   :   this->_M_node._M_data->_M_prev = this->_M_node._M_data;

  00022	8b 3f		 mov	 edi, DWORD PTR [edi]
  00024	89 7f 04	 mov	 DWORD PTR [edi+4], edi
  00027	5f		 pop	 edi
  00028	5e		 pop	 esi

; 78   : }

  00029	c3		 ret	 0
?clear@?$_List_base@GV?$allocator@G@_STL@@@_STL@@QAEXXZ ENDP ; _STL::_List_base<unsigned short,_STL::allocator<unsigned short> >::clear
_TEXT	ENDS
PUBLIC	?_M_erase@?$_Rb_tree@GU?$pair@$$CBGPAVivfstream@@@_STL@@U?$_Select1st@U?$pair@$$CBGPAVivfstream@@@_STL@@@2@U?$less@G@2@V?$allocator@U?$pair@$$CBGPAVivfstream@@@_STL@@@2@@_STL@@AAEXPAU?$_Rb_tree_node@U?$pair@$$CBGPAVivfstream@@@_STL@@@2@@Z ; _STL::_Rb_tree<unsigned short,_STL::pair<unsigned short const ,ivfstream *>,_STL::_Select1st<_STL::pair<unsigned short const ,ivfstream *> >,_STL::less<unsigned short>,_STL::allocator<_STL::pair<unsigned short const ,ivfstream *> > >::_M_erase
; Function compile flags: /Ogsy
; File c:\stlport-4.6.1\stlport\stl\_tree.c
;	COMDAT ?_M_erase@?$_Rb_tree@GU?$pair@$$CBGPAVivfstream@@@_STL@@U?$_Select1st@U?$pair@$$CBGPAVivfstream@@@_STL@@@2@U?$less@G@2@V?$allocator@U?$pair@$$CBGPAVivfstream@@@_STL@@@2@@_STL@@AAEXPAU?$_Rb_tree_node@U?$pair@$$CBGPAVivfstream@@@_STL@@@2@@Z
_TEXT	SEGMENT
___x$ = 8						; size = 4
?_M_erase@?$_Rb_tree@GU?$pair@$$CBGPAVivfstream@@@_STL@@U?$_Select1st@U?$pair@$$CBGPAVivfstream@@@_STL@@@2@U?$less@G@2@V?$allocator@U?$pair@$$CBGPAVivfstream@@@_STL@@@2@@_STL@@AAEXPAU?$_Rb_tree_node@U?$pair@$$CBGPAVivfstream@@@_STL@@@2@@Z PROC NEAR ; _STL::_Rb_tree<unsigned short,_STL::pair<unsigned short const ,ivfstream *>,_STL::_Select1st<_STL::pair<unsigned short const ,ivfstream *> >,_STL::less<unsigned short>,_STL::allocator<_STL::pair<unsigned short const ,ivfstream *> > >::_M_erase, COMDAT
; _this$ = ecx

; 637  : {

  00000	53		 push	 ebx
  00001	56		 push	 esi

; 638  :                                 // erase without rebalancing
; 639  :   while (__x != 0) {

  00002	8b 74 24 0c	 mov	 esi, DWORD PTR ___x$[esp+4]
  00006	85 f6		 test	 esi, esi
  00008	8b d9		 mov	 ebx, ecx
  0000a	74 1f		 je	 SHORT $L114016
  0000c	57		 push	 edi
$L114015:

; 640  :     _M_erase(_S_right(__x));

  0000d	ff 76 0c	 push	 DWORD PTR [esi+12]
  00010	8b cb		 mov	 ecx, ebx
  00012	e8 00 00 00 00	 call	 ?_M_erase@?$_Rb_tree@GU?$pair@$$CBGPAVivfstream@@@_STL@@U?$_Select1st@U?$pair@$$CBGPAVivfstream@@@_STL@@@2@U?$less@G@2@V?$allocator@U?$pair@$$CBGPAVivfstream@@@_STL@@@2@@_STL@@AAEXPAU?$_Rb_tree_node@U?$pair@$$CBGPAVivfstream@@@_STL@@@2@@Z ; _STL::_Rb_tree<unsigned short,_STL::pair<unsigned short const ,ivfstream *>,_STL::_Select1st<_STL::pair<unsigned short const ,ivfstream *> >,_STL::less<unsigned short>,_STL::allocator<_STL::pair<unsigned short const ,ivfstream *> > >::_M_erase

; 641  :     _Link_type __y = _S_left(__x);

  00017	8b 7e 08	 mov	 edi, DWORD PTR [esi+8]

; 642  :     _STLP_STD::_Destroy(&__x->_M_value_field);
; 643  :     this->_M_header.deallocate(__x,1);

  0001a	6a 01		 push	 1
  0001c	56		 push	 esi
  0001d	8b cb		 mov	 ecx, ebx
  0001f	e8 00 00 00 00	 call	 ?deallocate@?$allocator@U?$_Rb_tree_node@U?$pair@$$CBGPAVivfstream@@@_STL@@@_STL@@@_STL@@QAEXPAU?$_Rb_tree_node@U?$pair@$$CBGPAVivfstream@@@_STL@@@2@I@Z ; _STL::allocator<_STL::_Rb_tree_node<_STL::pair<unsigned short const ,ivfstream *> > >::deallocate
  00024	85 ff		 test	 edi, edi

; 644  :     __x = __y;

  00026	8b f7		 mov	 esi, edi
  00028	75 e3		 jne	 SHORT $L114015
  0002a	5f		 pop	 edi
$L114016:
  0002b	5e		 pop	 esi
  0002c	5b		 pop	 ebx

; 645  :   }
; 646  : }

  0002d	c2 04 00	 ret	 4
?_M_erase@?$_Rb_tree@GU?$pair@$$CBGPAVivfstream@@@_STL@@U?$_Select1st@U?$pair@$$CBGPAVivfstream@@@_STL@@@2@U?$less@G@2@V?$allocator@U?$pair@$$CBGPAVivfstream@@@_STL@@@2@@_STL@@AAEXPAU?$_Rb_tree_node@U?$pair@$$CBGPAVivfstream@@@_STL@@@2@@Z ENDP ; _STL::_Rb_tree<unsigned short,_STL::pair<unsigned short const ,ivfstream *>,_STL::_Select1st<_STL::pair<unsigned short const ,ivfstream *> >,_STL::less<unsigned short>,_STL::allocator<_STL::pair<unsigned short const ,ivfstream *> > >::_M_erase
_TEXT	ENDS
PUBLIC	?max_size@?$basic_string@DV?$char_traits@D@_STL@@V?$allocator@D@2@@_STL@@QBEIXZ ; _STL::basic_string<char,_STL::char_traits<char>,_STL::allocator<char> >::max_size
; Function compile flags: /Ogsy
; File c:\stlport-4.6.1\stlport\stl\_string.h
;	COMDAT ?max_size@?$basic_string@DV?$char_traits@D@_STL@@V?$allocator@D@2@@_STL@@QBEIXZ
_TEXT	SEGMENT
?max_size@?$basic_string@DV?$char_traits@D@_STL@@V?$allocator@D@2@@_STL@@QBEIXZ PROC NEAR ; _STL::basic_string<char,_STL::char_traits<char>,_STL::allocator<char> >::max_size, COMDAT
; _this$ = ecx

; 434  :   size_t max_size() const { return _Base::max_size(); }

  00000	6a fe		 push	 -2			; fffffffeH
  00002	58		 pop	 eax
  00003	c3		 ret	 0
?max_size@?$basic_string@DV?$char_traits@D@_STL@@V?$allocator@D@2@@_STL@@QBEIXZ ENDP ; _STL::basic_string<char,_STL::char_traits<char>,_STL::allocator<char> >::max_size
_TEXT	ENDS
PUBLIC	?rbegin@?$list@GV?$allocator@G@_STL@@@_STL@@QBE?AV?$reverse_iterator@U?$_List_iterator@GU?$_Const_traits@G@_STL@@@_STL@@@2@XZ ; _STL::list<unsigned short,_STL::allocator<unsigned short> >::rbegin
; Function compile flags: /Ogsy
; File c:\stlport-4.6.1\stlport\stl\_list.h
;	COMDAT ?rbegin@?$list@GV?$allocator@G@_STL@@@_STL@@QBE?AV?$reverse_iterator@U?$_List_iterator@GU?$_Const_traits@G@_STL@@@_STL@@@2@XZ
_TEXT	SEGMENT
___$ReturnUdt$ = 8					; size = 4
?rbegin@?$list@GV?$allocator@G@_STL@@@_STL@@QBE?AV?$reverse_iterator@U?$_List_iterator@GU?$_Const_traits@G@_STL@@@_STL@@@2@XZ PROC NEAR ; _STL::list<unsigned short,_STL::allocator<unsigned short> >::rbegin, COMDAT
; _this$ = ecx

; 275  :     { return const_reverse_iterator(end()); }

  00000	8b 09		 mov	 ecx, DWORD PTR [ecx]
  00002	8b 44 24 04	 mov	 eax, DWORD PTR ___$ReturnUdt$[esp-4]
  00006	89 08		 mov	 DWORD PTR [eax], ecx
  00008	c2 04 00	 ret	 4
?rbegin@?$list@GV?$allocator@G@_STL@@@_STL@@QBE?AV?$reverse_iterator@U?$_List_iterator@GU?$_Const_traits@G@_STL@@@_STL@@@2@XZ ENDP ; _STL::list<unsigned short,_STL::allocator<unsigned short> >::rbegin
_TEXT	ENDS
PUBLIC	??D?$reverse_iterator@U?$_List_iterator@GU?$_Const_traits@G@_STL@@@_STL@@@_STL@@QBEABGXZ ; _STL::reverse_iterator<_STL::_List_iterator<unsigned short,_STL::_Const_traits<unsigned short> > >::operator*
; Function compile flags: /Ogsy
; File c:\stlport-4.6.1\stlport\stl\_iterator.h
;	COMDAT ??D?$reverse_iterator@U?$_List_iterator@GU?$_Const_traits@G@_STL@@@_STL@@@_STL@@QBEABGXZ
_TEXT	SEGMENT
??D?$reverse_iterator@U?$_List_iterator@GU?$_Const_traits@G@_STL@@@_STL@@@_STL@@QBEABGXZ PROC NEAR ; _STL::reverse_iterator<_STL::_List_iterator<unsigned short,_STL::_Const_traits<unsigned short> > >::operator*, COMDAT
; _this$ = ecx

; 78   :     _Iterator __tmp = current;
; 79   :     return *--__tmp;

  00000	8b 01		 mov	 eax, DWORD PTR [ecx]
  00002	8b 40 04	 mov	 eax, DWORD PTR [eax+4]
  00005	83 c0 08	 add	 eax, 8

; 80   :   }

  00008	c3		 ret	 0
??D?$reverse_iterator@U?$_List_iterator@GU?$_Const_traits@G@_STL@@@_STL@@@_STL@@QBEABGXZ ENDP ; _STL::reverse_iterator<_STL::_List_iterator<unsigned short,_STL::_Const_traits<unsigned short> > >::operator*
_TEXT	ENDS
PUBLIC	??$distance@PAD@_STL@@YAHABQAD0@Z		; _STL::distance<char *>
; Function compile flags: /Ogsy
; File c:\stlport-4.6.1\stlport\stl\_iterator_base.h
;	COMDAT ??$distance@PAD@_STL@@YAHABQAD0@Z
_TEXT	SEGMENT
___first$ = 8						; size = 4
___last$ = 12						; size = 4
??$distance@PAD@_STL@@YAHABQAD0@Z PROC NEAR		; _STL::distance<char *>, COMDAT

; 369  :   return __distance(__first, __last, _STLP_ITERATOR_CATEGORY(__first, _InputIterator));  

  00000	8b 44 24 08	 mov	 eax, DWORD PTR ___last$[esp-4]
  00004	8b 00		 mov	 eax, DWORD PTR [eax]
  00006	8b 4c 24 04	 mov	 ecx, DWORD PTR ___first$[esp-4]
  0000a	2b 01		 sub	 eax, DWORD PTR [ecx]

; 370  : }

  0000c	c3		 ret	 0
??$distance@PAD@_STL@@YAHABQAD0@Z ENDP			; _STL::distance<char *>
_TEXT	ENDS
PUBLIC	??$__copy_aux@PADPAD@_STL@@YAPADPAD00ABU__true_type@0@@Z ; _STL::__copy_aux<char *,char *>
; Function compile flags: /Ogsy
; File c:\stlport-4.6.1\stlport\stl\_algobase.h
;	COMDAT ??$__copy_aux@PADPAD@_STL@@YAPADPAD00ABU__true_type@0@@Z
_TEXT	SEGMENT
___first$ = 8						; size = 4
___last$ = 12						; size = 4
___result$ = 16						; size = 4
___formal$ = 20						; size = 4
??$__copy_aux@PADPAD@_STL@@YAPADPAD00ABU__true_type@0@@Z PROC NEAR ; _STL::__copy_aux<char *,char *>, COMDAT

; 202  :   return __copy_ptrs(__first, __last, __result, 
; 203  :                      _IsOKToMemCpy(_STLP_VALUE_TYPE(__first, _InputIter), 
; 204  :                                    _STLP_VALUE_TYPE(__result, _OutputIter))._Ret());

  00000	ff 74 24 0c	 push	 DWORD PTR ___result$[esp-4]
  00004	ff 74 24 0c	 push	 DWORD PTR ___last$[esp]
  00008	ff 74 24 0c	 push	 DWORD PTR ___first$[esp+4]
  0000c	e8 00 00 00 00	 call	 ?__copy_trivial@_STL@@YAPAXPBX0PAX@Z ; _STL::__copy_trivial
  00011	83 c4 0c	 add	 esp, 12			; 0000000cH

; 205  : }

  00014	c3		 ret	 0
??$__copy_aux@PADPAD@_STL@@YAPADPAD00ABU__true_type@0@@Z ENDP ; _STL::__copy_aux<char *,char *>
_TEXT	ENDS
PUBLIC	??_D?$basic_istream@DV?$char_traits@D@_STL@@@_STL@@QAEXXZ ; _STL::basic_istream<char,_STL::char_traits<char> >::`vbase destructor'
; Function compile flags: /Ogsy
;	COMDAT ??_G?$basic_istream@DV?$char_traits@D@_STL@@@_STL@@UAEPAXI@Z
_TEXT	SEGMENT
___flags$ = 8						; size = 4
??_G?$basic_istream@DV?$char_traits@D@_STL@@@_STL@@UAEPAXI@Z PROC NEAR ; _STL::basic_istream<char,_STL::char_traits<char> >::`scalar deleting destructor', COMDAT
; _this$ = ecx
  00000	56		 push	 esi
  00001	8d 71 f8	 lea	 esi, DWORD PTR [ecx-8]
  00004	8b ce		 mov	 ecx, esi
  00006	e8 00 00 00 00	 call	 ??_D?$basic_istream@DV?$char_traits@D@_STL@@@_STL@@QAEXXZ
  0000b	f6 44 24 08 01	 test	 BYTE PTR ___flags$[esp], 1
  00010	74 07		 je	 SHORT $L98545
  00012	56		 push	 esi
  00013	e8 00 00 00 00	 call	 ??3@YAXPAX@Z		; operator delete
  00018	59		 pop	 ecx
$L98545:
  00019	8b c6		 mov	 eax, esi
  0001b	5e		 pop	 esi
  0001c	c2 04 00	 ret	 4
??_G?$basic_istream@DV?$char_traits@D@_STL@@@_STL@@UAEPAXI@Z ENDP ; _STL::basic_istream<char,_STL::char_traits<char> >::`scalar deleting destructor'
; Function compile flags: /Ogsy
_TEXT	ENDS
;	COMDAT ??_D?$basic_istream@DV?$char_traits@D@_STL@@@_STL@@QAEXXZ
_TEXT	SEGMENT
??_D?$basic_istream@DV?$char_traits@D@_STL@@@_STL@@QAEXXZ PROC NEAR ; _STL::basic_istream<char,_STL::char_traits<char> >::`vbase destructor', COMDAT
; _this$ = ecx
  00000	8b 01		 mov	 eax, DWORD PTR [ecx]
  00002	8b 40 04	 mov	 eax, DWORD PTR [eax+4]
  00005	83 c1 08	 add	 ecx, 8
  00008	c7 44 08 f8 00
	00 00 00	 mov	 DWORD PTR [eax+ecx-8], OFFSET FLAT:??_7?$basic_istream@DV?$char_traits@D@_STL@@@_STL@@6B@
  00010	e9 00 00 00 00	 jmp	 ??1?$basic_ios@DV?$char_traits@D@_STL@@@_STL@@UAE@XZ ; _STL::basic_ios<char,_STL::char_traits<char> >::~basic_ios<char,_STL::char_traits<char> >
??_D?$basic_istream@DV?$char_traits@D@_STL@@@_STL@@QAEXXZ ENDP ; _STL::basic_istream<char,_STL::char_traits<char> >::`vbase destructor'
_TEXT	ENDS
PUBLIC	?deallocate@?$allocator@D@_STL@@QAEXPADI@Z	; _STL::allocator<char>::deallocate
; Function compile flags: /Ogsy
; File c:\stlport-4.6.1\stlport\stl\_alloc.h
;	COMDAT ?deallocate@?$allocator@D@_STL@@QAEXPADI@Z
_TEXT	SEGMENT
___p$ = 8						; size = 4
___n$ = 12						; size = 4
?deallocate@?$allocator@D@_STL@@QAEXPADI@Z PROC NEAR	; _STL::allocator<char>::deallocate, COMDAT
; _this$ = ecx

; 359  :     _STLP_ASSERT( (__p == 0) == (__n == 0) )
; 360  :       if (__p != 0) __sgi_alloc::deallocate((void*)__p, __n * sizeof(value_type));

  00000	83 7c 24 04 00	 cmp	 DWORD PTR ___p$[esp-4], 0
  00005	74 0f		 je	 SHORT $L98663
  00007	ff 74 24 08	 push	 DWORD PTR ___n$[esp-4]
  0000b	ff 74 24 08	 push	 DWORD PTR ___p$[esp]
  0000f	e8 00 00 00 00	 call	 ?deallocate@?$__node_alloc@$00$0A@@_STL@@SAXPAXI@Z ; _STL::__node_alloc<1,0>::deallocate
  00014	59		 pop	 ecx
  00015	59		 pop	 ecx
$L98663:

; 361  :   }

  00016	c2 08 00	 ret	 8
?deallocate@?$allocator@D@_STL@@QAEXPADI@Z ENDP		; _STL::allocator<char>::deallocate
_TEXT	ENDS
PUBLIC	??0?$_String_base@DV?$allocator@D@_STL@@@_STL@@QAE@ABV?$allocator@D@1@@Z ; _STL::_String_base<char,_STL::allocator<char> >::_String_base<char,_STL::allocator<char> >
; Function compile flags: /Ogsy
; File c:\stlport-4.6.1\stlport\stl\_string.h
;	COMDAT ??0?$_String_base@DV?$allocator@D@_STL@@@_STL@@QAE@ABV?$allocator@D@1@@Z
_TEXT	SEGMENT
___a$ = 8						; size = 4
??0?$_String_base@DV?$allocator@D@_STL@@@_STL@@QAE@ABV?$allocator@D@1@@Z PROC NEAR ; _STL::_String_base<char,_STL::allocator<char> >::_String_base<char,_STL::allocator<char> >, COMDAT
; _this$ = ecx

; 129  :     : _M_start(0), _M_finish(0), _M_end_of_storage(__a, (_Tp*)0) {}

  00000	56		 push	 esi
  00001	33 c0		 xor	 eax, eax
  00003	8b f1		 mov	 esi, ecx
  00005	50		 push	 eax
  00006	ff 74 24 0c	 push	 DWORD PTR ___a$[esp+4]
  0000a	8d 4e 08	 lea	 ecx, DWORD PTR [esi+8]
  0000d	89 06		 mov	 DWORD PTR [esi], eax
  0000f	89 46 04	 mov	 DWORD PTR [esi+4], eax
  00012	e8 00 00 00 00	 call	 ??0?$_STLP_alloc_proxy@PADDV?$allocator@D@_STL@@@_STL@@QAE@ABV?$allocator@D@1@PAD@Z ; _STL::_STLP_alloc_proxy<char *,char,_STL::allocator<char> >::_STLP_alloc_proxy<char *,char,_STL::allocator<char> >
  00017	8b c6		 mov	 eax, esi
  00019	5e		 pop	 esi
  0001a	c2 04 00	 ret	 4
??0?$_String_base@DV?$allocator@D@_STL@@@_STL@@QAE@ABV?$allocator@D@1@@Z ENDP ; _STL::_String_base<char,_STL::allocator<char> >::_String_base<char,_STL::allocator<char> >
_TEXT	ENDS
PUBLIC	?begin@?$list@PAVCSpriteSurface@@V?$allocator@PAVCSpriteSurface@@@_STL@@@_STL@@QAE?AU?$_List_iterator@PAVCSpriteSurface@@U?$_Nonconst_traits@PAVCSpriteSurface@@@_STL@@@2@XZ ; _STL::list<CSpriteSurface *,_STL::allocator<CSpriteSurface *> >::begin
; Function compile flags: /Ogsy
; File c:\stlport-4.6.1\stlport\stl\_list.h
;	COMDAT ?begin@?$list@PAVCSpriteSurface@@V?$allocator@PAVCSpriteSurface@@@_STL@@@_STL@@QAE?AU?$_List_iterator@PAVCSpriteSurface@@U?$_Nonconst_traits@PAVCSpriteSurface@@@_STL@@@2@XZ
_TEXT	SEGMENT
___$ReturnUdt$ = 8					; size = 4
?begin@?$list@PAVCSpriteSurface@@V?$allocator@PAVCSpriteSurface@@@_STL@@@_STL@@QAE?AU?$_List_iterator@PAVCSpriteSurface@@U?$_Nonconst_traits@PAVCSpriteSurface@@@_STL@@@2@XZ PROC NEAR ; _STL::list<CSpriteSurface *,_STL::allocator<CSpriteSurface *> >::begin, COMDAT
; _this$ = ecx

; 266  :   iterator begin()             { return iterator((_Node*)(this->_M_node._M_data->_M_next)); }

  00000	8b 01		 mov	 eax, DWORD PTR [ecx]
  00002	8b 08		 mov	 ecx, DWORD PTR [eax]
  00004	8b 44 24 04	 mov	 eax, DWORD PTR ___$ReturnUdt$[esp-4]
  00008	89 08		 mov	 DWORD PTR [eax], ecx
  0000a	c2 04 00	 ret	 4
?begin@?$list@PAVCSpriteSurface@@V?$allocator@PAVCSpriteSurface@@@_STL@@@_STL@@QAE?AU?$_List_iterator@PAVCSpriteSurface@@U?$_Nonconst_traits@PAVCSpriteSurface@@@_STL@@@2@XZ ENDP ; _STL::list<CSpriteSurface *,_STL::allocator<CSpriteSurface *> >::begin
_TEXT	ENDS
PUBLIC	?end@?$list@PAVCSpriteSurface@@V?$allocator@PAVCSpriteSurface@@@_STL@@@_STL@@QAE?AU?$_List_iterator@PAVCSpriteSurface@@U?$_Nonconst_traits@PAVCSpriteSurface@@@_STL@@@2@XZ ; _STL::list<CSpriteSurface *,_STL::allocator<CSpriteSurface *> >::end
; Function compile flags: /Ogsy
;	COMDAT ?end@?$list@PAVCSpriteSurface@@V?$allocator@PAVCSpriteSurface@@@_STL@@@_STL@@QAE?AU?$_List_iterator@PAVCSpriteSurface@@U?$_Nonconst_traits@PAVCSpriteSurface@@@_STL@@@2@XZ
_TEXT	SEGMENT
___$ReturnUdt$ = 8					; size = 4
?end@?$list@PAVCSpriteSurface@@V?$allocator@PAVCSpriteSurface@@@_STL@@@_STL@@QAE?AU?$_List_iterator@PAVCSpriteSurface@@U?$_Nonconst_traits@PAVCSpriteSurface@@@_STL@@@2@XZ PROC NEAR ; _STL::list<CSpriteSurface *,_STL::allocator<CSpriteSurface *> >::end, COMDAT
; _this$ = ecx

; 269  :   iterator end()             { return this->_M_node._M_data; }

  00000	8b 09		 mov	 ecx, DWORD PTR [ecx]
  00002	8b 44 24 04	 mov	 eax, DWORD PTR ___$ReturnUdt$[esp-4]
  00006	89 08		 mov	 DWORD PTR [eax], ecx
  00008	c2 04 00	 ret	 4
?end@?$list@PAVCSpriteSurface@@V?$allocator@PAVCSpriteSurface@@@_STL@@@_STL@@QAE?AU?$_List_iterator@PAVCSpriteSurface@@U?$_Nonconst_traits@PAVCSpriteSurface@@@_STL@@@2@XZ ENDP ; _STL::list<CSpriteSurface *,_STL::allocator<CSpriteSurface *> >::end
_TEXT	ENDS
PUBLIC	??E?$_List_iterator@PAVCSpriteSurface@@U?$_Nonconst_traits@PAVCSpriteSurface@@@_STL@@@_STL@@QAE?AU01@H@Z ; _STL::_List_iterator<CSpriteSurface *,_STL::_Nonconst_traits<CSpriteSurface *> >::operator++
; Function compile flags: /Ogsy
;	COMDAT ??E?$_List_iterator@PAVCSpriteSurface@@U?$_Nonconst_traits@PAVCSpriteSurface@@@_STL@@@_STL@@QAE?AU01@H@Z
_TEXT	SEGMENT
___$ReturnUdt$ = 8					; size = 4
___formal$ = 12						; size = 4
??E?$_List_iterator@PAVCSpriteSurface@@U?$_Nonconst_traits@PAVCSpriteSurface@@@_STL@@@_STL@@QAE?AU01@H@Z PROC NEAR ; _STL::_List_iterator<CSpriteSurface *,_STL::_Nonconst_traits<CSpriteSurface *> >::operator++, COMDAT
; _this$ = ecx

; 139  :     _Self __tmp = *this;

  00000	8b 11		 mov	 edx, DWORD PTR [ecx]

; 140  :     this->_M_incr();

  00002	8b 02		 mov	 eax, DWORD PTR [edx]
  00004	89 01		 mov	 DWORD PTR [ecx], eax

; 141  :     return __tmp;

  00006	8b 44 24 04	 mov	 eax, DWORD PTR ___$ReturnUdt$[esp-4]
  0000a	89 10		 mov	 DWORD PTR [eax], edx

; 142  :   }

  0000c	c2 08 00	 ret	 8
??E?$_List_iterator@PAVCSpriteSurface@@U?$_Nonconst_traits@PAVCSpriteSurface@@@_STL@@@_STL@@QAE?AU01@H@Z ENDP ; _STL::_List_iterator<CSpriteSurface *,_STL::_Nonconst_traits<CSpriteSurface *> >::operator++
_TEXT	ENDS
PUBLIC	??0?$_List_base@PAVCSpriteSurface@@V?$allocator@PAVCSpriteSurface@@@_STL@@@_STL@@QAE@ABV?$allocator@PAVCSpriteSurface@@@1@@Z ; _STL::_List_base<CSpriteSurface *,_STL::allocator<CSpriteSurface *> >::_List_base<CSpriteSurface *,_STL::allocator<CSpriteSurface *> >
; Function compile flags: /Ogsy
;	COMDAT ??0?$_List_base@PAVCSpriteSurface@@V?$allocator@PAVCSpriteSurface@@@_STL@@@_STL@@QAE@ABV?$allocator@PAVCSpriteSurface@@@1@@Z
_TEXT	SEGMENT
$T116040 = -1						; size = 1
___a$ = 8						; size = 4
??0?$_List_base@PAVCSpriteSurface@@V?$allocator@PAVCSpriteSurface@@@_STL@@@_STL@@QAE@ABV?$allocator@PAVCSpriteSurface@@@1@@Z PROC NEAR ; _STL::_List_base<CSpriteSurface *,_STL::allocator<CSpriteSurface *> >::_List_base<CSpriteSurface *,_STL::allocator<CSpriteSurface *> >, COMDAT
; _this$ = ecx

; 182  :   _List_base(const allocator_type& __a) : _M_node(_STLP_CONVERT_ALLOCATOR(__a, _Node), (_Node*)0) {

  00000	51		 push	 ecx
  00001	56		 push	 esi
  00002	6a 00		 push	 0
  00004	8d 44 24 0b	 lea	 eax, DWORD PTR $T116040[esp+12]
  00008	50		 push	 eax
  00009	8b f1		 mov	 esi, ecx
  0000b	e8 00 00 00 00	 call	 ??0?$_STLP_alloc_proxy@PAU?$_List_node@PAVCSpriteSurface@@@_STL@@U12@V?$allocator@U?$_List_node@PAVCSpriteSurface@@@_STL@@@2@@_STL@@QAE@ABV?$allocator@U?$_List_node@PAVCSpriteSurface@@@_STL@@@1@PAU?$_List_node@PAVCSpriteSurface@@@1@@Z ; _STL::_STLP_alloc_proxy<_STL::_List_node<CSpriteSurface *> *,_STL::_List_node<CSpriteSurface *>,_STL::allocator<_STL::_List_node<CSpriteSurface *> > >::_STLP_alloc_proxy<_STL::_List_node<CSpriteSurface *> *,_STL::_List_node<CSpriteSurface *>,_STL::allocator<_STL::_List_node<CSpriteSurface *> > >

; 183  :     _Node* __n = _M_node.allocate(1);

  00010	6a 0c		 push	 12			; 0000000cH
  00012	e8 00 00 00 00	 call	 ?allocate@?$__node_alloc@$00$0A@@_STL@@SAPAXI@Z ; _STL::__node_alloc<1,0>::allocate

; 184  :     __n->_M_next = __n;

  00017	89 00		 mov	 DWORD PTR [eax], eax

; 185  :     __n->_M_prev = __n;

  00019	89 40 04	 mov	 DWORD PTR [eax+4], eax

; 186  :     _M_node._M_data = __n;

  0001c	89 06		 mov	 DWORD PTR [esi], eax
  0001e	59		 pop	 ecx

; 187  :   }

  0001f	8b c6		 mov	 eax, esi
  00021	5e		 pop	 esi
  00022	59		 pop	 ecx
  00023	c2 04 00	 ret	 4
??0?$_List_base@PAVCSpriteSurface@@V?$allocator@PAVCSpriteSurface@@@_STL@@@_STL@@QAE@ABV?$allocator@PAVCSpriteSurface@@@1@@Z ENDP ; _STL::_List_base<CSpriteSurface *,_STL::allocator<CSpriteSurface *> >::_List_base<CSpriteSurface *,_STL::allocator<CSpriteSurface *> >
_TEXT	ENDS
PUBLIC	??1?$_List_base@PAVCSpriteSurface@@V?$allocator@PAVCSpriteSurface@@@_STL@@@_STL@@QAE@XZ ; _STL::_List_base<CSpriteSurface *,_STL::allocator<CSpriteSurface *> >::~_List_base<CSpriteSurface *,_STL::allocator<CSpriteSurface *> >
; Function compile flags: /Ogsy
;	COMDAT ??1?$_List_base@PAVCSpriteSurface@@V?$allocator@PAVCSpriteSurface@@@_STL@@@_STL@@QAE@XZ
_TEXT	SEGMENT
??1?$_List_base@PAVCSpriteSurface@@V?$allocator@PAVCSpriteSurface@@@_STL@@@_STL@@QAE@XZ PROC NEAR ; _STL::_List_base<CSpriteSurface *,_STL::allocator<CSpriteSurface *> >::~_List_base<CSpriteSurface *,_STL::allocator<CSpriteSurface *> >, COMDAT
; _this$ = ecx

; 188  :   ~_List_base() {

  00000	56		 push	 esi
  00001	8b f1		 mov	 esi, ecx

; 189  :     clear();

  00003	e8 00 00 00 00	 call	 ?clear@?$_List_base@PAVCSpriteSurface@@V?$allocator@PAVCSpriteSurface@@@_STL@@@_STL@@QAEXXZ ; _STL::_List_base<CSpriteSurface *,_STL::allocator<CSpriteSurface *> >::clear

; 190  :     _M_node.deallocate(_M_node._M_data, 1);

  00008	6a 01		 push	 1
  0000a	ff 36		 push	 DWORD PTR [esi]
  0000c	8b ce		 mov	 ecx, esi
  0000e	e8 00 00 00 00	 call	 ?deallocate@?$allocator@U?$_List_node@PAVCSpriteSurface@@@_STL@@@_STL@@QAEXPAU?$_List_node@PAVCSpriteSurface@@@2@I@Z ; _STL::allocator<_STL::_List_node<CSpriteSurface *> >::deallocate
  00013	5e		 pop	 esi

; 191  :   }

  00014	c3		 ret	 0
??1?$_List_base@PAVCSpriteSurface@@V?$allocator@PAVCSpriteSurface@@@_STL@@@_STL@@QAE@XZ ENDP ; _STL::_List_base<CSpriteSurface *,_STL::allocator<CSpriteSurface *> >::~_List_base<CSpriteSurface *,_STL::allocator<CSpriteSurface *> >
_TEXT	ENDS
PUBLIC	?_M_create_node@?$list@PAVCSpriteSurface@@V?$allocator@PAVCSpriteSurface@@@_STL@@@_STL@@IAEPAU?$_List_node@PAVCSpriteSurface@@@2@ABQAVCSpriteSurface@@@Z ; _STL::list<CSpriteSurface *,_STL::allocator<CSpriteSurface *> >::_M_create_node
EXTRN	__CxxThrowException@8:NEAR
; Function compile flags: /Ogsy
;	COMDAT ?_M_create_node@?$list@PAVCSpriteSurface@@V?$allocator@PAVCSpriteSurface@@@_STL@@@_STL@@IAEPAU?$_List_node@PAVCSpriteSurface@@@2@ABQAVCSpriteSurface@@@Z
_TEXT	SEGMENT
___x$ = 8						; size = 4
?_M_create_node@?$list@PAVCSpriteSurface@@V?$allocator@PAVCSpriteSurface@@@_STL@@@_STL@@IAEPAU?$_List_node@PAVCSpriteSurface@@@2@ABQAVCSpriteSurface@@@Z PROC NEAR ; _STL::list<CSpriteSurface *,_STL::allocator<CSpriteSurface *> >::_M_create_node, COMDAT
; _this$ = ecx

; 241  :     _Node* __p = this->_M_node.allocate(1);

  00000	6a 0c		 push	 12			; 0000000cH
  00002	e8 00 00 00 00	 call	 ?allocate@?$__node_alloc@$00$0A@@_STL@@SAPAXI@Z ; _STL::__node_alloc<1,0>::allocate
  00007	59		 pop	 ecx

; 242  :     _STLP_TRY {
; 243  :       _Construct(&__p->_M_data, __x);

  00008	8d 48 08	 lea	 ecx, DWORD PTR [eax+8]
  0000b	85 c9		 test	 ecx, ecx
  0000d	74 08		 je	 SHORT $L116076
  0000f	8b 54 24 04	 mov	 edx, DWORD PTR ___x$[esp-4]
  00013	8b 12		 mov	 edx, DWORD PTR [edx]
  00015	89 11		 mov	 DWORD PTR [ecx], edx
$L116076:

; 244  :     }
; 245  :     _STLP_UNWIND(this->_M_node.deallocate(__p, 1));
; 246  :     return __p;
; 247  :   }

  00017	c2 04 00	 ret	 4
?_M_create_node@?$list@PAVCSpriteSurface@@V?$allocator@PAVCSpriteSurface@@@_STL@@@_STL@@IAEPAU?$_List_node@PAVCSpriteSurface@@@2@ABQAVCSpriteSurface@@@Z ENDP ; _STL::list<CSpriteSurface *,_STL::allocator<CSpriteSurface *> >::_M_create_node
_TEXT	ENDS
PUBLIC	??0?$basic_filebuf@DV?$char_traits@D@_STL@@@_STL@@QAE@XZ ; _STL::basic_filebuf<char,_STL::char_traits<char> >::basic_filebuf<char,_STL::char_traits<char> >
PUBLIC	?showmanyc@?$basic_filebuf@DV?$char_traits@D@_STL@@@_STL@@MAEHXZ ; _STL::basic_filebuf<char,_STL::char_traits<char> >::showmanyc
PUBLIC	?underflow@?$basic_filebuf@DV?$char_traits@D@_STL@@@_STL@@MAEHXZ ; _STL::basic_filebuf<char,_STL::char_traits<char> >::underflow
PUBLIC	?pbackfail@?$basic_filebuf@DV?$char_traits@D@_STL@@@_STL@@MAEHH@Z ; _STL::basic_filebuf<char,_STL::char_traits<char> >::pbackfail
PUBLIC	?overflow@?$basic_filebuf@DV?$char_traits@D@_STL@@@_STL@@MAEHH@Z ; _STL::basic_filebuf<char,_STL::char_traits<char> >::overflow
PUBLIC	?setbuf@?$basic_filebuf@DV?$char_traits@D@_STL@@@_STL@@MAEPAV?$basic_streambuf@DV?$char_traits@D@_STL@@@2@PADH@Z ; _STL::basic_filebuf<char,_STL::char_traits<char> >::setbuf
PUBLIC	?seekoff@?$basic_filebuf@DV?$char_traits@D@_STL@@@_STL@@MAE?AV?$fpos@H@2@JHH@Z ; _STL::basic_filebuf<char,_STL::char_traits<char> >::seekoff
PUBLIC	?seekpos@?$basic_filebuf@DV?$char_traits@D@_STL@@@_STL@@MAE?AV?$fpos@H@2@V32@H@Z ; _STL::basic_filebuf<char,_STL::char_traits<char> >::seekpos
PUBLIC	?sync@?$basic_filebuf@DV?$char_traits@D@_STL@@@_STL@@MAEHXZ ; _STL::basic_filebuf<char,_STL::char_traits<char> >::sync
PUBLIC	?imbue@?$basic_filebuf@DV?$char_traits@D@_STL@@@_STL@@MAEXABVlocale@2@@Z ; _STL::basic_filebuf<char,_STL::char_traits<char> >::imbue
PUBLIC	??_7?$basic_filebuf@DV?$char_traits@D@_STL@@@_STL@@6B@ ; _STL::basic_filebuf<char,_STL::char_traits<char> >::`vftable'
PUBLIC	??_G?$basic_filebuf@DV?$char_traits@D@_STL@@@_STL@@UAEPAXI@Z ; _STL::basic_filebuf<char,_STL::char_traits<char> >::`scalar deleting destructor'
PUBLIC	??_R4?$basic_filebuf@DV?$char_traits@D@_STL@@@_STL@@6B@ ; _STL::basic_filebuf<char,_STL::char_traits<char> >::`RTTI Complete Object Locator'
PUBLIC	??_R0?AV?$basic_filebuf@DV?$char_traits@D@_STL@@@_STL@@@8 ; _STL::basic_filebuf<char,_STL::char_traits<char> > `RTTI Type Descriptor'
PUBLIC	??_R3?$basic_filebuf@DV?$char_traits@D@_STL@@@_STL@@8 ; _STL::basic_filebuf<char,_STL::char_traits<char> >::`RTTI Class Hierarchy Descriptor'
PUBLIC	??_R2?$basic_filebuf@DV?$char_traits@D@_STL@@@_STL@@8 ; _STL::basic_filebuf<char,_STL::char_traits<char> >::`RTTI Base Class Array'
PUBLIC	??_R1A@?0A@A@?$basic_filebuf@DV?$char_traits@D@_STL@@@_STL@@8 ; _STL::basic_filebuf<char,_STL::char_traits<char> >::`RTTI Base Class Descriptor at (0,-1,0,0)'
EXTRN	??0_Filebuf_base@_STL@@QAE@XZ:NEAR		; _STL::_Filebuf_base::_Filebuf_base
EXTRN	??1locale@_STL@@QAE@XZ:NEAR			; _STL::locale::~locale
EXTRN	__EH_prolog:NEAR
EXTRN	__except_list:DWORD
EXTRN	___CxxFrameHandler:NEAR
EXTRN	??_E?$basic_filebuf@DV?$char_traits@D@_STL@@@_STL@@UAEPAXI@Z:NEAR ; _STL::basic_filebuf<char,_STL::char_traits<char> >::`vector deleting destructor'
;	COMDAT xdata$x
; File c:\stlport-4.6.1\stlport\stl\_fstream.c
xdata$x	SEGMENT
$T116096 DD	0ffffffffH
	DD	FLAT:$L116089
	DD	00H
	DD	FLAT:$L116090
$T116092 DD	019930520H
	DD	02H
	DD	FLAT:$T116096
	DD	2 DUP(00H)
	DD	2 DUP(00H)
xdata$x	ENDS
;	COMDAT ??_7?$basic_filebuf@DV?$char_traits@D@_STL@@@_STL@@6B@
CONST	SEGMENT
??_7?$basic_filebuf@DV?$char_traits@D@_STL@@@_STL@@6B@ DD FLAT:??_R4?$basic_filebuf@DV?$char_traits@D@_STL@@@_STL@@6B@ ; _STL::basic_filebuf<char,_STL::char_traits<char> >::`vftable'
	DD	FLAT:??_E?$basic_filebuf@DV?$char_traits@D@_STL@@@_STL@@UAEPAXI@Z
	DD	FLAT:?setbuf@?$basic_filebuf@DV?$char_traits@D@_STL@@@_STL@@MAEPAV?$basic_streambuf@DV?$char_traits@D@_STL@@@2@PADH@Z
	DD	FLAT:?seekoff@?$basic_filebuf@DV?$char_traits@D@_STL@@@_STL@@MAE?AV?$fpos@H@2@JHH@Z
	DD	FLAT:?seekpos@?$basic_filebuf@DV?$char_traits@D@_STL@@@_STL@@MAE?AV?$fpos@H@2@V32@H@Z
	DD	FLAT:?sync@?$basic_filebuf@DV?$char_traits@D@_STL@@@_STL@@MAEHXZ
	DD	FLAT:?showmanyc@?$basic_filebuf@DV?$char_traits@D@_STL@@@_STL@@MAEHXZ
	DD	FLAT:?xsgetn@?$basic_streambuf@DV?$char_traits@D@_STL@@@_STL@@MAEHPADH@Z
	DD	FLAT:?underflow@?$basic_filebuf@DV?$char_traits@D@_STL@@@_STL@@MAEHXZ
	DD	FLAT:?uflow@?$basic_streambuf@DV?$char_traits@D@_STL@@@_STL@@MAEHXZ
	DD	FLAT:?pbackfail@?$basic_filebuf@DV?$char_traits@D@_STL@@@_STL@@MAEHH@Z
	DD	FLAT:?xsputn@?$basic_streambuf@DV?$char_traits@D@_STL@@@_STL@@MAEHPBDH@Z
	DD	FLAT:?_M_xsputnc@?$basic_streambuf@DV?$char_traits@D@_STL@@@_STL@@MAEHDH@Z
	DD	FLAT:?overflow@?$basic_filebuf@DV?$char_traits@D@_STL@@@_STL@@MAEHH@Z
	DD	FLAT:?imbue@?$basic_filebuf@DV?$char_traits@D@_STL@@@_STL@@MAEXABVlocale@2@@Z
CONST	ENDS
;	COMDAT ??_R4?$basic_filebuf@DV?$char_traits@D@_STL@@@_STL@@6B@
rdata$r	SEGMENT
??_R4?$basic_filebuf@DV?$char_traits@D@_STL@@@_STL@@6B@ DD 00H ; _STL::basic_filebuf<char,_STL::char_traits<char> >::`RTTI Complete Object Locator'
	DD	00H
	DD	00H
	DD	FLAT:??_R0?AV?$basic_filebuf@DV?$char_traits@D@_STL@@@_STL@@@8
	DD	FLAT:??_R3?$basic_filebuf@DV?$char_traits@D@_STL@@@_STL@@8
rdata$r	ENDS
;	COMDAT ??_R0?AV?$basic_filebuf@DV?$char_traits@D@_STL@@@_STL@@@8
_DATA	SEGMENT
??_R0?AV?$basic_filebuf@DV?$char_traits@D@_STL@@@_STL@@@8 DD FLAT:??_7type_info@@6B@ ; _STL::basic_filebuf<char,_STL::char_traits<char> > `RTTI Type Descriptor'
	DD	00H
	DB	'.?AV?$basic_filebuf@DV?$char_traits@D@_STL@@@_STL@@', 00H
_DATA	ENDS
;	COMDAT ??_R3?$basic_filebuf@DV?$char_traits@D@_STL@@@_STL@@8
rdata$r	SEGMENT
??_R3?$basic_filebuf@DV?$char_traits@D@_STL@@@_STL@@8 DD 00H ; _STL::basic_filebuf<char,_STL::char_traits<char> >::`RTTI Class Hierarchy Descriptor'
	DD	00H
	DD	02H
	DD	FLAT:??_R2?$basic_filebuf@DV?$char_traits@D@_STL@@@_STL@@8
rdata$r	ENDS
;	COMDAT ??_R2?$basic_filebuf@DV?$char_traits@D@_STL@@@_STL@@8
rdata$r	SEGMENT
??_R2?$basic_filebuf@DV?$char_traits@D@_STL@@@_STL@@8 DD FLAT:??_R1A@?0A@A@?$basic_filebuf@DV?$char_traits@D@_STL@@@_STL@@8 ; _STL::basic_filebuf<char,_STL::char_traits<char> >::`RTTI Base Class Array'
	DD	FLAT:??_R1A@?0A@A@?$basic_streambuf@DV?$char_traits@D@_STL@@@_STL@@8
rdata$r	ENDS
;	COMDAT ??_R1A@?0A@A@?$basic_filebuf@DV?$char_traits@D@_STL@@@_STL@@8
rdata$r	SEGMENT
??_R1A@?0A@A@?$basic_filebuf@DV?$char_traits@D@_STL@@@_STL@@8 DD FLAT:??_R0?AV?$basic_filebuf@DV?$char_traits@D@_STL@@@_STL@@@8 ; _STL::basic_filebuf<char,_STL::char_traits<char> >::`RTTI Base Class Descriptor at (0,-1,0,0)'
	DD	01H
	DD	00H
	DD	0ffffffffH
	DD	00H
	DD	00H
; Function compile flags: /Ogsy
rdata$r	ENDS
;	COMDAT ??0?$basic_filebuf@DV?$char_traits@D@_STL@@@_STL@@QAE@XZ
_TEXT	SEGMENT
_this$ = -20						; size = 4
$T116088 = -16						; size = 4
__$EHRec$ = -12						; size = 12
??0?$basic_filebuf@DV?$char_traits@D@_STL@@@_STL@@QAE@XZ PROC NEAR ; _STL::basic_filebuf<char,_STL::char_traits<char> >::basic_filebuf<char,_STL::char_traits<char> >, COMDAT
; _this$ = ecx

; 60   : {

  00000	b8 00 00 00 00	 mov	 eax, __ehhandler$??0?$basic_filebuf@DV?$char_traits@D@_STL@@@_STL@@QAE@XZ
  00005	e8 00 00 00 00	 call	 __EH_prolog
  0000a	51		 push	 ecx
  0000b	51		 push	 ecx
  0000c	53		 push	 ebx
  0000d	56		 push	 esi
  0000e	8b f1		 mov	 esi, ecx
  00010	89 75 ec	 mov	 DWORD PTR _this$[ebp], esi
  00013	e8 00 00 00 00	 call	 ??0?$basic_streambuf@DV?$char_traits@D@_STL@@@_STL@@IAE@XZ ; _STL::basic_streambuf<char,_STL::char_traits<char> >::basic_streambuf<char,_STL::char_traits<char> >
  00018	33 db		 xor	 ebx, ebx
  0001a	8d 4e 54	 lea	 ecx, DWORD PTR [esi+84]
  0001d	89 5d fc	 mov	 DWORD PTR __$EHRec$[ebp+8], ebx
  00020	c7 06 00 00 00
	00		 mov	 DWORD PTR [esi], OFFSET FLAT:??_7?$basic_filebuf@DV?$char_traits@D@_STL@@@_STL@@6B@
  00026	e8 00 00 00 00	 call	 ??0_Filebuf_base@_STL@@QAE@XZ ; _STL::_Filebuf_base::_Filebuf_base
  0002b	33 c0		 xor	 eax, eax
  0002d	40		 inc	 eax

; 61   :   this->_M_setup_codecvt(locale());

  0002e	8d 4d f0	 lea	 ecx, DWORD PTR $T116088[ebp]
  00031	88 5e 64	 mov	 BYTE PTR [esi+100], bl
  00034	88 5e 65	 mov	 BYTE PTR [esi+101], bl
  00037	88 5e 66	 mov	 BYTE PTR [esi+102], bl
  0003a	88 5e 67	 mov	 BYTE PTR [esi+103], bl
  0003d	88 5e 68	 mov	 BYTE PTR [esi+104], bl
  00040	88 5e 69	 mov	 BYTE PTR [esi+105], bl
  00043	88 5e 6a	 mov	 BYTE PTR [esi+106], bl
  00046	89 5e 6c	 mov	 DWORD PTR [esi+108], ebx
  00049	89 5e 70	 mov	 DWORD PTR [esi+112], ebx
  0004c	89 5e 74	 mov	 DWORD PTR [esi+116], ebx
  0004f	89 5e 78	 mov	 DWORD PTR [esi+120], ebx
  00052	89 5e 7c	 mov	 DWORD PTR [esi+124], ebx
  00055	89 9e 80 00 00
	00		 mov	 DWORD PTR [esi+128], ebx
  0005b	89 9e 84 00 00
	00		 mov	 DWORD PTR [esi+132], ebx
  00061	89 9e 88 00 00
	00		 mov	 DWORD PTR [esi+136], ebx
  00067	89 9e 8c 00 00
	00		 mov	 DWORD PTR [esi+140], ebx
  0006d	89 9e 90 00 00
	00		 mov	 DWORD PTR [esi+144], ebx
  00073	89 9e 94 00 00
	00		 mov	 DWORD PTR [esi+148], ebx
  00079	89 9e 98 00 00
	00		 mov	 DWORD PTR [esi+152], ebx
  0007f	89 9e 9c 00 00
	00		 mov	 DWORD PTR [esi+156], ebx
  00085	89 9e a0 00 00
	00		 mov	 DWORD PTR [esi+160], ebx
  0008b	89 86 a4 00 00
	00		 mov	 DWORD PTR [esi+164], eax
  00091	89 86 a8 00 00
	00		 mov	 DWORD PTR [esi+168], eax
  00097	e8 00 00 00 00	 call	 ??0locale@_STL@@QAE@XZ	; _STL::locale::locale
  0009c	50		 push	 eax
  0009d	8b ce		 mov	 ecx, esi
  0009f	c6 45 fc 01	 mov	 BYTE PTR __$EHRec$[ebp+8], 1
  000a3	e8 00 00 00 00	 call	 ?_M_setup_codecvt@?$basic_filebuf@DV?$char_traits@D@_STL@@@_STL@@AAEXABVlocale@2@@Z ; _STL::basic_filebuf<char,_STL::char_traits<char> >::_M_setup_codecvt
  000a8	8d 4d f0	 lea	 ecx, DWORD PTR $T116088[ebp]
  000ab	88 5d fc	 mov	 BYTE PTR __$EHRec$[ebp+8], bl
  000ae	e8 00 00 00 00	 call	 ??1locale@_STL@@QAE@XZ	; _STL::locale::~locale

; 62   : }

  000b3	8b 4d f4	 mov	 ecx, DWORD PTR __$EHRec$[ebp]
  000b6	8b c6		 mov	 eax, esi
  000b8	5e		 pop	 esi
  000b9	5b		 pop	 ebx
  000ba	64 89 0d 00 00
	00 00		 mov	 DWORD PTR fs:__except_list, ecx
  000c1	c9		 leave
  000c2	c3		 ret	 0
_TEXT	ENDS
;	COMDAT text$x
text$x	SEGMENT
$L116089:
  00000	8b 4d ec	 mov	 ecx, DWORD PTR _this$[ebp]
  00003	e9 00 00 00 00	 jmp	 ??1?$basic_streambuf@DV?$char_traits@D@_STL@@@_STL@@UAE@XZ ; _STL::basic_streambuf<char,_STL::char_traits<char> >::~basic_streambuf<char,_STL::char_traits<char> >
$L116090:
  00008	8d 4d f0	 lea	 ecx, DWORD PTR $T116088[ebp]
  0000b	e9 00 00 00 00	 jmp	 ??1locale@_STL@@QAE@XZ	; _STL::locale::~locale
__ehhandler$??0?$basic_filebuf@DV?$char_traits@D@_STL@@@_STL@@QAE@XZ:
  00010	b8 00 00 00 00	 mov	 eax, OFFSET FLAT:$T116092
  00015	e9 00 00 00 00	 jmp	 ___CxxFrameHandler
text$x	ENDS
??0?$basic_filebuf@DV?$char_traits@D@_STL@@@_STL@@QAE@XZ ENDP ; _STL::basic_filebuf<char,_STL::char_traits<char> >::basic_filebuf<char,_STL::char_traits<char> >
EXTRN	?_M_seek@_Filebuf_base@_STL@@QAEJJH@Z:NEAR	; _STL::_Filebuf_base::_M_seek
EXTRN	?_M_file_size@_Filebuf_base@_STL@@QAEJXZ:NEAR	; _STL::_Filebuf_base::_M_file_size
; Function compile flags: /Ogsy
;	COMDAT ?showmanyc@?$basic_filebuf@DV?$char_traits@D@_STL@@@_STL@@MAEHXZ
_TEXT	SEGMENT
?showmanyc@?$basic_filebuf@DV?$char_traits@D@_STL@@@_STL@@MAEHXZ PROC NEAR ; _STL::basic_filebuf<char,_STL::char_traits<char> >::showmanyc, COMDAT
; _this$ = ecx

; 132  : {

  00000	53		 push	 ebx

; 133  :   // Is there any possibility that reads can succeed?
; 134  :   if (!this->is_open() || _M_in_output_mode || _M_in_error_mode)

  00001	33 db		 xor	 ebx, ebx
  00003	38 59 60	 cmp	 BYTE PTR [ecx+96], bl
  00006	74 4a		 je	 SHORT $L98743
  00008	38 59 68	 cmp	 BYTE PTR [ecx+104], bl
  0000b	75 45		 jne	 SHORT $L98743
  0000d	38 59 69	 cmp	 BYTE PTR [ecx+105], bl
  00010	75 40		 jne	 SHORT $L98743

; 136  : 
; 137  :   else if (_M_in_putback_mode)

  00012	38 59 6a	 cmp	 BYTE PTR [ecx+106], bl
  00015	74 08		 je	 SHORT $L98745

; 138  :     return this->egptr() - this->gptr();

  00017	8b 49 04	 mov	 ecx, DWORD PTR [ecx+4]
  0001a	8b 41 04	 mov	 eax, DWORD PTR [ecx+4]
  0001d	5b		 pop	 ebx

; 148  : }

  0001e	c3		 ret	 0
$L98745:

; 139  : 
; 140  :   else if (_M_constant_width) {

  0001f	38 59 64	 cmp	 BYTE PTR [ecx+100], bl
  00022	74 2a		 je	 SHORT $L98747
  00024	56		 push	 esi
  00025	57		 push	 edi

; 141  :     streamoff __pos  = _M_base._M_seek(0, ios_base::cur);

  00026	8d 71 54	 lea	 esi, DWORD PTR [ecx+84]
  00029	6a 02		 push	 2
  0002b	53		 push	 ebx
  0002c	8b ce		 mov	 ecx, esi
  0002e	e8 00 00 00 00	 call	 ?_M_seek@_Filebuf_base@_STL@@QAEJJH@Z ; _STL::_Filebuf_base::_M_seek

; 142  :     streamoff __size = _M_base._M_file_size();

  00033	8b ce		 mov	 ecx, esi
  00035	8b f8		 mov	 edi, eax
  00037	e8 00 00 00 00	 call	 ?_M_file_size@_Filebuf_base@_STL@@QAEJXZ ; _STL::_Filebuf_base::_M_file_size

; 143  :     return __pos >= 0 && __size > __pos ? __size - __pos : 0;

  0003c	3b fb		 cmp	 edi, ebx
  0003e	7c 08		 jl	 SHORT $L116102
  00040	3b c7		 cmp	 eax, edi
  00042	7e 04		 jle	 SHORT $L116102
  00044	2b c7		 sub	 eax, edi
  00046	eb 02		 jmp	 SHORT $L116103
$L116102:
  00048	33 c0		 xor	 eax, eax
$L116103:
  0004a	5f		 pop	 edi
  0004b	5e		 pop	 esi
  0004c	5b		 pop	 ebx

; 148  : }

  0004d	c3		 ret	 0
$L98747:

; 144  :   }
; 145  : 
; 146  :   else 
; 147  :     return 0;

  0004e	33 c0		 xor	 eax, eax
  00050	5b		 pop	 ebx

; 148  : }

  00051	c3		 ret	 0
$L98743:

; 135  :     return -1;

  00052	83 c8 ff	 or	 eax, -1
  00055	5b		 pop	 ebx

; 148  : }

  00056	c3		 ret	 0
?showmanyc@?$basic_filebuf@DV?$char_traits@D@_STL@@@_STL@@MAEHXZ ENDP ; _STL::basic_filebuf<char,_STL::char_traits<char> >::showmanyc
_TEXT	ENDS
EXTRN	?_M_doit@?$_Underflow@DV?$char_traits@D@_STL@@@_STL@@SAHPAV?$basic_filebuf@DV?$char_traits@D@_STL@@@2@@Z:NEAR ; _STL::_Underflow<char,_STL::char_traits<char> >::_M_doit
; Function compile flags: /Ogsy
;	COMDAT ?underflow@?$basic_filebuf@DV?$char_traits@D@_STL@@@_STL@@MAEHXZ
_TEXT	SEGMENT
?underflow@?$basic_filebuf@DV?$char_traits@D@_STL@@@_STL@@MAEHXZ PROC NEAR ; _STL::basic_filebuf<char,_STL::char_traits<char> >::underflow, COMDAT
; _this$ = ecx

; 75   :   return _Underflow<_CharT, _Traits>::_M_doit(this);

  00000	51		 push	 ecx
  00001	e8 00 00 00 00	 call	 ?_M_doit@?$_Underflow@DV?$char_traits@D@_STL@@@_STL@@SAHPAV?$basic_filebuf@DV?$char_traits@D@_STL@@@2@@Z ; _STL::_Underflow<char,_STL::char_traits<char> >::_M_doit
  00006	59		 pop	 ecx

; 76   : }

  00007	c3		 ret	 0
?underflow@?$basic_filebuf@DV?$char_traits@D@_STL@@@_STL@@MAEHXZ ENDP ; _STL::basic_filebuf<char,_STL::char_traits<char> >::underflow
; Function compile flags: /Ogsy
_TEXT	ENDS
;	COMDAT ?pbackfail@?$basic_filebuf@DV?$char_traits@D@_STL@@@_STL@@MAEHH@Z
_TEXT	SEGMENT
___c$ = 8						; size = 4
?pbackfail@?$basic_filebuf@DV?$char_traits@D@_STL@@@_STL@@MAEHH@Z PROC NEAR ; _STL::basic_filebuf<char,_STL::char_traits<char> >::pbackfail, COMDAT
; _this$ = ecx

; 162  :   const int_type __eof = traits_type::eof();
; 163  : 
; 164  :   // If we aren't already in input mode, pushback is impossible.
; 165  :   if (!_M_in_input_mode)
; 166  :     return __eof;

  00000	83 c8 ff	 or	 eax, -1
  00003	80 79 67 00	 cmp	 BYTE PTR [ecx+103], 0
  00007	0f 84 b0 00 00
	00		 je	 $L98761

; 167  : 
; 168  :   // We can use the ordinary get buffer if there's enough space, and
; 169  :   // if it's a buffer that we're allowed to write to.
; 170  :   if (this->gptr() != this->eback() &&
; 171  :       (traits_type::eq_int_type(__c, __eof) ||
; 172  :        traits_type::eq(traits_type::to_char_type(__c), this->gptr()[-1]) ||
; 173  :        !_M_mmap_base)) {

  0000d	8b 51 04	 mov	 edx, DWORD PTR [ecx+4]
  00010	53		 push	 ebx
  00011	8b 5c 24 08	 mov	 ebx, DWORD PTR ___c$[esp]
  00015	56		 push	 esi
  00016	8b 32		 mov	 esi, DWORD PTR [edx]
  00018	57		 push	 edi
  00019	8b 7a 08	 mov	 edi, DWORD PTR [edx+8]
  0001c	3b f7		 cmp	 esi, edi
  0001e	74 2e		 je	 SHORT $L98765
  00020	3b d8		 cmp	 ebx, eax
  00022	74 0e		 je	 SHORT $L98766
  00024	3a 5e ff	 cmp	 bl, BYTE PTR [esi-1]
  00027	74 09		 je	 SHORT $L98766
  00029	83 b9 8c 00 00
	00 00		 cmp	 DWORD PTR [ecx+140], 0
  00030	75 1c		 jne	 SHORT $L98765
$L98766:

; 174  :     this->gbump(-1);

  00032	ff 0a		 dec	 DWORD PTR [edx]
  00034	ff 42 04	 inc	 DWORD PTR [edx+4]

; 175  :     if (traits_type::eq_int_type(__c, __eof) ||
; 176  :         traits_type::eq(traits_type::to_char_type(__c), *this->gptr()))

  00037	3b d8		 cmp	 ebx, eax
  00039	74 09		 je	 SHORT $L98769
  0003b	8b 41 04	 mov	 eax, DWORD PTR [ecx+4]
  0003e	8b 00		 mov	 eax, DWORD PTR [eax]
  00040	3a 18		 cmp	 bl, BYTE PTR [eax]
  00042	75 6d		 jne	 SHORT $L98777
$L98769:

; 177  :       return traits_type::to_int_type(*this->gptr());

  00044	8b 41 04	 mov	 eax, DWORD PTR [ecx+4]
  00047	8b 00		 mov	 eax, DWORD PTR [eax]
  00049	0f b6 00	 movzx	 eax, BYTE PTR [eax]
  0004c	eb 6c		 jmp	 SHORT $L116314
$L98765:

; 178  :   }
; 179  :   else if (!traits_type::eq_int_type(__c, __eof)) {

  0004e	3b d8		 cmp	 ebx, eax
  00050	74 68		 je	 SHORT $L116314

; 180  :     // Are we in the putback buffer already?
; 181  :     _CharT* __pback_end = _M_pback_buf + __STATIC_CAST(int,_S_pback_buf_size);
; 182  :     if (_M_in_putback_mode) {

  00052	80 79 6a 00	 cmp	 BYTE PTR [ecx+106], 0
  00056	8d b1 b4 00 00
	00		 lea	 esi, DWORD PTR [ecx+180]
  0005c	74 29		 je	 SHORT $L98774

; 183  :       // Do we have more room in the putback buffer?
; 184  :       if (this->eback() != _M_pback_buf) 

  0005e	8d 99 ac 00 00
	00		 lea	 ebx, DWORD PTR [ecx+172]
  00064	3b fb		 cmp	 edi, ebx
  00066	74 52		 je	 SHORT $L116314

; 185  :         this->setg(this->egptr() - 1, this->egptr() - 1, __pback_end);

  00068	8b 42 04	 mov	 eax, DWORD PTR [edx+4]
  0006b	8b 3a		 mov	 edi, DWORD PTR [edx]
  0006d	8b 1a		 mov	 ebx, DWORD PTR [edx]
  0006f	8d 7c 38 ff	 lea	 edi, DWORD PTR [eax+edi-1]
  00073	8d 44 18 ff	 lea	 eax, DWORD PTR [eax+ebx-1]

; 186  :       else
; 187  :         return __eof;           // No more room in the buffer, so fail.
; 188  :     }
; 189  :     else {                      // We're not yet in the putback buffer.

  00077	8b 5c 24 10	 mov	 ebx, DWORD PTR ___c$[esp+8]
  0007b	2b f7		 sub	 esi, edi
  0007d	89 42 08	 mov	 DWORD PTR [edx+8], eax
  00080	89 3a		 mov	 DWORD PTR [edx], edi
  00082	89 72 04	 mov	 DWORD PTR [edx+4], esi
  00085	eb 2a		 jmp	 SHORT $L98777
$L98774:

; 190  :       _M_saved_eback = this->eback();

  00087	89 b9 94 00 00
	00		 mov	 DWORD PTR [ecx+148], edi

; 191  :       _M_saved_gptr  = this->gptr();

  0008d	8b 02		 mov	 eax, DWORD PTR [edx]
  0008f	89 81 98 00 00
	00		 mov	 DWORD PTR [ecx+152], eax

; 192  :       _M_saved_egptr = this->egptr();

  00095	8b 42 04	 mov	 eax, DWORD PTR [edx+4]
  00098	03 02		 add	 eax, DWORD PTR [edx]

; 193  :       this->setg(__pback_end - 1, __pback_end - 1, __pback_end);

  0009a	8d 7e ff	 lea	 edi, DWORD PTR [esi-1]
  0009d	89 81 9c 00 00
	00		 mov	 DWORD PTR [ecx+156], eax
  000a3	2b f7		 sub	 esi, edi
  000a5	89 7a 08	 mov	 DWORD PTR [edx+8], edi
  000a8	89 3a		 mov	 DWORD PTR [edx], edi
  000aa	89 72 04	 mov	 DWORD PTR [edx+4], esi

; 194  :       _M_in_putback_mode = true;

  000ad	c6 41 6a 01	 mov	 BYTE PTR [ecx+106], 1
$L98777:

; 195  :     }
; 196  :   }
; 197  :   else
; 198  :     return __eof;
; 199  : 
; 200  :   // We have made a putback position available.  Assign to it, and return.
; 201  :   *this->gptr() = traits_type::to_char_type(__c);

  000b1	8b 41 04	 mov	 eax, DWORD PTR [ecx+4]
  000b4	8b 00		 mov	 eax, DWORD PTR [eax]
  000b6	88 18		 mov	 BYTE PTR [eax], bl

; 202  :   return __c;

  000b8	8b c3		 mov	 eax, ebx
$L116314:
  000ba	5f		 pop	 edi
  000bb	5e		 pop	 esi
  000bc	5b		 pop	 ebx
$L98761:

; 203  : }

  000bd	c2 04 00	 ret	 4
?pbackfail@?$basic_filebuf@DV?$char_traits@D@_STL@@@_STL@@MAEHH@Z ENDP ; _STL::basic_filebuf<char,_STL::char_traits<char> >::pbackfail
; Function compile flags: /Ogsy
_TEXT	ENDS
;	COMDAT ?sync@?$basic_filebuf@DV?$char_traits@D@_STL@@@_STL@@MAEHXZ
_TEXT	SEGMENT
?sync@?$basic_filebuf@DV?$char_traits@D@_STL@@@_STL@@MAEHXZ PROC NEAR ; _STL::basic_filebuf<char,_STL::char_traits<char> >::sync, COMDAT
; _this$ = ecx

; 414  :   if (_M_in_output_mode)

  00000	80 79 68 00	 cmp	 BYTE PTR [ecx+104], 0
  00004	74 13		 je	 SHORT $L98951

; 415  :     return traits_type::eq_int_type(this->overflow(traits_type::eof()),
; 416  :                                     traits_type::eof())
; 417  :       ? -1
; 418  :       : 0;

  00006	8b 01		 mov	 eax, DWORD PTR [ecx]
  00008	6a ff		 push	 -1
  0000a	ff 50 30	 call	 DWORD PTR [eax+48]
  0000d	33 c9		 xor	 ecx, ecx
  0000f	83 f8 ff	 cmp	 eax, -1
  00012	0f 95 c1	 setne	 cl
  00015	49		 dec	 ecx
  00016	8b c1		 mov	 eax, ecx

; 421  : }

  00018	c3		 ret	 0
$L98951:

; 419  :   else
; 420  :     return 0;

  00019	33 c0		 xor	 eax, eax

; 421  : }

  0001b	c3		 ret	 0
?sync@?$basic_filebuf@DV?$char_traits@D@_STL@@@_STL@@MAEHXZ ENDP ; _STL::basic_filebuf<char,_STL::char_traits<char> >::sync
_TEXT	ENDS
PUBLIC	?_M_allocate_buffers@?$basic_filebuf@DV?$char_traits@D@_STL@@@_STL@@AAE_NPADH@Z ; _STL::basic_filebuf<char,_STL::char_traits<char> >::_M_allocate_buffers
; Function compile flags: /Ogsy
;	COMDAT ?setbuf@?$basic_filebuf@DV?$char_traits@D@_STL@@@_STL@@MAEPAV?$basic_streambuf@DV?$char_traits@D@_STL@@@2@PADH@Z
_TEXT	SEGMENT
___buf$ = 8						; size = 4
___n$ = 12						; size = 4
?setbuf@?$basic_filebuf@DV?$char_traits@D@_STL@@@_STL@@MAEPAV?$basic_streambuf@DV?$char_traits@D@_STL@@@2@PADH@Z PROC NEAR ; _STL::basic_filebuf<char,_STL::char_traits<char> >::setbuf, COMDAT
; _this$ = ecx

; 273  : {

  00000	55		 push	 ebp
  00001	8b ec		 mov	 ebp, esp
  00003	56		 push	 esi
  00004	8b f1		 mov	 esi, ecx

; 274  :   if (!_M_in_input_mode &&! _M_in_output_mode && !_M_in_error_mode &&
; 275  :       _M_int_buf == 0) {

  00006	33 c0		 xor	 eax, eax
  00008	38 46 67	 cmp	 BYTE PTR [esi+103], al
  0000b	75 30		 jne	 SHORT $L98816
  0000d	38 46 68	 cmp	 BYTE PTR [esi+104], al
  00010	75 2b		 jne	 SHORT $L98816
  00012	38 46 69	 cmp	 BYTE PTR [esi+105], al
  00015	75 26		 jne	 SHORT $L98816
  00017	39 46 6c	 cmp	 DWORD PTR [esi+108], eax
  0001a	75 21		 jne	 SHORT $L98816

; 276  :     if (__buf == 0 && __n == 0)

  0001c	39 45 08	 cmp	 DWORD PTR ___buf$[ebp], eax
  0001f	75 0a		 jne	 SHORT $L116334
  00021	39 45 0c	 cmp	 DWORD PTR ___n$[ebp], eax
  00024	75 17		 jne	 SHORT $L98816

; 277  :       _M_allocate_buffers(0, 1);

  00026	6a 01		 push	 1
  00028	50		 push	 eax

; 278  :     else if (__buf != 0 && __n > 0)

  00029	eb 0b		 jmp	 SHORT $L116335
$L116334:
  0002b	39 45 0c	 cmp	 DWORD PTR ___n$[ebp], eax
  0002e	7e 0d		 jle	 SHORT $L98816

; 279  :       _M_allocate_buffers(__buf, __n);

  00030	ff 75 0c	 push	 DWORD PTR ___n$[ebp]
  00033	ff 75 08	 push	 DWORD PTR ___buf$[ebp]
$L116335:
  00036	8b ce		 mov	 ecx, esi
  00038	e8 00 00 00 00	 call	 ?_M_allocate_buffers@?$basic_filebuf@DV?$char_traits@D@_STL@@@_STL@@AAE_NPADH@Z ; _STL::basic_filebuf<char,_STL::char_traits<char> >::_M_allocate_buffers
$L98816:

; 280  :   }
; 281  :   return this;

  0003d	8b c6		 mov	 eax, esi
  0003f	5e		 pop	 esi

; 282  : }

  00040	5d		 pop	 ebp
  00041	c2 08 00	 ret	 8
?setbuf@?$basic_filebuf@DV?$char_traits@D@_STL@@@_STL@@MAEPAV?$basic_streambuf@DV?$char_traits@D@_STL@@@2@PADH@Z ENDP ; _STL::basic_filebuf<char,_STL::char_traits<char> >::setbuf
_TEXT	ENDS
EXTRN	_malloc:NEAR
; Function compile flags: /Ogsy
;	COMDAT ?_M_allocate_buffers@?$basic_filebuf@DV?$char_traits@D@_STL@@@_STL@@AAE_NPADH@Z
_TEXT	SEGMENT
$T116341 = -8						; size = 4
$T116339 = -8						; size = 4
$T116340 = -4						; size = 4
$T116338 = 8						; size = 4
___buf$ = 8						; size = 4
___n$ = 12						; size = 4
?_M_allocate_buffers@?$basic_filebuf@DV?$char_traits@D@_STL@@@_STL@@AAE_NPADH@Z PROC NEAR ; _STL::basic_filebuf<char,_STL::char_traits<char> >::_M_allocate_buffers, COMDAT
; _this$ = ecx

; 644  : {

  00000	55		 push	 ebp
  00001	8b ec		 mov	 ebp, esp
  00003	51		 push	 ecx
  00004	51		 push	 ecx

; 645  : 
; 646  :   if (__buf == 0) {

  00005	8b 45 08	 mov	 eax, DWORD PTR ___buf$[ebp]
  00008	85 c0		 test	 eax, eax
  0000a	56		 push	 esi
  0000b	8b f1		 mov	 esi, ecx
  0000d	75 1a		 jne	 SHORT $L112124

; 647  :     _M_int_buf = __STATIC_CAST(_CharT*,malloc(__n * sizeof(_CharT)));

  0000f	ff 75 0c	 push	 DWORD PTR ___n$[ebp]
  00012	e8 00 00 00 00	 call	 _malloc

; 648  :     if (! _M_int_buf)

  00017	85 c0		 test	 eax, eax
  00019	59		 pop	 ecx
  0001a	89 46 6c	 mov	 DWORD PTR [esi+108], eax
  0001d	75 04		 jne	 SHORT $L112127

; 649  :       return false;

  0001f	32 c0		 xor	 al, al
  00021	eb 7a		 jmp	 SHORT $L112123
$L112127:

; 650  :     _M_int_buf_dynamic = true;

  00023	c6 46 66 01	 mov	 BYTE PTR [esi+102], 1

; 651  :   }
; 652  :   else {

  00027	eb 07		 jmp	 SHORT $L112128
$L112124:

; 653  :     _M_int_buf = __buf;

  00029	89 46 6c	 mov	 DWORD PTR [esi+108], eax

; 654  :     _M_int_buf_dynamic = false;

  0002c	c6 46 66 00	 mov	 BYTE PTR [esi+102], 0
$L112128:
  00030	57		 push	 edi

; 655  :   }
; 656  :   
; 657  :   size_t __ebufsiz = (max)(__n * (max)(_M_codecvt->encoding(), 1),
; 658  :                       streamsize(_M_codecvt->max_length()));

  00031	8d be a0 00 00
	00		 lea	 edi, DWORD PTR [esi+160]
  00037	8b 0f		 mov	 ecx, DWORD PTR [edi]
  00039	8b 01		 mov	 eax, DWORD PTR [ecx]
  0003b	ff 50 1c	 call	 DWORD PTR [eax+28]
  0003e	8b 0f		 mov	 ecx, DWORD PTR [edi]
  00040	89 45 08	 mov	 DWORD PTR $T116338[ebp], eax
  00043	8b 01		 mov	 eax, DWORD PTR [ecx]
  00045	c7 45 fc 01 00
	00 00		 mov	 DWORD PTR $T116340[ebp], 1
  0004c	ff 50 10	 call	 DWORD PTR [eax+16]
  0004f	89 45 f8	 mov	 DWORD PTR $T116341[ebp], eax
  00052	83 f8 01	 cmp	 eax, 1
  00055	8d 45 fc	 lea	 eax, DWORD PTR $T116340[ebp]
  00058	7c 03		 jl	 SHORT $L116358
  0005a	8d 45 f8	 lea	 eax, DWORD PTR $T116341[ebp]
$L116358:
  0005d	8b 00		 mov	 eax, DWORD PTR [eax]
  0005f	0f af 45 0c	 imul	 eax, DWORD PTR ___n$[ebp]
  00063	3b 45 08	 cmp	 eax, DWORD PTR $T116338[ebp]
  00066	89 45 f8	 mov	 DWORD PTR $T116339[ebp], eax
  00069	8d 45 08	 lea	 eax, DWORD PTR $T116338[ebp]
  0006c	7c 03		 jl	 SHORT $L116367
  0006e	8d 45 f8	 lea	 eax, DWORD PTR $T116339[ebp]
$L116367:
  00071	8b 38		 mov	 edi, DWORD PTR [eax]

; 659  : 
; 660  :   _M_ext_buf = __STATIC_CAST(char*,malloc(__ebufsiz));

  00073	57		 push	 edi
  00074	e8 00 00 00 00	 call	 _malloc

; 661  :   if (!_M_ext_buf) {

  00079	85 c0		 test	 eax, eax
  0007b	59		 pop	 ecx
  0007c	89 46 74	 mov	 DWORD PTR [esi+116], eax
  0007f	75 0b		 jne	 SHORT $L112140

; 662  :     _M_deallocate_buffers();

  00081	8b ce		 mov	 ecx, esi
  00083	e8 00 00 00 00	 call	 ?_M_deallocate_buffers@?$basic_filebuf@DV?$char_traits@D@_STL@@@_STL@@AAEXXZ ; _STL::basic_filebuf<char,_STL::char_traits<char> >::_M_deallocate_buffers

; 663  :     return false;

  00088	32 c0		 xor	 al, al
  0008a	eb 10		 jmp	 SHORT $L116368
$L112140:

; 664  :   }
; 665  : 
; 666  :   _M_int_buf_EOS = _M_int_buf + __n;

  0008c	8b 4e 6c	 mov	 ecx, DWORD PTR [esi+108]
  0008f	03 4d 0c	 add	 ecx, DWORD PTR ___n$[ebp]

; 667  :   _M_ext_buf_EOS = _M_ext_buf + __ebufsiz;

  00092	03 c7		 add	 eax, edi
  00094	89 46 78	 mov	 DWORD PTR [esi+120], eax
  00097	89 4e 70	 mov	 DWORD PTR [esi+112], ecx

; 668  :   return true;

  0009a	b0 01		 mov	 al, 1
$L116368:
  0009c	5f		 pop	 edi
$L112123:
  0009d	5e		 pop	 esi

; 669  : }

  0009e	c9		 leave
  0009f	c2 08 00	 ret	 8
?_M_allocate_buffers@?$basic_filebuf@DV?$char_traits@D@_STL@@@_STL@@AAE_NPADH@Z ENDP ; _STL::basic_filebuf<char,_STL::char_traits<char> >::_M_allocate_buffers
; Function compile flags: /Ogsy
_TEXT	ENDS
;	COMDAT ?imbue@?$basic_filebuf@DV?$char_traits@D@_STL@@@_STL@@MAEXABVlocale@2@@Z
_TEXT	SEGMENT
___loc$ = 8						; size = 4
?imbue@?$basic_filebuf@DV?$char_traits@D@_STL@@@_STL@@MAEXABVlocale@2@@Z PROC NEAR ; _STL::basic_filebuf<char,_STL::char_traits<char> >::imbue, COMDAT
; _this$ = ecx

; 429  :   if (!_M_in_input_mode &&! _M_in_output_mode && !_M_in_error_mode) {

  00000	32 c0		 xor	 al, al
  00002	38 41 67	 cmp	 BYTE PTR [ecx+103], al
  00005	75 0f		 jne	 SHORT $L98961
  00007	38 41 68	 cmp	 BYTE PTR [ecx+104], al
  0000a	75 0a		 jne	 SHORT $L98961
  0000c	38 41 69	 cmp	 BYTE PTR [ecx+105], al
  0000f	75 05		 jne	 SHORT $L98961

; 430  :     this->_M_setup_codecvt(__loc);

  00011	e9 00 00 00 00	 jmp	 ?_M_setup_codecvt@?$basic_filebuf@DV?$char_traits@D@_STL@@@_STL@@AAEXABVlocale@2@@Z ; _STL::basic_filebuf<char,_STL::char_traits<char> >::_M_setup_codecvt
$L98961:

; 431  :   }
; 432  : }

  00016	c2 04 00	 ret	 4
?imbue@?$basic_filebuf@DV?$char_traits@D@_STL@@@_STL@@MAEXABVlocale@2@@Z ENDP ; _STL::basic_filebuf<char,_STL::char_traits<char> >::imbue
_TEXT	ENDS
PUBLIC	?close@?$basic_filebuf@DV?$char_traits@D@_STL@@@_STL@@QAEPAV12@XZ ; _STL::basic_filebuf<char,_STL::char_traits<char> >::close
EXTRN	?_M_close@_Filebuf_base@_STL@@QAE_NXZ:NEAR	; _STL::_Filebuf_base::_M_close
; Function compile flags: /Ogsy
;	COMDAT ?close@?$basic_filebuf@DV?$char_traits@D@_STL@@@_STL@@QAEPAV12@XZ
_TEXT	SEGMENT
___ok$ = -1						; size = 1
?close@?$basic_filebuf@DV?$char_traits@D@_STL@@@_STL@@QAEPAV12@XZ PROC NEAR ; _STL::basic_filebuf<char,_STL::char_traits<char> >::close, COMDAT
; _this$ = ecx

; 81   : {

  00000	55		 push	 ebp
  00001	8b ec		 mov	 ebp, esp
  00003	51		 push	 ecx
  00004	53		 push	 ebx
  00005	56		 push	 esi
  00006	8b f1		 mov	 esi, ecx

; 82   :   bool __ok = this->is_open();

  00008	33 db		 xor	 ebx, ebx
  0000a	38 5e 60	 cmp	 BYTE PTR [esi+96], bl
  0000d	0f 95 45 ff	 setne	 BYTE PTR ___ok$[ebp]

; 83   : 
; 84   :   if (_M_in_output_mode) {

  00011	38 5e 68	 cmp	 BYTE PTR [esi+104], bl
  00014	74 21		 je	 SHORT $L112091

; 85   :     __ok = __ok && !_Traits::eq_int_type(this->overflow(traits_type::eof()),
; 86   :                                          traits_type::eof());

  00016	38 5d ff	 cmp	 BYTE PTR ___ok$[ebp], bl
  00019	74 10		 je	 SHORT $L116376
  0001b	8b 06		 mov	 eax, DWORD PTR [esi]
  0001d	6a ff		 push	 -1
  0001f	ff 50 30	 call	 DWORD PTR [eax+48]
  00022	83 f8 ff	 cmp	 eax, -1
  00025	c6 45 ff 01	 mov	 BYTE PTR ___ok$[ebp], 1
  00029	75 03		 jne	 SHORT $L116377
$L116376:
  0002b	88 5d ff	 mov	 BYTE PTR ___ok$[ebp], bl
$L116377:

; 87   :     __ok == __ok && this->_M_unshift();

  0002e	8b ce		 mov	 ecx, esi
  00030	e8 00 00 00 00	 call	 ?_M_unshift@?$basic_filebuf@DV?$char_traits@D@_STL@@@_STL@@AAE_NXZ ; _STL::basic_filebuf<char,_STL::char_traits<char> >::_M_unshift

; 88   :   }
; 89   :   else if (_M_in_input_mode)

  00035	eb 0c		 jmp	 SHORT $L112095
$L112091:
  00037	38 5e 67	 cmp	 BYTE PTR [esi+103], bl
  0003a	74 07		 je	 SHORT $L112095

; 90   :       this->_M_exit_input_mode();

  0003c	8b ce		 mov	 ecx, esi
  0003e	e8 00 00 00 00	 call	 ?_M_exit_input_mode@?$basic_filebuf@DV?$char_traits@D@_STL@@@_STL@@AAEXXZ ; _STL::basic_filebuf<char,_STL::char_traits<char> >::_M_exit_input_mode
$L112095:

; 91   : 
; 92   :   // Note order of arguments.  We close the file even if __ok is false.
; 93   :   __ok = _M_base._M_close() && __ok;

  00043	8d 4e 54	 lea	 ecx, DWORD PTR [esi+84]
  00046	e8 00 00 00 00	 call	 ?_M_close@_Filebuf_base@_STL@@QAE_NXZ ; _STL::_Filebuf_base::_M_close
  0004b	84 c0		 test	 al, al
  0004d	74 09		 je	 SHORT $L116379
  0004f	38 5d ff	 cmp	 BYTE PTR ___ok$[ebp], bl
  00052	74 04		 je	 SHORT $L116379
  00054	b0 01		 mov	 al, 1
  00056	eb 02		 jmp	 SHORT $L116380
$L116379:
  00058	32 c0		 xor	 al, al
$L116380:

; 94   : 
; 95   :   // Restore the initial state, except that we don't deallocate the buffer
; 96   :   // or mess with the cached codecvt information.
; 97   :   _M_state = _M_end_state = _State_type();
; 98   :   _M_ext_buf_converted = _M_ext_buf_end = 0;
; 99   : 
; 100  :   _M_mmap_base = 0;
; 101  :   _M_mmap_len = 0;
; 102  : 
; 103  :   this->setg(0, 0, 0);

  0005a	8b 4e 04	 mov	 ecx, DWORD PTR [esi+4]
  0005d	89 9e 88 00 00
	00		 mov	 DWORD PTR [esi+136], ebx
  00063	89 9e 84 00 00
	00		 mov	 DWORD PTR [esi+132], ebx
  00069	89 9e 80 00 00
	00		 mov	 DWORD PTR [esi+128], ebx
  0006f	89 5e 7c	 mov	 DWORD PTR [esi+124], ebx
  00072	89 9e 8c 00 00
	00		 mov	 DWORD PTR [esi+140], ebx
  00078	89 9e 90 00 00
	00		 mov	 DWORD PTR [esi+144], ebx
  0007e	89 59 08	 mov	 DWORD PTR [ecx+8], ebx
  00081	89 19		 mov	 DWORD PTR [ecx], ebx
  00083	89 59 04	 mov	 DWORD PTR [ecx+4], ebx

; 104  :   this->setp(0, 0);

  00086	8b 4e 08	 mov	 ecx, DWORD PTR [esi+8]

; 105  : 
; 106  :   _M_saved_eback = _M_saved_gptr = _M_saved_egptr = 0;
; 107  : 
; 108  :   _M_in_input_mode = _M_in_output_mode = _M_in_error_mode = _M_in_putback_mode
; 109  :     = false;
; 110  : 
; 111  :   return __ok ? this : 0;

  00089	f6 d8		 neg	 al
  0008b	89 59 08	 mov	 DWORD PTR [ecx+8], ebx
  0008e	89 19		 mov	 DWORD PTR [ecx], ebx
  00090	89 59 04	 mov	 DWORD PTR [ecx+4], ebx
  00093	89 9e 9c 00 00
	00		 mov	 DWORD PTR [esi+156], ebx
  00099	89 9e 98 00 00
	00		 mov	 DWORD PTR [esi+152], ebx
  0009f	89 9e 94 00 00
	00		 mov	 DWORD PTR [esi+148], ebx
  000a5	1b c0		 sbb	 eax, eax
  000a7	88 5e 6a	 mov	 BYTE PTR [esi+106], bl
  000aa	88 5e 69	 mov	 BYTE PTR [esi+105], bl
  000ad	88 5e 68	 mov	 BYTE PTR [esi+104], bl
  000b0	88 5e 67	 mov	 BYTE PTR [esi+103], bl
  000b3	23 c6		 and	 eax, esi
  000b5	5e		 pop	 esi
  000b6	5b		 pop	 ebx

; 112  : }

  000b7	c9		 leave
  000b8	c3		 ret	 0
?close@?$basic_filebuf@DV?$char_traits@D@_STL@@@_STL@@QAEPAV12@XZ ENDP ; _STL::basic_filebuf<char,_STL::char_traits<char> >::close
_TEXT	ENDS
PUBLIC	?erase@?$list@GV?$allocator@G@_STL@@@_STL@@QAE?AU?$_List_iterator@GU?$_Nonconst_traits@G@_STL@@@2@U32@@Z ; _STL::list<unsigned short,_STL::allocator<unsigned short> >::erase
; Function compile flags: /Ogsy
; File c:\stlport-4.6.1\stlport\stl\_list.h
;	COMDAT ?erase@?$list@GV?$allocator@G@_STL@@@_STL@@QAE?AU?$_List_iterator@GU?$_Nonconst_traits@G@_STL@@@2@U32@@Z
_TEXT	SEGMENT
___$ReturnUdt$ = 8					; size = 4
___position$ = 12					; size = 4
?erase@?$list@GV?$allocator@G@_STL@@@_STL@@QAE?AU?$_List_iterator@GU?$_Nonconst_traits@G@_STL@@@2@U32@@Z PROC NEAR ; _STL::list<unsigned short,_STL::allocator<unsigned short> >::erase, COMDAT
; _this$ = ecx

; 354  :     _List_node_base* __next_node = __position._M_node->_M_next;

  00000	8b 54 24 08	 mov	 edx, DWORD PTR ___position$[esp-4]

; 355  :     _List_node_base* __prev_node = __position._M_node->_M_prev;

  00004	8b 42 04	 mov	 eax, DWORD PTR [edx+4]
  00007	56		 push	 esi
  00008	8b 32		 mov	 esi, DWORD PTR [edx]

; 356  :     _Node* __n = (_Node*) __position._M_node;
; 357  :     __prev_node->_M_next = __next_node;
; 358  :     __next_node->_M_prev = __prev_node;
; 359  :     _STLP_STD::_Destroy(&__n->_M_data);
; 360  :     this->_M_node.deallocate(__n, 1);

  0000a	6a 01		 push	 1
  0000c	89 30		 mov	 DWORD PTR [eax], esi
  0000e	52		 push	 edx
  0000f	89 46 04	 mov	 DWORD PTR [esi+4], eax
  00012	e8 00 00 00 00	 call	 ?deallocate@?$allocator@U?$_List_node@G@_STL@@@_STL@@QAEXPAU?$_List_node@G@2@I@Z ; _STL::allocator<_STL::_List_node<unsigned short> >::deallocate

; 361  :     return iterator((_Node*)__next_node);

  00017	8b 44 24 08	 mov	 eax, DWORD PTR ___$ReturnUdt$[esp]
  0001b	89 30		 mov	 DWORD PTR [eax], esi
  0001d	5e		 pop	 esi

; 362  :     }

  0001e	c2 08 00	 ret	 8
?erase@?$list@GV?$allocator@G@_STL@@@_STL@@QAE?AU?$_List_iterator@GU?$_Nonconst_traits@G@_STL@@@2@U32@@Z ENDP ; _STL::list<unsigned short,_STL::allocator<unsigned short> >::erase
_TEXT	ENDS
PUBLIC	??0?$_List_base@GV?$allocator@G@_STL@@@_STL@@QAE@ABV?$allocator@G@1@@Z ; _STL::_List_base<unsigned short,_STL::allocator<unsigned short> >::_List_base<unsigned short,_STL::allocator<unsigned short> >
; Function compile flags: /Ogsy
;	COMDAT ??0?$_List_base@GV?$allocator@G@_STL@@@_STL@@QAE@ABV?$allocator@G@1@@Z
_TEXT	SEGMENT
$T116439 = -1						; size = 1
___a$ = 8						; size = 4
??0?$_List_base@GV?$allocator@G@_STL@@@_STL@@QAE@ABV?$allocator@G@1@@Z PROC NEAR ; _STL::_List_base<unsigned short,_STL::allocator<unsigned short> >::_List_base<unsigned short,_STL::allocator<unsigned short> >, COMDAT
; _this$ = ecx

; 182  :   _List_base(const allocator_type& __a) : _M_node(_STLP_CONVERT_ALLOCATOR(__a, _Node), (_Node*)0) {

  00000	51		 push	 ecx
  00001	56		 push	 esi
  00002	6a 00		 push	 0
  00004	8d 44 24 0b	 lea	 eax, DWORD PTR $T116439[esp+12]
  00008	50		 push	 eax
  00009	8b f1		 mov	 esi, ecx
  0000b	e8 00 00 00 00	 call	 ??0?$_STLP_alloc_proxy@PAU?$_List_node@G@_STL@@U12@V?$allocator@U?$_List_node@G@_STL@@@2@@_STL@@QAE@ABV?$allocator@U?$_List_node@G@_STL@@@1@PAU?$_List_node@G@1@@Z ; _STL::_STLP_alloc_proxy<_STL::_List_node<unsigned short> *,_STL::_List_node<unsigned short>,_STL::allocator<_STL::_List_node<unsigned short> > >::_STLP_alloc_proxy<_STL::_List_node<unsigned short> *,_STL::_List_node<unsigned short>,_STL::allocator<_STL::_List_node<unsigned short> > >

; 183  :     _Node* __n = _M_node.allocate(1);

  00010	6a 0c		 push	 12			; 0000000cH
  00012	e8 00 00 00 00	 call	 ?allocate@?$__node_alloc@$00$0A@@_STL@@SAPAXI@Z ; _STL::__node_alloc<1,0>::allocate

; 184  :     __n->_M_next = __n;

  00017	89 00		 mov	 DWORD PTR [eax], eax

; 185  :     __n->_M_prev = __n;

  00019	89 40 04	 mov	 DWORD PTR [eax+4], eax

; 186  :     _M_node._M_data = __n;

  0001c	89 06		 mov	 DWORD PTR [esi], eax
  0001e	59		 pop	 ecx

; 187  :   }

  0001f	8b c6		 mov	 eax, esi
  00021	5e		 pop	 esi
  00022	59		 pop	 ecx
  00023	c2 04 00	 ret	 4
??0?$_List_base@GV?$allocator@G@_STL@@@_STL@@QAE@ABV?$allocator@G@1@@Z ENDP ; _STL::_List_base<unsigned short,_STL::allocator<unsigned short> >::_List_base<unsigned short,_STL::allocator<unsigned short> >
_TEXT	ENDS
PUBLIC	??1?$_List_base@GV?$allocator@G@_STL@@@_STL@@QAE@XZ ; _STL::_List_base<unsigned short,_STL::allocator<unsigned short> >::~_List_base<unsigned short,_STL::allocator<unsigned short> >
; Function compile flags: /Ogsy
;	COMDAT ??1?$_List_base@GV?$allocator@G@_STL@@@_STL@@QAE@XZ
_TEXT	SEGMENT
??1?$_List_base@GV?$allocator@G@_STL@@@_STL@@QAE@XZ PROC NEAR ; _STL::_List_base<unsigned short,_STL::allocator<unsigned short> >::~_List_base<unsigned short,_STL::allocator<unsigned short> >, COMDAT
; _this$ = ecx

; 188  :   ~_List_base() {

  00000	56		 push	 esi
  00001	8b f1		 mov	 esi, ecx

; 189  :     clear();

  00003	e8 00 00 00 00	 call	 ?clear@?$_List_base@GV?$allocator@G@_STL@@@_STL@@QAEXXZ ; _STL::_List_base<unsigned short,_STL::allocator<unsigned short> >::clear

; 190  :     _M_node.deallocate(_M_node._M_data, 1);

  00008	6a 01		 push	 1
  0000a	ff 36		 push	 DWORD PTR [esi]
  0000c	8b ce		 mov	 ecx, esi
  0000e	e8 00 00 00 00	 call	 ?deallocate@?$allocator@U?$_List_node@G@_STL@@@_STL@@QAEXPAU?$_List_node@G@2@I@Z ; _STL::allocator<_STL::_List_node<unsigned short> >::deallocate
  00013	5e		 pop	 esi

; 191  :   }

  00014	c3		 ret	 0
??1?$_List_base@GV?$allocator@G@_STL@@@_STL@@QAE@XZ ENDP ; _STL::_List_base<unsigned short,_STL::allocator<unsigned short> >::~_List_base<unsigned short,_STL::allocator<unsigned short> >
_TEXT	ENDS
PUBLIC	?clear@?$_Rb_tree@GU?$pair@$$CBGPAVivfstream@@@_STL@@U?$_Select1st@U?$pair@$$CBGPAVivfstream@@@_STL@@@2@U?$less@G@2@V?$allocator@U?$pair@$$CBGPAVivfstream@@@_STL@@@2@@_STL@@QAEXXZ ; _STL::_Rb_tree<unsigned short,_STL::pair<unsigned short const ,ivfstream *>,_STL::_Select1st<_STL::pair<unsigned short const ,ivfstream *> >,_STL::less<unsigned short>,_STL::allocator<_STL::pair<unsigned short const ,ivfstream *> > >::clear
; Function compile flags: /Ogsy
; File c:\stlport-4.6.1\stlport\stl\_tree.h
;	COMDAT ?clear@?$_Rb_tree@GU?$pair@$$CBGPAVivfstream@@@_STL@@U?$_Select1st@U?$pair@$$CBGPAVivfstream@@@_STL@@@2@U?$less@G@2@V?$allocator@U?$pair@$$CBGPAVivfstream@@@_STL@@@2@@_STL@@QAEXXZ
_TEXT	SEGMENT
?clear@?$_Rb_tree@GU?$pair@$$CBGPAVivfstream@@@_STL@@U?$_Select1st@U?$pair@$$CBGPAVivfstream@@@_STL@@@2@U?$less@G@2@V?$allocator@U?$pair@$$CBGPAVivfstream@@@_STL@@@2@@_STL@@QAEXXZ PROC NEAR ; _STL::_Rb_tree<unsigned short,_STL::pair<unsigned short const ,ivfstream *>,_STL::_Select1st<_STL::pair<unsigned short const ,ivfstream *> >,_STL::less<unsigned short>,_STL::allocator<_STL::pair<unsigned short const ,ivfstream *> > >::clear, COMDAT
; _this$ = ecx

; 445  :   void clear() {

  00000	56		 push	 esi
  00001	8b f1		 mov	 esi, ecx

; 446  :     if (_M_node_count != 0) {

  00003	83 7e 04 00	 cmp	 DWORD PTR [esi+4], 0
  00007	74 1e		 je	 SHORT $L113568

; 447  :       _M_erase(_M_root());

  00009	8b 06		 mov	 eax, DWORD PTR [esi]
  0000b	ff 70 04	 push	 DWORD PTR [eax+4]
  0000e	e8 00 00 00 00	 call	 ?_M_erase@?$_Rb_tree@GU?$pair@$$CBGPAVivfstream@@@_STL@@U?$_Select1st@U?$pair@$$CBGPAVivfstream@@@_STL@@@2@U?$less@G@2@V?$allocator@U?$pair@$$CBGPAVivfstream@@@_STL@@@2@@_STL@@AAEXPAU?$_Rb_tree_node@U?$pair@$$CBGPAVivfstream@@@_STL@@@2@@Z ; _STL::_Rb_tree<unsigned short,_STL::pair<unsigned short const ,ivfstream *>,_STL::_Select1st<_STL::pair<unsigned short const ,ivfstream *> >,_STL::less<unsigned short>,_STL::allocator<_STL::pair<unsigned short const ,ivfstream *> > >::_M_erase

; 448  :       _M_leftmost() = this->_M_header._M_data;

  00013	8b 06		 mov	 eax, DWORD PTR [esi]
  00015	89 40 08	 mov	 DWORD PTR [eax+8], eax

; 449  :       _M_root() = 0;

  00018	8b 06		 mov	 eax, DWORD PTR [esi]
  0001a	83 60 04 00	 and	 DWORD PTR [eax+4], 0

; 450  :       _M_rightmost() = this->_M_header._M_data;

  0001e	8b 06		 mov	 eax, DWORD PTR [esi]
  00020	89 40 0c	 mov	 DWORD PTR [eax+12], eax

; 451  :       _M_node_count = 0;

  00023	83 66 04 00	 and	 DWORD PTR [esi+4], 0
$L113568:
  00027	5e		 pop	 esi

; 452  :     }
; 453  :   }      

  00028	c3		 ret	 0
?clear@?$_Rb_tree@GU?$pair@$$CBGPAVivfstream@@@_STL@@U?$_Select1st@U?$pair@$$CBGPAVivfstream@@@_STL@@@2@U?$less@G@2@V?$allocator@U?$pair@$$CBGPAVivfstream@@@_STL@@@2@@_STL@@QAEXXZ ENDP ; _STL::_Rb_tree<unsigned short,_STL::pair<unsigned short const ,ivfstream *>,_STL::_Select1st<_STL::pair<unsigned short const ,ivfstream *> >,_STL::less<unsigned short>,_STL::allocator<_STL::pair<unsigned short const ,ivfstream *> > >::clear
_TEXT	ENDS
PUBLIC	??1?$_Rb_tree_base@U?$pair@$$CBGPAVivfstream@@@_STL@@V?$allocator@U?$pair@$$CBGPAVivfstream@@@_STL@@@2@@_STL@@QAE@XZ ; _STL::_Rb_tree_base<_STL::pair<unsigned short const ,ivfstream *>,_STL::allocator<_STL::pair<unsigned short const ,ivfstream *> > >::~_Rb_tree_base<_STL::pair<unsigned short const ,ivfstream *>,_STL::allocator<_STL::pair<unsigned short const ,ivfstream *> > >
; Function compile flags: /Ogsy
;	COMDAT ??1?$_Rb_tree_base@U?$pair@$$CBGPAVivfstream@@@_STL@@V?$allocator@U?$pair@$$CBGPAVivfstream@@@_STL@@@2@@_STL@@QAE@XZ
_TEXT	SEGMENT
??1?$_Rb_tree_base@U?$pair@$$CBGPAVivfstream@@@_STL@@V?$allocator@U?$pair@$$CBGPAVivfstream@@@_STL@@@2@@_STL@@QAE@XZ PROC NEAR ; _STL::_Rb_tree_base<_STL::pair<unsigned short const ,ivfstream *>,_STL::allocator<_STL::pair<unsigned short const ,ivfstream *> > >::~_Rb_tree_base<_STL::pair<unsigned short const ,ivfstream *>,_STL::allocator<_STL::pair<unsigned short const ,ivfstream *> > >, COMDAT
; _this$ = ecx

; 208  :     _M_header.deallocate(_M_header._M_data,1); 

  00000	6a 01		 push	 1
  00002	ff 31		 push	 DWORD PTR [ecx]
  00004	e8 00 00 00 00	 call	 ?deallocate@?$allocator@U?$_Rb_tree_node@U?$pair@$$CBGPAVivfstream@@@_STL@@@_STL@@@_STL@@QAEXPAU?$_Rb_tree_node@U?$pair@$$CBGPAVivfstream@@@_STL@@@2@I@Z ; _STL::allocator<_STL::_Rb_tree_node<_STL::pair<unsigned short const ,ivfstream *> > >::deallocate

; 209  :   }

  00009	c3		 ret	 0
??1?$_Rb_tree_base@U?$pair@$$CBGPAVivfstream@@@_STL@@V?$allocator@U?$pair@$$CBGPAVivfstream@@@_STL@@@2@@_STL@@QAE@XZ ENDP ; _STL::_Rb_tree_base<_STL::pair<unsigned short const ,ivfstream *>,_STL::allocator<_STL::pair<unsigned short const ,ivfstream *> > >::~_Rb_tree_base<_STL::pair<unsigned short const ,ivfstream *>,_STL::allocator<_STL::pair<unsigned short const ,ivfstream *> > >
_TEXT	ENDS
PUBLIC	?_M_create_node@?$list@GV?$allocator@G@_STL@@@_STL@@IAEPAU?$_List_node@G@2@ABG@Z ; _STL::list<unsigned short,_STL::allocator<unsigned short> >::_M_create_node
; Function compile flags: /Ogsy
; File c:\stlport-4.6.1\stlport\stl\_list.h
;	COMDAT ?_M_create_node@?$list@GV?$allocator@G@_STL@@@_STL@@IAEPAU?$_List_node@G@2@ABG@Z
_TEXT	SEGMENT
___x$ = 8						; size = 4
?_M_create_node@?$list@GV?$allocator@G@_STL@@@_STL@@IAEPAU?$_List_node@G@2@ABG@Z PROC NEAR ; _STL::list<unsigned short,_STL::allocator<unsigned short> >::_M_create_node, COMDAT
; _this$ = ecx

; 241  :     _Node* __p = this->_M_node.allocate(1);

  00000	6a 0c		 push	 12			; 0000000cH
  00002	e8 00 00 00 00	 call	 ?allocate@?$__node_alloc@$00$0A@@_STL@@SAPAXI@Z ; _STL::__node_alloc<1,0>::allocate
  00007	59		 pop	 ecx

; 242  :     _STLP_TRY {
; 243  :       _Construct(&__p->_M_data, __x);

  00008	8d 48 08	 lea	 ecx, DWORD PTR [eax+8]
  0000b	85 c9		 test	 ecx, ecx
  0000d	74 0a		 je	 SHORT $L116493
  0000f	8b 54 24 04	 mov	 edx, DWORD PTR ___x$[esp-4]
  00013	66 8b 12	 mov	 dx, WORD PTR [edx]
  00016	66 89 11	 mov	 WORD PTR [ecx], dx
$L116493:

; 244  :     }
; 245  :     _STLP_UNWIND(this->_M_node.deallocate(__p, 1));
; 246  :     return __p;
; 247  :   }

  00019	c2 04 00	 ret	 4
?_M_create_node@?$list@GV?$allocator@G@_STL@@@_STL@@IAEPAU?$_List_node@G@2@ABG@Z ENDP ; _STL::list<unsigned short,_STL::allocator<unsigned short> >::_M_create_node
_TEXT	ENDS
PUBLIC	??0?$_Rb_tree_base@U?$pair@$$CBGPAVivfstream@@@_STL@@V?$allocator@U?$pair@$$CBGPAVivfstream@@@_STL@@@2@@_STL@@QAE@ABV?$allocator@U?$pair@$$CBGPAVivfstream@@@_STL@@@1@@Z ; _STL::_Rb_tree_base<_STL::pair<unsigned short const ,ivfstream *>,_STL::allocator<_STL::pair<unsigned short const ,ivfstream *> > >::_Rb_tree_base<_STL::pair<unsigned short const ,ivfstream *>,_STL::allocator<_STL::pair<unsigned short const ,ivfstream *> > >
; Function compile flags: /Ogsy
; File c:\stlport-4.6.1\stlport\stl\_tree.h
;	COMDAT ??0?$_Rb_tree_base@U?$pair@$$CBGPAVivfstream@@@_STL@@V?$allocator@U?$pair@$$CBGPAVivfstream@@@_STL@@@2@@_STL@@QAE@ABV?$allocator@U?$pair@$$CBGPAVivfstream@@@_STL@@@1@@Z
_TEXT	SEGMENT
$T116502 = -1						; size = 1
___a$ = 8						; size = 4
??0?$_Rb_tree_base@U?$pair@$$CBGPAVivfstream@@@_STL@@V?$allocator@U?$pair@$$CBGPAVivfstream@@@_STL@@@2@@_STL@@QAE@ABV?$allocator@U?$pair@$$CBGPAVivfstream@@@_STL@@@1@@Z PROC NEAR ; _STL::_Rb_tree_base<_STL::pair<unsigned short const ,ivfstream *>,_STL::allocator<_STL::pair<unsigned short const ,ivfstream *> > >::_Rb_tree_base<_STL::pair<unsigned short const ,ivfstream *>,_STL::allocator<_STL::pair<unsigned short const ,ivfstream *> > >, COMDAT
; _this$ = ecx

; 204  :     _M_header(_STLP_CONVERT_ALLOCATOR(__a, _Node), (_Node*)0) { 

  00000	51		 push	 ecx
  00001	56		 push	 esi
  00002	6a 00		 push	 0
  00004	8d 44 24 0b	 lea	 eax, DWORD PTR $T116502[esp+12]
  00008	50		 push	 eax
  00009	8b f1		 mov	 esi, ecx
  0000b	e8 00 00 00 00	 call	 ??0?$_STLP_alloc_proxy@PAU?$_Rb_tree_node@U?$pair@$$CBGPAVivfstream@@@_STL@@@_STL@@U12@V?$allocator@U?$_Rb_tree_node@U?$pair@$$CBGPAVivfstream@@@_STL@@@_STL@@@2@@_STL@@QAE@ABV?$allocator@U?$_Rb_tree_node@U?$pair@$$CBGPAVivfstream@@@_STL@@@_STL@@@1@PAU?$_Rb_tree_node@U?$pair@$$CBGPAVivfstream@@@_STL@@@1@@Z ; _STL::_STLP_alloc_proxy<_STL::_Rb_tree_node<_STL::pair<unsigned short const ,ivfstream *> > *,_STL::_Rb_tree_node<_STL::pair<unsigned short const ,ivfstream *> >,_STL::allocator<_STL::_Rb_tree_node<_STL::pair<unsigned short const ,ivfstream *> > > >::_STLP_alloc_proxy<_STL::_Rb_tree_node<_STL::pair<unsigned short const ,ivfstream *> > *,_STL::_Rb_tree_node<_STL::pair<unsigned short const ,ivfstream *> >,_STL::allocator<_STL::_Rb_tree_node<_STL::pair<unsigned short const ,ivfstream *> > > >

; 205  :       _M_header._M_data = _M_header.allocate(1); 

  00010	6a 18		 push	 24			; 00000018H
  00012	e8 00 00 00 00	 call	 ?allocate@?$__node_alloc@$00$0A@@_STL@@SAPAXI@Z ; _STL::__node_alloc<1,0>::allocate
  00017	89 06		 mov	 DWORD PTR [esi], eax
  00019	59		 pop	 ecx

; 206  :   }

  0001a	8b c6		 mov	 eax, esi
  0001c	5e		 pop	 esi
  0001d	59		 pop	 ecx
  0001e	c2 04 00	 ret	 4
??0?$_Rb_tree_base@U?$pair@$$CBGPAVivfstream@@@_STL@@V?$allocator@U?$pair@$$CBGPAVivfstream@@@_STL@@@2@@_STL@@QAE@ABV?$allocator@U?$pair@$$CBGPAVivfstream@@@_STL@@@1@@Z ENDP ; _STL::_Rb_tree_base<_STL::pair<unsigned short const ,ivfstream *>,_STL::allocator<_STL::pair<unsigned short const ,ivfstream *> > >::_Rb_tree_base<_STL::pair<unsigned short const ,ivfstream *>,_STL::allocator<_STL::pair<unsigned short const ,ivfstream *> > >
_TEXT	ENDS
PUBLIC	?Release@?$CPartManager@GGPAVCSpriteSurface@@@@QAEXXZ ; CPartManager<unsigned short,unsigned short,CSpriteSurface *>::Release
; Function compile flags: /Ogsy
; File c:\darkeden\designed_common\project\client\cpartmanager.h
;	COMDAT ?Release@?$CPartManager@GGPAVCSpriteSurface@@@@QAEXXZ
_TEXT	SEGMENT
?Release@?$CPartManager@GGPAVCSpriteSurface@@@@QAEXXZ PROC NEAR ; CPartManager<unsigned short,unsigned short,CSpriteSurface *>::Release, COMDAT
; _this$ = ecx

; 256  : {

  00000	56		 push	 esi
  00001	8b f1		 mov	 esi, ecx

; 257  : 	if (m_pPartIndex!=NULL)

  00003	8b 46 04	 mov	 eax, DWORD PTR [esi+4]
  00006	57		 push	 edi
  00007	33 ff		 xor	 edi, edi
  00009	3b c7		 cmp	 eax, edi
  0000b	74 0d		 je	 SHORT $L113843

; 258  : 	{
; 259  : 		delete [] m_pPartIndex;

  0000d	50		 push	 eax
  0000e	e8 00 00 00 00	 call	 ??_V@YAXPAX@Z		; operator delete[]
  00013	59		 pop	 ecx

; 260  : 		m_pPartIndex = NULL;

  00014	89 7e 04	 mov	 DWORD PTR [esi+4], edi

; 261  : 		m_nIndex = 0;

  00017	66 89 3e	 mov	 WORD PTR [esi], di
$L113843:

; 262  : 	}
; 263  : 
; 264  : 	if (m_pData!=NULL)

  0001a	8b 46 0c	 mov	 eax, DWORD PTR [esi+12]
  0001d	3b c7		 cmp	 eax, edi
  0001f	74 12		 je	 SHORT $L113845

; 265  : 	{
; 266  : 		delete [] m_pData;

  00021	50		 push	 eax
  00022	e8 00 00 00 00	 call	 ??_V@YAXPAX@Z		; operator delete[]
  00027	59		 pop	 ecx

; 267  : 		m_pData = NULL;

  00028	89 7e 0c	 mov	 DWORD PTR [esi+12], edi

; 268  : 		m_nPart = 0;

  0002b	66 89 7e 08	 mov	 WORD PTR [esi+8], di

; 269  : 		m_nPartUsed = 0;

  0002f	66 89 7e 0a	 mov	 WORD PTR [esi+10], di
$L113845:

; 270  : 	}
; 271  : 
; 272  : 	if (m_pParentIndex!=NULL)

  00033	8b 46 10	 mov	 eax, DWORD PTR [esi+16]
  00036	3b c7		 cmp	 eax, edi
  00038	74 0a		 je	 SHORT $L113847

; 273  : 	{
; 274  : 		delete [] m_pParentIndex;

  0003a	50		 push	 eax
  0003b	e8 00 00 00 00	 call	 ??_V@YAXPAX@Z		; operator delete[]
  00040	59		 pop	 ecx

; 275  : 		m_pParentIndex = NULL;

  00041	89 7e 10	 mov	 DWORD PTR [esi+16], edi
$L113847:

; 276  : 	}
; 277  : 
; 278  : 	if (m_pLastTime!=NULL)

  00044	8b 46 14	 mov	 eax, DWORD PTR [esi+20]
  00047	3b c7		 cmp	 eax, edi
  00049	74 0a		 je	 SHORT $L113849

; 279  : 	{
; 280  : 		delete [] m_pLastTime;

  0004b	50		 push	 eax
  0004c	e8 00 00 00 00	 call	 ??_V@YAXPAX@Z		; operator delete[]
  00051	59		 pop	 ecx

; 281  : 		m_pLastTime = NULL;

  00052	89 7e 14	 mov	 DWORD PTR [esi+20], edi
$L113849:

; 282  : 	}
; 283  : 	
; 284  : 	if (m_pPartIterator!=NULL)

  00055	8b 46 1c	 mov	 eax, DWORD PTR [esi+28]
  00058	3b c7		 cmp	 eax, edi
  0005a	74 0a		 je	 SHORT $L113851

; 285  : 	{
; 286  : 		delete [] m_pPartIterator;

  0005c	50		 push	 eax
  0005d	e8 00 00 00 00	 call	 ??_V@YAXPAX@Z		; operator delete[]
  00062	59		 pop	 ecx

; 287  : 		m_pPartIterator = NULL;

  00063	89 7e 1c	 mov	 DWORD PTR [esi+28], edi
$L113851:
  00066	5f		 pop	 edi

; 288  : 	}
; 289  : 
; 290  : 	m_listLRU.clear();

  00067	8d 4e 18	 lea	 ecx, DWORD PTR [esi+24]
  0006a	5e		 pop	 esi
  0006b	e9 00 00 00 00	 jmp	 ?clear@?$_List_base@GV?$allocator@G@_STL@@@_STL@@QAEXXZ ; _STL::_List_base<unsigned short,_STL::allocator<unsigned short> >::clear
?Release@?$CPartManager@GGPAVCSpriteSurface@@@@QAEXXZ ENDP ; CPartManager<unsigned short,unsigned short,CSpriteSurface *>::Release
_TEXT	ENDS
PUBLIC	?GetLRU@?$CPartManager@GGPAVCSpriteSurface@@@@IBEGXZ ; CPartManager<unsigned short,unsigned short,CSpriteSurface *>::GetLRU
; Function compile flags: /Ogsy
;	COMDAT ?GetLRU@?$CPartManager@GGPAVCSpriteSurface@@@@IBEGXZ
_TEXT	SEGMENT
?GetLRU@?$CPartManager@GGPAVCSpriteSurface@@@@IBEGXZ PROC NEAR ; CPartManager<unsigned short,unsigned short,CSpriteSurface *>::GetLRU, COMDAT
; _this$ = ecx

; 533  : 	//---------------------------------------------------
; 534  : 	// m_nPart      ...
; 535  : 	//   PartIndex .
; 536  : 	//---------------------------------------------------
; 537  : 	if (m_nPartUsed < m_nPart)

  00000	66 8b 41 0a	 mov	 ax, WORD PTR [ecx+10]
  00004	66 3b 41 08	 cmp	 ax, WORD PTR [ecx+8]

; 538  : 	{	
; 539  : 		//DEBUG_ADD_FORMAT("[LRU] %d", m_nPartUsed);
; 540  : 		return m_nPartUsed;		

  00008	72 0a		 jb	 SHORT $L113858

; 541  : 	}
; 542  : 
; 543  : 	//---------------------------------------------------
; 544  : 	// LRU list tail LRU index.
; 545  : 	//---------------------------------------------------
; 546  : 	PartIndexType leastTimeIndex = *m_listLRU.rbegin();

  0000a	8b 49 18	 mov	 ecx, DWORD PTR [ecx+24]

; 547  : 
; 548  : 
; 549  : 	//---------------------------------------------------
; 550  : 	// [ TEST CODE ]
; 551  : 	/*
; 552  : 	PARTINDEX_LIST::const_iterator	iIndex = m_listLRU.begin();
; 553  : 
; 554  : 	char str[1024] = "[GetLRU] ";
; 555  : 	char str2[256];
; 556  : 	while (iIndex != m_listLRU.end())
; 557  : 	{
; 558  : 		sprintf(str2, "%d ", *iIndex);
; 559  : 		strcat(str, str2);
; 560  : 
; 561  : 		iIndex++;
; 562  : 	}
; 563  : 	DEBUG_ADD(str);
; 564  : 	*/
; 565  : 	//---------------------------------------------------
; 566  : 
; 567  : 	//---------------------------------------------------
; 568  : 	//       .
; 569  : 	//---------------------------------------------------
; 570  : 	/*
; 571  : 	PartIndexType leastTimeIndex = 0;
; 572  : 
; 573  : 	for (int i=1; i<m_nPart; i++)
; 574  : 	{
; 575  : 		//   
; 576  : 		if (m_pLastTime[i] < m_pLastTime[leastTimeIndex])
; 577  : 		{
; 578  : 			leastTimeIndex = i;
; 579  : 		}
; 580  : 	}
; 581  : 	*/
; 582  : 
; 583  : 	//---------------------------------------------------
; 584  : 	//     PartIndex
; 585  : 	//---------------------------------------------------
; 586  : 	//DEBUG_ADD_FORMAT("[LRU] %d", leastTimeIndex);
; 587  : 	return leastTimeIndex;

  0000d	8b 41 04	 mov	 eax, DWORD PTR [ecx+4]
  00010	66 8b 40 08	 mov	 ax, WORD PTR [eax+8]
$L113858:

; 588  : }

  00014	c3		 ret	 0
?GetLRU@?$CPartManager@GGPAVCSpriteSurface@@@@IBEGXZ ENDP ; CPartManager<unsigned short,unsigned short,CSpriteSurface *>::GetLRU
_TEXT	ENDS
PUBLIC	??$__uninitialized_copy@PADPAD@_STL@@YAPADPAD00ABU__true_type@0@@Z ; _STL::__uninitialized_copy<char *,char *>
; Function compile flags: /Ogsy
; File c:\stlport-4.6.1\stlport\stl\_uninitialized.h
;	COMDAT ??$__uninitialized_copy@PADPAD@_STL@@YAPADPAD00ABU__true_type@0@@Z
_TEXT	SEGMENT
___first$ = 8						; size = 4
___last$ = 12						; size = 4
___result$ = 16						; size = 4
___formal$ = 20						; size = 4
??$__uninitialized_copy@PADPAD@_STL@@YAPADPAD00ABU__true_type@0@@Z PROC NEAR ; _STL::__uninitialized_copy<char *,char *>, COMDAT

; 55   :   return __copy_aux(__first, __last, __result, _BothPtrType< _InputIter, _ForwardIter> :: _Ret());

  00000	ff 74 24 0c	 push	 DWORD PTR ___result$[esp-4]
  00004	ff 74 24 0c	 push	 DWORD PTR ___last$[esp]
  00008	ff 74 24 0c	 push	 DWORD PTR ___first$[esp+4]
  0000c	e8 00 00 00 00	 call	 ?__copy_trivial@_STL@@YAPAXPBX0PAX@Z ; _STL::__copy_trivial
  00011	83 c4 0c	 add	 esp, 12			; 0000000cH

; 56   : }

  00014	c3		 ret	 0
??$__uninitialized_copy@PADPAD@_STL@@YAPADPAD00ABU__true_type@0@@Z ENDP ; _STL::__uninitialized_copy<char *,char *>
_TEXT	ENDS
PUBLIC	?_M_deallocate_block@?$_String_base@DV?$allocator@D@_STL@@@_STL@@QAEXXZ ; _STL::_String_base<char,_STL::allocator<char> >::_M_deallocate_block
; Function compile flags: /Ogsy
; File c:\stlport-4.6.1\stlport\stl\_string.h
;	COMDAT ?_M_deallocate_block@?$_String_base@DV?$allocator@D@_STL@@@_STL@@QAEXXZ
_TEXT	SEGMENT
?_M_deallocate_block@?$_String_base@DV?$allocator@D@_STL@@@_STL@@QAEXXZ PROC NEAR ; _STL::_String_base<char,_STL::allocator<char> >::_M_deallocate_block, COMDAT
; _this$ = ecx

; 124  :     { _M_end_of_storage.deallocate(_M_start, _M_end_of_storage._M_data - _M_start); }

  00000	8b c1		 mov	 eax, ecx
  00002	8d 48 08	 lea	 ecx, DWORD PTR [eax+8]
  00005	8b 00		 mov	 eax, DWORD PTR [eax]
  00007	8b 11		 mov	 edx, DWORD PTR [ecx]
  00009	2b d0		 sub	 edx, eax
  0000b	52		 push	 edx
  0000c	50		 push	 eax
  0000d	e8 00 00 00 00	 call	 ?deallocate@?$allocator@D@_STL@@QAEXPADI@Z ; _STL::allocator<char>::deallocate
  00012	c3		 ret	 0
?_M_deallocate_block@?$_String_base@DV?$allocator@D@_STL@@@_STL@@QAEXXZ ENDP ; _STL::_String_base<char,_STL::allocator<char> >::_M_deallocate_block
_TEXT	ENDS
PUBLIC	??1?$basic_filebuf@DV?$char_traits@D@_STL@@@_STL@@UAE@XZ ; _STL::basic_filebuf<char,_STL::char_traits<char> >::~basic_filebuf<char,_STL::char_traits<char> >
;	COMDAT xdata$x
; File c:\stlport-4.6.1\stlport\stl\_fstream.c
xdata$x	SEGMENT
$T116626 DD	0ffffffffH
	DD	FLAT:$L116622
$T116624 DD	019930520H
	DD	01H
	DD	FLAT:$T116626
	DD	2 DUP(00H)
	DD	2 DUP(00H)
; Function compile flags: /Ogsy
xdata$x	ENDS
;	COMDAT ??1?$basic_filebuf@DV?$char_traits@D@_STL@@@_STL@@UAE@XZ
_TEXT	SEGMENT
_this$ = -16						; size = 4
__$EHRec$ = -12						; size = 12
??1?$basic_filebuf@DV?$char_traits@D@_STL@@@_STL@@UAE@XZ PROC NEAR ; _STL::basic_filebuf<char,_STL::char_traits<char> >::~basic_filebuf<char,_STL::char_traits<char> >, COMDAT
; _this$ = ecx

; 65   : basic_filebuf<_CharT, _Traits>::~basic_filebuf() {

  00000	b8 00 00 00 00	 mov	 eax, __ehhandler$??1?$basic_filebuf@DV?$char_traits@D@_STL@@@_STL@@UAE@XZ
  00005	e8 00 00 00 00	 call	 __EH_prolog
  0000a	51		 push	 ecx
  0000b	56		 push	 esi
  0000c	8b f1		 mov	 esi, ecx
  0000e	89 75 f0	 mov	 DWORD PTR _this$[ebp], esi
  00011	c7 06 00 00 00
	00		 mov	 DWORD PTR [esi], OFFSET FLAT:??_7?$basic_filebuf@DV?$char_traits@D@_STL@@@_STL@@6B@
  00017	83 65 fc 00	 and	 DWORD PTR __$EHRec$[ebp+8], 0

; 66   :   this->close();

  0001b	e8 00 00 00 00	 call	 ?close@?$basic_filebuf@DV?$char_traits@D@_STL@@@_STL@@QAEPAV12@XZ ; _STL::basic_filebuf<char,_STL::char_traits<char> >::close

; 67   :   _M_deallocate_buffers();

  00020	8b ce		 mov	 ecx, esi
  00022	e8 00 00 00 00	 call	 ?_M_deallocate_buffers@?$basic_filebuf@DV?$char_traits@D@_STL@@@_STL@@AAEXXZ ; _STL::basic_filebuf<char,_STL::char_traits<char> >::_M_deallocate_buffers

; 68   : }

  00027	83 4d fc ff	 or	 DWORD PTR __$EHRec$[ebp+8], -1
  0002b	8b ce		 mov	 ecx, esi
  0002d	e8 00 00 00 00	 call	 ??1?$basic_streambuf@DV?$char_traits@D@_STL@@@_STL@@UAE@XZ ; _STL::basic_streambuf<char,_STL::char_traits<char> >::~basic_streambuf<char,_STL::char_traits<char> >
  00032	8b 4d f4	 mov	 ecx, DWORD PTR __$EHRec$[ebp]
  00035	5e		 pop	 esi
  00036	64 89 0d 00 00
	00 00		 mov	 DWORD PTR fs:__except_list, ecx
  0003d	c9		 leave
  0003e	c3		 ret	 0
_TEXT	ENDS
;	COMDAT text$x
text$x	SEGMENT
$L116622:
  00000	8b 4d f0	 mov	 ecx, DWORD PTR _this$[ebp]
  00003	e9 00 00 00 00	 jmp	 ??1?$basic_streambuf@DV?$char_traits@D@_STL@@@_STL@@UAE@XZ ; _STL::basic_streambuf<char,_STL::char_traits<char> >::~basic_streambuf<char,_STL::char_traits<char> >
__ehhandler$??1?$basic_filebuf@DV?$char_traits@D@_STL@@@_STL@@UAE@XZ:
  00008	b8 00 00 00 00	 mov	 eax, OFFSET FLAT:$T116624
  0000d	e9 00 00 00 00	 jmp	 ___CxxFrameHandler
text$x	ENDS
??1?$basic_filebuf@DV?$char_traits@D@_STL@@@_STL@@UAE@XZ ENDP ; _STL::basic_filebuf<char,_STL::char_traits<char> >::~basic_filebuf<char,_STL::char_traits<char> >
PUBLIC	?_M_switch_to_output_mode@?$basic_filebuf@DV?$char_traits@D@_STL@@@_STL@@AAE_NXZ ; _STL::basic_filebuf<char,_STL::char_traits<char> >::_M_switch_to_output_mode
PUBLIC	?_M_output_error@?$basic_filebuf@DV?$char_traits@D@_STL@@@_STL@@AAEHXZ ; _STL::basic_filebuf<char,_STL::char_traits<char> >::_M_output_error
; Function compile flags: /Ogsy
;	COMDAT ?overflow@?$basic_filebuf@DV?$char_traits@D@_STL@@@_STL@@MAEHH@Z
_TEXT	SEGMENT
___enext$98795 = -12					; size = 4
___iend$ = -8						; size = 4
___inext$98794 = -4					; size = 4
___c$ = 8						; size = 4
?overflow@?$basic_filebuf@DV?$char_traits@D@_STL@@@_STL@@MAEHH@Z PROC NEAR ; _STL::basic_filebuf<char,_STL::char_traits<char> >::overflow, COMDAT
; _this$ = ecx

; 213  : {

  00000	55		 push	 ebp
  00001	8b ec		 mov	 ebp, esp
  00003	83 ec 0c	 sub	 esp, 12			; 0000000cH
  00006	56		 push	 esi
  00007	8b f1		 mov	 esi, ecx

; 214  :   // Switch to output mode, if necessary.
; 215  :   if (!_M_in_output_mode)

  00009	80 7e 68 00	 cmp	 BYTE PTR [esi+104], 0
  0000d	75 11		 jne	 SHORT $L98786

; 216  :     if (!_M_switch_to_output_mode())

  0000f	e8 00 00 00 00	 call	 ?_M_switch_to_output_mode@?$basic_filebuf@DV?$char_traits@D@_STL@@@_STL@@AAE_NXZ ; _STL::basic_filebuf<char,_STL::char_traits<char> >::_M_switch_to_output_mode
  00014	84 c0		 test	 al, al
  00016	75 08		 jne	 SHORT $L98786

; 217  :       return traits_type::eof();

  00018	83 c8 ff	 or	 eax, -1
  0001b	e9 b1 00 00 00	 jmp	 $L98784
$L98786:

; 218  : 
; 219  :   _CharT* __ibegin = this->_M_int_buf;
; 220  :   _CharT* __iend   = this->pptr();
; 221  :   this->setp(_M_int_buf, _M_int_buf_EOS - 1);

  00020	8b 46 70	 mov	 eax, DWORD PTR [esi+112]
  00023	8b 4e 08	 mov	 ecx, DWORD PTR [esi+8]
  00026	8b 11		 mov	 edx, DWORD PTR [ecx]
  00028	48		 dec	 eax
  00029	57		 push	 edi
  0002a	8b 7e 6c	 mov	 edi, DWORD PTR [esi+108]
  0002d	2b c7		 sub	 eax, edi
  0002f	89 41 04	 mov	 DWORD PTR [ecx+4], eax

; 222  : 
; 223  :   // Put __c at the end of the internal buffer.
; 224  :   if (!traits_type::eq_int_type(__c, traits_type::eof()))

  00032	8b 45 08	 mov	 eax, DWORD PTR ___c$[ebp]
  00035	83 f8 ff	 cmp	 eax, -1
  00038	89 55 f8	 mov	 DWORD PTR ___iend$[ebp], edx
  0003b	89 79 08	 mov	 DWORD PTR [ecx+8], edi
  0003e	89 39		 mov	 DWORD PTR [ecx], edi
  00040	74 06		 je	 SHORT $L116798

; 225  :     *__iend++ = __c;

  00042	88 02		 mov	 BYTE PTR [edx], al
  00044	42		 inc	 edx
  00045	89 55 f8	 mov	 DWORD PTR ___iend$[ebp], edx
$L116798:

; 226  : 
; 227  :   // For variable-width encodings, output may take more than one pass.
; 228  :   while (__ibegin != __iend) {

  00048	3b fa		 cmp	 edi, edx
  0004a	53		 push	 ebx
  0004b	74 77		 je	 SHORT $L98793
$L98792:

; 229  :     const _CharT* __inext = __ibegin;
; 230  :     char* __enext         = _M_ext_buf;

  0004d	8b 46 74	 mov	 eax, DWORD PTR [esi+116]

; 231  :     typename _Codecvt::result __status
; 232  :       = _M_codecvt->out(_M_state, __ibegin, __iend, __inext,
; 233  :                                   _M_ext_buf, _M_ext_buf_EOS, __enext);

  00050	8b 8e a0 00 00
	00		 mov	 ecx, DWORD PTR [esi+160]
  00056	8d 5d f4	 lea	 ebx, DWORD PTR ___enext$98795[ebp]
  00059	53		 push	 ebx
  0005a	ff 76 78	 push	 DWORD PTR [esi+120]
  0005d	8b 5d f8	 mov	 ebx, DWORD PTR ___iend$[ebp]
  00060	50		 push	 eax
  00061	89 45 f4	 mov	 DWORD PTR ___enext$98795[ebp], eax
  00064	8d 45 fc	 lea	 eax, DWORD PTR ___inext$98794[ebp]
  00067	50		 push	 eax
  00068	53		 push	 ebx
  00069	57		 push	 edi
  0006a	8d 86 84 00 00
	00		 lea	 eax, DWORD PTR [esi+132]
  00070	89 7d fc	 mov	 DWORD PTR ___inext$98794[ebp], edi
  00073	8b 11		 mov	 edx, DWORD PTR [ecx]
  00075	50		 push	 eax
  00076	ff 52 04	 call	 DWORD PTR [edx+4]

; 234  :     if (__status == _Codecvt::noconv)

  00079	83 f8 03	 cmp	 eax, 3
  0007c	74 58		 je	 SHORT $L116799

; 238  : 
; 239  :     // For a constant-width encoding we know that the external buffer
; 240  :     // is large enough, so failure to consume the entire internal buffer
; 241  :     // or to produce the correct number of external characters, is an error.
; 242  :     // For a variable-width encoding, however, we require only that we 
; 243  :     // consume at least one internal character
; 244  :     else if (__status != _Codecvt::error && 
; 245  :              ((__inext == __iend && (__enext - _M_ext_buf == 
; 246  :                                      _M_width * (__iend - __ibegin))) ||
; 247  :               (!_M_constant_width && __inext != __ibegin))) {

  0007e	83 f8 02	 cmp	 eax, 2
  00081	74 63		 je	 SHORT $L116632
  00083	39 5d fc	 cmp	 DWORD PTR ___inext$98794[ebp], ebx
  00086	8b 45 f4	 mov	 eax, DWORD PTR ___enext$98795[ebp]
  00089	75 14		 jne	 SHORT $L98801
  0008b	8b cb		 mov	 ecx, ebx
  0008d	2b cf		 sub	 ecx, edi
  0008f	0f af 8e a4 00
	00 00		 imul	 ecx, DWORD PTR [esi+164]
  00096	8b d0		 mov	 edx, eax
  00098	2b 56 74	 sub	 edx, DWORD PTR [esi+116]
  0009b	3b d1		 cmp	 edx, ecx
  0009d	74 0b		 je	 SHORT $L98800
$L98801:
  0009f	80 7e 64 00	 cmp	 BYTE PTR [esi+100], 0
  000a3	75 41		 jne	 SHORT $L116632
  000a5	39 7d fc	 cmp	 DWORD PTR ___inext$98794[ebp], edi
  000a8	74 3c		 je	 SHORT $L116632
$L98800:

; 248  :         // We successfully converted part or all of the internal buffer.
; 249  :       ptrdiff_t __n = __enext - _M_ext_buf;

  000aa	8b 4e 74	 mov	 ecx, DWORD PTR [esi+116]
  000ad	2b c1		 sub	 eax, ecx

; 250  :       if (_M_write(_M_ext_buf, __n))

  000af	50		 push	 eax
  000b0	51		 push	 ecx
  000b1	8d 4e 54	 lea	 ecx, DWORD PTR [esi+84]
  000b4	e8 00 00 00 00	 call	 ?_M_write@_Filebuf_base@_STL@@QAE_NPADH@Z ; _STL::_Filebuf_base::_M_write
  000b9	84 c0		 test	 al, al
  000bb	74 29		 je	 SHORT $L116632

; 251  :         __ibegin += __inext - __ibegin;

  000bd	8b 7d fc	 mov	 edi, DWORD PTR ___inext$98794[ebp]
  000c0	3b fb		 cmp	 edi, ebx
  000c2	75 89		 jne	 SHORT $L98792
$L98793:

; 252  :       else
; 253  :         return _M_output_error();
; 254  :     }
; 255  :     else
; 256  :       return _M_output_error();
; 257  :   }
; 258  : 
; 259  :   return traits_type::not_eof(__c);

  000c4	8b 45 08	 mov	 eax, DWORD PTR ___c$[ebp]
  000c7	40		 inc	 eax
  000c8	f7 d8		 neg	 eax
  000ca	1b c0		 sbb	 eax, eax
  000cc	23 45 08	 and	 eax, DWORD PTR ___c$[ebp]
$L116802:
  000cf	5b		 pop	 ebx
  000d0	5f		 pop	 edi
$L98784:
  000d1	5e		 pop	 esi

; 260  : }

  000d2	c9		 leave
  000d3	c2 04 00	 ret	 4
$L116799:

; 235  :       return _Noconv_output<_Traits>::_M_doit(this, __ibegin, __iend)
; 236  :         ? traits_type::not_eof(__c)
; 237  :         : _M_output_error();

  000d6	2b df		 sub	 ebx, edi
  000d8	53		 push	 ebx
  000d9	57		 push	 edi
  000da	8d 4e 54	 lea	 ecx, DWORD PTR [esi+84]
  000dd	e8 00 00 00 00	 call	 ?_M_write@_Filebuf_base@_STL@@QAE_NPADH@Z ; _STL::_Filebuf_base::_M_write
  000e2	84 c0		 test	 al, al
  000e4	75 de		 jne	 SHORT $L98793
$L116632:
  000e6	8b ce		 mov	 ecx, esi
  000e8	e8 00 00 00 00	 call	 ?_M_output_error@?$basic_filebuf@DV?$char_traits@D@_STL@@@_STL@@AAEHXZ ; _STL::basic_filebuf<char,_STL::char_traits<char> >::_M_output_error
  000ed	eb e0		 jmp	 SHORT $L116802
?overflow@?$basic_filebuf@DV?$char_traits@D@_STL@@@_STL@@MAEHH@Z ENDP ; _STL::basic_filebuf<char,_STL::char_traits<char> >::overflow
; Function compile flags: /Ogsy
_TEXT	ENDS
;	COMDAT ?_M_output_error@?$basic_filebuf@DV?$char_traits@D@_STL@@@_STL@@AAEHXZ
_TEXT	SEGMENT
?_M_output_error@?$basic_filebuf@DV?$char_traits@D@_STL@@@_STL@@AAEHXZ PROC NEAR ; _STL::basic_filebuf<char,_STL::char_traits<char> >::_M_output_error, COMDAT
; _this$ = ecx

; 591  :   _M_in_output_mode = false;

  00000	33 c0		 xor	 eax, eax
  00002	88 41 68	 mov	 BYTE PTR [ecx+104], al

; 592  :   _M_in_input_mode = false;

  00005	88 41 67	 mov	 BYTE PTR [ecx+103], al

; 593  :   _M_in_error_mode = true;

  00008	c6 41 69 01	 mov	 BYTE PTR [ecx+105], 1

; 594  :   this->setp(0, 0);

  0000c	8b 49 08	 mov	 ecx, DWORD PTR [ecx+8]
  0000f	89 41 08	 mov	 DWORD PTR [ecx+8], eax
  00012	89 01		 mov	 DWORD PTR [ecx], eax
  00014	89 41 04	 mov	 DWORD PTR [ecx+4], eax

; 595  :   return traits_type::eof();

  00017	83 c8 ff	 or	 eax, -1

; 596  : }

  0001a	c3		 ret	 0
?_M_output_error@?$basic_filebuf@DV?$char_traits@D@_STL@@@_STL@@AAEHXZ ENDP ; _STL::basic_filebuf<char,_STL::char_traits<char> >::_M_output_error
_TEXT	ENDS
EXTRN	?_M_page_size@_Filebuf_base@_STL@@1IA:DWORD	; _STL::_Filebuf_base::_M_page_size
; Function compile flags: /Ogsy
;	COMDAT ?_M_switch_to_output_mode@?$basic_filebuf@DV?$char_traits@D@_STL@@@_STL@@AAE_NXZ
_TEXT	SEGMENT
?_M_switch_to_output_mode@?$basic_filebuf@DV?$char_traits@D@_STL@@@_STL@@AAE_NXZ PROC NEAR ; _STL::basic_filebuf<char,_STL::char_traits<char> >::_M_switch_to_output_mode, COMDAT
; _this$ = ecx

; 471  : {

  00000	53		 push	 ebx
  00001	56		 push	 esi
  00002	8b f1		 mov	 esi, ecx

; 472  :   if (this->is_open() && (_M_base.__o_mode() & (int)ios_base::out) &&
; 473  :       _M_in_input_mode == 0 && _M_in_error_mode == 0) {

  00004	33 db		 xor	 ebx, ebx
  00006	38 5e 60	 cmp	 BYTE PTR [esi+96], bl
  00009	74 5d		 je	 SHORT $L112108
  0000b	f6 46 5c 10	 test	 BYTE PTR [esi+92], 16	; 00000010H
  0000f	74 57		 je	 SHORT $L112108
  00011	38 5e 67	 cmp	 BYTE PTR [esi+103], bl
  00014	75 52		 jne	 SHORT $L112108
  00016	38 5e 69	 cmp	 BYTE PTR [esi+105], bl
  00019	75 4d		 jne	 SHORT $L112108

; 474  : 
; 475  :     if (!_M_int_buf && !_M_allocate_buffers())

  0001b	39 5e 6c	 cmp	 DWORD PTR [esi+108], ebx
  0001e	75 20		 jne	 SHORT $L112109
  00020	8b 0d 00 00 00
	00		 mov	 ecx, DWORD PTR ?_M_page_size@_Filebuf_base@_STL@@1IA ; _STL::_Filebuf_base::_M_page_size
  00026	8d 81 ff 0f 00
	00		 lea	 eax, DWORD PTR [ecx+4095]
  0002c	33 d2		 xor	 edx, edx
  0002e	f7 f1		 div	 ecx
  00030	0f af c1	 imul	 eax, ecx
  00033	50		 push	 eax
  00034	53		 push	 ebx
  00035	8b ce		 mov	 ecx, esi
  00037	e8 00 00 00 00	 call	 ?_M_allocate_buffers@?$basic_filebuf@DV?$char_traits@D@_STL@@@_STL@@AAE_NPADH@Z ; _STL::basic_filebuf<char,_STL::char_traits<char> >::_M_allocate_buffers
  0003c	84 c0		 test	 al, al

; 476  :       return false;

  0003e	74 28		 je	 SHORT $L112108
$L112109:

; 477  : 
; 478  :     // In append mode, every write does an implicit seek to the end
; 479  :     // of the file.  Whenever leaving output mode, the end of file
; 480  :     // get put in the initial shift state.
; 481  :     if (_M_base.__o_mode() & ios_base::app)

  00040	f6 46 5c 01	 test	 BYTE PTR [esi+92], 1
  00044	74 06		 je	 SHORT $L112110

; 482  :       _M_state = _State_type();

  00046	89 9e 84 00 00
	00		 mov	 DWORD PTR [esi+132], ebx
$L112110:

; 483  : 
; 484  :     this->setp(_M_int_buf, _M_int_buf_EOS - 1);

  0004c	8b 46 70	 mov	 eax, DWORD PTR [esi+112]
  0004f	8b 56 6c	 mov	 edx, DWORD PTR [esi+108]
  00052	8b 4e 08	 mov	 ecx, DWORD PTR [esi+8]
  00055	48		 dec	 eax
  00056	2b c2		 sub	 eax, edx
  00058	89 41 04	 mov	 DWORD PTR [ecx+4], eax
  0005b	89 51 08	 mov	 DWORD PTR [ecx+8], edx
  0005e	89 11		 mov	 DWORD PTR [ecx], edx

; 485  :     _M_in_output_mode = true;

  00060	c6 46 68 01	 mov	 BYTE PTR [esi+104], 1

; 486  : 
; 487  :     return true;

  00064	b0 01		 mov	 al, 1
  00066	eb 02		 jmp	 SHORT $L112111
$L112108:

; 488  :   }
; 489  :   else
; 490  :     return false;

  00068	32 c0		 xor	 al, al
$L112111:
  0006a	5e		 pop	 esi
  0006b	5b		 pop	 ebx

; 491  : }

  0006c	c3		 ret	 0
?_M_switch_to_output_mode@?$basic_filebuf@DV?$char_traits@D@_STL@@@_STL@@AAE_NXZ ENDP ; _STL::basic_filebuf<char,_STL::char_traits<char> >::_M_switch_to_output_mode
_TEXT	ENDS
PUBLIC	?_M_seek_return@?$basic_filebuf@DV?$char_traits@D@_STL@@@_STL@@AAE?AV?$fpos@H@2@JH@Z ; _STL::basic_filebuf<char,_STL::char_traits<char> >::_M_seek_return
PUBLIC	?_M_seek_init@?$basic_filebuf@DV?$char_traits@D@_STL@@@_STL@@AAE_N_N@Z ; _STL::basic_filebuf<char,_STL::char_traits<char> >::_M_seek_init
PUBLIC	??1?$_Filebuf_Tmp_Buf@D@_STL@@QAE@XZ		; _STL::_Filebuf_Tmp_Buf<char>::~_Filebuf_Tmp_Buf<char>
EXTRN	??_U@YAPAXI@Z:NEAR				; operator new[]
;	COMDAT xdata$x
; File c:\stlport-4.6.1\stlport\stl\char_traits.h
xdata$x	SEGMENT
$T117159 DD	0ffffffffH
	DD	FLAT:$L116886
$T117133 DD	019930520H
	DD	01H
	DD	FLAT:$T117159
	DD	2 DUP(00H)
	DD	2 DUP(00H)
; Function compile flags: /Ogsy
; File c:\stlport-4.6.1\stlport\stl\_fstream.c
xdata$x	ENDS
;	COMDAT ?seekoff@?$basic_filebuf@DV?$char_traits@D@_STL@@@_STL@@MAE?AV?$fpos@H@2@JHH@Z
_TEXT	SEGMENT
___dummy$98878 = -28					; size = 4
___tmp_state$98860 = -24				; size = 4
___state$98858 = -20					; size = 4
___inext$98877 = -16					; size = 4
__$EHRec$ = -12						; size = 12
___$ReturnUdt$ = 8					; size = 4
___buf$98875 = 12					; size = 4
___off$ = 12						; size = 4
tv738 = 16						; size = 4
___cur$98916 = 16					; size = 4
___whence$ = 16						; size = 4
___formal$ = 20						; size = 4
?seekoff@?$basic_filebuf@DV?$char_traits@D@_STL@@@_STL@@MAE?AV?$fpos@H@2@JHH@Z PROC NEAR ; _STL::basic_filebuf<char,_STL::char_traits<char> >::seekoff, COMDAT
; _this$ = ecx

; 289  : {

  00000	b8 00 00 00 00	 mov	 eax, __ehhandler$?seekoff@?$basic_filebuf@DV?$char_traits@D@_STL@@@_STL@@MAE?AV?$fpos@H@2@JHH@Z
  00005	e8 00 00 00 00	 call	 __EH_prolog
  0000a	83 ec 10	 sub	 esp, 16			; 00000010H
  0000d	53		 push	 ebx
  0000e	56		 push	 esi
  0000f	8b f1		 mov	 esi, ecx

; 290  :   if (this->is_open() &&
; 291  :       (__off == 0 || (_M_constant_width && this->_M_base._M_in_binary_mode()))) {

  00011	80 7e 60 00	 cmp	 BYTE PTR [esi+96], 0
  00015	57		 push	 edi
  00016	0f 84 64 02 00
	00		 je	 $L117146
  0001c	8b 5d 0c	 mov	 ebx, DWORD PTR ___off$[ebp]
  0001f	85 db		 test	 ebx, ebx
  00021	8b 7d 10	 mov	 edi, DWORD PTR ___whence$[ebp]
  00024	74 55		 je	 SHORT $L117143
  00026	80 7e 64 00	 cmp	 BYTE PTR [esi+100], 0
  0002a	0f 84 50 02 00
	00		 je	 $L117146
  00030	8b 46 5c	 mov	 eax, DWORD PTR [esi+92]
  00033	c1 e8 02	 shr	 eax, 2
  00036	a8 01		 test	 al, 1
  00038	0f 84 42 02 00
	00		 je	 $L117146
$L116883:

; 292  : 
; 293  :     if (!_M_seek_init(__off != 0 || __whence != ios_base::cur))

  0003e	33 c0		 xor	 eax, eax
  00040	b0 01		 mov	 al, 1
$L116884:
  00042	50		 push	 eax
  00043	8b ce		 mov	 ecx, esi
  00045	e8 00 00 00 00	 call	 ?_M_seek_init@?$basic_filebuf@DV?$char_traits@D@_STL@@@_STL@@AAE_N_N@Z ; _STL::basic_filebuf<char,_STL::char_traits<char> >::_M_seek_init
  0004a	84 c0		 test	 al, al

; 294  :       return pos_type(-1);

  0004c	0f 84 2e 02 00
	00		 je	 $L117146

; 295  : 
; 296  :     // Seek to beginning or end, regardless of whether we're in input mode.
; 297  :     if (__whence == ios_base::beg || __whence == ios_base::end)

  00052	83 ff 01	 cmp	 edi, 1
  00055	0f 84 00 02 00
	00		 je	 $L98831
  0005b	83 ff 04	 cmp	 edi, 4
  0005e	0f 84 f7 01 00
	00		 je	 $L98831

; 300  : 
; 301  :     // Seek relative to current position.  Complicated if we're in input mode.
; 302  :     else if (__whence == ios_base::cur) {

  00064	83 ff 02	 cmp	 edi, 2
  00067	0f 85 13 02 00
	00		 jne	 $L117146

; 303  : 
; 304  :       if (!_M_in_input_mode)

  0006d	80 7e 67 00	 cmp	 BYTE PTR [esi+103], 0
  00071	75 11		 jne	 SHORT $L98835

; 305  :         return _M_seek_return(_M_base._M_seek(_M_width * __off, __whence),
; 306  :                               _State_type());

  00073	6a 00		 push	 0
  00075	57		 push	 edi
  00076	e9 e3 01 00 00	 jmp	 $L117157
$L117143:

; 292  : 
; 293  :     if (!_M_seek_init(__off != 0 || __whence != ios_base::cur))

  0007b	83 ff 02	 cmp	 edi, 2
  0007e	75 be		 jne	 SHORT $L116883
  00080	32 c0		 xor	 al, al
  00082	eb be		 jmp	 SHORT $L116884
$L98835:

; 307  :       else if (_M_mmap_base != 0) {

  00084	8b 86 8c 00 00
	00		 mov	 eax, DWORD PTR [esi+140]
  0008a	85 c0		 test	 eax, eax

; 308  :         // __off is relative to gptr().  We need to do a bit of arithmetic
; 309  :         // to get an offset relative to the external file pointer.
; 310  :         streamoff __adjust = _M_mmap_len - (this->gptr() - (_CharT*) _M_mmap_base);

  0008c	8b 4e 04	 mov	 ecx, DWORD PTR [esi+4]
  0008f	74 18		 je	 SHORT $L98838
  00091	8b be 90 00 00
	00		 mov	 edi, DWORD PTR [esi+144]
  00097	2b 39		 sub	 edi, DWORD PTR [ecx]
  00099	03 f8		 add	 edi, eax
  0009b	eb 5a		 jmp	 SHORT $L117158
$L98850:

; 311  : 
; 312  :         // if __off == 0, we do not need to exit input mode and to shift file pointer
; 313  :         if (__off == 0) {
; 314  :           return pos_type(_M_base._M_seek(0, ios_base::cur) - __adjust);
; 315  :         }
; 316  :         else
; 317  :           return _M_seek_return(_M_base._M_seek(__off - __adjust, ios_base::cur), _State_type());

  0009d	6a 00		 push	 0
  0009f	6a 02		 push	 2
  000a1	2b df		 sub	 ebx, edi
  000a3	53		 push	 ebx
  000a4	e9 c2 01 00 00	 jmp	 $L117152
$L98838:

; 318  :       }
; 319  :       else if (_M_constant_width) { // Get or set the position.  
; 320  : 
; 321  :         streamoff __iadj = _M_width * (this->gptr() - this->eback());

  000a9	8b 01		 mov	 eax, DWORD PTR [ecx]
  000ab	2b 41 08	 sub	 eax, DWORD PTR [ecx+8]
  000ae	80 7e 64 00	 cmp	 BYTE PTR [esi+100], 0

; 322  :         
; 323  :         // Compensate for offset relative to gptr versus offset relative
; 324  :         // to external pointer.  For a text-oriented stream, where the 
; 325  :         // compensation is more than just pointer arithmetic, we may get
; 326  :         // but not set the current position.
; 327  :         
; 328  :         if (__iadj <= _M_ext_buf_end - _M_ext_buf) {

  000b2	8b 56 74	 mov	 edx, DWORD PTR [esi+116]
  000b5	74 5d		 je	 SHORT $L98846
  000b7	0f af 86 a4 00
	00 00		 imul	 eax, DWORD PTR [esi+164]
  000be	8b 8e 80 00 00
	00		 mov	 ecx, DWORD PTR [esi+128]
  000c4	8b f9		 mov	 edi, ecx
  000c6	2b fa		 sub	 edi, edx
  000c8	3b c7		 cmp	 eax, edi
  000ca	0f 8f b0 01 00
	00		 jg	 $L117146

; 329  :           
; 330  :           streamoff __eadj =  _M_base._M_get_offset(_M_ext_buf + __iadj, _M_ext_buf_end);

  000d0	03 c2		 add	 eax, edx
  000d2	f6 46 5c 04	 test	 BYTE PTR [esi+92], 4
  000d6	74 06		 je	 SHORT $L116950
  000d8	2b c8		 sub	 ecx, eax
  000da	8b f9		 mov	 edi, ecx
  000dc	eb 19		 jmp	 SHORT $L117158
$L116950:
  000de	33 d2		 xor	 edx, edx
  000e0	3b c1		 cmp	 eax, ecx
  000e2	8b f8		 mov	 edi, eax
  000e4	74 0b		 je	 SHORT $L116957
$L116955:
  000e6	80 3f 0a	 cmp	 BYTE PTR [edi], 10	; 0000000aH
  000e9	75 01		 jne	 SHORT $L116956
  000eb	42		 inc	 edx
$L116956:
  000ec	47		 inc	 edi
  000ed	3b f9		 cmp	 edi, ecx
  000ef	75 f5		 jne	 SHORT $L116955
$L116957:
  000f1	2b d0		 sub	 edx, eax
  000f3	03 d1		 add	 edx, ecx
  000f5	8b fa		 mov	 edi, edx
$L117158:

; 331  : 
; 332  :           if (__off == 0) {

  000f7	85 db		 test	 ebx, ebx

; 333  :             return pos_type(_M_base._M_seek(0, ios_base::cur) - __eadj);

  000f9	8d 4e 54	 lea	 ecx, DWORD PTR [esi+84]
  000fc	75 9f		 jne	 SHORT $L98850
  000fe	6a 02		 push	 2
  00100	53		 push	 ebx
  00101	e8 00 00 00 00	 call	 ?_M_seek@_Filebuf_base@_STL@@QAEJJH@Z ; _STL::_Filebuf_base::_M_seek
  00106	8b c8		 mov	 ecx, eax
  00108	8b 45 08	 mov	 eax, DWORD PTR ___$ReturnUdt$[ebp]
  0010b	2b cf		 sub	 ecx, edi
  0010d	89 08		 mov	 DWORD PTR [eax], ecx
  0010f	e9 72 01 00 00	 jmp	 $L117151
$L98846:

; 334  :           }  else {
; 335  :             return _M_seek_return(_M_base._M_seek(__off - __eadj, ios_base::cur), _State_type());
; 336  :           }
; 337  :         }
; 338  :         else
; 339  :           return pos_type(-1);
; 340  :       }
; 341  :       else {                    // Get the position.  Encoding is var width.
; 342  :         // Get position in internal buffer.
; 343  :         ptrdiff_t __ipos = this->gptr() - this->eback();
; 344  :         
; 345  :         // Get corresponding position in external buffer.
; 346  :         _State_type __state = _M_state;
; 347  :         int __epos = _M_codecvt->length(__state, _M_ext_buf, _M_ext_buf_end,
; 348  :                                         __ipos);

  00114	8b 8e a0 00 00
	00		 mov	 ecx, DWORD PTR [esi+160]
  0011a	8b f8		 mov	 edi, eax
  0011c	8b 86 84 00 00
	00		 mov	 eax, DWORD PTR [esi+132]
  00122	89 45 ec	 mov	 DWORD PTR ___state$98858[ebp], eax
  00125	8b 86 80 00 00
	00		 mov	 eax, DWORD PTR [esi+128]
  0012b	8b 19		 mov	 ebx, DWORD PTR [ecx]
  0012d	57		 push	 edi
  0012e	50		 push	 eax
  0012f	52		 push	 edx
  00130	8d 45 ec	 lea	 eax, DWORD PTR ___state$98858[ebp]
  00133	50		 push	 eax
  00134	ff 53 18	 call	 DWORD PTR [ebx+24]
  00137	8b d8		 mov	 ebx, eax

; 349  : 
; 350  :         // Sanity check (expensive): make sure __epos is the right answer.
; 351  :         _State_type __tmp_state = _M_state;

  00139	8b 86 84 00 00
	00		 mov	 eax, DWORD PTR [esi+132]

; 352  :         _Filebuf_Tmp_Buf<_CharT> __buf(__ipos);

  0013f	57		 push	 edi
  00140	89 45 e8	 mov	 DWORD PTR ___tmp_state$98860[ebp], eax
  00143	e8 00 00 00 00	 call	 ??_U@YAPAXI@Z		; operator new[]
  00148	8b d0		 mov	 edx, eax
  0014a	59		 pop	 ecx
  0014b	89 55 0c	 mov	 DWORD PTR ___buf$98875[ebp], edx

; 353  :         _CharT* __ibegin = __buf._M_ptr;
; 354  :         _CharT* __inext  = __ibegin;
; 355  : 
; 356  :         const char* __dummy;
; 357  :         typename _Codecvt::result __status
; 358  :           = _M_codecvt->in(__tmp_state,
; 359  :                            _M_ext_buf, _M_ext_buf + __epos, __dummy,
; 360  :                            __ibegin, __ibegin + __ipos, __inext);

  0014e	8b 46 74	 mov	 eax, DWORD PTR [esi+116]
  00151	8b 8e a0 00 00
	00		 mov	 ecx, DWORD PTR [esi+160]
  00157	83 65 fc 00	 and	 DWORD PTR __$EHRec$[ebp+8], 0
  0015b	89 55 f0	 mov	 DWORD PTR ___inext$98877[ebp], edx
  0015e	03 d7		 add	 edx, edi
  00160	8b 39		 mov	 edi, DWORD PTR [ecx]
  00162	89 55 10	 mov	 DWORD PTR tv738[ebp], edx
  00165	8d 55 f0	 lea	 edx, DWORD PTR ___inext$98877[ebp]
  00168	52		 push	 edx
  00169	ff 75 10	 push	 DWORD PTR tv738[ebp]
  0016c	8d 55 e4	 lea	 edx, DWORD PTR ___dummy$98878[ebp]
  0016f	ff 75 0c	 push	 DWORD PTR ___buf$98875[ebp]
  00172	52		 push	 edx
  00173	8d 14 18	 lea	 edx, DWORD PTR [eax+ebx]
  00176	52		 push	 edx
  00177	50		 push	 eax
  00178	8d 45 e8	 lea	 eax, DWORD PTR ___tmp_state$98860[ebp]
  0017b	50		 push	 eax
  0017c	ff 57 08	 call	 DWORD PTR [edi+8]

; 361  :         if (__status != _Codecvt::error &&
; 362  :             (__status == _Codecvt::noconv ||
; 363  :              (__inext == __ibegin + __ipos &&
; 364  :               equal(this->gptr(), this->eback(), __ibegin,
; 365  :                     _Eq_traits<traits_type>())))) {

  0017f	83 f8 02	 cmp	 eax, 2
  00182	0f 84 bc 00 00
	00		 je	 $L117145
  00188	83 f8 03	 cmp	 eax, 3
  0018b	74 2d		 je	 SHORT $L117144
  0018d	8b 45 10	 mov	 eax, DWORD PTR tv738[ebp]
  00190	39 45 f0	 cmp	 DWORD PTR ___inext$98877[ebp], eax
  00193	0f 85 ab 00 00
	00		 jne	 $L117145
  00199	8b 46 04	 mov	 eax, DWORD PTR [esi+4]
  0019c	8b 78 08	 mov	 edi, DWORD PTR [eax+8]
  0019f	8b 00		 mov	 eax, DWORD PTR [eax]
  001a1	3b c7		 cmp	 eax, edi
  001a3	74 15		 je	 SHORT $L117144
  001a5	8b 4d 0c	 mov	 ecx, DWORD PTR ___buf$98875[ebp]
  001a8	2b c8		 sub	 ecx, eax
$L117038:
  001aa	8a 10		 mov	 dl, BYTE PTR [eax]
  001ac	3a 14 01	 cmp	 dl, BYTE PTR [ecx+eax]
  001af	0f 85 8f 00 00
	00		 jne	 $L117145
  001b5	40		 inc	 eax
  001b6	3b c7		 cmp	 eax, edi
  001b8	75 f0		 jne	 SHORT $L117038
$L117144:

; 366  :           // Get the current position (at the end of the external buffer),
; 367  :           // then adjust it.  Again, it might be a text-oriented stream.
; 368  :           streamoff __cur = _M_base._M_seek(0, ios_base::cur);

  001ba	6a 02		 push	 2
  001bc	6a 00		 push	 0
  001be	8d 4e 54	 lea	 ecx, DWORD PTR [esi+84]
  001c1	e8 00 00 00 00	 call	 ?_M_seek@_Filebuf_base@_STL@@QAEJJH@Z ; _STL::_Filebuf_base::_M_seek

; 369  :           streamoff __adj =
; 370  :             _M_base._M_get_offset(_M_ext_buf, _M_ext_buf + __epos) -
; 371  :             _M_base._M_get_offset(_M_ext_buf, _M_ext_buf_end);

  001c6	8b 4e 74	 mov	 ecx, DWORD PTR [esi+116]
  001c9	8b 7e 5c	 mov	 edi, DWORD PTR [esi+92]
  001cc	03 d9		 add	 ebx, ecx
  001ce	83 e7 04	 and	 edi, 4
  001d1	89 45 10	 mov	 DWORD PTR ___cur$98916[ebp], eax
  001d4	74 04		 je	 SHORT $L117062
  001d6	2b d9		 sub	 ebx, ecx
  001d8	eb 19		 jmp	 SHORT $L117063
$L117062:
  001da	33 d2		 xor	 edx, edx
  001dc	3b cb		 cmp	 ecx, ebx
  001de	8b c1		 mov	 eax, ecx
  001e0	74 0b		 je	 SHORT $L117069
$L117067:
  001e2	80 38 0a	 cmp	 BYTE PTR [eax], 10	; 0000000aH
  001e5	75 01		 jne	 SHORT $L117068
  001e7	42		 inc	 edx
$L117068:
  001e8	40		 inc	 eax
  001e9	3b c3		 cmp	 eax, ebx
  001eb	75 f5		 jne	 SHORT $L117067
$L117069:
  001ed	2b d1		 sub	 edx, ecx
  001ef	03 d3		 add	 edx, ebx
  001f1	8b da		 mov	 ebx, edx
$L117063:
  001f3	85 ff		 test	 edi, edi
  001f5	8b 8e 80 00 00
	00		 mov	 ecx, DWORD PTR [esi+128]
  001fb	8b 46 74	 mov	 eax, DWORD PTR [esi+116]
  001fe	74 04		 je	 SHORT $L117089
  00200	2b c8		 sub	 ecx, eax
  00202	eb 19		 jmp	 SHORT $L117090
$L117089:
  00204	33 d2		 xor	 edx, edx
  00206	3b c1		 cmp	 eax, ecx
  00208	8b f8		 mov	 edi, eax
  0020a	74 0b		 je	 SHORT $L117096
$L117094:
  0020c	80 3f 0a	 cmp	 BYTE PTR [edi], 10	; 0000000aH
  0020f	75 01		 jne	 SHORT $L117095
  00211	42		 inc	 edx
$L117095:
  00212	47		 inc	 edi
  00213	3b f9		 cmp	 edi, ecx
  00215	75 f5		 jne	 SHORT $L117094
$L117096:
  00217	2b d0		 sub	 edx, eax
  00219	03 d1		 add	 edx, ecx
  0021b	8b ca		 mov	 ecx, edx
$L117090:

; 372  :           if (__cur != -1 && __cur + __adj >= 0)

  0021d	8b 45 10	 mov	 eax, DWORD PTR ___cur$98916[ebp]
  00220	2b d9		 sub	 ebx, ecx
  00222	83 f8 ff	 cmp	 eax, -1
  00225	74 1d		 je	 SHORT $L117145
  00227	03 c3		 add	 eax, ebx
  00229	78 19		 js	 SHORT $L117145

; 373  :             return _M_seek_return(__cur + __adj, __state);

  0022b	ff 75 ec	 push	 DWORD PTR ___state$98858[ebp]
  0022e	8b ce		 mov	 ecx, esi
  00230	50		 push	 eax
  00231	ff 75 08	 push	 DWORD PTR ___$ReturnUdt$[ebp]
  00234	e8 00 00 00 00	 call	 ?_M_seek_return@?$basic_filebuf@DV?$char_traits@D@_STL@@@_STL@@AAE?AV?$fpos@H@2@JH@Z ; _STL::basic_filebuf<char,_STL::char_traits<char> >::_M_seek_return
  00239	ff 75 0c	 push	 DWORD PTR ___buf$98875[ebp]
  0023c	e8 00 00 00 00	 call	 ??_V@YAXPAX@Z		; operator delete[]
  00241	59		 pop	 ecx
  00242	eb 37		 jmp	 SHORT $L117156
$L117145:

; 374  :           else
; 375  :             return pos_type(-1);
; 376  :         }
; 377  :         else                    // We failed the sanity check.
; 378  :           return pos_type(-1);

  00244	8b 75 08	 mov	 esi, DWORD PTR ___$ReturnUdt$[ebp]
  00247	ff 75 0c	 push	 DWORD PTR ___buf$98875[ebp]
  0024a	83 0e ff	 or	 DWORD PTR [esi], -1
  0024d	83 66 04 00	 and	 DWORD PTR [esi+4], 0
  00251	e8 00 00 00 00	 call	 ??_V@YAXPAX@Z		; operator delete[]
  00256	59		 pop	 ecx
  00257	8b c6		 mov	 eax, esi

; 379  :       }
; 380  :     }
; 381  :     else                        // Unrecognized value for __whence.
; 382  :       return pos_type(-1);

  00259	eb 2f		 jmp	 SHORT $L98926
$L98831:

; 298  :       return _M_seek_return(_M_base._M_seek(_M_width * __off, __whence),
; 299  :                             _State_type());

  0025b	6a 00		 push	 0
  0025d	57		 push	 edi
$L117157:
  0025e	8b 86 a4 00 00
	00		 mov	 eax, DWORD PTR [esi+164]
  00264	0f af c3	 imul	 eax, ebx
  00267	50		 push	 eax
  00268	8d 4e 54	 lea	 ecx, DWORD PTR [esi+84]
$L117152:
  0026b	e8 00 00 00 00	 call	 ?_M_seek@_Filebuf_base@_STL@@QAEJJH@Z ; _STL::_Filebuf_base::_M_seek
  00270	50		 push	 eax
  00271	ff 75 08	 push	 DWORD PTR ___$ReturnUdt$[ebp]
  00274	8b ce		 mov	 ecx, esi
  00276	e8 00 00 00 00	 call	 ?_M_seek_return@?$basic_filebuf@DV?$char_traits@D@_STL@@@_STL@@AAE?AV?$fpos@H@2@JH@Z ; _STL::basic_filebuf<char,_STL::char_traits<char> >::_M_seek_return
$L117156:
  0027b	8b 45 08	 mov	 eax, DWORD PTR ___$ReturnUdt$[ebp]
  0027e	eb 0a		 jmp	 SHORT $L98926
$L117146:

; 383  :   }
; 384  :   else
; 385  :     return pos_type(-1);

  00280	8b 45 08	 mov	 eax, DWORD PTR ___$ReturnUdt$[ebp]
  00283	83 08 ff	 or	 DWORD PTR [eax], -1
$L117151:
  00286	83 60 04 00	 and	 DWORD PTR [eax+4], 0
$L98926:

; 386  : }

  0028a	8b 4d f4	 mov	 ecx, DWORD PTR __$EHRec$[ebp]
  0028d	5f		 pop	 edi
  0028e	5e		 pop	 esi
  0028f	5b		 pop	 ebx
  00290	64 89 0d 00 00
	00 00		 mov	 DWORD PTR fs:__except_list, ecx
  00297	c9		 leave
  00298	c2 10 00	 ret	 16			; 00000010H
_TEXT	ENDS
;	COMDAT text$x
text$x	SEGMENT
$L116886:
  00000	8d 4d 0c	 lea	 ecx, DWORD PTR ___buf$98875[ebp]
  00003	e9 00 00 00 00	 jmp	 ??1?$_Filebuf_Tmp_Buf@D@_STL@@QAE@XZ ; _STL::_Filebuf_Tmp_Buf<char>::~_Filebuf_Tmp_Buf<char>
__ehhandler$?seekoff@?$basic_filebuf@DV?$char_traits@D@_STL@@@_STL@@MAE?AV?$fpos@H@2@JHH@Z:
  00008	b8 00 00 00 00	 mov	 eax, OFFSET FLAT:$T117133
  0000d	e9 00 00 00 00	 jmp	 ___CxxFrameHandler
text$x	ENDS
?seekoff@?$basic_filebuf@DV?$char_traits@D@_STL@@@_STL@@MAE?AV?$fpos@H@2@JHH@Z ENDP ; _STL::basic_filebuf<char,_STL::char_traits<char> >::seekoff
; Function compile flags: /Ogsy
; File c:\stlport-4.6.1\stlport\stl\_fstream.h
;	COMDAT ??1?$_Filebuf_Tmp_Buf@D@_STL@@QAE@XZ
_TEXT	SEGMENT
??1?$_Filebuf_Tmp_Buf@D@_STL@@QAE@XZ PROC NEAR		; _STL::_Filebuf_Tmp_Buf<char>::~_Filebuf_Tmp_Buf<char>, COMDAT
; _this$ = ecx

; 374  :   ~_Filebuf_Tmp_Buf() { delete[] _M_ptr; }

  00000	ff 31		 push	 DWORD PTR [ecx]
  00002	e8 00 00 00 00	 call	 ??_V@YAXPAX@Z		; operator delete[]
  00007	59		 pop	 ecx
  00008	c3		 ret	 0
??1?$_Filebuf_Tmp_Buf@D@_STL@@QAE@XZ ENDP		; _STL::_Filebuf_Tmp_Buf<char>::~_Filebuf_Tmp_Buf<char>
; Function compile flags: /Ogsy
_TEXT	ENDS
;	COMDAT ?_M_seek_return@?$basic_filebuf@DV?$char_traits@D@_STL@@@_STL@@AAE?AV?$fpos@H@2@JH@Z
_TEXT	SEGMENT
___$ReturnUdt$ = 8					; size = 4
___off$ = 12						; size = 4
___state$ = 16						; size = 4
?_M_seek_return@?$basic_filebuf@DV?$char_traits@D@_STL@@@_STL@@AAE?AV?$fpos@H@2@JH@Z PROC NEAR ; _STL::basic_filebuf<char,_STL::char_traits<char> >::_M_seek_return, COMDAT
; _this$ = ecx

; 265  :   pos_type _M_seek_return(off_type __off, _State_type __state) {

  00000	56		 push	 esi
  00001	57		 push	 edi

; 266  :     if (__off != -1) {

  00002	8b 7c 24 10	 mov	 edi, DWORD PTR ___off$[esp+4]
  00006	83 ff ff	 cmp	 edi, -1
  00009	8b f1		 mov	 esi, ecx
  0000b	74 30		 je	 SHORT $L117187
  0000d	53		 push	 ebx

; 267  :       if (_M_in_input_mode)

  0000e	33 db		 xor	 ebx, ebx
  00010	38 5e 67	 cmp	 BYTE PTR [esi+103], bl
  00013	74 05		 je	 SHORT $L111891

; 268  :         _M_exit_input_mode();

  00015	e8 00 00 00 00	 call	 ?_M_exit_input_mode@?$basic_filebuf@DV?$char_traits@D@_STL@@@_STL@@AAEXXZ ; _STL::basic_filebuf<char,_STL::char_traits<char> >::_M_exit_input_mode
$L111891:

; 269  :       _M_in_input_mode = false;
; 270  :       _M_in_output_mode = false;
; 271  :       _M_in_putback_mode = false;
; 272  :       _M_in_error_mode = false;
; 273  :       this->setg(0, 0, 0);

  0001a	8b 46 04	 mov	 eax, DWORD PTR [esi+4]
  0001d	88 5e 67	 mov	 BYTE PTR [esi+103], bl
  00020	88 5e 68	 mov	 BYTE PTR [esi+104], bl
  00023	88 5e 6a	 mov	 BYTE PTR [esi+106], bl
  00026	88 5e 69	 mov	 BYTE PTR [esi+105], bl
  00029	89 58 08	 mov	 DWORD PTR [eax+8], ebx
  0002c	89 18		 mov	 DWORD PTR [eax], ebx
  0002e	89 58 04	 mov	 DWORD PTR [eax+4], ebx

; 274  :       this->setp(0, 0);

  00031	8b 76 08	 mov	 esi, DWORD PTR [esi+8]
  00034	89 5e 08	 mov	 DWORD PTR [esi+8], ebx
  00037	89 1e		 mov	 DWORD PTR [esi], ebx
  00039	89 5e 04	 mov	 DWORD PTR [esi+4], ebx
  0003c	5b		 pop	 ebx
$L117187:

; 275  :     }
; 276  :     
; 277  :     pos_type __result(__off);
; 278  :     __result.state(__state);
; 279  :     return __result;

  0003d	8b 44 24 0c	 mov	 eax, DWORD PTR ___$ReturnUdt$[esp+4]
  00041	8b 4c 24 14	 mov	 ecx, DWORD PTR ___state$[esp+4]
  00045	89 38		 mov	 DWORD PTR [eax], edi
  00047	5f		 pop	 edi
  00048	89 48 04	 mov	 DWORD PTR [eax+4], ecx
  0004b	5e		 pop	 esi

; 280  :   }

  0004c	c2 0c 00	 ret	 12			; 0000000cH
?_M_seek_return@?$basic_filebuf@DV?$char_traits@D@_STL@@@_STL@@AAE?AV?$fpos@H@2@JH@Z ENDP ; _STL::basic_filebuf<char,_STL::char_traits<char> >::_M_seek_return
_TEXT	ENDS
PUBLIC	?_M_exit_putback_mode@?$basic_filebuf@DV?$char_traits@D@_STL@@@_STL@@AAEXXZ ; _STL::basic_filebuf<char,_STL::char_traits<char> >::_M_exit_putback_mode
; Function compile flags: /Ogsy
; File c:\stlport-4.6.1\stlport\stl\_fstream.c
;	COMDAT ?_M_seek_init@?$basic_filebuf@DV?$char_traits@D@_STL@@@_STL@@AAE_N_N@Z
_TEXT	SEGMENT
___do_unshift$ = 8					; size = 1
?_M_seek_init@?$basic_filebuf@DV?$char_traits@D@_STL@@@_STL@@AAE_N_N@Z PROC NEAR ; _STL::basic_filebuf<char,_STL::char_traits<char> >::_M_seek_init, COMDAT
; _this$ = ecx

; 699  : bool basic_filebuf<_CharT, _Traits>::_M_seek_init(bool __do_unshift) {

  00000	53		 push	 ebx
  00001	56		 push	 esi
  00002	8b f1		 mov	 esi, ecx

; 700  :   // If we're in error mode, leave it.
; 701  :    _M_in_error_mode = false;

  00004	33 db		 xor	 ebx, ebx

; 702  :    
; 703  :   // Flush the output buffer if we're in output mode, and (conditionally)
; 704  :   // emit an unshift sequence.
; 705  :   if (_M_in_output_mode) {

  00006	38 5e 68	 cmp	 BYTE PTR [esi+104], bl
  00009	88 5e 69	 mov	 BYTE PTR [esi+105], bl
  0000c	74 3e		 je	 SHORT $L112158

; 706  :     bool __ok = !traits_type::eq_int_type(this->overflow(traits_type::eof()),
; 707  :                                           traits_type::eof());

  0000e	8b 06		 mov	 eax, DWORD PTR [esi]
  00010	6a ff		 push	 -1
  00012	ff 50 30	 call	 DWORD PTR [eax+48]
  00015	83 f8 ff	 cmp	 eax, -1
  00018	0f 95 c0	 setne	 al

; 708  :     if (__do_unshift)

  0001b	38 5c 24 0c	 cmp	 BYTE PTR ___do_unshift$[esp+4], bl
  0001f	74 11		 je	 SHORT $L117205

; 709  :       __ok = __ok && this->_M_unshift();

  00021	3a c3		 cmp	 al, bl
  00023	74 0b		 je	 SHORT $L117204
  00025	8b ce		 mov	 ecx, esi
  00027	e8 00 00 00 00	 call	 ?_M_unshift@?$basic_filebuf@DV?$char_traits@D@_STL@@@_STL@@AAE_NXZ ; _STL::basic_filebuf<char,_STL::char_traits<char> >::_M_unshift
  0002c	84 c0		 test	 al, al
  0002e	75 1c		 jne	 SHORT $L112158
$L117204:
  00030	32 c0		 xor	 al, al
$L117205:

; 710  :     if (!__ok) {

  00032	3a c3		 cmp	 al, bl
  00034	75 16		 jne	 SHORT $L112158

; 711  :       _M_in_output_mode = false;

  00036	88 5e 68	 mov	 BYTE PTR [esi+104], bl

; 712  :       _M_in_error_mode = true;

  00039	c6 46 69 01	 mov	 BYTE PTR [esi+105], 1

; 713  :       this->setp(0, 0);

  0003d	8b 76 08	 mov	 esi, DWORD PTR [esi+8]
  00040	89 5e 08	 mov	 DWORD PTR [esi+8], ebx
  00043	89 1e		 mov	 DWORD PTR [esi], ebx
  00045	89 5e 04	 mov	 DWORD PTR [esi+4], ebx

; 714  :       return false;

  00048	32 c0		 xor	 al, al
  0004a	eb 13		 jmp	 SHORT $L112152
$L112158:

; 715  :     }
; 716  :   }
; 717  : 
; 718  :   // Discard putback characters, if any.
; 719  :   if (_M_in_input_mode && _M_in_putback_mode)

  0004c	38 5e 67	 cmp	 BYTE PTR [esi+103], bl
  0004f	74 0c		 je	 SHORT $L112159
  00051	38 5e 6a	 cmp	 BYTE PTR [esi+106], bl
  00054	74 07		 je	 SHORT $L112159

; 720  :     _M_exit_putback_mode();

  00056	8b ce		 mov	 ecx, esi
  00058	e8 00 00 00 00	 call	 ?_M_exit_putback_mode@?$basic_filebuf@DV?$char_traits@D@_STL@@@_STL@@AAEXXZ ; _STL::basic_filebuf<char,_STL::char_traits<char> >::_M_exit_putback_mode
$L112159:

; 721  : 
; 722  :   return true;

  0005d	b0 01		 mov	 al, 1
$L112152:
  0005f	5e		 pop	 esi
  00060	5b		 pop	 ebx

; 723  : }

  00061	c2 04 00	 ret	 4
?_M_seek_init@?$basic_filebuf@DV?$char_traits@D@_STL@@@_STL@@AAE_N_N@Z ENDP ; _STL::basic_filebuf<char,_STL::char_traits<char> >::_M_seek_init
; Function compile flags: /Ogsy
; File c:\stlport-4.6.1\stlport\stl\_fstream.h
_TEXT	ENDS
;	COMDAT ?_M_exit_putback_mode@?$basic_filebuf@DV?$char_traits@D@_STL@@@_STL@@AAEXXZ
_TEXT	SEGMENT
?_M_exit_putback_mode@?$basic_filebuf@DV?$char_traits@D@_STL@@@_STL@@AAEXXZ PROC NEAR ; _STL::basic_filebuf<char,_STL::char_traits<char> >::_M_exit_putback_mode, COMDAT
; _this$ = ecx

; 245  :     this->setg(_M_saved_eback, _M_saved_gptr, _M_saved_egptr);

  00000	8b 81 9c 00 00
	00		 mov	 eax, DWORD PTR [ecx+156]
  00006	8b 51 04	 mov	 edx, DWORD PTR [ecx+4]
  00009	56		 push	 esi
  0000a	8b b1 98 00 00
	00		 mov	 esi, DWORD PTR [ecx+152]
  00010	57		 push	 edi
  00011	8b b9 94 00 00
	00		 mov	 edi, DWORD PTR [ecx+148]
  00017	89 7a 08	 mov	 DWORD PTR [edx+8], edi
  0001a	2b c6		 sub	 eax, esi
  0001c	89 32		 mov	 DWORD PTR [edx], esi
  0001e	5f		 pop	 edi
  0001f	89 42 04	 mov	 DWORD PTR [edx+4], eax

; 246  :     _M_in_putback_mode = false;

  00022	c6 41 6a 00	 mov	 BYTE PTR [ecx+106], 0
  00026	5e		 pop	 esi

; 247  :   }

  00027	c3		 ret	 0
?_M_exit_putback_mode@?$basic_filebuf@DV?$char_traits@D@_STL@@@_STL@@AAEXXZ ENDP ; _STL::basic_filebuf<char,_STL::char_traits<char> >::_M_exit_putback_mode
; Function compile flags: /Ogsy
; File c:\stlport-4.6.1\stlport\stl\_fstream.c
_TEXT	ENDS
;	COMDAT ?seekpos@?$basic_filebuf@DV?$char_traits@D@_STL@@@_STL@@MAE?AV?$fpos@H@2@V32@H@Z
_TEXT	SEGMENT
___$ReturnUdt$ = 8					; size = 4
___pos$ = 12						; size = 8
___formal$ = 20						; size = 4
?seekpos@?$basic_filebuf@DV?$char_traits@D@_STL@@@_STL@@MAE?AV?$fpos@H@2@V32@H@Z PROC NEAR ; _STL::basic_filebuf<char,_STL::char_traits<char> >::seekpos, COMDAT
; _this$ = ecx

; 393  : {

  00000	55		 push	 ebp
  00001	8b ec		 mov	 ebp, esp
  00003	56		 push	 esi
  00004	8b f1		 mov	 esi, ecx

; 394  :   if (this->is_open()) {

  00006	80 7e 60 00	 cmp	 BYTE PTR [esi+96], 0
  0000a	74 3f		 je	 SHORT $L98936

; 395  :     if (!_M_seek_init(true))

  0000c	6a 01		 push	 1
  0000e	e8 00 00 00 00	 call	 ?_M_seek_init@?$basic_filebuf@DV?$char_traits@D@_STL@@@_STL@@AAE_N_N@Z ; _STL::basic_filebuf<char,_STL::char_traits<char> >::_M_seek_init
  00013	84 c0		 test	 al, al

; 396  :       return pos_type(-1);

  00015	74 34		 je	 SHORT $L98936

; 397  : 
; 398  :     streamoff __off = off_type(__pos);
; 399  :     if (__off != -1 && _M_base._M_seek(__off, ios_base::beg) != -1) {

  00017	83 7d 0c ff	 cmp	 DWORD PTR ___pos$[ebp], -1
  0001b	74 2e		 je	 SHORT $L98936
  0001d	6a 01		 push	 1
  0001f	ff 75 0c	 push	 DWORD PTR ___pos$[ebp]
  00022	8d 4e 54	 lea	 ecx, DWORD PTR [esi+84]
  00025	e8 00 00 00 00	 call	 ?_M_seek@_Filebuf_base@_STL@@QAEJJH@Z ; _STL::_Filebuf_base::_M_seek
  0002a	83 f8 ff	 cmp	 eax, -1
  0002d	74 1c		 je	 SHORT $L98936

; 400  :       _M_state = __pos.state();

  0002f	8b 45 10	 mov	 eax, DWORD PTR ___pos$[ebp+4]

; 401  :       return _M_seek_return(__off, __pos.state());

  00032	50		 push	 eax
  00033	ff 75 0c	 push	 DWORD PTR ___pos$[ebp]
  00036	8b ce		 mov	 ecx, esi
  00038	ff 75 08	 push	 DWORD PTR ___$ReturnUdt$[ebp]
  0003b	89 86 84 00 00
	00		 mov	 DWORD PTR [esi+132], eax
  00041	e8 00 00 00 00	 call	 ?_M_seek_return@?$basic_filebuf@DV?$char_traits@D@_STL@@@_STL@@AAE?AV?$fpos@H@2@JH@Z ; _STL::basic_filebuf<char,_STL::char_traits<char> >::_M_seek_return
  00046	8b 45 08	 mov	 eax, DWORD PTR ___$ReturnUdt$[ebp]
  00049	eb 0a		 jmp	 SHORT $L98944
$L98936:

; 402  :     }
; 403  :     else
; 404  :       return pos_type(-1);
; 405  :   }
; 406  :   else
; 407  :     return pos_type(-1);

  0004b	8b 45 08	 mov	 eax, DWORD PTR ___$ReturnUdt$[ebp]
  0004e	83 08 ff	 or	 DWORD PTR [eax], -1
  00051	83 60 04 00	 and	 DWORD PTR [eax+4], 0
$L98944:
  00055	5e		 pop	 esi

; 408  : }

  00056	5d		 pop	 ebp
  00057	c2 10 00	 ret	 16			; 00000010H
?seekpos@?$basic_filebuf@DV?$char_traits@D@_STL@@@_STL@@MAE?AV?$fpos@H@2@V32@H@Z ENDP ; _STL::basic_filebuf<char,_STL::char_traits<char> >::seekpos
; Function compile flags: /Ogsy
_TEXT	ENDS
;	COMDAT ??_G?$basic_filebuf@DV?$char_traits@D@_STL@@@_STL@@UAEPAXI@Z
_TEXT	SEGMENT
___flags$ = 8						; size = 4
??_G?$basic_filebuf@DV?$char_traits@D@_STL@@@_STL@@UAEPAXI@Z PROC NEAR ; _STL::basic_filebuf<char,_STL::char_traits<char> >::`scalar deleting destructor', COMDAT
; _this$ = ecx
  00000	56		 push	 esi
  00001	8b f1		 mov	 esi, ecx
  00003	e8 00 00 00 00	 call	 ??1?$basic_filebuf@DV?$char_traits@D@_STL@@@_STL@@UAE@XZ ; _STL::basic_filebuf<char,_STL::char_traits<char> >::~basic_filebuf<char,_STL::char_traits<char> >
  00008	f6 44 24 08 01	 test	 BYTE PTR ___flags$[esp], 1
  0000d	74 07		 je	 SHORT $L99020
  0000f	56		 push	 esi
  00010	e8 00 00 00 00	 call	 ??3@YAXPAX@Z		; operator delete
  00015	59		 pop	 ecx
$L99020:
  00016	8b c6		 mov	 eax, esi
  00018	5e		 pop	 esi
  00019	c2 04 00	 ret	 4
??_G?$basic_filebuf@DV?$char_traits@D@_STL@@@_STL@@UAEPAXI@Z ENDP ; _STL::basic_filebuf<char,_STL::char_traits<char> >::`scalar deleting destructor'
_TEXT	ENDS
PUBLIC	?DeleteRemoved@CShadowPartManager@@QAEXXZ	; CShadowPartManager::DeleteRemoved
; Function compile flags: /Ogsy
; File c:\darkeden\designed_common\project\client\cshadowpartmanager.cpp
;	COMDAT ?DeleteRemoved@CShadowPartManager@@QAEXXZ
_TEXT	SEGMENT
?DeleteRemoved@CShadowPartManager@@QAEXXZ PROC NEAR	; CShadowPartManager::DeleteRemoved, COMDAT
; _this$ = ecx

; 240  : {

  00000	56		 push	 esi
  00001	57		 push	 edi

; 241  : 	SPRITESURFACE_LIST::iterator iSurface = m_listRemoved.begin();

  00002	8d 79 74	 lea	 edi, DWORD PTR [ecx+116]
  00005	8b 07		 mov	 eax, DWORD PTR [edi]
  00007	8b 30		 mov	 esi, DWORD PTR [eax]

; 242  : 
; 243  : 	while (iSurface != m_listRemoved.end())

  00009	3b f0		 cmp	 esi, eax
  0000b	74 1d		 je	 SHORT $L111747
  0000d	53		 push	 ebx
$L111746:

; 244  : 	{
; 245  : 		CSpriteSurface*	pSurface = *iSurface;
; 246  : 
; 247  : 		delete pSurface;

  0000e	8b 5e 08	 mov	 ebx, DWORD PTR [esi+8]
  00011	85 db		 test	 ebx, ebx
  00013	74 0e		 je	 SHORT $L117298
  00015	8b cb		 mov	 ecx, ebx
  00017	e8 00 00 00 00	 call	 ??1CSpriteSurface@@QAE@XZ ; CSpriteSurface::~CSpriteSurface
  0001c	53		 push	 ebx
  0001d	e8 00 00 00 00	 call	 ??3@YAXPAX@Z		; operator delete
  00022	59		 pop	 ecx
$L117298:

; 248  : 		
; 249  : 		iSurface++;

  00023	8b 36		 mov	 esi, DWORD PTR [esi]
  00025	3b 37		 cmp	 esi, DWORD PTR [edi]
  00027	75 e5		 jne	 SHORT $L111746
  00029	5b		 pop	 ebx
$L111747:

; 250  : 	}
; 251  : 
; 252  : 	m_listRemoved.clear();

  0002a	8b cf		 mov	 ecx, edi
  0002c	5f		 pop	 edi
  0002d	5e		 pop	 esi
  0002e	e9 00 00 00 00	 jmp	 ?clear@?$_List_base@PAVCSpriteSurface@@V?$allocator@PAVCSpriteSurface@@@_STL@@@_STL@@QAEXXZ ; _STL::_List_base<CSpriteSurface *,_STL::allocator<CSpriteSurface *> >::clear
?DeleteRemoved@CShadowPartManager@@QAEXXZ ENDP		; CShadowPartManager::DeleteRemoved
_TEXT	ENDS
PUBLIC	??0?$list@PAVCSpriteSurface@@V?$allocator@PAVCSpriteSurface@@@_STL@@@_STL@@QAE@ABV?$allocator@PAVCSpriteSurface@@@1@@Z ; _STL::list<CSpriteSurface *,_STL::allocator<CSpriteSurface *> >::list<CSpriteSurface *,_STL::allocator<CSpriteSurface *> >
; Function compile flags: /Ogsy
; File c:\stlport-4.6.1\stlport\stl\_list.h
;	COMDAT ??0?$list@PAVCSpriteSurface@@V?$allocator@PAVCSpriteSurface@@@_STL@@@_STL@@QAE@ABV?$allocator@PAVCSpriteSurface@@@1@@Z
_TEXT	SEGMENT
___a$ = 8						; size = 4
??0?$list@PAVCSpriteSurface@@V?$allocator@PAVCSpriteSurface@@@_STL@@@_STL@@QAE@ABV?$allocator@PAVCSpriteSurface@@@1@@Z PROC NEAR ; _STL::list<CSpriteSurface *,_STL::allocator<CSpriteSurface *> >::list<CSpriteSurface *,_STL::allocator<CSpriteSurface *> >, COMDAT
; _this$ = ecx

; 264  :     _List_base<_Tp, _Alloc>(__a) {}

  00000	56		 push	 esi
  00001	ff 74 24 08	 push	 DWORD PTR ___a$[esp]
  00005	8b f1		 mov	 esi, ecx
  00007	e8 00 00 00 00	 call	 ??0?$_List_base@PAVCSpriteSurface@@V?$allocator@PAVCSpriteSurface@@@_STL@@@_STL@@QAE@ABV?$allocator@PAVCSpriteSurface@@@1@@Z ; _STL::_List_base<CSpriteSurface *,_STL::allocator<CSpriteSurface *> >::_List_base<CSpriteSurface *,_STL::allocator<CSpriteSurface *> >
  0000c	8b c6		 mov	 eax, esi
  0000e	5e		 pop	 esi
  0000f	c2 04 00	 ret	 4
??0?$list@PAVCSpriteSurface@@V?$allocator@PAVCSpriteSurface@@@_STL@@@_STL@@QAE@ABV?$allocator@PAVCSpriteSurface@@@1@@Z ENDP ; _STL::list<CSpriteSurface *,_STL::allocator<CSpriteSurface *> >::list<CSpriteSurface *,_STL::allocator<CSpriteSurface *> >
_TEXT	ENDS
PUBLIC	??1?$list@PAVCSpriteSurface@@V?$allocator@PAVCSpriteSurface@@@_STL@@@_STL@@QAE@XZ ; _STL::list<CSpriteSurface *,_STL::allocator<CSpriteSurface *> >::~list<CSpriteSurface *,_STL::allocator<CSpriteSurface *> >
; Function compile flags: /Ogsy
;	COMDAT ??1?$list@PAVCSpriteSurface@@V?$allocator@PAVCSpriteSurface@@@_STL@@@_STL@@QAE@XZ
_TEXT	SEGMENT
??1?$list@PAVCSpriteSurface@@V?$allocator@PAVCSpriteSurface@@@_STL@@@_STL@@QAE@XZ PROC NEAR ; _STL::list<CSpriteSurface *,_STL::allocator<CSpriteSurface *> >::~list<CSpriteSurface *,_STL::allocator<CSpriteSurface *> >, COMDAT
; _this$ = ecx

; 416  :   ~list() { }

  00000	e9 00 00 00 00	 jmp	 ??1?$_List_base@PAVCSpriteSurface@@V?$allocator@PAVCSpriteSurface@@@_STL@@@_STL@@QAE@XZ ; _STL::_List_base<CSpriteSurface *,_STL::allocator<CSpriteSurface *> >::~_List_base<CSpriteSurface *,_STL::allocator<CSpriteSurface *> >
??1?$list@PAVCSpriteSurface@@V?$allocator@PAVCSpriteSurface@@@_STL@@@_STL@@QAE@XZ ENDP ; _STL::list<CSpriteSurface *,_STL::allocator<CSpriteSurface *> >::~list<CSpriteSurface *,_STL::allocator<CSpriteSurface *> >
_TEXT	ENDS
PUBLIC	??1?$basic_ifstream@DV?$char_traits@D@_STL@@@_STL@@UAE@XZ ; _STL::basic_ifstream<char,_STL::char_traits<char> >::~basic_ifstream<char,_STL::char_traits<char> >
PUBLIC	??_7?$basic_ifstream@DV?$char_traits@D@_STL@@@_STL@@6B@ ; _STL::basic_ifstream<char,_STL::char_traits<char> >::`vftable'
PUBLIC	??_G?$basic_ifstream@DV?$char_traits@D@_STL@@@_STL@@UAEPAXI@Z ; _STL::basic_ifstream<char,_STL::char_traits<char> >::`scalar deleting destructor'
PUBLIC	??_R4?$basic_ifstream@DV?$char_traits@D@_STL@@@_STL@@6B@ ; _STL::basic_ifstream<char,_STL::char_traits<char> >::`RTTI Complete Object Locator'
PUBLIC	??_R0?AV?$basic_ifstream@DV?$char_traits@D@_STL@@@_STL@@@8 ; _STL::basic_ifstream<char,_STL::char_traits<char> > `RTTI Type Descriptor'
PUBLIC	??_R3?$basic_ifstream@DV?$char_traits@D@_STL@@@_STL@@8 ; _STL::basic_ifstream<char,_STL::char_traits<char> >::`RTTI Class Hierarchy Descriptor'
PUBLIC	??_R2?$basic_ifstream@DV?$char_traits@D@_STL@@@_STL@@8 ; _STL::basic_ifstream<char,_STL::char_traits<char> >::`RTTI Base Class Array'
PUBLIC	??_R1A@?0A@A@?$basic_ifstream@DV?$char_traits@D@_STL@@@_STL@@8 ; _STL::basic_ifstream<char,_STL::char_traits<char> >::`RTTI Base Class Descriptor at (0,-1,0,0)'
EXTRN	??_E?$basic_ifstream@DV?$char_traits@D@_STL@@@_STL@@UAEPAXI@Z:NEAR ; _STL::basic_ifstream<char,_STL::char_traits<char> >::`vector deleting destructor'
;	COMDAT xdata$x
; File c:\stlport-4.6.1\stlport\stl\_istream.h
xdata$x	SEGMENT
$T117398 DD	0ffffffffH
	DD	FLAT:$L117389
$T117396 DD	019930520H
	DD	01H
	DD	FLAT:$T117398
	DD	2 DUP(00H)
	DD	2 DUP(00H)
xdata$x	ENDS
;	COMDAT ??_7?$basic_ifstream@DV?$char_traits@D@_STL@@@_STL@@6B@
CONST	SEGMENT
??_7?$basic_ifstream@DV?$char_traits@D@_STL@@@_STL@@6B@ DD FLAT:??_R4?$basic_ifstream@DV?$char_traits@D@_STL@@@_STL@@6B@ ; _STL::basic_ifstream<char,_STL::char_traits<char> >::`vftable'
	DD	FLAT:??_E?$basic_ifstream@DV?$char_traits@D@_STL@@@_STL@@UAEPAXI@Z
CONST	ENDS
;	COMDAT ??_R4?$basic_ifstream@DV?$char_traits@D@_STL@@@_STL@@6B@
rdata$r	SEGMENT
??_R4?$basic_ifstream@DV?$char_traits@D@_STL@@@_STL@@6B@ DD 00H ; _STL::basic_ifstream<char,_STL::char_traits<char> >::`RTTI Complete Object Locator'
	DD	0bcH
	DD	00H
	DD	FLAT:??_R0?AV?$basic_ifstream@DV?$char_traits@D@_STL@@@_STL@@@8
	DD	FLAT:??_R3?$basic_ifstream@DV?$char_traits@D@_STL@@@_STL@@8
rdata$r	ENDS
;	COMDAT ??_R0?AV?$basic_ifstream@DV?$char_traits@D@_STL@@@_STL@@@8
_DATA	SEGMENT
??_R0?AV?$basic_ifstream@DV?$char_traits@D@_STL@@@_STL@@@8 DD FLAT:??_7type_info@@6B@ ; _STL::basic_ifstream<char,_STL::char_traits<char> > `RTTI Type Descriptor'
	DD	00H
	DB	'.?AV?$basic_ifstream@DV?$char_traits@D@_STL@@@_STL@@', 00H
_DATA	ENDS
;	COMDAT ??_R3?$basic_ifstream@DV?$char_traits@D@_STL@@@_STL@@8
rdata$r	SEGMENT
??_R3?$basic_ifstream@DV?$char_traits@D@_STL@@@_STL@@8 DD 00H ; _STL::basic_ifstream<char,_STL::char_traits<char> >::`RTTI Class Hierarchy Descriptor'
	DD	00H
	DD	04H
	DD	FLAT:??_R2?$basic_ifstream@DV?$char_traits@D@_STL@@@_STL@@8
rdata$r	ENDS
;	COMDAT ??_R2?$basic_ifstream@DV?$char_traits@D@_STL@@@_STL@@8
rdata$r	SEGMENT
??_R2?$basic_ifstream@DV?$char_traits@D@_STL@@@_STL@@8 DD FLAT:??_R1A@?0A@A@?$basic_ifstream@DV?$char_traits@D@_STL@@@_STL@@8 ; _STL::basic_ifstream<char,_STL::char_traits<char> >::`RTTI Base Class Array'
	DD	FLAT:??_R1A@?0A@A@?$basic_istream@DV?$char_traits@D@_STL@@@_STL@@8
	DD	FLAT:??_R1A@A@3BA@?$basic_ios@DV?$char_traits@D@_STL@@@_STL@@8
	DD	FLAT:??_R1A@A@3A@ios_base@_STL@@8
rdata$r	ENDS
;	COMDAT ??_R1A@?0A@A@?$basic_ifstream@DV?$char_traits@D@_STL@@@_STL@@8
rdata$r	SEGMENT
??_R1A@?0A@A@?$basic_ifstream@DV?$char_traits@D@_STL@@@_STL@@8 DD FLAT:??_R0?AV?$basic_ifstream@DV?$char_traits@D@_STL@@@_STL@@@8 ; _STL::basic_ifstream<char,_STL::char_traits<char> >::`RTTI Base Class Descriptor at (0,-1,0,0)'
	DD	03H
	DD	00H
	DD	0ffffffffH
	DD	00H
	DD	00H
; Function compile flags: /Ogsy
; File c:\stlport-4.6.1\stlport\stl\_fstream.h
rdata$r	ENDS
;	COMDAT ??1?$basic_ifstream@DV?$char_traits@D@_STL@@@_STL@@UAE@XZ
_TEXT	SEGMENT
_this$ = -16						; size = 4
__$EHRec$ = -12						; size = 12
??1?$basic_ifstream@DV?$char_traits@D@_STL@@@_STL@@UAE@XZ PROC NEAR ; _STL::basic_ifstream<char,_STL::char_traits<char> >::~basic_ifstream<char,_STL::char_traits<char> >, COMDAT
; _this$ = ecx

; 543  :   ~basic_ifstream() {}

  00000	b8 00 00 00 00	 mov	 eax, __ehhandler$??1?$basic_ifstream@DV?$char_traits@D@_STL@@@_STL@@UAE@XZ
  00005	e8 00 00 00 00	 call	 __EH_prolog
  0000a	51		 push	 ecx
  0000b	8b 81 44 ff ff
	ff		 mov	 eax, DWORD PTR [ecx-188]
  00011	8b 40 04	 mov	 eax, DWORD PTR [eax+4]
  00014	56		 push	 esi
  00015	89 4d f0	 mov	 DWORD PTR _this$[ebp], ecx
  00018	c7 84 08 44 ff
	ff ff 00 00 00
	00		 mov	 DWORD PTR [eax+ecx-188], OFFSET FLAT:??_7?$basic_ifstream@DV?$char_traits@D@_STL@@@_STL@@6B@
  00023	83 65 fc 00	 and	 DWORD PTR __$EHRec$[ebp+8], 0
  00027	8d b1 4c ff ff
	ff		 lea	 esi, DWORD PTR [ecx-180]
  0002d	8b ce		 mov	 ecx, esi
  0002f	e8 00 00 00 00	 call	 ??1?$basic_filebuf@DV?$char_traits@D@_STL@@@_STL@@UAE@XZ ; _STL::basic_filebuf<char,_STL::char_traits<char> >::~basic_filebuf<char,_STL::char_traits<char> >
  00034	8b 46 f8	 mov	 eax, DWORD PTR [esi-8]
  00037	8b 40 04	 mov	 eax, DWORD PTR [eax+4]
  0003a	8b 4d f4	 mov	 ecx, DWORD PTR __$EHRec$[ebp]
  0003d	c7 44 30 f8 00
	00 00 00	 mov	 DWORD PTR [eax+esi-8], OFFSET FLAT:??_7?$basic_istream@DV?$char_traits@D@_STL@@@_STL@@6B@
  00045	5e		 pop	 esi
  00046	64 89 0d 00 00
	00 00		 mov	 DWORD PTR fs:__except_list, ecx
  0004d	c9		 leave
  0004e	c3		 ret	 0
_TEXT	ENDS
;	COMDAT text$x
text$x	SEGMENT
$L117389:
  00000	8b 4d f0	 mov	 ecx, DWORD PTR _this$[ebp]
  00003	81 e9 b4 00 00
	00		 sub	 ecx, 180		; 000000b4H
  00009	e9 00 00 00 00	 jmp	 ??1?$basic_istream@DV?$char_traits@D@_STL@@@_STL@@UAE@XZ ; _STL::basic_istream<char,_STL::char_traits<char> >::~basic_istream<char,_STL::char_traits<char> >
__ehhandler$??1?$basic_ifstream@DV?$char_traits@D@_STL@@@_STL@@UAE@XZ:
  0000e	b8 00 00 00 00	 mov	 eax, OFFSET FLAT:$T117396
  00013	e9 00 00 00 00	 jmp	 ___CxxFrameHandler
text$x	ENDS
??1?$basic_ifstream@DV?$char_traits@D@_STL@@@_STL@@UAE@XZ ENDP ; _STL::basic_ifstream<char,_STL::char_traits<char> >::~basic_ifstream<char,_STL::char_traits<char> >
PUBLIC	?insert@?$list@PAVCSpriteSurface@@V?$allocator@PAVCSpriteSurface@@@_STL@@@_STL@@QAE?AU?$_List_iterator@PAVCSpriteSurface@@U?$_Nonconst_traits@PAVCSpriteSurface@@@_STL@@@2@U32@ABQAVCSpriteSurface@@@Z ; _STL::list<CSpriteSurface *,_STL::allocator<CSpriteSurface *> >::insert
; Function compile flags: /Ogsy
; File c:\stlport-4.6.1\stlport\stl\_list.h
;	COMDAT ?insert@?$list@PAVCSpriteSurface@@V?$allocator@PAVCSpriteSurface@@@_STL@@@_STL@@QAE?AU?$_List_iterator@PAVCSpriteSurface@@U?$_Nonconst_traits@PAVCSpriteSurface@@@_STL@@@2@U32@ABQAVCSpriteSurface@@@Z
_TEXT	SEGMENT
___$ReturnUdt$ = 8					; size = 4
___position$ = 12					; size = 4
___x$ = 16						; size = 4
?insert@?$list@PAVCSpriteSurface@@V?$allocator@PAVCSpriteSurface@@@_STL@@@_STL@@QAE?AU?$_List_iterator@PAVCSpriteSurface@@U?$_Nonconst_traits@PAVCSpriteSurface@@@_STL@@@2@U32@ABQAVCSpriteSurface@@@Z PROC NEAR ; _STL::list<CSpriteSurface *,_STL::allocator<CSpriteSurface *> >::insert, COMDAT
; _this$ = ecx

; 299  : 
; 300  :     _Node* __tmp = _M_create_node(__x);

  00000	ff 74 24 0c	 push	 DWORD PTR ___x$[esp-4]
  00004	e8 00 00 00 00	 call	 ?_M_create_node@?$list@PAVCSpriteSurface@@V?$allocator@PAVCSpriteSurface@@@_STL@@@_STL@@IAEPAU?$_List_node@PAVCSpriteSurface@@@2@ABQAVCSpriteSurface@@@Z ; _STL::list<CSpriteSurface *,_STL::allocator<CSpriteSurface *> >::_M_create_node

; 301  :     _List_node_base* __n = __position._M_node;
; 302  :     _List_node_base* __p = __n->_M_prev;

  00009	8b 4c 24 08	 mov	 ecx, DWORD PTR ___position$[esp-4]
  0000d	8b 51 04	 mov	 edx, DWORD PTR [ecx+4]

; 303  :     __tmp->_M_next = __n;

  00010	89 08		 mov	 DWORD PTR [eax], ecx

; 304  :     __tmp->_M_prev = __p;

  00012	89 50 04	 mov	 DWORD PTR [eax+4], edx

; 305  :     __p->_M_next = __tmp;

  00015	89 02		 mov	 DWORD PTR [edx], eax

; 306  :     __n->_M_prev = __tmp;

  00017	89 41 04	 mov	 DWORD PTR [ecx+4], eax

; 307  :     return __tmp;

  0001a	8b 4c 24 04	 mov	 ecx, DWORD PTR ___$ReturnUdt$[esp-4]
  0001e	89 01		 mov	 DWORD PTR [ecx], eax
  00020	8b c1		 mov	 eax, ecx

; 308  :   }

  00022	c2 0c 00	 ret	 12			; 0000000cH
?insert@?$list@PAVCSpriteSurface@@V?$allocator@PAVCSpriteSurface@@@_STL@@@_STL@@QAE?AU?$_List_iterator@PAVCSpriteSurface@@U?$_Nonconst_traits@PAVCSpriteSurface@@@_STL@@@2@U32@ABQAVCSpriteSurface@@@Z ENDP ; _STL::list<CSpriteSurface *,_STL::allocator<CSpriteSurface *> >::insert
_TEXT	ENDS
PUBLIC	?Init@?$CPartManager@GGPAVCSpriteSurface@@@@QAEXGG@Z ; CPartManager<unsigned short,unsigned short,CSpriteSurface *>::Init
;	COMDAT xdata$x
xdata$x	SEGMENT
$T117448 DD	0ffffffffH
	DD	FLAT:$L117424
$T117442 DD	019930520H
	DD	01H
	DD	FLAT:$T117448
	DD	2 DUP(00H)
	DD	2 DUP(00H)
; Function compile flags: /Ogsy
; File c:\darkeden\designed_common\project\client\cpartmanager.h
xdata$x	ENDS
;	COMDAT ?Init@?$CPartManager@GGPAVCSpriteSurface@@@@QAEXGG@Z
_TEXT	SEGMENT
__$EHRec$ = -12						; size = 12
_maxIndex$ = 8						; size = 2
_maxPart$ = 12						; size = 2
$T117420 = 12						; size = 4
?Init@?$CPartManager@GGPAVCSpriteSurface@@@@QAEXGG@Z PROC NEAR ; CPartManager<unsigned short,unsigned short,CSpriteSurface *>::Init, COMDAT
; _this$ = ecx

; 201  : {

  00000	b8 00 00 00 00	 mov	 eax, __ehhandler$?Init@?$CPartManager@GGPAVCSpriteSurface@@@@QAEXGG@Z
  00005	e8 00 00 00 00	 call	 __EH_prolog
  0000a	53		 push	 ebx
  0000b	56		 push	 esi
  0000c	57		 push	 edi
  0000d	8b f1		 mov	 esi, ecx

; 202  : 	Release();

  0000f	e8 00 00 00 00	 call	 ?Release@?$CPartManager@GGPAVCSpriteSurface@@@@QAEXXZ ; CPartManager<unsigned short,unsigned short,CSpriteSurface *>::Release

; 203  : 
; 204  : 	//------------------------------------------------------
; 205  : 	//    ...
; 206  : 	//------------------------------------------------------
; 207  : 	if (maxPart > maxIndex)

  00014	8b 7d 0c	 mov	 edi, DWORD PTR _maxPart$[ebp]
  00017	8b 45 08	 mov	 eax, DWORD PTR _maxIndex$[ebp]
  0001a	66 3b f8	 cmp	 di, ax
  0001d	76 02		 jbe	 SHORT $L112268

; 208  : 	{
; 209  : 		maxPart = maxIndex;

  0001f	8b f8		 mov	 edi, eax
$L112268:

; 210  : 	}
; 211  : 
; 212  : 	//------------------------------------------------------
; 213  : 	// PartIndexType m_nIndex .
; 214  : 	//------------------------------------------------------
; 215  : 	m_nIndex = maxIndex;

  00021	66 89 06	 mov	 WORD PTR [esi], ax

; 216  : 	m_pPartIndex = new PartIndexType [m_nIndex];

  00024	0f b7 c0	 movzx	 eax, ax
  00027	d1 e0		 shl	 eax, 1
  00029	50		 push	 eax
  0002a	e8 00 00 00 00	 call	 ??_U@YAPAXI@Z		; operator new[]
  0002f	89 46 04	 mov	 DWORD PTR [esi+4], eax

; 217  : 
; 218  : 	for (int i=0; i<m_nIndex; i++)

  00032	33 c0		 xor	 eax, eax
  00034	66 39 06	 cmp	 WORD PTR [esi], ax
  00037	59		 pop	 ecx
  00038	76 13		 jbe	 SHORT $L112274
$L112272:

; 219  : 	{
; 220  : 		m_pPartIndex[i] = m_PartIndexNULL;

  0003a	8b 4e 04	 mov	 ecx, DWORD PTR [esi+4]
  0003d	66 8b 56 22	 mov	 dx, WORD PTR [esi+34]
  00041	66 89 14 41	 mov	 WORD PTR [ecx+eax*2], dx
  00045	0f b7 0e	 movzx	 ecx, WORD PTR [esi]
  00048	40		 inc	 eax
  00049	3b c1		 cmp	 eax, ecx
  0004b	7c ed		 jl	 SHORT $L112272
$L112274:

; 221  : 	}
; 222  : 
; 223  : 	//------------------------------------------------------
; 224  : 	// PartIndex  
; 225  : 	//------------------------------------------------------
; 226  : 	m_nPart			= maxPart;
; 227  : 	m_nPartUsed		= 0;

  0004d	66 83 66 0a 00	 and	 WORD PTR [esi+10], 0

; 228  : 	m_pData			= new DataType [m_nPart];

  00052	0f b7 c7	 movzx	 eax, di
  00055	c1 e0 02	 shl	 eax, 2
  00058	50		 push	 eax
  00059	66 89 7e 08	 mov	 WORD PTR [esi+8], di
  0005d	e8 00 00 00 00	 call	 ??_U@YAPAXI@Z		; operator new[]
  00062	89 46 0c	 mov	 DWORD PTR [esi+12], eax

; 229  : 	m_pParentIndex	= new IndexType [m_nPart];	//  index

  00065	0f b7 46 08	 movzx	 eax, WORD PTR [esi+8]
  00069	d1 e0		 shl	 eax, 1
  0006b	50		 push	 eax
  0006c	e8 00 00 00 00	 call	 ??_U@YAPAXI@Z		; operator new[]
  00071	89 46 10	 mov	 DWORD PTR [esi+16], eax

; 230  : 	m_pLastTime		= new DWORD [m_nPart];		//   

  00074	0f b7 46 08	 movzx	 eax, WORD PTR [esi+8]
  00078	c1 e0 02	 shl	 eax, 2
  0007b	50		 push	 eax
  0007c	e8 00 00 00 00	 call	 ??_U@YAPAXI@Z		; operator new[]

; 231  : 	
; 232  : 	//------------------------------------------------------
; 233  : 	// LRU list
; 234  : 	//------------------------------------------------------
; 235  : 	m_listLRU.clear();

  00081	8d 5e 18	 lea	 ebx, DWORD PTR [esi+24]
  00084	83 c4 0c	 add	 esp, 12			; 0000000cH
  00087	8b cb		 mov	 ecx, ebx
  00089	89 46 14	 mov	 DWORD PTR [esi+20], eax
  0008c	e8 00 00 00 00	 call	 ?clear@?$_List_base@GV?$allocator@G@_STL@@@_STL@@QAEXXZ ; _STL::_List_base<unsigned short,_STL::allocator<unsigned short> >::clear

; 236  : 	m_pPartIterator		= new PARTINDEX_LIST_ITERATOR [m_nPart];	// iterator

  00091	0f b7 7e 08	 movzx	 edi, WORD PTR [esi+8]
  00095	8b c7		 mov	 eax, edi
  00097	c1 e0 02	 shl	 eax, 2
  0009a	50		 push	 eax
  0009b	e8 00 00 00 00	 call	 ??_U@YAPAXI@Z		; operator new[]
  000a0	59		 pop	 ecx
  000a1	89 45 0c	 mov	 DWORD PTR $T117420[ebp], eax
  000a4	33 c9		 xor	 ecx, ecx
  000a6	3b c1		 cmp	 eax, ecx
  000a8	89 4d fc	 mov	 DWORD PTR __$EHRec$[ebp+8], ecx
  000ab	74 15		 je	 SHORT $L117421
  000ad	68 00 00 00 00	 push	 OFFSET FLAT:??0?$_List_iterator@GU?$_Nonconst_traits@G@_STL@@@_STL@@QAE@XZ ; _STL::_List_iterator<unsigned short,_STL::_Nonconst_traits<unsigned short> >::_List_iterator<unsigned short,_STL::_Nonconst_traits<unsigned short> >
  000b2	57		 push	 edi
  000b3	6a 04		 push	 4
  000b5	50		 push	 eax
  000b6	e8 00 00 00 00	 call	 ??_H@YGXPAXIHP6EPAX0@Z@Z
  000bb	8b 45 0c	 mov	 eax, DWORD PTR $T117420[ebp]
  000be	33 c9		 xor	 ecx, ecx
  000c0	eb 02		 jmp	 SHORT $L117422
$L117421:
  000c2	33 c0		 xor	 eax, eax
$L117422:
  000c4	89 46 1c	 mov	 DWORD PTR [esi+28], eax

; 237  : 
; 238  : 	for (i=0; i<m_nPart; i++)

  000c7	33 c0		 xor	 eax, eax
  000c9	66 39 4e 08	 cmp	 WORD PTR [esi+8], cx
  000cd	76 28		 jbe	 SHORT $L112328
$L112326:

; 239  : 	{
; 240  : 		m_pData[i] = NULL;

  000cf	8b 56 0c	 mov	 edx, DWORD PTR [esi+12]
  000d2	89 0c 82	 mov	 DWORD PTR [edx+eax*4], ecx

; 241  : 		m_pParentIndex[i] = m_IndexNULL;

  000d5	8b 56 10	 mov	 edx, DWORD PTR [esi+16]
  000d8	66 8b 7e 20	 mov	 di, WORD PTR [esi+32]
  000dc	66 89 3c 42	 mov	 WORD PTR [edx+eax*2], di

; 242  : 		m_pLastTime[i] = 0;

  000e0	8b 56 14	 mov	 edx, DWORD PTR [esi+20]
  000e3	89 0c 82	 mov	 DWORD PTR [edx+eax*4], ecx

; 243  : 
; 244  : 		m_pPartIterator[i] = m_listLRU.end();

  000e6	8b 56 1c	 mov	 edx, DWORD PTR [esi+28]
  000e9	8b 3b		 mov	 edi, DWORD PTR [ebx]
  000eb	89 3c 82	 mov	 DWORD PTR [edx+eax*4], edi
  000ee	0f b7 56 08	 movzx	 edx, WORD PTR [esi+8]
  000f2	40		 inc	 eax
  000f3	3b c2		 cmp	 eax, edx
  000f5	7c d8		 jl	 SHORT $L112326
$L112328:

; 245  : 	}
; 246  : 
; 247  : 	m_Counter = 0;

  000f7	89 4e 24	 mov	 DWORD PTR [esi+36], ecx

; 248  : }

  000fa	8b 4d f4	 mov	 ecx, DWORD PTR __$EHRec$[ebp]
  000fd	5f		 pop	 edi
  000fe	5e		 pop	 esi
  000ff	5b		 pop	 ebx
  00100	64 89 0d 00 00
	00 00		 mov	 DWORD PTR fs:__except_list, ecx
  00107	c9		 leave
  00108	c2 08 00	 ret	 8
_TEXT	ENDS
;	COMDAT text$x
text$x	SEGMENT
$L117424:
  00000	ff 75 0c	 push	 DWORD PTR $T117420[ebp]
  00003	e8 00 00 00 00	 call	 ??_V@YAXPAX@Z		; operator delete[]
  00008	59		 pop	 ecx
  00009	c3		 ret	 0
__ehhandler$?Init@?$CPartManager@GGPAVCSpriteSurface@@@@QAEXGG@Z:
  0000a	b8 00 00 00 00	 mov	 eax, OFFSET FLAT:$T117442
  0000f	e9 00 00 00 00	 jmp	 ___CxxFrameHandler
text$x	ENDS
?Init@?$CPartManager@GGPAVCSpriteSurface@@@@QAEXGG@Z ENDP ; CPartManager<unsigned short,unsigned short,CSpriteSurface *>::Init
PUBLIC	??0?$list@GV?$allocator@G@_STL@@@_STL@@QAE@ABV?$allocator@G@1@@Z ; _STL::list<unsigned short,_STL::allocator<unsigned short> >::list<unsigned short,_STL::allocator<unsigned short> >
; Function compile flags: /Ogsy
; File c:\stlport-4.6.1\stlport\stl\_list.h
;	COMDAT ??0?$list@GV?$allocator@G@_STL@@@_STL@@QAE@ABV?$allocator@G@1@@Z
_TEXT	SEGMENT
___a$ = 8						; size = 4
??0?$list@GV?$allocator@G@_STL@@@_STL@@QAE@ABV?$allocator@G@1@@Z PROC NEAR ; _STL::list<unsigned short,_STL::allocator<unsigned short> >::list<unsigned short,_STL::allocator<unsigned short> >, COMDAT
; _this$ = ecx

; 264  :     _List_base<_Tp, _Alloc>(__a) {}

  00000	56		 push	 esi
  00001	ff 74 24 08	 push	 DWORD PTR ___a$[esp]
  00005	8b f1		 mov	 esi, ecx
  00007	e8 00 00 00 00	 call	 ??0?$_List_base@GV?$allocator@G@_STL@@@_STL@@QAE@ABV?$allocator@G@1@@Z ; _STL::_List_base<unsigned short,_STL::allocator<unsigned short> >::_List_base<unsigned short,_STL::allocator<unsigned short> >
  0000c	8b c6		 mov	 eax, esi
  0000e	5e		 pop	 esi
  0000f	c2 04 00	 ret	 4
??0?$list@GV?$allocator@G@_STL@@@_STL@@QAE@ABV?$allocator@G@1@@Z ENDP ; _STL::list<unsigned short,_STL::allocator<unsigned short> >::list<unsigned short,_STL::allocator<unsigned short> >
_TEXT	ENDS
PUBLIC	??1?$list@GV?$allocator@G@_STL@@@_STL@@QAE@XZ	; _STL::list<unsigned short,_STL::allocator<unsigned short> >::~list<unsigned short,_STL::allocator<unsigned short> >
; Function compile flags: /Ogsy
;	COMDAT ??1?$list@GV?$allocator@G@_STL@@@_STL@@QAE@XZ
_TEXT	SEGMENT
??1?$list@GV?$allocator@G@_STL@@@_STL@@QAE@XZ PROC NEAR	; _STL::list<unsigned short,_STL::allocator<unsigned short> >::~list<unsigned short,_STL::allocator<unsigned short> >, COMDAT
; _this$ = ecx

; 416  :   ~list() { }

  00000	e9 00 00 00 00	 jmp	 ??1?$_List_base@GV?$allocator@G@_STL@@@_STL@@QAE@XZ ; _STL::_List_base<unsigned short,_STL::allocator<unsigned short> >::~_List_base<unsigned short,_STL::allocator<unsigned short> >
??1?$list@GV?$allocator@G@_STL@@@_STL@@QAE@XZ ENDP	; _STL::list<unsigned short,_STL::allocator<unsigned short> >::~list<unsigned short,_STL::allocator<unsigned short> >
_TEXT	ENDS
PUBLIC	??1?$_Rb_tree@GU?$pair@$$CBGPAVivfstream@@@_STL@@U?$_Select1st@U?$pair@$$CBGPAVivfstream@@@_STL@@@2@U?$less@G@2@V?$allocator@U?$pair@$$CBGPAVivfstream@@@_STL@@@2@@_STL@@QAE@XZ ; _STL::_Rb_tree<unsigned short,_STL::pair<unsigned short const ,ivfstream *>,_STL::_Select1st<_STL::pair<unsigned short const ,ivfstream *> >,_STL::less<unsigned short>,_STL::allocator<_STL::pair<unsigned short const ,ivfstream *> > >::~_Rb_tree<unsigned short,_STL::pair<unsigned short const ,ivfstream *>,_STL::_Select1st<_STL::pair<unsigned short const ,ivfstream *> >,_STL::less<unsigned short>,_STL::allocator<_STL::pair<unsigned short const ,ivfstream *> > >
;	COMDAT xdata$x
; File c:\stlport-4.6.1\stlport\stl\_alloc.h
xdata$x	SEGMENT
$T117480 DD	0ffffffffH
	DD	FLAT:$L117461
$T117478 DD	019930520H
	DD	01H
	DD	FLAT:$T117480
	DD	2 DUP(00H)
	DD	2 DUP(00H)
; Function compile flags: /Ogsy
; File c:\stlport-4.6.1\stlport\stl\_tree.h
xdata$x	ENDS
;	COMDAT ??1?$_Rb_tree@GU?$pair@$$CBGPAVivfstream@@@_STL@@U?$_Select1st@U?$pair@$$CBGPAVivfstream@@@_STL@@@2@U?$less@G@2@V?$allocator@U?$pair@$$CBGPAVivfstream@@@_STL@@@2@@_STL@@QAE@XZ
_TEXT	SEGMENT
_this$ = -16						; size = 4
__$EHRec$ = -12						; size = 12
??1?$_Rb_tree@GU?$pair@$$CBGPAVivfstream@@@_STL@@U?$_Select1st@U?$pair@$$CBGPAVivfstream@@@_STL@@@2@U?$less@G@2@V?$allocator@U?$pair@$$CBGPAVivfstream@@@_STL@@@2@@_STL@@QAE@XZ PROC NEAR ; _STL::_Rb_tree<unsigned short,_STL::pair<unsigned short const ,ivfstream *>,_STL::_Select1st<_STL::pair<unsigned short const ,ivfstream *> >,_STL::less<unsigned short>,_STL::allocator<_STL::pair<unsigned short const ,ivfstream *> > >::~_Rb_tree<unsigned short,_STL::pair<unsigned short const ,ivfstream *>,_STL::_Select1st<_STL::pair<unsigned short const ,ivfstream *> >,_STL::less<unsigned short>,_STL::allocator<_STL::pair<unsigned short const ,ivfstream *> > >, COMDAT
; _this$ = ecx

; 341  :   ~_Rb_tree() { clear(); }

  00000	b8 00 00 00 00	 mov	 eax, __ehhandler$??1?$_Rb_tree@GU?$pair@$$CBGPAVivfstream@@@_STL@@U?$_Select1st@U?$pair@$$CBGPAVivfstream@@@_STL@@@2@U?$less@G@2@V?$allocator@U?$pair@$$CBGPAVivfstream@@@_STL@@@2@@_STL@@QAE@XZ
  00005	e8 00 00 00 00	 call	 __EH_prolog
  0000a	51		 push	 ecx
  0000b	56		 push	 esi
  0000c	8b f1		 mov	 esi, ecx
  0000e	89 75 f0	 mov	 DWORD PTR _this$[ebp], esi
  00011	83 65 fc 00	 and	 DWORD PTR __$EHRec$[ebp+8], 0
  00015	e8 00 00 00 00	 call	 ?clear@?$_Rb_tree@GU?$pair@$$CBGPAVivfstream@@@_STL@@U?$_Select1st@U?$pair@$$CBGPAVivfstream@@@_STL@@@2@U?$less@G@2@V?$allocator@U?$pair@$$CBGPAVivfstream@@@_STL@@@2@@_STL@@QAEXXZ ; _STL::_Rb_tree<unsigned short,_STL::pair<unsigned short const ,ivfstream *>,_STL::_Select1st<_STL::pair<unsigned short const ,ivfstream *> >,_STL::less<unsigned short>,_STL::allocator<_STL::pair<unsigned short const ,ivfstream *> > >::clear
  0001a	83 4d fc ff	 or	 DWORD PTR __$EHRec$[ebp+8], -1
  0001e	6a 01		 push	 1
  00020	ff 36		 push	 DWORD PTR [esi]
  00022	8b ce		 mov	 ecx, esi
  00024	e8 00 00 00 00	 call	 ?deallocate@?$allocator@U?$_Rb_tree_node@U?$pair@$$CBGPAVivfstream@@@_STL@@@_STL@@@_STL@@QAEXPAU?$_Rb_tree_node@U?$pair@$$CBGPAVivfstream@@@_STL@@@2@I@Z ; _STL::allocator<_STL::_Rb_tree_node<_STL::pair<unsigned short const ,ivfstream *> > >::deallocate
  00029	8b 4d f4	 mov	 ecx, DWORD PTR __$EHRec$[ebp]
  0002c	5e		 pop	 esi
  0002d	64 89 0d 00 00
	00 00		 mov	 DWORD PTR fs:__except_list, ecx
  00034	c9		 leave
  00035	c3		 ret	 0
_TEXT	ENDS
;	COMDAT text$x
text$x	SEGMENT
$L117461:
  00000	8b 4d f0	 mov	 ecx, DWORD PTR _this$[ebp]
  00003	e9 00 00 00 00	 jmp	 ??1?$_Rb_tree_base@U?$pair@$$CBGPAVivfstream@@@_STL@@V?$allocator@U?$pair@$$CBGPAVivfstream@@@_STL@@@2@@_STL@@QAE@XZ ; _STL::_Rb_tree_base<_STL::pair<unsigned short const ,ivfstream *>,_STL::allocator<_STL::pair<unsigned short const ,ivfstream *> > >::~_Rb_tree_base<_STL::pair<unsigned short const ,ivfstream *>,_STL::allocator<_STL::pair<unsigned short const ,ivfstream *> > >
__ehhandler$??1?$_Rb_tree@GU?$pair@$$CBGPAVivfstream@@@_STL@@U?$_Select1st@U?$pair@$$CBGPAVivfstream@@@_STL@@@2@U?$less@G@2@V?$allocator@U?$pair@$$CBGPAVivfstream@@@_STL@@@2@@_STL@@QAE@XZ:
  00008	b8 00 00 00 00	 mov	 eax, OFFSET FLAT:$T117478
  0000d	e9 00 00 00 00	 jmp	 ___CxxFrameHandler
text$x	ENDS
??1?$_Rb_tree@GU?$pair@$$CBGPAVivfstream@@@_STL@@U?$_Select1st@U?$pair@$$CBGPAVivfstream@@@_STL@@@2@U?$less@G@2@V?$allocator@U?$pair@$$CBGPAVivfstream@@@_STL@@@2@@_STL@@QAE@XZ ENDP ; _STL::_Rb_tree<unsigned short,_STL::pair<unsigned short const ,ivfstream *>,_STL::_Select1st<_STL::pair<unsigned short const ,ivfstream *> >,_STL::less<unsigned short>,_STL::allocator<_STL::pair<unsigned short const ,ivfstream *> > >::~_Rb_tree<unsigned short,_STL::pair<unsigned short const ,ivfstream *>,_STL::_Select1st<_STL::pair<unsigned short const ,ivfstream *> >,_STL::less<unsigned short>,_STL::allocator<_STL::pair<unsigned short const ,ivfstream *> > >
PUBLIC	?insert@?$list@GV?$allocator@G@_STL@@@_STL@@QAE?AU?$_List_iterator@GU?$_Nonconst_traits@G@_STL@@@2@U32@ABG@Z ; _STL::list<unsigned short,_STL::allocator<unsigned short> >::insert
; Function compile flags: /Ogsy
; File c:\stlport-4.6.1\stlport\stl\_list.h
;	COMDAT ?insert@?$list@GV?$allocator@G@_STL@@@_STL@@QAE?AU?$_List_iterator@GU?$_Nonconst_traits@G@_STL@@@2@U32@ABG@Z
_TEXT	SEGMENT
___$ReturnUdt$ = 8					; size = 4
___position$ = 12					; size = 4
___x$ = 16						; size = 4
?insert@?$list@GV?$allocator@G@_STL@@@_STL@@QAE?AU?$_List_iterator@GU?$_Nonconst_traits@G@_STL@@@2@U32@ABG@Z PROC NEAR ; _STL::list<unsigned short,_STL::allocator<unsigned short> >::insert, COMDAT
; _this$ = ecx

; 299  : 
; 300  :     _Node* __tmp = _M_create_node(__x);

  00000	ff 74 24 0c	 push	 DWORD PTR ___x$[esp-4]
  00004	e8 00 00 00 00	 call	 ?_M_create_node@?$list@GV?$allocator@G@_STL@@@_STL@@IAEPAU?$_List_node@G@2@ABG@Z ; _STL::list<unsigned short,_STL::allocator<unsigned short> >::_M_create_node

; 301  :     _List_node_base* __n = __position._M_node;
; 302  :     _List_node_base* __p = __n->_M_prev;

  00009	8b 4c 24 08	 mov	 ecx, DWORD PTR ___position$[esp-4]
  0000d	8b 51 04	 mov	 edx, DWORD PTR [ecx+4]

; 303  :     __tmp->_M_next = __n;

  00010	89 08		 mov	 DWORD PTR [eax], ecx

; 304  :     __tmp->_M_prev = __p;

  00012	89 50 04	 mov	 DWORD PTR [eax+4], edx

; 305  :     __p->_M_next = __tmp;

  00015	89 02		 mov	 DWORD PTR [edx], eax

; 306  :     __n->_M_prev = __tmp;

  00017	89 41 04	 mov	 DWORD PTR [ecx+4], eax

; 307  :     return __tmp;

  0001a	8b 4c 24 04	 mov	 ecx, DWORD PTR ___$ReturnUdt$[esp-4]
  0001e	89 01		 mov	 DWORD PTR [ecx], eax
  00020	8b c1		 mov	 eax, ecx

; 308  :   }

  00022	c2 0c 00	 ret	 12			; 0000000cH
?insert@?$list@GV?$allocator@G@_STL@@@_STL@@QAE?AU?$_List_iterator@GU?$_Nonconst_traits@G@_STL@@@2@U32@ABG@Z ENDP ; _STL::list<unsigned short,_STL::allocator<unsigned short> >::insert
_TEXT	ENDS
PUBLIC	??0?$_Rb_tree@GU?$pair@$$CBGPAVivfstream@@@_STL@@U?$_Select1st@U?$pair@$$CBGPAVivfstream@@@_STL@@@2@U?$less@G@2@V?$allocator@U?$pair@$$CBGPAVivfstream@@@_STL@@@2@@_STL@@QAE@ABU?$less@G@1@ABV?$allocator@U?$pair@$$CBGPAVivfstream@@@_STL@@@1@@Z ; _STL::_Rb_tree<unsigned short,_STL::pair<unsigned short const ,ivfstream *>,_STL::_Select1st<_STL::pair<unsigned short const ,ivfstream *> >,_STL::less<unsigned short>,_STL::allocator<_STL::pair<unsigned short const ,ivfstream *> > >::_Rb_tree<unsigned short,_STL::pair<unsigned short const ,ivfstream *>,_STL::_Select1st<_STL::pair<unsigned short const ,ivfstream *> >,_STL::less<unsigned short>,_STL::allocator<_STL::pair<unsigned short const ,ivfstream *> > >
; Function compile flags: /Ogsy
; File c:\stlport-4.6.1\stlport\stl\_tree.h
;	COMDAT ??0?$_Rb_tree@GU?$pair@$$CBGPAVivfstream@@@_STL@@U?$_Select1st@U?$pair@$$CBGPAVivfstream@@@_STL@@@2@U?$less@G@2@V?$allocator@U?$pair@$$CBGPAVivfstream@@@_STL@@@2@@_STL@@QAE@ABU?$less@G@1@ABV?$allocator@U?$pair@$$CBGPAVivfstream@@@_STL@@@1@@Z
_TEXT	SEGMENT
___comp$ = 8						; size = 4
___a$ = 12						; size = 4
??0?$_Rb_tree@GU?$pair@$$CBGPAVivfstream@@@_STL@@U?$_Select1st@U?$pair@$$CBGPAVivfstream@@@_STL@@@2@U?$less@G@2@V?$allocator@U?$pair@$$CBGPAVivfstream@@@_STL@@@2@@_STL@@QAE@ABU?$less@G@1@ABV?$allocator@U?$pair@$$CBGPAVivfstream@@@_STL@@@1@@Z PROC NEAR ; _STL::_Rb_tree<unsigned short,_STL::pair<unsigned short const ,ivfstream *>,_STL::_Select1st<_STL::pair<unsigned short const ,ivfstream *> >,_STL::less<unsigned short>,_STL::allocator<_STL::pair<unsigned short const ,ivfstream *> > >::_Rb_tree<unsigned short,_STL::pair<unsigned short const ,ivfstream *>,_STL::_Select1st<_STL::pair<unsigned short const ,ivfstream *> >,_STL::less<unsigned short>,_STL::allocator<_STL::pair<unsigned short const ,ivfstream *> > >, COMDAT
; _this$ = ecx

; 325  :     { _M_empty_initialize(); }

  00000	56		 push	 esi
  00001	ff 74 24 0c	 push	 DWORD PTR ___a$[esp]
  00005	8b f1		 mov	 esi, ecx
  00007	e8 00 00 00 00	 call	 ??0?$_Rb_tree_base@U?$pair@$$CBGPAVivfstream@@@_STL@@V?$allocator@U?$pair@$$CBGPAVivfstream@@@_STL@@@2@@_STL@@QAE@ABV?$allocator@U?$pair@$$CBGPAVivfstream@@@_STL@@@1@@Z ; _STL::_Rb_tree_base<_STL::pair<unsigned short const ,ivfstream *>,_STL::allocator<_STL::pair<unsigned short const ,ivfstream *> > >::_Rb_tree_base<_STL::pair<unsigned short const ,ivfstream *>,_STL::allocator<_STL::pair<unsigned short const ,ivfstream *> > >
  0000c	8b 0e		 mov	 ecx, DWORD PTR [esi]
  0000e	33 c0		 xor	 eax, eax
  00010	89 46 04	 mov	 DWORD PTR [esi+4], eax
  00013	88 01		 mov	 BYTE PTR [ecx], al
  00015	8b 0e		 mov	 ecx, DWORD PTR [esi]
  00017	89 41 04	 mov	 DWORD PTR [ecx+4], eax
  0001a	8b 06		 mov	 eax, DWORD PTR [esi]
  0001c	89 40 08	 mov	 DWORD PTR [eax+8], eax
  0001f	8b 06		 mov	 eax, DWORD PTR [esi]
  00021	89 40 0c	 mov	 DWORD PTR [eax+12], eax
  00024	8b c6		 mov	 eax, esi
  00026	5e		 pop	 esi
  00027	c2 08 00	 ret	 8
??0?$_Rb_tree@GU?$pair@$$CBGPAVivfstream@@@_STL@@U?$_Select1st@U?$pair@$$CBGPAVivfstream@@@_STL@@@2@U?$less@G@2@V?$allocator@U?$pair@$$CBGPAVivfstream@@@_STL@@@2@@_STL@@QAE@ABU?$less@G@1@ABV?$allocator@U?$pair@$$CBGPAVivfstream@@@_STL@@@1@@Z ENDP ; _STL::_Rb_tree<unsigned short,_STL::pair<unsigned short const ,ivfstream *>,_STL::_Select1st<_STL::pair<unsigned short const ,ivfstream *> >,_STL::less<unsigned short>,_STL::allocator<_STL::pair<unsigned short const ,ivfstream *> > >::_Rb_tree<unsigned short,_STL::pair<unsigned short const ,ivfstream *>,_STL::_Select1st<_STL::pair<unsigned short const ,ivfstream *> >,_STL::less<unsigned short>,_STL::allocator<_STL::pair<unsigned short const ,ivfstream *> > >
_TEXT	ENDS
PUBLIC	??$uninitialized_copy@PADPAD@_STL@@YAPADPAD00@Z	; _STL::uninitialized_copy<char *,char *>
; Function compile flags: /Ogsy
; File c:\stlport-4.6.1\stlport\stl\_uninitialized.h
;	COMDAT ??$uninitialized_copy@PADPAD@_STL@@YAPADPAD00@Z
_TEXT	SEGMENT
___first$ = 8						; size = 4
___last$ = 12						; size = 4
___result$ = 16						; size = 4
??$uninitialized_copy@PADPAD@_STL@@YAPADPAD00@Z PROC NEAR ; _STL::uninitialized_copy<char *,char *>, COMDAT

; 79   :   return __uninitialized_copy(__first, __last, __result,  _IS_POD_ITER(__result, _ForwardIter));

  00000	e9 00 00 00 00	 jmp	 ?__copy_trivial@_STL@@YAPAXPBX0PAX@Z ; _STL::__copy_trivial
??$uninitialized_copy@PADPAD@_STL@@YAPADPAD00@Z ENDP	; _STL::uninitialized_copy<char *,char *>
_TEXT	ENDS
PUBLIC	??$append@PAD@?$basic_string@DV?$char_traits@D@_STL@@V?$allocator@D@2@@_STL@@AAEAAV01@PAD0ABUforward_iterator_tag@1@@Z ; _STL::basic_string<char,_STL::char_traits<char>,_STL::allocator<char> >::append<char *>
; Function compile flags: /Ogsy
; File c:\stlport-4.6.1\stlport\stl\_string.h
;	COMDAT ??$append@PAD@?$basic_string@DV?$char_traits@D@_STL@@V?$allocator@D@2@@_STL@@AAEAAV01@PAD0ABUforward_iterator_tag@1@@Z
_TEXT	SEGMENT
___len$114414 = -8					; size = 4
___old_size$114407 = -8					; size = 4
$T117582 = -4						; size = 4
___first$ = 8						; size = 4
___last$ = 12						; size = 4
___formal$ = 16						; size = 4
??$append@PAD@?$basic_string@DV?$char_traits@D@_STL@@V?$allocator@D@2@@_STL@@AAEAAV01@PAD0ABUforward_iterator_tag@1@@Z PROC NEAR ; _STL::basic_string<char,_STL::char_traits<char>,_STL::allocator<char> >::append<char *>, COMDAT
; _this$ = ecx

; 542  :   template <class _ForwardIter> _Self& append(_ForwardIter __first, _ForwardIter __last, 

  00000	55		 push	 ebp
  00001	8b ec		 mov	 ebp, esp
  00003	51		 push	 ecx
  00004	51		 push	 ecx
  00005	56		 push	 esi
  00006	57		 push	 edi

; 543  :                        const forward_iterator_tag &)  {
; 544  :     if (__first != __last) {

  00007	8b 7d 0c	 mov	 edi, DWORD PTR ___last$[ebp]
  0000a	39 7d 08	 cmp	 DWORD PTR ___first$[ebp], edi
  0000d	8b f1		 mov	 esi, ecx
  0000f	0f 84 b6 00 00
	00		 je	 $L114420

; 545  : 	    const size_type __old_size = size();
; 546  : 	    difference_type __n = distance(__first, __last);

  00015	2b 7d 08	 sub	 edi, DWORD PTR ___first$[ebp]
  00018	53		 push	 ebx
  00019	8b 5e 04	 mov	 ebx, DWORD PTR [esi+4]
  0001c	2b 1e		 sub	 ebx, DWORD PTR [esi]

; 547  : 	    if (__STATIC_CAST(size_type,__n) > max_size() || __old_size > max_size() - __STATIC_CAST(size_type,__n))

  0001e	83 ff fe	 cmp	 edi, -2			; fffffffeH
  00021	89 5d f8	 mov	 DWORD PTR ___old_size$114407[ebp], ebx
  00024	77 09		 ja	 SHORT $L114412
  00026	6a fe		 push	 -2			; fffffffeH
  00028	58		 pop	 eax
  00029	2b c7		 sub	 eax, edi
  0002b	3b d8		 cmp	 ebx, eax
  0002d	76 07		 jbe	 SHORT $L114411
$L114412:

; 548  : 	      this->_M_throw_length_error();

  0002f	8b ce		 mov	 ecx, esi
  00031	e8 00 00 00 00	 call	 ?_M_throw_length_error@?$_String_base@DV?$allocator@D@_STL@@@_STL@@QBEXXZ ; _STL::_String_base<char,_STL::allocator<char> >::_M_throw_length_error
$L114411:

; 549  : 	    if (__old_size + __n > capacity()) {

  00036	8b 46 08	 mov	 eax, DWORD PTR [esi+8]
  00039	2b 06		 sub	 eax, DWORD PTR [esi]
  0003b	8d 0c 1f	 lea	 ecx, DWORD PTR [edi+ebx]
  0003e	48		 dec	 eax
  0003f	3b c8		 cmp	 ecx, eax
  00041	76 5e		 jbe	 SHORT $L114413

; 550  : 	      const size_type __len = __old_size +
; 551  : 	                            (max)(__old_size, __STATIC_CAST(size_type,__n)) + 1;

  00043	3b df		 cmp	 ebx, edi
  00045	89 7d fc	 mov	 DWORD PTR $T117582[ebp], edi
  00048	8d 45 fc	 lea	 eax, DWORD PTR $T117582[ebp]
  0004b	72 03		 jb	 SHORT $L117627
  0004d	8d 45 f8	 lea	 eax, DWORD PTR ___old_size$114407[ebp]
$L117627:
  00050	8b 00		 mov	 eax, DWORD PTR [eax]
  00052	8d 5c 18 01	 lea	 ebx, DWORD PTR [eax+ebx+1]

; 552  : 	      pointer __new_start = this->_M_end_of_storage.allocate(__len);

  00056	85 db		 test	 ebx, ebx
  00058	89 5d f8	 mov	 DWORD PTR ___len$114414[ebp], ebx
  0005b	74 0b		 je	 SHORT $L117633
  0005d	53		 push	 ebx
  0005e	e8 00 00 00 00	 call	 ?allocate@?$__node_alloc@$00$0A@@_STL@@SAPAXI@Z ; _STL::__node_alloc<1,0>::allocate
  00063	59		 pop	 ecx
  00064	8b f8		 mov	 edi, eax
  00066	eb 02		 jmp	 SHORT $L117634
$L117633:
  00068	33 ff		 xor	 edi, edi
$L117634:

; 553  : 	      pointer __new_finish = __new_start;
; 554  : 	      _STLP_TRY {
; 555  : 	        __new_finish = uninitialized_copy(this->_M_start, this->_M_finish, __new_start);

  0006a	8b 46 04	 mov	 eax, DWORD PTR [esi+4]
  0006d	8b 0e		 mov	 ecx, DWORD PTR [esi]
  0006f	57		 push	 edi
  00070	50		 push	 eax
  00071	51		 push	 ecx
  00072	e8 00 00 00 00	 call	 ?__copy_trivial@_STL@@YAPAXPBX0PAX@Z ; _STL::__copy_trivial

; 556  : 	        __new_finish = uninitialized_copy(__first, __last, __new_finish);

  00077	50		 push	 eax
  00078	ff 75 0c	 push	 DWORD PTR ___last$[ebp]
  0007b	ff 75 08	 push	 DWORD PTR ___first$[ebp]
  0007e	e8 00 00 00 00	 call	 ?__copy_trivial@_STL@@YAPAXPBX0PAX@Z ; _STL::__copy_trivial
  00083	8b d8		 mov	 ebx, eax
  00085	83 c4 18	 add	 esp, 24			; 00000018H

; 557  : 	        _M_construct_null(__new_finish);
; 558  : 	      }
; 559  : 	      _STLP_UNWIND((_STLP_STD::_Destroy(__new_start,__new_finish),
; 560  : 	                    this->_M_end_of_storage.deallocate(__new_start,__len)));
; 561  : 	      _STLP_STD::_Destroy(this->_M_start, this->_M_finish + 1);
; 562  : 	      this->_M_deallocate_block();

  00088	8b ce		 mov	 ecx, esi
  0008a	c6 03 00	 mov	 BYTE PTR [ebx], 0
  0008d	e8 00 00 00 00	 call	 ?_M_deallocate_block@?$_String_base@DV?$allocator@D@_STL@@@_STL@@QAEXXZ ; _STL::_String_base<char,_STL::allocator<char> >::_M_deallocate_block

; 563  : 	      this->_M_start = __new_start;
; 564  : 	      this->_M_finish = __new_finish;
; 565  : 	      this->_M_end_of_storage._M_data = __new_start + __len; 

  00092	8b 45 f8	 mov	 eax, DWORD PTR ___len$114414[ebp]
  00095	89 3e		 mov	 DWORD PTR [esi], edi
  00097	03 f8		 add	 edi, eax
  00099	89 5e 04	 mov	 DWORD PTR [esi+4], ebx
  0009c	89 7e 08	 mov	 DWORD PTR [esi+8], edi

; 566  : 	    }
; 567  : 	    else {

  0009f	eb 29		 jmp	 SHORT $L117909
$L114413:

; 568  : 	      _ForwardIter __f1 = __first;
; 569  : 	      ++__f1;
; 570  : 	      uninitialized_copy(__f1, __last, this->_M_finish + 1);

  000a1	8b 46 04	 mov	 eax, DWORD PTR [esi+4]
  000a4	40		 inc	 eax
  000a5	50		 push	 eax
  000a6	8b 45 08	 mov	 eax, DWORD PTR ___first$[ebp]
  000a9	ff 75 0c	 push	 DWORD PTR ___last$[ebp]
  000ac	40		 inc	 eax
  000ad	50		 push	 eax
  000ae	e8 00 00 00 00	 call	 ?__copy_trivial@_STL@@YAPAXPBX0PAX@Z ; _STL::__copy_trivial

; 571  : 	      _STLP_TRY {
; 572  : 	        _M_construct_null(this->_M_finish + __n);

  000b3	8b 46 04	 mov	 eax, DWORD PTR [esi+4]

; 573  : 	      }
; 574  : 	      _STLP_UNWIND(_STLP_STD::_Destroy(this->_M_finish + 1, this->_M_finish + __n));
; 575  : 	      _Traits::assign(*end(), *__first);

  000b6	8b 4d 08	 mov	 ecx, DWORD PTR ___first$[ebp]
  000b9	c6 04 07 00	 mov	 BYTE PTR [edi+eax], 0
  000bd	8b 46 04	 mov	 eax, DWORD PTR [esi+4]
  000c0	8a 09		 mov	 cl, BYTE PTR [ecx]
  000c2	83 c4 0c	 add	 esp, 12			; 0000000cH
  000c5	88 08		 mov	 BYTE PTR [eax], cl

; 576  : 	      this->_M_finish += __n;

  000c7	01 7e 04	 add	 DWORD PTR [esi+4], edi
$L117909:
  000ca	5b		 pop	 ebx
$L114420:
  000cb	5f		 pop	 edi

; 577  : 	    }
; 578  : 	  }
; 579  : 	  return *this;  

  000cc	8b c6		 mov	 eax, esi
  000ce	5e		 pop	 esi

; 580  : 	}

  000cf	c9		 leave
  000d0	c2 0c 00	 ret	 12			; 0000000cH
??$append@PAD@?$basic_string@DV?$char_traits@D@_STL@@V?$allocator@D@2@@_STL@@AAEAAV01@PAD0ABUforward_iterator_tag@1@@Z ENDP ; _STL::basic_string<char,_STL::char_traits<char>,_STL::allocator<char> >::append<char *>
_TEXT	ENDS
PUBLIC	??1?$_String_base@DV?$allocator@D@_STL@@@_STL@@QAE@XZ ; _STL::_String_base<char,_STL::allocator<char> >::~_String_base<char,_STL::allocator<char> >
; Function compile flags: /Ogsy
;	COMDAT ??1?$_String_base@DV?$allocator@D@_STL@@@_STL@@QAE@XZ
_TEXT	SEGMENT
??1?$_String_base@DV?$allocator@D@_STL@@@_STL@@QAE@XZ PROC NEAR ; _STL::_String_base<char,_STL::allocator<char> >::~_String_base<char,_STL::allocator<char> >, COMDAT
; _this$ = ecx

; 135  :   ~_String_base() { _M_deallocate_block(); }

  00000	e9 00 00 00 00	 jmp	 ?_M_deallocate_block@?$_String_base@DV?$allocator@D@_STL@@@_STL@@QAEXXZ ; _STL::_String_base<char,_STL::allocator<char> >::_M_deallocate_block
??1?$_String_base@DV?$allocator@D@_STL@@@_STL@@QAE@XZ ENDP ; _STL::_String_base<char,_STL::allocator<char> >::~_String_base<char,_STL::allocator<char> >
_TEXT	ENDS
PUBLIC	??0?$basic_string@DV?$char_traits@D@_STL@@V?$allocator@D@2@@_STL@@QAE@XZ ; _STL::basic_string<char,_STL::char_traits<char>,_STL::allocator<char> >::basic_string<char,_STL::char_traits<char>,_STL::allocator<char> >
;	COMDAT xdata$x
xdata$x	SEGMENT
$T117961 DD	0ffffffffH
	DD	FLAT:$L117916
$T117959 DD	019930520H
	DD	01H
	DD	FLAT:$T117961
	DD	2 DUP(00H)
	DD	2 DUP(00H)
; Function compile flags: /Ogsy
; File c:\stlport-4.6.1\stlport\stl\_string.c
xdata$x	ENDS
;	COMDAT ??0?$basic_string@DV?$char_traits@D@_STL@@V?$allocator@D@2@@_STL@@QAE@XZ
_TEXT	SEGMENT
_this$ = -20						; size = 4
$T117915 = -13						; size = 1
__$EHRec$ = -12						; size = 12
??0?$basic_string@DV?$char_traits@D@_STL@@V?$allocator@D@2@@_STL@@QAE@XZ PROC NEAR ; _STL::basic_string<char,_STL::char_traits<char>,_STL::allocator<char> >::basic_string<char,_STL::char_traits<char>,_STL::allocator<char> >, COMDAT
; _this$ = ecx

; 541  :   : _String_base<_CharT,_Alloc>(allocator_type()) {  

  00000	b8 00 00 00 00	 mov	 eax, __ehhandler$??0?$basic_string@DV?$char_traits@D@_STL@@V?$allocator@D@2@@_STL@@QAE@XZ
  00005	e8 00 00 00 00	 call	 __EH_prolog
  0000a	51		 push	 ecx
  0000b	51		 push	 ecx
  0000c	56		 push	 esi
  0000d	8d 45 f3	 lea	 eax, DWORD PTR $T117915[ebp]
  00010	8b f1		 mov	 esi, ecx
  00012	50		 push	 eax
  00013	89 75 ec	 mov	 DWORD PTR _this$[ebp], esi
  00016	e8 00 00 00 00	 call	 ??0?$_String_base@DV?$allocator@D@_STL@@@_STL@@QAE@ABV?$allocator@D@1@@Z ; _STL::_String_base<char,_STL::allocator<char> >::_String_base<char,_STL::allocator<char> >
  0001b	83 65 fc 00	 and	 DWORD PTR __$EHRec$[ebp+8], 0

; 542  :   this->_M_start = this->_M_end_of_storage.allocate(8); 

  0001f	6a 08		 push	 8
  00021	e8 00 00 00 00	 call	 ?_M_allocate@?$__node_alloc@$00$0A@@_STL@@CAPAXI@Z ; _STL::__node_alloc<1,0>::_M_allocate
  00026	59		 pop	 ecx

; 543  :   this->_M_finish = this->_M_start; 
; 544  :   this->_M_end_of_storage._M_data = this->_M_start + 8; 

  00027	8d 48 08	 lea	 ecx, DWORD PTR [eax+8]
  0002a	89 06		 mov	 DWORD PTR [esi], eax
  0002c	89 46 04	 mov	 DWORD PTR [esi+4], eax
  0002f	89 4e 08	 mov	 DWORD PTR [esi+8], ecx

; 545  :   _M_terminate_string();  
; 546  : } 

  00032	8b 4d f4	 mov	 ecx, DWORD PTR __$EHRec$[ebp]
  00035	c6 00 00	 mov	 BYTE PTR [eax], 0
  00038	8b c6		 mov	 eax, esi
  0003a	5e		 pop	 esi
  0003b	64 89 0d 00 00
	00 00		 mov	 DWORD PTR fs:__except_list, ecx
  00042	c9		 leave
  00043	c3		 ret	 0
_TEXT	ENDS
;	COMDAT text$x
text$x	SEGMENT
$L117916:
  00000	8b 4d ec	 mov	 ecx, DWORD PTR _this$[ebp]
  00003	e9 00 00 00 00	 jmp	 ??1?$_String_base@DV?$allocator@D@_STL@@@_STL@@QAE@XZ ; _STL::_String_base<char,_STL::allocator<char> >::~_String_base<char,_STL::allocator<char> >
__ehhandler$??0?$basic_string@DV?$char_traits@D@_STL@@V?$allocator@D@2@@_STL@@QAE@XZ:
  00008	b8 00 00 00 00	 mov	 eax, OFFSET FLAT:$T117959
  0000d	e9 00 00 00 00	 jmp	 ___CxxFrameHandler
text$x	ENDS
??0?$basic_string@DV?$char_traits@D@_STL@@V?$allocator@D@2@@_STL@@QAE@XZ ENDP ; _STL::basic_string<char,_STL::char_traits<char>,_STL::allocator<char> >::basic_string<char,_STL::char_traits<char>,_STL::allocator<char> >
PUBLIC	??_D?$basic_ifstream@DV?$char_traits@D@_STL@@@_STL@@QAEXXZ ; _STL::basic_ifstream<char,_STL::char_traits<char> >::`vbase destructor'
; Function compile flags: /Ogsy
;	COMDAT ??_D?$basic_ifstream@DV?$char_traits@D@_STL@@@_STL@@QAEXXZ
_TEXT	SEGMENT
??_D?$basic_ifstream@DV?$char_traits@D@_STL@@@_STL@@QAEXXZ PROC NEAR ; _STL::basic_ifstream<char,_STL::char_traits<char> >::`vbase destructor', COMDAT
; _this$ = ecx
  00000	56		 push	 esi
  00001	8d b1 bc 00 00
	00		 lea	 esi, DWORD PTR [ecx+188]
  00007	8b ce		 mov	 ecx, esi
  00009	e8 00 00 00 00	 call	 ??1?$basic_ifstream@DV?$char_traits@D@_STL@@@_STL@@UAE@XZ ; _STL::basic_ifstream<char,_STL::char_traits<char> >::~basic_ifstream<char,_STL::char_traits<char> >
  0000e	8b ce		 mov	 ecx, esi
  00010	5e		 pop	 esi
  00011	e9 00 00 00 00	 jmp	 ??1?$basic_ios@DV?$char_traits@D@_STL@@@_STL@@UAE@XZ ; _STL::basic_ios<char,_STL::char_traits<char> >::~basic_ios<char,_STL::char_traits<char> >
??_D?$basic_ifstream@DV?$char_traits@D@_STL@@@_STL@@QAEXXZ ENDP ; _STL::basic_ifstream<char,_STL::char_traits<char> >::`vbase destructor'
_TEXT	ENDS
PUBLIC	?Release@CShadowPartManager@@QAEXXZ		; CShadowPartManager::Release
; Function compile flags: /Ogsy
; File c:\darkeden\designed_common\project\client\cshadowpartmanager.cpp
;	COMDAT ?Release@CShadowPartManager@@QAEXXZ
_TEXT	SEGMENT
?Release@CShadowPartManager@@QAEXXZ PROC NEAR		; CShadowPartManager::Release, COMDAT
; _this$ = ecx

; 198  : {

  00000	55		 push	 ebp
  00001	56		 push	 esi
  00002	8b f1		 mov	 esi, ecx

; 199  : 	///*
; 200  : //	if (m_bOpen)
; 201  : //	{
; 202  : //		m_SSPKFile.close();
; 203  : //		m_bOpen = false;
; 204  : //	}
; 205  : 	//*/	
; 206  : 	if (m_pWidth != NULL)

  00004	8b 46 6c	 mov	 eax, DWORD PTR [esi+108]
  00007	33 ed		 xor	 ebp, ebp
  00009	3b c5		 cmp	 eax, ebp
  0000b	74 0a		 je	 SHORT $L111685

; 207  : 	{
; 208  : 		delete [] m_pWidth;

  0000d	50		 push	 eax
  0000e	e8 00 00 00 00	 call	 ??_V@YAXPAX@Z		; operator delete[]
  00013	59		 pop	 ecx

; 209  : 		m_pWidth = NULL;

  00014	89 6e 6c	 mov	 DWORD PTR [esi+108], ebp
$L111685:

; 210  : 	}
; 211  : 
; 212  : 	if (m_pHeight != NULL)

  00017	8b 46 70	 mov	 eax, DWORD PTR [esi+112]
  0001a	3b c5		 cmp	 eax, ebp
  0001c	74 0a		 je	 SHORT $L111687

; 213  : 	{
; 214  : 		delete [] m_pHeight;

  0001e	50		 push	 eax
  0001f	e8 00 00 00 00	 call	 ??_V@YAXPAX@Z		; operator delete[]
  00024	59		 pop	 ecx

; 215  : 		m_pHeight = NULL;

  00025	89 6e 70	 mov	 DWORD PTR [esi+112], ebp
$L111687:

; 216  : 	}	
; 217  : 
; 218  : 	if (m_pData!=NULL)

  00028	39 6e 0c	 cmp	 DWORD PTR [esi+12], ebp
  0002b	74 33		 je	 SHORT $L111693
  0002d	53		 push	 ebx

; 219  : 	{
; 220  : 		for (int i=0; i<m_nPart; i++)

  0002e	33 db		 xor	 ebx, ebx
  00030	66 39 6e 08	 cmp	 WORD PTR [esi+8], bp
  00034	76 29		 jbe	 SHORT $L117982
  00036	57		 push	 edi
$L111691:

; 221  : 		{
; 222  : 			if (m_pData[i]!=NULL)

  00037	8b 46 0c	 mov	 eax, DWORD PTR [esi+12]
  0003a	8b 3c 98	 mov	 edi, DWORD PTR [eax+ebx*4]
  0003d	3b fd		 cmp	 edi, ebp
  0003f	74 14		 je	 SHORT $L111692

; 223  : 			{
; 224  : 				delete m_pData[i];

  00041	8b cf		 mov	 ecx, edi
  00043	e8 00 00 00 00	 call	 ??1CSpriteSurface@@QAE@XZ ; CSpriteSurface::~CSpriteSurface
  00048	57		 push	 edi
  00049	e8 00 00 00 00	 call	 ??3@YAXPAX@Z		; operator delete

; 225  : 				m_pData[i] = NULL;

  0004e	8b 46 0c	 mov	 eax, DWORD PTR [esi+12]
  00051	59		 pop	 ecx
  00052	89 2c 98	 mov	 DWORD PTR [eax+ebx*4], ebp
$L111692:
  00055	0f b7 46 08	 movzx	 eax, WORD PTR [esi+8]
  00059	43		 inc	 ebx
  0005a	3b d8		 cmp	 ebx, eax
  0005c	7c d9		 jl	 SHORT $L111691
  0005e	5f		 pop	 edi
$L117982:
  0005f	5b		 pop	 ebx
$L111693:

; 226  : 			}
; 227  : 		}
; 228  : 	}
; 229  : 
; 230  : 	DeleteRemoved();

  00060	8b ce		 mov	 ecx, esi
  00062	5e		 pop	 esi
  00063	5d		 pop	 ebp
  00064	e9 00 00 00 00	 jmp	 ?DeleteRemoved@CShadowPartManager@@QAEXXZ ; CShadowPartManager::DeleteRemoved
?Release@CShadowPartManager@@QAEXXZ ENDP		; CShadowPartManager::Release
_TEXT	ENDS
PUBLIC	?Clear@CShadowPartManager@@QAEXXZ		; CShadowPartManager::Clear
EXTRN	?Restore@CDirectDrawSurface@@QAE_NXZ:NEAR	; CDirectDrawSurface::Restore
; Function compile flags: /Ogsy
;	COMDAT ?Clear@CShadowPartManager@@QAEXXZ
_TEXT	SEGMENT
?Clear@CShadowPartManager@@QAEXXZ PROC NEAR		; CShadowPartManager::Clear, COMDAT
; _this$ = ecx

; 264  : {

  00000	53		 push	 ebx
  00001	56		 push	 esi
  00002	8b f1		 mov	 esi, ecx

; 265  : 	// video memory ~.
; 266  : 	for (int i=0; i<m_nPart; i++)

  00004	33 db		 xor	 ebx, ebx
  00006	66 39 5e 08	 cmp	 WORD PTR [esi+8], bx
  0000a	76 39		 jbe	 SHORT $L111759
  0000c	57		 push	 edi
$L111757:

; 267  : 	{
; 268  : 		if (m_pData[i] != NULL)			

  0000d	8b 46 0c	 mov	 eax, DWORD PTR [esi+12]
  00010	8b 0c 98	 mov	 ecx, DWORD PTR [eax+ebx*4]
  00013	85 c9		 test	 ecx, ecx
  00015	74 24		 je	 SHORT $L111758

; 269  : 		{
; 270  : 			m_pData[i]->Restore();

  00017	e8 00 00 00 00	 call	 ?Restore@CDirectDrawSurface@@QAE_NXZ ; CDirectDrawSurface::Restore

; 271  : 			delete m_pData[i];

  0001c	8b 46 0c	 mov	 eax, DWORD PTR [esi+12]
  0001f	8b 3c 98	 mov	 edi, DWORD PTR [eax+ebx*4]
  00022	85 ff		 test	 edi, edi
  00024	74 0e		 je	 SHORT $L117990
  00026	8b cf		 mov	 ecx, edi
  00028	e8 00 00 00 00	 call	 ??1CSpriteSurface@@QAE@XZ ; CSpriteSurface::~CSpriteSurface
  0002d	57		 push	 edi
  0002e	e8 00 00 00 00	 call	 ??3@YAXPAX@Z		; operator delete
  00033	59		 pop	 ecx
$L117990:

; 272  : 			m_pData[i] = NULL;

  00034	8b 46 0c	 mov	 eax, DWORD PTR [esi+12]
  00037	83 24 98 00	 and	 DWORD PTR [eax+ebx*4], 0
$L111758:
  0003b	0f b7 46 08	 movzx	 eax, WORD PTR [esi+8]
  0003f	43		 inc	 ebx
  00040	3b d8		 cmp	 ebx, eax
  00042	7c c9		 jl	 SHORT $L111757
  00044	5f		 pop	 edi
$L111759:

; 273  : 		}
; 274  : 	}
; 275  : 
; 276  : 	// Base class Init ..
; 277  : 	// (  ,    ) 
; 278  : 	CPartManager<WORD, WORD, CSpriteSurface*>::Init( m_nIndex, m_nPart );

  00045	33 c0		 xor	 eax, eax
  00047	66 8b 46 08	 mov	 ax, WORD PTR [esi+8]
  0004b	8b ce		 mov	 ecx, esi
  0004d	50		 push	 eax
  0004e	33 c0		 xor	 eax, eax
  00050	66 8b 06	 mov	 ax, WORD PTR [esi]
  00053	50		 push	 eax
  00054	e8 00 00 00 00	 call	 ?Init@?$CPartManager@GGPAVCSpriteSurface@@@@QAEXGG@Z ; CPartManager<unsigned short,unsigned short,CSpriteSurface *>::Init

; 279  : 
; 280  : 	// NULL 
; 281  : 	for (i=0; i<m_nPart; i++)

  00059	33 c0		 xor	 eax, eax
  0005b	66 39 46 08	 cmp	 WORD PTR [esi+8], ax
  0005f	76 10		 jbe	 SHORT $L111765
$L111763:

; 282  : 	{
; 283  : 		m_pData[i] = NULL;

  00061	8b 4e 0c	 mov	 ecx, DWORD PTR [esi+12]
  00064	83 24 81 00	 and	 DWORD PTR [ecx+eax*4], 0
  00068	0f b7 4e 08	 movzx	 ecx, WORD PTR [esi+8]
  0006c	40		 inc	 eax
  0006d	3b c1		 cmp	 eax, ecx
  0006f	7c f0		 jl	 SHORT $L111763
$L111765:

; 284  : 	}
; 285  : 
; 286  : 	DeleteRemoved();

  00071	8b ce		 mov	 ecx, esi
  00073	5e		 pop	 esi
  00074	5b		 pop	 ebx
  00075	e9 00 00 00 00	 jmp	 ?DeleteRemoved@CShadowPartManager@@QAEXXZ ; CShadowPartManager::DeleteRemoved
?Clear@CShadowPartManager@@QAEXXZ ENDP			; CShadowPartManager::Clear
_TEXT	ENDS
PUBLIC	?push_back@?$list@PAVCSpriteSurface@@V?$allocator@PAVCSpriteSurface@@@_STL@@@_STL@@QAEXABQAVCSpriteSurface@@@Z ; _STL::list<CSpriteSurface *,_STL::allocator<CSpriteSurface *> >::push_back
; Function compile flags: /Ogsy
; File c:\stlport-4.6.1\stlport\stl\_list.h
;	COMDAT ?push_back@?$list@PAVCSpriteSurface@@V?$allocator@PAVCSpriteSurface@@@_STL@@@_STL@@QAEXABQAVCSpriteSurface@@@Z
_TEXT	SEGMENT
$T118005 = 8						; size = 4
___x$ = 8						; size = 4
?push_back@?$list@PAVCSpriteSurface@@V?$allocator@PAVCSpriteSurface@@@_STL@@@_STL@@QAEXABQAVCSpriteSurface@@@Z PROC NEAR ; _STL::list<CSpriteSurface *,_STL::allocator<CSpriteSurface *> >::push_back, COMDAT
; _this$ = ecx

; 345  :   void push_back(const _Tp& __x) { insert(end(), __x); }

  00000	55		 push	 ebp
  00001	8b ec		 mov	 ebp, esp
  00003	ff 75 08	 push	 DWORD PTR ___x$[ebp]
  00006	8b 11		 mov	 edx, DWORD PTR [ecx]
  00008	51		 push	 ecx
  00009	8b c4		 mov	 eax, esp
  0000b	89 10		 mov	 DWORD PTR [eax], edx
  0000d	8d 45 08	 lea	 eax, DWORD PTR $T118005[ebp]
  00010	50		 push	 eax
  00011	e8 00 00 00 00	 call	 ?insert@?$list@PAVCSpriteSurface@@V?$allocator@PAVCSpriteSurface@@@_STL@@@_STL@@QAE?AU?$_List_iterator@PAVCSpriteSurface@@U?$_Nonconst_traits@PAVCSpriteSurface@@@_STL@@@2@U32@ABQAVCSpriteSurface@@@Z ; _STL::list<CSpriteSurface *,_STL::allocator<CSpriteSurface *> >::insert
  00016	5d		 pop	 ebp
  00017	c2 04 00	 ret	 4
?push_back@?$list@PAVCSpriteSurface@@V?$allocator@PAVCSpriteSurface@@@_STL@@@_STL@@QAEXABQAVCSpriteSurface@@@Z ENDP ; _STL::list<CSpriteSurface *,_STL::allocator<CSpriteSurface *> >::push_back
; Function compile flags: /Ogsy
_TEXT	ENDS
;	COMDAT ??_G?$basic_ifstream@DV?$char_traits@D@_STL@@@_STL@@UAEPAXI@Z
_TEXT	SEGMENT
___flags$ = 8						; size = 4
??_G?$basic_ifstream@DV?$char_traits@D@_STL@@@_STL@@UAEPAXI@Z PROC NEAR ; _STL::basic_ifstream<char,_STL::char_traits<char> >::`scalar deleting destructor', COMDAT
; _this$ = ecx
  00000	56		 push	 esi
  00001	8d b1 44 ff ff
	ff		 lea	 esi, DWORD PTR [ecx-188]
  00007	8b ce		 mov	 ecx, esi
  00009	e8 00 00 00 00	 call	 ??_D?$basic_ifstream@DV?$char_traits@D@_STL@@@_STL@@QAEXXZ
  0000e	f6 44 24 08 01	 test	 BYTE PTR ___flags$[esp], 1
  00013	74 07		 je	 SHORT $L111949
  00015	56		 push	 esi
  00016	e8 00 00 00 00	 call	 ??3@YAXPAX@Z		; operator delete
  0001b	59		 pop	 ecx
$L111949:
  0001c	8b c6		 mov	 eax, esi
  0001e	5e		 pop	 esi
  0001f	c2 04 00	 ret	 4
??_G?$basic_ifstream@DV?$char_traits@D@_STL@@@_STL@@UAEPAXI@Z ENDP ; _STL::basic_ifstream<char,_STL::char_traits<char> >::`scalar deleting destructor'
_TEXT	ENDS
PUBLIC	??0?$CPartManager@GGPAVCSpriteSurface@@@@QAE@XZ	; CPartManager<unsigned short,unsigned short,CSpriteSurface *>::CPartManager<unsigned short,unsigned short,CSpriteSurface *>
; Function compile flags: /Ogsy
; File c:\darkeden\designed_common\project\client\cpartmanager.h
;	COMDAT ??0?$CPartManager@GGPAVCSpriteSurface@@@@QAE@XZ
_TEXT	SEGMENT
$T118028 = -1						; size = 1
??0?$CPartManager@GGPAVCSpriteSurface@@@@QAE@XZ PROC NEAR ; CPartManager<unsigned short,unsigned short,CSpriteSurface *>::CPartManager<unsigned short,unsigned short,CSpriteSurface *>, COMDAT
; _this$ = ecx

; 162  : {

  00000	51		 push	 ecx
  00001	56		 push	 esi
  00002	8b f1		 mov	 esi, ecx
  00004	8d 44 24 07	 lea	 eax, DWORD PTR $T118028[esp+8]
  00008	50		 push	 eax
  00009	8d 4e 18	 lea	 ecx, DWORD PTR [esi+24]
  0000c	e8 00 00 00 00	 call	 ??0?$_List_base@GV?$allocator@G@_STL@@@_STL@@QAE@ABV?$allocator@G@1@@Z ; _STL::_List_base<unsigned short,_STL::allocator<unsigned short> >::_List_base<unsigned short,_STL::allocator<unsigned short> >

; 163  : 	m_nIndex = 0;
; 164  : 	m_pPartIndex = NULL;
; 165  : 
; 166  : 	m_nPart = 0;
; 167  : 	m_nPartUsed = 0;
; 168  : 	m_pData = NULL;
; 169  : 	m_pParentIndex = NULL;
; 170  : 	m_pLastTime = NULL;
; 171  : 
; 172  : 	// LRU
; 173  : 	m_pPartIterator = NULL;
; 174  : 
; 175  : 	// Null
; 176  : 	m_IndexNULL	= (IndexType)0xFFFFFFFF;

  00011	66 81 4e 20 ff
	ff		 or	 WORD PTR [esi+32], 65535 ; 0000ffffH
  00017	33 c0		 xor	 eax, eax

; 177  : 	m_PartIndexNULL = (PartIndexType)0xFFFFFFFF;

  00019	66 81 4e 22 ff
	ff		 or	 WORD PTR [esi+34], 65535 ; 0000ffffH
  0001f	66 89 06	 mov	 WORD PTR [esi], ax
  00022	89 46 04	 mov	 DWORD PTR [esi+4], eax
  00025	66 89 46 08	 mov	 WORD PTR [esi+8], ax
  00029	66 89 46 0a	 mov	 WORD PTR [esi+10], ax
  0002d	89 46 0c	 mov	 DWORD PTR [esi+12], eax
  00030	89 46 10	 mov	 DWORD PTR [esi+16], eax
  00033	89 46 14	 mov	 DWORD PTR [esi+20], eax
  00036	89 46 1c	 mov	 DWORD PTR [esi+28], eax

; 178  : 
; 179  : 	// timer
; 180  : 	m_Counter = 0;

  00039	89 46 24	 mov	 DWORD PTR [esi+36], eax

; 181  : }

  0003c	8b c6		 mov	 eax, esi
  0003e	5e		 pop	 esi
  0003f	59		 pop	 ecx
  00040	c3		 ret	 0
??0?$CPartManager@GGPAVCSpriteSurface@@@@QAE@XZ ENDP	; CPartManager<unsigned short,unsigned short,CSpriteSurface *>::CPartManager<unsigned short,unsigned short,CSpriteSurface *>
_TEXT	ENDS
PUBLIC	??1?$CPartManager@GGPAVCSpriteSurface@@@@QAE@XZ	; CPartManager<unsigned short,unsigned short,CSpriteSurface *>::~CPartManager<unsigned short,unsigned short,CSpriteSurface *>
;	COMDAT xdata$x
; File c:\stlport-4.6.1\stlport\stl\_list.h
xdata$x	SEGMENT
$T118053 DD	0ffffffffH
	DD	FLAT:$L118044
$T118051 DD	019930520H
	DD	01H
	DD	FLAT:$T118053
	DD	2 DUP(00H)
	DD	2 DUP(00H)
; Function compile flags: /Ogsy
; File c:\darkeden\designed_common\project\client\cpartmanager.h
xdata$x	ENDS
;	COMDAT ??1?$CPartManager@GGPAVCSpriteSurface@@@@QAE@XZ
_TEXT	SEGMENT
_this$ = -16						; size = 4
__$EHRec$ = -12						; size = 12
??1?$CPartManager@GGPAVCSpriteSurface@@@@QAE@XZ PROC NEAR ; CPartManager<unsigned short,unsigned short,CSpriteSurface *>::~CPartManager<unsigned short,unsigned short,CSpriteSurface *>, COMDAT
; _this$ = ecx

; 185  : {

  00000	b8 00 00 00 00	 mov	 eax, __ehhandler$??1?$CPartManager@GGPAVCSpriteSurface@@@@QAE@XZ
  00005	e8 00 00 00 00	 call	 __EH_prolog
  0000a	51		 push	 ecx
  0000b	56		 push	 esi
  0000c	8b f1		 mov	 esi, ecx
  0000e	89 75 f0	 mov	 DWORD PTR _this$[ebp], esi
  00011	83 65 fc 00	 and	 DWORD PTR __$EHRec$[ebp+8], 0

; 186  : 	Release();

  00015	e8 00 00 00 00	 call	 ?Release@?$CPartManager@GGPAVCSpriteSurface@@@@QAEXXZ ; CPartManager<unsigned short,unsigned short,CSpriteSurface *>::Release

; 187  : }

  0001a	83 4d fc ff	 or	 DWORD PTR __$EHRec$[ebp+8], -1
  0001e	8d 4e 18	 lea	 ecx, DWORD PTR [esi+24]
  00021	e8 00 00 00 00	 call	 ??1?$_List_base@GV?$allocator@G@_STL@@@_STL@@QAE@XZ ; _STL::_List_base<unsigned short,_STL::allocator<unsigned short> >::~_List_base<unsigned short,_STL::allocator<unsigned short> >
  00026	8b 4d f4	 mov	 ecx, DWORD PTR __$EHRec$[ebp]
  00029	5e		 pop	 esi
  0002a	64 89 0d 00 00
	00 00		 mov	 DWORD PTR fs:__except_list, ecx
  00031	c9		 leave
  00032	c3		 ret	 0
_TEXT	ENDS
;	COMDAT text$x
text$x	SEGMENT
$L118044:
  00000	8b 4d f0	 mov	 ecx, DWORD PTR _this$[ebp]
  00003	83 c1 18	 add	 ecx, 24			; 00000018H
  00006	e9 00 00 00 00	 jmp	 ??1?$list@GV?$allocator@G@_STL@@@_STL@@QAE@XZ ; _STL::list<unsigned short,_STL::allocator<unsigned short> >::~list<unsigned short,_STL::allocator<unsigned short> >
__ehhandler$??1?$CPartManager@GGPAVCSpriteSurface@@@@QAE@XZ:
  0000b	b8 00 00 00 00	 mov	 eax, OFFSET FLAT:$T118051
  00010	e9 00 00 00 00	 jmp	 ___CxxFrameHandler
text$x	ENDS
??1?$CPartManager@GGPAVCSpriteSurface@@@@QAE@XZ ENDP	; CPartManager<unsigned short,unsigned short,CSpriteSurface *>::~CPartManager<unsigned short,unsigned short,CSpriteSurface *>
PUBLIC	??1?$map@GPAVivfstream@@U?$less@G@_STL@@V?$allocator@U?$pair@$$CBGPAVivfstream@@@_STL@@@3@@_STL@@QAE@XZ ; _STL::map<unsigned short,ivfstream *,_STL::less<unsigned short>,_STL::allocator<_STL::pair<unsigned short const ,ivfstream *> > >::~map<unsigned short,ivfstream *,_STL::less<unsigned short>,_STL::allocator<_STL::pair<unsigned short const ,ivfstream *> > >
; Function compile flags: /Ogsy
;	COMDAT ??1?$map@GPAVivfstream@@U?$less@G@_STL@@V?$allocator@U?$pair@$$CBGPAVivfstream@@@_STL@@@3@@_STL@@QAE@XZ
_TEXT	SEGMENT
??1?$map@GPAVivfstream@@U?$less@G@_STL@@V?$allocator@U?$pair@$$CBGPAVivfstream@@@_STL@@@3@@_STL@@QAE@XZ PROC NEAR ; _STL::map<unsigned short,ivfstream *,_STL::less<unsigned short>,_STL::allocator<_STL::pair<unsigned short const ,ivfstream *> > >::~map<unsigned short,ivfstream *,_STL::less<unsigned short>,_STL::allocator<_STL::pair<unsigned short const ,ivfstream *> > >, COMDAT
; _this$ = ecx
  00000	e9 00 00 00 00	 jmp	 ??1?$_Rb_tree@GU?$pair@$$CBGPAVivfstream@@@_STL@@U?$_Select1st@U?$pair@$$CBGPAVivfstream@@@_STL@@@2@U?$less@G@2@V?$allocator@U?$pair@$$CBGPAVivfstream@@@_STL@@@2@@_STL@@QAE@XZ ; _STL::_Rb_tree<unsigned short,_STL::pair<unsigned short const ,ivfstream *>,_STL::_Select1st<_STL::pair<unsigned short const ,ivfstream *> >,_STL::less<unsigned short>,_STL::allocator<_STL::pair<unsigned short const ,ivfstream *> > >::~_Rb_tree<unsigned short,_STL::pair<unsigned short const ,ivfstream *>,_STL::_Select1st<_STL::pair<unsigned short const ,ivfstream *> >,_STL::less<unsigned short>,_STL::allocator<_STL::pair<unsigned short const ,ivfstream *> > >
??1?$map@GPAVivfstream@@U?$less@G@_STL@@V?$allocator@U?$pair@$$CBGPAVivfstream@@@_STL@@@3@@_STL@@QAE@XZ ENDP ; _STL::map<unsigned short,ivfstream *,_STL::less<unsigned short>,_STL::allocator<_STL::pair<unsigned short const ,ivfstream *> > >::~map<unsigned short,ivfstream *,_STL::less<unsigned short>,_STL::allocator<_STL::pair<unsigned short const ,ivfstream *> > >
_TEXT	ENDS
PUBLIC	?push_front@?$list@GV?$allocator@G@_STL@@@_STL@@QAEXABG@Z ; _STL::list<unsigned short,_STL::allocator<unsigned short> >::push_front
; Function compile flags: /Ogsy
; File c:\stlport-4.6.1\stlport\stl\_list.h
;	COMDAT ?push_front@?$list@GV?$allocator@G@_STL@@@_STL@@QAEXABG@Z
_TEXT	SEGMENT
$T118063 = 8						; size = 4
___x$ = 8						; size = 4
?push_front@?$list@GV?$allocator@G@_STL@@@_STL@@QAEXABG@Z PROC NEAR ; _STL::list<unsigned short,_STL::allocator<unsigned short> >::push_front, COMDAT
; _this$ = ecx

; 344  :   void push_front(const _Tp& __x) { insert(begin(), __x); }

  00000	55		 push	 ebp
  00001	8b ec		 mov	 ebp, esp
  00003	ff 75 08	 push	 DWORD PTR ___x$[ebp]
  00006	8b 11		 mov	 edx, DWORD PTR [ecx]
  00008	8b 12		 mov	 edx, DWORD PTR [edx]
  0000a	51		 push	 ecx
  0000b	8b c4		 mov	 eax, esp
  0000d	89 10		 mov	 DWORD PTR [eax], edx
  0000f	8d 45 08	 lea	 eax, DWORD PTR $T118063[ebp]
  00012	50		 push	 eax
  00013	e8 00 00 00 00	 call	 ?insert@?$list@GV?$allocator@G@_STL@@@_STL@@QAE?AU?$_List_iterator@GU?$_Nonconst_traits@G@_STL@@@2@U32@ABG@Z ; _STL::list<unsigned short,_STL::allocator<unsigned short> >::insert
  00018	5d		 pop	 ebp
  00019	c2 04 00	 ret	 4
?push_front@?$list@GV?$allocator@G@_STL@@@_STL@@QAEXABG@Z ENDP ; _STL::list<unsigned short,_STL::allocator<unsigned short> >::push_front
_TEXT	ENDS
PUBLIC	??0?$map@GPAVivfstream@@U?$less@G@_STL@@V?$allocator@U?$pair@$$CBGPAVivfstream@@@_STL@@@3@@_STL@@QAE@XZ ; _STL::map<unsigned short,ivfstream *,_STL::less<unsigned short>,_STL::allocator<_STL::pair<unsigned short const ,ivfstream *> > >::map<unsigned short,ivfstream *,_STL::less<unsigned short>,_STL::allocator<_STL::pair<unsigned short const ,ivfstream *> > >
; Function compile flags: /Ogsy
; File c:\stlport-4.6.1\stlport\stl\_map.h
;	COMDAT ??0?$map@GPAVivfstream@@U?$less@G@_STL@@V?$allocator@U?$pair@$$CBGPAVivfstream@@@_STL@@@3@@_STL@@QAE@XZ
_TEXT	SEGMENT
$T118084 = -1						; size = 1
$T118083 = -1						; size = 1
??0?$map@GPAVivfstream@@U?$less@G@_STL@@V?$allocator@U?$pair@$$CBGPAVivfstream@@@_STL@@@3@@_STL@@QAE@XZ PROC NEAR ; _STL::map<unsigned short,ivfstream *,_STL::less<unsigned short>,_STL::allocator<_STL::pair<unsigned short const ,ivfstream *> > >::map<unsigned short,ivfstream *,_STL::less<unsigned short>,_STL::allocator<_STL::pair<unsigned short const ,ivfstream *> > >, COMDAT
; _this$ = ecx

; 91   :   map() : _M_t(_Compare(), allocator_type()) {}

  00000	55		 push	 ebp
  00001	8b ec		 mov	 ebp, esp
  00003	51		 push	 ecx
  00004	56		 push	 esi
  00005	8d 45 ff	 lea	 eax, DWORD PTR $T118083[ebp]
  00008	50		 push	 eax
  00009	8d 45 ff	 lea	 eax, DWORD PTR $T118084[ebp]
  0000c	50		 push	 eax
  0000d	8b f1		 mov	 esi, ecx
  0000f	e8 00 00 00 00	 call	 ??0?$_Rb_tree@GU?$pair@$$CBGPAVivfstream@@@_STL@@U?$_Select1st@U?$pair@$$CBGPAVivfstream@@@_STL@@@2@U?$less@G@2@V?$allocator@U?$pair@$$CBGPAVivfstream@@@_STL@@@2@@_STL@@QAE@ABU?$less@G@1@ABV?$allocator@U?$pair@$$CBGPAVivfstream@@@_STL@@@1@@Z ; _STL::_Rb_tree<unsigned short,_STL::pair<unsigned short const ,ivfstream *>,_STL::_Select1st<_STL::pair<unsigned short const ,ivfstream *> >,_STL::less<unsigned short>,_STL::allocator<_STL::pair<unsigned short const ,ivfstream *> > >::_Rb_tree<unsigned short,_STL::pair<unsigned short const ,ivfstream *>,_STL::_Select1st<_STL::pair<unsigned short const ,ivfstream *> >,_STL::less<unsigned short>,_STL::allocator<_STL::pair<unsigned short const ,ivfstream *> > >
  00014	8b c6		 mov	 eax, esi
  00016	5e		 pop	 esi
  00017	c9		 leave
  00018	c3		 ret	 0
??0?$map@GPAVivfstream@@U?$less@G@_STL@@V?$allocator@U?$pair@$$CBGPAVivfstream@@@_STL@@@3@@_STL@@QAE@XZ ENDP ; _STL::map<unsigned short,ivfstream *,_STL::less<unsigned short>,_STL::allocator<_STL::pair<unsigned short const ,ivfstream *> > >::map<unsigned short,ivfstream *,_STL::less<unsigned short>,_STL::allocator<_STL::pair<unsigned short const ,ivfstream *> > >
_TEXT	ENDS
PUBLIC	??$_M_append_dispatch@PAD@?$basic_string@DV?$char_traits@D@_STL@@V?$allocator@D@2@@_STL@@AAEAAV01@PAD0ABU__false_type@1@@Z ; _STL::basic_string<char,_STL::char_traits<char>,_STL::allocator<char> >::_M_append_dispatch<char *>
; Function compile flags: /Ogsy
; File c:\stlport-4.6.1\stlport\stl\_string.h
;	COMDAT ??$_M_append_dispatch@PAD@?$basic_string@DV?$char_traits@D@_STL@@V?$allocator@D@2@@_STL@@AAEAAV01@PAD0ABU__false_type@1@@Z
_TEXT	SEGMENT
___f$ = 8						; size = 4
___l$ = 12						; size = 4
$T118094 = 15						; size = 1
___formal$ = 16						; size = 4
??$_M_append_dispatch@PAD@?$basic_string@DV?$char_traits@D@_STL@@V?$allocator@D@2@@_STL@@AAEAAV01@PAD0ABU__false_type@1@@Z PROC NEAR ; _STL::basic_string<char,_STL::char_traits<char>,_STL::allocator<char> >::_M_append_dispatch<char *>, COMDAT
; _this$ = ecx

; 586  :   template <class _InputIter> _Self& _M_append_dispatch(_InputIter __f, _InputIter __l,

  00000	55		 push	 ebp
  00001	8b ec		 mov	 ebp, esp

; 587  :                                    const __false_type&) {
; 588  :     return append(__f, __l, _STLP_ITERATOR_CATEGORY(__f, _InputIter));

  00003	8d 45 0f	 lea	 eax, DWORD PTR $T118094[ebp]
  00006	50		 push	 eax
  00007	ff 75 0c	 push	 DWORD PTR ___l$[ebp]
  0000a	ff 75 08	 push	 DWORD PTR ___f$[ebp]
  0000d	e8 00 00 00 00	 call	 ??$append@PAD@?$basic_string@DV?$char_traits@D@_STL@@V?$allocator@D@2@@_STL@@AAEAAV01@PAD0ABUforward_iterator_tag@1@@Z ; _STL::basic_string<char,_STL::char_traits<char>,_STL::allocator<char> >::append<char *>

; 589  :   }

  00012	5d		 pop	 ebp
  00013	c2 0c 00	 ret	 12			; 0000000cH
??$_M_append_dispatch@PAD@?$basic_string@DV?$char_traits@D@_STL@@V?$allocator@D@2@@_STL@@AAEAAV01@PAD0ABU__false_type@1@@Z ENDP ; _STL::basic_string<char,_STL::char_traits<char>,_STL::allocator<char> >::_M_append_dispatch<char *>
_TEXT	ENDS
PUBLIC	??1?$basic_string@DV?$char_traits@D@_STL@@V?$allocator@D@2@@_STL@@QAE@XZ ; _STL::basic_string<char,_STL::char_traits<char>,_STL::allocator<char> >::~basic_string<char,_STL::char_traits<char>,_STL::allocator<char> >
; Function compile flags: /Ogsy
;	COMDAT ??1?$basic_string@DV?$char_traits@D@_STL@@V?$allocator@D@2@@_STL@@QAE@XZ
_TEXT	SEGMENT
??1?$basic_string@DV?$char_traits@D@_STL@@V?$allocator@D@2@@_STL@@QAE@XZ PROC NEAR ; _STL::basic_string<char,_STL::char_traits<char>,_STL::allocator<char> >::~basic_string<char,_STL::char_traits<char>,_STL::allocator<char> >, COMDAT
; _this$ = ecx

; 305  :   ~basic_string() { _STLP_STD::_Destroy(this->_M_start, this->_M_finish + 1); }

  00000	e9 00 00 00 00	 jmp	 ?_M_deallocate_block@?$_String_base@DV?$allocator@D@_STL@@@_STL@@QAEXXZ ; _STL::_String_base<char,_STL::allocator<char> >::_M_deallocate_block
??1?$basic_string@DV?$char_traits@D@_STL@@V?$allocator@D@2@@_STL@@QAE@XZ ENDP ; _STL::basic_string<char,_STL::char_traits<char>,_STL::allocator<char> >::~basic_string<char,_STL::char_traits<char>,_STL::allocator<char> >
_TEXT	ENDS
PUBLIC	?grouping@?$numpunct@D@_STL@@QBE?AV?$basic_string@DV?$char_traits@D@_STL@@V?$allocator@D@2@@2@XZ ; _STL::numpunct<char>::grouping
; Function compile flags: /Ogsy
; File c:\stlport-4.6.1\stlport\stl\_numpunct.h
;	COMDAT ?grouping@?$numpunct@D@_STL@@QBE?AV?$basic_string@DV?$char_traits@D@_STL@@V?$allocator@D@2@@2@XZ
_TEXT	SEGMENT
$T118120 = -4						; size = 4
___$ReturnUdt$ = 8					; size = 4
?grouping@?$numpunct@D@_STL@@QBE?AV?$basic_string@DV?$char_traits@D@_STL@@V?$allocator@D@2@@2@XZ PROC NEAR ; _STL::numpunct<char>::grouping, COMDAT
; _this$ = ecx

; 62   :   string grouping() const { return do_grouping(); }

  00000	55		 push	 ebp
  00001	8b ec		 mov	 ebp, esp
  00003	51		 push	 ecx
  00004	ff 75 08	 push	 DWORD PTR ___$ReturnUdt$[ebp]
  00007	8b 01		 mov	 eax, DWORD PTR [ecx]
  00009	83 65 fc 00	 and	 DWORD PTR $T118120[ebp], 0
  0000d	ff 50 0c	 call	 DWORD PTR [eax+12]
  00010	8b 45 08	 mov	 eax, DWORD PTR ___$ReturnUdt$[ebp]
  00013	c9		 leave
  00014	c2 04 00	 ret	 4
?grouping@?$numpunct@D@_STL@@QBE?AV?$basic_string@DV?$char_traits@D@_STL@@V?$allocator@D@2@@2@XZ ENDP ; _STL::numpunct<char>::grouping
_TEXT	ENDS
PUBLIC	?SetData@?$CPartManager@GGPAVCSpriteSurface@@@@QAEGGABQAVCSpriteSurface@@AAPAV2@@Z ; CPartManager<unsigned short,unsigned short,CSpriteSurface *>::SetData
; Function compile flags: /Ogsy
; File c:\darkeden\designed_common\project\client\cpartmanager.h
;	COMDAT ?SetData@?$CPartManager@GGPAVCSpriteSurface@@@@QAEGGABQAVCSpriteSurface@@AAPAV2@@Z
_TEXT	SEGMENT
_oldIndex$ = -8						; size = 2
_newPartIndex$ = -4					; size = 2
$T118126 = 8						; size = 4
_index$ = 8						; size = 2
_data$ = 12						; size = 4
_oldData$ = 16						; size = 4
?SetData@?$CPartManager@GGPAVCSpriteSurface@@@@QAEGGABQAVCSpriteSurface@@AAPAV2@@Z PROC NEAR ; CPartManager<unsigned short,unsigned short,CSpriteSurface *>::SetData, COMDAT
; _this$ = ecx

; 355  : {

  00000	55		 push	 ebp
  00001	8b ec		 mov	 ebp, esp
  00003	51		 push	 ecx
  00004	51		 push	 ecx
  00005	53		 push	 ebx
  00006	56		 push	 esi
  00007	57		 push	 edi
  00008	8b f1		 mov	 esi, ecx

; 356  : 	//  
; 357  : 	PartIndexType	newPartIndex = GetLRU();

  0000a	e8 00 00 00 00	 call	 ?GetLRU@?$CPartManager@GGPAVCSpriteSurface@@@@IBEGXZ ; CPartManager<unsigned short,unsigned short,CSpriteSurface *>::GetLRU

; 358  : 
; 359  : 	//bool bReplace = false;
; 360  : 	//------------------------------------------------------------
; 361  : 	//   
; 362  : 	//------------------------------------------------------------	
; 363  : 	IndexType oldIndex = m_pParentIndex[newPartIndex];

  0000f	8b 56 10	 mov	 edx, DWORD PTR [esi+16]
  00012	0f b7 c8	 movzx	 ecx, ax
  00015	0f b7 14 4a	 movzx	 edx, WORD PTR [edx+ecx*2]

; 364  : 	if (oldIndex != m_IndexNULL)

  00019	66 3b 56 20	 cmp	 dx, WORD PTR [esi+32]
  0001d	89 45 fc	 mov	 DWORD PTR _newPartIndex$[ebp], eax
  00020	89 55 f8	 mov	 DWORD PTR _oldIndex$[ebp], edx
  00023	74 24		 je	 SHORT $L112341

; 365  : 	{
; 366  : 		//  PartIndex  index null .		
; 367  : 		m_pPartIndex[oldIndex] = m_PartIndexNULL;

  00025	8b 7e 04	 mov	 edi, DWORD PTR [esi+4]
  00028	66 8b 5e 22	 mov	 bx, WORD PTR [esi+34]
  0002c	0f b7 d2	 movzx	 edx, dx
  0002f	66 89 1c 57	 mov	 WORD PTR [edi+edx*2], bx

; 368  : 		m_pParentIndex[newPartIndex] = m_IndexNULL;

  00033	8b 56 10	 mov	 edx, DWORD PTR [esi+16]
  00036	66 8b 7e 20	 mov	 di, WORD PTR [esi+32]
  0003a	66 89 3c 4a	 mov	 WORD PTR [edx+ecx*2], di

; 369  : 
; 370  : 		//   .
; 371  : 		oldData = m_pData[newPartIndex];

  0003e	8b 56 0c	 mov	 edx, DWORD PTR [esi+12]
  00041	8b 14 8a	 mov	 edx, DWORD PTR [edx+ecx*4]
  00044	8b 7d 10	 mov	 edi, DWORD PTR _oldData$[ebp]
  00047	89 17		 mov	 DWORD PTR [edi], edx
$L112341:

; 372  : 
; 373  : 		//bReplace = true;
; 374  : 	}
; 375  : 
; 376  : 	//------------------------------------------------------------
; 377  : 	//  
; 378  : 	//------------------------------------------------------------
; 379  : 	// link 
; 380  : 	m_pPartIndex[index] = newPartIndex;

  00049	66 8b 55 08	 mov	 dx, WORD PTR _index$[ebp]
  0004d	8b 5e 04	 mov	 ebx, DWORD PTR [esi+4]
  00050	0f b7 fa	 movzx	 edi, dx
  00053	66 89 04 7b	 mov	 WORD PTR [ebx+edi*2], ax

; 381  : 	m_pParentIndex[newPartIndex] = index;

  00057	8b 46 10	 mov	 eax, DWORD PTR [esi+16]
  0005a	66 89 14 48	 mov	 WORD PTR [eax+ecx*2], dx

; 382  : 
; 383  : 	// data 
; 384  : 	m_pData[newPartIndex] = data;

  0005e	8b 55 0c	 mov	 edx, DWORD PTR _data$[ebp]
  00061	8b 12		 mov	 edx, DWORD PTR [edx]
  00063	8b c1		 mov	 eax, ecx
  00065	8b 4e 0c	 mov	 ecx, DWORD PTR [esi+12]
  00068	c1 e0 02	 shl	 eax, 2
  0006b	89 14 08	 mov	 DWORD PTR [eax+ecx], edx

; 385  : 
; 386  : 	//    
; 387  : 	m_pLastTime[newPartIndex] = m_Counter++;

  0006e	8b 4e 14	 mov	 ecx, DWORD PTR [esi+20]
  00071	8b 56 24	 mov	 edx, DWORD PTR [esi+36]
  00074	89 14 08	 mov	 DWORD PTR [eax+ecx], edx
  00077	ff 46 24	 inc	 DWORD PTR [esi+36]

; 388  : 
; 389  : 	//------------------------------------------------------------
; 390  : 	// LRU list
; 391  : 	//------------------------------------------------------------
; 392  : 	// front    .
; 393  : 	// m_pPartIterator[]  partIndex iterator .
; 394  : 	if (m_pPartIterator[newPartIndex]!=m_listLRU.end())

  0007a	8b 4e 1c	 mov	 ecx, DWORD PTR [esi+28]
  0007d	8b 04 08	 mov	 eax, DWORD PTR [eax+ecx]
  00080	8d 7e 18	 lea	 edi, DWORD PTR [esi+24]
  00083	3b 07		 cmp	 eax, DWORD PTR [edi]
  00085	74 10		 je	 SHORT $L112343

; 395  : 	{
; 396  : 		m_listLRU.erase( m_pPartIterator[newPartIndex] );		// 

  00087	51		 push	 ecx
  00088	8b cc		 mov	 ecx, esp
  0008a	89 01		 mov	 DWORD PTR [ecx], eax
  0008c	8d 45 08	 lea	 eax, DWORD PTR $T118126[ebp]
  0008f	50		 push	 eax
  00090	8b cf		 mov	 ecx, edi
  00092	e8 00 00 00 00	 call	 ?erase@?$list@GV?$allocator@G@_STL@@@_STL@@QAE?AU?$_List_iterator@GU?$_Nonconst_traits@G@_STL@@@2@U32@@Z ; _STL::list<unsigned short,_STL::allocator<unsigned short> >::erase
$L112343:

; 397  : 	}
; 398  : 	m_listLRU.push_front( newPartIndex );

  00097	8d 45 fc	 lea	 eax, DWORD PTR _newPartIndex$[ebp]
  0009a	50		 push	 eax
  0009b	8b cf		 mov	 ecx, edi
  0009d	e8 00 00 00 00	 call	 ?push_front@?$list@GV?$allocator@G@_STL@@@_STL@@QAEXABG@Z ; _STL::list<unsigned short,_STL::allocator<unsigned short> >::push_front

; 399  : 	m_pPartIterator[newPartIndex] = m_listLRU.begin();

  000a2	8b 07		 mov	 eax, DWORD PTR [edi]
  000a4	0f b7 4d fc	 movzx	 ecx, WORD PTR _newPartIndex$[ebp]
  000a8	8b 00		 mov	 eax, DWORD PTR [eax]
  000aa	8b 56 1c	 mov	 edx, DWORD PTR [esi+28]
  000ad	89 04 8a	 mov	 DWORD PTR [edx+ecx*4], eax

; 400  : 	
; 401  : 	//---------------------------------------------------
; 402  : 	// [ TEST CODE ]
; 403  : 	/*
; 404  : 	PARTINDEX_LIST_ITERATOR	iIndex = m_listLRU.begin();
; 405  : 
; 406  : 	char str[1024] = "[SetData] ";
; 407  : 	char str2[256];
; 408  : 	while (iIndex != m_listLRU.end())
; 409  : 	{
; 410  : 		sprintf(str2, "%d ", *iIndex);
; 411  : 		strcat(str, str2);
; 412  : 
; 413  : 		iIndex++;
; 414  : 	}
; 415  : 	DEBUG_ADD(str);
; 416  : 	*/
; 417  : 	//---------------------------------------------------
; 418  : 	
; 419  : 	//   
; 420  : 	if (m_nPartUsed < m_nPart) 
; 421  : 		m_nPartUsed++;

  000b0	33 c0		 xor	 eax, eax
  000b2	66 8b 46 0a	 mov	 ax, WORD PTR [esi+10]
  000b6	66 3b 46 08	 cmp	 ax, WORD PTR [esi+8]
  000ba	73 05		 jae	 SHORT $L112347
  000bc	40		 inc	 eax
  000bd	66 89 46 0a	 mov	 WORD PTR [esi+10], ax
$L112347:

; 422  : 
; 423  : 	//return bReplace;
; 424  : 
; 425  : 	return oldIndex;

  000c1	66 8b 45 f8	 mov	 ax, WORD PTR _oldIndex$[ebp]

; 426  : }

  000c5	5f		 pop	 edi
  000c6	5e		 pop	 esi
  000c7	5b		 pop	 ebx
  000c8	c9		 leave
  000c9	c2 0c 00	 ret	 12			; 0000000cH
?SetData@?$CPartManager@GGPAVCSpriteSurface@@@@QAEGGABQAVCSpriteSurface@@AAPAV2@@Z ENDP ; CPartManager<unsigned short,unsigned short,CSpriteSurface *>::SetData
_TEXT	ENDS
PUBLIC	?GetData@?$CPartManager@GGPAVCSpriteSurface@@@@QAE_NGAAPAVCSpriteSurface@@@Z ; CPartManager<unsigned short,unsigned short,CSpriteSurface *>::GetData
; Function compile flags: /Ogsy
;	COMDAT ?GetData@?$CPartManager@GGPAVCSpriteSurface@@@@QAE_NGAAPAVCSpriteSurface@@@Z
_TEXT	SEGMENT
tv270 = -16						; size = 4
$T118178 = -16						; size = 4
_maxTimeIndex$112365 = -12				; size = 4
_leastTimeIndex$112364 = -8				; size = 4
tv362 = -4						; size = 4
_partIndex$ = 8						; size = 2
_i$112366 = 8						; size = 4
_index$ = 8						; size = 2
_data$ = 12						; size = 4
?GetData@?$CPartManager@GGPAVCSpriteSurface@@@@QAE_NGAAPAVCSpriteSurface@@@Z PROC NEAR ; CPartManager<unsigned short,unsigned short,CSpriteSurface *>::GetData, COMDAT
; _this$ = ecx

; 438  : {

  00000	55		 push	 ebp
  00001	8b ec		 mov	 ebp, esp
  00003	83 ec 10	 sub	 esp, 16			; 00000010H

; 439  : 	PartIndexType partIndex = m_pPartIndex[index];

  00006	0f b7 45 08	 movzx	 eax, WORD PTR _index$[ebp]
  0000a	53		 push	 ebx
  0000b	56		 push	 esi
  0000c	8b f1		 mov	 esi, ecx
  0000e	8b 4e 04	 mov	 ecx, DWORD PTR [esi+4]
  00011	0f b7 04 41	 movzx	 eax, WORD PTR [ecx+eax*2]

; 440  : 
; 441  : 	//------------------------------------------------------
; 442  : 	//  Data   return.
; 443  : 	//------------------------------------------------------
; 444  : 	if (partIndex==m_PartIndexNULL)

  00015	66 3b 46 22	 cmp	 ax, WORD PTR [esi+34]
  00019	57		 push	 edi
  0001a	89 45 08	 mov	 DWORD PTR _partIndex$[ebp], eax
  0001d	75 07		 jne	 SHORT $L112357

; 445  : 	{
; 446  : 		return false;

  0001f	32 c0		 xor	 al, al
  00021	e9 e7 00 00 00	 jmp	 $L112355
$L112357:

; 447  : 	}
; 448  : 
; 449  : 	//   check
; 450  : 	m_pLastTime[partIndex] = m_Counter++;

  00026	8b 4e 14	 mov	 ecx, DWORD PTR [esi+20]
  00029	8b 56 24	 mov	 edx, DWORD PTR [esi+36]
  0002c	0f b7 c0	 movzx	 eax, ax
  0002f	c1 e0 02	 shl	 eax, 2
  00032	89 14 08	 mov	 DWORD PTR [eax+ecx], edx
  00035	ff 46 24	 inc	 DWORD PTR [esi+36]

; 451  : 
; 452  : 	//------------------------------------------------------
; 453  : 	// LRU list  partIndex 
; 454  : 	//     .
; 455  : 	//------------------------------------------------------
; 456  : 	// iterator   .
; 457  : 	if (m_pPartIterator[partIndex]!=m_listLRU.end())

  00038	8b 4e 1c	 mov	 ecx, DWORD PTR [esi+28]
  0003b	8b 04 08	 mov	 eax, DWORD PTR [eax+ecx]
  0003e	8d 7e 18	 lea	 edi, DWORD PTR [esi+24]
  00041	3b 07		 cmp	 eax, DWORD PTR [edi]
  00043	74 10		 je	 SHORT $L112359

; 458  : 	{
; 459  : 		m_listLRU.erase( m_pPartIterator[partIndex] );		// 

  00045	51		 push	 ecx
  00046	8b cc		 mov	 ecx, esp
  00048	89 01		 mov	 DWORD PTR [ecx], eax
  0004a	8d 45 f0	 lea	 eax, DWORD PTR $T118178[ebp]
  0004d	50		 push	 eax
  0004e	8b cf		 mov	 ecx, edi
  00050	e8 00 00 00 00	 call	 ?erase@?$list@GV?$allocator@G@_STL@@@_STL@@QAE?AU?$_List_iterator@GU?$_Nonconst_traits@G@_STL@@@2@U32@@Z ; _STL::list<unsigned short,_STL::allocator<unsigned short> >::erase
$L112359:

; 460  : 	}
; 461  : 	m_listLRU.push_front( partIndex );				// 

  00055	8d 45 08	 lea	 eax, DWORD PTR _partIndex$[ebp]
  00058	50		 push	 eax
  00059	8b cf		 mov	 ecx, edi
  0005b	e8 00 00 00 00	 call	 ?push_front@?$list@GV?$allocator@G@_STL@@@_STL@@QAEXABG@Z ; _STL::list<unsigned short,_STL::allocator<unsigned short> >::push_front

; 462  : 	m_pPartIterator[partIndex] = m_listLRU.begin();		// iterator  

  00060	0f b7 5d 08	 movzx	 ebx, WORD PTR _partIndex$[ebp]
  00064	8b 07		 mov	 eax, DWORD PTR [edi]
  00066	8b 4e 1c	 mov	 ecx, DWORD PTR [esi+28]
  00069	8b 00		 mov	 eax, DWORD PTR [eax]
  0006b	c1 e3 02	 shl	 ebx, 2
  0006e	89 04 0b	 mov	 DWORD PTR [ebx+ecx], eax

; 463  : 
; 464  : 	//---------------------------------------------------
; 465  : 	// [ TEST CODE ]
; 466  : 	/*
; 467  : 	PARTINDEX_LIST_ITERATOR	iIndex = m_listLRU.begin();
; 468  : 
; 469  : 	char str[1024] = "[GetData] ";
; 470  : 	char str2[256];
; 471  : 	while (iIndex != m_listLRU.end())
; 472  : 	{
; 473  : 		sprintf(str2, "%d ", *iIndex);
; 474  : 		strcat(str, str2);
; 475  : 
; 476  : 		iIndex++;
; 477  : 	}
; 478  : 	DEBUG_ADD(str);
; 479  : 	*/
; 480  : 	//---------------------------------------------------
; 481  : 
; 482  : 
; 483  : 	//------------------------------------------------------
; 484  : 	// counter .. ~~
; 485  : 	//------------------------------------------------------
; 486  : 	if (m_Counter==0xFFFFFFFF)

  00071	83 7e 24 ff	 cmp	 DWORD PTR [esi+36], -1
  00075	89 5d f0	 mov	 DWORD PTR tv270[ebp], ebx
  00078	0f 85 82 00 00
	00		 jne	 $L112363

; 487  : 	{
; 488  : 		//    ...
; 489  : 		//   0 . -->    .
; 490  : 		int leastTimeIndex = 0;
; 491  : 		int maxTimeIndex = 0;
; 492  : 		for (int i=1; i<m_nPart; i++)

  0007e	0f b7 46 08	 movzx	 eax, WORD PTR [esi+8]
  00082	33 c9		 xor	 ecx, ecx
  00084	33 ff		 xor	 edi, edi
  00086	41		 inc	 ecx
  00087	3b c1		 cmp	 eax, ecx
  00089	89 7d f8	 mov	 DWORD PTR _leastTimeIndex$112364[ebp], edi
  0008c	89 7d f4	 mov	 DWORD PTR _maxTimeIndex$112365[ebp], edi
  0008f	89 4d 08	 mov	 DWORD PTR _i$112366[ebp], ecx
  00092	7e 3c		 jle	 SHORT $L112369
  00094	8b 46 14	 mov	 eax, DWORD PTR [esi+20]
  00097	6a 04		 push	 4
  00099	89 7d fc	 mov	 DWORD PTR tv362[ebp], edi
  0009c	59		 pop	 ecx
$L118230:

; 493  : 		{
; 494  : 			//   
; 495  : 			if (m_pLastTime[i] < m_pLastTime[leastTimeIndex])

  0009d	8b 14 01	 mov	 edx, DWORD PTR [ecx+eax]
  000a0	3b 14 07	 cmp	 edx, DWORD PTR [edi+eax]
  000a3	73 08		 jae	 SHORT $L112370

; 496  : 			{
; 497  : 				leastTimeIndex = i;

  000a5	8b 7d 08	 mov	 edi, DWORD PTR _i$112366[ebp]
  000a8	89 7d f8	 mov	 DWORD PTR _leastTimeIndex$112364[ebp], edi
  000ab	8b f9		 mov	 edi, ecx
$L112370:

; 498  : 			}
; 499  : 
; 500  : 			//   
; 501  : 			if (m_pLastTime[i] > m_pLastTime[maxTimeIndex])

  000ad	8b 5d fc	 mov	 ebx, DWORD PTR tv362[ebp]
  000b0	3b 14 03	 cmp	 edx, DWORD PTR [ebx+eax]
  000b3	76 09		 jbe	 SHORT $L112368

; 502  : 			{
; 503  : 				maxTimeIndex = i;

  000b5	8b 55 08	 mov	 edx, DWORD PTR _i$112366[ebp]
  000b8	89 55 f4	 mov	 DWORD PTR _maxTimeIndex$112365[ebp], edx
  000bb	89 4d fc	 mov	 DWORD PTR tv362[ebp], ecx
$L112368:
  000be	0f b7 56 08	 movzx	 edx, WORD PTR [esi+8]
  000c2	ff 45 08	 inc	 DWORD PTR _i$112366[ebp]
  000c5	83 c1 04	 add	 ecx, 4
  000c8	39 55 08	 cmp	 DWORD PTR _i$112366[ebp], edx
  000cb	7c d0		 jl	 SHORT $L118230

; 487  : 	{
; 488  : 		//    ...
; 489  : 		//   0 . -->    .
; 490  : 		int leastTimeIndex = 0;
; 491  : 		int maxTimeIndex = 0;
; 492  : 		for (int i=1; i<m_nPart; i++)

  000cd	8b 5d f0	 mov	 ebx, DWORD PTR tv270[ebp]
$L112369:

; 504  : 			}
; 505  : 		}
; 506  : 
; 507  : 		//     .
; 508  : 		int leastTime = m_pLastTime[leastTimeIndex];
; 509  : 		for (i=0; i<m_nPart; i++)

  000d0	0f b7 46 08	 movzx	 eax, WORD PTR [esi+8]
  000d4	33 d2		 xor	 edx, edx
  000d6	85 c0		 test	 eax, eax
  000d8	7e 1a		 jle	 SHORT $L112375
  000da	8b 7d f8	 mov	 edi, DWORD PTR _leastTimeIndex$112364[ebp]
  000dd	c1 e7 02	 shl	 edi, 2
$L112373:

; 510  : 		{
; 511  : 			m_pLastTime[i] -= m_pLastTime[leastTimeIndex];

  000e0	8b 46 14	 mov	 eax, DWORD PTR [esi+20]
  000e3	8d 0c 90	 lea	 ecx, DWORD PTR [eax+edx*4]
  000e6	8b 04 07	 mov	 eax, DWORD PTR [edi+eax]
  000e9	29 01		 sub	 DWORD PTR [ecx], eax
  000eb	0f b7 46 08	 movzx	 eax, WORD PTR [esi+8]
  000ef	42		 inc	 edx
  000f0	3b d0		 cmp	 edx, eax
  000f2	7c ec		 jl	 SHORT $L112373
$L112375:

; 512  : 		}
; 513  : 
; 514  : 		// Counter      .
; 515  : 		m_Counter = m_pLastTime[maxTimeIndex];

  000f4	8b 46 14	 mov	 eax, DWORD PTR [esi+20]
  000f7	8b 4d f4	 mov	 ecx, DWORD PTR _maxTimeIndex$112365[ebp]
  000fa	8b 04 88	 mov	 eax, DWORD PTR [eax+ecx*4]
  000fd	89 46 24	 mov	 DWORD PTR [esi+36], eax
$L112363:

; 516  : 	}
; 517  : 
; 518  : 	//  data
; 519  : 	data = m_pData[partIndex];

  00100	8b 46 0c	 mov	 eax, DWORD PTR [esi+12]
  00103	8b 04 03	 mov	 eax, DWORD PTR [ebx+eax]
  00106	8b 4d 0c	 mov	 ecx, DWORD PTR _data$[ebp]
  00109	89 01		 mov	 DWORD PTR [ecx], eax

; 520  : 
; 521  : 	return true;

  0010b	b0 01		 mov	 al, 1
$L112355:

; 522  : }

  0010d	5f		 pop	 edi
  0010e	5e		 pop	 esi
  0010f	5b		 pop	 ebx
  00110	c9		 leave
  00111	c2 08 00	 ret	 8
?GetData@?$CPartManager@GGPAVCSpriteSurface@@@@QAE_NGAAPAVCSpriteSurface@@@Z ENDP ; CPartManager<unsigned short,unsigned short,CSpriteSurface *>::GetData
_TEXT	ENDS
PUBLIC	??0?$CTypePack@VCShadowSprite@@@@QAE@XZ		; CTypePack<CShadowSprite>::CTypePack<CShadowSprite>
PUBLIC	?Init@?$CTypePack@VCShadowSprite@@@@UAEXG@Z	; CTypePack<CShadowSprite>::Init
PUBLIC	?GetSize@?$CTypePack@VCShadowSprite@@@@UBEKXZ	; CTypePack<CShadowSprite>::GetSize
PUBLIC	??A?$CTypePack@VCShadowSprite@@@@UAEAAVCShadowSprite@@G@Z ; CTypePack<CShadowSprite>::operator[]
PUBLIC	?Get@?$CTypePack@VCShadowSprite@@@@UAEAAVCShadowSprite@@G@Z ; CTypePack<CShadowSprite>::Get
PUBLIC	?SaveToFile@?$CTypePack@VCShadowSprite@@@@UAE_NAAV?$basic_ofstream@DV?$char_traits@D@_STL@@@_STL@@0@Z ; CTypePack<CShadowSprite>::SaveToFile
PUBLIC	?LoadFromFileRunning@?$CTypePack@VCShadowSprite@@@@UAE_NPBD@Z ; CTypePack<CShadowSprite>::LoadFromFileRunning
PUBLIC	?LoadFromFile@?$CTypePack@VCShadowSprite@@@@UAE_NPBD@Z ; CTypePack<CShadowSprite>::LoadFromFile
PUBLIC	?LoadFromFilePart@?$CTypePack@VCShadowSprite@@@@UAE_NHH@Z ; CTypePack<CShadowSprite>::LoadFromFilePart
PUBLIC	?LoadFromFilePart@?$CTypePack@VCShadowSprite@@@@UAE_NAAVCSpriteSetManager@@@Z ; CTypePack<CShadowSprite>::LoadFromFilePart
PUBLIC	?LoadFromFileData@?$CTypePack@VCShadowSprite@@@@UAE_NHHPBD0@Z ; CTypePack<CShadowSprite>::LoadFromFileData
PUBLIC	?ReleasePart@?$CTypePack@VCShadowSprite@@@@UAE_NHH@Z ; CTypePack<CShadowSprite>::ReleasePart
PUBLIC	?ReleasePart@?$CTypePack@VCShadowSprite@@@@UAE_NV?$COrderedList@G@@@Z ; CTypePack<CShadowSprite>::ReleasePart
PUBLIC	?SaveToFile@?$CTypePack@VCShadowSprite@@@@UAE_NPBD@Z ; CTypePack<CShadowSprite>::SaveToFile
PUBLIC	?FinishRunningLoad@?$CTypePack@VCShadowSprite@@@@UAEXXZ ; CTypePack<CShadowSprite>::FinishRunningLoad
PUBLIC	??_7?$CTypePack@VCShadowSprite@@@@6B@		; CTypePack<CShadowSprite>::`vftable'
PUBLIC	??_G?$CTypePack@VCShadowSprite@@@@UAEPAXI@Z	; CTypePack<CShadowSprite>::`scalar deleting destructor'
PUBLIC	??_R4?$CTypePack@VCShadowSprite@@@@6B@		; CTypePack<CShadowSprite>::`RTTI Complete Object Locator'
PUBLIC	??_R0?AV?$CTypePack@VCShadowSprite@@@@@8	; CTypePack<CShadowSprite> `RTTI Type Descriptor'
PUBLIC	??_R3?$CTypePack@VCShadowSprite@@@@8		; CTypePack<CShadowSprite>::`RTTI Class Hierarchy Descriptor'
PUBLIC	??_R2?$CTypePack@VCShadowSprite@@@@8		; CTypePack<CShadowSprite>::`RTTI Base Class Array'
PUBLIC	??_R1A@?0A@A@?$CTypePack@VCShadowSprite@@@@8	; CTypePack<CShadowSprite>::`RTTI Base Class Descriptor at (0,-1,0,0)'
EXTRN	??_E?$CTypePack@VCShadowSprite@@@@UAEPAXI@Z:NEAR ; CTypePack<CShadowSprite>::`vector deleting destructor'
;	COMDAT xdata$x
; File c:\darkeden\designed_common\project\client\spritelib\ctypepack.h
xdata$x	SEGMENT
$T118244 DD	0ffffffffH
	DD	FLAT:$L118234
	DD	00H
	DD	FLAT:$L118235
	DD	01H
	DD	FLAT:$L118236
$T118242 DD	019930520H
	DD	03H
	DD	FLAT:$T118244
	DD	2 DUP(00H)
	DD	2 DUP(00H)
xdata$x	ENDS
;	COMDAT ??_7?$CTypePack@VCShadowSprite@@@@6B@
CONST	SEGMENT
??_7?$CTypePack@VCShadowSprite@@@@6B@ DD FLAT:??_R4?$CTypePack@VCShadowSprite@@@@6B@ ; CTypePack<CShadowSprite>::`vftable'
	DD	FLAT:??_E?$CTypePack@VCShadowSprite@@@@UAEPAXI@Z
	DD	FLAT:?Init@?$CTypePack@VCShadowSprite@@@@UAEXG@Z
	DD	FLAT:?Release@?$CTypePack@VCShadowSprite@@@@UAEXXZ
	DD	FLAT:?GetSize@?$CTypePack@VCShadowSprite@@@@UBEKXZ
	DD	FLAT:?SaveToFile@?$CTypePack@VCShadowSprite@@@@UAE_NPBD@Z
	DD	FLAT:?SaveToFile@?$CTypePack@VCShadowSprite@@@@UAE_NAAV?$basic_ofstream@DV?$char_traits@D@_STL@@@_STL@@0@Z
	DD	FLAT:?LoadFromFileRunning@?$CTypePack@VCShadowSprite@@@@UAE_NPBD@Z
	DD	FLAT:?LoadFromFile@?$CTypePack@VCShadowSprite@@@@UAE_NPBD@Z
	DD	FLAT:?LoadFromFilePart@?$CTypePack@VCShadowSprite@@@@UAE_NAAVCSpriteSetManager@@@Z
	DD	FLAT:?LoadFromFilePart@?$CTypePack@VCShadowSprite@@@@UAE_NHH@Z
	DD	FLAT:?LoadFromFileData@?$CTypePack@VCShadowSprite@@@@UAE_NHHPBD0@Z
	DD	FLAT:?ReleasePart@?$CTypePack@VCShadowSprite@@@@UAE_NV?$COrderedList@G@@@Z
	DD	FLAT:?ReleasePart@?$CTypePack@VCShadowSprite@@@@UAE_NHH@Z
	DD	FLAT:?FinishRunningLoad@?$CTypePack@VCShadowSprite@@@@UAEXXZ
	DD	FLAT:??A?$CTypePack@VCShadowSprite@@@@UAEAAVCShadowSprite@@G@Z
	DD	FLAT:?Get@?$CTypePack@VCShadowSprite@@@@UAEAAVCShadowSprite@@G@Z
CONST	ENDS
;	COMDAT ??_R4?$CTypePack@VCShadowSprite@@@@6B@
rdata$r	SEGMENT
??_R4?$CTypePack@VCShadowSprite@@@@6B@ DD 00H		; CTypePack<CShadowSprite>::`RTTI Complete Object Locator'
	DD	00H
	DD	00H
	DD	FLAT:??_R0?AV?$CTypePack@VCShadowSprite@@@@@8
	DD	FLAT:??_R3?$CTypePack@VCShadowSprite@@@@8
rdata$r	ENDS
;	COMDAT ??_R0?AV?$CTypePack@VCShadowSprite@@@@@8
_DATA	SEGMENT
??_R0?AV?$CTypePack@VCShadowSprite@@@@@8 DD FLAT:??_7type_info@@6B@ ; CTypePack<CShadowSprite> `RTTI Type Descriptor'
	DD	00H
	DB	'.?AV?$CTypePack@VCShadowSprite@@@@', 00H
_DATA	ENDS
;	COMDAT ??_R3?$CTypePack@VCShadowSprite@@@@8
rdata$r	SEGMENT
??_R3?$CTypePack@VCShadowSprite@@@@8 DD 00H		; CTypePack<CShadowSprite>::`RTTI Class Hierarchy Descriptor'
	DD	00H
	DD	02H
	DD	FLAT:??_R2?$CTypePack@VCShadowSprite@@@@8
rdata$r	ENDS
;	COMDAT ??_R2?$CTypePack@VCShadowSprite@@@@8
rdata$r	SEGMENT
??_R2?$CTypePack@VCShadowSprite@@@@8 DD FLAT:??_R1A@?0A@A@?$CTypePack@VCShadowSprite@@@@8 ; CTypePack<CShadowSprite>::`RTTI Base Class Array'
	DD	FLAT:??_R1A@?0A@A@ITypePackBase@@8
rdata$r	ENDS
;	COMDAT ??_R1A@?0A@A@?$CTypePack@VCShadowSprite@@@@8
rdata$r	SEGMENT
??_R1A@?0A@A@?$CTypePack@VCShadowSprite@@@@8 DD FLAT:??_R0?AV?$CTypePack@VCShadowSprite@@@@@8 ; CTypePack<CShadowSprite>::`RTTI Base Class Descriptor at (0,-1,0,0)'
	DD	01H
	DD	00H
	DD	0ffffffffH
	DD	00H
	DD	00H
; Function compile flags: /Ogsy
rdata$r	ENDS
;	COMDAT ??0?$CTypePack@VCShadowSprite@@@@QAE@XZ
_TEXT	SEGMENT
_this$ = -16						; size = 4
__$EHRec$ = -12						; size = 12
??0?$CTypePack@VCShadowSprite@@@@QAE@XZ PROC NEAR	; CTypePack<CShadowSprite>::CTypePack<CShadowSprite>, COMDAT
; _this$ = ecx

; 119  : {

  00000	b8 00 00 00 00	 mov	 eax, __ehhandler$??0?$CTypePack@VCShadowSprite@@@@QAE@XZ
  00005	e8 00 00 00 00	 call	 __EH_prolog
  0000a	51		 push	 ecx
  0000b	53		 push	 ebx
  0000c	56		 push	 esi
  0000d	8b f1		 mov	 esi, ecx
  0000f	89 75 f0	 mov	 DWORD PTR _this$[ebp], esi
  00012	33 db		 xor	 ebx, ebx
  00014	8d 4e 20	 lea	 ecx, DWORD PTR [esi+32]
  00017	89 5d fc	 mov	 DWORD PTR __$EHRec$[ebp+8], ebx
  0001a	c7 06 00 00 00
	00		 mov	 DWORD PTR [esi], OFFSET FLAT:??_7?$CTypePack@VCShadowSprite@@@@6B@
  00020	e8 00 00 00 00	 call	 ??0?$basic_string@DV?$char_traits@D@_STL@@V?$allocator@D@2@@_STL@@QAE@XZ ; _STL::basic_string<char,_STL::char_traits<char>,_STL::allocator<char> >::basic_string<char,_STL::char_traits<char>,_STL::allocator<char> >
  00025	8d 4e 2c	 lea	 ecx, DWORD PTR [esi+44]
  00028	c6 45 fc 01	 mov	 BYTE PTR __$EHRec$[ebp+8], 1
  0002c	e8 00 00 00 00	 call	 ??0?$basic_string@DV?$char_traits@D@_STL@@V?$allocator@D@2@@_STL@@QAE@XZ ; _STL::basic_string<char,_STL::char_traits<char>,_STL::allocator<char> >::basic_string<char,_STL::char_traits<char>,_STL::allocator<char> >
  00031	8d 4e 38	 lea	 ecx, DWORD PTR [esi+56]
  00034	c6 45 fc 02	 mov	 BYTE PTR __$EHRec$[ebp+8], 2
  00038	e8 00 00 00 00	 call	 ??0?$map@GPAVivfstream@@U?$less@G@_STL@@V?$allocator@U?$pair@$$CBGPAVivfstream@@@_STL@@@3@@_STL@@QAE@XZ ; _STL::map<unsigned short,ivfstream *,_STL::less<unsigned short>,_STL::allocator<_STL::pair<unsigned short const ,ivfstream *> > >::map<unsigned short,ivfstream *,_STL::less<unsigned short>,_STL::allocator<_STL::pair<unsigned short const ,ivfstream *> > >

; 120  : 	m_pData = NULL;
; 121  : 	m_Size = 0;
; 122  : 	m_bRunningLoad = false;
; 123  : 	m_file_index = NULL;
; 124  : 	m_file = NULL;
; 125  : 
; 126  : 	m_bSplitFile = false;
; 127  : 	m_nUnitCount = 0;
; 128  : 	m_nUnitTwoMultiplier = 0;
; 129  : }

  0003d	8b 4d f4	 mov	 ecx, DWORD PTR __$EHRec$[ebp]
  00040	89 5e 04	 mov	 DWORD PTR [esi+4], ebx
  00043	66 89 5e 08	 mov	 WORD PTR [esi+8], bx
  00047	88 5e 0a	 mov	 BYTE PTR [esi+10], bl
  0004a	89 5e 10	 mov	 DWORD PTR [esi+16], ebx
  0004d	89 5e 0c	 mov	 DWORD PTR [esi+12], ebx
  00050	88 5e 14	 mov	 BYTE PTR [esi+20], bl
  00053	89 5e 18	 mov	 DWORD PTR [esi+24], ebx
  00056	89 5e 1c	 mov	 DWORD PTR [esi+28], ebx
  00059	8b c6		 mov	 eax, esi
  0005b	5e		 pop	 esi
  0005c	5b		 pop	 ebx
  0005d	64 89 0d 00 00
	00 00		 mov	 DWORD PTR fs:__except_list, ecx
  00064	c9		 leave
  00065	c3		 ret	 0
_TEXT	ENDS
;	COMDAT text$x
text$x	SEGMENT
$L118234:
  00000	8b 4d f0	 mov	 ecx, DWORD PTR _this$[ebp]
  00003	e9 00 00 00 00	 jmp	 ??1ITypePackBase@@UAE@XZ ; ITypePackBase::~ITypePackBase
$L118235:
  00008	8b 4d f0	 mov	 ecx, DWORD PTR _this$[ebp]
  0000b	83 c1 20	 add	 ecx, 32			; 00000020H
  0000e	e9 00 00 00 00	 jmp	 ??1?$basic_string@DV?$char_traits@D@_STL@@V?$allocator@D@2@@_STL@@QAE@XZ ; _STL::basic_string<char,_STL::char_traits<char>,_STL::allocator<char> >::~basic_string<char,_STL::char_traits<char>,_STL::allocator<char> >
$L118236:
  00013	8b 4d f0	 mov	 ecx, DWORD PTR _this$[ebp]
  00016	83 c1 2c	 add	 ecx, 44			; 0000002cH
  00019	e9 00 00 00 00	 jmp	 ??1?$basic_string@DV?$char_traits@D@_STL@@V?$allocator@D@2@@_STL@@QAE@XZ ; _STL::basic_string<char,_STL::char_traits<char>,_STL::allocator<char> >::~basic_string<char,_STL::char_traits<char>,_STL::allocator<char> >
__ehhandler$??0?$CTypePack@VCShadowSprite@@@@QAE@XZ:
  0001e	b8 00 00 00 00	 mov	 eax, OFFSET FLAT:$T118242
  00023	e9 00 00 00 00	 jmp	 ___CxxFrameHandler
text$x	ENDS
??0?$CTypePack@VCShadowSprite@@@@QAE@XZ ENDP		; CTypePack<CShadowSprite>::CTypePack<CShadowSprite>
; Function compile flags: /Ogsy
;	COMDAT ?GetSize@?$CTypePack@VCShadowSprite@@@@UBEKXZ
_TEXT	SEGMENT
?GetSize@?$CTypePack@VCShadowSprite@@@@UBEKXZ PROC NEAR	; CTypePack<CShadowSprite>::GetSize, COMDAT
; _this$ = ecx

; 68   : 	virtual DWORD	GetSize() const { return m_Size; }

  00000	0f b7 41 08	 movzx	 eax, WORD PTR [ecx+8]
  00004	c3		 ret	 0
?GetSize@?$CTypePack@VCShadowSprite@@@@UBEKXZ ENDP	; CTypePack<CShadowSprite>::GetSize
_TEXT	ENDS
EXTRN	??_L@YGXPAXIHP6EX0@Z1@Z:NEAR			; `eh vector constructor iterator'
EXTRN	??0CShadowSprite@@QAE@XZ:NEAR			; CShadowSprite::CShadowSprite
;	COMDAT xdata$x
xdata$x	SEGMENT
$T118261 DD	0ffffffffH
	DD	FLAT:$L118257
$T118259 DD	019930520H
	DD	01H
	DD	FLAT:$T118261
	DD	2 DUP(00H)
	DD	2 DUP(00H)
; Function compile flags: /Ogsy
xdata$x	ENDS
;	COMDAT ?Init@?$CTypePack@VCShadowSprite@@@@UAEXG@Z
_TEXT	SEGMENT
__$EHRec$ = -12						; size = 12
$T118254 = 8						; size = 4
_size$ = 8						; size = 2
?Init@?$CTypePack@VCShadowSprite@@@@UAEXG@Z PROC NEAR	; CTypePack<CShadowSprite>::Init, COMDAT
; _this$ = ecx

; 152  : {

  00000	b8 00 00 00 00	 mov	 eax, __ehhandler$?Init@?$CTypePack@VCShadowSprite@@@@UAEXG@Z
  00005	e8 00 00 00 00	 call	 __EH_prolog
  0000a	53		 push	 ebx
  0000b	56		 push	 esi

; 153  : 	if(size == 0)

  0000c	66 8b 75 08	 mov	 si, WORD PTR _size$[ebp]
  00010	33 db		 xor	 ebx, ebx
  00012	66 3b f3	 cmp	 si, bx
  00015	57		 push	 edi
  00016	8b f9		 mov	 edi, ecx
  00018	74 42		 je	 SHORT $L112388

; 154  : 		return;
; 155  : 	
; 156  : 	Release();

  0001a	8b 07		 mov	 eax, DWORD PTR [edi]
  0001c	ff 50 08	 call	 DWORD PTR [eax+8]

; 157  : 	
; 158  : 	m_Size = size;

  0001f	66 89 77 08	 mov	 WORD PTR [edi+8], si

; 159  : 	
; 160  : 	m_pData = new Type[size];

  00023	0f b7 f6	 movzx	 esi, si
  00026	8d 04 76	 lea	 eax, DWORD PTR [esi+esi*2]
  00029	8d 04 85 04 00
	00 00		 lea	 eax, DWORD PTR [eax*4+4]
  00030	50		 push	 eax
  00031	e8 00 00 00 00	 call	 ??_U@YAPAXI@Z		; operator new[]
  00036	59		 pop	 ecx
  00037	89 45 08	 mov	 DWORD PTR $T118254[ebp], eax
  0003a	3b c3		 cmp	 eax, ebx
  0003c	89 5d fc	 mov	 DWORD PTR __$EHRec$[ebp+8], ebx
  0003f	74 18		 je	 SHORT $L118256
  00041	68 00 00 00 00	 push	 OFFSET FLAT:??1CShadowSprite@@QAE@XZ ; CShadowSprite::~CShadowSprite
  00046	68 00 00 00 00	 push	 OFFSET FLAT:??0CShadowSprite@@QAE@XZ ; CShadowSprite::CShadowSprite
  0004b	56		 push	 esi
  0004c	8d 58 04	 lea	 ebx, DWORD PTR [eax+4]
  0004f	6a 0c		 push	 12			; 0000000cH
  00051	53		 push	 ebx
  00052	89 30		 mov	 DWORD PTR [eax], esi
  00054	e8 00 00 00 00	 call	 ??_L@YGXPAXIHP6EX0@Z1@Z
$L118256:
  00059	89 5f 04	 mov	 DWORD PTR [edi+4], ebx
$L112388:

; 161  : }

  0005c	8b 4d f4	 mov	 ecx, DWORD PTR __$EHRec$[ebp]
  0005f	5f		 pop	 edi
  00060	5e		 pop	 esi
  00061	5b		 pop	 ebx
  00062	64 89 0d 00 00
	00 00		 mov	 DWORD PTR fs:__except_list, ecx
  00069	c9		 leave
  0006a	c2 04 00	 ret	 4
_TEXT	ENDS
;	COMDAT text$x
text$x	SEGMENT
$L118257:
  00000	ff 75 08	 push	 DWORD PTR $T118254[ebp]
  00003	e8 00 00 00 00	 call	 ??_V@YAXPAX@Z		; operator delete[]
  00008	59		 pop	 ecx
  00009	c3		 ret	 0
__ehhandler$?Init@?$CTypePack@VCShadowSprite@@@@UAEXG@Z:
  0000a	b8 00 00 00 00	 mov	 eax, OFFSET FLAT:$T118259
  0000f	e9 00 00 00 00	 jmp	 ___CxxFrameHandler
text$x	ENDS
?Init@?$CTypePack@VCShadowSprite@@@@UAEXG@Z ENDP	; CTypePack<CShadowSprite>::Init
; Function compile flags: /Ogsy
;	COMDAT ??A?$CTypePack@VCShadowSprite@@@@UAEAAVCShadowSprite@@G@Z
_TEXT	SEGMENT
_n$ = 8							; size = 2
??A?$CTypePack@VCShadowSprite@@@@UAEAAVCShadowSprite@@G@Z PROC NEAR ; CTypePack<CShadowSprite>::operator[], COMDAT
; _this$ = ecx

; 166  : 	return Get(n);

  00000	8b 01		 mov	 eax, DWORD PTR [ecx]
  00002	ff 60 3c	 jmp	 DWORD PTR [eax+60]
??A?$CTypePack@VCShadowSprite@@@@UAEAAVCShadowSprite@@G@Z ENDP ; CTypePack<CShadowSprite>::operator[]
; Function compile flags: /Ogsy
_TEXT	ENDS
;	COMDAT ?LoadFromFilePart@?$CTypePack@VCShadowSprite@@@@UAE_NHH@Z
_TEXT	SEGMENT
_first$ = 8						; size = 4
_last$ = 12						; size = 4
?LoadFromFilePart@?$CTypePack@VCShadowSprite@@@@UAE_NHH@Z PROC NEAR ; CTypePack<CShadowSprite>::LoadFromFilePart, COMDAT
; _this$ = ecx

; 511  : {

  00000	53		 push	 ebx
  00001	8b d9		 mov	 ebx, ecx

; 512  : 	if(!m_bRunningLoad) return true;

  00003	80 7b 0a 00	 cmp	 BYTE PTR [ebx+10], 0
  00007	74 26		 je	 SHORT $L118274
  00009	56		 push	 esi
  0000a	57		 push	 edi

; 513  : 
; 514  : 	last = min(last, 0xFFFE);

  0000b	8b 7c 24 14	 mov	 edi, DWORD PTR _last$[esp+8]
  0000f	b8 fe ff 00 00	 mov	 eax, 65534		; 0000fffeH
  00014	3b f8		 cmp	 edi, eax
  00016	7c 02		 jl	 SHORT $L118271
  00018	8b f8		 mov	 edi, eax
$L118271:

; 515  : 
; 516  : 	register int i = first;

  0001a	8b 74 24 10	 mov	 esi, DWORD PTR _first$[esp+8]
  0001e	eb 09		 jmp	 SHORT $L118275
$L113049:

; 519  : 		Get(i);

  00020	8b 03		 mov	 eax, DWORD PTR [ebx]
  00022	56		 push	 esi
  00023	8b cb		 mov	 ecx, ebx
  00025	ff 50 3c	 call	 DWORD PTR [eax+60]
  00028	46		 inc	 esi
$L118275:

; 517  : 
; 518  : 	for(; i <= last; i++)

  00029	3b f7		 cmp	 esi, edi
  0002b	7e f3		 jle	 SHORT $L113049
  0002d	5f		 pop	 edi
  0002e	5e		 pop	 esi
$L118274:

; 520  : 
; 521  : 	return true;

  0002f	b0 01		 mov	 al, 1
  00031	5b		 pop	 ebx

; 522  : }

  00032	c2 08 00	 ret	 8
?LoadFromFilePart@?$CTypePack@VCShadowSprite@@@@UAE_NHH@Z ENDP ; CTypePack<CShadowSprite>::LoadFromFilePart
_TEXT	ENDS
PUBLIC	?size@?$list@GV?$allocator@G@_STL@@@_STL@@QBEIXZ ; _STL::list<unsigned short,_STL::allocator<unsigned short> >::size
; Function compile flags: /Ogsy
;	COMDAT ?LoadFromFilePart@?$CTypePack@VCShadowSprite@@@@UAE_NAAVCSpriteSetManager@@@Z
_TEXT	SEGMENT
_SSM$ = 8						; size = 4
?LoadFromFilePart@?$CTypePack@VCShadowSprite@@@@UAE_NAAVCSpriteSetManager@@@Z PROC NEAR ; CTypePack<CShadowSprite>::LoadFromFilePart, COMDAT
; _this$ = ecx

; 527  : {

  00000	53		 push	 ebx
  00001	55		 push	 ebp
  00002	8b e9		 mov	 ebp, ecx

; 528  : 	if(!m_bRunningLoad) return true;

  00004	33 db		 xor	 ebx, ebx
  00006	38 5d 0a	 cmp	 BYTE PTR [ebp+10], bl
  00009	74 3e		 je	 SHORT $L118398
  0000b	56		 push	 esi
  0000c	57		 push	 edi

; 529  : 
; 530  : 	CSpriteSetManager::DATA_LIST::const_iterator iID = SSM.GetIterator();

  0000d	8b 7c 24 14	 mov	 edi, DWORD PTR _SSM$[esp+12]
  00011	8b 07		 mov	 eax, DWORD PTR [edi]
  00013	8b 30		 mov	 esi, DWORD PTR [eax]

; 531  : 	register int t = 0;
; 532  : 
; 533  : 	for(; t<SSM.GetSize(); ++t, ++iID)

  00015	8b cf		 mov	 ecx, edi
  00017	e8 00 00 00 00	 call	 ?size@?$list@GV?$allocator@G@_STL@@@_STL@@QBEIXZ ; _STL::list<unsigned short,_STL::allocator<unsigned short> >::size
  0001c	66 85 c0	 test	 ax, ax
  0001f	76 26		 jbe	 SHORT $L113039
$L118311:

; 534  : 	{
; 535  : 		if(*iID != 0xFFFF)
; 536  : 			Get(*iID);

  00021	33 c0		 xor	 eax, eax
  00023	66 8b 46 08	 mov	 ax, WORD PTR [esi+8]
  00027	66 3d ff ff	 cmp	 ax, 65535		; 0000ffffH
  0002b	74 09		 je	 SHORT $L113038
  0002d	8b 55 00	 mov	 edx, DWORD PTR [ebp]
  00030	50		 push	 eax
  00031	8b cd		 mov	 ecx, ebp
  00033	ff 52 3c	 call	 DWORD PTR [edx+60]
$L113038:
  00036	8b 36		 mov	 esi, DWORD PTR [esi]
  00038	8b cf		 mov	 ecx, edi
  0003a	43		 inc	 ebx
  0003b	e8 00 00 00 00	 call	 ?size@?$list@GV?$allocator@G@_STL@@@_STL@@QBEIXZ ; _STL::list<unsigned short,_STL::allocator<unsigned short> >::size
  00040	0f b7 c0	 movzx	 eax, ax
  00043	3b d8		 cmp	 ebx, eax
  00045	7c da		 jl	 SHORT $L118311
$L113039:
  00047	5f		 pop	 edi
  00048	5e		 pop	 esi
$L118398:
  00049	5d		 pop	 ebp

; 537  : 	}
; 538  : 
; 539  : 	return true;

  0004a	b0 01		 mov	 al, 1
  0004c	5b		 pop	 ebx

; 540  : }

  0004d	c2 04 00	 ret	 4
?LoadFromFilePart@?$CTypePack@VCShadowSprite@@@@UAE_NAAVCSpriteSetManager@@@Z ENDP ; CTypePack<CShadowSprite>::LoadFromFilePart
; Function compile flags: /Ogsy
; File c:\stlport-4.6.1\stlport\stl\_list.h
_TEXT	ENDS
;	COMDAT ?size@?$list@GV?$allocator@G@_STL@@@_STL@@QBEIXZ
_TEXT	SEGMENT
?size@?$list@GV?$allocator@G@_STL@@@_STL@@QBEIXZ PROC NEAR ; _STL::list<unsigned short,_STL::allocator<unsigned short> >::size, COMDAT
; _this$ = ecx

; 284  :     size_type __result = distance(begin(), end());

  00000	8b 11		 mov	 edx, DWORD PTR [ecx]
  00002	8b 0a		 mov	 ecx, DWORD PTR [edx]
  00004	33 c0		 xor	 eax, eax
  00006	eb 03		 jmp	 SHORT $L118479
$L118475:
  00008	8b 09		 mov	 ecx, DWORD PTR [ecx]
  0000a	40		 inc	 eax
$L118479:
  0000b	3b ca		 cmp	 ecx, edx
  0000d	75 f9		 jne	 SHORT $L118475

; 285  :     return __result;
; 286  :   }

  0000f	c3		 ret	 0
?size@?$list@GV?$allocator@G@_STL@@@_STL@@QBEIXZ ENDP	; _STL::list<unsigned short,_STL::allocator<unsigned short> >::size
_TEXT	ENDS
PUBLIC	?erase@?$_Rb_tree@GU?$pair@$$CBGPAVivfstream@@@_STL@@U?$_Select1st@U?$pair@$$CBGPAVivfstream@@@_STL@@@2@U?$less@G@2@V?$allocator@U?$pair@$$CBGPAVivfstream@@@_STL@@@2@@_STL@@QAEXU?$_Rb_tree_iterator@U?$pair@$$CBGPAVivfstream@@@_STL@@U?$_Nonconst_traits@U?$pair@$$CBGPAVivfstream@@@_STL@@@2@@2@@Z ; _STL::_Rb_tree<unsigned short,_STL::pair<unsigned short const ,ivfstream *>,_STL::_Select1st<_STL::pair<unsigned short const ,ivfstream *> >,_STL::less<unsigned short>,_STL::allocator<_STL::pair<unsigned short const ,ivfstream *> > >::erase
PUBLIC	?GetSplitFile@?$CTypePack@VCShadowSprite@@@@IAEHHPAD@Z ; CTypePack<CShadowSprite>::GetSplitFile
PUBLIC	??$_M_find@G@?$_Rb_tree@GU?$pair@$$CBGPAVivfstream@@@_STL@@U?$_Select1st@U?$pair@$$CBGPAVivfstream@@@_STL@@@2@U?$less@G@2@V?$allocator@U?$pair@$$CBGPAVivfstream@@@_STL@@@2@@_STL@@ABEPAU?$_Rb_tree_node@U?$pair@$$CBGPAVivfstream@@@_STL@@@1@ABG@Z ; _STL::_Rb_tree<unsigned short,_STL::pair<unsigned short const ,ivfstream *>,_STL::_Select1st<_STL::pair<unsigned short const ,ivfstream *> >,_STL::less<unsigned short>,_STL::allocator<_STL::pair<unsigned short const ,ivfstream *> > >::_M_find<unsigned short>
PUBLIC	??1?$COrderedList@G@@QAE@XZ			; COrderedList<unsigned short>::~COrderedList<unsigned short>
PUBLIC	?GetSize@?$COrderedList@G@@QBEHXZ		; COrderedList<unsigned short>::GetSize
EXTRN	?Release@CShadowSprite@@QAEXXZ:NEAR		; CShadowSprite::Release
;	COMDAT xdata$x
; File c:\stlport-4.6.1\stlport\stl\_alloc.h
xdata$x	SEGMENT
$T118828 DD	0ffffffffH
	DD	FLAT:$L118490
$T118819 DD	019930520H
	DD	01H
	DD	FLAT:$T118828
	DD	2 DUP(00H)
	DD	2 DUP(00H)
; Function compile flags: /Ogsy
; File c:\darkeden\designed_common\project\client\spritelib\ctypepack.h
xdata$x	ENDS
;	COMDAT ?ReleasePart@?$CTypePack@VCShadowSprite@@@@UAE_NV?$COrderedList@G@@@Z
_TEXT	SEGMENT
_t$113127 = -24						; size = 4
_fileIdx$113132 = -20					; size = 2
_iID$ = -16						; size = 4
__$EHRec$ = -12						; size = 12
_list$ = 8						; size = 4
?ReleasePart@?$CTypePack@VCShadowSprite@@@@UAE_NV?$COrderedList@G@@@Z PROC NEAR ; CTypePack<CShadowSprite>::ReleasePart, COMDAT
; _this$ = ecx

; 586  : {

  00000	b8 00 00 00 00	 mov	 eax, __ehhandler$?ReleasePart@?$CTypePack@VCShadowSprite@@@@UAE_NV?$COrderedList@G@@@Z
  00005	e8 00 00 00 00	 call	 __EH_prolog
  0000a	83 ec 0c	 sub	 esp, 12			; 0000000cH
  0000d	53		 push	 ebx
  0000e	56		 push	 esi
  0000f	57		 push	 edi
  00010	8b f1		 mov	 esi, ecx

; 587  : 	COrderedList<TYPE_SPRITEID>::DATA_LIST::const_iterator iID = list.GetIterator();

  00012	8b 45 08	 mov	 eax, DWORD PTR _list$[ebp]
  00015	8b 38		 mov	 edi, DWORD PTR [eax]
  00017	33 db		 xor	 ebx, ebx

; 588  : 
; 589  : 	if(m_bSplitFile)

  00019	38 5e 14	 cmp	 BYTE PTR [esi+20], bl
  0001c	89 5d fc	 mov	 DWORD PTR __$EHRec$[ebp+8], ebx
  0001f	89 7d f0	 mov	 DWORD PTR _iID$[ebp], edi

; 590  : 	{
; 591  : 		register int t = 0;
; 592  : 
; 593  : 		for(; t<list.GetSize(); t++, ++iID)

  00022	8d 4d 08	 lea	 ecx, DWORD PTR _list$[ebp]
  00025	0f 84 aa 00 00
	00		 je	 $L113126
  0002b	89 5d e8	 mov	 DWORD PTR _t$113127[ebp], ebx
  0002e	e8 00 00 00 00	 call	 ?GetSize@?$COrderedList@G@@QBEHXZ ; COrderedList<unsigned short>::GetSize
  00033	85 c0		 test	 eax, eax
  00035	0f 8e d5 00 00
	00		 jle	 $L113149
  0003b	eb 03		 jmp	 SHORT $L118523
$L118824:
  0003d	8b 7d f0	 mov	 edi, DWORD PTR _iID$[ebp]
$L118523:

; 594  : 		{
; 595  : 			if(*iID == 0xFFFF) continue;

  00040	66 8b 47 08	 mov	 ax, WORD PTR [edi+8]
  00044	66 3d ff ff	 cmp	 ax, 65535		; 0000ffffH
  00048	74 70		 je	 SHORT $L113129

; 596  : 			
; 597  : 			WORD fileIdx = GetSplitFile(*iID);

  0004a	0f b7 c0	 movzx	 eax, ax
  0004d	6a 00		 push	 0
  0004f	50		 push	 eax
  00050	8b ce		 mov	 ecx, esi
  00052	e8 00 00 00 00	 call	 ?GetSplitFile@?$CTypePack@VCShadowSprite@@@@IAEHHPAD@Z ; CTypePack<CShadowSprite>::GetSplitFile
  00057	89 45 ec	 mov	 DWORD PTR _fileIdx$113132[ebp], eax

; 598  : 
; 599  : 			FILECACHE_MAP::iterator pos = m_FileCacheMap.find(fileIdx);

  0005a	8d 45 ec	 lea	 eax, DWORD PTR _fileIdx$113132[ebp]
  0005d	8d 7e 38	 lea	 edi, DWORD PTR [esi+56]
  00060	50		 push	 eax
  00061	8b cf		 mov	 ecx, edi
  00063	e8 00 00 00 00	 call	 ??$_M_find@G@?$_Rb_tree@GU?$pair@$$CBGPAVivfstream@@@_STL@@U?$_Select1st@U?$pair@$$CBGPAVivfstream@@@_STL@@@2@U?$less@G@2@V?$allocator@U?$pair@$$CBGPAVivfstream@@@_STL@@@2@@_STL@@ABEPAU?$_Rb_tree_node@U?$pair@$$CBGPAVivfstream@@@_STL@@@1@ABG@Z ; _STL::_Rb_tree<unsigned short,_STL::pair<unsigned short const ,ivfstream *>,_STL::_Select1st<_STL::pair<unsigned short const ,ivfstream *> >,_STL::less<unsigned short>,_STL::allocator<_STL::pair<unsigned short const ,ivfstream *> > >::_M_find<unsigned short>
  00068	8b d8		 mov	 ebx, eax

; 600  : 			if(pos != m_FileCacheMap.end())

  0006a	3b 1f		 cmp	 ebx, DWORD PTR [edi]
  0006c	74 19		 je	 SHORT $L118656

; 601  : 			{
; 602  : 				delete pos->second;

  0006e	8b 4b 14	 mov	 ecx, DWORD PTR [ebx+20]
  00071	85 c9		 test	 ecx, ecx
  00073	74 06		 je	 SHORT $L118486
  00075	8b 01		 mov	 eax, DWORD PTR [ecx]
  00077	6a 01		 push	 1
  00079	ff 10		 call	 DWORD PTR [eax]
$L118486:

; 603  : 				m_FileCacheMap.erase(pos);

  0007b	51		 push	 ecx
  0007c	8b c4		 mov	 eax, esp
  0007e	8b cf		 mov	 ecx, edi
  00080	89 18		 mov	 DWORD PTR [eax], ebx
  00082	e8 00 00 00 00	 call	 ?erase@?$_Rb_tree@GU?$pair@$$CBGPAVivfstream@@@_STL@@U?$_Select1st@U?$pair@$$CBGPAVivfstream@@@_STL@@@2@U?$less@G@2@V?$allocator@U?$pair@$$CBGPAVivfstream@@@_STL@@@2@@_STL@@QAEXU?$_Rb_tree_iterator@U?$pair@$$CBGPAVivfstream@@@_STL@@U?$_Nonconst_traits@U?$pair@$$CBGPAVivfstream@@@_STL@@@2@@2@@Z ; _STL::_Rb_tree<unsigned short,_STL::pair<unsigned short const ,ivfstream *>,_STL::_Select1st<_STL::pair<unsigned short const ,ivfstream *> >,_STL::less<unsigned short>,_STL::allocator<_STL::pair<unsigned short const ,ivfstream *> > >::erase
$L118656:

; 604  : 			}
; 605  : 
; 606  : 			for(int i = 0; i < m_nUnitCount && fileIdx < m_Size; ++i, ++fileIdx)

  00087	33 ff		 xor	 edi, edi
  00089	39 7e 18	 cmp	 DWORD PTR [esi+24], edi
  0008c	7e 29		 jle	 SHORT $L118825
$L113141:
  0008e	8b 45 ec	 mov	 eax, DWORD PTR _fileIdx$113132[ebp]
  00091	66 3b 46 08	 cmp	 ax, WORD PTR [esi+8]
  00095	73 20		 jae	 SHORT $L118825

; 607  : 			{
; 608  : 				if(m_pData[fileIdx].IsInit())

  00097	8b 4e 04	 mov	 ecx, DWORD PTR [esi+4]
  0009a	0f b7 c0	 movzx	 eax, ax
  0009d	8d 04 40	 lea	 eax, DWORD PTR [eax+eax*2]
  000a0	8d 0c 81	 lea	 ecx, DWORD PTR [ecx+eax*4]
  000a3	80 79 08 00	 cmp	 BYTE PTR [ecx+8], 0
  000a7	74 05		 je	 SHORT $L113142

; 609  : 					m_pData[fileIdx].Release();

  000a9	e8 00 00 00 00	 call	 ?Release@CShadowSprite@@QAEXXZ ; CShadowSprite::Release
$L113142:

; 604  : 			}
; 605  : 
; 606  : 			for(int i = 0; i < m_nUnitCount && fileIdx < m_Size; ++i, ++fileIdx)

  000ae	47		 inc	 edi
  000af	ff 45 ec	 inc	 DWORD PTR _fileIdx$113132[ebp]
  000b2	3b 7e 18	 cmp	 edi, DWORD PTR [esi+24]
  000b5	7c d7		 jl	 SHORT $L113141
$L118825:
  000b7	8b 7d f0	 mov	 edi, DWORD PTR _iID$[ebp]
$L113129:

; 590  : 	{
; 591  : 		register int t = 0;
; 592  : 
; 593  : 		for(; t<list.GetSize(); t++, ++iID)

  000ba	8b 07		 mov	 eax, DWORD PTR [edi]
  000bc	ff 45 e8	 inc	 DWORD PTR _t$113127[ebp]
  000bf	8d 4d 08	 lea	 ecx, DWORD PTR _list$[ebp]
  000c2	89 45 f0	 mov	 DWORD PTR _iID$[ebp], eax
  000c5	e8 00 00 00 00	 call	 ?GetSize@?$COrderedList@G@@QBEHXZ ; COrderedList<unsigned short>::GetSize
  000ca	39 45 e8	 cmp	 DWORD PTR _t$113127[ebp], eax
  000cd	0f 8c 6a ff ff
	ff		 jl	 $L118824

; 610  : 			}
; 611  : 		}
; 612  : 	}
; 613  : 	else

  000d3	eb 3b		 jmp	 SHORT $L113149
$L113126:

; 614  : 	{
; 615  : 		register int t = 0;
; 616  : 
; 617  : 		for(; t<list.GetSize(); t++, ++iID)

  000d5	e8 00 00 00 00	 call	 ?GetSize@?$COrderedList@G@@QBEHXZ ; COrderedList<unsigned short>::GetSize
  000da	85 c0		 test	 eax, eax
  000dc	7e 32		 jle	 SHORT $L113149
  000de	eb 03		 jmp	 SHORT $L118670
$L118826:
  000e0	8b 7d f0	 mov	 edi, DWORD PTR _iID$[ebp]
$L118670:

; 618  : 		{
; 619  : 			if(*iID == 0xFFFF) continue;

  000e3	66 8b 47 08	 mov	 ax, WORD PTR [edi+8]
  000e7	66 3d ff ff	 cmp	 ax, 65535		; 0000ffffH
  000eb	74 11		 je	 SHORT $L113148

; 620  : 			m_pData[*iID].Release();

  000ed	8b 4e 04	 mov	 ecx, DWORD PTR [esi+4]
  000f0	0f b7 c0	 movzx	 eax, ax
  000f3	8d 04 40	 lea	 eax, DWORD PTR [eax+eax*2]
  000f6	8d 0c 81	 lea	 ecx, DWORD PTR [ecx+eax*4]
  000f9	e8 00 00 00 00	 call	 ?Release@CShadowSprite@@QAEXXZ ; CShadowSprite::Release
$L113148:
  000fe	8b 07		 mov	 eax, DWORD PTR [edi]
  00100	8d 4d 08	 lea	 ecx, DWORD PTR _list$[ebp]
  00103	43		 inc	 ebx
  00104	89 45 f0	 mov	 DWORD PTR _iID$[ebp], eax
  00107	e8 00 00 00 00	 call	 ?GetSize@?$COrderedList@G@@QBEHXZ ; COrderedList<unsigned short>::GetSize
  0010c	3b d8		 cmp	 ebx, eax
  0010e	7c d0		 jl	 SHORT $L118826
$L113149:

; 621  : 		}
; 622  : 	}
; 623  : 
; 624  : 	return true;

  00110	83 4d fc ff	 or	 DWORD PTR __$EHRec$[ebp+8], -1
  00114	8d 4d 08	 lea	 ecx, DWORD PTR _list$[ebp]
  00117	e8 00 00 00 00	 call	 ??1?$COrderedList@G@@QAE@XZ ; COrderedList<unsigned short>::~COrderedList<unsigned short>

; 625  : }

  0011c	8b 4d f4	 mov	 ecx, DWORD PTR __$EHRec$[ebp]
  0011f	5f		 pop	 edi
  00120	5e		 pop	 esi
  00121	b0 01		 mov	 al, 1
  00123	64 89 0d 00 00
	00 00		 mov	 DWORD PTR fs:__except_list, ecx
  0012a	5b		 pop	 ebx
  0012b	c9		 leave
  0012c	c2 04 00	 ret	 4
_TEXT	ENDS
;	COMDAT text$x
text$x	SEGMENT
$L118490:
  00000	8d 4d 08	 lea	 ecx, DWORD PTR _list$[ebp]
  00003	e9 00 00 00 00	 jmp	 ??1?$COrderedList@G@@QAE@XZ ; COrderedList<unsigned short>::~COrderedList<unsigned short>
__ehhandler$?ReleasePart@?$CTypePack@VCShadowSprite@@@@UAE_NV?$COrderedList@G@@@Z:
  00008	b8 00 00 00 00	 mov	 eax, OFFSET FLAT:$T118819
  0000d	e9 00 00 00 00	 jmp	 ___CxxFrameHandler
text$x	ENDS
?ReleasePart@?$CTypePack@VCShadowSprite@@@@UAE_NV?$COrderedList@G@@@Z ENDP ; CTypePack<CShadowSprite>::ReleasePart
PUBLIC	??_C@_09EIKOIO@?$CFs?2?$CF05d?$CFs?$AA@		; `string'
EXTRN	_sprintf:NEAR
;	COMDAT ??_C@_09EIKOIO@?$CFs?2?$CF05d?$CFs?$AA@
; File c:\stlport-4.6.1\stlport\stl\_string.h
CONST	SEGMENT
??_C@_09EIKOIO@?$CFs?2?$CF05d?$CFs?$AA@ DB '%s\%05d%s', 00H ; `string'
; Function compile flags: /Ogsy
; File c:\darkeden\designed_common\project\client\spritelib\ctypepack.h
CONST	ENDS
;	COMDAT ?GetSplitFile@?$CTypePack@VCShadowSprite@@@@IAEHHPAD@Z
_TEXT	SEGMENT
_idx$ = 8						; size = 4
_szBuf$ = 12						; size = 4
?GetSplitFile@?$CTypePack@VCShadowSprite@@@@IAEHHPAD@Z PROC NEAR ; CTypePack<CShadowSprite>::GetSplitFile, COMDAT
; _this$ = ecx

; 791  : {

  00000	56		 push	 esi

; 792  : 	WORD fileIdx = (idx >> m_nUnitTwoMultiplier) << m_nUnitTwoMultiplier;

  00001	8b 74 24 08	 mov	 esi, DWORD PTR _idx$[esp]
  00005	8b c1		 mov	 eax, ecx
  00007	8b 48 1c	 mov	 ecx, DWORD PTR [eax+28]
  0000a	d3 fe		 sar	 esi, cl
  0000c	d3 e6		 shl	 esi, cl

; 793  : 
; 794  : 	if(szBuf)

  0000e	83 7c 24 0c 00	 cmp	 DWORD PTR _szBuf$[esp], 0
  00013	74 1b		 je	 SHORT $L113949

; 795  : 	{
; 796  : 		sprintf(szBuf, "%s\\%05d%s",
; 797  : 			m_strFileName.c_str(), fileIdx, m_strFileExt.c_str());

  00015	ff 70 2c	 push	 DWORD PTR [eax+44]
  00018	0f b7 ce	 movzx	 ecx, si
  0001b	51		 push	 ecx
  0001c	ff 70 20	 push	 DWORD PTR [eax+32]
  0001f	68 00 00 00 00	 push	 OFFSET FLAT:??_C@_09EIKOIO@?$CFs?2?$CF05d?$CFs?$AA@
  00024	ff 74 24 1c	 push	 DWORD PTR _szBuf$[esp+16]
  00028	e8 00 00 00 00	 call	 _sprintf
  0002d	83 c4 14	 add	 esp, 20			; 00000014H
$L113949:

; 798  : 	}
; 799  : 
; 800  : 	return fileIdx;

  00030	0f b7 c6	 movzx	 eax, si
  00033	5e		 pop	 esi

; 801  : }

  00034	c2 08 00	 ret	 8
?GetSplitFile@?$CTypePack@VCShadowSprite@@@@IAEHHPAD@Z ENDP ; CTypePack<CShadowSprite>::GetSplitFile
; Function compile flags: /Ogsy
; File c:\stlport-4.6.1\stlport\stl\_tree.h
_TEXT	ENDS
;	COMDAT ??$_M_find@G@?$_Rb_tree@GU?$pair@$$CBGPAVivfstream@@@_STL@@U?$_Select1st@U?$pair@$$CBGPAVivfstream@@@_STL@@@2@U?$less@G@2@V?$allocator@U?$pair@$$CBGPAVivfstream@@@_STL@@@2@@_STL@@ABEPAU?$_Rb_tree_node@U?$pair@$$CBGPAVivfstream@@@_STL@@@1@ABG@Z
_TEXT	SEGMENT
___k$ = 8						; size = 4
??$_M_find@G@?$_Rb_tree@GU?$pair@$$CBGPAVivfstream@@@_STL@@U?$_Select1st@U?$pair@$$CBGPAVivfstream@@@_STL@@@2@U?$less@G@2@V?$allocator@U?$pair@$$CBGPAVivfstream@@@_STL@@@2@@_STL@@ABEPAU?$_Rb_tree_node@U?$pair@$$CBGPAVivfstream@@@_STL@@@1@ABG@Z PROC NEAR ; _STL::_Rb_tree<unsigned short,_STL::pair<unsigned short const ,ivfstream *>,_STL::_Select1st<_STL::pair<unsigned short const ,ivfstream *> >,_STL::less<unsigned short>,_STL::allocator<_STL::pair<unsigned short const ,ivfstream *> > >::_M_find<unsigned short>, COMDAT
; _this$ = ecx

; 462  : # else
; 463  :   iterator find(const key_type& __x) { return iterator(_M_find(__x)); }
; 464  :   const_iterator find(const key_type& __x) const { return const_iterator(_M_find(__x)); }
; 465  : private:
; 466  :   _Rb_tree_node<_Value>* _M_find(const key_type& __k) const
; 467  : # endif
; 468  :   {
; 469  :     _Link_type __y = this->_M_header._M_data;      // Last node which is not less than __k. 

  00000	8b 11		 mov	 edx, DWORD PTR [ecx]

; 470  :     _Link_type __x = _M_root();      // Current node. 

  00002	8b 4a 04	 mov	 ecx, DWORD PTR [edx+4]

; 471  :     
; 472  :     while (__x != 0) 

  00005	85 c9		 test	 ecx, ecx
  00007	57		 push	 edi
  00008	8b 7c 24 08	 mov	 edi, DWORD PTR ___k$[esp]
  0000c	8b c2		 mov	 eax, edx
  0000e	74 19		 je	 SHORT $L114329
  00010	56		 push	 esi
  00011	66 8b 37	 mov	 si, WORD PTR [edi]
$L114328:

; 473  :       if (!_M_key_compare(_S_key(__x), __k))

  00014	66 39 71 10	 cmp	 WORD PTR [ecx+16], si
  00018	72 07		 jb	 SHORT $L114330

; 474  : 	__y = __x, __x = _S_left(__x);

  0001a	8b c1		 mov	 eax, ecx
  0001c	8b 49 08	 mov	 ecx, DWORD PTR [ecx+8]

; 475  :       else

  0001f	eb 03		 jmp	 SHORT $L114331
$L114330:

; 476  : 	__x = _S_right(__x);

  00021	8b 49 0c	 mov	 ecx, DWORD PTR [ecx+12]
$L114331:

; 471  :     
; 472  :     while (__x != 0) 

  00024	85 c9		 test	 ecx, ecx
  00026	75 ec		 jne	 SHORT $L114328
  00028	5e		 pop	 esi
$L114329:

; 477  :     if (__y == this->_M_header._M_data || _M_key_compare(__k, _S_key(__y)))

  00029	3b c2		 cmp	 eax, edx
  0002b	74 09		 je	 SHORT $L114333
  0002d	66 8b 0f	 mov	 cx, WORD PTR [edi]
  00030	66 3b 48 10	 cmp	 cx, WORD PTR [eax+16]
  00034	73 02		 jae	 SHORT $L114332
$L114333:

; 478  :       __y = this->_M_header._M_data;

  00036	8b c2		 mov	 eax, edx
$L114332:
  00038	5f		 pop	 edi

; 479  :     return __y;
; 480  :   }

  00039	c2 04 00	 ret	 4
??$_M_find@G@?$_Rb_tree@GU?$pair@$$CBGPAVivfstream@@@_STL@@U?$_Select1st@U?$pair@$$CBGPAVivfstream@@@_STL@@@2@U?$less@G@2@V?$allocator@U?$pair@$$CBGPAVivfstream@@@_STL@@@2@@_STL@@ABEPAU?$_Rb_tree_node@U?$pair@$$CBGPAVivfstream@@@_STL@@@1@ABG@Z ENDP ; _STL::_Rb_tree<unsigned short,_STL::pair<unsigned short const ,ivfstream *>,_STL::_Select1st<_STL::pair<unsigned short const ,ivfstream *> >,_STL::less<unsigned short>,_STL::allocator<_STL::pair<unsigned short const ,ivfstream *> > >::_M_find<unsigned short>
_TEXT	ENDS
EXTRN	?_Rebalance_for_erase@?$_Rb_global@_N@_STL@@SAPAU_Rb_tree_node_base@2@PAU32@AAPAU32@11@Z:NEAR ; _STL::_Rb_global<bool>::_Rebalance_for_erase
; Function compile flags: /Ogsy
;	COMDAT ?erase@?$_Rb_tree@GU?$pair@$$CBGPAVivfstream@@@_STL@@U?$_Select1st@U?$pair@$$CBGPAVivfstream@@@_STL@@@2@U?$less@G@2@V?$allocator@U?$pair@$$CBGPAVivfstream@@@_STL@@@2@@_STL@@QAEXU?$_Rb_tree_iterator@U?$pair@$$CBGPAVivfstream@@@_STL@@U?$_Nonconst_traits@U?$pair@$$CBGPAVivfstream@@@_STL@@@2@@2@@Z
_TEXT	SEGMENT
___position$ = 8					; size = 4
?erase@?$_Rb_tree@GU?$pair@$$CBGPAVivfstream@@@_STL@@U?$_Select1st@U?$pair@$$CBGPAVivfstream@@@_STL@@@2@U?$less@G@2@V?$allocator@U?$pair@$$CBGPAVivfstream@@@_STL@@@2@@_STL@@QAEXU?$_Rb_tree_iterator@U?$pair@$$CBGPAVivfstream@@@_STL@@U?$_Nonconst_traits@U?$pair@$$CBGPAVivfstream@@@_STL@@@2@@2@@Z PROC NEAR ; _STL::_Rb_tree<unsigned short,_STL::pair<unsigned short const ,ivfstream *>,_STL::_Select1st<_STL::pair<unsigned short const ,ivfstream *> >,_STL::less<unsigned short>,_STL::allocator<_STL::pair<unsigned short const ,ivfstream *> > >::erase, COMDAT
; _this$ = ecx

; 416  :   void erase(iterator __position) {

  00000	56		 push	 esi
  00001	8b f1		 mov	 esi, ecx

; 417  :     _Link_type __y = 
; 418  :       (_Link_type) _Rb_global_inst::_Rebalance_for_erase(__position._M_node,
; 419  : 							 this->_M_header._M_data->_M_parent,
; 420  : 							 this->_M_header._M_data->_M_left,
; 421  : 							 this->_M_header._M_data->_M_right);

  00003	8b 06		 mov	 eax, DWORD PTR [esi]
  00005	8d 48 0c	 lea	 ecx, DWORD PTR [eax+12]
  00008	51		 push	 ecx
  00009	8d 48 08	 lea	 ecx, DWORD PTR [eax+8]
  0000c	51		 push	 ecx
  0000d	83 c0 04	 add	 eax, 4
  00010	50		 push	 eax
  00011	ff 74 24 14	 push	 DWORD PTR ___position$[esp+12]
  00015	e8 00 00 00 00	 call	 ?_Rebalance_for_erase@?$_Rb_global@_N@_STL@@SAPAU_Rb_tree_node_base@2@PAU32@AAPAU32@11@Z ; _STL::_Rb_global<bool>::_Rebalance_for_erase
  0001a	83 c4 10	 add	 esp, 16			; 00000010H

; 422  :     _STLP_STD::_Destroy(&__y->_M_value_field);
; 423  :     this->_M_header.deallocate(__y,1);

  0001d	6a 01		 push	 1
  0001f	50		 push	 eax
  00020	8b ce		 mov	 ecx, esi
  00022	e8 00 00 00 00	 call	 ?deallocate@?$allocator@U?$_Rb_tree_node@U?$pair@$$CBGPAVivfstream@@@_STL@@@_STL@@@_STL@@QAEXPAU?$_Rb_tree_node@U?$pair@$$CBGPAVivfstream@@@_STL@@@2@I@Z ; _STL::allocator<_STL::_Rb_tree_node<_STL::pair<unsigned short const ,ivfstream *> > >::deallocate

; 424  :     --_M_node_count;

  00027	ff 4e 04	 dec	 DWORD PTR [esi+4]
  0002a	5e		 pop	 esi

; 425  :   }

  0002b	c2 04 00	 ret	 4
?erase@?$_Rb_tree@GU?$pair@$$CBGPAVivfstream@@@_STL@@U?$_Select1st@U?$pair@$$CBGPAVivfstream@@@_STL@@@2@U?$less@G@2@V?$allocator@U?$pair@$$CBGPAVivfstream@@@_STL@@@2@@_STL@@QAEXU?$_Rb_tree_iterator@U?$pair@$$CBGPAVivfstream@@@_STL@@U?$_Nonconst_traits@U?$pair@$$CBGPAVivfstream@@@_STL@@@2@@2@@Z ENDP ; _STL::_Rb_tree<unsigned short,_STL::pair<unsigned short const ,ivfstream *>,_STL::_Select1st<_STL::pair<unsigned short const ,ivfstream *> >,_STL::less<unsigned short>,_STL::allocator<_STL::pair<unsigned short const ,ivfstream *> > >::erase
; Function compile flags: /Ogsy
; File c:\darkeden\designed_common\project\client\corderedlist.h
_TEXT	ENDS
;	COMDAT ?GetSize@?$COrderedList@G@@QBEHXZ
_TEXT	SEGMENT
?GetSize@?$COrderedList@G@@QBEHXZ PROC NEAR		; COrderedList<unsigned short>::GetSize, COMDAT
; _this$ = ecx

; 57   : 		int									GetSize() const		{ return m_List.size(); }

  00000	8b 11		 mov	 edx, DWORD PTR [ecx]
  00002	8b 0a		 mov	 ecx, DWORD PTR [edx]
  00004	33 c0		 xor	 eax, eax
  00006	eb 03		 jmp	 SHORT $L119009
$L119002:
  00008	8b 09		 mov	 ecx, DWORD PTR [ecx]
  0000a	40		 inc	 eax
$L119009:
  0000b	3b ca		 cmp	 ecx, edx
  0000d	75 f9		 jne	 SHORT $L119002
  0000f	c3		 ret	 0
?GetSize@?$COrderedList@G@@QBEHXZ ENDP			; COrderedList<unsigned short>::GetSize
_TEXT	ENDS
;	COMDAT xdata$x
; File c:\stlport-4.6.1\stlport\stl\_list.h
xdata$x	SEGMENT
$T119024 DD	0ffffffffH
	DD	FLAT:$L119013
$T119022 DD	019930520H
	DD	01H
	DD	FLAT:$T119024
	DD	2 DUP(00H)
	DD	2 DUP(00H)
; Function compile flags: /Ogsy
; File c:\darkeden\designed_common\project\client\corderedlist.h
xdata$x	ENDS
;	COMDAT ??1?$COrderedList@G@@QAE@XZ
_TEXT	SEGMENT
_this$ = -16						; size = 4
__$EHRec$ = -12						; size = 12
??1?$COrderedList@G@@QAE@XZ PROC NEAR			; COrderedList<unsigned short>::~COrderedList<unsigned short>, COMDAT
; _this$ = ecx

; 88   : {

  00000	b8 00 00 00 00	 mov	 eax, __ehhandler$??1?$COrderedList@G@@QAE@XZ
  00005	e8 00 00 00 00	 call	 __EH_prolog
  0000a	51		 push	 ecx
  0000b	89 4d f0	 mov	 DWORD PTR _this$[ebp], ecx
  0000e	83 65 fc 00	 and	 DWORD PTR __$EHRec$[ebp+8], 0

; 89   : 	Release();

  00012	e8 00 00 00 00	 call	 ?clear@?$_List_base@GV?$allocator@G@_STL@@@_STL@@QAEXXZ ; _STL::_List_base<unsigned short,_STL::allocator<unsigned short> >::clear

; 90   : }

  00017	8b 4d f0	 mov	 ecx, DWORD PTR _this$[ebp]
  0001a	83 4d fc ff	 or	 DWORD PTR __$EHRec$[ebp+8], -1
  0001e	e8 00 00 00 00	 call	 ??1?$_List_base@GV?$allocator@G@_STL@@@_STL@@QAE@XZ ; _STL::_List_base<unsigned short,_STL::allocator<unsigned short> >::~_List_base<unsigned short,_STL::allocator<unsigned short> >
  00023	8b 4d f4	 mov	 ecx, DWORD PTR __$EHRec$[ebp]
  00026	64 89 0d 00 00
	00 00		 mov	 DWORD PTR fs:__except_list, ecx
  0002d	c9		 leave
  0002e	c3		 ret	 0
_TEXT	ENDS
;	COMDAT text$x
text$x	SEGMENT
$L119013:
  00000	8b 4d f0	 mov	 ecx, DWORD PTR _this$[ebp]
  00003	e9 00 00 00 00	 jmp	 ??1?$list@GV?$allocator@G@_STL@@@_STL@@QAE@XZ ; _STL::list<unsigned short,_STL::allocator<unsigned short> >::~list<unsigned short,_STL::allocator<unsigned short> >
__ehhandler$??1?$COrderedList@G@@QAE@XZ:
  00008	b8 00 00 00 00	 mov	 eax, OFFSET FLAT:$T119022
  0000d	e9 00 00 00 00	 jmp	 ___CxxFrameHandler
text$x	ENDS
??1?$COrderedList@G@@QAE@XZ ENDP			; COrderedList<unsigned short>::~COrderedList<unsigned short>
; Function compile flags: /Ogsy
; File c:\darkeden\designed_common\project\client\spritelib\ctypepack.h
;	COMDAT ?ReleasePart@?$CTypePack@VCShadowSprite@@@@UAE_NHH@Z
_TEXT	SEGMENT
_fileIdx$113163 = -4					; size = 2
_i$113159 = 8						; size = 4
_first$ = 8						; size = 4
_last$ = 12						; size = 4
?ReleasePart@?$CTypePack@VCShadowSprite@@@@UAE_NHH@Z PROC NEAR ; CTypePack<CShadowSprite>::ReleasePart, COMDAT
; _this$ = ecx

; 544  : {

  00000	55		 push	 ebp
  00001	8b ec		 mov	 ebp, esp
  00003	51		 push	 ecx
  00004	53		 push	 ebx
  00005	56		 push	 esi
  00006	8b f1		 mov	 esi, ecx

; 545  : 	last = min(last, 0xFFFE);

  00008	8b 4d 0c	 mov	 ecx, DWORD PTR _last$[ebp]
  0000b	b8 fe ff 00 00	 mov	 eax, 65534		; 0000fffeH
  00010	3b c8		 cmp	 ecx, eax
  00012	57		 push	 edi
  00013	7c 05		 jl	 SHORT $L119030
  00015	89 45 0c	 mov	 DWORD PTR _last$[ebp], eax
  00018	8b c8		 mov	 ecx, eax
$L119030:

; 546  : 
; 547  : 	if(m_bSplitFile)

  0001a	80 7e 14 00	 cmp	 BYTE PTR [esi+20], 0

; 548  : 	{
; 549  : 		register int i = first;

  0001e	8b 45 08	 mov	 eax, DWORD PTR _first$[ebp]
  00021	0f 84 87 00 00
	00		 je	 $L113158

; 550  : 
; 551  : 		for(; i <= last; i++)

  00027	3b c1		 cmp	 eax, ecx
  00029	89 45 08	 mov	 DWORD PTR _i$113159[ebp], eax
  0002c	0f 8f 9b 00 00
	00		 jg	 $L113180
  00032	8d 5e 38	 lea	 ebx, DWORD PTR [esi+56]
$L119106:

; 552  : 		{
; 553  : 			WORD fileIdx = GetSplitFile(i);

  00035	6a 00		 push	 0
  00037	ff 75 08	 push	 DWORD PTR _i$113159[ebp]
  0003a	8b ce		 mov	 ecx, esi
  0003c	e8 00 00 00 00	 call	 ?GetSplitFile@?$CTypePack@VCShadowSprite@@@@IAEHHPAD@Z ; CTypePack<CShadowSprite>::GetSplitFile
  00041	89 45 fc	 mov	 DWORD PTR _fileIdx$113163[ebp], eax

; 554  : 
; 555  : 			FILECACHE_MAP::iterator pos = m_FileCacheMap.find(fileIdx);

  00044	8d 45 fc	 lea	 eax, DWORD PTR _fileIdx$113163[ebp]
  00047	50		 push	 eax
  00048	8b cb		 mov	 ecx, ebx
  0004a	e8 00 00 00 00	 call	 ??$_M_find@G@?$_Rb_tree@GU?$pair@$$CBGPAVivfstream@@@_STL@@U?$_Select1st@U?$pair@$$CBGPAVivfstream@@@_STL@@@2@U?$less@G@2@V?$allocator@U?$pair@$$CBGPAVivfstream@@@_STL@@@2@@_STL@@ABEPAU?$_Rb_tree_node@U?$pair@$$CBGPAVivfstream@@@_STL@@@1@ABG@Z ; _STL::_Rb_tree<unsigned short,_STL::pair<unsigned short const ,ivfstream *>,_STL::_Select1st<_STL::pair<unsigned short const ,ivfstream *> >,_STL::less<unsigned short>,_STL::allocator<_STL::pair<unsigned short const ,ivfstream *> > >::_M_find<unsigned short>
  0004f	8b f8		 mov	 edi, eax

; 556  : 			if(pos != m_FileCacheMap.end())

  00051	3b 3b		 cmp	 edi, DWORD PTR [ebx]
  00053	74 19		 je	 SHORT $L119094

; 557  : 			{
; 558  : 				delete pos->second;

  00055	8b 4f 14	 mov	 ecx, DWORD PTR [edi+20]
  00058	85 c9		 test	 ecx, ecx
  0005a	74 06		 je	 SHORT $L119034
  0005c	8b 01		 mov	 eax, DWORD PTR [ecx]
  0005e	6a 01		 push	 1
  00060	ff 10		 call	 DWORD PTR [eax]
$L119034:

; 559  : 				m_FileCacheMap.erase(pos);

  00062	51		 push	 ecx
  00063	8b c4		 mov	 eax, esp
  00065	8b cb		 mov	 ecx, ebx
  00067	89 38		 mov	 DWORD PTR [eax], edi
  00069	e8 00 00 00 00	 call	 ?erase@?$_Rb_tree@GU?$pair@$$CBGPAVivfstream@@@_STL@@U?$_Select1st@U?$pair@$$CBGPAVivfstream@@@_STL@@@2@U?$less@G@2@V?$allocator@U?$pair@$$CBGPAVivfstream@@@_STL@@@2@@_STL@@QAEXU?$_Rb_tree_iterator@U?$pair@$$CBGPAVivfstream@@@_STL@@U?$_Nonconst_traits@U?$pair@$$CBGPAVivfstream@@@_STL@@@2@@2@@Z ; _STL::_Rb_tree<unsigned short,_STL::pair<unsigned short const ,ivfstream *>,_STL::_Select1st<_STL::pair<unsigned short const ,ivfstream *> >,_STL::less<unsigned short>,_STL::allocator<_STL::pair<unsigned short const ,ivfstream *> > >::erase
$L119094:

; 560  : 			}
; 561  : 
; 562  : 			for(int j = 0;

  0006e	33 ff		 xor	 edi, edi

; 563  : 				j < m_nUnitCount && fileIdx < m_Size;
; 564  : 				++j, ++i, ++fileIdx)

  00070	39 7e 18	 cmp	 DWORD PTR [esi+24], edi
  00073	7e 2c		 jle	 SHORT $L113161
$L113172:
  00075	8b 45 fc	 mov	 eax, DWORD PTR _fileIdx$113163[ebp]
  00078	66 3b 46 08	 cmp	 ax, WORD PTR [esi+8]
  0007c	73 23		 jae	 SHORT $L113161

; 565  : 			{
; 566  : 				if(m_pData[fileIdx].IsInit())

  0007e	8b 4e 04	 mov	 ecx, DWORD PTR [esi+4]
  00081	0f b7 c0	 movzx	 eax, ax
  00084	8d 04 40	 lea	 eax, DWORD PTR [eax+eax*2]
  00087	8d 0c 81	 lea	 ecx, DWORD PTR [ecx+eax*4]
  0008a	80 79 08 00	 cmp	 BYTE PTR [ecx+8], 0
  0008e	74 05		 je	 SHORT $L113173

; 567  : 					m_pData[fileIdx].Release();

  00090	e8 00 00 00 00	 call	 ?Release@CShadowSprite@@QAEXXZ ; CShadowSprite::Release
$L113173:

; 563  : 				j < m_nUnitCount && fileIdx < m_Size;
; 564  : 				++j, ++i, ++fileIdx)

  00095	47		 inc	 edi
  00096	ff 45 08	 inc	 DWORD PTR _i$113159[ebp]
  00099	ff 45 fc	 inc	 DWORD PTR _fileIdx$113163[ebp]
  0009c	3b 7e 18	 cmp	 edi, DWORD PTR [esi+24]
  0009f	7c d4		 jl	 SHORT $L113172
$L113161:

; 550  : 
; 551  : 		for(; i <= last; i++)

  000a1	ff 45 08	 inc	 DWORD PTR _i$113159[ebp]
  000a4	8b 45 08	 mov	 eax, DWORD PTR _i$113159[ebp]
  000a7	3b 45 0c	 cmp	 eax, DWORD PTR _last$[ebp]
  000aa	7e 89		 jle	 SHORT $L119106

; 568  : 			}
; 569  : 		}
; 570  : 	}
; 571  : 	else

  000ac	eb 1f		 jmp	 SHORT $L113180
$L113158:

; 572  : 	{
; 573  : 		register int i = first;
; 574  : 
; 575  : 		for(; i <= last; i++)

  000ae	3b c1		 cmp	 eax, ecx
  000b0	7f 1b		 jg	 SHORT $L113180
  000b2	8d 3c 40	 lea	 edi, DWORD PTR [eax+eax*2]
  000b5	2b c8		 sub	 ecx, eax
  000b7	c1 e7 02	 shl	 edi, 2
  000ba	41		 inc	 ecx
  000bb	8b d9		 mov	 ebx, ecx
$L113178:

; 576  : 		{
; 577  : 			m_pData[i].Release();

  000bd	8b 4e 04	 mov	 ecx, DWORD PTR [esi+4]
  000c0	03 cf		 add	 ecx, edi
  000c2	e8 00 00 00 00	 call	 ?Release@CShadowSprite@@QAEXXZ ; CShadowSprite::Release
  000c7	83 c7 0c	 add	 edi, 12			; 0000000cH
  000ca	4b		 dec	 ebx
  000cb	75 f0		 jne	 SHORT $L113178
$L113180:

; 578  : 		}
; 579  : 	}
; 580  : 
; 581  : 	return true;
; 582  : }

  000cd	5f		 pop	 edi
  000ce	5e		 pop	 esi
  000cf	b0 01		 mov	 al, 1
  000d1	5b		 pop	 ebx
  000d2	c9		 leave
  000d3	c2 08 00	 ret	 8
?ReleasePart@?$CTypePack@VCShadowSprite@@@@UAE_NHH@Z ENDP ; CTypePack<CShadowSprite>::ReleasePart
_TEXT	ENDS
EXTRN	?_M_increment@?$_Rb_global@_N@_STL@@SAPAU_Rb_tree_node_base@2@PAU32@@Z:NEAR ; _STL::_Rb_global<bool>::_M_increment
; Function compile flags: /Ogsy
;	COMDAT ?FinishRunningLoad@?$CTypePack@VCShadowSprite@@@@UAEXXZ
_TEXT	SEGMENT
?FinishRunningLoad@?$CTypePack@VCShadowSprite@@@@UAEXXZ PROC NEAR ; CTypePack<CShadowSprite>::FinishRunningLoad, COMDAT
; _this$ = ecx

; 733  : {

  00000	53		 push	 ebx
  00001	56		 push	 esi
  00002	8b f1		 mov	 esi, ecx

; 734  : 	m_bRunningLoad = false;
; 735  : 
; 736  : 	FILECACHE_MAP::iterator pos = m_FileCacheMap.begin();

  00004	8d 5e 38	 lea	 ebx, DWORD PTR [esi+56]
  00007	8b 03		 mov	 eax, DWORD PTR [ebx]
  00009	57		 push	 edi
  0000a	c6 46 0a 00	 mov	 BYTE PTR [esi+10], 0
  0000e	8b 78 08	 mov	 edi, DWORD PTR [eax+8]

; 737  : 
; 738  : 	for(; pos != m_FileCacheMap.end(); ++pos)

  00011	3b f8		 cmp	 edi, eax
  00013	74 1a		 je	 SHORT $L113190
$L119144:

; 739  : 	{
; 740  : 		ivfstream *pVF = pos->second;

  00015	8b 4f 14	 mov	 ecx, DWORD PTR [edi+20]

; 741  : 		if(pVF) delete pVF;

  00018	85 c9		 test	 ecx, ecx
  0001a	74 06		 je	 SHORT $L113189
  0001c	8b 01		 mov	 eax, DWORD PTR [ecx]
  0001e	6a 01		 push	 1
  00020	ff 10		 call	 DWORD PTR [eax]
$L113189:
  00022	57		 push	 edi
  00023	e8 00 00 00 00	 call	 ?_M_increment@?$_Rb_global@_N@_STL@@SAPAU_Rb_tree_node_base@2@PAU32@@Z ; _STL::_Rb_global<bool>::_M_increment
  00028	8b f8		 mov	 edi, eax
  0002a	3b 3b		 cmp	 edi, DWORD PTR [ebx]
  0002c	59		 pop	 ecx
  0002d	75 e6		 jne	 SHORT $L119144
$L113190:

; 742  : 	}
; 743  : 
; 744  : 	m_FileCacheMap.clear();

  0002f	8b cb		 mov	 ecx, ebx
  00031	e8 00 00 00 00	 call	 ?clear@?$_Rb_tree@GU?$pair@$$CBGPAVivfstream@@@_STL@@U?$_Select1st@U?$pair@$$CBGPAVivfstream@@@_STL@@@2@U?$less@G@2@V?$allocator@U?$pair@$$CBGPAVivfstream@@@_STL@@@2@@_STL@@QAEXXZ ; _STL::_Rb_tree<unsigned short,_STL::pair<unsigned short const ,ivfstream *>,_STL::_Select1st<_STL::pair<unsigned short const ,ivfstream *> >,_STL::less<unsigned short>,_STL::allocator<_STL::pair<unsigned short const ,ivfstream *> > >::clear

; 745  : 
; 746  : 	if(m_file)

  00036	8b 4e 0c	 mov	 ecx, DWORD PTR [esi+12]
  00039	85 c9		 test	 ecx, ecx
  0003b	74 0a		 je	 SHORT $L113195

; 747  : 	{
; 748  : 		delete m_file;

  0003d	8b 01		 mov	 eax, DWORD PTR [ecx]
  0003f	6a 01		 push	 1
  00041	ff 10		 call	 DWORD PTR [eax]

; 749  : 		m_file = NULL;

  00043	83 66 0c 00	 and	 DWORD PTR [esi+12], 0
$L113195:

; 750  : 	}
; 751  : 
; 752  : 	if(m_file_index)

  00047	8b 46 10	 mov	 eax, DWORD PTR [esi+16]
  0004a	85 c0		 test	 eax, eax
  0004c	74 0b		 je	 SHORT $L113198

; 753  : 	{
; 754  : 		delete [] m_file_index;

  0004e	50		 push	 eax
  0004f	e8 00 00 00 00	 call	 ??_V@YAXPAX@Z		; operator delete[]

; 755  : 		m_file_index = NULL;

  00054	83 66 10 00	 and	 DWORD PTR [esi+16], 0
  00058	59		 pop	 ecx
$L113198:
  00059	5f		 pop	 edi
  0005a	5e		 pop	 esi
  0005b	5b		 pop	 ebx

; 756  : 	}
; 757  : }

  0005c	c3		 ret	 0
?FinishRunningLoad@?$CTypePack@VCShadowSprite@@@@UAEXXZ ENDP ; CTypePack<CShadowSprite>::FinishRunningLoad
_TEXT	ENDS
PUBLIC	??1?$CTypePack@VCShadowSprite@@@@UAE@XZ		; CTypePack<CShadowSprite>::~CTypePack<CShadowSprite>
;	COMDAT xdata$x
xdata$x	SEGMENT
$T119257 DD	0ffffffffH
	DD	FLAT:$L119180
	DD	00H
	DD	FLAT:$L119181
	DD	01H
	DD	FLAT:$L119182
	DD	02H
	DD	FLAT:$L119183
$T119255 DD	019930520H
	DD	04H
	DD	FLAT:$T119257
	DD	2 DUP(00H)
	DD	2 DUP(00H)
; Function compile flags: /Ogsy
xdata$x	ENDS
;	COMDAT ??1?$CTypePack@VCShadowSprite@@@@UAE@XZ
_TEXT	SEGMENT
_this$ = -16						; size = 4
__$EHRec$ = -12						; size = 12
??1?$CTypePack@VCShadowSprite@@@@UAE@XZ PROC NEAR	; CTypePack<CShadowSprite>::~CTypePack<CShadowSprite>, COMDAT
; _this$ = ecx

; 133  : {

  00000	b8 00 00 00 00	 mov	 eax, __ehhandler$??1?$CTypePack@VCShadowSprite@@@@UAE@XZ
  00005	e8 00 00 00 00	 call	 __EH_prolog
  0000a	51		 push	 ecx
  0000b	56		 push	 esi
  0000c	8b f1		 mov	 esi, ecx
  0000e	89 75 f0	 mov	 DWORD PTR _this$[ebp], esi
  00011	c7 06 00 00 00
	00		 mov	 DWORD PTR [esi], OFFSET FLAT:??_7?$CTypePack@VCShadowSprite@@@@6B@
  00017	c7 45 fc 03 00
	00 00		 mov	 DWORD PTR __$EHRec$[ebp+8], 3

; 134  : 	Release();

  0001e	e8 00 00 00 00	 call	 ?Release@?$CTypePack@VCShadowSprite@@@@UAEXXZ ; CTypePack<CShadowSprite>::Release

; 135  : }

  00023	8d 4e 38	 lea	 ecx, DWORD PTR [esi+56]
  00026	c6 45 fc 02	 mov	 BYTE PTR __$EHRec$[ebp+8], 2
  0002a	e8 00 00 00 00	 call	 ??1?$_Rb_tree@GU?$pair@$$CBGPAVivfstream@@@_STL@@U?$_Select1st@U?$pair@$$CBGPAVivfstream@@@_STL@@@2@U?$less@G@2@V?$allocator@U?$pair@$$CBGPAVivfstream@@@_STL@@@2@@_STL@@QAE@XZ ; _STL::_Rb_tree<unsigned short,_STL::pair<unsigned short const ,ivfstream *>,_STL::_Select1st<_STL::pair<unsigned short const ,ivfstream *> >,_STL::less<unsigned short>,_STL::allocator<_STL::pair<unsigned short const ,ivfstream *> > >::~_Rb_tree<unsigned short,_STL::pair<unsigned short const ,ivfstream *>,_STL::_Select1st<_STL::pair<unsigned short const ,ivfstream *> >,_STL::less<unsigned short>,_STL::allocator<_STL::pair<unsigned short const ,ivfstream *> > >
  0002f	8d 4e 2c	 lea	 ecx, DWORD PTR [esi+44]
  00032	c6 45 fc 01	 mov	 BYTE PTR __$EHRec$[ebp+8], 1
  00036	e8 00 00 00 00	 call	 ?_M_deallocate_block@?$_String_base@DV?$allocator@D@_STL@@@_STL@@QAEXXZ ; _STL::_String_base<char,_STL::allocator<char> >::_M_deallocate_block
  0003b	8d 4e 20	 lea	 ecx, DWORD PTR [esi+32]
  0003e	c6 45 fc 00	 mov	 BYTE PTR __$EHRec$[ebp+8], 0
  00042	e8 00 00 00 00	 call	 ?_M_deallocate_block@?$_String_base@DV?$allocator@D@_STL@@@_STL@@QAEXXZ ; _STL::_String_base<char,_STL::allocator<char> >::_M_deallocate_block
  00047	8b 4d f4	 mov	 ecx, DWORD PTR __$EHRec$[ebp]
  0004a	c7 06 00 00 00
	00		 mov	 DWORD PTR [esi], OFFSET FLAT:??_7ITypePackBase@@6B@
  00050	5e		 pop	 esi
  00051	64 89 0d 00 00
	00 00		 mov	 DWORD PTR fs:__except_list, ecx
  00058	c9		 leave
  00059	c3		 ret	 0
_TEXT	ENDS
;	COMDAT text$x
text$x	SEGMENT
$L119180:
  00000	8b 4d f0	 mov	 ecx, DWORD PTR _this$[ebp]
  00003	e9 00 00 00 00	 jmp	 ??1ITypePackBase@@UAE@XZ ; ITypePackBase::~ITypePackBase
$L119181:
  00008	8b 4d f0	 mov	 ecx, DWORD PTR _this$[ebp]
  0000b	83 c1 20	 add	 ecx, 32			; 00000020H
  0000e	e9 00 00 00 00	 jmp	 ??1?$basic_string@DV?$char_traits@D@_STL@@V?$allocator@D@2@@_STL@@QAE@XZ ; _STL::basic_string<char,_STL::char_traits<char>,_STL::allocator<char> >::~basic_string<char,_STL::char_traits<char>,_STL::allocator<char> >
$L119182:
  00013	8b 4d f0	 mov	 ecx, DWORD PTR _this$[ebp]
  00016	83 c1 2c	 add	 ecx, 44			; 0000002cH
  00019	e9 00 00 00 00	 jmp	 ??1?$basic_string@DV?$char_traits@D@_STL@@V?$allocator@D@2@@_STL@@QAE@XZ ; _STL::basic_string<char,_STL::char_traits<char>,_STL::allocator<char> >::~basic_string<char,_STL::char_traits<char>,_STL::allocator<char> >
$L119183:
  0001e	8b 4d f0	 mov	 ecx, DWORD PTR _this$[ebp]
  00021	83 c1 38	 add	 ecx, 56			; 00000038H
  00024	e9 00 00 00 00	 jmp	 ??1?$map@GPAVivfstream@@U?$less@G@_STL@@V?$allocator@U?$pair@$$CBGPAVivfstream@@@_STL@@@3@@_STL@@QAE@XZ
__ehhandler$??1?$CTypePack@VCShadowSprite@@@@UAE@XZ:
  00029	b8 00 00 00 00	 mov	 eax, OFFSET FLAT:$T119255
  0002e	e9 00 00 00 00	 jmp	 ___CxxFrameHandler
text$x	ENDS
??1?$CTypePack@VCShadowSprite@@@@UAE@XZ ENDP		; CTypePack<CShadowSprite>::~CTypePack<CShadowSprite>
; Function compile flags: /Ogsy
;	COMDAT ??_G?$CTypePack@VCShadowSprite@@@@UAEPAXI@Z
_TEXT	SEGMENT
___flags$ = 8						; size = 4
??_G?$CTypePack@VCShadowSprite@@@@UAEPAXI@Z PROC NEAR	; CTypePack<CShadowSprite>::`scalar deleting destructor', COMDAT
; _this$ = ecx
  00000	56		 push	 esi
  00001	8b f1		 mov	 esi, ecx
  00003	e8 00 00 00 00	 call	 ??1?$CTypePack@VCShadowSprite@@@@UAE@XZ ; CTypePack<CShadowSprite>::~CTypePack<CShadowSprite>
  00008	f6 44 24 08 01	 test	 BYTE PTR ___flags$[esp], 1
  0000d	74 07		 je	 SHORT $L113263
  0000f	56		 push	 esi
  00010	e8 00 00 00 00	 call	 ??3@YAXPAX@Z		; operator delete
  00015	59		 pop	 ecx
$L113263:
  00016	8b c6		 mov	 eax, esi
  00018	5e		 pop	 esi
  00019	c2 04 00	 ret	 4
??_G?$CTypePack@VCShadowSprite@@@@UAEPAXI@Z ENDP	; CTypePack<CShadowSprite>::`scalar deleting destructor'
_TEXT	ENDS
PUBLIC	??$append@PAD@?$basic_string@DV?$char_traits@D@_STL@@V?$allocator@D@2@@_STL@@QAEAAV01@PAD0@Z ; _STL::basic_string<char,_STL::char_traits<char>,_STL::allocator<char> >::append<char *>
; Function compile flags: /Ogsy
; File c:\stlport-4.6.1\stlport\stl\_string.h
;	COMDAT ??$append@PAD@?$basic_string@DV?$char_traits@D@_STL@@V?$allocator@D@2@@_STL@@QAEAAV01@PAD0@Z
_TEXT	SEGMENT
___first$ = 8						; size = 4
___last$ = 12						; size = 4
$T119269 = 15						; size = 1
??$append@PAD@?$basic_string@DV?$char_traits@D@_STL@@V?$allocator@D@2@@_STL@@QAEAAV01@PAD0@Z PROC NEAR ; _STL::basic_string<char,_STL::char_traits<char>,_STL::allocator<char> >::append<char *>, COMDAT
; _this$ = ecx

; 506  :   template <class _InputIter> _Self& append(_InputIter __first, _InputIter __last) {

  00000	55		 push	 ebp
  00001	8b ec		 mov	 ebp, esp

; 507  :     typedef typename _Is_integer<_InputIter>::_Integral _Integral;
; 508  :     return _M_append_dispatch(__first, __last, _Integral());

  00003	8d 45 0f	 lea	 eax, DWORD PTR $T119269[ebp]
  00006	50		 push	 eax
  00007	ff 75 0c	 push	 DWORD PTR ___last$[ebp]
  0000a	ff 75 08	 push	 DWORD PTR ___first$[ebp]
  0000d	e8 00 00 00 00	 call	 ??$append@PAD@?$basic_string@DV?$char_traits@D@_STL@@V?$allocator@D@2@@_STL@@AAEAAV01@PAD0ABUforward_iterator_tag@1@@Z ; _STL::basic_string<char,_STL::char_traits<char>,_STL::allocator<char> >::append<char *>

; 509  :   }

  00012	5d		 pop	 ebp
  00013	c2 08 00	 ret	 8
??$append@PAD@?$basic_string@DV?$char_traits@D@_STL@@V?$allocator@D@2@@_STL@@QAEAAV01@PAD0@Z ENDP ; _STL::basic_string<char,_STL::char_traits<char>,_STL::allocator<char> >::append<char *>
_TEXT	ENDS
PUBLIC	??1CShadowPartManager@@QAE@XZ			; CShadowPartManager::~CShadowPartManager
;	COMDAT xdata$x
; File c:\stlport-4.6.1\stlport\stl\_list.h
xdata$x	SEGMENT
$T119284 DD	0ffffffffH
	DD	FLAT:$L119273
	DD	00H
	DD	FLAT:$L119274
	DD	01H
	DD	FLAT:$L119275
$T119282 DD	019930520H
	DD	03H
	DD	FLAT:$T119284
	DD	2 DUP(00H)
	DD	2 DUP(00H)
; Function compile flags: /Ogsy
; File c:\darkeden\designed_common\project\client\cshadowpartmanager.cpp
xdata$x	ENDS
;	COMDAT ??1CShadowPartManager@@QAE@XZ
_TEXT	SEGMENT
_this$ = -16						; size = 4
__$EHRec$ = -12						; size = 12
??1CShadowPartManager@@QAE@XZ PROC NEAR			; CShadowPartManager::~CShadowPartManager, COMDAT
; _this$ = ecx

; 49   : {

  00000	b8 00 00 00 00	 mov	 eax, __ehhandler$??1CShadowPartManager@@QAE@XZ
  00005	e8 00 00 00 00	 call	 __EH_prolog
  0000a	51		 push	 ecx
  0000b	56		 push	 esi
  0000c	8b f1		 mov	 esi, ecx
  0000e	89 75 f0	 mov	 DWORD PTR _this$[ebp], esi
  00011	c7 45 fc 02 00
	00 00		 mov	 DWORD PTR __$EHRec$[ebp+8], 2

; 50   : 	Release();

  00018	e8 00 00 00 00	 call	 ?Release@CShadowPartManager@@QAEXXZ ; CShadowPartManager::Release

; 51   : }

  0001d	8d 4e 74	 lea	 ecx, DWORD PTR [esi+116]
  00020	c6 45 fc 01	 mov	 BYTE PTR __$EHRec$[ebp+8], 1
  00024	e8 00 00 00 00	 call	 ??1?$_List_base@PAVCSpriteSurface@@V?$allocator@PAVCSpriteSurface@@@_STL@@@_STL@@QAE@XZ ; _STL::_List_base<CSpriteSurface *,_STL::allocator<CSpriteSurface *> >::~_List_base<CSpriteSurface *,_STL::allocator<CSpriteSurface *> >
  00029	8d 4e 28	 lea	 ecx, DWORD PTR [esi+40]
  0002c	c6 45 fc 00	 mov	 BYTE PTR __$EHRec$[ebp+8], 0
  00030	e8 00 00 00 00	 call	 ??1?$CTypePack@VCShadowSprite@@@@UAE@XZ ; CTypePack<CShadowSprite>::~CTypePack<CShadowSprite>
  00035	83 4d fc ff	 or	 DWORD PTR __$EHRec$[ebp+8], -1
  00039	8b ce		 mov	 ecx, esi
  0003b	e8 00 00 00 00	 call	 ??1?$CPartManager@GGPAVCSpriteSurface@@@@QAE@XZ ; CPartManager<unsigned short,unsigned short,CSpriteSurface *>::~CPartManager<unsigned short,unsigned short,CSpriteSurface *>
  00040	8b 4d f4	 mov	 ecx, DWORD PTR __$EHRec$[ebp]
  00043	5e		 pop	 esi
  00044	64 89 0d 00 00
	00 00		 mov	 DWORD PTR fs:__except_list, ecx
  0004b	c9		 leave
  0004c	c3		 ret	 0
_TEXT	ENDS
;	COMDAT text$x
text$x	SEGMENT
$L119273:
  00000	8b 4d f0	 mov	 ecx, DWORD PTR _this$[ebp]
  00003	e9 00 00 00 00	 jmp	 ??1?$CPartManager@GGPAVCSpriteSurface@@@@QAE@XZ ; CPartManager<unsigned short,unsigned short,CSpriteSurface *>::~CPartManager<unsigned short,unsigned short,CSpriteSurface *>
$L119274:
  00008	8b 4d f0	 mov	 ecx, DWORD PTR _this$[ebp]
  0000b	83 c1 28	 add	 ecx, 40			; 00000028H
  0000e	e9 00 00 00 00	 jmp	 ??1?$CTypePack@VCShadowSprite@@@@UAE@XZ ; CTypePack<CShadowSprite>::~CTypePack<CShadowSprite>
$L119275:
  00013	8b 4d f0	 mov	 ecx, DWORD PTR _this$[ebp]
  00016	83 c1 74	 add	 ecx, 116		; 00000074H
  00019	e9 00 00 00 00	 jmp	 ??1?$list@PAVCSpriteSurface@@V?$allocator@PAVCSpriteSurface@@@_STL@@@_STL@@QAE@XZ ; _STL::list<CSpriteSurface *,_STL::allocator<CSpriteSurface *> >::~list<CSpriteSurface *,_STL::allocator<CSpriteSurface *> >
__ehhandler$??1CShadowPartManager@@QAE@XZ:
  0001e	b8 00 00 00 00	 mov	 eax, OFFSET FLAT:$T119282
  00023	e9 00 00 00 00	 jmp	 ___CxxFrameHandler
text$x	ENDS
??1CShadowPartManager@@QAE@XZ ENDP			; CShadowPartManager::~CShadowPartManager
PUBLIC	?GetTexture@CShadowPartManager@@QAEPAVCSpriteSurface@@G@Z ; CShadowPartManager::GetTexture
EXTRN	?BltShadowSpriteSmall4444@CSpriteSurface@@QAEXPAUtagPOINT@@PAVCShadowSprite@@GE@Z:NEAR ; CSpriteSurface::BltShadowSpriteSmall4444
EXTRN	?InitTextureSurface@CDirectDrawSurface@@QAE_NHHKQAU_DDPIXELFORMAT@@@Z:NEAR ; CDirectDrawSurface::InitTextureSurface
EXTRN	?Lock@CDirectDrawSurface@@QAE_NXZ:NEAR		; CDirectDrawSurface::Lock
EXTRN	?Unlock@CDirectDrawSurface@@QAE_NXZ:NEAR	; CDirectDrawSurface::Unlock
EXTRN	?g_pGameTime@@3PAVMGameTime@@A:DWORD		; g_pGameTime
EXTRN	?GetTextureSize@CDirect3D@@SAXAAH0@Z:NEAR	; CDirect3D::GetTextureSize
EXTRN	??0CSpriteSurface@@QAE@XZ:NEAR			; CSpriteSurface::CSpriteSurface
EXTRN	_memset:NEAR
EXTRN	?g_pWeather@@3PAVMWeather@@A:DWORD		; g_pWeather
EXTRN	?g_bZonePlayerInLarge@@3_NA:BYTE		; g_bZonePlayerInLarge
;	COMDAT xdata$x
; File c:\darkeden\designed_common\project\client\d3dlib\cdirect3d.h
xdata$x	SEGMENT
$T119372 DD	0ffffffffH
	DD	FLAT:$L119297
$T119362 DD	019930520H
	DD	01H
	DD	FLAT:$T119372
	DD	2 DUP(00H)
	DD	2 DUP(00H)
; Function compile flags: /Ogsy
; File c:\darkeden\designed_common\project\client\cshadowpartmanager.cpp
xdata$x	ENDS
;	COMDAT ?GetTexture@CShadowPartManager@@QAEPAVCSpriteSurface@@G@Z
_TEXT	SEGMENT
_timeShadow$111819 = -148				; size = 96
_point$111804 = -52					; size = 8
_pSprite$111771 = -44					; size = 4
$T119290 = -40						; size = 4
_pTextureSurface$111797 = -40				; size = 4
tv424 = -36						; size = 4
_this$ = -36						; size = 4
$T119289 = -32						; size = 4
_pOld$111840 = -28					; size = 4
_width2$111812 = -28					; size = 4
_spWidth$111772 = -28					; size = 4
tv264 = -24						; size = 4
_shift$111778 = -24					; size = 4
_height$111775 = -20					; size = 4
_width$111774 = -16					; size = 4
__$EHRec$ = -12						; size = 12
_id$ = 8						; size = 2
_pTextureSurface$111845 = 8				; size = 4
?GetTexture@CShadowPartManager@@QAEPAVCSpriteSurface@@G@Z PROC NEAR ; CShadowPartManager::GetTexture, COMDAT
; _this$ = ecx

; 303  : {

  00000	b8 00 00 00 00	 mov	 eax, __ehhandler$?GetTexture@CShadowPartManager@@QAEPAVCSpriteSurface@@G@Z
  00005	e8 00 00 00 00	 call	 __EH_prolog
  0000a	81 ec 88 00 00
	00		 sub	 esp, 136		; 00000088H

; 304  : 	//static int reload	= 0;
; 305  : 	//static int reuse	= 0;
; 306  : 
; 307  : 	//-----------------------------------------------------------
; 308  : 	//  --> Load & return
; 309  : 	//-----------------------------------------------------------
; 310  : 	if (IsDataNULL(id))

  00010	0f b7 45 08	 movzx	 eax, WORD PTR _id$[ebp]
  00014	8b 51 04	 mov	 edx, DWORD PTR [ecx+4]
  00017	66 8b 04 42	 mov	 ax, WORD PTR [edx+eax*2]
  0001b	66 3b 41 22	 cmp	 ax, WORD PTR [ecx+34]
  0001f	53		 push	 ebx
  00020	56		 push	 esi
  00021	57		 push	 edi
  00022	89 4d dc	 mov	 DWORD PTR _this$[ebp], ecx
  00025	0f 85 ea 02 00
	00		 jne	 $L111770

; 311  : 	{
; 312  : 		#ifdef OUTPUT_DEBUG
; 313  : 			if (g_pDebugMessage)
; 314  : 			{
; 315  : 				DEBUG_ADD_FORMAT("CShadowPartManager::GetTexture New(%d)", id);
; 316  : 			}
; 317  : 		#endif	
; 318  : 
; 319  : 		CShadowSprite* pSprite = &m_SSPK[id];

  0002b	ff 75 08	 push	 DWORD PTR _id$[ebp]
  0002e	83 c1 28	 add	 ecx, 40			; 00000028H
  00031	8b 01		 mov	 eax, DWORD PTR [ecx]
  00033	ff 50 38	 call	 DWORD PTR [eax+56]

; 320  : 		//CShadowSprite* pSprite = &(*m_pSSPK)[id];
; 321  : 
; 322  : 
; 323  : 		////  Load  ..
; 324  : 		///*
; 325  : 		//----------------------------------------
; 326  : 		//  Load ..
; 327  : 		//----------------------------------------
; 328  : //		if (pSprite->IsInit())
; 329  : //		{
; 330  : //		}
; 331  : //		//----------------------------------------
; 332  : //		// Load  
; 333  : //		//----------------------------------------
; 334  : //		else
; 335  : //		{
; 336  : //			//-----------------------------------------------------------
; 337  : //			// ShadowSprite Load.
; 338  : //			//-----------------------------------------------------------
; 339  : //			// id   FilePointer 
; 340  : //			int temp = m_SSPKIndex[id];
; 341  : //			m_SSPKFile.seekg(m_SSPKIndex[id], ios::beg);
; 342  : //			pSprite->LoadFromFile( m_SSPKFile );
; 343  : //		}
; 344  : 		//*/
; 345  : 		
; 346  : 		#ifdef OUTPUT_DEBUG
; 347  : 			if (g_pDebugMessage)
; 348  : 			{
; 349  : 				DEBUG_ADD("Loading ShadowSprite OK");
; 350  : 			}
; 351  : 		#endif	
; 352  : 
; 353  : 		
; 354  : 		// shift   .
; 355  : 		// width height 256  .
; 356  : 		// Texture Size .
; 357  : 		int spWidth, spHeight;
; 358  : 		int width, height;
; 359  : 
; 360  : 
; 361  : 		#ifdef OUTPUT_DEBUG
; 362  : 			if (g_pDebugMessage)
; 363  : 			{
; 364  : 				DEBUG_ADD("Determine Texture GetSize OK");
; 365  : 			}
; 366  : 		#endif	
; 367  : 
; 368  : 		spWidth = pSprite->GetWidth();

  00036	0f b7 30	 movzx	 esi, WORD PTR [eax]

; 369  : 		spHeight = pSprite->GetHeight();

  00039	0f b7 78 02	 movzx	 edi, WORD PTR [eax+2]

; 370  : 		
; 371  : 		//-----------------------------------------------------
; 372  : 		//  0 ..
; 373  : 		//-----------------------------------------------------
; 374  : 		if (spWidth==0 || spHeight==0)

  0003d	33 db		 xor	 ebx, ebx
  0003f	3b f3		 cmp	 esi, ebx
  00041	89 45 d4	 mov	 DWORD PTR _pSprite$111771[ebp], eax
  00044	0f 84 eb 00 00
	00		 je	 $L111777
  0004a	3b fb		 cmp	 edi, ebx
  0004c	0f 84 e3 00 00
	00		 je	 $L111777

; 377  : 		}
; 378  : 
; 379  : 		width = spWidth;

  00052	89 75 f0	 mov	 DWORD PTR _width$111774[ebp], esi

; 380  : 		height = spHeight;

  00055	89 7d ec	 mov	 DWORD PTR _height$111775[ebp], edi

; 381  : 
; 382  : 
; 383  : 		int shift = 0;

  00058	89 5d e8	 mov	 DWORD PTR _shift$111778[ebp], ebx
  0005b	b8 80 00 00 00	 mov	 eax, 128		; 00000080H
$L111780:

; 384  : 		// ,   MAX_SIZE_TEXTURE_SHADOW ..
; 385  : 		while (width>MAX_SIZE_TEXTURE_SHADOW || height>MAX_SIZE_TEXTURE_SHADOW)

  00060	39 45 f0	 cmp	 DWORD PTR _width$111774[ebp], eax
  00063	7f 05		 jg	 SHORT $L111782
  00065	39 45 ec	 cmp	 DWORD PTR _height$111775[ebp], eax
  00068	7e 0b		 jle	 SHORT $L111781
$L111782:

; 386  : 		{
; 387  : 			width >>= 1;

  0006a	d1 7d f0	 sar	 DWORD PTR _width$111774[ebp], 1

; 388  : 			height >>= 1;

  0006d	d1 7d ec	 sar	 DWORD PTR _height$111775[ebp], 1

; 389  : 			shift ++;

  00070	ff 45 e8	 inc	 DWORD PTR _shift$111778[ebp]

; 390  : 		}

  00073	eb eb		 jmp	 SHORT $L111780
$L111781:

; 391  : 		
; 392  : 		CDirect3D::GetTextureSize(width, height);	

  00075	8d 45 ec	 lea	 eax, DWORD PTR _height$111775[ebp]
  00078	50		 push	 eax
  00079	8d 45 f0	 lea	 eax, DWORD PTR _width$111774[ebp]
  0007c	50		 push	 eax
  0007d	e8 00 00 00 00	 call	 ?GetTextureSize@CDirect3D@@SAXAAH0@Z ; CDirect3D::GetTextureSize

; 393  : 
; 394  : 		//-----------------------------------------------------------
; 395  : 		// 2   ..
; 396  : 		//-----------------------------------------------------------
; 397  : 		bool bDifferentSize;	// sprite texture  ?
; 398  : 		if (CDirect3D::IsTexturePow2())

  00082	80 3d 00 00 00
	00 00		 cmp	 BYTE PTR ?m_bTexturePow2@CDirect3D@@1_NA, 0 ; CDirect3D::m_bTexturePow2
  00089	59		 pop	 ecx
  0008a	59		 pop	 ecx
  0008b	74 29		 je	 SHORT $L111784

; 399  : 		{
; 400  : 			bDifferentSize = true;
; 401  : 
; 402  : 			// width height  ...
; 403  : 			//     .
; 404  : 			// Square ..   .. ..
; 405  : 
; 406  : 			//   ?..
; 407  : 			if (width > height)

  0008d	8b 45 f0	 mov	 eax, DWORD PTR _width$111774[ebp]
  00090	3b 45 ec	 cmp	 eax, DWORD PTR _height$111775[ebp]
  00093	7e 05		 jle	 SHORT $L111785

; 408  : 			{
; 409  : 				height = width;

  00095	89 45 ec	 mov	 DWORD PTR _height$111775[ebp], eax

; 410  : 			}
; 411  : 			else //if (width < height)

  00098	eb 06		 jmp	 SHORT $L111786
$L111785:

; 412  : 			{
; 413  : 				width = height;

  0009a	8b 45 ec	 mov	 eax, DWORD PTR _height$111775[ebp]
  0009d	89 45 f0	 mov	 DWORD PTR _width$111774[ebp], eax
$L111786:

; 414  : 			}
; 415  : 
; 416  : 			//-----------------------------------------------------------
; 417  : 			// Texture Sprite    ..
; 418  : 			//-----------------------------------------------------------
; 419  : 			// ,  Sprite Texture   .		
; 420  : 			// shift   .
; 421  : 			shift = 0;		

  000a0	89 5d e8	 mov	 DWORD PTR _shift$111778[ebp], ebx
$L111788:

; 422  : 			while (spWidth > width || spHeight > height)

  000a3	3b 75 f0	 cmp	 esi, DWORD PTR _width$111774[ebp]
  000a6	7f 05		 jg	 SHORT $L111790
  000a8	3b 7d ec	 cmp	 edi, DWORD PTR _height$111775[ebp]
  000ab	7e 26		 jle	 SHORT $L111795
$L111790:

; 423  : 			{
; 424  : 				shift ++;

  000ad	ff 45 e8	 inc	 DWORD PTR _shift$111778[ebp]

; 425  : 
; 426  : 				spWidth >>= 1;

  000b0	d1 fe		 sar	 esi, 1

; 427  : 				spHeight >>= 1;

  000b2	d1 ff		 sar	 edi, 1

; 428  : 			}

  000b4	eb ed		 jmp	 SHORT $L111788
$L111784:

; 429  : 		}
; 430  : 		//-----------------------------------------------------------
; 431  : 		//  size   
; 432  : 		//-----------------------------------------------------------
; 433  : 		else
; 434  : 		{
; 435  : 			if (CDirect3D::IsTextureSquareOnly())

  000b6	80 3d 00 00 00
	00 00		 cmp	 BYTE PTR ?m_bTextureSquareOnly@CDirect3D@@1_NA, 0 ; CDirect3D::m_bTextureSquareOnly
  000bd	74 14		 je	 SHORT $L111795

; 436  : 			{
; 437  : 				// width height  ...
; 438  : 				//     .
; 439  : 				// Square ..   .. ..
; 440  : 				if (width > height)

  000bf	8b 45 f0	 mov	 eax, DWORD PTR _width$111774[ebp]
  000c2	8b 4d ec	 mov	 ecx, DWORD PTR _height$111775[ebp]
  000c5	3b c1		 cmp	 eax, ecx
  000c7	7e 05		 jle	 SHORT $L119370

; 441  : 				{
; 442  : 					height = width;

  000c9	89 45 ec	 mov	 DWORD PTR _height$111775[ebp], eax

; 443  : 					bDifferentSize = true;
; 444  : 				}
; 445  : 				else if (width < height)

  000cc	eb 05		 jmp	 SHORT $L111795
$L119370:
  000ce	7d 03		 jge	 SHORT $L111795

; 446  : 				{
; 447  : 					width = height;

  000d0	89 4d f0	 mov	 DWORD PTR _width$111774[ebp], ecx
$L111795:

; 448  : 					bDifferentSize = true;
; 449  : 				}				
; 450  : 			}
; 451  : 			else
; 452  : 			{
; 453  : 				bDifferentSize = false;
; 454  : 			}			
; 455  : 		}	
; 456  : 
; 457  : 		#ifdef OUTPUT_DEBUG
; 458  : 			if (g_pDebugMessage)
; 459  : 			{
; 460  : 				DEBUG_ADD("Determine Texture Size OK");
; 461  : 			}
; 462  : 		#endif
; 463  : 
; 464  : 		//-----------------------------------------------------------
; 465  : 		// () .
; 466  : 		//-----------------------------------------------------------
; 467  : 		CSpriteSurface* pTextureSurface = new CSpriteSurface;

  000d3	6a 20		 push	 32			; 00000020H
  000d5	e8 00 00 00 00	 call	 ??2@YAPAXI@Z		; operator new
  000da	59		 pop	 ecx
  000db	89 45 d8	 mov	 DWORD PTR $T119290[ebp], eax
  000de	3b c3		 cmp	 eax, ebx
  000e0	89 5d fc	 mov	 DWORD PTR __$EHRec$[ebp+8], ebx
  000e3	74 0e		 je	 SHORT $L119291
  000e5	8b c8		 mov	 ecx, eax
  000e7	e8 00 00 00 00	 call	 ??0CSpriteSurface@@QAE@XZ ; CSpriteSurface::CSpriteSurface
  000ec	8b f0		 mov	 esi, eax
  000ee	89 75 e0	 mov	 DWORD PTR $T119289[ebp], esi
  000f1	eb 05		 jmp	 SHORT $L119292
$L119291:
  000f3	89 5d e0	 mov	 DWORD PTR $T119289[ebp], ebx
  000f6	8b f3		 mov	 esi, ebx
$L119292:
  000f8	83 4d fc ff	 or	 DWORD PTR __$EHRec$[ebp+8], -1

; 468  : 
; 469  : 		if (pTextureSurface==NULL)

  000fc	3b f3		 cmp	 esi, ebx
  000fe	89 75 d8	 mov	 DWORD PTR _pTextureSurface$111797[ebp], esi

; 470  : 		{
; 471  : 			#ifdef OUTPUT_DEBUG
; 472  : 				if (g_pDebugMessage)
; 473  : 				{
; 474  : 					DEBUG_ADD("[Error] Texture Surface is NULL");
; 475  : 				}
; 476  : 			#endif
; 477  : 
; 478  : 			return false;

  00101	74 32		 je	 SHORT $L111777

; 479  : 		}
; 480  : 		
; 481  : 		#ifdef OUTPUT_DEBUG
; 482  : 			if (g_pDebugMessage)
; 483  : 			{
; 484  : 				DEBUG_ADD("New Texture Surface OK");
; 485  : 			}
; 486  : 		#endif
; 487  : 		
; 488  : 
; 489  : 		//---------------------------------------------------
; 490  : 		// TextureSurface 
; 491  : 		//---------------------------------------------------	
; 492  : 		#ifdef OUTPUT_DEBUG
; 493  : 			if (g_pDebugMessage)
; 494  : 			{
; 495  : 				DEBUG_ADD("Before Get Pixel Format");
; 496  : 			}
; 497  : 		#endif
; 498  : 		const LPDDPIXELFORMAT pixel4444 = CDirect3D::GetPixelFormat4444();
; 499  : 
; 500  : 		#ifdef OUTPUT_DEBUG
; 501  : 			if (g_pDebugMessage)
; 502  : 			{
; 503  : 				DEBUG_ADD("Before InitTexture Surface");
; 504  : 			}
; 505  : 		#endif
; 506  : 
; 507  : 		pTextureSurface->InitTextureSurface(width, height, 0, pixel4444);

  00103	68 00 00 00 00	 push	 OFFSET FLAT:?m_PixelFormat4444@CDirect3D@@2U_DDPIXELFORMAT@@A ; CDirect3D::m_PixelFormat4444
  00108	53		 push	 ebx
  00109	ff 75 ec	 push	 DWORD PTR _height$111775[ebp]
  0010c	8b ce		 mov	 ecx, esi
  0010e	ff 75 f0	 push	 DWORD PTR _width$111774[ebp]
  00111	e8 00 00 00 00	 call	 ?InitTextureSurface@CDirectDrawSurface@@QAE_NHHKQAU_DDPIXELFORMAT@@@Z ; CDirectDrawSurface::InitTextureSurface

; 508  : 		POINT point;
; 509  : 		point.x = 0;
; 510  : 		point.y = 0;
; 511  : 
; 512  : 		#ifdef OUTPUT_DEBUG
; 513  : 			if (g_pDebugMessage)
; 514  : 			{
; 515  : 				DEBUG_ADD_FORMAT("Init Texture OK. num=%d, size=(%d, %d)", m_nPartUsed, pTextureSurface->GetWidth(), pTextureSurface->GetHeight());
; 516  : 			}
; 517  : 		#endif
; 518  : 
; 519  : 		if (!pTextureSurface->Lock())

  00116	8b ce		 mov	 ecx, esi
  00118	89 5d cc	 mov	 DWORD PTR _point$111804[ebp], ebx
  0011b	89 5d d0	 mov	 DWORD PTR _point$111804[ebp+4], ebx
  0011e	e8 00 00 00 00	 call	 ?Lock@CDirectDrawSurface@@QAE_NXZ ; CDirectDrawSurface::Lock
  00123	84 c0		 test	 al, al
  00125	75 15		 jne	 SHORT $L111805

; 520  : 		{
; 521  : 			delete pTextureSurface;

  00127	8b ce		 mov	 ecx, esi
  00129	e8 00 00 00 00	 call	 ??1CSpriteSurface@@QAE@XZ ; CSpriteSurface::~CSpriteSurface
  0012e	56		 push	 esi
  0012f	e8 00 00 00 00	 call	 ??3@YAXPAX@Z		; operator delete
  00134	59		 pop	 ecx
$L111777:

; 375  : 		{
; 376  : 			return NULL;

  00135	33 c0		 xor	 eax, eax
  00137	e9 ec 01 00 00	 jmp	 $L111846
$L111805:

; 522  : 			return false;
; 523  : 		}
; 524  : 			/*
; 525  : 		DDSURFACEDESC2 ddsd;
; 526  : 
; 527  : 		ZeroMemory(&ddsd, sizeof(ddsd));
; 528  : 		ddsd.dwSize = sizeof(ddsd);
; 529  : 
; 530  : 		while (1)
; 531  : 		{
; 532  : 			HRESULT hr = pTextureSurface->GetSurface()->Lock(NULL, &ddsd,  DDLOCK_WAIT, NULL);
; 533  : 
; 534  : 			if (hr==DD_OK)
; 535  : 			{
; 536  : 				break;
; 537  : 			}
; 538  : 
; 539  : 			if( hr == DDERR_SURFACELOST )
; 540  : 			{
; 541  : 				bool ret = pTextureSurface->Restore();
; 542  : 				if (ret == false)
; 543  : 					break;
; 544  : 				else
; 545  : 					continue;
; 546  : 			}
; 547  : 
; 548  : 			if( hr != DDERR_WASSTILLDRAWING )
; 549  : 			{
; 550  : 				#ifdef OUTPUT_DEBUG
; 551  : 					if (g_pDebugMessage)
; 552  : 					{
; 553  : 						DEBUG_ADD("Lock Failed");
; 554  : 					}
; 555  : 				#endif
; 556  : 				
; 557  : 				return false;
; 558  : 			}			
; 559  : 		}
; 560  : 		*/
; 561  : 		
; 562  : 
; 563  : 		#ifdef OUTPUT_DEBUG
; 564  : 			if (g_pDebugMessage)
; 565  : 			{
; 566  : 				DEBUG_ADD("Lock OK");
; 567  : 			}
; 568  : 		#endif
; 569  : 
; 570  : 		int i;
; 571  : 
; 572  : 		//---------------------------------------------------
; 573  : 		// Texture Surface 
; 574  : 		//---------------------------------------------------
; 575  : 		//static WORD trans[1024] = { 0, };
; 576  : 
; 577  : 		WORD *pSurface = (WORD*)pTextureSurface->GetSurfacePointer();
; 578  : 				//,	*pSurfaceTemp;
; 579  : 		long pitch	= pTextureSurface->GetSurfacePitch();
; 580  : 
; 581  : 		//   ..
; 582  : 		//if (bDifferentSize)
; 583  : 		{
; 584  : 			int width2 = width << 1;

  0013c	8b 45 f0	 mov	 eax, DWORD PTR _width$111774[ebp]

; 585  : 			i = pTextureSurface->GetHeight();

  0013f	8b 76 08	 mov	 esi, DWORD PTR [esi+8]
  00142	8b 3d 24 00 00
	00		 mov	 edi, DWORD PTR ?m_ddsd@CDirectDraw@@1U_DDSURFACEDESC2@@A+36
  00148	8b 1d 10 00 00
	00		 mov	 ebx, DWORD PTR ?m_ddsd@CDirectDraw@@1U_DDSURFACEDESC2@@A+16
  0014e	03 c0		 add	 eax, eax

; 586  : 
; 587  : 			if (i>0)

  00150	85 f6		 test	 esi, esi
  00152	89 45 e4	 mov	 DWORD PTR _width2$111812[ebp], eax
  00155	7e 13		 jle	 SHORT $L111816
$L111814:

; 588  : 			{
; 589  : 				do
; 590  : 				{			
; 591  : 					memset(pSurface, 0, width2);

  00157	ff 75 e4	 push	 DWORD PTR _width2$111812[ebp]
  0015a	6a 00		 push	 0
  0015c	57		 push	 edi
  0015d	e8 00 00 00 00	 call	 _memset
  00162	83 c4 0c	 add	 esp, 12			; 0000000cH

; 592  : 					//memcpy(pSurface, trans, width);
; 593  : 					pSurface = (WORD*)((BYTE*)pSurface + pitch);

  00165	03 fb		 add	 edi, ebx

; 594  : 				} while (--i);

  00167	4e		 dec	 esi
  00168	75 ed		 jne	 SHORT $L111814
$L111816:

; 595  : 			}
; 596  : 		}
; 597  : 	
; 598  : 		#ifdef OUTPUT_DEBUG
; 599  : 			if (g_pDebugMessage)
; 600  : 			{
; 601  : 				DEBUG_ADD("Make Texture OK");
; 602  : 			}
; 603  : 		#endif
; 604  : 		
; 605  : 		//---------------------------------------------------
; 606  : 		//    
; 607  : 		//---------------------------------------------------
; 608  : 		const int timeShadow[] =
; 609  : 		{
; 610  : 			0x4000,		// 0
; 611  : 			0x4000,		// 1
; 612  : 			0x4000,		// 2
; 613  : 			0x4000,		// 3
; 614  : 			0x4000,		// 4
; 615  : 			0x4000,		// 5
; 616  : 			0x4000,		// 6
; 617  : 			0x5000,		// 7
; 618  : 			0x6000,		// 8
; 619  : 			0x7000,		// 9
; 620  : 			0x8000,		// 10
; 621  : 			0x9000,		// 11
; 622  : 			0xA000,		// 12
; 623  : 			0xB000,		// 13
; 624  : 			0xC000,		// 14
; 625  : 			0xB000,		// 15
; 626  : 			0xA000,		// 16
; 627  : 			0x9000,		// 17
; 628  : 			0x8000,		// 18
; 629  : 			0x7000,		// 19
; 630  : 			0x6000,		// 20
; 631  : 			0x5000,		// 21
; 632  : 			0x4000,		// 22
; 633  : 			0x4000		// 23			
; 634  : 		};
; 635  : 
; 636  : 		WORD shadowColor = timeShadow[(*g_pGameTime).GetHour()];
; 637  : 
; 638  : 
; 639  : 		//---------------------------------------------------
; 640  : 		//    0x8000
; 641  : 		//---------------------------------------------------
; 642  : 		if (!g_bZonePlayerInLarge)

  0016a	80 3d 00 00 00
	00 00		 cmp	 BYTE PTR ?g_bZonePlayerInLarge@@3_NA, 0 ; g_bZonePlayerInLarge
  00171	b8 00 40 00 00	 mov	 eax, 16384		; 00004000H
  00176	ba 00 b0 00 00	 mov	 edx, 45056		; 0000b000H
  0017b	89 55 a0	 mov	 DWORD PTR _timeShadow$111819[ebp+52], edx
  0017e	89 55 a8	 mov	 DWORD PTR _timeShadow$111819[ebp+60], edx
  00181	8b 15 00 00 00
	00		 mov	 edx, DWORD PTR ?g_pGameTime@@3PAVMGameTime@@A ; g_pGameTime
  00187	0f b6 52 14	 movzx	 edx, BYTE PTR [edx+20]
  0018b	bb 00 70 00 00	 mov	 ebx, 28672		; 00007000H
  00190	b9 00 80 00 00	 mov	 ecx, 32768		; 00008000H
  00195	bf 00 90 00 00	 mov	 edi, 36864		; 00009000H
  0019a	be 00 a0 00 00	 mov	 esi, 40960		; 0000a000H
  0019f	89 85 6c ff ff
	ff		 mov	 DWORD PTR _timeShadow$111819[ebp], eax
  001a5	89 85 70 ff ff
	ff		 mov	 DWORD PTR _timeShadow$111819[ebp+4], eax
  001ab	89 85 74 ff ff
	ff		 mov	 DWORD PTR _timeShadow$111819[ebp+8], eax
  001b1	89 85 78 ff ff
	ff		 mov	 DWORD PTR _timeShadow$111819[ebp+12], eax
  001b7	89 85 7c ff ff
	ff		 mov	 DWORD PTR _timeShadow$111819[ebp+16], eax
  001bd	89 45 80	 mov	 DWORD PTR _timeShadow$111819[ebp+20], eax
  001c0	89 45 84	 mov	 DWORD PTR _timeShadow$111819[ebp+24], eax
  001c3	c7 45 88 00 50
	00 00		 mov	 DWORD PTR _timeShadow$111819[ebp+28], 20480 ; 00005000H
  001ca	c7 45 8c 00 60
	00 00		 mov	 DWORD PTR _timeShadow$111819[ebp+32], 24576 ; 00006000H
  001d1	89 5d 90	 mov	 DWORD PTR _timeShadow$111819[ebp+36], ebx
  001d4	89 4d 94	 mov	 DWORD PTR _timeShadow$111819[ebp+40], ecx
  001d7	89 7d 98	 mov	 DWORD PTR _timeShadow$111819[ebp+44], edi
  001da	89 75 9c	 mov	 DWORD PTR _timeShadow$111819[ebp+48], esi
  001dd	c7 45 a4 00 c0
	00 00		 mov	 DWORD PTR _timeShadow$111819[ebp+56], 49152 ; 0000c000H
  001e4	89 75 ac	 mov	 DWORD PTR _timeShadow$111819[ebp+64], esi
  001e7	89 7d b0	 mov	 DWORD PTR _timeShadow$111819[ebp+68], edi
  001ea	89 4d b4	 mov	 DWORD PTR _timeShadow$111819[ebp+72], ecx
  001ed	89 5d b8	 mov	 DWORD PTR _timeShadow$111819[ebp+76], ebx
  001f0	c7 45 bc 00 60
	00 00		 mov	 DWORD PTR _timeShadow$111819[ebp+80], 24576 ; 00006000H
  001f7	c7 45 c0 00 50
	00 00		 mov	 DWORD PTR _timeShadow$111819[ebp+84], 20480 ; 00005000H
  001fe	89 45 c4	 mov	 DWORD PTR _timeShadow$111819[ebp+88], eax
  00201	89 45 c8	 mov	 DWORD PTR _timeShadow$111819[ebp+92], eax
  00204	66 8b 94 95 6c
	ff ff ff	 mov	 dx, WORD PTR _timeShadow$111819[ebp+edx*4]
  0020c	75 04		 jne	 SHORT $L111821

; 643  : 		{
; 644  : 			shadowColor = 0x8000;

  0020e	8b d1		 mov	 edx, ecx

; 645  : 		}
; 646  : 		else

  00210	eb 1c		 jmp	 SHORT $L111823
$L111821:

; 647  : 		{
; 648  : 			//---------------------------------------------------
; 649  : 			//     .
; 650  : 			//---------------------------------------------------
; 651  : 			if (g_pWeather->GetWeatherType()==MWeather::WEATHER_RAIN)

  00212	8b 0d 00 00 00
	00		 mov	 ecx, DWORD PTR ?g_pWeather@@3PAVMWeather@@A ; g_pWeather
  00218	80 79 08 02	 cmp	 BYTE PTR [ecx+8], 2
  0021c	75 10		 jne	 SHORT $L111823

; 652  : 			{
; 653  : 				int test = (int)shadowColor - (int)0x4000;

  0021e	0f b7 d2	 movzx	 edx, dx
  00221	2b d0		 sub	 edx, eax

; 654  : 
; 655  : 				if (test < 0x3000)

  00223	b8 00 30 00 00	 mov	 eax, 12288		; 00003000H
  00228	3b d0		 cmp	 edx, eax
  0022a	7d 02		 jge	 SHORT $L111823

; 656  : 				{
; 657  : 					test = 0x3000;

  0022c	8b d0		 mov	 edx, eax
$L111823:

; 658  : 				}
; 659  : 
; 660  : 				shadowColor = test;
; 661  : 			}
; 662  : 		}
; 663  : 
; 664  : 
; 665  : 		//---------------------------------------------------
; 666  : 		// ShadowSprite
; 667  : 		//---------------------------------------------------
; 668  : 		pTextureSurface->BltShadowSpriteSmall4444(&point, pSprite, shadowColor, shift);

  0022e	ff 75 e8	 push	 DWORD PTR _shift$111778[ebp]
  00231	8b 75 d4	 mov	 esi, DWORD PTR _pSprite$111771[ebp]
  00234	8b 4d e0	 mov	 ecx, DWORD PTR $T119289[ebp]
  00237	52		 push	 edx
  00238	56		 push	 esi
  00239	8d 45 cc	 lea	 eax, DWORD PTR _point$111804[ebp]
  0023c	50		 push	 eax
  0023d	e8 00 00 00 00	 call	 ?BltShadowSpriteSmall4444@CSpriteSurface@@QAEXPAUtagPOINT@@PAVCShadowSprite@@GE@Z ; CSpriteSurface::BltShadowSpriteSmall4444

; 669  : 		
; 670  : 		
; 671  : 	  
; 672  : 		pTextureSurface->Unlock();

  00242	8b 4d e0	 mov	 ecx, DWORD PTR $T119289[ebp]
  00245	e8 00 00 00 00	 call	 ?Unlock@CDirectDrawSurface@@QAE_NXZ ; CDirectDrawSurface::Unlock

; 673  : 
; 674  : 		#ifdef OUTPUT_DEBUG
; 675  : 			if (g_pDebugMessage)
; 676  : 			{
; 677  : 				DEBUG_ADD("Blt Small4444 OK");
; 678  : 			}
; 679  : 		#endif
; 680  : 	
; 681  : 			
; 682  : 		//-----------------------------------------------------------
; 683  : 		//   
; 684  : 		//-----------------------------------------------------------
; 685  : 		//   Texture Size    
; 686  : 		//-----------------------------------------------------------
; 687  : 		if (m_pWidth[id]==0 || m_pHeight[id]==0)

  0024a	0f b7 45 08	 movzx	 eax, WORD PTR _id$[ebp]
  0024e	8b 5d dc	 mov	 ebx, DWORD PTR _this$[ebp]
  00251	8b c8		 mov	 ecx, eax
  00253	8b 43 6c	 mov	 eax, DWORD PTR [ebx+108]
  00256	c1 e1 02	 shl	 ecx, 2
  00259	8d 14 08	 lea	 edx, DWORD PTR [eax+ecx]
  0025c	83 3a 00	 cmp	 DWORD PTR [edx], 0
  0025f	89 55 dc	 mov	 DWORD PTR tv424[ebp], edx
  00262	74 09		 je	 SHORT $L111829
  00264	8b 43 70	 mov	 eax, DWORD PTR [ebx+112]
  00267	83 3c 01 00	 cmp	 DWORD PTR [ecx+eax], 0
  0026b	75 75		 jne	 SHORT $L111828
$L111829:

; 688  : 		{
; 689  : 			spWidth = pSprite->GetWidth();
; 690  : 			spHeight = pSprite->GetHeight();
; 691  : 
; 692  : 			if (CDirect3D::IsTexturePow2())

  0026d	80 3d 00 00 00
	00 00		 cmp	 BYTE PTR ?m_bTexturePow2@CDirect3D@@1_NA, 0 ; CDirect3D::m_bTexturePow2

; 794  : 		{
; 795  : 			return pTextureSurface;
; 796  : 		}
; 797  : 
; 798  : 		#ifdef OUTPUT_DEBUG
; 799  : 			if (g_pDebugMessage)
; 800  : 			{
; 801  : 				DEBUG_ADD("No Exist!");
; 802  : 			}
; 803  : 		#endif	
; 804  : 		//reuse ++;
; 805  : 	}
; 806  : 
; 807  : 	return NULL;

  00274	0f b7 06	 movzx	 eax, WORD PTR [esi]
  00277	0f b7 7e 02	 movzx	 edi, WORD PTR [esi+2]
  0027b	89 45 e4	 mov	 DWORD PTR _spWidth$111772[ebp], eax
  0027e	74 34		 je	 SHORT $L111830

; 693  : 			{	
; 694  : 				// texture  size .
; 695  : 				for (int i=0; i<shift; i++)

  00280	83 7d e8 00	 cmp	 DWORD PTR _shift$111778[ebp], 0
  00284	7e 10		 jle	 SHORT $L111834
  00286	8b 55 e8	 mov	 edx, DWORD PTR _shift$111778[ebp]
  00289	89 55 e8	 mov	 DWORD PTR tv264[ebp], edx
$L111832:

; 696  : 				{
; 697  : 					spWidth >>= 1;

  0028c	d1 7d e4	 sar	 DWORD PTR _spWidth$111772[ebp], 1

; 698  : 					spHeight >>= 1;

  0028f	d1 ff		 sar	 edi, 1
  00291	ff 4d e8	 dec	 DWORD PTR tv264[ebp]
  00294	75 f6		 jne	 SHORT $L111832
$L111834:

; 699  : 				}
; 700  : 
; 701  : 				//  
; 702  : 				width = width * pSprite->GetWidth() / spWidth;

  00296	0f af 45 f0	 imul	 eax, DWORD PTR _width$111774[ebp]
  0029a	99		 cdq
  0029b	f7 7d e4	 idiv	 DWORD PTR _spWidth$111772[ebp]
  0029e	89 45 f0	 mov	 DWORD PTR _width$111774[ebp], eax

; 703  : 				height = height * pSprite->GetHeight() / spHeight;		

  002a1	0f b7 46 02	 movzx	 eax, WORD PTR [esi+2]
  002a5	0f af 45 ec	 imul	 eax, DWORD PTR _height$111775[ebp]
  002a9	99		 cdq
  002aa	f7 ff		 idiv	 edi

; 704  : 			}
; 705  : 			else

  002ac	8b 55 dc	 mov	 edx, DWORD PTR tv424[ebp]
  002af	89 45 ec	 mov	 DWORD PTR _height$111775[ebp], eax
  002b2	eb 20		 jmp	 SHORT $L111839
$L111830:

; 706  : 			{
; 707  : 				width = spWidth;
; 708  : 				height = spHeight;
; 709  : 
; 710  : 				//    Square .
; 711  : 				if (CDirect3D::IsTextureSquareOnly())

  002b4	80 3d 00 00 00
	00 00		 cmp	 BYTE PTR ?m_bTextureSquareOnly@CDirect3D@@1_NA, 0 ; CDirect3D::m_bTextureSquareOnly
  002bb	8b 45 e4	 mov	 eax, DWORD PTR _spWidth$111772[ebp]
  002be	89 45 f0	 mov	 DWORD PTR _width$111774[ebp], eax
  002c1	89 7d ec	 mov	 DWORD PTR _height$111775[ebp], edi
  002c4	74 0e		 je	 SHORT $L111839

; 712  : 				{				
; 713  : 					if (width > height)

  002c6	3b c7		 cmp	 eax, edi
  002c8	7e 05		 jle	 SHORT $L119371

; 714  : 					{
; 715  : 						height = width;				

  002ca	89 45 ec	 mov	 DWORD PTR _height$111775[ebp], eax

; 716  : 					}
; 717  : 					else if (width < height)

  002cd	eb 05		 jmp	 SHORT $L111839
$L119371:
  002cf	7d 03		 jge	 SHORT $L111839

; 718  : 					{
; 719  : 						width = height;				

  002d1	89 7d f0	 mov	 DWORD PTR _width$111774[ebp], edi
$L111839:

; 720  : 					}	
; 721  : 				}
; 722  : 			}			
; 723  : 
; 724  : 			m_pWidth[id] = width;

  002d4	8b 45 f0	 mov	 eax, DWORD PTR _width$111774[ebp]
  002d7	89 02		 mov	 DWORD PTR [edx], eax

; 725  : 			m_pHeight[id] = height;		

  002d9	8b 43 70	 mov	 eax, DWORD PTR [ebx+112]
  002dc	8b 55 ec	 mov	 edx, DWORD PTR _height$111775[ebp]
  002df	89 14 01	 mov	 DWORD PTR [ecx+eax], edx
$L111828:

; 726  : 		}
; 727  : 	
; 728  : 		
; 729  : 		//---------------------------------------------------
; 730  : 		// Replace   .
; 731  : 		//---------------------------------------------------
; 732  : 		CSpriteSurface* pOld = NULL;

  002e2	83 65 e4 00	 and	 DWORD PTR _pOld$111840[ebp], 0

; 733  : 		WORD oldIndex = SetData( id, pTextureSurface, pOld );

  002e6	8d 45 e4	 lea	 eax, DWORD PTR _pOld$111840[ebp]
  002e9	50		 push	 eax
  002ea	8d 45 d8	 lea	 eax, DWORD PTR _pTextureSurface$111797[ebp]
  002ed	50		 push	 eax
  002ee	ff 75 08	 push	 DWORD PTR _id$[ebp]
  002f1	8b cb		 mov	 ecx, ebx
  002f3	e8 00 00 00 00	 call	 ?SetData@?$CPartManager@GGPAVCSpriteSurface@@@@QAEGGABQAVCSpriteSurface@@AAPAV2@@Z ; CPartManager<unsigned short,unsigned short,CSpriteSurface *>::SetData

; 734  : 
; 735  : 		#ifdef OUTPUT_DEBUG
; 736  : 			if (g_pDebugMessage)
; 737  : 			{
; 738  : 				DEBUG_ADD("Set Data OK");
; 739  : 			}
; 740  : 		#endif
; 741  : 
; 742  : 		if (oldIndex != m_IndexNULL)

  002f8	66 3b 43 20	 cmp	 ax, WORD PTR [ebx+32]
  002fc	74 12		 je	 SHORT $L111843

; 743  : 		{
; 744  : 			if (pOld != NULL)

  002fe	83 7d e4 00	 cmp	 DWORD PTR _pOld$111840[ebp], 0
  00302	74 0c		 je	 SHORT $L111843

; 745  : 			{
; 746  : 				#ifdef OUTPUT_DEBUG
; 747  : 					if (g_pDebugMessage)
; 748  : 					{
; 749  : 						DEBUG_ADD_FORMAT("Delete Old Surface(%d), (%d,%d)", oldIndex, m_SSPK[oldIndex].GetWidth(), m_SSPK[oldIndex].GetHeight());
; 750  : 					}
; 751  : 				#endif
; 752  : 				
; 753  : 				//------------------------------------------------------------
; 754  : 				// D3D Texture     .
; 755  : 				// BeginScene() ~ EndScene()  Surface  
; 756  : 				//   .
; 757  : 				//------------------------------------------------------------
; 758  : 				//delete pOld;
; 759  : 				//------------------------------------------------------------
; 760  : 				m_listRemoved.push_back( pOld );

  00304	8d 45 e4	 lea	 eax, DWORD PTR _pOld$111840[ebp]
  00307	50		 push	 eax
  00308	8d 4b 74	 lea	 ecx, DWORD PTR [ebx+116]
  0030b	e8 00 00 00 00	 call	 ?push_back@?$list@PAVCSpriteSurface@@V?$allocator@PAVCSpriteSurface@@@_STL@@@_STL@@QAEXABQAVCSpriteSurface@@@Z ; _STL::list<CSpriteSurface *,_STL::allocator<CSpriteSurface *> >::push_back
$L111843:

; 761  : 			}
; 762  : 
; 763  : 			// loading  sprite ...  ..
; 764  : 			//  ? .. 
; 765  : 			//m_SSPK[oldIndex].Release();			
; 766  : 		}
; 767  : 
; 768  : 		#ifdef OUTPUT_DEBUG
; 769  : 			if (g_pDebugMessage)
; 770  : 			{
; 771  : 				DEBUG_ADD("OK");
; 772  : 			}
; 773  : 		#endif	
; 774  : 
; 775  : 		// return
; 776  : 		return pTextureSurface;

  00310	8b 45 e0	 mov	 eax, DWORD PTR $T119289[ebp]
  00313	eb 13		 jmp	 SHORT $L111846
$L111770:

; 777  : 
; 778  : 		//reload++;
; 779  : 	}
; 780  : 	//-----------------------------------------------------------
; 781  : 	//   --> return
; 782  : 	//-----------------------------------------------------------
; 783  : 	else
; 784  : 	{
; 785  : 		#ifdef OUTPUT_DEBUG
; 786  : 			if (g_pDebugMessage)
; 787  : 			{
; 788  : 				DEBUG_ADD_FORMAT("CShadowPartManager::GetTexture(%d)", id);
; 789  : 			}
; 790  : 		#endif	
; 791  : 
; 792  : 		CSpriteSurface* pTextureSurface;
; 793  : 		if (GetData(id, pTextureSurface))

  00315	8d 45 08	 lea	 eax, DWORD PTR _pTextureSurface$111845[ebp]
  00318	50		 push	 eax
  00319	ff 75 08	 push	 DWORD PTR _id$[ebp]
  0031c	e8 00 00 00 00	 call	 ?GetData@?$CPartManager@GGPAVCSpriteSurface@@@@QAE_NGAAPAVCSpriteSurface@@@Z ; CPartManager<unsigned short,unsigned short,CSpriteSurface *>::GetData
  00321	f6 d8		 neg	 al
  00323	1b c0		 sbb	 eax, eax
  00325	23 45 08	 and	 eax, DWORD PTR _pTextureSurface$111845[ebp]
$L111846:

; 808  : }

  00328	8b 4d f4	 mov	 ecx, DWORD PTR __$EHRec$[ebp]
  0032b	5f		 pop	 edi
  0032c	5e		 pop	 esi
  0032d	5b		 pop	 ebx
  0032e	64 89 0d 00 00
	00 00		 mov	 DWORD PTR fs:__except_list, ecx
  00335	c9		 leave
  00336	c2 04 00	 ret	 4
_TEXT	ENDS
;	COMDAT text$x
text$x	SEGMENT
$L119297:
  00000	ff 75 d8	 push	 DWORD PTR $T119290[ebp]
  00003	e8 00 00 00 00	 call	 ??3@YAXPAX@Z		; operator delete
  00008	59		 pop	 ecx
  00009	c3		 ret	 0
__ehhandler$?GetTexture@CShadowPartManager@@QAEPAVCSpriteSurface@@G@Z:
  0000a	b8 00 00 00 00	 mov	 eax, OFFSET FLAT:$T119362
  0000f	e9 00 00 00 00	 jmp	 ___CxxFrameHandler
text$x	ENDS
?GetTexture@CShadowPartManager@@QAEPAVCSpriteSurface@@G@Z ENDP ; CShadowPartManager::GetTexture
PUBLIC	??$_M_assign_dispatch@PAD@?$basic_string@DV?$char_traits@D@_STL@@V?$allocator@D@2@@_STL@@AAEAAV01@PAD0ABU__false_type@1@@Z ; _STL::basic_string<char,_STL::char_traits<char>,_STL::allocator<char> >::_M_assign_dispatch<char *>
; Function compile flags: /Ogsy
; File c:\stlport-4.6.1\stlport\stl\_string.h
;	COMDAT ??$_M_assign_dispatch@PAD@?$basic_string@DV?$char_traits@D@_STL@@V?$allocator@D@2@@_STL@@AAEAAV01@PAD0ABU__false_type@1@@Z
_TEXT	SEGMENT
___f$ = 8						; size = 4
$T119396 = 11						; size = 1
___l$ = 12						; size = 4
___formal$ = 16						; size = 4
??$_M_assign_dispatch@PAD@?$basic_string@DV?$char_traits@D@_STL@@V?$allocator@D@2@@_STL@@AAEAAV01@PAD0ABU__false_type@1@@Z PROC NEAR ; _STL::basic_string<char,_STL::char_traits<char>,_STL::allocator<char> >::_M_assign_dispatch<char *>, COMDAT
; _this$ = ecx

; 624  :   _Self& _M_assign_dispatch(_InputIter __f, _InputIter __l,

  00000	55		 push	 ebp
  00001	8b ec		 mov	 ebp, esp
  00003	56		 push	 esi
  00004	8b f1		 mov	 esi, ecx

; 625  : 			    const __false_type&)  {
; 626  :     pointer __cur = this->_M_start;
; 627  :     while (__f != __l && __cur != this->_M_finish) {

  00006	8b 4d 08	 mov	 ecx, DWORD PTR ___f$[ebp]
  00009	8b 06		 mov	 eax, DWORD PTR [esi]
  0000b	57		 push	 edi
  0000c	8b 7d 0c	 mov	 edi, DWORD PTR ___l$[ebp]
  0000f	3b cf		 cmp	 ecx, edi
  00011	74 13		 je	 SHORT $L119399
$L112183:
  00013	3b 46 04	 cmp	 eax, DWORD PTR [esi+4]
  00016	74 0a		 je	 SHORT $L112184

; 628  :       _Traits::assign(*__cur, *__f);

  00018	8a 11		 mov	 dl, BYTE PTR [ecx]

; 629  :       ++__f;

  0001a	41		 inc	 ecx
  0001b	88 10		 mov	 BYTE PTR [eax], dl

; 630  :       ++__cur;

  0001d	40		 inc	 eax
  0001e	3b cf		 cmp	 ecx, edi
  00020	75 f1		 jne	 SHORT $L112183
$L112184:

; 631  :     }
; 632  :     if (__f == __l)

  00022	3b cf		 cmp	 ecx, edi
  00024	75 0d		 jne	 SHORT $L112185
$L119399:

; 633  :       erase(__cur, end());

  00026	ff 76 04	 push	 DWORD PTR [esi+4]
  00029	8b ce		 mov	 ecx, esi
  0002b	50		 push	 eax
  0002c	e8 00 00 00 00	 call	 ?erase@?$basic_string@DV?$char_traits@D@_STL@@V?$allocator@D@2@@_STL@@QAEPADPAD0@Z ; _STL::basic_string<char,_STL::char_traits<char>,_STL::allocator<char> >::erase

; 634  :     else

  00031	eb 0d		 jmp	 SHORT $L119391
$L112185:

; 635  :       append(__f, __l);

  00033	8d 45 0b	 lea	 eax, DWORD PTR $T119396[ebp]
  00036	50		 push	 eax
  00037	57		 push	 edi
  00038	51		 push	 ecx
  00039	8b ce		 mov	 ecx, esi
  0003b	e8 00 00 00 00	 call	 ??$append@PAD@?$basic_string@DV?$char_traits@D@_STL@@V?$allocator@D@2@@_STL@@AAEAAV01@PAD0ABUforward_iterator_tag@1@@Z ; _STL::basic_string<char,_STL::char_traits<char>,_STL::allocator<char> >::append<char *>
$L119391:
  00040	5f		 pop	 edi

; 636  :     return *this;

  00041	8b c6		 mov	 eax, esi
  00043	5e		 pop	 esi

; 637  :   }

  00044	5d		 pop	 ebp
  00045	c2 0c 00	 ret	 12			; 0000000cH
??$_M_assign_dispatch@PAD@?$basic_string@DV?$char_traits@D@_STL@@V?$allocator@D@2@@_STL@@AAEAAV01@PAD0ABU__false_type@1@@Z ENDP ; _STL::basic_string<char,_STL::char_traits<char>,_STL::allocator<char> >::_M_assign_dispatch<char *>
_TEXT	ENDS
PUBLIC	??0?$_STLP_alloc_proxy@PAKKV?$allocator@K@_STL@@@_STL@@QAE@ABV?$allocator@K@1@PAK@Z ; _STL::_STLP_alloc_proxy<unsigned long *,unsigned long,_STL::allocator<unsigned long> >::_STLP_alloc_proxy<unsigned long *,unsigned long,_STL::allocator<unsigned long> >
PUBLIC	??1?$vector@KV?$allocator@K@_STL@@@_STL@@QAE@XZ	; _STL::vector<unsigned long,_STL::allocator<unsigned long> >::~vector<unsigned long,_STL::allocator<unsigned long> >
PUBLIC	?push_back@?$vector@KV?$allocator@K@_STL@@@_STL@@QAEXABK@Z ; _STL::vector<unsigned long,_STL::allocator<unsigned long> >::push_back
PUBLIC	??_C@_0BJ@MIBMMHPK@real?5size?5?3?5?$CFd?5size?5?3?5?$CFd?$AA@ ; `string'
PUBLIC	??_C@_09DGBJGHJB@CTypePack?$AA@			; `string'
PUBLIC	?write@?$basic_ostream@DV?$char_traits@D@_STL@@@_STL@@QAEAAV12@PBDH@Z ; _STL::basic_ostream<char,_STL::char_traits<char> >::write
PUBLIC	?tellp@?$basic_ostream@DV?$char_traits@D@_STL@@@_STL@@QAE?AV?$fpos@H@2@XZ ; _STL::basic_ostream<char,_STL::char_traits<char> >::tellp
PUBLIC	?seekp@?$basic_ostream@DV?$char_traits@D@_STL@@@_STL@@QAEAAV12@V?$fpos@H@2@@Z ; _STL::basic_ostream<char,_STL::char_traits<char> >::seekp
PUBLIC	??1?$allocator@K@_STL@@QAE@XZ			; _STL::allocator<unsigned long>::~allocator<unsigned long>
EXTRN	?SaveToFile@CShadowSprite@@QAE_NAAV?$basic_ofstream@DV?$char_traits@D@_STL@@@_STL@@@Z:NEAR ; CShadowSprite::SaveToFile
EXTRN	__imp__MessageBoxA@16:NEAR
EXTRN	___security_cookie:DWORD
EXTRN	@__security_check_cookie@4:NEAR
;	COMDAT xdata$x
; File c:\stlport-4.6.1\stlport\stl\_alloc.h
xdata$x	SEGMENT
$T119573 DD	0ffffffffH
	DD	FLAT:$L119408
	DD	00H
	DD	FLAT:$L119409
	DD	0ffffffffH
	DD	FLAT:$L119409
$T119563 DD	019930520H
	DD	03H
	DD	FLAT:$T119573
	DD	2 DUP(00H)
	DD	2 DUP(00H)
xdata$x	ENDS
;	COMDAT ??_C@_0BJ@MIBMMHPK@real?5size?5?3?5?$CFd?5size?5?3?5?$CFd?$AA@
CONST	SEGMENT
??_C@_0BJ@MIBMMHPK@real?5size?5?3?5?$CFd?5size?5?3?5?$CFd?$AA@ DB 'real s'
	DB	'ize : %d size : %d', 00H			; `string'
CONST	ENDS
;	COMDAT ??_C@_09DGBJGHJB@CTypePack?$AA@
CONST	SEGMENT
??_C@_09DGBJGHJB@CTypePack?$AA@ DB 'CTypePack', 00H	; `string'
; Function compile flags: /Ogsy
; File c:\darkeden\designed_common\project\client\spritelib\ctypepack.h
CONST	ENDS
;	COMDAT ?SaveToFile@?$CTypePack@VCShadowSprite@@@@UAE_NAAV?$basic_ofstream@DV?$char_traits@D@_STL@@@_STL@@0@Z
_TEXT	SEGMENT
$T119404 = -568						; size = 8
_index$ = -560						; size = 4
_vIndex$ = -556						; size = 12
$T119403 = -541						; size = 1
tv356 = -540						; size = 4
$T119406 = -536						; size = 4
$T119405 = -536						; size = 4
_i$112900 = -536					; size = 4
_realSize$ = -532					; size = 2
_szTemp$112908 = -528					; size = 512
__$ArrayPad$ = -16					; size = 4
__$EHRec$ = -12						; size = 12
__$ReturnAddr$ = 4					; size = 4
_dataFile$ = 8						; size = 4
_indexFile$ = 12					; size = 4
?SaveToFile@?$CTypePack@VCShadowSprite@@@@UAE_NAAV?$basic_ofstream@DV?$char_traits@D@_STL@@@_STL@@0@Z PROC NEAR ; CTypePack<CShadowSprite>::SaveToFile, COMDAT
; _this$ = ecx

; 448  : {

  00000	b8 00 00 00 00	 mov	 eax, __ehhandler$?SaveToFile@?$CTypePack@VCShadowSprite@@@@UAE_NAAV?$basic_ofstream@DV?$char_traits@D@_STL@@@_STL@@0@Z
  00005	e8 00 00 00 00	 call	 __EH_prolog
  0000a	81 ec 2c 02 00
	00		 sub	 esp, 556		; 0000022cH
  00010	a1 00 00 00 00	 mov	 eax, DWORD PTR ___security_cookie
  00015	53		 push	 ebx
  00016	56		 push	 esi
  00017	57		 push	 edi
  00018	89 45 f0	 mov	 DWORD PTR __$ArrayPad$[ebp], eax
  0001b	8b f9		 mov	 edi, ecx

; 449  : 	//--------------------------------------------------
; 450  : 	// index file   
; 451  : 	//--------------------------------------------------
; 452  : //	long*	pIndex = new long [m_Size];
; 453  : 	std::vector<DWORD> vIndex;

  0001d	33 db		 xor	 ebx, ebx
  0001f	53		 push	 ebx
  00020	8d 85 e3 fd ff
	ff		 lea	 eax, DWORD PTR $T119403[ebp]
  00026	50		 push	 eax
  00027	8d 8d dc fd ff
	ff		 lea	 ecx, DWORD PTR _vIndex$[ebp+8]
  0002d	89 5d fc	 mov	 DWORD PTR __$EHRec$[ebp+8], ebx
  00030	89 9d d4 fd ff
	ff		 mov	 DWORD PTR _vIndex$[ebp], ebx
  00036	89 9d d8 fd ff
	ff		 mov	 DWORD PTR _vIndex$[ebp+4], ebx
  0003c	e8 00 00 00 00	 call	 ??0?$_STLP_alloc_proxy@PAKKV?$allocator@K@_STL@@@_STL@@QAE@ABV?$allocator@K@1@PAK@Z ; _STL::_STLP_alloc_proxy<unsigned long *,unsigned long,_STL::allocator<unsigned long> >::_STLP_alloc_proxy<unsigned long *,unsigned long,_STL::allocator<unsigned long> >

; 454  : 
; 455  : 	//--------------------------------------------------
; 456  : 	// Size 
; 457  : 	//--------------------------------------------------
; 458  : 	dataFile.write((const char *)&m_Size, 2); 

  00041	8b 4d 08	 mov	 ecx, DWORD PTR _dataFile$[ebp]
  00044	6a 02		 push	 2
  00046	8d 77 08	 lea	 esi, DWORD PTR [edi+8]
  00049	56		 push	 esi
  0004a	c6 45 fc 02	 mov	 BYTE PTR __$EHRec$[ebp+8], 2
  0004e	e8 00 00 00 00	 call	 ?write@?$basic_ostream@DV?$char_traits@D@_STL@@@_STL@@QAEAAV12@PBDH@Z ; _STL::basic_ostream<char,_STL::char_traits<char> >::write

; 459  : 	indexFile.write((const char *)&m_Size, 2); 

  00053	8b 4d 0c	 mov	 ecx, DWORD PTR _indexFile$[ebp]
  00056	6a 02		 push	 2
  00058	56		 push	 esi
  00059	e8 00 00 00 00	 call	 ?write@?$basic_ostream@DV?$char_traits@D@_STL@@@_STL@@QAEAAV12@PBDH@Z ; _STL::basic_ostream<char,_STL::char_traits<char> >::write

; 460  : 	WORD realSize = m_Size;

  0005e	33 c0		 xor	 eax, eax
  00060	66 8b 06	 mov	 ax, WORD PTR [esi]

; 461  : 	DWORD index = 0;
; 462  : 
; 463  : 	for(int i = 0; i < m_Size; i++)

  00063	66 3b c3	 cmp	 ax, bx
  00066	89 9d d0 fd ff
	ff		 mov	 DWORD PTR _index$[ebp], ebx
  0006c	89 9d e8 fd ff
	ff		 mov	 DWORD PTR _i$112900[ebp], ebx
  00072	89 85 ec fd ff
	ff		 mov	 DWORD PTR _realSize$[ebp], eax
  00078	76 68		 jbe	 SHORT $L112903

; 449  : 	//--------------------------------------------------
; 450  : 	// index file   
; 451  : 	//--------------------------------------------------
; 452  : //	long*	pIndex = new long [m_Size];
; 453  : 	std::vector<DWORD> vIndex;

  0007a	89 9d e4 fd ff
	ff		 mov	 DWORD PTR tv356[ebp], ebx
$L112901:

; 464  : 	{
; 465  : 		index = dataFile.tellp();

  00080	8b 4d 08	 mov	 ecx, DWORD PTR _dataFile$[ebp]
  00083	8d 85 c8 fd ff
	ff		 lea	 eax, DWORD PTR $T119404[ebp]
  00089	50		 push	 eax
  0008a	e8 00 00 00 00	 call	 ?tellp@?$basic_ostream@DV?$char_traits@D@_STL@@@_STL@@QAE?AV?$fpos@H@2@XZ ; _STL::basic_ostream<char,_STL::char_traits<char> >::tellp

; 466  : 		if(m_pData[i].SaveToFile(dataFile) == false)

  0008f	8b 4f 04	 mov	 ecx, DWORD PTR [edi+4]
  00092	8b 00		 mov	 eax, DWORD PTR [eax]
  00094	ff 75 08	 push	 DWORD PTR _dataFile$[ebp]
  00097	03 8d e4 fd ff
	ff		 add	 ecx, DWORD PTR tv356[ebp]
  0009d	89 85 d0 fd ff
	ff		 mov	 DWORD PTR _index$[ebp], eax
  000a3	e8 00 00 00 00	 call	 ?SaveToFile@CShadowSprite@@QAE_NAAV?$basic_ofstream@DV?$char_traits@D@_STL@@@_STL@@@Z ; CShadowSprite::SaveToFile
  000a8	84 c0		 test	 al, al
  000aa	75 0c		 jne	 SHORT $L112905

; 467  : 		{
; 468  : 			realSize--;

  000ac	81 85 ec fd ff
	ff ff ff 00 00	 add	 DWORD PTR _realSize$[ebp], 65535 ; 0000ffffH

; 469  : 		}
; 470  : 		else

  000b6	eb 12		 jmp	 SHORT $L112902
$L112905:

; 471  : 		{
; 472  : 			vIndex.push_back(index);

  000b8	8d 85 d0 fd ff
	ff		 lea	 eax, DWORD PTR _index$[ebp]
  000be	50		 push	 eax
  000bf	8d 8d d4 fd ff
	ff		 lea	 ecx, DWORD PTR _vIndex$[ebp]
  000c5	e8 00 00 00 00	 call	 ?push_back@?$vector@KV?$allocator@K@_STL@@@_STL@@QAEXABK@Z ; _STL::vector<unsigned long,_STL::allocator<unsigned long> >::push_back
$L112902:
  000ca	0f b7 06	 movzx	 eax, WORD PTR [esi]
  000cd	ff 85 e8 fd ff
	ff		 inc	 DWORD PTR _i$112900[ebp]
  000d3	83 85 e4 fd ff
	ff 0c		 add	 DWORD PTR tv356[ebp], 12 ; 0000000cH
  000da	39 85 e8 fd ff
	ff		 cmp	 DWORD PTR _i$112900[ebp], eax
  000e0	7c 9e		 jl	 SHORT $L112901
$L112903:

; 473  : 		}
; 474  : 	}
; 475  : 	
; 476  : 	if(realSize != m_Size)

  000e2	66 8b 36	 mov	 si, WORD PTR [esi]
  000e5	66 39 b5 ec fd
	ff ff		 cmp	 WORD PTR _realSize$[ebp], si
  000ec	0f 84 84 00 00
	00		 je	 $L119568

; 477  : 	{
; 478  : 		char szTemp[512];
; 479  : 		sprintf(szTemp, "real size : %d size : %d", realSize, m_Size);

  000f2	0f b7 c6	 movzx	 eax, si
  000f5	50		 push	 eax
  000f6	0f b7 85 ec fd
	ff ff		 movzx	 eax, WORD PTR _realSize$[ebp]
  000fd	50		 push	 eax
  000fe	8d 85 f0 fd ff
	ff		 lea	 eax, DWORD PTR _szTemp$112908[ebp]
  00104	68 00 00 00 00	 push	 OFFSET FLAT:??_C@_0BJ@MIBMMHPK@real?5size?5?3?5?$CFd?5size?5?3?5?$CFd?$AA@
  00109	50		 push	 eax
  0010a	e8 00 00 00 00	 call	 _sprintf
  0010f	83 c4 10	 add	 esp, 16			; 00000010H

; 480  : 		MessageBox(NULL, szTemp, "CTypePack", MB_OK);

  00112	53		 push	 ebx
  00113	68 00 00 00 00	 push	 OFFSET FLAT:??_C@_09DGBJGHJB@CTypePack?$AA@
  00118	8d 85 f0 fd ff
	ff		 lea	 eax, DWORD PTR _szTemp$112908[ebp]
  0011e	50		 push	 eax
  0011f	53		 push	 ebx
  00120	ff 15 00 00 00
	00		 call	 DWORD PTR __imp__MessageBoxA@16

; 481  : 		dataFile.seekp(0);

  00126	51		 push	 ecx
  00127	51		 push	 ecx
  00128	8b 4d 08	 mov	 ecx, DWORD PTR _dataFile$[ebp]
  0012b	8b c4		 mov	 eax, esp
  0012d	89 a5 e8 fd ff
	ff		 mov	 DWORD PTR $T119405[ebp], esp
  00133	89 18		 mov	 DWORD PTR [eax], ebx
  00135	89 58 04	 mov	 DWORD PTR [eax+4], ebx
  00138	e8 00 00 00 00	 call	 ?seekp@?$basic_ostream@DV?$char_traits@D@_STL@@@_STL@@QAEAAV12@V?$fpos@H@2@@Z ; _STL::basic_ostream<char,_STL::char_traits<char> >::seekp

; 482  : 		dataFile.write((const char *)&realSize, 2);

  0013d	8b 4d 08	 mov	 ecx, DWORD PTR _dataFile$[ebp]
  00140	6a 02		 push	 2
  00142	8d 85 ec fd ff
	ff		 lea	 eax, DWORD PTR _realSize$[ebp]
  00148	50		 push	 eax
  00149	e8 00 00 00 00	 call	 ?write@?$basic_ostream@DV?$char_traits@D@_STL@@@_STL@@QAEAAV12@PBDH@Z ; _STL::basic_ostream<char,_STL::char_traits<char> >::write

; 483  : 		indexFile.seekp(0);

  0014e	51		 push	 ecx
  0014f	51		 push	 ecx
  00150	8b 4d 0c	 mov	 ecx, DWORD PTR _indexFile$[ebp]
  00153	8b c4		 mov	 eax, esp
  00155	89 a5 e8 fd ff
	ff		 mov	 DWORD PTR $T119406[ebp], esp
  0015b	89 18		 mov	 DWORD PTR [eax], ebx
  0015d	89 58 04	 mov	 DWORD PTR [eax+4], ebx
  00160	e8 00 00 00 00	 call	 ?seekp@?$basic_ostream@DV?$char_traits@D@_STL@@@_STL@@QAEAAV12@V?$fpos@H@2@@Z ; _STL::basic_ostream<char,_STL::char_traits<char> >::seekp

; 484  : 		indexFile.write((const char *)&realSize, 2);

  00165	8b 4d 0c	 mov	 ecx, DWORD PTR _indexFile$[ebp]
  00168	6a 02		 push	 2
  0016a	8d 85 ec fd ff
	ff		 lea	 eax, DWORD PTR _realSize$[ebp]
  00170	50		 push	 eax
  00171	e8 00 00 00 00	 call	 ?write@?$basic_ostream@DV?$char_traits@D@_STL@@@_STL@@QAEAAV12@PBDH@Z ; _STL::basic_ostream<char,_STL::char_traits<char> >::write
$L119568:

; 485  : 	}
; 486  : 
; 487  : 	//--------------------------------------------------
; 488  : 	// index 
; 489  : 	//--------------------------------------------------
; 490  : 	for (i=0; i < (int)vIndex.size(); i++)

  00176	8b 85 d8 fd ff
	ff		 mov	 eax, DWORD PTR _vIndex$[ebp+4]
  0017c	2b 85 d4 fd ff
	ff		 sub	 eax, DWORD PTR _vIndex$[ebp]
  00182	33 f6		 xor	 esi, esi
  00184	a9 fc ff ff ff	 test	 eax, -4			; fffffffcH
  00189	7e 28		 jle	 SHORT $L112918
$L112916:
  0018b	8b 85 d4 fd ff
	ff		 mov	 eax, DWORD PTR _vIndex$[ebp]

; 491  : 	{
; 492  : 		indexFile.write((const char*)&vIndex[i], 4);

  00191	8b 4d 0c	 mov	 ecx, DWORD PTR _indexFile$[ebp]
  00194	6a 04		 push	 4
  00196	8d 04 b0	 lea	 eax, DWORD PTR [eax+esi*4]
  00199	50		 push	 eax
  0019a	e8 00 00 00 00	 call	 ?write@?$basic_ostream@DV?$char_traits@D@_STL@@@_STL@@QAEAAV12@PBDH@Z ; _STL::basic_ostream<char,_STL::char_traits<char> >::write
  0019f	8b 85 d8 fd ff
	ff		 mov	 eax, DWORD PTR _vIndex$[ebp+4]
  001a5	2b 85 d4 fd ff
	ff		 sub	 eax, DWORD PTR _vIndex$[ebp]
  001ab	46		 inc	 esi
  001ac	c1 f8 02	 sar	 eax, 2
  001af	3b f0		 cmp	 esi, eax
  001b1	7c d8		 jl	 SHORT $L112916
$L112918:

; 493  : 	}
; 494  : 	
; 495  : //	delete [] pIndex;
; 496  : 	
; 497  : //	indexFile.close();
; 498  : //	dataFile.close();
; 499  : 
; 500  : 	if(m_bRunningLoad)

  001b3	38 5f 0a	 cmp	 BYTE PTR [edi+10], bl
  001b6	74 07		 je	 SHORT $L112920

; 501  : 	{
; 502  : 		FinishRunningLoad();

  001b8	8b 07		 mov	 eax, DWORD PTR [edi]
  001ba	8b cf		 mov	 ecx, edi
  001bc	ff 50 34	 call	 DWORD PTR [eax+52]
$L112920:

; 503  : 	}
; 504  : 
; 505  : 	return true;

  001bf	83 4d fc ff	 or	 DWORD PTR __$EHRec$[ebp+8], -1
  001c3	8d 8d d4 fd ff
	ff		 lea	 ecx, DWORD PTR _vIndex$[ebp]
  001c9	e8 00 00 00 00	 call	 ??1?$vector@KV?$allocator@K@_STL@@@_STL@@QAE@XZ ; _STL::vector<unsigned long,_STL::allocator<unsigned long> >::~vector<unsigned long,_STL::allocator<unsigned long> >

; 506  : }

  001ce	8b 4d f4	 mov	 ecx, DWORD PTR __$EHRec$[ebp]
  001d1	64 89 0d 00 00
	00 00		 mov	 DWORD PTR fs:__except_list, ecx
  001d8	8b 4d f0	 mov	 ecx, DWORD PTR __$ArrayPad$[ebp]
  001db	b0 01		 mov	 al, 1
  001dd	e8 00 00 00 00	 call	 @__security_check_cookie@4
  001e2	5f		 pop	 edi
  001e3	5e		 pop	 esi
  001e4	5b		 pop	 ebx
  001e5	c9		 leave
  001e6	c2 08 00	 ret	 8
_TEXT	ENDS
;	COMDAT text$x
text$x	SEGMENT
$L119408:
  00000	8d 8d e3 fd ff
	ff		 lea	 ecx, DWORD PTR $T119403[ebp]
  00006	e9 00 00 00 00	 jmp	 ??1?$allocator@K@_STL@@QAE@XZ ; _STL::allocator<unsigned long>::~allocator<unsigned long>
$L119409:
  0000b	8d 8d d4 fd ff
	ff		 lea	 ecx, DWORD PTR _vIndex$[ebp]
  00011	e9 00 00 00 00	 jmp	 ??1?$vector@KV?$allocator@K@_STL@@@_STL@@QAE@XZ ; _STL::vector<unsigned long,_STL::allocator<unsigned long> >::~vector<unsigned long,_STL::allocator<unsigned long> >
__ehhandler$?SaveToFile@?$CTypePack@VCShadowSprite@@@@UAE_NAAV?$basic_ofstream@DV?$char_traits@D@_STL@@@_STL@@0@Z:
  00016	b8 00 00 00 00	 mov	 eax, OFFSET FLAT:$T119563
  0001b	e9 00 00 00 00	 jmp	 ___CxxFrameHandler
text$x	ENDS
?SaveToFile@?$CTypePack@VCShadowSprite@@@@UAE_NAAV?$basic_ofstream@DV?$char_traits@D@_STL@@@_STL@@0@Z ENDP ; CTypePack<CShadowSprite>::SaveToFile
; Function compile flags: /Ogsy
; File c:\stlport-4.6.1\stlport\stl\_alloc.h
;	COMDAT ??1?$allocator@K@_STL@@QAE@XZ
_TEXT	SEGMENT
??1?$allocator@K@_STL@@QAE@XZ PROC NEAR			; _STL::allocator<unsigned long>::~allocator<unsigned long>, COMDAT
; _this$ = ecx

; 350  :   ~allocator() _STLP_NOTHROW {}

  00000	c3		 ret	 0
??1?$allocator@K@_STL@@QAE@XZ ENDP			; _STL::allocator<unsigned long>::~allocator<unsigned long>
; Function compile flags: /Ogsy
; File c:\stlport-4.6.1\stlport\stl\_ostream.h
_TEXT	ENDS
;	COMDAT ?tellp@?$basic_ostream@DV?$char_traits@D@_STL@@@_STL@@QAE?AV?$fpos@H@2@XZ
_TEXT	SEGMENT
$T119584 = -8						; size = 8
$T119583 = -8						; size = 8
___$ReturnUdt$ = 8					; size = 4
?tellp@?$basic_ostream@DV?$char_traits@D@_STL@@@_STL@@QAE?AV?$fpos@H@2@XZ PROC NEAR ; _STL::basic_ostream<char,_STL::char_traits<char> >::tellp, COMDAT
; _this$ = ecx

; 127  :   pos_type tellp() {

  00000	55		 push	 ebp
  00001	8b ec		 mov	 ebp, esp
  00003	51		 push	 ecx
  00004	51		 push	 ecx

; 128  :     return this->rdbuf() && !this->fail()
; 129  :       ? this->rdbuf()->pubseekoff(0, ios_base::cur, ios_base::out)
; 130  :       : pos_type(-1);

  00005	8b 01		 mov	 eax, DWORD PTR [ecx]
  00007	8b 40 04	 mov	 eax, DWORD PTR [eax+4]
  0000a	03 c1		 add	 eax, ecx
  0000c	8b 48 58	 mov	 ecx, DWORD PTR [eax+88]
  0000f	85 c9		 test	 ecx, ecx
  00011	74 17		 je	 SHORT $L119582
  00013	f6 40 08 05	 test	 BYTE PTR [eax+8], 5
  00017	75 11		 jne	 SHORT $L119582
  00019	8b 01		 mov	 eax, DWORD PTR [ecx]
  0001b	6a 10		 push	 16			; 00000010H
  0001d	6a 02		 push	 2
  0001f	6a 00		 push	 0
  00021	8d 55 f8	 lea	 edx, DWORD PTR $T119583[ebp]
  00024	52		 push	 edx
  00025	ff 50 08	 call	 DWORD PTR [eax+8]
  00028	eb 08		 jmp	 SHORT $L119603
$L119582:
  0002a	83 4d f8 ff	 or	 DWORD PTR $T119584[ebp], -1
  0002e	83 65 fc 00	 and	 DWORD PTR $T119584[ebp+4], 0
$L119603:
  00032	8b 45 08	 mov	 eax, DWORD PTR ___$ReturnUdt$[ebp]
  00035	8d 4d f8	 lea	 ecx, DWORD PTR $T119584[ebp]
  00038	8b 11		 mov	 edx, DWORD PTR [ecx]
  0003a	8b 49 04	 mov	 ecx, DWORD PTR [ecx+4]
  0003d	89 10		 mov	 DWORD PTR [eax], edx
  0003f	89 48 04	 mov	 DWORD PTR [eax+4], ecx

; 131  :   }

  00042	c9		 leave
  00043	c2 04 00	 ret	 4
?tellp@?$basic_ostream@DV?$char_traits@D@_STL@@@_STL@@QAE?AV?$fpos@H@2@XZ ENDP ; _STL::basic_ostream<char,_STL::char_traits<char> >::tellp
; Function compile flags: /Ogsy
_TEXT	ENDS
;	COMDAT ?seekp@?$basic_ostream@DV?$char_traits@D@_STL@@@_STL@@QAEAAV12@V?$fpos@H@2@@Z
_TEXT	SEGMENT
$T119606 = 8						; size = 8
___pos$ = 8						; size = 8
?seekp@?$basic_ostream@DV?$char_traits@D@_STL@@@_STL@@QAEAAV12@V?$fpos@H@2@@Z PROC NEAR ; _STL::basic_ostream<char,_STL::char_traits<char> >::seekp, COMDAT
; _this$ = ecx

; 133  :   _Self& seekp(pos_type __pos) {

  00000	55		 push	 ebp
  00001	8b ec		 mov	 ebp, esp
  00003	56		 push	 esi
  00004	8b f1		 mov	 esi, ecx

; 134  :     if (this->rdbuf() && !this->fail())

  00006	8b 06		 mov	 eax, DWORD PTR [esi]
  00008	8b 48 04	 mov	 ecx, DWORD PTR [eax+4]
  0000b	03 ce		 add	 ecx, esi
  0000d	83 79 58 00	 cmp	 DWORD PTR [ecx+88], 0
  00011	74 1e		 je	 SHORT $L119619
  00013	f6 41 08 05	 test	 BYTE PTR [ecx+8], 5
  00017	75 18		 jne	 SHORT $L119619

; 135  :       this->rdbuf()->pubseekpos(__pos, ios_base::out);

  00019	8b 40 04	 mov	 eax, DWORD PTR [eax+4]
  0001c	8b 4c 30 58	 mov	 ecx, DWORD PTR [eax+esi+88]
  00020	8b 01		 mov	 eax, DWORD PTR [ecx]
  00022	6a 10		 push	 16			; 00000010H
  00024	ff 75 0c	 push	 DWORD PTR ___pos$[ebp+4]
  00027	8d 55 08	 lea	 edx, DWORD PTR $T119606[ebp]
  0002a	ff 75 08	 push	 DWORD PTR ___pos$[ebp]
  0002d	52		 push	 edx
  0002e	ff 50 0c	 call	 DWORD PTR [eax+12]
$L119619:

; 136  :     return *this;

  00031	8b c6		 mov	 eax, esi
  00033	5e		 pop	 esi

; 137  :   }

  00034	5d		 pop	 ebp
  00035	c2 08 00	 ret	 8
?seekp@?$basic_ostream@DV?$char_traits@D@_STL@@@_STL@@QAEAAV12@V?$fpos@H@2@@Z ENDP ; _STL::basic_ostream<char,_STL::char_traits<char> >::seekp
; Function compile flags: /Ogsy
; File c:\stlport-4.6.1\stlport\stl\_alloc.h
_TEXT	ENDS
;	COMDAT ??0?$_STLP_alloc_proxy@PAKKV?$allocator@K@_STL@@@_STL@@QAE@ABV?$allocator@K@1@PAK@Z
_TEXT	SEGMENT
___a$ = 8						; size = 4
___p$ = 12						; size = 4
??0?$_STLP_alloc_proxy@PAKKV?$allocator@K@_STL@@@_STL@@QAE@ABV?$allocator@K@1@PAK@Z PROC NEAR ; _STL::_STLP_alloc_proxy<unsigned long *,unsigned long,_STL::allocator<unsigned long> >::_STLP_alloc_proxy<unsigned long *,unsigned long,_STL::allocator<unsigned long> >, COMDAT
; _this$ = ecx

; 487  :   inline _STLP_alloc_proxy(const _MaybeReboundAlloc& __a, _Value __p) : _MaybeReboundAlloc(__a), _M_data(__p) {}

  00000	8b c1		 mov	 eax, ecx
  00002	8b 4c 24 08	 mov	 ecx, DWORD PTR ___p$[esp-4]
  00006	89 08		 mov	 DWORD PTR [eax], ecx
  00008	c2 08 00	 ret	 8
??0?$_STLP_alloc_proxy@PAKKV?$allocator@K@_STL@@@_STL@@QAE@ABV?$allocator@K@1@PAK@Z ENDP ; _STL::_STLP_alloc_proxy<unsigned long *,unsigned long,_STL::allocator<unsigned long> >::_STLP_alloc_proxy<unsigned long *,unsigned long,_STL::allocator<unsigned long> >
_TEXT	ENDS
PUBLIC	??1?$_Vector_base@KV?$allocator@K@_STL@@@_STL@@QAE@XZ ; _STL::_Vector_base<unsigned long,_STL::allocator<unsigned long> >::~_Vector_base<unsigned long,_STL::allocator<unsigned long> >
; Function compile flags: /Ogsy
; File c:\stlport-4.6.1\stlport\stl\_vector.h
;	COMDAT ??1?$vector@KV?$allocator@K@_STL@@@_STL@@QAE@XZ
_TEXT	SEGMENT
??1?$vector@KV?$allocator@K@_STL@@@_STL@@QAE@XZ PROC NEAR ; _STL::vector<unsigned long,_STL::allocator<unsigned long> >::~vector<unsigned long,_STL::allocator<unsigned long> >, COMDAT
; _this$ = ecx

; 258  :   ~vector() { _Destroy(this->_M_start, this->_M_finish); }

  00000	e9 00 00 00 00	 jmp	 ??1?$_Vector_base@KV?$allocator@K@_STL@@@_STL@@QAE@XZ ; _STL::_Vector_base<unsigned long,_STL::allocator<unsigned long> >::~_Vector_base<unsigned long,_STL::allocator<unsigned long> >
??1?$vector@KV?$allocator@K@_STL@@@_STL@@QAE@XZ ENDP	; _STL::vector<unsigned long,_STL::allocator<unsigned long> >::~vector<unsigned long,_STL::allocator<unsigned long> >
_TEXT	ENDS
PUBLIC	??1?$_STLP_alloc_proxy@PAKKV?$allocator@K@_STL@@@_STL@@QAE@XZ ; _STL::_STLP_alloc_proxy<unsigned long *,unsigned long,_STL::allocator<unsigned long> >::~_STLP_alloc_proxy<unsigned long *,unsigned long,_STL::allocator<unsigned long> >
;	COMDAT xdata$x
; File c:\stlport-4.6.1\stlport\stl\_alloc.h
xdata$x	SEGMENT
$T119687 DD	0ffffffffH
	DD	FLAT:$L119669
$T119685 DD	019930520H
	DD	01H
	DD	FLAT:$T119687
	DD	2 DUP(00H)
	DD	2 DUP(00H)
; Function compile flags: /Ogsy
; File c:\stlport-4.6.1\stlport\stl\_vector.h
xdata$x	ENDS
;	COMDAT ??1?$_Vector_base@KV?$allocator@K@_STL@@@_STL@@QAE@XZ
_TEXT	SEGMENT
_this$ = -16						; size = 4
__$EHRec$ = -12						; size = 12
??1?$_Vector_base@KV?$allocator@K@_STL@@@_STL@@QAE@XZ PROC NEAR ; _STL::_Vector_base<unsigned long,_STL::allocator<unsigned long> >::~_Vector_base<unsigned long,_STL::allocator<unsigned long> >, COMDAT
; _this$ = ecx

; 83   :   ~_Vector_base() { 

  00000	b8 00 00 00 00	 mov	 eax, __ehhandler$??1?$_Vector_base@KV?$allocator@K@_STL@@@_STL@@QAE@XZ
  00005	e8 00 00 00 00	 call	 __EH_prolog
  0000a	51		 push	 ecx
  0000b	89 4d f0	 mov	 DWORD PTR _this$[ebp], ecx

; 84   :     if (_M_start !=0) 

  0000e	8b 01		 mov	 eax, DWORD PTR [ecx]
  00010	83 65 fc 00	 and	 DWORD PTR __$EHRec$[ebp+8], 0
  00014	85 c0		 test	 eax, eax
  00016	74 14		 je	 SHORT $L119672

; 85   :     _M_end_of_storage.deallocate(_M_start, _M_end_of_storage._M_data - _M_start); 

  00018	8b 49 08	 mov	 ecx, DWORD PTR [ecx+8]
  0001b	2b c8		 sub	 ecx, eax
  0001d	c1 f9 02	 sar	 ecx, 2
  00020	c1 e1 02	 shl	 ecx, 2
  00023	51		 push	 ecx
  00024	50		 push	 eax
  00025	e8 00 00 00 00	 call	 ?deallocate@?$__node_alloc@$00$0A@@_STL@@SAXPAXI@Z ; _STL::__node_alloc<1,0>::deallocate
  0002a	59		 pop	 ecx
  0002b	59		 pop	 ecx
$L119672:

; 86   :   }

  0002c	8b 4d f4	 mov	 ecx, DWORD PTR __$EHRec$[ebp]
  0002f	64 89 0d 00 00
	00 00		 mov	 DWORD PTR fs:__except_list, ecx
  00036	c9		 leave
  00037	c3		 ret	 0
_TEXT	ENDS
;	COMDAT text$x
text$x	SEGMENT
$L119669:
  00000	8b 4d f0	 mov	 ecx, DWORD PTR _this$[ebp]
  00003	83 c1 08	 add	 ecx, 8
  00006	e9 00 00 00 00	 jmp	 ??1?$_STLP_alloc_proxy@PAKKV?$allocator@K@_STL@@@_STL@@QAE@XZ
__ehhandler$??1?$_Vector_base@KV?$allocator@K@_STL@@@_STL@@QAE@XZ:
  0000b	b8 00 00 00 00	 mov	 eax, OFFSET FLAT:$T119685
  00010	e9 00 00 00 00	 jmp	 ___CxxFrameHandler
text$x	ENDS
??1?$_Vector_base@KV?$allocator@K@_STL@@@_STL@@QAE@XZ ENDP ; _STL::_Vector_base<unsigned long,_STL::allocator<unsigned long> >::~_Vector_base<unsigned long,_STL::allocator<unsigned long> >
; Function compile flags: /Ogsy
;	COMDAT ??1?$_STLP_alloc_proxy@PAKKV?$allocator@K@_STL@@@_STL@@QAE@XZ
_TEXT	SEGMENT
??1?$_STLP_alloc_proxy@PAKKV?$allocator@K@_STL@@@_STL@@QAE@XZ PROC NEAR ; _STL::_STLP_alloc_proxy<unsigned long *,unsigned long,_STL::allocator<unsigned long> >::~_STLP_alloc_proxy<unsigned long *,unsigned long,_STL::allocator<unsigned long> >, COMDAT
; _this$ = ecx
  00000	c3		 ret	 0
??1?$_STLP_alloc_proxy@PAKKV?$allocator@K@_STL@@@_STL@@QAE@XZ ENDP ; _STL::_STLP_alloc_proxy<unsigned long *,unsigned long,_STL::allocator<unsigned long> >::~_STLP_alloc_proxy<unsigned long *,unsigned long,_STL::allocator<unsigned long> >
_TEXT	ENDS
PUBLIC	??1sentry@?$basic_ostream@DV?$char_traits@D@_STL@@@_STL@@QAE@XZ ; _STL::basic_ostream<char,_STL::char_traits<char> >::sentry::~sentry
PUBLIC	??$_M_init@DV?$char_traits@D@_STL@@@_STL@@YA_NAAV?$basic_ostream@DV?$char_traits@D@_STL@@@0@@Z ; _STL::_M_init<char,_STL::char_traits<char> >
;	COMDAT xdata$x
; File c:\stlport-4.6.1\stlport\stl\_ios_base.h
xdata$x	SEGMENT
$T119775 DD	0ffffffffH
	DD	FLAT:$L119701
	DD	00H
	DD	00H
	DD	00H
	DD	00H
$T119777 DD	00H
	DD	00H
	DD	00H
	DD	FLAT:$L119700
$T119776 DD	01H
	DD	01H
	DD	02H
	DD	01H
	DD	FLAT:$T119777
$T119771 DD	019930520H
	DD	03H
	DD	FLAT:$T119775
	DD	01H
	DD	FLAT:$T119776
	DD	2 DUP(00H)
; Function compile flags: /Ogsy
; File c:\stlport-4.6.1\stlport\stl\_ostream.c
xdata$x	ENDS
;	COMDAT ?write@?$basic_ostream@DV?$char_traits@D@_STL@@@_STL@@QAEAAV12@PBDH@Z
_TEXT	SEGMENT
___sentry$ = -32					; size = 8
_this$ = -24						; size = 4
___failed$ = -17					; size = 1
__$EHRec$ = -16						; size = 16
___s$ = 8						; size = 4
___n$ = 12						; size = 4
?write@?$basic_ostream@DV?$char_traits@D@_STL@@@_STL@@QAEAAV12@PBDH@Z PROC NEAR ; _STL::basic_ostream<char,_STL::char_traits<char> >::write, COMDAT
; _this$ = ecx

; 359  : {

  00000	b8 00 00 00 00	 mov	 eax, __ehhandler$?write@?$basic_ostream@DV?$char_traits@D@_STL@@@_STL@@QAEAAV12@PBDH@Z
  00005	e8 00 00 00 00	 call	 __EH_prolog
  0000a	83 ec 14	 sub	 esp, 20			; 00000014H
  0000d	53		 push	 ebx
  0000e	56		 push	 esi
  0000f	8b f1		 mov	 esi, ecx
  00011	57		 push	 edi
  00012	89 65 f0	 mov	 DWORD PTR __$EHRec$[ebp], esp

; 360  :   sentry __sentry(*this);

  00015	56		 push	 esi
  00016	89 75 e8	 mov	 DWORD PTR _this$[ebp], esi
  00019	89 75 e0	 mov	 DWORD PTR ___sentry$[ebp], esi
  0001c	e8 00 00 00 00	 call	 ??$_M_init@DV?$char_traits@D@_STL@@@_STL@@YA_NAAV?$basic_ostream@DV?$char_traits@D@_STL@@@0@@Z ; _STL::_M_init<char,_STL::char_traits<char> >
  00021	59		 pop	 ecx
  00022	88 45 e4	 mov	 BYTE PTR ___sentry$[ebp+4], al
  00025	83 65 fc 00	 and	 DWORD PTR __$EHRec$[ebp+12], 0

; 361  :   bool __failed = true;
; 362  : 
; 363  :   if (__sentry) {

  00029	84 c0		 test	 al, al
  0002b	c6 45 ef 01	 mov	 BYTE PTR ___failed$[ebp], 1
  0002f	74 47		 je	 SHORT $L113984

; 364  :     _STLP_TRY {
; 365  :       __failed = this->rdbuf()->sputn(__s, __n) != __n;

  00031	8b 06		 mov	 eax, DWORD PTR [esi]
  00033	8b 40 04	 mov	 eax, DWORD PTR [eax+4]
  00036	ff 75 0c	 push	 DWORD PTR ___n$[ebp]
  00039	8b 4c 30 58	 mov	 ecx, DWORD PTR [eax+esi+88]
  0003d	ff 75 08	 push	 DWORD PTR ___s$[ebp]
  00040	8b 01		 mov	 eax, DWORD PTR [ecx]
  00042	c6 45 fc 01	 mov	 BYTE PTR __$EHRec$[ebp+12], 1
  00046	ff 50 28	 call	 DWORD PTR [eax+40]
  00049	3b 45 0c	 cmp	 eax, DWORD PTR ___n$[ebp]
  0004c	0f 95 45 ef	 setne	 BYTE PTR ___failed$[ebp]
  00050	eb 26		 jmp	 SHORT $L113984
$L119700:

; 366  :     }
; 367  :     _STLP_CATCH_ALL {
; 368  :       this->_M_handle_exception(ios_base::badbit);

  00052	8b 4d e8	 mov	 ecx, DWORD PTR _this$[ebp]
  00055	8b 01		 mov	 eax, DWORD PTR [ecx]
  00057	8b 40 04	 mov	 eax, DWORD PTR [eax+4]
  0005a	03 c1		 add	 eax, ecx
  0005c	83 48 08 01	 or	 DWORD PTR [eax+8], 1
  00060	f6 40 14 01	 test	 BYTE PTR [eax+20], 1
  00064	74 09		 je	 SHORT $L119725
  00066	6a 00		 push	 0
  00068	6a 00		 push	 0
  0006a	e8 00 00 00 00	 call	 __CxxThrowException@8
$L119778:
$L119725:

; 369  :     }

  0006f	b8 00 00 00 00	 mov	 eax, $L119772
  00074	c3		 ret	 0
$L119772:
  00075	8b 75 e8	 mov	 esi, DWORD PTR _this$[ebp]
$L113984:
  00078	83 65 fc 00	 and	 DWORD PTR __$EHRec$[ebp+12], 0

; 370  :   }
; 371  : 
; 372  :   if (__failed)

  0007c	80 7d ef 00	 cmp	 BYTE PTR ___failed$[ebp], 0
  00080	74 13		 je	 SHORT $L119738

; 373  :     this->setstate(ios_base::badbit);

  00082	8b 06		 mov	 eax, DWORD PTR [esi]
  00084	8b 48 04	 mov	 ecx, DWORD PTR [eax+4]
  00087	03 ce		 add	 ecx, esi
  00089	8b 41 08	 mov	 eax, DWORD PTR [ecx+8]
  0008c	83 c8 01	 or	 eax, 1
  0008f	50		 push	 eax
  00090	e8 00 00 00 00	 call	 ?clear@?$basic_ios@DV?$char_traits@D@_STL@@@_STL@@QAEXH@Z ; _STL::basic_ios<char,_STL::char_traits<char> >::clear
$L119738:

; 374  : 
; 375  :   return *this;

  00095	83 4d fc ff	 or	 DWORD PTR __$EHRec$[ebp+12], -1
  00099	8d 4d e0	 lea	 ecx, DWORD PTR ___sentry$[ebp]
  0009c	e8 00 00 00 00	 call	 ??1sentry@?$basic_ostream@DV?$char_traits@D@_STL@@@_STL@@QAE@XZ ; _STL::basic_ostream<char,_STL::char_traits<char> >::sentry::~sentry

; 376  : }

  000a1	8b 4d f4	 mov	 ecx, DWORD PTR __$EHRec$[ebp+4]
  000a4	5f		 pop	 edi
  000a5	8b c6		 mov	 eax, esi
  000a7	5e		 pop	 esi
  000a8	64 89 0d 00 00
	00 00		 mov	 DWORD PTR fs:__except_list, ecx
  000af	5b		 pop	 ebx
  000b0	c9		 leave
  000b1	c2 08 00	 ret	 8
$L119774:
_TEXT	ENDS
;	COMDAT text$x
text$x	SEGMENT
$L119701:
  00000	8d 4d e0	 lea	 ecx, DWORD PTR ___sentry$[ebp]
  00003	e9 00 00 00 00	 jmp	 ??1sentry@?$basic_ostream@DV?$char_traits@D@_STL@@@_STL@@QAE@XZ ; _STL::basic_ostream<char,_STL::char_traits<char> >::sentry::~sentry
__ehhandler$?write@?$basic_ostream@DV?$char_traits@D@_STL@@@_STL@@QAEAAV12@PBDH@Z:
  00008	b8 00 00 00 00	 mov	 eax, OFFSET FLAT:$T119771
  0000d	e9 00 00 00 00	 jmp	 ___CxxFrameHandler
text$x	ENDS
?write@?$basic_ostream@DV?$char_traits@D@_STL@@@_STL@@QAEAAV12@PBDH@Z ENDP ; _STL::basic_ostream<char,_STL::char_traits<char> >::write
PUBLIC	?flush@?$basic_ostream@DV?$char_traits@D@_STL@@@_STL@@QAEAAV12@XZ ; _STL::basic_ostream<char,_STL::char_traits<char> >::flush
; Function compile flags: /Ogsy
;	COMDAT ??$_M_init@DV?$char_traits@D@_STL@@@_STL@@YA_NAAV?$basic_ostream@DV?$char_traits@D@_STL@@@0@@Z
_TEXT	SEGMENT
___str$ = 8						; size = 4
??$_M_init@DV?$char_traits@D@_STL@@@_STL@@YA_NAAV?$basic_ostream@DV?$char_traits@D@_STL@@@0@@Z PROC NEAR ; _STL::_M_init<char,_STL::char_traits<char> >, COMDAT

; 37   : _M_init(basic_ostream<_CharT, _Traits>& __str) {

  00000	56		 push	 esi

; 38   :   if (__str.good()) {

  00001	8b 74 24 08	 mov	 esi, DWORD PTR ___str$[esp]
  00005	8b 06		 mov	 eax, DWORD PTR [esi]
  00007	8b 40 04	 mov	 eax, DWORD PTR [eax+4]
  0000a	8d 0c 30	 lea	 ecx, DWORD PTR [eax+esi]
  0000d	83 79 08 00	 cmp	 DWORD PTR [ecx+8], 0
  00011	75 36		 jne	 SHORT $L114356

; 39   :     // boris : check if this is needed !
; 40   :     if (!__str.rdbuf())

  00013	83 79 58 00	 cmp	 DWORD PTR [ecx+88], 0
  00017	75 0c		 jne	 SHORT $L119795

; 41   :       __str.setstate(ios_base::badbit);

  00019	8b 41 08	 mov	 eax, DWORD PTR [ecx+8]
  0001c	83 c8 01	 or	 eax, 1
  0001f	50		 push	 eax
  00020	e8 00 00 00 00	 call	 ?clear@?$basic_ios@DV?$char_traits@D@_STL@@@_STL@@QAEXH@Z ; _STL::basic_ios<char,_STL::char_traits<char> >::clear
$L119795:

; 42   :     if (__str.tie())

  00025	8b 06		 mov	 eax, DWORD PTR [esi]
  00027	8b 40 04	 mov	 eax, DWORD PTR [eax+4]
  0002a	8b 4c 30 5c	 mov	 ecx, DWORD PTR [eax+esi+92]
  0002e	85 c9		 test	 ecx, ecx
  00030	74 05		 je	 SHORT $L114358

; 43   :       __str.tie()->flush();

  00032	e8 00 00 00 00	 call	 ?flush@?$basic_ostream@DV?$char_traits@D@_STL@@@_STL@@QAEAAV12@XZ ; _STL::basic_ostream<char,_STL::char_traits<char> >::flush
$L114358:

; 44   :     return __str.good();

  00037	8b 06		 mov	 eax, DWORD PTR [esi]
  00039	8b 40 04	 mov	 eax, DWORD PTR [eax+4]
  0003c	33 c9		 xor	 ecx, ecx
  0003e	39 4c 30 08	 cmp	 DWORD PTR [eax+esi+8], ecx
  00042	5e		 pop	 esi
  00043	0f 94 c1	 sete	 cl
  00046	8a c1		 mov	 al, cl

; 47   : }

  00048	c3		 ret	 0
$L114356:

; 45   :   } else
; 46   :     return false;

  00049	32 c0		 xor	 al, al
  0004b	5e		 pop	 esi

; 47   : }

  0004c	c3		 ret	 0
??$_M_init@DV?$char_traits@D@_STL@@@_STL@@YA_NAAV?$basic_ostream@DV?$char_traits@D@_STL@@@0@@Z ENDP ; _STL::_M_init<char,_STL::char_traits<char> >
; Function compile flags: /Ogsy
; File c:\stlport-4.6.1\stlport\stl\_ostream.h
_TEXT	ENDS
;	COMDAT ?flush@?$basic_ostream@DV?$char_traits@D@_STL@@@_STL@@QAEAAV12@XZ
_TEXT	SEGMENT
?flush@?$basic_ostream@DV?$char_traits@D@_STL@@@_STL@@QAEAAV12@XZ PROC NEAR ; _STL::basic_ostream<char,_STL::char_traits<char> >::flush, COMDAT
; _this$ = ecx

; 120  :   _Self& flush() {

  00000	56		 push	 esi
  00001	8b f1		 mov	 esi, ecx

; 121  :     if (this->rdbuf())

  00003	8b 06		 mov	 eax, DWORD PTR [esi]
  00005	8b 40 04	 mov	 eax, DWORD PTR [eax+4]
  00008	8b 4c 30 58	 mov	 ecx, DWORD PTR [eax+esi+88]
  0000c	85 c9		 test	 ecx, ecx
  0000e	74 1d		 je	 SHORT $L119855

; 122  :       if (this->rdbuf()->pubsync() == -1)

  00010	8b 01		 mov	 eax, DWORD PTR [ecx]
  00012	ff 50 10	 call	 DWORD PTR [eax+16]
  00015	83 f8 ff	 cmp	 eax, -1
  00018	75 13		 jne	 SHORT $L119855

; 123  :         this->setstate(ios_base::badbit);

  0001a	8b 06		 mov	 eax, DWORD PTR [esi]
  0001c	8b 48 04	 mov	 ecx, DWORD PTR [eax+4]
  0001f	03 ce		 add	 ecx, esi
  00021	8b 41 08	 mov	 eax, DWORD PTR [ecx+8]
  00024	83 c8 01	 or	 eax, 1
  00027	50		 push	 eax
  00028	e8 00 00 00 00	 call	 ?clear@?$basic_ios@DV?$char_traits@D@_STL@@@_STL@@QAEXH@Z ; _STL::basic_ios<char,_STL::char_traits<char> >::clear
$L119855:

; 124  :     return *this;

  0002d	8b c6		 mov	 eax, esi
  0002f	5e		 pop	 esi

; 125  :   }

  00030	c3		 ret	 0
?flush@?$basic_ostream@DV?$char_traits@D@_STL@@@_STL@@QAEAAV12@XZ ENDP ; _STL::basic_ostream<char,_STL::char_traits<char> >::flush
; Function compile flags: /Ogsy
_TEXT	ENDS
;	COMDAT ??1sentry@?$basic_ostream@DV?$char_traits@D@_STL@@@_STL@@QAE@XZ
_TEXT	SEGMENT
??1sentry@?$basic_ostream@DV?$char_traits@D@_STL@@@_STL@@QAE@XZ PROC NEAR ; _STL::basic_ostream<char,_STL::char_traits<char> >::sentry::~sentry, COMDAT
; _this$ = ecx

; 169  :         if (_M_str.flags() & ios_base::unitbuf)

  00000	8b 09		 mov	 ecx, DWORD PTR [ecx]
  00002	8b 01		 mov	 eax, DWORD PTR [ecx]
  00004	8b 40 04	 mov	 eax, DWORD PTR [eax+4]
  00007	f6 44 08 05 20	 test	 BYTE PTR [eax+ecx+5], 32 ; 00000020H
  0000c	74 05		 je	 SHORT $L114173

; 170  : # ifndef _STLP_INCOMPLETE_EXCEPTION_HEADER 
; 171  :           if (!_STLP_VENDOR_EXCEPT_STD::uncaught_exception())
; 172  : # endif
; 173  :             _M_str.flush();

  0000e	e9 00 00 00 00	 jmp	 ?flush@?$basic_ostream@DV?$char_traits@D@_STL@@@_STL@@QAEAAV12@XZ ; _STL::basic_ostream<char,_STL::char_traits<char> >::flush
$L114173:

; 174  :       }

  00013	c3		 ret	 0
??1sentry@?$basic_ostream@DV?$char_traits@D@_STL@@@_STL@@QAE@XZ ENDP ; _STL::basic_ostream<char,_STL::char_traits<char> >::sentry::~sentry
_TEXT	ENDS
PUBLIC	?_M_insert_overflow@?$vector@KV?$allocator@K@_STL@@@_STL@@IAEXPAKABKABU__true_type@2@I_N@Z ; _STL::vector<unsigned long,_STL::allocator<unsigned long> >::_M_insert_overflow
; Function compile flags: /Ogsy
; File c:\stlport-4.6.1\stlport\stl\_vector.h
;	COMDAT ?push_back@?$vector@KV?$allocator@K@_STL@@@_STL@@QAEXABK@Z
_TEXT	SEGMENT
$T119867 = -1						; size = 1
___x$ = 8						; size = 4
?push_back@?$vector@KV?$allocator@K@_STL@@@_STL@@QAEXABK@Z PROC NEAR ; _STL::vector<unsigned long,_STL::allocator<unsigned long> >::push_back, COMDAT
; _this$ = ecx

; 331  :   void push_back(const _Tp& __x) {

  00000	55		 push	 ebp
  00001	8b ec		 mov	 ebp, esp
  00003	51		 push	 ecx

; 332  :     if (this->_M_finish != this->_M_end_of_storage._M_data) {

  00004	8b 51 04	 mov	 edx, DWORD PTR [ecx+4]
  00007	3b 51 08	 cmp	 edx, DWORD PTR [ecx+8]
  0000a	74 11		 je	 SHORT $L113446

; 333  :       _Construct(this->_M_finish, __x);

  0000c	85 d2		 test	 edx, edx
  0000e	74 07		 je	 SHORT $L119877
  00010	8b 45 08	 mov	 eax, DWORD PTR ___x$[ebp]
  00013	8b 00		 mov	 eax, DWORD PTR [eax]
  00015	89 02		 mov	 DWORD PTR [edx], eax
$L119877:

; 334  :       ++this->_M_finish;

  00017	83 41 04 04	 add	 DWORD PTR [ecx+4], 4

; 335  :     }
; 336  :     else

  0001b	eb 19		 jmp	 SHORT $L113453
$L113446:
  0001d	57		 push	 edi

; 337  :       _M_insert_overflow(this->_M_finish, __x, _IsPODType(), 1UL, true);

  0001e	6a 01		 push	 1
  00020	33 c0		 xor	 eax, eax
  00022	8d 7d ff	 lea	 edi, DWORD PTR $T119867[ebp]
  00025	6a 01		 push	 1
  00027	aa		 stosb
  00028	8d 45 ff	 lea	 eax, DWORD PTR $T119867[ebp]
  0002b	50		 push	 eax
  0002c	ff 75 08	 push	 DWORD PTR ___x$[ebp]
  0002f	52		 push	 edx
  00030	e8 00 00 00 00	 call	 ?_M_insert_overflow@?$vector@KV?$allocator@K@_STL@@@_STL@@IAEXPAKABKABU__true_type@2@I_N@Z ; _STL::vector<unsigned long,_STL::allocator<unsigned long> >::_M_insert_overflow
  00035	5f		 pop	 edi
$L113453:

; 338  :   }

  00036	c9		 leave
  00037	c2 04 00	 ret	 4
?push_back@?$vector@KV?$allocator@K@_STL@@@_STL@@QAEXABK@Z ENDP ; _STL::vector<unsigned long,_STL::allocator<unsigned long> >::push_back
_TEXT	ENDS
PUBLIC	?_M_clear@?$vector@KV?$allocator@K@_STL@@@_STL@@IAEXXZ ; _STL::vector<unsigned long,_STL::allocator<unsigned long> >::_M_clear
; Function compile flags: /Ogsy
;	COMDAT ?_M_insert_overflow@?$vector@KV?$allocator@K@_STL@@@_STL@@IAEXPAKABKABU__true_type@2@I_N@Z
_TEXT	SEGMENT
___old_size$ = -4					; size = 4
___position$ = 8					; size = 4
___x$ = 12						; size = 4
___formal$ = 16						; size = 4
___new_finish$ = 20					; size = 4
___fill_len$ = 20					; size = 4
___atend$ = 24						; size = 1
?_M_insert_overflow@?$vector@KV?$allocator@K@_STL@@@_STL@@IAEXPAKABKABU__true_type@2@I_N@Z PROC NEAR ; _STL::vector<unsigned long,_STL::allocator<unsigned long> >::_M_insert_overflow, COMDAT
; _this$ = ecx

; 151  : 			  size_type __fill_len, bool __atend = false) {

  00000	55		 push	 ebp
  00001	8b ec		 mov	 ebp, esp
  00003	51		 push	 ecx
  00004	53		 push	 ebx
  00005	56		 push	 esi
  00006	8b f1		 mov	 esi, ecx

; 152  :     const size_type __old_size = size();

  00008	8b 46 04	 mov	 eax, DWORD PTR [esi+4]
  0000b	2b 06		 sub	 eax, DWORD PTR [esi]
  0000d	57		 push	 edi
  0000e	c1 f8 02	 sar	 eax, 2

; 153  :     const size_type __len = __old_size + (max)(__old_size, __fill_len);

  00011	3b 45 14	 cmp	 eax, DWORD PTR ___fill_len$[ebp]
  00014	89 45 fc	 mov	 DWORD PTR ___old_size$[ebp], eax
  00017	8d 4d 14	 lea	 ecx, DWORD PTR ___fill_len$[ebp]
  0001a	72 03		 jb	 SHORT $L119895
  0001c	8d 4d fc	 lea	 ecx, DWORD PTR ___old_size$[ebp]
$L119895:
  0001f	8b 39		 mov	 edi, DWORD PTR [ecx]
  00021	03 f8		 add	 edi, eax

; 154  :     
; 155  :     pointer __new_start = this->_M_end_of_storage.allocate(__len);

  00023	74 10		 je	 SHORT $L119902
  00025	8b c7		 mov	 eax, edi
  00027	c1 e0 02	 shl	 eax, 2
  0002a	50		 push	 eax
  0002b	e8 00 00 00 00	 call	 ?allocate@?$__node_alloc@$00$0A@@_STL@@SAPAXI@Z ; _STL::__node_alloc<1,0>::allocate
  00030	59		 pop	 ecx
  00031	8b d8		 mov	 ebx, eax
  00033	eb 02		 jmp	 SHORT $L119903
$L119902:
  00035	33 db		 xor	 ebx, ebx
$L119903:

; 156  :     pointer __new_finish = (pointer)__copy_trivial(this->_M_start, __position, __new_start);

  00037	53		 push	 ebx
  00038	ff 75 08	 push	 DWORD PTR ___position$[ebp]
  0003b	ff 36		 push	 DWORD PTR [esi]
  0003d	e8 00 00 00 00	 call	 ?__copy_trivial@_STL@@YAPAXPBX0PAX@Z ; _STL::__copy_trivial

; 157  :       // handle insertion
; 158  :     __new_finish = fill_n(__new_finish, __fill_len, __x);

  00042	8b 4d 14	 mov	 ecx, DWORD PTR ___fill_len$[ebp]
  00045	83 c4 0c	 add	 esp, 12			; 0000000cH
  00048	85 c9		 test	 ecx, ecx
  0004a	76 0d		 jbe	 SHORT $L119909
$L119907:
  0004c	8b 55 0c	 mov	 edx, DWORD PTR ___x$[ebp]
  0004f	8b 12		 mov	 edx, DWORD PTR [edx]
  00051	89 10		 mov	 DWORD PTR [eax], edx
  00053	83 c0 04	 add	 eax, 4
  00056	49		 dec	 ecx
  00057	75 f3		 jne	 SHORT $L119907
$L119909:

; 159  :     if (!__atend)

  00059	80 7d 18 00	 cmp	 BYTE PTR ___atend$[ebp], 0
  0005d	89 45 14	 mov	 DWORD PTR ___new_finish$[ebp], eax
  00060	75 12		 jne	 SHORT $L113615

; 160  :       // copy remainder
; 161  :       __new_finish = (pointer)__copy_trivial(__position, this->_M_finish, __new_finish);

  00062	50		 push	 eax
  00063	ff 76 04	 push	 DWORD PTR [esi+4]
  00066	ff 75 08	 push	 DWORD PTR ___position$[ebp]
  00069	e8 00 00 00 00	 call	 ?__copy_trivial@_STL@@YAPAXPBX0PAX@Z ; _STL::__copy_trivial
  0006e	83 c4 0c	 add	 esp, 12			; 0000000cH
  00071	89 45 14	 mov	 DWORD PTR ___new_finish$[ebp], eax
$L113615:

; 162  :     _M_clear();

  00074	8b ce		 mov	 ecx, esi
  00076	e8 00 00 00 00	 call	 ?_M_clear@?$vector@KV?$allocator@K@_STL@@@_STL@@IAEXXZ ; _STL::vector<unsigned long,_STL::allocator<unsigned long> >::_M_clear

; 163  :     _M_set(__new_start, __new_finish, __new_start + __len);

  0007b	8b 45 14	 mov	 eax, DWORD PTR ___new_finish$[ebp]
  0007e	89 46 04	 mov	 DWORD PTR [esi+4], eax
  00081	8d 04 bb	 lea	 eax, DWORD PTR [ebx+edi*4]
  00084	5f		 pop	 edi
  00085	89 1e		 mov	 DWORD PTR [esi], ebx
  00087	89 46 08	 mov	 DWORD PTR [esi+8], eax
  0008a	5e		 pop	 esi
  0008b	5b		 pop	 ebx

; 164  :   }

  0008c	c9		 leave
  0008d	c2 14 00	 ret	 20			; 00000014H
?_M_insert_overflow@?$vector@KV?$allocator@K@_STL@@@_STL@@IAEXPAKABKABU__true_type@2@I_N@Z ENDP ; _STL::vector<unsigned long,_STL::allocator<unsigned long> >::_M_insert_overflow
; Function compile flags: /Ogsy
_TEXT	ENDS
;	COMDAT ?_M_clear@?$vector@KV?$allocator@K@_STL@@@_STL@@IAEXXZ
_TEXT	SEGMENT
?_M_clear@?$vector@KV?$allocator@K@_STL@@@_STL@@IAEXXZ PROC NEAR ; _STL::vector<unsigned long,_STL::allocator<unsigned long> >::_M_clear, COMDAT
; _this$ = ecx

; 494  :     //    if (this->_M_start) {
; 495  :     _Destroy(this->_M_start, this->_M_finish);
; 496  :     this->_M_end_of_storage.deallocate(this->_M_start, this->_M_end_of_storage._M_data - this->_M_start);

  00000	8b 01		 mov	 eax, DWORD PTR [ecx]
  00002	85 c0		 test	 eax, eax
  00004	74 14		 je	 SHORT $L119968
  00006	8b 49 08	 mov	 ecx, DWORD PTR [ecx+8]
  00009	2b c8		 sub	 ecx, eax
  0000b	c1 f9 02	 sar	 ecx, 2
  0000e	c1 e1 02	 shl	 ecx, 2
  00011	51		 push	 ecx
  00012	50		 push	 eax
  00013	e8 00 00 00 00	 call	 ?deallocate@?$__node_alloc@$00$0A@@_STL@@SAXPAXI@Z ; _STL::__node_alloc<1,0>::deallocate
  00018	59		 pop	 ecx
  00019	59		 pop	 ecx
$L119968:

; 497  :     //    }
; 498  :   }

  0001a	c3		 ret	 0
?_M_clear@?$vector@KV?$allocator@K@_STL@@@_STL@@IAEXXZ ENDP ; _STL::vector<unsigned long,_STL::allocator<unsigned long> >::_M_clear
_TEXT	ENDS
PUBLIC	??$assign@PAD@?$basic_string@DV?$char_traits@D@_STL@@V?$allocator@D@2@@_STL@@QAEAAV01@PAD0@Z ; _STL::basic_string<char,_STL::char_traits<char>,_STL::allocator<char> >::assign<char *>
; Function compile flags: /Ogsy
; File c:\stlport-4.6.1\stlport\stl\_string.h
;	COMDAT ??$assign@PAD@?$basic_string@DV?$char_traits@D@_STL@@V?$allocator@D@2@@_STL@@QAEAAV01@PAD0@Z
_TEXT	SEGMENT
___first$ = 8						; size = 4
___last$ = 12						; size = 4
$T119975 = 15						; size = 1
??$assign@PAD@?$basic_string@DV?$char_traits@D@_STL@@V?$allocator@D@2@@_STL@@QAEAAV01@PAD0@Z PROC NEAR ; _STL::basic_string<char,_STL::char_traits<char>,_STL::allocator<char> >::assign<char *>, COMDAT
; _this$ = ecx

; 642  :   template <class _InputIter> _Self& assign(_InputIter __first, _InputIter __last) {

  00000	55		 push	 ebp
  00001	8b ec		 mov	 ebp, esp

; 643  :     typedef typename _Is_integer<_InputIter>::_Integral _Integral;
; 644  :     return _M_assign_dispatch(__first, __last, _Integral());

  00003	8d 45 0f	 lea	 eax, DWORD PTR $T119975[ebp]
  00006	50		 push	 eax
  00007	ff 75 0c	 push	 DWORD PTR ___last$[ebp]
  0000a	ff 75 08	 push	 DWORD PTR ___first$[ebp]
  0000d	e8 00 00 00 00	 call	 ??$_M_assign_dispatch@PAD@?$basic_string@DV?$char_traits@D@_STL@@V?$allocator@D@2@@_STL@@AAEAAV01@PAD0ABU__false_type@1@@Z ; _STL::basic_string<char,_STL::char_traits<char>,_STL::allocator<char> >::_M_assign_dispatch<char *>

; 645  :   }

  00012	5d		 pop	 ebp
  00013	c2 08 00	 ret	 8
??$assign@PAD@?$basic_string@DV?$char_traits@D@_STL@@V?$allocator@D@2@@_STL@@QAEAAV01@PAD0@Z ENDP ; _STL::basic_string<char,_STL::char_traits<char>,_STL::allocator<char> >::assign<char *>
_TEXT	ENDS
PUBLIC	??4?$basic_string@DV?$char_traits@D@_STL@@V?$allocator@D@2@@_STL@@QAEAAV01@ABV01@@Z ; _STL::basic_string<char,_STL::char_traits<char>,_STL::allocator<char> >::operator=
; Function compile flags: /Ogsy
;	COMDAT ??4?$basic_string@DV?$char_traits@D@_STL@@V?$allocator@D@2@@_STL@@QAEAAV01@ABV01@@Z
_TEXT	SEGMENT
___s$ = 8						; size = 4
$T119981 = 11						; size = 1
??4?$basic_string@DV?$char_traits@D@_STL@@V?$allocator@D@2@@_STL@@QAEAAV01@ABV01@@Z PROC NEAR ; _STL::basic_string<char,_STL::char_traits<char>,_STL::allocator<char> >::operator=, COMDAT
; _this$ = ecx

; 307  :   _Self& operator=(const _Self& __s) {

  00000	55		 push	 ebp
  00001	8b ec		 mov	 ebp, esp

; 308  :     if (&__s != this) 

  00003	8b 45 08	 mov	 eax, DWORD PTR ___s$[ebp]
  00006	56		 push	 esi
  00007	8b f1		 mov	 esi, ecx
  00009	3b c6		 cmp	 eax, esi
  0000b	74 10		 je	 SHORT $L119982

; 309  :       assign(__s._M_start, __s._M_finish);

  0000d	8d 4d 0b	 lea	 ecx, DWORD PTR $T119981[ebp]
  00010	51		 push	 ecx
  00011	ff 70 04	 push	 DWORD PTR [eax+4]
  00014	8b ce		 mov	 ecx, esi
  00016	ff 30		 push	 DWORD PTR [eax]
  00018	e8 00 00 00 00	 call	 ??$_M_assign_dispatch@PAD@?$basic_string@DV?$char_traits@D@_STL@@V?$allocator@D@2@@_STL@@AAEAAV01@PAD0ABU__false_type@1@@Z ; _STL::basic_string<char,_STL::char_traits<char>,_STL::allocator<char> >::_M_assign_dispatch<char *>
$L119982:

; 310  :     return *this;

  0001d	8b c6		 mov	 eax, esi
  0001f	5e		 pop	 esi

; 311  :   }

  00020	5d		 pop	 ebp
  00021	c2 04 00	 ret	 4
??4?$basic_string@DV?$char_traits@D@_STL@@V?$allocator@D@2@@_STL@@QAEAAV01@ABV01@@Z ENDP ; _STL::basic_string<char,_STL::char_traits<char>,_STL::allocator<char> >::operator=
_TEXT	ENDS
PUBLIC	?imbue@?$basic_ios@DV?$char_traits@D@_STL@@@_STL@@QAE?AVlocale@2@ABV32@@Z ; _STL::basic_ios<char,_STL::char_traits<char> >::imbue
EXTRN	?pubimbue@?$basic_streambuf@DV?$char_traits@D@_STL@@@_STL@@QAE?AVlocale@2@ABV32@@Z:NEAR ; _STL::basic_streambuf<char,_STL::char_traits<char> >::pubimbue
EXTRN	??0locale@_STL@@QAE@ABV01@@Z:NEAR		; _STL::locale::locale
EXTRN	?_M_get_facet@locale@_STL@@QBEPAVfacet@12@ABVid@12@@Z:NEAR ; _STL::locale::_M_get_facet
EXTRN	?id@?$ctype@D@_STL@@2V0locale@2@A:DWORD		; _STL::ctype<char>::id
EXTRN	?imbue@ios_base@_STL@@QAE?AVlocale@2@ABV32@@Z:NEAR ; _STL::ios_base::imbue
EXTRN	?id@?$numpunct@D@_STL@@2V0locale@2@A:DWORD	; _STL::numpunct<char>::id
;	COMDAT xdata$x
; File c:\stlport-4.6.1\stlport\stl\_alloc.h
xdata$x	SEGMENT
$T120036 DD	0ffffffffH
	DD	FLAT:$L119993
	DD	00H
	DD	FLAT:$L119990
	DD	01H
	DD	FLAT:$L119992
$T120034 DD	019930520H
	DD	03H
	DD	FLAT:$T120036
	DD	2 DUP(00H)
	DD	2 DUP(00H)
; Function compile flags: /Ogsy
; File c:\stlport-4.6.1\stlport\stl\_ios.c
xdata$x	ENDS
;	COMDAT ?imbue@?$basic_ios@DV?$char_traits@D@_STL@@@_STL@@QAE?AVlocale@2@ABV32@@Z
_TEXT	SEGMENT
$T119989 = -32						; size = 12
$T119994 = -20						; size = 4
$T119988 = -16						; size = 4
__$EHRec$ = -12						; size = 12
___$ReturnUdt$ = 8					; size = 4
___tmp$ = 12						; size = 4
___loc$ = 12						; size = 4
?imbue@?$basic_ios@DV?$char_traits@D@_STL@@@_STL@@QAE?AVlocale@2@ABV32@@Z PROC NEAR ; _STL::basic_ios<char,_STL::char_traits<char> >::imbue, COMDAT
; _this$ = ecx

; 74   : {

  00000	b8 00 00 00 00	 mov	 eax, __ehhandler$?imbue@?$basic_ios@DV?$char_traits@D@_STL@@@_STL@@QAE?AVlocale@2@ABV32@@Z
  00005	e8 00 00 00 00	 call	 __EH_prolog
  0000a	83 ec 14	 sub	 esp, 20			; 00000014H
  0000d	83 65 ec 00	 and	 DWORD PTR $T119994[ebp], 0
  00011	53		 push	 ebx
  00012	56		 push	 esi
  00013	57		 push	 edi

; 75   :   locale __tmp = ios_base::imbue(__loc);

  00014	8b 7d 0c	 mov	 edi, DWORD PTR ___loc$[ebp]
  00017	57		 push	 edi
  00018	8d 45 0c	 lea	 eax, DWORD PTR ___tmp$[ebp]
  0001b	50		 push	 eax
  0001c	8b f1		 mov	 esi, ecx
  0001e	e8 00 00 00 00	 call	 ?imbue@ios_base@_STL@@QAE?AVlocale@2@ABV32@@Z ; _STL::ios_base::imbue

; 76   : 
; 77   :   if (_M_streambuf)

  00023	8b 4e 58	 mov	 ecx, DWORD PTR [esi+88]
  00026	33 db		 xor	 ebx, ebx
  00028	43		 inc	 ebx
  00029	85 c9		 test	 ecx, ecx
  0002b	89 5d fc	 mov	 DWORD PTR __$EHRec$[ebp+8], ebx
  0002e	74 12		 je	 SHORT $L113826

; 78   :     _M_streambuf->pubimbue(__loc);

  00030	57		 push	 edi
  00031	8d 45 f0	 lea	 eax, DWORD PTR $T119988[ebp]
  00034	50		 push	 eax
  00035	e8 00 00 00 00	 call	 ?pubimbue@?$basic_streambuf@DV?$char_traits@D@_STL@@@_STL@@QAE?AVlocale@2@ABV32@@Z ; _STL::basic_streambuf<char,_STL::char_traits<char> >::pubimbue
  0003a	8d 4d f0	 lea	 ecx, DWORD PTR $T119988[ebp]
  0003d	e8 00 00 00 00	 call	 ??1locale@_STL@@QAE@XZ	; _STL::locale::~locale
$L113826:

; 79   : 
; 80   :   // no throwing here
; 81   :   this->_M_cached_ctype = __loc._M_get_facet(ctype<char_type>::id) ;

  00042	68 00 00 00 00	 push	 OFFSET FLAT:?id@?$ctype@D@_STL@@2V0locale@2@A ; _STL::ctype<char>::id
  00047	8b cf		 mov	 ecx, edi
  00049	e8 00 00 00 00	 call	 ?_M_get_facet@locale@_STL@@QBEPAVfacet@12@ABVid@12@@Z ; _STL::locale::_M_get_facet

; 82   :   this->_M_cached_numpunct = __loc._M_get_facet(numpunct<char_type>::id) ;

  0004e	68 00 00 00 00	 push	 OFFSET FLAT:?id@?$numpunct@D@_STL@@2V0locale@2@A ; _STL::numpunct<char>::id
  00053	8b cf		 mov	 ecx, edi
  00055	89 46 40	 mov	 DWORD PTR [esi+64], eax
  00058	e8 00 00 00 00	 call	 ?_M_get_facet@locale@_STL@@QBEPAVfacet@12@ABVid@12@@Z ; _STL::locale::_M_get_facet

; 83   :   this->_M_cached_grouping = ((numpunct<char_type>*)_M_cached_numpunct)->grouping() ;

  0005d	8d 4d e0	 lea	 ecx, DWORD PTR $T119989[ebp]
  00060	51		 push	 ecx
  00061	8b c8		 mov	 ecx, eax
  00063	89 46 44	 mov	 DWORD PTR [esi+68], eax
  00066	e8 00 00 00 00	 call	 ?grouping@?$numpunct@D@_STL@@QBE?AV?$basic_string@DV?$char_traits@D@_STL@@V?$allocator@D@2@@2@XZ ; _STL::numpunct<char>::grouping
  0006b	50		 push	 eax
  0006c	8d 4e 48	 lea	 ecx, DWORD PTR [esi+72]
  0006f	c6 45 fc 02	 mov	 BYTE PTR __$EHRec$[ebp+8], 2
  00073	e8 00 00 00 00	 call	 ??4?$basic_string@DV?$char_traits@D@_STL@@V?$allocator@D@2@@_STL@@QAEAAV01@ABV01@@Z ; _STL::basic_string<char,_STL::char_traits<char>,_STL::allocator<char> >::operator=
  00078	8b 45 e8	 mov	 eax, DWORD PTR $T119989[ebp+8]
  0007b	2b 45 e0	 sub	 eax, DWORD PTR $T119989[ebp]
  0007e	8d 4d e8	 lea	 ecx, DWORD PTR $T119989[ebp+8]
  00081	50		 push	 eax
  00082	ff 75 e0	 push	 DWORD PTR $T119989[ebp]
  00085	88 5d fc	 mov	 BYTE PTR __$EHRec$[ebp+8], bl
  00088	e8 00 00 00 00	 call	 ?deallocate@?$allocator@D@_STL@@QAEXPADI@Z ; _STL::allocator<char>::deallocate

; 84   :   return __tmp;

  0008d	8b 4d 08	 mov	 ecx, DWORD PTR ___$ReturnUdt$[ebp]
  00090	8d 45 0c	 lea	 eax, DWORD PTR ___tmp$[ebp]
  00093	50		 push	 eax
  00094	e8 00 00 00 00	 call	 ??0locale@_STL@@QAE@ABV01@@Z ; _STL::locale::locale
  00099	8d 4d 0c	 lea	 ecx, DWORD PTR ___tmp$[ebp]
  0009c	89 5d ec	 mov	 DWORD PTR $T119994[ebp], ebx
  0009f	c6 45 fc 00	 mov	 BYTE PTR __$EHRec$[ebp+8], 0
  000a3	e8 00 00 00 00	 call	 ??1locale@_STL@@QAE@XZ	; _STL::locale::~locale

; 85   : }

  000a8	8b 4d f4	 mov	 ecx, DWORD PTR __$EHRec$[ebp]
  000ab	8b 45 08	 mov	 eax, DWORD PTR ___$ReturnUdt$[ebp]
  000ae	5f		 pop	 edi
  000af	5e		 pop	 esi
  000b0	5b		 pop	 ebx
  000b1	64 89 0d 00 00
	00 00		 mov	 DWORD PTR fs:__except_list, ecx
  000b8	c9		 leave
  000b9	c2 08 00	 ret	 8
_TEXT	ENDS
;	COMDAT text$x
text$x	SEGMENT
$L119990:
  00000	8d 4d 0c	 lea	 ecx, DWORD PTR ___tmp$[ebp]
  00003	e9 00 00 00 00	 jmp	 ??1locale@_STL@@QAE@XZ	; _STL::locale::~locale
$L119992:
  00008	8d 4d e0	 lea	 ecx, DWORD PTR $T119989[ebp]
  0000b	e9 00 00 00 00	 jmp	 ??1?$basic_string@DV?$char_traits@D@_STL@@V?$allocator@D@2@@_STL@@QAE@XZ ; _STL::basic_string<char,_STL::char_traits<char>,_STL::allocator<char> >::~basic_string<char,_STL::char_traits<char>,_STL::allocator<char> >
$L119993:
  00010	8b 45 ec	 mov	 eax, DWORD PTR $T119994[ebp]
  00013	83 e0 01	 and	 eax, 1
  00016	0f 84 0c 00 00
	00		 je	 $L119995
  0001c	83 65 ec fe	 and	 DWORD PTR $T119994[ebp], -2 ; fffffffeH
  00020	8b 4d 08	 mov	 ecx, DWORD PTR ___$ReturnUdt$[ebp]
  00023	e9 00 00 00 00	 jmp	 ??1locale@_STL@@QAE@XZ	; _STL::locale::~locale
$L119995:
  00028	c3		 ret	 0
__ehhandler$?imbue@?$basic_ios@DV?$char_traits@D@_STL@@@_STL@@QAE?AVlocale@2@ABV32@@Z:
  00029	b8 00 00 00 00	 mov	 eax, OFFSET FLAT:$T120034
  0002e	e9 00 00 00 00	 jmp	 ___CxxFrameHandler
text$x	ENDS
?imbue@?$basic_ios@DV?$char_traits@D@_STL@@@_STL@@QAE?AVlocale@2@ABV32@@Z ENDP ; _STL::basic_ios<char,_STL::char_traits<char> >::imbue
PUBLIC	?init@?$basic_ios@DV?$char_traits@D@_STL@@@_STL@@IAEXPAV?$basic_streambuf@DV?$char_traits@D@_STL@@@2@@Z ; _STL::basic_ios<char,_STL::char_traits<char> >::init
;	COMDAT xdata$x
; File c:\stlport-4.6.1\stlport\stl\_ios.h
xdata$x	SEGMENT
$T120089 DD	0ffffffffH
	DD	FLAT:$L120043
$T120087 DD	019930520H
	DD	01H
	DD	FLAT:$T120089
	DD	2 DUP(00H)
	DD	2 DUP(00H)
; Function compile flags: /Ogsy
; File c:\stlport-4.6.1\stlport\stl\_ios.c
xdata$x	ENDS
;	COMDAT ?init@?$basic_ios@DV?$char_traits@D@_STL@@@_STL@@IAEXPAV?$basic_streambuf@DV?$char_traits@D@_STL@@@2@@Z
_TEXT	SEGMENT
$T120041 = -20						; size = 4
$T120042 = -16						; size = 4
__$EHRec$ = -12						; size = 12
___sb$ = 8						; size = 4
?init@?$basic_ios@DV?$char_traits@D@_STL@@@_STL@@IAEXPAV?$basic_streambuf@DV?$char_traits@D@_STL@@@2@@Z PROC NEAR ; _STL::basic_ios<char,_STL::char_traits<char> >::init, COMDAT
; _this$ = ecx

; 100  : {

  00000	b8 00 00 00 00	 mov	 eax, __ehhandler$?init@?$basic_ios@DV?$char_traits@D@_STL@@@_STL@@IAEXPAV?$basic_streambuf@DV?$char_traits@D@_STL@@@2@@Z
  00005	e8 00 00 00 00	 call	 __EH_prolog
  0000a	51		 push	 ecx
  0000b	51		 push	 ecx
  0000c	56		 push	 esi
  0000d	57		 push	 edi

; 101  :   this->rdbuf(__sb);

  0000e	ff 75 08	 push	 DWORD PTR ___sb$[ebp]
  00011	8b f1		 mov	 esi, ecx
  00013	e8 00 00 00 00	 call	 ?rdbuf@?$basic_ios@DV?$char_traits@D@_STL@@@_STL@@QAEPAV?$basic_streambuf@DV?$char_traits@D@_STL@@@2@PAV32@@Z ; _STL::basic_ios<char,_STL::char_traits<char> >::rdbuf

; 102  :   this->imbue(locale());

  00018	8d 4d ec	 lea	 ecx, DWORD PTR $T120041[ebp]
  0001b	e8 00 00 00 00	 call	 ??0locale@_STL@@QAE@XZ	; _STL::locale::locale
  00020	50		 push	 eax
  00021	8d 45 f0	 lea	 eax, DWORD PTR $T120042[ebp]
  00024	33 ff		 xor	 edi, edi
  00026	50		 push	 eax
  00027	8b ce		 mov	 ecx, esi
  00029	89 7d fc	 mov	 DWORD PTR __$EHRec$[ebp+8], edi
  0002c	e8 00 00 00 00	 call	 ?imbue@?$basic_ios@DV?$char_traits@D@_STL@@@_STL@@QAE?AVlocale@2@ABV32@@Z ; _STL::basic_ios<char,_STL::char_traits<char> >::imbue
  00031	8d 4d f0	 lea	 ecx, DWORD PTR $T120042[ebp]
  00034	e8 00 00 00 00	 call	 ??1locale@_STL@@QAE@XZ	; _STL::locale::~locale
  00039	83 4d fc ff	 or	 DWORD PTR __$EHRec$[ebp+8], -1
  0003d	8d 4d ec	 lea	 ecx, DWORD PTR $T120041[ebp]
  00040	e8 00 00 00 00	 call	 ??1locale@_STL@@QAE@XZ	; _STL::locale::~locale

; 103  :   this->tie(0);
; 104  :   this->_M_set_exception_mask(ios_base::goodbit);
; 105  :   this->_M_clear_nothrow(__sb != 0 ? ios_base::goodbit : ios_base::badbit);
; 106  :   ios_base::flags(ios_base::skipws | ios_base::dec);
; 107  :   ios_base::width(0);
; 108  :   ios_base::precision(6);
; 109  :   this->fill(widen(' '));

  00045	8b 4e 40	 mov	 ecx, DWORD PTR [esi+64]
  00048	33 c0		 xor	 eax, eax
  0004a	39 7d 08	 cmp	 DWORD PTR ___sb$[ebp], edi
  0004d	89 7e 5c	 mov	 DWORD PTR [esi+92], edi
  00050	0f 94 c0	 sete	 al
  00053	89 7e 14	 mov	 DWORD PTR [esi+20], edi
  00056	c7 46 04 08 10
	00 00		 mov	 DWORD PTR [esi+4], 4104	; 00001008H
  0005d	89 7e 1c	 mov	 DWORD PTR [esi+28], edi
  00060	c7 46 18 06 00
	00 00		 mov	 DWORD PTR [esi+24], 6
  00067	6a 20		 push	 32			; 00000020H
  00069	89 46 08	 mov	 DWORD PTR [esi+8], eax
  0006c	8b 01		 mov	 eax, DWORD PTR [ecx]
  0006e	ff 50 18	 call	 DWORD PTR [eax+24]

; 110  :   // We don't need to worry about any of the three arrays: they are
; 111  :   // initialized correctly in ios_base's constructor.
; 112  : }

  00071	8b 4d f4	 mov	 ecx, DWORD PTR __$EHRec$[ebp]
  00074	88 46 54	 mov	 BYTE PTR [esi+84], al
  00077	5f		 pop	 edi
  00078	5e		 pop	 esi
  00079	64 89 0d 00 00
	00 00		 mov	 DWORD PTR fs:__except_list, ecx
  00080	c9		 leave
  00081	c2 04 00	 ret	 4
_TEXT	ENDS
;	COMDAT text$x
text$x	SEGMENT
$L120043:
  00000	8d 4d ec	 lea	 ecx, DWORD PTR $T120041[ebp]
  00003	e9 00 00 00 00	 jmp	 ??1locale@_STL@@QAE@XZ	; _STL::locale::~locale
__ehhandler$?init@?$basic_ios@DV?$char_traits@D@_STL@@@_STL@@IAEXPAV?$basic_streambuf@DV?$char_traits@D@_STL@@@2@@Z:
  00008	b8 00 00 00 00	 mov	 eax, OFFSET FLAT:$T120087
  0000d	e9 00 00 00 00	 jmp	 ___CxxFrameHandler
text$x	ENDS
?init@?$basic_ios@DV?$char_traits@D@_STL@@@_STL@@IAEXPAV?$basic_streambuf@DV?$char_traits@D@_STL@@@2@@Z ENDP ; _STL::basic_ios<char,_STL::char_traits<char> >::init
PUBLIC	??0iovfs_base@@QAE@XZ				; iovfs_base::iovfs_base
PUBLIC	??1iovfs_base@@UAE@XZ				; iovfs_base::~iovfs_base
PUBLIC	?open@ivfstream@@UAEXPBDH@Z			; ivfstream::open
PUBLIC	?insert_unique@?$_Rb_tree@GU?$pair@$$CBGPAVivfstream@@@_STL@@U?$_Select1st@U?$pair@$$CBGPAVivfstream@@@_STL@@@2@U?$less@G@2@V?$allocator@U?$pair@$$CBGPAVivfstream@@@_STL@@@2@@_STL@@QAE?AU?$pair@U?$_Rb_tree_iterator@U?$pair@$$CBGPAVivfstream@@@_STL@@U?$_Nonconst_traits@U?$pair@$$CBGPAVivfstream@@@_STL@@@2@@_STL@@_N@2@ABU?$pair@$$CBGPAVivfstream@@@2@@Z ; _STL::_Rb_tree<unsigned short,_STL::pair<unsigned short const ,ivfstream *>,_STL::_Select1st<_STL::pair<unsigned short const ,ivfstream *> >,_STL::less<unsigned short>,_STL::allocator<_STL::pair<unsigned short const ,ivfstream *> > >::insert_unique
PUBLIC	??_7ivfstream@@6B@				; ivfstream::`vftable'
PUBLIC	??_Givfstream@@UAEPAXI@Z			; ivfstream::`scalar deleting destructor'
PUBLIC	??_R4ivfstream@@6B@				; ivfstream::`RTTI Complete Object Locator'
PUBLIC	??_R0?AVivfstream@@@8				; ivfstream `RTTI Type Descriptor'
PUBLIC	??_R3ivfstream@@8				; ivfstream::`RTTI Class Hierarchy Descriptor'
PUBLIC	??_R2ivfstream@@8				; ivfstream::`RTTI Base Class Array'
PUBLIC	??_R1A@?0A@A@ivfstream@@8			; ivfstream::`RTTI Base Class Descriptor at (0,-1,0,0)'
PUBLIC	??_R1A@?0A@A@iovfs_base@@8			; iovfs_base::`RTTI Base Class Descriptor at (0,-1,0,0)'
PUBLIC	??_R0?AViovfs_base@@@8				; iovfs_base `RTTI Type Descriptor'
EXTRN	?open@iovfs_base@@UAEXPBDH@Z:NEAR		; iovfs_base::open
EXTRN	??_Eivfstream@@UAEPAXI@Z:NEAR			; ivfstream::`vector deleting destructor'
EXTRN	?LoadFromFile@CShadowSprite@@QAE_NAAVivfstream@@@Z:NEAR ; CShadowSprite::LoadFromFile
;	COMDAT xdata$x
; File c:\darkeden\designed_common\project\client\virtualfilesystem\vfstream.inl
xdata$x	SEGMENT
$T120277 DD	0ffffffffH
	DD	FLAT:$L120111
	DD	00H
	DD	FLAT:$L120160
$T120262 DD	019930520H
	DD	02H
	DD	FLAT:$T120277
	DD	2 DUP(00H)
	DD	2 DUP(00H)
xdata$x	ENDS
;	COMDAT ??_7ivfstream@@6B@
CONST	SEGMENT
??_7ivfstream@@6B@ DD FLAT:??_R4ivfstream@@6B@		; ivfstream::`vftable'
	DD	FLAT:??_Eivfstream@@UAEPAXI@Z
	DD	FLAT:?open@ivfstream@@UAEXPBDH@Z
CONST	ENDS
;	COMDAT ??_R4ivfstream@@6B@
rdata$r	SEGMENT
??_R4ivfstream@@6B@ DD 00H				; ivfstream::`RTTI Complete Object Locator'
	DD	00H
	DD	00H
	DD	FLAT:??_R0?AVivfstream@@@8
	DD	FLAT:??_R3ivfstream@@8
rdata$r	ENDS
;	COMDAT ??_R0?AVivfstream@@@8
_DATA	SEGMENT
??_R0?AVivfstream@@@8 DD FLAT:??_7type_info@@6B@	; ivfstream `RTTI Type Descriptor'
	DD	00H
	DB	'.?AVivfstream@@', 00H
_DATA	ENDS
;	COMDAT ??_R3ivfstream@@8
rdata$r	SEGMENT
??_R3ivfstream@@8 DD 00H				; ivfstream::`RTTI Class Hierarchy Descriptor'
	DD	00H
	DD	02H
	DD	FLAT:??_R2ivfstream@@8
rdata$r	ENDS
;	COMDAT ??_R2ivfstream@@8
rdata$r	SEGMENT
??_R2ivfstream@@8 DD FLAT:??_R1A@?0A@A@ivfstream@@8	; ivfstream::`RTTI Base Class Array'
	DD	FLAT:??_R1A@?0A@A@iovfs_base@@8
rdata$r	ENDS
;	COMDAT ??_R1A@?0A@A@ivfstream@@8
rdata$r	SEGMENT
??_R1A@?0A@A@ivfstream@@8 DD FLAT:??_R0?AVivfstream@@@8	; ivfstream::`RTTI Base Class Descriptor at (0,-1,0,0)'
	DD	01H
	DD	00H
	DD	0ffffffffH
	DD	00H
	DD	00H
rdata$r	ENDS
;	COMDAT ??_R1A@?0A@A@iovfs_base@@8
rdata$r	SEGMENT
??_R1A@?0A@A@iovfs_base@@8 DD FLAT:??_R0?AViovfs_base@@@8 ; iovfs_base::`RTTI Base Class Descriptor at (0,-1,0,0)'
	DD	00H
	DD	00H
	DD	0ffffffffH
	DD	00H
	DD	00H
rdata$r	ENDS
;	COMDAT ??_R0?AViovfs_base@@@8
_DATA	SEGMENT
??_R0?AViovfs_base@@@8 DD FLAT:??_7type_info@@6B@	; iovfs_base `RTTI Type Descriptor'
	DD	00H
	DB	'.?AViovfs_base@@', 00H
; Function compile flags: /Ogsy
; File c:\darkeden\designed_common\project\client\spritelib\ctypepack.h
_DATA	ENDS
;	COMDAT ?Get@?$CTypePack@VCShadowSprite@@@@UAEAAVCShadowSprite@@G@Z
_TEXT	SEGMENT
$T120108 = -304						; size = 8
$T120098 = -300						; size = 4
$T120110 = -296						; size = 8
$T120095 = -292						; size = 2
_pos$112451 = -292					; size = 4
_unitSize$112480 = -288					; size = 2
tv471 = -284						; size = 4
_fileIdx$112416 = -284					; size = 4
tv389 = -280						; size = 4
_i$112490 = -280					; size = 4
_i$112485 = -280					; size = 4
_fileName$112475 = -276					; size = 260
__$ArrayPad$ = -16					; size = 4
__$EHRec$ = -12						; size = 12
__$ReturnAddr$ = 4					; size = 4
_n$ = 8							; size = 2
?Get@?$CTypePack@VCShadowSprite@@@@UAEAAVCShadowSprite@@G@Z PROC NEAR ; CTypePack<CShadowSprite>::Get, COMDAT
; _this$ = ecx

; 172  : {

  00000	b8 00 00 00 00	 mov	 eax, __ehhandler$?Get@?$CTypePack@VCShadowSprite@@@@UAEAAVCShadowSprite@@G@Z
  00005	e8 00 00 00 00	 call	 __EH_prolog
  0000a	81 ec 24 01 00
	00		 sub	 esp, 292		; 00000124H
  00010	a1 00 00 00 00	 mov	 eax, DWORD PTR ___security_cookie
  00015	53		 push	 ebx
  00016	56		 push	 esi
  00017	8b f1		 mov	 esi, ecx

; 173  : 	if(m_bRunningLoad && !m_pData[n].IsInit())

  00019	80 7e 0a 00	 cmp	 BYTE PTR [esi+10], 0
  0001d	89 45 f0	 mov	 DWORD PTR __$ArrayPad$[ebp], eax
  00020	57		 push	 edi
  00021	0f 84 54 02 00
	00		 je	 $L120274
  00027	0f b7 5d 08	 movzx	 ebx, WORD PTR _n$[ebp]
  0002b	8b 46 04	 mov	 eax, DWORD PTR [esi+4]
  0002e	8d 3c 5b	 lea	 edi, DWORD PTR [ebx+ebx*2]
  00031	c1 e7 02	 shl	 edi, 2
  00034	80 7c 38 08 00	 cmp	 BYTE PTR [eax+edi+8], 0
  00039	89 bd e8 fe ff
	ff		 mov	 DWORD PTR tv389[ebp], edi
  0003f	0f 85 36 02 00
	00		 jne	 $L120274

; 174  : 	{
; 175  : 		// file  Sprite Load
; 176  : 		if(m_bSplitFile)

  00045	80 7e 14 00	 cmp	 BYTE PTR [esi+20], 0
  00049	0f 84 04 02 00
	00		 je	 $L112415

; 177  : 		{
; 178  : 			int fileIdx = GetSplitFile(n);

  0004f	6a 00		 push	 0
  00051	53		 push	 ebx
  00052	e8 00 00 00 00	 call	 ?GetSplitFile@?$CTypePack@VCShadowSprite@@@@IAEHHPAD@Z ; CTypePack<CShadowSprite>::GetSplitFile
  00057	89 85 e4 fe ff
	ff		 mov	 DWORD PTR _fileIdx$112416[ebp], eax

; 179  : 
; 180  : 			FILECACHE_MAP::iterator pos = m_FileCacheMap.find(fileIdx);

  0005d	89 85 dc fe ff
	ff		 mov	 DWORD PTR $T120095[ebp], eax
  00063	8d 85 dc fe ff
	ff		 lea	 eax, DWORD PTR $T120095[ebp]
  00069	8d 7e 38	 lea	 edi, DWORD PTR [esi+56]
  0006c	50		 push	 eax
  0006d	8b cf		 mov	 ecx, edi
  0006f	e8 00 00 00 00	 call	 ??$_M_find@G@?$_Rb_tree@GU?$pair@$$CBGPAVivfstream@@@_STL@@U?$_Select1st@U?$pair@$$CBGPAVivfstream@@@_STL@@@2@U?$less@G@2@V?$allocator@U?$pair@$$CBGPAVivfstream@@@_STL@@@2@@_STL@@ABEPAU?$_Rb_tree_node@U?$pair@$$CBGPAVivfstream@@@_STL@@@1@ABG@Z ; _STL::_Rb_tree<unsigned short,_STL::pair<unsigned short const ,ivfstream *>,_STL::_Select1st<_STL::pair<unsigned short const ,ivfstream *> >,_STL::less<unsigned short>,_STL::allocator<_STL::pair<unsigned short const ,ivfstream *> > >::_M_find<unsigned short>

; 181  : 
; 182  : 			ivfstream *pFile = NULL;
; 183  : 			
; 184  : 			//     .
; 185  : 			if(pos != m_FileCacheMap.end())

  00074	8b 3f		 mov	 edi, DWORD PTR [edi]
  00076	3b c7		 cmp	 eax, edi
  00078	89 85 dc fe ff
	ff		 mov	 DWORD PTR _pos$112451[ebp], eax
  0007e	74 05		 je	 SHORT $L112456

; 186  : 			{
; 187  : 				pFile = pos->second;

  00080	8b 78 14	 mov	 edi, DWORD PTR [eax+20]

; 188  : 			}
; 189  : 			//    .
; 190  : 			else

  00083	eb 50		 jmp	 SHORT $L112474
$L112456:

; 191  : 			{
; 192  : 				char fileName[MAX_PATH];
; 193  : 				GetSplitFile(n, fileName);

  00085	8d 85 ec fe ff
	ff		 lea	 eax, DWORD PTR _fileName$112475[ebp]
  0008b	50		 push	 eax
  0008c	53		 push	 ebx
  0008d	8b ce		 mov	 ecx, esi
  0008f	e8 00 00 00 00	 call	 ?GetSplitFile@?$CTypePack@VCShadowSprite@@@@IAEHHPAD@Z ; CTypePack<CShadowSprite>::GetSplitFile

; 194  : 				pFile = new ivfstream(fileName, std::ios_base::binary);

  00094	6a 50		 push	 80			; 00000050H
  00096	e8 00 00 00 00	 call	 ??2@YAPAXI@Z		; operator new
  0009b	8b f8		 mov	 edi, eax
  0009d	59		 pop	 ecx
  0009e	89 bd d4 fe ff
	ff		 mov	 DWORD PTR $T120098[ebp], edi
  000a4	83 65 fc 00	 and	 DWORD PTR __$EHRec$[ebp+8], 0
  000a8	85 ff		 test	 edi, edi
  000aa	74 23		 je	 SHORT $L120099
  000ac	8b cf		 mov	 ecx, edi
  000ae	e8 00 00 00 00	 call	 ??0iovfs_base@@QAE@XZ	; iovfs_base::iovfs_base
  000b3	6a 0c		 push	 12			; 0000000cH
  000b5	8d 85 ec fe ff
	ff		 lea	 eax, DWORD PTR _fileName$112475[ebp]
  000bb	50		 push	 eax
  000bc	8b cf		 mov	 ecx, edi
  000be	c6 45 fc 01	 mov	 BYTE PTR __$EHRec$[ebp+8], 1
  000c2	c7 07 00 00 00
	00		 mov	 DWORD PTR [edi], OFFSET FLAT:??_7ivfstream@@6B@
  000c8	e8 00 00 00 00	 call	 ?open@iovfs_base@@UAEXPBDH@Z ; iovfs_base::open
  000cd	eb 02		 jmp	 SHORT $L120100
$L120099:
  000cf	33 ff		 xor	 edi, edi
$L120100:
  000d1	83 4d fc ff	 or	 DWORD PTR __$EHRec$[ebp+8], -1
$L112474:

; 195  : 			}
; 196  : 
; 197  : 			WORD unitSize = 0;

  000d5	33 c0		 xor	 eax, eax
  000d7	89 85 e0 fe ff
	ff		 mov	 DWORD PTR _unitSize$112480[ebp], eax

; 198  : 
; 199  : 			pFile->seekg(0);

  000dd	39 47 04	 cmp	 DWORD PTR [edi+4], eax
  000e0	74 0b		 je	 SHORT $L120172
  000e2	8b 4f 04	 mov	 ecx, DWORD PTR [edi+4]
  000e5	8b 11		 mov	 edx, DWORD PTR [ecx]
  000e7	6a 01		 push	 1
  000e9	50		 push	 eax
  000ea	ff 52 18	 call	 DWORD PTR [edx+24]
$L120172:

; 200  : 			pFile->read((char *)&unitSize, 2);

  000ed	83 7f 04 00	 cmp	 DWORD PTR [edi+4], 0
  000f1	74 11		 je	 SHORT $L120177
  000f3	8b 4f 04	 mov	 ecx, DWORD PTR [edi+4]
  000f6	8b 01		 mov	 eax, DWORD PTR [ecx]
  000f8	6a 02		 push	 2
  000fa	8d 95 e0 fe ff
	ff		 lea	 edx, DWORD PTR _unitSize$112480[ebp]
  00100	52		 push	 edx
  00101	ff 50 10	 call	 DWORD PTR [eax+16]
$L120177:

; 201  : 
; 202  : 			//    
; 203  : 			if(m_file_index)

  00104	33 c0		 xor	 eax, eax
  00106	39 46 10	 cmp	 DWORD PTR [esi+16], eax
  00109	74 3d		 je	 SHORT $L112482

; 204  : 			{
; 205  : 				//   .
; 206  : 				int offset = m_file_index[n] - m_file_index[fileIdx];
; 207  : 
; 208  : 				// 2   
; 209  : 				pFile->seekg(offset + 2);

  0010b	39 47 04	 cmp	 DWORD PTR [edi+4], eax
  0010e	74 21		 je	 SHORT $L120269
  00110	8b 4e 10	 mov	 ecx, DWORD PTR [esi+16]
  00113	8b 14 99	 mov	 edx, DWORD PTR [ecx+ebx*4]
  00116	8b 9d e4 fe ff
	ff		 mov	 ebx, DWORD PTR _fileIdx$112416[ebp]
  0011c	2b 14 99	 sub	 edx, DWORD PTR [ecx+ebx*4]
  0011f	8b 47 04	 mov	 eax, DWORD PTR [edi+4]
  00122	8b 00		 mov	 eax, DWORD PTR [eax]
  00124	8b 4f 04	 mov	 ecx, DWORD PTR [edi+4]
  00127	42		 inc	 edx
  00128	6a 01		 push	 1
  0012a	42		 inc	 edx
  0012b	52		 push	 edx
  0012c	ff 50 18	 call	 DWORD PTR [eax+24]
  0012f	eb 06		 jmp	 SHORT $L120183
$L120269:
  00131	8b 9d e4 fe ff
	ff		 mov	 ebx, DWORD PTR _fileIdx$112416[ebp]
$L120183:

; 210  : 				
; 211  : 				m_pData[n].LoadFromFile(*pFile);

  00137	8b 4e 04	 mov	 ecx, DWORD PTR [esi+4]
  0013a	03 8d e8 fe ff
	ff		 add	 ecx, DWORD PTR tv389[ebp]
  00140	57		 push	 edi
  00141	e8 00 00 00 00	 call	 ?LoadFromFile@CShadowSprite@@QAE_NAAVivfstream@@@Z ; CShadowSprite::LoadFromFile

; 212  : 			}
; 213  : 			//    
; 214  : 			else

  00146	eb 6f		 jmp	 SHORT $L112488
$L112482:

; 215  : 			{
; 216  : 				//    
; 217  : 				pFile->seekg(2);

  00148	39 47 04	 cmp	 DWORD PTR [edi+4], eax
  0014b	74 0c		 je	 SHORT $L120270
  0014d	8b 4f 04	 mov	 ecx, DWORD PTR [edi+4]
  00150	8b 01		 mov	 eax, DWORD PTR [ecx]
  00152	6a 01		 push	 1
  00154	6a 02		 push	 2
  00156	ff 50 18	 call	 DWORD PTR [eax+24]
$L120270:

; 218  : 
; 219  : 				for(register int i = 0; i < unitSize && fileIdx + i < m_Size; ++i)

  00159	83 a5 e8 fe ff
	ff 00		 and	 DWORD PTR _i$112485[ebp], 0
  00160	66 83 bd e0 fe
	ff ff 00	 cmp	 WORD PTR _unitSize$112480[ebp], 0
  00168	76 47		 jbe	 SHORT $L120273
  0016a	8b 85 e4 fe ff
	ff		 mov	 eax, DWORD PTR _fileIdx$112416[ebp]
  00170	8d 1c 40	 lea	 ebx, DWORD PTR [eax+eax*2]
  00173	c1 e3 02	 shl	 ebx, 2
  00176	eb 06		 jmp	 SHORT $L112486
$L120271:
  00178	8b 85 e4 fe ff
	ff		 mov	 eax, DWORD PTR _fileIdx$112416[ebp]
$L112486:
  0017e	8b 8d e8 fe ff
	ff		 mov	 ecx, DWORD PTR _i$112485[ebp]
  00184	03 c8		 add	 ecx, eax
  00186	0f b7 46 08	 movzx	 eax, WORD PTR [esi+8]
  0018a	3b c8		 cmp	 ecx, eax
  0018c	7d 23		 jge	 SHORT $L120273

; 220  : 				{
; 221  : 					m_pData[fileIdx + i].LoadFromFile(*pFile);

  0018e	8b 4e 04	 mov	 ecx, DWORD PTR [esi+4]
  00191	57		 push	 edi
  00192	03 cb		 add	 ecx, ebx
  00194	e8 00 00 00 00	 call	 ?LoadFromFile@CShadowSprite@@QAE_NAAVivfstream@@@Z ; CShadowSprite::LoadFromFile
  00199	0f b7 85 e0 fe
	ff ff		 movzx	 eax, WORD PTR _unitSize$112480[ebp]
  001a0	ff 85 e8 fe ff
	ff		 inc	 DWORD PTR _i$112485[ebp]
  001a6	83 c3 0c	 add	 ebx, 12			; 0000000cH
  001a9	39 85 e8 fe ff
	ff		 cmp	 DWORD PTR _i$112485[ebp], eax
  001af	7c c7		 jl	 SHORT $L120271
$L120273:

; 212  : 			}
; 213  : 			//    
; 214  : 			else

  001b1	8b 9d e4 fe ff
	ff		 mov	 ebx, DWORD PTR _fileIdx$112416[ebp]
$L112488:

; 222  : 				}
; 223  : 			}
; 224  : 
; 225  : 			bool bLoadComplete = true;
; 226  : 			
; 227  : 			for(register int i = 0; i < unitSize && fileIdx + i < m_Size; ++i)

  001b7	0f b7 85 e0 fe
	ff ff		 movzx	 eax, WORD PTR _unitSize$112480[ebp]
  001be	33 c9		 xor	 ecx, ecx
  001c0	85 c0		 test	 eax, eax
  001c2	89 8d e8 fe ff
	ff		 mov	 DWORD PTR _i$112490[ebp], ecx
  001c8	89 85 e4 fe ff
	ff		 mov	 DWORD PTR tv471[ebp], eax
  001ce	7e 33		 jle	 SHORT $L120268
  001d0	8d 04 5b	 lea	 eax, DWORD PTR [ebx+ebx*2]
  001d3	c1 e0 02	 shl	 eax, 2
$L112491:
  001d6	8d 14 19	 lea	 edx, DWORD PTR [ecx+ebx]
  001d9	0f b7 4e 08	 movzx	 ecx, WORD PTR [esi+8]
  001dd	3b d1		 cmp	 edx, ecx
  001df	7d 22		 jge	 SHORT $L120268

; 228  : 			{
; 229  : 				if(!m_pData[fileIdx + i].IsInit())

  001e1	8b 4e 04	 mov	 ecx, DWORD PTR [esi+4]
  001e4	80 7c 08 08 00	 cmp	 BYTE PTR [eax+ecx+8], 0
  001e9	74 39		 je	 SHORT $L112495
  001eb	8b 8d e8 fe ff
	ff		 mov	 ecx, DWORD PTR _i$112490[ebp]
  001f1	41		 inc	 ecx
  001f2	83 c0 0c	 add	 eax, 12			; 0000000cH
  001f5	3b 8d e4 fe ff
	ff		 cmp	 ecx, DWORD PTR tv471[ebp]
  001fb	89 8d e8 fe ff
	ff		 mov	 DWORD PTR _i$112490[ebp], ecx
  00201	7c d3		 jl	 SHORT $L112491
$L120268:

; 230  : 				{
; 231  : 					bLoadComplete = false;
; 232  : 					break;
; 233  : 				}
; 234  : 			}
; 235  : 
; 236  : 			if(bLoadComplete)
; 237  : 			{
; 238  : 				delete pFile;

  00203	8b 07		 mov	 eax, DWORD PTR [edi]
  00205	6a 01		 push	 1
  00207	8b cf		 mov	 ecx, edi
  00209	ff 10		 call	 DWORD PTR [eax]

; 239  : 
; 240  : 				if(pos != m_FileCacheMap.end())

  0020b	8b 85 dc fe ff
	ff		 mov	 eax, DWORD PTR _pos$112451[ebp]
  00211	8d 4e 38	 lea	 ecx, DWORD PTR [esi+56]
  00214	3b 01		 cmp	 eax, DWORD PTR [ecx]
  00216	74 63		 je	 SHORT $L120274

; 241  : 					m_FileCacheMap.erase(pos);

  00218	51		 push	 ecx
  00219	8b d4		 mov	 edx, esp
  0021b	89 02		 mov	 DWORD PTR [edx], eax
  0021d	e8 00 00 00 00	 call	 ?erase@?$_Rb_tree@GU?$pair@$$CBGPAVivfstream@@@_STL@@U?$_Select1st@U?$pair@$$CBGPAVivfstream@@@_STL@@@2@U?$less@G@2@V?$allocator@U?$pair@$$CBGPAVivfstream@@@_STL@@@2@@_STL@@QAEXU?$_Rb_tree_iterator@U?$pair@$$CBGPAVivfstream@@@_STL@@U?$_Nonconst_traits@U?$pair@$$CBGPAVivfstream@@@_STL@@@2@@2@@Z ; _STL::_Rb_tree<unsigned short,_STL::pair<unsigned short const ,ivfstream *>,_STL::_Select1st<_STL::pair<unsigned short const ,ivfstream *> >,_STL::less<unsigned short>,_STL::allocator<_STL::pair<unsigned short const ,ivfstream *> > >::erase

; 242  : 			}
; 243  : 			else

  00222	eb 57		 jmp	 SHORT $L120274
$L112495:

; 244  : 			{
; 245  : 				if(pos == m_FileCacheMap.end())

  00224	8b 85 dc fe ff
	ff		 mov	 eax, DWORD PTR _pos$112451[ebp]
  0022a	8d 4e 38	 lea	 ecx, DWORD PTR [esi+56]
  0022d	3b 01		 cmp	 eax, DWORD PTR [ecx]
  0022f	75 4a		 jne	 SHORT $L120274

; 246  : 					m_FileCacheMap.insert(FILECACHE_MAP::value_type(fileIdx, pFile));

  00231	8d 85 d0 fe ff
	ff		 lea	 eax, DWORD PTR $T120108[ebp]
  00237	50		 push	 eax
  00238	8d 85 d8 fe ff
	ff		 lea	 eax, DWORD PTR $T120110[ebp]
  0023e	50		 push	 eax
  0023f	66 89 9d d0 fe
	ff ff		 mov	 WORD PTR $T120108[ebp], bx
  00246	89 bd d4 fe ff
	ff		 mov	 DWORD PTR $T120108[ebp+4], edi
  0024c	e8 00 00 00 00	 call	 ?insert_unique@?$_Rb_tree@GU?$pair@$$CBGPAVivfstream@@@_STL@@U?$_Select1st@U?$pair@$$CBGPAVivfstream@@@_STL@@@2@U?$less@G@2@V?$allocator@U?$pair@$$CBGPAVivfstream@@@_STL@@@2@@_STL@@QAE?AU?$pair@U?$_Rb_tree_iterator@U?$pair@$$CBGPAVivfstream@@@_STL@@U?$_Nonconst_traits@U?$pair@$$CBGPAVivfstream@@@_STL@@@2@@_STL@@_N@2@ABU?$pair@$$CBGPAVivfstream@@@2@@Z ; _STL::_Rb_tree<unsigned short,_STL::pair<unsigned short const ,ivfstream *>,_STL::_Select1st<_STL::pair<unsigned short const ,ivfstream *> >,_STL::less<unsigned short>,_STL::allocator<_STL::pair<unsigned short const ,ivfstream *> > >::insert_unique

; 247  : 			}
; 248  : 		}
; 249  : 		else

  00251	eb 28		 jmp	 SHORT $L120274
$L112415:

; 250  : 		{
; 251  : 			m_file->seekg(m_file_index[n]);

  00253	8b 46 0c	 mov	 eax, DWORD PTR [esi+12]
  00256	83 78 04 00	 cmp	 DWORD PTR [eax+4], 0
  0025a	74 12		 je	 SHORT $L120257
  0025c	8b 4e 10	 mov	 ecx, DWORD PTR [esi+16]
  0025f	8b 40 04	 mov	 eax, DWORD PTR [eax+4]
  00262	8b 10		 mov	 edx, DWORD PTR [eax]
  00264	6a 01		 push	 1
  00266	ff 34 99	 push	 DWORD PTR [ecx+ebx*4]
  00269	8b c8		 mov	 ecx, eax
  0026b	ff 52 18	 call	 DWORD PTR [edx+24]
$L120257:

; 252  : 			m_pData[n].LoadFromFile(*m_file);	// Sprite 

  0026e	8b 4e 04	 mov	 ecx, DWORD PTR [esi+4]
  00271	ff 76 0c	 push	 DWORD PTR [esi+12]
  00274	03 cf		 add	 ecx, edi
  00276	e8 00 00 00 00	 call	 ?LoadFromFile@CShadowSprite@@QAE_NAAVivfstream@@@Z ; CShadowSprite::LoadFromFile
$L120274:

; 253  : 		}
; 254  : 	}
; 255  : 	
; 256  : 	return m_pData[n];

  0027b	0f b7 45 08	 movzx	 eax, WORD PTR _n$[ebp]
  0027f	8b 4e 04	 mov	 ecx, DWORD PTR [esi+4]
  00282	8d 04 40	 lea	 eax, DWORD PTR [eax+eax*2]
  00285	8d 04 81	 lea	 eax, DWORD PTR [ecx+eax*4]

; 257  : }

  00288	8b 4d f4	 mov	 ecx, DWORD PTR __$EHRec$[ebp]
  0028b	64 89 0d 00 00
	00 00		 mov	 DWORD PTR fs:__except_list, ecx
  00292	8b 4d f0	 mov	 ecx, DWORD PTR __$ArrayPad$[ebp]
  00295	e8 00 00 00 00	 call	 @__security_check_cookie@4
  0029a	5f		 pop	 edi
  0029b	5e		 pop	 esi
  0029c	5b		 pop	 ebx
  0029d	c9		 leave
  0029e	c2 04 00	 ret	 4
_TEXT	ENDS
;	COMDAT text$x
text$x	SEGMENT
$L120111:
  00000	ff b5 d4 fe ff
	ff		 push	 DWORD PTR $T120098[ebp]
  00006	e8 00 00 00 00	 call	 ??3@YAXPAX@Z		; operator delete
  0000b	59		 pop	 ecx
  0000c	c3		 ret	 0
$L120160:
  0000d	8b 8d d4 fe ff
	ff		 mov	 ecx, DWORD PTR $T120098[ebp]
  00013	e9 00 00 00 00	 jmp	 ??1iovfs_base@@UAE@XZ	; iovfs_base::~iovfs_base
__ehhandler$?Get@?$CTypePack@VCShadowSprite@@@@UAEAAVCShadowSprite@@G@Z:
  00018	b8 00 00 00 00	 mov	 eax, OFFSET FLAT:$T120262
  0001d	e9 00 00 00 00	 jmp	 ___CxxFrameHandler
text$x	ENDS
?Get@?$CTypePack@VCShadowSprite@@@@UAEAAVCShadowSprite@@G@Z ENDP ; CTypePack<CShadowSprite>::Get
; Function compile flags: /Ogsy
; File c:\darkeden\designed_common\project\client\virtualfilesystem\vfstream.inl
;	COMDAT ?open@ivfstream@@UAEXPBDH@Z
_TEXT	SEGMENT
_szName$ = 8						; size = 4
_nMode$ = 12						; size = 4
?open@ivfstream@@UAEXPBDH@Z PROC NEAR			; ivfstream::open, COMDAT
; _this$ = ecx

; 76   : 	iovfs_base::open(szName, nMode | std::ios_base::in);

  00000	8b 44 24 08	 mov	 eax, DWORD PTR _nMode$[esp-4]
  00004	83 c8 08	 or	 eax, 8
  00007	50		 push	 eax
  00008	ff 74 24 08	 push	 DWORD PTR _szName$[esp]
  0000c	e8 00 00 00 00	 call	 ?open@iovfs_base@@UAEXPBDH@Z ; iovfs_base::open

; 77   : }

  00011	c2 08 00	 ret	 8
?open@ivfstream@@UAEXPBDH@Z ENDP			; ivfstream::open
_TEXT	ENDS
PUBLIC	?_M_insert@?$_Rb_tree@GU?$pair@$$CBGPAVivfstream@@@_STL@@U?$_Select1st@U?$pair@$$CBGPAVivfstream@@@_STL@@@2@U?$less@G@2@V?$allocator@U?$pair@$$CBGPAVivfstream@@@_STL@@@2@@_STL@@AAE?AU?$_Rb_tree_iterator@U?$pair@$$CBGPAVivfstream@@@_STL@@U?$_Nonconst_traits@U?$pair@$$CBGPAVivfstream@@@_STL@@@2@@2@PAU_Rb_tree_node_base@2@0ABU?$pair@$$CBGPAVivfstream@@@2@0@Z ; _STL::_Rb_tree<unsigned short,_STL::pair<unsigned short const ,ivfstream *>,_STL::_Select1st<_STL::pair<unsigned short const ,ivfstream *> >,_STL::less<unsigned short>,_STL::allocator<_STL::pair<unsigned short const ,ivfstream *> > >::_M_insert
EXTRN	?_M_decrement@?$_Rb_global@_N@_STL@@SAPAU_Rb_tree_node_base@2@PAU32@@Z:NEAR ; _STL::_Rb_global<bool>::_M_decrement
; Function compile flags: /Ogsy
; File c:\stlport-4.6.1\stlport\stl\_tree.c
;	COMDAT ?insert_unique@?$_Rb_tree@GU?$pair@$$CBGPAVivfstream@@@_STL@@U?$_Select1st@U?$pair@$$CBGPAVivfstream@@@_STL@@@2@U?$less@G@2@V?$allocator@U?$pair@$$CBGPAVivfstream@@@_STL@@@2@@_STL@@QAE?AU?$pair@U?$_Rb_tree_iterator@U?$pair@$$CBGPAVivfstream@@@_STL@@U?$_Nonconst_traits@U?$pair@$$CBGPAVivfstream@@@_STL@@@2@@_STL@@_N@2@ABU?$pair@$$CBGPAVivfstream@@@2@@Z
_TEXT	SEGMENT
___$ReturnUdt$ = 8					; size = 4
$T120293 = 12						; size = 4
___v$ = 12						; size = 4
?insert_unique@?$_Rb_tree@GU?$pair@$$CBGPAVivfstream@@@_STL@@U?$_Select1st@U?$pair@$$CBGPAVivfstream@@@_STL@@@2@U?$less@G@2@V?$allocator@U?$pair@$$CBGPAVivfstream@@@_STL@@@2@@_STL@@QAE?AU?$pair@U?$_Rb_tree_iterator@U?$pair@$$CBGPAVivfstream@@@_STL@@U?$_Nonconst_traits@U?$pair@$$CBGPAVivfstream@@@_STL@@@2@@_STL@@_N@2@ABU?$pair@$$CBGPAVivfstream@@@2@@Z PROC NEAR ; _STL::_Rb_tree<unsigned short,_STL::pair<unsigned short const ,ivfstream *>,_STL::_Select1st<_STL::pair<unsigned short const ,ivfstream *> >,_STL::less<unsigned short>,_STL::allocator<_STL::pair<unsigned short const ,ivfstream *> > >::insert_unique, COMDAT
; _this$ = ecx

; 401  : {

  00000	55		 push	 ebp
  00001	8b ec		 mov	 ebp, esp
  00003	53		 push	 ebx
  00004	8b d9		 mov	 ebx, ecx

; 402  :   _Link_type __y = this->_M_header._M_data;

  00006	8b 0b		 mov	 ecx, DWORD PTR [ebx]
  00008	56		 push	 esi

; 403  :   _Link_type __x = _M_root();

  00009	8b 71 04	 mov	 esi, DWORD PTR [ecx+4]

; 404  :   bool __comp = true;
; 405  :   while (__x != 0) {

  0000c	85 f6		 test	 esi, esi
  0000e	57		 push	 edi
  0000f	8b f9		 mov	 edi, ecx
  00011	b2 01		 mov	 dl, 1
  00013	74 1f		 je	 SHORT $L120397
  00015	8b 45 0c	 mov	 eax, DWORD PTR ___v$[ebp]
  00018	66 8b 00	 mov	 ax, WORD PTR [eax]
$L114032:

; 406  :     __y = __x;
; 407  :     __comp = _M_key_compare(_KeyOfValue()(__v), _S_key(__x));

  0001b	66 3b 46 10	 cmp	 ax, WORD PTR [esi+16]
  0001f	8b fe		 mov	 edi, esi
  00021	0f 92 c2	 setb	 dl

; 408  :     __x = __comp ? _S_left(__x) : _S_right(__x);

  00024	84 d2		 test	 dl, dl
  00026	74 05		 je	 SHORT $L120286
  00028	8b 76 08	 mov	 esi, DWORD PTR [esi+8]
  0002b	eb 03		 jmp	 SHORT $L120287
$L120286:
  0002d	8b 76 0c	 mov	 esi, DWORD PTR [esi+12]
$L120287:

; 404  :   bool __comp = true;
; 405  :   while (__x != 0) {

  00030	85 f6		 test	 esi, esi
  00032	75 e7		 jne	 SHORT $L114032
$L120397:

; 409  :   }
; 410  :   iterator __j = iterator(__y);   
; 411  :   if (__comp)

  00034	84 d2		 test	 dl, dl
  00036	8b c7		 mov	 eax, edi
  00038	74 15		 je	 SHORT $L120398

; 412  :     if (__j == begin())     

  0003a	3b 79 08	 cmp	 edi, DWORD PTR [ecx+8]
  0003d	75 09		 jne	 SHORT $L114061

; 413  :       return pair<iterator,bool>(_M_insert(/* __x*/ __y, __y, __v), true);

  0003f	6a 00		 push	 0
  00041	ff 75 0c	 push	 DWORD PTR ___v$[ebp]
  00044	57		 push	 edi
  00045	57		 push	 edi
  00046	eb 18		 jmp	 SHORT $L120399
$L114061:

; 414  :     else
; 415  :       --__j;

  00048	57		 push	 edi
  00049	e8 00 00 00 00	 call	 ?_M_decrement@?$_Rb_global@_N@_STL@@SAPAU_Rb_tree_node_base@2@PAU32@@Z ; _STL::_Rb_global<bool>::_M_decrement
  0004e	59		 pop	 ecx
$L120398:

; 416  :   if (_M_key_compare(_S_key(__j._M_node), _KeyOfValue()(__v)))

  0004f	66 8b 50 10	 mov	 dx, WORD PTR [eax+16]
  00053	8b 4d 0c	 mov	 ecx, DWORD PTR ___v$[ebp]
  00056	66 3b 11	 cmp	 dx, WORD PTR [ecx]
  00059	73 1d		 jae	 SHORT $L114067

; 417  :     return pair<iterator,bool>(_M_insert(__x, __y, __v), true);

  0005b	6a 00		 push	 0
  0005d	51		 push	 ecx
  0005e	57		 push	 edi
  0005f	56		 push	 esi
$L120399:
  00060	8d 45 0c	 lea	 eax, DWORD PTR $T120293[ebp]
  00063	50		 push	 eax
  00064	8b cb		 mov	 ecx, ebx
  00066	e8 00 00 00 00	 call	 ?_M_insert@?$_Rb_tree@GU?$pair@$$CBGPAVivfstream@@@_STL@@U?$_Select1st@U?$pair@$$CBGPAVivfstream@@@_STL@@@2@U?$less@G@2@V?$allocator@U?$pair@$$CBGPAVivfstream@@@_STL@@@2@@_STL@@AAE?AU?$_Rb_tree_iterator@U?$pair@$$CBGPAVivfstream@@@_STL@@U?$_Nonconst_traits@U?$pair@$$CBGPAVivfstream@@@_STL@@@2@@2@PAU_Rb_tree_node_base@2@0ABU?$pair@$$CBGPAVivfstream@@@2@0@Z ; _STL::_Rb_tree<unsigned short,_STL::pair<unsigned short const ,ivfstream *>,_STL::_Select1st<_STL::pair<unsigned short const ,ivfstream *> >,_STL::less<unsigned short>,_STL::allocator<_STL::pair<unsigned short const ,ivfstream *> > >::_M_insert
  0006b	8b 08		 mov	 ecx, DWORD PTR [eax]
  0006d	8b 45 08	 mov	 eax, DWORD PTR ___$ReturnUdt$[ebp]
  00070	89 08		 mov	 DWORD PTR [eax], ecx
  00072	c6 40 04 01	 mov	 BYTE PTR [eax+4], 1
  00076	eb 0b		 jmp	 SHORT $L114027
$L114067:

; 418  :   return pair<iterator,bool>(__j, false);

  00078	8b 4d 08	 mov	 ecx, DWORD PTR ___$ReturnUdt$[ebp]
  0007b	89 01		 mov	 DWORD PTR [ecx], eax
  0007d	c6 41 04 00	 mov	 BYTE PTR [ecx+4], 0
  00081	8b c1		 mov	 eax, ecx
$L114027:
  00083	5f		 pop	 edi
  00084	5e		 pop	 esi
  00085	5b		 pop	 ebx

; 419  : }

  00086	5d		 pop	 ebp
  00087	c2 08 00	 ret	 8
?insert_unique@?$_Rb_tree@GU?$pair@$$CBGPAVivfstream@@@_STL@@U?$_Select1st@U?$pair@$$CBGPAVivfstream@@@_STL@@@2@U?$less@G@2@V?$allocator@U?$pair@$$CBGPAVivfstream@@@_STL@@@2@@_STL@@QAE?AU?$pair@U?$_Rb_tree_iterator@U?$pair@$$CBGPAVivfstream@@@_STL@@U?$_Nonconst_traits@U?$pair@$$CBGPAVivfstream@@@_STL@@@2@@_STL@@_N@2@ABU?$pair@$$CBGPAVivfstream@@@2@@Z ENDP ; _STL::_Rb_tree<unsigned short,_STL::pair<unsigned short const ,ivfstream *>,_STL::_Select1st<_STL::pair<unsigned short const ,ivfstream *> >,_STL::less<unsigned short>,_STL::allocator<_STL::pair<unsigned short const ,ivfstream *> > >::insert_unique
_TEXT	ENDS
PUBLIC	?_M_create_node@?$_Rb_tree@GU?$pair@$$CBGPAVivfstream@@@_STL@@U?$_Select1st@U?$pair@$$CBGPAVivfstream@@@_STL@@@2@U?$less@G@2@V?$allocator@U?$pair@$$CBGPAVivfstream@@@_STL@@@2@@_STL@@IAEPAU?$_Rb_tree_node@U?$pair@$$CBGPAVivfstream@@@_STL@@@2@ABU?$pair@$$CBGPAVivfstream@@@2@@Z ; _STL::_Rb_tree<unsigned short,_STL::pair<unsigned short const ,ivfstream *>,_STL::_Select1st<_STL::pair<unsigned short const ,ivfstream *> >,_STL::less<unsigned short>,_STL::allocator<_STL::pair<unsigned short const ,ivfstream *> > >::_M_create_node
EXTRN	?_Rebalance@?$_Rb_global@_N@_STL@@SAXPAU_Rb_tree_node_base@2@AAPAU32@@Z:NEAR ; _STL::_Rb_global<bool>::_Rebalance
; Function compile flags: /Ogsy
;	COMDAT ?_M_insert@?$_Rb_tree@GU?$pair@$$CBGPAVivfstream@@@_STL@@U?$_Select1st@U?$pair@$$CBGPAVivfstream@@@_STL@@@2@U?$less@G@2@V?$allocator@U?$pair@$$CBGPAVivfstream@@@_STL@@@2@@_STL@@AAE?AU?$_Rb_tree_iterator@U?$pair@$$CBGPAVivfstream@@@_STL@@U?$_Nonconst_traits@U?$pair@$$CBGPAVivfstream@@@_STL@@@2@@2@PAU_Rb_tree_node_base@2@0ABU?$pair@$$CBGPAVivfstream@@@2@0@Z
_TEXT	SEGMENT
___$ReturnUdt$ = 8					; size = 4
___x_$ = 12						; size = 4
___y_$ = 16						; size = 4
___v$ = 20						; size = 4
___w_$ = 24						; size = 4
?_M_insert@?$_Rb_tree@GU?$pair@$$CBGPAVivfstream@@@_STL@@U?$_Select1st@U?$pair@$$CBGPAVivfstream@@@_STL@@@2@U?$less@G@2@V?$allocator@U?$pair@$$CBGPAVivfstream@@@_STL@@@2@@_STL@@AAE?AU?$_Rb_tree_iterator@U?$pair@$$CBGPAVivfstream@@@_STL@@U?$_Nonconst_traits@U?$pair@$$CBGPAVivfstream@@@_STL@@@2@@2@PAU_Rb_tree_node_base@2@0ABU?$pair@$$CBGPAVivfstream@@@2@0@Z PROC NEAR ; _STL::_Rb_tree<unsigned short,_STL::pair<unsigned short const ,ivfstream *>,_STL::_Select1st<_STL::pair<unsigned short const ,ivfstream *> >,_STL::less<unsigned short>,_STL::allocator<_STL::pair<unsigned short const ,ivfstream *> > >::_M_insert, COMDAT
; _this$ = ecx

; 347  : {

  00000	55		 push	 ebp
  00001	8b ec		 mov	 ebp, esp

; 348  :   _Link_type __w = (_Link_type) __w_;
; 349  :   _Link_type __x = (_Link_type) __x_;
; 350  :   _Link_type __y = (_Link_type) __y_;
; 351  :   _Link_type __z;
; 352  : 
; 353  :   if ( __y == this->_M_header._M_data ||
; 354  :        ( __w == 0 && // If w != 0, the remainder fails to false
; 355  :          ( __x != 0 ||     // If x != 0, the remainder succeeds to true
; 356  :            _M_key_compare( _KeyOfValue()(__v), _S_key(__y) ) )
; 357  : 	 )
; 358  :        ) {

  00003	8b 45 14	 mov	 eax, DWORD PTR ___v$[ebp]
  00006	53		 push	 ebx
  00007	8b 5d 10	 mov	 ebx, DWORD PTR ___y_$[ebp]
  0000a	56		 push	 esi
  0000b	57		 push	 edi
  0000c	8b f9		 mov	 edi, ecx
  0000e	3b 1f		 cmp	 ebx, DWORD PTR [edi]
  00010	74 2e		 je	 SHORT $L114316
  00012	83 7d 18 00	 cmp	 DWORD PTR ___w_$[ebp], 0
  00016	75 0f		 jne	 SHORT $L114314
  00018	83 7d 0c 00	 cmp	 DWORD PTR ___x_$[ebp], 0
  0001c	75 22		 jne	 SHORT $L114316
  0001e	66 8b 08	 mov	 cx, WORD PTR [eax]
  00021	66 3b 4b 10	 cmp	 cx, WORD PTR [ebx+16]
  00025	72 19		 jb	 SHORT $L114316
$L114314:

; 369  :   }
; 370  :   else {
; 371  :     __z = _M_create_node(__v);

  00027	50		 push	 eax
  00028	8b cf		 mov	 ecx, edi
  0002a	e8 00 00 00 00	 call	 ?_M_create_node@?$_Rb_tree@GU?$pair@$$CBGPAVivfstream@@@_STL@@U?$_Select1st@U?$pair@$$CBGPAVivfstream@@@_STL@@@2@U?$less@G@2@V?$allocator@U?$pair@$$CBGPAVivfstream@@@_STL@@@2@@_STL@@IAEPAU?$_Rb_tree_node@U?$pair@$$CBGPAVivfstream@@@_STL@@@2@ABU?$pair@$$CBGPAVivfstream@@@2@@Z ; _STL::_Rb_tree<unsigned short,_STL::pair<unsigned short const ,ivfstream *>,_STL::_Select1st<_STL::pair<unsigned short const ,ivfstream *> >,_STL::less<unsigned short>,_STL::allocator<_STL::pair<unsigned short const ,ivfstream *> > >::_M_create_node
  0002f	8b f0		 mov	 esi, eax

; 372  :     _S_right(__y) = __z;

  00031	89 73 0c	 mov	 DWORD PTR [ebx+12], esi

; 373  :     if (__y == _M_rightmost())

  00034	8b 07		 mov	 eax, DWORD PTR [edi]
  00036	3b 58 0c	 cmp	 ebx, DWORD PTR [eax+12]
  00039	75 27		 jne	 SHORT $L114319
$L120460:

; 374  :       _M_rightmost() = __z;  // maintain _M_rightmost() pointing to max node

  0003b	89 70 0c	 mov	 DWORD PTR [eax+12], esi
  0003e	eb 22		 jmp	 SHORT $L114319
$L114316:

; 359  :     
; 360  :     __z = _M_create_node(__v);

  00040	50		 push	 eax
  00041	8b cf		 mov	 ecx, edi
  00043	e8 00 00 00 00	 call	 ?_M_create_node@?$_Rb_tree@GU?$pair@$$CBGPAVivfstream@@@_STL@@U?$_Select1st@U?$pair@$$CBGPAVivfstream@@@_STL@@@2@U?$less@G@2@V?$allocator@U?$pair@$$CBGPAVivfstream@@@_STL@@@2@@_STL@@IAEPAU?$_Rb_tree_node@U?$pair@$$CBGPAVivfstream@@@_STL@@@2@ABU?$pair@$$CBGPAVivfstream@@@2@@Z ; _STL::_Rb_tree<unsigned short,_STL::pair<unsigned short const ,ivfstream *>,_STL::_Select1st<_STL::pair<unsigned short const ,ivfstream *> >,_STL::less<unsigned short>,_STL::allocator<_STL::pair<unsigned short const ,ivfstream *> > >::_M_create_node
  00048	8b f0		 mov	 esi, eax

; 361  :     _S_left(__y) = __z;               // also makes _M_leftmost() = __z 

  0004a	89 73 08	 mov	 DWORD PTR [ebx+8], esi

; 362  :                                       //    when __y == _M_header
; 363  :     if (__y == this->_M_header._M_data) {

  0004d	8b 07		 mov	 eax, DWORD PTR [edi]
  0004f	3b d8		 cmp	 ebx, eax
  00051	75 07		 jne	 SHORT $L114317

; 364  :       _M_root() = __z;

  00053	89 70 04	 mov	 DWORD PTR [eax+4], esi

; 365  :       _M_rightmost() = __z;

  00056	8b 07		 mov	 eax, DWORD PTR [edi]

; 366  :     }
; 367  :     else if (__y == _M_leftmost())

  00058	eb e1		 jmp	 SHORT $L120460
$L114317:
  0005a	3b 58 08	 cmp	 ebx, DWORD PTR [eax+8]
  0005d	75 03		 jne	 SHORT $L114319

; 368  :       _M_leftmost() = __z;   // maintain _M_leftmost() pointing to min node

  0005f	89 70 08	 mov	 DWORD PTR [eax+8], esi
$L114319:

; 375  :   }
; 376  :   _S_parent(__z) = __y;
; 377  :   _S_left(__z) = 0;

  00062	83 66 08 00	 and	 DWORD PTR [esi+8], 0

; 378  :   _S_right(__z) = 0;

  00066	83 66 0c 00	 and	 DWORD PTR [esi+12], 0
  0006a	89 5e 04	 mov	 DWORD PTR [esi+4], ebx

; 379  :   _Rb_global_inst::_Rebalance(__z, this->_M_header._M_data->_M_parent);

  0006d	8b 07		 mov	 eax, DWORD PTR [edi]
  0006f	83 c0 04	 add	 eax, 4
  00072	50		 push	 eax
  00073	56		 push	 esi
  00074	e8 00 00 00 00	 call	 ?_Rebalance@?$_Rb_global@_N@_STL@@SAXPAU_Rb_tree_node_base@2@AAPAU32@@Z ; _STL::_Rb_global<bool>::_Rebalance

; 380  :   ++_M_node_count;

  00079	ff 47 04	 inc	 DWORD PTR [edi+4]

; 381  :   return iterator(__z);

  0007c	8b 45 08	 mov	 eax, DWORD PTR ___$ReturnUdt$[ebp]
  0007f	59		 pop	 ecx
  00080	59		 pop	 ecx
  00081	5f		 pop	 edi
  00082	89 30		 mov	 DWORD PTR [eax], esi
  00084	5e		 pop	 esi
  00085	5b		 pop	 ebx

; 382  : }

  00086	5d		 pop	 ebp
  00087	c2 14 00	 ret	 20			; 00000014H
?_M_insert@?$_Rb_tree@GU?$pair@$$CBGPAVivfstream@@@_STL@@U?$_Select1st@U?$pair@$$CBGPAVivfstream@@@_STL@@@2@U?$less@G@2@V?$allocator@U?$pair@$$CBGPAVivfstream@@@_STL@@@2@@_STL@@AAE?AU?$_Rb_tree_iterator@U?$pair@$$CBGPAVivfstream@@@_STL@@U?$_Nonconst_traits@U?$pair@$$CBGPAVivfstream@@@_STL@@@2@@2@PAU_Rb_tree_node_base@2@0ABU?$pair@$$CBGPAVivfstream@@@2@0@Z ENDP ; _STL::_Rb_tree<unsigned short,_STL::pair<unsigned short const ,ivfstream *>,_STL::_Select1st<_STL::pair<unsigned short const ,ivfstream *> >,_STL::less<unsigned short>,_STL::allocator<_STL::pair<unsigned short const ,ivfstream *> > >::_M_insert
; Function compile flags: /Ogsy
; File c:\stlport-4.6.1\stlport\stl\_tree.h
_TEXT	ENDS
;	COMDAT ?_M_create_node@?$_Rb_tree@GU?$pair@$$CBGPAVivfstream@@@_STL@@U?$_Select1st@U?$pair@$$CBGPAVivfstream@@@_STL@@@2@U?$less@G@2@V?$allocator@U?$pair@$$CBGPAVivfstream@@@_STL@@@2@@_STL@@IAEPAU?$_Rb_tree_node@U?$pair@$$CBGPAVivfstream@@@_STL@@@2@ABU?$pair@$$CBGPAVivfstream@@@2@@Z
_TEXT	SEGMENT
___x$ = 8						; size = 4
?_M_create_node@?$_Rb_tree@GU?$pair@$$CBGPAVivfstream@@@_STL@@U?$_Select1st@U?$pair@$$CBGPAVivfstream@@@_STL@@@2@U?$less@G@2@V?$allocator@U?$pair@$$CBGPAVivfstream@@@_STL@@@2@@_STL@@IAEPAU?$_Rb_tree_node@U?$pair@$$CBGPAVivfstream@@@_STL@@@2@ABU?$pair@$$CBGPAVivfstream@@@2@@Z PROC NEAR ; _STL::_Rb_tree<unsigned short,_STL::pair<unsigned short const ,ivfstream *>,_STL::_Select1st<_STL::pair<unsigned short const ,ivfstream *> >,_STL::less<unsigned short>,_STL::allocator<_STL::pair<unsigned short const ,ivfstream *> > >::_M_create_node, COMDAT
; _this$ = ecx

; 243  :     _Link_type __tmp = this->_M_header.allocate(1);

  00000	6a 18		 push	 24			; 00000018H
  00002	e8 00 00 00 00	 call	 ?allocate@?$__node_alloc@$00$0A@@_STL@@SAPAXI@Z ; _STL::__node_alloc<1,0>::allocate
  00007	59		 pop	 ecx

; 244  :     _STLP_TRY {
; 245  :       _Construct(&__tmp->_M_value_field, __x);

  00008	8d 48 10	 lea	 ecx, DWORD PTR [eax+16]
  0000b	85 c9		 test	 ecx, ecx
  0000d	74 12		 je	 SHORT $L120487
  0000f	8b 54 24 04	 mov	 edx, DWORD PTR ___x$[esp-4]
  00013	56		 push	 esi
  00014	66 8b 32	 mov	 si, WORD PTR [edx]
  00017	66 89 31	 mov	 WORD PTR [ecx], si
  0001a	8b 52 04	 mov	 edx, DWORD PTR [edx+4]
  0001d	89 51 04	 mov	 DWORD PTR [ecx+4], edx
  00020	5e		 pop	 esi
$L120487:

; 246  :     }
; 247  :     _STLP_UNWIND(this->_M_header.deallocate(__tmp,1));
; 248  :     return __tmp;
; 249  :   }

  00021	c2 04 00	 ret	 4
?_M_create_node@?$_Rb_tree@GU?$pair@$$CBGPAVivfstream@@@_STL@@U?$_Select1st@U?$pair@$$CBGPAVivfstream@@@_STL@@@2@U?$less@G@2@V?$allocator@U?$pair@$$CBGPAVivfstream@@@_STL@@@2@@_STL@@IAEPAU?$_Rb_tree_node@U?$pair@$$CBGPAVivfstream@@@_STL@@@2@ABU?$pair@$$CBGPAVivfstream@@@2@@Z ENDP ; _STL::_Rb_tree<unsigned short,_STL::pair<unsigned short const ,ivfstream *>,_STL::_Select1st<_STL::pair<unsigned short const ,ivfstream *> >,_STL::less<unsigned short>,_STL::allocator<_STL::pair<unsigned short const ,ivfstream *> > >::_M_create_node
_TEXT	ENDS
PUBLIC	??_7iovfs_base@@6B@				; iovfs_base::`vftable'
PUBLIC	??_Giovfs_base@@UAEPAXI@Z			; iovfs_base::`scalar deleting destructor'
PUBLIC	??_R4iovfs_base@@6B@				; iovfs_base::`RTTI Complete Object Locator'
PUBLIC	??_R3iovfs_base@@8				; iovfs_base::`RTTI Class Hierarchy Descriptor'
PUBLIC	??_R2iovfs_base@@8				; iovfs_base::`RTTI Base Class Array'
EXTRN	?close@iovfs_base@@QAEXXZ:NEAR			; iovfs_base::close
EXTRN	??_Eiovfs_base@@UAEPAXI@Z:NEAR			; iovfs_base::`vector deleting destructor'
;	COMDAT xdata$x
; File c:\darkeden\designed_common\project\client\virtualfilesystem\vfstream.inl
xdata$x	SEGMENT
$T120504 DD	0ffffffffH
	DD	FLAT:$L120500
$T120502 DD	019930520H
	DD	01H
	DD	FLAT:$T120504
	DD	2 DUP(00H)
	DD	2 DUP(00H)
xdata$x	ENDS
;	COMDAT ??_7iovfs_base@@6B@
CONST	SEGMENT
??_7iovfs_base@@6B@ DD FLAT:??_R4iovfs_base@@6B@	; iovfs_base::`vftable'
	DD	FLAT:??_Eiovfs_base@@UAEPAXI@Z
	DD	FLAT:?open@iovfs_base@@UAEXPBDH@Z
CONST	ENDS
;	COMDAT ??_R4iovfs_base@@6B@
rdata$r	SEGMENT
??_R4iovfs_base@@6B@ DD 00H				; iovfs_base::`RTTI Complete Object Locator'
	DD	00H
	DD	00H
	DD	FLAT:??_R0?AViovfs_base@@@8
	DD	FLAT:??_R3iovfs_base@@8
rdata$r	ENDS
;	COMDAT ??_R3iovfs_base@@8
rdata$r	SEGMENT
??_R3iovfs_base@@8 DD 00H				; iovfs_base::`RTTI Class Hierarchy Descriptor'
	DD	00H
	DD	01H
	DD	FLAT:??_R2iovfs_base@@8
rdata$r	ENDS
;	COMDAT ??_R2iovfs_base@@8
rdata$r	SEGMENT
??_R2iovfs_base@@8 DD FLAT:??_R1A@?0A@A@iovfs_base@@8	; iovfs_base::`RTTI Base Class Array'
; Function compile flags: /Ogsy
rdata$r	ENDS
;	COMDAT ??1iovfs_base@@UAE@XZ
_TEXT	SEGMENT
_this$ = -16						; size = 4
__$EHRec$ = -12						; size = 12
??1iovfs_base@@UAE@XZ PROC NEAR				; iovfs_base::~iovfs_base, COMDAT
; _this$ = ecx

; 22   : {

  00000	b8 00 00 00 00	 mov	 eax, __ehhandler$??1iovfs_base@@UAE@XZ
  00005	e8 00 00 00 00	 call	 __EH_prolog
  0000a	51		 push	 ecx
  0000b	56		 push	 esi
  0000c	8b f1		 mov	 esi, ecx
  0000e	89 75 f0	 mov	 DWORD PTR _this$[ebp], esi
  00011	c7 06 00 00 00
	00		 mov	 DWORD PTR [esi], OFFSET FLAT:??_7iovfs_base@@6B@
  00017	83 65 fc 00	 and	 DWORD PTR __$EHRec$[ebp+8], 0

; 23   : 	close();

  0001b	e8 00 00 00 00	 call	 ?close@iovfs_base@@QAEXXZ ; iovfs_base::close

; 24   : }

  00020	83 4d fc ff	 or	 DWORD PTR __$EHRec$[ebp+8], -1
  00024	68 00 00 00 00	 push	 OFFSET FLAT:??1?$basic_string@DV?$char_traits@D@_STL@@V?$allocator@D@2@@_STL@@QAE@XZ ; _STL::basic_string<char,_STL::char_traits<char>,_STL::allocator<char> >::~basic_string<char,_STL::char_traits<char>,_STL::allocator<char> >
  00029	6a 06		 push	 6
  0002b	6a 0c		 push	 12			; 0000000cH
  0002d	83 c6 08	 add	 esi, 8
  00030	56		 push	 esi
  00031	e8 00 00 00 00	 call	 ??_M@YGXPAXIHP6EX0@Z@Z
  00036	8b 4d f4	 mov	 ecx, DWORD PTR __$EHRec$[ebp]
  00039	5e		 pop	 esi
  0003a	64 89 0d 00 00
	00 00		 mov	 DWORD PTR fs:__except_list, ecx
  00041	c9		 leave
  00042	c3		 ret	 0
_TEXT	ENDS
;	COMDAT text$x
text$x	SEGMENT
$L120500:
  00000	68 00 00 00 00	 push	 OFFSET FLAT:??1?$basic_string@DV?$char_traits@D@_STL@@V?$allocator@D@2@@_STL@@QAE@XZ ; _STL::basic_string<char,_STL::char_traits<char>,_STL::allocator<char> >::~basic_string<char,_STL::char_traits<char>,_STL::allocator<char> >
  00005	6a 06		 push	 6
  00007	6a 0c		 push	 12			; 0000000cH
  00009	8b 45 f0	 mov	 eax, DWORD PTR _this$[ebp]
  0000c	83 c0 08	 add	 eax, 8
  0000f	50		 push	 eax
  00010	e8 00 00 00 00	 call	 ??_M@YGXPAXIHP6EX0@Z@Z
  00015	c3		 ret	 0
__ehhandler$??1iovfs_base@@UAE@XZ:
  00016	b8 00 00 00 00	 mov	 eax, OFFSET FLAT:$T120502
  0001b	e9 00 00 00 00	 jmp	 ___CxxFrameHandler
text$x	ENDS
??1iovfs_base@@UAE@XZ ENDP				; iovfs_base::~iovfs_base
; Function compile flags: /Ogsy
;	COMDAT ??_Giovfs_base@@UAEPAXI@Z
_TEXT	SEGMENT
___flags$ = 8						; size = 4
??_Giovfs_base@@UAEPAXI@Z PROC NEAR			; iovfs_base::`scalar deleting destructor', COMDAT
; _this$ = ecx
  00000	56		 push	 esi
  00001	8b f1		 mov	 esi, ecx
  00003	e8 00 00 00 00	 call	 ??1iovfs_base@@UAE@XZ	; iovfs_base::~iovfs_base
  00008	f6 44 24 08 01	 test	 BYTE PTR ___flags$[esp], 1
  0000d	74 07		 je	 SHORT $L105592
  0000f	56		 push	 esi
  00010	e8 00 00 00 00	 call	 ??3@YAXPAX@Z		; operator delete
  00015	59		 pop	 ecx
$L105592:
  00016	8b c6		 mov	 eax, esi
  00018	5e		 pop	 esi
  00019	c2 04 00	 ret	 4
??_Giovfs_base@@UAEPAXI@Z ENDP				; iovfs_base::`scalar deleting destructor'
_TEXT	ENDS
PUBLIC	??1ivfstream@@UAE@XZ				; ivfstream::~ivfstream
; Function compile flags: /Ogsy
;	COMDAT ??_Givfstream@@UAEPAXI@Z
_TEXT	SEGMENT
___flags$ = 8						; size = 4
??_Givfstream@@UAEPAXI@Z PROC NEAR			; ivfstream::`scalar deleting destructor', COMDAT
; _this$ = ecx
  00000	56		 push	 esi
  00001	8b f1		 mov	 esi, ecx
  00003	e8 00 00 00 00	 call	 ??1ivfstream@@UAE@XZ	; ivfstream::~ivfstream
  00008	f6 44 24 08 01	 test	 BYTE PTR ___flags$[esp], 1
  0000d	74 07		 je	 SHORT $L105632
  0000f	56		 push	 esi
  00010	e8 00 00 00 00	 call	 ??3@YAXPAX@Z		; operator delete
  00015	59		 pop	 ecx
$L105632:
  00016	8b c6		 mov	 eax, esi
  00018	5e		 pop	 esi
  00019	c2 04 00	 ret	 4
??_Givfstream@@UAEPAXI@Z ENDP				; ivfstream::`scalar deleting destructor'
; Function compile flags: /Ogsy
_TEXT	ENDS
;	COMDAT ??1ivfstream@@UAE@XZ
_TEXT	SEGMENT
??1ivfstream@@UAE@XZ PROC NEAR				; ivfstream::~ivfstream, COMDAT
; _this$ = ecx

; 70   : {

  00000	c7 01 00 00 00
	00		 mov	 DWORD PTR [ecx], OFFSET FLAT:??_7ivfstream@@6B@

; 71   : 
; 72   : }

  00006	e9 00 00 00 00	 jmp	 ??1iovfs_base@@UAE@XZ	; iovfs_base::~iovfs_base
??1ivfstream@@UAE@XZ ENDP				; ivfstream::~ivfstream
_TEXT	ENDS
PUBLIC	?Init@iovfs_base@@QAEXXZ			; iovfs_base::Init
;	COMDAT xdata$x
; File c:\stlport-4.6.1\stlport\stl\_string.h
xdata$x	SEGMENT
$T120824 DD	0ffffffffH
	DD	FLAT:$L120519
$T120822 DD	019930520H
	DD	01H
	DD	FLAT:$T120824
	DD	2 DUP(00H)
	DD	2 DUP(00H)
; Function compile flags: /Ogsy
; File c:\darkeden\designed_common\project\client\virtualfilesystem\vfstream.inl
xdata$x	ENDS
;	COMDAT ??0iovfs_base@@QAE@XZ
_TEXT	SEGMENT
_this$ = -16						; size = 4
__$EHRec$ = -12						; size = 12
??0iovfs_base@@QAE@XZ PROC NEAR				; iovfs_base::iovfs_base, COMDAT
; _this$ = ecx

; 11   : {

  00000	b8 00 00 00 00	 mov	 eax, __ehhandler$??0iovfs_base@@QAE@XZ
  00005	e8 00 00 00 00	 call	 __EH_prolog
  0000a	51		 push	 ecx
  0000b	56		 push	 esi
  0000c	68 00 00 00 00	 push	 OFFSET FLAT:??1?$basic_string@DV?$char_traits@D@_STL@@V?$allocator@D@2@@_STL@@QAE@XZ ; _STL::basic_string<char,_STL::char_traits<char>,_STL::allocator<char> >::~basic_string<char,_STL::char_traits<char>,_STL::allocator<char> >
  00011	68 00 00 00 00	 push	 OFFSET FLAT:??0?$basic_string@DV?$char_traits@D@_STL@@V?$allocator@D@2@@_STL@@QAE@XZ ; _STL::basic_string<char,_STL::char_traits<char>,_STL::allocator<char> >::basic_string<char,_STL::char_traits<char>,_STL::allocator<char> >
  00016	8b f1		 mov	 esi, ecx
  00018	6a 06		 push	 6
  0001a	6a 0c		 push	 12			; 0000000cH
  0001c	8d 46 08	 lea	 eax, DWORD PTR [esi+8]
  0001f	50		 push	 eax
  00020	89 75 f0	 mov	 DWORD PTR _this$[ebp], esi
  00023	c7 06 00 00 00
	00		 mov	 DWORD PTR [esi], OFFSET FLAT:??_7iovfs_base@@6B@
  00029	e8 00 00 00 00	 call	 ??_L@YGXPAXIHP6EX0@Z1@Z
  0002e	83 65 fc 00	 and	 DWORD PTR __$EHRec$[ebp+8], 0

; 12   : 	Init();

  00032	8b ce		 mov	 ecx, esi
  00034	e8 00 00 00 00	 call	 ?Init@iovfs_base@@QAEXXZ ; iovfs_base::Init

; 13   : }

  00039	8b 4d f4	 mov	 ecx, DWORD PTR __$EHRec$[ebp]
  0003c	8b c6		 mov	 eax, esi
  0003e	5e		 pop	 esi
  0003f	64 89 0d 00 00
	00 00		 mov	 DWORD PTR fs:__except_list, ecx
  00046	c9		 leave
  00047	c3		 ret	 0
_TEXT	ENDS
;	COMDAT text$x
text$x	SEGMENT
$L120519:
  00000	68 00 00 00 00	 push	 OFFSET FLAT:??1?$basic_string@DV?$char_traits@D@_STL@@V?$allocator@D@2@@_STL@@QAE@XZ ; _STL::basic_string<char,_STL::char_traits<char>,_STL::allocator<char> >::~basic_string<char,_STL::char_traits<char>,_STL::allocator<char> >
  00005	6a 06		 push	 6
  00007	6a 0c		 push	 12			; 0000000cH
  00009	8b 45 f0	 mov	 eax, DWORD PTR _this$[ebp]
  0000c	83 c0 08	 add	 eax, 8
  0000f	50		 push	 eax
  00010	e8 00 00 00 00	 call	 ??_M@YGXPAXIHP6EX0@Z@Z
  00015	c3		 ret	 0
__ehhandler$??0iovfs_base@@QAE@XZ:
  00016	b8 00 00 00 00	 mov	 eax, OFFSET FLAT:$T120822
  0001b	e9 00 00 00 00	 jmp	 ___CxxFrameHandler
text$x	ENDS
??0iovfs_base@@QAE@XZ ENDP				; iovfs_base::iovfs_base
PUBLIC	??_C@_0BN@ODLNCKCA@Data?2?2Info?2?2ClientConfig?4inf?$AA@ ; `string'
PUBLIC	??_C@_0BM@DFPLPGPC@Data?2?2Info?2?2GuildMapper?4inf?$AA@ ; `string'
PUBLIC	??_C@_0BN@LHODHNBK@Data?2?2Info?2?2GuildVersion?4inf?$AA@ ; `string'
PUBLIC	??_C@_0BH@DDPLNCOL@Data?2?2Info?2?2Player?4inf?$AA@ ; `string'
PUBLIC	??_C@_0BL@ILLNAPHB@Data?2?2Info?2?2Resolution?4inf?$AA@ ; `string'
PUBLIC	??_C@_0CA@HEIGFDLG@Data?2?2Info?2?2SelectedChannel?4inf?$AA@ ; `string'
PUBLIC	?assign@?$basic_string@DV?$char_traits@D@_STL@@V?$allocator@D@2@@_STL@@QAEAAV12@PBD0@Z ; _STL::basic_string<char,_STL::char_traits<char>,_STL::allocator<char> >::assign
EXTRN	_strlen:NEAR
;	COMDAT ??_C@_0BN@ODLNCKCA@Data?2?2Info?2?2ClientConfig?4inf?$AA@
; File c:\stlport-4.6.1\stlport\stl\_string.h
CONST	SEGMENT
??_C@_0BN@ODLNCKCA@Data?2?2Info?2?2ClientConfig?4inf?$AA@ DB 'Data\\Info\'
	DB	'\ClientConfig.inf', 00H			; `string'
CONST	ENDS
;	COMDAT ??_C@_0BM@DFPLPGPC@Data?2?2Info?2?2GuildMapper?4inf?$AA@
CONST	SEGMENT
??_C@_0BM@DFPLPGPC@Data?2?2Info?2?2GuildMapper?4inf?$AA@ DB 'Data\\Info\\'
	DB	'GuildMapper.inf', 00H			; `string'
CONST	ENDS
;	COMDAT ??_C@_0BN@LHODHNBK@Data?2?2Info?2?2GuildVersion?4inf?$AA@
CONST	SEGMENT
??_C@_0BN@LHODHNBK@Data?2?2Info?2?2GuildVersion?4inf?$AA@ DB 'Data\\Info\'
	DB	'\GuildVersion.inf', 00H			; `string'
CONST	ENDS
;	COMDAT ??_C@_0BH@DDPLNCOL@Data?2?2Info?2?2Player?4inf?$AA@
CONST	SEGMENT
??_C@_0BH@DDPLNCOL@Data?2?2Info?2?2Player?4inf?$AA@ DB 'Data\\Info\\Playe'
	DB	'r.inf', 00H					; `string'
CONST	ENDS
;	COMDAT ??_C@_0BL@ILLNAPHB@Data?2?2Info?2?2Resolution?4inf?$AA@
CONST	SEGMENT
??_C@_0BL@ILLNAPHB@Data?2?2Info?2?2Resolution?4inf?$AA@ DB 'Data\\Info\\R'
	DB	'esolution.inf', 00H				; `string'
CONST	ENDS
;	COMDAT ??_C@_0CA@HEIGFDLG@Data?2?2Info?2?2SelectedChannel?4inf?$AA@
CONST	SEGMENT
??_C@_0CA@HEIGFDLG@Data?2?2Info?2?2SelectedChannel?4inf?$AA@ DB 'Data\\In'
	DB	'fo\\SelectedChannel.inf', 00H		; `string'
; Function compile flags: /Ogsy
; File c:\darkeden\designed_common\project\client\virtualfilesystem\vfstream.inl
CONST	ENDS
;	COMDAT ?Init@iovfs_base@@QAEXXZ
_TEXT	SEGMENT
?Init@iovfs_base@@QAEXXZ PROC NEAR			; iovfs_base::Init, COMDAT
; _this$ = ecx

; 27   : {

  00000	56		 push	 esi
  00001	57		 push	 edi
  00002	8b f1		 mov	 esi, ecx

; 28   : 	m_pFileIO = NULL;

  00004	83 66 04 00	 and	 DWORD PTR [esi+4], 0

; 29   : 
; 30   : 	m_strExceptList[0] = "Data\\\\Info\\\\ClientConfig.inf";

  00008	bf 00 00 00 00	 mov	 edi, OFFSET FLAT:??_C@_0BN@ODLNCKCA@Data?2?2Info?2?2ClientConfig?4inf?$AA@
  0000d	57		 push	 edi
  0000e	e8 00 00 00 00	 call	 _strlen
  00013	59		 pop	 ecx
  00014	03 c7		 add	 eax, edi
  00016	50		 push	 eax
  00017	57		 push	 edi
  00018	8d 4e 08	 lea	 ecx, DWORD PTR [esi+8]
  0001b	e8 00 00 00 00	 call	 ?assign@?$basic_string@DV?$char_traits@D@_STL@@V?$allocator@D@2@@_STL@@QAEAAV12@PBD0@Z ; _STL::basic_string<char,_STL::char_traits<char>,_STL::allocator<char> >::assign

; 31   : 	m_strExceptList[1] = "Data\\\\Info\\\\GuildMapper.inf";

  00020	bf 00 00 00 00	 mov	 edi, OFFSET FLAT:??_C@_0BM@DFPLPGPC@Data?2?2Info?2?2GuildMapper?4inf?$AA@
  00025	57		 push	 edi
  00026	e8 00 00 00 00	 call	 _strlen
  0002b	59		 pop	 ecx
  0002c	03 c7		 add	 eax, edi
  0002e	50		 push	 eax
  0002f	57		 push	 edi
  00030	8d 4e 14	 lea	 ecx, DWORD PTR [esi+20]
  00033	e8 00 00 00 00	 call	 ?assign@?$basic_string@DV?$char_traits@D@_STL@@V?$allocator@D@2@@_STL@@QAEAAV12@PBD0@Z ; _STL::basic_string<char,_STL::char_traits<char>,_STL::allocator<char> >::assign

; 32   : 	m_strExceptList[2] = "Data\\\\Info\\\\GuildVersion.inf";

  00038	bf 00 00 00 00	 mov	 edi, OFFSET FLAT:??_C@_0BN@LHODHNBK@Data?2?2Info?2?2GuildVersion?4inf?$AA@
  0003d	57		 push	 edi
  0003e	e8 00 00 00 00	 call	 _strlen
  00043	59		 pop	 ecx
  00044	03 c7		 add	 eax, edi
  00046	50		 push	 eax
  00047	57		 push	 edi
  00048	8d 4e 20	 lea	 ecx, DWORD PTR [esi+32]
  0004b	e8 00 00 00 00	 call	 ?assign@?$basic_string@DV?$char_traits@D@_STL@@V?$allocator@D@2@@_STL@@QAEAAV12@PBD0@Z ; _STL::basic_string<char,_STL::char_traits<char>,_STL::allocator<char> >::assign

; 33   : 	m_strExceptList[3] = "Data\\\\Info\\\\Player.inf";

  00050	bf 00 00 00 00	 mov	 edi, OFFSET FLAT:??_C@_0BH@DDPLNCOL@Data?2?2Info?2?2Player?4inf?$AA@
  00055	57		 push	 edi
  00056	e8 00 00 00 00	 call	 _strlen
  0005b	59		 pop	 ecx
  0005c	03 c7		 add	 eax, edi
  0005e	50		 push	 eax
  0005f	57		 push	 edi
  00060	8d 4e 2c	 lea	 ecx, DWORD PTR [esi+44]
  00063	e8 00 00 00 00	 call	 ?assign@?$basic_string@DV?$char_traits@D@_STL@@V?$allocator@D@2@@_STL@@QAEAAV12@PBD0@Z ; _STL::basic_string<char,_STL::char_traits<char>,_STL::allocator<char> >::assign

; 34   : 	m_strExceptList[4] = "Data\\\\Info\\\\Resolution.inf";

  00068	bf 00 00 00 00	 mov	 edi, OFFSET FLAT:??_C@_0BL@ILLNAPHB@Data?2?2Info?2?2Resolution?4inf?$AA@
  0006d	57		 push	 edi
  0006e	e8 00 00 00 00	 call	 _strlen
  00073	59		 pop	 ecx
  00074	03 c7		 add	 eax, edi
  00076	50		 push	 eax
  00077	57		 push	 edi
  00078	8d 4e 38	 lea	 ecx, DWORD PTR [esi+56]
  0007b	e8 00 00 00 00	 call	 ?assign@?$basic_string@DV?$char_traits@D@_STL@@V?$allocator@D@2@@_STL@@QAEAAV12@PBD0@Z ; _STL::basic_string<char,_STL::char_traits<char>,_STL::allocator<char> >::assign

; 35   : 	m_strExceptList[5] = "Data\\\\Info\\\\SelectedChannel.inf";

  00080	bf 00 00 00 00	 mov	 edi, OFFSET FLAT:??_C@_0CA@HEIGFDLG@Data?2?2Info?2?2SelectedChannel?4inf?$AA@
  00085	57		 push	 edi
  00086	e8 00 00 00 00	 call	 _strlen
  0008b	59		 pop	 ecx
  0008c	03 c7		 add	 eax, edi
  0008e	50		 push	 eax
  0008f	57		 push	 edi
  00090	8d 4e 44	 lea	 ecx, DWORD PTR [esi+68]
  00093	e8 00 00 00 00	 call	 ?assign@?$basic_string@DV?$char_traits@D@_STL@@V?$allocator@D@2@@_STL@@QAEAAV12@PBD0@Z ; _STL::basic_string<char,_STL::char_traits<char>,_STL::allocator<char> >::assign
  00098	5f		 pop	 edi
  00099	5e		 pop	 esi

; 36   : 	
; 37   : }

  0009a	c3		 ret	 0
?Init@iovfs_base@@QAEXXZ ENDP				; iovfs_base::Init
_TEXT	ENDS
PUBLIC	??$append@PBD@?$basic_string@DV?$char_traits@D@_STL@@V?$allocator@D@2@@_STL@@AAEAAV01@PBD0ABUforward_iterator_tag@1@@Z ; _STL::basic_string<char,_STL::char_traits<char>,_STL::allocator<char> >::append<char const *>
EXTRN	_memcpy:NEAR
; Function compile flags: /Ogsy
; File c:\stlport-4.6.1\stlport\stl\_string.h
;	COMDAT ?assign@?$basic_string@DV?$char_traits@D@_STL@@V?$allocator@D@2@@_STL@@QAEAAV12@PBD0@Z
_TEXT	SEGMENT
___f$ = 8						; size = 4
___l$ = 12						; size = 4
$T121219 = 15						; size = 1
?assign@?$basic_string@DV?$char_traits@D@_STL@@V?$allocator@D@2@@_STL@@QAEAAV12@PBD0@Z PROC NEAR ; _STL::basic_string<char,_STL::char_traits<char>,_STL::allocator<char> >::assign, COMDAT
; _this$ = ecx

; 650  :   {

  00000	55		 push	 ebp
  00001	8b ec		 mov	 ebp, esp
  00003	53		 push	 ebx

; 651  :     ptrdiff_t __n = __l - __f;

  00004	8b 5d 08	 mov	 ebx, DWORD PTR ___f$[ebp]
  00007	56		 push	 esi
  00008	8b f1		 mov	 esi, ecx

; 652  :     if (__STATIC_CAST(size_type,__n) <= size()) {

  0000a	8b 0e		 mov	 ecx, DWORD PTR [esi]
  0000c	8b 46 04	 mov	 eax, DWORD PTR [esi+4]
  0000f	57		 push	 edi
  00010	8b 7d 0c	 mov	 edi, DWORD PTR ___l$[ebp]
  00013	2b fb		 sub	 edi, ebx
  00015	2b c1		 sub	 eax, ecx
  00017	3b f8		 cmp	 edi, eax
  00019	77 20		 ja	 SHORT $L111956

; 653  :       _Traits::copy(this->_M_start, __f, __n);

  0001b	85 ff		 test	 edi, edi
  0001d	74 0b		 je	 SHORT $L121182
  0001f	57		 push	 edi
  00020	53		 push	 ebx
  00021	51		 push	 ecx
  00022	e8 00 00 00 00	 call	 _memcpy
  00027	83 c4 0c	 add	 esp, 12			; 0000000cH
$L121182:

; 654  :       erase(begin() + __n, end());

  0002a	8b 06		 mov	 eax, DWORD PTR [esi]
  0002c	ff 76 04	 push	 DWORD PTR [esi+4]
  0002f	03 c7		 add	 eax, edi
  00031	50		 push	 eax
  00032	8b ce		 mov	 ecx, esi
  00034	e8 00 00 00 00	 call	 ?erase@?$basic_string@DV?$char_traits@D@_STL@@V?$allocator@D@2@@_STL@@QAEPADPAD0@Z ; _STL::basic_string<char,_STL::char_traits<char>,_STL::allocator<char> >::erase

; 655  :     }
; 656  :     else {

  00039	eb 25		 jmp	 SHORT $L121220
$L111956:

; 657  :       _Traits::copy(this->_M_start, __f, size());

  0003b	85 c0		 test	 eax, eax
  0003d	74 0b		 je	 SHORT $L121201
  0003f	50		 push	 eax
  00040	53		 push	 ebx
  00041	51		 push	 ecx
  00042	e8 00 00 00 00	 call	 _memcpy
  00047	83 c4 0c	 add	 esp, 12			; 0000000cH
$L121201:

; 658  :       append(__f + size(), __l);

  0004a	8d 45 0f	 lea	 eax, DWORD PTR $T121219[ebp]
  0004d	50		 push	 eax
  0004e	8b 46 04	 mov	 eax, DWORD PTR [esi+4]
  00051	2b 06		 sub	 eax, DWORD PTR [esi]
  00053	ff 75 0c	 push	 DWORD PTR ___l$[ebp]
  00056	03 c3		 add	 eax, ebx
  00058	50		 push	 eax
  00059	8b ce		 mov	 ecx, esi
  0005b	e8 00 00 00 00	 call	 ??$append@PBD@?$basic_string@DV?$char_traits@D@_STL@@V?$allocator@D@2@@_STL@@AAEAAV01@PBD0ABUforward_iterator_tag@1@@Z ; _STL::basic_string<char,_STL::char_traits<char>,_STL::allocator<char> >::append<char const *>
$L121220:
  00060	5f		 pop	 edi

; 659  :     }
; 660  :     return *this;

  00061	8b c6		 mov	 eax, esi
  00063	5e		 pop	 esi
  00064	5b		 pop	 ebx

; 661  :   }

  00065	5d		 pop	 ebp
  00066	c2 08 00	 ret	 8
?assign@?$basic_string@DV?$char_traits@D@_STL@@V?$allocator@D@2@@_STL@@QAEAAV12@PBD0@Z ENDP ; _STL::basic_string<char,_STL::char_traits<char>,_STL::allocator<char> >::assign
; Function compile flags: /Ogsy
_TEXT	ENDS
;	COMDAT ??$append@PBD@?$basic_string@DV?$char_traits@D@_STL@@V?$allocator@D@2@@_STL@@AAEAAV01@PBD0ABUforward_iterator_tag@1@@Z
_TEXT	SEGMENT
___len$114284 = -8					; size = 4
___old_size$114277 = -8					; size = 4
$T121224 = -4						; size = 4
___first$ = 8						; size = 4
___last$ = 12						; size = 4
___formal$ = 16						; size = 4
??$append@PBD@?$basic_string@DV?$char_traits@D@_STL@@V?$allocator@D@2@@_STL@@AAEAAV01@PBD0ABUforward_iterator_tag@1@@Z PROC NEAR ; _STL::basic_string<char,_STL::char_traits<char>,_STL::allocator<char> >::append<char const *>, COMDAT
; _this$ = ecx

; 542  :   template <class _ForwardIter> _Self& append(_ForwardIter __first, _ForwardIter __last, 

  00000	55		 push	 ebp
  00001	8b ec		 mov	 ebp, esp
  00003	51		 push	 ecx
  00004	51		 push	 ecx
  00005	56		 push	 esi
  00006	57		 push	 edi

; 543  :                        const forward_iterator_tag &)  {
; 544  :     if (__first != __last) {

  00007	8b 7d 0c	 mov	 edi, DWORD PTR ___last$[ebp]
  0000a	39 7d 08	 cmp	 DWORD PTR ___first$[ebp], edi
  0000d	8b f1		 mov	 esi, ecx
  0000f	0f 84 b6 00 00
	00		 je	 $L114290

; 545  : 	    const size_type __old_size = size();
; 546  : 	    difference_type __n = distance(__first, __last);

  00015	2b 7d 08	 sub	 edi, DWORD PTR ___first$[ebp]
  00018	53		 push	 ebx
  00019	8b 5e 04	 mov	 ebx, DWORD PTR [esi+4]
  0001c	2b 1e		 sub	 ebx, DWORD PTR [esi]

; 547  : 	    if (__STATIC_CAST(size_type,__n) > max_size() || __old_size > max_size() - __STATIC_CAST(size_type,__n))

  0001e	83 ff fe	 cmp	 edi, -2			; fffffffeH
  00021	89 5d f8	 mov	 DWORD PTR ___old_size$114277[ebp], ebx
  00024	77 09		 ja	 SHORT $L114282
  00026	6a fe		 push	 -2			; fffffffeH
  00028	58		 pop	 eax
  00029	2b c7		 sub	 eax, edi
  0002b	3b d8		 cmp	 ebx, eax
  0002d	76 07		 jbe	 SHORT $L114281
$L114282:

; 548  : 	      this->_M_throw_length_error();

  0002f	8b ce		 mov	 ecx, esi
  00031	e8 00 00 00 00	 call	 ?_M_throw_length_error@?$_String_base@DV?$allocator@D@_STL@@@_STL@@QBEXXZ ; _STL::_String_base<char,_STL::allocator<char> >::_M_throw_length_error
$L114281:

; 549  : 	    if (__old_size + __n > capacity()) {

  00036	8b 46 08	 mov	 eax, DWORD PTR [esi+8]
  00039	2b 06		 sub	 eax, DWORD PTR [esi]
  0003b	8d 0c 1f	 lea	 ecx, DWORD PTR [edi+ebx]
  0003e	48		 dec	 eax
  0003f	3b c8		 cmp	 ecx, eax
  00041	76 5e		 jbe	 SHORT $L114283

; 550  : 	      const size_type __len = __old_size +
; 551  : 	                            (max)(__old_size, __STATIC_CAST(size_type,__n)) + 1;

  00043	3b df		 cmp	 ebx, edi
  00045	89 7d fc	 mov	 DWORD PTR $T121224[ebp], edi
  00048	8d 45 fc	 lea	 eax, DWORD PTR $T121224[ebp]
  0004b	72 03		 jb	 SHORT $L121268
  0004d	8d 45 f8	 lea	 eax, DWORD PTR ___old_size$114277[ebp]
$L121268:
  00050	8b 00		 mov	 eax, DWORD PTR [eax]
  00052	8d 5c 18 01	 lea	 ebx, DWORD PTR [eax+ebx+1]

; 552  : 	      pointer __new_start = this->_M_end_of_storage.allocate(__len);

  00056	85 db		 test	 ebx, ebx
  00058	89 5d f8	 mov	 DWORD PTR ___len$114284[ebp], ebx
  0005b	74 0b		 je	 SHORT $L121275
  0005d	53		 push	 ebx
  0005e	e8 00 00 00 00	 call	 ?allocate@?$__node_alloc@$00$0A@@_STL@@SAPAXI@Z ; _STL::__node_alloc<1,0>::allocate
  00063	59		 pop	 ecx
  00064	8b f8		 mov	 edi, eax
  00066	eb 02		 jmp	 SHORT $L121276
$L121275:
  00068	33 ff		 xor	 edi, edi
$L121276:

; 553  : 	      pointer __new_finish = __new_start;
; 554  : 	      _STLP_TRY {
; 555  : 	        __new_finish = uninitialized_copy(this->_M_start, this->_M_finish, __new_start);

  0006a	8b 46 04	 mov	 eax, DWORD PTR [esi+4]
  0006d	8b 0e		 mov	 ecx, DWORD PTR [esi]
  0006f	57		 push	 edi
  00070	50		 push	 eax
  00071	51		 push	 ecx
  00072	e8 00 00 00 00	 call	 ?__copy_trivial@_STL@@YAPAXPBX0PAX@Z ; _STL::__copy_trivial

; 556  : 	        __new_finish = uninitialized_copy(__first, __last, __new_finish);

  00077	50		 push	 eax
  00078	ff 75 0c	 push	 DWORD PTR ___last$[ebp]
  0007b	ff 75 08	 push	 DWORD PTR ___first$[ebp]
  0007e	e8 00 00 00 00	 call	 ?__copy_trivial@_STL@@YAPAXPBX0PAX@Z ; _STL::__copy_trivial
  00083	8b d8		 mov	 ebx, eax
  00085	83 c4 18	 add	 esp, 24			; 00000018H

; 557  : 	        _M_construct_null(__new_finish);
; 558  : 	      }
; 559  : 	      _STLP_UNWIND((_STLP_STD::_Destroy(__new_start,__new_finish),
; 560  : 	                    this->_M_end_of_storage.deallocate(__new_start,__len)));
; 561  : 	      _STLP_STD::_Destroy(this->_M_start, this->_M_finish + 1);
; 562  : 	      this->_M_deallocate_block();

  00088	8b ce		 mov	 ecx, esi
  0008a	c6 03 00	 mov	 BYTE PTR [ebx], 0
  0008d	e8 00 00 00 00	 call	 ?_M_deallocate_block@?$_String_base@DV?$allocator@D@_STL@@@_STL@@QAEXXZ ; _STL::_String_base<char,_STL::allocator<char> >::_M_deallocate_block

; 563  : 	      this->_M_start = __new_start;
; 564  : 	      this->_M_finish = __new_finish;
; 565  : 	      this->_M_end_of_storage._M_data = __new_start + __len; 

  00092	8b 45 f8	 mov	 eax, DWORD PTR ___len$114284[ebp]
  00095	89 3e		 mov	 DWORD PTR [esi], edi
  00097	03 f8		 add	 edi, eax
  00099	89 5e 04	 mov	 DWORD PTR [esi+4], ebx
  0009c	89 7e 08	 mov	 DWORD PTR [esi+8], edi

; 566  : 	    }
; 567  : 	    else {

  0009f	eb 29		 jmp	 SHORT $L121405
$L114283:

; 568  : 	      _ForwardIter __f1 = __first;
; 569  : 	      ++__f1;
; 570  : 	      uninitialized_copy(__f1, __last, this->_M_finish + 1);

  000a1	8b 46 04	 mov	 eax, DWORD PTR [esi+4]
  000a4	40		 inc	 eax
  000a5	50		 push	 eax
  000a6	8b 45 08	 mov	 eax, DWORD PTR ___first$[ebp]
  000a9	ff 75 0c	 push	 DWORD PTR ___last$[ebp]
  000ac	40		 inc	 eax
  000ad	50		 push	 eax
  000ae	e8 00 00 00 00	 call	 ?__copy_trivial@_STL@@YAPAXPBX0PAX@Z ; _STL::__copy_trivial

; 571  : 	      _STLP_TRY {
; 572  : 	        _M_construct_null(this->_M_finish + __n);

  000b3	8b 46 04	 mov	 eax, DWORD PTR [esi+4]

; 573  : 	      }
; 574  : 	      _STLP_UNWIND(_STLP_STD::_Destroy(this->_M_finish + 1, this->_M_finish + __n));
; 575  : 	      _Traits::assign(*end(), *__first);

  000b6	8b 4d 08	 mov	 ecx, DWORD PTR ___first$[ebp]
  000b9	c6 04 07 00	 mov	 BYTE PTR [edi+eax], 0
  000bd	8b 46 04	 mov	 eax, DWORD PTR [esi+4]
  000c0	8a 09		 mov	 cl, BYTE PTR [ecx]
  000c2	83 c4 0c	 add	 esp, 12			; 0000000cH
  000c5	88 08		 mov	 BYTE PTR [eax], cl

; 576  : 	      this->_M_finish += __n;

  000c7	01 7e 04	 add	 DWORD PTR [esi+4], edi
$L121405:
  000ca	5b		 pop	 ebx
$L114290:
  000cb	5f		 pop	 edi

; 577  : 	    }
; 578  : 	  }
; 579  : 	  return *this;  

  000cc	8b c6		 mov	 eax, esi
  000ce	5e		 pop	 esi

; 580  : 	}

  000cf	c9		 leave
  000d0	c2 0c 00	 ret	 12			; 0000000cH
??$append@PBD@?$basic_string@DV?$char_traits@D@_STL@@V?$allocator@D@2@@_STL@@AAEAAV01@PBD0ABUforward_iterator_tag@1@@Z ENDP ; _STL::basic_string<char,_STL::char_traits<char>,_STL::allocator<char> >::append<char const *>
_TEXT	ENDS
PUBLIC	?is_open@iovfs_base@@QBE_NXZ			; iovfs_base::is_open
PUBLIC	??_C@_0M@KJGOGBJN@?2header?4inf?$AA@		; `string'
PUBLIC	??0?$basic_string@DV?$char_traits@D@_STL@@V?$allocator@D@2@@_STL@@QAE@ABV01@@Z ; _STL::basic_string<char,_STL::char_traits<char>,_STL::allocator<char> >::basic_string<char,_STL::char_traits<char>,_STL::allocator<char> >
PUBLIC	??0?$basic_string@DV?$char_traits@D@_STL@@V?$allocator@D@2@@_STL@@QAE@PBDABV?$allocator@D@1@@Z ; _STL::basic_string<char,_STL::char_traits<char>,_STL::allocator<char> >::basic_string<char,_STL::char_traits<char>,_STL::allocator<char> >
PUBLIC	?append@?$basic_string@DV?$char_traits@D@_STL@@V?$allocator@D@2@@_STL@@QAEAAV12@PBD@Z ; _STL::basic_string<char,_STL::char_traits<char>,_STL::allocator<char> >::append
PUBLIC	?push_back@?$basic_string@DV?$char_traits@D@_STL@@V?$allocator@D@2@@_STL@@QAEXD@Z ; _STL::basic_string<char,_STL::char_traits<char>,_STL::allocator<char> >::push_back
EXTRN	?s_VFSystem@iovfs_base@@1VVirtualFileSystem@@A:DWORD ; iovfs_base::s_VFSystem
EXTRN	_atoi:NEAR
EXTRN	__splitpath:NEAR
EXTRN	?IsFileExist@VirtualFileSystem@@QBE_NPBD@Z:NEAR	; VirtualFileSystem::IsFileExist
;	COMDAT xdata$x
; File c:\stlport-4.6.1\stlport\stl\_alloc.h
xdata$x	SEGMENT
$T121832 DD	0ffffffffH
	DD	FLAT:$L121419
	DD	00H
	DD	FLAT:$L121448
	DD	00H
	DD	FLAT:$L121420
	DD	02H
	DD	FLAT:$L121421
	DD	03H
	DD	FLAT:$L121520
	DD	03H
	DD	FLAT:$L121422
	DD	02H
	DD	FLAT:$L121423
$T121818 DD	019930520H
	DD	07H
	DD	FLAT:$T121832
	DD	2 DUP(00H)
	DD	2 DUP(00H)
xdata$x	ENDS
;	COMDAT ??_C@_0M@KJGOGBJN@?2header?4inf?$AA@
CONST	SEGMENT
??_C@_0M@KJGOGBJN@?2header?4inf?$AA@ DB '\header.inf', 00H ; `string'
; Function compile flags: /Ogsy
; File c:\darkeden\designed_common\project\client\spritelib\ctypepack.h
CONST	ENDS
;	COMDAT ?LoadFromFileRunning@?$CTypePack@VCShadowSprite@@@@UAE_NPBD@Z
_TEXT	SEGMENT
_indexFile$ = -476					; size = 80
_fileHeader$112945 = -396				; size = 80
_indexFileName$ = -316					; size = 12
_strHeaderPath$112943 = -304				; size = 12
$T121409 = -289						; size = 1
_indexSize$ = -288					; size = 2
_bLoadIndexFile$ = -281					; size = 1
_szExt$112952 = -280					; size = 256
_lineBuffer$112949 = -24				; size = 8
$T121413 = -20						; size = 4
__$ArrayPad$ = -16					; size = 4
__$EHRec$ = -12						; size = 12
__$ReturnAddr$ = 4					; size = 4
_lpszFilename$ = 8					; size = 4
?LoadFromFileRunning@?$CTypePack@VCShadowSprite@@@@UAE_NPBD@Z PROC NEAR ; CTypePack<CShadowSprite>::LoadFromFileRunning, COMDAT
; _this$ = ecx

; 320  : {

  00000	b8 00 00 00 00	 mov	 eax, __ehhandler$?LoadFromFileRunning@?$CTypePack@VCShadowSprite@@@@UAE_NPBD@Z
  00005	e8 00 00 00 00	 call	 __EH_prolog
  0000a	81 ec d0 01 00
	00		 sub	 esp, 464		; 000001d0H
  00010	a1 00 00 00 00	 mov	 eax, DWORD PTR ___security_cookie
  00015	53		 push	 ebx
  00016	56		 push	 esi
  00017	8b f1		 mov	 esi, ecx
  00019	89 45 f0	 mov	 DWORD PTR __$ArrayPad$[ebp], eax

; 321  : 	Release();

  0001c	8b 06		 mov	 eax, DWORD PTR [esi]
  0001e	57		 push	 edi
  0001f	ff 50 08	 call	 DWORD PTR [eax+8]

; 322  : 
; 323  : 	//    .
; 324  : 	std::string indexFileName = lpszFilename;

  00022	8d 85 df fe ff
	ff		 lea	 eax, DWORD PTR $T121409[ebp]
  00028	50		 push	 eax
  00029	ff 75 08	 push	 DWORD PTR _lpszFilename$[ebp]
  0002c	8d 8d c4 fe ff
	ff		 lea	 ecx, DWORD PTR _indexFileName$[ebp]
  00032	e8 00 00 00 00	 call	 ??0?$basic_string@DV?$char_traits@D@_STL@@V?$allocator@D@2@@_STL@@QAE@PBDABV?$allocator@D@1@@Z ; _STL::basic_string<char,_STL::char_traits<char>,_STL::allocator<char> >::basic_string<char,_STL::char_traits<char>,_STL::allocator<char> >
  00037	83 65 fc 00	 and	 DWORD PTR __$EHRec$[ebp+8], 0

; 325  : 	indexFileName += 'i';

  0003b	6a 69		 push	 105			; 00000069H
  0003d	8d 8d c4 fe ff
	ff		 lea	 ecx, DWORD PTR _indexFileName$[ebp]
  00043	e8 00 00 00 00	 call	 ?push_back@?$basic_string@DV?$char_traits@D@_STL@@V?$allocator@D@2@@_STL@@QAEXD@Z ; _STL::basic_string<char,_STL::char_traits<char>,_STL::allocator<char> >::push_back

; 326  : 
; 327  : 	WORD indexSize = 0;

  00048	83 a5 e0 fe ff
	ff 00		 and	 DWORD PTR _indexSize$[ebp], 0

; 328  : 	bool bLoadIndexFile = false;
; 329  : 
; 330  : 	ivfstream indexFile(indexFileName.c_str(), std::ios::binary);

  0004f	8b 9d c4 fe ff
	ff		 mov	 ebx, DWORD PTR _indexFileName$[ebp]
  00055	8d 8d 24 fe ff
	ff		 lea	 ecx, DWORD PTR _indexFile$[ebp]
  0005b	c6 85 e7 fe ff
	ff 00		 mov	 BYTE PTR _bLoadIndexFile$[ebp], 0
  00062	e8 00 00 00 00	 call	 ??0iovfs_base@@QAE@XZ	; iovfs_base::iovfs_base
  00067	6a 0c		 push	 12			; 0000000cH
  00069	bf 00 00 00 00	 mov	 edi, OFFSET FLAT:??_7ivfstream@@6B@
  0006e	53		 push	 ebx
  0006f	8d 8d 24 fe ff
	ff		 lea	 ecx, DWORD PTR _indexFile$[ebp]
  00075	c6 45 fc 01	 mov	 BYTE PTR __$EHRec$[ebp+8], 1
  00079	89 bd 24 fe ff
	ff		 mov	 DWORD PTR _indexFile$[ebp], edi
  0007f	e8 00 00 00 00	 call	 ?open@iovfs_base@@UAEXPBDH@Z ; iovfs_base::open

; 331  : 
; 332  : 	if(indexFile.is_open())

  00084	8d 8d 24 fe ff
	ff		 lea	 ecx, DWORD PTR _indexFile$[ebp]
  0008a	c6 45 fc 02	 mov	 BYTE PTR __$EHRec$[ebp+8], 2
  0008e	e8 00 00 00 00	 call	 ?is_open@iovfs_base@@QBE_NXZ ; iovfs_base::is_open
  00093	84 c0		 test	 al, al
  00095	74 7a		 je	 SHORT $L121827

; 333  : 	{
; 334  : 		indexFile.read((char *)&indexSize, 2);

  00097	8b 8d 28 fe ff
	ff		 mov	 ecx, DWORD PTR _indexFile$[ebp+4]
  0009d	85 c9		 test	 ecx, ecx
  0009f	74 0e		 je	 SHORT $L121826
  000a1	8b 01		 mov	 eax, DWORD PTR [ecx]
  000a3	6a 02		 push	 2
  000a5	8d 95 e0 fe ff
	ff		 lea	 edx, DWORD PTR _indexSize$[ebp]
  000ab	52		 push	 edx
  000ac	ff 50 10	 call	 DWORD PTR [eax+16]
$L121826:

; 335  : 
; 336  : 		Init(indexSize);

  000af	ff b5 e0 fe ff
	ff		 push	 DWORD PTR _indexSize$[ebp]
  000b5	8b 06		 mov	 eax, DWORD PTR [esi]
  000b7	8b ce		 mov	 ecx, esi
  000b9	ff 50 04	 call	 DWORD PTR [eax+4]

; 337  : 		
; 338  : 		m_file_index = new int[indexSize];

  000bc	0f b7 85 e0 fe
	ff ff		 movzx	 eax, WORD PTR _indexSize$[ebp]
  000c3	c1 e0 02	 shl	 eax, 2
  000c6	50		 push	 eax
  000c7	e8 00 00 00 00	 call	 ??_U@YAPAXI@Z		; operator new[]

; 339  : 		
; 340  : 		register int i = 0;

  000cc	33 db		 xor	 ebx, ebx

; 341  : 		
; 342  : 		for(; i < indexSize; ++i)

  000ce	66 39 9d e0 fe
	ff ff		 cmp	 WORD PTR _indexSize$[ebp], bx
  000d5	59		 pop	 ecx
  000d6	89 46 10	 mov	 DWORD PTR [esi+16], eax
  000d9	76 24		 jbe	 SHORT $L112939
$L121829:

; 343  : 		{
; 344  : 			indexFile.read((char*)&m_file_index[i], 4);

  000db	8b 8d 28 fe ff
	ff		 mov	 ecx, DWORD PTR _indexFile$[ebp+4]
  000e1	85 c9		 test	 ecx, ecx
  000e3	8b 46 10	 mov	 eax, DWORD PTR [esi+16]
  000e6	8d 04 98	 lea	 eax, DWORD PTR [eax+ebx*4]
  000e9	74 08		 je	 SHORT $L112938
  000eb	8b 11		 mov	 edx, DWORD PTR [ecx]
  000ed	6a 04		 push	 4
  000ef	50		 push	 eax
  000f0	ff 52 10	 call	 DWORD PTR [edx+16]
$L112938:
  000f3	0f b7 85 e0 fe
	ff ff		 movzx	 eax, WORD PTR _indexSize$[ebp]
  000fa	43		 inc	 ebx
  000fb	3b d8		 cmp	 ebx, eax
  000fd	7c dc		 jl	 SHORT $L121829
$L112939:

; 345  : 		}
; 346  : 		
; 347  : 		indexFile.close();

  000ff	8d 8d 24 fe ff
	ff		 lea	 ecx, DWORD PTR _indexFile$[ebp]
  00105	e8 00 00 00 00	 call	 ?close@iovfs_base@@QAEXXZ ; iovfs_base::close

; 348  : 		
; 349  : 		bLoadIndexFile = true;

  0010a	c6 85 e7 fe ff
	ff 01		 mov	 BYTE PTR _bLoadIndexFile$[ebp], 1
$L121827:

; 350  : 	}
; 351  : 	else
; 352  : 	{
; 353  : #ifdef OUTPUT_DEBUG
; 354  : 		char szBuf[256];
; 355  : 		sprintf(szBuf, "CTypePack Can Not Find Index File: %s\n", indexFileName.c_str());
; 356  : 		OutputDebugString(szBuf);
; 357  : #endif
; 358  : 	}
; 359  : 
; 360  : 	//     .
; 361  : 	//     .
; 362  : 	m_bSplitFile = !iovfs_base::get_vfs()->IsFileExist(lpszFilename);

  00111	ff 75 08	 push	 DWORD PTR _lpszFilename$[ebp]
  00114	b9 00 00 00 00	 mov	 ecx, OFFSET FLAT:?s_VFSystem@iovfs_base@@1VVirtualFileSystem@@A ; iovfs_base::s_VFSystem
  00119	e8 00 00 00 00	 call	 ?IsFileExist@VirtualFileSystem@@QBE_NPBD@Z ; VirtualFileSystem::IsFileExist
  0011e	f6 d8		 neg	 al
  00120	1a c0		 sbb	 al, al
  00122	fe c0		 inc	 al
  00124	88 46 14	 mov	 BYTE PTR [esi+20], al

; 363  : 
; 364  : 	if(m_bSplitFile)

  00127	0f 84 bc 01 00
	00		 je	 $L112942

; 365  : 	{
; 366  : 		m_strFileName = lpszFilename;

  0012d	ff 75 08	 push	 DWORD PTR _lpszFilename$[ebp]
  00130	8d 5e 20	 lea	 ebx, DWORD PTR [esi+32]
  00133	e8 00 00 00 00	 call	 _strlen
  00138	03 45 08	 add	 eax, DWORD PTR _lpszFilename$[ebp]
  0013b	59		 pop	 ecx
  0013c	50		 push	 eax
  0013d	ff 75 08	 push	 DWORD PTR _lpszFilename$[ebp]
  00140	8b cb		 mov	 ecx, ebx
  00142	e8 00 00 00 00	 call	 ?assign@?$basic_string@DV?$char_traits@D@_STL@@V?$allocator@D@2@@_STL@@QAEAAV12@PBD0@Z ; _STL::basic_string<char,_STL::char_traits<char>,_STL::allocator<char> >::assign

; 367  : 		
; 368  : 		std::string strHeaderPath = m_strFileName;

  00147	53		 push	 ebx
  00148	8d 8d d0 fe ff
	ff		 lea	 ecx, DWORD PTR _strHeaderPath$112943[ebp]
  0014e	e8 00 00 00 00	 call	 ??0?$basic_string@DV?$char_traits@D@_STL@@V?$allocator@D@2@@_STL@@QAE@ABV01@@Z ; _STL::basic_string<char,_STL::char_traits<char>,_STL::allocator<char> >::basic_string<char,_STL::char_traits<char>,_STL::allocator<char> >

; 369  : 		strHeaderPath += "\\header.inf";

  00153	68 00 00 00 00	 push	 OFFSET FLAT:??_C@_0M@KJGOGBJN@?2header?4inf?$AA@
  00158	8d 8d d0 fe ff
	ff		 lea	 ecx, DWORD PTR _strHeaderPath$112943[ebp]
  0015e	c6 45 fc 03	 mov	 BYTE PTR __$EHRec$[ebp+8], 3
  00162	e8 00 00 00 00	 call	 ?append@?$basic_string@DV?$char_traits@D@_STL@@V?$allocator@D@2@@_STL@@QAEAAV12@PBD@Z ; _STL::basic_string<char,_STL::char_traits<char>,_STL::allocator<char> >::append

; 370  : 		ivfstream fileHeader(strHeaderPath.c_str(), 0);

  00167	8b 9d d0 fe ff
	ff		 mov	 ebx, DWORD PTR _strHeaderPath$112943[ebp]
  0016d	8d 8d 74 fe ff
	ff		 lea	 ecx, DWORD PTR _fileHeader$112945[ebp]
  00173	e8 00 00 00 00	 call	 ??0iovfs_base@@QAE@XZ	; iovfs_base::iovfs_base
  00178	6a 08		 push	 8
  0017a	53		 push	 ebx
  0017b	8d 8d 74 fe ff
	ff		 lea	 ecx, DWORD PTR _fileHeader$112945[ebp]
  00181	c6 45 fc 04	 mov	 BYTE PTR __$EHRec$[ebp+8], 4
  00185	89 bd 74 fe ff
	ff		 mov	 DWORD PTR _fileHeader$112945[ebp], edi
  0018b	e8 00 00 00 00	 call	 ?open@iovfs_base@@UAEXPBDH@Z ; iovfs_base::open

; 371  : 		
; 372  : 		if(!fileHeader.is_open())

  00190	8d 8d 74 fe ff
	ff		 lea	 ecx, DWORD PTR _fileHeader$112945[ebp]
  00196	c6 45 fc 05	 mov	 BYTE PTR __$EHRec$[ebp+8], 5
  0019a	e8 00 00 00 00	 call	 ?is_open@iovfs_base@@QBE_NXZ ; iovfs_base::is_open
  0019f	84 c0		 test	 al, al
  001a1	75 45		 jne	 SHORT $L112946

; 373  : 		{
; 374  : 			Release();

  001a3	8b 06		 mov	 eax, DWORD PTR [esi]
  001a5	8b ce		 mov	 ecx, esi
  001a7	ff 50 08	 call	 DWORD PTR [eax+8]

; 375  : 			return false;

  001aa	8d 8d 74 fe ff
	ff		 lea	 ecx, DWORD PTR _fileHeader$112945[ebp]
  001b0	c6 45 fc 03	 mov	 BYTE PTR __$EHRec$[ebp+8], 3
  001b4	89 bd 74 fe ff
	ff		 mov	 DWORD PTR _fileHeader$112945[ebp], edi
  001ba	e8 00 00 00 00	 call	 ??1iovfs_base@@UAE@XZ	; iovfs_base::~iovfs_base
  001bf	8b 85 d8 fe ff
	ff		 mov	 eax, DWORD PTR _strHeaderPath$112943[ebp+8]
  001c5	2b 85 d0 fe ff
	ff		 sub	 eax, DWORD PTR _strHeaderPath$112943[ebp]
  001cb	8d 8d d8 fe ff
	ff		 lea	 ecx, DWORD PTR _strHeaderPath$112943[ebp+8]
  001d1	50		 push	 eax
  001d2	ff b5 d0 fe ff
	ff		 push	 DWORD PTR _strHeaderPath$112943[ebp]
  001d8	c6 45 fc 02	 mov	 BYTE PTR __$EHRec$[ebp+8], 2
  001dc	e8 00 00 00 00	 call	 ?deallocate@?$allocator@D@_STL@@QAEXPADI@Z ; _STL::allocator<char>::deallocate
  001e1	32 db		 xor	 bl, bl
  001e3	e9 89 01 00 00	 jmp	 $L121824
$L112946:

; 376  : 		}
; 377  : 		
; 378  : 		const int bufferSize = 8;
; 379  : 		char lineBuffer[bufferSize];
; 380  : 
; 381  : 		fileHeader.getline(lineBuffer, bufferSize);

  001e8	8b 8d 78 fe ff
	ff		 mov	 ecx, DWORD PTR _fileHeader$112945[ebp+4]
  001ee	33 db		 xor	 ebx, ebx
  001f0	3b cb		 cmp	 ecx, ebx
  001f2	74 0d		 je	 SHORT $L121828
  001f4	8b 01		 mov	 eax, DWORD PTR [ecx]
  001f6	6a 0a		 push	 10			; 0000000aH
  001f8	6a 08		 push	 8
  001fa	8d 55 e8	 lea	 edx, DWORD PTR _lineBuffer$112949[ebp]
  001fd	52		 push	 edx
  001fe	ff 50 2c	 call	 DWORD PTR [eax+44]
$L121828:

; 382  : 		m_Size = static_cast<WORD>(atoi(lineBuffer));

  00201	8d 45 e8	 lea	 eax, DWORD PTR _lineBuffer$112949[ebp]
  00204	50		 push	 eax
  00205	e8 00 00 00 00	 call	 _atoi
  0020a	59		 pop	 ecx

; 383  : 
; 384  : 		fileHeader.getline(lineBuffer, bufferSize);

  0020b	8b 8d 78 fe ff
	ff		 mov	 ecx, DWORD PTR _fileHeader$112945[ebp+4]
  00211	3b cb		 cmp	 ecx, ebx
  00213	66 89 46 08	 mov	 WORD PTR [esi+8], ax
  00217	74 0d		 je	 SHORT $L121620
  00219	8b 01		 mov	 eax, DWORD PTR [ecx]
  0021b	6a 0a		 push	 10			; 0000000aH
  0021d	6a 08		 push	 8
  0021f	8d 55 e8	 lea	 edx, DWORD PTR _lineBuffer$112949[ebp]
  00222	52		 push	 edx
  00223	ff 50 2c	 call	 DWORD PTR [eax+44]
$L121620:

; 385  : 		m_nUnitCount = static_cast<int>(atoi(lineBuffer));

  00226	8d 45 e8	 lea	 eax, DWORD PTR _lineBuffer$112949[ebp]
  00229	50		 push	 eax
  0022a	e8 00 00 00 00	 call	 _atoi
  0022f	59		 pop	 ecx
  00230	89 46 18	 mov	 DWORD PTR [esi+24], eax

; 386  : 		m_nUnitTwoMultiplier = LogTwoMultiplier(m_nUnitCount);

  00233	8b c8		 mov	 ecx, eax
  00235	33 c0		 xor	 eax, eax
$L121625:
  00237	f6 c1 01	 test	 cl, 1
  0023a	75 0a		 jne	 SHORT $L121623
  0023c	d1 f9		 sar	 ecx, 1
  0023e	40		 inc	 eax
  0023f	83 f8 08	 cmp	 eax, 8
  00242	7c f3		 jl	 SHORT $L121625
  00244	33 c0		 xor	 eax, eax
$L121623:

; 387  : 
; 388  : 		fileHeader.close();

  00246	8d 8d 74 fe ff
	ff		 lea	 ecx, DWORD PTR _fileHeader$112945[ebp]
  0024c	89 46 1c	 mov	 DWORD PTR [esi+28], eax
  0024f	e8 00 00 00 00	 call	 ?close@iovfs_base@@QAEXXZ ; iovfs_base::close

; 389  : 		
; 390  : 		//  
; 391  : 		char szExt[_MAX_EXT];
; 392  : 		_splitpath(lpszFilename, NULL, NULL, NULL, szExt);

  00254	8d 85 e8 fe ff
	ff		 lea	 eax, DWORD PTR _szExt$112952[ebp]
  0025a	50		 push	 eax
  0025b	53		 push	 ebx
  0025c	53		 push	 ebx
  0025d	53		 push	 ebx
  0025e	ff 75 08	 push	 DWORD PTR _lpszFilename$[ebp]
  00261	e8 00 00 00 00	 call	 __splitpath

; 393  : 		
; 394  : 		m_strFileExt = szExt;

  00266	8d 85 e8 fe ff
	ff		 lea	 eax, DWORD PTR _szExt$112952[ebp]
  0026c	50		 push	 eax
  0026d	e8 00 00 00 00	 call	 _strlen
  00272	83 c4 18	 add	 esp, 24			; 00000018H
  00275	8d 84 05 e8 fe
	ff ff		 lea	 eax, DWORD PTR _szExt$112952[ebp+eax]
  0027c	50		 push	 eax
  0027d	8d 85 e8 fe ff
	ff		 lea	 eax, DWORD PTR _szExt$112952[ebp]
  00283	50		 push	 eax
  00284	8d 4e 2c	 lea	 ecx, DWORD PTR [esi+44]
  00287	e8 00 00 00 00	 call	 ?assign@?$basic_string@DV?$char_traits@D@_STL@@V?$allocator@D@2@@_STL@@QAEAAV12@PBD0@Z ; _STL::basic_string<char,_STL::char_traits<char>,_STL::allocator<char> >::assign

; 395  : 
; 396  : 		if(!bLoadIndexFile || indexSize != m_Size)

  0028c	80 bd e7 fe ff
	ff 00		 cmp	 BYTE PTR _bLoadIndexFile$[ebp], 0
  00293	74 0d		 je	 SHORT $L112954
  00295	66 8b 85 e0 fe
	ff ff		 mov	 ax, WORD PTR _indexSize$[ebp]
  0029c	66 3b 46 08	 cmp	 ax, WORD PTR [esi+8]
  002a0	74 0e		 je	 SHORT $L112953
$L112954:

; 397  : 		{
; 398  : 			Init(m_Size);

  002a2	8b 06		 mov	 eax, DWORD PTR [esi]
  002a4	33 c9		 xor	 ecx, ecx
  002a6	66 8b 4e 08	 mov	 cx, WORD PTR [esi+8]
  002aa	51		 push	 ecx
  002ab	8b ce		 mov	 ecx, esi
  002ad	ff 50 04	 call	 DWORD PTR [eax+4]
$L112953:

; 399  : 			
; 400  : 		//char szBuf[256];
; 401  : 		//sprintf(szBuf, "CTypePack Invaild Index File: %s = %d, %s = %d\n",
; 402  : 		//lpszFilename, m_Size, indexFileName.c_str(), indexSize);
; 403  : 
; 404  : 		//std::ofstream file3(".log", std::ios::out | std::ios::app);
; 405  : 		//file3 << szBuf << std::endl;
; 406  : 		//file3.close();
; 407  : //#ifdef OUTPUT_DEBUG
; 408  : //			char szBuf[256];
; 409  : //			sprintf(szBuf, "CTypePack Invaild Index File: %s = %d, %s = %d\n",
; 410  : //				lpszFilename, m_Size, indexFileName.c_str(), indexSize);
; 411  : //			OutputDebugString(szBuf);
; 412  : //#endif
; 413  : 		}
; 414  : 	}

  002b0	8d 8d 74 fe ff
	ff		 lea	 ecx, DWORD PTR _fileHeader$112945[ebp]
  002b6	c6 45 fc 03	 mov	 BYTE PTR __$EHRec$[ebp+8], 3
  002ba	89 bd 74 fe ff
	ff		 mov	 DWORD PTR _fileHeader$112945[ebp], edi
  002c0	e8 00 00 00 00	 call	 ??1iovfs_base@@UAE@XZ	; iovfs_base::~iovfs_base
  002c5	8b 85 d8 fe ff
	ff		 mov	 eax, DWORD PTR _strHeaderPath$112943[ebp+8]
  002cb	2b 85 d0 fe ff
	ff		 sub	 eax, DWORD PTR _strHeaderPath$112943[ebp]
  002d1	8d 8d d8 fe ff
	ff		 lea	 ecx, DWORD PTR _strHeaderPath$112943[ebp+8]
  002d7	50		 push	 eax
  002d8	ff b5 d0 fe ff
	ff		 push	 DWORD PTR _strHeaderPath$112943[ebp]
  002de	c6 45 fc 02	 mov	 BYTE PTR __$EHRec$[ebp+8], 2
  002e2	e8 00 00 00 00	 call	 ?deallocate@?$allocator@D@_STL@@QAEXPADI@Z ; _STL::allocator<char>::deallocate

; 415  : 	else

  002e7	eb 77		 jmp	 SHORT $L112964
$L112942:

; 416  : 	{
; 417  : 		if(m_file == NULL)

  002e9	83 7e 0c 00	 cmp	 DWORD PTR [esi+12], 0
  002ed	75 29		 jne	 SHORT $L112956

; 418  : 		{
; 419  : 			m_file = new ivfstream;

  002ef	6a 50		 push	 80			; 00000050H
  002f1	e8 00 00 00 00	 call	 ??2@YAPAXI@Z		; operator new
  002f6	8b d8		 mov	 ebx, eax
  002f8	59		 pop	 ecx
  002f9	89 5d ec	 mov	 DWORD PTR $T121413[ebp], ebx
  002fc	85 db		 test	 ebx, ebx
  002fe	c6 45 fc 06	 mov	 BYTE PTR __$EHRec$[ebp+8], 6
  00302	74 0b		 je	 SHORT $L121414
  00304	8b cb		 mov	 ecx, ebx
  00306	e8 00 00 00 00	 call	 ??0iovfs_base@@QAE@XZ	; iovfs_base::iovfs_base
  0030b	89 3b		 mov	 DWORD PTR [ebx], edi
  0030d	eb 02		 jmp	 SHORT $L121415
$L121414:
  0030f	33 db		 xor	 ebx, ebx
$L121415:
  00311	c6 45 fc 02	 mov	 BYTE PTR __$EHRec$[ebp+8], 2
  00315	89 5e 0c	 mov	 DWORD PTR [esi+12], ebx
$L112956:

; 420  : 		}
; 421  : 
; 422  : 		// file sprite  .	
; 423  : 		m_file->open(lpszFilename, std::ios::binary);

  00318	8b 4e 0c	 mov	 ecx, DWORD PTR [esi+12]
  0031b	8b 01		 mov	 eax, DWORD PTR [ecx]
  0031d	6a 04		 push	 4
  0031f	ff 75 08	 push	 DWORD PTR _lpszFilename$[ebp]
  00322	ff 50 04	 call	 DWORD PTR [eax+4]

; 424  : 
; 425  : 		if(!m_file->is_open())

  00325	8b 4e 0c	 mov	 ecx, DWORD PTR [esi+12]
  00328	e8 00 00 00 00	 call	 ?is_open@iovfs_base@@QBE_NXZ ; iovfs_base::is_open
  0032d	84 c0		 test	 al, al

; 438  : 		}
; 439  : 	}
; 440  : 
; 441  : 	m_bRunningLoad = true;

  0032f	74 37		 je	 SHORT $L112965
  00331	8b 46 0c	 mov	 eax, DWORD PTR [esi+12]
  00334	83 78 04 00	 cmp	 DWORD PTR [eax+4], 0
  00338	74 10		 je	 SHORT $L121731
  0033a	8b 40 04	 mov	 eax, DWORD PTR [eax+4]
  0033d	8b 10		 mov	 edx, DWORD PTR [eax]
  0033f	6a 02		 push	 2
  00341	8d 4e 08	 lea	 ecx, DWORD PTR [esi+8]
  00344	51		 push	 ecx
  00345	8b c8		 mov	 ecx, eax
  00347	ff 52 10	 call	 DWORD PTR [edx+16]
$L121731:

; 426  : 		{
; 427  : 			Release();
; 428  : 			return false;
; 429  : 		}
; 430  : 
; 431  : 		m_file->read((char*)&m_Size, 2);
; 432  : 
; 433  : 
; 434  : 		if(!bLoadIndexFile || indexSize != m_Size)

  0034a	80 bd e7 fe ff
	ff 00		 cmp	 BYTE PTR _bLoadIndexFile$[ebp], 0
  00351	74 15		 je	 SHORT $L112965
  00353	66 8b 85 e0 fe
	ff ff		 mov	 ax, WORD PTR _indexSize$[ebp]
  0035a	66 3b 46 08	 cmp	 ax, WORD PTR [esi+8]
  0035e	75 08		 jne	 SHORT $L112965
$L112964:

; 438  : 		}
; 439  : 	}
; 440  : 
; 441  : 	m_bRunningLoad = true;

  00360	c6 46 0a 01	 mov	 BYTE PTR [esi+10], 1
  00364	b3 01		 mov	 bl, 1
  00366	eb 09		 jmp	 SHORT $L121824
$L112965:

; 435  : 		{
; 436  : 			Release();

  00368	8b 06		 mov	 eax, DWORD PTR [esi]
  0036a	8b ce		 mov	 ecx, esi
  0036c	32 db		 xor	 bl, bl
  0036e	ff 50 08	 call	 DWORD PTR [eax+8]
$L121824:

; 437  : 			return false;

  00371	8d 8d 24 fe ff
	ff		 lea	 ecx, DWORD PTR _indexFile$[ebp]
  00377	c6 45 fc 00	 mov	 BYTE PTR __$EHRec$[ebp+8], 0
  0037b	89 bd 24 fe ff
	ff		 mov	 DWORD PTR _indexFile$[ebp], edi
  00381	e8 00 00 00 00	 call	 ??1iovfs_base@@UAE@XZ	; iovfs_base::~iovfs_base
  00386	8b 85 cc fe ff
	ff		 mov	 eax, DWORD PTR _indexFileName$[ebp+8]
  0038c	2b 85 c4 fe ff
	ff		 sub	 eax, DWORD PTR _indexFileName$[ebp]
  00392	83 4d fc ff	 or	 DWORD PTR __$EHRec$[ebp+8], -1
  00396	50		 push	 eax
  00397	ff b5 c4 fe ff
	ff		 push	 DWORD PTR _indexFileName$[ebp]
  0039d	8d 8d cc fe ff
	ff		 lea	 ecx, DWORD PTR _indexFileName$[ebp+8]
  003a3	e8 00 00 00 00	 call	 ?deallocate@?$allocator@D@_STL@@QAEXPADI@Z ; _STL::allocator<char>::deallocate

; 442  : 
; 443  : 	return true;
; 444  : }

  003a8	8b 4d f4	 mov	 ecx, DWORD PTR __$EHRec$[ebp]
  003ab	5f		 pop	 edi
  003ac	5e		 pop	 esi
  003ad	64 89 0d 00 00
	00 00		 mov	 DWORD PTR fs:__except_list, ecx
  003b4	8b 4d f0	 mov	 ecx, DWORD PTR __$ArrayPad$[ebp]
  003b7	8a c3		 mov	 al, bl
  003b9	5b		 pop	 ebx
  003ba	e8 00 00 00 00	 call	 @__security_check_cookie@4
  003bf	c9		 leave
  003c0	c2 04 00	 ret	 4
_TEXT	ENDS
;	COMDAT text$x
text$x	SEGMENT
$L121419:
  00000	8d 8d c4 fe ff
	ff		 lea	 ecx, DWORD PTR _indexFileName$[ebp]
  00006	e9 00 00 00 00	 jmp	 ??1?$basic_string@DV?$char_traits@D@_STL@@V?$allocator@D@2@@_STL@@QAE@XZ ; _STL::basic_string<char,_STL::char_traits<char>,_STL::allocator<char> >::~basic_string<char,_STL::char_traits<char>,_STL::allocator<char> >
$L121448:
  0000b	8d 8d 24 fe ff
	ff		 lea	 ecx, DWORD PTR _indexFile$[ebp]
  00011	e9 00 00 00 00	 jmp	 ??1iovfs_base@@UAE@XZ	; iovfs_base::~iovfs_base
$L121420:
  00016	8d 8d 24 fe ff
	ff		 lea	 ecx, DWORD PTR _indexFile$[ebp]
  0001c	e9 00 00 00 00	 jmp	 ??1ivfstream@@UAE@XZ	; ivfstream::~ivfstream
$L121421:
  00021	8d 8d d0 fe ff
	ff		 lea	 ecx, DWORD PTR _strHeaderPath$112943[ebp]
  00027	e9 00 00 00 00	 jmp	 ??1?$basic_string@DV?$char_traits@D@_STL@@V?$allocator@D@2@@_STL@@QAE@XZ ; _STL::basic_string<char,_STL::char_traits<char>,_STL::allocator<char> >::~basic_string<char,_STL::char_traits<char>,_STL::allocator<char> >
$L121520:
  0002c	8d 8d 74 fe ff
	ff		 lea	 ecx, DWORD PTR _fileHeader$112945[ebp]
  00032	e9 00 00 00 00	 jmp	 ??1iovfs_base@@UAE@XZ	; iovfs_base::~iovfs_base
$L121422:
  00037	8d 8d 74 fe ff
	ff		 lea	 ecx, DWORD PTR _fileHeader$112945[ebp]
  0003d	e9 00 00 00 00	 jmp	 ??1ivfstream@@UAE@XZ	; ivfstream::~ivfstream
$L121423:
  00042	ff 75 ec	 push	 DWORD PTR $T121413[ebp]
  00045	e8 00 00 00 00	 call	 ??3@YAXPAX@Z		; operator delete
  0004a	59		 pop	 ecx
  0004b	c3		 ret	 0
__ehhandler$?LoadFromFileRunning@?$CTypePack@VCShadowSprite@@@@UAE_NPBD@Z:
  0004c	b8 00 00 00 00	 mov	 eax, OFFSET FLAT:$T121818
  00051	e9 00 00 00 00	 jmp	 ___CxxFrameHandler
text$x	ENDS
?LoadFromFileRunning@?$CTypePack@VCShadowSprite@@@@UAE_NPBD@Z ENDP ; CTypePack<CShadowSprite>::LoadFromFileRunning
; Function compile flags: /Ogsy
; File c:\darkeden\designed_common\project\client\virtualfilesystem\vfstream.inl
;	COMDAT ?is_open@iovfs_base@@QBE_NXZ
_TEXT	SEGMENT
?is_open@iovfs_base@@QBE_NXZ PROC NEAR			; iovfs_base::is_open, COMDAT
; _this$ = ecx

; 47   : 	return m_pFileIO && m_pFileIO->is_open();

  00000	83 79 04 00	 cmp	 DWORD PTR [ecx+4], 0
  00004	74 10		 je	 SHORT $L121837
  00006	8b 49 04	 mov	 ecx, DWORD PTR [ecx+4]
  00009	8b 01		 mov	 eax, DWORD PTR [ecx]
  0000b	ff 50 0c	 call	 DWORD PTR [eax+12]
  0000e	84 c0		 test	 al, al
  00010	74 04		 je	 SHORT $L121837
  00012	33 c0		 xor	 eax, eax
  00014	40		 inc	 eax

; 48   : }

  00015	c3		 ret	 0
$L121837:

; 47   : 	return m_pFileIO && m_pFileIO->is_open();

  00016	33 c0		 xor	 eax, eax

; 48   : }

  00018	c3		 ret	 0
?is_open@iovfs_base@@QBE_NXZ ENDP			; iovfs_base::is_open
_TEXT	ENDS
PUBLIC	??$_M_range_initialize@PBD@?$basic_string@DV?$char_traits@D@_STL@@V?$allocator@D@2@@_STL@@AAEXPBD0ABUforward_iterator_tag@1@@Z ; _STL::basic_string<char,_STL::char_traits<char>,_STL::allocator<char> >::_M_range_initialize<char const *>
;	COMDAT xdata$x
; File c:\stlport-4.6.1\stlport\stl\_string.h
xdata$x	SEGMENT
$T121893 DD	0ffffffffH
	DD	FLAT:$L121842
$T121891 DD	019930520H
	DD	01H
	DD	FLAT:$T121893
	DD	2 DUP(00H)
	DD	2 DUP(00H)
; Function compile flags: /Ogsy
; File c:\stlport-4.6.1\stlport\stl\_string.c
xdata$x	ENDS
;	COMDAT ??0?$basic_string@DV?$char_traits@D@_STL@@V?$allocator@D@2@@_STL@@QAE@PBDABV?$allocator@D@1@@Z
_TEXT	SEGMENT
_this$ = -16						; size = 4
__$EHRec$ = -12						; size = 12
___s$ = 8						; size = 4
$T121888 = 11						; size = 1
___a$ = 12						; size = 4
??0?$basic_string@DV?$char_traits@D@_STL@@V?$allocator@D@2@@_STL@@QAE@PBDABV?$allocator@D@1@@Z PROC NEAR ; _STL::basic_string<char,_STL::char_traits<char>,_STL::allocator<char> >::basic_string<char,_STL::char_traits<char>,_STL::allocator<char> >, COMDAT
; _this$ = ecx

; 552  : { 

  00000	b8 00 00 00 00	 mov	 eax, __ehhandler$??0?$basic_string@DV?$char_traits@D@_STL@@V?$allocator@D@2@@_STL@@QAE@PBDABV?$allocator@D@1@@Z
  00005	e8 00 00 00 00	 call	 __EH_prolog
  0000a	51		 push	 ecx
  0000b	56		 push	 esi
  0000c	ff 75 0c	 push	 DWORD PTR ___a$[ebp]
  0000f	8b f1		 mov	 esi, ecx
  00011	89 75 f0	 mov	 DWORD PTR _this$[ebp], esi
  00014	e8 00 00 00 00	 call	 ??0?$_String_base@DV?$allocator@D@_STL@@@_STL@@QAE@ABV?$allocator@D@1@@Z ; _STL::_String_base<char,_STL::allocator<char> >::_String_base<char,_STL::allocator<char> >

; 553  :   _STLP_FIX_LITERAL_BUG(__s) 
; 554  :     _M_range_initialize(__s, __s + traits_type::length(__s));  

  00019	ff 75 08	 push	 DWORD PTR ___s$[ebp]
  0001c	83 65 fc 00	 and	 DWORD PTR __$EHRec$[ebp+8], 0
  00020	e8 00 00 00 00	 call	 _strlen
  00025	03 45 08	 add	 eax, DWORD PTR ___s$[ebp]
  00028	59		 pop	 ecx
  00029	8d 4d 0b	 lea	 ecx, DWORD PTR $T121888[ebp]
  0002c	51		 push	 ecx
  0002d	50		 push	 eax
  0002e	ff 75 08	 push	 DWORD PTR ___s$[ebp]
  00031	8b ce		 mov	 ecx, esi
  00033	e8 00 00 00 00	 call	 ??$_M_range_initialize@PBD@?$basic_string@DV?$char_traits@D@_STL@@V?$allocator@D@2@@_STL@@AAEXPBD0ABUforward_iterator_tag@1@@Z ; _STL::basic_string<char,_STL::char_traits<char>,_STL::allocator<char> >::_M_range_initialize<char const *>

; 555  : } 

  00038	8b 4d f4	 mov	 ecx, DWORD PTR __$EHRec$[ebp]
  0003b	8b c6		 mov	 eax, esi
  0003d	5e		 pop	 esi
  0003e	64 89 0d 00 00
	00 00		 mov	 DWORD PTR fs:__except_list, ecx
  00045	c9		 leave
  00046	c2 08 00	 ret	 8
_TEXT	ENDS
;	COMDAT text$x
text$x	SEGMENT
$L121842:
  00000	8b 4d f0	 mov	 ecx, DWORD PTR _this$[ebp]
  00003	e9 00 00 00 00	 jmp	 ??1?$_String_base@DV?$allocator@D@_STL@@@_STL@@QAE@XZ ; _STL::_String_base<char,_STL::allocator<char> >::~_String_base<char,_STL::allocator<char> >
__ehhandler$??0?$basic_string@DV?$char_traits@D@_STL@@V?$allocator@D@2@@_STL@@QAE@PBDABV?$allocator@D@1@@Z:
  00008	b8 00 00 00 00	 mov	 eax, OFFSET FLAT:$T121891
  0000d	e9 00 00 00 00	 jmp	 ___CxxFrameHandler
text$x	ENDS
??0?$basic_string@DV?$char_traits@D@_STL@@V?$allocator@D@2@@_STL@@QAE@PBDABV?$allocator@D@1@@Z ENDP ; _STL::basic_string<char,_STL::char_traits<char>,_STL::allocator<char> >::basic_string<char,_STL::char_traits<char>,_STL::allocator<char> >
PUBLIC	?_M_allocate_block@?$_String_base@DV?$allocator@D@_STL@@@_STL@@QAEXI@Z ; _STL::_String_base<char,_STL::allocator<char> >::_M_allocate_block
; Function compile flags: /Ogsy
; File c:\stlport-4.6.1\stlport\stl\_string.h
;	COMDAT ??$_M_range_initialize@PBD@?$basic_string@DV?$char_traits@D@_STL@@V?$allocator@D@2@@_STL@@AAEXPBD0ABUforward_iterator_tag@1@@Z
_TEXT	SEGMENT
___f$ = 8						; size = 4
___l$ = 12						; size = 4
___formal$ = 16						; size = 4
??$_M_range_initialize@PBD@?$basic_string@DV?$char_traits@D@_STL@@V?$allocator@D@2@@_STL@@AAEXPBD0ABUforward_iterator_tag@1@@Z PROC NEAR ; _STL::basic_string<char,_STL::char_traits<char>,_STL::allocator<char> >::_M_range_initialize<char const *>, COMDAT
; _this$ = ecx

; 383  :                            const forward_iterator_tag &) {
; 384  :     difference_type __n = distance(__f, __l);
; 385  :     this->_M_allocate_block(__n + 1);

  00000	8b 44 24 08	 mov	 eax, DWORD PTR ___l$[esp-4]
  00004	2b 44 24 04	 sub	 eax, DWORD PTR ___f$[esp-4]
  00008	56		 push	 esi
  00009	40		 inc	 eax
  0000a	50		 push	 eax
  0000b	8b f1		 mov	 esi, ecx
  0000d	e8 00 00 00 00	 call	 ?_M_allocate_block@?$_String_base@DV?$allocator@D@_STL@@@_STL@@QAEXI@Z ; _STL::_String_base<char,_STL::allocator<char> >::_M_allocate_block

; 386  :     this->_M_finish = uninitialized_copy(__f, __l, this->_M_start);

  00012	ff 36		 push	 DWORD PTR [esi]
  00014	ff 74 24 10	 push	 DWORD PTR ___l$[esp+4]
  00018	ff 74 24 10	 push	 DWORD PTR ___f$[esp+8]
  0001c	e8 00 00 00 00	 call	 ?__copy_trivial@_STL@@YAPAXPBX0PAX@Z ; _STL::__copy_trivial
  00021	83 c4 0c	 add	 esp, 12			; 0000000cH
  00024	89 46 04	 mov	 DWORD PTR [esi+4], eax

; 387  :     _M_terminate_string();

  00027	c6 00 00	 mov	 BYTE PTR [eax], 0
  0002a	5e		 pop	 esi

; 388  :   }

  0002b	c2 0c 00	 ret	 12			; 0000000cH
??$_M_range_initialize@PBD@?$basic_string@DV?$char_traits@D@_STL@@V?$allocator@D@2@@_STL@@AAEXPBD0ABUforward_iterator_tag@1@@Z ENDP ; _STL::basic_string<char,_STL::char_traits<char>,_STL::allocator<char> >::_M_range_initialize<char const *>
; Function compile flags: /Ogsy
; File c:\stlport-4.6.1\stlport\stl\_string.c
_TEXT	ENDS
;	COMDAT ?_M_allocate_block@?$_String_base@DV?$allocator@D@_STL@@@_STL@@QAEXI@Z
_TEXT	SEGMENT
___n$ = 8						; size = 4
?_M_allocate_block@?$_String_base@DV?$allocator@D@_STL@@@_STL@@QAEXI@Z PROC NEAR ; _STL::_String_base<char,_STL::allocator<char> >::_M_allocate_block, COMDAT
; _this$ = ecx

; 530  : template <class _Tp, class _Alloc> void _String_base<_Tp, _Alloc>::_M_allocate_block(size_t __n) {  

  00000	56		 push	 esi
  00001	57		 push	 edi

; 531  :   if ((__n <= (max_size()+1)) && (__n>0)){ 

  00002	8b 7c 24 0c	 mov	 edi, DWORD PTR ___n$[esp+4]
  00006	83 ff ff	 cmp	 edi, -1
  00009	8b f1		 mov	 esi, ecx
  0000b	77 17		 ja	 SHORT $L114196
  0000d	85 ff		 test	 edi, edi
  0000f	76 13		 jbe	 SHORT $L114196

; 532  :     _M_start  = _M_end_of_storage.allocate(__n); 

  00011	57		 push	 edi
  00012	e8 00 00 00 00	 call	 ?allocate@?$__node_alloc@$00$0A@@_STL@@SAPAXI@Z ; _STL::__node_alloc<1,0>::allocate
  00017	89 06		 mov	 DWORD PTR [esi], eax

; 533  :     _M_finish = _M_start; 

  00019	89 46 04	 mov	 DWORD PTR [esi+4], eax

; 534  :     _M_end_of_storage._M_data = _M_start + __n; 

  0001c	03 c7		 add	 eax, edi
  0001e	59		 pop	 ecx
  0001f	89 46 08	 mov	 DWORD PTR [esi+8], eax

; 535  :   } 
; 536  :     else 

  00022	eb 07		 jmp	 SHORT $L114197
$L114196:

; 537  :       _M_throw_length_error(); 

  00024	8b ce		 mov	 ecx, esi
  00026	e8 00 00 00 00	 call	 ?_M_throw_length_error@?$_String_base@DV?$allocator@D@_STL@@@_STL@@QBEXXZ ; _STL::_String_base<char,_STL::allocator<char> >::_M_throw_length_error
$L114197:
  0002b	5f		 pop	 edi
  0002c	5e		 pop	 esi

; 538  : } 

  0002d	c2 04 00	 ret	 4
?_M_allocate_block@?$_String_base@DV?$allocator@D@_STL@@@_STL@@QAEXI@Z ENDP ; _STL::_String_base<char,_STL::allocator<char> >::_M_allocate_block
; Function compile flags: /Ogsy
; File c:\stlport-4.6.1\stlport\stl\_string.h
_TEXT	ENDS
;	COMDAT ?append@?$basic_string@DV?$char_traits@D@_STL@@V?$allocator@D@2@@_STL@@QAEAAV12@PBD@Z
_TEXT	SEGMENT
___s$ = 8						; size = 4
$T121964 = 11						; size = 1
?append@?$basic_string@DV?$char_traits@D@_STL@@V?$allocator@D@2@@_STL@@QAEAAV12@PBD@Z PROC NEAR ; _STL::basic_string<char,_STL::char_traits<char>,_STL::allocator<char> >::append, COMDAT
; _this$ = ecx

; 499  :     { _STLP_FIX_LITERAL_BUG(__s) return append(__s, __s + traits_type::length(__s)); }

  00000	55		 push	 ebp
  00001	8b ec		 mov	 ebp, esp
  00003	56		 push	 esi
  00004	ff 75 08	 push	 DWORD PTR ___s$[ebp]
  00007	8b f1		 mov	 esi, ecx
  00009	e8 00 00 00 00	 call	 _strlen
  0000e	03 45 08	 add	 eax, DWORD PTR ___s$[ebp]
  00011	59		 pop	 ecx
  00012	8d 4d 0b	 lea	 ecx, DWORD PTR $T121964[ebp]
  00015	51		 push	 ecx
  00016	50		 push	 eax
  00017	ff 75 08	 push	 DWORD PTR ___s$[ebp]
  0001a	8b ce		 mov	 ecx, esi
  0001c	e8 00 00 00 00	 call	 ??$append@PBD@?$basic_string@DV?$char_traits@D@_STL@@V?$allocator@D@2@@_STL@@AAEAAV01@PBD0ABUforward_iterator_tag@1@@Z ; _STL::basic_string<char,_STL::char_traits<char>,_STL::allocator<char> >::append<char const *>
  00021	5e		 pop	 esi
  00022	5d		 pop	 ebp
  00023	c2 04 00	 ret	 4
?append@?$basic_string@DV?$char_traits@D@_STL@@V?$allocator@D@2@@_STL@@QAEAAV12@PBD@Z ENDP ; _STL::basic_string<char,_STL::char_traits<char>,_STL::allocator<char> >::append
_TEXT	ENDS
PUBLIC	?reserve@?$basic_string@DV?$char_traits@D@_STL@@V?$allocator@D@2@@_STL@@QAEXI@Z ; _STL::basic_string<char,_STL::char_traits<char>,_STL::allocator<char> >::reserve
; Function compile flags: /Ogsy
;	COMDAT ?push_back@?$basic_string@DV?$char_traits@D@_STL@@V?$allocator@D@2@@_STL@@QAEXD@Z
_TEXT	SEGMENT
$T121970 = -8						; size = 4
$T121971 = -4						; size = 4
___c$ = 8						; size = 1
?push_back@?$basic_string@DV?$char_traits@D@_STL@@V?$allocator@D@2@@_STL@@QAEXD@Z PROC NEAR ; _STL::basic_string<char,_STL::char_traits<char>,_STL::allocator<char> >::push_back, COMDAT
; _this$ = ecx

; 517  :   void push_back(_CharT __c) {

  00000	55		 push	 ebp
  00001	8b ec		 mov	 ebp, esp
  00003	51		 push	 ecx
  00004	51		 push	 ecx
  00005	56		 push	 esi
  00006	8b f1		 mov	 esi, ecx

; 518  :     if (this->_M_finish + 1 == this->_M_end_of_storage._M_data)

  00008	8b 46 04	 mov	 eax, DWORD PTR [esi+4]
  0000b	8d 48 01	 lea	 ecx, DWORD PTR [eax+1]
  0000e	3b 4e 08	 cmp	 ecx, DWORD PTR [esi+8]
  00011	75 21		 jne	 SHORT $L113478

; 519  :       reserve(size() + (max)(size(), __STATIC_CAST(size_type,1)));

  00013	2b 06		 sub	 eax, DWORD PTR [esi]
  00015	33 c9		 xor	 ecx, ecx
  00017	41		 inc	 ecx
  00018	89 4d f8	 mov	 DWORD PTR $T121970[ebp], ecx
  0001b	3b c1		 cmp	 eax, ecx
  0001d	89 45 fc	 mov	 DWORD PTR $T121971[ebp], eax
  00020	8d 4d f8	 lea	 ecx, DWORD PTR $T121970[ebp]
  00023	72 03		 jb	 SHORT $L121985
  00025	8d 4d fc	 lea	 ecx, DWORD PTR $T121971[ebp]
$L121985:
  00028	8b 09		 mov	 ecx, DWORD PTR [ecx]
  0002a	03 c8		 add	 ecx, eax
  0002c	51		 push	 ecx
  0002d	8b ce		 mov	 ecx, esi
  0002f	e8 00 00 00 00	 call	 ?reserve@?$basic_string@DV?$char_traits@D@_STL@@V?$allocator@D@2@@_STL@@QAEXI@Z ; _STL::basic_string<char,_STL::char_traits<char>,_STL::allocator<char> >::reserve
$L113478:

; 520  :     _M_construct_null(this->_M_finish + 1);

  00034	8b 46 04	 mov	 eax, DWORD PTR [esi+4]

; 521  :     _Traits::assign(*(this->_M_finish), __c);

  00037	8a 4d 08	 mov	 cl, BYTE PTR ___c$[ebp]
  0003a	c6 40 01 00	 mov	 BYTE PTR [eax+1], 0
  0003e	8b 46 04	 mov	 eax, DWORD PTR [esi+4]
  00041	88 08		 mov	 BYTE PTR [eax], cl

; 522  :     ++this->_M_finish;

  00043	ff 46 04	 inc	 DWORD PTR [esi+4]
  00046	5e		 pop	 esi

; 523  :   }

  00047	c9		 leave
  00048	c2 04 00	 ret	 4
?push_back@?$basic_string@DV?$char_traits@D@_STL@@V?$allocator@D@2@@_STL@@QAEXD@Z ENDP ; _STL::basic_string<char,_STL::char_traits<char>,_STL::allocator<char> >::push_back
; Function compile flags: /Ogsy
; File c:\stlport-4.6.1\stlport\stl\_string.c
_TEXT	ENDS
;	COMDAT ?reserve@?$basic_string@DV?$char_traits@D@_STL@@V?$allocator@D@2@@_STL@@QAEXI@Z
_TEXT	SEGMENT
___res_arg$ = 8						; size = 4
?reserve@?$basic_string@DV?$char_traits@D@_STL@@V?$allocator@D@2@@_STL@@QAEXI@Z PROC NEAR ; _STL::basic_string<char,_STL::char_traits<char>,_STL::allocator<char> >::reserve, COMDAT
; _this$ = ecx

; 57   : template <class _CharT, class _Traits, class _Alloc> void basic_string<_CharT,_Traits,_Alloc>::reserve(size_type __res_arg) {

  00000	56		 push	 esi
  00001	8b f1		 mov	 esi, ecx

; 58   : 
; 59   :   if (__res_arg >= capacity())

  00003	8b 46 08	 mov	 eax, DWORD PTR [esi+8]
  00006	2b 06		 sub	 eax, DWORD PTR [esi]
  00008	57		 push	 edi
  00009	8b 7c 24 0c	 mov	 edi, DWORD PTR ___res_arg$[esp+4]
  0000d	48		 dec	 eax
  0000e	3b f8		 cmp	 edi, eax
  00010	72 48		 jb	 SHORT $L113732

; 60   :     {      
; 61   :       if (__res_arg > max_size())

  00012	83 ff fe	 cmp	 edi, -2			; fffffffeH
  00015	76 05		 jbe	 SHORT $L113733

; 62   : 	this->_M_throw_length_error();

  00017	e8 00 00 00 00	 call	 ?_M_throw_length_error@?$_String_base@DV?$allocator@D@_STL@@@_STL@@QBEXXZ ; _STL::_String_base<char,_STL::allocator<char> >::_M_throw_length_error
$L113733:
  0001c	53		 push	 ebx
  0001d	55		 push	 ebp

; 63   : 
; 64   :       size_type __n = __res_arg + 1;

  0001e	8d 6f 01	 lea	 ebp, DWORD PTR [edi+1]

; 65   :       pointer __new_start = this->_M_end_of_storage.allocate(__n);

  00021	85 ed		 test	 ebp, ebp
  00023	74 0b		 je	 SHORT $L122021
  00025	55		 push	 ebp
  00026	e8 00 00 00 00	 call	 ?allocate@?$__node_alloc@$00$0A@@_STL@@SAPAXI@Z ; _STL::__node_alloc<1,0>::allocate
  0002b	59		 pop	 ecx
  0002c	8b f8		 mov	 edi, eax
  0002e	eb 02		 jmp	 SHORT $L122022
$L122021:
  00030	33 ff		 xor	 edi, edi
$L122022:

; 66   :       pointer __new_finish = __new_start;
; 67   :       
; 68   :       _STLP_TRY {
; 69   : 	__new_finish = uninitialized_copy(this->_M_start, this->_M_finish, __new_start);

  00032	8b 46 04	 mov	 eax, DWORD PTR [esi+4]
  00035	8b 0e		 mov	 ecx, DWORD PTR [esi]
  00037	57		 push	 edi
  00038	50		 push	 eax
  00039	51		 push	 ecx
  0003a	e8 00 00 00 00	 call	 ?__copy_trivial@_STL@@YAPAXPBX0PAX@Z ; _STL::__copy_trivial
  0003f	8b d8		 mov	 ebx, eax
  00041	83 c4 0c	 add	 esp, 12			; 0000000cH

; 70   : 	_M_construct_null(__new_finish);
; 71   :       }
; 72   :       _STLP_UNWIND((_STLP_STD::_Destroy(__new_start, __new_finish), 
; 73   : 		    this->_M_end_of_storage.deallocate(__new_start, __n)));
; 74   :       
; 75   :       _STLP_STD::_Destroy(this->_M_start, this->_M_finish + 1);
; 76   :       this->_M_deallocate_block();

  00044	8b ce		 mov	 ecx, esi
  00046	c6 03 00	 mov	 BYTE PTR [ebx], 0
  00049	e8 00 00 00 00	 call	 ?_M_deallocate_block@?$_String_base@DV?$allocator@D@_STL@@@_STL@@QAEXXZ ; _STL::_String_base<char,_STL::allocator<char> >::_M_deallocate_block

; 77   :       this->_M_start = __new_start;

  0004e	89 3e		 mov	 DWORD PTR [esi], edi

; 78   :       this->_M_finish = __new_finish;
; 79   :       this->_M_end_of_storage._M_data = __new_start + __n;

  00050	03 fd		 add	 edi, ebp
  00052	5d		 pop	 ebp
  00053	89 5e 04	 mov	 DWORD PTR [esi+4], ebx
  00056	89 7e 08	 mov	 DWORD PTR [esi+8], edi
  00059	5b		 pop	 ebx
$L113732:
  0005a	5f		 pop	 edi
  0005b	5e		 pop	 esi

; 80   :     }
; 81   : }

  0005c	c2 04 00	 ret	 4
?reserve@?$basic_string@DV?$char_traits@D@_STL@@V?$allocator@D@2@@_STL@@QAEXI@Z ENDP ; _STL::basic_string<char,_STL::char_traits<char>,_STL::allocator<char> >::reserve
_TEXT	ENDS
PUBLIC	??$_M_range_initialize@PAD@?$basic_string@DV?$char_traits@D@_STL@@V?$allocator@D@2@@_STL@@AAEXPAD0ABUforward_iterator_tag@1@@Z ; _STL::basic_string<char,_STL::char_traits<char>,_STL::allocator<char> >::_M_range_initialize<char *>
PUBLIC	?get_allocator@?$basic_string@DV?$char_traits@D@_STL@@V?$allocator@D@2@@_STL@@QBE?AV?$allocator@D@2@XZ ; _STL::basic_string<char,_STL::char_traits<char>,_STL::allocator<char> >::get_allocator
;	COMDAT xdata$x
; File c:\stlport-4.6.1\stlport\stl\_string.h
xdata$x	SEGMENT
$T122238 DD	0ffffffffH
	DD	FLAT:$L122124
$T122236 DD	019930520H
	DD	01H
	DD	FLAT:$T122238
	DD	2 DUP(00H)
	DD	2 DUP(00H)
; Function compile flags: /Ogsy
; File c:\stlport-4.6.1\stlport\stl\_string.c
xdata$x	ENDS
;	COMDAT ??0?$basic_string@DV?$char_traits@D@_STL@@V?$allocator@D@2@@_STL@@QAE@ABV01@@Z
_TEXT	SEGMENT
_this$ = -20						; size = 4
$T122231 = -13						; size = 1
__$EHRec$ = -12						; size = 12
___s$ = 8						; size = 4
$T122123 = 11						; size = 1
??0?$basic_string@DV?$char_traits@D@_STL@@V?$allocator@D@2@@_STL@@QAE@ABV01@@Z PROC NEAR ; _STL::basic_string<char,_STL::char_traits<char>,_STL::allocator<char> >::basic_string<char,_STL::char_traits<char>,_STL::allocator<char> >, COMDAT
; _this$ = ecx

; 560  : {  

  00000	b8 00 00 00 00	 mov	 eax, __ehhandler$??0?$basic_string@DV?$char_traits@D@_STL@@V?$allocator@D@2@@_STL@@QAE@ABV01@@Z
  00005	e8 00 00 00 00	 call	 __EH_prolog
  0000a	51		 push	 ecx
  0000b	51		 push	 ecx
  0000c	56		 push	 esi
  0000d	8b 75 08	 mov	 esi, DWORD PTR ___s$[ebp]
  00010	57		 push	 edi
  00011	8b f9		 mov	 edi, ecx
  00013	8d 45 0b	 lea	 eax, DWORD PTR $T122123[ebp]
  00016	50		 push	 eax
  00017	8b ce		 mov	 ecx, esi
  00019	89 7d ec	 mov	 DWORD PTR _this$[ebp], edi
  0001c	e8 00 00 00 00	 call	 ?get_allocator@?$basic_string@DV?$char_traits@D@_STL@@V?$allocator@D@2@@_STL@@QBE?AV?$allocator@D@2@XZ ; _STL::basic_string<char,_STL::char_traits<char>,_STL::allocator<char> >::get_allocator
  00021	50		 push	 eax
  00022	8b cf		 mov	 ecx, edi
  00024	e8 00 00 00 00	 call	 ??0?$_String_base@DV?$allocator@D@_STL@@@_STL@@QAE@ABV?$allocator@D@1@@Z ; _STL::_String_base<char,_STL::allocator<char> >::_String_base<char,_STL::allocator<char> >
  00029	83 65 fc 00	 and	 DWORD PTR __$EHRec$[ebp+8], 0

; 561  :   _M_range_initialize(__s._M_start, __s._M_finish);  

  0002d	8d 45 f3	 lea	 eax, DWORD PTR $T122231[ebp]
  00030	50		 push	 eax
  00031	ff 76 04	 push	 DWORD PTR [esi+4]
  00034	8b cf		 mov	 ecx, edi
  00036	ff 36		 push	 DWORD PTR [esi]
  00038	e8 00 00 00 00	 call	 ??$_M_range_initialize@PAD@?$basic_string@DV?$char_traits@D@_STL@@V?$allocator@D@2@@_STL@@AAEXPAD0ABUforward_iterator_tag@1@@Z ; _STL::basic_string<char,_STL::char_traits<char>,_STL::allocator<char> >::_M_range_initialize<char *>

; 562  : } 

  0003d	8b 4d f4	 mov	 ecx, DWORD PTR __$EHRec$[ebp]
  00040	8b c7		 mov	 eax, edi
  00042	5f		 pop	 edi
  00043	5e		 pop	 esi
  00044	64 89 0d 00 00
	00 00		 mov	 DWORD PTR fs:__except_list, ecx
  0004b	c9		 leave
  0004c	c2 04 00	 ret	 4
_TEXT	ENDS
;	COMDAT text$x
text$x	SEGMENT
$L122124:
  00000	8b 4d ec	 mov	 ecx, DWORD PTR _this$[ebp]
  00003	e9 00 00 00 00	 jmp	 ??1?$_String_base@DV?$allocator@D@_STL@@@_STL@@QAE@XZ ; _STL::_String_base<char,_STL::allocator<char> >::~_String_base<char,_STL::allocator<char> >
__ehhandler$??0?$basic_string@DV?$char_traits@D@_STL@@V?$allocator@D@2@@_STL@@QAE@ABV01@@Z:
  00008	b8 00 00 00 00	 mov	 eax, OFFSET FLAT:$T122236
  0000d	e9 00 00 00 00	 jmp	 ___CxxFrameHandler
text$x	ENDS
??0?$basic_string@DV?$char_traits@D@_STL@@V?$allocator@D@2@@_STL@@QAE@ABV01@@Z ENDP ; _STL::basic_string<char,_STL::char_traits<char>,_STL::allocator<char> >::basic_string<char,_STL::char_traits<char>,_STL::allocator<char> >
; Function compile flags: /Ogsy
; File c:\stlport-4.6.1\stlport\stl\_string.h
;	COMDAT ?get_allocator@?$basic_string@DV?$char_traits@D@_STL@@V?$allocator@D@2@@_STL@@QBE?AV?$allocator@D@2@XZ
_TEXT	SEGMENT
___$ReturnUdt$ = 8					; size = 4
?get_allocator@?$basic_string@DV?$char_traits@D@_STL@@V?$allocator@D@2@@_STL@@QBE?AV?$allocator@D@2@XZ PROC NEAR ; _STL::basic_string<char,_STL::char_traits<char>,_STL::allocator<char> >::get_allocator, COMDAT
; _this$ = ecx

; 216  :     return _STLP_CONVERT_ALLOCATOR((const allocator_type&)this->_M_end_of_storage, _CharT);

  00000	8b 44 24 04	 mov	 eax, DWORD PTR ___$ReturnUdt$[esp-4]

; 217  :   }

  00004	c2 04 00	 ret	 4
?get_allocator@?$basic_string@DV?$char_traits@D@_STL@@V?$allocator@D@2@@_STL@@QBE?AV?$allocator@D@2@XZ ENDP ; _STL::basic_string<char,_STL::char_traits<char>,_STL::allocator<char> >::get_allocator
; Function compile flags: /Ogsy
_TEXT	ENDS
;	COMDAT ??$_M_range_initialize@PAD@?$basic_string@DV?$char_traits@D@_STL@@V?$allocator@D@2@@_STL@@AAEXPAD0ABUforward_iterator_tag@1@@Z
_TEXT	SEGMENT
___f$ = 8						; size = 4
___l$ = 12						; size = 4
___formal$ = 16						; size = 4
??$_M_range_initialize@PAD@?$basic_string@DV?$char_traits@D@_STL@@V?$allocator@D@2@@_STL@@AAEXPAD0ABUforward_iterator_tag@1@@Z PROC NEAR ; _STL::basic_string<char,_STL::char_traits<char>,_STL::allocator<char> >::_M_range_initialize<char *>, COMDAT
; _this$ = ecx

; 383  :                            const forward_iterator_tag &) {
; 384  :     difference_type __n = distance(__f, __l);
; 385  :     this->_M_allocate_block(__n + 1);

  00000	8b 44 24 08	 mov	 eax, DWORD PTR ___l$[esp-4]
  00004	2b 44 24 04	 sub	 eax, DWORD PTR ___f$[esp-4]
  00008	56		 push	 esi
  00009	40		 inc	 eax
  0000a	50		 push	 eax
  0000b	8b f1		 mov	 esi, ecx
  0000d	e8 00 00 00 00	 call	 ?_M_allocate_block@?$_String_base@DV?$allocator@D@_STL@@@_STL@@QAEXI@Z ; _STL::_String_base<char,_STL::allocator<char> >::_M_allocate_block

; 386  :     this->_M_finish = uninitialized_copy(__f, __l, this->_M_start);

  00012	ff 36		 push	 DWORD PTR [esi]
  00014	ff 74 24 10	 push	 DWORD PTR ___l$[esp+4]
  00018	ff 74 24 10	 push	 DWORD PTR ___f$[esp+8]
  0001c	e8 00 00 00 00	 call	 ?__copy_trivial@_STL@@YAPAXPBX0PAX@Z ; _STL::__copy_trivial
  00021	83 c4 0c	 add	 esp, 12			; 0000000cH
  00024	89 46 04	 mov	 DWORD PTR [esi+4], eax

; 387  :     _M_terminate_string();

  00027	c6 00 00	 mov	 BYTE PTR [eax], 0
  0002a	5e		 pop	 esi

; 388  :   }

  0002b	c2 0c 00	 ret	 12			; 0000000cH
??$_M_range_initialize@PAD@?$basic_string@DV?$char_traits@D@_STL@@V?$allocator@D@2@@_STL@@AAEXPAD0ABUforward_iterator_tag@1@@Z ENDP ; _STL::basic_string<char,_STL::char_traits<char>,_STL::allocator<char> >::_M_range_initialize<char *>
_TEXT	ENDS
;	COMDAT xdata$x
; File c:\darkeden\designed_common\project\client\virtualfilesystem\vfstream.inl
xdata$x	SEGMENT
$T122378 DD	0ffffffffH
	DD	FLAT:$L122353
	DD	0ffffffffH
	DD	FLAT:$L122348
$T122371 DD	019930520H
	DD	02H
	DD	FLAT:$T122378
	DD	2 DUP(00H)
	DD	2 DUP(00H)
; Function compile flags: /Ogsy
; File c:\darkeden\designed_common\project\client\spritelib\ctypepack.h
xdata$x	ENDS
;	COMDAT ?LoadFromFile@?$CTypePack@VCShadowSprite@@@@UAE_NPBD@Z
_TEXT	SEGMENT
_file$112974 = -92					; size = 80
__$EHRec$ = -12						; size = 12
_i$112976 = 8						; size = 4
_lpszFilename$ = 8					; size = 4
?LoadFromFile@?$CTypePack@VCShadowSprite@@@@UAE_NPBD@Z PROC NEAR ; CTypePack<CShadowSprite>::LoadFromFile, COMDAT
; _this$ = ecx

; 262  : {

  00000	b8 00 00 00 00	 mov	 eax, __ehhandler$?LoadFromFile@?$CTypePack@VCShadowSprite@@@@UAE_NPBD@Z
  00005	e8 00 00 00 00	 call	 __EH_prolog
  0000a	83 ec 50	 sub	 esp, 80			; 00000050H
  0000d	53		 push	 ebx
  0000e	56		 push	 esi
  0000f	57		 push	 edi

; 263  : 	if(iovfs_base::get_vfs()->IsFileExist(lpszFilename))

  00010	ff 75 08	 push	 DWORD PTR _lpszFilename$[ebp]
  00013	8b f1		 mov	 esi, ecx
  00015	b9 00 00 00 00	 mov	 ecx, OFFSET FLAT:?s_VFSystem@iovfs_base@@1VVirtualFileSystem@@A ; iovfs_base::s_VFSystem
  0001a	e8 00 00 00 00	 call	 ?IsFileExist@VirtualFileSystem@@QBE_NPBD@Z ; VirtualFileSystem::IsFileExist
  0001f	84 c0		 test	 al, al
  00021	0f 84 91 00 00
	00		 je	 $L112973

; 264  : 	{
; 265  : 		ivfstream file(lpszFilename, std::ios_base::binary);

  00027	8d 4d a4	 lea	 ecx, DWORD PTR _file$112974[ebp]
  0002a	e8 00 00 00 00	 call	 ??0iovfs_base@@QAE@XZ	; iovfs_base::iovfs_base
  0002f	6a 0c		 push	 12			; 0000000cH
  00031	ff 75 08	 push	 DWORD PTR _lpszFilename$[ebp]
  00034	33 db		 xor	 ebx, ebx
  00036	bf 00 00 00 00	 mov	 edi, OFFSET FLAT:??_7ivfstream@@6B@
  0003b	8d 4d a4	 lea	 ecx, DWORD PTR _file$112974[ebp]
  0003e	89 5d fc	 mov	 DWORD PTR __$EHRec$[ebp+8], ebx
  00041	89 7d a4	 mov	 DWORD PTR _file$112974[ebp], edi
  00044	e8 00 00 00 00	 call	 ?open@iovfs_base@@UAEXPBDH@Z ; iovfs_base::open

; 266  : 		file.read((char *)&m_Size, 2);

  00049	8b 4d a8	 mov	 ecx, DWORD PTR _file$112974[ebp+4]
  0004c	3b cb		 cmp	 ecx, ebx
  0004e	c7 45 fc 01 00
	00 00		 mov	 DWORD PTR __$EHRec$[ebp+8], 1
  00055	74 0b		 je	 SHORT $L122363
  00057	8b 01		 mov	 eax, DWORD PTR [ecx]
  00059	6a 02		 push	 2
  0005b	8d 56 08	 lea	 edx, DWORD PTR [esi+8]
  0005e	52		 push	 edx
  0005f	ff 50 10	 call	 DWORD PTR [eax+16]
$L122363:

; 267  : 		
; 268  : 		Init(m_Size);

  00062	8b 06		 mov	 eax, DWORD PTR [esi]
  00064	33 c9		 xor	 ecx, ecx
  00066	66 8b 4e 08	 mov	 cx, WORD PTR [esi+8]
  0006a	51		 push	 ecx
  0006b	8b ce		 mov	 ecx, esi
  0006d	ff 50 04	 call	 DWORD PTR [eax+4]

; 269  : 		
; 270  : 		register int i = 0;
; 271  : 		
; 272  : 		for(; i < m_Size; i++)

  00070	66 39 5e 08	 cmp	 WORD PTR [esi+8], bx
  00074	89 5d 08	 mov	 DWORD PTR _i$112976[ebp], ebx
  00077	76 1d		 jbe	 SHORT $L112979
$L112977:

; 273  : 		{
; 274  : 			m_pData[i].LoadFromFile(file);

  00079	8b 4e 04	 mov	 ecx, DWORD PTR [esi+4]
  0007c	8d 45 a4	 lea	 eax, DWORD PTR _file$112974[ebp]
  0007f	50		 push	 eax
  00080	03 cb		 add	 ecx, ebx
  00082	e8 00 00 00 00	 call	 ?LoadFromFile@CShadowSprite@@QAE_NAAVivfstream@@@Z ; CShadowSprite::LoadFromFile
  00087	0f b7 46 08	 movzx	 eax, WORD PTR [esi+8]
  0008b	ff 45 08	 inc	 DWORD PTR _i$112976[ebp]
  0008e	83 c3 0c	 add	 ebx, 12			; 0000000cH
  00091	39 45 08	 cmp	 DWORD PTR _i$112976[ebp], eax
  00094	7c e3		 jl	 SHORT $L112977
$L112979:

; 275  : 		}
; 276  : 	}

  00096	83 4d fc ff	 or	 DWORD PTR __$EHRec$[ebp+8], -1
  0009a	8d 4d a4	 lea	 ecx, DWORD PTR _file$112974[ebp]
  0009d	89 7d a4	 mov	 DWORD PTR _file$112974[ebp], edi
  000a0	e8 00 00 00 00	 call	 ??1iovfs_base@@UAE@XZ	; iovfs_base::~iovfs_base
$L112986:

; 290  : 	}
; 291  : 
; 292  : 	return true;

  000a5	b0 01		 mov	 al, 1
$L112972:

; 293  : }

  000a7	8b 4d f4	 mov	 ecx, DWORD PTR __$EHRec$[ebp]
  000aa	5f		 pop	 edi
  000ab	5e		 pop	 esi
  000ac	5b		 pop	 ebx
  000ad	64 89 0d 00 00
	00 00		 mov	 DWORD PTR fs:__except_list, ecx
  000b4	c9		 leave
  000b5	c2 04 00	 ret	 4
$L112973:

; 277  : 	else
; 278  : 	{
; 279  : 		
; 280  : 		if(!LoadFromFileRunning(lpszFilename))

  000b8	ff 75 08	 push	 DWORD PTR _lpszFilename$[ebp]
  000bb	8b 06		 mov	 eax, DWORD PTR [esi]
  000bd	8b ce		 mov	 ecx, esi
  000bf	ff 50 18	 call	 DWORD PTR [eax+24]
  000c2	84 c0		 test	 al, al

; 281  : 			return false;

  000c4	74 20		 je	 SHORT $L122377

; 282  : 
; 283  : 		register int i = 0;

  000c6	33 db		 xor	 ebx, ebx
  000c8	33 ff		 xor	 edi, edi

; 284  : 		
; 285  : 		for(; i < m_Size; ++i)

  000ca	66 39 5e 08	 cmp	 WORD PTR [esi+8], bx
  000ce	76 11		 jbe	 SHORT $L112985
$L112983:

; 286  : 			Get(i);

  000d0	8b 06		 mov	 eax, DWORD PTR [esi]
  000d2	57		 push	 edi
  000d3	8b ce		 mov	 ecx, esi
  000d5	ff 50 3c	 call	 DWORD PTR [eax+60]
  000d8	0f b7 46 08	 movzx	 eax, WORD PTR [esi+8]
  000dc	47		 inc	 edi
  000dd	3b f8		 cmp	 edi, eax
  000df	7c ef		 jl	 SHORT $L112983
$L112985:

; 287  : 
; 288  : 		if(m_bRunningLoad)

  000e1	38 5e 0a	 cmp	 BYTE PTR [esi+10], bl
  000e4	74 bf		 je	 SHORT $L112986
$L122377:

; 289  : 			return false;

  000e6	32 c0		 xor	 al, al
  000e8	eb bd		 jmp	 SHORT $L112972
_TEXT	ENDS
;	COMDAT text$x
text$x	SEGMENT
$L122353:
  00000	8d 4d a4	 lea	 ecx, DWORD PTR _file$112974[ebp]
  00003	e9 00 00 00 00	 jmp	 ??1iovfs_base@@UAE@XZ	; iovfs_base::~iovfs_base
$L122348:
  00008	8d 4d a4	 lea	 ecx, DWORD PTR _file$112974[ebp]
  0000b	e9 00 00 00 00	 jmp	 ??1ivfstream@@UAE@XZ	; ivfstream::~ivfstream
__ehhandler$?LoadFromFile@?$CTypePack@VCShadowSprite@@@@UAE_NPBD@Z:
  00010	b8 00 00 00 00	 mov	 eax, OFFSET FLAT:$T122371
  00015	e9 00 00 00 00	 jmp	 ___CxxFrameHandler
text$x	ENDS
?LoadFromFile@?$CTypePack@VCShadowSprite@@@@UAE_NPBD@Z ENDP ; CTypePack<CShadowSprite>::LoadFromFile
;	COMDAT xdata$x
; File c:\darkeden\designed_common\project\client\virtualfilesystem\vfstream.inl
xdata$x	SEGMENT
$T122667 DD	0ffffffffH
	DD	FLAT:$L122389
	DD	00H
	DD	FLAT:$L122412
	DD	00H
	DD	FLAT:$L122390
	DD	02H
	DD	FLAT:$L122530
	DD	02H
	DD	FLAT:$L122391
	DD	0ffffffffH
	DD	FLAT:$L122588
	DD	0ffffffffH
	DD	FLAT:$L122392
	DD	06H
	DD	FLAT:$L122601
	DD	06H
	DD	FLAT:$L122393
$T122653 DD	019930520H
	DD	09H
	DD	FLAT:$T122667
	DD	2 DUP(00H)
	DD	2 DUP(00H)
; Function compile flags: /Ogsy
; File c:\darkeden\designed_common\project\client\spritelib\ctypepack.h
xdata$x	ENDS
;	COMDAT ?LoadFromFileData@?$CTypePack@VCShadowSprite@@@@UAE_NHHPBD0@Z
_TEXT	SEGMENT
_dataFile$113078 = -880					; size = 80
_indexFile$113086 = -800				; size = 80
_fileHeader$113065 = -720				; size = 80
_dataFile$113083 = -640					; size = 80
_fp$113094 = -560					; size = 4
_bSplitFile$ = -553					; size = 1
_strHeaderPath$113064 = -552				; size = 12
_szFileName$113076 = -540				; size = 260
_szExt$113075 = -280					; size = 256
_lineBuffer$113069 = -24				; size = 8
__$ArrayPad$ = -16					; size = 4
__$EHRec$ = -12						; size = 12
__$ReturnAddr$ = 4					; size = 4
_dataID$ = 8						; size = 4
_fileID$ = 12						; size = 4
_fileStartID$113077 = 16				; size = 4
_packFilename$ = 16					; size = 4
_num$113089 = 18					; size = 2
_dataSize$113070 = 20					; size = 4
_indexFilename$ = 20					; size = 4
?LoadFromFileData@?$CTypePack@VCShadowSprite@@@@UAE_NHHPBD0@Z PROC NEAR ; CTypePack<CShadowSprite>::LoadFromFileData, COMDAT
; _this$ = ecx

; 629  : {

  00000	b8 00 00 00 00	 mov	 eax, __ehhandler$?LoadFromFileData@?$CTypePack@VCShadowSprite@@@@UAE_NHHPBD0@Z
  00005	e8 00 00 00 00	 call	 __EH_prolog
  0000a	81 ec 64 03 00
	00		 sub	 esp, 868		; 00000364H

; 630  : 	if (dataID < 0 || dataID >= m_Size || fileID < 0)

  00010	83 7d 08 00	 cmp	 DWORD PTR _dataID$[ebp], 0
  00014	a1 00 00 00 00	 mov	 eax, DWORD PTR ___security_cookie
  00019	53		 push	 ebx
  0001a	56		 push	 esi
  0001b	57		 push	 edi
  0001c	89 45 f0	 mov	 DWORD PTR __$ArrayPad$[ebp], eax
  0001f	8b f9		 mov	 edi, ecx
  00021	0f 8c 57 01 00
	00		 jl	 $L113061
  00027	0f b7 47 08	 movzx	 eax, WORD PTR [edi+8]
  0002b	39 45 08	 cmp	 DWORD PTR _dataID$[ebp], eax
  0002e	0f 8d 4a 01 00
	00		 jge	 $L113061
  00034	83 7d 0c 00	 cmp	 DWORD PTR _fileID$[ebp], 0
  00038	0f 8c 40 01 00
	00		 jl	 $L113061

; 633  : 	}
; 634  : 
; 635  : 	//-------------------------------------------------------------------
; 636  : 	// load data file pointer .
; 637  : 	//-------------------------------------------------------------------
; 638  : 	bool bSplitFile = !iovfs_base::get_vfs()->IsFileExist(packFilename);

  0003e	8b 5d 10	 mov	 ebx, DWORD PTR _packFilename$[ebp]
  00041	53		 push	 ebx
  00042	b9 00 00 00 00	 mov	 ecx, OFFSET FLAT:?s_VFSystem@iovfs_base@@1VVirtualFileSystem@@A ; iovfs_base::s_VFSystem
  00047	e8 00 00 00 00	 call	 ?IsFileExist@VirtualFileSystem@@QBE_NPBD@Z ; VirtualFileSystem::IsFileExist
  0004c	f6 d8		 neg	 al
  0004e	1a c0		 sbb	 al, al
  00050	fe c0		 inc	 al
  00052	88 85 d7 fd ff
	ff		 mov	 BYTE PTR _bSplitFile$[ebp], al

; 639  : 
; 640  : 	if(bSplitFile)

  00058	0f 84 3d 02 00
	00		 je	 $L113063

; 641  : 	{
; 642  : 		m_strFileName = packFilename;

  0005e	53		 push	 ebx
  0005f	8d 77 20	 lea	 esi, DWORD PTR [edi+32]
  00062	e8 00 00 00 00	 call	 _strlen
  00067	59		 pop	 ecx
  00068	03 c3		 add	 eax, ebx
  0006a	50		 push	 eax
  0006b	53		 push	 ebx
  0006c	8b ce		 mov	 ecx, esi
  0006e	e8 00 00 00 00	 call	 ?assign@?$basic_string@DV?$char_traits@D@_STL@@V?$allocator@D@2@@_STL@@QAEAAV12@PBD0@Z ; _STL::basic_string<char,_STL::char_traits<char>,_STL::allocator<char> >::assign

; 643  : 		
; 644  : 		std::string strHeaderPath = m_strFileName;

  00073	56		 push	 esi
  00074	8d 8d d8 fd ff
	ff		 lea	 ecx, DWORD PTR _strHeaderPath$113064[ebp]
  0007a	e8 00 00 00 00	 call	 ??0?$basic_string@DV?$char_traits@D@_STL@@V?$allocator@D@2@@_STL@@QAE@ABV01@@Z ; _STL::basic_string<char,_STL::char_traits<char>,_STL::allocator<char> >::basic_string<char,_STL::char_traits<char>,_STL::allocator<char> >
  0007f	83 65 fc 00	 and	 DWORD PTR __$EHRec$[ebp+8], 0

; 645  : 		strHeaderPath += "\\header.inf";

  00083	68 00 00 00 00	 push	 OFFSET FLAT:??_C@_0M@KJGOGBJN@?2header?4inf?$AA@
  00088	8d 8d d8 fd ff
	ff		 lea	 ecx, DWORD PTR _strHeaderPath$113064[ebp]
  0008e	e8 00 00 00 00	 call	 ?append@?$basic_string@DV?$char_traits@D@_STL@@V?$allocator@D@2@@_STL@@QAEAAV12@PBD@Z ; _STL::basic_string<char,_STL::char_traits<char>,_STL::allocator<char> >::append

; 646  : 		ivfstream fileHeader(strHeaderPath.c_str(), 0);

  00093	8b 9d d8 fd ff
	ff		 mov	 ebx, DWORD PTR _strHeaderPath$113064[ebp]
  00099	8d 8d 30 fd ff
	ff		 lea	 ecx, DWORD PTR _fileHeader$113065[ebp]
  0009f	e8 00 00 00 00	 call	 ??0iovfs_base@@QAE@XZ	; iovfs_base::iovfs_base
  000a4	6a 08		 push	 8
  000a6	be 00 00 00 00	 mov	 esi, OFFSET FLAT:??_7ivfstream@@6B@
  000ab	53		 push	 ebx
  000ac	8d 8d 30 fd ff
	ff		 lea	 ecx, DWORD PTR _fileHeader$113065[ebp]
  000b2	c6 45 fc 01	 mov	 BYTE PTR __$EHRec$[ebp+8], 1
  000b6	89 b5 30 fd ff
	ff		 mov	 DWORD PTR _fileHeader$113065[ebp], esi
  000bc	e8 00 00 00 00	 call	 ?open@iovfs_base@@UAEXPBDH@Z ; iovfs_base::open

; 647  : 		
; 648  : 		if(!fileHeader.is_open()) return false;

  000c1	8d 8d 30 fd ff
	ff		 lea	 ecx, DWORD PTR _fileHeader$113065[ebp]
  000c7	c6 45 fc 02	 mov	 BYTE PTR __$EHRec$[ebp+8], 2
  000cb	e8 00 00 00 00	 call	 ?is_open@iovfs_base@@QBE_NXZ ; iovfs_base::is_open
  000d0	84 c0		 test	 al, al
  000d2	74 73		 je	 SHORT $L122666

; 649  : 		
; 650  : 		const int bufferSize = 8;
; 651  : 		char lineBuffer[bufferSize];
; 652  : 
; 653  : 		fileHeader.getline(lineBuffer, bufferSize);

  000d4	8b 8d 34 fd ff
	ff		 mov	 ecx, DWORD PTR _fileHeader$113065[ebp+4]
  000da	33 db		 xor	 ebx, ebx
  000dc	3b cb		 cmp	 ecx, ebx
  000de	74 0d		 je	 SHORT $L122660
  000e0	8b 01		 mov	 eax, DWORD PTR [ecx]
  000e2	6a 0a		 push	 10			; 0000000aH
  000e4	6a 08		 push	 8
  000e6	8d 55 e8	 lea	 edx, DWORD PTR _lineBuffer$113069[ebp]
  000e9	52		 push	 edx
  000ea	ff 50 2c	 call	 DWORD PTR [eax+44]
$L122660:

; 654  : 		int dataSize = static_cast<int>(atoi(lineBuffer));

  000ed	8d 45 e8	 lea	 eax, DWORD PTR _lineBuffer$113069[ebp]
  000f0	50		 push	 eax
  000f1	e8 00 00 00 00	 call	 _atoi
  000f6	59		 pop	 ecx

; 655  : 
; 656  : 		fileHeader.getline(lineBuffer, bufferSize);

  000f7	8b 8d 34 fd ff
	ff		 mov	 ecx, DWORD PTR _fileHeader$113065[ebp+4]
  000fd	3b cb		 cmp	 ecx, ebx
  000ff	89 45 14	 mov	 DWORD PTR _dataSize$113070[ebp], eax
  00102	74 0d		 je	 SHORT $L122468
  00104	8b 01		 mov	 eax, DWORD PTR [ecx]
  00106	6a 0a		 push	 10			; 0000000aH
  00108	6a 08		 push	 8
  0010a	8d 55 e8	 lea	 edx, DWORD PTR _lineBuffer$113069[ebp]
  0010d	52		 push	 edx
  0010e	ff 50 2c	 call	 DWORD PTR [eax+44]
$L122468:

; 657  : 		m_nUnitCount = static_cast<int>(atoi(lineBuffer));

  00111	8d 45 e8	 lea	 eax, DWORD PTR _lineBuffer$113069[ebp]
  00114	50		 push	 eax
  00115	e8 00 00 00 00	 call	 _atoi
  0011a	59		 pop	 ecx
  0011b	89 47 18	 mov	 DWORD PTR [edi+24], eax

; 658  : 		m_nUnitTwoMultiplier = LogTwoMultiplier(m_nUnitCount);

  0011e	8b c8		 mov	 ecx, eax
  00120	33 c0		 xor	 eax, eax
$L122473:
  00122	f6 c1 01	 test	 cl, 1
  00125	75 0a		 jne	 SHORT $L122471
  00127	d1 f9		 sar	 ecx, 1
  00129	40		 inc	 eax
  0012a	83 f8 08	 cmp	 eax, 8
  0012d	7c f3		 jl	 SHORT $L122473
  0012f	33 c0		 xor	 eax, eax
$L122471:

; 659  : 
; 660  : 		fileHeader.close();

  00131	8d 8d 30 fd ff
	ff		 lea	 ecx, DWORD PTR _fileHeader$113065[ebp]
  00137	89 47 1c	 mov	 DWORD PTR [edi+28], eax
  0013a	e8 00 00 00 00	 call	 ?close@iovfs_base@@QAEXXZ ; iovfs_base::close

; 661  : 
; 662  : 		if (fileID >= dataSize)

  0013f	8b 45 14	 mov	 eax, DWORD PTR _dataSize$113070[ebp]
  00142	39 45 0c	 cmp	 DWORD PTR _fileID$[ebp], eax
  00145	7c 52		 jl	 SHORT $L113073
$L122666:

; 663  : 		{
; 664  : 			return false;

  00147	8d 8d 30 fd ff
	ff		 lea	 ecx, DWORD PTR _fileHeader$113065[ebp]
  0014d	c6 45 fc 00	 mov	 BYTE PTR __$EHRec$[ebp+8], 0
  00151	89 b5 30 fd ff
	ff		 mov	 DWORD PTR _fileHeader$113065[ebp], esi
  00157	e8 00 00 00 00	 call	 ??1iovfs_base@@UAE@XZ	; iovfs_base::~iovfs_base
  0015c	8b 85 e0 fd ff
	ff		 mov	 eax, DWORD PTR _strHeaderPath$113064[ebp+8]
  00162	2b 85 d8 fd ff
	ff		 sub	 eax, DWORD PTR _strHeaderPath$113064[ebp]
  00168	83 4d fc ff	 or	 DWORD PTR __$EHRec$[ebp+8], -1
  0016c	50		 push	 eax
  0016d	ff b5 d8 fd ff
	ff		 push	 DWORD PTR _strHeaderPath$113064[ebp]
  00173	8d 8d e0 fd ff
	ff		 lea	 ecx, DWORD PTR _strHeaderPath$113064[ebp+8]
  00179	e8 00 00 00 00	 call	 ?deallocate@?$allocator@D@_STL@@QAEXPADI@Z ; _STL::allocator<char>::deallocate
$L113061:

; 631  : 	{
; 632  : 		return false;

  0017e	32 c0		 xor	 al, al
$L113059:

; 729  : }

  00180	8b 4d f4	 mov	 ecx, DWORD PTR __$EHRec$[ebp]
  00183	5f		 pop	 edi
  00184	5e		 pop	 esi
  00185	64 89 0d 00 00
	00 00		 mov	 DWORD PTR fs:__except_list, ecx
  0018c	8b 4d f0	 mov	 ecx, DWORD PTR __$ArrayPad$[ebp]
  0018f	5b		 pop	 ebx
  00190	e8 00 00 00 00	 call	 @__security_check_cookie@4
  00195	c9		 leave
  00196	c2 10 00	 ret	 16			; 00000010H
$L113073:

; 665  : 		}
; 666  : 		
; 667  : 		//  
; 668  : 		char szExt[_MAX_EXT];
; 669  : 		_splitpath(packFilename, NULL, NULL, NULL, szExt);

  00199	8d 85 e8 fe ff
	ff		 lea	 eax, DWORD PTR _szExt$113075[ebp]
  0019f	50		 push	 eax
  001a0	53		 push	 ebx
  001a1	53		 push	 ebx
  001a2	53		 push	 ebx
  001a3	ff 75 10	 push	 DWORD PTR _packFilename$[ebp]
  001a6	e8 00 00 00 00	 call	 __splitpath

; 670  : 		
; 671  : 		m_strFileExt = szExt;

  001ab	8d 85 e8 fe ff
	ff		 lea	 eax, DWORD PTR _szExt$113075[ebp]
  001b1	50		 push	 eax
  001b2	e8 00 00 00 00	 call	 _strlen
  001b7	83 c4 18	 add	 esp, 24			; 00000018H
  001ba	8d 84 05 e8 fe
	ff ff		 lea	 eax, DWORD PTR _szExt$113075[ebp+eax]
  001c1	50		 push	 eax
  001c2	8d 85 e8 fe ff
	ff		 lea	 eax, DWORD PTR _szExt$113075[ebp]
  001c8	50		 push	 eax
  001c9	8d 4f 2c	 lea	 ecx, DWORD PTR [edi+44]
  001cc	e8 00 00 00 00	 call	 ?assign@?$basic_string@DV?$char_traits@D@_STL@@V?$allocator@D@2@@_STL@@QAEAAV12@PBD0@Z ; _STL::basic_string<char,_STL::char_traits<char>,_STL::allocator<char> >::assign

; 672  : 
; 673  : 		char szFileName[MAX_PATH];
; 674  : 
; 675  : 		int fileStartID = GetSplitFile(fileID, szFileName);

  001d1	8d 85 e4 fd ff
	ff		 lea	 eax, DWORD PTR _szFileName$113076[ebp]
  001d7	50		 push	 eax
  001d8	ff 75 0c	 push	 DWORD PTR _fileID$[ebp]
  001db	8b cf		 mov	 ecx, edi
  001dd	e8 00 00 00 00	 call	 ?GetSplitFile@?$CTypePack@VCShadowSprite@@@@IAEHHPAD@Z ; CTypePack<CShadowSprite>::GetSplitFile

; 676  : 
; 677  : 		ivfstream dataFile(szFileName, std::ios_base::binary);

  001e2	8d 8d 90 fc ff
	ff		 lea	 ecx, DWORD PTR _dataFile$113078[ebp]
  001e8	89 45 10	 mov	 DWORD PTR _fileStartID$113077[ebp], eax
  001eb	e8 00 00 00 00	 call	 ??0iovfs_base@@QAE@XZ	; iovfs_base::iovfs_base
  001f0	6a 0c		 push	 12			; 0000000cH
  001f2	8d 85 e4 fd ff
	ff		 lea	 eax, DWORD PTR _szFileName$113076[ebp]
  001f8	50		 push	 eax
  001f9	8d 8d 90 fc ff
	ff		 lea	 ecx, DWORD PTR _dataFile$113078[ebp]
  001ff	c6 45 fc 03	 mov	 BYTE PTR __$EHRec$[ebp+8], 3
  00203	89 b5 90 fc ff
	ff		 mov	 DWORD PTR _dataFile$113078[ebp], esi
  00209	e8 00 00 00 00	 call	 ?open@iovfs_base@@UAEXPBDH@Z ; iovfs_base::open

; 678  : 
; 679  : 		dataFile.seekg(2);

  0020e	8b 8d 94 fc ff
	ff		 mov	 ecx, DWORD PTR _dataFile$113078[ebp+4]
  00214	3b cb		 cmp	 ecx, ebx
  00216	c6 45 fc 04	 mov	 BYTE PTR __$EHRec$[ebp+8], 4
  0021a	74 09		 je	 SHORT $L122659
  0021c	8b 01		 mov	 eax, DWORD PTR [ecx]
  0021e	6a 01		 push	 1
  00220	6a 02		 push	 2
  00222	ff 50 18	 call	 DWORD PTR [eax+24]
$L122659:
  00225	8b 45 08	 mov	 eax, DWORD PTR _dataID$[ebp]
  00228	8d 1c 40	 lea	 ebx, DWORD PTR [eax+eax*2]
  0022b	c1 e3 02	 shl	 ebx, 2
$L113079:

; 680  : 
; 681  : 		do {
; 682  : 			m_pData[dataID].LoadFromFile(dataFile);

  0022e	8b 4f 04	 mov	 ecx, DWORD PTR [edi+4]
  00231	8d 85 90 fc ff
	ff		 lea	 eax, DWORD PTR _dataFile$113078[ebp]
  00237	50		 push	 eax
  00238	03 cb		 add	 ecx, ebx
  0023a	e8 00 00 00 00	 call	 ?LoadFromFile@CShadowSprite@@QAE_NAAVivfstream@@@Z ; CShadowSprite::LoadFromFile

; 683  : 		}
; 684  : 		while(fileStartID++ < fileID);

  0023f	8b 45 10	 mov	 eax, DWORD PTR _fileStartID$113077[ebp]
  00242	ff 45 10	 inc	 DWORD PTR _fileStartID$113077[ebp]
  00245	3b 45 0c	 cmp	 eax, DWORD PTR _fileID$[ebp]
  00248	7c e4		 jl	 SHORT $L113079

; 685  : 	}

  0024a	8d 8d 90 fc ff
	ff		 lea	 ecx, DWORD PTR _dataFile$113078[ebp]
  00250	c6 45 fc 02	 mov	 BYTE PTR __$EHRec$[ebp+8], 2
  00254	89 b5 90 fc ff
	ff		 mov	 DWORD PTR _dataFile$113078[ebp], esi
  0025a	e8 00 00 00 00	 call	 ??1iovfs_base@@UAE@XZ	; iovfs_base::~iovfs_base
  0025f	8d 8d 30 fd ff
	ff		 lea	 ecx, DWORD PTR _fileHeader$113065[ebp]
  00265	c6 45 fc 00	 mov	 BYTE PTR __$EHRec$[ebp+8], 0
  00269	89 b5 30 fd ff
	ff		 mov	 DWORD PTR _fileHeader$113065[ebp], esi
  0026f	e8 00 00 00 00	 call	 ??1iovfs_base@@UAE@XZ	; iovfs_base::~iovfs_base
  00274	8b 85 e0 fd ff
	ff		 mov	 eax, DWORD PTR _strHeaderPath$113064[ebp+8]
  0027a	2b 85 d8 fd ff
	ff		 sub	 eax, DWORD PTR _strHeaderPath$113064[ebp]
  00280	83 4d fc ff	 or	 DWORD PTR __$EHRec$[ebp+8], -1
  00284	50		 push	 eax
  00285	ff b5 d8 fd ff
	ff		 push	 DWORD PTR _strHeaderPath$113064[ebp]
  0028b	8d 8d e0 fd ff
	ff		 lea	 ecx, DWORD PTR _strHeaderPath$113064[ebp+8]
  00291	e8 00 00 00 00	 call	 ?deallocate@?$allocator@D@_STL@@QAEXPADI@Z ; _STL::allocator<char>::deallocate

; 686  : 	else

  00296	e9 52 01 00 00	 jmp	 $L113082
$L113063:

; 687  : 	{
; 688  : 		// 	if (access(packFilename, 0) || access(indexFilename, 0))
; 689  : 		// 	{
; 690  : 		// 		return false;
; 691  : 		// 	}
; 692  : 		
; 693  : 		ivfstream dataFile(packFilename, std::ios::binary);

  0029b	8d 8d 80 fd ff
	ff		 lea	 ecx, DWORD PTR _dataFile$113083[ebp]
  002a1	e8 00 00 00 00	 call	 ??0iovfs_base@@QAE@XZ	; iovfs_base::iovfs_base
  002a6	6a 0c		 push	 12			; 0000000cH
  002a8	be 00 00 00 00	 mov	 esi, OFFSET FLAT:??_7ivfstream@@6B@
  002ad	53		 push	 ebx
  002ae	8d 8d 80 fd ff
	ff		 lea	 ecx, DWORD PTR _dataFile$113083[ebp]
  002b4	c7 45 fc 05 00
	00 00		 mov	 DWORD PTR __$EHRec$[ebp+8], 5
  002bb	89 b5 80 fd ff
	ff		 mov	 DWORD PTR _dataFile$113083[ebp], esi
  002c1	e8 00 00 00 00	 call	 ?open@iovfs_base@@UAEXPBDH@Z ; iovfs_base::open

; 694  : 		
; 695  : 		if (!dataFile.is_open())

  002c6	8d 8d 80 fd ff
	ff		 lea	 ecx, DWORD PTR _dataFile$113083[ebp]
  002cc	c7 45 fc 06 00
	00 00		 mov	 DWORD PTR __$EHRec$[ebp+8], 6
  002d3	e8 00 00 00 00	 call	 ?is_open@iovfs_base@@QBE_NXZ ; iovfs_base::is_open
  002d8	84 c0		 test	 al, al

; 696  : 		{
; 697  : 			return false;

  002da	74 73		 je	 SHORT $L122665

; 698  : 		}
; 699  : 		
; 700  : 		ivfstream indexFile(indexFilename, std::ios::binary);

  002dc	8d 8d e0 fc ff
	ff		 lea	 ecx, DWORD PTR _indexFile$113086[ebp]
  002e2	e8 00 00 00 00	 call	 ??0iovfs_base@@QAE@XZ	; iovfs_base::iovfs_base
  002e7	6a 0c		 push	 12			; 0000000cH
  002e9	ff 75 14	 push	 DWORD PTR _indexFilename$[ebp]
  002ec	8d 8d e0 fc ff
	ff		 lea	 ecx, DWORD PTR _indexFile$113086[ebp]
  002f2	c6 45 fc 07	 mov	 BYTE PTR __$EHRec$[ebp+8], 7
  002f6	89 b5 e0 fc ff
	ff		 mov	 DWORD PTR _indexFile$113086[ebp], esi
  002fc	e8 00 00 00 00	 call	 ?open@iovfs_base@@UAEXPBDH@Z ; iovfs_base::open

; 701  : 		
; 702  : 		if (!indexFile.is_open())

  00301	8d 8d e0 fc ff
	ff		 lea	 ecx, DWORD PTR _indexFile$113086[ebp]
  00307	c6 45 fc 08	 mov	 BYTE PTR __$EHRec$[ebp+8], 8
  0030b	e8 00 00 00 00	 call	 ?is_open@iovfs_base@@QBE_NXZ ; iovfs_base::is_open
  00310	84 c0		 test	 al, al

; 703  : 		{
; 704  : 			return false;

  00312	74 26		 je	 SHORT $L122664

; 705  : 		}
; 706  : 		
; 707  : 		
; 708  : 		//-------------------------------------------------------------------
; 709  : 		// index  . fileID ..?
; 710  : 		//-------------------------------------------------------------------
; 711  : 		TYPE_SPRITEID num;
; 712  : 		indexFile.read((char*)&num, sizeof(WORD));

  00314	8b 8d e4 fc ff
	ff		 mov	 ecx, DWORD PTR _indexFile$113086[ebp+4]
  0031a	85 c9		 test	 ecx, ecx
  0031c	74 11		 je	 SHORT $L122619
  0031e	8b 01		 mov	 eax, DWORD PTR [ecx]
  00320	6a 02		 push	 2
  00322	8d 55 12	 lea	 edx, DWORD PTR _num$113089[ebp]
  00325	52		 push	 edx
  00326	ff 50 10	 call	 DWORD PTR [eax+16]
  00329	8b 8d e4 fc ff
	ff		 mov	 ecx, DWORD PTR _indexFile$113086[ebp+4]
$L122619:

; 713  : 		
; 714  : 		if (fileID >= num)

  0032f	0f b7 55 12	 movzx	 edx, WORD PTR _num$113089[ebp]
  00333	8b 45 0c	 mov	 eax, DWORD PTR _fileID$[ebp]
  00336	3b c2		 cmp	 eax, edx
  00338	7c 2f		 jl	 SHORT $L113092
$L122664:

; 715  : 		{
; 716  : 			return false;

  0033a	8d 8d e0 fc ff
	ff		 lea	 ecx, DWORD PTR _indexFile$113086[ebp]
  00340	c6 45 fc 06	 mov	 BYTE PTR __$EHRec$[ebp+8], 6
  00344	89 b5 e0 fc ff
	ff		 mov	 DWORD PTR _indexFile$113086[ebp], esi
  0034a	e8 00 00 00 00	 call	 ??1iovfs_base@@UAE@XZ	; iovfs_base::~iovfs_base
$L122665:
  0034f	83 4d fc ff	 or	 DWORD PTR __$EHRec$[ebp+8], -1
  00353	8d 8d 80 fd ff
	ff		 lea	 ecx, DWORD PTR _dataFile$113083[ebp]
  00359	89 b5 80 fd ff
	ff		 mov	 DWORD PTR _dataFile$113083[ebp], esi
  0035f	e8 00 00 00 00	 call	 ??1iovfs_base@@UAE@XZ	; iovfs_base::~iovfs_base
  00364	e9 15 fe ff ff	 jmp	 $L113061
$L113092:

; 717  : 		}
; 718  : 
; 719  : 		long fp;	
; 720  : 		indexFile.seekg( 2 + fileID*4 );		// 2(num) + spriteID * (4 bytes)

  00369	85 c9		 test	 ecx, ecx
  0036b	74 27		 je	 SHORT $L122661
  0036d	8b 11		 mov	 edx, DWORD PTR [ecx]
  0036f	6a 01		 push	 1
  00371	8d 04 85 02 00
	00 00		 lea	 eax, DWORD PTR [eax*4+2]
  00378	50		 push	 eax
  00379	ff 52 18	 call	 DWORD PTR [edx+24]

; 721  : 		indexFile.read((char*)&fp, 4);

  0037c	8b 8d e4 fc ff
	ff		 mov	 ecx, DWORD PTR _indexFile$113086[ebp+4]
  00382	85 c9		 test	 ecx, ecx
  00384	74 0e		 je	 SHORT $L122661
  00386	8b 01		 mov	 eax, DWORD PTR [ecx]
  00388	6a 04		 push	 4
  0038a	8d 95 d0 fd ff
	ff		 lea	 edx, DWORD PTR _fp$113094[ebp]
  00390	52		 push	 edx
  00391	ff 50 10	 call	 DWORD PTR [eax+16]
$L122661:

; 722  : 		
; 723  : 		dataFile.seekg( fp );

  00394	8b 8d 84 fd ff
	ff		 mov	 ecx, DWORD PTR _dataFile$113083[ebp+4]
  0039a	85 c9		 test	 ecx, ecx
  0039c	74 0d		 je	 SHORT $L122641
  0039e	8b 01		 mov	 eax, DWORD PTR [ecx]
  003a0	6a 01		 push	 1
  003a2	ff b5 d0 fd ff
	ff		 push	 DWORD PTR _fp$113094[ebp]
  003a8	ff 50 18	 call	 DWORD PTR [eax+24]
$L122641:

; 724  : 
; 725  : 		m_pData[dataID].LoadFromFile( dataFile );

  003ab	8b 4f 04	 mov	 ecx, DWORD PTR [edi+4]
  003ae	8d 85 80 fd ff
	ff		 lea	 eax, DWORD PTR _dataFile$113083[ebp]
  003b4	50		 push	 eax
  003b5	8b 45 08	 mov	 eax, DWORD PTR _dataID$[ebp]
  003b8	8d 04 40	 lea	 eax, DWORD PTR [eax+eax*2]
  003bb	8d 0c 81	 lea	 ecx, DWORD PTR [ecx+eax*4]
  003be	e8 00 00 00 00	 call	 ?LoadFromFile@CShadowSprite@@QAE_NAAVivfstream@@@Z ; CShadowSprite::LoadFromFile

; 726  : 	}

  003c3	8d 8d e0 fc ff
	ff		 lea	 ecx, DWORD PTR _indexFile$113086[ebp]
  003c9	c6 45 fc 06	 mov	 BYTE PTR __$EHRec$[ebp+8], 6
  003cd	89 b5 e0 fc ff
	ff		 mov	 DWORD PTR _indexFile$113086[ebp], esi
  003d3	e8 00 00 00 00	 call	 ??1iovfs_base@@UAE@XZ	; iovfs_base::~iovfs_base
  003d8	83 4d fc ff	 or	 DWORD PTR __$EHRec$[ebp+8], -1
  003dc	8d 8d 80 fd ff
	ff		 lea	 ecx, DWORD PTR _dataFile$113083[ebp]
  003e2	89 b5 80 fd ff
	ff		 mov	 DWORD PTR _dataFile$113083[ebp], esi
  003e8	e8 00 00 00 00	 call	 ??1iovfs_base@@UAE@XZ	; iovfs_base::~iovfs_base
$L113082:

; 727  : 	
; 728  : 	return true;

  003ed	b0 01		 mov	 al, 1
  003ef	e9 8c fd ff ff	 jmp	 $L113059
_TEXT	ENDS
;	COMDAT text$x
text$x	SEGMENT
$L122389:
  00000	8d 8d d8 fd ff
	ff		 lea	 ecx, DWORD PTR _strHeaderPath$113064[ebp]
  00006	e9 00 00 00 00	 jmp	 ??1?$basic_string@DV?$char_traits@D@_STL@@V?$allocator@D@2@@_STL@@QAE@XZ ; _STL::basic_string<char,_STL::char_traits<char>,_STL::allocator<char> >::~basic_string<char,_STL::char_traits<char>,_STL::allocator<char> >
$L122412:
  0000b	8d 8d 30 fd ff
	ff		 lea	 ecx, DWORD PTR _fileHeader$113065[ebp]
  00011	e9 00 00 00 00	 jmp	 ??1iovfs_base@@UAE@XZ	; iovfs_base::~iovfs_base
$L122390:
  00016	8d 8d 30 fd ff
	ff		 lea	 ecx, DWORD PTR _fileHeader$113065[ebp]
  0001c	e9 00 00 00 00	 jmp	 ??1ivfstream@@UAE@XZ	; ivfstream::~ivfstream
$L122530:
  00021	8d 8d 90 fc ff
	ff		 lea	 ecx, DWORD PTR _dataFile$113078[ebp]
  00027	e9 00 00 00 00	 jmp	 ??1iovfs_base@@UAE@XZ	; iovfs_base::~iovfs_base
$L122391:
  0002c	8d 8d 90 fc ff
	ff		 lea	 ecx, DWORD PTR _dataFile$113078[ebp]
  00032	e9 00 00 00 00	 jmp	 ??1ivfstream@@UAE@XZ	; ivfstream::~ivfstream
$L122588:
  00037	8d 8d 80 fd ff
	ff		 lea	 ecx, DWORD PTR _dataFile$113083[ebp]
  0003d	e9 00 00 00 00	 jmp	 ??1iovfs_base@@UAE@XZ	; iovfs_base::~iovfs_base
$L122392:
  00042	8d 8d 80 fd ff
	ff		 lea	 ecx, DWORD PTR _dataFile$113083[ebp]
  00048	e9 00 00 00 00	 jmp	 ??1ivfstream@@UAE@XZ	; ivfstream::~ivfstream
$L122601:
  0004d	8d 8d e0 fc ff
	ff		 lea	 ecx, DWORD PTR _indexFile$113086[ebp]
  00053	e9 00 00 00 00	 jmp	 ??1iovfs_base@@UAE@XZ	; iovfs_base::~iovfs_base
$L122393:
  00058	8d 8d e0 fc ff
	ff		 lea	 ecx, DWORD PTR _indexFile$113086[ebp]
  0005e	e9 00 00 00 00	 jmp	 ??1ivfstream@@UAE@XZ	; ivfstream::~ivfstream
__ehhandler$?LoadFromFileData@?$CTypePack@VCShadowSprite@@@@UAE_NHHPBD0@Z:
  00063	b8 00 00 00 00	 mov	 eax, OFFSET FLAT:$T122653
  00068	e9 00 00 00 00	 jmp	 ___CxxFrameHandler
text$x	ENDS
?LoadFromFileData@?$CTypePack@VCShadowSprite@@@@UAE_NHHPBD0@Z ENDP ; CTypePack<CShadowSprite>::LoadFromFileData
PUBLIC	??0?$basic_istream@DV?$char_traits@D@_STL@@@_STL@@QAE@PAV?$basic_streambuf@DV?$char_traits@D@_STL@@@1@@Z ; _STL::basic_istream<char,_STL::char_traits<char> >::basic_istream<char,_STL::char_traits<char> >
PUBLIC	??_8?$basic_istream@DV?$char_traits@D@_STL@@@_STL@@7B@ ; _STL::basic_istream<char,_STL::char_traits<char> >::`vbtable'
;	COMDAT xdata$x
; File c:\stlport-4.6.1\stlport\stl\_istream.h
xdata$x	SEGMENT
$T122678 DD	0ffffffffH
	DD	FLAT:$L122673
$T122676 DD	019930520H
	DD	01H
	DD	FLAT:$T122678
	DD	2 DUP(00H)
	DD	2 DUP(00H)
xdata$x	ENDS
;	COMDAT ??_8?$basic_istream@DV?$char_traits@D@_STL@@@_STL@@7B@
CONST	SEGMENT
??_8?$basic_istream@DV?$char_traits@D@_STL@@@_STL@@7B@ DD 00H ; _STL::basic_istream<char,_STL::char_traits<char> >::`vbtable'
	DD	08H
; Function compile flags: /Ogsy
CONST	ENDS
;	COMDAT ??0?$basic_istream@DV?$char_traits@D@_STL@@@_STL@@QAE@PAV?$basic_streambuf@DV?$char_traits@D@_STL@@@1@@Z
_TEXT	SEGMENT
_this$ = -20						; size = 4
$T122672 = -16						; size = 4
__$EHRec$ = -12						; size = 12
___buf$ = 8						; size = 4
_$initVBases$ = 12					; size = 4
??0?$basic_istream@DV?$char_traits@D@_STL@@@_STL@@QAE@PAV?$basic_streambuf@DV?$char_traits@D@_STL@@@1@@Z PROC NEAR ; _STL::basic_istream<char,_STL::char_traits<char> >::basic_istream<char,_STL::char_traits<char> >, COMDAT
; _this$ = ecx

; 84   :     basic_ios<_CharT, _Traits>(), _M_gcount(0) {

  00000	b8 00 00 00 00	 mov	 eax, __ehhandler$??0?$basic_istream@DV?$char_traits@D@_STL@@@_STL@@QAE@PAV?$basic_streambuf@DV?$char_traits@D@_STL@@@1@@Z
  00005	e8 00 00 00 00	 call	 __EH_prolog
  0000a	51		 push	 ecx
  0000b	51		 push	 ecx
  0000c	83 65 f0 00	 and	 DWORD PTR $T122672[ebp], 0
  00010	83 7d 0c 00	 cmp	 DWORD PTR _$initVBases$[ebp], 0
  00014	56		 push	 esi
  00015	8b f1		 mov	 esi, ecx
  00017	89 75 ec	 mov	 DWORD PTR _this$[ebp], esi
  0001a	74 19		 je	 SHORT $L111971
  0001c	8d 4e 08	 lea	 ecx, DWORD PTR [esi+8]
  0001f	c7 06 00 00 00
	00		 mov	 DWORD PTR [esi], OFFSET FLAT:??_8?$basic_istream@DV?$char_traits@D@_STL@@@_STL@@7B@
  00025	e8 00 00 00 00	 call	 ??0?$basic_ios@DV?$char_traits@D@_STL@@@_STL@@IAE@XZ ; _STL::basic_ios<char,_STL::char_traits<char> >::basic_ios<char,_STL::char_traits<char> >
  0002a	83 65 fc 00	 and	 DWORD PTR __$EHRec$[ebp+8], 0
  0002e	c7 45 f0 01 00
	00 00		 mov	 DWORD PTR $T122672[ebp], 1
$L111971:
  00035	8b 06		 mov	 eax, DWORD PTR [esi]
  00037	8b 40 04	 mov	 eax, DWORD PTR [eax+4]

; 85   :     this->init(__buf);

  0003a	ff 75 08	 push	 DWORD PTR ___buf$[ebp]
  0003d	c7 04 06 00 00
	00 00		 mov	 DWORD PTR [esi+eax], OFFSET FLAT:??_7?$basic_istream@DV?$char_traits@D@_STL@@@_STL@@6B@
  00044	8b 06		 mov	 eax, DWORD PTR [esi]
  00046	83 66 04 00	 and	 DWORD PTR [esi+4], 0
  0004a	8b 48 04	 mov	 ecx, DWORD PTR [eax+4]
  0004d	03 ce		 add	 ecx, esi
  0004f	e8 00 00 00 00	 call	 ?init@?$basic_ios@DV?$char_traits@D@_STL@@@_STL@@IAEXPAV?$basic_streambuf@DV?$char_traits@D@_STL@@@2@@Z ; _STL::basic_ios<char,_STL::char_traits<char> >::init

; 86   :   }

  00054	8b 4d f4	 mov	 ecx, DWORD PTR __$EHRec$[ebp]
  00057	8b c6		 mov	 eax, esi
  00059	5e		 pop	 esi
  0005a	64 89 0d 00 00
	00 00		 mov	 DWORD PTR fs:__except_list, ecx
  00061	c9		 leave
  00062	c2 08 00	 ret	 8
_TEXT	ENDS
;	COMDAT text$x
text$x	SEGMENT
$L122673:
  00000	8b 45 f0	 mov	 eax, DWORD PTR $T122672[ebp]
  00003	83 e0 01	 and	 eax, 1
  00006	0f 84 0f 00 00
	00		 je	 $L122674
  0000c	83 65 f0 fe	 and	 DWORD PTR $T122672[ebp], -2 ; fffffffeH
  00010	8b 4d ec	 mov	 ecx, DWORD PTR _this$[ebp]
  00013	83 c1 08	 add	 ecx, 8
  00016	e9 00 00 00 00	 jmp	 ??1?$basic_ios@DV?$char_traits@D@_STL@@@_STL@@UAE@XZ ; _STL::basic_ios<char,_STL::char_traits<char> >::~basic_ios<char,_STL::char_traits<char> >
$L122674:
  0001b	c3		 ret	 0
__ehhandler$??0?$basic_istream@DV?$char_traits@D@_STL@@@_STL@@QAE@PAV?$basic_streambuf@DV?$char_traits@D@_STL@@@1@@Z:
  0001c	b8 00 00 00 00	 mov	 eax, OFFSET FLAT:$T122676
  00021	e9 00 00 00 00	 jmp	 ___CxxFrameHandler
text$x	ENDS
??0?$basic_istream@DV?$char_traits@D@_STL@@@_STL@@QAE@PAV?$basic_streambuf@DV?$char_traits@D@_STL@@@1@@Z ENDP ; _STL::basic_istream<char,_STL::char_traits<char> >::basic_istream<char,_STL::char_traits<char> >
PUBLIC	??0?$basic_ifstream@DV?$char_traits@D@_STL@@@_STL@@QAE@XZ ; _STL::basic_ifstream<char,_STL::char_traits<char> >::basic_ifstream<char,_STL::char_traits<char> >
PUBLIC	??_8?$basic_ifstream@DV?$char_traits@D@_STL@@@_STL@@7B@ ; _STL::basic_ifstream<char,_STL::char_traits<char> >::`vbtable'
;	COMDAT xdata$x
; File c:\stlport-4.6.1\stlport\stl\_fstream.h
xdata$x	SEGMENT
$T122691 DD	0ffffffffH
	DD	FLAT:$L122684
	DD	00H
	DD	FLAT:$L122686
	DD	01H
	DD	FLAT:$L122687
$T122689 DD	019930520H
	DD	03H
	DD	FLAT:$T122691
	DD	2 DUP(00H)
	DD	2 DUP(00H)
xdata$x	ENDS
;	COMDAT ??_8?$basic_ifstream@DV?$char_traits@D@_STL@@@_STL@@7B@
CONST	SEGMENT
??_8?$basic_ifstream@DV?$char_traits@D@_STL@@@_STL@@7B@ DD 00H ; _STL::basic_ifstream<char,_STL::char_traits<char> >::`vbtable'
	DD	0bcH
; Function compile flags: /Ogsy
CONST	ENDS
;	COMDAT ??0?$basic_ifstream@DV?$char_traits@D@_STL@@@_STL@@QAE@XZ
_TEXT	SEGMENT
_this$ = -20						; size = 4
$T122683 = -16						; size = 4
__$EHRec$ = -12						; size = 12
_$initVBases$ = 8					; size = 4
??0?$basic_ifstream@DV?$char_traits@D@_STL@@@_STL@@QAE@XZ PROC NEAR ; _STL::basic_ifstream<char,_STL::char_traits<char> >::basic_ifstream<char,_STL::char_traits<char> >, COMDAT
; _this$ = ecx

; 514  :     basic_ios<_CharT, _Traits>(),  basic_istream<_CharT, _Traits>(0), _M_buf() {

  00000	b8 00 00 00 00	 mov	 eax, __ehhandler$??0?$basic_ifstream@DV?$char_traits@D@_STL@@@_STL@@QAE@XZ
  00005	e8 00 00 00 00	 call	 __EH_prolog
  0000a	51		 push	 ecx
  0000b	51		 push	 ecx
  0000c	53		 push	 ebx
  0000d	56		 push	 esi
  0000e	57		 push	 edi
  0000f	33 ff		 xor	 edi, edi
  00011	33 db		 xor	 ebx, ebx
  00013	8b f1		 mov	 esi, ecx
  00015	47		 inc	 edi
  00016	39 5d 08	 cmp	 DWORD PTR _$initVBases$[ebp], ebx
  00019	89 75 ec	 mov	 DWORD PTR _this$[ebp], esi
  0001c	89 5d f0	 mov	 DWORD PTR $T122683[ebp], ebx
  0001f	74 17		 je	 SHORT $L111936
  00021	8d 8e bc 00 00
	00		 lea	 ecx, DWORD PTR [esi+188]
  00027	c7 06 00 00 00
	00		 mov	 DWORD PTR [esi], OFFSET FLAT:??_8?$basic_ifstream@DV?$char_traits@D@_STL@@@_STL@@7B@
  0002d	e8 00 00 00 00	 call	 ??0?$basic_ios@DV?$char_traits@D@_STL@@@_STL@@IAE@XZ ; _STL::basic_ios<char,_STL::char_traits<char> >::basic_ios<char,_STL::char_traits<char> >
  00032	89 5d fc	 mov	 DWORD PTR __$EHRec$[ebp+8], ebx
  00035	89 7d f0	 mov	 DWORD PTR $T122683[ebp], edi
$L111936:
  00038	53		 push	 ebx
  00039	53		 push	 ebx
  0003a	8b ce		 mov	 ecx, esi
  0003c	e8 00 00 00 00	 call	 ??0?$basic_istream@DV?$char_traits@D@_STL@@@_STL@@QAE@PAV?$basic_streambuf@DV?$char_traits@D@_STL@@@1@@Z ; _STL::basic_istream<char,_STL::char_traits<char> >::basic_istream<char,_STL::char_traits<char> >
  00041	8b 06		 mov	 eax, DWORD PTR [esi]
  00043	8b 40 04	 mov	 eax, DWORD PTR [eax+4]
  00046	89 7d fc	 mov	 DWORD PTR __$EHRec$[ebp+8], edi
  00049	8d 7e 08	 lea	 edi, DWORD PTR [esi+8]
  0004c	8b cf		 mov	 ecx, edi
  0004e	c7 04 06 00 00
	00 00		 mov	 DWORD PTR [esi+eax], OFFSET FLAT:??_7?$basic_ifstream@DV?$char_traits@D@_STL@@@_STL@@6B@
  00055	e8 00 00 00 00	 call	 ??0?$basic_filebuf@DV?$char_traits@D@_STL@@@_STL@@QAE@XZ ; _STL::basic_filebuf<char,_STL::char_traits<char> >::basic_filebuf<char,_STL::char_traits<char> >

; 515  :       this->init(&_M_buf);

  0005a	8b 06		 mov	 eax, DWORD PTR [esi]
  0005c	8b 48 04	 mov	 ecx, DWORD PTR [eax+4]
  0005f	57		 push	 edi
  00060	03 ce		 add	 ecx, esi
  00062	c6 45 fc 02	 mov	 BYTE PTR __$EHRec$[ebp+8], 2
  00066	e8 00 00 00 00	 call	 ?init@?$basic_ios@DV?$char_traits@D@_STL@@@_STL@@IAEXPAV?$basic_streambuf@DV?$char_traits@D@_STL@@@2@@Z ; _STL::basic_ios<char,_STL::char_traits<char> >::init

; 516  :   }

  0006b	8b 4d f4	 mov	 ecx, DWORD PTR __$EHRec$[ebp]
  0006e	5f		 pop	 edi
  0006f	8b c6		 mov	 eax, esi
  00071	5e		 pop	 esi
  00072	5b		 pop	 ebx
  00073	64 89 0d 00 00
	00 00		 mov	 DWORD PTR fs:__except_list, ecx
  0007a	c9		 leave
  0007b	c2 04 00	 ret	 4
_TEXT	ENDS
;	COMDAT text$x
text$x	SEGMENT
$L122684:
  00000	8b 45 f0	 mov	 eax, DWORD PTR $T122683[ebp]
  00003	83 e0 01	 and	 eax, 1
  00006	0f 84 12 00 00
	00		 je	 $L122685
  0000c	83 65 f0 fe	 and	 DWORD PTR $T122683[ebp], -2 ; fffffffeH
  00010	8b 4d ec	 mov	 ecx, DWORD PTR _this$[ebp]
  00013	81 c1 bc 00 00
	00		 add	 ecx, 188		; 000000bcH
  00019	e9 00 00 00 00	 jmp	 ??1?$basic_ios@DV?$char_traits@D@_STL@@@_STL@@UAE@XZ ; _STL::basic_ios<char,_STL::char_traits<char> >::~basic_ios<char,_STL::char_traits<char> >
$L122685:
  0001e	c3		 ret	 0
$L122686:
  0001f	8b 4d ec	 mov	 ecx, DWORD PTR _this$[ebp]
  00022	83 c1 08	 add	 ecx, 8
  00025	e9 00 00 00 00	 jmp	 ??1?$basic_istream@DV?$char_traits@D@_STL@@@_STL@@UAE@XZ ; _STL::basic_istream<char,_STL::char_traits<char> >::~basic_istream<char,_STL::char_traits<char> >
$L122687:
  0002a	8b 4d ec	 mov	 ecx, DWORD PTR _this$[ebp]
  0002d	83 c1 08	 add	 ecx, 8
  00030	e9 00 00 00 00	 jmp	 ??1?$basic_filebuf@DV?$char_traits@D@_STL@@@_STL@@UAE@XZ ; _STL::basic_filebuf<char,_STL::char_traits<char> >::~basic_filebuf<char,_STL::char_traits<char> >
__ehhandler$??0?$basic_ifstream@DV?$char_traits@D@_STL@@@_STL@@QAE@XZ:
  00035	b8 00 00 00 00	 mov	 eax, OFFSET FLAT:$T122689
  0003a	e9 00 00 00 00	 jmp	 ___CxxFrameHandler
text$x	ENDS
??0?$basic_ifstream@DV?$char_traits@D@_STL@@@_STL@@QAE@XZ ENDP ; _STL::basic_ifstream<char,_STL::char_traits<char> >::basic_ifstream<char,_STL::char_traits<char> >
PUBLIC	??_C@_03KLNPHJAI@?$CFsi?$AA@			; `string'
PUBLIC	??0?$basic_ofstream@DV?$char_traits@D@_STL@@@_STL@@QAE@PBDH@Z ; _STL::basic_ofstream<char,_STL::char_traits<char> >::basic_ofstream<char,_STL::char_traits<char> >
PUBLIC	?close@?$basic_ofstream@DV?$char_traits@D@_STL@@@_STL@@QAEXXZ ; _STL::basic_ofstream<char,_STL::char_traits<char> >::close
PUBLIC	??_D?$basic_ofstream@DV?$char_traits@D@_STL@@@_STL@@QAEXXZ ; _STL::basic_ofstream<char,_STL::char_traits<char> >::`vbase destructor'
;	COMDAT xdata$x
; File c:\stlport-4.6.1\stlport\stl\_ios.h
xdata$x	SEGMENT
$T122758 DD	0ffffffffH
	DD	FLAT:$L122698
	DD	00H
	DD	FLAT:$L122699
$T122755 DD	019930520H
	DD	02H
	DD	FLAT:$T122758
	DD	2 DUP(00H)
	DD	2 DUP(00H)
xdata$x	ENDS
;	COMDAT ??_C@_03KLNPHJAI@?$CFsi?$AA@
CONST	SEGMENT
??_C@_03KLNPHJAI@?$CFsi?$AA@ DB '%si', 00H		; `string'
; Function compile flags: /Ogsy
; File c:\darkeden\designed_common\project\client\spritelib\ctypepack.h
CONST	ENDS
;	COMDAT ?SaveToFile@?$CTypePack@VCShadowSprite@@@@UAE_NPBD@Z
_TEXT	SEGMENT
_szIndexFilename$ = -1088				; size = 512
_indexFile$ = -576					; size = 280
_dataFile$ = -296					; size = 280
__$ArrayPad$ = -16					; size = 4
__$EHRec$ = -12						; size = 12
__$ReturnAddr$ = 4					; size = 4
_lpszFilename$ = 8					; size = 4
?SaveToFile@?$CTypePack@VCShadowSprite@@@@UAE_NPBD@Z PROC NEAR ; CTypePack<CShadowSprite>::SaveToFile, COMDAT
; _this$ = ecx

; 297  : {

  00000	b8 00 00 00 00	 mov	 eax, __ehhandler$?SaveToFile@?$CTypePack@VCShadowSprite@@@@UAE_NPBD@Z
  00005	e8 00 00 00 00	 call	 __EH_prolog
  0000a	81 ec 34 04 00
	00		 sub	 esp, 1076		; 00000434H
  00010	a1 00 00 00 00	 mov	 eax, DWORD PTR ___security_cookie
  00015	53		 push	 ebx
  00016	56		 push	 esi

; 298  : 	char szIndexFilename[512];
; 299  : 	sprintf(szIndexFilename, "%si", lpszFilename);

  00017	ff 75 08	 push	 DWORD PTR _lpszFilename$[ebp]
  0001a	89 45 f0	 mov	 DWORD PTR __$ArrayPad$[ebp], eax
  0001d	8d 85 c0 fb ff
	ff		 lea	 eax, DWORD PTR _szIndexFilename$[ebp]
  00023	68 00 00 00 00	 push	 OFFSET FLAT:??_C@_03KLNPHJAI@?$CFsi?$AA@
  00028	50		 push	 eax
  00029	8b f1		 mov	 esi, ecx
  0002b	e8 00 00 00 00	 call	 _sprintf
  00030	83 c4 0c	 add	 esp, 12			; 0000000cH

; 300  : 
; 301  : 	std::ofstream dataFile(lpszFilename, std::ios::binary);

  00033	6a 01		 push	 1
  00035	6a 04		 push	 4
  00037	ff 75 08	 push	 DWORD PTR _lpszFilename$[ebp]
  0003a	8d 8d d8 fe ff
	ff		 lea	 ecx, DWORD PTR _dataFile$[ebp]
  00040	e8 00 00 00 00	 call	 ??0?$basic_ofstream@DV?$char_traits@D@_STL@@@_STL@@QAE@PBDH@Z ; _STL::basic_ofstream<char,_STL::char_traits<char> >::basic_ofstream<char,_STL::char_traits<char> >
  00045	83 65 fc 00	 and	 DWORD PTR __$EHRec$[ebp+8], 0

; 302  : 	std::ofstream indexFile(szIndexFilename, std::ios::binary);

  00049	6a 01		 push	 1
  0004b	6a 04		 push	 4
  0004d	8d 85 c0 fb ff
	ff		 lea	 eax, DWORD PTR _szIndexFilename$[ebp]
  00053	50		 push	 eax
  00054	8d 8d c0 fd ff
	ff		 lea	 ecx, DWORD PTR _indexFile$[ebp]
  0005a	e8 00 00 00 00	 call	 ??0?$basic_ofstream@DV?$char_traits@D@_STL@@@_STL@@QAE@PBDH@Z ; _STL::basic_ofstream<char,_STL::char_traits<char> >::basic_ofstream<char,_STL::char_traits<char> >

; 303  : 
; 304  : 	bool re = SaveToFile(dataFile, indexFile);

  0005f	8b 06		 mov	 eax, DWORD PTR [esi]
  00061	8d 8d c0 fd ff
	ff		 lea	 ecx, DWORD PTR _indexFile$[ebp]
  00067	51		 push	 ecx
  00068	8d 8d d8 fe ff
	ff		 lea	 ecx, DWORD PTR _dataFile$[ebp]
  0006e	51		 push	 ecx
  0006f	8b ce		 mov	 ecx, esi
  00071	c6 45 fc 01	 mov	 BYTE PTR __$EHRec$[ebp+8], 1
  00075	ff 50 14	 call	 DWORD PTR [eax+20]

; 305  : 
; 306  : 	dataFile.close();

  00078	8d 8d d8 fe ff
	ff		 lea	 ecx, DWORD PTR _dataFile$[ebp]
  0007e	8a d8		 mov	 bl, al
  00080	e8 00 00 00 00	 call	 ?close@?$basic_ofstream@DV?$char_traits@D@_STL@@@_STL@@QAEXXZ ; _STL::basic_ofstream<char,_STL::char_traits<char> >::close

; 307  : 	indexFile.close();

  00085	8d 8d c0 fd ff
	ff		 lea	 ecx, DWORD PTR _indexFile$[ebp]
  0008b	e8 00 00 00 00	 call	 ?close@?$basic_ofstream@DV?$char_traits@D@_STL@@@_STL@@QAEXXZ ; _STL::basic_ofstream<char,_STL::char_traits<char> >::close

; 308  : 
; 309  : 	return re;

  00090	8d 8d c0 fd ff
	ff		 lea	 ecx, DWORD PTR _indexFile$[ebp]
  00096	c6 45 fc 00	 mov	 BYTE PTR __$EHRec$[ebp+8], 0
  0009a	e8 00 00 00 00	 call	 ??_D?$basic_ofstream@DV?$char_traits@D@_STL@@@_STL@@QAEXXZ
  0009f	83 4d fc ff	 or	 DWORD PTR __$EHRec$[ebp+8], -1
  000a3	8d 8d d8 fe ff
	ff		 lea	 ecx, DWORD PTR _dataFile$[ebp]
  000a9	e8 00 00 00 00	 call	 ??_D?$basic_ofstream@DV?$char_traits@D@_STL@@@_STL@@QAEXXZ

; 310  : }

  000ae	8b 4d f4	 mov	 ecx, DWORD PTR __$EHRec$[ebp]
  000b1	5e		 pop	 esi
  000b2	64 89 0d 00 00
	00 00		 mov	 DWORD PTR fs:__except_list, ecx
  000b9	8b 4d f0	 mov	 ecx, DWORD PTR __$ArrayPad$[ebp]
  000bc	8a c3		 mov	 al, bl
  000be	5b		 pop	 ebx
  000bf	e8 00 00 00 00	 call	 @__security_check_cookie@4
  000c4	c9		 leave
  000c5	c2 04 00	 ret	 4
_TEXT	ENDS
;	COMDAT text$x
text$x	SEGMENT
$L122698:
  00000	8d 8d d8 fe ff
	ff		 lea	 ecx, DWORD PTR _dataFile$[ebp]
  00006	e9 00 00 00 00	 jmp	 ??_D?$basic_ofstream@DV?$char_traits@D@_STL@@@_STL@@QAEXXZ
$L122699:
  0000b	8d 8d c0 fd ff
	ff		 lea	 ecx, DWORD PTR _indexFile$[ebp]
  00011	e9 00 00 00 00	 jmp	 ??_D?$basic_ofstream@DV?$char_traits@D@_STL@@@_STL@@QAEXXZ
__ehhandler$?SaveToFile@?$CTypePack@VCShadowSprite@@@@UAE_NPBD@Z:
  00016	b8 00 00 00 00	 mov	 eax, OFFSET FLAT:$T122755
  0001b	e9 00 00 00 00	 jmp	 ___CxxFrameHandler
text$x	ENDS
?SaveToFile@?$CTypePack@VCShadowSprite@@@@UAE_NPBD@Z ENDP ; CTypePack<CShadowSprite>::SaveToFile
; Function compile flags: /Ogsy
; File c:\stlport-4.6.1\stlport\stl\_fstream.h
;	COMDAT ?close@?$basic_ofstream@DV?$char_traits@D@_STL@@@_STL@@QAEXXZ
_TEXT	SEGMENT
?close@?$basic_ofstream@DV?$char_traits@D@_STL@@@_STL@@QAEXXZ PROC NEAR ; _STL::basic_ofstream<char,_STL::char_traits<char> >::close, COMDAT
; _this$ = ecx

; 631  :   void close() {

  00000	56		 push	 esi
  00001	8b f1		 mov	 esi, ecx

; 632  :     if (!this->rdbuf()->close())

  00003	8d 4e 04	 lea	 ecx, DWORD PTR [esi+4]
  00006	e8 00 00 00 00	 call	 ?close@?$basic_filebuf@DV?$char_traits@D@_STL@@@_STL@@QAEPAV12@XZ ; _STL::basic_filebuf<char,_STL::char_traits<char> >::close
  0000b	85 c0		 test	 eax, eax
  0000d	75 13		 jne	 SHORT $L122771

; 633  :       this->setstate(ios_base::failbit);

  0000f	8b 06		 mov	 eax, DWORD PTR [esi]
  00011	8b 48 04	 mov	 ecx, DWORD PTR [eax+4]
  00014	03 ce		 add	 ecx, esi
  00016	8b 41 08	 mov	 eax, DWORD PTR [ecx+8]
  00019	83 c8 04	 or	 eax, 4
  0001c	50		 push	 eax
  0001d	e8 00 00 00 00	 call	 ?clear@?$basic_ios@DV?$char_traits@D@_STL@@@_STL@@QAEXH@Z ; _STL::basic_ios<char,_STL::char_traits<char> >::clear
$L122771:
  00022	5e		 pop	 esi

; 634  :   }

  00023	c3		 ret	 0
?close@?$basic_ofstream@DV?$char_traits@D@_STL@@@_STL@@QAEXXZ ENDP ; _STL::basic_ofstream<char,_STL::char_traits<char> >::close
_TEXT	ENDS
PUBLIC	??1?$basic_ofstream@DV?$char_traits@D@_STL@@@_STL@@UAE@XZ ; _STL::basic_ofstream<char,_STL::char_traits<char> >::~basic_ofstream<char,_STL::char_traits<char> >
; Function compile flags: /Ogsy
;	COMDAT ??_D?$basic_ofstream@DV?$char_traits@D@_STL@@@_STL@@QAEXXZ
_TEXT	SEGMENT
??_D?$basic_ofstream@DV?$char_traits@D@_STL@@@_STL@@QAEXXZ PROC NEAR ; _STL::basic_ofstream<char,_STL::char_traits<char> >::`vbase destructor', COMDAT
; _this$ = ecx
  00000	56		 push	 esi
  00001	8d b1 b8 00 00
	00		 lea	 esi, DWORD PTR [ecx+184]
  00007	8b ce		 mov	 ecx, esi
  00009	e8 00 00 00 00	 call	 ??1?$basic_ofstream@DV?$char_traits@D@_STL@@@_STL@@UAE@XZ ; _STL::basic_ofstream<char,_STL::char_traits<char> >::~basic_ofstream<char,_STL::char_traits<char> >
  0000e	8b ce		 mov	 ecx, esi
  00010	5e		 pop	 esi
  00011	e9 00 00 00 00	 jmp	 ??1?$basic_ios@DV?$char_traits@D@_STL@@@_STL@@UAE@XZ ; _STL::basic_ios<char,_STL::char_traits<char> >::~basic_ios<char,_STL::char_traits<char> >
??_D?$basic_ofstream@DV?$char_traits@D@_STL@@@_STL@@QAEXXZ ENDP ; _STL::basic_ofstream<char,_STL::char_traits<char> >::`vbase destructor'
_TEXT	ENDS
PUBLIC	??1?$basic_ostream@DV?$char_traits@D@_STL@@@_STL@@UAE@XZ ; _STL::basic_ostream<char,_STL::char_traits<char> >::~basic_ostream<char,_STL::char_traits<char> >
PUBLIC	??_7?$basic_ostream@DV?$char_traits@D@_STL@@@_STL@@6B@ ; _STL::basic_ostream<char,_STL::char_traits<char> >::`vftable'
PUBLIC	??_G?$basic_ostream@DV?$char_traits@D@_STL@@@_STL@@UAEPAXI@Z ; _STL::basic_ostream<char,_STL::char_traits<char> >::`scalar deleting destructor'
PUBLIC	??_R4?$basic_ostream@DV?$char_traits@D@_STL@@@_STL@@6B@ ; _STL::basic_ostream<char,_STL::char_traits<char> >::`RTTI Complete Object Locator'
PUBLIC	??_R0?AV?$basic_ostream@DV?$char_traits@D@_STL@@@_STL@@@8 ; _STL::basic_ostream<char,_STL::char_traits<char> > `RTTI Type Descriptor'
PUBLIC	??_R3?$basic_ostream@DV?$char_traits@D@_STL@@@_STL@@8 ; _STL::basic_ostream<char,_STL::char_traits<char> >::`RTTI Class Hierarchy Descriptor'
PUBLIC	??_R2?$basic_ostream@DV?$char_traits@D@_STL@@@_STL@@8 ; _STL::basic_ostream<char,_STL::char_traits<char> >::`RTTI Base Class Array'
PUBLIC	??_R1A@?0A@A@?$basic_ostream@DV?$char_traits@D@_STL@@@_STL@@8 ; _STL::basic_ostream<char,_STL::char_traits<char> >::`RTTI Base Class Descriptor at (0,-1,0,0)'
PUBLIC	??_R4?$basic_ofstream@DV?$char_traits@D@_STL@@@_STL@@6B@ ; _STL::basic_ofstream<char,_STL::char_traits<char> >::`RTTI Complete Object Locator'
PUBLIC	??_R0?AV?$basic_ofstream@DV?$char_traits@D@_STL@@@_STL@@@8 ; _STL::basic_ofstream<char,_STL::char_traits<char> > `RTTI Type Descriptor'
PUBLIC	??_R3?$basic_ofstream@DV?$char_traits@D@_STL@@@_STL@@8 ; _STL::basic_ofstream<char,_STL::char_traits<char> >::`RTTI Class Hierarchy Descriptor'
PUBLIC	??_R2?$basic_ofstream@DV?$char_traits@D@_STL@@@_STL@@8 ; _STL::basic_ofstream<char,_STL::char_traits<char> >::`RTTI Base Class Array'
PUBLIC	??_R1A@?0A@A@?$basic_ofstream@DV?$char_traits@D@_STL@@@_STL@@8 ; _STL::basic_ofstream<char,_STL::char_traits<char> >::`RTTI Base Class Descriptor at (0,-1,0,0)'
PUBLIC	??_7?$basic_ofstream@DV?$char_traits@D@_STL@@@_STL@@6B@ ; _STL::basic_ofstream<char,_STL::char_traits<char> >::`vftable'
PUBLIC	??_G?$basic_ofstream@DV?$char_traits@D@_STL@@@_STL@@UAEPAXI@Z ; _STL::basic_ofstream<char,_STL::char_traits<char> >::`scalar deleting destructor'
EXTRN	??_E?$basic_ostream@DV?$char_traits@D@_STL@@@_STL@@UAEPAXI@Z:NEAR ; _STL::basic_ostream<char,_STL::char_traits<char> >::`vector deleting destructor'
EXTRN	??_E?$basic_ofstream@DV?$char_traits@D@_STL@@@_STL@@UAEPAXI@Z:NEAR ; _STL::basic_ofstream<char,_STL::char_traits<char> >::`vector deleting destructor'
;	COMDAT xdata$x
; File c:\stlport-4.6.1\stlport\stl\_ostream.c
xdata$x	SEGMENT
$T122792 DD	0ffffffffH
	DD	FLAT:$L122783
$T122790 DD	019930520H
	DD	01H
	DD	FLAT:$T122792
	DD	2 DUP(00H)
	DD	2 DUP(00H)
xdata$x	ENDS
;	COMDAT ??_7?$basic_ofstream@DV?$char_traits@D@_STL@@@_STL@@6B@
CONST	SEGMENT
??_7?$basic_ofstream@DV?$char_traits@D@_STL@@@_STL@@6B@ DD FLAT:??_R4?$basic_ofstream@DV?$char_traits@D@_STL@@@_STL@@6B@ ; _STL::basic_ofstream<char,_STL::char_traits<char> >::`vftable'
	DD	FLAT:??_E?$basic_ofstream@DV?$char_traits@D@_STL@@@_STL@@UAEPAXI@Z
CONST	ENDS
;	COMDAT ??_7?$basic_ostream@DV?$char_traits@D@_STL@@@_STL@@6B@
CONST	SEGMENT
??_7?$basic_ostream@DV?$char_traits@D@_STL@@@_STL@@6B@ DD FLAT:??_R4?$basic_ostream@DV?$char_traits@D@_STL@@@_STL@@6B@ ; _STL::basic_ostream<char,_STL::char_traits<char> >::`vftable'
	DD	FLAT:??_E?$basic_ostream@DV?$char_traits@D@_STL@@@_STL@@UAEPAXI@Z
CONST	ENDS
;	COMDAT ??_R4?$basic_ofstream@DV?$char_traits@D@_STL@@@_STL@@6B@
rdata$r	SEGMENT
??_R4?$basic_ofstream@DV?$char_traits@D@_STL@@@_STL@@6B@ DD 00H ; _STL::basic_ofstream<char,_STL::char_traits<char> >::`RTTI Complete Object Locator'
	DD	0b8H
	DD	00H
	DD	FLAT:??_R0?AV?$basic_ofstream@DV?$char_traits@D@_STL@@@_STL@@@8
	DD	FLAT:??_R3?$basic_ofstream@DV?$char_traits@D@_STL@@@_STL@@8
rdata$r	ENDS
;	COMDAT ??_R0?AV?$basic_ofstream@DV?$char_traits@D@_STL@@@_STL@@@8
_DATA	SEGMENT
??_R0?AV?$basic_ofstream@DV?$char_traits@D@_STL@@@_STL@@@8 DD FLAT:??_7type_info@@6B@ ; _STL::basic_ofstream<char,_STL::char_traits<char> > `RTTI Type Descriptor'
	DD	00H
	DB	'.?AV?$basic_ofstream@DV?$char_traits@D@_STL@@@_STL@@', 00H
_DATA	ENDS
;	COMDAT ??_R3?$basic_ofstream@DV?$char_traits@D@_STL@@@_STL@@8
rdata$r	SEGMENT
??_R3?$basic_ofstream@DV?$char_traits@D@_STL@@@_STL@@8 DD 00H ; _STL::basic_ofstream<char,_STL::char_traits<char> >::`RTTI Class Hierarchy Descriptor'
	DD	00H
	DD	04H
	DD	FLAT:??_R2?$basic_ofstream@DV?$char_traits@D@_STL@@@_STL@@8
rdata$r	ENDS
;	COMDAT ??_R2?$basic_ofstream@DV?$char_traits@D@_STL@@@_STL@@8
rdata$r	SEGMENT
??_R2?$basic_ofstream@DV?$char_traits@D@_STL@@@_STL@@8 DD FLAT:??_R1A@?0A@A@?$basic_ofstream@DV?$char_traits@D@_STL@@@_STL@@8 ; _STL::basic_ofstream<char,_STL::char_traits<char> >::`RTTI Base Class Array'
	DD	FLAT:??_R1A@?0A@A@?$basic_ostream@DV?$char_traits@D@_STL@@@_STL@@8
	DD	FLAT:??_R1A@A@3BA@?$basic_ios@DV?$char_traits@D@_STL@@@_STL@@8
	DD	FLAT:??_R1A@A@3A@ios_base@_STL@@8
rdata$r	ENDS
;	COMDAT ??_R1A@?0A@A@?$basic_ofstream@DV?$char_traits@D@_STL@@@_STL@@8
rdata$r	SEGMENT
??_R1A@?0A@A@?$basic_ofstream@DV?$char_traits@D@_STL@@@_STL@@8 DD FLAT:??_R0?AV?$basic_ofstream@DV?$char_traits@D@_STL@@@_STL@@@8 ; _STL::basic_ofstream<char,_STL::char_traits<char> >::`RTTI Base Class Descriptor at (0,-1,0,0)'
	DD	03H
	DD	00H
	DD	0ffffffffH
	DD	00H
	DD	00H
rdata$r	ENDS
;	COMDAT ??_R1A@?0A@A@?$basic_ostream@DV?$char_traits@D@_STL@@@_STL@@8
rdata$r	SEGMENT
??_R1A@?0A@A@?$basic_ostream@DV?$char_traits@D@_STL@@@_STL@@8 DD FLAT:??_R0?AV?$basic_ostream@DV?$char_traits@D@_STL@@@_STL@@@8 ; _STL::basic_ostream<char,_STL::char_traits<char> >::`RTTI Base Class Descriptor at (0,-1,0,0)'
	DD	02H
	DD	00H
	DD	0ffffffffH
	DD	00H
	DD	00H
rdata$r	ENDS
;	COMDAT ??_R0?AV?$basic_ostream@DV?$char_traits@D@_STL@@@_STL@@@8
_DATA	SEGMENT
??_R0?AV?$basic_ostream@DV?$char_traits@D@_STL@@@_STL@@@8 DD FLAT:??_7type_info@@6B@ ; _STL::basic_ostream<char,_STL::char_traits<char> > `RTTI Type Descriptor'
	DD	00H
	DB	'.?AV?$basic_ostream@DV?$char_traits@D@_STL@@@_STL@@', 00H
_DATA	ENDS
;	COMDAT ??_R4?$basic_ostream@DV?$char_traits@D@_STL@@@_STL@@6B@
rdata$r	SEGMENT
??_R4?$basic_ostream@DV?$char_traits@D@_STL@@@_STL@@6B@ DD 00H ; _STL::basic_ostream<char,_STL::char_traits<char> >::`RTTI Complete Object Locator'
	DD	04H
	DD	00H
	DD	FLAT:??_R0?AV?$basic_ostream@DV?$char_traits@D@_STL@@@_STL@@@8
	DD	FLAT:??_R3?$basic_ostream@DV?$char_traits@D@_STL@@@_STL@@8
rdata$r	ENDS
;	COMDAT ??_R3?$basic_ostream@DV?$char_traits@D@_STL@@@_STL@@8
rdata$r	SEGMENT
??_R3?$basic_ostream@DV?$char_traits@D@_STL@@@_STL@@8 DD 00H ; _STL::basic_ostream<char,_STL::char_traits<char> >::`RTTI Class Hierarchy Descriptor'
	DD	00H
	DD	03H
	DD	FLAT:??_R2?$basic_ostream@DV?$char_traits@D@_STL@@@_STL@@8
rdata$r	ENDS
;	COMDAT ??_R2?$basic_ostream@DV?$char_traits@D@_STL@@@_STL@@8
rdata$r	SEGMENT
??_R2?$basic_ostream@DV?$char_traits@D@_STL@@@_STL@@8 DD FLAT:??_R1A@?0A@A@?$basic_ostream@DV?$char_traits@D@_STL@@@_STL@@8 ; _STL::basic_ostream<char,_STL::char_traits<char> >::`RTTI Base Class Array'
	DD	FLAT:??_R1A@A@3BA@?$basic_ios@DV?$char_traits@D@_STL@@@_STL@@8
	DD	FLAT:??_R1A@A@3A@ios_base@_STL@@8
; Function compile flags: /Ogsy
; File c:\stlport-4.6.1\stlport\stl\_fstream.h
rdata$r	ENDS
;	COMDAT ??1?$basic_ofstream@DV?$char_traits@D@_STL@@@_STL@@UAE@XZ
_TEXT	SEGMENT
_this$ = -16						; size = 4
__$EHRec$ = -12						; size = 12
??1?$basic_ofstream@DV?$char_traits@D@_STL@@@_STL@@UAE@XZ PROC NEAR ; _STL::basic_ofstream<char,_STL::char_traits<char> >::~basic_ofstream<char,_STL::char_traits<char> >, COMDAT
; _this$ = ecx

; 616  :   ~basic_ofstream() {}

  00000	b8 00 00 00 00	 mov	 eax, __ehhandler$??1?$basic_ofstream@DV?$char_traits@D@_STL@@@_STL@@UAE@XZ
  00005	e8 00 00 00 00	 call	 __EH_prolog
  0000a	51		 push	 ecx
  0000b	8b 81 48 ff ff
	ff		 mov	 eax, DWORD PTR [ecx-184]
  00011	8b 40 04	 mov	 eax, DWORD PTR [eax+4]
  00014	56		 push	 esi
  00015	89 4d f0	 mov	 DWORD PTR _this$[ebp], ecx
  00018	c7 84 08 48 ff
	ff ff 00 00 00
	00		 mov	 DWORD PTR [eax+ecx-184], OFFSET FLAT:??_7?$basic_ofstream@DV?$char_traits@D@_STL@@@_STL@@6B@
  00023	83 65 fc 00	 and	 DWORD PTR __$EHRec$[ebp+8], 0
  00027	8d b1 4c ff ff
	ff		 lea	 esi, DWORD PTR [ecx-180]
  0002d	8b ce		 mov	 ecx, esi
  0002f	e8 00 00 00 00	 call	 ??1?$basic_filebuf@DV?$char_traits@D@_STL@@@_STL@@UAE@XZ ; _STL::basic_filebuf<char,_STL::char_traits<char> >::~basic_filebuf<char,_STL::char_traits<char> >
  00034	8b 46 fc	 mov	 eax, DWORD PTR [esi-4]
  00037	8b 40 04	 mov	 eax, DWORD PTR [eax+4]
  0003a	8b 4d f4	 mov	 ecx, DWORD PTR __$EHRec$[ebp]
  0003d	c7 44 30 fc 00
	00 00 00	 mov	 DWORD PTR [eax+esi-4], OFFSET FLAT:??_7?$basic_ostream@DV?$char_traits@D@_STL@@@_STL@@6B@
  00045	5e		 pop	 esi
  00046	64 89 0d 00 00
	00 00		 mov	 DWORD PTR fs:__except_list, ecx
  0004d	c9		 leave
  0004e	c3		 ret	 0
_TEXT	ENDS
;	COMDAT text$x
text$x	SEGMENT
$L122783:
  00000	8b 4d f0	 mov	 ecx, DWORD PTR _this$[ebp]
  00003	81 e9 b4 00 00
	00		 sub	 ecx, 180		; 000000b4H
  00009	e9 00 00 00 00	 jmp	 ??1?$basic_ostream@DV?$char_traits@D@_STL@@@_STL@@UAE@XZ ; _STL::basic_ostream<char,_STL::char_traits<char> >::~basic_ostream<char,_STL::char_traits<char> >
__ehhandler$??1?$basic_ofstream@DV?$char_traits@D@_STL@@@_STL@@UAE@XZ:
  0000e	b8 00 00 00 00	 mov	 eax, OFFSET FLAT:$T122790
  00013	e9 00 00 00 00	 jmp	 ___CxxFrameHandler
text$x	ENDS
??1?$basic_ofstream@DV?$char_traits@D@_STL@@@_STL@@UAE@XZ ENDP ; _STL::basic_ofstream<char,_STL::char_traits<char> >::~basic_ofstream<char,_STL::char_traits<char> >
; Function compile flags: /Ogsy
; File c:\stlport-4.6.1\stlport\stl\_ostream.c
;	COMDAT ??1?$basic_ostream@DV?$char_traits@D@_STL@@@_STL@@UAE@XZ
_TEXT	SEGMENT
??1?$basic_ostream@DV?$char_traits@D@_STL@@@_STL@@UAE@XZ PROC NEAR ; _STL::basic_ostream<char,_STL::char_traits<char> >::~basic_ostream<char,_STL::char_traits<char> >, COMDAT
; _this$ = ecx

; 64   : {}

  00000	8b 41 fc	 mov	 eax, DWORD PTR [ecx-4]
  00003	8b 40 04	 mov	 eax, DWORD PTR [eax+4]
  00006	c7 44 08 fc 00
	00 00 00	 mov	 DWORD PTR [eax+ecx-4], OFFSET FLAT:??_7?$basic_ostream@DV?$char_traits@D@_STL@@@_STL@@6B@
  0000e	c3		 ret	 0
??1?$basic_ostream@DV?$char_traits@D@_STL@@@_STL@@UAE@XZ ENDP ; _STL::basic_ostream<char,_STL::char_traits<char> >::~basic_ostream<char,_STL::char_traits<char> >
_TEXT	ENDS
PUBLIC	??_D?$basic_ostream@DV?$char_traits@D@_STL@@@_STL@@QAEXXZ ; _STL::basic_ostream<char,_STL::char_traits<char> >::`vbase destructor'
; Function compile flags: /Ogsy
;	COMDAT ??_G?$basic_ostream@DV?$char_traits@D@_STL@@@_STL@@UAEPAXI@Z
_TEXT	SEGMENT
___flags$ = 8						; size = 4
??_G?$basic_ostream@DV?$char_traits@D@_STL@@@_STL@@UAEPAXI@Z PROC NEAR ; _STL::basic_ostream<char,_STL::char_traits<char> >::`scalar deleting destructor', COMDAT
; _this$ = ecx
  00000	56		 push	 esi
  00001	8d 71 fc	 lea	 esi, DWORD PTR [ecx-4]
  00004	8b ce		 mov	 ecx, esi
  00006	e8 00 00 00 00	 call	 ??_D?$basic_ostream@DV?$char_traits@D@_STL@@@_STL@@QAEXXZ
  0000b	f6 44 24 08 01	 test	 BYTE PTR ___flags$[esp], 1
  00010	74 07		 je	 SHORT $L99014
  00012	56		 push	 esi
  00013	e8 00 00 00 00	 call	 ??3@YAXPAX@Z		; operator delete
  00018	59		 pop	 ecx
$L99014:
  00019	8b c6		 mov	 eax, esi
  0001b	5e		 pop	 esi
  0001c	c2 04 00	 ret	 4
??_G?$basic_ostream@DV?$char_traits@D@_STL@@@_STL@@UAEPAXI@Z ENDP ; _STL::basic_ostream<char,_STL::char_traits<char> >::`scalar deleting destructor'
; Function compile flags: /Ogsy
_TEXT	ENDS
;	COMDAT ??_D?$basic_ostream@DV?$char_traits@D@_STL@@@_STL@@QAEXXZ
_TEXT	SEGMENT
??_D?$basic_ostream@DV?$char_traits@D@_STL@@@_STL@@QAEXXZ PROC NEAR ; _STL::basic_ostream<char,_STL::char_traits<char> >::`vbase destructor', COMDAT
; _this$ = ecx
  00000	8b 01		 mov	 eax, DWORD PTR [ecx]
  00002	8b 40 04	 mov	 eax, DWORD PTR [eax+4]
  00005	83 c1 04	 add	 ecx, 4
  00008	c7 44 08 fc 00
	00 00 00	 mov	 DWORD PTR [eax+ecx-4], OFFSET FLAT:??_7?$basic_ostream@DV?$char_traits@D@_STL@@@_STL@@6B@
  00010	e9 00 00 00 00	 jmp	 ??1?$basic_ios@DV?$char_traits@D@_STL@@@_STL@@UAE@XZ ; _STL::basic_ios<char,_STL::char_traits<char> >::~basic_ios<char,_STL::char_traits<char> >
??_D?$basic_ostream@DV?$char_traits@D@_STL@@@_STL@@QAEXXZ ENDP ; _STL::basic_ostream<char,_STL::char_traits<char> >::`vbase destructor'
; Function compile flags: /Ogsy
_TEXT	ENDS
;	COMDAT ??_G?$basic_ofstream@DV?$char_traits@D@_STL@@@_STL@@UAEPAXI@Z
_TEXT	SEGMENT
___flags$ = 8						; size = 4
??_G?$basic_ofstream@DV?$char_traits@D@_STL@@@_STL@@UAEPAXI@Z PROC NEAR ; _STL::basic_ofstream<char,_STL::char_traits<char> >::`scalar deleting destructor', COMDAT
; _this$ = ecx
  00000	56		 push	 esi
  00001	8d b1 48 ff ff
	ff		 lea	 esi, DWORD PTR [ecx-184]
  00007	8b ce		 mov	 ecx, esi
  00009	e8 00 00 00 00	 call	 ??_D?$basic_ofstream@DV?$char_traits@D@_STL@@@_STL@@QAEXXZ
  0000e	f6 44 24 08 01	 test	 BYTE PTR ___flags$[esp], 1
  00013	74 07		 je	 SHORT $L113473
  00015	56		 push	 esi
  00016	e8 00 00 00 00	 call	 ??3@YAXPAX@Z		; operator delete
  0001b	59		 pop	 ecx
$L113473:
  0001c	8b c6		 mov	 eax, esi
  0001e	5e		 pop	 esi
  0001f	c2 04 00	 ret	 4
??_G?$basic_ofstream@DV?$char_traits@D@_STL@@@_STL@@UAEPAXI@Z ENDP ; _STL::basic_ofstream<char,_STL::char_traits<char> >::`scalar deleting destructor'
_TEXT	ENDS
PUBLIC	??0?$basic_ostream@DV?$char_traits@D@_STL@@@_STL@@QAE@PAV?$basic_streambuf@DV?$char_traits@D@_STL@@@1@@Z ; _STL::basic_ostream<char,_STL::char_traits<char> >::basic_ostream<char,_STL::char_traits<char> >
PUBLIC	??_8?$basic_ofstream@DV?$char_traits@D@_STL@@@_STL@@7B@ ; _STL::basic_ofstream<char,_STL::char_traits<char> >::`vbtable'
EXTRN	?_M_open@_Filebuf_base@_STL@@QAE_NPBDH@Z:NEAR	; _STL::_Filebuf_base::_M_open
;	COMDAT xdata$x
; File c:\stlport-4.6.1\stlport\stl\_ios_base.h
xdata$x	SEGMENT
$T122843 DD	0ffffffffH
	DD	FLAT:$L122819
	DD	00H
	DD	FLAT:$L122821
	DD	01H
	DD	FLAT:$L122822
$T122841 DD	019930520H
	DD	03H
	DD	FLAT:$T122843
	DD	2 DUP(00H)
	DD	2 DUP(00H)
xdata$x	ENDS
;	COMDAT ??_8?$basic_ofstream@DV?$char_traits@D@_STL@@@_STL@@7B@
CONST	SEGMENT
??_8?$basic_ofstream@DV?$char_traits@D@_STL@@@_STL@@7B@ DD 00H ; _STL::basic_ofstream<char,_STL::char_traits<char> >::`vbtable'
	DD	0b8H
; Function compile flags: /Ogsy
; File c:\stlport-4.6.1\stlport\stl\_fstream.h
CONST	ENDS
;	COMDAT ??0?$basic_ofstream@DV?$char_traits@D@_STL@@@_STL@@QAE@PBDH@Z
_TEXT	SEGMENT
_this$ = -20						; size = 4
$T122818 = -16						; size = 4
__$EHRec$ = -12						; size = 12
___s$ = 8						; size = 4
___mod$ = 12						; size = 4
_$initVBases$ = 16					; size = 4
??0?$basic_ofstream@DV?$char_traits@D@_STL@@@_STL@@QAE@PBDH@Z PROC NEAR ; _STL::basic_ofstream<char,_STL::char_traits<char> >::basic_ofstream<char,_STL::char_traits<char> >, COMDAT
; _this$ = ecx

; 594  :       _M_buf() {

  00000	b8 00 00 00 00	 mov	 eax, __ehhandler$??0?$basic_ofstream@DV?$char_traits@D@_STL@@@_STL@@QAE@PBDH@Z
  00005	e8 00 00 00 00	 call	 __EH_prolog
  0000a	51		 push	 ecx
  0000b	51		 push	 ecx
  0000c	53		 push	 ebx
  0000d	56		 push	 esi
  0000e	57		 push	 edi
  0000f	33 ff		 xor	 edi, edi
  00011	33 db		 xor	 ebx, ebx
  00013	8b f1		 mov	 esi, ecx
  00015	47		 inc	 edi
  00016	39 5d 10	 cmp	 DWORD PTR _$initVBases$[ebp], ebx
  00019	89 75 ec	 mov	 DWORD PTR _this$[ebp], esi
  0001c	89 5d f0	 mov	 DWORD PTR $T122818[ebp], ebx
  0001f	74 17		 je	 SHORT $L113424
  00021	8d 8e b8 00 00
	00		 lea	 ecx, DWORD PTR [esi+184]
  00027	c7 06 00 00 00
	00		 mov	 DWORD PTR [esi], OFFSET FLAT:??_8?$basic_ofstream@DV?$char_traits@D@_STL@@@_STL@@7B@
  0002d	e8 00 00 00 00	 call	 ??0?$basic_ios@DV?$char_traits@D@_STL@@@_STL@@IAE@XZ ; _STL::basic_ios<char,_STL::char_traits<char> >::basic_ios<char,_STL::char_traits<char> >
  00032	89 5d fc	 mov	 DWORD PTR __$EHRec$[ebp+8], ebx
  00035	89 7d f0	 mov	 DWORD PTR $T122818[ebp], edi
$L113424:
  00038	53		 push	 ebx
  00039	53		 push	 ebx
  0003a	8b ce		 mov	 ecx, esi
  0003c	e8 00 00 00 00	 call	 ??0?$basic_ostream@DV?$char_traits@D@_STL@@@_STL@@QAE@PAV?$basic_streambuf@DV?$char_traits@D@_STL@@@1@@Z ; _STL::basic_ostream<char,_STL::char_traits<char> >::basic_ostream<char,_STL::char_traits<char> >
  00041	8b 06		 mov	 eax, DWORD PTR [esi]
  00043	8b 40 04	 mov	 eax, DWORD PTR [eax+4]
  00046	89 7d fc	 mov	 DWORD PTR __$EHRec$[ebp+8], edi
  00049	8d 7e 04	 lea	 edi, DWORD PTR [esi+4]
  0004c	8b cf		 mov	 ecx, edi
  0004e	c7 04 06 00 00
	00 00		 mov	 DWORD PTR [esi+eax], OFFSET FLAT:??_7?$basic_ofstream@DV?$char_traits@D@_STL@@@_STL@@6B@
  00055	e8 00 00 00 00	 call	 ??0?$basic_filebuf@DV?$char_traits@D@_STL@@@_STL@@QAE@XZ ; _STL::basic_filebuf<char,_STL::char_traits<char> >::basic_filebuf<char,_STL::char_traits<char> >

; 595  : 	this->init(&_M_buf);

  0005a	8b 06		 mov	 eax, DWORD PTR [esi]
  0005c	8b 48 04	 mov	 ecx, DWORD PTR [eax+4]
  0005f	57		 push	 edi
  00060	03 ce		 add	 ecx, esi
  00062	c6 45 fc 02	 mov	 BYTE PTR __$EHRec$[ebp+8], 2
  00066	e8 00 00 00 00	 call	 ?init@?$basic_ios@DV?$char_traits@D@_STL@@@_STL@@IAEXPAV?$basic_streambuf@DV?$char_traits@D@_STL@@@2@@Z ; _STL::basic_ios<char,_STL::char_traits<char> >::init

; 596  : 	if (!_M_buf.open(__s, __mod | ios_base::out))

  0006b	8b 45 0c	 mov	 eax, DWORD PTR ___mod$[ebp]
  0006e	83 c8 10	 or	 eax, 16			; 00000010H
  00071	50		 push	 eax
  00072	ff 75 08	 push	 DWORD PTR ___s$[ebp]
  00075	8d 4f 54	 lea	 ecx, DWORD PTR [edi+84]
  00078	e8 00 00 00 00	 call	 ?_M_open@_Filebuf_base@_STL@@QAE_NPBDH@Z ; _STL::_Filebuf_base::_M_open
  0007d	f6 d8		 neg	 al
  0007f	1b c0		 sbb	 eax, eax
  00081	85 c7		 test	 eax, edi
  00083	75 13		 jne	 SHORT $L122835

; 597  : 	  this->setstate(ios_base::failbit);

  00085	8b 06		 mov	 eax, DWORD PTR [esi]
  00087	8b 48 04	 mov	 ecx, DWORD PTR [eax+4]
  0008a	03 ce		 add	 ecx, esi
  0008c	8b 41 08	 mov	 eax, DWORD PTR [ecx+8]
  0008f	83 c8 04	 or	 eax, 4
  00092	50		 push	 eax
  00093	e8 00 00 00 00	 call	 ?clear@?$basic_ios@DV?$char_traits@D@_STL@@@_STL@@QAEXH@Z ; _STL::basic_ios<char,_STL::char_traits<char> >::clear
$L122835:

; 598  :   }

  00098	8b 4d f4	 mov	 ecx, DWORD PTR __$EHRec$[ebp]
  0009b	5f		 pop	 edi
  0009c	8b c6		 mov	 eax, esi
  0009e	5e		 pop	 esi
  0009f	5b		 pop	 ebx
  000a0	64 89 0d 00 00
	00 00		 mov	 DWORD PTR fs:__except_list, ecx
  000a7	c9		 leave
  000a8	c2 0c 00	 ret	 12			; 0000000cH
_TEXT	ENDS
;	COMDAT text$x
text$x	SEGMENT
$L122819:
  00000	8b 45 f0	 mov	 eax, DWORD PTR $T122818[ebp]
  00003	83 e0 01	 and	 eax, 1
  00006	0f 84 12 00 00
	00		 je	 $L122820
  0000c	83 65 f0 fe	 and	 DWORD PTR $T122818[ebp], -2 ; fffffffeH
  00010	8b 4d ec	 mov	 ecx, DWORD PTR _this$[ebp]
  00013	81 c1 b8 00 00
	00		 add	 ecx, 184		; 000000b8H
  00019	e9 00 00 00 00	 jmp	 ??1?$basic_ios@DV?$char_traits@D@_STL@@@_STL@@UAE@XZ ; _STL::basic_ios<char,_STL::char_traits<char> >::~basic_ios<char,_STL::char_traits<char> >
$L122820:
  0001e	c3		 ret	 0
$L122821:
  0001f	8b 4d ec	 mov	 ecx, DWORD PTR _this$[ebp]
  00022	83 c1 04	 add	 ecx, 4
  00025	e9 00 00 00 00	 jmp	 ??1?$basic_ostream@DV?$char_traits@D@_STL@@@_STL@@UAE@XZ ; _STL::basic_ostream<char,_STL::char_traits<char> >::~basic_ostream<char,_STL::char_traits<char> >
$L122822:
  0002a	8b 4d ec	 mov	 ecx, DWORD PTR _this$[ebp]
  0002d	83 c1 04	 add	 ecx, 4
  00030	e9 00 00 00 00	 jmp	 ??1?$basic_filebuf@DV?$char_traits@D@_STL@@@_STL@@UAE@XZ ; _STL::basic_filebuf<char,_STL::char_traits<char> >::~basic_filebuf<char,_STL::char_traits<char> >
__ehhandler$??0?$basic_ofstream@DV?$char_traits@D@_STL@@@_STL@@QAE@PBDH@Z:
  00035	b8 00 00 00 00	 mov	 eax, OFFSET FLAT:$T122841
  0003a	e9 00 00 00 00	 jmp	 ___CxxFrameHandler
text$x	ENDS
??0?$basic_ofstream@DV?$char_traits@D@_STL@@@_STL@@QAE@PBDH@Z ENDP ; _STL::basic_ofstream<char,_STL::char_traits<char> >::basic_ofstream<char,_STL::char_traits<char> >
PUBLIC	??_8?$basic_ostream@DV?$char_traits@D@_STL@@@_STL@@7B@ ; _STL::basic_ostream<char,_STL::char_traits<char> >::`vbtable'
;	COMDAT xdata$x
; File c:\stlport-4.6.1\stlport\stl\_ostream.c
xdata$x	SEGMENT
$T122854 DD	0ffffffffH
	DD	FLAT:$L122849
$T122852 DD	019930520H
	DD	01H
	DD	FLAT:$T122854
	DD	2 DUP(00H)
	DD	2 DUP(00H)
xdata$x	ENDS
;	COMDAT ??_8?$basic_ostream@DV?$char_traits@D@_STL@@@_STL@@7B@
CONST	SEGMENT
??_8?$basic_ostream@DV?$char_traits@D@_STL@@@_STL@@7B@ DD 00H ; _STL::basic_ostream<char,_STL::char_traits<char> >::`vbtable'
	DD	04H
; Function compile flags: /Ogsy
CONST	ENDS
;	COMDAT ??0?$basic_ostream@DV?$char_traits@D@_STL@@@_STL@@QAE@PAV?$basic_streambuf@DV?$char_traits@D@_STL@@@1@@Z
_TEXT	SEGMENT
_this$ = -20						; size = 4
$T122848 = -16						; size = 4
__$EHRec$ = -12						; size = 12
___buf$ = 8						; size = 4
_$initVBases$ = 12					; size = 4
??0?$basic_ostream@DV?$char_traits@D@_STL@@@_STL@@QAE@PAV?$basic_streambuf@DV?$char_traits@D@_STL@@@1@@Z PROC NEAR ; _STL::basic_ostream<char,_STL::char_traits<char> >::basic_ostream<char,_STL::char_traits<char> >, COMDAT
; _this$ = ecx

; 58   : {

  00000	b8 00 00 00 00	 mov	 eax, __ehhandler$??0?$basic_ostream@DV?$char_traits@D@_STL@@@_STL@@QAE@PAV?$basic_streambuf@DV?$char_traits@D@_STL@@@1@@Z
  00005	e8 00 00 00 00	 call	 __EH_prolog
  0000a	51		 push	 ecx
  0000b	51		 push	 ecx
  0000c	83 65 f0 00	 and	 DWORD PTR $T122848[ebp], 0
  00010	83 7d 0c 00	 cmp	 DWORD PTR _$initVBases$[ebp], 0
  00014	56		 push	 esi
  00015	8b f1		 mov	 esi, ecx
  00017	89 75 ec	 mov	 DWORD PTR _this$[ebp], esi
  0001a	74 19		 je	 SHORT $L113958
  0001c	8d 4e 04	 lea	 ecx, DWORD PTR [esi+4]
  0001f	c7 06 00 00 00
	00		 mov	 DWORD PTR [esi], OFFSET FLAT:??_8?$basic_ostream@DV?$char_traits@D@_STL@@@_STL@@7B@
  00025	e8 00 00 00 00	 call	 ??0?$basic_ios@DV?$char_traits@D@_STL@@@_STL@@IAE@XZ ; _STL::basic_ios<char,_STL::char_traits<char> >::basic_ios<char,_STL::char_traits<char> >
  0002a	83 65 fc 00	 and	 DWORD PTR __$EHRec$[ebp+8], 0
  0002e	c7 45 f0 01 00
	00 00		 mov	 DWORD PTR $T122848[ebp], 1
$L113958:
  00035	8b 06		 mov	 eax, DWORD PTR [esi]
  00037	8b 40 04	 mov	 eax, DWORD PTR [eax+4]

; 59   :   this->init(__buf);

  0003a	ff 75 08	 push	 DWORD PTR ___buf$[ebp]
  0003d	c7 04 06 00 00
	00 00		 mov	 DWORD PTR [esi+eax], OFFSET FLAT:??_7?$basic_ostream@DV?$char_traits@D@_STL@@@_STL@@6B@
  00044	8b 06		 mov	 eax, DWORD PTR [esi]
  00046	8b 48 04	 mov	 ecx, DWORD PTR [eax+4]
  00049	03 ce		 add	 ecx, esi
  0004b	e8 00 00 00 00	 call	 ?init@?$basic_ios@DV?$char_traits@D@_STL@@@_STL@@IAEXPAV?$basic_streambuf@DV?$char_traits@D@_STL@@@2@@Z ; _STL::basic_ios<char,_STL::char_traits<char> >::init

; 60   : }

  00050	8b 4d f4	 mov	 ecx, DWORD PTR __$EHRec$[ebp]
  00053	8b c6		 mov	 eax, esi
  00055	5e		 pop	 esi
  00056	64 89 0d 00 00
	00 00		 mov	 DWORD PTR fs:__except_list, ecx
  0005d	c9		 leave
  0005e	c2 08 00	 ret	 8
_TEXT	ENDS
;	COMDAT text$x
text$x	SEGMENT
$L122849:
  00000	8b 45 f0	 mov	 eax, DWORD PTR $T122848[ebp]
  00003	83 e0 01	 and	 eax, 1
  00006	0f 84 0f 00 00
	00		 je	 $L122850
  0000c	83 65 f0 fe	 and	 DWORD PTR $T122848[ebp], -2 ; fffffffeH
  00010	8b 4d ec	 mov	 ecx, DWORD PTR _this$[ebp]
  00013	83 c1 04	 add	 ecx, 4
  00016	e9 00 00 00 00	 jmp	 ??1?$basic_ios@DV?$char_traits@D@_STL@@@_STL@@UAE@XZ ; _STL::basic_ios<char,_STL::char_traits<char> >::~basic_ios<char,_STL::char_traits<char> >
$L122850:
  0001b	c3		 ret	 0
__ehhandler$??0?$basic_ostream@DV?$char_traits@D@_STL@@@_STL@@QAE@PAV?$basic_streambuf@DV?$char_traits@D@_STL@@@1@@Z:
  0001c	b8 00 00 00 00	 mov	 eax, OFFSET FLAT:$T122852
  00021	e9 00 00 00 00	 jmp	 ___CxxFrameHandler
text$x	ENDS
??0?$basic_ostream@DV?$char_traits@D@_STL@@@_STL@@QAE@PAV?$basic_streambuf@DV?$char_traits@D@_STL@@@1@@Z ENDP ; _STL::basic_ostream<char,_STL::char_traits<char> >::basic_ostream<char,_STL::char_traits<char> >
PUBLIC	?Init@CShadowPartManager@@QAEXPBDG@Z		; CShadowPartManager::Init
;	COMDAT xdata$x
; File c:\darkeden\designed_common\project\client\cshadowpartmanager.cpp
xdata$x	SEGMENT
$T122871 DD	0ffffffffH
	DD	FLAT:$L122862
$T122864 DD	019930520H
	DD	01H
	DD	FLAT:$T122871
	DD	2 DUP(00H)
	DD	2 DUP(00H)
; Function compile flags: /Ogsy
xdata$x	ENDS
;	COMDAT ?Init@CShadowPartManager@@QAEXPBDG@Z
_TEXT	SEGMENT
_indexFile$ = -300					; size = 284
__$ArrayPad$ = -16					; size = 4
__$EHRec$ = -12						; size = 12
__$ReturnAddr$ = 4					; size = 4
_SSPKFilename$ = 8					; size = 4
_partSize$ = 12						; size = 2
?Init@CShadowPartManager@@QAEXPBDG@Z PROC NEAR		; CShadowPartManager::Init, COMDAT
; _this$ = ecx

; 70   : {

  00000	b8 00 00 00 00	 mov	 eax, __ehhandler$?Init@CShadowPartManager@@QAEXPBDG@Z
  00005	e8 00 00 00 00	 call	 __EH_prolog
  0000a	81 ec 20 01 00
	00		 sub	 esp, 288		; 00000120H
  00010	a1 00 00 00 00	 mov	 eax, DWORD PTR ___security_cookie
  00015	53		 push	 ebx
  00016	56		 push	 esi
  00017	57		 push	 edi
  00018	89 45 f0	 mov	 DWORD PTR __$ArrayPad$[ebp], eax
  0001b	8b f1		 mov	 esi, ecx

; 71   : 	Release();

  0001d	e8 00 00 00 00	 call	 ?Release@CShadowPartManager@@QAEXXZ ; CShadowPartManager::Release

; 72   : 	///*
; 73   : 	// Index File Load.
; 74   : 	std::ifstream indexFile;//(indexFilename, ios::binary);

  00022	6a 01		 push	 1
  00024	8d 8d d4 fe ff
	ff		 lea	 ecx, DWORD PTR _indexFile$[ebp]
  0002a	e8 00 00 00 00	 call	 ??0?$basic_ifstream@DV?$char_traits@D@_STL@@@_STL@@QAE@XZ ; _STL::basic_ifstream<char,_STL::char_traits<char> >::basic_ifstream<char,_STL::char_traits<char> >

; 75   : //	if (!FileOpenBinary(indexFilename, indexFile))
; 76   : //		return;
; 77   : //
; 78   : //	m_SSPKIndex.LoadFromFile( indexFile );
; 79   : //	indexFile.close();
; 80   : //
; 81   : //	// SSPK  . (..)
; 82   : //	m_SSPK.Init( m_SSPKIndex.GetSize() );
; 83   : //
; 84   : //	// SSPK File .
; 85   : //	m_SSPKFile.open(SSPKFilename, ios::binary);
; 86   : //	
; 87   : //	TYPE_SPRITEID size;
; 88   : //	m_SSPKFile.read((char*)&size, SIZE_SPRITEID);
; 89   : 	m_SSPK.LoadFromFileRunning(SSPKFilename);

  0002f	ff 75 08	 push	 DWORD PTR _SSPKFilename$[ebp]
  00032	8d 7e 28	 lea	 edi, DWORD PTR [esi+40]
  00035	8b 07		 mov	 eax, DWORD PTR [edi]
  00037	33 db		 xor	 ebx, ebx
  00039	8b cf		 mov	 ecx, edi
  0003b	89 5d fc	 mov	 DWORD PTR __$EHRec$[ebp+8], ebx
  0003e	ff 50 18	 call	 DWORD PTR [eax+24]

; 90   : 
; 91   : 	int allSize = m_SSPK.GetSize();

  00041	8b 07		 mov	 eax, DWORD PTR [edi]
  00043	8b cf		 mov	 ecx, edi
  00045	ff 50 0c	 call	 DWORD PTR [eax+12]

; 92   : 	//*/
; 93   : 
; 94   : 	//m_pSSPK = pSSPK;
; 95   : 
; 96   : 	//int allSize = pSSPK->GetSize();
; 97   : 
; 98   : 	// Base class Init ..
; 99   : 	// (  ,    ) 
; 100  : 	CPartManager<WORD, WORD, CSpriteSurface*>::Init( allSize, partSize );

  00048	ff 75 0c	 push	 DWORD PTR _partSize$[ebp]
  0004b	8b f8		 mov	 edi, eax
  0004d	57		 push	 edi
  0004e	8b ce		 mov	 ecx, esi
  00050	e8 00 00 00 00	 call	 ?Init@?$CPartManager@GGPAVCSpriteSurface@@@@QAEXGG@Z ; CPartManager<unsigned short,unsigned short,CSpriteSurface *>::Init

; 101  : 
; 102  : 	// NULL 
; 103  : 	for (int i=0; i<m_nPart; i++)

  00055	33 c0		 xor	 eax, eax
  00057	66 39 5e 08	 cmp	 WORD PTR [esi+8], bx
  0005b	76 0f		 jbe	 SHORT $L111672
$L111670:

; 104  : 	{
; 105  : 		m_pData[i] = NULL;

  0005d	8b 4e 0c	 mov	 ecx, DWORD PTR [esi+12]
  00060	89 1c 81	 mov	 DWORD PTR [ecx+eax*4], ebx
  00063	0f b7 4e 08	 movzx	 ecx, WORD PTR [esi+8]
  00067	40		 inc	 eax
  00068	3b c1		 cmp	 eax, ecx
  0006a	7c f1		 jl	 SHORT $L111670
$L111672:

; 106  : 	}
; 107  : 
; 108  : 	
; 109  : 	// texture size .
; 110  : 	m_pWidth = new int [allSize];

  0006c	8b df		 mov	 ebx, edi
  0006e	c1 e3 02	 shl	 ebx, 2
  00071	53		 push	 ebx
  00072	e8 00 00 00 00	 call	 ??_U@YAPAXI@Z		; operator new[]

; 111  : 	m_pHeight = new int [allSize];

  00077	53		 push	 ebx
  00078	89 46 6c	 mov	 DWORD PTR [esi+108], eax
  0007b	e8 00 00 00 00	 call	 ??_U@YAPAXI@Z		; operator new[]
  00080	89 46 70	 mov	 DWORD PTR [esi+112], eax
  00083	59		 pop	 ecx

; 112  : 
; 113  : 	for (i=0; i<allSize; i++)

  00084	33 c0		 xor	 eax, eax
  00086	85 ff		 test	 edi, edi
  00088	59		 pop	 ecx
  00089	7e 13		 jle	 SHORT $L111679
$L111677:

; 114  : 	{
; 115  : 		m_pWidth[i] = 0;

  0008b	8b 4e 6c	 mov	 ecx, DWORD PTR [esi+108]
  0008e	83 24 81 00	 and	 DWORD PTR [ecx+eax*4], 0

; 116  : 		m_pHeight[i] = 0;

  00092	8b 4e 70	 mov	 ecx, DWORD PTR [esi+112]
  00095	83 24 81 00	 and	 DWORD PTR [ecx+eax*4], 0
  00099	40		 inc	 eax
  0009a	3b c7		 cmp	 eax, edi
  0009c	7c ed		 jl	 SHORT $L111677
$L111679:

; 117  : 	}
; 118  : 
; 119  : 	/*
; 120  : 	int spWidth, spHeight;
; 121  : 	int width, height;
; 122  : 
; 123  : 	if (CDirect3D::IsTexturePow2())
; 124  : 	{
; 125  : 		for (i=0; i<allSize; i++)
; 126  : 		{
; 127  : 			if ((*pSSPK)[i].IsInit())
; 128  : 			{
; 129  : 				spWidth = (*pSSPK)[i].GetWidth();
; 130  : 				spHeight = (*pSSPK)[i].GetHeight();
; 131  : 				width = 1;
; 132  : 				height = 1;
; 133  : 
; 134  : 				// width height spWidth spHeight  .
; 135  : 				// square .
; 136  : 				while (width < spWidth || height < spHeight)
; 137  : 				{
; 138  : 					width <<= 1;
; 139  : 					height <<= 1;
; 140  : 				}
; 141  : 
; 142  : 				m_pWidth[i] = width;
; 143  : 				m_pHeight[i] = height;
; 144  : 			}
; 145  : 			else
; 146  : 			{
; 147  : 				m_pWidth[i] = 0;
; 148  : 				m_pHeight[i] = 0;
; 149  : 			}
; 150  : 		}
; 151  : 	}
; 152  : 	else
; 153  : 	{
; 154  : 		for (i=0; i<allSize; i++)
; 155  : 		{
; 156  : 			if ((*pSSPK)[i].IsInit())
; 157  : 			{
; 158  : 				spWidth = (*pSSPK)[i].GetWidth();
; 159  : 				spHeight = (*pSSPK)[i].GetHeight();
; 160  : 				width = spWidth;
; 161  : 				height = spHeight;
; 162  : 
; 163  : 				//    Square .
; 164  : 				if (CDirect3D::IsTextureSquareOnly())
; 165  : 				{				
; 166  : 					if (width > height)
; 167  : 					{
; 168  : 						height = width;				
; 169  : 					}
; 170  : 					else if (width < height)
; 171  : 					{
; 172  : 						width = height;				
; 173  : 					}	
; 174  : 				}
; 175  : 
; 176  : 				m_pWidth[i] = width;
; 177  : 				m_pHeight[i] = height;
; 178  : 			}
; 179  : 			else
; 180  : 			{
; 181  : 				m_pWidth[i] = 0;
; 182  : 				m_pHeight[i] = 0;
; 183  : 			}
; 184  : 		}
; 185  : 	}
; 186  : 	*/
; 187  : 
; 188  : //	m_bOpen = true;
; 189  : }

  0009e	83 4d fc ff	 or	 DWORD PTR __$EHRec$[ebp+8], -1
  000a2	8d 8d d4 fe ff
	ff		 lea	 ecx, DWORD PTR _indexFile$[ebp]
  000a8	e8 00 00 00 00	 call	 ??_D?$basic_ifstream@DV?$char_traits@D@_STL@@@_STL@@QAEXXZ
  000ad	8b 4d f4	 mov	 ecx, DWORD PTR __$EHRec$[ebp]
  000b0	5f		 pop	 edi
  000b1	5e		 pop	 esi
  000b2	64 89 0d 00 00
	00 00		 mov	 DWORD PTR fs:__except_list, ecx
  000b9	8b 4d f0	 mov	 ecx, DWORD PTR __$ArrayPad$[ebp]
  000bc	5b		 pop	 ebx
  000bd	e8 00 00 00 00	 call	 @__security_check_cookie@4
  000c2	c9		 leave
  000c3	c2 08 00	 ret	 8
_TEXT	ENDS
;	COMDAT text$x
text$x	SEGMENT
$L122862:
  00000	8d 8d d4 fe ff
	ff		 lea	 ecx, DWORD PTR _indexFile$[ebp]
  00006	e9 00 00 00 00	 jmp	 ??_D?$basic_ifstream@DV?$char_traits@D@_STL@@@_STL@@QAEXXZ
__ehhandler$?Init@CShadowPartManager@@QAEXPBDG@Z:
  0000b	b8 00 00 00 00	 mov	 eax, OFFSET FLAT:$T122864
  00010	e9 00 00 00 00	 jmp	 ___CxxFrameHandler
text$x	ENDS
?Init@CShadowPartManager@@QAEXPBDG@Z ENDP		; CShadowPartManager::Init
PUBLIC	??0CShadowPartManager@@QAE@PBDG@Z		; CShadowPartManager::CShadowPartManager
;	COMDAT xdata$x
; File c:\stlport-4.6.1\stlport\stl\_alloc.h
xdata$x	SEGMENT
$T122894 DD	0ffffffffH
	DD	FLAT:$L122877
	DD	00H
	DD	FLAT:$L122878
	DD	01H
	DD	FLAT:$L122879
$T122892 DD	019930520H
	DD	03H
	DD	FLAT:$T122894
	DD	2 DUP(00H)
	DD	2 DUP(00H)
; Function compile flags: /Ogsy
; File c:\darkeden\designed_common\project\client\cshadowpartmanager.cpp
xdata$x	ENDS
;	COMDAT ??0CShadowPartManager@@QAE@PBDG@Z
_TEXT	SEGMENT
_this$ = -16						; size = 4
__$EHRec$ = -12						; size = 12
_SSPKFilename$ = 8					; size = 4
_partSize$ = 12						; size = 2
$T122876 = 15						; size = 1
??0CShadowPartManager@@QAE@PBDG@Z PROC NEAR		; CShadowPartManager::CShadowPartManager, COMDAT
; _this$ = ecx

; 36   : {

  00000	b8 00 00 00 00	 mov	 eax, __ehhandler$??0CShadowPartManager@@QAE@PBDG@Z
  00005	e8 00 00 00 00	 call	 __EH_prolog
  0000a	51		 push	 ecx
  0000b	56		 push	 esi
  0000c	8b f1		 mov	 esi, ecx
  0000e	89 75 f0	 mov	 DWORD PTR _this$[ebp], esi
  00011	e8 00 00 00 00	 call	 ??0?$CPartManager@GGPAVCSpriteSurface@@@@QAE@XZ ; CPartManager<unsigned short,unsigned short,CSpriteSurface *>::CPartManager<unsigned short,unsigned short,CSpriteSurface *>
  00016	83 65 fc 00	 and	 DWORD PTR __$EHRec$[ebp+8], 0
  0001a	8d 4e 28	 lea	 ecx, DWORD PTR [esi+40]
  0001d	e8 00 00 00 00	 call	 ??0?$CTypePack@VCShadowSprite@@@@QAE@XZ ; CTypePack<CShadowSprite>::CTypePack<CShadowSprite>
  00022	8d 45 0f	 lea	 eax, DWORD PTR $T122876[ebp]
  00025	8d 4e 74	 lea	 ecx, DWORD PTR [esi+116]
  00028	50		 push	 eax
  00029	c6 45 fc 01	 mov	 BYTE PTR __$EHRec$[ebp+8], 1
  0002d	e8 00 00 00 00	 call	 ??0?$_List_base@PAVCSpriteSurface@@V?$allocator@PAVCSpriteSurface@@@_STL@@@_STL@@QAE@ABV?$allocator@PAVCSpriteSurface@@@1@@Z ; _STL::_List_base<CSpriteSurface *,_STL::allocator<CSpriteSurface *> >::_List_base<CSpriteSurface *,_STL::allocator<CSpriteSurface *> >

; 37   : 	//m_pSSPK		= NULL;
; 38   : 	m_pWidth	= NULL;
; 39   : 	m_pHeight	= NULL;
; 40   : 
; 41   : //	m_bOpen = false;
; 42   : //	Init(SSPKFilename, indexFilename, partSize);	
; 43   : 	Init(SSPKFilename, partSize);	

  00032	ff 75 0c	 push	 DWORD PTR _partSize$[ebp]
  00035	83 66 6c 00	 and	 DWORD PTR [esi+108], 0
  00039	ff 75 08	 push	 DWORD PTR _SSPKFilename$[ebp]
  0003c	83 66 70 00	 and	 DWORD PTR [esi+112], 0
  00040	8b ce		 mov	 ecx, esi
  00042	c6 45 fc 02	 mov	 BYTE PTR __$EHRec$[ebp+8], 2
  00046	e8 00 00 00 00	 call	 ?Init@CShadowPartManager@@QAEXPBDG@Z ; CShadowPartManager::Init

; 44   : 
; 45   : 	//Init(pSSPK, partSize);
; 46   : }

  0004b	8b 4d f4	 mov	 ecx, DWORD PTR __$EHRec$[ebp]
  0004e	8b c6		 mov	 eax, esi
  00050	5e		 pop	 esi
  00051	64 89 0d 00 00
	00 00		 mov	 DWORD PTR fs:__except_list, ecx
  00058	c9		 leave
  00059	c2 08 00	 ret	 8
_TEXT	ENDS
;	COMDAT text$x
text$x	SEGMENT
$L122877:
  00000	8b 4d f0	 mov	 ecx, DWORD PTR _this$[ebp]
  00003	e9 00 00 00 00	 jmp	 ??1?$CPartManager@GGPAVCSpriteSurface@@@@QAE@XZ ; CPartManager<unsigned short,unsigned short,CSpriteSurface *>::~CPartManager<unsigned short,unsigned short,CSpriteSurface *>
$L122878:
  00008	8b 4d f0	 mov	 ecx, DWORD PTR _this$[ebp]
  0000b	83 c1 28	 add	 ecx, 40			; 00000028H
  0000e	e9 00 00 00 00	 jmp	 ??1?$CTypePack@VCShadowSprite@@@@UAE@XZ ; CTypePack<CShadowSprite>::~CTypePack<CShadowSprite>
$L122879:
  00013	8b 4d f0	 mov	 ecx, DWORD PTR _this$[ebp]
  00016	83 c1 74	 add	 ecx, 116		; 00000074H
  00019	e9 00 00 00 00	 jmp	 ??1?$list@PAVCSpriteSurface@@V?$allocator@PAVCSpriteSurface@@@_STL@@@_STL@@QAE@XZ ; _STL::list<CSpriteSurface *,_STL::allocator<CSpriteSurface *> >::~list<CSpriteSurface *,_STL::allocator<CSpriteSurface *> >
__ehhandler$??0CShadowPartManager@@QAE@PBDG@Z:
  0001e	b8 00 00 00 00	 mov	 eax, OFFSET FLAT:$T122892
  00023	e9 00 00 00 00	 jmp	 ___CxxFrameHandler
text$x	ENDS
??0CShadowPartManager@@QAE@PBDG@Z ENDP			; CShadowPartManager::CShadowPartManager
END
