; Listing generated by Microsoft (R) Optimizing Compiler Version 13.10.3077 

	TITLE	\darkeden\Designed_Common\Project\Client\Packet\Gpackets\GCAddItemToItemVerify.cpp
	.386P
include listing.inc
if @Version gt 510
.model FLAT
else
_TEXT	SEGMENT PARA USE32 PUBLIC 'CODE'
_TEXT	ENDS
_DATA	SEGMENT DWORD USE32 PUBLIC 'DATA'
_DATA	ENDS
CONST	SEGMENT DWORD USE32 PUBLIC 'CONST'
CONST	ENDS
_BSS	SEGMENT DWORD USE32 PUBLIC 'BSS'
_BSS	ENDS
$$SYMBOLS	SEGMENT BYTE USE32 'DEBSYM'
$$SYMBOLS	ENDS
$$TYPES	SEGMENT BYTE USE32 'DEBTYP'
$$TYPES	ENDS
_TLS	SEGMENT DWORD USE32 PUBLIC 'TLS'
_TLS	ENDS
;	COMDAT ??_C@_0CA@NDINADEE@SocketOutputStream?$CIm_BufferLen?3?$AA@
CONST	SEGMENT DWORD USE32 PUBLIC 'CONST'
CONST	ENDS
;	COMDAT ??_C@_08LIHEOLAN@?0m_Head?3?$AA@
CONST	SEGMENT DWORD USE32 PUBLIC 'CONST'
CONST	ENDS
;	COMDAT ??_C@_08PCEHPGHK@?0m_Tail?3?$AA@
CONST	SEGMENT DWORD USE32 PUBLIC 'CONST'
CONST	ENDS
;	COMDAT ??_C@_01PKGAHCOL@?$CJ?$AA@
CONST	SEGMENT DWORD USE32 PUBLIC 'CONST'
CONST	ENDS
;	COMDAT ??_C@_0BG@MHHAHEAH@GCAddItemToItemVerify?$AA@
CONST	SEGMENT DWORD USE32 PUBLIC 'CONST'
CONST	ENDS
;	COMDAT ??_C@_0N@GOPDCEEB@basic_string?$AA@
CONST	SEGMENT DWORD USE32 PUBLIC 'CONST'
CONST	ENDS
xdata$x	SEGMENT DWORD USE32 PUBLIC 'CONST'
xdata$x	ENDS
rdata$r	SEGMENT DWORD USE32 PUBLIC 'CONST'
rdata$r	ENDS
text$yc	SEGMENT PARA USE32 PUBLIC 'CODE'
text$yc	ENDS
CRT$XCA	SEGMENT DWORD USE32 PUBLIC 'DATA'
CRT$XCA	ENDS
CRT$XCU	SEGMENT DWORD USE32 PUBLIC 'DATA'
CRT$XCU	ENDS
CRT$XCL	SEGMENT DWORD USE32 PUBLIC 'DATA'
CRT$XCL	ENDS
CRT$XCC	SEGMENT DWORD USE32 PUBLIC 'DATA'
CRT$XCC	ENDS
CRT$XCZ	SEGMENT DWORD USE32 PUBLIC 'DATA'
CRT$XCZ	ENDS
text$yd	SEGMENT PARA USE32 PUBLIC 'CODE'
text$yd	ENDS
;	COMDAT ?getHost@SocketImpl@@QBE?AV?$basic_string@DV?$char_traits@D@_STL@@V?$allocator@D@2@@_STL@@XZ
_TEXT	SEGMENT PARA USE32 PUBLIC 'CODE'
_TEXT	ENDS
;	COMDAT ?getPort@SocketImpl@@QBEIXZ
_TEXT	SEGMENT PARA USE32 PUBLIC 'CODE'
_TEXT	ENDS
;	COMDAT ?isValid@SocketImpl@@QBE_NXZ
_TEXT	SEGMENT PARA USE32 PUBLIC 'CODE'
_TEXT	ENDS
;	COMDAT ?getSOCKET@SocketImpl@@QBEIXZ
_TEXT	SEGMENT PARA USE32 PUBLIC 'CODE'
_TEXT	ENDS
;	COMDAT ?read@SocketInputStream@@QAEIAAE@Z
_TEXT	SEGMENT PARA USE32 PUBLIC 'CODE'
_TEXT	ENDS
;	COMDAT ?read@SocketInputStream@@QAEIAAG@Z
_TEXT	SEGMENT PARA USE32 PUBLIC 'CODE'
_TEXT	ENDS
;	COMDAT ?read@SocketInputStream@@QAEIAAI@Z
_TEXT	SEGMENT PARA USE32 PUBLIC 'CODE'
_TEXT	ENDS
;	COMDAT ?write@SocketOutputStream@@QAEIE@Z
_TEXT	SEGMENT PARA USE32 PUBLIC 'CODE'
_TEXT	ENDS
;	COMDAT ?write@SocketOutputStream@@QAEIG@Z
_TEXT	SEGMENT PARA USE32 PUBLIC 'CODE'
_TEXT	ENDS
;	COMDAT ?write@SocketOutputStream@@QAEII@Z
_TEXT	SEGMENT PARA USE32 PUBLIC 'CODE'
_TEXT	ENDS
;	COMDAT ??1Packet@@UAE@XZ
_TEXT	SEGMENT PARA USE32 PUBLIC 'CODE'
_TEXT	ENDS
;	COMDAT ?read@Packet@@UAEXPAVSocket@@@Z
_TEXT	SEGMENT PARA USE32 PUBLIC 'CODE'
_TEXT	ENDS
;	COMDAT ?write@Packet@@UBEXPAVSocket@@@Z
_TEXT	SEGMENT PARA USE32 PUBLIC 'CODE'
_TEXT	ENDS
;	COMDAT ??_GPacket@@UAEPAXI@Z
_TEXT	SEGMENT PARA USE32 PUBLIC 'CODE'
_TEXT	ENDS
;	COMDAT ??0UnsupportedError@@QAE@ABV0@@Z
_TEXT	SEGMENT PARA USE32 PUBLIC 'CODE'
_TEXT	ENDS
;	COMDAT ??0Error@@QAE@ABV0@@Z
_TEXT	SEGMENT PARA USE32 PUBLIC 'CODE'
_TEXT	ENDS
;	COMDAT ??0Throwable@@QAE@ABV0@@Z
_TEXT	SEGMENT PARA USE32 PUBLIC 'CODE'
_TEXT	ENDS
;	COMDAT ??1PacketFactory@@UAE@XZ
_TEXT	SEGMENT PARA USE32 PUBLIC 'CODE'
_TEXT	ENDS
;	COMDAT ??_GPacketFactory@@UAEPAXI@Z
_TEXT	SEGMENT PARA USE32 PUBLIC 'CODE'
_TEXT	ENDS
;	COMDAT ??0GCAddItemToItemVerify@@QAE@XZ
_TEXT	SEGMENT PARA USE32 PUBLIC 'CODE'
_TEXT	ENDS
;	COMDAT ??1GCAddItemToItemVerify@@UAE@XZ
_TEXT	SEGMENT PARA USE32 PUBLIC 'CODE'
_TEXT	ENDS
;	COMDAT ?getPacketID@GCAddItemToItemVerify@@UBEGXZ
_TEXT	SEGMENT PARA USE32 PUBLIC 'CODE'
_TEXT	ENDS
;	COMDAT ??_GGCAddItemToItemVerify@@UAEPAXI@Z
_TEXT	SEGMENT PARA USE32 PUBLIC 'CODE'
_TEXT	ENDS
;	COMDAT ??0Packet@@QAE@XZ
_TEXT	SEGMENT PARA USE32 PUBLIC 'CODE'
_TEXT	ENDS
;	COMDAT ?read@GCAddItemToItemVerify@@UAEXAAVSocketInputStream@@@Z
_TEXT	SEGMENT PARA USE32 PUBLIC 'CODE'
_TEXT	ENDS
;	COMDAT ?write@GCAddItemToItemVerify@@UBEXAAVSocketOutputStream@@@Z
_TEXT	SEGMENT PARA USE32 PUBLIC 'CODE'
_TEXT	ENDS
;	COMDAT ?execute@GCAddItemToItemVerify@@UAEXPAVPlayer@@@Z
_TEXT	SEGMENT PARA USE32 PUBLIC 'CODE'
_TEXT	ENDS
;	COMDAT ?getPacketSize@GCAddItemToItemVerify@@UBEIXZ
_TEXT	SEGMENT PARA USE32 PUBLIC 'CODE'
_TEXT	ENDS
;	COMDAT ?eq@?$__char_traits_base@DH@_STL@@SA_NABD0@Z
_TEXT	SEGMENT PARA USE32 PUBLIC 'CODE'
_TEXT	ENDS
;	COMDAT ?not_eof@?$__char_traits_base@DH@_STL@@SAHABH@Z
_TEXT	SEGMENT PARA USE32 PUBLIC 'CODE'
_TEXT	ENDS
;	COMDAT ?eq_int_type@?$__char_traits_base@DH@_STL@@SA_NABH0@Z
_TEXT	SEGMENT PARA USE32 PUBLIC 'CODE'
_TEXT	ENDS
;	COMDAT ?get_allocator@?$basic_string@DV?$char_traits@D@_STL@@V?$allocator@D@2@@_STL@@QBE?AV?$allocator@D@2@XZ
_TEXT	SEGMENT PARA USE32 PUBLIC 'CODE'
_TEXT	ENDS
;	COMDAT ?_M_terminate_string@?$basic_string@DV?$char_traits@D@_STL@@V?$allocator@D@2@@_STL@@AAEXXZ
_TEXT	SEGMENT PARA USE32 PUBLIC 'CODE'
_TEXT	ENDS
;	COMDAT ?size@?$basic_string@DV?$char_traits@D@_STL@@V?$allocator@D@2@@_STL@@QBEIXZ
_TEXT	SEGMENT PARA USE32 PUBLIC 'CODE'
_TEXT	ENDS
;	COMDAT ?c_str@?$basic_string@DV?$char_traits@D@_STL@@V?$allocator@D@2@@_STL@@QBEPBDXZ
_TEXT	SEGMENT PARA USE32 PUBLIC 'CODE'
_TEXT	ENDS
;	COMDAT ??0?$_String_base@DV?$allocator@D@_STL@@@_STL@@QAE@ABV?$allocator@D@1@@Z
_TEXT	SEGMENT PARA USE32 PUBLIC 'CODE'
_TEXT	ENDS
;	COMDAT ?allocate@?$allocator@D@_STL@@QAEPADIPBX@Z
_TEXT	SEGMENT PARA USE32 PUBLIC 'CODE'
_TEXT	ENDS
;	COMDAT ??0?$allocator@G@_STL@@QAE@XZ
_TEXT	SEGMENT PARA USE32 PUBLIC 'CODE'
_TEXT	ENDS
;	COMDAT ??0?$fpos@H@_STL@@QAE@J@Z
_TEXT	SEGMENT PARA USE32 PUBLIC 'CODE'
_TEXT	ENDS
;	COMDAT ??B?$fpos@H@_STL@@QBEJXZ
_TEXT	SEGMENT PARA USE32 PUBLIC 'CODE'
_TEXT	ENDS
;	COMDAT ?state@?$fpos@H@_STL@@QBEHXZ
_TEXT	SEGMENT PARA USE32 PUBLIC 'CODE'
_TEXT	ENDS
;	COMDAT ?is_open@?$basic_filebuf@DV?$char_traits@D@_STL@@@_STL@@QBE_NXZ
_TEXT	SEGMENT PARA USE32 PUBLIC 'CODE'
_TEXT	ENDS
;	COMDAT ?_M_seek_return@?$basic_filebuf@DV?$char_traits@D@_STL@@@_STL@@AAE?AV?$fpos@H@2@JH@Z
_TEXT	SEGMENT PARA USE32 PUBLIC 'CODE'
_TEXT	ENDS
;	COMDAT ??0?$list@V?$basic_string@DV?$char_traits@D@_STL@@V?$allocator@D@2@@_STL@@V?$allocator@V?$basic_string@DV?$char_traits@D@_STL@@V?$allocator@D@2@@_STL@@@2@@_STL@@QAE@ABV01@@Z
_TEXT	SEGMENT PARA USE32 PUBLIC 'CODE'
_TEXT	ENDS
;	COMDAT ??0?$_Filebuf_Tmp_Buf@D@_STL@@QAE@H@Z
_TEXT	SEGMENT PARA USE32 PUBLIC 'CODE'
_TEXT	ENDS
;	COMDAT ??1?$_Filebuf_Tmp_Buf@D@_STL@@QAE@XZ
_TEXT	SEGMENT PARA USE32 PUBLIC 'CODE'
_TEXT	ENDS
;	COMDAT ??0?$list@GV?$allocator@G@_STL@@@_STL@@QAE@ABV?$allocator@G@1@@Z
_TEXT	SEGMENT PARA USE32 PUBLIC 'CODE'
_TEXT	ENDS
;	COMDAT ?begin@?$list@GV?$allocator@G@_STL@@@_STL@@QBE?AU?$_List_iterator@GU?$_Const_traits@G@_STL@@@2@XZ
_TEXT	SEGMENT PARA USE32 PUBLIC 'CODE'
_TEXT	ENDS
;	COMDAT ?end@?$list@GV?$allocator@G@_STL@@@_STL@@QBE?AU?$_List_iterator@GU?$_Const_traits@G@_STL@@@2@XZ
_TEXT	SEGMENT PARA USE32 PUBLIC 'CODE'
_TEXT	ENDS
;	COMDAT ?size@?$list@GV?$allocator@G@_STL@@@_STL@@QBEIXZ
_TEXT	SEGMENT PARA USE32 PUBLIC 'CODE'
_TEXT	ENDS
;	COMDAT ?push_back@?$list@GV?$allocator@G@_STL@@@_STL@@QAEXABG@Z
_TEXT	SEGMENT PARA USE32 PUBLIC 'CODE'
_TEXT	ENDS
;	COMDAT ??1?$list@GV?$allocator@G@_STL@@@_STL@@QAE@XZ
_TEXT	SEGMENT PARA USE32 PUBLIC 'CODE'
_TEXT	ENDS
;	COMDAT ??D?$_List_iterator@GU?$_Const_traits@G@_STL@@@_STL@@QBEABGXZ
_TEXT	SEGMENT PARA USE32 PUBLIC 'CODE'
_TEXT	ENDS
;	COMDAT ??E?$_List_iterator@GU?$_Const_traits@G@_STL@@@_STL@@QAE?AU01@H@Z
_TEXT	SEGMENT PARA USE32 PUBLIC 'CODE'
_TEXT	ENDS
;	COMDAT ?_M_terminate_string_aux@?$basic_string@DV?$char_traits@D@_STL@@V?$allocator@D@2@@_STL@@AAEXABU__true_type@2@@Z
_TEXT	SEGMENT PARA USE32 PUBLIC 'CODE'
_TEXT	ENDS
;	COMDAT ??0?$allocator@D@_STL@@QAE@ABV01@@Z
_TEXT	SEGMENT PARA USE32 PUBLIC 'CODE'
_TEXT	ENDS
;	COMDAT ??0?$_STLP_alloc_proxy@PADDV?$allocator@D@_STL@@@_STL@@QAE@ABV?$allocator@D@1@PAD@Z
_TEXT	SEGMENT PARA USE32 PUBLIC 'CODE'
_TEXT	ENDS
;	COMDAT ?state@?$fpos@H@_STL@@QAEXH@Z
_TEXT	SEGMENT PARA USE32 PUBLIC 'CODE'
_TEXT	ENDS
;	COMDAT ?get_allocator@?$_List_base@V?$basic_string@DV?$char_traits@D@_STL@@V?$allocator@D@2@@_STL@@V?$allocator@V?$basic_string@DV?$char_traits@D@_STL@@V?$allocator@D@2@@_STL@@@2@@_STL@@QBE?AV?$allocator@V?$basic_string@DV?$char_traits@D@_STL@@V?$allocator@D@2@@_STL@@@2@XZ
_TEXT	SEGMENT PARA USE32 PUBLIC 'CODE'
_TEXT	ENDS
;	COMDAT ?end@?$list@GV?$allocator@G@_STL@@@_STL@@QAE?AU?$_List_iterator@GU?$_Nonconst_traits@G@_STL@@@2@XZ
_TEXT	SEGMENT PARA USE32 PUBLIC 'CODE'
_TEXT	ENDS
;	COMDAT ?insert@?$list@GV?$allocator@G@_STL@@@_STL@@QAE?AU?$_List_iterator@GU?$_Nonconst_traits@G@_STL@@@2@U32@ABG@Z
_TEXT	SEGMENT PARA USE32 PUBLIC 'CODE'
_TEXT	ENDS
;	COMDAT ??0?$_List_base@GV?$allocator@G@_STL@@@_STL@@QAE@ABV?$allocator@G@1@@Z
_TEXT	SEGMENT PARA USE32 PUBLIC 'CODE'
_TEXT	ENDS
;	COMDAT ??1?$_List_base@GV?$allocator@G@_STL@@@_STL@@QAE@XZ
_TEXT	SEGMENT PARA USE32 PUBLIC 'CODE'
_TEXT	ENDS
;	COMDAT ??0?$_List_iterator@GU?$_Const_traits@G@_STL@@@_STL@@QAE@PAU?$_List_node@G@1@@Z
_TEXT	SEGMENT PARA USE32 PUBLIC 'CODE'
_TEXT	ENDS
;	COMDAT ??1?$_STLP_alloc_proxy@PAU?$_List_node@G@_STL@@U12@V?$allocator@U?$_List_node@G@_STL@@@2@@_STL@@QAE@XZ
_TEXT	SEGMENT PARA USE32 PUBLIC 'CODE'
_TEXT	ENDS
;	COMDAT ?_M_create_node@?$list@GV?$allocator@G@_STL@@@_STL@@IAEPAU?$_List_node@G@2@ABG@Z
_TEXT	SEGMENT PARA USE32 PUBLIC 'CODE'
_TEXT	ENDS
;	COMDAT ??0?$_STLP_alloc_proxy@PAU?$_List_node@G@_STL@@U12@V?$allocator@U?$_List_node@G@_STL@@@2@@_STL@@QAE@ABV?$allocator@U?$_List_node@G@_STL@@@1@PAU?$_List_node@G@1@@Z
_TEXT	SEGMENT PARA USE32 PUBLIC 'CODE'
_TEXT	ENDS
;	COMDAT ??1?$allocator@U?$_List_node@G@_STL@@@_STL@@QAE@XZ
_TEXT	SEGMENT PARA USE32 PUBLIC 'CODE'
_TEXT	ENDS
;	COMDAT ?allocate@?$allocator@U?$_List_node@G@_STL@@@_STL@@QAEPAU?$_List_node@G@2@IPBX@Z
_TEXT	SEGMENT PARA USE32 PUBLIC 'CODE'
_TEXT	ENDS
;	COMDAT ?deallocate@?$allocator@U?$_List_node@G@_STL@@@_STL@@QAEXPAU?$_List_node@G@2@I@Z
_TEXT	SEGMENT PARA USE32 PUBLIC 'CODE'
_TEXT	ENDS
;	COMDAT ??0?$_List_iterator@GU?$_Nonconst_traits@G@_STL@@@_STL@@QAE@PAU?$_List_node@G@1@@Z
_TEXT	SEGMENT PARA USE32 PUBLIC 'CODE'
_TEXT	ENDS
;	COMDAT ??0?$allocator@U?$_List_node@G@_STL@@@_STL@@QAE@ABV01@@Z
_TEXT	SEGMENT PARA USE32 PUBLIC 'CODE'
_TEXT	ENDS
;	COMDAT ??$_M_range_initialize@PBD@?$basic_string@DV?$char_traits@D@_STL@@V?$allocator@D@2@@_STL@@AAEXPBD0@Z
_TEXT	SEGMENT PARA USE32 PUBLIC 'CODE'
_TEXT	ENDS
;	COMDAT ??$_M_range_initialize@PAD@?$basic_string@DV?$char_traits@D@_STL@@V?$allocator@D@2@@_STL@@AAEXPAD0@Z
_TEXT	SEGMENT PARA USE32 PUBLIC 'CODE'
_TEXT	ENDS
;	COMDAT ?close@?$basic_filebuf@DV?$char_traits@D@_STL@@@_STL@@QAEPAV12@XZ
_TEXT	SEGMENT PARA USE32 PUBLIC 'CODE'
_TEXT	ENDS
;	COMDAT ?_M_exit_input_mode@?$basic_filebuf@DV?$char_traits@D@_STL@@@_STL@@AAEXXZ
_TEXT	SEGMENT PARA USE32 PUBLIC 'CODE'
_TEXT	ENDS
;	COMDAT ?_M_switch_to_output_mode@?$basic_filebuf@DV?$char_traits@D@_STL@@@_STL@@AAE_NXZ
_TEXT	SEGMENT PARA USE32 PUBLIC 'CODE'
_TEXT	ENDS
;	COMDAT ?_M_output_error@?$basic_filebuf@DV?$char_traits@D@_STL@@@_STL@@AAEHXZ
_TEXT	SEGMENT PARA USE32 PUBLIC 'CODE'
_TEXT	ENDS
;	COMDAT ?_M_allocate_buffers@?$basic_filebuf@DV?$char_traits@D@_STL@@@_STL@@AAE_NPADH@Z
_TEXT	SEGMENT PARA USE32 PUBLIC 'CODE'
_TEXT	ENDS
;	COMDAT ?_M_deallocate_buffers@?$basic_filebuf@DV?$char_traits@D@_STL@@@_STL@@AAEXXZ
_TEXT	SEGMENT PARA USE32 PUBLIC 'CODE'
_TEXT	ENDS
;	COMDAT ?_M_seek_init@?$basic_filebuf@DV?$char_traits@D@_STL@@@_STL@@AAE_N_N@Z
_TEXT	SEGMENT PARA USE32 PUBLIC 'CODE'
_TEXT	ENDS
;	COMDAT ?_M_setup_codecvt@?$basic_filebuf@DV?$char_traits@D@_STL@@@_STL@@AAEXABVlocale@2@@Z
_TEXT	SEGMENT PARA USE32 PUBLIC 'CODE'
_TEXT	ENDS
;	COMDAT ??$equal@PADPADU?$_Eq_traits@V?$char_traits@D@_STL@@@_STL@@@_STL@@YA_NPAD00U?$_Eq_traits@V?$char_traits@D@_STL@@@0@@Z
_TEXT	SEGMENT PARA USE32 PUBLIC 'CODE'
_TEXT	ENDS
;	COMDAT ??$_Destroy@V?$basic_string@DV?$char_traits@D@_STL@@V?$allocator@D@2@@_STL@@@_STL@@YAXPAV?$basic_string@DV?$char_traits@D@_STL@@V?$allocator@D@2@@0@@Z
_TEXT	SEGMENT PARA USE32 PUBLIC 'CODE'
_TEXT	ENDS
;	COMDAT ??$_M_assign_dispatch@PAD@?$basic_string@DV?$char_traits@D@_STL@@V?$allocator@D@2@@_STL@@AAEAAV01@PAD0ABU__false_type@1@@Z
_TEXT	SEGMENT PARA USE32 PUBLIC 'CODE'
_TEXT	ENDS
;	COMDAT ?clear@?$_List_base@GV?$allocator@G@_STL@@@_STL@@QAEXXZ
_TEXT	SEGMENT PARA USE32 PUBLIC 'CODE'
_TEXT	ENDS
;	COMDAT ??4?$list@GV?$allocator@G@_STL@@@_STL@@QAEAAV01@ABV01@@Z
_TEXT	SEGMENT PARA USE32 PUBLIC 'CODE'
_TEXT	ENDS
;	COMDAT ??$insert@U?$_List_iterator@V?$basic_string@DV?$char_traits@D@_STL@@V?$allocator@D@2@@_STL@@U?$_Const_traits@V?$basic_string@DV?$char_traits@D@_STL@@V?$allocator@D@2@@_STL@@@2@@_STL@@@?$list@V?$basic_string@DV?$char_traits@D@_STL@@V?$allocator@D@2@@_STL@@V?$allocator@V?$basic_string@DV?$char_traits@D@_STL@@V?$allocator@D@2@@_STL@@@2@@_STL@@QAEXU?$_List_iterator@V?$basic_string@DV?$char_traits@D@_STL@@V?$allocator@D@2@@_STL@@U?$_Nonconst_traits@V?$basic_string@DV?$char_traits@D@_STL@@V?$allocator@D@2@@_STL@@@2@@1@U?$_List_iterator@V?$basic_string@DV?$char_traits@D@_STL@@V?$allocator@D@2@@_STL@@U?$_Const_traits@V?$basic_string@DV?$char_traits@D@_STL@@V?$allocator@D@2@@_STL@@@2@@1@1@Z
_TEXT	SEGMENT PARA USE32 PUBLIC 'CODE'
_TEXT	ENDS
;	COMDAT ??$distance@U?$_List_iterator@GU?$_Const_traits@G@_STL@@@_STL@@@_STL@@YAHABU?$_List_iterator@GU?$_Const_traits@G@_STL@@@0@0@Z
_TEXT	SEGMENT PARA USE32 PUBLIC 'CODE'
_TEXT	ENDS
;	COMDAT ??$?0U?$_List_node@V?$basic_string@DV?$char_traits@D@_STL@@V?$allocator@D@2@@_STL@@@_STL@@@?$allocator@V?$basic_string@DV?$char_traits@D@_STL@@V?$allocator@D@2@@_STL@@@_STL@@QAE@ABV?$allocator@U?$_List_node@V?$basic_string@DV?$char_traits@D@_STL@@V?$allocator@D@2@@_STL@@@_STL@@@1@@Z
_TEXT	SEGMENT PARA USE32 PUBLIC 'CODE'
_TEXT	ENDS
;	COMDAT ??$?0G@?$allocator@U?$_List_node@G@_STL@@@_STL@@QAE@ABV?$allocator@G@1@@Z
_TEXT	SEGMENT PARA USE32 PUBLIC 'CODE'
_TEXT	ENDS
;	COMDAT ??$_Construct@GG@_STL@@YAXPAGABG@Z
_TEXT	SEGMENT PARA USE32 PUBLIC 'CODE'
_TEXT	ENDS
;	COMDAT ??_G?$basic_string@DV?$char_traits@D@_STL@@V?$allocator@D@2@@_STL@@QAEPAXI@Z
_TEXT	SEGMENT PARA USE32 PUBLIC 'CODE'
_TEXT	ENDS
;	COMDAT ?end@?$basic_string@DV?$char_traits@D@_STL@@V?$allocator@D@2@@_STL@@QAEPADXZ
_TEXT	SEGMENT PARA USE32 PUBLIC 'CODE'
_TEXT	ENDS
;	COMDAT ?erase@?$basic_string@DV?$char_traits@D@_STL@@V?$allocator@D@2@@_STL@@QAEPADPAD0@Z
_TEXT	SEGMENT PARA USE32 PUBLIC 'CODE'
_TEXT	ENDS
;	COMDAT ?_M_exit_putback_mode@?$basic_filebuf@DV?$char_traits@D@_STL@@@_STL@@AAEXXZ
_TEXT	SEGMENT PARA USE32 PUBLIC 'CODE'
_TEXT	ENDS
;	COMDAT ??0?$_List_iterator@V?$basic_string@DV?$char_traits@D@_STL@@V?$allocator@D@2@@_STL@@U?$_Nonconst_traits@V?$basic_string@DV?$char_traits@D@_STL@@V?$allocator@D@2@@_STL@@@2@@_STL@@QAE@ABU01@@Z
_TEXT	SEGMENT PARA USE32 PUBLIC 'CODE'
_TEXT	ENDS
;	COMDAT ??R?$_Eq_traits@V?$char_traits@D@_STL@@@_STL@@QBE_NABD0@Z
_TEXT	SEGMENT PARA USE32 PUBLIC 'CODE'
_TEXT	ENDS
;	COMDAT ?begin@?$list@GV?$allocator@G@_STL@@@_STL@@QAE?AU?$_List_iterator@GU?$_Nonconst_traits@G@_STL@@@2@XZ
_TEXT	SEGMENT PARA USE32 PUBLIC 'CODE'
_TEXT	ENDS
;	COMDAT ?erase@?$list@GV?$allocator@G@_STL@@@_STL@@QAE?AU?$_List_iterator@GU?$_Nonconst_traits@G@_STL@@@2@U32@0@Z
_TEXT	SEGMENT PARA USE32 PUBLIC 'CODE'
_TEXT	ENDS
;	COMDAT ??0?$_List_iterator@GU?$_Nonconst_traits@G@_STL@@@_STL@@QAE@ABU01@@Z
_TEXT	SEGMENT PARA USE32 PUBLIC 'CODE'
_TEXT	ENDS
;	COMDAT ??D?$_List_iterator@GU?$_Nonconst_traits@G@_STL@@@_STL@@QBEAAGXZ
_TEXT	SEGMENT PARA USE32 PUBLIC 'CODE'
_TEXT	ENDS
;	COMDAT ??E?$_List_iterator@GU?$_Nonconst_traits@G@_STL@@@_STL@@QAE?AU01@H@Z
_TEXT	SEGMENT PARA USE32 PUBLIC 'CODE'
_TEXT	ENDS
;	COMDAT ?move@?$__char_traits_base@DH@_STL@@SAPADPADPBDI@Z
_TEXT	SEGMENT PARA USE32 PUBLIC 'CODE'
_TEXT	ENDS
;	COMDAT ?erase@?$list@GV?$allocator@G@_STL@@@_STL@@QAE?AU?$_List_iterator@GU?$_Nonconst_traits@G@_STL@@@2@U32@@Z
_TEXT	SEGMENT PARA USE32 PUBLIC 'CODE'
_TEXT	ENDS
;	COMDAT ??$_M_range_initialize@PBD@?$basic_string@DV?$char_traits@D@_STL@@V?$allocator@D@2@@_STL@@AAEXPBD0ABUforward_iterator_tag@1@@Z
_TEXT	SEGMENT PARA USE32 PUBLIC 'CODE'
_TEXT	ENDS
;	COMDAT ??$_M_range_initialize@PAD@?$basic_string@DV?$char_traits@D@_STL@@V?$allocator@D@2@@_STL@@AAEXPAD0ABUforward_iterator_tag@1@@Z
_TEXT	SEGMENT PARA USE32 PUBLIC 'CODE'
_TEXT	ENDS
;	COMDAT ?_M_unshift@?$basic_filebuf@DV?$char_traits@D@_STL@@@_STL@@AAE_NXZ
_TEXT	SEGMENT PARA USE32 PUBLIC 'CODE'
_TEXT	ENDS
;	COMDAT ?_M_allocate_buffers@?$basic_filebuf@DV?$char_traits@D@_STL@@@_STL@@AAE_NXZ
_TEXT	SEGMENT PARA USE32 PUBLIC 'CODE'
_TEXT	ENDS
;	COMDAT ??$max@H@_STL@@YAABHABH0@Z
_TEXT	SEGMENT PARA USE32 PUBLIC 'CODE'
_TEXT	ENDS
;	COMDAT ??$use_facet@V?$codecvt@DDH@_STL@@@_STL@@YAABV?$codecvt@DDH@0@ABVlocale@0@@Z
_TEXT	SEGMENT PARA USE32 PUBLIC 'CODE'
_TEXT	ENDS
;	COMDAT ??$append@PAD@?$basic_string@DV?$char_traits@D@_STL@@V?$allocator@D@2@@_STL@@QAEAAV01@PAD0@Z
_TEXT	SEGMENT PARA USE32 PUBLIC 'CODE'
_TEXT	ENDS
;	COMDAT ??$_Destroy@G@_STL@@YAXPAG@Z
_TEXT	SEGMENT PARA USE32 PUBLIC 'CODE'
_TEXT	ENDS
;	COMDAT ??$insert@U?$_List_iterator@GU?$_Const_traits@G@_STL@@@_STL@@@?$list@GV?$allocator@G@_STL@@@_STL@@QAEXU?$_List_iterator@GU?$_Nonconst_traits@G@_STL@@@1@U?$_List_iterator@GU?$_Const_traits@G@_STL@@@1@1@Z
_TEXT	SEGMENT PARA USE32 PUBLIC 'CODE'
_TEXT	ENDS
;	COMDAT ??$_M_insert_dispatch@U?$_List_iterator@V?$basic_string@DV?$char_traits@D@_STL@@V?$allocator@D@2@@_STL@@U?$_Const_traits@V?$basic_string@DV?$char_traits@D@_STL@@V?$allocator@D@2@@_STL@@@2@@_STL@@@?$list@V?$basic_string@DV?$char_traits@D@_STL@@V?$allocator@D@2@@_STL@@V?$allocator@V?$basic_string@DV?$char_traits@D@_STL@@V?$allocator@D@2@@_STL@@@2@@_STL@@QAEXU?$_List_iterator@V?$basic_string@DV?$char_traits@D@_STL@@V?$allocator@D@2@@_STL@@U?$_Nonconst_traits@V?$basic_string@DV?$char_traits@D@_STL@@V?$allocator@D@2@@_STL@@@2@@1@U?$_List_iterator@V?$basic_string@DV?$char_traits@D@_STL@@V?$allocator@D@2@@_STL@@U?$_Const_traits@V?$basic_string@DV?$char_traits@D@_STL@@V?$allocator@D@2@@_STL@@@2@@1@1ABU__false_type@1@@Z
_TEXT	SEGMENT PARA USE32 PUBLIC 'CODE'
_TEXT	ENDS
;	COMDAT ??$__distance@U?$_List_iterator@GU?$_Const_traits@G@_STL@@@_STL@@@_STL@@YAHABU?$_List_iterator@GU?$_Const_traits@G@_STL@@@0@0ABUinput_iterator_tag@0@@Z
_TEXT	SEGMENT PARA USE32 PUBLIC 'CODE'
_TEXT	ENDS
;	COMDAT ??E?$_List_iterator@V?$basic_string@DV?$char_traits@D@_STL@@V?$allocator@D@2@@_STL@@U?$_Const_traits@V?$basic_string@DV?$char_traits@D@_STL@@V?$allocator@D@2@@_STL@@@2@@_STL@@QAEAAU01@XZ
_TEXT	SEGMENT PARA USE32 PUBLIC 'CODE'
_TEXT	ENDS
;	COMDAT ??E?$_List_iterator@GU?$_Const_traits@G@_STL@@@_STL@@QAEAAU01@XZ
_TEXT	SEGMENT PARA USE32 PUBLIC 'CODE'
_TEXT	ENDS
;	COMDAT ??$distance@PBD@_STL@@YAHABQBD0@Z
_TEXT	SEGMENT PARA USE32 PUBLIC 'CODE'
_TEXT	ENDS
;	COMDAT ?_M_allocate_block@?$_String_base@DV?$allocator@D@_STL@@@_STL@@QAEXI@Z
_TEXT	SEGMENT PARA USE32 PUBLIC 'CODE'
_TEXT	ENDS
;	COMDAT ??$distance@PAD@_STL@@YAHABQAD0@Z
_TEXT	SEGMENT PARA USE32 PUBLIC 'CODE'
_TEXT	ENDS
;	COMDAT ??$uninitialized_copy@PADPAD@_STL@@YAPADPAD00@Z
_TEXT	SEGMENT PARA USE32 PUBLIC 'CODE'
_TEXT	ENDS
;	COMDAT ??$_M_append_dispatch@PAD@?$basic_string@DV?$char_traits@D@_STL@@V?$allocator@D@2@@_STL@@AAEAAV01@PAD0ABU__false_type@1@@Z
_TEXT	SEGMENT PARA USE32 PUBLIC 'CODE'
_TEXT	ENDS
;	COMDAT ??$_M_insert_dispatch@U?$_List_iterator@GU?$_Const_traits@G@_STL@@@_STL@@@?$list@GV?$allocator@G@_STL@@@_STL@@QAEXU?$_List_iterator@GU?$_Nonconst_traits@G@_STL@@@1@U?$_List_iterator@GU?$_Const_traits@G@_STL@@@1@1ABU__false_type@1@@Z
_TEXT	SEGMENT PARA USE32 PUBLIC 'CODE'
_TEXT	ENDS
;	COMDAT ?max_size@?$_String_base@DV?$allocator@D@_STL@@@_STL@@QBEIXZ
_TEXT	SEGMENT PARA USE32 PUBLIC 'CODE'
_TEXT	ENDS
;	COMDAT ??$__distance@PBD@_STL@@YAHABQBD0ABUrandom_access_iterator_tag@0@@Z
_TEXT	SEGMENT PARA USE32 PUBLIC 'CODE'
_TEXT	ENDS
;	COMDAT ?_M_throw_length_error@?$_String_base@DV?$allocator@D@_STL@@@_STL@@QBEXXZ
_TEXT	SEGMENT PARA USE32 PUBLIC 'CODE'
_TEXT	ENDS
;	COMDAT ??$__distance@PAD@_STL@@YAHABQAD0ABUrandom_access_iterator_tag@0@@Z
_TEXT	SEGMENT PARA USE32 PUBLIC 'CODE'
_TEXT	ENDS
;	COMDAT ??$__uninitialized_copy@PADPAD@_STL@@YAPADPAD00ABU__true_type@0@@Z
_TEXT	SEGMENT PARA USE32 PUBLIC 'CODE'
_TEXT	ENDS
;	COMDAT ??$append@PAD@?$basic_string@DV?$char_traits@D@_STL@@V?$allocator@D@2@@_STL@@AAEAAV01@PAD0ABUforward_iterator_tag@1@@Z
_TEXT	SEGMENT PARA USE32 PUBLIC 'CODE'
_TEXT	ENDS
;	COMDAT ?_M_construct_null@?$basic_string@DV?$char_traits@D@_STL@@V?$allocator@D@2@@_STL@@AAEXPAD@Z
_TEXT	SEGMENT PARA USE32 PUBLIC 'CODE'
_TEXT	ENDS
;	COMDAT ?max_size@?$basic_string@DV?$char_traits@D@_STL@@V?$allocator@D@2@@_STL@@QBEIXZ
_TEXT	SEGMENT PARA USE32 PUBLIC 'CODE'
_TEXT	ENDS
;	COMDAT ?capacity@?$basic_string@DV?$char_traits@D@_STL@@V?$allocator@D@2@@_STL@@QBEIXZ
_TEXT	SEGMENT PARA USE32 PUBLIC 'CODE'
_TEXT	ENDS
;	COMDAT ?_Ret@?$_BothPtrType@PADPAD@_STL@@SA?AU__true_type@2@XZ
_TEXT	SEGMENT PARA USE32 PUBLIC 'CODE'
_TEXT	ENDS
;	COMDAT ?_M_construct_null_aux@?$basic_string@DV?$char_traits@D@_STL@@V?$allocator@D@2@@_STL@@AAEXPADABU__true_type@2@@Z
_TEXT	SEGMENT PARA USE32 PUBLIC 'CODE'
_TEXT	ENDS
;	COMDAT ??$__copy_aux@PADPAD@_STL@@YAPADPAD00ABU__true_type@0@@Z
_TEXT	SEGMENT PARA USE32 PUBLIC 'CODE'
_TEXT	ENDS
;	COMDAT ??$max@I@_STL@@YAABIABI0@Z
_TEXT	SEGMENT PARA USE32 PUBLIC 'CODE'
_TEXT	ENDS
;	COMDAT ?_Ret@?$_OKToMemCpy@DD@_STL@@SA?AU__true_type@2@XZ
_TEXT	SEGMENT PARA USE32 PUBLIC 'CODE'
_TEXT	ENDS
;	COMDAT ??$_IsOKToMemCpy@DD@_STL@@YA?AU?$_OKToMemCpy@DD@0@PAD0@Z
_TEXT	SEGMENT PARA USE32 PUBLIC 'CODE'
_TEXT	ENDS
;	COMDAT ??$__copy_ptrs@PADPAD@_STL@@YAPADPAD00ABU__true_type@0@@Z
_TEXT	SEGMENT PARA USE32 PUBLIC 'CODE'
_TEXT	ENDS
;	COMDAT ??_R3Packet@@8
rdata$r	SEGMENT DWORD USE32 PUBLIC 'CONST'
rdata$r	ENDS
;	COMDAT ??_R3GCAddItemToItemVerify@@8
rdata$r	SEGMENT DWORD USE32 PUBLIC 'CONST'
rdata$r	ENDS
;	COMDAT ??_R3PacketFactory@@8
rdata$r	SEGMENT DWORD USE32 PUBLIC 'CONST'
rdata$r	ENDS
;	COMDAT ??_R2Packet@@8
rdata$r	SEGMENT DWORD USE32 PUBLIC 'CONST'
rdata$r	ENDS
;	COMDAT ??_R2GCAddItemToItemVerify@@8
rdata$r	SEGMENT DWORD USE32 PUBLIC 'CONST'
rdata$r	ENDS
;	COMDAT ??_R2PacketFactory@@8
rdata$r	SEGMENT DWORD USE32 PUBLIC 'CONST'
rdata$r	ENDS
;	COMDAT ??_R1A@?0A@A@Packet@@8
rdata$r	SEGMENT DWORD USE32 PUBLIC 'CONST'
rdata$r	ENDS
;	COMDAT ??_R1A@?0A@A@GCAddItemToItemVerify@@8
rdata$r	SEGMENT DWORD USE32 PUBLIC 'CONST'
rdata$r	ENDS
;	COMDAT ??_R1A@?0A@A@PacketFactory@@8
rdata$r	SEGMENT DWORD USE32 PUBLIC 'CONST'
rdata$r	ENDS
;	COMDAT ??_R0?AVPacket@@@8
_DATA	SEGMENT DWORD USE32 PUBLIC 'DATA'
_DATA	ENDS
;	COMDAT ??_R0?AVGCAddItemToItemVerify@@@8
_DATA	SEGMENT DWORD USE32 PUBLIC 'DATA'
_DATA	ENDS
;	COMDAT ??_R0?AVPacketFactory@@@8
_DATA	SEGMENT DWORD USE32 PUBLIC 'DATA'
_DATA	ENDS
;	COMDAT ??_R4Packet@@6B@
rdata$r	SEGMENT DWORD USE32 PUBLIC 'CONST'
rdata$r	ENDS
;	COMDAT ??_R4GCAddItemToItemVerify@@6B@
rdata$r	SEGMENT DWORD USE32 PUBLIC 'CONST'
rdata$r	ENDS
;	COMDAT ??_R4PacketFactory@@6B@
rdata$r	SEGMENT DWORD USE32 PUBLIC 'CONST'
rdata$r	ENDS
;	COMDAT ?__copy_trivial@_STL@@YAPAXPBX0PAX@Z
_TEXT	SEGMENT PARA USE32 PUBLIC 'CODE'
_TEXT	ENDS
;	COMDAT ?_M_deallocate_block@?$_String_base@DV?$allocator@D@_STL@@@_STL@@QAEXXZ
_TEXT	SEGMENT PARA USE32 PUBLIC 'CODE'
_TEXT	ENDS
;	COMDAT ?deallocate@?$allocator@D@_STL@@QAEXPADI@Z
_TEXT	SEGMENT PARA USE32 PUBLIC 'CODE'
_TEXT	ENDS
;	COMDAT ??D?$_List_iterator@V?$basic_string@DV?$char_traits@D@_STL@@V?$allocator@D@2@@_STL@@U?$_Const_traits@V?$basic_string@DV?$char_traits@D@_STL@@V?$allocator@D@2@@_STL@@@2@@_STL@@QBEABV?$basic_string@DV?$char_traits@D@_STL@@V?$allocator@D@2@@1@XZ
_TEXT	SEGMENT PARA USE32 PUBLIC 'CODE'
_TEXT	ENDS
;	COMDAT ?insert@?$list@V?$basic_string@DV?$char_traits@D@_STL@@V?$allocator@D@2@@_STL@@V?$allocator@V?$basic_string@DV?$char_traits@D@_STL@@V?$allocator@D@2@@_STL@@@2@@_STL@@QAE?AU?$_List_iterator@V?$basic_string@DV?$char_traits@D@_STL@@V?$allocator@D@2@@_STL@@U?$_Nonconst_traits@V?$basic_string@DV?$char_traits@D@_STL@@V?$allocator@D@2@@_STL@@@2@@2@U32@ABV?$basic_string@DV?$char_traits@D@_STL@@V?$allocator@D@2@@2@@Z
_TEXT	SEGMENT PARA USE32 PUBLIC 'CODE'
_TEXT	ENDS
;	COMDAT ?_M_create_node@?$list@V?$basic_string@DV?$char_traits@D@_STL@@V?$allocator@D@2@@_STL@@V?$allocator@V?$basic_string@DV?$char_traits@D@_STL@@V?$allocator@D@2@@_STL@@@2@@_STL@@IAEPAU?$_List_node@V?$basic_string@DV?$char_traits@D@_STL@@V?$allocator@D@2@@_STL@@@2@ABV?$basic_string@DV?$char_traits@D@_STL@@V?$allocator@D@2@@2@@Z
_TEXT	SEGMENT PARA USE32 PUBLIC 'CODE'
_TEXT	ENDS
;	COMDAT ?allocate@?$allocator@U?$_List_node@V?$basic_string@DV?$char_traits@D@_STL@@V?$allocator@D@2@@_STL@@@_STL@@@_STL@@QAEPAU?$_List_node@V?$basic_string@DV?$char_traits@D@_STL@@V?$allocator@D@2@@_STL@@@2@IPBX@Z
_TEXT	SEGMENT PARA USE32 PUBLIC 'CODE'
_TEXT	ENDS
;	COMDAT ??$_Construct@V?$basic_string@DV?$char_traits@D@_STL@@V?$allocator@D@2@@_STL@@V12@@_STL@@YAXPAV?$basic_string@DV?$char_traits@D@_STL@@V?$allocator@D@2@@0@ABV10@@Z
_TEXT	SEGMENT PARA USE32 PUBLIC 'CODE'
_TEXT	ENDS
;	COMDAT ??3@YAXPAX0@Z
_TEXT	SEGMENT PARA USE32 PUBLIC 'CODE'
_TEXT	ENDS
;	COMDAT ?deallocate@?$allocator@U?$_List_node@V?$basic_string@DV?$char_traits@D@_STL@@V?$allocator@D@2@@_STL@@@_STL@@@_STL@@QAEXPAU?$_List_node@V?$basic_string@DV?$char_traits@D@_STL@@V?$allocator@D@2@@_STL@@@2@I@Z
_TEXT	SEGMENT PARA USE32 PUBLIC 'CODE'
_TEXT	ENDS
;	COMDAT ??0?$_List_iterator@V?$basic_string@DV?$char_traits@D@_STL@@V?$allocator@D@2@@_STL@@U?$_Nonconst_traits@V?$basic_string@DV?$char_traits@D@_STL@@V?$allocator@D@2@@_STL@@@2@@_STL@@QAE@PAU?$_List_node@V?$basic_string@DV?$char_traits@D@_STL@@V?$allocator@D@2@@_STL@@@1@@Z
_TEXT	SEGMENT PARA USE32 PUBLIC 'CODE'
_TEXT	ENDS
;	COMDAT ?__page_size@_Filebuf_base@_STL@@SAIXZ
_TEXT	SEGMENT PARA USE32 PUBLIC 'CODE'
_TEXT	ENDS
;	COMDAT ?_M_write@?$basic_filebuf@DV?$char_traits@D@_STL@@@_STL@@QAE_NPADH@Z
_TEXT	SEGMENT PARA USE32 PUBLIC 'CODE'
_TEXT	ENDS
;	COMDAT ?unshift@?$codecvt@DDH@_STL@@QBE?AW4result@codecvt_base@2@AAHPAD1AAPAD@Z
_TEXT	SEGMENT PARA USE32 PUBLIC 'CODE'
_TEXT	ENDS
;	COMDAT ?uninitialized_copy@_STL@@YAPADPBD0PAD@Z
_TEXT	SEGMENT PARA USE32 PUBLIC 'CODE'
_TEXT	ENDS
;	COMDAT ?_Destroy@_STL@@YAXPAD0@Z
_TEXT	SEGMENT PARA USE32 PUBLIC 'CODE'
_TEXT	ENDS
;	COMDAT ??2@YAPAXIPAX@Z
_TEXT	SEGMENT PARA USE32 PUBLIC 'CODE'
_TEXT	ENDS
;	COMDAT ??8_List_iterator_base@_STL@@QBE_NABU01@@Z
_TEXT	SEGMENT PARA USE32 PUBLIC 'CODE'
_TEXT	ENDS
;	COMDAT ?assign@?$char_traits@D@_STL@@SAXAADABD@Z
_TEXT	SEGMENT PARA USE32 PUBLIC 'CODE'
_TEXT	ENDS
;	COMDAT ?always_noconv@?$codecvt@DDH@_STL@@QBE_NXZ
_TEXT	SEGMENT PARA USE32 PUBLIC 'CODE'
_TEXT	ENDS
;	COMDAT ?encoding@?$codecvt@DDH@_STL@@QBEHXZ
_TEXT	SEGMENT PARA USE32 PUBLIC 'CODE'
_TEXT	ENDS
;	COMDAT ?max_length@?$codecvt@DDH@_STL@@QBEHXZ
_TEXT	SEGMENT PARA USE32 PUBLIC 'CODE'
_TEXT	ENDS
;	COMDAT ?__o_mode@_Filebuf_base@_STL@@QBEHXZ
_TEXT	SEGMENT PARA USE32 PUBLIC 'CODE'
_TEXT	ENDS
;	COMDAT ?deallocate@?$__node_alloc@$00$0A@@_STL@@SAXPAXI@Z
_TEXT	SEGMENT PARA USE32 PUBLIC 'CODE'
_TEXT	ENDS
;	COMDAT ?__stl_delete@_STL@@YAXPAX@Z
_TEXT	SEGMENT PARA USE32 PUBLIC 'CODE'
_TEXT	ENDS
;	COMDAT ??0_List_iterator_base@_STL@@QAE@PAU_List_node_base@1@@Z
_TEXT	SEGMENT PARA USE32 PUBLIC 'CODE'
_TEXT	ENDS
;	COMDAT ?_M_incr@_List_iterator_base@_STL@@QAEXXZ
_TEXT	SEGMENT PARA USE32 PUBLIC 'CODE'
_TEXT	ENDS
;	COMDAT ?begin@?$list@V?$basic_string@DV?$char_traits@D@_STL@@V?$allocator@D@2@@_STL@@V?$allocator@V?$basic_string@DV?$char_traits@D@_STL@@V?$allocator@D@2@@_STL@@@2@@_STL@@QAE?AU?$_List_iterator@V?$basic_string@DV?$char_traits@D@_STL@@V?$allocator@D@2@@_STL@@U?$_Nonconst_traits@V?$basic_string@DV?$char_traits@D@_STL@@V?$allocator@D@2@@_STL@@@2@@2@XZ
_TEXT	SEGMENT PARA USE32 PUBLIC 'CODE'
_TEXT	ENDS
;	COMDAT ?begin@?$list@V?$basic_string@DV?$char_traits@D@_STL@@V?$allocator@D@2@@_STL@@V?$allocator@V?$basic_string@DV?$char_traits@D@_STL@@V?$allocator@D@2@@_STL@@@2@@_STL@@QBE?AU?$_List_iterator@V?$basic_string@DV?$char_traits@D@_STL@@V?$allocator@D@2@@_STL@@U?$_Const_traits@V?$basic_string@DV?$char_traits@D@_STL@@V?$allocator@D@2@@_STL@@@2@@2@XZ
_TEXT	SEGMENT PARA USE32 PUBLIC 'CODE'
_TEXT	ENDS
;	COMDAT ??0?$_List_iterator@V?$basic_string@DV?$char_traits@D@_STL@@V?$allocator@D@2@@_STL@@U?$_Const_traits@V?$basic_string@DV?$char_traits@D@_STL@@V?$allocator@D@2@@_STL@@@2@@_STL@@QAE@PAU?$_List_node@V?$basic_string@DV?$char_traits@D@_STL@@V?$allocator@D@2@@_STL@@@1@@Z
_TEXT	SEGMENT PARA USE32 PUBLIC 'CODE'
_TEXT	ENDS
;	COMDAT ?end@?$list@V?$basic_string@DV?$char_traits@D@_STL@@V?$allocator@D@2@@_STL@@V?$allocator@V?$basic_string@DV?$char_traits@D@_STL@@V?$allocator@D@2@@_STL@@@2@@_STL@@QBE?AU?$_List_iterator@V?$basic_string@DV?$char_traits@D@_STL@@V?$allocator@D@2@@_STL@@U?$_Const_traits@V?$basic_string@DV?$char_traits@D@_STL@@V?$allocator@D@2@@_STL@@@2@@2@XZ
_TEXT	SEGMENT PARA USE32 PUBLIC 'CODE'
_TEXT	ENDS
;	COMDAT ??1?$_List_base@V?$basic_string@DV?$char_traits@D@_STL@@V?$allocator@D@2@@_STL@@V?$allocator@V?$basic_string@DV?$char_traits@D@_STL@@V?$allocator@D@2@@_STL@@@2@@_STL@@QAE@XZ
_TEXT	SEGMENT PARA USE32 PUBLIC 'CODE'
_TEXT	ENDS
;	COMDAT ??1?$_STLP_alloc_proxy@PAU?$_List_node@V?$basic_string@DV?$char_traits@D@_STL@@V?$allocator@D@2@@_STL@@@_STL@@U12@V?$allocator@U?$_List_node@V?$basic_string@DV?$char_traits@D@_STL@@V?$allocator@D@2@@_STL@@@_STL@@@2@@_STL@@QAE@XZ
_TEXT	SEGMENT PARA USE32 PUBLIC 'CODE'
_TEXT	ENDS
;	COMDAT ??1?$allocator@U?$_List_node@V?$basic_string@DV?$char_traits@D@_STL@@V?$allocator@D@2@@_STL@@@_STL@@@_STL@@QAE@XZ
_TEXT	SEGMENT PARA USE32 PUBLIC 'CODE'
_TEXT	ENDS
;	COMDAT ?clear@?$_List_base@V?$basic_string@DV?$char_traits@D@_STL@@V?$allocator@D@2@@_STL@@V?$allocator@V?$basic_string@DV?$char_traits@D@_STL@@V?$allocator@D@2@@_STL@@@2@@_STL@@QAEXXZ
_TEXT	SEGMENT PARA USE32 PUBLIC 'CODE'
_TEXT	ENDS
;	COMDAT ??1?$allocator@V?$basic_string@DV?$char_traits@D@_STL@@V?$allocator@D@2@@_STL@@@_STL@@QAE@XZ
_TEXT	SEGMENT PARA USE32 PUBLIC 'CODE'
_TEXT	ENDS
;	COMDAT ??0?$_List_base@V?$basic_string@DV?$char_traits@D@_STL@@V?$allocator@D@2@@_STL@@V?$allocator@V?$basic_string@DV?$char_traits@D@_STL@@V?$allocator@D@2@@_STL@@@2@@_STL@@QAE@ABV?$allocator@V?$basic_string@DV?$char_traits@D@_STL@@V?$allocator@D@2@@_STL@@@1@@Z
_TEXT	SEGMENT PARA USE32 PUBLIC 'CODE'
_TEXT	ENDS
;	COMDAT ??0?$_STLP_alloc_proxy@PAU?$_List_node@V?$basic_string@DV?$char_traits@D@_STL@@V?$allocator@D@2@@_STL@@@_STL@@U12@V?$allocator@U?$_List_node@V?$basic_string@DV?$char_traits@D@_STL@@V?$allocator@D@2@@_STL@@@_STL@@@2@@_STL@@QAE@ABV?$allocator@U?$_List_node@V?$basic_string@DV?$char_traits@D@_STL@@V?$allocator@D@2@@_STL@@@_STL@@@1@PAU?$_List_node@V?$basic_string@DV?$char_traits@D@_STL@@V?$allocator@D@2@@_STL@@@1@@Z
_TEXT	SEGMENT PARA USE32 PUBLIC 'CODE'
_TEXT	ENDS
;	COMDAT ??0?$allocator@U?$_List_node@V?$basic_string@DV?$char_traits@D@_STL@@V?$allocator@D@2@@_STL@@@_STL@@@_STL@@QAE@ABV01@@Z
_TEXT	SEGMENT PARA USE32 PUBLIC 'CODE'
_TEXT	ENDS
;	COMDAT ??$?0V?$basic_string@DV?$char_traits@D@_STL@@V?$allocator@D@2@@_STL@@@?$allocator@U?$_List_node@V?$basic_string@DV?$char_traits@D@_STL@@V?$allocator@D@2@@_STL@@@_STL@@@_STL@@QAE@ABV?$allocator@V?$basic_string@DV?$char_traits@D@_STL@@V?$allocator@D@2@@_STL@@@1@@Z
_TEXT	SEGMENT PARA USE32 PUBLIC 'CODE'
_TEXT	ENDS
;	COMDAT ?setp@?$basic_streambuf@DV?$char_traits@D@_STL@@@_STL@@IAEXPAD0@Z
_TEXT	SEGMENT PARA USE32 PUBLIC 'CODE'
_TEXT	ENDS
;	COMDAT ?_FILE_O_set@_STL@@YAXPAU_iobuf@@PAD11@Z
_TEXT	SEGMENT PARA USE32 PUBLIC 'CODE'
_TEXT	ENDS
;	COMDAT ?_FILE_I_set@_STL@@YAXPAU_iobuf@@PAD11@Z
_TEXT	SEGMENT PARA USE32 PUBLIC 'CODE'
_TEXT	ENDS
;	COMDAT ?setg@?$basic_streambuf@DV?$char_traits@D@_STL@@@_STL@@IAEXPAD00@Z
_TEXT	SEGMENT PARA USE32 PUBLIC 'CODE'
_TEXT	ENDS
;	COMDAT ?__is_open@_Filebuf_base@_STL@@QBE_NXZ
_TEXT	SEGMENT PARA USE32 PUBLIC 'CODE'
_TEXT	ENDS
;	COMDAT ?allocate@?$__node_alloc@$00$0A@@_STL@@SAPAXI@Z
_TEXT	SEGMENT PARA USE32 PUBLIC 'CODE'
_TEXT	ENDS
;	COMDAT ?__stl_new@_STL@@YAPAXI@Z
_TEXT	SEGMENT PARA USE32 PUBLIC 'CODE'
_TEXT	ENDS
;	COMDAT ??1?$_STLP_alloc_proxy@PADDV?$allocator@D@_STL@@@_STL@@QAE@XZ
_TEXT	SEGMENT PARA USE32 PUBLIC 'CODE'
_TEXT	ENDS
;	COMDAT ?eof@?$__char_traits_base@DH@_STL@@SAHXZ
_TEXT	SEGMENT PARA USE32 PUBLIC 'CODE'
_TEXT	ENDS
;	COMDAT ??9_List_iterator_base@_STL@@QBE_NABU01@@Z
_TEXT	SEGMENT PARA USE32 PUBLIC 'CODE'
_TEXT	ENDS
;	COMDAT ??1?$allocator@D@_STL@@QAE@XZ
_TEXT	SEGMENT PARA USE32 PUBLIC 'CODE'
_TEXT	ENDS
;	COMDAT ??0?$allocator@D@_STL@@QAE@XZ
_TEXT	SEGMENT PARA USE32 PUBLIC 'CODE'
_TEXT	ENDS
;	COMDAT ??0?$basic_string@DV?$char_traits@D@_STL@@V?$allocator@D@2@@_STL@@QAE@PBDABV?$allocator@D@1@@Z
_TEXT	SEGMENT PARA USE32 PUBLIC 'CODE'
_TEXT	ENDS
;	COMDAT ??1?$_String_base@DV?$allocator@D@_STL@@@_STL@@QAE@XZ
_TEXT	SEGMENT PARA USE32 PUBLIC 'CODE'
_TEXT	ENDS
;	COMDAT ?length@?$char_traits@D@_STL@@SAIPBD@Z
_TEXT	SEGMENT PARA USE32 PUBLIC 'CODE'
_TEXT	ENDS
;	COMDAT ??1?$allocator@G@_STL@@QAE@XZ
_TEXT	SEGMENT PARA USE32 PUBLIC 'CODE'
_TEXT	ENDS
;	COMDAT ??_7GCAddItemToItemVerify@@6B@
CONST	SEGMENT DWORD USE32 PUBLIC 'CONST'
CONST	ENDS
;	COMDAT ??_7PacketFactory@@6B@
CONST	SEGMENT DWORD USE32 PUBLIC 'CONST'
CONST	ENDS
;	COMDAT ??1?$list@V?$basic_string@DV?$char_traits@D@_STL@@V?$allocator@D@2@@_STL@@V?$allocator@V?$basic_string@DV?$char_traits@D@_STL@@V?$allocator@D@2@@_STL@@@2@@_STL@@QAE@XZ
_TEXT	SEGMENT PARA USE32 PUBLIC 'CODE'
_TEXT	ENDS
;	COMDAT ??_7Throwable@@6B@
CONST	SEGMENT DWORD USE32 PUBLIC 'CONST'
CONST	ENDS
;	COMDAT ??_R4Throwable@@6B@
rdata$r	SEGMENT DWORD USE32 PUBLIC 'CONST'
rdata$r	ENDS
;	COMDAT ??_R3Throwable@@8
rdata$r	SEGMENT DWORD USE32 PUBLIC 'CONST'
rdata$r	ENDS
;	COMDAT ??_R2Throwable@@8
rdata$r	SEGMENT DWORD USE32 PUBLIC 'CONST'
rdata$r	ENDS
;	COMDAT ??_R1A@?0A@A@Throwable@@8
rdata$r	SEGMENT DWORD USE32 PUBLIC 'CONST'
rdata$r	ENDS
;	COMDAT ??_GThrowable@@UAEPAXI@Z
_TEXT	SEGMENT PARA USE32 PUBLIC 'CODE'
_TEXT	ENDS
;	COMDAT ?getName@Throwable@@UBE?AV?$basic_string@DV?$char_traits@D@_STL@@V?$allocator@D@2@@_STL@@XZ
_TEXT	SEGMENT PARA USE32 PUBLIC 'CODE'
_TEXT	ENDS
;	COMDAT ??_C@_09KCKHMJEM@Throwable?$AA@
CONST	SEGMENT DWORD USE32 PUBLIC 'CONST'
CONST	ENDS
;	COMDAT ?toString@Throwable@@UBE?AV?$basic_string@DV?$char_traits@D@_STL@@V?$allocator@D@2@@_STL@@XZ
_TEXT	SEGMENT PARA USE32 PUBLIC 'CODE'
_TEXT	ENDS
;	COMDAT ??_C@_03MCPBMLDJ@?5?3?5?$AA@
CONST	SEGMENT DWORD USE32 PUBLIC 'CONST'
CONST	ENDS
;	COMDAT ?getStackTrace@Throwable@@QBE?AV?$basic_string@DV?$char_traits@D@_STL@@V?$allocator@D@2@@_STL@@XZ
_TEXT	SEGMENT PARA USE32 PUBLIC 'CODE'
_TEXT	ENDS
;	COMDAT ??E?$_List_iterator@V?$basic_string@DV?$char_traits@D@_STL@@V?$allocator@D@2@@_STL@@U?$_Const_traits@V?$basic_string@DV?$char_traits@D@_STL@@V?$allocator@D@2@@_STL@@@2@@_STL@@QAE?AU01@H@Z
_TEXT	SEGMENT PARA USE32 PUBLIC 'CODE'
_TEXT	ENDS
;	COMDAT ??_C@_01CLKCMJKC@?5?$AA@
CONST	SEGMENT DWORD USE32 PUBLIC 'CONST'
CONST	ENDS
;	COMDAT ??_7Error@@6B@
CONST	SEGMENT DWORD USE32 PUBLIC 'CONST'
CONST	ENDS
;	COMDAT ??_R4Error@@6B@
rdata$r	SEGMENT DWORD USE32 PUBLIC 'CONST'
rdata$r	ENDS
;	COMDAT ??_R3Error@@8
rdata$r	SEGMENT DWORD USE32 PUBLIC 'CONST'
rdata$r	ENDS
;	COMDAT ??_R2Error@@8
rdata$r	SEGMENT DWORD USE32 PUBLIC 'CONST'
rdata$r	ENDS
;	COMDAT ??_R1A@?0A@A@Error@@8
rdata$r	SEGMENT DWORD USE32 PUBLIC 'CONST'
rdata$r	ENDS
;	COMDAT ??_GError@@UAEPAXI@Z
_TEXT	SEGMENT PARA USE32 PUBLIC 'CODE'
_TEXT	ENDS
;	COMDAT ?getName@Error@@UBE?AV?$basic_string@DV?$char_traits@D@_STL@@V?$allocator@D@2@@_STL@@XZ
_TEXT	SEGMENT PARA USE32 PUBLIC 'CODE'
_TEXT	ENDS
;	COMDAT ??_C@_05NAOIJFC@Error?$AA@
CONST	SEGMENT DWORD USE32 PUBLIC 'CONST'
CONST	ENDS
;	COMDAT ??1Throwable@@UAE@XZ
_TEXT	SEGMENT PARA USE32 PUBLIC 'CODE'
_TEXT	ENDS
;	COMDAT ??_7UnsupportedError@@6B@
CONST	SEGMENT DWORD USE32 PUBLIC 'CONST'
CONST	ENDS
;	COMDAT ??_R4UnsupportedError@@6B@
rdata$r	SEGMENT DWORD USE32 PUBLIC 'CONST'
rdata$r	ENDS
;	COMDAT ??_R3UnsupportedError@@8
rdata$r	SEGMENT DWORD USE32 PUBLIC 'CONST'
rdata$r	ENDS
;	COMDAT ??_R2UnsupportedError@@8
rdata$r	SEGMENT DWORD USE32 PUBLIC 'CONST'
rdata$r	ENDS
;	COMDAT ??_R1A@?0A@A@UnsupportedError@@8
rdata$r	SEGMENT DWORD USE32 PUBLIC 'CONST'
rdata$r	ENDS
;	COMDAT ??_GUnsupportedError@@UAEPAXI@Z
_TEXT	SEGMENT PARA USE32 PUBLIC 'CODE'
_TEXT	ENDS
;	COMDAT ?getName@UnsupportedError@@UBE?AV?$basic_string@DV?$char_traits@D@_STL@@V?$allocator@D@2@@_STL@@XZ
_TEXT	SEGMENT PARA USE32 PUBLIC 'CODE'
_TEXT	ENDS
;	COMDAT ??_C@_0BB@EOCHEBED@UnsupportedError?$AA@
CONST	SEGMENT DWORD USE32 PUBLIC 'CONST'
CONST	ENDS
;	COMDAT ??1Error@@UAE@XZ
_TEXT	SEGMENT PARA USE32 PUBLIC 'CODE'
_TEXT	ENDS
;	COMDAT __CTA3?AVUnsupportedError@@
xdata$x	SEGMENT DWORD USE32 PUBLIC 'CONST'
xdata$x	ENDS
;	COMDAT ??1UnsupportedError@@UAE@XZ
_TEXT	SEGMENT PARA USE32 PUBLIC 'CODE'
_TEXT	ENDS
;	COMDAT __CT??_R0?AVThrowable@@@8??0Throwable@@QAE@ABV0@@Z20
xdata$x	SEGMENT DWORD USE32 PUBLIC 'CONST'
xdata$x	ENDS
;	COMDAT __CT??_R0?AVError@@@8??0Error@@QAE@ABV0@@Z20
xdata$x	SEGMENT DWORD USE32 PUBLIC 'CONST'
xdata$x	ENDS
;	COMDAT __CT??_R0?AVUnsupportedError@@@8??0UnsupportedError@@QAE@ABV0@@Z20
xdata$x	SEGMENT DWORD USE32 PUBLIC 'CONST'
xdata$x	ENDS
;	COMDAT ??_R0?AVThrowable@@@8
_DATA	SEGMENT DWORD USE32 PUBLIC 'DATA'
_DATA	ENDS
;	COMDAT ??_R0?AVError@@@8
_DATA	SEGMENT DWORD USE32 PUBLIC 'DATA'
_DATA	ENDS
;	COMDAT ??_R0?AVUnsupportedError@@@8
_DATA	SEGMENT DWORD USE32 PUBLIC 'DATA'
_DATA	ENDS
;	COMDAT __TI3?AVUnsupportedError@@
xdata$x	SEGMENT DWORD USE32 PUBLIC 'CONST'
xdata$x	ENDS
;	COMDAT ??0UnsupportedError@@QAE@XZ
_TEXT	SEGMENT PARA USE32 PUBLIC 'CODE'
_TEXT	ENDS
;	COMDAT ??0Error@@QAE@XZ
_TEXT	SEGMENT PARA USE32 PUBLIC 'CODE'
_TEXT	ENDS
;	COMDAT ??0Throwable@@QAE@XZ
_TEXT	SEGMENT PARA USE32 PUBLIC 'CODE'
_TEXT	ENDS
;	COMDAT ??0?$basic_string@DV?$char_traits@D@_STL@@V?$allocator@D@2@@_STL@@QAE@XZ
_TEXT	SEGMENT PARA USE32 PUBLIC 'CODE'
_TEXT	ENDS
;	COMDAT ??0?$list@V?$basic_string@DV?$char_traits@D@_STL@@V?$allocator@D@2@@_STL@@V?$allocator@V?$basic_string@DV?$char_traits@D@_STL@@V?$allocator@D@2@@_STL@@@2@@_STL@@QAE@ABV?$allocator@V?$basic_string@DV?$char_traits@D@_STL@@V?$allocator@D@2@@_STL@@@1@@Z
_TEXT	SEGMENT PARA USE32 PUBLIC 'CODE'
_TEXT	ENDS
;	COMDAT ??0?$allocator@V?$basic_string@DV?$char_traits@D@_STL@@V?$allocator@D@2@@_STL@@@_STL@@QAE@XZ
_TEXT	SEGMENT PARA USE32 PUBLIC 'CODE'
_TEXT	ENDS
;	COMDAT ??_7Packet@@6B@
CONST	SEGMENT DWORD USE32 PUBLIC 'CONST'
CONST	ENDS
;	COMDAT ??1?$basic_string@DV?$char_traits@D@_STL@@V?$allocator@D@2@@_STL@@QAE@XZ
_TEXT	SEGMENT PARA USE32 PUBLIC 'CODE'
_TEXT	ENDS
;	COMDAT ??0?$basic_string@DV?$char_traits@D@_STL@@V?$allocator@D@2@@_STL@@QAE@ABV01@@Z
_TEXT	SEGMENT PARA USE32 PUBLIC 'CODE'
_TEXT	ENDS
sxdata	SEGMENT DWORD USE32 'SXDATA'
sxdata	ENDS
FLAT	GROUP _DATA, CONST, _BSS
	ASSUME	CS: FLAT, DS: FLAT, SS: FLAT
endif

INCLUDELIB LIBCMT
INCLUDELIB OLDNAMES

PUBLIC	??2@YAPAXIPAX@Z					; operator new
; Function compile flags: /Ogsy
; File c:\program files\microsoft visual studio .net 2003\vc7\include\new
;	COMDAT ??2@YAPAXIPAX@Z
_TEXT	SEGMENT
___formal$ = 8						; size = 4
__Where$ = 12						; size = 4
??2@YAPAXIPAX@Z PROC NEAR				; operator new, COMDAT

; 64   : 	return (_Where);

  00000	8b 44 24 08	 mov	 eax, DWORD PTR __Where$[esp-4]

; 65   : 	}

  00004	c3		 ret	 0
??2@YAPAXIPAX@Z ENDP					; operator new
_TEXT	ENDS
PUBLIC	?__stl_new@_STL@@YAPAXI@Z			; _STL::__stl_new
EXTRN	??2@YAPAXI@Z:NEAR				; operator new
; Function compile flags: /Ogsy
; File c:\stlport-4.6.1\stlport\stl\_new.h
;	COMDAT ?__stl_new@_STL@@YAPAXI@Z
_TEXT	SEGMENT
___n$ = 8						; size = 4
?__stl_new@_STL@@YAPAXI@Z PROC NEAR			; _STL::__stl_new, COMDAT

; 86   : inline void*  _STLP_CALL __stl_new(size_t __n)   { _STLP_CHECK_NULL_ALLOC(::operator _STLP_NEW(__n)); }

  00000	e9 00 00 00 00	 jmp	 ??2@YAPAXI@Z		; operator new
?__stl_new@_STL@@YAPAXI@Z ENDP				; _STL::__stl_new
_TEXT	ENDS
PUBLIC	?__stl_delete@_STL@@YAXPAX@Z			; _STL::__stl_delete
EXTRN	??3@YAXPAX@Z:NEAR				; operator delete
; Function compile flags: /Ogsy
;	COMDAT ?__stl_delete@_STL@@YAXPAX@Z
_TEXT	SEGMENT
___p$ = 8						; size = 4
?__stl_delete@_STL@@YAXPAX@Z PROC NEAR			; _STL::__stl_delete, COMDAT

; 87   : inline void   _STLP_CALL __stl_delete(void* __p) { ::operator delete(__p); }

  00000	e9 00 00 00 00	 jmp	 ??3@YAXPAX@Z		; operator delete
?__stl_delete@_STL@@YAXPAX@Z ENDP			; _STL::__stl_delete
_TEXT	ENDS
PUBLIC	?read@SocketInputStream@@QAEIAAE@Z		; SocketInputStream::read
EXTRN	?read@SocketInputStream@@QAEIPADI@Z:NEAR	; SocketInputStream::read
; Function compile flags: /Ogsy
; File c:\darkeden\designed_common\project\client\packet\socketinputstream.h
;	COMDAT ?read@SocketInputStream@@QAEIAAE@Z
_TEXT	SEGMENT
_buf$ = 8						; size = 4
?read@SocketInputStream@@QAEIAAE@Z PROC NEAR		; SocketInputStream::read, COMDAT
; _this$ = ecx

; 69   : 	uint read ( uchar  & buf ) throw ( ProtocolException , Error ) { return read( (char*)&buf, szuchar  ); }

  00000	6a 01		 push	 1
  00002	ff 74 24 08	 push	 DWORD PTR _buf$[esp]
  00006	e8 00 00 00 00	 call	 ?read@SocketInputStream@@QAEIPADI@Z ; SocketInputStream::read
  0000b	c2 04 00	 ret	 4
?read@SocketInputStream@@QAEIAAE@Z ENDP			; SocketInputStream::read
_TEXT	ENDS
PUBLIC	?read@SocketInputStream@@QAEIAAG@Z		; SocketInputStream::read
; Function compile flags: /Ogsy
;	COMDAT ?read@SocketInputStream@@QAEIAAG@Z
_TEXT	SEGMENT
_buf$ = 8						; size = 4
?read@SocketInputStream@@QAEIAAG@Z PROC NEAR		; SocketInputStream::read, COMDAT
; _this$ = ecx

; 71   : 	uint read ( ushort & buf ) throw ( ProtocolException , Error ) { return read( (char*)&buf, szushort ); }

  00000	6a 02		 push	 2
  00002	ff 74 24 08	 push	 DWORD PTR _buf$[esp]
  00006	e8 00 00 00 00	 call	 ?read@SocketInputStream@@QAEIPADI@Z ; SocketInputStream::read
  0000b	c2 04 00	 ret	 4
?read@SocketInputStream@@QAEIAAG@Z ENDP			; SocketInputStream::read
_TEXT	ENDS
PUBLIC	?read@SocketInputStream@@QAEIAAI@Z		; SocketInputStream::read
; Function compile flags: /Ogsy
;	COMDAT ?read@SocketInputStream@@QAEIAAI@Z
_TEXT	SEGMENT
_buf$ = 8						; size = 4
?read@SocketInputStream@@QAEIAAI@Z PROC NEAR		; SocketInputStream::read, COMDAT
; _this$ = ecx

; 73   : 	uint read ( uint   & buf ) throw ( ProtocolException , Error ) { return read( (char*)&buf, szuint   ); }

  00000	6a 04		 push	 4
  00002	ff 74 24 08	 push	 DWORD PTR _buf$[esp]
  00006	e8 00 00 00 00	 call	 ?read@SocketInputStream@@QAEIPADI@Z ; SocketInputStream::read
  0000b	c2 04 00	 ret	 4
?read@SocketInputStream@@QAEIAAI@Z ENDP			; SocketInputStream::read
_TEXT	ENDS
PUBLIC	?write@SocketOutputStream@@QAEIE@Z		; SocketOutputStream::write
EXTRN	?write@SocketOutputStream@@QAEIPBDI@Z:NEAR	; SocketOutputStream::write
; Function compile flags: /Ogsy
; File c:\darkeden\designed_common\project\client\packet\socketoutputstream.h
;	COMDAT ?write@SocketOutputStream@@QAEIE@Z
_TEXT	SEGMENT
_buf$ = 8						; size = 1
?write@SocketOutputStream@@QAEIE@Z PROC NEAR		; SocketOutputStream::write, COMDAT
; _this$ = ecx

; 62   :     uint write ( uchar  buf ) throw ( ProtocolException , Error ) { return write( (const char*)&buf, szuchar  ); }

  00000	6a 01		 push	 1
  00002	8d 44 24 08	 lea	 eax, DWORD PTR _buf$[esp]
  00006	50		 push	 eax
  00007	e8 00 00 00 00	 call	 ?write@SocketOutputStream@@QAEIPBDI@Z ; SocketOutputStream::write
  0000c	c2 04 00	 ret	 4
?write@SocketOutputStream@@QAEIE@Z ENDP			; SocketOutputStream::write
_TEXT	ENDS
PUBLIC	?write@SocketOutputStream@@QAEIG@Z		; SocketOutputStream::write
; Function compile flags: /Ogsy
;	COMDAT ?write@SocketOutputStream@@QAEIG@Z
_TEXT	SEGMENT
_buf$ = 8						; size = 2
?write@SocketOutputStream@@QAEIG@Z PROC NEAR		; SocketOutputStream::write, COMDAT
; _this$ = ecx

; 64   :     uint write ( ushort buf ) throw ( ProtocolException , Error ) { return write( (const char*)&buf, szushort ); }

  00000	6a 02		 push	 2
  00002	8d 44 24 08	 lea	 eax, DWORD PTR _buf$[esp]
  00006	50		 push	 eax
  00007	e8 00 00 00 00	 call	 ?write@SocketOutputStream@@QAEIPBDI@Z ; SocketOutputStream::write
  0000c	c2 04 00	 ret	 4
?write@SocketOutputStream@@QAEIG@Z ENDP			; SocketOutputStream::write
_TEXT	ENDS
PUBLIC	?write@SocketOutputStream@@QAEII@Z		; SocketOutputStream::write
; Function compile flags: /Ogsy
;	COMDAT ?write@SocketOutputStream@@QAEII@Z
_TEXT	SEGMENT
_buf$ = 8						; size = 4
?write@SocketOutputStream@@QAEII@Z PROC NEAR		; SocketOutputStream::write, COMDAT
; _this$ = ecx

; 66   :     uint write ( uint   buf ) throw ( ProtocolException , Error ) { return write( (const char*)&buf, szuint   ); }

  00000	6a 04		 push	 4
  00002	8d 44 24 08	 lea	 eax, DWORD PTR _buf$[esp]
  00006	50		 push	 eax
  00007	e8 00 00 00 00	 call	 ?write@SocketOutputStream@@QAEIPBDI@Z ; SocketOutputStream::write
  0000c	c2 04 00	 ret	 4
?write@SocketOutputStream@@QAEII@Z ENDP			; SocketOutputStream::write
_TEXT	ENDS
PUBLIC	?execute@GCAddItemToItemVerify@@UAEXPAVPlayer@@@Z ; GCAddItemToItemVerify::execute
EXTRN	?execute@GCAddItemToItemVerifyHandler@@SAXPAVGCAddItemToItemVerify@@PAVPlayer@@@Z:NEAR ; GCAddItemToItemVerifyHandler::execute
; Function compile flags: /Ogsy
; File c:\darkeden\designed_common\project\client\packet\gpackets\gcadditemtoitemverify.cpp
;	COMDAT ?execute@GCAddItemToItemVerify@@UAEXPAVPlayer@@@Z
_TEXT	SEGMENT
_pPlayer$ = 8						; size = 4
?execute@GCAddItemToItemVerify@@UAEXPAVPlayer@@@Z PROC NEAR ; GCAddItemToItemVerify::execute, COMDAT
; _this$ = ecx

; 125  : 	__BEGIN_TRY
; 126  : 		
; 127  : 	GCAddItemToItemVerifyHandler::execute( this , pPlayer );

  00000	ff 74 24 04	 push	 DWORD PTR _pPlayer$[esp-4]
  00004	51		 push	 ecx
  00005	e8 00 00 00 00	 call	 ?execute@GCAddItemToItemVerifyHandler@@SAXPAVGCAddItemToItemVerify@@PAVPlayer@@@Z ; GCAddItemToItemVerifyHandler::execute
  0000a	59		 pop	 ecx
  0000b	59		 pop	 ecx

; 128  : 		
; 129  : 	__END_CATCH
; 130  : }

  0000c	c2 04 00	 ret	 4
?execute@GCAddItemToItemVerify@@UAEXPAVPlayer@@@Z ENDP	; GCAddItemToItemVerify::execute
_TEXT	ENDS
PUBLIC	??D?$_List_iterator@GU?$_Const_traits@G@_STL@@@_STL@@QBEABGXZ ; _STL::_List_iterator<unsigned short,_STL::_Const_traits<unsigned short> >::operator*
; Function compile flags: /Ogsy
; File c:\stlport-4.6.1\stlport\stl\_list.h
;	COMDAT ??D?$_List_iterator@GU?$_Const_traits@G@_STL@@@_STL@@QBEABGXZ
_TEXT	SEGMENT
??D?$_List_iterator@GU?$_Const_traits@G@_STL@@@_STL@@QBEABGXZ PROC NEAR ; _STL::_List_iterator<unsigned short,_STL::_Const_traits<unsigned short> >::operator*, COMDAT
; _this$ = ecx

; 130  :   reference operator*() const { return ((_Node*)_M_node)->_M_data; }

  00000	8b 01		 mov	 eax, DWORD PTR [ecx]
  00002	83 c0 08	 add	 eax, 8
  00005	c3		 ret	 0
??D?$_List_iterator@GU?$_Const_traits@G@_STL@@@_STL@@QBEABGXZ ENDP ; _STL::_List_iterator<unsigned short,_STL::_Const_traits<unsigned short> >::operator*
_TEXT	ENDS
PUBLIC	??$_Construct@GG@_STL@@YAXPAGABG@Z		; _STL::_Construct<unsigned short,unsigned short>
; Function compile flags: /Ogsy
; File c:\stlport-4.6.1\stlport\stl\_construct.h
;	COMDAT ??$_Construct@GG@_STL@@YAXPAGABG@Z
_TEXT	SEGMENT
___p$ = 8						; size = 4
___val$ = 12						; size = 4
??$_Construct@GG@_STL@@YAXPAGABG@Z PROC NEAR		; _STL::_Construct<unsigned short,unsigned short>, COMDAT

; 94   : # ifdef _STLP_DEBUG_UNINITIALIZED
; 95   : 	memset((char*)__p, _STLP_SHRED_BYTE, sizeof(_T1));
; 96   : # endif
; 97   :     _STLP_PLACEMENT_NEW (__p) _T1(__val);

  00000	8b 44 24 04	 mov	 eax, DWORD PTR ___p$[esp-4]
  00004	85 c0		 test	 eax, eax
  00006	74 0a		 je	 SHORT $L102197
  00008	8b 4c 24 08	 mov	 ecx, DWORD PTR ___val$[esp-4]
  0000c	66 8b 09	 mov	 cx, WORD PTR [ecx]
  0000f	66 89 08	 mov	 WORD PTR [eax], cx
$L102197:

; 98   : }

  00012	c3		 ret	 0
??$_Construct@GG@_STL@@YAXPAGABG@Z ENDP			; _STL::_Construct<unsigned short,unsigned short>
_TEXT	ENDS
PUBLIC	??$_Destroy@G@_STL@@YAXPAG@Z			; _STL::_Destroy<unsigned short>
; Function compile flags: /Ogsy
;	COMDAT ??$_Destroy@G@_STL@@YAXPAG@Z
_TEXT	SEGMENT
___pointer$ = 8						; size = 4
??$_Destroy@G@_STL@@YAXPAG@Z PROC NEAR			; _STL::_Destroy<unsigned short>, COMDAT

; 57   : # if _MSC_VER >= 1010
; 58   :   __pointer;
; 59   : # endif	// _MSC_VER >= 1000
; 60   : # ifdef _STLP_TRIVIAL_DESTRUCTOR_BUG
; 61   :   typedef typename __type_traits<_Tp>::has_trivial_destructor _Trivial_destructor;
; 62   :   __destroy_aux(__pointer, _Trivial_destructor());
; 63   : # else
; 64   : #  if ( defined (__BORLANDC__) && ( __BORLANDC__ < 0x500 ) )
; 65   :     __pointer->_Tp::~_Tp();
; 66   : #  else
; 67   :     __pointer->~_Tp();
; 68   : #  endif
; 69   : # endif
; 70   : # ifdef _STLP_DEBUG_UNINITIALIZED
; 71   : 	memset((char*)__pointer, _STLP_SHRED_BYTE, sizeof(_Tp));
; 72   : # endif
; 73   : }

  00000	c3		 ret	 0
??$_Destroy@G@_STL@@YAXPAG@Z ENDP			; _STL::_Destroy<unsigned short>
_TEXT	ENDS
PUBLIC	??0_List_iterator_base@_STL@@QAE@PAU_List_node_base@1@@Z ; _STL::_List_iterator_base::_List_iterator_base
; Function compile flags: /Ogsy
; File c:\stlport-4.6.1\stlport\stl\_list.h
;	COMDAT ??0_List_iterator_base@_STL@@QAE@PAU_List_node_base@1@@Z
_TEXT	SEGMENT
___x$ = 8						; size = 4
??0_List_iterator_base@_STL@@QAE@PAU_List_node_base@1@@Z PROC NEAR ; _STL::_List_iterator_base::_List_iterator_base, COMDAT
; _this$ = ecx

; 95   :   _List_iterator_base(_List_node_base* __x) : _M_node(__x) {}

  00000	8b c1		 mov	 eax, ecx
  00002	8b 4c 24 04	 mov	 ecx, DWORD PTR ___x$[esp-4]
  00006	89 08		 mov	 DWORD PTR [eax], ecx
  00008	c2 04 00	 ret	 4
??0_List_iterator_base@_STL@@QAE@PAU_List_node_base@1@@Z ENDP ; _STL::_List_iterator_base::_List_iterator_base
_TEXT	ENDS
PUBLIC	?_M_incr@_List_iterator_base@_STL@@QAEXXZ	; _STL::_List_iterator_base::_M_incr
; Function compile flags: /Ogsy
;	COMDAT ?_M_incr@_List_iterator_base@_STL@@QAEXXZ
_TEXT	SEGMENT
?_M_incr@_List_iterator_base@_STL@@QAEXXZ PROC NEAR	; _STL::_List_iterator_base::_M_incr, COMDAT
; _this$ = ecx

; 98   :   void _M_incr() { _M_node = _M_node->_M_next; }

  00000	8b 01		 mov	 eax, DWORD PTR [ecx]
  00002	8b 00		 mov	 eax, DWORD PTR [eax]
  00004	89 01		 mov	 DWORD PTR [ecx], eax
  00006	c3		 ret	 0
?_M_incr@_List_iterator_base@_STL@@QAEXXZ ENDP		; _STL::_List_iterator_base::_M_incr
_TEXT	ENDS
PUBLIC	??9_List_iterator_base@_STL@@QBE_NABU01@@Z	; _STL::_List_iterator_base::operator!=
; Function compile flags: /Ogsy
;	COMDAT ??9_List_iterator_base@_STL@@QBE_NABU01@@Z
_TEXT	SEGMENT
___y$ = 8						; size = 4
??9_List_iterator_base@_STL@@QBE_NABU01@@Z PROC NEAR	; _STL::_List_iterator_base::operator!=, COMDAT
; _this$ = ecx

; 104  :     return _M_node != __y._M_node; 

  00000	8b 01		 mov	 eax, DWORD PTR [ecx]
  00002	8b 54 24 04	 mov	 edx, DWORD PTR ___y$[esp-4]
  00006	33 c9		 xor	 ecx, ecx
  00008	3b 02		 cmp	 eax, DWORD PTR [edx]
  0000a	0f 95 c1	 setne	 cl
  0000d	8a c1		 mov	 al, cl

; 105  :   }

  0000f	c2 04 00	 ret	 4
??9_List_iterator_base@_STL@@QBE_NABU01@@Z ENDP		; _STL::_List_iterator_base::operator!=
_TEXT	ENDS
PUBLIC	?allocate@?$__node_alloc@$00$0A@@_STL@@SAPAXI@Z	; _STL::__node_alloc<1,0>::allocate
EXTRN	?_M_allocate@?$__node_alloc@$00$0A@@_STL@@CAPAXI@Z:NEAR ; _STL::__node_alloc<1,0>::_M_allocate
; Function compile flags: /Ogsy
; File c:\stlport-4.6.1\stlport\stl\_alloc.h
;	COMDAT ?allocate@?$__node_alloc@$00$0A@@_STL@@SAPAXI@Z
_TEXT	SEGMENT
___n$ = 8						; size = 4
?allocate@?$__node_alloc@$00$0A@@_STL@@SAPAXI@Z PROC NEAR ; _STL::__node_alloc<1,0>::allocate, COMDAT

; 251  :   static void * _STLP_CALL allocate(size_t __n) { return (__n > (size_t)_MAX_BYTES) ?  __stl_new(__n) : _M_allocate(__n); }

  00000	8b 44 24 04	 mov	 eax, DWORD PTR ___n$[esp-4]
  00004	3d 80 00 00 00	 cmp	 eax, 128		; 00000080H
  00009	50		 push	 eax
  0000a	76 07		 jbe	 SHORT $L102217
  0000c	e8 00 00 00 00	 call	 ??2@YAPAXI@Z		; operator new
  00011	59		 pop	 ecx
  00012	c3		 ret	 0
$L102217:
  00013	e8 00 00 00 00	 call	 ?_M_allocate@?$__node_alloc@$00$0A@@_STL@@CAPAXI@Z ; _STL::__node_alloc<1,0>::_M_allocate
  00018	59		 pop	 ecx
  00019	c3		 ret	 0
?allocate@?$__node_alloc@$00$0A@@_STL@@SAPAXI@Z ENDP	; _STL::__node_alloc<1,0>::allocate
_TEXT	ENDS
PUBLIC	?deallocate@?$__node_alloc@$00$0A@@_STL@@SAXPAXI@Z ; _STL::__node_alloc<1,0>::deallocate
EXTRN	?_M_deallocate@?$__node_alloc@$00$0A@@_STL@@CAXPAXI@Z:NEAR ; _STL::__node_alloc<1,0>::_M_deallocate
; Function compile flags: /Ogsy
;	COMDAT ?deallocate@?$__node_alloc@$00$0A@@_STL@@SAXPAXI@Z
_TEXT	SEGMENT
___p$ = 8						; size = 4
___n$ = 12						; size = 4
?deallocate@?$__node_alloc@$00$0A@@_STL@@SAXPAXI@Z PROC NEAR ; _STL::__node_alloc<1,0>::deallocate, COMDAT

; 253  :   static void _STLP_CALL deallocate(void *__p, size_t __n) { if (__n > (size_t)_MAX_BYTES) __stl_delete(__p); else _M_deallocate(__p, __n); }

  00000	81 7c 24 08 80
	00 00 00	 cmp	 DWORD PTR ___n$[esp-4], 128 ; 00000080H
  00008	76 0b		 jbe	 SHORT $L98677
  0000a	ff 74 24 04	 push	 DWORD PTR ___p$[esp-4]
  0000e	e8 00 00 00 00	 call	 ??3@YAXPAX@Z		; operator delete
  00013	59		 pop	 ecx
  00014	c3		 ret	 0
$L98677:
  00015	e9 00 00 00 00	 jmp	 ?_M_deallocate@?$__node_alloc@$00$0A@@_STL@@CAXPAXI@Z ; _STL::__node_alloc<1,0>::_M_deallocate
?deallocate@?$__node_alloc@$00$0A@@_STL@@SAXPAXI@Z ENDP	; _STL::__node_alloc<1,0>::deallocate
_TEXT	ENDS
PUBLIC	??E?$_List_iterator@GU?$_Const_traits@G@_STL@@@_STL@@QAE?AU01@H@Z ; _STL::_List_iterator<unsigned short,_STL::_Const_traits<unsigned short> >::operator++
; Function compile flags: /Ogsy
; File c:\stlport-4.6.1\stlport\stl\_list.h
;	COMDAT ??E?$_List_iterator@GU?$_Const_traits@G@_STL@@@_STL@@QAE?AU01@H@Z
_TEXT	SEGMENT
___$ReturnUdt$ = 8					; size = 4
___formal$ = 12						; size = 4
??E?$_List_iterator@GU?$_Const_traits@G@_STL@@@_STL@@QAE?AU01@H@Z PROC NEAR ; _STL::_List_iterator<unsigned short,_STL::_Const_traits<unsigned short> >::operator++, COMDAT
; _this$ = ecx

; 139  :     _Self __tmp = *this;

  00000	8b 11		 mov	 edx, DWORD PTR [ecx]

; 140  :     this->_M_incr();

  00002	8b 02		 mov	 eax, DWORD PTR [edx]
  00004	89 01		 mov	 DWORD PTR [ecx], eax

; 141  :     return __tmp;

  00006	8b 44 24 04	 mov	 eax, DWORD PTR ___$ReturnUdt$[esp-4]
  0000a	89 10		 mov	 DWORD PTR [eax], edx

; 142  :   }

  0000c	c2 08 00	 ret	 8
??E?$_List_iterator@GU?$_Const_traits@G@_STL@@@_STL@@QAE?AU01@H@Z ENDP ; _STL::_List_iterator<unsigned short,_STL::_Const_traits<unsigned short> >::operator++
_TEXT	ENDS
PUBLIC	??0?$_List_iterator@GU?$_Const_traits@G@_STL@@@_STL@@QAE@PAU?$_List_node@G@1@@Z ; _STL::_List_iterator<unsigned short,_STL::_Const_traits<unsigned short> >::_List_iterator<unsigned short,_STL::_Const_traits<unsigned short> >
; Function compile flags: /Ogsy
;	COMDAT ??0?$_List_iterator@GU?$_Const_traits@G@_STL@@@_STL@@QAE@PAU?$_List_node@G@1@@Z
_TEXT	SEGMENT
___x$ = 8						; size = 4
??0?$_List_iterator@GU?$_Const_traits@G@_STL@@@_STL@@QAE@PAU?$_List_node@G@1@@Z PROC NEAR ; _STL::_List_iterator<unsigned short,_STL::_Const_traits<unsigned short> >::_List_iterator<unsigned short,_STL::_Const_traits<unsigned short> >, COMDAT
; _this$ = ecx

; 126  :   _List_iterator(_Node* __x) : _List_iterator_base(__x) {}

  00000	8b c1		 mov	 eax, ecx
  00002	8b 4c 24 04	 mov	 ecx, DWORD PTR ___x$[esp-4]
  00006	89 08		 mov	 DWORD PTR [eax], ecx
  00008	c2 04 00	 ret	 4
??0?$_List_iterator@GU?$_Const_traits@G@_STL@@@_STL@@QAE@PAU?$_List_node@G@1@@Z ENDP ; _STL::_List_iterator<unsigned short,_STL::_Const_traits<unsigned short> >::_List_iterator<unsigned short,_STL::_Const_traits<unsigned short> >
_TEXT	ENDS
PUBLIC	?allocate@?$allocator@U?$_List_node@G@_STL@@@_STL@@QAEPAU?$_List_node@G@2@IPBX@Z ; _STL::allocator<_STL::_List_node<unsigned short> >::allocate
; Function compile flags: /Ogsy
; File c:\stlport-4.6.1\stlport\stl\_alloc.h
;	COMDAT ?allocate@?$allocator@U?$_List_node@G@_STL@@@_STL@@QAEPAU?$_List_node@G@2@IPBX@Z
_TEXT	SEGMENT
___n$ = 8						; size = 4
___formal$ = 12						; size = 4
?allocate@?$allocator@U?$_List_node@G@_STL@@@_STL@@QAEPAU?$_List_node@G@2@IPBX@Z PROC NEAR ; _STL::allocator<_STL::_List_node<unsigned short> >::allocate, COMDAT
; _this$ = ecx

; 355  :     return __n != 0 ? __REINTERPRET_CAST(value_type*,__sgi_alloc::allocate(__n * sizeof(value_type))) : 0;

  00000	8b 44 24 04	 mov	 eax, DWORD PTR ___n$[esp-4]
  00004	85 c0		 test	 eax, eax
  00006	74 0f		 je	 SHORT $L102244
  00008	8d 04 40	 lea	 eax, DWORD PTR [eax+eax*2]
  0000b	c1 e0 02	 shl	 eax, 2
  0000e	50		 push	 eax
  0000f	e8 00 00 00 00	 call	 ?allocate@?$__node_alloc@$00$0A@@_STL@@SAPAXI@Z ; _STL::__node_alloc<1,0>::allocate
  00014	59		 pop	 ecx
  00015	eb 02		 jmp	 SHORT $L102245
$L102244:
  00017	33 c0		 xor	 eax, eax
$L102245:

; 356  :   }

  00019	c2 08 00	 ret	 8
?allocate@?$allocator@U?$_List_node@G@_STL@@@_STL@@QAEPAU?$_List_node@G@2@IPBX@Z ENDP ; _STL::allocator<_STL::_List_node<unsigned short> >::allocate
_TEXT	ENDS
PUBLIC	?deallocate@?$allocator@U?$_List_node@G@_STL@@@_STL@@QAEXPAU?$_List_node@G@2@I@Z ; _STL::allocator<_STL::_List_node<unsigned short> >::deallocate
; Function compile flags: /Ogsy
;	COMDAT ?deallocate@?$allocator@U?$_List_node@G@_STL@@@_STL@@QAEXPAU?$_List_node@G@2@I@Z
_TEXT	SEGMENT
___p$ = 8						; size = 4
___n$ = 12						; size = 4
?deallocate@?$allocator@U?$_List_node@G@_STL@@@_STL@@QAEXPAU?$_List_node@G@2@I@Z PROC NEAR ; _STL::allocator<_STL::_List_node<unsigned short> >::deallocate, COMDAT
; _this$ = ecx

; 359  :     _STLP_ASSERT( (__p == 0) == (__n == 0) )
; 360  :       if (__p != 0) __sgi_alloc::deallocate((void*)__p, __n * sizeof(value_type));

  00000	83 7c 24 04 00	 cmp	 DWORD PTR ___p$[esp-4], 0
  00005	74 16		 je	 SHORT $L101245
  00007	8b 44 24 08	 mov	 eax, DWORD PTR ___n$[esp-4]
  0000b	8d 04 40	 lea	 eax, DWORD PTR [eax+eax*2]
  0000e	c1 e0 02	 shl	 eax, 2
  00011	50		 push	 eax
  00012	ff 74 24 08	 push	 DWORD PTR ___p$[esp]
  00016	e8 00 00 00 00	 call	 ?deallocate@?$__node_alloc@$00$0A@@_STL@@SAXPAXI@Z ; _STL::__node_alloc<1,0>::deallocate
  0001b	59		 pop	 ecx
  0001c	59		 pop	 ecx
$L101245:

; 361  :   }

  0001d	c2 08 00	 ret	 8
?deallocate@?$allocator@U?$_List_node@G@_STL@@@_STL@@QAEXPAU?$_List_node@G@2@I@Z ENDP ; _STL::allocator<_STL::_List_node<unsigned short> >::deallocate
_TEXT	ENDS
PUBLIC	??0?$_List_iterator@GU?$_Nonconst_traits@G@_STL@@@_STL@@QAE@PAU?$_List_node@G@1@@Z ; _STL::_List_iterator<unsigned short,_STL::_Nonconst_traits<unsigned short> >::_List_iterator<unsigned short,_STL::_Nonconst_traits<unsigned short> >
; Function compile flags: /Ogsy
; File c:\stlport-4.6.1\stlport\stl\_list.h
;	COMDAT ??0?$_List_iterator@GU?$_Nonconst_traits@G@_STL@@@_STL@@QAE@PAU?$_List_node@G@1@@Z
_TEXT	SEGMENT
___x$ = 8						; size = 4
??0?$_List_iterator@GU?$_Nonconst_traits@G@_STL@@@_STL@@QAE@PAU?$_List_node@G@1@@Z PROC NEAR ; _STL::_List_iterator<unsigned short,_STL::_Nonconst_traits<unsigned short> >::_List_iterator<unsigned short,_STL::_Nonconst_traits<unsigned short> >, COMDAT
; _this$ = ecx

; 126  :   _List_iterator(_Node* __x) : _List_iterator_base(__x) {}

  00000	8b c1		 mov	 eax, ecx
  00002	8b 4c 24 04	 mov	 ecx, DWORD PTR ___x$[esp-4]
  00006	89 08		 mov	 DWORD PTR [eax], ecx
  00008	c2 04 00	 ret	 4
??0?$_List_iterator@GU?$_Nonconst_traits@G@_STL@@@_STL@@QAE@PAU?$_List_node@G@1@@Z ENDP ; _STL::_List_iterator<unsigned short,_STL::_Nonconst_traits<unsigned short> >::_List_iterator<unsigned short,_STL::_Nonconst_traits<unsigned short> >
_TEXT	ENDS
PUBLIC	?clear@?$_List_base@GV?$allocator@G@_STL@@@_STL@@QAEXXZ ; _STL::_List_base<unsigned short,_STL::allocator<unsigned short> >::clear
; Function compile flags: /Ogsy
; File c:\stlport-4.6.1\stlport\stl\_list.c
;	COMDAT ?clear@?$_List_base@GV?$allocator@G@_STL@@@_STL@@QAEXXZ
_TEXT	SEGMENT
?clear@?$_List_base@GV?$allocator@G@_STL@@@_STL@@QAEXXZ PROC NEAR ; _STL::_List_base<unsigned short,_STL::allocator<unsigned short> >::clear, COMDAT
; _this$ = ecx

; 68   : {

  00000	56		 push	 esi
  00001	57		 push	 edi
  00002	8b f9		 mov	 edi, ecx

; 69   :   _List_node<_Tp>* __cur = (_List_node<_Tp>*) this->_M_node._M_data->_M_next;

  00004	8b 07		 mov	 eax, DWORD PTR [edi]
  00006	8b 30		 mov	 esi, DWORD PTR [eax]

; 70   :   while (__cur != this->_M_node._M_data) {

  00008	3b f0		 cmp	 esi, eax
  0000a	74 12		 je	 SHORT $L101408
$L101407:

; 71   :     _List_node<_Tp>* __tmp = __cur;

  0000c	8b c6		 mov	 eax, esi

; 72   :     __cur = (_List_node<_Tp>*) __cur->_M_next;

  0000e	8b 36		 mov	 esi, DWORD PTR [esi]

; 73   :     _STLP_STD::_Destroy(&__tmp->_M_data);
; 74   :     this->_M_node.deallocate(__tmp, 1);

  00010	6a 01		 push	 1
  00012	50		 push	 eax
  00013	8b cf		 mov	 ecx, edi
  00015	e8 00 00 00 00	 call	 ?deallocate@?$allocator@U?$_List_node@G@_STL@@@_STL@@QAEXPAU?$_List_node@G@2@I@Z ; _STL::allocator<_STL::_List_node<unsigned short> >::deallocate
  0001a	3b 37		 cmp	 esi, DWORD PTR [edi]
  0001c	75 ee		 jne	 SHORT $L101407
$L101408:

; 75   :   }
; 76   :   this->_M_node._M_data->_M_next = this->_M_node._M_data;

  0001e	8b 07		 mov	 eax, DWORD PTR [edi]
  00020	89 00		 mov	 DWORD PTR [eax], eax

; 77   :   this->_M_node._M_data->_M_prev = this->_M_node._M_data;

  00022	8b 3f		 mov	 edi, DWORD PTR [edi]
  00024	89 7f 04	 mov	 DWORD PTR [edi+4], edi
  00027	5f		 pop	 edi
  00028	5e		 pop	 esi

; 78   : }

  00029	c3		 ret	 0
?clear@?$_List_base@GV?$allocator@G@_STL@@@_STL@@QAEXXZ ENDP ; _STL::_List_base<unsigned short,_STL::allocator<unsigned short> >::clear
_TEXT	ENDS
PUBLIC	??E?$_List_iterator@GU?$_Const_traits@G@_STL@@@_STL@@QAEAAU01@XZ ; _STL::_List_iterator<unsigned short,_STL::_Const_traits<unsigned short> >::operator++
; Function compile flags: /Ogsy
; File c:\stlport-4.6.1\stlport\stl\_list.h
;	COMDAT ??E?$_List_iterator@GU?$_Const_traits@G@_STL@@@_STL@@QAEAAU01@XZ
_TEXT	SEGMENT
??E?$_List_iterator@GU?$_Const_traits@G@_STL@@@_STL@@QAEAAU01@XZ PROC NEAR ; _STL::_List_iterator<unsigned short,_STL::_Const_traits<unsigned short> >::operator++, COMDAT
; _this$ = ecx

; 134  :   _Self& operator++() { 

  00000	8b c1		 mov	 eax, ecx

; 135  :     this->_M_incr();

  00002	8b 08		 mov	 ecx, DWORD PTR [eax]
  00004	8b 09		 mov	 ecx, DWORD PTR [ecx]
  00006	89 08		 mov	 DWORD PTR [eax], ecx

; 136  :     return *this;
; 137  :   }

  00008	c3		 ret	 0
??E?$_List_iterator@GU?$_Const_traits@G@_STL@@@_STL@@QAEAAU01@XZ ENDP ; _STL::_List_iterator<unsigned short,_STL::_Const_traits<unsigned short> >::operator++
_TEXT	ENDS
PUBLIC	?begin@?$list@GV?$allocator@G@_STL@@@_STL@@QBE?AU?$_List_iterator@GU?$_Const_traits@G@_STL@@@2@XZ ; _STL::list<unsigned short,_STL::allocator<unsigned short> >::begin
; Function compile flags: /Ogsy
;	COMDAT ?begin@?$list@GV?$allocator@G@_STL@@@_STL@@QBE?AU?$_List_iterator@GU?$_Const_traits@G@_STL@@@2@XZ
_TEXT	SEGMENT
___$ReturnUdt$ = 8					; size = 4
?begin@?$list@GV?$allocator@G@_STL@@@_STL@@QBE?AU?$_List_iterator@GU?$_Const_traits@G@_STL@@@2@XZ PROC NEAR ; _STL::list<unsigned short,_STL::allocator<unsigned short> >::begin, COMDAT
; _this$ = ecx

; 267  :   const_iterator begin() const { return const_iterator((_Node*)(this->_M_node._M_data->_M_next)); }

  00000	8b 01		 mov	 eax, DWORD PTR [ecx]
  00002	8b 08		 mov	 ecx, DWORD PTR [eax]
  00004	8b 44 24 04	 mov	 eax, DWORD PTR ___$ReturnUdt$[esp-4]
  00008	89 08		 mov	 DWORD PTR [eax], ecx
  0000a	c2 04 00	 ret	 4
?begin@?$list@GV?$allocator@G@_STL@@@_STL@@QBE?AU?$_List_iterator@GU?$_Const_traits@G@_STL@@@2@XZ ENDP ; _STL::list<unsigned short,_STL::allocator<unsigned short> >::begin
_TEXT	ENDS
PUBLIC	?end@?$list@GV?$allocator@G@_STL@@@_STL@@QBE?AU?$_List_iterator@GU?$_Const_traits@G@_STL@@@2@XZ ; _STL::list<unsigned short,_STL::allocator<unsigned short> >::end
; Function compile flags: /Ogsy
;	COMDAT ?end@?$list@GV?$allocator@G@_STL@@@_STL@@QBE?AU?$_List_iterator@GU?$_Const_traits@G@_STL@@@2@XZ
_TEXT	SEGMENT
___$ReturnUdt$ = 8					; size = 4
?end@?$list@GV?$allocator@G@_STL@@@_STL@@QBE?AU?$_List_iterator@GU?$_Const_traits@G@_STL@@@2@XZ PROC NEAR ; _STL::list<unsigned short,_STL::allocator<unsigned short> >::end, COMDAT
; _this$ = ecx

; 270  :   const_iterator end() const { return this->_M_node._M_data; }

  00000	8b 09		 mov	 ecx, DWORD PTR [ecx]
  00002	8b 44 24 04	 mov	 eax, DWORD PTR ___$ReturnUdt$[esp-4]
  00006	89 08		 mov	 DWORD PTR [eax], ecx
  00008	c2 04 00	 ret	 4
?end@?$list@GV?$allocator@G@_STL@@@_STL@@QBE?AU?$_List_iterator@GU?$_Const_traits@G@_STL@@@2@XZ ENDP ; _STL::list<unsigned short,_STL::allocator<unsigned short> >::end
_TEXT	ENDS
PUBLIC	?end@?$list@GV?$allocator@G@_STL@@@_STL@@QAE?AU?$_List_iterator@GU?$_Nonconst_traits@G@_STL@@@2@XZ ; _STL::list<unsigned short,_STL::allocator<unsigned short> >::end
; Function compile flags: /Ogsy
;	COMDAT ?end@?$list@GV?$allocator@G@_STL@@@_STL@@QAE?AU?$_List_iterator@GU?$_Nonconst_traits@G@_STL@@@2@XZ
_TEXT	SEGMENT
___$ReturnUdt$ = 8					; size = 4
?end@?$list@GV?$allocator@G@_STL@@@_STL@@QAE?AU?$_List_iterator@GU?$_Nonconst_traits@G@_STL@@@2@XZ PROC NEAR ; _STL::list<unsigned short,_STL::allocator<unsigned short> >::end, COMDAT
; _this$ = ecx

; 269  :   iterator end()             { return this->_M_node._M_data; }

  00000	8b 09		 mov	 ecx, DWORD PTR [ecx]
  00002	8b 44 24 04	 mov	 eax, DWORD PTR ___$ReturnUdt$[esp-4]
  00006	89 08		 mov	 DWORD PTR [eax], ecx
  00008	c2 04 00	 ret	 4
?end@?$list@GV?$allocator@G@_STL@@@_STL@@QAE?AU?$_List_iterator@GU?$_Nonconst_traits@G@_STL@@@2@XZ ENDP ; _STL::list<unsigned short,_STL::allocator<unsigned short> >::end
_TEXT	ENDS
PUBLIC	?_M_create_node@?$list@GV?$allocator@G@_STL@@@_STL@@IAEPAU?$_List_node@G@2@ABG@Z ; _STL::list<unsigned short,_STL::allocator<unsigned short> >::_M_create_node
EXTRN	__CxxThrowException@8:NEAR
; Function compile flags: /Ogsy
;	COMDAT ?_M_create_node@?$list@GV?$allocator@G@_STL@@@_STL@@IAEPAU?$_List_node@G@2@ABG@Z
_TEXT	SEGMENT
___x$ = 8						; size = 4
?_M_create_node@?$list@GV?$allocator@G@_STL@@@_STL@@IAEPAU?$_List_node@G@2@ABG@Z PROC NEAR ; _STL::list<unsigned short,_STL::allocator<unsigned short> >::_M_create_node, COMDAT
; _this$ = ecx

; 241  :     _Node* __p = this->_M_node.allocate(1);

  00000	6a 0c		 push	 12			; 0000000cH
  00002	e8 00 00 00 00	 call	 ?allocate@?$__node_alloc@$00$0A@@_STL@@SAPAXI@Z ; _STL::__node_alloc<1,0>::allocate
  00007	59		 pop	 ecx

; 242  :     _STLP_TRY {
; 243  :       _Construct(&__p->_M_data, __x);

  00008	8d 48 08	 lea	 ecx, DWORD PTR [eax+8]
  0000b	85 c9		 test	 ecx, ecx
  0000d	74 0a		 je	 SHORT $L102328
  0000f	8b 54 24 04	 mov	 edx, DWORD PTR ___x$[esp-4]
  00013	66 8b 12	 mov	 dx, WORD PTR [edx]
  00016	66 89 11	 mov	 WORD PTR [ecx], dx
$L102328:

; 244  :     }
; 245  :     _STLP_UNWIND(this->_M_node.deallocate(__p, 1));
; 246  :     return __p;
; 247  :   }

  00019	c2 04 00	 ret	 4
?_M_create_node@?$list@GV?$allocator@G@_STL@@@_STL@@IAEPAU?$_List_node@G@2@ABG@Z ENDP ; _STL::list<unsigned short,_STL::allocator<unsigned short> >::_M_create_node
_TEXT	ENDS
PUBLIC	??$__distance@U?$_List_iterator@GU?$_Const_traits@G@_STL@@@_STL@@@_STL@@YAHABU?$_List_iterator@GU?$_Const_traits@G@_STL@@@0@0ABUinput_iterator_tag@0@@Z ; _STL::__distance<_STL::_List_iterator<unsigned short,_STL::_Const_traits<unsigned short> > >
; Function compile flags: /Ogsy
; File c:\stlport-4.6.1\stlport\stl\_iterator_base.h
;	COMDAT ??$__distance@U?$_List_iterator@GU?$_Const_traits@G@_STL@@@_STL@@@_STL@@YAHABU?$_List_iterator@GU?$_Const_traits@G@_STL@@@0@0ABUinput_iterator_tag@0@@Z
_TEXT	SEGMENT
___first$ = 8						; size = 4
___last$ = 12						; size = 4
___formal$ = 16						; size = 4
??$__distance@U?$_List_iterator@GU?$_Const_traits@G@_STL@@@_STL@@@_STL@@YAHABU?$_List_iterator@GU?$_Const_traits@G@_STL@@@0@0ABUinput_iterator_tag@0@@Z PROC NEAR ; _STL::__distance<_STL::_List_iterator<unsigned short,_STL::_Const_traits<unsigned short> > >, COMDAT

; 323  :   _STLP_DIFFERENCE_TYPE(_InputIterator) __n = 0;
; 324  :   _InputIterator __it(__first);  
; 325  :   while (__it != __last) {

  00000	8b 54 24 08	 mov	 edx, DWORD PTR ___last$[esp-4]
  00004	8b 4c 24 04	 mov	 ecx, DWORD PTR ___first$[esp-4]
  00008	8b 12		 mov	 edx, DWORD PTR [edx]
  0000a	33 c0		 xor	 eax, eax
  0000c	eb 01		 jmp	 SHORT $L102353
$L101654:

; 326  :     ++__it; ++__n;

  0000e	40		 inc	 eax
$L102353:
  0000f	8b 09		 mov	 ecx, DWORD PTR [ecx]
  00011	3b ca		 cmp	 ecx, edx
  00013	75 f9		 jne	 SHORT $L101654

; 327  :   }
; 328  :   return __n;
; 329  : }

  00015	c3		 ret	 0
??$__distance@U?$_List_iterator@GU?$_Const_traits@G@_STL@@@_STL@@@_STL@@YAHABU?$_List_iterator@GU?$_Const_traits@G@_STL@@@0@0ABUinput_iterator_tag@0@@Z ENDP ; _STL::__distance<_STL::_List_iterator<unsigned short,_STL::_Const_traits<unsigned short> > >
_TEXT	ENDS
PUBLIC	?insert@?$list@GV?$allocator@G@_STL@@@_STL@@QAE?AU?$_List_iterator@GU?$_Nonconst_traits@G@_STL@@@2@U32@ABG@Z ; _STL::list<unsigned short,_STL::allocator<unsigned short> >::insert
; Function compile flags: /Ogsy
; File c:\stlport-4.6.1\stlport\stl\_list.h
;	COMDAT ?insert@?$list@GV?$allocator@G@_STL@@@_STL@@QAE?AU?$_List_iterator@GU?$_Nonconst_traits@G@_STL@@@2@U32@ABG@Z
_TEXT	SEGMENT
___$ReturnUdt$ = 8					; size = 4
___position$ = 12					; size = 4
___x$ = 16						; size = 4
?insert@?$list@GV?$allocator@G@_STL@@@_STL@@QAE?AU?$_List_iterator@GU?$_Nonconst_traits@G@_STL@@@2@U32@ABG@Z PROC NEAR ; _STL::list<unsigned short,_STL::allocator<unsigned short> >::insert, COMDAT
; _this$ = ecx

; 299  : 
; 300  :     _Node* __tmp = _M_create_node(__x);

  00000	ff 74 24 0c	 push	 DWORD PTR ___x$[esp-4]
  00004	e8 00 00 00 00	 call	 ?_M_create_node@?$list@GV?$allocator@G@_STL@@@_STL@@IAEPAU?$_List_node@G@2@ABG@Z ; _STL::list<unsigned short,_STL::allocator<unsigned short> >::_M_create_node

; 301  :     _List_node_base* __n = __position._M_node;
; 302  :     _List_node_base* __p = __n->_M_prev;

  00009	8b 4c 24 08	 mov	 ecx, DWORD PTR ___position$[esp-4]
  0000d	8b 51 04	 mov	 edx, DWORD PTR [ecx+4]

; 303  :     __tmp->_M_next = __n;

  00010	89 08		 mov	 DWORD PTR [eax], ecx

; 304  :     __tmp->_M_prev = __p;

  00012	89 50 04	 mov	 DWORD PTR [eax+4], edx

; 305  :     __p->_M_next = __tmp;

  00015	89 02		 mov	 DWORD PTR [edx], eax

; 306  :     __n->_M_prev = __tmp;

  00017	89 41 04	 mov	 DWORD PTR [ecx+4], eax

; 307  :     return __tmp;

  0001a	8b 4c 24 04	 mov	 ecx, DWORD PTR ___$ReturnUdt$[esp-4]
  0001e	89 01		 mov	 DWORD PTR [ecx], eax
  00020	8b c1		 mov	 eax, ecx

; 308  :   }

  00022	c2 0c 00	 ret	 12			; 0000000cH
?insert@?$list@GV?$allocator@G@_STL@@@_STL@@QAE?AU?$_List_iterator@GU?$_Nonconst_traits@G@_STL@@@2@U32@ABG@Z ENDP ; _STL::list<unsigned short,_STL::allocator<unsigned short> >::insert
_TEXT	ENDS
PUBLIC	??$distance@U?$_List_iterator@GU?$_Const_traits@G@_STL@@@_STL@@@_STL@@YAHABU?$_List_iterator@GU?$_Const_traits@G@_STL@@@0@0@Z ; _STL::distance<_STL::_List_iterator<unsigned short,_STL::_Const_traits<unsigned short> > >
; Function compile flags: /Ogsy
; File c:\stlport-4.6.1\stlport\stl\_iterator_base.h
;	COMDAT ??$distance@U?$_List_iterator@GU?$_Const_traits@G@_STL@@@_STL@@@_STL@@YAHABU?$_List_iterator@GU?$_Const_traits@G@_STL@@@0@0@Z
_TEXT	SEGMENT
___first$ = 8						; size = 4
___last$ = 12						; size = 4
??$distance@U?$_List_iterator@GU?$_Const_traits@G@_STL@@@_STL@@@_STL@@YAHABU?$_List_iterator@GU?$_Const_traits@G@_STL@@@0@0@Z PROC NEAR ; _STL::distance<_STL::_List_iterator<unsigned short,_STL::_Const_traits<unsigned short> > >, COMDAT

; 369  :   return __distance(__first, __last, _STLP_ITERATOR_CATEGORY(__first, _InputIterator));  

  00000	8b 54 24 08	 mov	 edx, DWORD PTR ___last$[esp-4]
  00004	8b 4c 24 04	 mov	 ecx, DWORD PTR ___first$[esp-4]
  00008	8b 12		 mov	 edx, DWORD PTR [edx]
  0000a	33 c0		 xor	 eax, eax
  0000c	eb 01		 jmp	 SHORT $L102396
$L102384:
  0000e	40		 inc	 eax
$L102396:
  0000f	8b 09		 mov	 ecx, DWORD PTR [ecx]
  00011	3b ca		 cmp	 ecx, edx
  00013	75 f9		 jne	 SHORT $L102384

; 370  : }

  00015	c3		 ret	 0
??$distance@U?$_List_iterator@GU?$_Const_traits@G@_STL@@@_STL@@@_STL@@YAHABU?$_List_iterator@GU?$_Const_traits@G@_STL@@@0@0@Z ENDP ; _STL::distance<_STL::_List_iterator<unsigned short,_STL::_Const_traits<unsigned short> > >
_TEXT	ENDS
PUBLIC	?size@?$list@GV?$allocator@G@_STL@@@_STL@@QBEIXZ ; _STL::list<unsigned short,_STL::allocator<unsigned short> >::size
; Function compile flags: /Ogsy
; File c:\stlport-4.6.1\stlport\stl\_list.h
;	COMDAT ?size@?$list@GV?$allocator@G@_STL@@@_STL@@QBEIXZ
_TEXT	SEGMENT
?size@?$list@GV?$allocator@G@_STL@@@_STL@@QBEIXZ PROC NEAR ; _STL::list<unsigned short,_STL::allocator<unsigned short> >::size, COMDAT
; _this$ = ecx

; 284  :     size_type __result = distance(begin(), end());

  00000	8b 11		 mov	 edx, DWORD PTR [ecx]
  00002	8b 0a		 mov	 ecx, DWORD PTR [edx]
  00004	33 c0		 xor	 eax, eax
  00006	eb 03		 jmp	 SHORT $L102477
$L102472:
  00008	8b 09		 mov	 ecx, DWORD PTR [ecx]
  0000a	40		 inc	 eax
$L102477:
  0000b	3b ca		 cmp	 ecx, edx
  0000d	75 f9		 jne	 SHORT $L102472

; 285  :     return __result;
; 286  :   }

  0000f	c3		 ret	 0
?size@?$list@GV?$allocator@G@_STL@@@_STL@@QBEIXZ ENDP	; _STL::list<unsigned short,_STL::allocator<unsigned short> >::size
_TEXT	ENDS
PUBLIC	?push_back@?$list@GV?$allocator@G@_STL@@@_STL@@QAEXABG@Z ; _STL::list<unsigned short,_STL::allocator<unsigned short> >::push_back
; Function compile flags: /Ogsy
;	COMDAT ?push_back@?$list@GV?$allocator@G@_STL@@@_STL@@QAEXABG@Z
_TEXT	SEGMENT
$T102482 = 8						; size = 4
___x$ = 8						; size = 4
?push_back@?$list@GV?$allocator@G@_STL@@@_STL@@QAEXABG@Z PROC NEAR ; _STL::list<unsigned short,_STL::allocator<unsigned short> >::push_back, COMDAT
; _this$ = ecx

; 345  :   void push_back(const _Tp& __x) { insert(end(), __x); }

  00000	55		 push	 ebp
  00001	8b ec		 mov	 ebp, esp
  00003	ff 75 08	 push	 DWORD PTR ___x$[ebp]
  00006	8b 11		 mov	 edx, DWORD PTR [ecx]
  00008	51		 push	 ecx
  00009	8b c4		 mov	 eax, esp
  0000b	89 10		 mov	 DWORD PTR [eax], edx
  0000d	8d 45 08	 lea	 eax, DWORD PTR $T102482[ebp]
  00010	50		 push	 eax
  00011	e8 00 00 00 00	 call	 ?insert@?$list@GV?$allocator@G@_STL@@@_STL@@QAE?AU?$_List_iterator@GU?$_Nonconst_traits@G@_STL@@@2@U32@ABG@Z ; _STL::list<unsigned short,_STL::allocator<unsigned short> >::insert
  00016	5d		 pop	 ebp
  00017	c2 04 00	 ret	 4
?push_back@?$list@GV?$allocator@G@_STL@@@_STL@@QAEXABG@Z ENDP ; _STL::list<unsigned short,_STL::allocator<unsigned short> >::push_back
_TEXT	ENDS
PUBLIC	?read@GCAddItemToItemVerify@@UAEXAAVSocketInputStream@@@Z ; GCAddItemToItemVerify::read
; Function compile flags: /Ogsy
; File c:\darkeden\designed_common\project\client\packet\gpackets\gcadditemtoitemverify.cpp
;	COMDAT ?read@GCAddItemToItemVerify@@UAEXAAVSocketInputStream@@@Z
_TEXT	SEGMENT
_i$100937 = -8						; size = 4
_thirdoptionType$100941 = -4				; size = 2
_iStream$ = 8						; size = 4
_thirdoptionSize$100936 = 11				; size = 1
?read@GCAddItemToItemVerify@@UAEXAAVSocketInputStream@@@Z PROC NEAR ; GCAddItemToItemVerify::read, COMDAT
; _this$ = ecx

; 14   : {

  00000	55		 push	 ebp
  00001	8b ec		 mov	 ebp, esp
  00003	51		 push	 ecx
  00004	51		 push	 ecx
  00005	53		 push	 ebx

; 15   : 	__BEGIN_TRY
; 16   : 
; 17   : 	iStream.read(m_Code);

  00006	8b 5d 08	 mov	 ebx, DWORD PTR _iStream$[ebp]
  00009	56		 push	 esi
  0000a	57		 push	 edi
  0000b	8b f1		 mov	 esi, ecx
  0000d	6a 01		 push	 1
  0000f	8d 7e 04	 lea	 edi, DWORD PTR [esi+4]
  00012	57		 push	 edi
  00013	8b cb		 mov	 ecx, ebx
  00015	e8 00 00 00 00	 call	 ?read@SocketInputStream@@QAEIPADI@Z ; SocketInputStream::read

; 18   : 
; 19   : 	switch (m_Code)

  0001a	0f b6 07	 movzx	 eax, BYTE PTR [edi]
  0001d	83 c0 fd	 add	 eax, -3			; fffffffdH
  00020	83 f8 13	 cmp	 eax, 19			; 00000013H
  00023	77 6c		 ja	 SHORT $L102519
  00025	0f b6 80 00 00
	00 00		 movzx	 eax, BYTE PTR $L102522[eax]
  0002c	ff 24 85 00 00
	00 00		 jmp	 DWORD PTR $L102525[eax*4]
$L100933:

; 20   : 	{
; 21   : 		//    
; 22   : 		case ADD_ITEM_TO_ITEM_VERIFY_ENCHANT_FAIL_DECREASE :
; 23   : 		case ADD_ITEM_TO_ITEM_VERIFY_ENCHANT_OK :
; 24   : 		case ADD_ITEM_TO_ITEM_VERIFY_MIXING_OK :
; 25   : 		case ADD_ITEM_TO_ITEM_VERIFY_DETACHING_OK :
; 26   : 		case ADD_ITEM_TO_ITEM_VERIFY_REVIVAL_OK:
; 27   : 		case ADD_ITEM_TO_ITEM_VERIFY_UP_GRADE_OK:
; 28   : #if __CONTENTS(__2008_FIRST_CHARGE_ITEM)
; 29   : 		case ADD_ITEM_TO_ITEM_VERIFY_CHANGE_ENCHANT_OK :					// 
; 30   : #endif	//__2008_FIRST_CHARGE_ITEM
; 31   : #if __CONTENTS(__TUNING_ITEM)
; 32   : 		case ADD_ITEM_TO_ITEM_VERIFY_TUNING_OK :
; 33   : #endif	//__TUNING_ITEM
; 34   : #if __CONTENTS(__IMI_LOW_LEVEL_ITEM)
; 35   : 		case ADD_ITEM_TO_ITEM_VERIFY_ENCHANT_DOWN_GRADE:
; 36   : #endif //__IMI_LOW_LEVEL_ITEM
; 37   : 			iStream.read(m_Parameter);

  00033	6a 04		 push	 4
  00035	83 c6 08	 add	 esi, 8

; 38   : 			break;

  00038	eb 4f		 jmp	 SHORT $L102523
$L100934:

; 39   : 		//    0        0
; 40   : 		case ADD_ITEM_TO_ITEM_VERIFY_THIRD_ENCHANT_FAIL:
; 41   : 			{
; 42   : 				iStream.read(m_Grade);

  0003a	83 c6 11	 add	 esi, 17			; 00000011H

; 43   : 			}
; 44   : 			break;

  0003d	eb 48		 jmp	 SHORT $L102524
$L100935:

; 45   : 		case ADD_ITEM_TO_ITEM_VERIFY_THIRD_ENCHANT_OK:
; 46   : 			{
; 47   : 				BYTE thirdoptionSize;
; 48   : 				iStream.read( thirdoptionSize );

  0003f	6a 01		 push	 1
  00041	8d 45 0b	 lea	 eax, DWORD PTR _thirdoptionSize$100936[ebp]
  00044	50		 push	 eax
  00045	8b cb		 mov	 ecx, ebx
  00047	e8 00 00 00 00	 call	 ?read@SocketInputStream@@QAEIPADI@Z ; SocketInputStream::read

; 49   : 				m_ThirdOptionType.clear();

  0004c	8d 7e 0c	 lea	 edi, DWORD PTR [esi+12]
  0004f	8b cf		 mov	 ecx, edi
  00051	e8 00 00 00 00	 call	 ?clear@?$_List_base@GV?$allocator@G@_STL@@@_STL@@QAEXXZ ; _STL::_List_base<unsigned short,_STL::allocator<unsigned short> >::clear

; 50   : 				
; 51   : 				for (int i = 0; i < thirdoptionSize; i++) 

  00056	83 65 f8 00	 and	 DWORD PTR _i$100937[ebp], 0
  0005a	80 7d 0b 00	 cmp	 BYTE PTR _thirdoptionSize$100936[ebp], 0
  0005e	76 24		 jbe	 SHORT $L100940
$L100938:

; 52   : 				{
; 53   : 					OptionType_t thirdoptionType;
; 54   : 					iStream.read( thirdoptionType );

  00060	6a 02		 push	 2
  00062	8d 45 fc	 lea	 eax, DWORD PTR _thirdoptionType$100941[ebp]
  00065	50		 push	 eax
  00066	8b cb		 mov	 ecx, ebx
  00068	e8 00 00 00 00	 call	 ?read@SocketInputStream@@QAEIPADI@Z ; SocketInputStream::read

; 55   : 					m_ThirdOptionType.push_back( thirdoptionType );

  0006d	8d 45 fc	 lea	 eax, DWORD PTR _thirdoptionType$100941[ebp]
  00070	50		 push	 eax
  00071	8b cf		 mov	 ecx, edi
  00073	e8 00 00 00 00	 call	 ?push_back@?$list@GV?$allocator@G@_STL@@@_STL@@QAEXABG@Z ; _STL::list<unsigned short,_STL::allocator<unsigned short> >::push_back
  00078	0f b6 45 0b	 movzx	 eax, BYTE PTR _thirdoptionSize$100936[ebp]
  0007c	ff 45 f8	 inc	 DWORD PTR _i$100937[ebp]
  0007f	39 45 f8	 cmp	 DWORD PTR _i$100937[ebp], eax
  00082	7c dc		 jl	 SHORT $L100938
$L100940:

; 56   : 				}
; 57   : 				iStream.read(m_EnchantClass);

  00084	83 c6 10	 add	 esi, 16			; 00000010H
$L102524:
  00087	6a 01		 push	 1
$L102523:
  00089	8b cb		 mov	 ecx, ebx
  0008b	56		 push	 esi
  0008c	e8 00 00 00 00	 call	 ?read@SocketInputStream@@QAEIPADI@Z ; SocketInputStream::read
$L102519:
  00091	5f		 pop	 edi
  00092	5e		 pop	 esi
  00093	5b		 pop	 ebx

; 58   : 			}
; 59   : 		//        
; 60   : 		case ADD_ITEM_TO_ITEM_VERIFY_ENCHANT_FAIL_CRASH:
; 61   : 		case ADD_ITEM_TO_ITEM_VERIFY_ENCHANT_FAIL:
; 62   : 		default:
; 63   : 			break;
; 64   : 	}
; 65   : 
; 66   : 	__END_CATCH
; 67   : }

  00094	c9		 leave
  00095	c2 04 00	 ret	 4
$L102525:
  00098	00 00 00 00	 DD	 $L100933
  0009c	00 00 00 00	 DD	 $L100934
  000a0	00 00 00 00	 DD	 $L100935
  000a4	00 00 00 00	 DD	 $L102519
$L102522:
  000a8	00		 DB	 0
  000a9	00		 DB	 0
  000aa	03		 DB	 3
  000ab	03		 DB	 3
  000ac	03		 DB	 3
  000ad	00		 DB	 0
  000ae	00		 DB	 0
  000af	03		 DB	 3
  000b0	03		 DB	 3
  000b1	00		 DB	 0
  000b2	03		 DB	 3
  000b3	00		 DB	 0
  000b4	03		 DB	 3
  000b5	03		 DB	 3
  000b6	03		 DB	 3
  000b7	03		 DB	 3
  000b8	01		 DB	 1
  000b9	02		 DB	 2
  000ba	00		 DB	 0
  000bb	00		 DB	 0
?read@GCAddItemToItemVerify@@UAEXAAVSocketInputStream@@@Z ENDP ; GCAddItemToItemVerify::read
_TEXT	ENDS
PUBLIC	?write@GCAddItemToItemVerify@@UBEXAAVSocketOutputStream@@@Z ; GCAddItemToItemVerify::write
; Function compile flags: /Ogsy
;	COMDAT ?write@GCAddItemToItemVerify@@UBEXAAVSocketOutputStream@@@Z
_TEXT	SEGMENT
$T102534 = -4						; size = 1
$T102706 = 8						; size = 2
$T102538 = 8						; size = 4
_oStream$ = 8						; size = 4
$T102655 = 11						; size = 1
$T102710 = 11						; size = 1
$T102542 = 11						; size = 1
?write@GCAddItemToItemVerify@@UBEXAAVSocketOutputStream@@@Z PROC NEAR ; GCAddItemToItemVerify::write, COMDAT
; _this$ = ecx

; 74   : {

  00000	55		 push	 ebp
  00001	8b ec		 mov	 ebp, esp
  00003	51		 push	 ecx
  00004	53		 push	 ebx

; 75   : 	__BEGIN_TRY
; 76   : 
; 77   : 	oStream.write(m_Code);

  00005	8b 5d 08	 mov	 ebx, DWORD PTR _oStream$[ebp]
  00008	56		 push	 esi
  00009	8b f1		 mov	 esi, ecx
  0000b	8a 46 04	 mov	 al, BYTE PTR [esi+4]
  0000e	88 45 fc	 mov	 BYTE PTR $T102534[ebp], al
  00011	6a 01		 push	 1
  00013	8d 45 fc	 lea	 eax, DWORD PTR $T102534[ebp]
  00016	50		 push	 eax
  00017	8b cb		 mov	 ecx, ebx
  00019	e8 00 00 00 00	 call	 ?write@SocketOutputStream@@QAEIPBDI@Z ; SocketOutputStream::write

; 78   : 
; 79   : 	switch (m_Code)

  0001e	0f b6 46 04	 movzx	 eax, BYTE PTR [esi+4]
  00022	83 f8 0e	 cmp	 eax, 14			; 0000000eH
  00025	7f 34		 jg	 SHORT $L102530
  00027	74 25		 je	 SHORT $L100953
  00029	83 f8 03	 cmp	 eax, 3
  0002c	0f 8c a1 00 00
	00		 jl	 $L102541
  00032	83 f8 04	 cmp	 eax, 4
  00035	7e 17		 jle	 SHORT $L100953
  00037	83 f8 07	 cmp	 eax, 7
  0003a	0f 8e 93 00 00
	00		 jle	 $L102541
  00040	83 f8 09	 cmp	 eax, 9
  00043	7e 09		 jle	 SHORT $L100953
  00045	83 f8 0c	 cmp	 eax, 12			; 0000000cH
  00048	0f 85 85 00 00
	00		 jne	 $L102541
$L100953:

; 80   : 	{
; 81   : 		//    
; 82   : 		case ADD_ITEM_TO_ITEM_VERIFY_ENCHANT_FAIL_DECREASE :
; 83   : 		case ADD_ITEM_TO_ITEM_VERIFY_ENCHANT_OK :
; 84   : 		case ADD_ITEM_TO_ITEM_VERIFY_MIXING_OK :
; 85   : 		case ADD_ITEM_TO_ITEM_VERIFY_DETACHING_OK:
; 86   : 		case ADD_ITEM_TO_ITEM_VERIFY_REVIVAL_OK:
; 87   : 		case ADD_ITEM_TO_ITEM_VERIFY_UP_GRADE_OK:
; 88   : 			oStream.write(m_Parameter);

  0004e	8b 46 08	 mov	 eax, DWORD PTR [esi+8]
  00051	89 45 08	 mov	 DWORD PTR $T102538[ebp], eax
  00054	6a 04		 push	 4
  00056	8d 45 08	 lea	 eax, DWORD PTR $T102538[ebp]

; 89   : 			break;

  00059	eb 70		 jmp	 SHORT $L102715
$L102530:

; 78   : 
; 79   : 	switch (m_Code)

  0005b	83 e8 13	 sub	 eax, 19			; 00000013H
  0005e	74 60		 je	 SHORT $L100954
  00060	48		 dec	 eax
  00061	75 70		 jne	 SHORT $L102541

; 93   : 			}
; 94   : 			break;
; 95   : 		case ADD_ITEM_TO_ITEM_VERIFY_THIRD_ENCHANT_OK:
; 96   : 			{
; 97   : 				BYTE thirdoptionSize = m_ThirdOptionType.size();

  00063	8b 4e 0c	 mov	 ecx, DWORD PTR [esi+12]
  00066	8b 01		 mov	 eax, DWORD PTR [ecx]
  00068	33 d2		 xor	 edx, edx
  0006a	eb 03		 jmp	 SHORT $L102716
$L102647:
  0006c	8b 00		 mov	 eax, DWORD PTR [eax]
  0006e	42		 inc	 edx
$L102716:
  0006f	3b c1		 cmp	 eax, ecx
  00071	75 f9		 jne	 SHORT $L102647
  00073	57		 push	 edi

; 98   : 				oStream.write( thirdoptionSize );

  00074	6a 01		 push	 1
  00076	8d 45 0b	 lea	 eax, DWORD PTR $T102655[ebp]
  00079	50		 push	 eax
  0007a	8b cb		 mov	 ecx, ebx
  0007c	88 55 0b	 mov	 BYTE PTR $T102655[ebp], dl
  0007f	e8 00 00 00 00	 call	 ?write@SocketOutputStream@@QAEIPBDI@Z ; SocketOutputStream::write

; 99   : 				std::list<OptionType_t>::const_iterator iOption = m_ThirdOptionType.begin();

  00084	8b 46 0c	 mov	 eax, DWORD PTR [esi+12]
  00087	8b 38		 mov	 edi, DWORD PTR [eax]

; 100  : 				for (; iOption!= m_ThirdOptionType.end(); iOption++) 

  00089	3b f8		 cmp	 edi, eax
  0008b	74 1d		 je	 SHORT $L101044
$L102679:

; 101  : 				{
; 102  : 					OptionType_t thirdoptionType = *iOption;
; 103  : 					oStream.write( thirdoptionType );

  0008d	33 c0		 xor	 eax, eax
  0008f	66 8b 47 08	 mov	 ax, WORD PTR [edi+8]
  00093	6a 02		 push	 2
  00095	8b cb		 mov	 ecx, ebx
  00097	89 45 08	 mov	 DWORD PTR $T102706[ebp], eax
  0009a	8d 45 08	 lea	 eax, DWORD PTR $T102706[ebp]
  0009d	50		 push	 eax
  0009e	e8 00 00 00 00	 call	 ?write@SocketOutputStream@@QAEIPBDI@Z ; SocketOutputStream::write
  000a3	8b 3f		 mov	 edi, DWORD PTR [edi]
  000a5	3b 7e 0c	 cmp	 edi, DWORD PTR [esi+12]
  000a8	75 e3		 jne	 SHORT $L102679
$L101044:

; 104  : 				}
; 105  : 				oStream.write(m_EnchantClass);

  000aa	8a 46 10	 mov	 al, BYTE PTR [esi+16]
  000ad	88 45 0b	 mov	 BYTE PTR $T102710[ebp], al
  000b0	6a 01		 push	 1
  000b2	8d 45 0b	 lea	 eax, DWORD PTR $T102710[ebp]
  000b5	50		 push	 eax
  000b6	8b cb		 mov	 ecx, ebx
  000b8	e8 00 00 00 00	 call	 ?write@SocketOutputStream@@QAEIPBDI@Z ; SocketOutputStream::write
  000bd	5f		 pop	 edi

; 106  : 			}
; 107  : 			break;

  000be	eb 13		 jmp	 SHORT $L102541
$L100954:

; 90   : 		case ADD_ITEM_TO_ITEM_VERIFY_THIRD_ENCHANT_FAIL:
; 91   : 			{
; 92   : 				oStream.write(m_Grade);

  000c0	8a 46 11	 mov	 al, BYTE PTR [esi+17]
  000c3	88 45 0b	 mov	 BYTE PTR $T102542[ebp], al
  000c6	6a 01		 push	 1
  000c8	8d 45 0b	 lea	 eax, DWORD PTR $T102542[ebp]
$L102715:
  000cb	8b cb		 mov	 ecx, ebx
  000cd	50		 push	 eax
  000ce	e8 00 00 00 00	 call	 ?write@SocketOutputStream@@QAEIPBDI@Z ; SocketOutputStream::write
$L102541:
  000d3	5e		 pop	 esi
  000d4	5b		 pop	 ebx

; 108  : 
; 109  : 		//     
; 110  : 		case ADD_ITEM_TO_ITEM_VERIFY_ENCHANT_FAIL_CRASH :
; 111  : 		case ADD_ITEM_TO_ITEM_VERIFY_ENCHANT_FAIL:
; 112  : 		default:
; 113  : 			break;
; 114  : 	}
; 115  : 
; 116  : 	__END_CATCH
; 117  : }

  000d5	c9		 leave
  000d6	c2 04 00	 ret	 4
?write@GCAddItemToItemVerify@@UBEXAAVSocketOutputStream@@@Z ENDP ; GCAddItemToItemVerify::write
_TEXT	ENDS
PUBLIC	?getPacketSize@GCAddItemToItemVerify@@UBEIXZ	; GCAddItemToItemVerify::getPacketSize
; Function compile flags: /Ogsy
;	COMDAT ?getPacketSize@GCAddItemToItemVerify@@UBEIXZ
_TEXT	SEGMENT
?getPacketSize@GCAddItemToItemVerify@@UBEIXZ PROC NEAR	; GCAddItemToItemVerify::getPacketSize, COMDAT
; _this$ = ecx

; 139  : 	__BEGIN_TRY
; 140  : 
; 141  : 	PacketSize_t size = szBYTE;
; 142  : 
; 143  : 	switch (m_Code)

  00000	8a 51 04	 mov	 dl, BYTE PTR [ecx+4]
  00003	33 c0		 xor	 eax, eax
  00005	40		 inc	 eax
  00006	80 fa 03	 cmp	 dl, 3
  00009	72 39		 jb	 SHORT $L101066
  0000b	80 fa 04	 cmp	 dl, 4
  0000e	76 31		 jbe	 SHORT $L101063
  00010	80 fa 07	 cmp	 dl, 7
  00013	76 2f		 jbe	 SHORT $L101066
  00015	80 fa 09	 cmp	 dl, 9
  00018	76 27		 jbe	 SHORT $L101063
  0001a	80 fa 0c	 cmp	 dl, 12			; 0000000cH
  0001d	74 22		 je	 SHORT $L101063
  0001f	80 fa 13	 cmp	 dl, 19			; 00000013H
  00022	74 19		 je	 SHORT $L101064
  00024	80 fa 14	 cmp	 dl, 20			; 00000014H
  00027	75 1b		 jne	 SHORT $L101066

; 159  : 			}
; 160  : 			break;
; 161  : 		case ADD_ITEM_TO_ITEM_VERIFY_THIRD_ENCHANT_OK:
; 162  : 			{
; 163  : 				size += szBYTE;
; 164  : 				size += m_ThirdOptionType.size();

  00029	8b 49 0c	 mov	 ecx, DWORD PTR [ecx+12]
  0002c	8b 01		 mov	 eax, DWORD PTR [ecx]
  0002e	33 d2		 xor	 edx, edx
  00030	eb 03		 jmp	 SHORT $L102830
$L102816:
  00032	8b 00		 mov	 eax, DWORD PTR [eax]
  00034	42		 inc	 edx
$L102830:
  00035	3b c1		 cmp	 eax, ecx
  00037	75 f9		 jne	 SHORT $L102816

; 165  : 				size += szBYTE;
; 166  : 			}
; 167  : 			break;
; 168  : 		//     
; 169  : 		case ADD_ITEM_TO_ITEM_VERIFY_ENCHANT_FAIL_CRASH :
; 170  : 		case ADD_ITEM_TO_ITEM_VERIFY_ENCHANT_FAIL:
; 171  : 		default:
; 172  : 			break;
; 173  : 	}
; 174  : 
; 175  : 	return size;

  00039	8d 42 03	 lea	 eax, DWORD PTR [edx+3]

; 176  : 
; 177  : 	__END_CATCH
; 178  : }

  0003c	c3		 ret	 0
$L101064:

; 155  : 			break;
; 156  : 		case ADD_ITEM_TO_ITEM_VERIFY_THIRD_ENCHANT_FAIL:
; 157  : 			{
; 158  : 				size += szBYTE;

  0003d	6a 02		 push	 2

; 144  : 	{
; 145  : 		//    
; 146  : 		case ADD_ITEM_TO_ITEM_VERIFY_ENCHANT_FAIL_DECREASE :
; 147  : 		case ADD_ITEM_TO_ITEM_VERIFY_ENCHANT_OK :
; 148  : 		case ADD_ITEM_TO_ITEM_VERIFY_DETACHING_OK :
; 149  : 		case ADD_ITEM_TO_ITEM_VERIFY_MIXING_OK :
; 150  : 		case ADD_ITEM_TO_ITEM_VERIFY_REVIVAL_OK:
; 151  : #if __CONTENTS(__IMI_LOW_LEVEL_ITEM)
; 152  : 		case ADD_ITEM_TO_ITEM_VERIFY_ENCHANT_DOWN_GRADE:
; 153  : #endif //__IMI_LOW_LEVEL_ITEM
; 154  : 			size += szuint;

  0003f	58		 pop	 eax

; 176  : 
; 177  : 	__END_CATCH
; 178  : }

  00040	c3		 ret	 0
$L101063:

; 144  : 	{
; 145  : 		//    
; 146  : 		case ADD_ITEM_TO_ITEM_VERIFY_ENCHANT_FAIL_DECREASE :
; 147  : 		case ADD_ITEM_TO_ITEM_VERIFY_ENCHANT_OK :
; 148  : 		case ADD_ITEM_TO_ITEM_VERIFY_DETACHING_OK :
; 149  : 		case ADD_ITEM_TO_ITEM_VERIFY_MIXING_OK :
; 150  : 		case ADD_ITEM_TO_ITEM_VERIFY_REVIVAL_OK:
; 151  : #if __CONTENTS(__IMI_LOW_LEVEL_ITEM)
; 152  : 		case ADD_ITEM_TO_ITEM_VERIFY_ENCHANT_DOWN_GRADE:
; 153  : #endif //__IMI_LOW_LEVEL_ITEM
; 154  : 			size += szuint;

  00041	6a 05		 push	 5
  00043	58		 pop	 eax
$L101066:

; 176  : 
; 177  : 	__END_CATCH
; 178  : }

  00044	c3		 ret	 0
?getPacketSize@GCAddItemToItemVerify@@UBEIXZ ENDP	; GCAddItemToItemVerify::getPacketSize
_TEXT	ENDS
END
