; Listing generated by Microsoft (R) Optimizing Compiler Version 13.10.3077 

	TITLE	\darkeden\Designed_Common\Project\Client\Packet\Gpackets\GCModifyInformation.cpp
	.386P
include listing.inc
if @Version gt 510
.model FLAT
else
_TEXT	SEGMENT PARA USE32 PUBLIC 'CODE'
_TEXT	ENDS
_DATA	SEGMENT DWORD USE32 PUBLIC 'DATA'
_DATA	ENDS
CONST	SEGMENT DWORD USE32 PUBLIC 'CONST'
CONST	ENDS
_BSS	SEGMENT DWORD USE32 PUBLIC 'BSS'
_BSS	ENDS
$$SYMBOLS	SEGMENT BYTE USE32 'DEBSYM'
$$SYMBOLS	ENDS
$$TYPES	SEGMENT BYTE USE32 'DEBTYP'
$$TYPES	ENDS
_TLS	SEGMENT DWORD USE32 PUBLIC 'TLS'
_TLS	ENDS
;	COMDAT ??_C@_0CA@NDINADEE@SocketOutputStream?$CIm_BufferLen?3?$AA@
CONST	SEGMENT DWORD USE32 PUBLIC 'CONST'
CONST	ENDS
;	COMDAT ??_C@_08LIHEOLAN@?0m_Head?3?$AA@
CONST	SEGMENT DWORD USE32 PUBLIC 'CONST'
CONST	ENDS
;	COMDAT ??_C@_08PCEHPGHK@?0m_Tail?3?$AA@
CONST	SEGMENT DWORD USE32 PUBLIC 'CONST'
CONST	ENDS
;	COMDAT ??_C@_01PKGAHCOL@?$CJ?$AA@
CONST	SEGMENT DWORD USE32 PUBLIC 'CONST'
CONST	ENDS
;	COMDAT ??_C@_09EMOGKKPB@BASIC_STR?$AA@
CONST	SEGMENT DWORD USE32 PUBLIC 'CONST'
CONST	ENDS
;	COMDAT ??_C@_0M@EJOONLND@CURRENT_STR?$AA@
CONST	SEGMENT DWORD USE32 PUBLIC 'CONST'
CONST	ENDS
;	COMDAT ??_C@_07KKCHECBB@MAX_STR?$AA@
CONST	SEGMENT DWORD USE32 PUBLIC 'CONST'
CONST	ENDS
;	COMDAT ??_C@_0P@CEHLLGLK@STR_EXP_REMAIN?$AA@
CONST	SEGMENT DWORD USE32 PUBLIC 'CONST'
CONST	ENDS
;	COMDAT ??_C@_09GGCDOEBK@BASIC_DEX?$AA@
CONST	SEGMENT DWORD USE32 PUBLIC 'CONST'
CONST	ENDS
;	COMDAT ??_C@_0M@GDCLJFDI@CURRENT_DEX?$AA@
CONST	SEGMENT DWORD USE32 PUBLIC 'CONST'
CONST	ENDS
;	COMDAT ??_C@_07IAOCAMPK@MAX_DEX?$AA@
CONST	SEGMENT DWORD USE32 PUBLIC 'CONST'
CONST	ENDS
;	COMDAT ??_C@_0P@DKPKJNND@DEX_EXP_REMAIN?$AA@
CONST	SEGMENT DWORD USE32 PUBLIC 'CONST'
CONST	ENDS
;	COMDAT ??_C@_09DEKJJMCK@BASIC_INT?$AA@
CONST	SEGMENT DWORD USE32 PUBLIC 'CONST'
CONST	ENDS
;	COMDAT ??_C@_0M@DBKBONAI@CURRENT_INT?$AA@
CONST	SEGMENT DWORD USE32 PUBLIC 'CONST'
CONST	ENDS
;	COMDAT ??_C@_07NCGIHEMK@MAX_INT?$AA@
CONST	SEGMENT DWORD USE32 PUBLIC 'CONST'
CONST	ENDS
;	COMDAT ??_C@_0P@BDHGGNMJ@INT_EXP_REMAIN?$AA@
CONST	SEGMENT DWORD USE32 PUBLIC 'CONST'
CONST	ENDS
;	COMDAT ??_C@_0L@HGOGCHKL@CURRENT_HP?$AA@
CONST	SEGMENT DWORD USE32 PUBLIC 'CONST'
CONST	ENDS
;	COMDAT ??_C@_06NMHEPHCD@MAX_HP?$AA@
CONST	SEGMENT DWORD USE32 PUBLIC 'CONST'
CONST	ENDS
;	COMDAT ??_C@_0L@HACNOFEA@CURRENT_MP?$AA@
CONST	SEGMENT DWORD USE32 PUBLIC 'CONST'
CONST	ENDS
;	COMDAT ??_C@_06NKLPDFMI@MAX_MP?$AA@
CONST	SEGMENT DWORD USE32 PUBLIC 'CONST'
CONST	ENDS
;	COMDAT ??_C@_0L@HOANAEGI@MIN_DAMAGE?$AA@
CONST	SEGMENT DWORD USE32 PUBLIC 'CONST'
CONST	ENDS
;	COMDAT ??_C@_0L@LCAAHPGH@MAX_DAMAGE?$AA@
CONST	SEGMENT DWORD USE32 PUBLIC 'CONST'
CONST	ENDS
;	COMDAT ??_C@_07PABEIMLA@DEFENSE?$AA@
CONST	SEGMENT DWORD USE32 PUBLIC 'CONST'
CONST	ENDS
;	COMDAT ??_C@_0L@CACMAAHO@PROTECTION?$AA@
CONST	SEGMENT DWORD USE32 PUBLIC 'CONST'
CONST	ENDS
;	COMDAT ??_C@_05PMLNIFOI@TOHIT?$AA@
CONST	SEGMENT DWORD USE32 PUBLIC 'CONST'
CONST	ENDS
;	COMDAT ??_C@_06IGFCKNHC@VISION?$AA@
CONST	SEGMENT DWORD USE32 PUBLIC 'CONST'
CONST	ENDS
;	COMDAT ??_C@_04DIIKDPIA@FAME?$AA@
CONST	SEGMENT DWORD USE32 PUBLIC 'CONST'
CONST	ENDS
;	COMDAT ??_C@_04PNOMDKHF@GOLD?$AA@
CONST	SEGMENT DWORD USE32 PUBLIC 'CONST'
CONST	ENDS
;	COMDAT ??_C@_0BD@KMGAIODB@SWORD_DOMAIN_LEVEL?$AA@
CONST	SEGMENT DWORD USE32 PUBLIC 'CONST'
CONST	ENDS
;	COMDAT ??_C@_0BI@BGNAADGH@SWORD_DOMAIN_EXP_REMAIN?$AA@
CONST	SEGMENT DWORD USE32 PUBLIC 'CONST'
CONST	ENDS
;	COMDAT ??_C@_0BG@IGGENAK@SWORD_DOMAIN_GOAL_EXP?$AA@
CONST	SEGMENT DWORD USE32 PUBLIC 'CONST'
CONST	ENDS
;	COMDAT ??_C@_0BD@PGNNGOBB@BLADE_DOMAIN_LEVEL?$AA@
CONST	SEGMENT DWORD USE32 PUBLIC 'CONST'
CONST	ENDS
;	COMDAT ??_C@_0BI@IMLMLFMG@BLADE_DOMAIN_EXP_REMAIN?$AA@
CONST	SEGMENT DWORD USE32 PUBLIC 'CONST'
CONST	ENDS
;	COMDAT ??_C@_0BG@NLIFDHGN@BLADE_DOMAIN_GOAL_EXP?$AA@
CONST	SEGMENT DWORD USE32 PUBLIC 'CONST'
CONST	ENDS
;	COMDAT ??_C@_0BC@GPJLIFK@HEAL_DOMAIN_LEVEL?$AA@
CONST	SEGMENT DWORD USE32 PUBLIC 'CONST'
CONST	ENDS
;	COMDAT ??_C@_0BH@ILFIDFFK@HEAL_DOMAIN_EXP_REMAIN?$AA@
CONST	SEGMENT DWORD USE32 PUBLIC 'CONST'
CONST	ENDS
;	COMDAT ??_C@_0BF@EMCLNDPE@HEAL_DOMAIN_GOAL_EXP?$AA@
CONST	SEGMENT DWORD USE32 PUBLIC 'CONST'
CONST	ENDS
;	COMDAT ??_C@_0BF@ONHDOKIF@ENCHANT_DOMAIN_LEVEL?$AA@
CONST	SEGMENT DWORD USE32 PUBLIC 'CONST'
CONST	ENDS
;	COMDAT ??_C@_0BK@LANBKOIK@ENCHANT_DOMAIN_EXP_REMAIN?$AA@
CONST	SEGMENT DWORD USE32 PUBLIC 'CONST'
CONST	ENDS
;	COMDAT ??_C@_0BI@EPBOPEPK@ENCHANT_DOMAIN_GOAL_EXP?$AA@
CONST	SEGMENT DWORD USE32 PUBLIC 'CONST'
CONST	ENDS
;	COMDAT ??_C@_0BB@ELHNALIJ@GUN_DOMAIN_LEVEL?$AA@
CONST	SEGMENT DWORD USE32 PUBLIC 'CONST'
CONST	ENDS
;	COMDAT ??_C@_0BG@OJCBFDLD@GUN_DOMAIN_EXP_REMAIN?$AA@
CONST	SEGMENT DWORD USE32 PUBLIC 'CONST'
CONST	ENDS
;	COMDAT ??_C@_0BE@OGNJOCJC@GUN_DOMAIN_GOAL_EXP?$AA@
CONST	SEGMENT DWORD USE32 PUBLIC 'CONST'
CONST	ENDS
;	COMDAT ??_C@_0BB@MNCHHIND@ETC_DOMAIN_LEVEL?$AA@
CONST	SEGMENT DWORD USE32 PUBLIC 'CONST'
CONST	ENDS
;	COMDAT ??_C@_0BG@OOPKBPAA@ETC_DOMAIN_EXP_REMAIN?$AA@
CONST	SEGMENT DWORD USE32 PUBLIC 'CONST'
CONST	ENDS
;	COMDAT ??_C@_0BE@IFONLKN@ETC_DOMAIN_GOAL_EXP?$AA@
CONST	SEGMENT DWORD USE32 PUBLIC 'CONST'
CONST	ENDS
;	COMDAT ??_C@_0M@OHHCLPDA@SKILL_LEVEL?$AA@
CONST	SEGMENT DWORD USE32 PUBLIC 'CONST'
CONST	ENDS
;	COMDAT ??_C@_05GCEPFMCO@LEVEL?$AA@
CONST	SEGMENT DWORD USE32 PUBLIC 'CONST'
CONST	ENDS
;	COMDAT ??_C@_0M@MLFPLLC@EFFECT_STAT?$AA@
CONST	SEGMENT DWORD USE32 PUBLIC 'CONST'
CONST	ENDS
;	COMDAT ??_C@_08MJLDLDGF@DURATION?$AA@
CONST	SEGMENT DWORD USE32 PUBLIC 'CONST'
CONST	ENDS
;	COMDAT ??_C@_06JADFICD@BULLET?$AA@
CONST	SEGMENT DWORD USE32 PUBLIC 'CONST'
CONST	ENDS
;	COMDAT ??_C@_0M@DPKCELMF@BONUS_POINT?$AA@
CONST	SEGMENT DWORD USE32 PUBLIC 'CONST'
CONST	ENDS
;	COMDAT ??_C@_0L@JEFHDPIL@DURABILITY?$AA@
CONST	SEGMENT DWORD USE32 PUBLIC 'CONST'
CONST	ENDS
;	COMDAT ??_C@_09EGKBMPFK@NOTORIETY?$AA@
CONST	SEGMENT DWORD USE32 PUBLIC 'CONST'
CONST	ENDS
;	COMDAT ??_C@_0BA@MAIHAHDB@VAMP_EXP_REMAIN?$AA@
CONST	SEGMENT DWORD USE32 PUBLIC 'CONST'
CONST	ENDS
;	COMDAT ??_C@_0O@ENDFFBFD@SILVER_DAMAGE?$AA@
CONST	SEGMENT DWORD USE32 PUBLIC 'CONST'
CONST	ENDS
;	COMDAT ??_C@_0N@KMAAPCII@ATTACK_SPEED?$AA@
CONST	SEGMENT DWORD USE32 PUBLIC 'CONST'
CONST	ENDS
;	COMDAT ??_C@_09HPPNPOEE@ALIGNMENT?$AA@
CONST	SEGMENT DWORD USE32 PUBLIC 'CONST'
CONST	ENDS
;	COMDAT ??_C@_0BC@BNIPJKDA@SILVER_DURABILITY?$AA@
CONST	SEGMENT DWORD USE32 PUBLIC 'CONST'
CONST	ENDS
;	COMDAT ??_C@_0L@HJJLGOIM@REGEN_RATE?$AA@
CONST	SEGMENT DWORD USE32 PUBLIC 'CONST'
CONST	ENDS
;	COMDAT ??_C@_07ICBEDALK@GUILDID?$AA@
CONST	SEGMENT DWORD USE32 PUBLIC 'CONST'
CONST	ENDS
;	COMDAT ??_C@_04DBCPJNBF@RANK?$AA@
CONST	SEGMENT DWORD USE32 PUBLIC 'CONST'
CONST	ENDS
;	COMDAT ??_C@_0BA@DLBJHHBE@RANK_EXP_REMAIN?$AA@
CONST	SEGMENT DWORD USE32 PUBLIC 'CONST'
CONST	ENDS
;	COMDAT ??_C@_0BD@BBMKLBCL@OUSTERS_EXP_REMAIN?$AA@
CONST	SEGMENT DWORD USE32 PUBLIC 'CONST'
CONST	ENDS
;	COMDAT ??_C@_0BC@IMLFGMDG@SKILL_BONUS_POINT?$AA@
CONST	SEGMENT DWORD USE32 PUBLIC 'CONST'
CONST	ENDS
;	COMDAT ??_C@_0P@PEHNMFMM@ELEMENTAL_FIRE?$AA@
CONST	SEGMENT DWORD USE32 PUBLIC 'CONST'
CONST	ENDS
;	COMDAT ??_C@_0BA@MHDKAJKL@ELEMENTAL_WATER?$AA@
CONST	SEGMENT DWORD USE32 PUBLIC 'CONST'
CONST	ENDS
;	COMDAT ??_C@_0BA@BIGMGHL@ELEMENTAL_EARTH?$AA@
CONST	SEGMENT DWORD USE32 PUBLIC 'CONST'
CONST	ENDS
;	COMDAT ??_C@_0P@KFNKBAKL@ELEMENTAL_WIND?$AA@
CONST	SEGMENT DWORD USE32 PUBLIC 'CONST'
CONST	ENDS
;	COMDAT ??_C@_09BBOPOJIN@SKILL_EXP?$AA@
CONST	SEGMENT DWORD USE32 PUBLIC 'CONST'
CONST	ENDS
;	COMDAT ??_C@_06IEBMKFDK@PET_HP?$AA@
CONST	SEGMENT DWORD USE32 PUBLIC 'CONST'
CONST	ENDS
;	COMDAT ??_C@_0P@GOFONOAE@PET_EXP_REMAIN?$AA@
CONST	SEGMENT DWORD USE32 PUBLIC 'CONST'
CONST	ENDS
;	COMDAT ??_C@_0M@KIBGPGKM@LAST_TARGET?$AA@
CONST	SEGMENT DWORD USE32 PUBLIC 'CONST'
CONST	ENDS
;	COMDAT ??_C@_07PBEOFEGM@UNIONID?$AA@
CONST	SEGMENT DWORD USE32 PUBLIC 'CONST'
CONST	ENDS
;	COMDAT ??_C@_0L@COBGECE@UNIONGRADE?$AA@
CONST	SEGMENT DWORD USE32 PUBLIC 'CONST'
CONST	ENDS
;	COMDAT ??_C@_0BI@LHEPMHDM@ADVANCEMENT_CLASS_LEVEL?$AA@
CONST	SEGMENT DWORD USE32 PUBLIC 'CONST'
CONST	ENDS
;	COMDAT ??_C@_0BL@IKNEBHFH@ADVANCEMENT_CLASS_GOAL_EXP?$AA@
CONST	SEGMENT DWORD USE32 PUBLIC 'CONST'
CONST	ENDS
;	COMDAT ??_C@_0BJ@PIJGHHAP@ATTACK_BLOOD_BURST_POINT?$AA@
CONST	SEGMENT DWORD USE32 PUBLIC 'CONST'
CONST	ENDS
;	COMDAT ??_C@_0BK@BJJBOCNF@DEFENSE_BLOOD_BURST_POINT?$AA@
CONST	SEGMENT DWORD USE32 PUBLIC 'CONST'
CONST	ENDS
;	COMDAT ??_C@_0BI@MHOBEFBP@PARTY_BLOOD_BURST_POINT?$AA@
CONST	SEGMENT DWORD USE32 PUBLIC 'CONST'
CONST	ENDS
;	COMDAT ??_C@_0BD@BPOFFKFG@ADVANCED_SLAYERSTR?$AA@
CONST	SEGMENT DWORD USE32 PUBLIC 'CONST'
CONST	ENDS
;	COMDAT ??_C@_0BD@DFCABELN@ADVANCED_SLAYERDEX?$AA@
CONST	SEGMENT DWORD USE32 PUBLIC 'CONST'
CONST	ENDS
;	COMDAT ??_C@_0BD@GHKKGMIN@ADVANCED_SLAYERINT?$AA@
CONST	SEGMENT DWORD USE32 PUBLIC 'CONST'
CONST	ENDS
;	COMDAT ??_C@_0BB@JLMOMJOK@CONTRIBUTE_POINT?$AA@
CONST	SEGMENT DWORD USE32 PUBLIC 'CONST'
CONST	ENDS
;	COMDAT ??_C@_08IKEGEPEJ@DIANJUAN?$AA@
CONST	SEGMENT DWORD USE32 PUBLIC 'CONST'
CONST	ENDS
;	COMDAT ??_C@_03LEPPJAKI@MAX?$AA@
CONST	SEGMENT DWORD USE32 PUBLIC 'CONST'
CONST	ENDS
;	COMDAT ??_C@_0BE@GDLFKLMB@GCModifyInformation?$AA@
CONST	SEGMENT DWORD USE32 PUBLIC 'CONST'
CONST	ENDS
;	COMDAT ??_C@_0N@GOPDCEEB@basic_string?$AA@
CONST	SEGMENT DWORD USE32 PUBLIC 'CONST'
CONST	ENDS
xdata$x	SEGMENT DWORD USE32 PUBLIC 'CONST'
xdata$x	ENDS
rdata$r	SEGMENT DWORD USE32 PUBLIC 'CONST'
rdata$r	ENDS
text$yc	SEGMENT PARA USE32 PUBLIC 'CODE'
text$yc	ENDS
CRT$XCA	SEGMENT DWORD USE32 PUBLIC 'DATA'
CRT$XCA	ENDS
CRT$XCU	SEGMENT DWORD USE32 PUBLIC 'DATA'
CRT$XCU	ENDS
CRT$XCL	SEGMENT DWORD USE32 PUBLIC 'DATA'
CRT$XCL	ENDS
CRT$XCC	SEGMENT DWORD USE32 PUBLIC 'DATA'
CRT$XCC	ENDS
CRT$XCZ	SEGMENT DWORD USE32 PUBLIC 'DATA'
CRT$XCZ	ENDS
text$yd	SEGMENT PARA USE32 PUBLIC 'CODE'
text$yd	ENDS
;	COMDAT ?getHost@SocketImpl@@QBE?AV?$basic_string@DV?$char_traits@D@_STL@@V?$allocator@D@2@@_STL@@XZ
_TEXT	SEGMENT PARA USE32 PUBLIC 'CODE'
_TEXT	ENDS
;	COMDAT ?getPort@SocketImpl@@QBEIXZ
_TEXT	SEGMENT PARA USE32 PUBLIC 'CODE'
_TEXT	ENDS
;	COMDAT ?isValid@SocketImpl@@QBE_NXZ
_TEXT	SEGMENT PARA USE32 PUBLIC 'CODE'
_TEXT	ENDS
;	COMDAT ?getSOCKET@SocketImpl@@QBEIXZ
_TEXT	SEGMENT PARA USE32 PUBLIC 'CODE'
_TEXT	ENDS
;	COMDAT ?write@SocketOutputStream@@QAEIG@Z
_TEXT	SEGMENT PARA USE32 PUBLIC 'CODE'
_TEXT	ENDS
;	COMDAT ?write@SocketOutputStream@@QAEII@Z
_TEXT	SEGMENT PARA USE32 PUBLIC 'CODE'
_TEXT	ENDS
;	COMDAT ??1Packet@@UAE@XZ
_TEXT	SEGMENT PARA USE32 PUBLIC 'CODE'
_TEXT	ENDS
;	COMDAT ?read@Packet@@UAEXPAVSocket@@@Z
_TEXT	SEGMENT PARA USE32 PUBLIC 'CODE'
_TEXT	ENDS
;	COMDAT ?write@Packet@@UBEXPAVSocket@@@Z
_TEXT	SEGMENT PARA USE32 PUBLIC 'CODE'
_TEXT	ENDS
;	COMDAT ??_GPacket@@UAEPAXI@Z
_TEXT	SEGMENT PARA USE32 PUBLIC 'CODE'
_TEXT	ENDS
;	COMDAT ??0UnsupportedError@@QAE@ABV0@@Z
_TEXT	SEGMENT PARA USE32 PUBLIC 'CODE'
_TEXT	ENDS
;	COMDAT ??0Error@@QAE@ABV0@@Z
_TEXT	SEGMENT PARA USE32 PUBLIC 'CODE'
_TEXT	ENDS
;	COMDAT ??0Throwable@@QAE@ABV0@@Z
_TEXT	SEGMENT PARA USE32 PUBLIC 'CODE'
_TEXT	ENDS
;	COMDAT ??1PacketFactory@@UAE@XZ
_TEXT	SEGMENT PARA USE32 PUBLIC 'CODE'
_TEXT	ENDS
;	COMDAT ??_GPacketFactory@@UAEPAXI@Z
_TEXT	SEGMENT PARA USE32 PUBLIC 'CODE'
_TEXT	ENDS
;	COMDAT _$E79
text$yc	SEGMENT PARA USE32 PUBLIC 'CODE'
text$yc	ENDS
;	COMDAT _$E80
text$yd	SEGMENT PARA USE32 PUBLIC 'CODE'
text$yd	ENDS
;	COMDAT ?getPacketSize@ModifyInfo@@UBEIXZ
_TEXT	SEGMENT PARA USE32 PUBLIC 'CODE'
_TEXT	ENDS
;	COMDAT ?getPacketMaxSize@ModifyInfo@@SAIXZ
_TEXT	SEGMENT PARA USE32 PUBLIC 'CODE'
_TEXT	ENDS
;	COMDAT ?getPacketID@GCModifyInformation@@UBEGXZ
_TEXT	SEGMENT PARA USE32 PUBLIC 'CODE'
_TEXT	ENDS
;	COMDAT ??0GCModifyInformation@@QAE@XZ
_TEXT	SEGMENT PARA USE32 PUBLIC 'CODE'
_TEXT	ENDS
;	COMDAT ??_GGCModifyInformation@@UAEPAXI@Z
_TEXT	SEGMENT PARA USE32 PUBLIC 'CODE'
_TEXT	ENDS
;	COMDAT ??1GCModifyInformation@@UAE@XZ
_TEXT	SEGMENT PARA USE32 PUBLIC 'CODE'
_TEXT	ENDS
;	COMDAT ?execute@GCModifyInformation@@UAEXPAVPlayer@@@Z
_TEXT	SEGMENT PARA USE32 PUBLIC 'CODE'
_TEXT	ENDS
;	COMDAT ?eq@?$__char_traits_base@DH@_STL@@SA_NABD0@Z
_TEXT	SEGMENT PARA USE32 PUBLIC 'CODE'
_TEXT	ENDS
;	COMDAT ?not_eof@?$__char_traits_base@DH@_STL@@SAHABH@Z
_TEXT	SEGMENT PARA USE32 PUBLIC 'CODE'
_TEXT	ENDS
;	COMDAT ?eq_int_type@?$__char_traits_base@DH@_STL@@SA_NABH0@Z
_TEXT	SEGMENT PARA USE32 PUBLIC 'CODE'
_TEXT	ENDS
;	COMDAT ?get_allocator@?$basic_string@DV?$char_traits@D@_STL@@V?$allocator@D@2@@_STL@@QBE?AV?$allocator@D@2@XZ
_TEXT	SEGMENT PARA USE32 PUBLIC 'CODE'
_TEXT	ENDS
;	COMDAT ?_M_terminate_string@?$basic_string@DV?$char_traits@D@_STL@@V?$allocator@D@2@@_STL@@AAEXXZ
_TEXT	SEGMENT PARA USE32 PUBLIC 'CODE'
_TEXT	ENDS
;	COMDAT ?size@?$basic_string@DV?$char_traits@D@_STL@@V?$allocator@D@2@@_STL@@QBEIXZ
_TEXT	SEGMENT PARA USE32 PUBLIC 'CODE'
_TEXT	ENDS
;	COMDAT ?c_str@?$basic_string@DV?$char_traits@D@_STL@@V?$allocator@D@2@@_STL@@QBEPBDXZ
_TEXT	SEGMENT PARA USE32 PUBLIC 'CODE'
_TEXT	ENDS
;	COMDAT ??0?$_String_base@DV?$allocator@D@_STL@@@_STL@@QAE@ABV?$allocator@D@1@@Z
_TEXT	SEGMENT PARA USE32 PUBLIC 'CODE'
_TEXT	ENDS
;	COMDAT ?allocate@?$allocator@D@_STL@@QAEPADIPBX@Z
_TEXT	SEGMENT PARA USE32 PUBLIC 'CODE'
_TEXT	ENDS
;	COMDAT ??0?$fpos@H@_STL@@QAE@J@Z
_TEXT	SEGMENT PARA USE32 PUBLIC 'CODE'
_TEXT	ENDS
;	COMDAT ??B?$fpos@H@_STL@@QBEJXZ
_TEXT	SEGMENT PARA USE32 PUBLIC 'CODE'
_TEXT	ENDS
;	COMDAT ?state@?$fpos@H@_STL@@QBEHXZ
_TEXT	SEGMENT PARA USE32 PUBLIC 'CODE'
_TEXT	ENDS
;	COMDAT ?is_open@?$basic_filebuf@DV?$char_traits@D@_STL@@@_STL@@QBE_NXZ
_TEXT	SEGMENT PARA USE32 PUBLIC 'CODE'
_TEXT	ENDS
;	COMDAT ?_M_seek_return@?$basic_filebuf@DV?$char_traits@D@_STL@@@_STL@@AAE?AV?$fpos@H@2@JH@Z
_TEXT	SEGMENT PARA USE32 PUBLIC 'CODE'
_TEXT	ENDS
;	COMDAT ??0?$list@V?$basic_string@DV?$char_traits@D@_STL@@V?$allocator@D@2@@_STL@@V?$allocator@V?$basic_string@DV?$char_traits@D@_STL@@V?$allocator@D@2@@_STL@@@2@@_STL@@QAE@ABV01@@Z
_TEXT	SEGMENT PARA USE32 PUBLIC 'CODE'
_TEXT	ENDS
;	COMDAT ??0?$_Filebuf_Tmp_Buf@D@_STL@@QAE@H@Z
_TEXT	SEGMENT PARA USE32 PUBLIC 'CODE'
_TEXT	ENDS
;	COMDAT ??1?$_Filebuf_Tmp_Buf@D@_STL@@QAE@XZ
_TEXT	SEGMENT PARA USE32 PUBLIC 'CODE'
_TEXT	ENDS
;	COMDAT ?_M_terminate_string_aux@?$basic_string@DV?$char_traits@D@_STL@@V?$allocator@D@2@@_STL@@AAEXABU__true_type@2@@Z
_TEXT	SEGMENT PARA USE32 PUBLIC 'CODE'
_TEXT	ENDS
;	COMDAT ??0?$allocator@D@_STL@@QAE@ABV01@@Z
_TEXT	SEGMENT PARA USE32 PUBLIC 'CODE'
_TEXT	ENDS
;	COMDAT ??0?$_STLP_alloc_proxy@PADDV?$allocator@D@_STL@@@_STL@@QAE@ABV?$allocator@D@1@PAD@Z
_TEXT	SEGMENT PARA USE32 PUBLIC 'CODE'
_TEXT	ENDS
;	COMDAT ?state@?$fpos@H@_STL@@QAEXH@Z
_TEXT	SEGMENT PARA USE32 PUBLIC 'CODE'
_TEXT	ENDS
;	COMDAT ?get_allocator@?$_List_base@V?$basic_string@DV?$char_traits@D@_STL@@V?$allocator@D@2@@_STL@@V?$allocator@V?$basic_string@DV?$char_traits@D@_STL@@V?$allocator@D@2@@_STL@@@2@@_STL@@QBE?AV?$allocator@V?$basic_string@DV?$char_traits@D@_STL@@V?$allocator@D@2@@_STL@@@2@XZ
_TEXT	SEGMENT PARA USE32 PUBLIC 'CODE'
_TEXT	ENDS
;	COMDAT ??$_M_range_initialize@PBD@?$basic_string@DV?$char_traits@D@_STL@@V?$allocator@D@2@@_STL@@AAEXPBD0@Z
_TEXT	SEGMENT PARA USE32 PUBLIC 'CODE'
_TEXT	ENDS
;	COMDAT ??$_M_range_initialize@PAD@?$basic_string@DV?$char_traits@D@_STL@@V?$allocator@D@2@@_STL@@AAEXPAD0@Z
_TEXT	SEGMENT PARA USE32 PUBLIC 'CODE'
_TEXT	ENDS
;	COMDAT ?close@?$basic_filebuf@DV?$char_traits@D@_STL@@@_STL@@QAEPAV12@XZ
_TEXT	SEGMENT PARA USE32 PUBLIC 'CODE'
_TEXT	ENDS
;	COMDAT ?_M_exit_input_mode@?$basic_filebuf@DV?$char_traits@D@_STL@@@_STL@@AAEXXZ
_TEXT	SEGMENT PARA USE32 PUBLIC 'CODE'
_TEXT	ENDS
;	COMDAT ?_M_switch_to_output_mode@?$basic_filebuf@DV?$char_traits@D@_STL@@@_STL@@AAE_NXZ
_TEXT	SEGMENT PARA USE32 PUBLIC 'CODE'
_TEXT	ENDS
;	COMDAT ?_M_output_error@?$basic_filebuf@DV?$char_traits@D@_STL@@@_STL@@AAEHXZ
_TEXT	SEGMENT PARA USE32 PUBLIC 'CODE'
_TEXT	ENDS
;	COMDAT ?_M_allocate_buffers@?$basic_filebuf@DV?$char_traits@D@_STL@@@_STL@@AAE_NPADH@Z
_TEXT	SEGMENT PARA USE32 PUBLIC 'CODE'
_TEXT	ENDS
;	COMDAT ?_M_deallocate_buffers@?$basic_filebuf@DV?$char_traits@D@_STL@@@_STL@@AAEXXZ
_TEXT	SEGMENT PARA USE32 PUBLIC 'CODE'
_TEXT	ENDS
;	COMDAT ?_M_seek_init@?$basic_filebuf@DV?$char_traits@D@_STL@@@_STL@@AAE_N_N@Z
_TEXT	SEGMENT PARA USE32 PUBLIC 'CODE'
_TEXT	ENDS
;	COMDAT ?_M_setup_codecvt@?$basic_filebuf@DV?$char_traits@D@_STL@@@_STL@@AAEXABVlocale@2@@Z
_TEXT	SEGMENT PARA USE32 PUBLIC 'CODE'
_TEXT	ENDS
;	COMDAT ??$equal@PADPADU?$_Eq_traits@V?$char_traits@D@_STL@@@_STL@@@_STL@@YA_NPAD00U?$_Eq_traits@V?$char_traits@D@_STL@@@0@@Z
_TEXT	SEGMENT PARA USE32 PUBLIC 'CODE'
_TEXT	ENDS
;	COMDAT ??$_Destroy@V?$basic_string@DV?$char_traits@D@_STL@@V?$allocator@D@2@@_STL@@@_STL@@YAXPAV?$basic_string@DV?$char_traits@D@_STL@@V?$allocator@D@2@@0@@Z
_TEXT	SEGMENT PARA USE32 PUBLIC 'CODE'
_TEXT	ENDS
;	COMDAT ??$_M_assign_dispatch@PAD@?$basic_string@DV?$char_traits@D@_STL@@V?$allocator@D@2@@_STL@@AAEAAV01@PAD0ABU__false_type@1@@Z
_TEXT	SEGMENT PARA USE32 PUBLIC 'CODE'
_TEXT	ENDS
;	COMDAT ?clear@?$_List_base@U_SHORTDATA@@V?$allocator@U_SHORTDATA@@@_STL@@@_STL@@QAEXXZ
_TEXT	SEGMENT PARA USE32 PUBLIC 'CODE'
_TEXT	ENDS
;	COMDAT ?clear@?$_List_base@U_LONGDATA@@V?$allocator@U_LONGDATA@@@_STL@@@_STL@@QAEXXZ
_TEXT	SEGMENT PARA USE32 PUBLIC 'CODE'
_TEXT	ENDS
;	COMDAT ??$insert@U?$_List_iterator@V?$basic_string@DV?$char_traits@D@_STL@@V?$allocator@D@2@@_STL@@U?$_Const_traits@V?$basic_string@DV?$char_traits@D@_STL@@V?$allocator@D@2@@_STL@@@2@@_STL@@@?$list@V?$basic_string@DV?$char_traits@D@_STL@@V?$allocator@D@2@@_STL@@V?$allocator@V?$basic_string@DV?$char_traits@D@_STL@@V?$allocator@D@2@@_STL@@@2@@_STL@@QAEXU?$_List_iterator@V?$basic_string@DV?$char_traits@D@_STL@@V?$allocator@D@2@@_STL@@U?$_Nonconst_traits@V?$basic_string@DV?$char_traits@D@_STL@@V?$allocator@D@2@@_STL@@@2@@1@U?$_List_iterator@V?$basic_string@DV?$char_traits@D@_STL@@V?$allocator@D@2@@_STL@@U?$_Const_traits@V?$basic_string@DV?$char_traits@D@_STL@@V?$allocator@D@2@@_STL@@@2@@1@1@Z
_TEXT	SEGMENT PARA USE32 PUBLIC 'CODE'
_TEXT	ENDS
;	COMDAT ??$?0U?$_List_node@V?$basic_string@DV?$char_traits@D@_STL@@V?$allocator@D@2@@_STL@@@_STL@@@?$allocator@V?$basic_string@DV?$char_traits@D@_STL@@V?$allocator@D@2@@_STL@@@_STL@@QAE@ABV?$allocator@U?$_List_node@V?$basic_string@DV?$char_traits@D@_STL@@V?$allocator@D@2@@_STL@@@_STL@@@1@@Z
_TEXT	SEGMENT PARA USE32 PUBLIC 'CODE'
_TEXT	ENDS
;	COMDAT ??_G?$basic_string@DV?$char_traits@D@_STL@@V?$allocator@D@2@@_STL@@QAEPAXI@Z
_TEXT	SEGMENT PARA USE32 PUBLIC 'CODE'
_TEXT	ENDS
;	COMDAT ?end@?$basic_string@DV?$char_traits@D@_STL@@V?$allocator@D@2@@_STL@@QAEPADXZ
_TEXT	SEGMENT PARA USE32 PUBLIC 'CODE'
_TEXT	ENDS
;	COMDAT ?erase@?$basic_string@DV?$char_traits@D@_STL@@V?$allocator@D@2@@_STL@@QAEPADPAD0@Z
_TEXT	SEGMENT PARA USE32 PUBLIC 'CODE'
_TEXT	ENDS
;	COMDAT ?_M_exit_putback_mode@?$basic_filebuf@DV?$char_traits@D@_STL@@@_STL@@AAEXXZ
_TEXT	SEGMENT PARA USE32 PUBLIC 'CODE'
_TEXT	ENDS
;	COMDAT ??0?$_List_iterator@V?$basic_string@DV?$char_traits@D@_STL@@V?$allocator@D@2@@_STL@@U?$_Nonconst_traits@V?$basic_string@DV?$char_traits@D@_STL@@V?$allocator@D@2@@_STL@@@2@@_STL@@QAE@ABU01@@Z
_TEXT	SEGMENT PARA USE32 PUBLIC 'CODE'
_TEXT	ENDS
;	COMDAT ??R?$_Eq_traits@V?$char_traits@D@_STL@@@_STL@@QBE_NABD0@Z
_TEXT	SEGMENT PARA USE32 PUBLIC 'CODE'
_TEXT	ENDS
;	COMDAT ?deallocate@?$allocator@U?$_List_node@U_SHORTDATA@@@_STL@@@_STL@@QAEXPAU?$_List_node@U_SHORTDATA@@@2@I@Z
_TEXT	SEGMENT PARA USE32 PUBLIC 'CODE'
_TEXT	ENDS
;	COMDAT ?deallocate@?$allocator@U?$_List_node@U_LONGDATA@@@_STL@@@_STL@@QAEXPAU?$_List_node@U_LONGDATA@@@2@I@Z
_TEXT	SEGMENT PARA USE32 PUBLIC 'CODE'
_TEXT	ENDS
;	COMDAT ?move@?$__char_traits_base@DH@_STL@@SAPADPADPBDI@Z
_TEXT	SEGMENT PARA USE32 PUBLIC 'CODE'
_TEXT	ENDS
;	COMDAT ??$_M_range_initialize@PBD@?$basic_string@DV?$char_traits@D@_STL@@V?$allocator@D@2@@_STL@@AAEXPBD0ABUforward_iterator_tag@1@@Z
_TEXT	SEGMENT PARA USE32 PUBLIC 'CODE'
_TEXT	ENDS
;	COMDAT ??$_M_range_initialize@PAD@?$basic_string@DV?$char_traits@D@_STL@@V?$allocator@D@2@@_STL@@AAEXPAD0ABUforward_iterator_tag@1@@Z
_TEXT	SEGMENT PARA USE32 PUBLIC 'CODE'
_TEXT	ENDS
;	COMDAT ?_M_unshift@?$basic_filebuf@DV?$char_traits@D@_STL@@@_STL@@AAE_NXZ
_TEXT	SEGMENT PARA USE32 PUBLIC 'CODE'
_TEXT	ENDS
;	COMDAT ?_M_allocate_buffers@?$basic_filebuf@DV?$char_traits@D@_STL@@@_STL@@AAE_NXZ
_TEXT	SEGMENT PARA USE32 PUBLIC 'CODE'
_TEXT	ENDS
;	COMDAT ??$max@H@_STL@@YAABHABH0@Z
_TEXT	SEGMENT PARA USE32 PUBLIC 'CODE'
_TEXT	ENDS
;	COMDAT ??$use_facet@V?$codecvt@DDH@_STL@@@_STL@@YAABV?$codecvt@DDH@0@ABVlocale@0@@Z
_TEXT	SEGMENT PARA USE32 PUBLIC 'CODE'
_TEXT	ENDS
;	COMDAT ??$append@PAD@?$basic_string@DV?$char_traits@D@_STL@@V?$allocator@D@2@@_STL@@QAEAAV01@PAD0@Z
_TEXT	SEGMENT PARA USE32 PUBLIC 'CODE'
_TEXT	ENDS
;	COMDAT ??$_Destroy@U_SHORTDATA@@@_STL@@YAXPAU_SHORTDATA@@@Z
_TEXT	SEGMENT PARA USE32 PUBLIC 'CODE'
_TEXT	ENDS
;	COMDAT ??$_Destroy@U_LONGDATA@@@_STL@@YAXPAU_LONGDATA@@@Z
_TEXT	SEGMENT PARA USE32 PUBLIC 'CODE'
_TEXT	ENDS
;	COMDAT ??$_M_insert_dispatch@U?$_List_iterator@V?$basic_string@DV?$char_traits@D@_STL@@V?$allocator@D@2@@_STL@@U?$_Const_traits@V?$basic_string@DV?$char_traits@D@_STL@@V?$allocator@D@2@@_STL@@@2@@_STL@@@?$list@V?$basic_string@DV?$char_traits@D@_STL@@V?$allocator@D@2@@_STL@@V?$allocator@V?$basic_string@DV?$char_traits@D@_STL@@V?$allocator@D@2@@_STL@@@2@@_STL@@QAEXU?$_List_iterator@V?$basic_string@DV?$char_traits@D@_STL@@V?$allocator@D@2@@_STL@@U?$_Nonconst_traits@V?$basic_string@DV?$char_traits@D@_STL@@V?$allocator@D@2@@_STL@@@2@@1@U?$_List_iterator@V?$basic_string@DV?$char_traits@D@_STL@@V?$allocator@D@2@@_STL@@U?$_Const_traits@V?$basic_string@DV?$char_traits@D@_STL@@V?$allocator@D@2@@_STL@@@2@@1@1ABU__false_type@1@@Z
_TEXT	SEGMENT PARA USE32 PUBLIC 'CODE'
_TEXT	ENDS
;	COMDAT ??E?$_List_iterator@V?$basic_string@DV?$char_traits@D@_STL@@V?$allocator@D@2@@_STL@@U?$_Const_traits@V?$basic_string@DV?$char_traits@D@_STL@@V?$allocator@D@2@@_STL@@@2@@_STL@@QAEAAU01@XZ
_TEXT	SEGMENT PARA USE32 PUBLIC 'CODE'
_TEXT	ENDS
;	COMDAT ??$distance@PBD@_STL@@YAHABQBD0@Z
_TEXT	SEGMENT PARA USE32 PUBLIC 'CODE'
_TEXT	ENDS
;	COMDAT ?_M_allocate_block@?$_String_base@DV?$allocator@D@_STL@@@_STL@@QAEXI@Z
_TEXT	SEGMENT PARA USE32 PUBLIC 'CODE'
_TEXT	ENDS
;	COMDAT ??$distance@PAD@_STL@@YAHABQAD0@Z
_TEXT	SEGMENT PARA USE32 PUBLIC 'CODE'
_TEXT	ENDS
;	COMDAT ??$uninitialized_copy@PADPAD@_STL@@YAPADPAD00@Z
_TEXT	SEGMENT PARA USE32 PUBLIC 'CODE'
_TEXT	ENDS
;	COMDAT ??$_M_append_dispatch@PAD@?$basic_string@DV?$char_traits@D@_STL@@V?$allocator@D@2@@_STL@@AAEAAV01@PAD0ABU__false_type@1@@Z
_TEXT	SEGMENT PARA USE32 PUBLIC 'CODE'
_TEXT	ENDS
;	COMDAT ?max_size@?$_String_base@DV?$allocator@D@_STL@@@_STL@@QBEIXZ
_TEXT	SEGMENT PARA USE32 PUBLIC 'CODE'
_TEXT	ENDS
;	COMDAT ??$__distance@PBD@_STL@@YAHABQBD0ABUrandom_access_iterator_tag@0@@Z
_TEXT	SEGMENT PARA USE32 PUBLIC 'CODE'
_TEXT	ENDS
;	COMDAT ?_M_throw_length_error@?$_String_base@DV?$allocator@D@_STL@@@_STL@@QBEXXZ
_TEXT	SEGMENT PARA USE32 PUBLIC 'CODE'
_TEXT	ENDS
;	COMDAT ??$__distance@PAD@_STL@@YAHABQAD0ABUrandom_access_iterator_tag@0@@Z
_TEXT	SEGMENT PARA USE32 PUBLIC 'CODE'
_TEXT	ENDS
;	COMDAT ??$__uninitialized_copy@PADPAD@_STL@@YAPADPAD00ABU__true_type@0@@Z
_TEXT	SEGMENT PARA USE32 PUBLIC 'CODE'
_TEXT	ENDS
;	COMDAT ??$append@PAD@?$basic_string@DV?$char_traits@D@_STL@@V?$allocator@D@2@@_STL@@AAEAAV01@PAD0ABUforward_iterator_tag@1@@Z
_TEXT	SEGMENT PARA USE32 PUBLIC 'CODE'
_TEXT	ENDS
;	COMDAT ?_M_construct_null@?$basic_string@DV?$char_traits@D@_STL@@V?$allocator@D@2@@_STL@@AAEXPAD@Z
_TEXT	SEGMENT PARA USE32 PUBLIC 'CODE'
_TEXT	ENDS
;	COMDAT ?max_size@?$basic_string@DV?$char_traits@D@_STL@@V?$allocator@D@2@@_STL@@QBEIXZ
_TEXT	SEGMENT PARA USE32 PUBLIC 'CODE'
_TEXT	ENDS
;	COMDAT ?capacity@?$basic_string@DV?$char_traits@D@_STL@@V?$allocator@D@2@@_STL@@QBEIXZ
_TEXT	SEGMENT PARA USE32 PUBLIC 'CODE'
_TEXT	ENDS
;	COMDAT ?_Ret@?$_BothPtrType@PADPAD@_STL@@SA?AU__true_type@2@XZ
_TEXT	SEGMENT PARA USE32 PUBLIC 'CODE'
_TEXT	ENDS
;	COMDAT ?_M_construct_null_aux@?$basic_string@DV?$char_traits@D@_STL@@V?$allocator@D@2@@_STL@@AAEXPADABU__true_type@2@@Z
_TEXT	SEGMENT PARA USE32 PUBLIC 'CODE'
_TEXT	ENDS
;	COMDAT ??$__copy_aux@PADPAD@_STL@@YAPADPAD00ABU__true_type@0@@Z
_TEXT	SEGMENT PARA USE32 PUBLIC 'CODE'
_TEXT	ENDS
;	COMDAT ??$max@I@_STL@@YAABIABI0@Z
_TEXT	SEGMENT PARA USE32 PUBLIC 'CODE'
_TEXT	ENDS
;	COMDAT ?_Ret@?$_OKToMemCpy@DD@_STL@@SA?AU__true_type@2@XZ
_TEXT	SEGMENT PARA USE32 PUBLIC 'CODE'
_TEXT	ENDS
;	COMDAT ??$_IsOKToMemCpy@DD@_STL@@YA?AU?$_OKToMemCpy@DD@0@PAD0@Z
_TEXT	SEGMENT PARA USE32 PUBLIC 'CODE'
_TEXT	ENDS
;	COMDAT ??$__copy_ptrs@PADPAD@_STL@@YAPADPAD00ABU__true_type@0@@Z
_TEXT	SEGMENT PARA USE32 PUBLIC 'CODE'
_TEXT	ENDS
;	COMDAT ??_R3Packet@@8
rdata$r	SEGMENT DWORD USE32 PUBLIC 'CONST'
rdata$r	ENDS
;	COMDAT ??_R3GCModifyInformation@@8
rdata$r	SEGMENT DWORD USE32 PUBLIC 'CONST'
rdata$r	ENDS
;	COMDAT ??_R3PacketFactory@@8
rdata$r	SEGMENT DWORD USE32 PUBLIC 'CONST'
rdata$r	ENDS
;	COMDAT ??_R2Packet@@8
rdata$r	SEGMENT DWORD USE32 PUBLIC 'CONST'
rdata$r	ENDS
;	COMDAT ??_R2GCModifyInformation@@8
rdata$r	SEGMENT DWORD USE32 PUBLIC 'CONST'
rdata$r	ENDS
;	COMDAT ??_R2PacketFactory@@8
rdata$r	SEGMENT DWORD USE32 PUBLIC 'CONST'
rdata$r	ENDS
;	COMDAT ??_R1A@?0A@A@Packet@@8
rdata$r	SEGMENT DWORD USE32 PUBLIC 'CONST'
rdata$r	ENDS
;	COMDAT ??_R1A@?0A@A@ModifyInfo@@8
rdata$r	SEGMENT DWORD USE32 PUBLIC 'CONST'
rdata$r	ENDS
;	COMDAT ??_R1A@?0A@A@GCModifyInformation@@8
rdata$r	SEGMENT DWORD USE32 PUBLIC 'CONST'
rdata$r	ENDS
;	COMDAT ??_R1A@?0A@A@PacketFactory@@8
rdata$r	SEGMENT DWORD USE32 PUBLIC 'CONST'
rdata$r	ENDS
;	COMDAT ??_R0?AVPacket@@@8
_DATA	SEGMENT DWORD USE32 PUBLIC 'DATA'
_DATA	ENDS
;	COMDAT ??_R0?AVModifyInfo@@@8
_DATA	SEGMENT DWORD USE32 PUBLIC 'DATA'
_DATA	ENDS
;	COMDAT ??_R0?AVGCModifyInformation@@@8
_DATA	SEGMENT DWORD USE32 PUBLIC 'DATA'
_DATA	ENDS
;	COMDAT ??_R0?AVPacketFactory@@@8
_DATA	SEGMENT DWORD USE32 PUBLIC 'DATA'
_DATA	ENDS
;	COMDAT ??_R4Packet@@6B@
rdata$r	SEGMENT DWORD USE32 PUBLIC 'CONST'
rdata$r	ENDS
;	COMDAT ??_R4GCModifyInformation@@6B@
rdata$r	SEGMENT DWORD USE32 PUBLIC 'CONST'
rdata$r	ENDS
;	COMDAT ??_R4PacketFactory@@6B@
rdata$r	SEGMENT DWORD USE32 PUBLIC 'CONST'
rdata$r	ENDS
;	COMDAT ?__copy_trivial@_STL@@YAPAXPBX0PAX@Z
_TEXT	SEGMENT PARA USE32 PUBLIC 'CODE'
_TEXT	ENDS
;	COMDAT ?_M_deallocate_block@?$_String_base@DV?$allocator@D@_STL@@@_STL@@QAEXXZ
_TEXT	SEGMENT PARA USE32 PUBLIC 'CODE'
_TEXT	ENDS
;	COMDAT ?deallocate@?$allocator@D@_STL@@QAEXPADI@Z
_TEXT	SEGMENT PARA USE32 PUBLIC 'CODE'
_TEXT	ENDS
;	COMDAT ?_M_incr@_List_iterator_base@_STL@@QAEXXZ
_TEXT	SEGMENT PARA USE32 PUBLIC 'CODE'
_TEXT	ENDS
;	COMDAT ??D?$_List_iterator@V?$basic_string@DV?$char_traits@D@_STL@@V?$allocator@D@2@@_STL@@U?$_Const_traits@V?$basic_string@DV?$char_traits@D@_STL@@V?$allocator@D@2@@_STL@@@2@@_STL@@QBEABV?$basic_string@DV?$char_traits@D@_STL@@V?$allocator@D@2@@1@XZ
_TEXT	SEGMENT PARA USE32 PUBLIC 'CODE'
_TEXT	ENDS
;	COMDAT ?insert@?$list@V?$basic_string@DV?$char_traits@D@_STL@@V?$allocator@D@2@@_STL@@V?$allocator@V?$basic_string@DV?$char_traits@D@_STL@@V?$allocator@D@2@@_STL@@@2@@_STL@@QAE?AU?$_List_iterator@V?$basic_string@DV?$char_traits@D@_STL@@V?$allocator@D@2@@_STL@@U?$_Nonconst_traits@V?$basic_string@DV?$char_traits@D@_STL@@V?$allocator@D@2@@_STL@@@2@@2@U32@ABV?$basic_string@DV?$char_traits@D@_STL@@V?$allocator@D@2@@2@@Z
_TEXT	SEGMENT PARA USE32 PUBLIC 'CODE'
_TEXT	ENDS
;	COMDAT ?_M_create_node@?$list@V?$basic_string@DV?$char_traits@D@_STL@@V?$allocator@D@2@@_STL@@V?$allocator@V?$basic_string@DV?$char_traits@D@_STL@@V?$allocator@D@2@@_STL@@@2@@_STL@@IAEPAU?$_List_node@V?$basic_string@DV?$char_traits@D@_STL@@V?$allocator@D@2@@_STL@@@2@ABV?$basic_string@DV?$char_traits@D@_STL@@V?$allocator@D@2@@2@@Z
_TEXT	SEGMENT PARA USE32 PUBLIC 'CODE'
_TEXT	ENDS
;	COMDAT ?allocate@?$allocator@U?$_List_node@V?$basic_string@DV?$char_traits@D@_STL@@V?$allocator@D@2@@_STL@@@_STL@@@_STL@@QAEPAU?$_List_node@V?$basic_string@DV?$char_traits@D@_STL@@V?$allocator@D@2@@_STL@@@2@IPBX@Z
_TEXT	SEGMENT PARA USE32 PUBLIC 'CODE'
_TEXT	ENDS
;	COMDAT ??$_Construct@V?$basic_string@DV?$char_traits@D@_STL@@V?$allocator@D@2@@_STL@@V12@@_STL@@YAXPAV?$basic_string@DV?$char_traits@D@_STL@@V?$allocator@D@2@@0@ABV10@@Z
_TEXT	SEGMENT PARA USE32 PUBLIC 'CODE'
_TEXT	ENDS
;	COMDAT ??2@YAPAXIPAX@Z
_TEXT	SEGMENT PARA USE32 PUBLIC 'CODE'
_TEXT	ENDS
;	COMDAT ??3@YAXPAX0@Z
_TEXT	SEGMENT PARA USE32 PUBLIC 'CODE'
_TEXT	ENDS
;	COMDAT ?deallocate@?$allocator@U?$_List_node@V?$basic_string@DV?$char_traits@D@_STL@@V?$allocator@D@2@@_STL@@@_STL@@@_STL@@QAEXPAU?$_List_node@V?$basic_string@DV?$char_traits@D@_STL@@V?$allocator@D@2@@_STL@@@2@I@Z
_TEXT	SEGMENT PARA USE32 PUBLIC 'CODE'
_TEXT	ENDS
;	COMDAT ??0?$_List_iterator@V?$basic_string@DV?$char_traits@D@_STL@@V?$allocator@D@2@@_STL@@U?$_Nonconst_traits@V?$basic_string@DV?$char_traits@D@_STL@@V?$allocator@D@2@@_STL@@@2@@_STL@@QAE@PAU?$_List_node@V?$basic_string@DV?$char_traits@D@_STL@@V?$allocator@D@2@@_STL@@@1@@Z
_TEXT	SEGMENT PARA USE32 PUBLIC 'CODE'
_TEXT	ENDS
;	COMDAT ??9_List_iterator_base@_STL@@QBE_NABU01@@Z
_TEXT	SEGMENT PARA USE32 PUBLIC 'CODE'
_TEXT	ENDS
;	COMDAT ?__page_size@_Filebuf_base@_STL@@SAIXZ
_TEXT	SEGMENT PARA USE32 PUBLIC 'CODE'
_TEXT	ENDS
;	COMDAT ?_M_write@?$basic_filebuf@DV?$char_traits@D@_STL@@@_STL@@QAE_NPADH@Z
_TEXT	SEGMENT PARA USE32 PUBLIC 'CODE'
_TEXT	ENDS
;	COMDAT ?unshift@?$codecvt@DDH@_STL@@QBE?AW4result@codecvt_base@2@AAHPAD1AAPAD@Z
_TEXT	SEGMENT PARA USE32 PUBLIC 'CODE'
_TEXT	ENDS
;	COMDAT ?uninitialized_copy@_STL@@YAPADPBD0PAD@Z
_TEXT	SEGMENT PARA USE32 PUBLIC 'CODE'
_TEXT	ENDS
;	COMDAT ?deallocate@?$__node_alloc@$00$0A@@_STL@@SAXPAXI@Z
_TEXT	SEGMENT PARA USE32 PUBLIC 'CODE'
_TEXT	ENDS
;	COMDAT ?__stl_delete@_STL@@YAXPAX@Z
_TEXT	SEGMENT PARA USE32 PUBLIC 'CODE'
_TEXT	ENDS
;	COMDAT ??0_List_iterator_base@_STL@@QAE@PAU_List_node_base@1@@Z
_TEXT	SEGMENT PARA USE32 PUBLIC 'CODE'
_TEXT	ENDS
;	COMDAT ?_Destroy@_STL@@YAXPAD0@Z
_TEXT	SEGMENT PARA USE32 PUBLIC 'CODE'
_TEXT	ENDS
;	COMDAT ?assign@?$char_traits@D@_STL@@SAXAADABD@Z
_TEXT	SEGMENT PARA USE32 PUBLIC 'CODE'
_TEXT	ENDS
;	COMDAT ?always_noconv@?$codecvt@DDH@_STL@@QBE_NXZ
_TEXT	SEGMENT PARA USE32 PUBLIC 'CODE'
_TEXT	ENDS
;	COMDAT ?encoding@?$codecvt@DDH@_STL@@QBEHXZ
_TEXT	SEGMENT PARA USE32 PUBLIC 'CODE'
_TEXT	ENDS
;	COMDAT ?max_length@?$codecvt@DDH@_STL@@QBEHXZ
_TEXT	SEGMENT PARA USE32 PUBLIC 'CODE'
_TEXT	ENDS
;	COMDAT ?__o_mode@_Filebuf_base@_STL@@QBEHXZ
_TEXT	SEGMENT PARA USE32 PUBLIC 'CODE'
_TEXT	ENDS
;	COMDAT ?begin@?$list@V?$basic_string@DV?$char_traits@D@_STL@@V?$allocator@D@2@@_STL@@V?$allocator@V?$basic_string@DV?$char_traits@D@_STL@@V?$allocator@D@2@@_STL@@@2@@_STL@@QAE?AU?$_List_iterator@V?$basic_string@DV?$char_traits@D@_STL@@V?$allocator@D@2@@_STL@@U?$_Nonconst_traits@V?$basic_string@DV?$char_traits@D@_STL@@V?$allocator@D@2@@_STL@@@2@@2@XZ
_TEXT	SEGMENT PARA USE32 PUBLIC 'CODE'
_TEXT	ENDS
;	COMDAT ?begin@?$list@V?$basic_string@DV?$char_traits@D@_STL@@V?$allocator@D@2@@_STL@@V?$allocator@V?$basic_string@DV?$char_traits@D@_STL@@V?$allocator@D@2@@_STL@@@2@@_STL@@QBE?AU?$_List_iterator@V?$basic_string@DV?$char_traits@D@_STL@@V?$allocator@D@2@@_STL@@U?$_Const_traits@V?$basic_string@DV?$char_traits@D@_STL@@V?$allocator@D@2@@_STL@@@2@@2@XZ
_TEXT	SEGMENT PARA USE32 PUBLIC 'CODE'
_TEXT	ENDS
;	COMDAT ??0?$_List_iterator@V?$basic_string@DV?$char_traits@D@_STL@@V?$allocator@D@2@@_STL@@U?$_Const_traits@V?$basic_string@DV?$char_traits@D@_STL@@V?$allocator@D@2@@_STL@@@2@@_STL@@QAE@PAU?$_List_node@V?$basic_string@DV?$char_traits@D@_STL@@V?$allocator@D@2@@_STL@@@1@@Z
_TEXT	SEGMENT PARA USE32 PUBLIC 'CODE'
_TEXT	ENDS
;	COMDAT ?end@?$list@V?$basic_string@DV?$char_traits@D@_STL@@V?$allocator@D@2@@_STL@@V?$allocator@V?$basic_string@DV?$char_traits@D@_STL@@V?$allocator@D@2@@_STL@@@2@@_STL@@QBE?AU?$_List_iterator@V?$basic_string@DV?$char_traits@D@_STL@@V?$allocator@D@2@@_STL@@U?$_Const_traits@V?$basic_string@DV?$char_traits@D@_STL@@V?$allocator@D@2@@_STL@@@2@@2@XZ
_TEXT	SEGMENT PARA USE32 PUBLIC 'CODE'
_TEXT	ENDS
;	COMDAT ??1?$_List_base@V?$basic_string@DV?$char_traits@D@_STL@@V?$allocator@D@2@@_STL@@V?$allocator@V?$basic_string@DV?$char_traits@D@_STL@@V?$allocator@D@2@@_STL@@@2@@_STL@@QAE@XZ
_TEXT	SEGMENT PARA USE32 PUBLIC 'CODE'
_TEXT	ENDS
;	COMDAT ??1?$_STLP_alloc_proxy@PAU?$_List_node@V?$basic_string@DV?$char_traits@D@_STL@@V?$allocator@D@2@@_STL@@@_STL@@U12@V?$allocator@U?$_List_node@V?$basic_string@DV?$char_traits@D@_STL@@V?$allocator@D@2@@_STL@@@_STL@@@2@@_STL@@QAE@XZ
_TEXT	SEGMENT PARA USE32 PUBLIC 'CODE'
_TEXT	ENDS
;	COMDAT ??1?$allocator@U?$_List_node@V?$basic_string@DV?$char_traits@D@_STL@@V?$allocator@D@2@@_STL@@@_STL@@@_STL@@QAE@XZ
_TEXT	SEGMENT PARA USE32 PUBLIC 'CODE'
_TEXT	ENDS
;	COMDAT ?clear@?$_List_base@V?$basic_string@DV?$char_traits@D@_STL@@V?$allocator@D@2@@_STL@@V?$allocator@V?$basic_string@DV?$char_traits@D@_STL@@V?$allocator@D@2@@_STL@@@2@@_STL@@QAEXXZ
_TEXT	SEGMENT PARA USE32 PUBLIC 'CODE'
_TEXT	ENDS
;	COMDAT ??1?$allocator@V?$basic_string@DV?$char_traits@D@_STL@@V?$allocator@D@2@@_STL@@@_STL@@QAE@XZ
_TEXT	SEGMENT PARA USE32 PUBLIC 'CODE'
_TEXT	ENDS
;	COMDAT ??0?$_List_base@V?$basic_string@DV?$char_traits@D@_STL@@V?$allocator@D@2@@_STL@@V?$allocator@V?$basic_string@DV?$char_traits@D@_STL@@V?$allocator@D@2@@_STL@@@2@@_STL@@QAE@ABV?$allocator@V?$basic_string@DV?$char_traits@D@_STL@@V?$allocator@D@2@@_STL@@@1@@Z
_TEXT	SEGMENT PARA USE32 PUBLIC 'CODE'
_TEXT	ENDS
;	COMDAT ??0?$_STLP_alloc_proxy@PAU?$_List_node@V?$basic_string@DV?$char_traits@D@_STL@@V?$allocator@D@2@@_STL@@@_STL@@U12@V?$allocator@U?$_List_node@V?$basic_string@DV?$char_traits@D@_STL@@V?$allocator@D@2@@_STL@@@_STL@@@2@@_STL@@QAE@ABV?$allocator@U?$_List_node@V?$basic_string@DV?$char_traits@D@_STL@@V?$allocator@D@2@@_STL@@@_STL@@@1@PAU?$_List_node@V?$basic_string@DV?$char_traits@D@_STL@@V?$allocator@D@2@@_STL@@@1@@Z
_TEXT	SEGMENT PARA USE32 PUBLIC 'CODE'
_TEXT	ENDS
;	COMDAT ??0?$allocator@U?$_List_node@V?$basic_string@DV?$char_traits@D@_STL@@V?$allocator@D@2@@_STL@@@_STL@@@_STL@@QAE@ABV01@@Z
_TEXT	SEGMENT PARA USE32 PUBLIC 'CODE'
_TEXT	ENDS
;	COMDAT ??$?0V?$basic_string@DV?$char_traits@D@_STL@@V?$allocator@D@2@@_STL@@@?$allocator@U?$_List_node@V?$basic_string@DV?$char_traits@D@_STL@@V?$allocator@D@2@@_STL@@@_STL@@@_STL@@QAE@ABV?$allocator@V?$basic_string@DV?$char_traits@D@_STL@@V?$allocator@D@2@@_STL@@@1@@Z
_TEXT	SEGMENT PARA USE32 PUBLIC 'CODE'
_TEXT	ENDS
;	COMDAT ?setp@?$basic_streambuf@DV?$char_traits@D@_STL@@@_STL@@IAEXPAD0@Z
_TEXT	SEGMENT PARA USE32 PUBLIC 'CODE'
_TEXT	ENDS
;	COMDAT ?_FILE_O_set@_STL@@YAXPAU_iobuf@@PAD11@Z
_TEXT	SEGMENT PARA USE32 PUBLIC 'CODE'
_TEXT	ENDS
;	COMDAT ?_FILE_I_set@_STL@@YAXPAU_iobuf@@PAD11@Z
_TEXT	SEGMENT PARA USE32 PUBLIC 'CODE'
_TEXT	ENDS
;	COMDAT ?setg@?$basic_streambuf@DV?$char_traits@D@_STL@@@_STL@@IAEXPAD00@Z
_TEXT	SEGMENT PARA USE32 PUBLIC 'CODE'
_TEXT	ENDS
;	COMDAT ?__is_open@_Filebuf_base@_STL@@QBE_NXZ
_TEXT	SEGMENT PARA USE32 PUBLIC 'CODE'
_TEXT	ENDS
;	COMDAT ?allocate@?$__node_alloc@$00$0A@@_STL@@SAPAXI@Z
_TEXT	SEGMENT PARA USE32 PUBLIC 'CODE'
_TEXT	ENDS
;	COMDAT ?__stl_new@_STL@@YAPAXI@Z
_TEXT	SEGMENT PARA USE32 PUBLIC 'CODE'
_TEXT	ENDS
;	COMDAT ??1?$_STLP_alloc_proxy@PADDV?$allocator@D@_STL@@@_STL@@QAE@XZ
_TEXT	SEGMENT PARA USE32 PUBLIC 'CODE'
_TEXT	ENDS
;	COMDAT ?eof@?$__char_traits_base@DH@_STL@@SAHXZ
_TEXT	SEGMENT PARA USE32 PUBLIC 'CODE'
_TEXT	ENDS
;	COMDAT ??_7GCModifyInformation@@6B@
CONST	SEGMENT DWORD USE32 PUBLIC 'CONST'
CONST	ENDS
;	COMDAT ??1?$allocator@D@_STL@@QAE@XZ
_TEXT	SEGMENT PARA USE32 PUBLIC 'CODE'
_TEXT	ENDS
;	COMDAT ??0?$allocator@D@_STL@@QAE@XZ
_TEXT	SEGMENT PARA USE32 PUBLIC 'CODE'
_TEXT	ENDS
;	COMDAT ??0?$basic_string@DV?$char_traits@D@_STL@@V?$allocator@D@2@@_STL@@QAE@PBDABV?$allocator@D@1@@Z
_TEXT	SEGMENT PARA USE32 PUBLIC 'CODE'
_TEXT	ENDS
;	COMDAT ??1?$_String_base@DV?$allocator@D@_STL@@@_STL@@QAE@XZ
_TEXT	SEGMENT PARA USE32 PUBLIC 'CODE'
_TEXT	ENDS
;	COMDAT ?length@?$char_traits@D@_STL@@SAIPBD@Z
_TEXT	SEGMENT PARA USE32 PUBLIC 'CODE'
_TEXT	ENDS
;	COMDAT ??_7PacketFactory@@6B@
CONST	SEGMENT DWORD USE32 PUBLIC 'CONST'
CONST	ENDS
;	COMDAT ??1?$list@V?$basic_string@DV?$char_traits@D@_STL@@V?$allocator@D@2@@_STL@@V?$allocator@V?$basic_string@DV?$char_traits@D@_STL@@V?$allocator@D@2@@_STL@@@2@@_STL@@QAE@XZ
_TEXT	SEGMENT PARA USE32 PUBLIC 'CODE'
_TEXT	ENDS
;	COMDAT ??_7Throwable@@6B@
CONST	SEGMENT DWORD USE32 PUBLIC 'CONST'
CONST	ENDS
;	COMDAT ??_R4Throwable@@6B@
rdata$r	SEGMENT DWORD USE32 PUBLIC 'CONST'
rdata$r	ENDS
;	COMDAT ??_R3Throwable@@8
rdata$r	SEGMENT DWORD USE32 PUBLIC 'CONST'
rdata$r	ENDS
;	COMDAT ??_R2Throwable@@8
rdata$r	SEGMENT DWORD USE32 PUBLIC 'CONST'
rdata$r	ENDS
;	COMDAT ??_R1A@?0A@A@Throwable@@8
rdata$r	SEGMENT DWORD USE32 PUBLIC 'CONST'
rdata$r	ENDS
;	COMDAT ??_GThrowable@@UAEPAXI@Z
_TEXT	SEGMENT PARA USE32 PUBLIC 'CODE'
_TEXT	ENDS
;	COMDAT ?getName@Throwable@@UBE?AV?$basic_string@DV?$char_traits@D@_STL@@V?$allocator@D@2@@_STL@@XZ
_TEXT	SEGMENT PARA USE32 PUBLIC 'CODE'
_TEXT	ENDS
;	COMDAT ??_C@_09KCKHMJEM@Throwable?$AA@
CONST	SEGMENT DWORD USE32 PUBLIC 'CONST'
CONST	ENDS
;	COMDAT ?toString@Throwable@@UBE?AV?$basic_string@DV?$char_traits@D@_STL@@V?$allocator@D@2@@_STL@@XZ
_TEXT	SEGMENT PARA USE32 PUBLIC 'CODE'
_TEXT	ENDS
;	COMDAT ??_C@_03MCPBMLDJ@?5?3?5?$AA@
CONST	SEGMENT DWORD USE32 PUBLIC 'CONST'
CONST	ENDS
;	COMDAT ?getStackTrace@Throwable@@QBE?AV?$basic_string@DV?$char_traits@D@_STL@@V?$allocator@D@2@@_STL@@XZ
_TEXT	SEGMENT PARA USE32 PUBLIC 'CODE'
_TEXT	ENDS
;	COMDAT ??E?$_List_iterator@V?$basic_string@DV?$char_traits@D@_STL@@V?$allocator@D@2@@_STL@@U?$_Const_traits@V?$basic_string@DV?$char_traits@D@_STL@@V?$allocator@D@2@@_STL@@@2@@_STL@@QAE?AU01@H@Z
_TEXT	SEGMENT PARA USE32 PUBLIC 'CODE'
_TEXT	ENDS
;	COMDAT ??_C@_01CLKCMJKC@?5?$AA@
CONST	SEGMENT DWORD USE32 PUBLIC 'CONST'
CONST	ENDS
;	COMDAT ??_7Error@@6B@
CONST	SEGMENT DWORD USE32 PUBLIC 'CONST'
CONST	ENDS
;	COMDAT ??_R4Error@@6B@
rdata$r	SEGMENT DWORD USE32 PUBLIC 'CONST'
rdata$r	ENDS
;	COMDAT ??_R3Error@@8
rdata$r	SEGMENT DWORD USE32 PUBLIC 'CONST'
rdata$r	ENDS
;	COMDAT ??_R2Error@@8
rdata$r	SEGMENT DWORD USE32 PUBLIC 'CONST'
rdata$r	ENDS
;	COMDAT ??_R1A@?0A@A@Error@@8
rdata$r	SEGMENT DWORD USE32 PUBLIC 'CONST'
rdata$r	ENDS
;	COMDAT ??_GError@@UAEPAXI@Z
_TEXT	SEGMENT PARA USE32 PUBLIC 'CODE'
_TEXT	ENDS
;	COMDAT ?getName@Error@@UBE?AV?$basic_string@DV?$char_traits@D@_STL@@V?$allocator@D@2@@_STL@@XZ
_TEXT	SEGMENT PARA USE32 PUBLIC 'CODE'
_TEXT	ENDS
;	COMDAT ??_C@_05NAOIJFC@Error?$AA@
CONST	SEGMENT DWORD USE32 PUBLIC 'CONST'
CONST	ENDS
;	COMDAT ??1Throwable@@UAE@XZ
_TEXT	SEGMENT PARA USE32 PUBLIC 'CODE'
_TEXT	ENDS
;	COMDAT ??_7UnsupportedError@@6B@
CONST	SEGMENT DWORD USE32 PUBLIC 'CONST'
CONST	ENDS
;	COMDAT ??_R4UnsupportedError@@6B@
rdata$r	SEGMENT DWORD USE32 PUBLIC 'CONST'
rdata$r	ENDS
;	COMDAT ??_R3UnsupportedError@@8
rdata$r	SEGMENT DWORD USE32 PUBLIC 'CONST'
rdata$r	ENDS
;	COMDAT ??_R2UnsupportedError@@8
rdata$r	SEGMENT DWORD USE32 PUBLIC 'CONST'
rdata$r	ENDS
;	COMDAT ??_R1A@?0A@A@UnsupportedError@@8
rdata$r	SEGMENT DWORD USE32 PUBLIC 'CONST'
rdata$r	ENDS
;	COMDAT ??_GUnsupportedError@@UAEPAXI@Z
_TEXT	SEGMENT PARA USE32 PUBLIC 'CODE'
_TEXT	ENDS
;	COMDAT ?getName@UnsupportedError@@UBE?AV?$basic_string@DV?$char_traits@D@_STL@@V?$allocator@D@2@@_STL@@XZ
_TEXT	SEGMENT PARA USE32 PUBLIC 'CODE'
_TEXT	ENDS
;	COMDAT ??_C@_0BB@EOCHEBED@UnsupportedError?$AA@
CONST	SEGMENT DWORD USE32 PUBLIC 'CONST'
CONST	ENDS
;	COMDAT ??1Error@@UAE@XZ
_TEXT	SEGMENT PARA USE32 PUBLIC 'CODE'
_TEXT	ENDS
;	COMDAT __CTA3?AVUnsupportedError@@
xdata$x	SEGMENT DWORD USE32 PUBLIC 'CONST'
xdata$x	ENDS
;	COMDAT ??1UnsupportedError@@UAE@XZ
_TEXT	SEGMENT PARA USE32 PUBLIC 'CODE'
_TEXT	ENDS
;	COMDAT __CT??_R0?AVThrowable@@@8??0Throwable@@QAE@ABV0@@Z20
xdata$x	SEGMENT DWORD USE32 PUBLIC 'CONST'
xdata$x	ENDS
;	COMDAT __CT??_R0?AVError@@@8??0Error@@QAE@ABV0@@Z20
xdata$x	SEGMENT DWORD USE32 PUBLIC 'CONST'
xdata$x	ENDS
;	COMDAT __CT??_R0?AVUnsupportedError@@@8??0UnsupportedError@@QAE@ABV0@@Z20
xdata$x	SEGMENT DWORD USE32 PUBLIC 'CONST'
xdata$x	ENDS
;	COMDAT ??_R0?AVThrowable@@@8
_DATA	SEGMENT DWORD USE32 PUBLIC 'DATA'
_DATA	ENDS
;	COMDAT ??_R0?AVError@@@8
_DATA	SEGMENT DWORD USE32 PUBLIC 'DATA'
_DATA	ENDS
;	COMDAT ??_R0?AVUnsupportedError@@@8
_DATA	SEGMENT DWORD USE32 PUBLIC 'DATA'
_DATA	ENDS
;	COMDAT __TI3?AVUnsupportedError@@
xdata$x	SEGMENT DWORD USE32 PUBLIC 'CONST'
xdata$x	ENDS
;	COMDAT ??0UnsupportedError@@QAE@XZ
_TEXT	SEGMENT PARA USE32 PUBLIC 'CODE'
_TEXT	ENDS
;	COMDAT ??0Error@@QAE@XZ
_TEXT	SEGMENT PARA USE32 PUBLIC 'CODE'
_TEXT	ENDS
;	COMDAT ??0Throwable@@QAE@XZ
_TEXT	SEGMENT PARA USE32 PUBLIC 'CODE'
_TEXT	ENDS
;	COMDAT ??0?$basic_string@DV?$char_traits@D@_STL@@V?$allocator@D@2@@_STL@@QAE@XZ
_TEXT	SEGMENT PARA USE32 PUBLIC 'CODE'
_TEXT	ENDS
;	COMDAT ??0?$list@V?$basic_string@DV?$char_traits@D@_STL@@V?$allocator@D@2@@_STL@@V?$allocator@V?$basic_string@DV?$char_traits@D@_STL@@V?$allocator@D@2@@_STL@@@2@@_STL@@QAE@ABV?$allocator@V?$basic_string@DV?$char_traits@D@_STL@@V?$allocator@D@2@@_STL@@@1@@Z
_TEXT	SEGMENT PARA USE32 PUBLIC 'CODE'
_TEXT	ENDS
;	COMDAT ??0?$allocator@V?$basic_string@DV?$char_traits@D@_STL@@V?$allocator@D@2@@_STL@@@_STL@@QAE@XZ
_TEXT	SEGMENT PARA USE32 PUBLIC 'CODE'
_TEXT	ENDS
;	COMDAT ??_7Packet@@6B@
CONST	SEGMENT DWORD USE32 PUBLIC 'CONST'
CONST	ENDS
;	COMDAT ??1?$basic_string@DV?$char_traits@D@_STL@@V?$allocator@D@2@@_STL@@QAE@XZ
_TEXT	SEGMENT PARA USE32 PUBLIC 'CODE'
_TEXT	ENDS
;	COMDAT ??0?$basic_string@DV?$char_traits@D@_STL@@V?$allocator@D@2@@_STL@@QAE@ABV01@@Z
_TEXT	SEGMENT PARA USE32 PUBLIC 'CODE'
_TEXT	ENDS
sxdata	SEGMENT DWORD USE32 'SXDATA'
sxdata	ENDS
FLAT	GROUP _DATA, CONST, _BSS
	ASSUME	CS: FLAT, DS: FLAT, SS: FLAT
endif

INCLUDELIB LIBCMT
INCLUDELIB OLDNAMES

PUBLIC	?__stl_new@_STL@@YAPAXI@Z			; _STL::__stl_new
EXTRN	??2@YAPAXI@Z:NEAR				; operator new
; Function compile flags: /Ogsy
; File c:\stlport-4.6.1\stlport\stl\_new.h
;	COMDAT ?__stl_new@_STL@@YAPAXI@Z
_TEXT	SEGMENT
___n$ = 8						; size = 4
?__stl_new@_STL@@YAPAXI@Z PROC NEAR			; _STL::__stl_new, COMDAT

; 86   : inline void*  _STLP_CALL __stl_new(size_t __n)   { _STLP_CHECK_NULL_ALLOC(::operator _STLP_NEW(__n)); }

  00000	e9 00 00 00 00	 jmp	 ??2@YAPAXI@Z		; operator new
?__stl_new@_STL@@YAPAXI@Z ENDP				; _STL::__stl_new
_TEXT	ENDS
PUBLIC	?__stl_delete@_STL@@YAXPAX@Z			; _STL::__stl_delete
EXTRN	??3@YAXPAX@Z:NEAR				; operator delete
; Function compile flags: /Ogsy
;	COMDAT ?__stl_delete@_STL@@YAXPAX@Z
_TEXT	SEGMENT
___p$ = 8						; size = 4
?__stl_delete@_STL@@YAXPAX@Z PROC NEAR			; _STL::__stl_delete, COMDAT

; 87   : inline void   _STLP_CALL __stl_delete(void* __p) { ::operator delete(__p); }

  00000	e9 00 00 00 00	 jmp	 ??3@YAXPAX@Z		; operator delete
?__stl_delete@_STL@@YAXPAX@Z ENDP			; _STL::__stl_delete
_TEXT	ENDS
PUBLIC	?_Destroy@_STL@@YAXPAD0@Z			; _STL::_Destroy
; Function compile flags: /Ogsy
; File c:\stlport-4.6.1\stlport\stl\_construct.h
;	COMDAT ?_Destroy@_STL@@YAXPAD0@Z
_TEXT	SEGMENT
___formal$ = 8						; size = 4
___formal$ = 12						; size = 4
?_Destroy@_STL@@YAXPAD0@Z PROC NEAR			; _STL::_Destroy, COMDAT

; 142  : inline void _Destroy(char*, char*) {}

  00000	c3		 ret	 0
?_Destroy@_STL@@YAXPAD0@Z ENDP				; _STL::_Destroy
_TEXT	ENDS
PUBLIC	?__copy_trivial@_STL@@YAPAXPBX0PAX@Z		; _STL::__copy_trivial
EXTRN	_memmove:NEAR
; Function compile flags: /Ogsy
; File c:\stlport-4.6.1\stlport\stl\_algobase.h
;	COMDAT ?__copy_trivial@_STL@@YAPAXPBX0PAX@Z
_TEXT	SEGMENT
___first$ = 8						; size = 4
___last$ = 12						; size = 4
___result$ = 16						; size = 4
?__copy_trivial@_STL@@YAPAXPBX0PAX@Z PROC NEAR		; _STL::__copy_trivial, COMDAT

; 147  : __copy_trivial(const void* __first, const void* __last, void* __result) {

  00000	55		 push	 ebp
  00001	8b ec		 mov	 ebp, esp
  00003	56		 push	 esi

; 148  :   return (__last == __first) ? __result : 
; 149  :     ((char*)memmove(__result, __first, ((const char*)__last - (const char*)__first))) + 
; 150  :     ((const char*)__last - (const char*)__first);

  00004	8b 75 0c	 mov	 esi, DWORD PTR ___last$[ebp]
  00007	3b 75 08	 cmp	 esi, DWORD PTR ___first$[ebp]
  0000a	75 05		 jne	 SHORT $L102442
  0000c	8b 45 10	 mov	 eax, DWORD PTR ___result$[ebp]
  0000f	eb 14		 jmp	 SHORT $L102443
$L102442:
  00011	2b 75 08	 sub	 esi, DWORD PTR ___first$[ebp]
  00014	56		 push	 esi
  00015	ff 75 08	 push	 DWORD PTR ___first$[ebp]
  00018	ff 75 10	 push	 DWORD PTR ___result$[ebp]
  0001b	e8 00 00 00 00	 call	 _memmove
  00020	83 c4 0c	 add	 esp, 12			; 0000000cH
  00023	03 c6		 add	 eax, esi
$L102443:
  00025	5e		 pop	 esi

; 151  : }

  00026	5d		 pop	 ebp
  00027	c3		 ret	 0
?__copy_trivial@_STL@@YAPAXPBX0PAX@Z ENDP		; _STL::__copy_trivial
_TEXT	ENDS
PUBLIC	?uninitialized_copy@_STL@@YAPADPBD0PAD@Z	; _STL::uninitialized_copy
; Function compile flags: /Ogsy
; File c:\stlport-4.6.1\stlport\stl\_uninitialized.h
;	COMDAT ?uninitialized_copy@_STL@@YAPADPBD0PAD@Z
_TEXT	SEGMENT
___first$ = 8						; size = 4
___last$ = 12						; size = 4
___result$ = 16						; size = 4
?uninitialized_copy@_STL@@YAPADPBD0PAD@Z PROC NEAR	; _STL::uninitialized_copy, COMDAT

; 84   :   return  (char*)__copy_trivial (__first, __last, __result);

  00000	e9 00 00 00 00	 jmp	 ?__copy_trivial@_STL@@YAPAXPBX0PAX@Z ; _STL::__copy_trivial
?uninitialized_copy@_STL@@YAPADPBD0PAD@Z ENDP		; _STL::uninitialized_copy
_TEXT	ENDS
PUBLIC	?length@?$char_traits@D@_STL@@SAIPBD@Z		; _STL::char_traits<char>::length
EXTRN	_strlen:NEAR
; Function compile flags: /Ogsy
; File c:\stlport-4.6.1\stlport\stl\char_traits.h
;	COMDAT ?length@?$char_traits@D@_STL@@SAIPBD@Z
_TEXT	SEGMENT
___s$ = 8						; size = 4
?length@?$char_traits@D@_STL@@SAIPBD@Z PROC NEAR	; _STL::char_traits<char>::length, COMDAT

; 238  :   static size_t _STLP_CALL length(const char* __s) { return strlen(__s); }

  00000	e9 00 00 00 00	 jmp	 _strlen
?length@?$char_traits@D@_STL@@SAIPBD@Z ENDP		; _STL::char_traits<char>::length
_TEXT	ENDS
PUBLIC	?execute@GCModifyInformation@@UAEXPAVPlayer@@@Z	; GCModifyInformation::execute
EXTRN	?execute@GCModifyInformationHandler@@SAXPAVGCModifyInformation@@PAVPlayer@@@Z:NEAR ; GCModifyInformationHandler::execute
; Function compile flags: /Ogsy
; File c:\darkeden\designed_common\project\client\packet\gpackets\gcmodifyinformation.cpp
;	COMDAT ?execute@GCModifyInformation@@UAEXPAVPlayer@@@Z
_TEXT	SEGMENT
_pPlayer$ = 8						; size = 4
?execute@GCModifyInformation@@UAEXPAVPlayer@@@Z PROC NEAR ; GCModifyInformation::execute, COMDAT
; _this$ = ecx

; 16   : 	__BEGIN_TRY
; 17   : 		
; 18   : 	GCModifyInformationHandler::execute( this , pPlayer );

  00000	ff 74 24 04	 push	 DWORD PTR _pPlayer$[esp-4]
  00004	51		 push	 ecx
  00005	e8 00 00 00 00	 call	 ?execute@GCModifyInformationHandler@@SAXPAVGCModifyInformation@@PAVPlayer@@@Z ; GCModifyInformationHandler::execute
  0000a	59		 pop	 ecx
  0000b	59		 pop	 ecx

; 19   : 		
; 20   : 	__END_CATCH
; 21   : }

  0000c	c2 04 00	 ret	 4
?execute@GCModifyInformation@@UAEXPAVPlayer@@@Z ENDP	; GCModifyInformation::execute
_TEXT	ENDS
PUBLIC	?_M_terminate_string_aux@?$basic_string@DV?$char_traits@D@_STL@@V?$allocator@D@2@@_STL@@AAEXABU__true_type@2@@Z ; _STL::basic_string<char,_STL::char_traits<char>,_STL::allocator<char> >::_M_terminate_string_aux
; Function compile flags: /Ogsy
; File c:\stlport-4.6.1\stlport\stl\_string.h
;	COMDAT ?_M_terminate_string_aux@?$basic_string@DV?$char_traits@D@_STL@@V?$allocator@D@2@@_STL@@AAEXABU__true_type@2@@Z
_TEXT	SEGMENT
___formal$ = 8						; size = 4
?_M_terminate_string_aux@?$basic_string@DV?$char_traits@D@_STL@@V?$allocator@D@2@@_STL@@AAEXABU__true_type@2@@Z PROC NEAR ; _STL::basic_string<char,_STL::char_traits<char>,_STL::allocator<char> >::_M_terminate_string_aux, COMDAT
; _this$ = ecx

; 351  :     *(this->_M_finish)=0;

  00000	8b 41 04	 mov	 eax, DWORD PTR [ecx+4]
  00003	c6 00 00	 mov	 BYTE PTR [eax], 0

; 352  :   }

  00006	c2 04 00	 ret	 4
?_M_terminate_string_aux@?$basic_string@DV?$char_traits@D@_STL@@V?$allocator@D@2@@_STL@@AAEXABU__true_type@2@@Z ENDP ; _STL::basic_string<char,_STL::char_traits<char>,_STL::allocator<char> >::_M_terminate_string_aux
_TEXT	ENDS
PUBLIC	??0?$allocator@D@_STL@@QAE@ABV01@@Z		; _STL::allocator<char>::allocator<char>
; Function compile flags: /Ogsy
; File c:\stlport-4.6.1\stlport\stl\_alloc.h
;	COMDAT ??0?$allocator@D@_STL@@QAE@ABV01@@Z
_TEXT	SEGMENT
___formal$ = 8						; size = 4
??0?$allocator@D@_STL@@QAE@ABV01@@Z PROC NEAR		; _STL::allocator<char>::allocator<char>, COMDAT
; _this$ = ecx

; 349  :   allocator(const allocator<_Tp>&) _STLP_NOTHROW {}

  00000	8b c1		 mov	 eax, ecx
  00002	c2 04 00	 ret	 4
??0?$allocator@D@_STL@@QAE@ABV01@@Z ENDP		; _STL::allocator<char>::allocator<char>
_TEXT	ENDS
PUBLIC	?max_size@?$_String_base@DV?$allocator@D@_STL@@@_STL@@QBEIXZ ; _STL::_String_base<char,_STL::allocator<char> >::max_size
; Function compile flags: /Ogsy
; File c:\stlport-4.6.1\stlport\stl\_string.h
;	COMDAT ?max_size@?$_String_base@DV?$allocator@D@_STL@@@_STL@@QBEIXZ
_TEXT	SEGMENT
?max_size@?$_String_base@DV?$allocator@D@_STL@@@_STL@@QBEIXZ PROC NEAR ; _STL::_String_base<char,_STL::allocator<char> >::max_size, COMDAT
; _this$ = ecx

; 126  :   size_t max_size() const { return (size_t(-1) / sizeof(_Tp)) - 1; }

  00000	6a fe		 push	 -2			; fffffffeH
  00002	58		 pop	 eax
  00003	c3		 ret	 0
?max_size@?$_String_base@DV?$allocator@D@_STL@@@_STL@@QBEIXZ ENDP ; _STL::_String_base<char,_STL::allocator<char> >::max_size
_TEXT	ENDS
PUBLIC	??$__distance@PBD@_STL@@YAHABQBD0ABUrandom_access_iterator_tag@0@@Z ; _STL::__distance<char const *>
; Function compile flags: /Ogsy
; File c:\stlport-4.6.1\stlport\stl\_iterator_base.h
;	COMDAT ??$__distance@PBD@_STL@@YAHABQBD0ABUrandom_access_iterator_tag@0@@Z
_TEXT	SEGMENT
___first$ = 8						; size = 4
___last$ = 12						; size = 4
___formal$ = 16						; size = 4
??$__distance@PBD@_STL@@YAHABQBD0ABUrandom_access_iterator_tag@0@@Z PROC NEAR ; _STL::__distance<char const *>, COMDAT

; 363  :   return __last - __first;

  00000	8b 44 24 08	 mov	 eax, DWORD PTR ___last$[esp-4]
  00004	8b 00		 mov	 eax, DWORD PTR [eax]
  00006	8b 4c 24 04	 mov	 ecx, DWORD PTR ___first$[esp-4]
  0000a	2b 01		 sub	 eax, DWORD PTR [ecx]

; 364  : }

  0000c	c3		 ret	 0
??$__distance@PBD@_STL@@YAHABQBD0ABUrandom_access_iterator_tag@0@@Z ENDP ; _STL::__distance<char const *>
_TEXT	ENDS
PUBLIC	??_C@_0N@GOPDCEEB@basic_string?$AA@		; `string'
PUBLIC	?_M_throw_length_error@?$_String_base@DV?$allocator@D@_STL@@@_STL@@QBEXXZ ; _STL::_String_base<char,_STL::allocator<char> >::_M_throw_length_error
EXTRN	?__stl_throw_length_error@_STL@@YAXPBD@Z:NEAR	; _STL::__stl_throw_length_error
;	COMDAT ??_C@_0N@GOPDCEEB@basic_string?$AA@
; File c:\stlport-4.6.1\stlport\stl\_string.c
CONST	SEGMENT
??_C@_0N@GOPDCEEB@basic_string?$AA@ DB 'basic_string', 00H ; `string'
; Function compile flags: /Ogsy
CONST	ENDS
;	COMDAT ?_M_throw_length_error@?$_String_base@DV?$allocator@D@_STL@@@_STL@@QBEXXZ
_TEXT	SEGMENT
?_M_throw_length_error@?$_String_base@DV?$allocator@D@_STL@@@_STL@@QBEXXZ PROC NEAR ; _STL::_String_base<char,_STL::allocator<char> >::_M_throw_length_error, COMDAT
; _this$ = ecx

; 523  :     __stl_throw_length_error("basic_string");

  00000	68 00 00 00 00	 push	 OFFSET FLAT:??_C@_0N@GOPDCEEB@basic_string?$AA@
  00005	e8 00 00 00 00	 call	 ?__stl_throw_length_error@_STL@@YAXPBD@Z ; _STL::__stl_throw_length_error
  0000a	59		 pop	 ecx

; 524  : }

  0000b	c3		 ret	 0
?_M_throw_length_error@?$_String_base@DV?$allocator@D@_STL@@@_STL@@QBEXXZ ENDP ; _STL::_String_base<char,_STL::allocator<char> >::_M_throw_length_error
_TEXT	ENDS
PUBLIC	??0?$allocator@D@_STL@@QAE@XZ			; _STL::allocator<char>::allocator<char>
; Function compile flags: /Ogsy
; File c:\stlport-4.6.1\stlport\stl\_alloc.h
;	COMDAT ??0?$allocator@D@_STL@@QAE@XZ
_TEXT	SEGMENT
??0?$allocator@D@_STL@@QAE@XZ PROC NEAR			; _STL::allocator<char>::allocator<char>, COMDAT
; _this$ = ecx

; 345  :   allocator() _STLP_NOTHROW {}

  00000	8b c1		 mov	 eax, ecx
  00002	c3		 ret	 0
??0?$allocator@D@_STL@@QAE@XZ ENDP			; _STL::allocator<char>::allocator<char>
_TEXT	ENDS
PUBLIC	??1?$allocator@D@_STL@@QAE@XZ			; _STL::allocator<char>::~allocator<char>
; Function compile flags: /Ogsy
;	COMDAT ??1?$allocator@D@_STL@@QAE@XZ
_TEXT	SEGMENT
??1?$allocator@D@_STL@@QAE@XZ PROC NEAR			; _STL::allocator<char>::~allocator<char>, COMDAT
; _this$ = ecx

; 350  :   ~allocator() _STLP_NOTHROW {}

  00000	c3		 ret	 0
??1?$allocator@D@_STL@@QAE@XZ ENDP			; _STL::allocator<char>::~allocator<char>
_TEXT	ENDS
PUBLIC	??1?$_STLP_alloc_proxy@PADDV?$allocator@D@_STL@@@_STL@@QAE@XZ ; _STL::_STLP_alloc_proxy<char *,char,_STL::allocator<char> >::~_STLP_alloc_proxy<char *,char,_STL::allocator<char> >
; Function compile flags: /Ogsy
;	COMDAT ??1?$_STLP_alloc_proxy@PADDV?$allocator@D@_STL@@@_STL@@QAE@XZ
_TEXT	SEGMENT
??1?$_STLP_alloc_proxy@PADDV?$allocator@D@_STL@@@_STL@@QAE@XZ PROC NEAR ; _STL::_STLP_alloc_proxy<char *,char,_STL::allocator<char> >::~_STLP_alloc_proxy<char *,char,_STL::allocator<char> >, COMDAT
; _this$ = ecx
  00000	c3		 ret	 0
??1?$_STLP_alloc_proxy@PADDV?$allocator@D@_STL@@@_STL@@QAE@XZ ENDP ; _STL::_STLP_alloc_proxy<char *,char,_STL::allocator<char> >::~_STLP_alloc_proxy<char *,char,_STL::allocator<char> >
_TEXT	ENDS
PUBLIC	?allocate@?$__node_alloc@$00$0A@@_STL@@SAPAXI@Z	; _STL::__node_alloc<1,0>::allocate
EXTRN	?_M_allocate@?$__node_alloc@$00$0A@@_STL@@CAPAXI@Z:NEAR ; _STL::__node_alloc<1,0>::_M_allocate
; Function compile flags: /Ogsy
;	COMDAT ?allocate@?$__node_alloc@$00$0A@@_STL@@SAPAXI@Z
_TEXT	SEGMENT
___n$ = 8						; size = 4
?allocate@?$__node_alloc@$00$0A@@_STL@@SAPAXI@Z PROC NEAR ; _STL::__node_alloc<1,0>::allocate, COMDAT

; 251  :   static void * _STLP_CALL allocate(size_t __n) { return (__n > (size_t)_MAX_BYTES) ?  __stl_new(__n) : _M_allocate(__n); }

  00000	8b 44 24 04	 mov	 eax, DWORD PTR ___n$[esp-4]
  00004	3d 80 00 00 00	 cmp	 eax, 128		; 00000080H
  00009	50		 push	 eax
  0000a	76 07		 jbe	 SHORT $L102484
  0000c	e8 00 00 00 00	 call	 ??2@YAPAXI@Z		; operator new
  00011	59		 pop	 ecx
  00012	c3		 ret	 0
$L102484:
  00013	e8 00 00 00 00	 call	 ?_M_allocate@?$__node_alloc@$00$0A@@_STL@@CAPAXI@Z ; _STL::__node_alloc<1,0>::_M_allocate
  00018	59		 pop	 ecx
  00019	c3		 ret	 0
?allocate@?$__node_alloc@$00$0A@@_STL@@SAPAXI@Z ENDP	; _STL::__node_alloc<1,0>::allocate
_TEXT	ENDS
PUBLIC	?deallocate@?$__node_alloc@$00$0A@@_STL@@SAXPAXI@Z ; _STL::__node_alloc<1,0>::deallocate
EXTRN	?_M_deallocate@?$__node_alloc@$00$0A@@_STL@@CAXPAXI@Z:NEAR ; _STL::__node_alloc<1,0>::_M_deallocate
; Function compile flags: /Ogsy
;	COMDAT ?deallocate@?$__node_alloc@$00$0A@@_STL@@SAXPAXI@Z
_TEXT	SEGMENT
___p$ = 8						; size = 4
___n$ = 12						; size = 4
?deallocate@?$__node_alloc@$00$0A@@_STL@@SAXPAXI@Z PROC NEAR ; _STL::__node_alloc<1,0>::deallocate, COMDAT

; 253  :   static void _STLP_CALL deallocate(void *__p, size_t __n) { if (__n > (size_t)_MAX_BYTES) __stl_delete(__p); else _M_deallocate(__p, __n); }

  00000	81 7c 24 08 80
	00 00 00	 cmp	 DWORD PTR ___n$[esp-4], 128 ; 00000080H
  00008	76 0b		 jbe	 SHORT $L98677
  0000a	ff 74 24 04	 push	 DWORD PTR ___p$[esp-4]
  0000e	e8 00 00 00 00	 call	 ??3@YAXPAX@Z		; operator delete
  00013	59		 pop	 ecx
  00014	c3		 ret	 0
$L98677:
  00015	e9 00 00 00 00	 jmp	 ?_M_deallocate@?$__node_alloc@$00$0A@@_STL@@CAXPAXI@Z ; _STL::__node_alloc<1,0>::_M_deallocate
?deallocate@?$__node_alloc@$00$0A@@_STL@@SAXPAXI@Z ENDP	; _STL::__node_alloc<1,0>::deallocate
_TEXT	ENDS
PUBLIC	?_M_terminate_string@?$basic_string@DV?$char_traits@D@_STL@@V?$allocator@D@2@@_STL@@AAEXXZ ; _STL::basic_string<char,_STL::char_traits<char>,_STL::allocator<char> >::_M_terminate_string
; Function compile flags: /Ogsy
; File c:\stlport-4.6.1\stlport\stl\_string.h
;	COMDAT ?_M_terminate_string@?$basic_string@DV?$char_traits@D@_STL@@V?$allocator@D@2@@_STL@@AAEXXZ
_TEXT	SEGMENT
?_M_terminate_string@?$basic_string@DV?$char_traits@D@_STL@@V?$allocator@D@2@@_STL@@AAEXXZ PROC NEAR ; _STL::basic_string<char,_STL::char_traits<char>,_STL::allocator<char> >::_M_terminate_string, COMDAT
; _this$ = ecx

; 355  :     _M_terminate_string_aux(_Char_Is_Integral());

  00000	8b 41 04	 mov	 eax, DWORD PTR [ecx+4]
  00003	c6 00 00	 mov	 BYTE PTR [eax], 0

; 356  :   }

  00006	c3		 ret	 0
?_M_terminate_string@?$basic_string@DV?$char_traits@D@_STL@@V?$allocator@D@2@@_STL@@AAEXXZ ENDP ; _STL::basic_string<char,_STL::char_traits<char>,_STL::allocator<char> >::_M_terminate_string
_TEXT	ENDS
PUBLIC	?allocate@?$allocator@D@_STL@@QAEPADIPBX@Z	; _STL::allocator<char>::allocate
; Function compile flags: /Ogsy
; File c:\stlport-4.6.1\stlport\stl\_alloc.h
;	COMDAT ?allocate@?$allocator@D@_STL@@QAEPADIPBX@Z
_TEXT	SEGMENT
___n$ = 8						; size = 4
___formal$ = 12						; size = 4
?allocate@?$allocator@D@_STL@@QAEPADIPBX@Z PROC NEAR	; _STL::allocator<char>::allocate, COMDAT
; _this$ = ecx

; 355  :     return __n != 0 ? __REINTERPRET_CAST(value_type*,__sgi_alloc::allocate(__n * sizeof(value_type))) : 0;

  00000	33 c0		 xor	 eax, eax
  00002	39 44 24 04	 cmp	 DWORD PTR ___n$[esp-4], eax
  00006	74 0a		 je	 SHORT $L102507
  00008	ff 74 24 04	 push	 DWORD PTR ___n$[esp-4]
  0000c	e8 00 00 00 00	 call	 ?allocate@?$__node_alloc@$00$0A@@_STL@@SAPAXI@Z ; _STL::__node_alloc<1,0>::allocate
  00011	59		 pop	 ecx
$L102507:

; 356  :   }

  00012	c2 08 00	 ret	 8
?allocate@?$allocator@D@_STL@@QAEPADIPBX@Z ENDP		; _STL::allocator<char>::allocate
_TEXT	ENDS
PUBLIC	??0?$_STLP_alloc_proxy@PADDV?$allocator@D@_STL@@@_STL@@QAE@ABV?$allocator@D@1@PAD@Z ; _STL::_STLP_alloc_proxy<char *,char,_STL::allocator<char> >::_STLP_alloc_proxy<char *,char,_STL::allocator<char> >
; Function compile flags: /Ogsy
;	COMDAT ??0?$_STLP_alloc_proxy@PADDV?$allocator@D@_STL@@@_STL@@QAE@ABV?$allocator@D@1@PAD@Z
_TEXT	SEGMENT
___a$ = 8						; size = 4
___p$ = 12						; size = 4
??0?$_STLP_alloc_proxy@PADDV?$allocator@D@_STL@@@_STL@@QAE@ABV?$allocator@D@1@PAD@Z PROC NEAR ; _STL::_STLP_alloc_proxy<char *,char,_STL::allocator<char> >::_STLP_alloc_proxy<char *,char,_STL::allocator<char> >, COMDAT
; _this$ = ecx

; 487  :   inline _STLP_alloc_proxy(const _MaybeReboundAlloc& __a, _Value __p) : _MaybeReboundAlloc(__a), _M_data(__p) {}

  00000	8b c1		 mov	 eax, ecx
  00002	8b 4c 24 08	 mov	 ecx, DWORD PTR ___p$[esp-4]
  00006	89 08		 mov	 DWORD PTR [eax], ecx
  00008	c2 08 00	 ret	 8
??0?$_STLP_alloc_proxy@PADDV?$allocator@D@_STL@@@_STL@@QAE@ABV?$allocator@D@1@PAD@Z ENDP ; _STL::_STLP_alloc_proxy<char *,char,_STL::allocator<char> >::_STLP_alloc_proxy<char *,char,_STL::allocator<char> >
_TEXT	ENDS
PUBLIC	??$distance@PBD@_STL@@YAHABQBD0@Z		; _STL::distance<char const *>
; Function compile flags: /Ogsy
; File c:\stlport-4.6.1\stlport\stl\_iterator_base.h
;	COMDAT ??$distance@PBD@_STL@@YAHABQBD0@Z
_TEXT	SEGMENT
___first$ = 8						; size = 4
___last$ = 12						; size = 4
??$distance@PBD@_STL@@YAHABQBD0@Z PROC NEAR		; _STL::distance<char const *>, COMDAT

; 369  :   return __distance(__first, __last, _STLP_ITERATOR_CATEGORY(__first, _InputIterator));  

  00000	8b 44 24 08	 mov	 eax, DWORD PTR ___last$[esp-4]
  00004	8b 00		 mov	 eax, DWORD PTR [eax]
  00006	8b 4c 24 04	 mov	 ecx, DWORD PTR ___first$[esp-4]
  0000a	2b 01		 sub	 eax, DWORD PTR [ecx]

; 370  : }

  0000c	c3		 ret	 0
??$distance@PBD@_STL@@YAHABQBD0@Z ENDP			; _STL::distance<char const *>
_TEXT	ENDS
PUBLIC	?_M_allocate_block@?$_String_base@DV?$allocator@D@_STL@@@_STL@@QAEXI@Z ; _STL::_String_base<char,_STL::allocator<char> >::_M_allocate_block
; Function compile flags: /Ogsy
; File c:\stlport-4.6.1\stlport\stl\_string.c
;	COMDAT ?_M_allocate_block@?$_String_base@DV?$allocator@D@_STL@@@_STL@@QAEXI@Z
_TEXT	SEGMENT
___n$ = 8						; size = 4
?_M_allocate_block@?$_String_base@DV?$allocator@D@_STL@@@_STL@@QAEXI@Z PROC NEAR ; _STL::_String_base<char,_STL::allocator<char> >::_M_allocate_block, COMDAT
; _this$ = ecx

; 530  : template <class _Tp, class _Alloc> void _String_base<_Tp, _Alloc>::_M_allocate_block(size_t __n) {  

  00000	56		 push	 esi
  00001	57		 push	 edi

; 531  :   if ((__n <= (max_size()+1)) && (__n>0)){ 

  00002	8b 7c 24 0c	 mov	 edi, DWORD PTR ___n$[esp+4]
  00006	83 ff ff	 cmp	 edi, -1
  00009	8b f1		 mov	 esi, ecx
  0000b	77 17		 ja	 SHORT $L101909
  0000d	85 ff		 test	 edi, edi
  0000f	76 13		 jbe	 SHORT $L101909

; 532  :     _M_start  = _M_end_of_storage.allocate(__n); 

  00011	57		 push	 edi
  00012	e8 00 00 00 00	 call	 ?allocate@?$__node_alloc@$00$0A@@_STL@@SAPAXI@Z ; _STL::__node_alloc<1,0>::allocate
  00017	89 06		 mov	 DWORD PTR [esi], eax

; 533  :     _M_finish = _M_start; 

  00019	89 46 04	 mov	 DWORD PTR [esi+4], eax

; 534  :     _M_end_of_storage._M_data = _M_start + __n; 

  0001c	03 c7		 add	 eax, edi
  0001e	59		 pop	 ecx
  0001f	89 46 08	 mov	 DWORD PTR [esi+8], eax

; 535  :   } 
; 536  :     else 

  00022	eb 07		 jmp	 SHORT $L101910
$L101909:

; 537  :       _M_throw_length_error(); 

  00024	8b ce		 mov	 ecx, esi
  00026	e8 00 00 00 00	 call	 ?_M_throw_length_error@?$_String_base@DV?$allocator@D@_STL@@@_STL@@QBEXXZ ; _STL::_String_base<char,_STL::allocator<char> >::_M_throw_length_error
$L101910:
  0002b	5f		 pop	 edi
  0002c	5e		 pop	 esi

; 538  : } 

  0002d	c2 04 00	 ret	 4
?_M_allocate_block@?$_String_base@DV?$allocator@D@_STL@@@_STL@@QAEXI@Z ENDP ; _STL::_String_base<char,_STL::allocator<char> >::_M_allocate_block
_TEXT	ENDS
PUBLIC	?deallocate@?$allocator@D@_STL@@QAEXPADI@Z	; _STL::allocator<char>::deallocate
; Function compile flags: /Ogsy
; File c:\stlport-4.6.1\stlport\stl\_alloc.h
;	COMDAT ?deallocate@?$allocator@D@_STL@@QAEXPADI@Z
_TEXT	SEGMENT
___p$ = 8						; size = 4
___n$ = 12						; size = 4
?deallocate@?$allocator@D@_STL@@QAEXPADI@Z PROC NEAR	; _STL::allocator<char>::deallocate, COMDAT
; _this$ = ecx

; 359  :     _STLP_ASSERT( (__p == 0) == (__n == 0) )
; 360  :       if (__p != 0) __sgi_alloc::deallocate((void*)__p, __n * sizeof(value_type));

  00000	83 7c 24 04 00	 cmp	 DWORD PTR ___p$[esp-4], 0
  00005	74 0f		 je	 SHORT $L98663
  00007	ff 74 24 08	 push	 DWORD PTR ___n$[esp-4]
  0000b	ff 74 24 08	 push	 DWORD PTR ___p$[esp]
  0000f	e8 00 00 00 00	 call	 ?deallocate@?$__node_alloc@$00$0A@@_STL@@SAXPAXI@Z ; _STL::__node_alloc<1,0>::deallocate
  00014	59		 pop	 ecx
  00015	59		 pop	 ecx
$L98663:

; 361  :   }

  00016	c2 08 00	 ret	 8
?deallocate@?$allocator@D@_STL@@QAEXPADI@Z ENDP		; _STL::allocator<char>::deallocate
_TEXT	ENDS
PUBLIC	??0?$_String_base@DV?$allocator@D@_STL@@@_STL@@QAE@ABV?$allocator@D@1@@Z ; _STL::_String_base<char,_STL::allocator<char> >::_String_base<char,_STL::allocator<char> >
; Function compile flags: /Ogsy
; File c:\stlport-4.6.1\stlport\stl\_string.h
;	COMDAT ??0?$_String_base@DV?$allocator@D@_STL@@@_STL@@QAE@ABV?$allocator@D@1@@Z
_TEXT	SEGMENT
___a$ = 8						; size = 4
??0?$_String_base@DV?$allocator@D@_STL@@@_STL@@QAE@ABV?$allocator@D@1@@Z PROC NEAR ; _STL::_String_base<char,_STL::allocator<char> >::_String_base<char,_STL::allocator<char> >, COMDAT
; _this$ = ecx

; 129  :     : _M_start(0), _M_finish(0), _M_end_of_storage(__a, (_Tp*)0) {}

  00000	56		 push	 esi
  00001	33 c0		 xor	 eax, eax
  00003	8b f1		 mov	 esi, ecx
  00005	50		 push	 eax
  00006	ff 74 24 0c	 push	 DWORD PTR ___a$[esp+4]
  0000a	8d 4e 08	 lea	 ecx, DWORD PTR [esi+8]
  0000d	89 06		 mov	 DWORD PTR [esi], eax
  0000f	89 46 04	 mov	 DWORD PTR [esi+4], eax
  00012	e8 00 00 00 00	 call	 ??0?$_STLP_alloc_proxy@PADDV?$allocator@D@_STL@@@_STL@@QAE@ABV?$allocator@D@1@PAD@Z ; _STL::_STLP_alloc_proxy<char *,char,_STL::allocator<char> >::_STLP_alloc_proxy<char *,char,_STL::allocator<char> >
  00017	8b c6		 mov	 eax, esi
  00019	5e		 pop	 esi
  0001a	c2 04 00	 ret	 4
??0?$_String_base@DV?$allocator@D@_STL@@@_STL@@QAE@ABV?$allocator@D@1@@Z ENDP ; _STL::_String_base<char,_STL::allocator<char> >::_String_base<char,_STL::allocator<char> >
_TEXT	ENDS
PUBLIC	??$_M_range_initialize@PBD@?$basic_string@DV?$char_traits@D@_STL@@V?$allocator@D@2@@_STL@@AAEXPBD0ABUforward_iterator_tag@1@@Z ; _STL::basic_string<char,_STL::char_traits<char>,_STL::allocator<char> >::_M_range_initialize<char const *>
; Function compile flags: /Ogsy
;	COMDAT ??$_M_range_initialize@PBD@?$basic_string@DV?$char_traits@D@_STL@@V?$allocator@D@2@@_STL@@AAEXPBD0ABUforward_iterator_tag@1@@Z
_TEXT	SEGMENT
___f$ = 8						; size = 4
___l$ = 12						; size = 4
___formal$ = 16						; size = 4
??$_M_range_initialize@PBD@?$basic_string@DV?$char_traits@D@_STL@@V?$allocator@D@2@@_STL@@AAEXPBD0ABUforward_iterator_tag@1@@Z PROC NEAR ; _STL::basic_string<char,_STL::char_traits<char>,_STL::allocator<char> >::_M_range_initialize<char const *>, COMDAT
; _this$ = ecx

; 383  :                            const forward_iterator_tag &) {
; 384  :     difference_type __n = distance(__f, __l);
; 385  :     this->_M_allocate_block(__n + 1);

  00000	8b 44 24 08	 mov	 eax, DWORD PTR ___l$[esp-4]
  00004	2b 44 24 04	 sub	 eax, DWORD PTR ___f$[esp-4]
  00008	56		 push	 esi
  00009	40		 inc	 eax
  0000a	50		 push	 eax
  0000b	8b f1		 mov	 esi, ecx
  0000d	e8 00 00 00 00	 call	 ?_M_allocate_block@?$_String_base@DV?$allocator@D@_STL@@@_STL@@QAEXI@Z ; _STL::_String_base<char,_STL::allocator<char> >::_M_allocate_block

; 386  :     this->_M_finish = uninitialized_copy(__f, __l, this->_M_start);

  00012	ff 36		 push	 DWORD PTR [esi]
  00014	ff 74 24 10	 push	 DWORD PTR ___l$[esp+4]
  00018	ff 74 24 10	 push	 DWORD PTR ___f$[esp+8]
  0001c	e8 00 00 00 00	 call	 ?__copy_trivial@_STL@@YAPAXPBX0PAX@Z ; _STL::__copy_trivial
  00021	83 c4 0c	 add	 esp, 12			; 0000000cH
  00024	89 46 04	 mov	 DWORD PTR [esi+4], eax

; 387  :     _M_terminate_string();

  00027	c6 00 00	 mov	 BYTE PTR [eax], 0
  0002a	5e		 pop	 esi

; 388  :   }

  0002b	c2 0c 00	 ret	 12			; 0000000cH
??$_M_range_initialize@PBD@?$basic_string@DV?$char_traits@D@_STL@@V?$allocator@D@2@@_STL@@AAEXPBD0ABUforward_iterator_tag@1@@Z ENDP ; _STL::basic_string<char,_STL::char_traits<char>,_STL::allocator<char> >::_M_range_initialize<char const *>
_TEXT	ENDS
PUBLIC	?_M_deallocate_block@?$_String_base@DV?$allocator@D@_STL@@@_STL@@QAEXXZ ; _STL::_String_base<char,_STL::allocator<char> >::_M_deallocate_block
; Function compile flags: /Ogsy
;	COMDAT ?_M_deallocate_block@?$_String_base@DV?$allocator@D@_STL@@@_STL@@QAEXXZ
_TEXT	SEGMENT
?_M_deallocate_block@?$_String_base@DV?$allocator@D@_STL@@@_STL@@QAEXXZ PROC NEAR ; _STL::_String_base<char,_STL::allocator<char> >::_M_deallocate_block, COMDAT
; _this$ = ecx

; 124  :     { _M_end_of_storage.deallocate(_M_start, _M_end_of_storage._M_data - _M_start); }

  00000	8b c1		 mov	 eax, ecx
  00002	8d 48 08	 lea	 ecx, DWORD PTR [eax+8]
  00005	8b 00		 mov	 eax, DWORD PTR [eax]
  00007	8b 11		 mov	 edx, DWORD PTR [ecx]
  00009	2b d0		 sub	 edx, eax
  0000b	52		 push	 edx
  0000c	50		 push	 eax
  0000d	e8 00 00 00 00	 call	 ?deallocate@?$allocator@D@_STL@@QAEXPADI@Z ; _STL::allocator<char>::deallocate
  00012	c3		 ret	 0
?_M_deallocate_block@?$_String_base@DV?$allocator@D@_STL@@@_STL@@QAEXXZ ENDP ; _STL::_String_base<char,_STL::allocator<char> >::_M_deallocate_block
_TEXT	ENDS
PUBLIC	??$_M_range_initialize@PBD@?$basic_string@DV?$char_traits@D@_STL@@V?$allocator@D@2@@_STL@@AAEXPBD0@Z ; _STL::basic_string<char,_STL::char_traits<char>,_STL::allocator<char> >::_M_range_initialize<char const *>
; Function compile flags: /Ogsy
;	COMDAT ??$_M_range_initialize@PBD@?$basic_string@DV?$char_traits@D@_STL@@V?$allocator@D@2@@_STL@@AAEXPBD0@Z
_TEXT	SEGMENT
___f$ = 8						; size = 4
___l$ = 12						; size = 4
$T102572 = 15						; size = 1
??$_M_range_initialize@PBD@?$basic_string@DV?$char_traits@D@_STL@@V?$allocator@D@2@@_STL@@AAEXPBD0@Z PROC NEAR ; _STL::basic_string<char,_STL::char_traits<char>,_STL::allocator<char> >::_M_range_initialize<char const *>, COMDAT
; _this$ = ecx

; 390  :   template <class _InputIter> void _M_range_initialize(_InputIter __f, _InputIter __l) {

  00000	55		 push	 ebp
  00001	8b ec		 mov	 ebp, esp

; 391  :     _M_range_initialize(__f, __l, _STLP_ITERATOR_CATEGORY(__f, _InputIter));

  00003	8d 45 0f	 lea	 eax, DWORD PTR $T102572[ebp]
  00006	50		 push	 eax
  00007	ff 75 0c	 push	 DWORD PTR ___l$[ebp]
  0000a	ff 75 08	 push	 DWORD PTR ___f$[ebp]
  0000d	e8 00 00 00 00	 call	 ??$_M_range_initialize@PBD@?$basic_string@DV?$char_traits@D@_STL@@V?$allocator@D@2@@_STL@@AAEXPBD0ABUforward_iterator_tag@1@@Z ; _STL::basic_string<char,_STL::char_traits<char>,_STL::allocator<char> >::_M_range_initialize<char const *>

; 392  :   }

  00012	5d		 pop	 ebp
  00013	c2 08 00	 ret	 8
??$_M_range_initialize@PBD@?$basic_string@DV?$char_traits@D@_STL@@V?$allocator@D@2@@_STL@@AAEXPBD0@Z ENDP ; _STL::basic_string<char,_STL::char_traits<char>,_STL::allocator<char> >::_M_range_initialize<char const *>
_TEXT	ENDS
PUBLIC	??1?$_String_base@DV?$allocator@D@_STL@@@_STL@@QAE@XZ ; _STL::_String_base<char,_STL::allocator<char> >::~_String_base<char,_STL::allocator<char> >
; Function compile flags: /Ogsy
;	COMDAT ??1?$_String_base@DV?$allocator@D@_STL@@@_STL@@QAE@XZ
_TEXT	SEGMENT
??1?$_String_base@DV?$allocator@D@_STL@@@_STL@@QAE@XZ PROC NEAR ; _STL::_String_base<char,_STL::allocator<char> >::~_String_base<char,_STL::allocator<char> >, COMDAT
; _this$ = ecx

; 135  :   ~_String_base() { _M_deallocate_block(); }

  00000	e9 00 00 00 00	 jmp	 ?_M_deallocate_block@?$_String_base@DV?$allocator@D@_STL@@@_STL@@QAEXXZ ; _STL::_String_base<char,_STL::allocator<char> >::_M_deallocate_block
??1?$_String_base@DV?$allocator@D@_STL@@@_STL@@QAE@XZ ENDP ; _STL::_String_base<char,_STL::allocator<char> >::~_String_base<char,_STL::allocator<char> >
_TEXT	ENDS
PUBLIC	??0?$basic_string@DV?$char_traits@D@_STL@@V?$allocator@D@2@@_STL@@QAE@PBDABV?$allocator@D@1@@Z ; _STL::basic_string<char,_STL::char_traits<char>,_STL::allocator<char> >::basic_string<char,_STL::char_traits<char>,_STL::allocator<char> >
EXTRN	__EH_prolog:NEAR
EXTRN	__except_list:DWORD
EXTRN	___CxxFrameHandler:NEAR
;	COMDAT xdata$x
xdata$x	SEGMENT
$T102595 DD	0ffffffffH
	DD	FLAT:$L102578
$T102591 DD	019930520H
	DD	01H
	DD	FLAT:$T102595
	DD	2 DUP(00H)
	DD	2 DUP(00H)
; Function compile flags: /Ogsy
; File c:\stlport-4.6.1\stlport\stl\_string.c
xdata$x	ENDS
;	COMDAT ??0?$basic_string@DV?$char_traits@D@_STL@@V?$allocator@D@2@@_STL@@QAE@PBDABV?$allocator@D@1@@Z
_TEXT	SEGMENT
_this$ = -16						; size = 4
__$EHRec$ = -12						; size = 12
___s$ = 8						; size = 4
$T102586 = 11						; size = 1
___a$ = 12						; size = 4
??0?$basic_string@DV?$char_traits@D@_STL@@V?$allocator@D@2@@_STL@@QAE@PBDABV?$allocator@D@1@@Z PROC NEAR ; _STL::basic_string<char,_STL::char_traits<char>,_STL::allocator<char> >::basic_string<char,_STL::char_traits<char>,_STL::allocator<char> >, COMDAT
; _this$ = ecx

; 552  : { 

  00000	b8 00 00 00 00	 mov	 eax, __ehhandler$??0?$basic_string@DV?$char_traits@D@_STL@@V?$allocator@D@2@@_STL@@QAE@PBDABV?$allocator@D@1@@Z
  00005	e8 00 00 00 00	 call	 __EH_prolog
  0000a	51		 push	 ecx
  0000b	56		 push	 esi
  0000c	ff 75 0c	 push	 DWORD PTR ___a$[ebp]
  0000f	8b f1		 mov	 esi, ecx
  00011	89 75 f0	 mov	 DWORD PTR _this$[ebp], esi
  00014	e8 00 00 00 00	 call	 ??0?$_String_base@DV?$allocator@D@_STL@@@_STL@@QAE@ABV?$allocator@D@1@@Z ; _STL::_String_base<char,_STL::allocator<char> >::_String_base<char,_STL::allocator<char> >

; 553  :   _STLP_FIX_LITERAL_BUG(__s) 
; 554  :     _M_range_initialize(__s, __s + traits_type::length(__s));  

  00019	ff 75 08	 push	 DWORD PTR ___s$[ebp]
  0001c	83 65 fc 00	 and	 DWORD PTR __$EHRec$[ebp+8], 0
  00020	e8 00 00 00 00	 call	 _strlen
  00025	03 45 08	 add	 eax, DWORD PTR ___s$[ebp]
  00028	59		 pop	 ecx
  00029	8d 4d 0b	 lea	 ecx, DWORD PTR $T102586[ebp]
  0002c	51		 push	 ecx
  0002d	50		 push	 eax
  0002e	ff 75 08	 push	 DWORD PTR ___s$[ebp]
  00031	8b ce		 mov	 ecx, esi
  00033	e8 00 00 00 00	 call	 ??$_M_range_initialize@PBD@?$basic_string@DV?$char_traits@D@_STL@@V?$allocator@D@2@@_STL@@AAEXPBD0ABUforward_iterator_tag@1@@Z ; _STL::basic_string<char,_STL::char_traits<char>,_STL::allocator<char> >::_M_range_initialize<char const *>

; 555  : } 

  00038	8b 4d f4	 mov	 ecx, DWORD PTR __$EHRec$[ebp]
  0003b	8b c6		 mov	 eax, esi
  0003d	5e		 pop	 esi
  0003e	64 89 0d 00 00
	00 00		 mov	 DWORD PTR fs:__except_list, ecx
  00045	c9		 leave
  00046	c2 08 00	 ret	 8
_TEXT	ENDS
;	COMDAT text$x
text$x	SEGMENT
$L102578:
  00000	8b 4d f0	 mov	 ecx, DWORD PTR _this$[ebp]
  00003	e9 00 00 00 00	 jmp	 ??1?$_String_base@DV?$allocator@D@_STL@@@_STL@@QAE@XZ ; _STL::_String_base<char,_STL::allocator<char> >::~_String_base<char,_STL::allocator<char> >
__ehhandler$??0?$basic_string@DV?$char_traits@D@_STL@@V?$allocator@D@2@@_STL@@QAE@PBDABV?$allocator@D@1@@Z:
  00008	b8 00 00 00 00	 mov	 eax, OFFSET FLAT:$T102591
  0000d	e9 00 00 00 00	 jmp	 ___CxxFrameHandler
text$x	ENDS
??0?$basic_string@DV?$char_traits@D@_STL@@V?$allocator@D@2@@_STL@@QAE@PBDABV?$allocator@D@1@@Z ENDP ; _STL::basic_string<char,_STL::char_traits<char>,_STL::allocator<char> >::basic_string<char,_STL::char_traits<char>,_STL::allocator<char> >
PUBLIC	??1?$basic_string@DV?$char_traits@D@_STL@@V?$allocator@D@2@@_STL@@QAE@XZ ; _STL::basic_string<char,_STL::char_traits<char>,_STL::allocator<char> >::~basic_string<char,_STL::char_traits<char>,_STL::allocator<char> >
; Function compile flags: /Ogsy
; File c:\stlport-4.6.1\stlport\stl\_string.h
;	COMDAT ??1?$basic_string@DV?$char_traits@D@_STL@@V?$allocator@D@2@@_STL@@QAE@XZ
_TEXT	SEGMENT
??1?$basic_string@DV?$char_traits@D@_STL@@V?$allocator@D@2@@_STL@@QAE@XZ PROC NEAR ; _STL::basic_string<char,_STL::char_traits<char>,_STL::allocator<char> >::~basic_string<char,_STL::char_traits<char>,_STL::allocator<char> >, COMDAT
; _this$ = ecx

; 305  :   ~basic_string() { _STLP_STD::_Destroy(this->_M_start, this->_M_finish + 1); }

  00000	e9 00 00 00 00	 jmp	 ?_M_deallocate_block@?$_String_base@DV?$allocator@D@_STL@@@_STL@@QAEXXZ ; _STL::_String_base<char,_STL::allocator<char> >::_M_deallocate_block
??1?$basic_string@DV?$char_traits@D@_STL@@V?$allocator@D@2@@_STL@@QAE@XZ ENDP ; _STL::basic_string<char,_STL::char_traits<char>,_STL::allocator<char> >::~basic_string<char,_STL::char_traits<char>,_STL::allocator<char> >
_TEXT	ENDS
PUBLIC	??_C@_09EMOGKKPB@BASIC_STR?$AA@			; `string'
PUBLIC	??_C@_0M@EJOONLND@CURRENT_STR?$AA@		; `string'
PUBLIC	??_C@_07KKCHECBB@MAX_STR?$AA@			; `string'
PUBLIC	??_C@_0P@CEHLLGLK@STR_EXP_REMAIN?$AA@		; `string'
PUBLIC	??_C@_09GGCDOEBK@BASIC_DEX?$AA@			; `string'
PUBLIC	??_C@_0M@GDCLJFDI@CURRENT_DEX?$AA@		; `string'
PUBLIC	??_C@_07IAOCAMPK@MAX_DEX?$AA@			; `string'
PUBLIC	??_C@_0P@DKPKJNND@DEX_EXP_REMAIN?$AA@		; `string'
PUBLIC	??_C@_09DEKJJMCK@BASIC_INT?$AA@			; `string'
PUBLIC	??_C@_0M@DBKBONAI@CURRENT_INT?$AA@		; `string'
PUBLIC	??_C@_07NCGIHEMK@MAX_INT?$AA@			; `string'
PUBLIC	??_C@_0P@BDHGGNMJ@INT_EXP_REMAIN?$AA@		; `string'
PUBLIC	??_C@_0L@HGOGCHKL@CURRENT_HP?$AA@		; `string'
PUBLIC	??_C@_06NMHEPHCD@MAX_HP?$AA@			; `string'
PUBLIC	??_C@_0L@HACNOFEA@CURRENT_MP?$AA@		; `string'
PUBLIC	??_C@_06NKLPDFMI@MAX_MP?$AA@			; `string'
PUBLIC	??_C@_0L@HOANAEGI@MIN_DAMAGE?$AA@		; `string'
PUBLIC	??_C@_0L@LCAAHPGH@MAX_DAMAGE?$AA@		; `string'
PUBLIC	??_C@_07PABEIMLA@DEFENSE?$AA@			; `string'
PUBLIC	??_C@_0L@CACMAAHO@PROTECTION?$AA@		; `string'
PUBLIC	??_C@_05PMLNIFOI@TOHIT?$AA@			; `string'
PUBLIC	??_C@_06IGFCKNHC@VISION?$AA@			; `string'
PUBLIC	??_C@_04DIIKDPIA@FAME?$AA@			; `string'
PUBLIC	??_C@_04PNOMDKHF@GOLD?$AA@			; `string'
PUBLIC	??_C@_0BD@KMGAIODB@SWORD_DOMAIN_LEVEL?$AA@	; `string'
PUBLIC	??_C@_0BI@BGNAADGH@SWORD_DOMAIN_EXP_REMAIN?$AA@	; `string'
PUBLIC	??_C@_0BG@IGGENAK@SWORD_DOMAIN_GOAL_EXP?$AA@	; `string'
PUBLIC	??_C@_0BD@PGNNGOBB@BLADE_DOMAIN_LEVEL?$AA@	; `string'
PUBLIC	??_C@_0BI@IMLMLFMG@BLADE_DOMAIN_EXP_REMAIN?$AA@	; `string'
PUBLIC	??_C@_0BG@NLIFDHGN@BLADE_DOMAIN_GOAL_EXP?$AA@	; `string'
PUBLIC	??_C@_0BC@GPJLIFK@HEAL_DOMAIN_LEVEL?$AA@	; `string'
PUBLIC	??_C@_0BH@ILFIDFFK@HEAL_DOMAIN_EXP_REMAIN?$AA@	; `string'
PUBLIC	??_C@_0BF@EMCLNDPE@HEAL_DOMAIN_GOAL_EXP?$AA@	; `string'
PUBLIC	??_C@_0BF@ONHDOKIF@ENCHANT_DOMAIN_LEVEL?$AA@	; `string'
PUBLIC	??_C@_0BK@LANBKOIK@ENCHANT_DOMAIN_EXP_REMAIN?$AA@ ; `string'
PUBLIC	??_C@_0BI@EPBOPEPK@ENCHANT_DOMAIN_GOAL_EXP?$AA@	; `string'
PUBLIC	??_C@_0BB@ELHNALIJ@GUN_DOMAIN_LEVEL?$AA@	; `string'
PUBLIC	??_C@_0BG@OJCBFDLD@GUN_DOMAIN_EXP_REMAIN?$AA@	; `string'
PUBLIC	??_C@_0BE@OGNJOCJC@GUN_DOMAIN_GOAL_EXP?$AA@	; `string'
PUBLIC	??_C@_0BB@MNCHHIND@ETC_DOMAIN_LEVEL?$AA@	; `string'
PUBLIC	??_C@_0BG@OOPKBPAA@ETC_DOMAIN_EXP_REMAIN?$AA@	; `string'
PUBLIC	??_C@_0BE@IFONLKN@ETC_DOMAIN_GOAL_EXP?$AA@	; `string'
PUBLIC	??_C@_0M@OHHCLPDA@SKILL_LEVEL?$AA@		; `string'
PUBLIC	??_C@_05GCEPFMCO@LEVEL?$AA@			; `string'
PUBLIC	??_C@_0M@MLFPLLC@EFFECT_STAT?$AA@		; `string'
PUBLIC	??_C@_08MJLDLDGF@DURATION?$AA@			; `string'
PUBLIC	??_C@_06JADFICD@BULLET?$AA@			; `string'
PUBLIC	??_C@_0M@DPKCELMF@BONUS_POINT?$AA@		; `string'
PUBLIC	??_C@_0L@JEFHDPIL@DURABILITY?$AA@		; `string'
PUBLIC	??_C@_09EGKBMPFK@NOTORIETY?$AA@			; `string'
PUBLIC	??_C@_0BA@MAIHAHDB@VAMP_EXP_REMAIN?$AA@		; `string'
PUBLIC	??_C@_0O@ENDFFBFD@SILVER_DAMAGE?$AA@		; `string'
PUBLIC	??_C@_0N@KMAAPCII@ATTACK_SPEED?$AA@		; `string'
PUBLIC	??_C@_09HPPNPOEE@ALIGNMENT?$AA@			; `string'
PUBLIC	??_C@_0BC@BNIPJKDA@SILVER_DURABILITY?$AA@	; `string'
PUBLIC	??_C@_0L@HJJLGOIM@REGEN_RATE?$AA@		; `string'
PUBLIC	??_C@_07ICBEDALK@GUILDID?$AA@			; `string'
PUBLIC	??_C@_04DBCPJNBF@RANK?$AA@			; `string'
PUBLIC	??_C@_0BA@DLBJHHBE@RANK_EXP_REMAIN?$AA@		; `string'
PUBLIC	??_C@_0BD@BBMKLBCL@OUSTERS_EXP_REMAIN?$AA@	; `string'
PUBLIC	??_C@_0BC@IMLFGMDG@SKILL_BONUS_POINT?$AA@	; `string'
PUBLIC	??_C@_0P@PEHNMFMM@ELEMENTAL_FIRE?$AA@		; `string'
PUBLIC	??_C@_0BA@MHDKAJKL@ELEMENTAL_WATER?$AA@		; `string'
PUBLIC	??_C@_0BA@BIGMGHL@ELEMENTAL_EARTH?$AA@		; `string'
PUBLIC	??_C@_0P@KFNKBAKL@ELEMENTAL_WIND?$AA@		; `string'
PUBLIC	??_C@_09BBOPOJIN@SKILL_EXP?$AA@			; `string'
PUBLIC	??_C@_06IEBMKFDK@PET_HP?$AA@			; `string'
PUBLIC	??_C@_0P@GOFONOAE@PET_EXP_REMAIN?$AA@		; `string'
PUBLIC	??_C@_0M@KIBGPGKM@LAST_TARGET?$AA@		; `string'
PUBLIC	??_C@_07PBEOFEGM@UNIONID?$AA@			; `string'
PUBLIC	??_C@_0L@COBGECE@UNIONGRADE?$AA@		; `string'
PUBLIC	??_C@_0BI@LHEPMHDM@ADVANCEMENT_CLASS_LEVEL?$AA@	; `string'
PUBLIC	??_C@_0BL@IKNEBHFH@ADVANCEMENT_CLASS_GOAL_EXP?$AA@ ; `string'
PUBLIC	??_C@_0BJ@PIJGHHAP@ATTACK_BLOOD_BURST_POINT?$AA@ ; `string'
PUBLIC	??_C@_0BK@BJJBOCNF@DEFENSE_BLOOD_BURST_POINT?$AA@ ; `string'
PUBLIC	??_C@_0BI@MHOBEFBP@PARTY_BLOOD_BURST_POINT?$AA@	; `string'
PUBLIC	??_C@_0BD@BPOFFKFG@ADVANCED_SLAYERSTR?$AA@	; `string'
PUBLIC	??_C@_0BD@DFCABELN@ADVANCED_SLAYERDEX?$AA@	; `string'
PUBLIC	??_C@_0BD@GHKKGMIN@ADVANCED_SLAYERINT?$AA@	; `string'
PUBLIC	??_C@_0BB@JLMOMJOK@CONTRIBUTE_POINT?$AA@	; `string'
PUBLIC	??_C@_08IKEGEPEJ@DIANJUAN?$AA@			; `string'
PUBLIC	??_C@_03LEPPJAKI@MAX?$AA@			; `string'
EXTRN	_atexit:NEAR
CRT$XCU	SEGMENT
_$S81	DD	FLAT:_$E79
CRT$XCU	ENDS
;	COMDAT xdata$x
; File c:\stlport-4.6.1\stlport\stl\_alloc.h
xdata$x	SEGMENT
$T103282 DD	0ffffffffH
	DD	FLAT:$L102705
	DD	00H
	DD	FLAT:$L102706
	DD	01H
	DD	FLAT:$L102707
	DD	02H
	DD	FLAT:$L102708
	DD	03H
	DD	FLAT:$L102709
	DD	04H
	DD	FLAT:$L102710
	DD	05H
	DD	FLAT:$L102711
	DD	06H
	DD	FLAT:$L102712
	DD	07H
	DD	FLAT:$L102713
	DD	08H
	DD	FLAT:$L102714
	DD	09H
	DD	FLAT:$L102715
	DD	0aH
	DD	FLAT:$L102716
	DD	0bH
	DD	FLAT:$L102717
	DD	0cH
	DD	FLAT:$L102718
	DD	0dH
	DD	FLAT:$L102719
	DD	0eH
	DD	FLAT:$L102720
	DD	0fH
	DD	FLAT:$L102721
	DD	010H
	DD	FLAT:$L102722
	DD	011H
	DD	FLAT:$L102723
	DD	012H
	DD	FLAT:$L102724
	DD	013H
	DD	FLAT:$L102725
	DD	014H
	DD	FLAT:$L102726
	DD	015H
	DD	FLAT:$L102727
	DD	016H
	DD	FLAT:$L102728
	DD	017H
	DD	FLAT:$L102729
	DD	018H
	DD	FLAT:$L102730
	DD	019H
	DD	FLAT:$L102731
	DD	01aH
	DD	FLAT:$L102732
	DD	01bH
	DD	FLAT:$L102733
	DD	01cH
	DD	FLAT:$L102734
	DD	01dH
	DD	FLAT:$L102735
	DD	01eH
	DD	FLAT:$L102736
	DD	01fH
	DD	FLAT:$L102737
	DD	020H
	DD	FLAT:$L102738
	DD	021H
	DD	FLAT:$L102739
	DD	022H
	DD	FLAT:$L102740
	DD	023H
	DD	FLAT:$L102741
	DD	024H
	DD	FLAT:$L102742
	DD	025H
	DD	FLAT:$L102743
	DD	026H
	DD	FLAT:$L102744
	DD	027H
	DD	FLAT:$L102745
	DD	028H
	DD	FLAT:$L102746
	DD	029H
	DD	FLAT:$L102747
	DD	02aH
	DD	FLAT:$L102748
	DD	02bH
	DD	FLAT:$L102749
	DD	02cH
	DD	FLAT:$L102750
	DD	02dH
	DD	FLAT:$L102751
	DD	02eH
	DD	FLAT:$L102752
	DD	02fH
	DD	FLAT:$L102753
	DD	030H
	DD	FLAT:$L102754
	DD	031H
	DD	FLAT:$L102755
	DD	032H
	DD	FLAT:$L102756
	DD	033H
	DD	FLAT:$L102757
	DD	034H
	DD	FLAT:$L102758
	DD	035H
	DD	FLAT:$L102759
	DD	036H
	DD	FLAT:$L102760
	DD	037H
	DD	FLAT:$L102761
	DD	038H
	DD	FLAT:$L102762
	DD	039H
	DD	FLAT:$L102763
	DD	03aH
	DD	FLAT:$L102764
	DD	03bH
	DD	FLAT:$L102765
	DD	03cH
	DD	FLAT:$L102766
	DD	03dH
	DD	FLAT:$L102767
	DD	03eH
	DD	FLAT:$L102768
	DD	03fH
	DD	FLAT:$L102769
	DD	040H
	DD	FLAT:$L102770
	DD	041H
	DD	FLAT:$L102771
	DD	042H
	DD	FLAT:$L102772
	DD	043H
	DD	FLAT:$L102773
	DD	044H
	DD	FLAT:$L102774
	DD	045H
	DD	FLAT:$L102775
	DD	046H
	DD	FLAT:$L102776
	DD	047H
	DD	FLAT:$L102777
	DD	048H
	DD	FLAT:$L102778
	DD	049H
	DD	FLAT:$L102779
	DD	04aH
	DD	FLAT:$L102780
	DD	04bH
	DD	FLAT:$L102781
	DD	04cH
	DD	FLAT:$L102782
	DD	04dH
	DD	FLAT:$L102783
	DD	04eH
	DD	FLAT:$L102784
	DD	04fH
	DD	FLAT:$L102785
$T103280 DD	019930520H
	DD	051H
	DD	FLAT:$T103282
	DD	2 DUP(00H)
	DD	2 DUP(00H)
xdata$x	ENDS
;	COMDAT ??_C@_09EMOGKKPB@BASIC_STR?$AA@
CONST	SEGMENT
??_C@_09EMOGKKPB@BASIC_STR?$AA@ DB 'BASIC_STR', 00H	; `string'
CONST	ENDS
;	COMDAT ??_C@_0M@EJOONLND@CURRENT_STR?$AA@
CONST	SEGMENT
??_C@_0M@EJOONLND@CURRENT_STR?$AA@ DB 'CURRENT_STR', 00H ; `string'
CONST	ENDS
;	COMDAT ??_C@_07KKCHECBB@MAX_STR?$AA@
CONST	SEGMENT
??_C@_07KKCHECBB@MAX_STR?$AA@ DB 'MAX_STR', 00H		; `string'
CONST	ENDS
;	COMDAT ??_C@_0P@CEHLLGLK@STR_EXP_REMAIN?$AA@
CONST	SEGMENT
??_C@_0P@CEHLLGLK@STR_EXP_REMAIN?$AA@ DB 'STR_EXP_REMAIN', 00H ; `string'
CONST	ENDS
;	COMDAT ??_C@_09GGCDOEBK@BASIC_DEX?$AA@
CONST	SEGMENT
??_C@_09GGCDOEBK@BASIC_DEX?$AA@ DB 'BASIC_DEX', 00H	; `string'
CONST	ENDS
;	COMDAT ??_C@_0M@GDCLJFDI@CURRENT_DEX?$AA@
CONST	SEGMENT
??_C@_0M@GDCLJFDI@CURRENT_DEX?$AA@ DB 'CURRENT_DEX', 00H ; `string'
CONST	ENDS
;	COMDAT ??_C@_07IAOCAMPK@MAX_DEX?$AA@
CONST	SEGMENT
??_C@_07IAOCAMPK@MAX_DEX?$AA@ DB 'MAX_DEX', 00H		; `string'
CONST	ENDS
;	COMDAT ??_C@_0P@DKPKJNND@DEX_EXP_REMAIN?$AA@
CONST	SEGMENT
??_C@_0P@DKPKJNND@DEX_EXP_REMAIN?$AA@ DB 'DEX_EXP_REMAIN', 00H ; `string'
CONST	ENDS
;	COMDAT ??_C@_09DEKJJMCK@BASIC_INT?$AA@
CONST	SEGMENT
??_C@_09DEKJJMCK@BASIC_INT?$AA@ DB 'BASIC_INT', 00H	; `string'
CONST	ENDS
;	COMDAT ??_C@_0M@DBKBONAI@CURRENT_INT?$AA@
CONST	SEGMENT
??_C@_0M@DBKBONAI@CURRENT_INT?$AA@ DB 'CURRENT_INT', 00H ; `string'
CONST	ENDS
;	COMDAT ??_C@_07NCGIHEMK@MAX_INT?$AA@
CONST	SEGMENT
??_C@_07NCGIHEMK@MAX_INT?$AA@ DB 'MAX_INT', 00H		; `string'
CONST	ENDS
;	COMDAT ??_C@_0P@BDHGGNMJ@INT_EXP_REMAIN?$AA@
CONST	SEGMENT
??_C@_0P@BDHGGNMJ@INT_EXP_REMAIN?$AA@ DB 'INT_EXP_REMAIN', 00H ; `string'
CONST	ENDS
;	COMDAT ??_C@_0L@HGOGCHKL@CURRENT_HP?$AA@
CONST	SEGMENT
??_C@_0L@HGOGCHKL@CURRENT_HP?$AA@ DB 'CURRENT_HP', 00H	; `string'
CONST	ENDS
;	COMDAT ??_C@_06NMHEPHCD@MAX_HP?$AA@
CONST	SEGMENT
??_C@_06NMHEPHCD@MAX_HP?$AA@ DB 'MAX_HP', 00H		; `string'
CONST	ENDS
;	COMDAT ??_C@_0L@HACNOFEA@CURRENT_MP?$AA@
CONST	SEGMENT
??_C@_0L@HACNOFEA@CURRENT_MP?$AA@ DB 'CURRENT_MP', 00H	; `string'
CONST	ENDS
;	COMDAT ??_C@_06NKLPDFMI@MAX_MP?$AA@
CONST	SEGMENT
??_C@_06NKLPDFMI@MAX_MP?$AA@ DB 'MAX_MP', 00H		; `string'
CONST	ENDS
;	COMDAT ??_C@_0L@HOANAEGI@MIN_DAMAGE?$AA@
CONST	SEGMENT
??_C@_0L@HOANAEGI@MIN_DAMAGE?$AA@ DB 'MIN_DAMAGE', 00H	; `string'
CONST	ENDS
;	COMDAT ??_C@_0L@LCAAHPGH@MAX_DAMAGE?$AA@
CONST	SEGMENT
??_C@_0L@LCAAHPGH@MAX_DAMAGE?$AA@ DB 'MAX_DAMAGE', 00H	; `string'
CONST	ENDS
;	COMDAT ??_C@_07PABEIMLA@DEFENSE?$AA@
CONST	SEGMENT
??_C@_07PABEIMLA@DEFENSE?$AA@ DB 'DEFENSE', 00H		; `string'
CONST	ENDS
;	COMDAT ??_C@_0L@CACMAAHO@PROTECTION?$AA@
CONST	SEGMENT
??_C@_0L@CACMAAHO@PROTECTION?$AA@ DB 'PROTECTION', 00H	; `string'
CONST	ENDS
;	COMDAT ??_C@_05PMLNIFOI@TOHIT?$AA@
CONST	SEGMENT
??_C@_05PMLNIFOI@TOHIT?$AA@ DB 'TOHIT', 00H		; `string'
CONST	ENDS
;	COMDAT ??_C@_06IGFCKNHC@VISION?$AA@
CONST	SEGMENT
??_C@_06IGFCKNHC@VISION?$AA@ DB 'VISION', 00H		; `string'
CONST	ENDS
;	COMDAT ??_C@_04DIIKDPIA@FAME?$AA@
CONST	SEGMENT
??_C@_04DIIKDPIA@FAME?$AA@ DB 'FAME', 00H		; `string'
CONST	ENDS
;	COMDAT ??_C@_04PNOMDKHF@GOLD?$AA@
CONST	SEGMENT
??_C@_04PNOMDKHF@GOLD?$AA@ DB 'GOLD', 00H		; `string'
CONST	ENDS
;	COMDAT ??_C@_0BD@KMGAIODB@SWORD_DOMAIN_LEVEL?$AA@
CONST	SEGMENT
??_C@_0BD@KMGAIODB@SWORD_DOMAIN_LEVEL?$AA@ DB 'SWORD_DOMAIN_LEVEL', 00H ; `string'
CONST	ENDS
;	COMDAT ??_C@_0BI@BGNAADGH@SWORD_DOMAIN_EXP_REMAIN?$AA@
CONST	SEGMENT
??_C@_0BI@BGNAADGH@SWORD_DOMAIN_EXP_REMAIN?$AA@ DB 'SWORD_DOMAIN_EXP_REMA'
	DB	'IN', 00H					; `string'
CONST	ENDS
;	COMDAT ??_C@_0BG@IGGENAK@SWORD_DOMAIN_GOAL_EXP?$AA@
CONST	SEGMENT
??_C@_0BG@IGGENAK@SWORD_DOMAIN_GOAL_EXP?$AA@ DB 'SWORD_DOMAIN_GOAL_EXP', 00H ; `string'
CONST	ENDS
;	COMDAT ??_C@_0BD@PGNNGOBB@BLADE_DOMAIN_LEVEL?$AA@
CONST	SEGMENT
??_C@_0BD@PGNNGOBB@BLADE_DOMAIN_LEVEL?$AA@ DB 'BLADE_DOMAIN_LEVEL', 00H ; `string'
CONST	ENDS
;	COMDAT ??_C@_0BI@IMLMLFMG@BLADE_DOMAIN_EXP_REMAIN?$AA@
CONST	SEGMENT
??_C@_0BI@IMLMLFMG@BLADE_DOMAIN_EXP_REMAIN?$AA@ DB 'BLADE_DOMAIN_EXP_REMA'
	DB	'IN', 00H					; `string'
CONST	ENDS
;	COMDAT ??_C@_0BG@NLIFDHGN@BLADE_DOMAIN_GOAL_EXP?$AA@
CONST	SEGMENT
??_C@_0BG@NLIFDHGN@BLADE_DOMAIN_GOAL_EXP?$AA@ DB 'BLADE_DOMAIN_GOAL_EXP', 00H ; `string'
CONST	ENDS
;	COMDAT ??_C@_0BC@GPJLIFK@HEAL_DOMAIN_LEVEL?$AA@
CONST	SEGMENT
??_C@_0BC@GPJLIFK@HEAL_DOMAIN_LEVEL?$AA@ DB 'HEAL_DOMAIN_LEVEL', 00H ; `string'
CONST	ENDS
;	COMDAT ??_C@_0BH@ILFIDFFK@HEAL_DOMAIN_EXP_REMAIN?$AA@
CONST	SEGMENT
??_C@_0BH@ILFIDFFK@HEAL_DOMAIN_EXP_REMAIN?$AA@ DB 'HEAL_DOMAIN_EXP_REMAIN'
	DB	00H						; `string'
CONST	ENDS
;	COMDAT ??_C@_0BF@EMCLNDPE@HEAL_DOMAIN_GOAL_EXP?$AA@
CONST	SEGMENT
??_C@_0BF@EMCLNDPE@HEAL_DOMAIN_GOAL_EXP?$AA@ DB 'HEAL_DOMAIN_GOAL_EXP', 00H ; `string'
CONST	ENDS
;	COMDAT ??_C@_0BF@ONHDOKIF@ENCHANT_DOMAIN_LEVEL?$AA@
CONST	SEGMENT
??_C@_0BF@ONHDOKIF@ENCHANT_DOMAIN_LEVEL?$AA@ DB 'ENCHANT_DOMAIN_LEVEL', 00H ; `string'
CONST	ENDS
;	COMDAT ??_C@_0BK@LANBKOIK@ENCHANT_DOMAIN_EXP_REMAIN?$AA@
CONST	SEGMENT
??_C@_0BK@LANBKOIK@ENCHANT_DOMAIN_EXP_REMAIN?$AA@ DB 'ENCHANT_DOMAIN_EXP_'
	DB	'REMAIN', 00H				; `string'
CONST	ENDS
;	COMDAT ??_C@_0BI@EPBOPEPK@ENCHANT_DOMAIN_GOAL_EXP?$AA@
CONST	SEGMENT
??_C@_0BI@EPBOPEPK@ENCHANT_DOMAIN_GOAL_EXP?$AA@ DB 'ENCHANT_DOMAIN_GOAL_E'
	DB	'XP', 00H					; `string'
CONST	ENDS
;	COMDAT ??_C@_0BB@ELHNALIJ@GUN_DOMAIN_LEVEL?$AA@
CONST	SEGMENT
??_C@_0BB@ELHNALIJ@GUN_DOMAIN_LEVEL?$AA@ DB 'GUN_DOMAIN_LEVEL', 00H ; `string'
CONST	ENDS
;	COMDAT ??_C@_0BG@OJCBFDLD@GUN_DOMAIN_EXP_REMAIN?$AA@
CONST	SEGMENT
??_C@_0BG@OJCBFDLD@GUN_DOMAIN_EXP_REMAIN?$AA@ DB 'GUN_DOMAIN_EXP_REMAIN', 00H ; `string'
CONST	ENDS
;	COMDAT ??_C@_0BE@OGNJOCJC@GUN_DOMAIN_GOAL_EXP?$AA@
CONST	SEGMENT
??_C@_0BE@OGNJOCJC@GUN_DOMAIN_GOAL_EXP?$AA@ DB 'GUN_DOMAIN_GOAL_EXP', 00H ; `string'
CONST	ENDS
;	COMDAT ??_C@_0BB@MNCHHIND@ETC_DOMAIN_LEVEL?$AA@
CONST	SEGMENT
??_C@_0BB@MNCHHIND@ETC_DOMAIN_LEVEL?$AA@ DB 'ETC_DOMAIN_LEVEL', 00H ; `string'
CONST	ENDS
;	COMDAT ??_C@_0BG@OOPKBPAA@ETC_DOMAIN_EXP_REMAIN?$AA@
CONST	SEGMENT
??_C@_0BG@OOPKBPAA@ETC_DOMAIN_EXP_REMAIN?$AA@ DB 'ETC_DOMAIN_EXP_REMAIN', 00H ; `string'
CONST	ENDS
;	COMDAT ??_C@_0BE@IFONLKN@ETC_DOMAIN_GOAL_EXP?$AA@
CONST	SEGMENT
??_C@_0BE@IFONLKN@ETC_DOMAIN_GOAL_EXP?$AA@ DB 'ETC_DOMAIN_GOAL_EXP', 00H ; `string'
CONST	ENDS
;	COMDAT ??_C@_0M@OHHCLPDA@SKILL_LEVEL?$AA@
CONST	SEGMENT
??_C@_0M@OHHCLPDA@SKILL_LEVEL?$AA@ DB 'SKILL_LEVEL', 00H ; `string'
CONST	ENDS
;	COMDAT ??_C@_05GCEPFMCO@LEVEL?$AA@
CONST	SEGMENT
??_C@_05GCEPFMCO@LEVEL?$AA@ DB 'LEVEL', 00H		; `string'
CONST	ENDS
;	COMDAT ??_C@_0M@MLFPLLC@EFFECT_STAT?$AA@
CONST	SEGMENT
??_C@_0M@MLFPLLC@EFFECT_STAT?$AA@ DB 'EFFECT_STAT', 00H	; `string'
CONST	ENDS
;	COMDAT ??_C@_08MJLDLDGF@DURATION?$AA@
CONST	SEGMENT
??_C@_08MJLDLDGF@DURATION?$AA@ DB 'DURATION', 00H	; `string'
CONST	ENDS
;	COMDAT ??_C@_06JADFICD@BULLET?$AA@
CONST	SEGMENT
??_C@_06JADFICD@BULLET?$AA@ DB 'BULLET', 00H		; `string'
CONST	ENDS
;	COMDAT ??_C@_0M@DPKCELMF@BONUS_POINT?$AA@
CONST	SEGMENT
??_C@_0M@DPKCELMF@BONUS_POINT?$AA@ DB 'BONUS_POINT', 00H ; `string'
CONST	ENDS
;	COMDAT ??_C@_0L@JEFHDPIL@DURABILITY?$AA@
CONST	SEGMENT
??_C@_0L@JEFHDPIL@DURABILITY?$AA@ DB 'DURABILITY', 00H	; `string'
CONST	ENDS
;	COMDAT ??_C@_09EGKBMPFK@NOTORIETY?$AA@
CONST	SEGMENT
??_C@_09EGKBMPFK@NOTORIETY?$AA@ DB 'NOTORIETY', 00H	; `string'
CONST	ENDS
;	COMDAT ??_C@_0BA@MAIHAHDB@VAMP_EXP_REMAIN?$AA@
CONST	SEGMENT
??_C@_0BA@MAIHAHDB@VAMP_EXP_REMAIN?$AA@ DB 'VAMP_EXP_REMAIN', 00H ; `string'
CONST	ENDS
;	COMDAT ??_C@_0O@ENDFFBFD@SILVER_DAMAGE?$AA@
CONST	SEGMENT
??_C@_0O@ENDFFBFD@SILVER_DAMAGE?$AA@ DB 'SILVER_DAMAGE', 00H ; `string'
CONST	ENDS
;	COMDAT ??_C@_0N@KMAAPCII@ATTACK_SPEED?$AA@
CONST	SEGMENT
??_C@_0N@KMAAPCII@ATTACK_SPEED?$AA@ DB 'ATTACK_SPEED', 00H ; `string'
CONST	ENDS
;	COMDAT ??_C@_09HPPNPOEE@ALIGNMENT?$AA@
CONST	SEGMENT
??_C@_09HPPNPOEE@ALIGNMENT?$AA@ DB 'ALIGNMENT', 00H	; `string'
CONST	ENDS
;	COMDAT ??_C@_0BC@BNIPJKDA@SILVER_DURABILITY?$AA@
CONST	SEGMENT
??_C@_0BC@BNIPJKDA@SILVER_DURABILITY?$AA@ DB 'SILVER_DURABILITY', 00H ; `string'
CONST	ENDS
;	COMDAT ??_C@_0L@HJJLGOIM@REGEN_RATE?$AA@
CONST	SEGMENT
??_C@_0L@HJJLGOIM@REGEN_RATE?$AA@ DB 'REGEN_RATE', 00H	; `string'
CONST	ENDS
;	COMDAT ??_C@_07ICBEDALK@GUILDID?$AA@
CONST	SEGMENT
??_C@_07ICBEDALK@GUILDID?$AA@ DB 'GUILDID', 00H		; `string'
CONST	ENDS
;	COMDAT ??_C@_04DBCPJNBF@RANK?$AA@
CONST	SEGMENT
??_C@_04DBCPJNBF@RANK?$AA@ DB 'RANK', 00H		; `string'
CONST	ENDS
;	COMDAT ??_C@_0BA@DLBJHHBE@RANK_EXP_REMAIN?$AA@
CONST	SEGMENT
??_C@_0BA@DLBJHHBE@RANK_EXP_REMAIN?$AA@ DB 'RANK_EXP_REMAIN', 00H ; `string'
CONST	ENDS
;	COMDAT ??_C@_0BD@BBMKLBCL@OUSTERS_EXP_REMAIN?$AA@
CONST	SEGMENT
??_C@_0BD@BBMKLBCL@OUSTERS_EXP_REMAIN?$AA@ DB 'OUSTERS_EXP_REMAIN', 00H ; `string'
CONST	ENDS
;	COMDAT ??_C@_0BC@IMLFGMDG@SKILL_BONUS_POINT?$AA@
CONST	SEGMENT
??_C@_0BC@IMLFGMDG@SKILL_BONUS_POINT?$AA@ DB 'SKILL_BONUS_POINT', 00H ; `string'
CONST	ENDS
;	COMDAT ??_C@_0P@PEHNMFMM@ELEMENTAL_FIRE?$AA@
CONST	SEGMENT
??_C@_0P@PEHNMFMM@ELEMENTAL_FIRE?$AA@ DB 'ELEMENTAL_FIRE', 00H ; `string'
CONST	ENDS
;	COMDAT ??_C@_0BA@MHDKAJKL@ELEMENTAL_WATER?$AA@
CONST	SEGMENT
??_C@_0BA@MHDKAJKL@ELEMENTAL_WATER?$AA@ DB 'ELEMENTAL_WATER', 00H ; `string'
CONST	ENDS
;	COMDAT ??_C@_0BA@BIGMGHL@ELEMENTAL_EARTH?$AA@
CONST	SEGMENT
??_C@_0BA@BIGMGHL@ELEMENTAL_EARTH?$AA@ DB 'ELEMENTAL_EARTH', 00H ; `string'
CONST	ENDS
;	COMDAT ??_C@_0P@KFNKBAKL@ELEMENTAL_WIND?$AA@
CONST	SEGMENT
??_C@_0P@KFNKBAKL@ELEMENTAL_WIND?$AA@ DB 'ELEMENTAL_WIND', 00H ; `string'
CONST	ENDS
;	COMDAT ??_C@_09BBOPOJIN@SKILL_EXP?$AA@
CONST	SEGMENT
??_C@_09BBOPOJIN@SKILL_EXP?$AA@ DB 'SKILL_EXP', 00H	; `string'
CONST	ENDS
;	COMDAT ??_C@_06IEBMKFDK@PET_HP?$AA@
CONST	SEGMENT
??_C@_06IEBMKFDK@PET_HP?$AA@ DB 'PET_HP', 00H		; `string'
CONST	ENDS
;	COMDAT ??_C@_0P@GOFONOAE@PET_EXP_REMAIN?$AA@
CONST	SEGMENT
??_C@_0P@GOFONOAE@PET_EXP_REMAIN?$AA@ DB 'PET_EXP_REMAIN', 00H ; `string'
CONST	ENDS
;	COMDAT ??_C@_0M@KIBGPGKM@LAST_TARGET?$AA@
CONST	SEGMENT
??_C@_0M@KIBGPGKM@LAST_TARGET?$AA@ DB 'LAST_TARGET', 00H ; `string'
CONST	ENDS
;	COMDAT ??_C@_07PBEOFEGM@UNIONID?$AA@
CONST	SEGMENT
??_C@_07PBEOFEGM@UNIONID?$AA@ DB 'UNIONID', 00H		; `string'
CONST	ENDS
;	COMDAT ??_C@_0L@COBGECE@UNIONGRADE?$AA@
CONST	SEGMENT
??_C@_0L@COBGECE@UNIONGRADE?$AA@ DB 'UNIONGRADE', 00H	; `string'
CONST	ENDS
;	COMDAT ??_C@_0BI@LHEPMHDM@ADVANCEMENT_CLASS_LEVEL?$AA@
CONST	SEGMENT
??_C@_0BI@LHEPMHDM@ADVANCEMENT_CLASS_LEVEL?$AA@ DB 'ADVANCEMENT_CLASS_LEV'
	DB	'EL', 00H					; `string'
CONST	ENDS
;	COMDAT ??_C@_0BL@IKNEBHFH@ADVANCEMENT_CLASS_GOAL_EXP?$AA@
CONST	SEGMENT
??_C@_0BL@IKNEBHFH@ADVANCEMENT_CLASS_GOAL_EXP?$AA@ DB 'ADVANCEMENT_CLASS_'
	DB	'GOAL_EXP', 00H				; `string'
CONST	ENDS
;	COMDAT ??_C@_0BJ@PIJGHHAP@ATTACK_BLOOD_BURST_POINT?$AA@
CONST	SEGMENT
??_C@_0BJ@PIJGHHAP@ATTACK_BLOOD_BURST_POINT?$AA@ DB 'ATTACK_BLOOD_BURST_P'
	DB	'OINT', 00H					; `string'
CONST	ENDS
;	COMDAT ??_C@_0BK@BJJBOCNF@DEFENSE_BLOOD_BURST_POINT?$AA@
CONST	SEGMENT
??_C@_0BK@BJJBOCNF@DEFENSE_BLOOD_BURST_POINT?$AA@ DB 'DEFENSE_BLOOD_BURST'
	DB	'_POINT', 00H				; `string'
CONST	ENDS
;	COMDAT ??_C@_0BI@MHOBEFBP@PARTY_BLOOD_BURST_POINT?$AA@
CONST	SEGMENT
??_C@_0BI@MHOBEFBP@PARTY_BLOOD_BURST_POINT?$AA@ DB 'PARTY_BLOOD_BURST_POI'
	DB	'NT', 00H					; `string'
CONST	ENDS
;	COMDAT ??_C@_0BD@BPOFFKFG@ADVANCED_SLAYERSTR?$AA@
CONST	SEGMENT
??_C@_0BD@BPOFFKFG@ADVANCED_SLAYERSTR?$AA@ DB 'ADVANCED_SLAYERSTR', 00H ; `string'
CONST	ENDS
;	COMDAT ??_C@_0BD@DFCABELN@ADVANCED_SLAYERDEX?$AA@
CONST	SEGMENT
??_C@_0BD@DFCABELN@ADVANCED_SLAYERDEX?$AA@ DB 'ADVANCED_SLAYERDEX', 00H ; `string'
CONST	ENDS
;	COMDAT ??_C@_0BD@GHKKGMIN@ADVANCED_SLAYERINT?$AA@
CONST	SEGMENT
??_C@_0BD@GHKKGMIN@ADVANCED_SLAYERINT?$AA@ DB 'ADVANCED_SLAYERINT', 00H ; `string'
CONST	ENDS
;	COMDAT ??_C@_0BB@JLMOMJOK@CONTRIBUTE_POINT?$AA@
CONST	SEGMENT
??_C@_0BB@JLMOMJOK@CONTRIBUTE_POINT?$AA@ DB 'CONTRIBUTE_POINT', 00H ; `string'
CONST	ENDS
;	COMDAT ??_C@_08IKEGEPEJ@DIANJUAN?$AA@
CONST	SEGMENT
??_C@_08IKEGEPEJ@DIANJUAN?$AA@ DB 'DIANJUAN', 00H	; `string'
CONST	ENDS
;	COMDAT ??_C@_03LEPPJAKI@MAX?$AA@
CONST	SEGMENT
??_C@_03LEPPJAKI@MAX?$AA@ DB 'MAX', 00H			; `string'
; Function compile flags: /Ogsy
; File c:\darkeden\designed_common\project\client\packet\modifyinfo.h
CONST	ENDS
;	COMDAT _$E79
text$yc	SEGMENT
$T102704 = -13						; size = 1
$T102703 = -13						; size = 1
$T102702 = -13						; size = 1
$T102701 = -13						; size = 1
$T102700 = -13						; size = 1
$T102699 = -13						; size = 1
$T102698 = -13						; size = 1
$T102697 = -13						; size = 1
$T102696 = -13						; size = 1
$T102695 = -13						; size = 1
$T102694 = -13						; size = 1
$T102693 = -13						; size = 1
$T102692 = -13						; size = 1
$T102691 = -13						; size = 1
$T102690 = -13						; size = 1
$T102689 = -13						; size = 1
$T102688 = -13						; size = 1
$T102687 = -13						; size = 1
$T102686 = -13						; size = 1
$T102685 = -13						; size = 1
$T102684 = -13						; size = 1
$T102683 = -13						; size = 1
$T102682 = -13						; size = 1
$T102681 = -13						; size = 1
$T102680 = -13						; size = 1
$T102679 = -13						; size = 1
$T102678 = -13						; size = 1
$T102677 = -13						; size = 1
$T102676 = -13						; size = 1
$T102675 = -13						; size = 1
$T102674 = -13						; size = 1
$T102673 = -13						; size = 1
$T102672 = -13						; size = 1
$T102671 = -13						; size = 1
$T102670 = -13						; size = 1
$T102669 = -13						; size = 1
$T102668 = -13						; size = 1
$T102667 = -13						; size = 1
$T102666 = -13						; size = 1
$T102665 = -13						; size = 1
$T102664 = -13						; size = 1
$T102663 = -13						; size = 1
$T102662 = -13						; size = 1
$T102661 = -13						; size = 1
$T102660 = -13						; size = 1
$T102659 = -13						; size = 1
$T102658 = -13						; size = 1
$T102657 = -13						; size = 1
$T102656 = -13						; size = 1
$T102655 = -13						; size = 1
$T102654 = -13						; size = 1
$T102653 = -13						; size = 1
$T102652 = -13						; size = 1
$T102651 = -13						; size = 1
$T102650 = -13						; size = 1
$T102649 = -13						; size = 1
$T102648 = -13						; size = 1
$T102647 = -13						; size = 1
$T102646 = -13						; size = 1
$T102645 = -13						; size = 1
$T102644 = -13						; size = 1
$T102643 = -13						; size = 1
$T102642 = -13						; size = 1
$T102641 = -13						; size = 1
$T102640 = -13						; size = 1
$T102639 = -13						; size = 1
$T102638 = -13						; size = 1
$T102637 = -13						; size = 1
$T102636 = -13						; size = 1
$T102635 = -13						; size = 1
$T102634 = -13						; size = 1
$T102633 = -13						; size = 1
$T102632 = -13						; size = 1
$T102631 = -13						; size = 1
$T102630 = -13						; size = 1
$T102629 = -13						; size = 1
$T102628 = -13						; size = 1
$T102627 = -13						; size = 1
$T102626 = -13						; size = 1
$T102625 = -13						; size = 1
$T102624 = -13						; size = 1
$T102623 = -13						; size = 1
__$EHRec$ = -12						; size = 12
_$E79	PROC NEAR					; COMDAT

; 92   : {

  00000	b8 00 00 00 00	 mov	 eax, __ehhandler$_$E79
  00005	e8 00 00 00 00	 call	 __EH_prolog
  0000a	51		 push	 ecx

; 93   : 	"BASIC_STR",					//  STR 

  0000b	8d 45 f3	 lea	 eax, DWORD PTR $T102623[ebp]
  0000e	50		 push	 eax
  0000f	68 00 00 00 00	 push	 OFFSET FLAT:??_C@_09EMOGKKPB@BASIC_STR?$AA@
  00014	b9 00 00 00 00	 mov	 ecx, OFFSET FLAT:_ModifyType2String
  00019	e8 00 00 00 00	 call	 ??0?$basic_string@DV?$char_traits@D@_STL@@V?$allocator@D@2@@_STL@@QAE@PBDABV?$allocator@D@1@@Z ; _STL::basic_string<char,_STL::char_traits<char>,_STL::allocator<char> >::basic_string<char,_STL::char_traits<char>,_STL::allocator<char> >
  0001e	83 65 fc 00	 and	 DWORD PTR __$EHRec$[ebp+8], 0

; 94   : 	"CURRENT_STR",					//  STR 

  00022	8d 45 f3	 lea	 eax, DWORD PTR $T102624[ebp]
  00025	50		 push	 eax
  00026	68 00 00 00 00	 push	 OFFSET FLAT:??_C@_0M@EJOONLND@CURRENT_STR?$AA@
  0002b	b9 0c 00 00 00	 mov	 ecx, OFFSET FLAT:_ModifyType2String+12
  00030	e8 00 00 00 00	 call	 ??0?$basic_string@DV?$char_traits@D@_STL@@V?$allocator@D@2@@_STL@@QAE@PBDABV?$allocator@D@1@@Z ; _STL::basic_string<char,_STL::char_traits<char>,_STL::allocator<char> >::basic_string<char,_STL::char_traits<char>,_STL::allocator<char> >

; 95   : 	"MAX_STR",						//  STR 

  00035	8d 45 f3	 lea	 eax, DWORD PTR $T102625[ebp]
  00038	50		 push	 eax
  00039	68 00 00 00 00	 push	 OFFSET FLAT:??_C@_07KKCHECBB@MAX_STR?$AA@
  0003e	b9 18 00 00 00	 mov	 ecx, OFFSET FLAT:_ModifyType2String+24
  00043	c6 45 fc 01	 mov	 BYTE PTR __$EHRec$[ebp+8], 1
  00047	e8 00 00 00 00	 call	 ??0?$basic_string@DV?$char_traits@D@_STL@@V?$allocator@D@2@@_STL@@QAE@PBDABV?$allocator@D@1@@Z ; _STL::basic_string<char,_STL::char_traits<char>,_STL::allocator<char> >::basic_string<char,_STL::char_traits<char>,_STL::allocator<char> >

; 96   : 	"STR_EXP_REMAIN",				// STR  

  0004c	8d 45 f3	 lea	 eax, DWORD PTR $T102626[ebp]
  0004f	50		 push	 eax
  00050	68 00 00 00 00	 push	 OFFSET FLAT:??_C@_0P@CEHLLGLK@STR_EXP_REMAIN?$AA@
  00055	b9 24 00 00 00	 mov	 ecx, OFFSET FLAT:_ModifyType2String+36
  0005a	c6 45 fc 02	 mov	 BYTE PTR __$EHRec$[ebp+8], 2
  0005e	e8 00 00 00 00	 call	 ??0?$basic_string@DV?$char_traits@D@_STL@@V?$allocator@D@2@@_STL@@QAE@PBDABV?$allocator@D@1@@Z ; _STL::basic_string<char,_STL::char_traits<char>,_STL::allocator<char> >::basic_string<char,_STL::char_traits<char>,_STL::allocator<char> >

; 97   : 
; 98   : 	"BASIC_DEX",					//  DEX 

  00063	8d 45 f3	 lea	 eax, DWORD PTR $T102627[ebp]
  00066	50		 push	 eax
  00067	68 00 00 00 00	 push	 OFFSET FLAT:??_C@_09GGCDOEBK@BASIC_DEX?$AA@
  0006c	b9 30 00 00 00	 mov	 ecx, OFFSET FLAT:_ModifyType2String+48
  00071	c6 45 fc 03	 mov	 BYTE PTR __$EHRec$[ebp+8], 3
  00075	e8 00 00 00 00	 call	 ??0?$basic_string@DV?$char_traits@D@_STL@@V?$allocator@D@2@@_STL@@QAE@PBDABV?$allocator@D@1@@Z ; _STL::basic_string<char,_STL::char_traits<char>,_STL::allocator<char> >::basic_string<char,_STL::char_traits<char>,_STL::allocator<char> >

; 99   : 	"CURRENT_DEX",					//  DEX 

  0007a	8d 45 f3	 lea	 eax, DWORD PTR $T102628[ebp]
  0007d	50		 push	 eax
  0007e	68 00 00 00 00	 push	 OFFSET FLAT:??_C@_0M@GDCLJFDI@CURRENT_DEX?$AA@
  00083	b9 3c 00 00 00	 mov	 ecx, OFFSET FLAT:_ModifyType2String+60
  00088	c6 45 fc 04	 mov	 BYTE PTR __$EHRec$[ebp+8], 4
  0008c	e8 00 00 00 00	 call	 ??0?$basic_string@DV?$char_traits@D@_STL@@V?$allocator@D@2@@_STL@@QAE@PBDABV?$allocator@D@1@@Z ; _STL::basic_string<char,_STL::char_traits<char>,_STL::allocator<char> >::basic_string<char,_STL::char_traits<char>,_STL::allocator<char> >

; 100  : 	"MAX_DEX",						//  DEX 

  00091	8d 45 f3	 lea	 eax, DWORD PTR $T102629[ebp]
  00094	50		 push	 eax
  00095	68 00 00 00 00	 push	 OFFSET FLAT:??_C@_07IAOCAMPK@MAX_DEX?$AA@
  0009a	b9 48 00 00 00	 mov	 ecx, OFFSET FLAT:_ModifyType2String+72
  0009f	c6 45 fc 05	 mov	 BYTE PTR __$EHRec$[ebp+8], 5
  000a3	e8 00 00 00 00	 call	 ??0?$basic_string@DV?$char_traits@D@_STL@@V?$allocator@D@2@@_STL@@QAE@PBDABV?$allocator@D@1@@Z ; _STL::basic_string<char,_STL::char_traits<char>,_STL::allocator<char> >::basic_string<char,_STL::char_traits<char>,_STL::allocator<char> >

; 101  : 	"DEX_EXP_REMAIN",				// DEX  

  000a8	8d 45 f3	 lea	 eax, DWORD PTR $T102630[ebp]
  000ab	50		 push	 eax
  000ac	68 00 00 00 00	 push	 OFFSET FLAT:??_C@_0P@DKPKJNND@DEX_EXP_REMAIN?$AA@
  000b1	b9 54 00 00 00	 mov	 ecx, OFFSET FLAT:_ModifyType2String+84
  000b6	c6 45 fc 06	 mov	 BYTE PTR __$EHRec$[ebp+8], 6
  000ba	e8 00 00 00 00	 call	 ??0?$basic_string@DV?$char_traits@D@_STL@@V?$allocator@D@2@@_STL@@QAE@PBDABV?$allocator@D@1@@Z ; _STL::basic_string<char,_STL::char_traits<char>,_STL::allocator<char> >::basic_string<char,_STL::char_traits<char>,_STL::allocator<char> >

; 102  : 
; 103  : 	"BASIC_INT",					//  INT 

  000bf	8d 45 f3	 lea	 eax, DWORD PTR $T102631[ebp]
  000c2	50		 push	 eax
  000c3	68 00 00 00 00	 push	 OFFSET FLAT:??_C@_09DEKJJMCK@BASIC_INT?$AA@
  000c8	b9 60 00 00 00	 mov	 ecx, OFFSET FLAT:_ModifyType2String+96
  000cd	c6 45 fc 07	 mov	 BYTE PTR __$EHRec$[ebp+8], 7
  000d1	e8 00 00 00 00	 call	 ??0?$basic_string@DV?$char_traits@D@_STL@@V?$allocator@D@2@@_STL@@QAE@PBDABV?$allocator@D@1@@Z ; _STL::basic_string<char,_STL::char_traits<char>,_STL::allocator<char> >::basic_string<char,_STL::char_traits<char>,_STL::allocator<char> >

; 104  : 	"CURRENT_INT",					//  INT 

  000d6	8d 45 f3	 lea	 eax, DWORD PTR $T102632[ebp]
  000d9	50		 push	 eax
  000da	68 00 00 00 00	 push	 OFFSET FLAT:??_C@_0M@DBKBONAI@CURRENT_INT?$AA@
  000df	b9 6c 00 00 00	 mov	 ecx, OFFSET FLAT:_ModifyType2String+108
  000e4	c6 45 fc 08	 mov	 BYTE PTR __$EHRec$[ebp+8], 8
  000e8	e8 00 00 00 00	 call	 ??0?$basic_string@DV?$char_traits@D@_STL@@V?$allocator@D@2@@_STL@@QAE@PBDABV?$allocator@D@1@@Z ; _STL::basic_string<char,_STL::char_traits<char>,_STL::allocator<char> >::basic_string<char,_STL::char_traits<char>,_STL::allocator<char> >

; 105  : 	"MAX_INT",						//  INT 

  000ed	8d 45 f3	 lea	 eax, DWORD PTR $T102633[ebp]
  000f0	50		 push	 eax
  000f1	68 00 00 00 00	 push	 OFFSET FLAT:??_C@_07NCGIHEMK@MAX_INT?$AA@
  000f6	b9 78 00 00 00	 mov	 ecx, OFFSET FLAT:_ModifyType2String+120
  000fb	c6 45 fc 09	 mov	 BYTE PTR __$EHRec$[ebp+8], 9
  000ff	e8 00 00 00 00	 call	 ??0?$basic_string@DV?$char_traits@D@_STL@@V?$allocator@D@2@@_STL@@QAE@PBDABV?$allocator@D@1@@Z ; _STL::basic_string<char,_STL::char_traits<char>,_STL::allocator<char> >::basic_string<char,_STL::char_traits<char>,_STL::allocator<char> >

; 106  : 	"INT_EXP_REMAIN",				// INT  

  00104	8d 45 f3	 lea	 eax, DWORD PTR $T102634[ebp]
  00107	50		 push	 eax
  00108	c6 45 fc 0a	 mov	 BYTE PTR __$EHRec$[ebp+8], 10 ; 0000000aH
  0010c	68 00 00 00 00	 push	 OFFSET FLAT:??_C@_0P@BDHGGNMJ@INT_EXP_REMAIN?$AA@
  00111	b9 84 00 00 00	 mov	 ecx, OFFSET FLAT:_ModifyType2String+132
  00116	e8 00 00 00 00	 call	 ??0?$basic_string@DV?$char_traits@D@_STL@@V?$allocator@D@2@@_STL@@QAE@PBDABV?$allocator@D@1@@Z ; _STL::basic_string<char,_STL::char_traits<char>,_STL::allocator<char> >::basic_string<char,_STL::char_traits<char>,_STL::allocator<char> >

; 107  : 
; 108  : 	"CURRENT_HP",					//  HP 

  0011b	8d 45 f3	 lea	 eax, DWORD PTR $T102635[ebp]
  0011e	50		 push	 eax
  0011f	68 00 00 00 00	 push	 OFFSET FLAT:??_C@_0L@HGOGCHKL@CURRENT_HP?$AA@
  00124	b9 90 00 00 00	 mov	 ecx, OFFSET FLAT:_ModifyType2String+144
  00129	c6 45 fc 0b	 mov	 BYTE PTR __$EHRec$[ebp+8], 11 ; 0000000bH
  0012d	e8 00 00 00 00	 call	 ??0?$basic_string@DV?$char_traits@D@_STL@@V?$allocator@D@2@@_STL@@QAE@PBDABV?$allocator@D@1@@Z ; _STL::basic_string<char,_STL::char_traits<char>,_STL::allocator<char> >::basic_string<char,_STL::char_traits<char>,_STL::allocator<char> >

; 109  : 	"MAX_HP",						//  HP 

  00132	8d 45 f3	 lea	 eax, DWORD PTR $T102636[ebp]
  00135	50		 push	 eax
  00136	68 00 00 00 00	 push	 OFFSET FLAT:??_C@_06NMHEPHCD@MAX_HP?$AA@
  0013b	b9 9c 00 00 00	 mov	 ecx, OFFSET FLAT:_ModifyType2String+156
  00140	c6 45 fc 0c	 mov	 BYTE PTR __$EHRec$[ebp+8], 12 ; 0000000cH
  00144	e8 00 00 00 00	 call	 ??0?$basic_string@DV?$char_traits@D@_STL@@V?$allocator@D@2@@_STL@@QAE@PBDABV?$allocator@D@1@@Z ; _STL::basic_string<char,_STL::char_traits<char>,_STL::allocator<char> >::basic_string<char,_STL::char_traits<char>,_STL::allocator<char> >

; 110  : 
; 111  : 	"CURRENT_MP",					//  MP 

  00149	8d 45 f3	 lea	 eax, DWORD PTR $T102637[ebp]
  0014c	50		 push	 eax
  0014d	68 00 00 00 00	 push	 OFFSET FLAT:??_C@_0L@HACNOFEA@CURRENT_MP?$AA@
  00152	b9 a8 00 00 00	 mov	 ecx, OFFSET FLAT:_ModifyType2String+168
  00157	c6 45 fc 0d	 mov	 BYTE PTR __$EHRec$[ebp+8], 13 ; 0000000dH
  0015b	e8 00 00 00 00	 call	 ??0?$basic_string@DV?$char_traits@D@_STL@@V?$allocator@D@2@@_STL@@QAE@PBDABV?$allocator@D@1@@Z ; _STL::basic_string<char,_STL::char_traits<char>,_STL::allocator<char> >::basic_string<char,_STL::char_traits<char>,_STL::allocator<char> >

; 112  : 	"MAX_MP",						//  MP 

  00160	8d 45 f3	 lea	 eax, DWORD PTR $T102638[ebp]
  00163	50		 push	 eax
  00164	68 00 00 00 00	 push	 OFFSET FLAT:??_C@_06NKLPDFMI@MAX_MP?$AA@
  00169	b9 b4 00 00 00	 mov	 ecx, OFFSET FLAT:_ModifyType2String+180
  0016e	c6 45 fc 0e	 mov	 BYTE PTR __$EHRec$[ebp+8], 14 ; 0000000eH
  00172	e8 00 00 00 00	 call	 ??0?$basic_string@DV?$char_traits@D@_STL@@V?$allocator@D@2@@_STL@@QAE@PBDABV?$allocator@D@1@@Z ; _STL::basic_string<char,_STL::char_traits<char>,_STL::allocator<char> >::basic_string<char,_STL::char_traits<char>,_STL::allocator<char> >

; 113  : 
; 114  : 	"MIN_DAMAGE",					//   

  00177	8d 45 f3	 lea	 eax, DWORD PTR $T102639[ebp]
  0017a	50		 push	 eax
  0017b	68 00 00 00 00	 push	 OFFSET FLAT:??_C@_0L@HOANAEGI@MIN_DAMAGE?$AA@
  00180	b9 c0 00 00 00	 mov	 ecx, OFFSET FLAT:_ModifyType2String+192
  00185	c6 45 fc 0f	 mov	 BYTE PTR __$EHRec$[ebp+8], 15 ; 0000000fH
  00189	e8 00 00 00 00	 call	 ??0?$basic_string@DV?$char_traits@D@_STL@@V?$allocator@D@2@@_STL@@QAE@PBDABV?$allocator@D@1@@Z ; _STL::basic_string<char,_STL::char_traits<char>,_STL::allocator<char> >::basic_string<char,_STL::char_traits<char>,_STL::allocator<char> >

; 115  : 	"MAX_DAMAGE",					//   

  0018e	8d 45 f3	 lea	 eax, DWORD PTR $T102640[ebp]
  00191	50		 push	 eax
  00192	68 00 00 00 00	 push	 OFFSET FLAT:??_C@_0L@LCAAHPGH@MAX_DAMAGE?$AA@
  00197	b9 cc 00 00 00	 mov	 ecx, OFFSET FLAT:_ModifyType2String+204
  0019c	c6 45 fc 10	 mov	 BYTE PTR __$EHRec$[ebp+8], 16 ; 00000010H
  001a0	e8 00 00 00 00	 call	 ??0?$basic_string@DV?$char_traits@D@_STL@@V?$allocator@D@2@@_STL@@QAE@PBDABV?$allocator@D@1@@Z ; _STL::basic_string<char,_STL::char_traits<char>,_STL::allocator<char> >::basic_string<char,_STL::char_traits<char>,_STL::allocator<char> >

; 116  : 
; 117  : 	"DEFENSE",						//  

  001a5	8d 45 f3	 lea	 eax, DWORD PTR $T102641[ebp]
  001a8	50		 push	 eax
  001a9	68 00 00 00 00	 push	 OFFSET FLAT:??_C@_07PABEIMLA@DEFENSE?$AA@
  001ae	b9 d8 00 00 00	 mov	 ecx, OFFSET FLAT:_ModifyType2String+216
  001b3	c6 45 fc 11	 mov	 BYTE PTR __$EHRec$[ebp+8], 17 ; 00000011H
  001b7	e8 00 00 00 00	 call	 ??0?$basic_string@DV?$char_traits@D@_STL@@V?$allocator@D@2@@_STL@@QAE@PBDABV?$allocator@D@1@@Z ; _STL::basic_string<char,_STL::char_traits<char>,_STL::allocator<char> >::basic_string<char,_STL::char_traits<char>,_STL::allocator<char> >

; 118  : 	"PROTECTION",					//  

  001bc	8d 45 f3	 lea	 eax, DWORD PTR $T102642[ebp]
  001bf	50		 push	 eax
  001c0	68 00 00 00 00	 push	 OFFSET FLAT:??_C@_0L@CACMAAHO@PROTECTION?$AA@
  001c5	b9 e4 00 00 00	 mov	 ecx, OFFSET FLAT:_ModifyType2String+228
  001ca	c6 45 fc 12	 mov	 BYTE PTR __$EHRec$[ebp+8], 18 ; 00000012H
  001ce	e8 00 00 00 00	 call	 ??0?$basic_string@DV?$char_traits@D@_STL@@V?$allocator@D@2@@_STL@@QAE@PBDABV?$allocator@D@1@@Z ; _STL::basic_string<char,_STL::char_traits<char>,_STL::allocator<char> >::basic_string<char,_STL::char_traits<char>,_STL::allocator<char> >

; 119  : 	"TOHIT",						//  

  001d3	8d 45 f3	 lea	 eax, DWORD PTR $T102643[ebp]
  001d6	50		 push	 eax
  001d7	68 00 00 00 00	 push	 OFFSET FLAT:??_C@_05PMLNIFOI@TOHIT?$AA@
  001dc	b9 f0 00 00 00	 mov	 ecx, OFFSET FLAT:_ModifyType2String+240
  001e1	c6 45 fc 13	 mov	 BYTE PTR __$EHRec$[ebp+8], 19 ; 00000013H
  001e5	e8 00 00 00 00	 call	 ??0?$basic_string@DV?$char_traits@D@_STL@@V?$allocator@D@2@@_STL@@QAE@PBDABV?$allocator@D@1@@Z ; _STL::basic_string<char,_STL::char_traits<char>,_STL::allocator<char> >::basic_string<char,_STL::char_traits<char>,_STL::allocator<char> >

; 120  : 
; 121  : 	"VISION",						//  

  001ea	8d 45 f3	 lea	 eax, DWORD PTR $T102644[ebp]
  001ed	50		 push	 eax
  001ee	68 00 00 00 00	 push	 OFFSET FLAT:??_C@_06IGFCKNHC@VISION?$AA@
  001f3	b9 fc 00 00 00	 mov	 ecx, OFFSET FLAT:_ModifyType2String+252
  001f8	c6 45 fc 14	 mov	 BYTE PTR __$EHRec$[ebp+8], 20 ; 00000014H
  001fc	e8 00 00 00 00	 call	 ??0?$basic_string@DV?$char_traits@D@_STL@@V?$allocator@D@2@@_STL@@QAE@PBDABV?$allocator@D@1@@Z ; _STL::basic_string<char,_STL::char_traits<char>,_STL::allocator<char> >::basic_string<char,_STL::char_traits<char>,_STL::allocator<char> >

; 122  : 	"FAME",							//  

  00201	8d 45 f3	 lea	 eax, DWORD PTR $T102645[ebp]
  00204	50		 push	 eax
  00205	68 00 00 00 00	 push	 OFFSET FLAT:??_C@_04DIIKDPIA@FAME?$AA@
  0020a	b9 08 01 00 00	 mov	 ecx, OFFSET FLAT:_ModifyType2String+264
  0020f	c6 45 fc 15	 mov	 BYTE PTR __$EHRec$[ebp+8], 21 ; 00000015H
  00213	e8 00 00 00 00	 call	 ??0?$basic_string@DV?$char_traits@D@_STL@@V?$allocator@D@2@@_STL@@QAE@PBDABV?$allocator@D@1@@Z ; _STL::basic_string<char,_STL::char_traits<char>,_STL::allocator<char> >::basic_string<char,_STL::char_traits<char>,_STL::allocator<char> >
  00218	c6 45 fc 16	 mov	 BYTE PTR __$EHRec$[ebp+8], 22 ; 00000016H

; 123  : 	"GOLD",							//  

  0021c	8d 45 f3	 lea	 eax, DWORD PTR $T102646[ebp]
  0021f	50		 push	 eax
  00220	68 00 00 00 00	 push	 OFFSET FLAT:??_C@_04PNOMDKHF@GOLD?$AA@
  00225	b9 14 01 00 00	 mov	 ecx, OFFSET FLAT:_ModifyType2String+276
  0022a	e8 00 00 00 00	 call	 ??0?$basic_string@DV?$char_traits@D@_STL@@V?$allocator@D@2@@_STL@@QAE@PBDABV?$allocator@D@1@@Z ; _STL::basic_string<char,_STL::char_traits<char>,_STL::allocator<char> >::basic_string<char,_STL::char_traits<char>,_STL::allocator<char> >

; 124  : 
; 125  : 	"SWORD_DOMAIN_LEVEL",			//    

  0022f	8d 45 f3	 lea	 eax, DWORD PTR $T102647[ebp]
  00232	50		 push	 eax
  00233	68 00 00 00 00	 push	 OFFSET FLAT:??_C@_0BD@KMGAIODB@SWORD_DOMAIN_LEVEL?$AA@
  00238	b9 20 01 00 00	 mov	 ecx, OFFSET FLAT:_ModifyType2String+288
  0023d	c6 45 fc 17	 mov	 BYTE PTR __$EHRec$[ebp+8], 23 ; 00000017H
  00241	e8 00 00 00 00	 call	 ??0?$basic_string@DV?$char_traits@D@_STL@@V?$allocator@D@2@@_STL@@QAE@PBDABV?$allocator@D@1@@Z ; _STL::basic_string<char,_STL::char_traits<char>,_STL::allocator<char> >::basic_string<char,_STL::char_traits<char>,_STL::allocator<char> >

; 126  : 	"SWORD_DOMAIN_EXP_REMAIN",		//    

  00246	8d 45 f3	 lea	 eax, DWORD PTR $T102648[ebp]
  00249	50		 push	 eax
  0024a	68 00 00 00 00	 push	 OFFSET FLAT:??_C@_0BI@BGNAADGH@SWORD_DOMAIN_EXP_REMAIN?$AA@
  0024f	b9 2c 01 00 00	 mov	 ecx, OFFSET FLAT:_ModifyType2String+300
  00254	c6 45 fc 18	 mov	 BYTE PTR __$EHRec$[ebp+8], 24 ; 00000018H
  00258	e8 00 00 00 00	 call	 ??0?$basic_string@DV?$char_traits@D@_STL@@V?$allocator@D@2@@_STL@@QAE@PBDABV?$allocator@D@1@@Z ; _STL::basic_string<char,_STL::char_traits<char>,_STL::allocator<char> >::basic_string<char,_STL::char_traits<char>,_STL::allocator<char> >

; 127  : 	"SWORD_DOMAIN_GOAL_EXP",		//    

  0025d	8d 45 f3	 lea	 eax, DWORD PTR $T102649[ebp]
  00260	50		 push	 eax
  00261	68 00 00 00 00	 push	 OFFSET FLAT:??_C@_0BG@IGGENAK@SWORD_DOMAIN_GOAL_EXP?$AA@
  00266	b9 38 01 00 00	 mov	 ecx, OFFSET FLAT:_ModifyType2String+312
  0026b	c6 45 fc 19	 mov	 BYTE PTR __$EHRec$[ebp+8], 25 ; 00000019H
  0026f	e8 00 00 00 00	 call	 ??0?$basic_string@DV?$char_traits@D@_STL@@V?$allocator@D@2@@_STL@@QAE@PBDABV?$allocator@D@1@@Z ; _STL::basic_string<char,_STL::char_traits<char>,_STL::allocator<char> >::basic_string<char,_STL::char_traits<char>,_STL::allocator<char> >

; 128  : 	"BLADE_DOMAIN_LEVEL",			//    

  00274	8d 45 f3	 lea	 eax, DWORD PTR $T102650[ebp]
  00277	50		 push	 eax
  00278	68 00 00 00 00	 push	 OFFSET FLAT:??_C@_0BD@PGNNGOBB@BLADE_DOMAIN_LEVEL?$AA@
  0027d	b9 44 01 00 00	 mov	 ecx, OFFSET FLAT:_ModifyType2String+324
  00282	c6 45 fc 1a	 mov	 BYTE PTR __$EHRec$[ebp+8], 26 ; 0000001aH
  00286	e8 00 00 00 00	 call	 ??0?$basic_string@DV?$char_traits@D@_STL@@V?$allocator@D@2@@_STL@@QAE@PBDABV?$allocator@D@1@@Z ; _STL::basic_string<char,_STL::char_traits<char>,_STL::allocator<char> >::basic_string<char,_STL::char_traits<char>,_STL::allocator<char> >

; 129  : 	"BLADE_DOMAIN_EXP_REMAIN",		//    

  0028b	8d 45 f3	 lea	 eax, DWORD PTR $T102651[ebp]
  0028e	50		 push	 eax
  0028f	68 00 00 00 00	 push	 OFFSET FLAT:??_C@_0BI@IMLMLFMG@BLADE_DOMAIN_EXP_REMAIN?$AA@
  00294	b9 50 01 00 00	 mov	 ecx, OFFSET FLAT:_ModifyType2String+336
  00299	c6 45 fc 1b	 mov	 BYTE PTR __$EHRec$[ebp+8], 27 ; 0000001bH
  0029d	e8 00 00 00 00	 call	 ??0?$basic_string@DV?$char_traits@D@_STL@@V?$allocator@D@2@@_STL@@QAE@PBDABV?$allocator@D@1@@Z ; _STL::basic_string<char,_STL::char_traits<char>,_STL::allocator<char> >::basic_string<char,_STL::char_traits<char>,_STL::allocator<char> >

; 130  : 	"BLADE_DOMAIN_GOAL_EXP",		//    

  002a2	8d 45 f3	 lea	 eax, DWORD PTR $T102652[ebp]
  002a5	50		 push	 eax
  002a6	68 00 00 00 00	 push	 OFFSET FLAT:??_C@_0BG@NLIFDHGN@BLADE_DOMAIN_GOAL_EXP?$AA@
  002ab	b9 5c 01 00 00	 mov	 ecx, OFFSET FLAT:_ModifyType2String+348
  002b0	c6 45 fc 1c	 mov	 BYTE PTR __$EHRec$[ebp+8], 28 ; 0000001cH
  002b4	e8 00 00 00 00	 call	 ??0?$basic_string@DV?$char_traits@D@_STL@@V?$allocator@D@2@@_STL@@QAE@PBDABV?$allocator@D@1@@Z ; _STL::basic_string<char,_STL::char_traits<char>,_STL::allocator<char> >::basic_string<char,_STL::char_traits<char>,_STL::allocator<char> >

; 131  : 	"HEAL_DOMAIN_LEVEL",			//    

  002b9	8d 45 f3	 lea	 eax, DWORD PTR $T102653[ebp]
  002bc	50		 push	 eax
  002bd	68 00 00 00 00	 push	 OFFSET FLAT:??_C@_0BC@GPJLIFK@HEAL_DOMAIN_LEVEL?$AA@
  002c2	b9 68 01 00 00	 mov	 ecx, OFFSET FLAT:_ModifyType2String+360
  002c7	c6 45 fc 1d	 mov	 BYTE PTR __$EHRec$[ebp+8], 29 ; 0000001dH
  002cb	e8 00 00 00 00	 call	 ??0?$basic_string@DV?$char_traits@D@_STL@@V?$allocator@D@2@@_STL@@QAE@PBDABV?$allocator@D@1@@Z ; _STL::basic_string<char,_STL::char_traits<char>,_STL::allocator<char> >::basic_string<char,_STL::char_traits<char>,_STL::allocator<char> >

; 132  : 	"HEAL_DOMAIN_EXP_REMAIN",		//    

  002d0	8d 45 f3	 lea	 eax, DWORD PTR $T102654[ebp]
  002d3	50		 push	 eax
  002d4	68 00 00 00 00	 push	 OFFSET FLAT:??_C@_0BH@ILFIDFFK@HEAL_DOMAIN_EXP_REMAIN?$AA@
  002d9	b9 74 01 00 00	 mov	 ecx, OFFSET FLAT:_ModifyType2String+372
  002de	c6 45 fc 1e	 mov	 BYTE PTR __$EHRec$[ebp+8], 30 ; 0000001eH
  002e2	e8 00 00 00 00	 call	 ??0?$basic_string@DV?$char_traits@D@_STL@@V?$allocator@D@2@@_STL@@QAE@PBDABV?$allocator@D@1@@Z ; _STL::basic_string<char,_STL::char_traits<char>,_STL::allocator<char> >::basic_string<char,_STL::char_traits<char>,_STL::allocator<char> >

; 133  : 	"HEAL_DOMAIN_GOAL_EXP",			//    

  002e7	8d 45 f3	 lea	 eax, DWORD PTR $T102655[ebp]
  002ea	50		 push	 eax
  002eb	68 00 00 00 00	 push	 OFFSET FLAT:??_C@_0BF@EMCLNDPE@HEAL_DOMAIN_GOAL_EXP?$AA@
  002f0	b9 80 01 00 00	 mov	 ecx, OFFSET FLAT:_ModifyType2String+384
  002f5	c6 45 fc 1f	 mov	 BYTE PTR __$EHRec$[ebp+8], 31 ; 0000001fH
  002f9	e8 00 00 00 00	 call	 ??0?$basic_string@DV?$char_traits@D@_STL@@V?$allocator@D@2@@_STL@@QAE@PBDABV?$allocator@D@1@@Z ; _STL::basic_string<char,_STL::char_traits<char>,_STL::allocator<char> >::basic_string<char,_STL::char_traits<char>,_STL::allocator<char> >

; 134  : 	"ENCHANT_DOMAIN_LEVEL",			//    

  002fe	8d 45 f3	 lea	 eax, DWORD PTR $T102656[ebp]
  00301	50		 push	 eax
  00302	68 00 00 00 00	 push	 OFFSET FLAT:??_C@_0BF@ONHDOKIF@ENCHANT_DOMAIN_LEVEL?$AA@
  00307	b9 8c 01 00 00	 mov	 ecx, OFFSET FLAT:_ModifyType2String+396
  0030c	c6 45 fc 20	 mov	 BYTE PTR __$EHRec$[ebp+8], 32 ; 00000020H
  00310	e8 00 00 00 00	 call	 ??0?$basic_string@DV?$char_traits@D@_STL@@V?$allocator@D@2@@_STL@@QAE@PBDABV?$allocator@D@1@@Z ; _STL::basic_string<char,_STL::char_traits<char>,_STL::allocator<char> >::basic_string<char,_STL::char_traits<char>,_STL::allocator<char> >

; 135  : 	"ENCHANT_DOMAIN_EXP_REMAIN",	//    

  00315	8d 45 f3	 lea	 eax, DWORD PTR $T102657[ebp]
  00318	50		 push	 eax
  00319	68 00 00 00 00	 push	 OFFSET FLAT:??_C@_0BK@LANBKOIK@ENCHANT_DOMAIN_EXP_REMAIN?$AA@
  0031e	b9 98 01 00 00	 mov	 ecx, OFFSET FLAT:_ModifyType2String+408
  00323	c6 45 fc 21	 mov	 BYTE PTR __$EHRec$[ebp+8], 33 ; 00000021H
  00327	e8 00 00 00 00	 call	 ??0?$basic_string@DV?$char_traits@D@_STL@@V?$allocator@D@2@@_STL@@QAE@PBDABV?$allocator@D@1@@Z ; _STL::basic_string<char,_STL::char_traits<char>,_STL::allocator<char> >::basic_string<char,_STL::char_traits<char>,_STL::allocator<char> >

; 136  : 	"ENCHANT_DOMAIN_GOAL_EXP",		//    

  0032c	8d 45 f3	 lea	 eax, DWORD PTR $T102658[ebp]
  0032f	50		 push	 eax
  00330	68 00 00 00 00	 push	 OFFSET FLAT:??_C@_0BI@EPBOPEPK@ENCHANT_DOMAIN_GOAL_EXP?$AA@
  00335	b9 a4 01 00 00	 mov	 ecx, OFFSET FLAT:_ModifyType2String+420
  0033a	c6 45 fc 22	 mov	 BYTE PTR __$EHRec$[ebp+8], 34 ; 00000022H
  0033e	e8 00 00 00 00	 call	 ??0?$basic_string@DV?$char_traits@D@_STL@@V?$allocator@D@2@@_STL@@QAE@PBDABV?$allocator@D@1@@Z ; _STL::basic_string<char,_STL::char_traits<char>,_STL::allocator<char> >::basic_string<char,_STL::char_traits<char>,_STL::allocator<char> >

; 137  : 	"GUN_DOMAIN_LEVEL",				//    

  00343	8d 45 f3	 lea	 eax, DWORD PTR $T102659[ebp]
  00346	50		 push	 eax
  00347	68 00 00 00 00	 push	 OFFSET FLAT:??_C@_0BB@ELHNALIJ@GUN_DOMAIN_LEVEL?$AA@
  0034c	b9 b0 01 00 00	 mov	 ecx, OFFSET FLAT:_ModifyType2String+432
  00351	c6 45 fc 23	 mov	 BYTE PTR __$EHRec$[ebp+8], 35 ; 00000023H
  00355	e8 00 00 00 00	 call	 ??0?$basic_string@DV?$char_traits@D@_STL@@V?$allocator@D@2@@_STL@@QAE@PBDABV?$allocator@D@1@@Z ; _STL::basic_string<char,_STL::char_traits<char>,_STL::allocator<char> >::basic_string<char,_STL::char_traits<char>,_STL::allocator<char> >

; 138  : 	"GUN_DOMAIN_EXP_REMAIN",		//    

  0035a	8d 45 f3	 lea	 eax, DWORD PTR $T102660[ebp]
  0035d	50		 push	 eax
  0035e	68 00 00 00 00	 push	 OFFSET FLAT:??_C@_0BG@OJCBFDLD@GUN_DOMAIN_EXP_REMAIN?$AA@
  00363	b9 bc 01 00 00	 mov	 ecx, OFFSET FLAT:_ModifyType2String+444
  00368	c6 45 fc 24	 mov	 BYTE PTR __$EHRec$[ebp+8], 36 ; 00000024H
  0036c	e8 00 00 00 00	 call	 ??0?$basic_string@DV?$char_traits@D@_STL@@V?$allocator@D@2@@_STL@@QAE@PBDABV?$allocator@D@1@@Z ; _STL::basic_string<char,_STL::char_traits<char>,_STL::allocator<char> >::basic_string<char,_STL::char_traits<char>,_STL::allocator<char> >

; 139  : 	"GUN_DOMAIN_GOAL_EXP",			//    

  00371	8d 45 f3	 lea	 eax, DWORD PTR $T102661[ebp]
  00374	50		 push	 eax
  00375	68 00 00 00 00	 push	 OFFSET FLAT:??_C@_0BE@OGNJOCJC@GUN_DOMAIN_GOAL_EXP?$AA@
  0037a	b9 c8 01 00 00	 mov	 ecx, OFFSET FLAT:_ModifyType2String+456
  0037f	c6 45 fc 25	 mov	 BYTE PTR __$EHRec$[ebp+8], 37 ; 00000025H
  00383	e8 00 00 00 00	 call	 ??0?$basic_string@DV?$char_traits@D@_STL@@V?$allocator@D@2@@_STL@@QAE@PBDABV?$allocator@D@1@@Z ; _STL::basic_string<char,_STL::char_traits<char>,_STL::allocator<char> >::basic_string<char,_STL::char_traits<char>,_STL::allocator<char> >

; 140  : 	"ETC_DOMAIN_LEVEL",				//    

  00388	8d 45 f3	 lea	 eax, DWORD PTR $T102662[ebp]
  0038b	50		 push	 eax
  0038c	68 00 00 00 00	 push	 OFFSET FLAT:??_C@_0BB@MNCHHIND@ETC_DOMAIN_LEVEL?$AA@
  00391	b9 d4 01 00 00	 mov	 ecx, OFFSET FLAT:_ModifyType2String+468
  00396	c6 45 fc 26	 mov	 BYTE PTR __$EHRec$[ebp+8], 38 ; 00000026H
  0039a	e8 00 00 00 00	 call	 ??0?$basic_string@DV?$char_traits@D@_STL@@V?$allocator@D@2@@_STL@@QAE@PBDABV?$allocator@D@1@@Z ; _STL::basic_string<char,_STL::char_traits<char>,_STL::allocator<char> >::basic_string<char,_STL::char_traits<char>,_STL::allocator<char> >

; 141  : 	"ETC_DOMAIN_EXP_REMAIN",		//    

  0039f	8d 45 f3	 lea	 eax, DWORD PTR $T102663[ebp]
  003a2	50		 push	 eax
  003a3	68 00 00 00 00	 push	 OFFSET FLAT:??_C@_0BG@OOPKBPAA@ETC_DOMAIN_EXP_REMAIN?$AA@
  003a8	b9 e0 01 00 00	 mov	 ecx, OFFSET FLAT:_ModifyType2String+480
  003ad	c6 45 fc 27	 mov	 BYTE PTR __$EHRec$[ebp+8], 39 ; 00000027H
  003b1	e8 00 00 00 00	 call	 ??0?$basic_string@DV?$char_traits@D@_STL@@V?$allocator@D@2@@_STL@@QAE@PBDABV?$allocator@D@1@@Z ; _STL::basic_string<char,_STL::char_traits<char>,_STL::allocator<char> >::basic_string<char,_STL::char_traits<char>,_STL::allocator<char> >

; 142  : 	"ETC_DOMAIN_GOAL_EXP",			//    

  003b6	8d 45 f3	 lea	 eax, DWORD PTR $T102664[ebp]
  003b9	50		 push	 eax
  003ba	68 00 00 00 00	 push	 OFFSET FLAT:??_C@_0BE@IFONLKN@ETC_DOMAIN_GOAL_EXP?$AA@
  003bf	b9 ec 01 00 00	 mov	 ecx, OFFSET FLAT:_ModifyType2String+492
  003c4	c6 45 fc 28	 mov	 BYTE PTR __$EHRec$[ebp+8], 40 ; 00000028H
  003c8	e8 00 00 00 00	 call	 ??0?$basic_string@DV?$char_traits@D@_STL@@V?$allocator@D@2@@_STL@@QAE@PBDABV?$allocator@D@1@@Z ; _STL::basic_string<char,_STL::char_traits<char>,_STL::allocator<char> >::basic_string<char,_STL::char_traits<char>,_STL::allocator<char> >

; 143  : 
; 144  : 	"SKILL_LEVEL",					//    

  003cd	8d 45 f3	 lea	 eax, DWORD PTR $T102665[ebp]
  003d0	50		 push	 eax
  003d1	68 00 00 00 00	 push	 OFFSET FLAT:??_C@_0M@OHHCLPDA@SKILL_LEVEL?$AA@
  003d6	b9 f8 01 00 00	 mov	 ecx, OFFSET FLAT:_ModifyType2String+504
  003db	c6 45 fc 29	 mov	 BYTE PTR __$EHRec$[ebp+8], 41 ; 00000029H
  003df	e8 00 00 00 00	 call	 ??0?$basic_string@DV?$char_traits@D@_STL@@V?$allocator@D@2@@_STL@@QAE@PBDABV?$allocator@D@1@@Z ; _STL::basic_string<char,_STL::char_traits<char>,_STL::allocator<char> >::basic_string<char,_STL::char_traits<char>,_STL::allocator<char> >

; 145  : 	"LEVEL",						//   

  003e4	8d 45 f3	 lea	 eax, DWORD PTR $T102666[ebp]
  003e7	50		 push	 eax
  003e8	68 00 00 00 00	 push	 OFFSET FLAT:??_C@_05GCEPFMCO@LEVEL?$AA@
  003ed	b9 04 02 00 00	 mov	 ecx, OFFSET FLAT:_ModifyType2String+516
  003f2	c6 45 fc 2a	 mov	 BYTE PTR __$EHRec$[ebp+8], 42 ; 0000002aH
  003f6	e8 00 00 00 00	 call	 ??0?$basic_string@DV?$char_traits@D@_STL@@V?$allocator@D@2@@_STL@@QAE@PBDABV?$allocator@D@1@@Z ; _STL::basic_string<char,_STL::char_traits<char>,_STL::allocator<char> >::basic_string<char,_STL::char_traits<char>,_STL::allocator<char> >

; 146  : 	"EFFECT_STAT",					//   

  003fb	8d 45 f3	 lea	 eax, DWORD PTR $T102667[ebp]
  003fe	50		 push	 eax
  003ff	68 00 00 00 00	 push	 OFFSET FLAT:??_C@_0M@MLFPLLC@EFFECT_STAT?$AA@
  00404	b9 10 02 00 00	 mov	 ecx, OFFSET FLAT:_ModifyType2String+528
  00409	c6 45 fc 2b	 mov	 BYTE PTR __$EHRec$[ebp+8], 43 ; 0000002bH
  0040d	e8 00 00 00 00	 call	 ??0?$basic_string@DV?$char_traits@D@_STL@@V?$allocator@D@2@@_STL@@QAE@PBDABV?$allocator@D@1@@Z ; _STL::basic_string<char,_STL::char_traits<char>,_STL::allocator<char> >::basic_string<char,_STL::char_traits<char>,_STL::allocator<char> >

; 147  : 	"DURATION",						//    

  00412	8d 45 f3	 lea	 eax, DWORD PTR $T102668[ebp]
  00415	50		 push	 eax
  00416	68 00 00 00 00	 push	 OFFSET FLAT:??_C@_08MJLDLDGF@DURATION?$AA@
  0041b	b9 1c 02 00 00	 mov	 ecx, OFFSET FLAT:_ModifyType2String+540
  00420	c6 45 fc 2c	 mov	 BYTE PTR __$EHRec$[ebp+8], 44 ; 0000002cH
  00424	e8 00 00 00 00	 call	 ??0?$basic_string@DV?$char_traits@D@_STL@@V?$allocator@D@2@@_STL@@QAE@PBDABV?$allocator@D@1@@Z ; _STL::basic_string<char,_STL::char_traits<char>,_STL::allocator<char> >::basic_string<char,_STL::char_traits<char>,_STL::allocator<char> >

; 148  : 	"BULLET",						//      

  00429	8d 45 f3	 lea	 eax, DWORD PTR $T102669[ebp]
  0042c	c6 45 fc 2d	 mov	 BYTE PTR __$EHRec$[ebp+8], 45 ; 0000002dH
  00430	50		 push	 eax
  00431	68 00 00 00 00	 push	 OFFSET FLAT:??_C@_06JADFICD@BULLET?$AA@
  00436	b9 28 02 00 00	 mov	 ecx, OFFSET FLAT:_ModifyType2String+552
  0043b	e8 00 00 00 00	 call	 ??0?$basic_string@DV?$char_traits@D@_STL@@V?$allocator@D@2@@_STL@@QAE@PBDABV?$allocator@D@1@@Z ; _STL::basic_string<char,_STL::char_traits<char>,_STL::allocator<char> >::basic_string<char,_STL::char_traits<char>,_STL::allocator<char> >

; 149  : 	"BONUS_POINT",					//    

  00440	8d 45 f3	 lea	 eax, DWORD PTR $T102670[ebp]
  00443	50		 push	 eax
  00444	68 00 00 00 00	 push	 OFFSET FLAT:??_C@_0M@DPKCELMF@BONUS_POINT?$AA@
  00449	b9 34 02 00 00	 mov	 ecx, OFFSET FLAT:_ModifyType2String+564
  0044e	c6 45 fc 2e	 mov	 BYTE PTR __$EHRec$[ebp+8], 46 ; 0000002eH
  00452	e8 00 00 00 00	 call	 ??0?$basic_string@DV?$char_traits@D@_STL@@V?$allocator@D@2@@_STL@@QAE@PBDABV?$allocator@D@1@@Z ; _STL::basic_string<char,_STL::char_traits<char>,_STL::allocator<char> >::basic_string<char,_STL::char_traits<char>,_STL::allocator<char> >

; 150  : 	"DURABILITY",					//       

  00457	8d 45 f3	 lea	 eax, DWORD PTR $T102671[ebp]
  0045a	50		 push	 eax
  0045b	68 00 00 00 00	 push	 OFFSET FLAT:??_C@_0L@JEFHDPIL@DURABILITY?$AA@
  00460	b9 40 02 00 00	 mov	 ecx, OFFSET FLAT:_ModifyType2String+576
  00465	c6 45 fc 2f	 mov	 BYTE PTR __$EHRec$[ebp+8], 47 ; 0000002fH
  00469	e8 00 00 00 00	 call	 ??0?$basic_string@DV?$char_traits@D@_STL@@V?$allocator@D@2@@_STL@@QAE@PBDABV?$allocator@D@1@@Z ; _STL::basic_string<char,_STL::char_traits<char>,_STL::allocator<char> >::basic_string<char,_STL::char_traits<char>,_STL::allocator<char> >

; 151  : 	"NOTORIETY",					//  

  0046e	8d 45 f3	 lea	 eax, DWORD PTR $T102672[ebp]
  00471	50		 push	 eax
  00472	68 00 00 00 00	 push	 OFFSET FLAT:??_C@_09EGKBMPFK@NOTORIETY?$AA@
  00477	b9 4c 02 00 00	 mov	 ecx, OFFSET FLAT:_ModifyType2String+588
  0047c	c6 45 fc 30	 mov	 BYTE PTR __$EHRec$[ebp+8], 48 ; 00000030H
  00480	e8 00 00 00 00	 call	 ??0?$basic_string@DV?$char_traits@D@_STL@@V?$allocator@D@2@@_STL@@QAE@PBDABV?$allocator@D@1@@Z ; _STL::basic_string<char,_STL::char_traits<char>,_STL::allocator<char> >::basic_string<char,_STL::char_traits<char>,_STL::allocator<char> >

; 152  : 	"VAMP_EXP_REMAIN",				//   

  00485	8d 45 f3	 lea	 eax, DWORD PTR $T102673[ebp]
  00488	50		 push	 eax
  00489	68 00 00 00 00	 push	 OFFSET FLAT:??_C@_0BA@MAIHAHDB@VAMP_EXP_REMAIN?$AA@
  0048e	b9 58 02 00 00	 mov	 ecx, OFFSET FLAT:_ModifyType2String+600
  00493	c6 45 fc 31	 mov	 BYTE PTR __$EHRec$[ebp+8], 49 ; 00000031H
  00497	e8 00 00 00 00	 call	 ??0?$basic_string@DV?$char_traits@D@_STL@@V?$allocator@D@2@@_STL@@QAE@PBDABV?$allocator@D@1@@Z ; _STL::basic_string<char,_STL::char_traits<char>,_STL::allocator<char> >::basic_string<char,_STL::char_traits<char>,_STL::allocator<char> >

; 153  : 
; 154  : 	"SILVER_DAMAGE",				//   

  0049c	8d 45 f3	 lea	 eax, DWORD PTR $T102674[ebp]
  0049f	50		 push	 eax
  004a0	68 00 00 00 00	 push	 OFFSET FLAT:??_C@_0O@ENDFFBFD@SILVER_DAMAGE?$AA@
  004a5	b9 64 02 00 00	 mov	 ecx, OFFSET FLAT:_ModifyType2String+612
  004aa	c6 45 fc 32	 mov	 BYTE PTR __$EHRec$[ebp+8], 50 ; 00000032H
  004ae	e8 00 00 00 00	 call	 ??0?$basic_string@DV?$char_traits@D@_STL@@V?$allocator@D@2@@_STL@@QAE@PBDABV?$allocator@D@1@@Z ; _STL::basic_string<char,_STL::char_traits<char>,_STL::allocator<char> >::basic_string<char,_STL::char_traits<char>,_STL::allocator<char> >

; 155  : 	"ATTACK_SPEED",					//   

  004b3	8d 45 f3	 lea	 eax, DWORD PTR $T102675[ebp]
  004b6	50		 push	 eax
  004b7	68 00 00 00 00	 push	 OFFSET FLAT:??_C@_0N@KMAAPCII@ATTACK_SPEED?$AA@
  004bc	b9 70 02 00 00	 mov	 ecx, OFFSET FLAT:_ModifyType2String+624
  004c1	c6 45 fc 33	 mov	 BYTE PTR __$EHRec$[ebp+8], 51 ; 00000033H
  004c5	e8 00 00 00 00	 call	 ??0?$basic_string@DV?$char_traits@D@_STL@@V?$allocator@D@2@@_STL@@QAE@PBDABV?$allocator@D@1@@Z ; _STL::basic_string<char,_STL::char_traits<char>,_STL::allocator<char> >::basic_string<char,_STL::char_traits<char>,_STL::allocator<char> >

; 156  : 	"ALIGNMENT",					// 

  004ca	8d 45 f3	 lea	 eax, DWORD PTR $T102676[ebp]
  004cd	50		 push	 eax
  004ce	68 00 00 00 00	 push	 OFFSET FLAT:??_C@_09HPPNPOEE@ALIGNMENT?$AA@
  004d3	b9 7c 02 00 00	 mov	 ecx, OFFSET FLAT:_ModifyType2String+636
  004d8	c6 45 fc 34	 mov	 BYTE PTR __$EHRec$[ebp+8], 52 ; 00000034H
  004dc	e8 00 00 00 00	 call	 ??0?$basic_string@DV?$char_traits@D@_STL@@V?$allocator@D@2@@_STL@@QAE@PBDABV?$allocator@D@1@@Z ; _STL::basic_string<char,_STL::char_traits<char>,_STL::allocator<char> >::basic_string<char,_STL::char_traits<char>,_STL::allocator<char> >

; 157  : 
; 158  : 	"SILVER_DURABILITY",			//  ..

  004e1	8d 45 f3	 lea	 eax, DWORD PTR $T102677[ebp]
  004e4	50		 push	 eax
  004e5	68 00 00 00 00	 push	 OFFSET FLAT:??_C@_0BC@BNIPJKDA@SILVER_DURABILITY?$AA@
  004ea	b9 88 02 00 00	 mov	 ecx, OFFSET FLAT:_ModifyType2String+648
  004ef	c6 45 fc 35	 mov	 BYTE PTR __$EHRec$[ebp+8], 53 ; 00000035H
  004f3	e8 00 00 00 00	 call	 ??0?$basic_string@DV?$char_traits@D@_STL@@V?$allocator@D@2@@_STL@@QAE@PBDABV?$allocator@D@1@@Z ; _STL::basic_string<char,_STL::char_traits<char>,_STL::allocator<char> >::basic_string<char,_STL::char_traits<char>,_STL::allocator<char> >

; 159  : 
; 160  : 	"REGEN_RATE",					//     -_-

  004f8	8d 45 f3	 lea	 eax, DWORD PTR $T102678[ebp]
  004fb	50		 push	 eax
  004fc	68 00 00 00 00	 push	 OFFSET FLAT:??_C@_0L@HJJLGOIM@REGEN_RATE?$AA@
  00501	b9 94 02 00 00	 mov	 ecx, OFFSET FLAT:_ModifyType2String+660
  00506	c6 45 fc 36	 mov	 BYTE PTR __$EHRec$[ebp+8], 54 ; 00000036H
  0050a	e8 00 00 00 00	 call	 ??0?$basic_string@DV?$char_traits@D@_STL@@V?$allocator@D@2@@_STL@@QAE@PBDABV?$allocator@D@1@@Z ; _STL::basic_string<char,_STL::char_traits<char>,_STL::allocator<char> >::basic_string<char,_STL::char_traits<char>,_STL::allocator<char> >

; 161  : 	"GUILDID",						//   

  0050f	8d 45 f3	 lea	 eax, DWORD PTR $T102679[ebp]
  00512	50		 push	 eax
  00513	68 00 00 00 00	 push	 OFFSET FLAT:??_C@_07ICBEDALK@GUILDID?$AA@
  00518	b9 a0 02 00 00	 mov	 ecx, OFFSET FLAT:_ModifyType2String+672
  0051d	c6 45 fc 37	 mov	 BYTE PTR __$EHRec$[ebp+8], 55 ; 00000037H
  00521	e8 00 00 00 00	 call	 ??0?$basic_string@DV?$char_traits@D@_STL@@V?$allocator@D@2@@_STL@@QAE@PBDABV?$allocator@D@1@@Z ; _STL::basic_string<char,_STL::char_traits<char>,_STL::allocator<char> >::basic_string<char,_STL::char_traits<char>,_STL::allocator<char> >

; 162  : 
; 163  : 	"RANK",							//  

  00526	8d 45 f3	 lea	 eax, DWORD PTR $T102680[ebp]
  00529	50		 push	 eax
  0052a	68 00 00 00 00	 push	 OFFSET FLAT:??_C@_04DBCPJNBF@RANK?$AA@
  0052f	b9 ac 02 00 00	 mov	 ecx, OFFSET FLAT:_ModifyType2String+684
  00534	c6 45 fc 38	 mov	 BYTE PTR __$EHRec$[ebp+8], 56 ; 00000038H
  00538	e8 00 00 00 00	 call	 ??0?$basic_string@DV?$char_traits@D@_STL@@V?$allocator@D@2@@_STL@@QAE@PBDABV?$allocator@D@1@@Z ; _STL::basic_string<char,_STL::char_traits<char>,_STL::allocator<char> >::basic_string<char,_STL::char_traits<char>,_STL::allocator<char> >

; 164  : 	"RANK_EXP_REMAIN",				//  

  0053d	8d 45 f3	 lea	 eax, DWORD PTR $T102681[ebp]
  00540	50		 push	 eax
  00541	68 00 00 00 00	 push	 OFFSET FLAT:??_C@_0BA@DLBJHHBE@RANK_EXP_REMAIN?$AA@
  00546	b9 b8 02 00 00	 mov	 ecx, OFFSET FLAT:_ModifyType2String+696
  0054b	c6 45 fc 39	 mov	 BYTE PTR __$EHRec$[ebp+8], 57 ; 00000039H
  0054f	e8 00 00 00 00	 call	 ??0?$basic_string@DV?$char_traits@D@_STL@@V?$allocator@D@2@@_STL@@QAE@PBDABV?$allocator@D@1@@Z ; _STL::basic_string<char,_STL::char_traits<char>,_STL::allocator<char> >::basic_string<char,_STL::char_traits<char>,_STL::allocator<char> >

; 165  : 
; 166  : 	"OUSTERS_EXP_REMAIN",			//   

  00554	8d 45 f3	 lea	 eax, DWORD PTR $T102682[ebp]
  00557	50		 push	 eax
  00558	68 00 00 00 00	 push	 OFFSET FLAT:??_C@_0BD@BBMKLBCL@OUSTERS_EXP_REMAIN?$AA@
  0055d	b9 c4 02 00 00	 mov	 ecx, OFFSET FLAT:_ModifyType2String+708
  00562	c6 45 fc 3a	 mov	 BYTE PTR __$EHRec$[ebp+8], 58 ; 0000003aH
  00566	e8 00 00 00 00	 call	 ??0?$basic_string@DV?$char_traits@D@_STL@@V?$allocator@D@2@@_STL@@QAE@PBDABV?$allocator@D@1@@Z ; _STL::basic_string<char,_STL::char_traits<char>,_STL::allocator<char> >::basic_string<char,_STL::char_traits<char>,_STL::allocator<char> >

; 167  : 	"SKILL_BONUS_POINT",			//     

  0056b	8d 45 f3	 lea	 eax, DWORD PTR $T102683[ebp]
  0056e	50		 push	 eax
  0056f	68 00 00 00 00	 push	 OFFSET FLAT:??_C@_0BC@IMLFGMDG@SKILL_BONUS_POINT?$AA@
  00574	b9 d0 02 00 00	 mov	 ecx, OFFSET FLAT:_ModifyType2String+720
  00579	c6 45 fc 3b	 mov	 BYTE PTR __$EHRec$[ebp+8], 59 ; 0000003bH
  0057d	e8 00 00 00 00	 call	 ??0?$basic_string@DV?$char_traits@D@_STL@@V?$allocator@D@2@@_STL@@QAE@PBDABV?$allocator@D@1@@Z ; _STL::basic_string<char,_STL::char_traits<char>,_STL::allocator<char> >::basic_string<char,_STL::char_traits<char>,_STL::allocator<char> >

; 168  : 	
; 169  : 	"ELEMENTAL_FIRE",

  00582	8d 45 f3	 lea	 eax, DWORD PTR $T102684[ebp]
  00585	50		 push	 eax
  00586	68 00 00 00 00	 push	 OFFSET FLAT:??_C@_0P@PEHNMFMM@ELEMENTAL_FIRE?$AA@
  0058b	b9 dc 02 00 00	 mov	 ecx, OFFSET FLAT:_ModifyType2String+732
  00590	c6 45 fc 3c	 mov	 BYTE PTR __$EHRec$[ebp+8], 60 ; 0000003cH
  00594	e8 00 00 00 00	 call	 ??0?$basic_string@DV?$char_traits@D@_STL@@V?$allocator@D@2@@_STL@@QAE@PBDABV?$allocator@D@1@@Z ; _STL::basic_string<char,_STL::char_traits<char>,_STL::allocator<char> >::basic_string<char,_STL::char_traits<char>,_STL::allocator<char> >

; 170  : 	"ELEMENTAL_WATER",

  00599	8d 45 f3	 lea	 eax, DWORD PTR $T102685[ebp]
  0059c	50		 push	 eax
  0059d	68 00 00 00 00	 push	 OFFSET FLAT:??_C@_0BA@MHDKAJKL@ELEMENTAL_WATER?$AA@
  005a2	b9 e8 02 00 00	 mov	 ecx, OFFSET FLAT:_ModifyType2String+744
  005a7	c6 45 fc 3d	 mov	 BYTE PTR __$EHRec$[ebp+8], 61 ; 0000003dH
  005ab	e8 00 00 00 00	 call	 ??0?$basic_string@DV?$char_traits@D@_STL@@V?$allocator@D@2@@_STL@@QAE@PBDABV?$allocator@D@1@@Z ; _STL::basic_string<char,_STL::char_traits<char>,_STL::allocator<char> >::basic_string<char,_STL::char_traits<char>,_STL::allocator<char> >

; 171  : 	"ELEMENTAL_EARTH",

  005b0	8d 45 f3	 lea	 eax, DWORD PTR $T102686[ebp]
  005b3	50		 push	 eax
  005b4	68 00 00 00 00	 push	 OFFSET FLAT:??_C@_0BA@BIGMGHL@ELEMENTAL_EARTH?$AA@
  005b9	b9 f4 02 00 00	 mov	 ecx, OFFSET FLAT:_ModifyType2String+756
  005be	c6 45 fc 3e	 mov	 BYTE PTR __$EHRec$[ebp+8], 62 ; 0000003eH
  005c2	e8 00 00 00 00	 call	 ??0?$basic_string@DV?$char_traits@D@_STL@@V?$allocator@D@2@@_STL@@QAE@PBDABV?$allocator@D@1@@Z ; _STL::basic_string<char,_STL::char_traits<char>,_STL::allocator<char> >::basic_string<char,_STL::char_traits<char>,_STL::allocator<char> >

; 172  : 	"ELEMENTAL_WIND",

  005c7	8d 45 f3	 lea	 eax, DWORD PTR $T102687[ebp]
  005ca	50		 push	 eax
  005cb	68 00 00 00 00	 push	 OFFSET FLAT:??_C@_0P@KFNKBAKL@ELEMENTAL_WIND?$AA@
  005d0	b9 00 03 00 00	 mov	 ecx, OFFSET FLAT:_ModifyType2String+768
  005d5	c6 45 fc 3f	 mov	 BYTE PTR __$EHRec$[ebp+8], 63 ; 0000003fH
  005d9	e8 00 00 00 00	 call	 ??0?$basic_string@DV?$char_traits@D@_STL@@V?$allocator@D@2@@_STL@@QAE@PBDABV?$allocator@D@1@@Z ; _STL::basic_string<char,_STL::char_traits<char>,_STL::allocator<char> >::basic_string<char,_STL::char_traits<char>,_STL::allocator<char> >

; 173  : 	
; 174  : 	"SKILL_EXP",					//   

  005de	8d 45 f3	 lea	 eax, DWORD PTR $T102688[ebp]
  005e1	50		 push	 eax
  005e2	68 00 00 00 00	 push	 OFFSET FLAT:??_C@_09BBOPOJIN@SKILL_EXP?$AA@
  005e7	b9 0c 03 00 00	 mov	 ecx, OFFSET FLAT:_ModifyType2String+780
  005ec	c6 45 fc 40	 mov	 BYTE PTR __$EHRec$[ebp+8], 64 ; 00000040H
  005f0	e8 00 00 00 00	 call	 ??0?$basic_string@DV?$char_traits@D@_STL@@V?$allocator@D@2@@_STL@@QAE@PBDABV?$allocator@D@1@@Z ; _STL::basic_string<char,_STL::char_traits<char>,_STL::allocator<char> >::basic_string<char,_STL::char_traits<char>,_STL::allocator<char> >

; 175  : 	
; 176  :     "PET_HP",

  005f5	8d 45 f3	 lea	 eax, DWORD PTR $T102689[ebp]
  005f8	50		 push	 eax
  005f9	68 00 00 00 00	 push	 OFFSET FLAT:??_C@_06IEBMKFDK@PET_HP?$AA@
  005fe	b9 18 03 00 00	 mov	 ecx, OFFSET FLAT:_ModifyType2String+792
  00603	c6 45 fc 41	 mov	 BYTE PTR __$EHRec$[ebp+8], 65 ; 00000041H
  00607	e8 00 00 00 00	 call	 ??0?$basic_string@DV?$char_traits@D@_STL@@V?$allocator@D@2@@_STL@@QAE@PBDABV?$allocator@D@1@@Z ; _STL::basic_string<char,_STL::char_traits<char>,_STL::allocator<char> >::basic_string<char,_STL::char_traits<char>,_STL::allocator<char> >

; 177  :     "PET_EXP_REMAIN",               //  

  0060c	8d 45 f3	 lea	 eax, DWORD PTR $T102690[ebp]
  0060f	50		 push	 eax
  00610	68 00 00 00 00	 push	 OFFSET FLAT:??_C@_0P@GOFONOAE@PET_EXP_REMAIN?$AA@
  00615	b9 24 03 00 00	 mov	 ecx, OFFSET FLAT:_ModifyType2String+804
  0061a	c6 45 fc 42	 mov	 BYTE PTR __$EHRec$[ebp+8], 66 ; 00000042H
  0061e	e8 00 00 00 00	 call	 ??0?$basic_string@DV?$char_traits@D@_STL@@V?$allocator@D@2@@_STL@@QAE@PBDABV?$allocator@D@1@@Z ; _STL::basic_string<char,_STL::char_traits<char>,_STL::allocator<char> >::basic_string<char,_STL::char_traits<char>,_STL::allocator<char> >

; 178  : 	
; 179  : 	"LAST_TARGET",

  00623	8d 45 f3	 lea	 eax, DWORD PTR $T102691[ebp]
  00626	50		 push	 eax
  00627	68 00 00 00 00	 push	 OFFSET FLAT:??_C@_0M@KIBGPGKM@LAST_TARGET?$AA@
  0062c	b9 30 03 00 00	 mov	 ecx, OFFSET FLAT:_ModifyType2String+816
  00631	c6 45 fc 43	 mov	 BYTE PTR __$EHRec$[ebp+8], 67 ; 00000043H
  00635	e8 00 00 00 00	 call	 ??0?$basic_string@DV?$char_traits@D@_STL@@V?$allocator@D@2@@_STL@@QAE@PBDABV?$allocator@D@1@@Z ; _STL::basic_string<char,_STL::char_traits<char>,_STL::allocator<char> >::basic_string<char,_STL::char_traits<char>,_STL::allocator<char> >

; 180  : 
; 181  : 	"UNIONID",

  0063a	8d 45 f3	 lea	 eax, DWORD PTR $T102692[ebp]
  0063d	50		 push	 eax
  0063e	c6 45 fc 44	 mov	 BYTE PTR __$EHRec$[ebp+8], 68 ; 00000044H
  00642	68 00 00 00 00	 push	 OFFSET FLAT:??_C@_07PBEOFEGM@UNIONID?$AA@
  00647	b9 3c 03 00 00	 mov	 ecx, OFFSET FLAT:_ModifyType2String+828
  0064c	e8 00 00 00 00	 call	 ??0?$basic_string@DV?$char_traits@D@_STL@@V?$allocator@D@2@@_STL@@QAE@PBDABV?$allocator@D@1@@Z ; _STL::basic_string<char,_STL::char_traits<char>,_STL::allocator<char> >::basic_string<char,_STL::char_traits<char>,_STL::allocator<char> >

; 182  : 	"UNIONGRADE",

  00651	8d 45 f3	 lea	 eax, DWORD PTR $T102693[ebp]
  00654	50		 push	 eax
  00655	68 00 00 00 00	 push	 OFFSET FLAT:??_C@_0L@COBGECE@UNIONGRADE?$AA@
  0065a	b9 48 03 00 00	 mov	 ecx, OFFSET FLAT:_ModifyType2String+840
  0065f	c6 45 fc 45	 mov	 BYTE PTR __$EHRec$[ebp+8], 69 ; 00000045H
  00663	e8 00 00 00 00	 call	 ??0?$basic_string@DV?$char_traits@D@_STL@@V?$allocator@D@2@@_STL@@QAE@PBDABV?$allocator@D@1@@Z ; _STL::basic_string<char,_STL::char_traits<char>,_STL::allocator<char> >::basic_string<char,_STL::char_traits<char>,_STL::allocator<char> >

; 183  : 	
; 184  :     "ADVANCEMENT_CLASS_LEVEL",		//  

  00668	8d 45 f3	 lea	 eax, DWORD PTR $T102694[ebp]
  0066b	50		 push	 eax
  0066c	68 00 00 00 00	 push	 OFFSET FLAT:??_C@_0BI@LHEPMHDM@ADVANCEMENT_CLASS_LEVEL?$AA@
  00671	b9 54 03 00 00	 mov	 ecx, OFFSET FLAT:_ModifyType2String+852
  00676	c6 45 fc 46	 mov	 BYTE PTR __$EHRec$[ebp+8], 70 ; 00000046H
  0067a	e8 00 00 00 00	 call	 ??0?$basic_string@DV?$char_traits@D@_STL@@V?$allocator@D@2@@_STL@@QAE@PBDABV?$allocator@D@1@@Z ; _STL::basic_string<char,_STL::char_traits<char>,_STL::allocator<char> >::basic_string<char,_STL::char_traits<char>,_STL::allocator<char> >

; 185  :     "ADVANCEMENT_CLASS_GOAL_EXP",	//  

  0067f	8d 45 f3	 lea	 eax, DWORD PTR $T102695[ebp]
  00682	50		 push	 eax
  00683	68 00 00 00 00	 push	 OFFSET FLAT:??_C@_0BL@IKNEBHFH@ADVANCEMENT_CLASS_GOAL_EXP?$AA@
  00688	b9 60 03 00 00	 mov	 ecx, OFFSET FLAT:_ModifyType2String+864
  0068d	c6 45 fc 47	 mov	 BYTE PTR __$EHRec$[ebp+8], 71 ; 00000047H
  00691	e8 00 00 00 00	 call	 ??0?$basic_string@DV?$char_traits@D@_STL@@V?$allocator@D@2@@_STL@@QAE@PBDABV?$allocator@D@1@@Z ; _STL::basic_string<char,_STL::char_traits<char>,_STL::allocator<char> >::basic_string<char,_STL::char_traits<char>,_STL::allocator<char> >

; 186  : 
; 187  : 	"ATTACK_BLOOD_BURST_POINT",		//   

  00696	8d 45 f3	 lea	 eax, DWORD PTR $T102696[ebp]
  00699	50		 push	 eax
  0069a	68 00 00 00 00	 push	 OFFSET FLAT:??_C@_0BJ@PIJGHHAP@ATTACK_BLOOD_BURST_POINT?$AA@
  0069f	b9 6c 03 00 00	 mov	 ecx, OFFSET FLAT:_ModifyType2String+876
  006a4	c6 45 fc 48	 mov	 BYTE PTR __$EHRec$[ebp+8], 72 ; 00000048H
  006a8	e8 00 00 00 00	 call	 ??0?$basic_string@DV?$char_traits@D@_STL@@V?$allocator@D@2@@_STL@@QAE@PBDABV?$allocator@D@1@@Z ; _STL::basic_string<char,_STL::char_traits<char>,_STL::allocator<char> >::basic_string<char,_STL::char_traits<char>,_STL::allocator<char> >

; 188  : 	"DEFENSE_BLOOD_BURST_POINT",	//   

  006ad	8d 45 f3	 lea	 eax, DWORD PTR $T102697[ebp]
  006b0	50		 push	 eax
  006b1	68 00 00 00 00	 push	 OFFSET FLAT:??_C@_0BK@BJJBOCNF@DEFENSE_BLOOD_BURST_POINT?$AA@
  006b6	b9 78 03 00 00	 mov	 ecx, OFFSET FLAT:_ModifyType2String+888
  006bb	c6 45 fc 49	 mov	 BYTE PTR __$EHRec$[ebp+8], 73 ; 00000049H
  006bf	e8 00 00 00 00	 call	 ??0?$basic_string@DV?$char_traits@D@_STL@@V?$allocator@D@2@@_STL@@QAE@PBDABV?$allocator@D@1@@Z ; _STL::basic_string<char,_STL::char_traits<char>,_STL::allocator<char> >::basic_string<char,_STL::char_traits<char>,_STL::allocator<char> >

; 189  : 	"PARTY_BLOOD_BURST_POINT",		//   

  006c4	8d 45 f3	 lea	 eax, DWORD PTR $T102698[ebp]
  006c7	50		 push	 eax
  006c8	68 00 00 00 00	 push	 OFFSET FLAT:??_C@_0BI@MHOBEFBP@PARTY_BLOOD_BURST_POINT?$AA@
  006cd	b9 84 03 00 00	 mov	 ecx, OFFSET FLAT:_ModifyType2String+900
  006d2	c6 45 fc 4a	 mov	 BYTE PTR __$EHRec$[ebp+8], 74 ; 0000004aH
  006d6	e8 00 00 00 00	 call	 ??0?$basic_string@DV?$char_traits@D@_STL@@V?$allocator@D@2@@_STL@@QAE@PBDABV?$allocator@D@1@@Z ; _STL::basic_string<char,_STL::char_traits<char>,_STL::allocator<char> >::basic_string<char,_STL::char_traits<char>,_STL::allocator<char> >

; 190  : 	
; 191  : 	"ADVANCED_SLAYERSTR",

  006db	8d 45 f3	 lea	 eax, DWORD PTR $T102699[ebp]
  006de	50		 push	 eax
  006df	68 00 00 00 00	 push	 OFFSET FLAT:??_C@_0BD@BPOFFKFG@ADVANCED_SLAYERSTR?$AA@
  006e4	b9 90 03 00 00	 mov	 ecx, OFFSET FLAT:_ModifyType2String+912
  006e9	c6 45 fc 4b	 mov	 BYTE PTR __$EHRec$[ebp+8], 75 ; 0000004bH
  006ed	e8 00 00 00 00	 call	 ??0?$basic_string@DV?$char_traits@D@_STL@@V?$allocator@D@2@@_STL@@QAE@PBDABV?$allocator@D@1@@Z ; _STL::basic_string<char,_STL::char_traits<char>,_STL::allocator<char> >::basic_string<char,_STL::char_traits<char>,_STL::allocator<char> >

; 192  : 	"ADVANCED_SLAYERDEX",

  006f2	8d 45 f3	 lea	 eax, DWORD PTR $T102700[ebp]
  006f5	50		 push	 eax
  006f6	68 00 00 00 00	 push	 OFFSET FLAT:??_C@_0BD@DFCABELN@ADVANCED_SLAYERDEX?$AA@
  006fb	b9 9c 03 00 00	 mov	 ecx, OFFSET FLAT:_ModifyType2String+924
  00700	c6 45 fc 4c	 mov	 BYTE PTR __$EHRec$[ebp+8], 76 ; 0000004cH
  00704	e8 00 00 00 00	 call	 ??0?$basic_string@DV?$char_traits@D@_STL@@V?$allocator@D@2@@_STL@@QAE@PBDABV?$allocator@D@1@@Z ; _STL::basic_string<char,_STL::char_traits<char>,_STL::allocator<char> >::basic_string<char,_STL::char_traits<char>,_STL::allocator<char> >

; 193  : 	"ADVANCED_SLAYERINT",			

  00709	8d 45 f3	 lea	 eax, DWORD PTR $T102701[ebp]
  0070c	50		 push	 eax
  0070d	68 00 00 00 00	 push	 OFFSET FLAT:??_C@_0BD@GHKKGMIN@ADVANCED_SLAYERINT?$AA@
  00712	b9 a8 03 00 00	 mov	 ecx, OFFSET FLAT:_ModifyType2String+936
  00717	c6 45 fc 4d	 mov	 BYTE PTR __$EHRec$[ebp+8], 77 ; 0000004dH
  0071b	e8 00 00 00 00	 call	 ??0?$basic_string@DV?$char_traits@D@_STL@@V?$allocator@D@2@@_STL@@QAE@PBDABV?$allocator@D@1@@Z ; _STL::basic_string<char,_STL::char_traits<char>,_STL::allocator<char> >::basic_string<char,_STL::char_traits<char>,_STL::allocator<char> >

; 194  : 
; 195  : #if __CONTENTS(__CONTRIBUTE_SYSTEM)
; 196  : 	"CONTRIBUTE_POINT",				// MODIFY_CONTRIBUTE_POINT  

  00720	8d 45 f3	 lea	 eax, DWORD PTR $T102702[ebp]
  00723	50		 push	 eax
  00724	68 00 00 00 00	 push	 OFFSET FLAT:??_C@_0BB@JLMOMJOK@CONTRIBUTE_POINT?$AA@
  00729	b9 b4 03 00 00	 mov	 ecx, OFFSET FLAT:_ModifyType2String+948
  0072e	c6 45 fc 4e	 mov	 BYTE PTR __$EHRec$[ebp+8], 78 ; 0000004eH
  00732	e8 00 00 00 00	 call	 ??0?$basic_string@DV?$char_traits@D@_STL@@V?$allocator@D@2@@_STL@@QAE@PBDABV?$allocator@D@1@@Z ; _STL::basic_string<char,_STL::char_traits<char>,_STL::allocator<char> >::basic_string<char,_STL::char_traits<char>,_STL::allocator<char> >

; 197  : #endif	
; 198  : 	"DIANJUAN",

  00737	8d 45 f3	 lea	 eax, DWORD PTR $T102703[ebp]
  0073a	50		 push	 eax
  0073b	68 00 00 00 00	 push	 OFFSET FLAT:??_C@_08IKEGEPEJ@DIANJUAN?$AA@
  00740	b9 c0 03 00 00	 mov	 ecx, OFFSET FLAT:_ModifyType2String+960
  00745	c6 45 fc 4f	 mov	 BYTE PTR __$EHRec$[ebp+8], 79 ; 0000004fH
  00749	e8 00 00 00 00	 call	 ??0?$basic_string@DV?$char_traits@D@_STL@@V?$allocator@D@2@@_STL@@QAE@PBDABV?$allocator@D@1@@Z ; _STL::basic_string<char,_STL::char_traits<char>,_STL::allocator<char> >::basic_string<char,_STL::char_traits<char>,_STL::allocator<char> >
  0074e	c6 45 fc 50	 mov	 BYTE PTR __$EHRec$[ebp+8], 80 ; 00000050H

; 199  : 	"MAX"
; 200  : };

  00752	8d 45 f3	 lea	 eax, DWORD PTR $T102704[ebp]
  00755	50		 push	 eax
  00756	68 00 00 00 00	 push	 OFFSET FLAT:??_C@_03LEPPJAKI@MAX?$AA@
  0075b	b9 cc 03 00 00	 mov	 ecx, OFFSET FLAT:_ModifyType2String+972
  00760	e8 00 00 00 00	 call	 ??0?$basic_string@DV?$char_traits@D@_STL@@V?$allocator@D@2@@_STL@@QAE@PBDABV?$allocator@D@1@@Z ; _STL::basic_string<char,_STL::char_traits<char>,_STL::allocator<char> >::basic_string<char,_STL::char_traits<char>,_STL::allocator<char> >
  00765	68 00 00 00 00	 push	 OFFSET FLAT:_$E80
  0076a	e8 00 00 00 00	 call	 _atexit
  0076f	59		 pop	 ecx
  00770	8b 4d f4	 mov	 ecx, DWORD PTR __$EHRec$[ebp]
  00773	64 89 0d 00 00
	00 00		 mov	 DWORD PTR fs:__except_list, ecx
  0077a	c9		 leave
  0077b	c3		 ret	 0
text$yc	ENDS
;	COMDAT text$x
text$x	SEGMENT
$L102705:
  00000	b9 00 00 00 00	 mov	 ecx, OFFSET FLAT:_ModifyType2String
  00005	e9 00 00 00 00	 jmp	 ??1?$basic_string@DV?$char_traits@D@_STL@@V?$allocator@D@2@@_STL@@QAE@XZ ; _STL::basic_string<char,_STL::char_traits<char>,_STL::allocator<char> >::~basic_string<char,_STL::char_traits<char>,_STL::allocator<char> >
$L102706:
  0000a	b9 0c 00 00 00	 mov	 ecx, OFFSET FLAT:_ModifyType2String+12
  0000f	e9 00 00 00 00	 jmp	 ??1?$basic_string@DV?$char_traits@D@_STL@@V?$allocator@D@2@@_STL@@QAE@XZ ; _STL::basic_string<char,_STL::char_traits<char>,_STL::allocator<char> >::~basic_string<char,_STL::char_traits<char>,_STL::allocator<char> >
$L102707:
  00014	b9 18 00 00 00	 mov	 ecx, OFFSET FLAT:_ModifyType2String+24
  00019	e9 00 00 00 00	 jmp	 ??1?$basic_string@DV?$char_traits@D@_STL@@V?$allocator@D@2@@_STL@@QAE@XZ ; _STL::basic_string<char,_STL::char_traits<char>,_STL::allocator<char> >::~basic_string<char,_STL::char_traits<char>,_STL::allocator<char> >
$L102708:
  0001e	b9 24 00 00 00	 mov	 ecx, OFFSET FLAT:_ModifyType2String+36
  00023	e9 00 00 00 00	 jmp	 ??1?$basic_string@DV?$char_traits@D@_STL@@V?$allocator@D@2@@_STL@@QAE@XZ ; _STL::basic_string<char,_STL::char_traits<char>,_STL::allocator<char> >::~basic_string<char,_STL::char_traits<char>,_STL::allocator<char> >
$L102709:
  00028	b9 30 00 00 00	 mov	 ecx, OFFSET FLAT:_ModifyType2String+48
  0002d	e9 00 00 00 00	 jmp	 ??1?$basic_string@DV?$char_traits@D@_STL@@V?$allocator@D@2@@_STL@@QAE@XZ ; _STL::basic_string<char,_STL::char_traits<char>,_STL::allocator<char> >::~basic_string<char,_STL::char_traits<char>,_STL::allocator<char> >
$L102710:
  00032	b9 3c 00 00 00	 mov	 ecx, OFFSET FLAT:_ModifyType2String+60
  00037	e9 00 00 00 00	 jmp	 ??1?$basic_string@DV?$char_traits@D@_STL@@V?$allocator@D@2@@_STL@@QAE@XZ ; _STL::basic_string<char,_STL::char_traits<char>,_STL::allocator<char> >::~basic_string<char,_STL::char_traits<char>,_STL::allocator<char> >
$L102711:
  0003c	b9 48 00 00 00	 mov	 ecx, OFFSET FLAT:_ModifyType2String+72
  00041	e9 00 00 00 00	 jmp	 ??1?$basic_string@DV?$char_traits@D@_STL@@V?$allocator@D@2@@_STL@@QAE@XZ ; _STL::basic_string<char,_STL::char_traits<char>,_STL::allocator<char> >::~basic_string<char,_STL::char_traits<char>,_STL::allocator<char> >
$L102712:
  00046	b9 54 00 00 00	 mov	 ecx, OFFSET FLAT:_ModifyType2String+84
  0004b	e9 00 00 00 00	 jmp	 ??1?$basic_string@DV?$char_traits@D@_STL@@V?$allocator@D@2@@_STL@@QAE@XZ ; _STL::basic_string<char,_STL::char_traits<char>,_STL::allocator<char> >::~basic_string<char,_STL::char_traits<char>,_STL::allocator<char> >
$L102713:
  00050	b9 60 00 00 00	 mov	 ecx, OFFSET FLAT:_ModifyType2String+96
  00055	e9 00 00 00 00	 jmp	 ??1?$basic_string@DV?$char_traits@D@_STL@@V?$allocator@D@2@@_STL@@QAE@XZ ; _STL::basic_string<char,_STL::char_traits<char>,_STL::allocator<char> >::~basic_string<char,_STL::char_traits<char>,_STL::allocator<char> >
$L102714:
  0005a	b9 6c 00 00 00	 mov	 ecx, OFFSET FLAT:_ModifyType2String+108
  0005f	e9 00 00 00 00	 jmp	 ??1?$basic_string@DV?$char_traits@D@_STL@@V?$allocator@D@2@@_STL@@QAE@XZ ; _STL::basic_string<char,_STL::char_traits<char>,_STL::allocator<char> >::~basic_string<char,_STL::char_traits<char>,_STL::allocator<char> >
$L102715:
  00064	b9 78 00 00 00	 mov	 ecx, OFFSET FLAT:_ModifyType2String+120
  00069	e9 00 00 00 00	 jmp	 ??1?$basic_string@DV?$char_traits@D@_STL@@V?$allocator@D@2@@_STL@@QAE@XZ ; _STL::basic_string<char,_STL::char_traits<char>,_STL::allocator<char> >::~basic_string<char,_STL::char_traits<char>,_STL::allocator<char> >
$L102716:
  0006e	b9 84 00 00 00	 mov	 ecx, OFFSET FLAT:_ModifyType2String+132
  00073	e9 00 00 00 00	 jmp	 ??1?$basic_string@DV?$char_traits@D@_STL@@V?$allocator@D@2@@_STL@@QAE@XZ ; _STL::basic_string<char,_STL::char_traits<char>,_STL::allocator<char> >::~basic_string<char,_STL::char_traits<char>,_STL::allocator<char> >
$L102717:
  00078	b9 90 00 00 00	 mov	 ecx, OFFSET FLAT:_ModifyType2String+144
  0007d	e9 00 00 00 00	 jmp	 ??1?$basic_string@DV?$char_traits@D@_STL@@V?$allocator@D@2@@_STL@@QAE@XZ ; _STL::basic_string<char,_STL::char_traits<char>,_STL::allocator<char> >::~basic_string<char,_STL::char_traits<char>,_STL::allocator<char> >
$L102718:
  00082	b9 9c 00 00 00	 mov	 ecx, OFFSET FLAT:_ModifyType2String+156
  00087	e9 00 00 00 00	 jmp	 ??1?$basic_string@DV?$char_traits@D@_STL@@V?$allocator@D@2@@_STL@@QAE@XZ ; _STL::basic_string<char,_STL::char_traits<char>,_STL::allocator<char> >::~basic_string<char,_STL::char_traits<char>,_STL::allocator<char> >
$L102719:
  0008c	b9 a8 00 00 00	 mov	 ecx, OFFSET FLAT:_ModifyType2String+168
  00091	e9 00 00 00 00	 jmp	 ??1?$basic_string@DV?$char_traits@D@_STL@@V?$allocator@D@2@@_STL@@QAE@XZ ; _STL::basic_string<char,_STL::char_traits<char>,_STL::allocator<char> >::~basic_string<char,_STL::char_traits<char>,_STL::allocator<char> >
$L102720:
  00096	b9 b4 00 00 00	 mov	 ecx, OFFSET FLAT:_ModifyType2String+180
  0009b	e9 00 00 00 00	 jmp	 ??1?$basic_string@DV?$char_traits@D@_STL@@V?$allocator@D@2@@_STL@@QAE@XZ ; _STL::basic_string<char,_STL::char_traits<char>,_STL::allocator<char> >::~basic_string<char,_STL::char_traits<char>,_STL::allocator<char> >
$L102721:
  000a0	b9 c0 00 00 00	 mov	 ecx, OFFSET FLAT:_ModifyType2String+192
  000a5	e9 00 00 00 00	 jmp	 ??1?$basic_string@DV?$char_traits@D@_STL@@V?$allocator@D@2@@_STL@@QAE@XZ ; _STL::basic_string<char,_STL::char_traits<char>,_STL::allocator<char> >::~basic_string<char,_STL::char_traits<char>,_STL::allocator<char> >
$L102722:
  000aa	b9 cc 00 00 00	 mov	 ecx, OFFSET FLAT:_ModifyType2String+204
  000af	e9 00 00 00 00	 jmp	 ??1?$basic_string@DV?$char_traits@D@_STL@@V?$allocator@D@2@@_STL@@QAE@XZ ; _STL::basic_string<char,_STL::char_traits<char>,_STL::allocator<char> >::~basic_string<char,_STL::char_traits<char>,_STL::allocator<char> >
$L102723:
  000b4	b9 d8 00 00 00	 mov	 ecx, OFFSET FLAT:_ModifyType2String+216
  000b9	e9 00 00 00 00	 jmp	 ??1?$basic_string@DV?$char_traits@D@_STL@@V?$allocator@D@2@@_STL@@QAE@XZ ; _STL::basic_string<char,_STL::char_traits<char>,_STL::allocator<char> >::~basic_string<char,_STL::char_traits<char>,_STL::allocator<char> >
$L102724:
  000be	b9 e4 00 00 00	 mov	 ecx, OFFSET FLAT:_ModifyType2String+228
  000c3	e9 00 00 00 00	 jmp	 ??1?$basic_string@DV?$char_traits@D@_STL@@V?$allocator@D@2@@_STL@@QAE@XZ ; _STL::basic_string<char,_STL::char_traits<char>,_STL::allocator<char> >::~basic_string<char,_STL::char_traits<char>,_STL::allocator<char> >
$L102725:
  000c8	b9 f0 00 00 00	 mov	 ecx, OFFSET FLAT:_ModifyType2String+240
  000cd	e9 00 00 00 00	 jmp	 ??1?$basic_string@DV?$char_traits@D@_STL@@V?$allocator@D@2@@_STL@@QAE@XZ ; _STL::basic_string<char,_STL::char_traits<char>,_STL::allocator<char> >::~basic_string<char,_STL::char_traits<char>,_STL::allocator<char> >
$L102726:
  000d2	b9 fc 00 00 00	 mov	 ecx, OFFSET FLAT:_ModifyType2String+252
  000d7	e9 00 00 00 00	 jmp	 ??1?$basic_string@DV?$char_traits@D@_STL@@V?$allocator@D@2@@_STL@@QAE@XZ ; _STL::basic_string<char,_STL::char_traits<char>,_STL::allocator<char> >::~basic_string<char,_STL::char_traits<char>,_STL::allocator<char> >
$L102727:
  000dc	b9 08 01 00 00	 mov	 ecx, OFFSET FLAT:_ModifyType2String+264
  000e1	e9 00 00 00 00	 jmp	 ??1?$basic_string@DV?$char_traits@D@_STL@@V?$allocator@D@2@@_STL@@QAE@XZ ; _STL::basic_string<char,_STL::char_traits<char>,_STL::allocator<char> >::~basic_string<char,_STL::char_traits<char>,_STL::allocator<char> >
$L102728:
  000e6	b9 14 01 00 00	 mov	 ecx, OFFSET FLAT:_ModifyType2String+276
  000eb	e9 00 00 00 00	 jmp	 ??1?$basic_string@DV?$char_traits@D@_STL@@V?$allocator@D@2@@_STL@@QAE@XZ ; _STL::basic_string<char,_STL::char_traits<char>,_STL::allocator<char> >::~basic_string<char,_STL::char_traits<char>,_STL::allocator<char> >
$L102729:
  000f0	b9 20 01 00 00	 mov	 ecx, OFFSET FLAT:_ModifyType2String+288
  000f5	e9 00 00 00 00	 jmp	 ??1?$basic_string@DV?$char_traits@D@_STL@@V?$allocator@D@2@@_STL@@QAE@XZ ; _STL::basic_string<char,_STL::char_traits<char>,_STL::allocator<char> >::~basic_string<char,_STL::char_traits<char>,_STL::allocator<char> >
$L102730:
  000fa	b9 2c 01 00 00	 mov	 ecx, OFFSET FLAT:_ModifyType2String+300
  000ff	e9 00 00 00 00	 jmp	 ??1?$basic_string@DV?$char_traits@D@_STL@@V?$allocator@D@2@@_STL@@QAE@XZ ; _STL::basic_string<char,_STL::char_traits<char>,_STL::allocator<char> >::~basic_string<char,_STL::char_traits<char>,_STL::allocator<char> >
$L102731:
  00104	b9 38 01 00 00	 mov	 ecx, OFFSET FLAT:_ModifyType2String+312
  00109	e9 00 00 00 00	 jmp	 ??1?$basic_string@DV?$char_traits@D@_STL@@V?$allocator@D@2@@_STL@@QAE@XZ ; _STL::basic_string<char,_STL::char_traits<char>,_STL::allocator<char> >::~basic_string<char,_STL::char_traits<char>,_STL::allocator<char> >
$L102732:
  0010e	b9 44 01 00 00	 mov	 ecx, OFFSET FLAT:_ModifyType2String+324
  00113	e9 00 00 00 00	 jmp	 ??1?$basic_string@DV?$char_traits@D@_STL@@V?$allocator@D@2@@_STL@@QAE@XZ ; _STL::basic_string<char,_STL::char_traits<char>,_STL::allocator<char> >::~basic_string<char,_STL::char_traits<char>,_STL::allocator<char> >
$L102733:
  00118	b9 50 01 00 00	 mov	 ecx, OFFSET FLAT:_ModifyType2String+336
  0011d	e9 00 00 00 00	 jmp	 ??1?$basic_string@DV?$char_traits@D@_STL@@V?$allocator@D@2@@_STL@@QAE@XZ ; _STL::basic_string<char,_STL::char_traits<char>,_STL::allocator<char> >::~basic_string<char,_STL::char_traits<char>,_STL::allocator<char> >
$L102734:
  00122	b9 5c 01 00 00	 mov	 ecx, OFFSET FLAT:_ModifyType2String+348
  00127	e9 00 00 00 00	 jmp	 ??1?$basic_string@DV?$char_traits@D@_STL@@V?$allocator@D@2@@_STL@@QAE@XZ ; _STL::basic_string<char,_STL::char_traits<char>,_STL::allocator<char> >::~basic_string<char,_STL::char_traits<char>,_STL::allocator<char> >
$L102735:
  0012c	b9 68 01 00 00	 mov	 ecx, OFFSET FLAT:_ModifyType2String+360
  00131	e9 00 00 00 00	 jmp	 ??1?$basic_string@DV?$char_traits@D@_STL@@V?$allocator@D@2@@_STL@@QAE@XZ ; _STL::basic_string<char,_STL::char_traits<char>,_STL::allocator<char> >::~basic_string<char,_STL::char_traits<char>,_STL::allocator<char> >
$L102736:
  00136	b9 74 01 00 00	 mov	 ecx, OFFSET FLAT:_ModifyType2String+372
  0013b	e9 00 00 00 00	 jmp	 ??1?$basic_string@DV?$char_traits@D@_STL@@V?$allocator@D@2@@_STL@@QAE@XZ ; _STL::basic_string<char,_STL::char_traits<char>,_STL::allocator<char> >::~basic_string<char,_STL::char_traits<char>,_STL::allocator<char> >
$L102737:
  00140	b9 80 01 00 00	 mov	 ecx, OFFSET FLAT:_ModifyType2String+384
  00145	e9 00 00 00 00	 jmp	 ??1?$basic_string@DV?$char_traits@D@_STL@@V?$allocator@D@2@@_STL@@QAE@XZ ; _STL::basic_string<char,_STL::char_traits<char>,_STL::allocator<char> >::~basic_string<char,_STL::char_traits<char>,_STL::allocator<char> >
$L102738:
  0014a	b9 8c 01 00 00	 mov	 ecx, OFFSET FLAT:_ModifyType2String+396
  0014f	e9 00 00 00 00	 jmp	 ??1?$basic_string@DV?$char_traits@D@_STL@@V?$allocator@D@2@@_STL@@QAE@XZ ; _STL::basic_string<char,_STL::char_traits<char>,_STL::allocator<char> >::~basic_string<char,_STL::char_traits<char>,_STL::allocator<char> >
$L102739:
  00154	b9 98 01 00 00	 mov	 ecx, OFFSET FLAT:_ModifyType2String+408
  00159	e9 00 00 00 00	 jmp	 ??1?$basic_string@DV?$char_traits@D@_STL@@V?$allocator@D@2@@_STL@@QAE@XZ ; _STL::basic_string<char,_STL::char_traits<char>,_STL::allocator<char> >::~basic_string<char,_STL::char_traits<char>,_STL::allocator<char> >
$L102740:
  0015e	b9 a4 01 00 00	 mov	 ecx, OFFSET FLAT:_ModifyType2String+420
  00163	e9 00 00 00 00	 jmp	 ??1?$basic_string@DV?$char_traits@D@_STL@@V?$allocator@D@2@@_STL@@QAE@XZ ; _STL::basic_string<char,_STL::char_traits<char>,_STL::allocator<char> >::~basic_string<char,_STL::char_traits<char>,_STL::allocator<char> >
$L102741:
  00168	b9 b0 01 00 00	 mov	 ecx, OFFSET FLAT:_ModifyType2String+432
  0016d	e9 00 00 00 00	 jmp	 ??1?$basic_string@DV?$char_traits@D@_STL@@V?$allocator@D@2@@_STL@@QAE@XZ ; _STL::basic_string<char,_STL::char_traits<char>,_STL::allocator<char> >::~basic_string<char,_STL::char_traits<char>,_STL::allocator<char> >
$L102742:
  00172	b9 bc 01 00 00	 mov	 ecx, OFFSET FLAT:_ModifyType2String+444
  00177	e9 00 00 00 00	 jmp	 ??1?$basic_string@DV?$char_traits@D@_STL@@V?$allocator@D@2@@_STL@@QAE@XZ ; _STL::basic_string<char,_STL::char_traits<char>,_STL::allocator<char> >::~basic_string<char,_STL::char_traits<char>,_STL::allocator<char> >
$L102743:
  0017c	b9 c8 01 00 00	 mov	 ecx, OFFSET FLAT:_ModifyType2String+456
  00181	e9 00 00 00 00	 jmp	 ??1?$basic_string@DV?$char_traits@D@_STL@@V?$allocator@D@2@@_STL@@QAE@XZ ; _STL::basic_string<char,_STL::char_traits<char>,_STL::allocator<char> >::~basic_string<char,_STL::char_traits<char>,_STL::allocator<char> >
$L102744:
  00186	b9 d4 01 00 00	 mov	 ecx, OFFSET FLAT:_ModifyType2String+468
  0018b	e9 00 00 00 00	 jmp	 ??1?$basic_string@DV?$char_traits@D@_STL@@V?$allocator@D@2@@_STL@@QAE@XZ ; _STL::basic_string<char,_STL::char_traits<char>,_STL::allocator<char> >::~basic_string<char,_STL::char_traits<char>,_STL::allocator<char> >
$L102745:
  00190	b9 e0 01 00 00	 mov	 ecx, OFFSET FLAT:_ModifyType2String+480
  00195	e9 00 00 00 00	 jmp	 ??1?$basic_string@DV?$char_traits@D@_STL@@V?$allocator@D@2@@_STL@@QAE@XZ ; _STL::basic_string<char,_STL::char_traits<char>,_STL::allocator<char> >::~basic_string<char,_STL::char_traits<char>,_STL::allocator<char> >
$L102746:
  0019a	b9 ec 01 00 00	 mov	 ecx, OFFSET FLAT:_ModifyType2String+492
  0019f	e9 00 00 00 00	 jmp	 ??1?$basic_string@DV?$char_traits@D@_STL@@V?$allocator@D@2@@_STL@@QAE@XZ ; _STL::basic_string<char,_STL::char_traits<char>,_STL::allocator<char> >::~basic_string<char,_STL::char_traits<char>,_STL::allocator<char> >
$L102747:
  001a4	b9 f8 01 00 00	 mov	 ecx, OFFSET FLAT:_ModifyType2String+504
  001a9	e9 00 00 00 00	 jmp	 ??1?$basic_string@DV?$char_traits@D@_STL@@V?$allocator@D@2@@_STL@@QAE@XZ ; _STL::basic_string<char,_STL::char_traits<char>,_STL::allocator<char> >::~basic_string<char,_STL::char_traits<char>,_STL::allocator<char> >
$L102748:
  001ae	b9 04 02 00 00	 mov	 ecx, OFFSET FLAT:_ModifyType2String+516
  001b3	e9 00 00 00 00	 jmp	 ??1?$basic_string@DV?$char_traits@D@_STL@@V?$allocator@D@2@@_STL@@QAE@XZ ; _STL::basic_string<char,_STL::char_traits<char>,_STL::allocator<char> >::~basic_string<char,_STL::char_traits<char>,_STL::allocator<char> >
$L102749:
  001b8	b9 10 02 00 00	 mov	 ecx, OFFSET FLAT:_ModifyType2String+528
  001bd	e9 00 00 00 00	 jmp	 ??1?$basic_string@DV?$char_traits@D@_STL@@V?$allocator@D@2@@_STL@@QAE@XZ ; _STL::basic_string<char,_STL::char_traits<char>,_STL::allocator<char> >::~basic_string<char,_STL::char_traits<char>,_STL::allocator<char> >
$L102750:
  001c2	b9 1c 02 00 00	 mov	 ecx, OFFSET FLAT:_ModifyType2String+540
  001c7	e9 00 00 00 00	 jmp	 ??1?$basic_string@DV?$char_traits@D@_STL@@V?$allocator@D@2@@_STL@@QAE@XZ ; _STL::basic_string<char,_STL::char_traits<char>,_STL::allocator<char> >::~basic_string<char,_STL::char_traits<char>,_STL::allocator<char> >
$L102751:
  001cc	b9 28 02 00 00	 mov	 ecx, OFFSET FLAT:_ModifyType2String+552
  001d1	e9 00 00 00 00	 jmp	 ??1?$basic_string@DV?$char_traits@D@_STL@@V?$allocator@D@2@@_STL@@QAE@XZ ; _STL::basic_string<char,_STL::char_traits<char>,_STL::allocator<char> >::~basic_string<char,_STL::char_traits<char>,_STL::allocator<char> >
$L102752:
  001d6	b9 34 02 00 00	 mov	 ecx, OFFSET FLAT:_ModifyType2String+564
  001db	e9 00 00 00 00	 jmp	 ??1?$basic_string@DV?$char_traits@D@_STL@@V?$allocator@D@2@@_STL@@QAE@XZ ; _STL::basic_string<char,_STL::char_traits<char>,_STL::allocator<char> >::~basic_string<char,_STL::char_traits<char>,_STL::allocator<char> >
$L102753:
  001e0	b9 40 02 00 00	 mov	 ecx, OFFSET FLAT:_ModifyType2String+576
  001e5	e9 00 00 00 00	 jmp	 ??1?$basic_string@DV?$char_traits@D@_STL@@V?$allocator@D@2@@_STL@@QAE@XZ ; _STL::basic_string<char,_STL::char_traits<char>,_STL::allocator<char> >::~basic_string<char,_STL::char_traits<char>,_STL::allocator<char> >
$L102754:
  001ea	b9 4c 02 00 00	 mov	 ecx, OFFSET FLAT:_ModifyType2String+588
  001ef	e9 00 00 00 00	 jmp	 ??1?$basic_string@DV?$char_traits@D@_STL@@V?$allocator@D@2@@_STL@@QAE@XZ ; _STL::basic_string<char,_STL::char_traits<char>,_STL::allocator<char> >::~basic_string<char,_STL::char_traits<char>,_STL::allocator<char> >
$L102755:
  001f4	b9 58 02 00 00	 mov	 ecx, OFFSET FLAT:_ModifyType2String+600
  001f9	e9 00 00 00 00	 jmp	 ??1?$basic_string@DV?$char_traits@D@_STL@@V?$allocator@D@2@@_STL@@QAE@XZ ; _STL::basic_string<char,_STL::char_traits<char>,_STL::allocator<char> >::~basic_string<char,_STL::char_traits<char>,_STL::allocator<char> >
$L102756:
  001fe	b9 64 02 00 00	 mov	 ecx, OFFSET FLAT:_ModifyType2String+612
  00203	e9 00 00 00 00	 jmp	 ??1?$basic_string@DV?$char_traits@D@_STL@@V?$allocator@D@2@@_STL@@QAE@XZ ; _STL::basic_string<char,_STL::char_traits<char>,_STL::allocator<char> >::~basic_string<char,_STL::char_traits<char>,_STL::allocator<char> >
$L102757:
  00208	b9 70 02 00 00	 mov	 ecx, OFFSET FLAT:_ModifyType2String+624
  0020d	e9 00 00 00 00	 jmp	 ??1?$basic_string@DV?$char_traits@D@_STL@@V?$allocator@D@2@@_STL@@QAE@XZ ; _STL::basic_string<char,_STL::char_traits<char>,_STL::allocator<char> >::~basic_string<char,_STL::char_traits<char>,_STL::allocator<char> >
$L102758:
  00212	b9 7c 02 00 00	 mov	 ecx, OFFSET FLAT:_ModifyType2String+636
  00217	e9 00 00 00 00	 jmp	 ??1?$basic_string@DV?$char_traits@D@_STL@@V?$allocator@D@2@@_STL@@QAE@XZ ; _STL::basic_string<char,_STL::char_traits<char>,_STL::allocator<char> >::~basic_string<char,_STL::char_traits<char>,_STL::allocator<char> >
$L102759:
  0021c	b9 88 02 00 00	 mov	 ecx, OFFSET FLAT:_ModifyType2String+648
  00221	e9 00 00 00 00	 jmp	 ??1?$basic_string@DV?$char_traits@D@_STL@@V?$allocator@D@2@@_STL@@QAE@XZ ; _STL::basic_string<char,_STL::char_traits<char>,_STL::allocator<char> >::~basic_string<char,_STL::char_traits<char>,_STL::allocator<char> >
$L102760:
  00226	b9 94 02 00 00	 mov	 ecx, OFFSET FLAT:_ModifyType2String+660
  0022b	e9 00 00 00 00	 jmp	 ??1?$basic_string@DV?$char_traits@D@_STL@@V?$allocator@D@2@@_STL@@QAE@XZ ; _STL::basic_string<char,_STL::char_traits<char>,_STL::allocator<char> >::~basic_string<char,_STL::char_traits<char>,_STL::allocator<char> >
$L102761:
  00230	b9 a0 02 00 00	 mov	 ecx, OFFSET FLAT:_ModifyType2String+672
  00235	e9 00 00 00 00	 jmp	 ??1?$basic_string@DV?$char_traits@D@_STL@@V?$allocator@D@2@@_STL@@QAE@XZ ; _STL::basic_string<char,_STL::char_traits<char>,_STL::allocator<char> >::~basic_string<char,_STL::char_traits<char>,_STL::allocator<char> >
$L102762:
  0023a	b9 ac 02 00 00	 mov	 ecx, OFFSET FLAT:_ModifyType2String+684
  0023f	e9 00 00 00 00	 jmp	 ??1?$basic_string@DV?$char_traits@D@_STL@@V?$allocator@D@2@@_STL@@QAE@XZ ; _STL::basic_string<char,_STL::char_traits<char>,_STL::allocator<char> >::~basic_string<char,_STL::char_traits<char>,_STL::allocator<char> >
$L102763:
  00244	b9 b8 02 00 00	 mov	 ecx, OFFSET FLAT:_ModifyType2String+696
  00249	e9 00 00 00 00	 jmp	 ??1?$basic_string@DV?$char_traits@D@_STL@@V?$allocator@D@2@@_STL@@QAE@XZ ; _STL::basic_string<char,_STL::char_traits<char>,_STL::allocator<char> >::~basic_string<char,_STL::char_traits<char>,_STL::allocator<char> >
$L102764:
  0024e	b9 c4 02 00 00	 mov	 ecx, OFFSET FLAT:_ModifyType2String+708
  00253	e9 00 00 00 00	 jmp	 ??1?$basic_string@DV?$char_traits@D@_STL@@V?$allocator@D@2@@_STL@@QAE@XZ ; _STL::basic_string<char,_STL::char_traits<char>,_STL::allocator<char> >::~basic_string<char,_STL::char_traits<char>,_STL::allocator<char> >
$L102765:
  00258	b9 d0 02 00 00	 mov	 ecx, OFFSET FLAT:_ModifyType2String+720
  0025d	e9 00 00 00 00	 jmp	 ??1?$basic_string@DV?$char_traits@D@_STL@@V?$allocator@D@2@@_STL@@QAE@XZ ; _STL::basic_string<char,_STL::char_traits<char>,_STL::allocator<char> >::~basic_string<char,_STL::char_traits<char>,_STL::allocator<char> >
$L102766:
  00262	b9 dc 02 00 00	 mov	 ecx, OFFSET FLAT:_ModifyType2String+732
  00267	e9 00 00 00 00	 jmp	 ??1?$basic_string@DV?$char_traits@D@_STL@@V?$allocator@D@2@@_STL@@QAE@XZ ; _STL::basic_string<char,_STL::char_traits<char>,_STL::allocator<char> >::~basic_string<char,_STL::char_traits<char>,_STL::allocator<char> >
$L102767:
  0026c	b9 e8 02 00 00	 mov	 ecx, OFFSET FLAT:_ModifyType2String+744
  00271	e9 00 00 00 00	 jmp	 ??1?$basic_string@DV?$char_traits@D@_STL@@V?$allocator@D@2@@_STL@@QAE@XZ ; _STL::basic_string<char,_STL::char_traits<char>,_STL::allocator<char> >::~basic_string<char,_STL::char_traits<char>,_STL::allocator<char> >
$L102768:
  00276	b9 f4 02 00 00	 mov	 ecx, OFFSET FLAT:_ModifyType2String+756
  0027b	e9 00 00 00 00	 jmp	 ??1?$basic_string@DV?$char_traits@D@_STL@@V?$allocator@D@2@@_STL@@QAE@XZ ; _STL::basic_string<char,_STL::char_traits<char>,_STL::allocator<char> >::~basic_string<char,_STL::char_traits<char>,_STL::allocator<char> >
$L102769:
  00280	b9 00 03 00 00	 mov	 ecx, OFFSET FLAT:_ModifyType2String+768
  00285	e9 00 00 00 00	 jmp	 ??1?$basic_string@DV?$char_traits@D@_STL@@V?$allocator@D@2@@_STL@@QAE@XZ ; _STL::basic_string<char,_STL::char_traits<char>,_STL::allocator<char> >::~basic_string<char,_STL::char_traits<char>,_STL::allocator<char> >
$L102770:
  0028a	b9 0c 03 00 00	 mov	 ecx, OFFSET FLAT:_ModifyType2String+780
  0028f	e9 00 00 00 00	 jmp	 ??1?$basic_string@DV?$char_traits@D@_STL@@V?$allocator@D@2@@_STL@@QAE@XZ ; _STL::basic_string<char,_STL::char_traits<char>,_STL::allocator<char> >::~basic_string<char,_STL::char_traits<char>,_STL::allocator<char> >
$L102771:
  00294	b9 18 03 00 00	 mov	 ecx, OFFSET FLAT:_ModifyType2String+792
  00299	e9 00 00 00 00	 jmp	 ??1?$basic_string@DV?$char_traits@D@_STL@@V?$allocator@D@2@@_STL@@QAE@XZ ; _STL::basic_string<char,_STL::char_traits<char>,_STL::allocator<char> >::~basic_string<char,_STL::char_traits<char>,_STL::allocator<char> >
$L102772:
  0029e	b9 24 03 00 00	 mov	 ecx, OFFSET FLAT:_ModifyType2String+804
  002a3	e9 00 00 00 00	 jmp	 ??1?$basic_string@DV?$char_traits@D@_STL@@V?$allocator@D@2@@_STL@@QAE@XZ ; _STL::basic_string<char,_STL::char_traits<char>,_STL::allocator<char> >::~basic_string<char,_STL::char_traits<char>,_STL::allocator<char> >
$L102773:
  002a8	b9 30 03 00 00	 mov	 ecx, OFFSET FLAT:_ModifyType2String+816
  002ad	e9 00 00 00 00	 jmp	 ??1?$basic_string@DV?$char_traits@D@_STL@@V?$allocator@D@2@@_STL@@QAE@XZ ; _STL::basic_string<char,_STL::char_traits<char>,_STL::allocator<char> >::~basic_string<char,_STL::char_traits<char>,_STL::allocator<char> >
$L102774:
  002b2	b9 3c 03 00 00	 mov	 ecx, OFFSET FLAT:_ModifyType2String+828
  002b7	e9 00 00 00 00	 jmp	 ??1?$basic_string@DV?$char_traits@D@_STL@@V?$allocator@D@2@@_STL@@QAE@XZ ; _STL::basic_string<char,_STL::char_traits<char>,_STL::allocator<char> >::~basic_string<char,_STL::char_traits<char>,_STL::allocator<char> >
$L102775:
  002bc	b9 48 03 00 00	 mov	 ecx, OFFSET FLAT:_ModifyType2String+840
  002c1	e9 00 00 00 00	 jmp	 ??1?$basic_string@DV?$char_traits@D@_STL@@V?$allocator@D@2@@_STL@@QAE@XZ ; _STL::basic_string<char,_STL::char_traits<char>,_STL::allocator<char> >::~basic_string<char,_STL::char_traits<char>,_STL::allocator<char> >
$L102776:
  002c6	b9 54 03 00 00	 mov	 ecx, OFFSET FLAT:_ModifyType2String+852
  002cb	e9 00 00 00 00	 jmp	 ??1?$basic_string@DV?$char_traits@D@_STL@@V?$allocator@D@2@@_STL@@QAE@XZ ; _STL::basic_string<char,_STL::char_traits<char>,_STL::allocator<char> >::~basic_string<char,_STL::char_traits<char>,_STL::allocator<char> >
$L102777:
  002d0	b9 60 03 00 00	 mov	 ecx, OFFSET FLAT:_ModifyType2String+864
  002d5	e9 00 00 00 00	 jmp	 ??1?$basic_string@DV?$char_traits@D@_STL@@V?$allocator@D@2@@_STL@@QAE@XZ ; _STL::basic_string<char,_STL::char_traits<char>,_STL::allocator<char> >::~basic_string<char,_STL::char_traits<char>,_STL::allocator<char> >
$L102778:
  002da	b9 6c 03 00 00	 mov	 ecx, OFFSET FLAT:_ModifyType2String+876
  002df	e9 00 00 00 00	 jmp	 ??1?$basic_string@DV?$char_traits@D@_STL@@V?$allocator@D@2@@_STL@@QAE@XZ ; _STL::basic_string<char,_STL::char_traits<char>,_STL::allocator<char> >::~basic_string<char,_STL::char_traits<char>,_STL::allocator<char> >
$L102779:
  002e4	b9 78 03 00 00	 mov	 ecx, OFFSET FLAT:_ModifyType2String+888
  002e9	e9 00 00 00 00	 jmp	 ??1?$basic_string@DV?$char_traits@D@_STL@@V?$allocator@D@2@@_STL@@QAE@XZ ; _STL::basic_string<char,_STL::char_traits<char>,_STL::allocator<char> >::~basic_string<char,_STL::char_traits<char>,_STL::allocator<char> >
$L102780:
  002ee	b9 84 03 00 00	 mov	 ecx, OFFSET FLAT:_ModifyType2String+900
  002f3	e9 00 00 00 00	 jmp	 ??1?$basic_string@DV?$char_traits@D@_STL@@V?$allocator@D@2@@_STL@@QAE@XZ ; _STL::basic_string<char,_STL::char_traits<char>,_STL::allocator<char> >::~basic_string<char,_STL::char_traits<char>,_STL::allocator<char> >
$L102781:
  002f8	b9 90 03 00 00	 mov	 ecx, OFFSET FLAT:_ModifyType2String+912
  002fd	e9 00 00 00 00	 jmp	 ??1?$basic_string@DV?$char_traits@D@_STL@@V?$allocator@D@2@@_STL@@QAE@XZ ; _STL::basic_string<char,_STL::char_traits<char>,_STL::allocator<char> >::~basic_string<char,_STL::char_traits<char>,_STL::allocator<char> >
$L102782:
  00302	b9 9c 03 00 00	 mov	 ecx, OFFSET FLAT:_ModifyType2String+924
  00307	e9 00 00 00 00	 jmp	 ??1?$basic_string@DV?$char_traits@D@_STL@@V?$allocator@D@2@@_STL@@QAE@XZ ; _STL::basic_string<char,_STL::char_traits<char>,_STL::allocator<char> >::~basic_string<char,_STL::char_traits<char>,_STL::allocator<char> >
$L102783:
  0030c	b9 a8 03 00 00	 mov	 ecx, OFFSET FLAT:_ModifyType2String+936
  00311	e9 00 00 00 00	 jmp	 ??1?$basic_string@DV?$char_traits@D@_STL@@V?$allocator@D@2@@_STL@@QAE@XZ ; _STL::basic_string<char,_STL::char_traits<char>,_STL::allocator<char> >::~basic_string<char,_STL::char_traits<char>,_STL::allocator<char> >
$L102784:
  00316	b9 b4 03 00 00	 mov	 ecx, OFFSET FLAT:_ModifyType2String+948
  0031b	e9 00 00 00 00	 jmp	 ??1?$basic_string@DV?$char_traits@D@_STL@@V?$allocator@D@2@@_STL@@QAE@XZ ; _STL::basic_string<char,_STL::char_traits<char>,_STL::allocator<char> >::~basic_string<char,_STL::char_traits<char>,_STL::allocator<char> >
$L102785:
  00320	b9 c0 03 00 00	 mov	 ecx, OFFSET FLAT:_ModifyType2String+960
  00325	e9 00 00 00 00	 jmp	 ??1?$basic_string@DV?$char_traits@D@_STL@@V?$allocator@D@2@@_STL@@QAE@XZ ; _STL::basic_string<char,_STL::char_traits<char>,_STL::allocator<char> >::~basic_string<char,_STL::char_traits<char>,_STL::allocator<char> >
__ehhandler$_$E79:
  0032a	b8 00 00 00 00	 mov	 eax, OFFSET FLAT:$T103280
  0032f	e9 00 00 00 00	 jmp	 ___CxxFrameHandler
text$x	ENDS
_$E79	ENDP
EXTRN	??_M@YGXPAXIHP6EX0@Z@Z:NEAR			; `eh vector destructor iterator'
; Function compile flags: /Ogsy
;	COMDAT _$E80
text$yd	SEGMENT
_$E80	PROC NEAR					; COMDAT
  00000	68 00 00 00 00	 push	 OFFSET FLAT:??1?$basic_string@DV?$char_traits@D@_STL@@V?$allocator@D@2@@_STL@@QAE@XZ ; _STL::basic_string<char,_STL::char_traits<char>,_STL::allocator<char> >::~basic_string<char,_STL::char_traits<char>,_STL::allocator<char> >
  00005	6a 52		 push	 82			; 00000052H
  00007	6a 0c		 push	 12			; 0000000cH
  00009	68 00 00 00 00	 push	 OFFSET FLAT:_ModifyType2String
  0000e	e8 00 00 00 00	 call	 ??_M@YGXPAXIHP6EX0@Z@Z
  00013	c3		 ret	 0
_$E80	ENDP
text$yd	ENDS
_BSS	SEGMENT
_ModifyType2String DB 03d8H DUP (?)
_BSS	ENDS
END
