; Listing generated by Microsoft (R) Optimizing Compiler Version 13.10.3077 

	TITLE	\darkeden\Designed_Common\Project\Client\Packet\Gpackets\GCOtherStoreInfo.cpp
	.386P
include listing.inc
if @Version gt 510
.model FLAT
else
_TEXT	SEGMENT PARA USE32 PUBLIC 'CODE'
_TEXT	ENDS
_DATA	SEGMENT DWORD USE32 PUBLIC 'DATA'
_DATA	ENDS
CONST	SEGMENT DWORD USE32 PUBLIC 'CONST'
CONST	ENDS
_BSS	SEGMENT DWORD USE32 PUBLIC 'BSS'
_BSS	ENDS
$$SYMBOLS	SEGMENT BYTE USE32 'DEBSYM'
$$SYMBOLS	ENDS
$$TYPES	SEGMENT BYTE USE32 'DEBTYP'
$$TYPES	ENDS
_TLS	SEGMENT DWORD USE32 PUBLIC 'TLS'
_TLS	ENDS
;	COMDAT ??_C@_0CA@NDINADEE@SocketOutputStream?$CIm_BufferLen?3?$AA@
CONST	SEGMENT DWORD USE32 PUBLIC 'CONST'
CONST	ENDS
;	COMDAT ??_C@_08LIHEOLAN@?0m_Head?3?$AA@
CONST	SEGMENT DWORD USE32 PUBLIC 'CONST'
CONST	ENDS
;	COMDAT ??_C@_08PCEHPGHK@?0m_Tail?3?$AA@
CONST	SEGMENT DWORD USE32 PUBLIC 'CONST'
CONST	ENDS
;	COMDAT ??_C@_01PKGAHCOL@?$CJ?$AA@
CONST	SEGMENT DWORD USE32 PUBLIC 'CONST'
CONST	ENDS
;	COMDAT ??_C@_0N@GOPDCEEB@basic_string?$AA@
CONST	SEGMENT DWORD USE32 PUBLIC 'CONST'
CONST	ENDS
xdata$x	SEGMENT DWORD USE32 PUBLIC 'CONST'
xdata$x	ENDS
rdata$r	SEGMENT DWORD USE32 PUBLIC 'CONST'
rdata$r	ENDS
text$yc	SEGMENT PARA USE32 PUBLIC 'CODE'
text$yc	ENDS
CRT$XCA	SEGMENT DWORD USE32 PUBLIC 'DATA'
CRT$XCA	ENDS
CRT$XCU	SEGMENT DWORD USE32 PUBLIC 'DATA'
CRT$XCU	ENDS
CRT$XCL	SEGMENT DWORD USE32 PUBLIC 'DATA'
CRT$XCL	ENDS
CRT$XCC	SEGMENT DWORD USE32 PUBLIC 'DATA'
CRT$XCC	ENDS
CRT$XCZ	SEGMENT DWORD USE32 PUBLIC 'DATA'
CRT$XCZ	ENDS
text$yd	SEGMENT PARA USE32 PUBLIC 'CODE'
text$yd	ENDS
;	COMDAT ?getHost@SocketImpl@@QBE?AV?$basic_string@DV?$char_traits@D@_STL@@V?$allocator@D@2@@_STL@@XZ
_TEXT	SEGMENT PARA USE32 PUBLIC 'CODE'
_TEXT	ENDS
;	COMDAT ?getPort@SocketImpl@@QBEIXZ
_TEXT	SEGMENT PARA USE32 PUBLIC 'CODE'
_TEXT	ENDS
;	COMDAT ?isValid@SocketImpl@@QBE_NXZ
_TEXT	SEGMENT PARA USE32 PUBLIC 'CODE'
_TEXT	ENDS
;	COMDAT ?getSOCKET@SocketImpl@@QBEIXZ
_TEXT	SEGMENT PARA USE32 PUBLIC 'CODE'
_TEXT	ENDS
;	COMDAT ?read@SocketInputStream@@QAEIAAE@Z
_TEXT	SEGMENT PARA USE32 PUBLIC 'CODE'
_TEXT	ENDS
;	COMDAT ?read@SocketInputStream@@QAEIAAK@Z
_TEXT	SEGMENT PARA USE32 PUBLIC 'CODE'
_TEXT	ENDS
;	COMDAT ?write@SocketOutputStream@@QAEIE@Z
_TEXT	SEGMENT PARA USE32 PUBLIC 'CODE'
_TEXT	ENDS
;	COMDAT ?write@SocketOutputStream@@QAEIG@Z
_TEXT	SEGMENT PARA USE32 PUBLIC 'CODE'
_TEXT	ENDS
;	COMDAT ?write@SocketOutputStream@@QAEII@Z
_TEXT	SEGMENT PARA USE32 PUBLIC 'CODE'
_TEXT	ENDS
;	COMDAT ?write@SocketOutputStream@@QAEIK@Z
_TEXT	SEGMENT PARA USE32 PUBLIC 'CODE'
_TEXT	ENDS
;	COMDAT ??1Packet@@UAE@XZ
_TEXT	SEGMENT PARA USE32 PUBLIC 'CODE'
_TEXT	ENDS
;	COMDAT ?read@Packet@@UAEXPAVSocket@@@Z
_TEXT	SEGMENT PARA USE32 PUBLIC 'CODE'
_TEXT	ENDS
;	COMDAT ?write@Packet@@UBEXPAVSocket@@@Z
_TEXT	SEGMENT PARA USE32 PUBLIC 'CODE'
_TEXT	ENDS
;	COMDAT ??_GPacket@@UAEPAXI@Z
_TEXT	SEGMENT PARA USE32 PUBLIC 'CODE'
_TEXT	ENDS
;	COMDAT ??0UnsupportedError@@QAE@ABV0@@Z
_TEXT	SEGMENT PARA USE32 PUBLIC 'CODE'
_TEXT	ENDS
;	COMDAT ??0Error@@QAE@ABV0@@Z
_TEXT	SEGMENT PARA USE32 PUBLIC 'CODE'
_TEXT	ENDS
;	COMDAT ??0Throwable@@QAE@ABV0@@Z
_TEXT	SEGMENT PARA USE32 PUBLIC 'CODE'
_TEXT	ENDS
;	COMDAT ??1PacketFactory@@UAE@XZ
_TEXT	SEGMENT PARA USE32 PUBLIC 'CODE'
_TEXT	ENDS
;	COMDAT ??_GPacketFactory@@UAEPAXI@Z
_TEXT	SEGMENT PARA USE32 PUBLIC 'CODE'
_TEXT	ENDS
;	COMDAT ?getMaxSize@SubItemInfo@@SAIXZ
_TEXT	SEGMENT PARA USE32 PUBLIC 'CODE'
_TEXT	ENDS
;	COMDAT ?getSize@PCItemInfo@@QBEIXZ
_TEXT	SEGMENT PARA USE32 PUBLIC 'CODE'
_TEXT	ENDS
;	COMDAT ?getMaxSize@PCItemInfo@@SAIXZ
_TEXT	SEGMENT PARA USE32 PUBLIC 'CODE'
_TEXT	ENDS
;	COMDAT ??0StoreItemInfo@@QAE@XZ
_TEXT	SEGMENT PARA USE32 PUBLIC 'CODE'
_TEXT	ENDS
;	COMDAT ?getMaxSize@StoreItemInfo@@SAIXZ
_TEXT	SEGMENT PARA USE32 PUBLIC 'CODE'
_TEXT	ENDS
;	COMDAT ??_GStoreItemInfo@@UAEPAXI@Z
_TEXT	SEGMENT PARA USE32 PUBLIC 'CODE'
_TEXT	ENDS
;	COMDAT ??1StoreItemInfo@@UAE@XZ
_TEXT	SEGMENT PARA USE32 PUBLIC 'CODE'
_TEXT	ENDS
;	COMDAT ?setOpen@StoreOutlook@@QAEXE@Z
_TEXT	SEGMENT PARA USE32 PUBLIC 'CODE'
_TEXT	ENDS
;	COMDAT ?setSign@StoreOutlook@@QAEXABV?$basic_string@DV?$char_traits@D@_STL@@V?$allocator@D@2@@_STL@@@Z
_TEXT	SEGMENT PARA USE32 PUBLIC 'CODE'
_TEXT	ENDS
;	COMDAT ??0StoreInfo@@QAE@XZ
_TEXT	SEGMENT PARA USE32 PUBLIC 'CODE'
_TEXT	ENDS
;	COMDAT ?getMaxSize@StoreInfo@@SAIXZ
_TEXT	SEGMENT PARA USE32 PUBLIC 'CODE'
_TEXT	ENDS
;	COMDAT ??0GCOtherStoreInfo@@QAE@XZ
_TEXT	SEGMENT PARA USE32 PUBLIC 'CODE'
_TEXT	ENDS
;	COMDAT ?getPacketID@GCOtherStoreInfo@@UBEGXZ
_TEXT	SEGMENT PARA USE32 PUBLIC 'CODE'
_TEXT	ENDS
;	COMDAT ?getPacketSize@GCOtherStoreInfo@@UBEIXZ
_TEXT	SEGMENT PARA USE32 PUBLIC 'CODE'
_TEXT	ENDS
;	COMDAT ??_GGCOtherStoreInfo@@UAEPAXI@Z
_TEXT	SEGMENT PARA USE32 PUBLIC 'CODE'
_TEXT	ENDS
;	COMDAT ??0Packet@@QAE@XZ
_TEXT	SEGMENT PARA USE32 PUBLIC 'CODE'
_TEXT	ENDS
;	COMDAT ??1GCOtherStoreInfo@@UAE@XZ
_TEXT	SEGMENT PARA USE32 PUBLIC 'CODE'
_TEXT	ENDS
;	COMDAT ?read@GCOtherStoreInfo@@UAEXAAVSocketInputStream@@@Z
_TEXT	SEGMENT PARA USE32 PUBLIC 'CODE'
_TEXT	ENDS
;	COMDAT ??_GStoreInfo@@QAEPAXI@Z
_TEXT	SEGMENT PARA USE32 PUBLIC 'CODE'
_TEXT	ENDS
;	COMDAT ??1StoreInfo@@QAE@XZ
_TEXT	SEGMENT PARA USE32 PUBLIC 'CODE'
_TEXT	ENDS
;	COMDAT ?write@GCOtherStoreInfo@@UBEXAAVSocketOutputStream@@@Z
_TEXT	SEGMENT PARA USE32 PUBLIC 'CODE'
_TEXT	ENDS
;	COMDAT ?execute@GCOtherStoreInfo@@UAEXPAVPlayer@@@Z
_TEXT	SEGMENT PARA USE32 PUBLIC 'CODE'
_TEXT	ENDS
;	COMDAT ?eq@?$__char_traits_base@DH@_STL@@SA_NABD0@Z
_TEXT	SEGMENT PARA USE32 PUBLIC 'CODE'
_TEXT	ENDS
;	COMDAT ?not_eof@?$__char_traits_base@DH@_STL@@SAHABH@Z
_TEXT	SEGMENT PARA USE32 PUBLIC 'CODE'
_TEXT	ENDS
;	COMDAT ?eq_int_type@?$__char_traits_base@DH@_STL@@SA_NABH0@Z
_TEXT	SEGMENT PARA USE32 PUBLIC 'CODE'
_TEXT	ENDS
;	COMDAT ?get_allocator@?$basic_string@DV?$char_traits@D@_STL@@V?$allocator@D@2@@_STL@@QBE?AV?$allocator@D@2@XZ
_TEXT	SEGMENT PARA USE32 PUBLIC 'CODE'
_TEXT	ENDS
;	COMDAT ?_M_terminate_string@?$basic_string@DV?$char_traits@D@_STL@@V?$allocator@D@2@@_STL@@AAEXXZ
_TEXT	SEGMENT PARA USE32 PUBLIC 'CODE'
_TEXT	ENDS
;	COMDAT ?size@?$basic_string@DV?$char_traits@D@_STL@@V?$allocator@D@2@@_STL@@QBEIXZ
_TEXT	SEGMENT PARA USE32 PUBLIC 'CODE'
_TEXT	ENDS
;	COMDAT ?c_str@?$basic_string@DV?$char_traits@D@_STL@@V?$allocator@D@2@@_STL@@QBEPBDXZ
_TEXT	SEGMENT PARA USE32 PUBLIC 'CODE'
_TEXT	ENDS
;	COMDAT ??0?$_String_base@DV?$allocator@D@_STL@@@_STL@@QAE@ABV?$allocator@D@1@@Z
_TEXT	SEGMENT PARA USE32 PUBLIC 'CODE'
_TEXT	ENDS
;	COMDAT ?allocate@?$allocator@D@_STL@@QAEPADIPBX@Z
_TEXT	SEGMENT PARA USE32 PUBLIC 'CODE'
_TEXT	ENDS
;	COMDAT ??0?$fpos@H@_STL@@QAE@J@Z
_TEXT	SEGMENT PARA USE32 PUBLIC 'CODE'
_TEXT	ENDS
;	COMDAT ??B?$fpos@H@_STL@@QBEJXZ
_TEXT	SEGMENT PARA USE32 PUBLIC 'CODE'
_TEXT	ENDS
;	COMDAT ?state@?$fpos@H@_STL@@QBEHXZ
_TEXT	SEGMENT PARA USE32 PUBLIC 'CODE'
_TEXT	ENDS
;	COMDAT ?is_open@?$basic_filebuf@DV?$char_traits@D@_STL@@@_STL@@QBE_NXZ
_TEXT	SEGMENT PARA USE32 PUBLIC 'CODE'
_TEXT	ENDS
;	COMDAT ?_M_seek_return@?$basic_filebuf@DV?$char_traits@D@_STL@@@_STL@@AAE?AV?$fpos@H@2@JH@Z
_TEXT	SEGMENT PARA USE32 PUBLIC 'CODE'
_TEXT	ENDS
;	COMDAT ??0?$list@V?$basic_string@DV?$char_traits@D@_STL@@V?$allocator@D@2@@_STL@@V?$allocator@V?$basic_string@DV?$char_traits@D@_STL@@V?$allocator@D@2@@_STL@@@2@@_STL@@QAE@ABV01@@Z
_TEXT	SEGMENT PARA USE32 PUBLIC 'CODE'
_TEXT	ENDS
;	COMDAT ??0?$_Filebuf_Tmp_Buf@D@_STL@@QAE@H@Z
_TEXT	SEGMENT PARA USE32 PUBLIC 'CODE'
_TEXT	ENDS
;	COMDAT ??1?$_Filebuf_Tmp_Buf@D@_STL@@QAE@XZ
_TEXT	SEGMENT PARA USE32 PUBLIC 'CODE'
_TEXT	ENDS
;	COMDAT ?begin@?$list@GV?$allocator@G@_STL@@@_STL@@QAE?AU?$_List_iterator@GU?$_Nonconst_traits@G@_STL@@@2@XZ
_TEXT	SEGMENT PARA USE32 PUBLIC 'CODE'
_TEXT	ENDS
;	COMDAT ?end@?$list@GV?$allocator@G@_STL@@@_STL@@QAE?AU?$_List_iterator@GU?$_Nonconst_traits@G@_STL@@@2@XZ
_TEXT	SEGMENT PARA USE32 PUBLIC 'CODE'
_TEXT	ENDS
;	COMDAT ?empty@?$list@GV?$allocator@G@_STL@@@_STL@@QBE_NXZ
_TEXT	SEGMENT PARA USE32 PUBLIC 'CODE'
_TEXT	ENDS
;	COMDAT ?size@?$list@GV?$allocator@G@_STL@@@_STL@@QBEIXZ
_TEXT	SEGMENT PARA USE32 PUBLIC 'CODE'
_TEXT	ENDS
;	COMDAT ?front@?$list@GV?$allocator@G@_STL@@@_STL@@QAEAAGXZ
_TEXT	SEGMENT PARA USE32 PUBLIC 'CODE'
_TEXT	ENDS
;	COMDAT ?front@?$list@GV?$allocator@G@_STL@@@_STL@@QBEABGXZ
_TEXT	SEGMENT PARA USE32 PUBLIC 'CODE'
_TEXT	ENDS
;	COMDAT ?push_back@?$list@GV?$allocator@G@_STL@@@_STL@@QAEXABG@Z
_TEXT	SEGMENT PARA USE32 PUBLIC 'CODE'
_TEXT	ENDS
;	COMDAT ?erase@?$list@GV?$allocator@G@_STL@@@_STL@@QAE?AU?$_List_iterator@GU?$_Nonconst_traits@G@_STL@@@2@U32@@Z
_TEXT	SEGMENT PARA USE32 PUBLIC 'CODE'
_TEXT	ENDS
;	COMDAT ?pop_front@?$list@GV?$allocator@G@_STL@@@_STL@@QAEXXZ
_TEXT	SEGMENT PARA USE32 PUBLIC 'CODE'
_TEXT	ENDS
;	COMDAT ?front@?$list@PAVSubItemInfo@@V?$allocator@PAVSubItemInfo@@@_STL@@@_STL@@QAEAAPAVSubItemInfo@@XZ
_TEXT	SEGMENT PARA USE32 PUBLIC 'CODE'
_TEXT	ENDS
;	COMDAT ?push_back@?$list@PAVSubItemInfo@@V?$allocator@PAVSubItemInfo@@@_STL@@@_STL@@QAEXABQAVSubItemInfo@@@Z
_TEXT	SEGMENT PARA USE32 PUBLIC 'CODE'
_TEXT	ENDS
;	COMDAT ?pop_front@?$list@PAVSubItemInfo@@V?$allocator@PAVSubItemInfo@@@_STL@@@_STL@@QAEXXZ
_TEXT	SEGMENT PARA USE32 PUBLIC 'CODE'
_TEXT	ENDS
;	COMDAT ??0?$_List_iterator@GU?$_Nonconst_traits@G@_STL@@@_STL@@QAE@ABU01@@Z
_TEXT	SEGMENT PARA USE32 PUBLIC 'CODE'
_TEXT	ENDS
;	COMDAT ??A?$vector@VStoreItemInfo@@V?$allocator@VStoreItemInfo@@@_STL@@@_STL@@QAEAAVStoreItemInfo@@I@Z
_TEXT	SEGMENT PARA USE32 PUBLIC 'CODE'
_TEXT	ENDS
;	COMDAT ??0?$vector@VStoreItemInfo@@V?$allocator@VStoreItemInfo@@@_STL@@@_STL@@QAE@I@Z
_TEXT	SEGMENT PARA USE32 PUBLIC 'CODE'
_TEXT	ENDS
;	COMDAT ??1?$vector@VStoreItemInfo@@V?$allocator@VStoreItemInfo@@@_STL@@@_STL@@QAE@XZ
_TEXT	SEGMENT PARA USE32 PUBLIC 'CODE'
_TEXT	ENDS
;	COMDAT ?_M_terminate_string_aux@?$basic_string@DV?$char_traits@D@_STL@@V?$allocator@D@2@@_STL@@AAEXABU__true_type@2@@Z
_TEXT	SEGMENT PARA USE32 PUBLIC 'CODE'
_TEXT	ENDS
;	COMDAT ??0?$allocator@D@_STL@@QAE@ABV01@@Z
_TEXT	SEGMENT PARA USE32 PUBLIC 'CODE'
_TEXT	ENDS
;	COMDAT ??0?$_STLP_alloc_proxy@PADDV?$allocator@D@_STL@@@_STL@@QAE@ABV?$allocator@D@1@PAD@Z
_TEXT	SEGMENT PARA USE32 PUBLIC 'CODE'
_TEXT	ENDS
;	COMDAT ?state@?$fpos@H@_STL@@QAEXH@Z
_TEXT	SEGMENT PARA USE32 PUBLIC 'CODE'
_TEXT	ENDS
;	COMDAT ?get_allocator@?$_List_base@V?$basic_string@DV?$char_traits@D@_STL@@V?$allocator@D@2@@_STL@@V?$allocator@V?$basic_string@DV?$char_traits@D@_STL@@V?$allocator@D@2@@_STL@@@2@@_STL@@QBE?AV?$allocator@V?$basic_string@DV?$char_traits@D@_STL@@V?$allocator@D@2@@_STL@@@2@XZ
_TEXT	SEGMENT PARA USE32 PUBLIC 'CODE'
_TEXT	ENDS
;	COMDAT ?begin@?$list@GV?$allocator@G@_STL@@@_STL@@QBE?AU?$_List_iterator@GU?$_Const_traits@G@_STL@@@2@XZ
_TEXT	SEGMENT PARA USE32 PUBLIC 'CODE'
_TEXT	ENDS
;	COMDAT ?end@?$list@GV?$allocator@G@_STL@@@_STL@@QBE?AU?$_List_iterator@GU?$_Const_traits@G@_STL@@@2@XZ
_TEXT	SEGMENT PARA USE32 PUBLIC 'CODE'
_TEXT	ENDS
;	COMDAT ?insert@?$list@GV?$allocator@G@_STL@@@_STL@@QAE?AU?$_List_iterator@GU?$_Nonconst_traits@G@_STL@@@2@U32@ABG@Z
_TEXT	SEGMENT PARA USE32 PUBLIC 'CODE'
_TEXT	ENDS
;	COMDAT ?deallocate@?$allocator@U?$_List_node@G@_STL@@@_STL@@QAEXPAU?$_List_node@G@2@I@Z
_TEXT	SEGMENT PARA USE32 PUBLIC 'CODE'
_TEXT	ENDS
;	COMDAT ?begin@?$list@PAVSubItemInfo@@V?$allocator@PAVSubItemInfo@@@_STL@@@_STL@@QAE?AU?$_List_iterator@PAVSubItemInfo@@U?$_Nonconst_traits@PAVSubItemInfo@@@_STL@@@2@XZ
_TEXT	SEGMENT PARA USE32 PUBLIC 'CODE'
_TEXT	ENDS
;	COMDAT ?end@?$list@PAVSubItemInfo@@V?$allocator@PAVSubItemInfo@@@_STL@@@_STL@@QAE?AU?$_List_iterator@PAVSubItemInfo@@U?$_Nonconst_traits@PAVSubItemInfo@@@_STL@@@2@XZ
_TEXT	SEGMENT PARA USE32 PUBLIC 'CODE'
_TEXT	ENDS
;	COMDAT ?insert@?$list@PAVSubItemInfo@@V?$allocator@PAVSubItemInfo@@@_STL@@@_STL@@QAE?AU?$_List_iterator@PAVSubItemInfo@@U?$_Nonconst_traits@PAVSubItemInfo@@@_STL@@@2@U32@ABQAVSubItemInfo@@@Z
_TEXT	SEGMENT PARA USE32 PUBLIC 'CODE'
_TEXT	ENDS
;	COMDAT ?erase@?$list@PAVSubItemInfo@@V?$allocator@PAVSubItemInfo@@@_STL@@@_STL@@QAE?AU?$_List_iterator@PAVSubItemInfo@@U?$_Nonconst_traits@PAVSubItemInfo@@@_STL@@@2@U32@@Z
_TEXT	SEGMENT PARA USE32 PUBLIC 'CODE'
_TEXT	ENDS
;	COMDAT ??0?$_List_iterator@GU?$_Nonconst_traits@G@_STL@@@_STL@@QAE@PAU?$_List_node@G@1@@Z
_TEXT	SEGMENT PARA USE32 PUBLIC 'CODE'
_TEXT	ENDS
;	COMDAT ??D?$_List_iterator@GU?$_Nonconst_traits@G@_STL@@@_STL@@QBEAAGXZ
_TEXT	SEGMENT PARA USE32 PUBLIC 'CODE'
_TEXT	ENDS
;	COMDAT ?begin@?$vector@VStoreItemInfo@@V?$allocator@VStoreItemInfo@@@_STL@@@_STL@@QAEPAVStoreItemInfo@@XZ
_TEXT	SEGMENT PARA USE32 PUBLIC 'CODE'
_TEXT	ENDS
;	COMDAT ??0?$_Vector_base@VStoreItemInfo@@V?$allocator@VStoreItemInfo@@@_STL@@@_STL@@QAE@IABV?$allocator@VStoreItemInfo@@@1@@Z
_TEXT	SEGMENT PARA USE32 PUBLIC 'CODE'
_TEXT	ENDS
;	COMDAT ??1?$_Vector_base@VStoreItemInfo@@V?$allocator@VStoreItemInfo@@@_STL@@@_STL@@QAE@XZ
_TEXT	SEGMENT PARA USE32 PUBLIC 'CODE'
_TEXT	ENDS
;	COMDAT ??0?$allocator@VStoreItemInfo@@@_STL@@QAE@XZ
_TEXT	SEGMENT PARA USE32 PUBLIC 'CODE'
_TEXT	ENDS
;	COMDAT ??1?$allocator@VStoreItemInfo@@@_STL@@QAE@XZ
_TEXT	SEGMENT PARA USE32 PUBLIC 'CODE'
_TEXT	ENDS
;	COMDAT ??D?$_List_iterator@GU?$_Const_traits@G@_STL@@@_STL@@QBEABGXZ
_TEXT	SEGMENT PARA USE32 PUBLIC 'CODE'
_TEXT	ENDS
;	COMDAT ??D?$_List_iterator@PAVSubItemInfo@@U?$_Nonconst_traits@PAVSubItemInfo@@@_STL@@@_STL@@QBEAAPAVSubItemInfo@@XZ
_TEXT	SEGMENT PARA USE32 PUBLIC 'CODE'
_TEXT	ENDS
;	COMDAT ??1?$_STLP_alloc_proxy@PAVStoreItemInfo@@V1@V?$allocator@VStoreItemInfo@@@_STL@@@_STL@@QAE@XZ
_TEXT	SEGMENT PARA USE32 PUBLIC 'CODE'
_TEXT	ENDS
;	COMDAT ?_M_create_node@?$list@GV?$allocator@G@_STL@@@_STL@@IAEPAU?$_List_node@G@2@ABG@Z
_TEXT	SEGMENT PARA USE32 PUBLIC 'CODE'
_TEXT	ENDS
;	COMDAT ?_M_create_node@?$list@PAVSubItemInfo@@V?$allocator@PAVSubItemInfo@@@_STL@@@_STL@@IAEPAU?$_List_node@PAVSubItemInfo@@@2@ABQAVSubItemInfo@@@Z
_TEXT	SEGMENT PARA USE32 PUBLIC 'CODE'
_TEXT	ENDS
;	COMDAT ?deallocate@?$allocator@U?$_List_node@PAVSubItemInfo@@@_STL@@@_STL@@QAEXPAU?$_List_node@PAVSubItemInfo@@@2@I@Z
_TEXT	SEGMENT PARA USE32 PUBLIC 'CODE'
_TEXT	ENDS
;	COMDAT ?allocate@?$allocator@VStoreItemInfo@@@_STL@@QAEPAVStoreItemInfo@@IPBX@Z
_TEXT	SEGMENT PARA USE32 PUBLIC 'CODE'
_TEXT	ENDS
;	COMDAT ?deallocate@?$allocator@VStoreItemInfo@@@_STL@@QAEXPAVStoreItemInfo@@I@Z
_TEXT	SEGMENT PARA USE32 PUBLIC 'CODE'
_TEXT	ENDS
;	COMDAT ??0?$_STLP_alloc_proxy@PAVStoreItemInfo@@V1@V?$allocator@VStoreItemInfo@@@_STL@@@_STL@@QAE@ABV?$allocator@VStoreItemInfo@@@1@PAVStoreItemInfo@@@Z
_TEXT	SEGMENT PARA USE32 PUBLIC 'CODE'
_TEXT	ENDS
;	COMDAT ??0?$_List_iterator@GU?$_Const_traits@G@_STL@@@_STL@@QAE@PAU?$_List_node@G@1@@Z
_TEXT	SEGMENT PARA USE32 PUBLIC 'CODE'
_TEXT	ENDS
;	COMDAT ??0?$_List_iterator@PAVSubItemInfo@@U?$_Nonconst_traits@PAVSubItemInfo@@@_STL@@@_STL@@QAE@PAU?$_List_node@PAVSubItemInfo@@@1@@Z
_TEXT	SEGMENT PARA USE32 PUBLIC 'CODE'
_TEXT	ENDS
;	COMDAT ?allocate@?$allocator@U?$_List_node@G@_STL@@@_STL@@QAEPAU?$_List_node@G@2@IPBX@Z
_TEXT	SEGMENT PARA USE32 PUBLIC 'CODE'
_TEXT	ENDS
;	COMDAT ?allocate@?$allocator@U?$_List_node@PAVSubItemInfo@@@_STL@@@_STL@@QAEPAU?$_List_node@PAVSubItemInfo@@@2@IPBX@Z
_TEXT	SEGMENT PARA USE32 PUBLIC 'CODE'
_TEXT	ENDS
;	COMDAT ??0?$allocator@VStoreItemInfo@@@_STL@@QAE@ABV01@@Z
_TEXT	SEGMENT PARA USE32 PUBLIC 'CODE'
_TEXT	ENDS
;	COMDAT ??$_M_range_initialize@PBD@?$basic_string@DV?$char_traits@D@_STL@@V?$allocator@D@2@@_STL@@AAEXPBD0@Z
_TEXT	SEGMENT PARA USE32 PUBLIC 'CODE'
_TEXT	ENDS
;	COMDAT ??$_M_range_initialize@PAD@?$basic_string@DV?$char_traits@D@_STL@@V?$allocator@D@2@@_STL@@AAEXPAD0@Z
_TEXT	SEGMENT PARA USE32 PUBLIC 'CODE'
_TEXT	ENDS
;	COMDAT ?close@?$basic_filebuf@DV?$char_traits@D@_STL@@@_STL@@QAEPAV12@XZ
_TEXT	SEGMENT PARA USE32 PUBLIC 'CODE'
_TEXT	ENDS
;	COMDAT ?_M_exit_input_mode@?$basic_filebuf@DV?$char_traits@D@_STL@@@_STL@@AAEXXZ
_TEXT	SEGMENT PARA USE32 PUBLIC 'CODE'
_TEXT	ENDS
;	COMDAT ?_M_switch_to_output_mode@?$basic_filebuf@DV?$char_traits@D@_STL@@@_STL@@AAE_NXZ
_TEXT	SEGMENT PARA USE32 PUBLIC 'CODE'
_TEXT	ENDS
;	COMDAT ?_M_output_error@?$basic_filebuf@DV?$char_traits@D@_STL@@@_STL@@AAEHXZ
_TEXT	SEGMENT PARA USE32 PUBLIC 'CODE'
_TEXT	ENDS
;	COMDAT ?_M_allocate_buffers@?$basic_filebuf@DV?$char_traits@D@_STL@@@_STL@@AAE_NPADH@Z
_TEXT	SEGMENT PARA USE32 PUBLIC 'CODE'
_TEXT	ENDS
;	COMDAT ?_M_deallocate_buffers@?$basic_filebuf@DV?$char_traits@D@_STL@@@_STL@@AAEXXZ
_TEXT	SEGMENT PARA USE32 PUBLIC 'CODE'
_TEXT	ENDS
;	COMDAT ?_M_seek_init@?$basic_filebuf@DV?$char_traits@D@_STL@@@_STL@@AAE_N_N@Z
_TEXT	SEGMENT PARA USE32 PUBLIC 'CODE'
_TEXT	ENDS
;	COMDAT ?_M_setup_codecvt@?$basic_filebuf@DV?$char_traits@D@_STL@@@_STL@@AAEXABVlocale@2@@Z
_TEXT	SEGMENT PARA USE32 PUBLIC 'CODE'
_TEXT	ENDS
;	COMDAT ??$equal@PADPADU?$_Eq_traits@V?$char_traits@D@_STL@@@_STL@@@_STL@@YA_NPAD00U?$_Eq_traits@V?$char_traits@D@_STL@@@0@@Z
_TEXT	SEGMENT PARA USE32 PUBLIC 'CODE'
_TEXT	ENDS
;	COMDAT ??$_Destroy@V?$basic_string@DV?$char_traits@D@_STL@@V?$allocator@D@2@@_STL@@@_STL@@YAXPAV?$basic_string@DV?$char_traits@D@_STL@@V?$allocator@D@2@@0@@Z
_TEXT	SEGMENT PARA USE32 PUBLIC 'CODE'
_TEXT	ENDS
;	COMDAT ??$_M_assign_dispatch@PAD@?$basic_string@DV?$char_traits@D@_STL@@V?$allocator@D@2@@_STL@@AAEAAV01@PAD0ABU__false_type@1@@Z
_TEXT	SEGMENT PARA USE32 PUBLIC 'CODE'
_TEXT	ENDS
;	COMDAT ??4?$list@GV?$allocator@G@_STL@@@_STL@@QAEAAV01@ABV01@@Z
_TEXT	SEGMENT PARA USE32 PUBLIC 'CODE'
_TEXT	ENDS
;	COMDAT ?clear@?$_List_base@PAVSubItemInfo@@V?$allocator@PAVSubItemInfo@@@_STL@@@_STL@@QAEXXZ
_TEXT	SEGMENT PARA USE32 PUBLIC 'CODE'
_TEXT	ENDS
;	COMDAT ??$find@U?$_List_iterator@GU?$_Nonconst_traits@G@_STL@@@_STL@@G@_STL@@YA?AU?$_List_iterator@GU?$_Nonconst_traits@G@_STL@@@0@U10@0ABG@Z
_TEXT	SEGMENT PARA USE32 PUBLIC 'CODE'
_TEXT	ENDS
;	COMDAT ??$insert@U?$_List_iterator@V?$basic_string@DV?$char_traits@D@_STL@@V?$allocator@D@2@@_STL@@U?$_Const_traits@V?$basic_string@DV?$char_traits@D@_STL@@V?$allocator@D@2@@_STL@@@2@@_STL@@@?$list@V?$basic_string@DV?$char_traits@D@_STL@@V?$allocator@D@2@@_STL@@V?$allocator@V?$basic_string@DV?$char_traits@D@_STL@@V?$allocator@D@2@@_STL@@@2@@_STL@@QAEXU?$_List_iterator@V?$basic_string@DV?$char_traits@D@_STL@@V?$allocator@D@2@@_STL@@U?$_Nonconst_traits@V?$basic_string@DV?$char_traits@D@_STL@@V?$allocator@D@2@@_STL@@@2@@1@U?$_List_iterator@V?$basic_string@DV?$char_traits@D@_STL@@V?$allocator@D@2@@_STL@@U?$_Const_traits@V?$basic_string@DV?$char_traits@D@_STL@@V?$allocator@D@2@@_STL@@@2@@1@1@Z
_TEXT	SEGMENT PARA USE32 PUBLIC 'CODE'
_TEXT	ENDS
;	COMDAT ??$distance@U?$_List_iterator@GU?$_Const_traits@G@_STL@@@_STL@@@_STL@@YAHABU?$_List_iterator@GU?$_Const_traits@G@_STL@@@0@0@Z
_TEXT	SEGMENT PARA USE32 PUBLIC 'CODE'
_TEXT	ENDS
;	COMDAT ??$_Destroy@G@_STL@@YAXPAG@Z
_TEXT	SEGMENT PARA USE32 PUBLIC 'CODE'
_TEXT	ENDS
;	COMDAT ??$uninitialized_fill_n@PAVStoreItemInfo@@IV1@@_STL@@YAPAVStoreItemInfo@@PAV1@IABV1@@Z
_TEXT	SEGMENT PARA USE32 PUBLIC 'CODE'
_TEXT	ENDS
;	COMDAT ??$_Destroy@PAVStoreItemInfo@@@_STL@@YAXPAVStoreItemInfo@@0@Z
_TEXT	SEGMENT PARA USE32 PUBLIC 'CODE'
_TEXT	ENDS
;	COMDAT ??$?0U?$_List_node@V?$basic_string@DV?$char_traits@D@_STL@@V?$allocator@D@2@@_STL@@@_STL@@@?$allocator@V?$basic_string@DV?$char_traits@D@_STL@@V?$allocator@D@2@@_STL@@@_STL@@QAE@ABV?$allocator@U?$_List_node@V?$basic_string@DV?$char_traits@D@_STL@@V?$allocator@D@2@@_STL@@@_STL@@@1@@Z
_TEXT	SEGMENT PARA USE32 PUBLIC 'CODE'
_TEXT	ENDS
;	COMDAT ??$_Destroy@PAVSubItemInfo@@@_STL@@YAXPAPAVSubItemInfo@@@Z
_TEXT	SEGMENT PARA USE32 PUBLIC 'CODE'
_TEXT	ENDS
;	COMDAT ??$_Construct@GG@_STL@@YAXPAGABG@Z
_TEXT	SEGMENT PARA USE32 PUBLIC 'CODE'
_TEXT	ENDS
;	COMDAT ??$_Construct@PAVSubItemInfo@@PAV1@@_STL@@YAXPAPAVSubItemInfo@@ABQAV1@@Z
_TEXT	SEGMENT PARA USE32 PUBLIC 'CODE'
_TEXT	ENDS
;	COMDAT ??_G?$basic_string@DV?$char_traits@D@_STL@@V?$allocator@D@2@@_STL@@QAEPAXI@Z
_TEXT	SEGMENT PARA USE32 PUBLIC 'CODE'
_TEXT	ENDS
;	COMDAT ?end@?$basic_string@DV?$char_traits@D@_STL@@V?$allocator@D@2@@_STL@@QAEPADXZ
_TEXT	SEGMENT PARA USE32 PUBLIC 'CODE'
_TEXT	ENDS
;	COMDAT ?erase@?$basic_string@DV?$char_traits@D@_STL@@V?$allocator@D@2@@_STL@@QAEPADPAD0@Z
_TEXT	SEGMENT PARA USE32 PUBLIC 'CODE'
_TEXT	ENDS
;	COMDAT ?_M_exit_putback_mode@?$basic_filebuf@DV?$char_traits@D@_STL@@@_STL@@AAEXXZ
_TEXT	SEGMENT PARA USE32 PUBLIC 'CODE'
_TEXT	ENDS
;	COMDAT ??0?$_List_iterator@V?$basic_string@DV?$char_traits@D@_STL@@V?$allocator@D@2@@_STL@@U?$_Nonconst_traits@V?$basic_string@DV?$char_traits@D@_STL@@V?$allocator@D@2@@_STL@@@2@@_STL@@QAE@ABU01@@Z
_TEXT	SEGMENT PARA USE32 PUBLIC 'CODE'
_TEXT	ENDS
;	COMDAT ??R?$_Eq_traits@V?$char_traits@D@_STL@@@_STL@@QBE_NABD0@Z
_TEXT	SEGMENT PARA USE32 PUBLIC 'CODE'
_TEXT	ENDS
;	COMDAT ?erase@?$list@GV?$allocator@G@_STL@@@_STL@@QAE?AU?$_List_iterator@GU?$_Nonconst_traits@G@_STL@@@2@U32@0@Z
_TEXT	SEGMENT PARA USE32 PUBLIC 'CODE'
_TEXT	ENDS
;	COMDAT ??E?$_List_iterator@GU?$_Nonconst_traits@G@_STL@@@_STL@@QAE?AU01@H@Z
_TEXT	SEGMENT PARA USE32 PUBLIC 'CODE'
_TEXT	ENDS
;	COMDAT ??E?$_List_iterator@GU?$_Const_traits@G@_STL@@@_STL@@QAE?AU01@H@Z
_TEXT	SEGMENT PARA USE32 PUBLIC 'CODE'
_TEXT	ENDS
;	COMDAT ?move@?$__char_traits_base@DH@_STL@@SAPADPADPBDI@Z
_TEXT	SEGMENT PARA USE32 PUBLIC 'CODE'
_TEXT	ENDS
;	COMDAT ??$_M_range_initialize@PBD@?$basic_string@DV?$char_traits@D@_STL@@V?$allocator@D@2@@_STL@@AAEXPBD0ABUforward_iterator_tag@1@@Z
_TEXT	SEGMENT PARA USE32 PUBLIC 'CODE'
_TEXT	ENDS
;	COMDAT ??$_M_range_initialize@PAD@?$basic_string@DV?$char_traits@D@_STL@@V?$allocator@D@2@@_STL@@AAEXPAD0ABUforward_iterator_tag@1@@Z
_TEXT	SEGMENT PARA USE32 PUBLIC 'CODE'
_TEXT	ENDS
;	COMDAT ?_M_unshift@?$basic_filebuf@DV?$char_traits@D@_STL@@@_STL@@AAE_NXZ
_TEXT	SEGMENT PARA USE32 PUBLIC 'CODE'
_TEXT	ENDS
;	COMDAT ?_M_allocate_buffers@?$basic_filebuf@DV?$char_traits@D@_STL@@@_STL@@AAE_NXZ
_TEXT	SEGMENT PARA USE32 PUBLIC 'CODE'
_TEXT	ENDS
;	COMDAT ??$max@H@_STL@@YAABHABH0@Z
_TEXT	SEGMENT PARA USE32 PUBLIC 'CODE'
_TEXT	ENDS
;	COMDAT ??$use_facet@V?$codecvt@DDH@_STL@@@_STL@@YAABV?$codecvt@DDH@0@ABVlocale@0@@Z
_TEXT	SEGMENT PARA USE32 PUBLIC 'CODE'
_TEXT	ENDS
;	COMDAT ??$append@PAD@?$basic_string@DV?$char_traits@D@_STL@@V?$allocator@D@2@@_STL@@QAEAAV01@PAD0@Z
_TEXT	SEGMENT PARA USE32 PUBLIC 'CODE'
_TEXT	ENDS
;	COMDAT ??$insert@U?$_List_iterator@GU?$_Const_traits@G@_STL@@@_STL@@@?$list@GV?$allocator@G@_STL@@@_STL@@QAEXU?$_List_iterator@GU?$_Nonconst_traits@G@_STL@@@1@U?$_List_iterator@GU?$_Const_traits@G@_STL@@@1@1@Z
_TEXT	SEGMENT PARA USE32 PUBLIC 'CODE'
_TEXT	ENDS
;	COMDAT ??$__find@U?$_List_iterator@GU?$_Nonconst_traits@G@_STL@@@_STL@@G@_STL@@YA?AU?$_List_iterator@GU?$_Nonconst_traits@G@_STL@@@0@U10@0ABGABUinput_iterator_tag@0@@Z
_TEXT	SEGMENT PARA USE32 PUBLIC 'CODE'
_TEXT	ENDS
;	COMDAT ??$_M_insert_dispatch@U?$_List_iterator@V?$basic_string@DV?$char_traits@D@_STL@@V?$allocator@D@2@@_STL@@U?$_Const_traits@V?$basic_string@DV?$char_traits@D@_STL@@V?$allocator@D@2@@_STL@@@2@@_STL@@@?$list@V?$basic_string@DV?$char_traits@D@_STL@@V?$allocator@D@2@@_STL@@V?$allocator@V?$basic_string@DV?$char_traits@D@_STL@@V?$allocator@D@2@@_STL@@@2@@_STL@@QAEXU?$_List_iterator@V?$basic_string@DV?$char_traits@D@_STL@@V?$allocator@D@2@@_STL@@U?$_Nonconst_traits@V?$basic_string@DV?$char_traits@D@_STL@@V?$allocator@D@2@@_STL@@@2@@1@U?$_List_iterator@V?$basic_string@DV?$char_traits@D@_STL@@V?$allocator@D@2@@_STL@@U?$_Const_traits@V?$basic_string@DV?$char_traits@D@_STL@@V?$allocator@D@2@@_STL@@@2@@1@1ABU__false_type@1@@Z
_TEXT	SEGMENT PARA USE32 PUBLIC 'CODE'
_TEXT	ENDS
;	COMDAT ??$__distance@U?$_List_iterator@GU?$_Const_traits@G@_STL@@@_STL@@@_STL@@YAHABU?$_List_iterator@GU?$_Const_traits@G@_STL@@@0@0ABUinput_iterator_tag@0@@Z
_TEXT	SEGMENT PARA USE32 PUBLIC 'CODE'
_TEXT	ENDS
;	COMDAT ??$__uninitialized_fill_n@PAVStoreItemInfo@@IV1@@_STL@@YAPAVStoreItemInfo@@PAV1@IABV1@ABU__false_type@0@@Z
_TEXT	SEGMENT PARA USE32 PUBLIC 'CODE'
_TEXT	ENDS
;	COMDAT ??$__destroy@PAVStoreItemInfo@@V1@@_STL@@YAXPAVStoreItemInfo@@00@Z
_TEXT	SEGMENT PARA USE32 PUBLIC 'CODE'
_TEXT	ENDS
;	COMDAT ??E?$_List_iterator@V?$basic_string@DV?$char_traits@D@_STL@@V?$allocator@D@2@@_STL@@U?$_Const_traits@V?$basic_string@DV?$char_traits@D@_STL@@V?$allocator@D@2@@_STL@@@2@@_STL@@QAEAAU01@XZ
_TEXT	SEGMENT PARA USE32 PUBLIC 'CODE'
_TEXT	ENDS
;	COMDAT ??E?$_List_iterator@GU?$_Nonconst_traits@G@_STL@@@_STL@@QAEAAU01@XZ
_TEXT	SEGMENT PARA USE32 PUBLIC 'CODE'
_TEXT	ENDS
;	COMDAT ??E?$_List_iterator@GU?$_Const_traits@G@_STL@@@_STL@@QAEAAU01@XZ
_TEXT	SEGMENT PARA USE32 PUBLIC 'CODE'
_TEXT	ENDS
;	COMDAT ??$distance@PBD@_STL@@YAHABQBD0@Z
_TEXT	SEGMENT PARA USE32 PUBLIC 'CODE'
_TEXT	ENDS
;	COMDAT ?_M_allocate_block@?$_String_base@DV?$allocator@D@_STL@@@_STL@@QAEXI@Z
_TEXT	SEGMENT PARA USE32 PUBLIC 'CODE'
_TEXT	ENDS
;	COMDAT ??$distance@PAD@_STL@@YAHABQAD0@Z
_TEXT	SEGMENT PARA USE32 PUBLIC 'CODE'
_TEXT	ENDS
;	COMDAT ??$uninitialized_copy@PADPAD@_STL@@YAPADPAD00@Z
_TEXT	SEGMENT PARA USE32 PUBLIC 'CODE'
_TEXT	ENDS
;	COMDAT ??$_M_append_dispatch@PAD@?$basic_string@DV?$char_traits@D@_STL@@V?$allocator@D@2@@_STL@@AAEAAV01@PAD0ABU__false_type@1@@Z
_TEXT	SEGMENT PARA USE32 PUBLIC 'CODE'
_TEXT	ENDS
;	COMDAT ??$_M_insert_dispatch@U?$_List_iterator@GU?$_Const_traits@G@_STL@@@_STL@@@?$list@GV?$allocator@G@_STL@@@_STL@@QAEXU?$_List_iterator@GU?$_Nonconst_traits@G@_STL@@@1@U?$_List_iterator@GU?$_Const_traits@G@_STL@@@1@1ABU__false_type@1@@Z
_TEXT	SEGMENT PARA USE32 PUBLIC 'CODE'
_TEXT	ENDS
;	COMDAT ??$_Construct@VStoreItemInfo@@V1@@_STL@@YAXPAVStoreItemInfo@@ABV1@@Z
_TEXT	SEGMENT PARA USE32 PUBLIC 'CODE'
_TEXT	ENDS
;	COMDAT ??$__destroy_aux@PAVStoreItemInfo@@@_STL@@YAXPAVStoreItemInfo@@0ABU__false_type@0@@Z
_TEXT	SEGMENT PARA USE32 PUBLIC 'CODE'
_TEXT	ENDS
;	COMDAT ??0StoreItemInfo@@QAE@ABV0@@Z
_TEXT	SEGMENT PARA USE32 PUBLIC 'CODE'
_TEXT	ENDS
;	COMDAT ??0PCItemInfo@@QAE@ABV0@@Z
_TEXT	SEGMENT PARA USE32 PUBLIC 'CODE'
_TEXT	ENDS
;	COMDAT ??_GPCItemInfo@@UAEPAXI@Z
_TEXT	SEGMENT PARA USE32 PUBLIC 'CODE'
_TEXT	ENDS
;	COMDAT ?max_size@?$_String_base@DV?$allocator@D@_STL@@@_STL@@QBEIXZ
_TEXT	SEGMENT PARA USE32 PUBLIC 'CODE'
_TEXT	ENDS
;	COMDAT ??0?$list@GV?$allocator@G@_STL@@@_STL@@QAE@ABV01@@Z
_TEXT	SEGMENT PARA USE32 PUBLIC 'CODE'
_TEXT	ENDS
;	COMDAT ??1?$list@GV?$allocator@G@_STL@@@_STL@@QAE@XZ
_TEXT	SEGMENT PARA USE32 PUBLIC 'CODE'
_TEXT	ENDS
;	COMDAT ??0?$list@PAVSubItemInfo@@V?$allocator@PAVSubItemInfo@@@_STL@@@_STL@@QAE@ABV01@@Z
_TEXT	SEGMENT PARA USE32 PUBLIC 'CODE'
_TEXT	ENDS
;	COMDAT ??1?$list@PAVSubItemInfo@@V?$allocator@PAVSubItemInfo@@@_STL@@@_STL@@QAE@XZ
_TEXT	SEGMENT PARA USE32 PUBLIC 'CODE'
_TEXT	ENDS
;	COMDAT ?get_allocator@?$_List_base@GV?$allocator@G@_STL@@@_STL@@QBE?AV?$allocator@G@2@XZ
_TEXT	SEGMENT PARA USE32 PUBLIC 'CODE'
_TEXT	ENDS
;	COMDAT ??0?$_List_base@GV?$allocator@G@_STL@@@_STL@@QAE@ABV?$allocator@G@1@@Z
_TEXT	SEGMENT PARA USE32 PUBLIC 'CODE'
_TEXT	ENDS
;	COMDAT ??1?$_List_base@GV?$allocator@G@_STL@@@_STL@@QAE@XZ
_TEXT	SEGMENT PARA USE32 PUBLIC 'CODE'
_TEXT	ENDS
;	COMDAT ?begin@?$list@PAVSubItemInfo@@V?$allocator@PAVSubItemInfo@@@_STL@@@_STL@@QBE?AU?$_List_iterator@PAVSubItemInfo@@U?$_Const_traits@PAVSubItemInfo@@@_STL@@@2@XZ
_TEXT	SEGMENT PARA USE32 PUBLIC 'CODE'
_TEXT	ENDS
;	COMDAT ?end@?$list@PAVSubItemInfo@@V?$allocator@PAVSubItemInfo@@@_STL@@@_STL@@QBE?AU?$_List_iterator@PAVSubItemInfo@@U?$_Const_traits@PAVSubItemInfo@@@_STL@@@2@XZ
_TEXT	SEGMENT PARA USE32 PUBLIC 'CODE'
_TEXT	ENDS
;	COMDAT ?get_allocator@?$_List_base@PAVSubItemInfo@@V?$allocator@PAVSubItemInfo@@@_STL@@@_STL@@QBE?AV?$allocator@PAVSubItemInfo@@@2@XZ
_TEXT	SEGMENT PARA USE32 PUBLIC 'CODE'
_TEXT	ENDS
;	COMDAT ??0?$_List_base@PAVSubItemInfo@@V?$allocator@PAVSubItemInfo@@@_STL@@@_STL@@QAE@ABV?$allocator@PAVSubItemInfo@@@1@@Z
_TEXT	SEGMENT PARA USE32 PUBLIC 'CODE'
_TEXT	ENDS
;	COMDAT ??1?$_List_base@PAVSubItemInfo@@V?$allocator@PAVSubItemInfo@@@_STL@@@_STL@@QAE@XZ
_TEXT	SEGMENT PARA USE32 PUBLIC 'CODE'
_TEXT	ENDS
;	COMDAT ??1?$allocator@PAVSubItemInfo@@@_STL@@QAE@XZ
_TEXT	SEGMENT PARA USE32 PUBLIC 'CODE'
_TEXT	ENDS
;	COMDAT ??1?$_STLP_alloc_proxy@PAU?$_List_node@G@_STL@@U12@V?$allocator@U?$_List_node@G@_STL@@@2@@_STL@@QAE@XZ
_TEXT	SEGMENT PARA USE32 PUBLIC 'CODE'
_TEXT	ENDS
;	COMDAT ??1?$_STLP_alloc_proxy@PAU?$_List_node@PAVSubItemInfo@@@_STL@@U12@V?$allocator@U?$_List_node@PAVSubItemInfo@@@_STL@@@2@@_STL@@QAE@XZ
_TEXT	SEGMENT PARA USE32 PUBLIC 'CODE'
_TEXT	ENDS
;	COMDAT ??0?$_STLP_alloc_proxy@PAU?$_List_node@G@_STL@@U12@V?$allocator@U?$_List_node@G@_STL@@@2@@_STL@@QAE@ABV?$allocator@U?$_List_node@G@_STL@@@1@PAU?$_List_node@G@1@@Z
_TEXT	SEGMENT PARA USE32 PUBLIC 'CODE'
_TEXT	ENDS
;	COMDAT ??1?$allocator@U?$_List_node@G@_STL@@@_STL@@QAE@XZ
_TEXT	SEGMENT PARA USE32 PUBLIC 'CODE'
_TEXT	ENDS
;	COMDAT ??0?$_STLP_alloc_proxy@PAU?$_List_node@PAVSubItemInfo@@@_STL@@U12@V?$allocator@U?$_List_node@PAVSubItemInfo@@@_STL@@@2@@_STL@@QAE@ABV?$allocator@U?$_List_node@PAVSubItemInfo@@@_STL@@@1@PAU?$_List_node@PAVSubItemInfo@@@1@@Z
_TEXT	SEGMENT PARA USE32 PUBLIC 'CODE'
_TEXT	ENDS
;	COMDAT ??1?$allocator@U?$_List_node@PAVSubItemInfo@@@_STL@@@_STL@@QAE@XZ
_TEXT	SEGMENT PARA USE32 PUBLIC 'CODE'
_TEXT	ENDS
;	COMDAT ??0?$_List_iterator@PAVSubItemInfo@@U?$_Const_traits@PAVSubItemInfo@@@_STL@@@_STL@@QAE@PAU?$_List_node@PAVSubItemInfo@@@1@@Z
_TEXT	SEGMENT PARA USE32 PUBLIC 'CODE'
_TEXT	ENDS
;	COMDAT ??0?$allocator@U?$_List_node@G@_STL@@@_STL@@QAE@ABV01@@Z
_TEXT	SEGMENT PARA USE32 PUBLIC 'CODE'
_TEXT	ENDS
;	COMDAT ??0?$allocator@U?$_List_node@PAVSubItemInfo@@@_STL@@@_STL@@QAE@ABV01@@Z
_TEXT	SEGMENT PARA USE32 PUBLIC 'CODE'
_TEXT	ENDS
;	COMDAT ??$__distance@PBD@_STL@@YAHABQBD0ABUrandom_access_iterator_tag@0@@Z
_TEXT	SEGMENT PARA USE32 PUBLIC 'CODE'
_TEXT	ENDS
;	COMDAT ?_M_throw_length_error@?$_String_base@DV?$allocator@D@_STL@@@_STL@@QBEXXZ
_TEXT	SEGMENT PARA USE32 PUBLIC 'CODE'
_TEXT	ENDS
;	COMDAT ??$__distance@PAD@_STL@@YAHABQAD0ABUrandom_access_iterator_tag@0@@Z
_TEXT	SEGMENT PARA USE32 PUBLIC 'CODE'
_TEXT	ENDS
;	COMDAT ??$__uninitialized_copy@PADPAD@_STL@@YAPADPAD00ABU__true_type@0@@Z
_TEXT	SEGMENT PARA USE32 PUBLIC 'CODE'
_TEXT	ENDS
;	COMDAT ??$append@PAD@?$basic_string@DV?$char_traits@D@_STL@@V?$allocator@D@2@@_STL@@AAEAAV01@PAD0ABUforward_iterator_tag@1@@Z
_TEXT	SEGMENT PARA USE32 PUBLIC 'CODE'
_TEXT	ENDS
;	COMDAT ??$_Destroy@VStoreItemInfo@@@_STL@@YAXPAVStoreItemInfo@@@Z
_TEXT	SEGMENT PARA USE32 PUBLIC 'CODE'
_TEXT	ENDS
;	COMDAT ?clear@?$_List_base@GV?$allocator@G@_STL@@@_STL@@QAEXXZ
_TEXT	SEGMENT PARA USE32 PUBLIC 'CODE'
_TEXT	ENDS
;	COMDAT ??$insert@U?$_List_iterator@PAVSubItemInfo@@U?$_Const_traits@PAVSubItemInfo@@@_STL@@@_STL@@@?$list@PAVSubItemInfo@@V?$allocator@PAVSubItemInfo@@@_STL@@@_STL@@QAEXU?$_List_iterator@PAVSubItemInfo@@U?$_Nonconst_traits@PAVSubItemInfo@@@_STL@@@1@U?$_List_iterator@PAVSubItemInfo@@U?$_Const_traits@PAVSubItemInfo@@@_STL@@@1@1@Z
_TEXT	SEGMENT PARA USE32 PUBLIC 'CODE'
_TEXT	ENDS
;	COMDAT ??$?0U?$_List_node@G@_STL@@@?$allocator@G@_STL@@QAE@ABV?$allocator@U?$_List_node@G@_STL@@@1@@Z
_TEXT	SEGMENT PARA USE32 PUBLIC 'CODE'
_TEXT	ENDS
;	COMDAT ??$?0G@?$allocator@U?$_List_node@G@_STL@@@_STL@@QAE@ABV?$allocator@G@1@@Z
_TEXT	SEGMENT PARA USE32 PUBLIC 'CODE'
_TEXT	ENDS
;	COMDAT ??$?0U?$_List_node@PAVSubItemInfo@@@_STL@@@?$allocator@PAVSubItemInfo@@@_STL@@QAE@ABV?$allocator@U?$_List_node@PAVSubItemInfo@@@_STL@@@1@@Z
_TEXT	SEGMENT PARA USE32 PUBLIC 'CODE'
_TEXT	ENDS
;	COMDAT ??$?0PAVSubItemInfo@@@?$allocator@U?$_List_node@PAVSubItemInfo@@@_STL@@@_STL@@QAE@ABV?$allocator@PAVSubItemInfo@@@1@@Z
_TEXT	SEGMENT PARA USE32 PUBLIC 'CODE'
_TEXT	ENDS
;	COMDAT ?_M_construct_null@?$basic_string@DV?$char_traits@D@_STL@@V?$allocator@D@2@@_STL@@AAEXPAD@Z
_TEXT	SEGMENT PARA USE32 PUBLIC 'CODE'
_TEXT	ENDS
;	COMDAT ?max_size@?$basic_string@DV?$char_traits@D@_STL@@V?$allocator@D@2@@_STL@@QBEIXZ
_TEXT	SEGMENT PARA USE32 PUBLIC 'CODE'
_TEXT	ENDS
;	COMDAT ?capacity@?$basic_string@DV?$char_traits@D@_STL@@V?$allocator@D@2@@_STL@@QBEIXZ
_TEXT	SEGMENT PARA USE32 PUBLIC 'CODE'
_TEXT	ENDS
;	COMDAT ??0?$_List_iterator@PAVSubItemInfo@@U?$_Nonconst_traits@PAVSubItemInfo@@@_STL@@@_STL@@QAE@ABU01@@Z
_TEXT	SEGMENT PARA USE32 PUBLIC 'CODE'
_TEXT	ENDS
;	COMDAT ?_Ret@?$_BothPtrType@PADPAD@_STL@@SA?AU__true_type@2@XZ
_TEXT	SEGMENT PARA USE32 PUBLIC 'CODE'
_TEXT	ENDS
;	COMDAT ?_M_construct_null_aux@?$basic_string@DV?$char_traits@D@_STL@@V?$allocator@D@2@@_STL@@AAEXPADABU__true_type@2@@Z
_TEXT	SEGMENT PARA USE32 PUBLIC 'CODE'
_TEXT	ENDS
;	COMDAT ??$__copy_aux@PADPAD@_STL@@YAPADPAD00ABU__true_type@0@@Z
_TEXT	SEGMENT PARA USE32 PUBLIC 'CODE'
_TEXT	ENDS
;	COMDAT ??$max@I@_STL@@YAABIABI0@Z
_TEXT	SEGMENT PARA USE32 PUBLIC 'CODE'
_TEXT	ENDS
;	COMDAT ??$_M_insert_dispatch@U?$_List_iterator@PAVSubItemInfo@@U?$_Const_traits@PAVSubItemInfo@@@_STL@@@_STL@@@?$list@PAVSubItemInfo@@V?$allocator@PAVSubItemInfo@@@_STL@@@_STL@@QAEXU?$_List_iterator@PAVSubItemInfo@@U?$_Nonconst_traits@PAVSubItemInfo@@@_STL@@@1@U?$_List_iterator@PAVSubItemInfo@@U?$_Const_traits@PAVSubItemInfo@@@_STL@@@1@1ABU__false_type@1@@Z
_TEXT	SEGMENT PARA USE32 PUBLIC 'CODE'
_TEXT	ENDS
;	COMDAT ??D?$_List_iterator@PAVSubItemInfo@@U?$_Const_traits@PAVSubItemInfo@@@_STL@@@_STL@@QBEABQAVSubItemInfo@@XZ
_TEXT	SEGMENT PARA USE32 PUBLIC 'CODE'
_TEXT	ENDS
;	COMDAT ??E?$_List_iterator@PAVSubItemInfo@@U?$_Const_traits@PAVSubItemInfo@@@_STL@@@_STL@@QAEAAU01@XZ
_TEXT	SEGMENT PARA USE32 PUBLIC 'CODE'
_TEXT	ENDS
;	COMDAT ?_Ret@?$_OKToMemCpy@DD@_STL@@SA?AU__true_type@2@XZ
_TEXT	SEGMENT PARA USE32 PUBLIC 'CODE'
_TEXT	ENDS
;	COMDAT ??$_IsOKToMemCpy@DD@_STL@@YA?AU?$_OKToMemCpy@DD@0@PAD0@Z
_TEXT	SEGMENT PARA USE32 PUBLIC 'CODE'
_TEXT	ENDS
;	COMDAT ??$__copy_ptrs@PADPAD@_STL@@YAPADPAD00ABU__true_type@0@@Z
_TEXT	SEGMENT PARA USE32 PUBLIC 'CODE'
_TEXT	ENDS
;	COMDAT ??_R3Packet@@8
rdata$r	SEGMENT DWORD USE32 PUBLIC 'CONST'
rdata$r	ENDS
;	COMDAT ??_R3PCItemInfo@@8
rdata$r	SEGMENT DWORD USE32 PUBLIC 'CONST'
rdata$r	ENDS
;	COMDAT ??_R3StoreItemInfo@@8
rdata$r	SEGMENT DWORD USE32 PUBLIC 'CONST'
rdata$r	ENDS
;	COMDAT ??_R3PacketFactory@@8
rdata$r	SEGMENT DWORD USE32 PUBLIC 'CONST'
rdata$r	ENDS
;	COMDAT ??_R3GCOtherStoreInfo@@8
rdata$r	SEGMENT DWORD USE32 PUBLIC 'CONST'
rdata$r	ENDS
;	COMDAT ??_R2Packet@@8
rdata$r	SEGMENT DWORD USE32 PUBLIC 'CONST'
rdata$r	ENDS
;	COMDAT ??_R2PCItemInfo@@8
rdata$r	SEGMENT DWORD USE32 PUBLIC 'CONST'
rdata$r	ENDS
;	COMDAT ??_R2StoreItemInfo@@8
rdata$r	SEGMENT DWORD USE32 PUBLIC 'CONST'
rdata$r	ENDS
;	COMDAT ??_R2PacketFactory@@8
rdata$r	SEGMENT DWORD USE32 PUBLIC 'CONST'
rdata$r	ENDS
;	COMDAT ??_R2GCOtherStoreInfo@@8
rdata$r	SEGMENT DWORD USE32 PUBLIC 'CONST'
rdata$r	ENDS
;	COMDAT ??_R1A@?0A@A@PCItemInfo@@8
rdata$r	SEGMENT DWORD USE32 PUBLIC 'CONST'
rdata$r	ENDS
;	COMDAT ??_R1A@?0A@A@StoreItemInfo@@8
rdata$r	SEGMENT DWORD USE32 PUBLIC 'CONST'
rdata$r	ENDS
;	COMDAT ??_R1A@?0A@A@PacketFactory@@8
rdata$r	SEGMENT DWORD USE32 PUBLIC 'CONST'
rdata$r	ENDS
;	COMDAT ??_R1A@?0A@A@Packet@@8
rdata$r	SEGMENT DWORD USE32 PUBLIC 'CONST'
rdata$r	ENDS
;	COMDAT ??_R1A@?0A@A@GCOtherStoreInfo@@8
rdata$r	SEGMENT DWORD USE32 PUBLIC 'CONST'
rdata$r	ENDS
;	COMDAT ??_R0?AVPCItemInfo@@@8
_DATA	SEGMENT DWORD USE32 PUBLIC 'DATA'
_DATA	ENDS
;	COMDAT ??_R0?AVStoreItemInfo@@@8
_DATA	SEGMENT DWORD USE32 PUBLIC 'DATA'
_DATA	ENDS
;	COMDAT ??_R0?AVPacketFactory@@@8
_DATA	SEGMENT DWORD USE32 PUBLIC 'DATA'
_DATA	ENDS
;	COMDAT ??_R0?AVPacket@@@8
_DATA	SEGMENT DWORD USE32 PUBLIC 'DATA'
_DATA	ENDS
;	COMDAT ??_R0?AVGCOtherStoreInfo@@@8
_DATA	SEGMENT DWORD USE32 PUBLIC 'DATA'
_DATA	ENDS
;	COMDAT ??_R4Packet@@6B@
rdata$r	SEGMENT DWORD USE32 PUBLIC 'CONST'
rdata$r	ENDS
;	COMDAT ??_R4PCItemInfo@@6B@
rdata$r	SEGMENT DWORD USE32 PUBLIC 'CONST'
rdata$r	ENDS
;	COMDAT ??_R4StoreItemInfo@@6B@
rdata$r	SEGMENT DWORD USE32 PUBLIC 'CONST'
rdata$r	ENDS
;	COMDAT ??_R4PacketFactory@@6B@
rdata$r	SEGMENT DWORD USE32 PUBLIC 'CONST'
rdata$r	ENDS
;	COMDAT ??_R4GCOtherStoreInfo@@6B@
rdata$r	SEGMENT DWORD USE32 PUBLIC 'CONST'
rdata$r	ENDS
;	COMDAT ?__copy_trivial@_STL@@YAPAXPBX0PAX@Z
_TEXT	SEGMENT PARA USE32 PUBLIC 'CODE'
_TEXT	ENDS
;	COMDAT ?_M_deallocate_block@?$_String_base@DV?$allocator@D@_STL@@@_STL@@QAEXXZ
_TEXT	SEGMENT PARA USE32 PUBLIC 'CODE'
_TEXT	ENDS
;	COMDAT ?deallocate@?$allocator@D@_STL@@QAEXPADI@Z
_TEXT	SEGMENT PARA USE32 PUBLIC 'CODE'
_TEXT	ENDS
;	COMDAT ??1?$allocator@G@_STL@@QAE@XZ
_TEXT	SEGMENT PARA USE32 PUBLIC 'CODE'
_TEXT	ENDS
;	COMDAT ??_7PCItemInfo@@6B@
CONST	SEGMENT DWORD USE32 PUBLIC 'CONST'
CONST	ENDS
;	COMDAT ??3@YAXPAX0@Z
_TEXT	SEGMENT PARA USE32 PUBLIC 'CODE'
_TEXT	ENDS
;	COMDAT ??D?$_List_iterator@V?$basic_string@DV?$char_traits@D@_STL@@V?$allocator@D@2@@_STL@@U?$_Const_traits@V?$basic_string@DV?$char_traits@D@_STL@@V?$allocator@D@2@@_STL@@@2@@_STL@@QBEABV?$basic_string@DV?$char_traits@D@_STL@@V?$allocator@D@2@@1@XZ
_TEXT	SEGMENT PARA USE32 PUBLIC 'CODE'
_TEXT	ENDS
;	COMDAT ?insert@?$list@V?$basic_string@DV?$char_traits@D@_STL@@V?$allocator@D@2@@_STL@@V?$allocator@V?$basic_string@DV?$char_traits@D@_STL@@V?$allocator@D@2@@_STL@@@2@@_STL@@QAE?AU?$_List_iterator@V?$basic_string@DV?$char_traits@D@_STL@@V?$allocator@D@2@@_STL@@U?$_Nonconst_traits@V?$basic_string@DV?$char_traits@D@_STL@@V?$allocator@D@2@@_STL@@@2@@2@U32@ABV?$basic_string@DV?$char_traits@D@_STL@@V?$allocator@D@2@@2@@Z
_TEXT	SEGMENT PARA USE32 PUBLIC 'CODE'
_TEXT	ENDS
;	COMDAT ?_M_create_node@?$list@V?$basic_string@DV?$char_traits@D@_STL@@V?$allocator@D@2@@_STL@@V?$allocator@V?$basic_string@DV?$char_traits@D@_STL@@V?$allocator@D@2@@_STL@@@2@@_STL@@IAEPAU?$_List_node@V?$basic_string@DV?$char_traits@D@_STL@@V?$allocator@D@2@@_STL@@@2@ABV?$basic_string@DV?$char_traits@D@_STL@@V?$allocator@D@2@@2@@Z
_TEXT	SEGMENT PARA USE32 PUBLIC 'CODE'
_TEXT	ENDS
;	COMDAT ?allocate@?$allocator@U?$_List_node@V?$basic_string@DV?$char_traits@D@_STL@@V?$allocator@D@2@@_STL@@@_STL@@@_STL@@QAEPAU?$_List_node@V?$basic_string@DV?$char_traits@D@_STL@@V?$allocator@D@2@@_STL@@@2@IPBX@Z
_TEXT	SEGMENT PARA USE32 PUBLIC 'CODE'
_TEXT	ENDS
;	COMDAT ??$_Construct@V?$basic_string@DV?$char_traits@D@_STL@@V?$allocator@D@2@@_STL@@V12@@_STL@@YAXPAV?$basic_string@DV?$char_traits@D@_STL@@V?$allocator@D@2@@0@ABV10@@Z
_TEXT	SEGMENT PARA USE32 PUBLIC 'CODE'
_TEXT	ENDS
;	COMDAT ?deallocate@?$allocator@U?$_List_node@V?$basic_string@DV?$char_traits@D@_STL@@V?$allocator@D@2@@_STL@@@_STL@@@_STL@@QAEXPAU?$_List_node@V?$basic_string@DV?$char_traits@D@_STL@@V?$allocator@D@2@@_STL@@@2@I@Z
_TEXT	SEGMENT PARA USE32 PUBLIC 'CODE'
_TEXT	ENDS
;	COMDAT ??0?$_List_iterator@V?$basic_string@DV?$char_traits@D@_STL@@V?$allocator@D@2@@_STL@@U?$_Nonconst_traits@V?$basic_string@DV?$char_traits@D@_STL@@V?$allocator@D@2@@_STL@@@2@@_STL@@QAE@PAU?$_List_node@V?$basic_string@DV?$char_traits@D@_STL@@V?$allocator@D@2@@_STL@@@1@@Z
_TEXT	SEGMENT PARA USE32 PUBLIC 'CODE'
_TEXT	ENDS
;	COMDAT ?__page_size@_Filebuf_base@_STL@@SAIXZ
_TEXT	SEGMENT PARA USE32 PUBLIC 'CODE'
_TEXT	ENDS
;	COMDAT ?_M_write@?$basic_filebuf@DV?$char_traits@D@_STL@@@_STL@@QAE_NPADH@Z
_TEXT	SEGMENT PARA USE32 PUBLIC 'CODE'
_TEXT	ENDS
;	COMDAT ?unshift@?$codecvt@DDH@_STL@@QBE?AW4result@codecvt_base@2@AAHPAD1AAPAD@Z
_TEXT	SEGMENT PARA USE32 PUBLIC 'CODE'
_TEXT	ENDS
;	COMDAT ?uninitialized_copy@_STL@@YAPADPBD0PAD@Z
_TEXT	SEGMENT PARA USE32 PUBLIC 'CODE'
_TEXT	ENDS
;	COMDAT ?_M_incr@_List_iterator_base@_STL@@QAEXXZ
_TEXT	SEGMENT PARA USE32 PUBLIC 'CODE'
_TEXT	ENDS
;	COMDAT ?_Destroy@_STL@@YAXPAD0@Z
_TEXT	SEGMENT PARA USE32 PUBLIC 'CODE'
_TEXT	ENDS
;	COMDAT ??2@YAPAXIPAX@Z
_TEXT	SEGMENT PARA USE32 PUBLIC 'CODE'
_TEXT	ENDS
;	COMDAT ??8_List_iterator_base@_STL@@QBE_NABU01@@Z
_TEXT	SEGMENT PARA USE32 PUBLIC 'CODE'
_TEXT	ENDS
;	COMDAT ?assign@?$char_traits@D@_STL@@SAXAADABD@Z
_TEXT	SEGMENT PARA USE32 PUBLIC 'CODE'
_TEXT	ENDS
;	COMDAT ?always_noconv@?$codecvt@DDH@_STL@@QBE_NXZ
_TEXT	SEGMENT PARA USE32 PUBLIC 'CODE'
_TEXT	ENDS
;	COMDAT ?encoding@?$codecvt@DDH@_STL@@QBEHXZ
_TEXT	SEGMENT PARA USE32 PUBLIC 'CODE'
_TEXT	ENDS
;	COMDAT ?max_length@?$codecvt@DDH@_STL@@QBEHXZ
_TEXT	SEGMENT PARA USE32 PUBLIC 'CODE'
_TEXT	ENDS
;	COMDAT ?__o_mode@_Filebuf_base@_STL@@QBEHXZ
_TEXT	SEGMENT PARA USE32 PUBLIC 'CODE'
_TEXT	ENDS
;	COMDAT ?deallocate@?$__node_alloc@$00$0A@@_STL@@SAXPAXI@Z
_TEXT	SEGMENT PARA USE32 PUBLIC 'CODE'
_TEXT	ENDS
;	COMDAT ?__stl_delete@_STL@@YAXPAX@Z
_TEXT	SEGMENT PARA USE32 PUBLIC 'CODE'
_TEXT	ENDS
;	COMDAT ??0_List_iterator_base@_STL@@QAE@PAU_List_node_base@1@@Z
_TEXT	SEGMENT PARA USE32 PUBLIC 'CODE'
_TEXT	ENDS
;	COMDAT ?begin@?$list@V?$basic_string@DV?$char_traits@D@_STL@@V?$allocator@D@2@@_STL@@V?$allocator@V?$basic_string@DV?$char_traits@D@_STL@@V?$allocator@D@2@@_STL@@@2@@_STL@@QAE?AU?$_List_iterator@V?$basic_string@DV?$char_traits@D@_STL@@V?$allocator@D@2@@_STL@@U?$_Nonconst_traits@V?$basic_string@DV?$char_traits@D@_STL@@V?$allocator@D@2@@_STL@@@2@@2@XZ
_TEXT	SEGMENT PARA USE32 PUBLIC 'CODE'
_TEXT	ENDS
;	COMDAT ?begin@?$list@V?$basic_string@DV?$char_traits@D@_STL@@V?$allocator@D@2@@_STL@@V?$allocator@V?$basic_string@DV?$char_traits@D@_STL@@V?$allocator@D@2@@_STL@@@2@@_STL@@QBE?AU?$_List_iterator@V?$basic_string@DV?$char_traits@D@_STL@@V?$allocator@D@2@@_STL@@U?$_Const_traits@V?$basic_string@DV?$char_traits@D@_STL@@V?$allocator@D@2@@_STL@@@2@@2@XZ
_TEXT	SEGMENT PARA USE32 PUBLIC 'CODE'
_TEXT	ENDS
;	COMDAT ??0?$_List_iterator@V?$basic_string@DV?$char_traits@D@_STL@@V?$allocator@D@2@@_STL@@U?$_Const_traits@V?$basic_string@DV?$char_traits@D@_STL@@V?$allocator@D@2@@_STL@@@2@@_STL@@QAE@PAU?$_List_node@V?$basic_string@DV?$char_traits@D@_STL@@V?$allocator@D@2@@_STL@@@1@@Z
_TEXT	SEGMENT PARA USE32 PUBLIC 'CODE'
_TEXT	ENDS
;	COMDAT ?end@?$list@V?$basic_string@DV?$char_traits@D@_STL@@V?$allocator@D@2@@_STL@@V?$allocator@V?$basic_string@DV?$char_traits@D@_STL@@V?$allocator@D@2@@_STL@@@2@@_STL@@QBE?AU?$_List_iterator@V?$basic_string@DV?$char_traits@D@_STL@@V?$allocator@D@2@@_STL@@U?$_Const_traits@V?$basic_string@DV?$char_traits@D@_STL@@V?$allocator@D@2@@_STL@@@2@@2@XZ
_TEXT	SEGMENT PARA USE32 PUBLIC 'CODE'
_TEXT	ENDS
;	COMDAT ??1?$_List_base@V?$basic_string@DV?$char_traits@D@_STL@@V?$allocator@D@2@@_STL@@V?$allocator@V?$basic_string@DV?$char_traits@D@_STL@@V?$allocator@D@2@@_STL@@@2@@_STL@@QAE@XZ
_TEXT	SEGMENT PARA USE32 PUBLIC 'CODE'
_TEXT	ENDS
;	COMDAT ??1?$_STLP_alloc_proxy@PAU?$_List_node@V?$basic_string@DV?$char_traits@D@_STL@@V?$allocator@D@2@@_STL@@@_STL@@U12@V?$allocator@U?$_List_node@V?$basic_string@DV?$char_traits@D@_STL@@V?$allocator@D@2@@_STL@@@_STL@@@2@@_STL@@QAE@XZ
_TEXT	SEGMENT PARA USE32 PUBLIC 'CODE'
_TEXT	ENDS
;	COMDAT ??1?$allocator@U?$_List_node@V?$basic_string@DV?$char_traits@D@_STL@@V?$allocator@D@2@@_STL@@@_STL@@@_STL@@QAE@XZ
_TEXT	SEGMENT PARA USE32 PUBLIC 'CODE'
_TEXT	ENDS
;	COMDAT ?clear@?$_List_base@V?$basic_string@DV?$char_traits@D@_STL@@V?$allocator@D@2@@_STL@@V?$allocator@V?$basic_string@DV?$char_traits@D@_STL@@V?$allocator@D@2@@_STL@@@2@@_STL@@QAEXXZ
_TEXT	SEGMENT PARA USE32 PUBLIC 'CODE'
_TEXT	ENDS
;	COMDAT ??1?$allocator@V?$basic_string@DV?$char_traits@D@_STL@@V?$allocator@D@2@@_STL@@@_STL@@QAE@XZ
_TEXT	SEGMENT PARA USE32 PUBLIC 'CODE'
_TEXT	ENDS
;	COMDAT ??0?$_List_base@V?$basic_string@DV?$char_traits@D@_STL@@V?$allocator@D@2@@_STL@@V?$allocator@V?$basic_string@DV?$char_traits@D@_STL@@V?$allocator@D@2@@_STL@@@2@@_STL@@QAE@ABV?$allocator@V?$basic_string@DV?$char_traits@D@_STL@@V?$allocator@D@2@@_STL@@@1@@Z
_TEXT	SEGMENT PARA USE32 PUBLIC 'CODE'
_TEXT	ENDS
;	COMDAT ??0?$_STLP_alloc_proxy@PAU?$_List_node@V?$basic_string@DV?$char_traits@D@_STL@@V?$allocator@D@2@@_STL@@@_STL@@U12@V?$allocator@U?$_List_node@V?$basic_string@DV?$char_traits@D@_STL@@V?$allocator@D@2@@_STL@@@_STL@@@2@@_STL@@QAE@ABV?$allocator@U?$_List_node@V?$basic_string@DV?$char_traits@D@_STL@@V?$allocator@D@2@@_STL@@@_STL@@@1@PAU?$_List_node@V?$basic_string@DV?$char_traits@D@_STL@@V?$allocator@D@2@@_STL@@@1@@Z
_TEXT	SEGMENT PARA USE32 PUBLIC 'CODE'
_TEXT	ENDS
;	COMDAT ??0?$allocator@U?$_List_node@V?$basic_string@DV?$char_traits@D@_STL@@V?$allocator@D@2@@_STL@@@_STL@@@_STL@@QAE@ABV01@@Z
_TEXT	SEGMENT PARA USE32 PUBLIC 'CODE'
_TEXT	ENDS
;	COMDAT ??$?0V?$basic_string@DV?$char_traits@D@_STL@@V?$allocator@D@2@@_STL@@@?$allocator@U?$_List_node@V?$basic_string@DV?$char_traits@D@_STL@@V?$allocator@D@2@@_STL@@@_STL@@@_STL@@QAE@ABV?$allocator@V?$basic_string@DV?$char_traits@D@_STL@@V?$allocator@D@2@@_STL@@@1@@Z
_TEXT	SEGMENT PARA USE32 PUBLIC 'CODE'
_TEXT	ENDS
;	COMDAT ?setp@?$basic_streambuf@DV?$char_traits@D@_STL@@@_STL@@IAEXPAD0@Z
_TEXT	SEGMENT PARA USE32 PUBLIC 'CODE'
_TEXT	ENDS
;	COMDAT ?_FILE_O_set@_STL@@YAXPAU_iobuf@@PAD11@Z
_TEXT	SEGMENT PARA USE32 PUBLIC 'CODE'
_TEXT	ENDS
;	COMDAT ?_FILE_I_set@_STL@@YAXPAU_iobuf@@PAD11@Z
_TEXT	SEGMENT PARA USE32 PUBLIC 'CODE'
_TEXT	ENDS
;	COMDAT ?setg@?$basic_streambuf@DV?$char_traits@D@_STL@@@_STL@@IAEXPAD00@Z
_TEXT	SEGMENT PARA USE32 PUBLIC 'CODE'
_TEXT	ENDS
;	COMDAT ?__is_open@_Filebuf_base@_STL@@QBE_NXZ
_TEXT	SEGMENT PARA USE32 PUBLIC 'CODE'
_TEXT	ENDS
;	COMDAT ?allocate@?$__node_alloc@$00$0A@@_STL@@SAPAXI@Z
_TEXT	SEGMENT PARA USE32 PUBLIC 'CODE'
_TEXT	ENDS
;	COMDAT ?__stl_new@_STL@@YAPAXI@Z
_TEXT	SEGMENT PARA USE32 PUBLIC 'CODE'
_TEXT	ENDS
;	COMDAT ??1?$_STLP_alloc_proxy@PADDV?$allocator@D@_STL@@@_STL@@QAE@XZ
_TEXT	SEGMENT PARA USE32 PUBLIC 'CODE'
_TEXT	ENDS
;	COMDAT ??1?$allocator@D@_STL@@QAE@XZ
_TEXT	SEGMENT PARA USE32 PUBLIC 'CODE'
_TEXT	ENDS
;	COMDAT ?eof@?$__char_traits_base@DH@_STL@@SAHXZ
_TEXT	SEGMENT PARA USE32 PUBLIC 'CODE'
_TEXT	ENDS
;	COMDAT ??_7GCOtherStoreInfo@@6B@
CONST	SEGMENT DWORD USE32 PUBLIC 'CONST'
CONST	ENDS
;	COMDAT ??4?$basic_string@DV?$char_traits@D@_STL@@V?$allocator@D@2@@_STL@@QAEAAV01@ABV01@@Z
_TEXT	SEGMENT PARA USE32 PUBLIC 'CODE'
_TEXT	ENDS
;	COMDAT ??$assign@PAD@?$basic_string@DV?$char_traits@D@_STL@@V?$allocator@D@2@@_STL@@QAEAAV01@PAD0@Z
_TEXT	SEGMENT PARA USE32 PUBLIC 'CODE'
_TEXT	ENDS
;	COMDAT ??0?$basic_string@DV?$char_traits@D@_STL@@V?$allocator@D@2@@_STL@@QAE@XZ
_TEXT	SEGMENT PARA USE32 PUBLIC 'CODE'
_TEXT	ENDS
;	COMDAT ??0?$allocator@D@_STL@@QAE@XZ
_TEXT	SEGMENT PARA USE32 PUBLIC 'CODE'
_TEXT	ENDS
;	COMDAT ??1?$_String_base@DV?$allocator@D@_STL@@@_STL@@QAE@XZ
_TEXT	SEGMENT PARA USE32 PUBLIC 'CODE'
_TEXT	ENDS
;	COMDAT ??_7StoreItemInfo@@6B@
CONST	SEGMENT DWORD USE32 PUBLIC 'CONST'
CONST	ENDS
;	COMDAT ??9_List_iterator_base@_STL@@QBE_NABU01@@Z
_TEXT	SEGMENT PARA USE32 PUBLIC 'CODE'
_TEXT	ENDS
;	COMDAT ??_7PacketFactory@@6B@
CONST	SEGMENT DWORD USE32 PUBLIC 'CONST'
CONST	ENDS
;	COMDAT ??1?$list@V?$basic_string@DV?$char_traits@D@_STL@@V?$allocator@D@2@@_STL@@V?$allocator@V?$basic_string@DV?$char_traits@D@_STL@@V?$allocator@D@2@@_STL@@@2@@_STL@@QAE@XZ
_TEXT	SEGMENT PARA USE32 PUBLIC 'CODE'
_TEXT	ENDS
;	COMDAT ??_7Throwable@@6B@
CONST	SEGMENT DWORD USE32 PUBLIC 'CONST'
CONST	ENDS
;	COMDAT ??_R4Throwable@@6B@
rdata$r	SEGMENT DWORD USE32 PUBLIC 'CONST'
rdata$r	ENDS
;	COMDAT ??_R3Throwable@@8
rdata$r	SEGMENT DWORD USE32 PUBLIC 'CONST'
rdata$r	ENDS
;	COMDAT ??_R2Throwable@@8
rdata$r	SEGMENT DWORD USE32 PUBLIC 'CONST'
rdata$r	ENDS
;	COMDAT ??_R1A@?0A@A@Throwable@@8
rdata$r	SEGMENT DWORD USE32 PUBLIC 'CONST'
rdata$r	ENDS
;	COMDAT ??_GThrowable@@UAEPAXI@Z
_TEXT	SEGMENT PARA USE32 PUBLIC 'CODE'
_TEXT	ENDS
;	COMDAT ?getName@Throwable@@UBE?AV?$basic_string@DV?$char_traits@D@_STL@@V?$allocator@D@2@@_STL@@XZ
_TEXT	SEGMENT PARA USE32 PUBLIC 'CODE'
_TEXT	ENDS
;	COMDAT ??0?$basic_string@DV?$char_traits@D@_STL@@V?$allocator@D@2@@_STL@@QAE@PBDABV?$allocator@D@1@@Z
_TEXT	SEGMENT PARA USE32 PUBLIC 'CODE'
_TEXT	ENDS
;	COMDAT ?length@?$char_traits@D@_STL@@SAIPBD@Z
_TEXT	SEGMENT PARA USE32 PUBLIC 'CODE'
_TEXT	ENDS
;	COMDAT ??_C@_09KCKHMJEM@Throwable?$AA@
CONST	SEGMENT DWORD USE32 PUBLIC 'CONST'
CONST	ENDS
;	COMDAT ?toString@Throwable@@UBE?AV?$basic_string@DV?$char_traits@D@_STL@@V?$allocator@D@2@@_STL@@XZ
_TEXT	SEGMENT PARA USE32 PUBLIC 'CODE'
_TEXT	ENDS
;	COMDAT ??_C@_03MCPBMLDJ@?5?3?5?$AA@
CONST	SEGMENT DWORD USE32 PUBLIC 'CONST'
CONST	ENDS
;	COMDAT ?getStackTrace@Throwable@@QBE?AV?$basic_string@DV?$char_traits@D@_STL@@V?$allocator@D@2@@_STL@@XZ
_TEXT	SEGMENT PARA USE32 PUBLIC 'CODE'
_TEXT	ENDS
;	COMDAT ??E?$_List_iterator@V?$basic_string@DV?$char_traits@D@_STL@@V?$allocator@D@2@@_STL@@U?$_Const_traits@V?$basic_string@DV?$char_traits@D@_STL@@V?$allocator@D@2@@_STL@@@2@@_STL@@QAE?AU01@H@Z
_TEXT	SEGMENT PARA USE32 PUBLIC 'CODE'
_TEXT	ENDS
;	COMDAT ??_C@_01CLKCMJKC@?5?$AA@
CONST	SEGMENT DWORD USE32 PUBLIC 'CONST'
CONST	ENDS
;	COMDAT ??_7Error@@6B@
CONST	SEGMENT DWORD USE32 PUBLIC 'CONST'
CONST	ENDS
;	COMDAT ??_R4Error@@6B@
rdata$r	SEGMENT DWORD USE32 PUBLIC 'CONST'
rdata$r	ENDS
;	COMDAT ??_R3Error@@8
rdata$r	SEGMENT DWORD USE32 PUBLIC 'CONST'
rdata$r	ENDS
;	COMDAT ??_R2Error@@8
rdata$r	SEGMENT DWORD USE32 PUBLIC 'CONST'
rdata$r	ENDS
;	COMDAT ??_R1A@?0A@A@Error@@8
rdata$r	SEGMENT DWORD USE32 PUBLIC 'CONST'
rdata$r	ENDS
;	COMDAT ??_GError@@UAEPAXI@Z
_TEXT	SEGMENT PARA USE32 PUBLIC 'CODE'
_TEXT	ENDS
;	COMDAT ?getName@Error@@UBE?AV?$basic_string@DV?$char_traits@D@_STL@@V?$allocator@D@2@@_STL@@XZ
_TEXT	SEGMENT PARA USE32 PUBLIC 'CODE'
_TEXT	ENDS
;	COMDAT ??_C@_05NAOIJFC@Error?$AA@
CONST	SEGMENT DWORD USE32 PUBLIC 'CONST'
CONST	ENDS
;	COMDAT ??1Throwable@@UAE@XZ
_TEXT	SEGMENT PARA USE32 PUBLIC 'CODE'
_TEXT	ENDS
;	COMDAT ??_7UnsupportedError@@6B@
CONST	SEGMENT DWORD USE32 PUBLIC 'CONST'
CONST	ENDS
;	COMDAT ??_R4UnsupportedError@@6B@
rdata$r	SEGMENT DWORD USE32 PUBLIC 'CONST'
rdata$r	ENDS
;	COMDAT ??_R3UnsupportedError@@8
rdata$r	SEGMENT DWORD USE32 PUBLIC 'CONST'
rdata$r	ENDS
;	COMDAT ??_R2UnsupportedError@@8
rdata$r	SEGMENT DWORD USE32 PUBLIC 'CONST'
rdata$r	ENDS
;	COMDAT ??_R1A@?0A@A@UnsupportedError@@8
rdata$r	SEGMENT DWORD USE32 PUBLIC 'CONST'
rdata$r	ENDS
;	COMDAT ??_GUnsupportedError@@UAEPAXI@Z
_TEXT	SEGMENT PARA USE32 PUBLIC 'CODE'
_TEXT	ENDS
;	COMDAT ?getName@UnsupportedError@@UBE?AV?$basic_string@DV?$char_traits@D@_STL@@V?$allocator@D@2@@_STL@@XZ
_TEXT	SEGMENT PARA USE32 PUBLIC 'CODE'
_TEXT	ENDS
;	COMDAT ??_C@_0BB@EOCHEBED@UnsupportedError?$AA@
CONST	SEGMENT DWORD USE32 PUBLIC 'CONST'
CONST	ENDS
;	COMDAT ??1Error@@UAE@XZ
_TEXT	SEGMENT PARA USE32 PUBLIC 'CODE'
_TEXT	ENDS
;	COMDAT __CTA3?AVUnsupportedError@@
xdata$x	SEGMENT DWORD USE32 PUBLIC 'CONST'
xdata$x	ENDS
;	COMDAT ??1UnsupportedError@@UAE@XZ
_TEXT	SEGMENT PARA USE32 PUBLIC 'CODE'
_TEXT	ENDS
;	COMDAT __CT??_R0?AVThrowable@@@8??0Throwable@@QAE@ABV0@@Z20
xdata$x	SEGMENT DWORD USE32 PUBLIC 'CONST'
xdata$x	ENDS
;	COMDAT __CT??_R0?AVError@@@8??0Error@@QAE@ABV0@@Z20
xdata$x	SEGMENT DWORD USE32 PUBLIC 'CONST'
xdata$x	ENDS
;	COMDAT __CT??_R0?AVUnsupportedError@@@8??0UnsupportedError@@QAE@ABV0@@Z20
xdata$x	SEGMENT DWORD USE32 PUBLIC 'CONST'
xdata$x	ENDS
;	COMDAT ??_R0?AVThrowable@@@8
_DATA	SEGMENT DWORD USE32 PUBLIC 'DATA'
_DATA	ENDS
;	COMDAT ??_R0?AVError@@@8
_DATA	SEGMENT DWORD USE32 PUBLIC 'DATA'
_DATA	ENDS
;	COMDAT ??_R0?AVUnsupportedError@@@8
_DATA	SEGMENT DWORD USE32 PUBLIC 'DATA'
_DATA	ENDS
;	COMDAT __TI3?AVUnsupportedError@@
xdata$x	SEGMENT DWORD USE32 PUBLIC 'CONST'
xdata$x	ENDS
;	COMDAT ??0UnsupportedError@@QAE@XZ
_TEXT	SEGMENT PARA USE32 PUBLIC 'CODE'
_TEXT	ENDS
;	COMDAT ??0Error@@QAE@XZ
_TEXT	SEGMENT PARA USE32 PUBLIC 'CODE'
_TEXT	ENDS
;	COMDAT ??0Throwable@@QAE@XZ
_TEXT	SEGMENT PARA USE32 PUBLIC 'CODE'
_TEXT	ENDS
;	COMDAT ??0?$list@V?$basic_string@DV?$char_traits@D@_STL@@V?$allocator@D@2@@_STL@@V?$allocator@V?$basic_string@DV?$char_traits@D@_STL@@V?$allocator@D@2@@_STL@@@2@@_STL@@QAE@ABV?$allocator@V?$basic_string@DV?$char_traits@D@_STL@@V?$allocator@D@2@@_STL@@@1@@Z
_TEXT	SEGMENT PARA USE32 PUBLIC 'CODE'
_TEXT	ENDS
;	COMDAT ??0?$allocator@V?$basic_string@DV?$char_traits@D@_STL@@V?$allocator@D@2@@_STL@@@_STL@@QAE@XZ
_TEXT	SEGMENT PARA USE32 PUBLIC 'CODE'
_TEXT	ENDS
;	COMDAT ??_7Packet@@6B@
CONST	SEGMENT DWORD USE32 PUBLIC 'CONST'
CONST	ENDS
;	COMDAT ??1?$basic_string@DV?$char_traits@D@_STL@@V?$allocator@D@2@@_STL@@QAE@XZ
_TEXT	SEGMENT PARA USE32 PUBLIC 'CODE'
_TEXT	ENDS
;	COMDAT ??0?$basic_string@DV?$char_traits@D@_STL@@V?$allocator@D@2@@_STL@@QAE@ABV01@@Z
_TEXT	SEGMENT PARA USE32 PUBLIC 'CODE'
_TEXT	ENDS
sxdata	SEGMENT DWORD USE32 'SXDATA'
sxdata	ENDS
FLAT	GROUP _DATA, CONST, _BSS
	ASSUME	CS: FLAT, DS: FLAT, SS: FLAT
endif

INCLUDELIB LIBCMT
INCLUDELIB OLDNAMES

PUBLIC	??2@YAPAXIPAX@Z					; operator new
; Function compile flags: /Ogsy
; File c:\program files\microsoft visual studio .net 2003\vc7\include\new
;	COMDAT ??2@YAPAXIPAX@Z
_TEXT	SEGMENT
___formal$ = 8						; size = 4
__Where$ = 12						; size = 4
??2@YAPAXIPAX@Z PROC NEAR				; operator new, COMDAT

; 64   : 	return (_Where);

  00000	8b 44 24 08	 mov	 eax, DWORD PTR __Where$[esp-4]

; 65   : 	}

  00004	c3		 ret	 0
??2@YAPAXIPAX@Z ENDP					; operator new
_TEXT	ENDS
PUBLIC	??3@YAXPAX0@Z					; operator delete
; Function compile flags: /Ogsy
;	COMDAT ??3@YAXPAX0@Z
_TEXT	SEGMENT
___formal$ = 8						; size = 4
___formal$ = 12						; size = 4
??3@YAXPAX0@Z PROC NEAR					; operator delete, COMDAT

; 69   : 	}

  00000	c3		 ret	 0
??3@YAXPAX0@Z ENDP					; operator delete
_TEXT	ENDS
PUBLIC	?__stl_new@_STL@@YAPAXI@Z			; _STL::__stl_new
EXTRN	??2@YAPAXI@Z:NEAR				; operator new
; Function compile flags: /Ogsy
; File c:\stlport-4.6.1\stlport\stl\_new.h
;	COMDAT ?__stl_new@_STL@@YAPAXI@Z
_TEXT	SEGMENT
___n$ = 8						; size = 4
?__stl_new@_STL@@YAPAXI@Z PROC NEAR			; _STL::__stl_new, COMDAT

; 86   : inline void*  _STLP_CALL __stl_new(size_t __n)   { _STLP_CHECK_NULL_ALLOC(::operator _STLP_NEW(__n)); }

  00000	e9 00 00 00 00	 jmp	 ??2@YAPAXI@Z		; operator new
?__stl_new@_STL@@YAPAXI@Z ENDP				; _STL::__stl_new
_TEXT	ENDS
PUBLIC	?__stl_delete@_STL@@YAXPAX@Z			; _STL::__stl_delete
EXTRN	??3@YAXPAX@Z:NEAR				; operator delete
; Function compile flags: /Ogsy
;	COMDAT ?__stl_delete@_STL@@YAXPAX@Z
_TEXT	SEGMENT
___p$ = 8						; size = 4
?__stl_delete@_STL@@YAXPAX@Z PROC NEAR			; _STL::__stl_delete, COMDAT

; 87   : inline void   _STLP_CALL __stl_delete(void* __p) { ::operator delete(__p); }

  00000	e9 00 00 00 00	 jmp	 ??3@YAXPAX@Z		; operator delete
?__stl_delete@_STL@@YAXPAX@Z ENDP			; _STL::__stl_delete
_TEXT	ENDS
PUBLIC	?read@SocketInputStream@@QAEIAAE@Z		; SocketInputStream::read
EXTRN	?read@SocketInputStream@@QAEIPADI@Z:NEAR	; SocketInputStream::read
; Function compile flags: /Ogsy
; File c:\darkeden\designed_common\project\client\packet\socketinputstream.h
;	COMDAT ?read@SocketInputStream@@QAEIAAE@Z
_TEXT	SEGMENT
_buf$ = 8						; size = 4
?read@SocketInputStream@@QAEIAAE@Z PROC NEAR		; SocketInputStream::read, COMDAT
; _this$ = ecx

; 69   : 	uint read ( uchar  & buf ) throw ( ProtocolException , Error ) { return read( (char*)&buf, szuchar  ); }

  00000	6a 01		 push	 1
  00002	ff 74 24 08	 push	 DWORD PTR _buf$[esp]
  00006	e8 00 00 00 00	 call	 ?read@SocketInputStream@@QAEIPADI@Z ; SocketInputStream::read
  0000b	c2 04 00	 ret	 4
?read@SocketInputStream@@QAEIAAE@Z ENDP			; SocketInputStream::read
_TEXT	ENDS
PUBLIC	?read@SocketInputStream@@QAEIAAK@Z		; SocketInputStream::read
; Function compile flags: /Ogsy
;	COMDAT ?read@SocketInputStream@@QAEIAAK@Z
_TEXT	SEGMENT
_buf$ = 8						; size = 4
?read@SocketInputStream@@QAEIAAK@Z PROC NEAR		; SocketInputStream::read, COMDAT
; _this$ = ecx

; 75   : 	uint read ( ulong  & buf ) throw ( ProtocolException , Error ) { return read( (char*)&buf, szulong  ); }

  00000	6a 04		 push	 4
  00002	ff 74 24 08	 push	 DWORD PTR _buf$[esp]
  00006	e8 00 00 00 00	 call	 ?read@SocketInputStream@@QAEIPADI@Z ; SocketInputStream::read
  0000b	c2 04 00	 ret	 4
?read@SocketInputStream@@QAEIAAK@Z ENDP			; SocketInputStream::read
_TEXT	ENDS
PUBLIC	?_Destroy@_STL@@YAXPAD0@Z			; _STL::_Destroy
; Function compile flags: /Ogsy
; File c:\stlport-4.6.1\stlport\stl\_construct.h
;	COMDAT ?_Destroy@_STL@@YAXPAD0@Z
_TEXT	SEGMENT
___formal$ = 8						; size = 4
___formal$ = 12						; size = 4
?_Destroy@_STL@@YAXPAD0@Z PROC NEAR			; _STL::_Destroy, COMDAT

; 142  : inline void _Destroy(char*, char*) {}

  00000	c3		 ret	 0
?_Destroy@_STL@@YAXPAD0@Z ENDP				; _STL::_Destroy
_TEXT	ENDS
PUBLIC	?write@SocketOutputStream@@QAEIE@Z		; SocketOutputStream::write
EXTRN	?write@SocketOutputStream@@QAEIPBDI@Z:NEAR	; SocketOutputStream::write
; Function compile flags: /Ogsy
; File c:\darkeden\designed_common\project\client\packet\socketoutputstream.h
;	COMDAT ?write@SocketOutputStream@@QAEIE@Z
_TEXT	SEGMENT
_buf$ = 8						; size = 1
?write@SocketOutputStream@@QAEIE@Z PROC NEAR		; SocketOutputStream::write, COMDAT
; _this$ = ecx

; 62   :     uint write ( uchar  buf ) throw ( ProtocolException , Error ) { return write( (const char*)&buf, szuchar  ); }

  00000	6a 01		 push	 1
  00002	8d 44 24 08	 lea	 eax, DWORD PTR _buf$[esp]
  00006	50		 push	 eax
  00007	e8 00 00 00 00	 call	 ?write@SocketOutputStream@@QAEIPBDI@Z ; SocketOutputStream::write
  0000c	c2 04 00	 ret	 4
?write@SocketOutputStream@@QAEIE@Z ENDP			; SocketOutputStream::write
_TEXT	ENDS
PUBLIC	?write@SocketOutputStream@@QAEIK@Z		; SocketOutputStream::write
; Function compile flags: /Ogsy
;	COMDAT ?write@SocketOutputStream@@QAEIK@Z
_TEXT	SEGMENT
_buf$ = 8						; size = 4
?write@SocketOutputStream@@QAEIK@Z PROC NEAR		; SocketOutputStream::write, COMDAT
; _this$ = ecx

; 68   :     uint write ( ulong  buf ) throw ( ProtocolException , Error ) { return write( (const char*)&buf, szulong  ); }

  00000	6a 04		 push	 4
  00002	8d 44 24 08	 lea	 eax, DWORD PTR _buf$[esp]
  00006	50		 push	 eax
  00007	e8 00 00 00 00	 call	 ?write@SocketOutputStream@@QAEIPBDI@Z ; SocketOutputStream::write
  0000c	c2 04 00	 ret	 4
?write@SocketOutputStream@@QAEIK@Z ENDP			; SocketOutputStream::write
_TEXT	ENDS
PUBLIC	??1Packet@@UAE@XZ				; Packet::~Packet
PUBLIC	?read@Packet@@UAEXPAVSocket@@@Z			; Packet::read
PUBLIC	?write@Packet@@UBEXPAVSocket@@@Z		; Packet::write
PUBLIC	??_7Packet@@6B@					; Packet::`vftable'
PUBLIC	??_GPacket@@UAEPAXI@Z				; Packet::`scalar deleting destructor'
PUBLIC	??_R1A@?0A@A@Packet@@8				; Packet::`RTTI Base Class Descriptor at (0,-1,0,0)'
PUBLIC	??_R0?AVPacket@@@8				; Packet `RTTI Type Descriptor'
PUBLIC	??_R4Packet@@6B@				; Packet::`RTTI Complete Object Locator'
PUBLIC	??_R3Packet@@8					; Packet::`RTTI Class Hierarchy Descriptor'
PUBLIC	??_R2Packet@@8					; Packet::`RTTI Base Class Array'
EXTRN	??_7type_info@@6B@:QWORD			; type_info::`vftable'
EXTRN	??_EPacket@@UAEPAXI@Z:NEAR			; Packet::`vector deleting destructor'
EXTRN	__purecall:NEAR
;	COMDAT ??_7Packet@@6B@
; File c:\darkeden\designed_common\project\client\packet\packet.h
CONST	SEGMENT
??_7Packet@@6B@ DD FLAT:??_R4Packet@@6B@		; Packet::`vftable'
	DD	FLAT:??_EPacket@@UAEPAXI@Z
	DD	FLAT:?read@Packet@@UAEXPAVSocket@@@Z
	DD	FLAT:__purecall
	DD	FLAT:?write@Packet@@UBEXPAVSocket@@@Z
	DD	FLAT:__purecall
	DD	FLAT:__purecall
	DD	FLAT:__purecall
	DD	FLAT:__purecall
CONST	ENDS
;	COMDAT ??_R4Packet@@6B@
rdata$r	SEGMENT
??_R4Packet@@6B@ DD 00H					; Packet::`RTTI Complete Object Locator'
	DD	00H
	DD	00H
	DD	FLAT:??_R0?AVPacket@@@8
	DD	FLAT:??_R3Packet@@8
rdata$r	ENDS
;	COMDAT ??_R0?AVPacket@@@8
_DATA	SEGMENT
??_R0?AVPacket@@@8 DD FLAT:??_7type_info@@6B@		; Packet `RTTI Type Descriptor'
	DD	00H
	DB	'.?AVPacket@@', 00H
_DATA	ENDS
;	COMDAT ??_R3Packet@@8
rdata$r	SEGMENT
??_R3Packet@@8 DD 00H					; Packet::`RTTI Class Hierarchy Descriptor'
	DD	00H
	DD	01H
	DD	FLAT:??_R2Packet@@8
rdata$r	ENDS
;	COMDAT ??_R2Packet@@8
rdata$r	SEGMENT
??_R2Packet@@8 DD FLAT:??_R1A@?0A@A@Packet@@8		; Packet::`RTTI Base Class Array'
rdata$r	ENDS
;	COMDAT ??_R1A@?0A@A@Packet@@8
rdata$r	SEGMENT
??_R1A@?0A@A@Packet@@8 DD FLAT:??_R0?AVPacket@@@8	; Packet::`RTTI Base Class Descriptor at (0,-1,0,0)'
	DD	00H
	DD	00H
	DD	0ffffffffH
	DD	00H
	DD	00H
; Function compile flags: /Ogsy
rdata$r	ENDS
;	COMDAT ??1Packet@@UAE@XZ
_TEXT	SEGMENT
??1Packet@@UAE@XZ PROC NEAR				; Packet::~Packet, COMDAT
; _this$ = ecx

; 726  : 	virtual ~Packet () throw () {}

  00000	c7 01 00 00 00
	00		 mov	 DWORD PTR [ecx], OFFSET FLAT:??_7Packet@@6B@
  00006	c3		 ret	 0
??1Packet@@UAE@XZ ENDP					; Packet::~Packet
; Function compile flags: /Ogsy
_TEXT	ENDS
;	COMDAT ??_GPacket@@UAEPAXI@Z
_TEXT	SEGMENT
___flags$ = 8						; size = 4
??_GPacket@@UAEPAXI@Z PROC NEAR				; Packet::`scalar deleting destructor', COMDAT
; _this$ = ecx
  00000	f6 44 24 04 01	 test	 BYTE PTR ___flags$[esp-4], 1
  00005	56		 push	 esi
  00006	8b f1		 mov	 esi, ecx
  00008	c7 06 00 00 00
	00		 mov	 DWORD PTR [esi], OFFSET FLAT:??_7Packet@@6B@
  0000e	74 07		 je	 SHORT $L100453
  00010	56		 push	 esi
  00011	e8 00 00 00 00	 call	 ??3@YAXPAX@Z		; operator delete
  00016	59		 pop	 ecx
$L100453:
  00017	8b c6		 mov	 eax, esi
  00019	5e		 pop	 esi
  0001a	c2 04 00	 ret	 4
??_GPacket@@UAEPAXI@Z ENDP				; Packet::`scalar deleting destructor'
_TEXT	ENDS
PUBLIC	??0StoreItemInfo@@QAE@XZ			; StoreItemInfo::StoreItemInfo
PUBLIC	??_7StoreItemInfo@@6B@				; StoreItemInfo::`vftable'
PUBLIC	??_GStoreItemInfo@@UAEPAXI@Z			; StoreItemInfo::`scalar deleting destructor'
PUBLIC	??_R4StoreItemInfo@@6B@				; StoreItemInfo::`RTTI Complete Object Locator'
PUBLIC	??_R0?AVStoreItemInfo@@@8			; StoreItemInfo `RTTI Type Descriptor'
PUBLIC	??_R3StoreItemInfo@@8				; StoreItemInfo::`RTTI Class Hierarchy Descriptor'
PUBLIC	??_R2StoreItemInfo@@8				; StoreItemInfo::`RTTI Base Class Array'
PUBLIC	??_R1A@?0A@A@StoreItemInfo@@8			; StoreItemInfo::`RTTI Base Class Descriptor at (0,-1,0,0)'
PUBLIC	??_R1A@?0A@A@PCItemInfo@@8			; PCItemInfo::`RTTI Base Class Descriptor at (0,-1,0,0)'
PUBLIC	??_R0?AVPCItemInfo@@@8				; PCItemInfo `RTTI Type Descriptor'
EXTRN	??_EStoreItemInfo@@UAEPAXI@Z:NEAR		; StoreItemInfo::`vector deleting destructor'
EXTRN	??0PCItemInfo@@QAE@XZ:NEAR			; PCItemInfo::PCItemInfo
;	COMDAT ??_7StoreItemInfo@@6B@
; File c:\darkeden\designed_common\project\client\storeinfo.h
CONST	SEGMENT
??_7StoreItemInfo@@6B@ DD FLAT:??_R4StoreItemInfo@@6B@	; StoreItemInfo::`vftable'
	DD	FLAT:??_EStoreItemInfo@@UAEPAXI@Z
CONST	ENDS
;	COMDAT ??_R4StoreItemInfo@@6B@
rdata$r	SEGMENT
??_R4StoreItemInfo@@6B@ DD 00H				; StoreItemInfo::`RTTI Complete Object Locator'
	DD	00H
	DD	00H
	DD	FLAT:??_R0?AVStoreItemInfo@@@8
	DD	FLAT:??_R3StoreItemInfo@@8
rdata$r	ENDS
;	COMDAT ??_R0?AVStoreItemInfo@@@8
_DATA	SEGMENT
??_R0?AVStoreItemInfo@@@8 DD FLAT:??_7type_info@@6B@	; StoreItemInfo `RTTI Type Descriptor'
	DD	00H
	DB	'.?AVStoreItemInfo@@', 00H
_DATA	ENDS
;	COMDAT ??_R3StoreItemInfo@@8
rdata$r	SEGMENT
??_R3StoreItemInfo@@8 DD 00H				; StoreItemInfo::`RTTI Class Hierarchy Descriptor'
	DD	00H
	DD	02H
	DD	FLAT:??_R2StoreItemInfo@@8
rdata$r	ENDS
;	COMDAT ??_R2StoreItemInfo@@8
rdata$r	SEGMENT
??_R2StoreItemInfo@@8 DD FLAT:??_R1A@?0A@A@StoreItemInfo@@8 ; StoreItemInfo::`RTTI Base Class Array'
	DD	FLAT:??_R1A@?0A@A@PCItemInfo@@8
rdata$r	ENDS
;	COMDAT ??_R1A@?0A@A@StoreItemInfo@@8
rdata$r	SEGMENT
??_R1A@?0A@A@StoreItemInfo@@8 DD FLAT:??_R0?AVStoreItemInfo@@@8 ; StoreItemInfo::`RTTI Base Class Descriptor at (0,-1,0,0)'
	DD	01H
	DD	00H
	DD	0ffffffffH
	DD	00H
	DD	00H
rdata$r	ENDS
;	COMDAT ??_R1A@?0A@A@PCItemInfo@@8
rdata$r	SEGMENT
??_R1A@?0A@A@PCItemInfo@@8 DD FLAT:??_R0?AVPCItemInfo@@@8 ; PCItemInfo::`RTTI Base Class Descriptor at (0,-1,0,0)'
	DD	00H
	DD	00H
	DD	0ffffffffH
	DD	00H
	DD	00H
rdata$r	ENDS
;	COMDAT ??_R0?AVPCItemInfo@@@8
_DATA	SEGMENT
??_R0?AVPCItemInfo@@@8 DD FLAT:??_7type_info@@6B@	; PCItemInfo `RTTI Type Descriptor'
	DD	00H
	DB	'.?AVPCItemInfo@@', 00H
; Function compile flags: /Ogsy
_DATA	ENDS
;	COMDAT ??0StoreItemInfo@@QAE@XZ
_TEXT	SEGMENT
??0StoreItemInfo@@QAE@XZ PROC NEAR			; StoreItemInfo::StoreItemInfo, COMDAT
; _this$ = ecx

; 20   : 	StoreItemInfo() : m_ItemExist(0), m_Price(0) { }

  00000	56		 push	 esi
  00001	8b f1		 mov	 esi, ecx
  00003	e8 00 00 00 00	 call	 ??0PCItemInfo@@QAE@XZ	; PCItemInfo::PCItemInfo
  00008	83 66 3c 00	 and	 DWORD PTR [esi+60], 0
  0000c	c7 06 00 00 00
	00		 mov	 DWORD PTR [esi], OFFSET FLAT:??_7StoreItemInfo@@6B@
  00012	c6 46 38 00	 mov	 BYTE PTR [esi+56], 0
  00016	8b c6		 mov	 eax, esi
  00018	5e		 pop	 esi
  00019	c3		 ret	 0
??0StoreItemInfo@@QAE@XZ ENDP				; StoreItemInfo::StoreItemInfo
_TEXT	ENDS
PUBLIC	??1StoreItemInfo@@UAE@XZ			; StoreItemInfo::~StoreItemInfo
EXTRN	??1PCItemInfo@@UAE@XZ:NEAR			; PCItemInfo::~PCItemInfo
; Function compile flags: /Ogsy
;	COMDAT ??1StoreItemInfo@@UAE@XZ
_TEXT	SEGMENT
??1StoreItemInfo@@UAE@XZ PROC NEAR			; StoreItemInfo::~StoreItemInfo, COMDAT
; _this$ = ecx
  00000	e9 00 00 00 00	 jmp	 ??1PCItemInfo@@UAE@XZ	; PCItemInfo::~PCItemInfo
??1StoreItemInfo@@UAE@XZ ENDP				; StoreItemInfo::~StoreItemInfo
_TEXT	ENDS
PUBLIC	??1GCOtherStoreInfo@@UAE@XZ			; GCOtherStoreInfo::~GCOtherStoreInfo
; Function compile flags: /Ogsy
; File c:\darkeden\designed_common\project\client\packet\gpackets\gcotherstoreinfo.cpp
;	COMDAT ??1GCOtherStoreInfo@@UAE@XZ
_TEXT	SEGMENT
??1GCOtherStoreInfo@@UAE@XZ PROC NEAR			; GCOtherStoreInfo::~GCOtherStoreInfo, COMDAT
; _this$ = ecx

; 16   : 	__BEGIN_TRY 
; 17   : 
; 18   : 	__END_CATCH
; 19   : }

  00000	c7 01 00 00 00
	00		 mov	 DWORD PTR [ecx], OFFSET FLAT:??_7Packet@@6B@
  00006	c3		 ret	 0
??1GCOtherStoreInfo@@UAE@XZ ENDP			; GCOtherStoreInfo::~GCOtherStoreInfo
_TEXT	ENDS
PUBLIC	?write@GCOtherStoreInfo@@UBEXAAVSocketOutputStream@@@Z ; GCOtherStoreInfo::write
EXTRN	?write@StoreInfo@@QBEXAAVSocketOutputStream@@_N@Z:NEAR ; StoreInfo::write
; Function compile flags: /Ogsy
;	COMDAT ?write@GCOtherStoreInfo@@UBEXAAVSocketOutputStream@@@Z
_TEXT	SEGMENT
$T103846 = -8						; size = 4
$T103850 = -4						; size = 1
_oStream$ = 8						; size = 4
?write@GCOtherStoreInfo@@UBEXAAVSocketOutputStream@@@Z PROC NEAR ; GCOtherStoreInfo::write, COMDAT
; _this$ = ecx

; 45   : {

  00000	55		 push	 ebp
  00001	8b ec		 mov	 ebp, esp
  00003	51		 push	 ecx
  00004	51		 push	 ecx
  00005	56		 push	 esi
  00006	8b f1		 mov	 esi, ecx

; 46   : 	__BEGIN_TRY
; 47   : 
; 48   : 	oStream.write(m_ObjectID);

  00008	8b 46 04	 mov	 eax, DWORD PTR [esi+4]
  0000b	8b 4d 08	 mov	 ecx, DWORD PTR _oStream$[ebp]
  0000e	89 45 f8	 mov	 DWORD PTR $T103846[ebp], eax
  00011	6a 04		 push	 4
  00013	8d 45 f8	 lea	 eax, DWORD PTR $T103846[ebp]
  00016	50		 push	 eax
  00017	e8 00 00 00 00	 call	 ?write@SocketOutputStream@@QAEIPBDI@Z ; SocketOutputStream::write

; 49   : 	oStream.write(m_IsRequested);

  0001c	8a 46 08	 mov	 al, BYTE PTR [esi+8]
  0001f	8b 4d 08	 mov	 ecx, DWORD PTR _oStream$[ebp]
  00022	88 45 fc	 mov	 BYTE PTR $T103850[ebp], al
  00025	6a 01		 push	 1
  00027	8d 45 fc	 lea	 eax, DWORD PTR $T103850[ebp]
  0002a	50		 push	 eax
  0002b	e8 00 00 00 00	 call	 ?write@SocketOutputStream@@QAEIPBDI@Z ; SocketOutputStream::write

; 50   : 	m_pInfo->write( oStream, true );

  00030	8b 4e 0c	 mov	 ecx, DWORD PTR [esi+12]
  00033	6a 01		 push	 1
  00035	ff 75 08	 push	 DWORD PTR _oStream$[ebp]
  00038	e8 00 00 00 00	 call	 ?write@StoreInfo@@QBEXAAVSocketOutputStream@@_N@Z ; StoreInfo::write
  0003d	5e		 pop	 esi

; 51   : 
; 52   : 	__END_CATCH
; 53   : }

  0003e	c9		 leave
  0003f	c2 04 00	 ret	 4
?write@GCOtherStoreInfo@@UBEXAAVSocketOutputStream@@@Z ENDP ; GCOtherStoreInfo::write
_TEXT	ENDS
PUBLIC	?execute@GCOtherStoreInfo@@UAEXPAVPlayer@@@Z	; GCOtherStoreInfo::execute
EXTRN	?execute@GCOtherStoreInfoHandler@@SAXPAVGCOtherStoreInfo@@PAVPlayer@@@Z:NEAR ; GCOtherStoreInfoHandler::execute
; Function compile flags: /Ogsy
;	COMDAT ?execute@GCOtherStoreInfo@@UAEXPAVPlayer@@@Z
_TEXT	SEGMENT
_pPlayer$ = 8						; size = 4
?execute@GCOtherStoreInfo@@UAEXPAVPlayer@@@Z PROC NEAR	; GCOtherStoreInfo::execute, COMDAT
; _this$ = ecx

; 62   : 	__BEGIN_TRY
; 63   : 		
; 64   : 	GCOtherStoreInfoHandler::execute( this , pPlayer );

  00000	ff 74 24 04	 push	 DWORD PTR _pPlayer$[esp-4]
  00004	51		 push	 ecx
  00005	e8 00 00 00 00	 call	 ?execute@GCOtherStoreInfoHandler@@SAXPAVGCOtherStoreInfo@@PAVPlayer@@@Z ; GCOtherStoreInfoHandler::execute
  0000a	59		 pop	 ecx
  0000b	59		 pop	 ecx

; 65   : 
; 66   : 	__END_CATCH
; 67   : }

  0000c	c2 04 00	 ret	 4
?execute@GCOtherStoreInfo@@UAEXPAVPlayer@@@Z ENDP	; GCOtherStoreInfo::execute
_TEXT	ENDS
PUBLIC	?_M_terminate_string_aux@?$basic_string@DV?$char_traits@D@_STL@@V?$allocator@D@2@@_STL@@AAEXABU__true_type@2@@Z ; _STL::basic_string<char,_STL::char_traits<char>,_STL::allocator<char> >::_M_terminate_string_aux
; Function compile flags: /Ogsy
; File c:\stlport-4.6.1\stlport\stl\_string.h
;	COMDAT ?_M_terminate_string_aux@?$basic_string@DV?$char_traits@D@_STL@@V?$allocator@D@2@@_STL@@AAEXABU__true_type@2@@Z
_TEXT	SEGMENT
___formal$ = 8						; size = 4
?_M_terminate_string_aux@?$basic_string@DV?$char_traits@D@_STL@@V?$allocator@D@2@@_STL@@AAEXABU__true_type@2@@Z PROC NEAR ; _STL::basic_string<char,_STL::char_traits<char>,_STL::allocator<char> >::_M_terminate_string_aux, COMDAT
; _this$ = ecx

; 351  :     *(this->_M_finish)=0;

  00000	8b 41 04	 mov	 eax, DWORD PTR [ecx+4]
  00003	c6 00 00	 mov	 BYTE PTR [eax], 0

; 352  :   }

  00006	c2 04 00	 ret	 4
?_M_terminate_string_aux@?$basic_string@DV?$char_traits@D@_STL@@V?$allocator@D@2@@_STL@@AAEXABU__true_type@2@@Z ENDP ; _STL::basic_string<char,_STL::char_traits<char>,_STL::allocator<char> >::_M_terminate_string_aux
_TEXT	ENDS
PUBLIC	??0?$allocator@D@_STL@@QAE@ABV01@@Z		; _STL::allocator<char>::allocator<char>
; Function compile flags: /Ogsy
; File c:\stlport-4.6.1\stlport\stl\_alloc.h
;	COMDAT ??0?$allocator@D@_STL@@QAE@ABV01@@Z
_TEXT	SEGMENT
___formal$ = 8						; size = 4
??0?$allocator@D@_STL@@QAE@ABV01@@Z PROC NEAR		; _STL::allocator<char>::allocator<char>, COMDAT
; _this$ = ecx

; 349  :   allocator(const allocator<_Tp>&) _STLP_NOTHROW {}

  00000	8b c1		 mov	 eax, ecx
  00002	c2 04 00	 ret	 4
??0?$allocator@D@_STL@@QAE@ABV01@@Z ENDP		; _STL::allocator<char>::allocator<char>
_TEXT	ENDS
PUBLIC	??0?$allocator@VStoreItemInfo@@@_STL@@QAE@XZ	; _STL::allocator<StoreItemInfo>::allocator<StoreItemInfo>
; Function compile flags: /Ogsy
;	COMDAT ??0?$allocator@VStoreItemInfo@@@_STL@@QAE@XZ
_TEXT	SEGMENT
??0?$allocator@VStoreItemInfo@@@_STL@@QAE@XZ PROC NEAR	; _STL::allocator<StoreItemInfo>::allocator<StoreItemInfo>, COMDAT
; _this$ = ecx

; 345  :   allocator() _STLP_NOTHROW {}

  00000	8b c1		 mov	 eax, ecx
  00002	c3		 ret	 0
??0?$allocator@VStoreItemInfo@@@_STL@@QAE@XZ ENDP	; _STL::allocator<StoreItemInfo>::allocator<StoreItemInfo>
_TEXT	ENDS
PUBLIC	??1?$allocator@VStoreItemInfo@@@_STL@@QAE@XZ	; _STL::allocator<StoreItemInfo>::~allocator<StoreItemInfo>
; Function compile flags: /Ogsy
;	COMDAT ??1?$allocator@VStoreItemInfo@@@_STL@@QAE@XZ
_TEXT	SEGMENT
??1?$allocator@VStoreItemInfo@@@_STL@@QAE@XZ PROC NEAR	; _STL::allocator<StoreItemInfo>::~allocator<StoreItemInfo>, COMDAT
; _this$ = ecx

; 350  :   ~allocator() _STLP_NOTHROW {}

  00000	c3		 ret	 0
??1?$allocator@VStoreItemInfo@@@_STL@@QAE@XZ ENDP	; _STL::allocator<StoreItemInfo>::~allocator<StoreItemInfo>
_TEXT	ENDS
PUBLIC	??D?$_List_iterator@GU?$_Const_traits@G@_STL@@@_STL@@QBEABGXZ ; _STL::_List_iterator<unsigned short,_STL::_Const_traits<unsigned short> >::operator*
; Function compile flags: /Ogsy
; File c:\stlport-4.6.1\stlport\stl\_list.h
;	COMDAT ??D?$_List_iterator@GU?$_Const_traits@G@_STL@@@_STL@@QBEABGXZ
_TEXT	SEGMENT
??D?$_List_iterator@GU?$_Const_traits@G@_STL@@@_STL@@QBEABGXZ PROC NEAR ; _STL::_List_iterator<unsigned short,_STL::_Const_traits<unsigned short> >::operator*, COMDAT
; _this$ = ecx

; 130  :   reference operator*() const { return ((_Node*)_M_node)->_M_data; }

  00000	8b 01		 mov	 eax, DWORD PTR [ecx]
  00002	83 c0 08	 add	 eax, 8
  00005	c3		 ret	 0
??D?$_List_iterator@GU?$_Const_traits@G@_STL@@@_STL@@QBEABGXZ ENDP ; _STL::_List_iterator<unsigned short,_STL::_Const_traits<unsigned short> >::operator*
_TEXT	ENDS
PUBLIC	??1?$_STLP_alloc_proxy@PAVStoreItemInfo@@V1@V?$allocator@VStoreItemInfo@@@_STL@@@_STL@@QAE@XZ ; _STL::_STLP_alloc_proxy<StoreItemInfo *,StoreItemInfo,_STL::allocator<StoreItemInfo> >::~_STLP_alloc_proxy<StoreItemInfo *,StoreItemInfo,_STL::allocator<StoreItemInfo> >
; Function compile flags: /Ogsy
;	COMDAT ??1?$_STLP_alloc_proxy@PAVStoreItemInfo@@V1@V?$allocator@VStoreItemInfo@@@_STL@@@_STL@@QAE@XZ
_TEXT	SEGMENT
??1?$_STLP_alloc_proxy@PAVStoreItemInfo@@V1@V?$allocator@VStoreItemInfo@@@_STL@@@_STL@@QAE@XZ PROC NEAR ; _STL::_STLP_alloc_proxy<StoreItemInfo *,StoreItemInfo,_STL::allocator<StoreItemInfo> >::~_STLP_alloc_proxy<StoreItemInfo *,StoreItemInfo,_STL::allocator<StoreItemInfo> >, COMDAT
; _this$ = ecx
  00000	c3		 ret	 0
??1?$_STLP_alloc_proxy@PAVStoreItemInfo@@V1@V?$allocator@VStoreItemInfo@@@_STL@@@_STL@@QAE@XZ ENDP ; _STL::_STLP_alloc_proxy<StoreItemInfo *,StoreItemInfo,_STL::allocator<StoreItemInfo> >::~_STLP_alloc_proxy<StoreItemInfo *,StoreItemInfo,_STL::allocator<StoreItemInfo> >
_TEXT	ENDS
PUBLIC	??0?$allocator@VStoreItemInfo@@@_STL@@QAE@ABV01@@Z ; _STL::allocator<StoreItemInfo>::allocator<StoreItemInfo>
; Function compile flags: /Ogsy
; File c:\stlport-4.6.1\stlport\stl\_alloc.h
;	COMDAT ??0?$allocator@VStoreItemInfo@@@_STL@@QAE@ABV01@@Z
_TEXT	SEGMENT
___formal$ = 8						; size = 4
??0?$allocator@VStoreItemInfo@@@_STL@@QAE@ABV01@@Z PROC NEAR ; _STL::allocator<StoreItemInfo>::allocator<StoreItemInfo>, COMDAT
; _this$ = ecx

; 349  :   allocator(const allocator<_Tp>&) _STLP_NOTHROW {}

  00000	8b c1		 mov	 eax, ecx
  00002	c2 04 00	 ret	 4
??0?$allocator@VStoreItemInfo@@@_STL@@QAE@ABV01@@Z ENDP	; _STL::allocator<StoreItemInfo>::allocator<StoreItemInfo>
_TEXT	ENDS
PUBLIC	??$_Destroy@G@_STL@@YAXPAG@Z			; _STL::_Destroy<unsigned short>
; Function compile flags: /Ogsy
; File c:\stlport-4.6.1\stlport\stl\_construct.h
;	COMDAT ??$_Destroy@G@_STL@@YAXPAG@Z
_TEXT	SEGMENT
___pointer$ = 8						; size = 4
??$_Destroy@G@_STL@@YAXPAG@Z PROC NEAR			; _STL::_Destroy<unsigned short>, COMDAT

; 57   : # if _MSC_VER >= 1010
; 58   :   __pointer;
; 59   : # endif	// _MSC_VER >= 1000
; 60   : # ifdef _STLP_TRIVIAL_DESTRUCTOR_BUG
; 61   :   typedef typename __type_traits<_Tp>::has_trivial_destructor _Trivial_destructor;
; 62   :   __destroy_aux(__pointer, _Trivial_destructor());
; 63   : # else
; 64   : #  if ( defined (__BORLANDC__) && ( __BORLANDC__ < 0x500 ) )
; 65   :     __pointer->_Tp::~_Tp();
; 66   : #  else
; 67   :     __pointer->~_Tp();
; 68   : #  endif
; 69   : # endif
; 70   : # ifdef _STLP_DEBUG_UNINITIALIZED
; 71   : 	memset((char*)__pointer, _STLP_SHRED_BYTE, sizeof(_Tp));
; 72   : # endif
; 73   : }

  00000	c3		 ret	 0
??$_Destroy@G@_STL@@YAXPAG@Z ENDP			; _STL::_Destroy<unsigned short>
_TEXT	ENDS
PUBLIC	??$_Destroy@PAVSubItemInfo@@@_STL@@YAXPAPAVSubItemInfo@@@Z ; _STL::_Destroy<SubItemInfo *>
; Function compile flags: /Ogsy
;	COMDAT ??$_Destroy@PAVSubItemInfo@@@_STL@@YAXPAPAVSubItemInfo@@@Z
_TEXT	SEGMENT
___pointer$ = 8						; size = 4
??$_Destroy@PAVSubItemInfo@@@_STL@@YAXPAPAVSubItemInfo@@@Z PROC NEAR ; _STL::_Destroy<SubItemInfo *>, COMDAT

; 57   : # if _MSC_VER >= 1010
; 58   :   __pointer;
; 59   : # endif	// _MSC_VER >= 1000
; 60   : # ifdef _STLP_TRIVIAL_DESTRUCTOR_BUG
; 61   :   typedef typename __type_traits<_Tp>::has_trivial_destructor _Trivial_destructor;
; 62   :   __destroy_aux(__pointer, _Trivial_destructor());
; 63   : # else
; 64   : #  if ( defined (__BORLANDC__) && ( __BORLANDC__ < 0x500 ) )
; 65   :     __pointer->_Tp::~_Tp();
; 66   : #  else
; 67   :     __pointer->~_Tp();
; 68   : #  endif
; 69   : # endif
; 70   : # ifdef _STLP_DEBUG_UNINITIALIZED
; 71   : 	memset((char*)__pointer, _STLP_SHRED_BYTE, sizeof(_Tp));
; 72   : # endif
; 73   : }

  00000	c3		 ret	 0
??$_Destroy@PAVSubItemInfo@@@_STL@@YAXPAPAVSubItemInfo@@@Z ENDP ; _STL::_Destroy<SubItemInfo *>
_TEXT	ENDS
PUBLIC	??$_Construct@GG@_STL@@YAXPAGABG@Z		; _STL::_Construct<unsigned short,unsigned short>
; Function compile flags: /Ogsy
;	COMDAT ??$_Construct@GG@_STL@@YAXPAGABG@Z
_TEXT	SEGMENT
___p$ = 8						; size = 4
___val$ = 12						; size = 4
??$_Construct@GG@_STL@@YAXPAGABG@Z PROC NEAR		; _STL::_Construct<unsigned short,unsigned short>, COMDAT

; 94   : # ifdef _STLP_DEBUG_UNINITIALIZED
; 95   : 	memset((char*)__p, _STLP_SHRED_BYTE, sizeof(_T1));
; 96   : # endif
; 97   :     _STLP_PLACEMENT_NEW (__p) _T1(__val);

  00000	8b 44 24 04	 mov	 eax, DWORD PTR ___p$[esp-4]
  00004	85 c0		 test	 eax, eax
  00006	74 0a		 je	 SHORT $L103887
  00008	8b 4c 24 08	 mov	 ecx, DWORD PTR ___val$[esp-4]
  0000c	66 8b 09	 mov	 cx, WORD PTR [ecx]
  0000f	66 89 08	 mov	 WORD PTR [eax], cx
$L103887:

; 98   : }

  00012	c3		 ret	 0
??$_Construct@GG@_STL@@YAXPAGABG@Z ENDP			; _STL::_Construct<unsigned short,unsigned short>
_TEXT	ENDS
PUBLIC	??$_Construct@PAVSubItemInfo@@PAV1@@_STL@@YAXPAPAVSubItemInfo@@ABQAV1@@Z ; _STL::_Construct<SubItemInfo *,SubItemInfo *>
; Function compile flags: /Ogsy
;	COMDAT ??$_Construct@PAVSubItemInfo@@PAV1@@_STL@@YAXPAPAVSubItemInfo@@ABQAV1@@Z
_TEXT	SEGMENT
___p$ = 8						; size = 4
___val$ = 12						; size = 4
??$_Construct@PAVSubItemInfo@@PAV1@@_STL@@YAXPAPAVSubItemInfo@@ABQAV1@@Z PROC NEAR ; _STL::_Construct<SubItemInfo *,SubItemInfo *>, COMDAT

; 94   : # ifdef _STLP_DEBUG_UNINITIALIZED
; 95   : 	memset((char*)__p, _STLP_SHRED_BYTE, sizeof(_T1));
; 96   : # endif
; 97   :     _STLP_PLACEMENT_NEW (__p) _T1(__val);

  00000	8b 44 24 04	 mov	 eax, DWORD PTR ___p$[esp-4]
  00004	85 c0		 test	 eax, eax
  00006	74 08		 je	 SHORT $L103896
  00008	8b 4c 24 08	 mov	 ecx, DWORD PTR ___val$[esp-4]
  0000c	8b 09		 mov	 ecx, DWORD PTR [ecx]
  0000e	89 08		 mov	 DWORD PTR [eax], ecx
$L103896:

; 98   : }

  00010	c3		 ret	 0
??$_Construct@PAVSubItemInfo@@PAV1@@_STL@@YAXPAPAVSubItemInfo@@ABQAV1@@Z ENDP ; _STL::_Construct<SubItemInfo *,SubItemInfo *>
_TEXT	ENDS
PUBLIC	??1?$allocator@PAVSubItemInfo@@@_STL@@QAE@XZ	; _STL::allocator<SubItemInfo *>::~allocator<SubItemInfo *>
; Function compile flags: /Ogsy
; File c:\stlport-4.6.1\stlport\stl\_alloc.h
;	COMDAT ??1?$allocator@PAVSubItemInfo@@@_STL@@QAE@XZ
_TEXT	SEGMENT
??1?$allocator@PAVSubItemInfo@@@_STL@@QAE@XZ PROC NEAR	; _STL::allocator<SubItemInfo *>::~allocator<SubItemInfo *>, COMDAT
; _this$ = ecx

; 350  :   ~allocator() _STLP_NOTHROW {}

  00000	c3		 ret	 0
??1?$allocator@PAVSubItemInfo@@@_STL@@QAE@XZ ENDP	; _STL::allocator<SubItemInfo *>::~allocator<SubItemInfo *>
_TEXT	ENDS
PUBLIC	??1?$allocator@U?$_List_node@G@_STL@@@_STL@@QAE@XZ ; _STL::allocator<_STL::_List_node<unsigned short> >::~allocator<_STL::_List_node<unsigned short> >
; Function compile flags: /Ogsy
;	COMDAT ??1?$allocator@U?$_List_node@G@_STL@@@_STL@@QAE@XZ
_TEXT	SEGMENT
??1?$allocator@U?$_List_node@G@_STL@@@_STL@@QAE@XZ PROC NEAR ; _STL::allocator<_STL::_List_node<unsigned short> >::~allocator<_STL::_List_node<unsigned short> >, COMDAT
; _this$ = ecx

; 350  :   ~allocator() _STLP_NOTHROW {}

  00000	c3		 ret	 0
??1?$allocator@U?$_List_node@G@_STL@@@_STL@@QAE@XZ ENDP	; _STL::allocator<_STL::_List_node<unsigned short> >::~allocator<_STL::_List_node<unsigned short> >
_TEXT	ENDS
PUBLIC	??1?$allocator@U?$_List_node@PAVSubItemInfo@@@_STL@@@_STL@@QAE@XZ ; _STL::allocator<_STL::_List_node<SubItemInfo *> >::~allocator<_STL::_List_node<SubItemInfo *> >
; Function compile flags: /Ogsy
;	COMDAT ??1?$allocator@U?$_List_node@PAVSubItemInfo@@@_STL@@@_STL@@QAE@XZ
_TEXT	SEGMENT
??1?$allocator@U?$_List_node@PAVSubItemInfo@@@_STL@@@_STL@@QAE@XZ PROC NEAR ; _STL::allocator<_STL::_List_node<SubItemInfo *> >::~allocator<_STL::_List_node<SubItemInfo *> >, COMDAT
; _this$ = ecx

; 350  :   ~allocator() _STLP_NOTHROW {}

  00000	c3		 ret	 0
??1?$allocator@U?$_List_node@PAVSubItemInfo@@@_STL@@@_STL@@QAE@XZ ENDP ; _STL::allocator<_STL::_List_node<SubItemInfo *> >::~allocator<_STL::_List_node<SubItemInfo *> >
_TEXT	ENDS
PUBLIC	??0?$allocator@U?$_List_node@G@_STL@@@_STL@@QAE@ABV01@@Z ; _STL::allocator<_STL::_List_node<unsigned short> >::allocator<_STL::_List_node<unsigned short> >
; Function compile flags: /Ogsy
;	COMDAT ??0?$allocator@U?$_List_node@G@_STL@@@_STL@@QAE@ABV01@@Z
_TEXT	SEGMENT
___formal$ = 8						; size = 4
??0?$allocator@U?$_List_node@G@_STL@@@_STL@@QAE@ABV01@@Z PROC NEAR ; _STL::allocator<_STL::_List_node<unsigned short> >::allocator<_STL::_List_node<unsigned short> >, COMDAT
; _this$ = ecx

; 349  :   allocator(const allocator<_Tp>&) _STLP_NOTHROW {}

  00000	8b c1		 mov	 eax, ecx
  00002	c2 04 00	 ret	 4
??0?$allocator@U?$_List_node@G@_STL@@@_STL@@QAE@ABV01@@Z ENDP ; _STL::allocator<_STL::_List_node<unsigned short> >::allocator<_STL::_List_node<unsigned short> >
_TEXT	ENDS
PUBLIC	??0?$allocator@U?$_List_node@PAVSubItemInfo@@@_STL@@@_STL@@QAE@ABV01@@Z ; _STL::allocator<_STL::_List_node<SubItemInfo *> >::allocator<_STL::_List_node<SubItemInfo *> >
; Function compile flags: /Ogsy
;	COMDAT ??0?$allocator@U?$_List_node@PAVSubItemInfo@@@_STL@@@_STL@@QAE@ABV01@@Z
_TEXT	SEGMENT
___formal$ = 8						; size = 4
??0?$allocator@U?$_List_node@PAVSubItemInfo@@@_STL@@@_STL@@QAE@ABV01@@Z PROC NEAR ; _STL::allocator<_STL::_List_node<SubItemInfo *> >::allocator<_STL::_List_node<SubItemInfo *> >, COMDAT
; _this$ = ecx

; 349  :   allocator(const allocator<_Tp>&) _STLP_NOTHROW {}

  00000	8b c1		 mov	 eax, ecx
  00002	c2 04 00	 ret	 4
??0?$allocator@U?$_List_node@PAVSubItemInfo@@@_STL@@@_STL@@QAE@ABV01@@Z ENDP ; _STL::allocator<_STL::_List_node<SubItemInfo *> >::allocator<_STL::_List_node<SubItemInfo *> >
_TEXT	ENDS
PUBLIC	??$_Destroy@VStoreItemInfo@@@_STL@@YAXPAVStoreItemInfo@@@Z ; _STL::_Destroy<StoreItemInfo>
; Function compile flags: /Ogsy
; File c:\stlport-4.6.1\stlport\stl\_construct.h
;	COMDAT ??$_Destroy@VStoreItemInfo@@@_STL@@YAXPAVStoreItemInfo@@@Z
_TEXT	SEGMENT
___pointer$ = 8						; size = 4
??$_Destroy@VStoreItemInfo@@@_STL@@YAXPAVStoreItemInfo@@@Z PROC NEAR ; _STL::_Destroy<StoreItemInfo>, COMDAT

; 57   : # if _MSC_VER >= 1010
; 58   :   __pointer;
; 59   : # endif	// _MSC_VER >= 1000
; 60   : # ifdef _STLP_TRIVIAL_DESTRUCTOR_BUG
; 61   :   typedef typename __type_traits<_Tp>::has_trivial_destructor _Trivial_destructor;
; 62   :   __destroy_aux(__pointer, _Trivial_destructor());
; 63   : # else
; 64   : #  if ( defined (__BORLANDC__) && ( __BORLANDC__ < 0x500 ) )
; 65   :     __pointer->_Tp::~_Tp();
; 66   : #  else
; 67   :     __pointer->~_Tp();

  00000	8b 4c 24 04	 mov	 ecx, DWORD PTR ___pointer$[esp-4]
  00004	8b 01		 mov	 eax, DWORD PTR [ecx]
  00006	6a 00		 push	 0
  00008	ff 10		 call	 DWORD PTR [eax]

; 68   : #  endif
; 69   : # endif
; 70   : # ifdef _STLP_DEBUG_UNINITIALIZED
; 71   : 	memset((char*)__pointer, _STLP_SHRED_BYTE, sizeof(_Tp));
; 72   : # endif
; 73   : }

  0000a	c3		 ret	 0
??$_Destroy@VStoreItemInfo@@@_STL@@YAXPAVStoreItemInfo@@@Z ENDP ; _STL::_Destroy<StoreItemInfo>
_TEXT	ENDS
PUBLIC	??$?0U?$_List_node@G@_STL@@@?$allocator@G@_STL@@QAE@ABV?$allocator@U?$_List_node@G@_STL@@@1@@Z ; _STL::allocator<unsigned short>::allocator<unsigned short><_STL::_List_node<unsigned short> >
; Function compile flags: /Ogsy
; File c:\stlport-4.6.1\stlport\stl\_alloc.h
;	COMDAT ??$?0U?$_List_node@G@_STL@@@?$allocator@G@_STL@@QAE@ABV?$allocator@U?$_List_node@G@_STL@@@1@@Z
_TEXT	SEGMENT
___formal$ = 8						; size = 4
??$?0U?$_List_node@G@_STL@@@?$allocator@G@_STL@@QAE@ABV?$allocator@U?$_List_node@G@_STL@@@1@@Z PROC NEAR ; _STL::allocator<unsigned short>::allocator<unsigned short><_STL::_List_node<unsigned short> >, COMDAT
; _this$ = ecx

; 347  :   template <class _Tp1> allocator(const allocator<_Tp1>&) _STLP_NOTHROW {}

  00000	8b c1		 mov	 eax, ecx
  00002	c2 04 00	 ret	 4
??$?0U?$_List_node@G@_STL@@@?$allocator@G@_STL@@QAE@ABV?$allocator@U?$_List_node@G@_STL@@@1@@Z ENDP ; _STL::allocator<unsigned short>::allocator<unsigned short><_STL::_List_node<unsigned short> >
_TEXT	ENDS
PUBLIC	??$?0G@?$allocator@U?$_List_node@G@_STL@@@_STL@@QAE@ABV?$allocator@G@1@@Z ; _STL::allocator<_STL::_List_node<unsigned short> >::allocator<_STL::_List_node<unsigned short> ><unsigned short>
; Function compile flags: /Ogsy
;	COMDAT ??$?0G@?$allocator@U?$_List_node@G@_STL@@@_STL@@QAE@ABV?$allocator@G@1@@Z
_TEXT	SEGMENT
___formal$ = 8						; size = 4
??$?0G@?$allocator@U?$_List_node@G@_STL@@@_STL@@QAE@ABV?$allocator@G@1@@Z PROC NEAR ; _STL::allocator<_STL::_List_node<unsigned short> >::allocator<_STL::_List_node<unsigned short> ><unsigned short>, COMDAT
; _this$ = ecx

; 347  :   template <class _Tp1> allocator(const allocator<_Tp1>&) _STLP_NOTHROW {}

  00000	8b c1		 mov	 eax, ecx
  00002	c2 04 00	 ret	 4
??$?0G@?$allocator@U?$_List_node@G@_STL@@@_STL@@QAE@ABV?$allocator@G@1@@Z ENDP ; _STL::allocator<_STL::_List_node<unsigned short> >::allocator<_STL::_List_node<unsigned short> ><unsigned short>
_TEXT	ENDS
PUBLIC	??$?0U?$_List_node@PAVSubItemInfo@@@_STL@@@?$allocator@PAVSubItemInfo@@@_STL@@QAE@ABV?$allocator@U?$_List_node@PAVSubItemInfo@@@_STL@@@1@@Z ; _STL::allocator<SubItemInfo *>::allocator<SubItemInfo *><_STL::_List_node<SubItemInfo *> >
; Function compile flags: /Ogsy
;	COMDAT ??$?0U?$_List_node@PAVSubItemInfo@@@_STL@@@?$allocator@PAVSubItemInfo@@@_STL@@QAE@ABV?$allocator@U?$_List_node@PAVSubItemInfo@@@_STL@@@1@@Z
_TEXT	SEGMENT
___formal$ = 8						; size = 4
??$?0U?$_List_node@PAVSubItemInfo@@@_STL@@@?$allocator@PAVSubItemInfo@@@_STL@@QAE@ABV?$allocator@U?$_List_node@PAVSubItemInfo@@@_STL@@@1@@Z PROC NEAR ; _STL::allocator<SubItemInfo *>::allocator<SubItemInfo *><_STL::_List_node<SubItemInfo *> >, COMDAT
; _this$ = ecx

; 347  :   template <class _Tp1> allocator(const allocator<_Tp1>&) _STLP_NOTHROW {}

  00000	8b c1		 mov	 eax, ecx
  00002	c2 04 00	 ret	 4
??$?0U?$_List_node@PAVSubItemInfo@@@_STL@@@?$allocator@PAVSubItemInfo@@@_STL@@QAE@ABV?$allocator@U?$_List_node@PAVSubItemInfo@@@_STL@@@1@@Z ENDP ; _STL::allocator<SubItemInfo *>::allocator<SubItemInfo *><_STL::_List_node<SubItemInfo *> >
_TEXT	ENDS
PUBLIC	??$?0PAVSubItemInfo@@@?$allocator@U?$_List_node@PAVSubItemInfo@@@_STL@@@_STL@@QAE@ABV?$allocator@PAVSubItemInfo@@@1@@Z ; _STL::allocator<_STL::_List_node<SubItemInfo *> >::allocator<_STL::_List_node<SubItemInfo *> ><SubItemInfo *>
; Function compile flags: /Ogsy
;	COMDAT ??$?0PAVSubItemInfo@@@?$allocator@U?$_List_node@PAVSubItemInfo@@@_STL@@@_STL@@QAE@ABV?$allocator@PAVSubItemInfo@@@1@@Z
_TEXT	SEGMENT
___formal$ = 8						; size = 4
??$?0PAVSubItemInfo@@@?$allocator@U?$_List_node@PAVSubItemInfo@@@_STL@@@_STL@@QAE@ABV?$allocator@PAVSubItemInfo@@@1@@Z PROC NEAR ; _STL::allocator<_STL::_List_node<SubItemInfo *> >::allocator<_STL::_List_node<SubItemInfo *> ><SubItemInfo *>, COMDAT
; _this$ = ecx

; 347  :   template <class _Tp1> allocator(const allocator<_Tp1>&) _STLP_NOTHROW {}

  00000	8b c1		 mov	 eax, ecx
  00002	c2 04 00	 ret	 4
??$?0PAVSubItemInfo@@@?$allocator@U?$_List_node@PAVSubItemInfo@@@_STL@@@_STL@@QAE@ABV?$allocator@PAVSubItemInfo@@@1@@Z ENDP ; _STL::allocator<_STL::_List_node<SubItemInfo *> >::allocator<_STL::_List_node<SubItemInfo *> ><SubItemInfo *>
_TEXT	ENDS
PUBLIC	??D?$_List_iterator@PAVSubItemInfo@@U?$_Const_traits@PAVSubItemInfo@@@_STL@@@_STL@@QBEABQAVSubItemInfo@@XZ ; _STL::_List_iterator<SubItemInfo *,_STL::_Const_traits<SubItemInfo *> >::operator*
; Function compile flags: /Ogsy
; File c:\stlport-4.6.1\stlport\stl\_list.h
;	COMDAT ??D?$_List_iterator@PAVSubItemInfo@@U?$_Const_traits@PAVSubItemInfo@@@_STL@@@_STL@@QBEABQAVSubItemInfo@@XZ
_TEXT	SEGMENT
??D?$_List_iterator@PAVSubItemInfo@@U?$_Const_traits@PAVSubItemInfo@@@_STL@@@_STL@@QBEABQAVSubItemInfo@@XZ PROC NEAR ; _STL::_List_iterator<SubItemInfo *,_STL::_Const_traits<SubItemInfo *> >::operator*, COMDAT
; _this$ = ecx

; 130  :   reference operator*() const { return ((_Node*)_M_node)->_M_data; }

  00000	8b 01		 mov	 eax, DWORD PTR [ecx]
  00002	83 c0 08	 add	 eax, 8
  00005	c3		 ret	 0
??D?$_List_iterator@PAVSubItemInfo@@U?$_Const_traits@PAVSubItemInfo@@@_STL@@@_STL@@QBEABQAVSubItemInfo@@XZ ENDP ; _STL::_List_iterator<SubItemInfo *,_STL::_Const_traits<SubItemInfo *> >::operator*
_TEXT	ENDS
PUBLIC	??0_List_iterator_base@_STL@@QAE@PAU_List_node_base@1@@Z ; _STL::_List_iterator_base::_List_iterator_base
; Function compile flags: /Ogsy
;	COMDAT ??0_List_iterator_base@_STL@@QAE@PAU_List_node_base@1@@Z
_TEXT	SEGMENT
___x$ = 8						; size = 4
??0_List_iterator_base@_STL@@QAE@PAU_List_node_base@1@@Z PROC NEAR ; _STL::_List_iterator_base::_List_iterator_base, COMDAT
; _this$ = ecx

; 95   :   _List_iterator_base(_List_node_base* __x) : _M_node(__x) {}

  00000	8b c1		 mov	 eax, ecx
  00002	8b 4c 24 04	 mov	 ecx, DWORD PTR ___x$[esp-4]
  00006	89 08		 mov	 DWORD PTR [eax], ecx
  00008	c2 04 00	 ret	 4
??0_List_iterator_base@_STL@@QAE@PAU_List_node_base@1@@Z ENDP ; _STL::_List_iterator_base::_List_iterator_base
_TEXT	ENDS
PUBLIC	?_M_incr@_List_iterator_base@_STL@@QAEXXZ	; _STL::_List_iterator_base::_M_incr
; Function compile flags: /Ogsy
;	COMDAT ?_M_incr@_List_iterator_base@_STL@@QAEXXZ
_TEXT	SEGMENT
?_M_incr@_List_iterator_base@_STL@@QAEXXZ PROC NEAR	; _STL::_List_iterator_base::_M_incr, COMDAT
; _this$ = ecx

; 98   :   void _M_incr() { _M_node = _M_node->_M_next; }

  00000	8b 01		 mov	 eax, DWORD PTR [ecx]
  00002	8b 00		 mov	 eax, DWORD PTR [eax]
  00004	89 01		 mov	 DWORD PTR [ecx], eax
  00006	c3		 ret	 0
?_M_incr@_List_iterator_base@_STL@@QAEXXZ ENDP		; _STL::_List_iterator_base::_M_incr
_TEXT	ENDS
PUBLIC	??9_List_iterator_base@_STL@@QBE_NABU01@@Z	; _STL::_List_iterator_base::operator!=
; Function compile flags: /Ogsy
;	COMDAT ??9_List_iterator_base@_STL@@QBE_NABU01@@Z
_TEXT	SEGMENT
___y$ = 8						; size = 4
??9_List_iterator_base@_STL@@QBE_NABU01@@Z PROC NEAR	; _STL::_List_iterator_base::operator!=, COMDAT
; _this$ = ecx

; 104  :     return _M_node != __y._M_node; 

  00000	8b 01		 mov	 eax, DWORD PTR [ecx]
  00002	8b 54 24 04	 mov	 edx, DWORD PTR ___y$[esp-4]
  00006	33 c9		 xor	 ecx, ecx
  00008	3b 02		 cmp	 eax, DWORD PTR [edx]
  0000a	0f 95 c1	 setne	 cl
  0000d	8a c1		 mov	 al, cl

; 105  :   }

  0000f	c2 04 00	 ret	 4
??9_List_iterator_base@_STL@@QBE_NABU01@@Z ENDP		; _STL::_List_iterator_base::operator!=
_TEXT	ENDS
PUBLIC	??0?$allocator@D@_STL@@QAE@XZ			; _STL::allocator<char>::allocator<char>
; Function compile flags: /Ogsy
; File c:\stlport-4.6.1\stlport\stl\_alloc.h
;	COMDAT ??0?$allocator@D@_STL@@QAE@XZ
_TEXT	SEGMENT
??0?$allocator@D@_STL@@QAE@XZ PROC NEAR			; _STL::allocator<char>::allocator<char>, COMDAT
; _this$ = ecx

; 345  :   allocator() _STLP_NOTHROW {}

  00000	8b c1		 mov	 eax, ecx
  00002	c3		 ret	 0
??0?$allocator@D@_STL@@QAE@XZ ENDP			; _STL::allocator<char>::allocator<char>
_TEXT	ENDS
PUBLIC	??1?$allocator@D@_STL@@QAE@XZ			; _STL::allocator<char>::~allocator<char>
; Function compile flags: /Ogsy
;	COMDAT ??1?$allocator@D@_STL@@QAE@XZ
_TEXT	SEGMENT
??1?$allocator@D@_STL@@QAE@XZ PROC NEAR			; _STL::allocator<char>::~allocator<char>, COMDAT
; _this$ = ecx

; 350  :   ~allocator() _STLP_NOTHROW {}

  00000	c3		 ret	 0
??1?$allocator@D@_STL@@QAE@XZ ENDP			; _STL::allocator<char>::~allocator<char>
_TEXT	ENDS
PUBLIC	??1?$_STLP_alloc_proxy@PADDV?$allocator@D@_STL@@@_STL@@QAE@XZ ; _STL::_STLP_alloc_proxy<char *,char,_STL::allocator<char> >::~_STLP_alloc_proxy<char *,char,_STL::allocator<char> >
; Function compile flags: /Ogsy
;	COMDAT ??1?$_STLP_alloc_proxy@PADDV?$allocator@D@_STL@@@_STL@@QAE@XZ
_TEXT	SEGMENT
??1?$_STLP_alloc_proxy@PADDV?$allocator@D@_STL@@@_STL@@QAE@XZ PROC NEAR ; _STL::_STLP_alloc_proxy<char *,char,_STL::allocator<char> >::~_STLP_alloc_proxy<char *,char,_STL::allocator<char> >, COMDAT
; _this$ = ecx
  00000	c3		 ret	 0
??1?$_STLP_alloc_proxy@PADDV?$allocator@D@_STL@@@_STL@@QAE@XZ ENDP ; _STL::_STLP_alloc_proxy<char *,char,_STL::allocator<char> >::~_STLP_alloc_proxy<char *,char,_STL::allocator<char> >
_TEXT	ENDS
PUBLIC	??1?$allocator@G@_STL@@QAE@XZ			; _STL::allocator<unsigned short>::~allocator<unsigned short>
; Function compile flags: /Ogsy
;	COMDAT ??1?$allocator@G@_STL@@QAE@XZ
_TEXT	SEGMENT
??1?$allocator@G@_STL@@QAE@XZ PROC NEAR			; _STL::allocator<unsigned short>::~allocator<unsigned short>, COMDAT
; _this$ = ecx

; 350  :   ~allocator() _STLP_NOTHROW {}

  00000	c3		 ret	 0
??1?$allocator@G@_STL@@QAE@XZ ENDP			; _STL::allocator<unsigned short>::~allocator<unsigned short>
_TEXT	ENDS
PUBLIC	?allocate@?$__node_alloc@$00$0A@@_STL@@SAPAXI@Z	; _STL::__node_alloc<1,0>::allocate
EXTRN	?_M_allocate@?$__node_alloc@$00$0A@@_STL@@CAPAXI@Z:NEAR ; _STL::__node_alloc<1,0>::_M_allocate
; Function compile flags: /Ogsy
;	COMDAT ?allocate@?$__node_alloc@$00$0A@@_STL@@SAPAXI@Z
_TEXT	SEGMENT
___n$ = 8						; size = 4
?allocate@?$__node_alloc@$00$0A@@_STL@@SAPAXI@Z PROC NEAR ; _STL::__node_alloc<1,0>::allocate, COMDAT

; 251  :   static void * _STLP_CALL allocate(size_t __n) { return (__n > (size_t)_MAX_BYTES) ?  __stl_new(__n) : _M_allocate(__n); }

  00000	8b 44 24 04	 mov	 eax, DWORD PTR ___n$[esp-4]
  00004	3d 80 00 00 00	 cmp	 eax, 128		; 00000080H
  00009	50		 push	 eax
  0000a	76 07		 jbe	 SHORT $L103961
  0000c	e8 00 00 00 00	 call	 ??2@YAPAXI@Z		; operator new
  00011	59		 pop	 ecx
  00012	c3		 ret	 0
$L103961:
  00013	e8 00 00 00 00	 call	 ?_M_allocate@?$__node_alloc@$00$0A@@_STL@@CAPAXI@Z ; _STL::__node_alloc<1,0>::_M_allocate
  00018	59		 pop	 ecx
  00019	c3		 ret	 0
?allocate@?$__node_alloc@$00$0A@@_STL@@SAPAXI@Z ENDP	; _STL::__node_alloc<1,0>::allocate
_TEXT	ENDS
PUBLIC	?deallocate@?$__node_alloc@$00$0A@@_STL@@SAXPAXI@Z ; _STL::__node_alloc<1,0>::deallocate
EXTRN	?_M_deallocate@?$__node_alloc@$00$0A@@_STL@@CAXPAXI@Z:NEAR ; _STL::__node_alloc<1,0>::_M_deallocate
; Function compile flags: /Ogsy
;	COMDAT ?deallocate@?$__node_alloc@$00$0A@@_STL@@SAXPAXI@Z
_TEXT	SEGMENT
___p$ = 8						; size = 4
___n$ = 12						; size = 4
?deallocate@?$__node_alloc@$00$0A@@_STL@@SAXPAXI@Z PROC NEAR ; _STL::__node_alloc<1,0>::deallocate, COMDAT

; 253  :   static void _STLP_CALL deallocate(void *__p, size_t __n) { if (__n > (size_t)_MAX_BYTES) __stl_delete(__p); else _M_deallocate(__p, __n); }

  00000	81 7c 24 08 80
	00 00 00	 cmp	 DWORD PTR ___n$[esp-4], 128 ; 00000080H
  00008	76 0b		 jbe	 SHORT $L98677
  0000a	ff 74 24 04	 push	 DWORD PTR ___p$[esp-4]
  0000e	e8 00 00 00 00	 call	 ??3@YAXPAX@Z		; operator delete
  00013	59		 pop	 ecx
  00014	c3		 ret	 0
$L98677:
  00015	e9 00 00 00 00	 jmp	 ?_M_deallocate@?$__node_alloc@$00$0A@@_STL@@CAXPAXI@Z ; _STL::__node_alloc<1,0>::_M_deallocate
?deallocate@?$__node_alloc@$00$0A@@_STL@@SAXPAXI@Z ENDP	; _STL::__node_alloc<1,0>::deallocate
; Function compile flags: /Ogsy
_TEXT	ENDS
;	COMDAT ??_GStoreItemInfo@@UAEPAXI@Z
_TEXT	SEGMENT
___flags$ = 8						; size = 4
??_GStoreItemInfo@@UAEPAXI@Z PROC NEAR			; StoreItemInfo::`scalar deleting destructor', COMDAT
; _this$ = ecx
  00000	56		 push	 esi
  00001	8b f1		 mov	 esi, ecx
  00003	e8 00 00 00 00	 call	 ??1StoreItemInfo@@UAE@XZ
  00008	f6 44 24 08 01	 test	 BYTE PTR ___flags$[esp], 1
  0000d	74 07		 je	 SHORT $L101510
  0000f	56		 push	 esi
  00010	e8 00 00 00 00	 call	 ??3@YAXPAX@Z		; operator delete
  00015	59		 pop	 ecx
$L101510:
  00016	8b c6		 mov	 eax, esi
  00018	5e		 pop	 esi
  00019	c2 04 00	 ret	 4
??_GStoreItemInfo@@UAEPAXI@Z ENDP			; StoreItemInfo::`scalar deleting destructor'
_TEXT	ENDS
PUBLIC	?_M_terminate_string@?$basic_string@DV?$char_traits@D@_STL@@V?$allocator@D@2@@_STL@@AAEXXZ ; _STL::basic_string<char,_STL::char_traits<char>,_STL::allocator<char> >::_M_terminate_string
; Function compile flags: /Ogsy
; File c:\stlport-4.6.1\stlport\stl\_string.h
;	COMDAT ?_M_terminate_string@?$basic_string@DV?$char_traits@D@_STL@@V?$allocator@D@2@@_STL@@AAEXXZ
_TEXT	SEGMENT
?_M_terminate_string@?$basic_string@DV?$char_traits@D@_STL@@V?$allocator@D@2@@_STL@@AAEXXZ PROC NEAR ; _STL::basic_string<char,_STL::char_traits<char>,_STL::allocator<char> >::_M_terminate_string, COMDAT
; _this$ = ecx

; 355  :     _M_terminate_string_aux(_Char_Is_Integral());

  00000	8b 41 04	 mov	 eax, DWORD PTR [ecx+4]
  00003	c6 00 00	 mov	 BYTE PTR [eax], 0

; 356  :   }

  00006	c3		 ret	 0
?_M_terminate_string@?$basic_string@DV?$char_traits@D@_STL@@V?$allocator@D@2@@_STL@@AAEXXZ ENDP ; _STL::basic_string<char,_STL::char_traits<char>,_STL::allocator<char> >::_M_terminate_string
_TEXT	ENDS
PUBLIC	?allocate@?$allocator@D@_STL@@QAEPADIPBX@Z	; _STL::allocator<char>::allocate
; Function compile flags: /Ogsy
; File c:\stlport-4.6.1\stlport\stl\_alloc.h
;	COMDAT ?allocate@?$allocator@D@_STL@@QAEPADIPBX@Z
_TEXT	SEGMENT
___n$ = 8						; size = 4
___formal$ = 12						; size = 4
?allocate@?$allocator@D@_STL@@QAEPADIPBX@Z PROC NEAR	; _STL::allocator<char>::allocate, COMDAT
; _this$ = ecx

; 355  :     return __n != 0 ? __REINTERPRET_CAST(value_type*,__sgi_alloc::allocate(__n * sizeof(value_type))) : 0;

  00000	33 c0		 xor	 eax, eax
  00002	39 44 24 04	 cmp	 DWORD PTR ___n$[esp-4], eax
  00006	74 0a		 je	 SHORT $L103987
  00008	ff 74 24 04	 push	 DWORD PTR ___n$[esp-4]
  0000c	e8 00 00 00 00	 call	 ?allocate@?$__node_alloc@$00$0A@@_STL@@SAPAXI@Z ; _STL::__node_alloc<1,0>::allocate
  00011	59		 pop	 ecx
$L103987:

; 356  :   }

  00012	c2 08 00	 ret	 8
?allocate@?$allocator@D@_STL@@QAEPADIPBX@Z ENDP		; _STL::allocator<char>::allocate
_TEXT	ENDS
PUBLIC	??0?$_List_iterator@GU?$_Nonconst_traits@G@_STL@@@_STL@@QAE@ABU01@@Z ; _STL::_List_iterator<unsigned short,_STL::_Nonconst_traits<unsigned short> >::_List_iterator<unsigned short,_STL::_Nonconst_traits<unsigned short> >
; Function compile flags: /Ogsy
; File c:\stlport-4.6.1\stlport\stl\_list.h
;	COMDAT ??0?$_List_iterator@GU?$_Nonconst_traits@G@_STL@@@_STL@@QAE@ABU01@@Z
_TEXT	SEGMENT
___x$ = 8						; size = 4
??0?$_List_iterator@GU?$_Nonconst_traits@G@_STL@@@_STL@@QAE@ABU01@@Z PROC NEAR ; _STL::_List_iterator<unsigned short,_STL::_Nonconst_traits<unsigned short> >::_List_iterator<unsigned short,_STL::_Nonconst_traits<unsigned short> >, COMDAT
; _this$ = ecx

; 128  :   _List_iterator(const iterator& __x) :  _List_iterator_base(__x._M_node) {}

  00000	8b c1		 mov	 eax, ecx
  00002	8b 4c 24 04	 mov	 ecx, DWORD PTR ___x$[esp-4]
  00006	8b 09		 mov	 ecx, DWORD PTR [ecx]
  00008	89 08		 mov	 DWORD PTR [eax], ecx
  0000a	c2 04 00	 ret	 4
??0?$_List_iterator@GU?$_Nonconst_traits@G@_STL@@@_STL@@QAE@ABU01@@Z ENDP ; _STL::_List_iterator<unsigned short,_STL::_Nonconst_traits<unsigned short> >::_List_iterator<unsigned short,_STL::_Nonconst_traits<unsigned short> >
_TEXT	ENDS
PUBLIC	??0?$_STLP_alloc_proxy@PADDV?$allocator@D@_STL@@@_STL@@QAE@ABV?$allocator@D@1@PAD@Z ; _STL::_STLP_alloc_proxy<char *,char,_STL::allocator<char> >::_STLP_alloc_proxy<char *,char,_STL::allocator<char> >
; Function compile flags: /Ogsy
; File c:\stlport-4.6.1\stlport\stl\_alloc.h
;	COMDAT ??0?$_STLP_alloc_proxy@PADDV?$allocator@D@_STL@@@_STL@@QAE@ABV?$allocator@D@1@PAD@Z
_TEXT	SEGMENT
___a$ = 8						; size = 4
___p$ = 12						; size = 4
??0?$_STLP_alloc_proxy@PADDV?$allocator@D@_STL@@@_STL@@QAE@ABV?$allocator@D@1@PAD@Z PROC NEAR ; _STL::_STLP_alloc_proxy<char *,char,_STL::allocator<char> >::_STLP_alloc_proxy<char *,char,_STL::allocator<char> >, COMDAT
; _this$ = ecx

; 487  :   inline _STLP_alloc_proxy(const _MaybeReboundAlloc& __a, _Value __p) : _MaybeReboundAlloc(__a), _M_data(__p) {}

  00000	8b c1		 mov	 eax, ecx
  00002	8b 4c 24 08	 mov	 ecx, DWORD PTR ___p$[esp-4]
  00006	89 08		 mov	 DWORD PTR [eax], ecx
  00008	c2 08 00	 ret	 8
??0?$_STLP_alloc_proxy@PADDV?$allocator@D@_STL@@@_STL@@QAE@ABV?$allocator@D@1@PAD@Z ENDP ; _STL::_STLP_alloc_proxy<char *,char,_STL::allocator<char> >::_STLP_alloc_proxy<char *,char,_STL::allocator<char> >
_TEXT	ENDS
PUBLIC	?deallocate@?$allocator@U?$_List_node@G@_STL@@@_STL@@QAEXPAU?$_List_node@G@2@I@Z ; _STL::allocator<_STL::_List_node<unsigned short> >::deallocate
; Function compile flags: /Ogsy
;	COMDAT ?deallocate@?$allocator@U?$_List_node@G@_STL@@@_STL@@QAEXPAU?$_List_node@G@2@I@Z
_TEXT	SEGMENT
___p$ = 8						; size = 4
___n$ = 12						; size = 4
?deallocate@?$allocator@U?$_List_node@G@_STL@@@_STL@@QAEXPAU?$_List_node@G@2@I@Z PROC NEAR ; _STL::allocator<_STL::_List_node<unsigned short> >::deallocate, COMDAT
; _this$ = ecx

; 359  :     _STLP_ASSERT( (__p == 0) == (__n == 0) )
; 360  :       if (__p != 0) __sgi_alloc::deallocate((void*)__p, __n * sizeof(value_type));

  00000	83 7c 24 04 00	 cmp	 DWORD PTR ___p$[esp-4], 0
  00005	74 16		 je	 SHORT $L102355
  00007	8b 44 24 08	 mov	 eax, DWORD PTR ___n$[esp-4]
  0000b	8d 04 40	 lea	 eax, DWORD PTR [eax+eax*2]
  0000e	c1 e0 02	 shl	 eax, 2
  00011	50		 push	 eax
  00012	ff 74 24 08	 push	 DWORD PTR ___p$[esp]
  00016	e8 00 00 00 00	 call	 ?deallocate@?$__node_alloc@$00$0A@@_STL@@SAXPAXI@Z ; _STL::__node_alloc<1,0>::deallocate
  0001b	59		 pop	 ecx
  0001c	59		 pop	 ecx
$L102355:

; 361  :   }

  0001d	c2 08 00	 ret	 8
?deallocate@?$allocator@U?$_List_node@G@_STL@@@_STL@@QAEXPAU?$_List_node@G@2@I@Z ENDP ; _STL::allocator<_STL::_List_node<unsigned short> >::deallocate
_TEXT	ENDS
PUBLIC	??0?$_List_iterator@GU?$_Nonconst_traits@G@_STL@@@_STL@@QAE@PAU?$_List_node@G@1@@Z ; _STL::_List_iterator<unsigned short,_STL::_Nonconst_traits<unsigned short> >::_List_iterator<unsigned short,_STL::_Nonconst_traits<unsigned short> >
; Function compile flags: /Ogsy
; File c:\stlport-4.6.1\stlport\stl\_list.h
;	COMDAT ??0?$_List_iterator@GU?$_Nonconst_traits@G@_STL@@@_STL@@QAE@PAU?$_List_node@G@1@@Z
_TEXT	SEGMENT
___x$ = 8						; size = 4
??0?$_List_iterator@GU?$_Nonconst_traits@G@_STL@@@_STL@@QAE@PAU?$_List_node@G@1@@Z PROC NEAR ; _STL::_List_iterator<unsigned short,_STL::_Nonconst_traits<unsigned short> >::_List_iterator<unsigned short,_STL::_Nonconst_traits<unsigned short> >, COMDAT
; _this$ = ecx

; 126  :   _List_iterator(_Node* __x) : _List_iterator_base(__x) {}

  00000	8b c1		 mov	 eax, ecx
  00002	8b 4c 24 04	 mov	 ecx, DWORD PTR ___x$[esp-4]
  00006	89 08		 mov	 DWORD PTR [eax], ecx
  00008	c2 04 00	 ret	 4
??0?$_List_iterator@GU?$_Nonconst_traits@G@_STL@@@_STL@@QAE@PAU?$_List_node@G@1@@Z ENDP ; _STL::_List_iterator<unsigned short,_STL::_Nonconst_traits<unsigned short> >::_List_iterator<unsigned short,_STL::_Nonconst_traits<unsigned short> >
_TEXT	ENDS
PUBLIC	?deallocate@?$allocator@U?$_List_node@PAVSubItemInfo@@@_STL@@@_STL@@QAEXPAU?$_List_node@PAVSubItemInfo@@@2@I@Z ; _STL::allocator<_STL::_List_node<SubItemInfo *> >::deallocate
; Function compile flags: /Ogsy
; File c:\stlport-4.6.1\stlport\stl\_alloc.h
;	COMDAT ?deallocate@?$allocator@U?$_List_node@PAVSubItemInfo@@@_STL@@@_STL@@QAEXPAU?$_List_node@PAVSubItemInfo@@@2@I@Z
_TEXT	SEGMENT
___p$ = 8						; size = 4
___n$ = 12						; size = 4
?deallocate@?$allocator@U?$_List_node@PAVSubItemInfo@@@_STL@@@_STL@@QAEXPAU?$_List_node@PAVSubItemInfo@@@2@I@Z PROC NEAR ; _STL::allocator<_STL::_List_node<SubItemInfo *> >::deallocate, COMDAT
; _this$ = ecx

; 359  :     _STLP_ASSERT( (__p == 0) == (__n == 0) )
; 360  :       if (__p != 0) __sgi_alloc::deallocate((void*)__p, __n * sizeof(value_type));

  00000	83 7c 24 04 00	 cmp	 DWORD PTR ___p$[esp-4], 0
  00005	74 16		 je	 SHORT $L102439
  00007	8b 44 24 08	 mov	 eax, DWORD PTR ___n$[esp-4]
  0000b	8d 04 40	 lea	 eax, DWORD PTR [eax+eax*2]
  0000e	c1 e0 02	 shl	 eax, 2
  00011	50		 push	 eax
  00012	ff 74 24 08	 push	 DWORD PTR ___p$[esp]
  00016	e8 00 00 00 00	 call	 ?deallocate@?$__node_alloc@$00$0A@@_STL@@SAXPAXI@Z ; _STL::__node_alloc<1,0>::deallocate
  0001b	59		 pop	 ecx
  0001c	59		 pop	 ecx
$L102439:

; 361  :   }

  0001d	c2 08 00	 ret	 8
?deallocate@?$allocator@U?$_List_node@PAVSubItemInfo@@@_STL@@@_STL@@QAEXPAU?$_List_node@PAVSubItemInfo@@@2@I@Z ENDP ; _STL::allocator<_STL::_List_node<SubItemInfo *> >::deallocate
_TEXT	ENDS
PUBLIC	?allocate@?$allocator@VStoreItemInfo@@@_STL@@QAEPAVStoreItemInfo@@IPBX@Z ; _STL::allocator<StoreItemInfo>::allocate
; Function compile flags: /Ogsy
;	COMDAT ?allocate@?$allocator@VStoreItemInfo@@@_STL@@QAEPAVStoreItemInfo@@IPBX@Z
_TEXT	SEGMENT
___n$ = 8						; size = 4
___formal$ = 12						; size = 4
?allocate@?$allocator@VStoreItemInfo@@@_STL@@QAEPAVStoreItemInfo@@IPBX@Z PROC NEAR ; _STL::allocator<StoreItemInfo>::allocate, COMDAT
; _this$ = ecx

; 355  :     return __n != 0 ? __REINTERPRET_CAST(value_type*,__sgi_alloc::allocate(__n * sizeof(value_type))) : 0;

  00000	8b 44 24 04	 mov	 eax, DWORD PTR ___n$[esp-4]
  00004	85 c0		 test	 eax, eax
  00006	74 0c		 je	 SHORT $L104013
  00008	c1 e0 06	 shl	 eax, 6
  0000b	50		 push	 eax
  0000c	e8 00 00 00 00	 call	 ?allocate@?$__node_alloc@$00$0A@@_STL@@SAPAXI@Z ; _STL::__node_alloc<1,0>::allocate
  00011	59		 pop	 ecx
  00012	eb 02		 jmp	 SHORT $L104014
$L104013:
  00014	33 c0		 xor	 eax, eax
$L104014:

; 356  :   }

  00016	c2 08 00	 ret	 8
?allocate@?$allocator@VStoreItemInfo@@@_STL@@QAEPAVStoreItemInfo@@IPBX@Z ENDP ; _STL::allocator<StoreItemInfo>::allocate
_TEXT	ENDS
PUBLIC	?deallocate@?$allocator@VStoreItemInfo@@@_STL@@QAEXPAVStoreItemInfo@@I@Z ; _STL::allocator<StoreItemInfo>::deallocate
; Function compile flags: /Ogsy
;	COMDAT ?deallocate@?$allocator@VStoreItemInfo@@@_STL@@QAEXPAVStoreItemInfo@@I@Z
_TEXT	SEGMENT
___p$ = 8						; size = 4
___n$ = 12						; size = 4
?deallocate@?$allocator@VStoreItemInfo@@@_STL@@QAEXPAVStoreItemInfo@@I@Z PROC NEAR ; _STL::allocator<StoreItemInfo>::deallocate, COMDAT
; _this$ = ecx

; 359  :     _STLP_ASSERT( (__p == 0) == (__n == 0) )
; 360  :       if (__p != 0) __sgi_alloc::deallocate((void*)__p, __n * sizeof(value_type));

  00000	83 7c 24 04 00	 cmp	 DWORD PTR ___p$[esp-4], 0
  00005	74 13		 je	 SHORT $L102448
  00007	8b 44 24 08	 mov	 eax, DWORD PTR ___n$[esp-4]
  0000b	c1 e0 06	 shl	 eax, 6
  0000e	50		 push	 eax
  0000f	ff 74 24 08	 push	 DWORD PTR ___p$[esp]
  00013	e8 00 00 00 00	 call	 ?deallocate@?$__node_alloc@$00$0A@@_STL@@SAXPAXI@Z ; _STL::__node_alloc<1,0>::deallocate
  00018	59		 pop	 ecx
  00019	59		 pop	 ecx
$L102448:

; 361  :   }

  0001a	c2 08 00	 ret	 8
?deallocate@?$allocator@VStoreItemInfo@@@_STL@@QAEXPAVStoreItemInfo@@I@Z ENDP ; _STL::allocator<StoreItemInfo>::deallocate
_TEXT	ENDS
PUBLIC	??0?$_STLP_alloc_proxy@PAVStoreItemInfo@@V1@V?$allocator@VStoreItemInfo@@@_STL@@@_STL@@QAE@ABV?$allocator@VStoreItemInfo@@@1@PAVStoreItemInfo@@@Z ; _STL::_STLP_alloc_proxy<StoreItemInfo *,StoreItemInfo,_STL::allocator<StoreItemInfo> >::_STLP_alloc_proxy<StoreItemInfo *,StoreItemInfo,_STL::allocator<StoreItemInfo> >
; Function compile flags: /Ogsy
;	COMDAT ??0?$_STLP_alloc_proxy@PAVStoreItemInfo@@V1@V?$allocator@VStoreItemInfo@@@_STL@@@_STL@@QAE@ABV?$allocator@VStoreItemInfo@@@1@PAVStoreItemInfo@@@Z
_TEXT	SEGMENT
___a$ = 8						; size = 4
___p$ = 12						; size = 4
??0?$_STLP_alloc_proxy@PAVStoreItemInfo@@V1@V?$allocator@VStoreItemInfo@@@_STL@@@_STL@@QAE@ABV?$allocator@VStoreItemInfo@@@1@PAVStoreItemInfo@@@Z PROC NEAR ; _STL::_STLP_alloc_proxy<StoreItemInfo *,StoreItemInfo,_STL::allocator<StoreItemInfo> >::_STLP_alloc_proxy<StoreItemInfo *,StoreItemInfo,_STL::allocator<StoreItemInfo> >, COMDAT
; _this$ = ecx

; 487  :   inline _STLP_alloc_proxy(const _MaybeReboundAlloc& __a, _Value __p) : _MaybeReboundAlloc(__a), _M_data(__p) {}

  00000	8b c1		 mov	 eax, ecx
  00002	8b 4c 24 08	 mov	 ecx, DWORD PTR ___p$[esp-4]
  00006	89 08		 mov	 DWORD PTR [eax], ecx
  00008	c2 08 00	 ret	 8
??0?$_STLP_alloc_proxy@PAVStoreItemInfo@@V1@V?$allocator@VStoreItemInfo@@@_STL@@@_STL@@QAE@ABV?$allocator@VStoreItemInfo@@@1@PAVStoreItemInfo@@@Z ENDP ; _STL::_STLP_alloc_proxy<StoreItemInfo *,StoreItemInfo,_STL::allocator<StoreItemInfo> >::_STLP_alloc_proxy<StoreItemInfo *,StoreItemInfo,_STL::allocator<StoreItemInfo> >
_TEXT	ENDS
PUBLIC	??0?$_List_iterator@GU?$_Const_traits@G@_STL@@@_STL@@QAE@PAU?$_List_node@G@1@@Z ; _STL::_List_iterator<unsigned short,_STL::_Const_traits<unsigned short> >::_List_iterator<unsigned short,_STL::_Const_traits<unsigned short> >
; Function compile flags: /Ogsy
; File c:\stlport-4.6.1\stlport\stl\_list.h
;	COMDAT ??0?$_List_iterator@GU?$_Const_traits@G@_STL@@@_STL@@QAE@PAU?$_List_node@G@1@@Z
_TEXT	SEGMENT
___x$ = 8						; size = 4
??0?$_List_iterator@GU?$_Const_traits@G@_STL@@@_STL@@QAE@PAU?$_List_node@G@1@@Z PROC NEAR ; _STL::_List_iterator<unsigned short,_STL::_Const_traits<unsigned short> >::_List_iterator<unsigned short,_STL::_Const_traits<unsigned short> >, COMDAT
; _this$ = ecx

; 126  :   _List_iterator(_Node* __x) : _List_iterator_base(__x) {}

  00000	8b c1		 mov	 eax, ecx
  00002	8b 4c 24 04	 mov	 ecx, DWORD PTR ___x$[esp-4]
  00006	89 08		 mov	 DWORD PTR [eax], ecx
  00008	c2 04 00	 ret	 4
??0?$_List_iterator@GU?$_Const_traits@G@_STL@@@_STL@@QAE@PAU?$_List_node@G@1@@Z ENDP ; _STL::_List_iterator<unsigned short,_STL::_Const_traits<unsigned short> >::_List_iterator<unsigned short,_STL::_Const_traits<unsigned short> >
_TEXT	ENDS
PUBLIC	??0?$_List_iterator@PAVSubItemInfo@@U?$_Nonconst_traits@PAVSubItemInfo@@@_STL@@@_STL@@QAE@PAU?$_List_node@PAVSubItemInfo@@@1@@Z ; _STL::_List_iterator<SubItemInfo *,_STL::_Nonconst_traits<SubItemInfo *> >::_List_iterator<SubItemInfo *,_STL::_Nonconst_traits<SubItemInfo *> >
; Function compile flags: /Ogsy
;	COMDAT ??0?$_List_iterator@PAVSubItemInfo@@U?$_Nonconst_traits@PAVSubItemInfo@@@_STL@@@_STL@@QAE@PAU?$_List_node@PAVSubItemInfo@@@1@@Z
_TEXT	SEGMENT
___x$ = 8						; size = 4
??0?$_List_iterator@PAVSubItemInfo@@U?$_Nonconst_traits@PAVSubItemInfo@@@_STL@@@_STL@@QAE@PAU?$_List_node@PAVSubItemInfo@@@1@@Z PROC NEAR ; _STL::_List_iterator<SubItemInfo *,_STL::_Nonconst_traits<SubItemInfo *> >::_List_iterator<SubItemInfo *,_STL::_Nonconst_traits<SubItemInfo *> >, COMDAT
; _this$ = ecx

; 126  :   _List_iterator(_Node* __x) : _List_iterator_base(__x) {}

  00000	8b c1		 mov	 eax, ecx
  00002	8b 4c 24 04	 mov	 ecx, DWORD PTR ___x$[esp-4]
  00006	89 08		 mov	 DWORD PTR [eax], ecx
  00008	c2 04 00	 ret	 4
??0?$_List_iterator@PAVSubItemInfo@@U?$_Nonconst_traits@PAVSubItemInfo@@@_STL@@@_STL@@QAE@PAU?$_List_node@PAVSubItemInfo@@@1@@Z ENDP ; _STL::_List_iterator<SubItemInfo *,_STL::_Nonconst_traits<SubItemInfo *> >::_List_iterator<SubItemInfo *,_STL::_Nonconst_traits<SubItemInfo *> >
_TEXT	ENDS
PUBLIC	?allocate@?$allocator@U?$_List_node@G@_STL@@@_STL@@QAEPAU?$_List_node@G@2@IPBX@Z ; _STL::allocator<_STL::_List_node<unsigned short> >::allocate
; Function compile flags: /Ogsy
; File c:\stlport-4.6.1\stlport\stl\_alloc.h
;	COMDAT ?allocate@?$allocator@U?$_List_node@G@_STL@@@_STL@@QAEPAU?$_List_node@G@2@IPBX@Z
_TEXT	SEGMENT
___n$ = 8						; size = 4
___formal$ = 12						; size = 4
?allocate@?$allocator@U?$_List_node@G@_STL@@@_STL@@QAEPAU?$_List_node@G@2@IPBX@Z PROC NEAR ; _STL::allocator<_STL::_List_node<unsigned short> >::allocate, COMDAT
; _this$ = ecx

; 355  :     return __n != 0 ? __REINTERPRET_CAST(value_type*,__sgi_alloc::allocate(__n * sizeof(value_type))) : 0;

  00000	8b 44 24 04	 mov	 eax, DWORD PTR ___n$[esp-4]
  00004	85 c0		 test	 eax, eax
  00006	74 0f		 je	 SHORT $L104036
  00008	8d 04 40	 lea	 eax, DWORD PTR [eax+eax*2]
  0000b	c1 e0 02	 shl	 eax, 2
  0000e	50		 push	 eax
  0000f	e8 00 00 00 00	 call	 ?allocate@?$__node_alloc@$00$0A@@_STL@@SAPAXI@Z ; _STL::__node_alloc<1,0>::allocate
  00014	59		 pop	 ecx
  00015	eb 02		 jmp	 SHORT $L104037
$L104036:
  00017	33 c0		 xor	 eax, eax
$L104037:

; 356  :   }

  00019	c2 08 00	 ret	 8
?allocate@?$allocator@U?$_List_node@G@_STL@@@_STL@@QAEPAU?$_List_node@G@2@IPBX@Z ENDP ; _STL::allocator<_STL::_List_node<unsigned short> >::allocate
_TEXT	ENDS
PUBLIC	?allocate@?$allocator@U?$_List_node@PAVSubItemInfo@@@_STL@@@_STL@@QAEPAU?$_List_node@PAVSubItemInfo@@@2@IPBX@Z ; _STL::allocator<_STL::_List_node<SubItemInfo *> >::allocate
; Function compile flags: /Ogsy
;	COMDAT ?allocate@?$allocator@U?$_List_node@PAVSubItemInfo@@@_STL@@@_STL@@QAEPAU?$_List_node@PAVSubItemInfo@@@2@IPBX@Z
_TEXT	SEGMENT
___n$ = 8						; size = 4
___formal$ = 12						; size = 4
?allocate@?$allocator@U?$_List_node@PAVSubItemInfo@@@_STL@@@_STL@@QAEPAU?$_List_node@PAVSubItemInfo@@@2@IPBX@Z PROC NEAR ; _STL::allocator<_STL::_List_node<SubItemInfo *> >::allocate, COMDAT
; _this$ = ecx

; 355  :     return __n != 0 ? __REINTERPRET_CAST(value_type*,__sgi_alloc::allocate(__n * sizeof(value_type))) : 0;

  00000	8b 44 24 04	 mov	 eax, DWORD PTR ___n$[esp-4]
  00004	85 c0		 test	 eax, eax
  00006	74 0f		 je	 SHORT $L104041
  00008	8d 04 40	 lea	 eax, DWORD PTR [eax+eax*2]
  0000b	c1 e0 02	 shl	 eax, 2
  0000e	50		 push	 eax
  0000f	e8 00 00 00 00	 call	 ?allocate@?$__node_alloc@$00$0A@@_STL@@SAPAXI@Z ; _STL::__node_alloc<1,0>::allocate
  00014	59		 pop	 ecx
  00015	eb 02		 jmp	 SHORT $L104042
$L104041:
  00017	33 c0		 xor	 eax, eax
$L104042:

; 356  :   }

  00019	c2 08 00	 ret	 8
?allocate@?$allocator@U?$_List_node@PAVSubItemInfo@@@_STL@@@_STL@@QAEPAU?$_List_node@PAVSubItemInfo@@@2@IPBX@Z ENDP ; _STL::allocator<_STL::_List_node<SubItemInfo *> >::allocate
_TEXT	ENDS
PUBLIC	?clear@?$_List_base@PAVSubItemInfo@@V?$allocator@PAVSubItemInfo@@@_STL@@@_STL@@QAEXXZ ; _STL::_List_base<SubItemInfo *,_STL::allocator<SubItemInfo *> >::clear
; Function compile flags: /Ogsy
; File c:\stlport-4.6.1\stlport\stl\_list.c
;	COMDAT ?clear@?$_List_base@PAVSubItemInfo@@V?$allocator@PAVSubItemInfo@@@_STL@@@_STL@@QAEXXZ
_TEXT	SEGMENT
?clear@?$_List_base@PAVSubItemInfo@@V?$allocator@PAVSubItemInfo@@@_STL@@@_STL@@QAEXXZ PROC NEAR ; _STL::_List_base<SubItemInfo *,_STL::allocator<SubItemInfo *> >::clear, COMDAT
; _this$ = ecx

; 68   : {

  00000	56		 push	 esi
  00001	57		 push	 edi
  00002	8b f9		 mov	 edi, ecx

; 69   :   _List_node<_Tp>* __cur = (_List_node<_Tp>*) this->_M_node._M_data->_M_next;

  00004	8b 07		 mov	 eax, DWORD PTR [edi]
  00006	8b 30		 mov	 esi, DWORD PTR [eax]

; 70   :   while (__cur != this->_M_node._M_data) {

  00008	3b f0		 cmp	 esi, eax
  0000a	74 12		 je	 SHORT $L102657
$L102656:

; 71   :     _List_node<_Tp>* __tmp = __cur;

  0000c	8b c6		 mov	 eax, esi

; 72   :     __cur = (_List_node<_Tp>*) __cur->_M_next;

  0000e	8b 36		 mov	 esi, DWORD PTR [esi]

; 73   :     _STLP_STD::_Destroy(&__tmp->_M_data);
; 74   :     this->_M_node.deallocate(__tmp, 1);

  00010	6a 01		 push	 1
  00012	50		 push	 eax
  00013	8b cf		 mov	 ecx, edi
  00015	e8 00 00 00 00	 call	 ?deallocate@?$allocator@U?$_List_node@PAVSubItemInfo@@@_STL@@@_STL@@QAEXPAU?$_List_node@PAVSubItemInfo@@@2@I@Z ; _STL::allocator<_STL::_List_node<SubItemInfo *> >::deallocate
  0001a	3b 37		 cmp	 esi, DWORD PTR [edi]
  0001c	75 ee		 jne	 SHORT $L102656
$L102657:

; 75   :   }
; 76   :   this->_M_node._M_data->_M_next = this->_M_node._M_data;

  0001e	8b 07		 mov	 eax, DWORD PTR [edi]
  00020	89 00		 mov	 DWORD PTR [eax], eax

; 77   :   this->_M_node._M_data->_M_prev = this->_M_node._M_data;

  00022	8b 3f		 mov	 edi, DWORD PTR [edi]
  00024	89 7f 04	 mov	 DWORD PTR [edi+4], edi
  00027	5f		 pop	 edi
  00028	5e		 pop	 esi

; 78   : }

  00029	c3		 ret	 0
?clear@?$_List_base@PAVSubItemInfo@@V?$allocator@PAVSubItemInfo@@@_STL@@@_STL@@QAEXXZ ENDP ; _STL::_List_base<SubItemInfo *,_STL::allocator<SubItemInfo *> >::clear
_TEXT	ENDS
PUBLIC	??E?$_List_iterator@GU?$_Const_traits@G@_STL@@@_STL@@QAEAAU01@XZ ; _STL::_List_iterator<unsigned short,_STL::_Const_traits<unsigned short> >::operator++
; Function compile flags: /Ogsy
; File c:\stlport-4.6.1\stlport\stl\_list.h
;	COMDAT ??E?$_List_iterator@GU?$_Const_traits@G@_STL@@@_STL@@QAEAAU01@XZ
_TEXT	SEGMENT
??E?$_List_iterator@GU?$_Const_traits@G@_STL@@@_STL@@QAEAAU01@XZ PROC NEAR ; _STL::_List_iterator<unsigned short,_STL::_Const_traits<unsigned short> >::operator++, COMDAT
; _this$ = ecx

; 134  :   _Self& operator++() { 

  00000	8b c1		 mov	 eax, ecx

; 135  :     this->_M_incr();

  00002	8b 08		 mov	 ecx, DWORD PTR [eax]
  00004	8b 09		 mov	 ecx, DWORD PTR [ecx]
  00006	89 08		 mov	 DWORD PTR [eax], ecx

; 136  :     return *this;
; 137  :   }

  00008	c3		 ret	 0
??E?$_List_iterator@GU?$_Const_traits@G@_STL@@@_STL@@QAEAAU01@XZ ENDP ; _STL::_List_iterator<unsigned short,_STL::_Const_traits<unsigned short> >::operator++
_TEXT	ENDS
PUBLIC	??$__destroy_aux@PAVStoreItemInfo@@@_STL@@YAXPAVStoreItemInfo@@0ABU__false_type@0@@Z ; _STL::__destroy_aux<StoreItemInfo *>
; Function compile flags: /Ogsy
; File c:\stlport-4.6.1\stlport\stl\_construct.h
;	COMDAT ??$__destroy_aux@PAVStoreItemInfo@@@_STL@@YAXPAVStoreItemInfo@@0ABU__false_type@0@@Z
_TEXT	SEGMENT
___first$ = 8						; size = 4
___last$ = 12						; size = 4
___formal$ = 16						; size = 4
??$__destroy_aux@PAVStoreItemInfo@@@_STL@@YAXPAVStoreItemInfo@@0ABU__false_type@0@@Z PROC NEAR ; _STL::__destroy_aux<StoreItemInfo *>, COMDAT

; 122  : __destroy_aux(_ForwardIterator __first, _ForwardIterator __last, const __false_type&) {

  00000	56		 push	 esi

; 123  :   for ( ; __first != __last; ++__first)

  00001	8b 74 24 08	 mov	 esi, DWORD PTR ___first$[esp]
  00005	eb 0b		 jmp	 SHORT $L104065
$L103053:

; 124  :     _STLP_STD::_Destroy(&*__first);

  00007	8b 06		 mov	 eax, DWORD PTR [esi]
  00009	6a 00		 push	 0
  0000b	8b ce		 mov	 ecx, esi
  0000d	ff 10		 call	 DWORD PTR [eax]
  0000f	83 c6 40	 add	 esi, 64			; 00000040H
$L104065:

; 123  :   for ( ; __first != __last; ++__first)

  00012	3b 74 24 0c	 cmp	 esi, DWORD PTR ___last$[esp]
  00016	75 ef		 jne	 SHORT $L103053
  00018	5e		 pop	 esi

; 125  : }

  00019	c3		 ret	 0
??$__destroy_aux@PAVStoreItemInfo@@@_STL@@YAXPAVStoreItemInfo@@0ABU__false_type@0@@Z ENDP ; _STL::__destroy_aux<StoreItemInfo *>
_TEXT	ENDS
PUBLIC	?get_allocator@?$_List_base@GV?$allocator@G@_STL@@@_STL@@QBE?AV?$allocator@G@2@XZ ; _STL::_List_base<unsigned short,_STL::allocator<unsigned short> >::get_allocator
; Function compile flags: /Ogsy
; File c:\stlport-4.6.1\stlport\stl\_list.h
;	COMDAT ?get_allocator@?$_List_base@GV?$allocator@G@_STL@@@_STL@@QBE?AV?$allocator@G@2@XZ
_TEXT	SEGMENT
___$ReturnUdt$ = 8					; size = 4
?get_allocator@?$_List_base@GV?$allocator@G@_STL@@@_STL@@QBE?AV?$allocator@G@2@XZ PROC NEAR ; _STL::_List_base<unsigned short,_STL::allocator<unsigned short> >::get_allocator, COMDAT
; _this$ = ecx

; 179  :     return _STLP_CONVERT_ALLOCATOR((const _Node_allocator_type&)_M_node, _Tp);

  00000	8b 44 24 04	 mov	 eax, DWORD PTR ___$ReturnUdt$[esp-4]

; 180  :   }

  00004	c2 04 00	 ret	 4
?get_allocator@?$_List_base@GV?$allocator@G@_STL@@@_STL@@QBE?AV?$allocator@G@2@XZ ENDP ; _STL::_List_base<unsigned short,_STL::allocator<unsigned short> >::get_allocator
_TEXT	ENDS
PUBLIC	?get_allocator@?$_List_base@PAVSubItemInfo@@V?$allocator@PAVSubItemInfo@@@_STL@@@_STL@@QBE?AV?$allocator@PAVSubItemInfo@@@2@XZ ; _STL::_List_base<SubItemInfo *,_STL::allocator<SubItemInfo *> >::get_allocator
; Function compile flags: /Ogsy
;	COMDAT ?get_allocator@?$_List_base@PAVSubItemInfo@@V?$allocator@PAVSubItemInfo@@@_STL@@@_STL@@QBE?AV?$allocator@PAVSubItemInfo@@@2@XZ
_TEXT	SEGMENT
___$ReturnUdt$ = 8					; size = 4
?get_allocator@?$_List_base@PAVSubItemInfo@@V?$allocator@PAVSubItemInfo@@@_STL@@@_STL@@QBE?AV?$allocator@PAVSubItemInfo@@@2@XZ PROC NEAR ; _STL::_List_base<SubItemInfo *,_STL::allocator<SubItemInfo *> >::get_allocator, COMDAT
; _this$ = ecx

; 179  :     return _STLP_CONVERT_ALLOCATOR((const _Node_allocator_type&)_M_node, _Tp);

  00000	8b 44 24 04	 mov	 eax, DWORD PTR ___$ReturnUdt$[esp-4]

; 180  :   }

  00004	c2 04 00	 ret	 4
?get_allocator@?$_List_base@PAVSubItemInfo@@V?$allocator@PAVSubItemInfo@@@_STL@@@_STL@@QBE?AV?$allocator@PAVSubItemInfo@@@2@XZ ENDP ; _STL::_List_base<SubItemInfo *,_STL::allocator<SubItemInfo *> >::get_allocator
_TEXT	ENDS
PUBLIC	??1?$_STLP_alloc_proxy@PAU?$_List_node@G@_STL@@U12@V?$allocator@U?$_List_node@G@_STL@@@2@@_STL@@QAE@XZ ; _STL::_STLP_alloc_proxy<_STL::_List_node<unsigned short> *,_STL::_List_node<unsigned short>,_STL::allocator<_STL::_List_node<unsigned short> > >::~_STLP_alloc_proxy<_STL::_List_node<unsigned short> *,_STL::_List_node<unsigned short>,_STL::allocator<_STL::_List_node<unsigned short> > >
; Function compile flags: /Ogsy
;	COMDAT ??1?$_STLP_alloc_proxy@PAU?$_List_node@G@_STL@@U12@V?$allocator@U?$_List_node@G@_STL@@@2@@_STL@@QAE@XZ
_TEXT	SEGMENT
??1?$_STLP_alloc_proxy@PAU?$_List_node@G@_STL@@U12@V?$allocator@U?$_List_node@G@_STL@@@2@@_STL@@QAE@XZ PROC NEAR ; _STL::_STLP_alloc_proxy<_STL::_List_node<unsigned short> *,_STL::_List_node<unsigned short>,_STL::allocator<_STL::_List_node<unsigned short> > >::~_STLP_alloc_proxy<_STL::_List_node<unsigned short> *,_STL::_List_node<unsigned short>,_STL::allocator<_STL::_List_node<unsigned short> > >, COMDAT
; _this$ = ecx
  00000	c3		 ret	 0
??1?$_STLP_alloc_proxy@PAU?$_List_node@G@_STL@@U12@V?$allocator@U?$_List_node@G@_STL@@@2@@_STL@@QAE@XZ ENDP ; _STL::_STLP_alloc_proxy<_STL::_List_node<unsigned short> *,_STL::_List_node<unsigned short>,_STL::allocator<_STL::_List_node<unsigned short> > >::~_STLP_alloc_proxy<_STL::_List_node<unsigned short> *,_STL::_List_node<unsigned short>,_STL::allocator<_STL::_List_node<unsigned short> > >
_TEXT	ENDS
PUBLIC	??1?$_STLP_alloc_proxy@PAU?$_List_node@PAVSubItemInfo@@@_STL@@U12@V?$allocator@U?$_List_node@PAVSubItemInfo@@@_STL@@@2@@_STL@@QAE@XZ ; _STL::_STLP_alloc_proxy<_STL::_List_node<SubItemInfo *> *,_STL::_List_node<SubItemInfo *>,_STL::allocator<_STL::_List_node<SubItemInfo *> > >::~_STLP_alloc_proxy<_STL::_List_node<SubItemInfo *> *,_STL::_List_node<SubItemInfo *>,_STL::allocator<_STL::_List_node<SubItemInfo *> > >
; Function compile flags: /Ogsy
;	COMDAT ??1?$_STLP_alloc_proxy@PAU?$_List_node@PAVSubItemInfo@@@_STL@@U12@V?$allocator@U?$_List_node@PAVSubItemInfo@@@_STL@@@2@@_STL@@QAE@XZ
_TEXT	SEGMENT
??1?$_STLP_alloc_proxy@PAU?$_List_node@PAVSubItemInfo@@@_STL@@U12@V?$allocator@U?$_List_node@PAVSubItemInfo@@@_STL@@@2@@_STL@@QAE@XZ PROC NEAR ; _STL::_STLP_alloc_proxy<_STL::_List_node<SubItemInfo *> *,_STL::_List_node<SubItemInfo *>,_STL::allocator<_STL::_List_node<SubItemInfo *> > >::~_STLP_alloc_proxy<_STL::_List_node<SubItemInfo *> *,_STL::_List_node<SubItemInfo *>,_STL::allocator<_STL::_List_node<SubItemInfo *> > >, COMDAT
; _this$ = ecx
  00000	c3		 ret	 0
??1?$_STLP_alloc_proxy@PAU?$_List_node@PAVSubItemInfo@@@_STL@@U12@V?$allocator@U?$_List_node@PAVSubItemInfo@@@_STL@@@2@@_STL@@QAE@XZ ENDP ; _STL::_STLP_alloc_proxy<_STL::_List_node<SubItemInfo *> *,_STL::_List_node<SubItemInfo *>,_STL::allocator<_STL::_List_node<SubItemInfo *> > >::~_STLP_alloc_proxy<_STL::_List_node<SubItemInfo *> *,_STL::_List_node<SubItemInfo *>,_STL::allocator<_STL::_List_node<SubItemInfo *> > >
_TEXT	ENDS
PUBLIC	??0?$_STLP_alloc_proxy@PAU?$_List_node@G@_STL@@U12@V?$allocator@U?$_List_node@G@_STL@@@2@@_STL@@QAE@ABV?$allocator@U?$_List_node@G@_STL@@@1@PAU?$_List_node@G@1@@Z ; _STL::_STLP_alloc_proxy<_STL::_List_node<unsigned short> *,_STL::_List_node<unsigned short>,_STL::allocator<_STL::_List_node<unsigned short> > >::_STLP_alloc_proxy<_STL::_List_node<unsigned short> *,_STL::_List_node<unsigned short>,_STL::allocator<_STL::_List_node<unsigned short> > >
; Function compile flags: /Ogsy
; File c:\stlport-4.6.1\stlport\stl\_alloc.h
;	COMDAT ??0?$_STLP_alloc_proxy@PAU?$_List_node@G@_STL@@U12@V?$allocator@U?$_List_node@G@_STL@@@2@@_STL@@QAE@ABV?$allocator@U?$_List_node@G@_STL@@@1@PAU?$_List_node@G@1@@Z
_TEXT	SEGMENT
___a$ = 8						; size = 4
___p$ = 12						; size = 4
??0?$_STLP_alloc_proxy@PAU?$_List_node@G@_STL@@U12@V?$allocator@U?$_List_node@G@_STL@@@2@@_STL@@QAE@ABV?$allocator@U?$_List_node@G@_STL@@@1@PAU?$_List_node@G@1@@Z PROC NEAR ; _STL::_STLP_alloc_proxy<_STL::_List_node<unsigned short> *,_STL::_List_node<unsigned short>,_STL::allocator<_STL::_List_node<unsigned short> > >::_STLP_alloc_proxy<_STL::_List_node<unsigned short> *,_STL::_List_node<unsigned short>,_STL::allocator<_STL::_List_node<unsigned short> > >, COMDAT
; _this$ = ecx

; 487  :   inline _STLP_alloc_proxy(const _MaybeReboundAlloc& __a, _Value __p) : _MaybeReboundAlloc(__a), _M_data(__p) {}

  00000	8b c1		 mov	 eax, ecx
  00002	8b 4c 24 08	 mov	 ecx, DWORD PTR ___p$[esp-4]
  00006	89 08		 mov	 DWORD PTR [eax], ecx
  00008	c2 08 00	 ret	 8
??0?$_STLP_alloc_proxy@PAU?$_List_node@G@_STL@@U12@V?$allocator@U?$_List_node@G@_STL@@@2@@_STL@@QAE@ABV?$allocator@U?$_List_node@G@_STL@@@1@PAU?$_List_node@G@1@@Z ENDP ; _STL::_STLP_alloc_proxy<_STL::_List_node<unsigned short> *,_STL::_List_node<unsigned short>,_STL::allocator<_STL::_List_node<unsigned short> > >::_STLP_alloc_proxy<_STL::_List_node<unsigned short> *,_STL::_List_node<unsigned short>,_STL::allocator<_STL::_List_node<unsigned short> > >
_TEXT	ENDS
PUBLIC	??0?$_STLP_alloc_proxy@PAU?$_List_node@PAVSubItemInfo@@@_STL@@U12@V?$allocator@U?$_List_node@PAVSubItemInfo@@@_STL@@@2@@_STL@@QAE@ABV?$allocator@U?$_List_node@PAVSubItemInfo@@@_STL@@@1@PAU?$_List_node@PAVSubItemInfo@@@1@@Z ; _STL::_STLP_alloc_proxy<_STL::_List_node<SubItemInfo *> *,_STL::_List_node<SubItemInfo *>,_STL::allocator<_STL::_List_node<SubItemInfo *> > >::_STLP_alloc_proxy<_STL::_List_node<SubItemInfo *> *,_STL::_List_node<SubItemInfo *>,_STL::allocator<_STL::_List_node<SubItemInfo *> > >
; Function compile flags: /Ogsy
;	COMDAT ??0?$_STLP_alloc_proxy@PAU?$_List_node@PAVSubItemInfo@@@_STL@@U12@V?$allocator@U?$_List_node@PAVSubItemInfo@@@_STL@@@2@@_STL@@QAE@ABV?$allocator@U?$_List_node@PAVSubItemInfo@@@_STL@@@1@PAU?$_List_node@PAVSubItemInfo@@@1@@Z
_TEXT	SEGMENT
___a$ = 8						; size = 4
___p$ = 12						; size = 4
??0?$_STLP_alloc_proxy@PAU?$_List_node@PAVSubItemInfo@@@_STL@@U12@V?$allocator@U?$_List_node@PAVSubItemInfo@@@_STL@@@2@@_STL@@QAE@ABV?$allocator@U?$_List_node@PAVSubItemInfo@@@_STL@@@1@PAU?$_List_node@PAVSubItemInfo@@@1@@Z PROC NEAR ; _STL::_STLP_alloc_proxy<_STL::_List_node<SubItemInfo *> *,_STL::_List_node<SubItemInfo *>,_STL::allocator<_STL::_List_node<SubItemInfo *> > >::_STLP_alloc_proxy<_STL::_List_node<SubItemInfo *> *,_STL::_List_node<SubItemInfo *>,_STL::allocator<_STL::_List_node<SubItemInfo *> > >, COMDAT
; _this$ = ecx

; 487  :   inline _STLP_alloc_proxy(const _MaybeReboundAlloc& __a, _Value __p) : _MaybeReboundAlloc(__a), _M_data(__p) {}

  00000	8b c1		 mov	 eax, ecx
  00002	8b 4c 24 08	 mov	 ecx, DWORD PTR ___p$[esp-4]
  00006	89 08		 mov	 DWORD PTR [eax], ecx
  00008	c2 08 00	 ret	 8
??0?$_STLP_alloc_proxy@PAU?$_List_node@PAVSubItemInfo@@@_STL@@U12@V?$allocator@U?$_List_node@PAVSubItemInfo@@@_STL@@@2@@_STL@@QAE@ABV?$allocator@U?$_List_node@PAVSubItemInfo@@@_STL@@@1@PAU?$_List_node@PAVSubItemInfo@@@1@@Z ENDP ; _STL::_STLP_alloc_proxy<_STL::_List_node<SubItemInfo *> *,_STL::_List_node<SubItemInfo *>,_STL::allocator<_STL::_List_node<SubItemInfo *> > >::_STLP_alloc_proxy<_STL::_List_node<SubItemInfo *> *,_STL::_List_node<SubItemInfo *>,_STL::allocator<_STL::_List_node<SubItemInfo *> > >
_TEXT	ENDS
PUBLIC	??0?$_List_iterator@PAVSubItemInfo@@U?$_Const_traits@PAVSubItemInfo@@@_STL@@@_STL@@QAE@PAU?$_List_node@PAVSubItemInfo@@@1@@Z ; _STL::_List_iterator<SubItemInfo *,_STL::_Const_traits<SubItemInfo *> >::_List_iterator<SubItemInfo *,_STL::_Const_traits<SubItemInfo *> >
; Function compile flags: /Ogsy
; File c:\stlport-4.6.1\stlport\stl\_list.h
;	COMDAT ??0?$_List_iterator@PAVSubItemInfo@@U?$_Const_traits@PAVSubItemInfo@@@_STL@@@_STL@@QAE@PAU?$_List_node@PAVSubItemInfo@@@1@@Z
_TEXT	SEGMENT
___x$ = 8						; size = 4
??0?$_List_iterator@PAVSubItemInfo@@U?$_Const_traits@PAVSubItemInfo@@@_STL@@@_STL@@QAE@PAU?$_List_node@PAVSubItemInfo@@@1@@Z PROC NEAR ; _STL::_List_iterator<SubItemInfo *,_STL::_Const_traits<SubItemInfo *> >::_List_iterator<SubItemInfo *,_STL::_Const_traits<SubItemInfo *> >, COMDAT
; _this$ = ecx

; 126  :   _List_iterator(_Node* __x) : _List_iterator_base(__x) {}

  00000	8b c1		 mov	 eax, ecx
  00002	8b 4c 24 04	 mov	 ecx, DWORD PTR ___x$[esp-4]
  00006	89 08		 mov	 DWORD PTR [eax], ecx
  00008	c2 04 00	 ret	 4
??0?$_List_iterator@PAVSubItemInfo@@U?$_Const_traits@PAVSubItemInfo@@@_STL@@@_STL@@QAE@PAU?$_List_node@PAVSubItemInfo@@@1@@Z ENDP ; _STL::_List_iterator<SubItemInfo *,_STL::_Const_traits<SubItemInfo *> >::_List_iterator<SubItemInfo *,_STL::_Const_traits<SubItemInfo *> >
_TEXT	ENDS
PUBLIC	?clear@?$_List_base@GV?$allocator@G@_STL@@@_STL@@QAEXXZ ; _STL::_List_base<unsigned short,_STL::allocator<unsigned short> >::clear
; Function compile flags: /Ogsy
; File c:\stlport-4.6.1\stlport\stl\_list.c
;	COMDAT ?clear@?$_List_base@GV?$allocator@G@_STL@@@_STL@@QAEXXZ
_TEXT	SEGMENT
?clear@?$_List_base@GV?$allocator@G@_STL@@@_STL@@QAEXXZ PROC NEAR ; _STL::_List_base<unsigned short,_STL::allocator<unsigned short> >::clear, COMDAT
; _this$ = ecx

; 68   : {

  00000	56		 push	 esi
  00001	57		 push	 edi
  00002	8b f9		 mov	 edi, ecx

; 69   :   _List_node<_Tp>* __cur = (_List_node<_Tp>*) this->_M_node._M_data->_M_next;

  00004	8b 07		 mov	 eax, DWORD PTR [edi]
  00006	8b 30		 mov	 esi, DWORD PTR [eax]

; 70   :   while (__cur != this->_M_node._M_data) {

  00008	3b f0		 cmp	 esi, eax
  0000a	74 12		 je	 SHORT $L103275
$L103274:

; 71   :     _List_node<_Tp>* __tmp = __cur;

  0000c	8b c6		 mov	 eax, esi

; 72   :     __cur = (_List_node<_Tp>*) __cur->_M_next;

  0000e	8b 36		 mov	 esi, DWORD PTR [esi]

; 73   :     _STLP_STD::_Destroy(&__tmp->_M_data);
; 74   :     this->_M_node.deallocate(__tmp, 1);

  00010	6a 01		 push	 1
  00012	50		 push	 eax
  00013	8b cf		 mov	 ecx, edi
  00015	e8 00 00 00 00	 call	 ?deallocate@?$allocator@U?$_List_node@G@_STL@@@_STL@@QAEXPAU?$_List_node@G@2@I@Z ; _STL::allocator<_STL::_List_node<unsigned short> >::deallocate
  0001a	3b 37		 cmp	 esi, DWORD PTR [edi]
  0001c	75 ee		 jne	 SHORT $L103274
$L103275:

; 75   :   }
; 76   :   this->_M_node._M_data->_M_next = this->_M_node._M_data;

  0001e	8b 07		 mov	 eax, DWORD PTR [edi]
  00020	89 00		 mov	 DWORD PTR [eax], eax

; 77   :   this->_M_node._M_data->_M_prev = this->_M_node._M_data;

  00022	8b 3f		 mov	 edi, DWORD PTR [edi]
  00024	89 7f 04	 mov	 DWORD PTR [edi+4], edi
  00027	5f		 pop	 edi
  00028	5e		 pop	 esi

; 78   : }

  00029	c3		 ret	 0
?clear@?$_List_base@GV?$allocator@G@_STL@@@_STL@@QAEXXZ ENDP ; _STL::_List_base<unsigned short,_STL::allocator<unsigned short> >::clear
_TEXT	ENDS
PUBLIC	??0?$_List_iterator@PAVSubItemInfo@@U?$_Nonconst_traits@PAVSubItemInfo@@@_STL@@@_STL@@QAE@ABU01@@Z ; _STL::_List_iterator<SubItemInfo *,_STL::_Nonconst_traits<SubItemInfo *> >::_List_iterator<SubItemInfo *,_STL::_Nonconst_traits<SubItemInfo *> >
; Function compile flags: /Ogsy
; File c:\stlport-4.6.1\stlport\stl\_list.h
;	COMDAT ??0?$_List_iterator@PAVSubItemInfo@@U?$_Nonconst_traits@PAVSubItemInfo@@@_STL@@@_STL@@QAE@ABU01@@Z
_TEXT	SEGMENT
___x$ = 8						; size = 4
??0?$_List_iterator@PAVSubItemInfo@@U?$_Nonconst_traits@PAVSubItemInfo@@@_STL@@@_STL@@QAE@ABU01@@Z PROC NEAR ; _STL::_List_iterator<SubItemInfo *,_STL::_Nonconst_traits<SubItemInfo *> >::_List_iterator<SubItemInfo *,_STL::_Nonconst_traits<SubItemInfo *> >, COMDAT
; _this$ = ecx

; 128  :   _List_iterator(const iterator& __x) :  _List_iterator_base(__x._M_node) {}

  00000	8b c1		 mov	 eax, ecx
  00002	8b 4c 24 04	 mov	 ecx, DWORD PTR ___x$[esp-4]
  00006	8b 09		 mov	 ecx, DWORD PTR [ecx]
  00008	89 08		 mov	 DWORD PTR [eax], ecx
  0000a	c2 04 00	 ret	 4
??0?$_List_iterator@PAVSubItemInfo@@U?$_Nonconst_traits@PAVSubItemInfo@@@_STL@@@_STL@@QAE@ABU01@@Z ENDP ; _STL::_List_iterator<SubItemInfo *,_STL::_Nonconst_traits<SubItemInfo *> >::_List_iterator<SubItemInfo *,_STL::_Nonconst_traits<SubItemInfo *> >
_TEXT	ENDS
PUBLIC	??E?$_List_iterator@PAVSubItemInfo@@U?$_Const_traits@PAVSubItemInfo@@@_STL@@@_STL@@QAEAAU01@XZ ; _STL::_List_iterator<SubItemInfo *,_STL::_Const_traits<SubItemInfo *> >::operator++
; Function compile flags: /Ogsy
;	COMDAT ??E?$_List_iterator@PAVSubItemInfo@@U?$_Const_traits@PAVSubItemInfo@@@_STL@@@_STL@@QAEAAU01@XZ
_TEXT	SEGMENT
??E?$_List_iterator@PAVSubItemInfo@@U?$_Const_traits@PAVSubItemInfo@@@_STL@@@_STL@@QAEAAU01@XZ PROC NEAR ; _STL::_List_iterator<SubItemInfo *,_STL::_Const_traits<SubItemInfo *> >::operator++, COMDAT
; _this$ = ecx

; 134  :   _Self& operator++() { 

  00000	8b c1		 mov	 eax, ecx

; 135  :     this->_M_incr();

  00002	8b 08		 mov	 ecx, DWORD PTR [eax]
  00004	8b 09		 mov	 ecx, DWORD PTR [ecx]
  00006	89 08		 mov	 DWORD PTR [eax], ecx

; 136  :     return *this;
; 137  :   }

  00008	c3		 ret	 0
??E?$_List_iterator@PAVSubItemInfo@@U?$_Const_traits@PAVSubItemInfo@@@_STL@@@_STL@@QAEAAU01@XZ ENDP ; _STL::_List_iterator<SubItemInfo *,_STL::_Const_traits<SubItemInfo *> >::operator++
_TEXT	ENDS
PUBLIC	?deallocate@?$allocator@D@_STL@@QAEXPADI@Z	; _STL::allocator<char>::deallocate
; Function compile flags: /Ogsy
; File c:\stlport-4.6.1\stlport\stl\_alloc.h
;	COMDAT ?deallocate@?$allocator@D@_STL@@QAEXPADI@Z
_TEXT	SEGMENT
___p$ = 8						; size = 4
___n$ = 12						; size = 4
?deallocate@?$allocator@D@_STL@@QAEXPADI@Z PROC NEAR	; _STL::allocator<char>::deallocate, COMDAT
; _this$ = ecx

; 359  :     _STLP_ASSERT( (__p == 0) == (__n == 0) )
; 360  :       if (__p != 0) __sgi_alloc::deallocate((void*)__p, __n * sizeof(value_type));

  00000	83 7c 24 04 00	 cmp	 DWORD PTR ___p$[esp-4], 0
  00005	74 0f		 je	 SHORT $L98663
  00007	ff 74 24 08	 push	 DWORD PTR ___n$[esp-4]
  0000b	ff 74 24 08	 push	 DWORD PTR ___p$[esp]
  0000f	e8 00 00 00 00	 call	 ?deallocate@?$__node_alloc@$00$0A@@_STL@@SAXPAXI@Z ; _STL::__node_alloc<1,0>::deallocate
  00014	59		 pop	 ecx
  00015	59		 pop	 ecx
$L98663:

; 361  :   }

  00016	c2 08 00	 ret	 8
?deallocate@?$allocator@D@_STL@@QAEXPADI@Z ENDP		; _STL::allocator<char>::deallocate
_TEXT	ENDS
PUBLIC	??0?$_String_base@DV?$allocator@D@_STL@@@_STL@@QAE@ABV?$allocator@D@1@@Z ; _STL::_String_base<char,_STL::allocator<char> >::_String_base<char,_STL::allocator<char> >
; Function compile flags: /Ogsy
; File c:\stlport-4.6.1\stlport\stl\_string.h
;	COMDAT ??0?$_String_base@DV?$allocator@D@_STL@@@_STL@@QAE@ABV?$allocator@D@1@@Z
_TEXT	SEGMENT
___a$ = 8						; size = 4
??0?$_String_base@DV?$allocator@D@_STL@@@_STL@@QAE@ABV?$allocator@D@1@@Z PROC NEAR ; _STL::_String_base<char,_STL::allocator<char> >::_String_base<char,_STL::allocator<char> >, COMDAT
; _this$ = ecx

; 129  :     : _M_start(0), _M_finish(0), _M_end_of_storage(__a, (_Tp*)0) {}

  00000	56		 push	 esi
  00001	33 c0		 xor	 eax, eax
  00003	8b f1		 mov	 esi, ecx
  00005	50		 push	 eax
  00006	ff 74 24 0c	 push	 DWORD PTR ___a$[esp+4]
  0000a	8d 4e 08	 lea	 ecx, DWORD PTR [esi+8]
  0000d	89 06		 mov	 DWORD PTR [esi], eax
  0000f	89 46 04	 mov	 DWORD PTR [esi+4], eax
  00012	e8 00 00 00 00	 call	 ??0?$_STLP_alloc_proxy@PADDV?$allocator@D@_STL@@@_STL@@QAE@ABV?$allocator@D@1@PAD@Z ; _STL::_STLP_alloc_proxy<char *,char,_STL::allocator<char> >::_STLP_alloc_proxy<char *,char,_STL::allocator<char> >
  00017	8b c6		 mov	 eax, esi
  00019	5e		 pop	 esi
  0001a	c2 04 00	 ret	 4
??0?$_String_base@DV?$allocator@D@_STL@@@_STL@@QAE@ABV?$allocator@D@1@@Z ENDP ; _STL::_String_base<char,_STL::allocator<char> >::_String_base<char,_STL::allocator<char> >
_TEXT	ENDS
PUBLIC	?begin@?$list@GV?$allocator@G@_STL@@@_STL@@QAE?AU?$_List_iterator@GU?$_Nonconst_traits@G@_STL@@@2@XZ ; _STL::list<unsigned short,_STL::allocator<unsigned short> >::begin
; Function compile flags: /Ogsy
; File c:\stlport-4.6.1\stlport\stl\_list.h
;	COMDAT ?begin@?$list@GV?$allocator@G@_STL@@@_STL@@QAE?AU?$_List_iterator@GU?$_Nonconst_traits@G@_STL@@@2@XZ
_TEXT	SEGMENT
___$ReturnUdt$ = 8					; size = 4
?begin@?$list@GV?$allocator@G@_STL@@@_STL@@QAE?AU?$_List_iterator@GU?$_Nonconst_traits@G@_STL@@@2@XZ PROC NEAR ; _STL::list<unsigned short,_STL::allocator<unsigned short> >::begin, COMDAT
; _this$ = ecx

; 266  :   iterator begin()             { return iterator((_Node*)(this->_M_node._M_data->_M_next)); }

  00000	8b 01		 mov	 eax, DWORD PTR [ecx]
  00002	8b 08		 mov	 ecx, DWORD PTR [eax]
  00004	8b 44 24 04	 mov	 eax, DWORD PTR ___$ReturnUdt$[esp-4]
  00008	89 08		 mov	 DWORD PTR [eax], ecx
  0000a	c2 04 00	 ret	 4
?begin@?$list@GV?$allocator@G@_STL@@@_STL@@QAE?AU?$_List_iterator@GU?$_Nonconst_traits@G@_STL@@@2@XZ ENDP ; _STL::list<unsigned short,_STL::allocator<unsigned short> >::begin
_TEXT	ENDS
PUBLIC	?begin@?$list@GV?$allocator@G@_STL@@@_STL@@QBE?AU?$_List_iterator@GU?$_Const_traits@G@_STL@@@2@XZ ; _STL::list<unsigned short,_STL::allocator<unsigned short> >::begin
; Function compile flags: /Ogsy
;	COMDAT ?begin@?$list@GV?$allocator@G@_STL@@@_STL@@QBE?AU?$_List_iterator@GU?$_Const_traits@G@_STL@@@2@XZ
_TEXT	SEGMENT
___$ReturnUdt$ = 8					; size = 4
?begin@?$list@GV?$allocator@G@_STL@@@_STL@@QBE?AU?$_List_iterator@GU?$_Const_traits@G@_STL@@@2@XZ PROC NEAR ; _STL::list<unsigned short,_STL::allocator<unsigned short> >::begin, COMDAT
; _this$ = ecx

; 267  :   const_iterator begin() const { return const_iterator((_Node*)(this->_M_node._M_data->_M_next)); }

  00000	8b 01		 mov	 eax, DWORD PTR [ecx]
  00002	8b 08		 mov	 ecx, DWORD PTR [eax]
  00004	8b 44 24 04	 mov	 eax, DWORD PTR ___$ReturnUdt$[esp-4]
  00008	89 08		 mov	 DWORD PTR [eax], ecx
  0000a	c2 04 00	 ret	 4
?begin@?$list@GV?$allocator@G@_STL@@@_STL@@QBE?AU?$_List_iterator@GU?$_Const_traits@G@_STL@@@2@XZ ENDP ; _STL::list<unsigned short,_STL::allocator<unsigned short> >::begin
_TEXT	ENDS
PUBLIC	?end@?$list@GV?$allocator@G@_STL@@@_STL@@QBE?AU?$_List_iterator@GU?$_Const_traits@G@_STL@@@2@XZ ; _STL::list<unsigned short,_STL::allocator<unsigned short> >::end
; Function compile flags: /Ogsy
;	COMDAT ?end@?$list@GV?$allocator@G@_STL@@@_STL@@QBE?AU?$_List_iterator@GU?$_Const_traits@G@_STL@@@2@XZ
_TEXT	SEGMENT
___$ReturnUdt$ = 8					; size = 4
?end@?$list@GV?$allocator@G@_STL@@@_STL@@QBE?AU?$_List_iterator@GU?$_Const_traits@G@_STL@@@2@XZ PROC NEAR ; _STL::list<unsigned short,_STL::allocator<unsigned short> >::end, COMDAT
; _this$ = ecx

; 270  :   const_iterator end() const { return this->_M_node._M_data; }

  00000	8b 09		 mov	 ecx, DWORD PTR [ecx]
  00002	8b 44 24 04	 mov	 eax, DWORD PTR ___$ReturnUdt$[esp-4]
  00006	89 08		 mov	 DWORD PTR [eax], ecx
  00008	c2 04 00	 ret	 4
?end@?$list@GV?$allocator@G@_STL@@@_STL@@QBE?AU?$_List_iterator@GU?$_Const_traits@G@_STL@@@2@XZ ENDP ; _STL::list<unsigned short,_STL::allocator<unsigned short> >::end
_TEXT	ENDS
PUBLIC	?begin@?$list@PAVSubItemInfo@@V?$allocator@PAVSubItemInfo@@@_STL@@@_STL@@QAE?AU?$_List_iterator@PAVSubItemInfo@@U?$_Nonconst_traits@PAVSubItemInfo@@@_STL@@@2@XZ ; _STL::list<SubItemInfo *,_STL::allocator<SubItemInfo *> >::begin
; Function compile flags: /Ogsy
;	COMDAT ?begin@?$list@PAVSubItemInfo@@V?$allocator@PAVSubItemInfo@@@_STL@@@_STL@@QAE?AU?$_List_iterator@PAVSubItemInfo@@U?$_Nonconst_traits@PAVSubItemInfo@@@_STL@@@2@XZ
_TEXT	SEGMENT
___$ReturnUdt$ = 8					; size = 4
?begin@?$list@PAVSubItemInfo@@V?$allocator@PAVSubItemInfo@@@_STL@@@_STL@@QAE?AU?$_List_iterator@PAVSubItemInfo@@U?$_Nonconst_traits@PAVSubItemInfo@@@_STL@@@2@XZ PROC NEAR ; _STL::list<SubItemInfo *,_STL::allocator<SubItemInfo *> >::begin, COMDAT
; _this$ = ecx

; 266  :   iterator begin()             { return iterator((_Node*)(this->_M_node._M_data->_M_next)); }

  00000	8b 01		 mov	 eax, DWORD PTR [ecx]
  00002	8b 08		 mov	 ecx, DWORD PTR [eax]
  00004	8b 44 24 04	 mov	 eax, DWORD PTR ___$ReturnUdt$[esp-4]
  00008	89 08		 mov	 DWORD PTR [eax], ecx
  0000a	c2 04 00	 ret	 4
?begin@?$list@PAVSubItemInfo@@V?$allocator@PAVSubItemInfo@@@_STL@@@_STL@@QAE?AU?$_List_iterator@PAVSubItemInfo@@U?$_Nonconst_traits@PAVSubItemInfo@@@_STL@@@2@XZ ENDP ; _STL::list<SubItemInfo *,_STL::allocator<SubItemInfo *> >::begin
_TEXT	ENDS
PUBLIC	??0?$_Vector_base@VStoreItemInfo@@V?$allocator@VStoreItemInfo@@@_STL@@@_STL@@QAE@IABV?$allocator@VStoreItemInfo@@@1@@Z ; _STL::_Vector_base<StoreItemInfo,_STL::allocator<StoreItemInfo> >::_Vector_base<StoreItemInfo,_STL::allocator<StoreItemInfo> >
; Function compile flags: /Ogsy
; File c:\stlport-4.6.1\stlport\stl\_vector.h
;	COMDAT ??0?$_Vector_base@VStoreItemInfo@@V?$allocator@VStoreItemInfo@@@_STL@@@_STL@@QAE@IABV?$allocator@VStoreItemInfo@@@1@@Z
_TEXT	SEGMENT
___n$ = 8						; size = 4
___a$ = 12						; size = 4
??0?$_Vector_base@VStoreItemInfo@@V?$allocator@VStoreItemInfo@@@_STL@@@_STL@@QAE@IABV?$allocator@VStoreItemInfo@@@1@@Z PROC NEAR ; _STL::_Vector_base<StoreItemInfo,_STL::allocator<StoreItemInfo> >::_Vector_base<StoreItemInfo,_STL::allocator<StoreItemInfo> >, COMDAT
; _this$ = ecx

; 76   :   {

  00000	53		 push	 ebx
  00001	56		 push	 esi
  00002	8b f1		 mov	 esi, ecx
  00004	33 c0		 xor	 eax, eax
  00006	57		 push	 edi
  00007	50		 push	 eax
  00008	ff 74 24 18	 push	 DWORD PTR ___a$[esp+12]
  0000c	8d 5e 08	 lea	 ebx, DWORD PTR [esi+8]
  0000f	8b cb		 mov	 ecx, ebx
  00011	89 06		 mov	 DWORD PTR [esi], eax
  00013	89 46 04	 mov	 DWORD PTR [esi+4], eax
  00016	e8 00 00 00 00	 call	 ??0?$_STLP_alloc_proxy@PAVStoreItemInfo@@V1@V?$allocator@VStoreItemInfo@@@_STL@@@_STL@@QAE@ABV?$allocator@VStoreItemInfo@@@1@PAVStoreItemInfo@@@Z ; _STL::_STLP_alloc_proxy<StoreItemInfo *,StoreItemInfo,_STL::allocator<StoreItemInfo> >::_STLP_alloc_proxy<StoreItemInfo *,StoreItemInfo,_STL::allocator<StoreItemInfo> >

; 77   :     _M_start = _M_end_of_storage.allocate(__n);

  0001b	8b 7c 24 10	 mov	 edi, DWORD PTR ___n$[esp+8]
  0001f	85 ff		 test	 edi, edi
  00021	74 0e		 je	 SHORT $L104179
  00023	8b c7		 mov	 eax, edi
  00025	c1 e0 06	 shl	 eax, 6
  00028	50		 push	 eax
  00029	e8 00 00 00 00	 call	 ?allocate@?$__node_alloc@$00$0A@@_STL@@SAPAXI@Z ; _STL::__node_alloc<1,0>::allocate
  0002e	59		 pop	 ecx
  0002f	eb 02		 jmp	 SHORT $L104180
$L104179:
  00031	33 c0		 xor	 eax, eax
$L104180:

; 78   :     _M_finish = _M_start;
; 79   :     _M_end_of_storage._M_data = _M_start + __n;

  00033	c1 e7 06	 shl	 edi, 6
  00036	03 f8		 add	 edi, eax
  00038	89 3b		 mov	 DWORD PTR [ebx], edi
  0003a	89 06		 mov	 DWORD PTR [esi], eax
  0003c	89 46 04	 mov	 DWORD PTR [esi+4], eax
  0003f	5f		 pop	 edi

; 80   : 	_STLP_MPWFIX_TRY _STLP_MPWFIX_CATCH
; 81   :   }

  00040	8b c6		 mov	 eax, esi
  00042	5e		 pop	 esi
  00043	5b		 pop	 ebx
  00044	c2 08 00	 ret	 8
??0?$_Vector_base@VStoreItemInfo@@V?$allocator@VStoreItemInfo@@@_STL@@@_STL@@QAE@IABV?$allocator@VStoreItemInfo@@@1@@Z ENDP ; _STL::_Vector_base<StoreItemInfo,_STL::allocator<StoreItemInfo> >::_Vector_base<StoreItemInfo,_STL::allocator<StoreItemInfo> >
_TEXT	ENDS
PUBLIC	??1?$_Vector_base@VStoreItemInfo@@V?$allocator@VStoreItemInfo@@@_STL@@@_STL@@QAE@XZ ; _STL::_Vector_base<StoreItemInfo,_STL::allocator<StoreItemInfo> >::~_Vector_base<StoreItemInfo,_STL::allocator<StoreItemInfo> >
; Function compile flags: /Ogsy
;	COMDAT ??1?$_Vector_base@VStoreItemInfo@@V?$allocator@VStoreItemInfo@@@_STL@@@_STL@@QAE@XZ
_TEXT	SEGMENT
??1?$_Vector_base@VStoreItemInfo@@V?$allocator@VStoreItemInfo@@@_STL@@@_STL@@QAE@XZ PROC NEAR ; _STL::_Vector_base<StoreItemInfo,_STL::allocator<StoreItemInfo> >::~_Vector_base<StoreItemInfo,_STL::allocator<StoreItemInfo> >, COMDAT
; _this$ = ecx

; 84   :     if (_M_start !=0) 

  00000	8b 01		 mov	 eax, DWORD PTR [ecx]
  00002	85 c0		 test	 eax, eax
  00004	74 11		 je	 SHORT $L102404

; 85   :     _M_end_of_storage.deallocate(_M_start, _M_end_of_storage._M_data - _M_start); 

  00006	83 c1 08	 add	 ecx, 8
  00009	8b 11		 mov	 edx, DWORD PTR [ecx]
  0000b	2b d0		 sub	 edx, eax
  0000d	c1 fa 06	 sar	 edx, 6
  00010	52		 push	 edx
  00011	50		 push	 eax
  00012	e8 00 00 00 00	 call	 ?deallocate@?$allocator@VStoreItemInfo@@@_STL@@QAEXPAVStoreItemInfo@@I@Z ; _STL::allocator<StoreItemInfo>::deallocate
$L102404:

; 86   :   }

  00017	c3		 ret	 0
??1?$_Vector_base@VStoreItemInfo@@V?$allocator@VStoreItemInfo@@@_STL@@@_STL@@QAE@XZ ENDP ; _STL::_Vector_base<StoreItemInfo,_STL::allocator<StoreItemInfo> >::~_Vector_base<StoreItemInfo,_STL::allocator<StoreItemInfo> >
_TEXT	ENDS
PUBLIC	?_M_create_node@?$list@GV?$allocator@G@_STL@@@_STL@@IAEPAU?$_List_node@G@2@ABG@Z ; _STL::list<unsigned short,_STL::allocator<unsigned short> >::_M_create_node
EXTRN	__CxxThrowException@8:NEAR
; Function compile flags: /Ogsy
; File c:\stlport-4.6.1\stlport\stl\_list.h
;	COMDAT ?_M_create_node@?$list@GV?$allocator@G@_STL@@@_STL@@IAEPAU?$_List_node@G@2@ABG@Z
_TEXT	SEGMENT
___x$ = 8						; size = 4
?_M_create_node@?$list@GV?$allocator@G@_STL@@@_STL@@IAEPAU?$_List_node@G@2@ABG@Z PROC NEAR ; _STL::list<unsigned short,_STL::allocator<unsigned short> >::_M_create_node, COMDAT
; _this$ = ecx

; 241  :     _Node* __p = this->_M_node.allocate(1);

  00000	6a 0c		 push	 12			; 0000000cH
  00002	e8 00 00 00 00	 call	 ?allocate@?$__node_alloc@$00$0A@@_STL@@SAPAXI@Z ; _STL::__node_alloc<1,0>::allocate
  00007	59		 pop	 ecx

; 242  :     _STLP_TRY {
; 243  :       _Construct(&__p->_M_data, __x);

  00008	8d 48 08	 lea	 ecx, DWORD PTR [eax+8]
  0000b	85 c9		 test	 ecx, ecx
  0000d	74 0a		 je	 SHORT $L104207
  0000f	8b 54 24 04	 mov	 edx, DWORD PTR ___x$[esp-4]
  00013	66 8b 12	 mov	 dx, WORD PTR [edx]
  00016	66 89 11	 mov	 WORD PTR [ecx], dx
$L104207:

; 244  :     }
; 245  :     _STLP_UNWIND(this->_M_node.deallocate(__p, 1));
; 246  :     return __p;
; 247  :   }

  00019	c2 04 00	 ret	 4
?_M_create_node@?$list@GV?$allocator@G@_STL@@@_STL@@IAEPAU?$_List_node@G@2@ABG@Z ENDP ; _STL::list<unsigned short,_STL::allocator<unsigned short> >::_M_create_node
_TEXT	ENDS
PUBLIC	?_M_create_node@?$list@PAVSubItemInfo@@V?$allocator@PAVSubItemInfo@@@_STL@@@_STL@@IAEPAU?$_List_node@PAVSubItemInfo@@@2@ABQAVSubItemInfo@@@Z ; _STL::list<SubItemInfo *,_STL::allocator<SubItemInfo *> >::_M_create_node
; Function compile flags: /Ogsy
;	COMDAT ?_M_create_node@?$list@PAVSubItemInfo@@V?$allocator@PAVSubItemInfo@@@_STL@@@_STL@@IAEPAU?$_List_node@PAVSubItemInfo@@@2@ABQAVSubItemInfo@@@Z
_TEXT	SEGMENT
___x$ = 8						; size = 4
?_M_create_node@?$list@PAVSubItemInfo@@V?$allocator@PAVSubItemInfo@@@_STL@@@_STL@@IAEPAU?$_List_node@PAVSubItemInfo@@@2@ABQAVSubItemInfo@@@Z PROC NEAR ; _STL::list<SubItemInfo *,_STL::allocator<SubItemInfo *> >::_M_create_node, COMDAT
; _this$ = ecx

; 241  :     _Node* __p = this->_M_node.allocate(1);

  00000	6a 0c		 push	 12			; 0000000cH
  00002	e8 00 00 00 00	 call	 ?allocate@?$__node_alloc@$00$0A@@_STL@@SAPAXI@Z ; _STL::__node_alloc<1,0>::allocate
  00007	59		 pop	 ecx

; 242  :     _STLP_TRY {
; 243  :       _Construct(&__p->_M_data, __x);

  00008	8d 48 08	 lea	 ecx, DWORD PTR [eax+8]
  0000b	85 c9		 test	 ecx, ecx
  0000d	74 08		 je	 SHORT $L104237
  0000f	8b 54 24 04	 mov	 edx, DWORD PTR ___x$[esp-4]
  00013	8b 12		 mov	 edx, DWORD PTR [edx]
  00015	89 11		 mov	 DWORD PTR [ecx], edx
$L104237:

; 244  :     }
; 245  :     _STLP_UNWIND(this->_M_node.deallocate(__p, 1));
; 246  :     return __p;
; 247  :   }

  00017	c2 04 00	 ret	 4
?_M_create_node@?$list@PAVSubItemInfo@@V?$allocator@PAVSubItemInfo@@@_STL@@@_STL@@IAEPAU?$_List_node@PAVSubItemInfo@@@2@ABQAVSubItemInfo@@@Z ENDP ; _STL::list<SubItemInfo *,_STL::allocator<SubItemInfo *> >::_M_create_node
_TEXT	ENDS
PUBLIC	??$__destroy@PAVStoreItemInfo@@V1@@_STL@@YAXPAVStoreItemInfo@@00@Z ; _STL::__destroy<StoreItemInfo *,StoreItemInfo>
; Function compile flags: /Ogsy
; File c:\stlport-4.6.1\stlport\stl\_construct.h
;	COMDAT ??$__destroy@PAVStoreItemInfo@@V1@@_STL@@YAXPAVStoreItemInfo@@00@Z
_TEXT	SEGMENT
$T104246 = -1						; size = 1
___first$ = 8						; size = 4
___last$ = 12						; size = 4
___formal$ = 16						; size = 4
??$__destroy@PAVStoreItemInfo@@V1@@_STL@@YAXPAVStoreItemInfo@@00@Z PROC NEAR ; _STL::__destroy<StoreItemInfo *,StoreItemInfo>, COMDAT

; 132  : __destroy(_ForwardIterator __first, _ForwardIterator __last, _Tp*) {

  00000	55		 push	 ebp
  00001	8b ec		 mov	 ebp, esp
  00003	51		 push	 ecx

; 133  :   typedef typename __type_traits<_Tp>::has_trivial_destructor _Trivial_destructor;
; 134  :   __destroy_aux(__first, __last, _Trivial_destructor());

  00004	8d 45 ff	 lea	 eax, DWORD PTR $T104246[ebp]
  00007	50		 push	 eax
  00008	ff 75 0c	 push	 DWORD PTR ___last$[ebp]
  0000b	ff 75 08	 push	 DWORD PTR ___first$[ebp]
  0000e	e8 00 00 00 00	 call	 ??$__destroy_aux@PAVStoreItemInfo@@@_STL@@YAXPAVStoreItemInfo@@0ABU__false_type@0@@Z ; _STL::__destroy_aux<StoreItemInfo *>
  00013	83 c4 0c	 add	 esp, 12			; 0000000cH

; 135  : }

  00016	c9		 leave
  00017	c3		 ret	 0
??$__destroy@PAVStoreItemInfo@@V1@@_STL@@YAXPAVStoreItemInfo@@00@Z ENDP ; _STL::__destroy<StoreItemInfo *,StoreItemInfo>
_TEXT	ENDS
PUBLIC	??0?$_List_base@GV?$allocator@G@_STL@@@_STL@@QAE@ABV?$allocator@G@1@@Z ; _STL::_List_base<unsigned short,_STL::allocator<unsigned short> >::_List_base<unsigned short,_STL::allocator<unsigned short> >
; Function compile flags: /Ogsy
; File c:\stlport-4.6.1\stlport\stl\_list.h
;	COMDAT ??0?$_List_base@GV?$allocator@G@_STL@@@_STL@@QAE@ABV?$allocator@G@1@@Z
_TEXT	SEGMENT
$T104249 = -1						; size = 1
___a$ = 8						; size = 4
??0?$_List_base@GV?$allocator@G@_STL@@@_STL@@QAE@ABV?$allocator@G@1@@Z PROC NEAR ; _STL::_List_base<unsigned short,_STL::allocator<unsigned short> >::_List_base<unsigned short,_STL::allocator<unsigned short> >, COMDAT
; _this$ = ecx

; 182  :   _List_base(const allocator_type& __a) : _M_node(_STLP_CONVERT_ALLOCATOR(__a, _Node), (_Node*)0) {

  00000	51		 push	 ecx
  00001	56		 push	 esi
  00002	6a 00		 push	 0
  00004	8d 44 24 0b	 lea	 eax, DWORD PTR $T104249[esp+12]
  00008	50		 push	 eax
  00009	8b f1		 mov	 esi, ecx
  0000b	e8 00 00 00 00	 call	 ??0?$_STLP_alloc_proxy@PAU?$_List_node@G@_STL@@U12@V?$allocator@U?$_List_node@G@_STL@@@2@@_STL@@QAE@ABV?$allocator@U?$_List_node@G@_STL@@@1@PAU?$_List_node@G@1@@Z ; _STL::_STLP_alloc_proxy<_STL::_List_node<unsigned short> *,_STL::_List_node<unsigned short>,_STL::allocator<_STL::_List_node<unsigned short> > >::_STLP_alloc_proxy<_STL::_List_node<unsigned short> *,_STL::_List_node<unsigned short>,_STL::allocator<_STL::_List_node<unsigned short> > >

; 183  :     _Node* __n = _M_node.allocate(1);

  00010	6a 0c		 push	 12			; 0000000cH
  00012	e8 00 00 00 00	 call	 ?allocate@?$__node_alloc@$00$0A@@_STL@@SAPAXI@Z ; _STL::__node_alloc<1,0>::allocate

; 184  :     __n->_M_next = __n;

  00017	89 00		 mov	 DWORD PTR [eax], eax

; 185  :     __n->_M_prev = __n;

  00019	89 40 04	 mov	 DWORD PTR [eax+4], eax

; 186  :     _M_node._M_data = __n;

  0001c	89 06		 mov	 DWORD PTR [esi], eax
  0001e	59		 pop	 ecx

; 187  :   }

  0001f	8b c6		 mov	 eax, esi
  00021	5e		 pop	 esi
  00022	59		 pop	 ecx
  00023	c2 04 00	 ret	 4
??0?$_List_base@GV?$allocator@G@_STL@@@_STL@@QAE@ABV?$allocator@G@1@@Z ENDP ; _STL::_List_base<unsigned short,_STL::allocator<unsigned short> >::_List_base<unsigned short,_STL::allocator<unsigned short> >
_TEXT	ENDS
PUBLIC	??1?$_List_base@GV?$allocator@G@_STL@@@_STL@@QAE@XZ ; _STL::_List_base<unsigned short,_STL::allocator<unsigned short> >::~_List_base<unsigned short,_STL::allocator<unsigned short> >
; Function compile flags: /Ogsy
;	COMDAT ??1?$_List_base@GV?$allocator@G@_STL@@@_STL@@QAE@XZ
_TEXT	SEGMENT
??1?$_List_base@GV?$allocator@G@_STL@@@_STL@@QAE@XZ PROC NEAR ; _STL::_List_base<unsigned short,_STL::allocator<unsigned short> >::~_List_base<unsigned short,_STL::allocator<unsigned short> >, COMDAT
; _this$ = ecx

; 188  :   ~_List_base() {

  00000	56		 push	 esi
  00001	8b f1		 mov	 esi, ecx

; 189  :     clear();

  00003	e8 00 00 00 00	 call	 ?clear@?$_List_base@GV?$allocator@G@_STL@@@_STL@@QAEXXZ ; _STL::_List_base<unsigned short,_STL::allocator<unsigned short> >::clear

; 190  :     _M_node.deallocate(_M_node._M_data, 1);

  00008	6a 01		 push	 1
  0000a	ff 36		 push	 DWORD PTR [esi]
  0000c	8b ce		 mov	 ecx, esi
  0000e	e8 00 00 00 00	 call	 ?deallocate@?$allocator@U?$_List_node@G@_STL@@@_STL@@QAEXPAU?$_List_node@G@2@I@Z ; _STL::allocator<_STL::_List_node<unsigned short> >::deallocate
  00013	5e		 pop	 esi

; 191  :   }

  00014	c3		 ret	 0
??1?$_List_base@GV?$allocator@G@_STL@@@_STL@@QAE@XZ ENDP ; _STL::_List_base<unsigned short,_STL::allocator<unsigned short> >::~_List_base<unsigned short,_STL::allocator<unsigned short> >
_TEXT	ENDS
PUBLIC	?begin@?$list@PAVSubItemInfo@@V?$allocator@PAVSubItemInfo@@@_STL@@@_STL@@QBE?AU?$_List_iterator@PAVSubItemInfo@@U?$_Const_traits@PAVSubItemInfo@@@_STL@@@2@XZ ; _STL::list<SubItemInfo *,_STL::allocator<SubItemInfo *> >::begin
; Function compile flags: /Ogsy
;	COMDAT ?begin@?$list@PAVSubItemInfo@@V?$allocator@PAVSubItemInfo@@@_STL@@@_STL@@QBE?AU?$_List_iterator@PAVSubItemInfo@@U?$_Const_traits@PAVSubItemInfo@@@_STL@@@2@XZ
_TEXT	SEGMENT
___$ReturnUdt$ = 8					; size = 4
?begin@?$list@PAVSubItemInfo@@V?$allocator@PAVSubItemInfo@@@_STL@@@_STL@@QBE?AU?$_List_iterator@PAVSubItemInfo@@U?$_Const_traits@PAVSubItemInfo@@@_STL@@@2@XZ PROC NEAR ; _STL::list<SubItemInfo *,_STL::allocator<SubItemInfo *> >::begin, COMDAT
; _this$ = ecx

; 267  :   const_iterator begin() const { return const_iterator((_Node*)(this->_M_node._M_data->_M_next)); }

  00000	8b 01		 mov	 eax, DWORD PTR [ecx]
  00002	8b 08		 mov	 ecx, DWORD PTR [eax]
  00004	8b 44 24 04	 mov	 eax, DWORD PTR ___$ReturnUdt$[esp-4]
  00008	89 08		 mov	 DWORD PTR [eax], ecx
  0000a	c2 04 00	 ret	 4
?begin@?$list@PAVSubItemInfo@@V?$allocator@PAVSubItemInfo@@@_STL@@@_STL@@QBE?AU?$_List_iterator@PAVSubItemInfo@@U?$_Const_traits@PAVSubItemInfo@@@_STL@@@2@XZ ENDP ; _STL::list<SubItemInfo *,_STL::allocator<SubItemInfo *> >::begin
_TEXT	ENDS
PUBLIC	?end@?$list@PAVSubItemInfo@@V?$allocator@PAVSubItemInfo@@@_STL@@@_STL@@QBE?AU?$_List_iterator@PAVSubItemInfo@@U?$_Const_traits@PAVSubItemInfo@@@_STL@@@2@XZ ; _STL::list<SubItemInfo *,_STL::allocator<SubItemInfo *> >::end
; Function compile flags: /Ogsy
;	COMDAT ?end@?$list@PAVSubItemInfo@@V?$allocator@PAVSubItemInfo@@@_STL@@@_STL@@QBE?AU?$_List_iterator@PAVSubItemInfo@@U?$_Const_traits@PAVSubItemInfo@@@_STL@@@2@XZ
_TEXT	SEGMENT
___$ReturnUdt$ = 8					; size = 4
?end@?$list@PAVSubItemInfo@@V?$allocator@PAVSubItemInfo@@@_STL@@@_STL@@QBE?AU?$_List_iterator@PAVSubItemInfo@@U?$_Const_traits@PAVSubItemInfo@@@_STL@@@2@XZ PROC NEAR ; _STL::list<SubItemInfo *,_STL::allocator<SubItemInfo *> >::end, COMDAT
; _this$ = ecx

; 270  :   const_iterator end() const { return this->_M_node._M_data; }

  00000	8b 09		 mov	 ecx, DWORD PTR [ecx]
  00002	8b 44 24 04	 mov	 eax, DWORD PTR ___$ReturnUdt$[esp-4]
  00006	89 08		 mov	 DWORD PTR [eax], ecx
  00008	c2 04 00	 ret	 4
?end@?$list@PAVSubItemInfo@@V?$allocator@PAVSubItemInfo@@@_STL@@@_STL@@QBE?AU?$_List_iterator@PAVSubItemInfo@@U?$_Const_traits@PAVSubItemInfo@@@_STL@@@2@XZ ENDP ; _STL::list<SubItemInfo *,_STL::allocator<SubItemInfo *> >::end
_TEXT	ENDS
PUBLIC	??0?$_List_base@PAVSubItemInfo@@V?$allocator@PAVSubItemInfo@@@_STL@@@_STL@@QAE@ABV?$allocator@PAVSubItemInfo@@@1@@Z ; _STL::_List_base<SubItemInfo *,_STL::allocator<SubItemInfo *> >::_List_base<SubItemInfo *,_STL::allocator<SubItemInfo *> >
; Function compile flags: /Ogsy
;	COMDAT ??0?$_List_base@PAVSubItemInfo@@V?$allocator@PAVSubItemInfo@@@_STL@@@_STL@@QAE@ABV?$allocator@PAVSubItemInfo@@@1@@Z
_TEXT	SEGMENT
$T104290 = -1						; size = 1
___a$ = 8						; size = 4
??0?$_List_base@PAVSubItemInfo@@V?$allocator@PAVSubItemInfo@@@_STL@@@_STL@@QAE@ABV?$allocator@PAVSubItemInfo@@@1@@Z PROC NEAR ; _STL::_List_base<SubItemInfo *,_STL::allocator<SubItemInfo *> >::_List_base<SubItemInfo *,_STL::allocator<SubItemInfo *> >, COMDAT
; _this$ = ecx

; 182  :   _List_base(const allocator_type& __a) : _M_node(_STLP_CONVERT_ALLOCATOR(__a, _Node), (_Node*)0) {

  00000	51		 push	 ecx
  00001	56		 push	 esi
  00002	6a 00		 push	 0
  00004	8d 44 24 0b	 lea	 eax, DWORD PTR $T104290[esp+12]
  00008	50		 push	 eax
  00009	8b f1		 mov	 esi, ecx
  0000b	e8 00 00 00 00	 call	 ??0?$_STLP_alloc_proxy@PAU?$_List_node@PAVSubItemInfo@@@_STL@@U12@V?$allocator@U?$_List_node@PAVSubItemInfo@@@_STL@@@2@@_STL@@QAE@ABV?$allocator@U?$_List_node@PAVSubItemInfo@@@_STL@@@1@PAU?$_List_node@PAVSubItemInfo@@@1@@Z ; _STL::_STLP_alloc_proxy<_STL::_List_node<SubItemInfo *> *,_STL::_List_node<SubItemInfo *>,_STL::allocator<_STL::_List_node<SubItemInfo *> > >::_STLP_alloc_proxy<_STL::_List_node<SubItemInfo *> *,_STL::_List_node<SubItemInfo *>,_STL::allocator<_STL::_List_node<SubItemInfo *> > >

; 183  :     _Node* __n = _M_node.allocate(1);

  00010	6a 0c		 push	 12			; 0000000cH
  00012	e8 00 00 00 00	 call	 ?allocate@?$__node_alloc@$00$0A@@_STL@@SAPAXI@Z ; _STL::__node_alloc<1,0>::allocate

; 184  :     __n->_M_next = __n;

  00017	89 00		 mov	 DWORD PTR [eax], eax

; 185  :     __n->_M_prev = __n;

  00019	89 40 04	 mov	 DWORD PTR [eax+4], eax

; 186  :     _M_node._M_data = __n;

  0001c	89 06		 mov	 DWORD PTR [esi], eax
  0001e	59		 pop	 ecx

; 187  :   }

  0001f	8b c6		 mov	 eax, esi
  00021	5e		 pop	 esi
  00022	59		 pop	 ecx
  00023	c2 04 00	 ret	 4
??0?$_List_base@PAVSubItemInfo@@V?$allocator@PAVSubItemInfo@@@_STL@@@_STL@@QAE@ABV?$allocator@PAVSubItemInfo@@@1@@Z ENDP ; _STL::_List_base<SubItemInfo *,_STL::allocator<SubItemInfo *> >::_List_base<SubItemInfo *,_STL::allocator<SubItemInfo *> >
_TEXT	ENDS
PUBLIC	??1?$_List_base@PAVSubItemInfo@@V?$allocator@PAVSubItemInfo@@@_STL@@@_STL@@QAE@XZ ; _STL::_List_base<SubItemInfo *,_STL::allocator<SubItemInfo *> >::~_List_base<SubItemInfo *,_STL::allocator<SubItemInfo *> >
; Function compile flags: /Ogsy
;	COMDAT ??1?$_List_base@PAVSubItemInfo@@V?$allocator@PAVSubItemInfo@@@_STL@@@_STL@@QAE@XZ
_TEXT	SEGMENT
??1?$_List_base@PAVSubItemInfo@@V?$allocator@PAVSubItemInfo@@@_STL@@@_STL@@QAE@XZ PROC NEAR ; _STL::_List_base<SubItemInfo *,_STL::allocator<SubItemInfo *> >::~_List_base<SubItemInfo *,_STL::allocator<SubItemInfo *> >, COMDAT
; _this$ = ecx

; 188  :   ~_List_base() {

  00000	56		 push	 esi
  00001	8b f1		 mov	 esi, ecx

; 189  :     clear();

  00003	e8 00 00 00 00	 call	 ?clear@?$_List_base@PAVSubItemInfo@@V?$allocator@PAVSubItemInfo@@@_STL@@@_STL@@QAEXXZ ; _STL::_List_base<SubItemInfo *,_STL::allocator<SubItemInfo *> >::clear

; 190  :     _M_node.deallocate(_M_node._M_data, 1);

  00008	6a 01		 push	 1
  0000a	ff 36		 push	 DWORD PTR [esi]
  0000c	8b ce		 mov	 ecx, esi
  0000e	e8 00 00 00 00	 call	 ?deallocate@?$allocator@U?$_List_node@PAVSubItemInfo@@@_STL@@@_STL@@QAEXPAU?$_List_node@PAVSubItemInfo@@@2@I@Z ; _STL::allocator<_STL::_List_node<SubItemInfo *> >::deallocate
  00013	5e		 pop	 esi

; 191  :   }

  00014	c3		 ret	 0
??1?$_List_base@PAVSubItemInfo@@V?$allocator@PAVSubItemInfo@@@_STL@@@_STL@@QAE@XZ ENDP ; _STL::_List_base<SubItemInfo *,_STL::allocator<SubItemInfo *> >::~_List_base<SubItemInfo *,_STL::allocator<SubItemInfo *> >
_TEXT	ENDS
PUBLIC	?_M_deallocate_block@?$_String_base@DV?$allocator@D@_STL@@@_STL@@QAEXXZ ; _STL::_String_base<char,_STL::allocator<char> >::_M_deallocate_block
; Function compile flags: /Ogsy
; File c:\stlport-4.6.1\stlport\stl\_string.h
;	COMDAT ?_M_deallocate_block@?$_String_base@DV?$allocator@D@_STL@@@_STL@@QAEXXZ
_TEXT	SEGMENT
?_M_deallocate_block@?$_String_base@DV?$allocator@D@_STL@@@_STL@@QAEXXZ PROC NEAR ; _STL::_String_base<char,_STL::allocator<char> >::_M_deallocate_block, COMDAT
; _this$ = ecx

; 124  :     { _M_end_of_storage.deallocate(_M_start, _M_end_of_storage._M_data - _M_start); }

  00000	8b c1		 mov	 eax, ecx
  00002	8d 48 08	 lea	 ecx, DWORD PTR [eax+8]
  00005	8b 00		 mov	 eax, DWORD PTR [eax]
  00007	8b 11		 mov	 edx, DWORD PTR [ecx]
  00009	2b d0		 sub	 edx, eax
  0000b	52		 push	 edx
  0000c	50		 push	 eax
  0000d	e8 00 00 00 00	 call	 ?deallocate@?$allocator@D@_STL@@QAEXPADI@Z ; _STL::allocator<char>::deallocate
  00012	c3		 ret	 0
?_M_deallocate_block@?$_String_base@DV?$allocator@D@_STL@@@_STL@@QAEXXZ ENDP ; _STL::_String_base<char,_STL::allocator<char> >::_M_deallocate_block
_TEXT	ENDS
PUBLIC	?insert@?$list@GV?$allocator@G@_STL@@@_STL@@QAE?AU?$_List_iterator@GU?$_Nonconst_traits@G@_STL@@@2@U32@ABG@Z ; _STL::list<unsigned short,_STL::allocator<unsigned short> >::insert
; Function compile flags: /Ogsy
; File c:\stlport-4.6.1\stlport\stl\_list.h
;	COMDAT ?insert@?$list@GV?$allocator@G@_STL@@@_STL@@QAE?AU?$_List_iterator@GU?$_Nonconst_traits@G@_STL@@@2@U32@ABG@Z
_TEXT	SEGMENT
___$ReturnUdt$ = 8					; size = 4
___position$ = 12					; size = 4
___x$ = 16						; size = 4
?insert@?$list@GV?$allocator@G@_STL@@@_STL@@QAE?AU?$_List_iterator@GU?$_Nonconst_traits@G@_STL@@@2@U32@ABG@Z PROC NEAR ; _STL::list<unsigned short,_STL::allocator<unsigned short> >::insert, COMDAT
; _this$ = ecx

; 299  : 
; 300  :     _Node* __tmp = _M_create_node(__x);

  00000	ff 74 24 0c	 push	 DWORD PTR ___x$[esp-4]
  00004	e8 00 00 00 00	 call	 ?_M_create_node@?$list@GV?$allocator@G@_STL@@@_STL@@IAEPAU?$_List_node@G@2@ABG@Z ; _STL::list<unsigned short,_STL::allocator<unsigned short> >::_M_create_node

; 301  :     _List_node_base* __n = __position._M_node;
; 302  :     _List_node_base* __p = __n->_M_prev;

  00009	8b 4c 24 08	 mov	 ecx, DWORD PTR ___position$[esp-4]
  0000d	8b 51 04	 mov	 edx, DWORD PTR [ecx+4]

; 303  :     __tmp->_M_next = __n;

  00010	89 08		 mov	 DWORD PTR [eax], ecx

; 304  :     __tmp->_M_prev = __p;

  00012	89 50 04	 mov	 DWORD PTR [eax+4], edx

; 305  :     __p->_M_next = __tmp;

  00015	89 02		 mov	 DWORD PTR [edx], eax

; 306  :     __n->_M_prev = __tmp;

  00017	89 41 04	 mov	 DWORD PTR [ecx+4], eax

; 307  :     return __tmp;

  0001a	8b 4c 24 04	 mov	 ecx, DWORD PTR ___$ReturnUdt$[esp-4]
  0001e	89 01		 mov	 DWORD PTR [ecx], eax
  00020	8b c1		 mov	 eax, ecx

; 308  :   }

  00022	c2 0c 00	 ret	 12			; 0000000cH
?insert@?$list@GV?$allocator@G@_STL@@@_STL@@QAE?AU?$_List_iterator@GU?$_Nonconst_traits@G@_STL@@@2@U32@ABG@Z ENDP ; _STL::list<unsigned short,_STL::allocator<unsigned short> >::insert
_TEXT	ENDS
PUBLIC	?insert@?$list@PAVSubItemInfo@@V?$allocator@PAVSubItemInfo@@@_STL@@@_STL@@QAE?AU?$_List_iterator@PAVSubItemInfo@@U?$_Nonconst_traits@PAVSubItemInfo@@@_STL@@@2@U32@ABQAVSubItemInfo@@@Z ; _STL::list<SubItemInfo *,_STL::allocator<SubItemInfo *> >::insert
; Function compile flags: /Ogsy
;	COMDAT ?insert@?$list@PAVSubItemInfo@@V?$allocator@PAVSubItemInfo@@@_STL@@@_STL@@QAE?AU?$_List_iterator@PAVSubItemInfo@@U?$_Nonconst_traits@PAVSubItemInfo@@@_STL@@@2@U32@ABQAVSubItemInfo@@@Z
_TEXT	SEGMENT
___$ReturnUdt$ = 8					; size = 4
___position$ = 12					; size = 4
___x$ = 16						; size = 4
?insert@?$list@PAVSubItemInfo@@V?$allocator@PAVSubItemInfo@@@_STL@@@_STL@@QAE?AU?$_List_iterator@PAVSubItemInfo@@U?$_Nonconst_traits@PAVSubItemInfo@@@_STL@@@2@U32@ABQAVSubItemInfo@@@Z PROC NEAR ; _STL::list<SubItemInfo *,_STL::allocator<SubItemInfo *> >::insert, COMDAT
; _this$ = ecx

; 299  : 
; 300  :     _Node* __tmp = _M_create_node(__x);

  00000	ff 74 24 0c	 push	 DWORD PTR ___x$[esp-4]
  00004	e8 00 00 00 00	 call	 ?_M_create_node@?$list@PAVSubItemInfo@@V?$allocator@PAVSubItemInfo@@@_STL@@@_STL@@IAEPAU?$_List_node@PAVSubItemInfo@@@2@ABQAVSubItemInfo@@@Z ; _STL::list<SubItemInfo *,_STL::allocator<SubItemInfo *> >::_M_create_node

; 301  :     _List_node_base* __n = __position._M_node;
; 302  :     _List_node_base* __p = __n->_M_prev;

  00009	8b 4c 24 08	 mov	 ecx, DWORD PTR ___position$[esp-4]
  0000d	8b 51 04	 mov	 edx, DWORD PTR [ecx+4]

; 303  :     __tmp->_M_next = __n;

  00010	89 08		 mov	 DWORD PTR [eax], ecx

; 304  :     __tmp->_M_prev = __p;

  00012	89 50 04	 mov	 DWORD PTR [eax+4], edx

; 305  :     __p->_M_next = __tmp;

  00015	89 02		 mov	 DWORD PTR [edx], eax

; 306  :     __n->_M_prev = __tmp;

  00017	89 41 04	 mov	 DWORD PTR [ecx+4], eax

; 307  :     return __tmp;

  0001a	8b 4c 24 04	 mov	 ecx, DWORD PTR ___$ReturnUdt$[esp-4]
  0001e	89 01		 mov	 DWORD PTR [ecx], eax
  00020	8b c1		 mov	 eax, ecx

; 308  :   }

  00022	c2 0c 00	 ret	 12			; 0000000cH
?insert@?$list@PAVSubItemInfo@@V?$allocator@PAVSubItemInfo@@@_STL@@@_STL@@QAE?AU?$_List_iterator@PAVSubItemInfo@@U?$_Nonconst_traits@PAVSubItemInfo@@@_STL@@@2@U32@ABQAVSubItemInfo@@@Z ENDP ; _STL::list<SubItemInfo *,_STL::allocator<SubItemInfo *> >::insert
_TEXT	ENDS
PUBLIC	??$_Destroy@PAVStoreItemInfo@@@_STL@@YAXPAVStoreItemInfo@@0@Z ; _STL::_Destroy<StoreItemInfo *>
; Function compile flags: /Ogsy
; File c:\stlport-4.6.1\stlport\stl\_construct.h
;	COMDAT ??$_Destroy@PAVStoreItemInfo@@@_STL@@YAXPAVStoreItemInfo@@0@Z
_TEXT	SEGMENT
$T104336 = -1						; size = 1
___first$ = 8						; size = 4
___last$ = 12						; size = 4
??$_Destroy@PAVStoreItemInfo@@@_STL@@YAXPAVStoreItemInfo@@0@Z PROC NEAR ; _STL::_Destroy<StoreItemInfo *>, COMDAT

; 138  : inline void _Destroy(_ForwardIterator __first, _ForwardIterator __last) {

  00000	55		 push	 ebp
  00001	8b ec		 mov	 ebp, esp
  00003	51		 push	 ecx

; 139  :   __destroy(__first, __last, _STLP_VALUE_TYPE(__first, _ForwardIterator));

  00004	8d 45 ff	 lea	 eax, DWORD PTR $T104336[ebp]
  00007	50		 push	 eax
  00008	ff 75 0c	 push	 DWORD PTR ___last$[ebp]
  0000b	ff 75 08	 push	 DWORD PTR ___first$[ebp]
  0000e	e8 00 00 00 00	 call	 ??$__destroy_aux@PAVStoreItemInfo@@@_STL@@YAXPAVStoreItemInfo@@0ABU__false_type@0@@Z ; _STL::__destroy_aux<StoreItemInfo *>
  00013	83 c4 0c	 add	 esp, 12			; 0000000cH

; 140  : }

  00016	c9		 leave
  00017	c3		 ret	 0
??$_Destroy@PAVStoreItemInfo@@@_STL@@YAXPAVStoreItemInfo@@0@Z ENDP ; _STL::_Destroy<StoreItemInfo *>
_TEXT	ENDS
PUBLIC	??$_M_insert_dispatch@U?$_List_iterator@GU?$_Const_traits@G@_STL@@@_STL@@@?$list@GV?$allocator@G@_STL@@@_STL@@QAEXU?$_List_iterator@GU?$_Nonconst_traits@G@_STL@@@1@U?$_List_iterator@GU?$_Const_traits@G@_STL@@@1@1ABU__false_type@1@@Z ; _STL::list<unsigned short,_STL::allocator<unsigned short> >::_M_insert_dispatch<_STL::_List_iterator<unsigned short,_STL::_Const_traits<unsigned short> > >
; Function compile flags: /Ogsy
; File c:\stlport-4.6.1\stlport\stl\_list.h
;	COMDAT ??$_M_insert_dispatch@U?$_List_iterator@GU?$_Const_traits@G@_STL@@@_STL@@@?$list@GV?$allocator@G@_STL@@@_STL@@QAEXU?$_List_iterator@GU?$_Nonconst_traits@G@_STL@@@1@U?$_List_iterator@GU?$_Const_traits@G@_STL@@@1@1ABU__false_type@1@@Z
_TEXT	SEGMENT
___position$ = 8					; size = 4
$T104340 = 12						; size = 4
___first$ = 12						; size = 4
___last$ = 16						; size = 4
___formal$ = 20						; size = 4
??$_M_insert_dispatch@U?$_List_iterator@GU?$_Const_traits@G@_STL@@@_STL@@@?$list@GV?$allocator@G@_STL@@@_STL@@QAEXU?$_List_iterator@GU?$_Nonconst_traits@G@_STL@@@1@U?$_List_iterator@GU?$_Const_traits@G@_STL@@@1@1ABU__false_type@1@@Z PROC NEAR ; _STL::list<unsigned short,_STL::allocator<unsigned short> >::_M_insert_dispatch<_STL::_List_iterator<unsigned short,_STL::_Const_traits<unsigned short> > >, COMDAT
; _this$ = ecx

; 323  :   void 

  00000	55		 push	 ebp
  00001	8b ec		 mov	 ebp, esp
  00003	56		 push	 esi

; 324  :   _M_insert_dispatch(iterator __position,
; 325  : 		     _InputIter __first, _InputIter __last,
; 326  : 		     const __false_type&) 
; 327  : #else /* _STLP_MEMBER_TEMPLATES */
; 328  :   void insert(iterator __position, const _Tp* __first, const _Tp* __last) {
; 329  :     for ( ; __first != __last; ++__first)
; 330  :       insert(__position, *__first);
; 331  :   }
; 332  :   void insert(iterator __position, const_iterator __first, const_iterator __last)
; 333  : #endif /* _STLP_MEMBER_TEMPLATES */
; 334  :   {
; 335  :     for ( ; __first != __last; ++__first)

  00004	8b 75 0c	 mov	 esi, DWORD PTR ___first$[ebp]
  00007	57		 push	 edi
  00008	8b f9		 mov	 edi, ecx
  0000a	eb 19		 jmp	 SHORT $L104366
$L104345:

; 336  :       insert(__position, *__first);

  0000c	8d 46 08	 lea	 eax, DWORD PTR [esi+8]
  0000f	50		 push	 eax
  00010	51		 push	 ecx
  00011	8b 4d 08	 mov	 ecx, DWORD PTR ___position$[ebp]
  00014	8b c4		 mov	 eax, esp
  00016	89 08		 mov	 DWORD PTR [eax], ecx
  00018	8d 45 0c	 lea	 eax, DWORD PTR $T104340[ebp]
  0001b	50		 push	 eax
  0001c	8b cf		 mov	 ecx, edi
  0001e	e8 00 00 00 00	 call	 ?insert@?$list@GV?$allocator@G@_STL@@@_STL@@QAE?AU?$_List_iterator@GU?$_Nonconst_traits@G@_STL@@@2@U32@ABG@Z ; _STL::list<unsigned short,_STL::allocator<unsigned short> >::insert
  00023	8b 36		 mov	 esi, DWORD PTR [esi]
$L104366:

; 324  :   _M_insert_dispatch(iterator __position,
; 325  : 		     _InputIter __first, _InputIter __last,
; 326  : 		     const __false_type&) 
; 327  : #else /* _STLP_MEMBER_TEMPLATES */
; 328  :   void insert(iterator __position, const _Tp* __first, const _Tp* __last) {
; 329  :     for ( ; __first != __last; ++__first)
; 330  :       insert(__position, *__first);
; 331  :   }
; 332  :   void insert(iterator __position, const_iterator __first, const_iterator __last)
; 333  : #endif /* _STLP_MEMBER_TEMPLATES */
; 334  :   {
; 335  :     for ( ; __first != __last; ++__first)

  00025	3b 75 10	 cmp	 esi, DWORD PTR ___last$[ebp]
  00028	75 e2		 jne	 SHORT $L104345

; 337  :   }

  0002a	5f		 pop	 edi
  0002b	5e		 pop	 esi
  0002c	5d		 pop	 ebp
  0002d	c2 10 00	 ret	 16			; 00000010H
??$_M_insert_dispatch@U?$_List_iterator@GU?$_Const_traits@G@_STL@@@_STL@@@?$list@GV?$allocator@G@_STL@@@_STL@@QAEXU?$_List_iterator@GU?$_Nonconst_traits@G@_STL@@@1@U?$_List_iterator@GU?$_Const_traits@G@_STL@@@1@1ABU__false_type@1@@Z ENDP ; _STL::list<unsigned short,_STL::allocator<unsigned short> >::_M_insert_dispatch<_STL::_List_iterator<unsigned short,_STL::_Const_traits<unsigned short> > >
_TEXT	ENDS
PUBLIC	??1?$list@GV?$allocator@G@_STL@@@_STL@@QAE@XZ	; _STL::list<unsigned short,_STL::allocator<unsigned short> >::~list<unsigned short,_STL::allocator<unsigned short> >
; Function compile flags: /Ogsy
;	COMDAT ??1?$list@GV?$allocator@G@_STL@@@_STL@@QAE@XZ
_TEXT	SEGMENT
??1?$list@GV?$allocator@G@_STL@@@_STL@@QAE@XZ PROC NEAR	; _STL::list<unsigned short,_STL::allocator<unsigned short> >::~list<unsigned short,_STL::allocator<unsigned short> >, COMDAT
; _this$ = ecx

; 416  :   ~list() { }

  00000	e9 00 00 00 00	 jmp	 ??1?$_List_base@GV?$allocator@G@_STL@@@_STL@@QAE@XZ ; _STL::_List_base<unsigned short,_STL::allocator<unsigned short> >::~_List_base<unsigned short,_STL::allocator<unsigned short> >
??1?$list@GV?$allocator@G@_STL@@@_STL@@QAE@XZ ENDP	; _STL::list<unsigned short,_STL::allocator<unsigned short> >::~list<unsigned short,_STL::allocator<unsigned short> >
_TEXT	ENDS
PUBLIC	??1?$list@PAVSubItemInfo@@V?$allocator@PAVSubItemInfo@@@_STL@@@_STL@@QAE@XZ ; _STL::list<SubItemInfo *,_STL::allocator<SubItemInfo *> >::~list<SubItemInfo *,_STL::allocator<SubItemInfo *> >
; Function compile flags: /Ogsy
;	COMDAT ??1?$list@PAVSubItemInfo@@V?$allocator@PAVSubItemInfo@@@_STL@@@_STL@@QAE@XZ
_TEXT	SEGMENT
??1?$list@PAVSubItemInfo@@V?$allocator@PAVSubItemInfo@@@_STL@@@_STL@@QAE@XZ PROC NEAR ; _STL::list<SubItemInfo *,_STL::allocator<SubItemInfo *> >::~list<SubItemInfo *,_STL::allocator<SubItemInfo *> >, COMDAT
; _this$ = ecx

; 416  :   ~list() { }

  00000	e9 00 00 00 00	 jmp	 ??1?$_List_base@PAVSubItemInfo@@V?$allocator@PAVSubItemInfo@@@_STL@@@_STL@@QAE@XZ ; _STL::_List_base<SubItemInfo *,_STL::allocator<SubItemInfo *> >::~_List_base<SubItemInfo *,_STL::allocator<SubItemInfo *> >
??1?$list@PAVSubItemInfo@@V?$allocator@PAVSubItemInfo@@@_STL@@@_STL@@QAE@XZ ENDP ; _STL::list<SubItemInfo *,_STL::allocator<SubItemInfo *> >::~list<SubItemInfo *,_STL::allocator<SubItemInfo *> >
_TEXT	ENDS
PUBLIC	??$_M_insert_dispatch@U?$_List_iterator@PAVSubItemInfo@@U?$_Const_traits@PAVSubItemInfo@@@_STL@@@_STL@@@?$list@PAVSubItemInfo@@V?$allocator@PAVSubItemInfo@@@_STL@@@_STL@@QAEXU?$_List_iterator@PAVSubItemInfo@@U?$_Nonconst_traits@PAVSubItemInfo@@@_STL@@@1@U?$_List_iterator@PAVSubItemInfo@@U?$_Const_traits@PAVSubItemInfo@@@_STL@@@1@1ABU__false_type@1@@Z ; _STL::list<SubItemInfo *,_STL::allocator<SubItemInfo *> >::_M_insert_dispatch<_STL::_List_iterator<SubItemInfo *,_STL::_Const_traits<SubItemInfo *> > >
; Function compile flags: /Ogsy
;	COMDAT ??$_M_insert_dispatch@U?$_List_iterator@PAVSubItemInfo@@U?$_Const_traits@PAVSubItemInfo@@@_STL@@@_STL@@@?$list@PAVSubItemInfo@@V?$allocator@PAVSubItemInfo@@@_STL@@@_STL@@QAEXU?$_List_iterator@PAVSubItemInfo@@U?$_Nonconst_traits@PAVSubItemInfo@@@_STL@@@1@U?$_List_iterator@PAVSubItemInfo@@U?$_Const_traits@PAVSubItemInfo@@@_STL@@@1@1ABU__false_type@1@@Z
_TEXT	SEGMENT
___position$ = 8					; size = 4
$T104378 = 12						; size = 4
___first$ = 12						; size = 4
___last$ = 16						; size = 4
___formal$ = 20						; size = 4
??$_M_insert_dispatch@U?$_List_iterator@PAVSubItemInfo@@U?$_Const_traits@PAVSubItemInfo@@@_STL@@@_STL@@@?$list@PAVSubItemInfo@@V?$allocator@PAVSubItemInfo@@@_STL@@@_STL@@QAEXU?$_List_iterator@PAVSubItemInfo@@U?$_Nonconst_traits@PAVSubItemInfo@@@_STL@@@1@U?$_List_iterator@PAVSubItemInfo@@U?$_Const_traits@PAVSubItemInfo@@@_STL@@@1@1ABU__false_type@1@@Z PROC NEAR ; _STL::list<SubItemInfo *,_STL::allocator<SubItemInfo *> >::_M_insert_dispatch<_STL::_List_iterator<SubItemInfo *,_STL::_Const_traits<SubItemInfo *> > >, COMDAT
; _this$ = ecx

; 323  :   void 

  00000	55		 push	 ebp
  00001	8b ec		 mov	 ebp, esp
  00003	56		 push	 esi

; 324  :   _M_insert_dispatch(iterator __position,
; 325  : 		     _InputIter __first, _InputIter __last,
; 326  : 		     const __false_type&) 
; 327  : #else /* _STLP_MEMBER_TEMPLATES */
; 328  :   void insert(iterator __position, const _Tp* __first, const _Tp* __last) {
; 329  :     for ( ; __first != __last; ++__first)
; 330  :       insert(__position, *__first);
; 331  :   }
; 332  :   void insert(iterator __position, const_iterator __first, const_iterator __last)
; 333  : #endif /* _STLP_MEMBER_TEMPLATES */
; 334  :   {
; 335  :     for ( ; __first != __last; ++__first)

  00004	8b 75 0c	 mov	 esi, DWORD PTR ___first$[ebp]
  00007	57		 push	 edi
  00008	8b f9		 mov	 edi, ecx
  0000a	eb 19		 jmp	 SHORT $L104404
$L104386:

; 336  :       insert(__position, *__first);

  0000c	8d 46 08	 lea	 eax, DWORD PTR [esi+8]
  0000f	50		 push	 eax
  00010	51		 push	 ecx
  00011	8b 4d 08	 mov	 ecx, DWORD PTR ___position$[ebp]
  00014	8b c4		 mov	 eax, esp
  00016	89 08		 mov	 DWORD PTR [eax], ecx
  00018	8d 45 0c	 lea	 eax, DWORD PTR $T104378[ebp]
  0001b	50		 push	 eax
  0001c	8b cf		 mov	 ecx, edi
  0001e	e8 00 00 00 00	 call	 ?insert@?$list@PAVSubItemInfo@@V?$allocator@PAVSubItemInfo@@@_STL@@@_STL@@QAE?AU?$_List_iterator@PAVSubItemInfo@@U?$_Nonconst_traits@PAVSubItemInfo@@@_STL@@@2@U32@ABQAVSubItemInfo@@@Z ; _STL::list<SubItemInfo *,_STL::allocator<SubItemInfo *> >::insert
  00023	8b 36		 mov	 esi, DWORD PTR [esi]
$L104404:

; 324  :   _M_insert_dispatch(iterator __position,
; 325  : 		     _InputIter __first, _InputIter __last,
; 326  : 		     const __false_type&) 
; 327  : #else /* _STLP_MEMBER_TEMPLATES */
; 328  :   void insert(iterator __position, const _Tp* __first, const _Tp* __last) {
; 329  :     for ( ; __first != __last; ++__first)
; 330  :       insert(__position, *__first);
; 331  :   }
; 332  :   void insert(iterator __position, const_iterator __first, const_iterator __last)
; 333  : #endif /* _STLP_MEMBER_TEMPLATES */
; 334  :   {
; 335  :     for ( ; __first != __last; ++__first)

  00025	3b 75 10	 cmp	 esi, DWORD PTR ___last$[ebp]
  00028	75 e2		 jne	 SHORT $L104386

; 337  :   }

  0002a	5f		 pop	 edi
  0002b	5e		 pop	 esi
  0002c	5d		 pop	 ebp
  0002d	c2 10 00	 ret	 16			; 00000010H
??$_M_insert_dispatch@U?$_List_iterator@PAVSubItemInfo@@U?$_Const_traits@PAVSubItemInfo@@@_STL@@@_STL@@@?$list@PAVSubItemInfo@@V?$allocator@PAVSubItemInfo@@@_STL@@@_STL@@QAEXU?$_List_iterator@PAVSubItemInfo@@U?$_Nonconst_traits@PAVSubItemInfo@@@_STL@@@1@U?$_List_iterator@PAVSubItemInfo@@U?$_Const_traits@PAVSubItemInfo@@@_STL@@@1@1ABU__false_type@1@@Z ENDP ; _STL::list<SubItemInfo *,_STL::allocator<SubItemInfo *> >::_M_insert_dispatch<_STL::_List_iterator<SubItemInfo *,_STL::_Const_traits<SubItemInfo *> > >
_TEXT	ENDS
PUBLIC	??1?$_String_base@DV?$allocator@D@_STL@@@_STL@@QAE@XZ ; _STL::_String_base<char,_STL::allocator<char> >::~_String_base<char,_STL::allocator<char> >
; Function compile flags: /Ogsy
; File c:\stlport-4.6.1\stlport\stl\_string.h
;	COMDAT ??1?$_String_base@DV?$allocator@D@_STL@@@_STL@@QAE@XZ
_TEXT	SEGMENT
??1?$_String_base@DV?$allocator@D@_STL@@@_STL@@QAE@XZ PROC NEAR ; _STL::_String_base<char,_STL::allocator<char> >::~_String_base<char,_STL::allocator<char> >, COMDAT
; _this$ = ecx

; 135  :   ~_String_base() { _M_deallocate_block(); }

  00000	e9 00 00 00 00	 jmp	 ?_M_deallocate_block@?$_String_base@DV?$allocator@D@_STL@@@_STL@@QAEXXZ ; _STL::_String_base<char,_STL::allocator<char> >::_M_deallocate_block
??1?$_String_base@DV?$allocator@D@_STL@@@_STL@@QAE@XZ ENDP ; _STL::_String_base<char,_STL::allocator<char> >::~_String_base<char,_STL::allocator<char> >
_TEXT	ENDS
PUBLIC	??0?$basic_string@DV?$char_traits@D@_STL@@V?$allocator@D@2@@_STL@@QAE@XZ ; _STL::basic_string<char,_STL::char_traits<char>,_STL::allocator<char> >::basic_string<char,_STL::char_traits<char>,_STL::allocator<char> >
EXTRN	__EH_prolog:NEAR
EXTRN	__except_list:DWORD
EXTRN	___CxxFrameHandler:NEAR
;	COMDAT xdata$x
xdata$x	SEGMENT
$T104458 DD	0ffffffffH
	DD	FLAT:$L104411
$T104454 DD	019930520H
	DD	01H
	DD	FLAT:$T104458
	DD	2 DUP(00H)
	DD	2 DUP(00H)
; Function compile flags: /Ogsy
; File c:\stlport-4.6.1\stlport\stl\_string.c
xdata$x	ENDS
;	COMDAT ??0?$basic_string@DV?$char_traits@D@_STL@@V?$allocator@D@2@@_STL@@QAE@XZ
_TEXT	SEGMENT
_this$ = -20						; size = 4
$T104410 = -13						; size = 1
__$EHRec$ = -12						; size = 12
??0?$basic_string@DV?$char_traits@D@_STL@@V?$allocator@D@2@@_STL@@QAE@XZ PROC NEAR ; _STL::basic_string<char,_STL::char_traits<char>,_STL::allocator<char> >::basic_string<char,_STL::char_traits<char>,_STL::allocator<char> >, COMDAT
; _this$ = ecx

; 541  :   : _String_base<_CharT,_Alloc>(allocator_type()) {  

  00000	b8 00 00 00 00	 mov	 eax, __ehhandler$??0?$basic_string@DV?$char_traits@D@_STL@@V?$allocator@D@2@@_STL@@QAE@XZ
  00005	e8 00 00 00 00	 call	 __EH_prolog
  0000a	51		 push	 ecx
  0000b	51		 push	 ecx
  0000c	56		 push	 esi
  0000d	8d 45 f3	 lea	 eax, DWORD PTR $T104410[ebp]
  00010	8b f1		 mov	 esi, ecx
  00012	50		 push	 eax
  00013	89 75 ec	 mov	 DWORD PTR _this$[ebp], esi
  00016	e8 00 00 00 00	 call	 ??0?$_String_base@DV?$allocator@D@_STL@@@_STL@@QAE@ABV?$allocator@D@1@@Z ; _STL::_String_base<char,_STL::allocator<char> >::_String_base<char,_STL::allocator<char> >
  0001b	83 65 fc 00	 and	 DWORD PTR __$EHRec$[ebp+8], 0

; 542  :   this->_M_start = this->_M_end_of_storage.allocate(8); 

  0001f	6a 08		 push	 8
  00021	e8 00 00 00 00	 call	 ?_M_allocate@?$__node_alloc@$00$0A@@_STL@@CAPAXI@Z ; _STL::__node_alloc<1,0>::_M_allocate
  00026	59		 pop	 ecx

; 543  :   this->_M_finish = this->_M_start; 
; 544  :   this->_M_end_of_storage._M_data = this->_M_start + 8; 

  00027	8d 48 08	 lea	 ecx, DWORD PTR [eax+8]
  0002a	89 06		 mov	 DWORD PTR [esi], eax
  0002c	89 46 04	 mov	 DWORD PTR [esi+4], eax
  0002f	89 4e 08	 mov	 DWORD PTR [esi+8], ecx

; 545  :   _M_terminate_string();  
; 546  : } 

  00032	8b 4d f4	 mov	 ecx, DWORD PTR __$EHRec$[ebp]
  00035	c6 00 00	 mov	 BYTE PTR [eax], 0
  00038	8b c6		 mov	 eax, esi
  0003a	5e		 pop	 esi
  0003b	64 89 0d 00 00
	00 00		 mov	 DWORD PTR fs:__except_list, ecx
  00042	c9		 leave
  00043	c3		 ret	 0
_TEXT	ENDS
;	COMDAT text$x
text$x	SEGMENT
$L104411:
  00000	8b 4d ec	 mov	 ecx, DWORD PTR _this$[ebp]
  00003	e9 00 00 00 00	 jmp	 ??1?$_String_base@DV?$allocator@D@_STL@@@_STL@@QAE@XZ ; _STL::_String_base<char,_STL::allocator<char> >::~_String_base<char,_STL::allocator<char> >
__ehhandler$??0?$basic_string@DV?$char_traits@D@_STL@@V?$allocator@D@2@@_STL@@QAE@XZ:
  00008	b8 00 00 00 00	 mov	 eax, OFFSET FLAT:$T104454
  0000d	e9 00 00 00 00	 jmp	 ___CxxFrameHandler
text$x	ENDS
??0?$basic_string@DV?$char_traits@D@_STL@@V?$allocator@D@2@@_STL@@QAE@XZ ENDP ; _STL::basic_string<char,_STL::char_traits<char>,_STL::allocator<char> >::basic_string<char,_STL::char_traits<char>,_STL::allocator<char> >
PUBLIC	??1?$vector@VStoreItemInfo@@V?$allocator@VStoreItemInfo@@@_STL@@@_STL@@QAE@XZ ; _STL::vector<StoreItemInfo,_STL::allocator<StoreItemInfo> >::~vector<StoreItemInfo,_STL::allocator<StoreItemInfo> >
;	COMDAT xdata$x
; File c:\stlport-4.6.1\stlport\stl\_vector.h
xdata$x	SEGMENT
$T104468 DD	0ffffffffH
	DD	FLAT:$L104464
$T104466 DD	019930520H
	DD	01H
	DD	FLAT:$T104468
	DD	2 DUP(00H)
	DD	2 DUP(00H)
; Function compile flags: /Ogsy
xdata$x	ENDS
;	COMDAT ??1?$vector@VStoreItemInfo@@V?$allocator@VStoreItemInfo@@@_STL@@@_STL@@QAE@XZ
_TEXT	SEGMENT
_this$ = -16						; size = 4
__$EHRec$ = -12						; size = 12
??1?$vector@VStoreItemInfo@@V?$allocator@VStoreItemInfo@@@_STL@@@_STL@@QAE@XZ PROC NEAR ; _STL::vector<StoreItemInfo,_STL::allocator<StoreItemInfo> >::~vector<StoreItemInfo,_STL::allocator<StoreItemInfo> >, COMDAT
; _this$ = ecx

; 258  :   ~vector() { _Destroy(this->_M_start, this->_M_finish); }

  00000	b8 00 00 00 00	 mov	 eax, __ehhandler$??1?$vector@VStoreItemInfo@@V?$allocator@VStoreItemInfo@@@_STL@@@_STL@@QAE@XZ
  00005	e8 00 00 00 00	 call	 __EH_prolog
  0000a	51		 push	 ecx
  0000b	56		 push	 esi
  0000c	8b f1		 mov	 esi, ecx
  0000e	89 75 f0	 mov	 DWORD PTR _this$[ebp], esi
  00011	ff 76 04	 push	 DWORD PTR [esi+4]
  00014	83 65 fc 00	 and	 DWORD PTR __$EHRec$[ebp+8], 0
  00018	ff 36		 push	 DWORD PTR [esi]
  0001a	e8 00 00 00 00	 call	 ??$_Destroy@PAVStoreItemInfo@@@_STL@@YAXPAVStoreItemInfo@@0@Z ; _STL::_Destroy<StoreItemInfo *>
  0001f	83 4d fc ff	 or	 DWORD PTR __$EHRec$[ebp+8], -1
  00023	59		 pop	 ecx
  00024	59		 pop	 ecx
  00025	8b ce		 mov	 ecx, esi
  00027	e8 00 00 00 00	 call	 ??1?$_Vector_base@VStoreItemInfo@@V?$allocator@VStoreItemInfo@@@_STL@@@_STL@@QAE@XZ ; _STL::_Vector_base<StoreItemInfo,_STL::allocator<StoreItemInfo> >::~_Vector_base<StoreItemInfo,_STL::allocator<StoreItemInfo> >
  0002c	8b 4d f4	 mov	 ecx, DWORD PTR __$EHRec$[ebp]
  0002f	5e		 pop	 esi
  00030	64 89 0d 00 00
	00 00		 mov	 DWORD PTR fs:__except_list, ecx
  00037	c9		 leave
  00038	c3		 ret	 0
_TEXT	ENDS
;	COMDAT text$x
text$x	SEGMENT
$L104464:
  00000	8b 4d f0	 mov	 ecx, DWORD PTR _this$[ebp]
  00003	e9 00 00 00 00	 jmp	 ??1?$_Vector_base@VStoreItemInfo@@V?$allocator@VStoreItemInfo@@@_STL@@@_STL@@QAE@XZ ; _STL::_Vector_base<StoreItemInfo,_STL::allocator<StoreItemInfo> >::~_Vector_base<StoreItemInfo,_STL::allocator<StoreItemInfo> >
__ehhandler$??1?$vector@VStoreItemInfo@@V?$allocator@VStoreItemInfo@@@_STL@@@_STL@@QAE@XZ:
  00008	b8 00 00 00 00	 mov	 eax, OFFSET FLAT:$T104466
  0000d	e9 00 00 00 00	 jmp	 ___CxxFrameHandler
text$x	ENDS
??1?$vector@VStoreItemInfo@@V?$allocator@VStoreItemInfo@@@_STL@@@_STL@@QAE@XZ ENDP ; _STL::vector<StoreItemInfo,_STL::allocator<StoreItemInfo> >::~vector<StoreItemInfo,_STL::allocator<StoreItemInfo> >
PUBLIC	??$insert@U?$_List_iterator@GU?$_Const_traits@G@_STL@@@_STL@@@?$list@GV?$allocator@G@_STL@@@_STL@@QAEXU?$_List_iterator@GU?$_Nonconst_traits@G@_STL@@@1@U?$_List_iterator@GU?$_Const_traits@G@_STL@@@1@1@Z ; _STL::list<unsigned short,_STL::allocator<unsigned short> >::insert<_STL::_List_iterator<unsigned short,_STL::_Const_traits<unsigned short> > >
; Function compile flags: /Ogsy
; File c:\stlport-4.6.1\stlport\stl\_list.h
;	COMDAT ??$insert@U?$_List_iterator@GU?$_Const_traits@G@_STL@@@_STL@@@?$list@GV?$allocator@G@_STL@@@_STL@@QAEXU?$_List_iterator@GU?$_Nonconst_traits@G@_STL@@@1@U?$_List_iterator@GU?$_Const_traits@G@_STL@@@1@1@Z
_TEXT	SEGMENT
___pos$ = 8						; size = 4
___first$ = 12						; size = 4
___last$ = 16						; size = 4
$T104473 = 19						; size = 1
??$insert@U?$_List_iterator@GU?$_Const_traits@G@_STL@@@_STL@@@?$list@GV?$allocator@G@_STL@@@_STL@@QAEXU?$_List_iterator@GU?$_Nonconst_traits@G@_STL@@@1@U?$_List_iterator@GU?$_Const_traits@G@_STL@@@1@1@Z PROC NEAR ; _STL::list<unsigned short,_STL::allocator<unsigned short> >::insert<_STL::_List_iterator<unsigned short,_STL::_Const_traits<unsigned short> > >, COMDAT
; _this$ = ecx

; 312  :   void insert(iterator __pos, _InputIterator __first, _InputIterator __last) {

  00000	55		 push	 ebp
  00001	8b ec		 mov	 ebp, esp

; 313  :     typedef typename _Is_integer<_InputIterator>::_Integral _Integral;
; 314  :     _M_insert_dispatch(__pos, __first, __last, _Integral());

  00003	8b 55 08	 mov	 edx, DWORD PTR ___pos$[ebp]
  00006	8d 45 13	 lea	 eax, DWORD PTR $T104473[ebp]
  00009	50		 push	 eax
  0000a	ff 75 10	 push	 DWORD PTR ___last$[ebp]
  0000d	ff 75 0c	 push	 DWORD PTR ___first$[ebp]
  00010	51		 push	 ecx
  00011	8b c4		 mov	 eax, esp
  00013	89 10		 mov	 DWORD PTR [eax], edx
  00015	e8 00 00 00 00	 call	 ??$_M_insert_dispatch@U?$_List_iterator@GU?$_Const_traits@G@_STL@@@_STL@@@?$list@GV?$allocator@G@_STL@@@_STL@@QAEXU?$_List_iterator@GU?$_Nonconst_traits@G@_STL@@@1@U?$_List_iterator@GU?$_Const_traits@G@_STL@@@1@1ABU__false_type@1@@Z ; _STL::list<unsigned short,_STL::allocator<unsigned short> >::_M_insert_dispatch<_STL::_List_iterator<unsigned short,_STL::_Const_traits<unsigned short> > >

; 315  :   }

  0001a	5d		 pop	 ebp
  0001b	c2 0c 00	 ret	 12			; 0000000cH
??$insert@U?$_List_iterator@GU?$_Const_traits@G@_STL@@@_STL@@@?$list@GV?$allocator@G@_STL@@@_STL@@QAEXU?$_List_iterator@GU?$_Nonconst_traits@G@_STL@@@1@U?$_List_iterator@GU?$_Const_traits@G@_STL@@@1@1@Z ENDP ; _STL::list<unsigned short,_STL::allocator<unsigned short> >::insert<_STL::_List_iterator<unsigned short,_STL::_Const_traits<unsigned short> > >
_TEXT	ENDS
PUBLIC	??0?$list@GV?$allocator@G@_STL@@@_STL@@QAE@ABV01@@Z ; _STL::list<unsigned short,_STL::allocator<unsigned short> >::list<unsigned short,_STL::allocator<unsigned short> >
;	COMDAT xdata$x
xdata$x	SEGMENT
$T104547 DD	0ffffffffH
	DD	FLAT:$L104491
$T104545 DD	019930520H
	DD	01H
	DD	FLAT:$T104547
	DD	2 DUP(00H)
	DD	2 DUP(00H)
; Function compile flags: /Ogsy
xdata$x	ENDS
;	COMDAT ??0?$list@GV?$allocator@G@_STL@@@_STL@@QAE@ABV01@@Z
_TEXT	SEGMENT
$T104490 = -20						; size = 4
_this$ = -16						; size = 4
__$EHRec$ = -12						; size = 12
___x$ = 8						; size = 4
$T104487 = 11						; size = 1
??0?$list@GV?$allocator@G@_STL@@@_STL@@QAE@ABV01@@Z PROC NEAR ; _STL::list<unsigned short,_STL::allocator<unsigned short> >::list<unsigned short,_STL::allocator<unsigned short> >, COMDAT
; _this$ = ecx

; 414  :     { insert(begin(), __x.begin(), __x.end()); }

  00000	b8 00 00 00 00	 mov	 eax, __ehhandler$??0?$list@GV?$allocator@G@_STL@@@_STL@@QAE@ABV01@@Z
  00005	e8 00 00 00 00	 call	 __EH_prolog
  0000a	51		 push	 ecx
  0000b	51		 push	 ecx
  0000c	56		 push	 esi
  0000d	57		 push	 edi
  0000e	8b 7d 08	 mov	 edi, DWORD PTR ___x$[ebp]
  00011	8b f1		 mov	 esi, ecx
  00013	8d 45 0b	 lea	 eax, DWORD PTR $T104487[ebp]
  00016	50		 push	 eax
  00017	8b cf		 mov	 ecx, edi
  00019	89 75 f0	 mov	 DWORD PTR _this$[ebp], esi
  0001c	e8 00 00 00 00	 call	 ?get_allocator@?$_List_base@GV?$allocator@G@_STL@@@_STL@@QBE?AV?$allocator@G@2@XZ ; _STL::_List_base<unsigned short,_STL::allocator<unsigned short> >::get_allocator
  00021	50		 push	 eax
  00022	8b ce		 mov	 ecx, esi
  00024	e8 00 00 00 00	 call	 ??0?$_List_base@GV?$allocator@G@_STL@@@_STL@@QAE@ABV?$allocator@G@1@@Z ; _STL::_List_base<unsigned short,_STL::allocator<unsigned short> >::_List_base<unsigned short,_STL::allocator<unsigned short> >
  00029	8b 07		 mov	 eax, DWORD PTR [edi]
  0002b	8b 08		 mov	 ecx, DWORD PTR [eax]
  0002d	83 65 fc 00	 and	 DWORD PTR __$EHRec$[ebp+8], 0
  00031	50		 push	 eax
  00032	51		 push	 ecx
  00033	51		 push	 ecx
  00034	8b 0e		 mov	 ecx, DWORD PTR [esi]
  00036	8b 09		 mov	 ecx, DWORD PTR [ecx]
  00038	8b c4		 mov	 eax, esp
  0003a	89 08		 mov	 DWORD PTR [eax], ecx
  0003c	8b ce		 mov	 ecx, esi
  0003e	89 65 ec	 mov	 DWORD PTR $T104490[ebp], esp
  00041	e8 00 00 00 00	 call	 ??$insert@U?$_List_iterator@GU?$_Const_traits@G@_STL@@@_STL@@@?$list@GV?$allocator@G@_STL@@@_STL@@QAEXU?$_List_iterator@GU?$_Nonconst_traits@G@_STL@@@1@U?$_List_iterator@GU?$_Const_traits@G@_STL@@@1@1@Z ; _STL::list<unsigned short,_STL::allocator<unsigned short> >::insert<_STL::_List_iterator<unsigned short,_STL::_Const_traits<unsigned short> > >
  00046	8b 4d f4	 mov	 ecx, DWORD PTR __$EHRec$[ebp]
  00049	5f		 pop	 edi
  0004a	8b c6		 mov	 eax, esi
  0004c	64 89 0d 00 00
	00 00		 mov	 DWORD PTR fs:__except_list, ecx
  00053	5e		 pop	 esi
  00054	c9		 leave
  00055	c2 04 00	 ret	 4
_TEXT	ENDS
;	COMDAT text$x
text$x	SEGMENT
$L104491:
  00000	8b 4d f0	 mov	 ecx, DWORD PTR _this$[ebp]
  00003	e9 00 00 00 00	 jmp	 ??1?$_List_base@GV?$allocator@G@_STL@@@_STL@@QAE@XZ ; _STL::_List_base<unsigned short,_STL::allocator<unsigned short> >::~_List_base<unsigned short,_STL::allocator<unsigned short> >
__ehhandler$??0?$list@GV?$allocator@G@_STL@@@_STL@@QAE@ABV01@@Z:
  00008	b8 00 00 00 00	 mov	 eax, OFFSET FLAT:$T104545
  0000d	e9 00 00 00 00	 jmp	 ___CxxFrameHandler
text$x	ENDS
??0?$list@GV?$allocator@G@_STL@@@_STL@@QAE@ABV01@@Z ENDP ; _STL::list<unsigned short,_STL::allocator<unsigned short> >::list<unsigned short,_STL::allocator<unsigned short> >
PUBLIC	??$insert@U?$_List_iterator@PAVSubItemInfo@@U?$_Const_traits@PAVSubItemInfo@@@_STL@@@_STL@@@?$list@PAVSubItemInfo@@V?$allocator@PAVSubItemInfo@@@_STL@@@_STL@@QAEXU?$_List_iterator@PAVSubItemInfo@@U?$_Nonconst_traits@PAVSubItemInfo@@@_STL@@@1@U?$_List_iterator@PAVSubItemInfo@@U?$_Const_traits@PAVSubItemInfo@@@_STL@@@1@1@Z ; _STL::list<SubItemInfo *,_STL::allocator<SubItemInfo *> >::insert<_STL::_List_iterator<SubItemInfo *,_STL::_Const_traits<SubItemInfo *> > >
; Function compile flags: /Ogsy
;	COMDAT ??$insert@U?$_List_iterator@PAVSubItemInfo@@U?$_Const_traits@PAVSubItemInfo@@@_STL@@@_STL@@@?$list@PAVSubItemInfo@@V?$allocator@PAVSubItemInfo@@@_STL@@@_STL@@QAEXU?$_List_iterator@PAVSubItemInfo@@U?$_Nonconst_traits@PAVSubItemInfo@@@_STL@@@1@U?$_List_iterator@PAVSubItemInfo@@U?$_Const_traits@PAVSubItemInfo@@@_STL@@@1@1@Z
_TEXT	SEGMENT
___pos$ = 8						; size = 4
___first$ = 12						; size = 4
___last$ = 16						; size = 4
$T104552 = 19						; size = 1
??$insert@U?$_List_iterator@PAVSubItemInfo@@U?$_Const_traits@PAVSubItemInfo@@@_STL@@@_STL@@@?$list@PAVSubItemInfo@@V?$allocator@PAVSubItemInfo@@@_STL@@@_STL@@QAEXU?$_List_iterator@PAVSubItemInfo@@U?$_Nonconst_traits@PAVSubItemInfo@@@_STL@@@1@U?$_List_iterator@PAVSubItemInfo@@U?$_Const_traits@PAVSubItemInfo@@@_STL@@@1@1@Z PROC NEAR ; _STL::list<SubItemInfo *,_STL::allocator<SubItemInfo *> >::insert<_STL::_List_iterator<SubItemInfo *,_STL::_Const_traits<SubItemInfo *> > >, COMDAT
; _this$ = ecx

; 312  :   void insert(iterator __pos, _InputIterator __first, _InputIterator __last) {

  00000	55		 push	 ebp
  00001	8b ec		 mov	 ebp, esp

; 313  :     typedef typename _Is_integer<_InputIterator>::_Integral _Integral;
; 314  :     _M_insert_dispatch(__pos, __first, __last, _Integral());

  00003	8b 55 08	 mov	 edx, DWORD PTR ___pos$[ebp]
  00006	8d 45 13	 lea	 eax, DWORD PTR $T104552[ebp]
  00009	50		 push	 eax
  0000a	ff 75 10	 push	 DWORD PTR ___last$[ebp]
  0000d	ff 75 0c	 push	 DWORD PTR ___first$[ebp]
  00010	51		 push	 ecx
  00011	8b c4		 mov	 eax, esp
  00013	89 10		 mov	 DWORD PTR [eax], edx
  00015	e8 00 00 00 00	 call	 ??$_M_insert_dispatch@U?$_List_iterator@PAVSubItemInfo@@U?$_Const_traits@PAVSubItemInfo@@@_STL@@@_STL@@@?$list@PAVSubItemInfo@@V?$allocator@PAVSubItemInfo@@@_STL@@@_STL@@QAEXU?$_List_iterator@PAVSubItemInfo@@U?$_Nonconst_traits@PAVSubItemInfo@@@_STL@@@1@U?$_List_iterator@PAVSubItemInfo@@U?$_Const_traits@PAVSubItemInfo@@@_STL@@@1@1ABU__false_type@1@@Z ; _STL::list<SubItemInfo *,_STL::allocator<SubItemInfo *> >::_M_insert_dispatch<_STL::_List_iterator<SubItemInfo *,_STL::_Const_traits<SubItemInfo *> > >

; 315  :   }

  0001a	5d		 pop	 ebp
  0001b	c2 0c 00	 ret	 12			; 0000000cH
??$insert@U?$_List_iterator@PAVSubItemInfo@@U?$_Const_traits@PAVSubItemInfo@@@_STL@@@_STL@@@?$list@PAVSubItemInfo@@V?$allocator@PAVSubItemInfo@@@_STL@@@_STL@@QAEXU?$_List_iterator@PAVSubItemInfo@@U?$_Nonconst_traits@PAVSubItemInfo@@@_STL@@@1@U?$_List_iterator@PAVSubItemInfo@@U?$_Const_traits@PAVSubItemInfo@@@_STL@@@1@1@Z ENDP ; _STL::list<SubItemInfo *,_STL::allocator<SubItemInfo *> >::insert<_STL::_List_iterator<SubItemInfo *,_STL::_Const_traits<SubItemInfo *> > >
_TEXT	ENDS
PUBLIC	??1?$basic_string@DV?$char_traits@D@_STL@@V?$allocator@D@2@@_STL@@QAE@XZ ; _STL::basic_string<char,_STL::char_traits<char>,_STL::allocator<char> >::~basic_string<char,_STL::char_traits<char>,_STL::allocator<char> >
; Function compile flags: /Ogsy
; File c:\stlport-4.6.1\stlport\stl\_string.h
;	COMDAT ??1?$basic_string@DV?$char_traits@D@_STL@@V?$allocator@D@2@@_STL@@QAE@XZ
_TEXT	SEGMENT
??1?$basic_string@DV?$char_traits@D@_STL@@V?$allocator@D@2@@_STL@@QAE@XZ PROC NEAR ; _STL::basic_string<char,_STL::char_traits<char>,_STL::allocator<char> >::~basic_string<char,_STL::char_traits<char>,_STL::allocator<char> >, COMDAT
; _this$ = ecx

; 305  :   ~basic_string() { _STLP_STD::_Destroy(this->_M_start, this->_M_finish + 1); }

  00000	e9 00 00 00 00	 jmp	 ?_M_deallocate_block@?$_String_base@DV?$allocator@D@_STL@@@_STL@@QAEXXZ ; _STL::_String_base<char,_STL::allocator<char> >::_M_deallocate_block
??1?$basic_string@DV?$char_traits@D@_STL@@V?$allocator@D@2@@_STL@@QAE@XZ ENDP ; _STL::basic_string<char,_STL::char_traits<char>,_STL::allocator<char> >::~basic_string<char,_STL::char_traits<char>,_STL::allocator<char> >
_TEXT	ENDS
PUBLIC	??1StoreInfo@@QAE@XZ				; StoreInfo::~StoreInfo
;	COMDAT xdata$x
xdata$x	SEGMENT
$T104624 DD	0ffffffffH
	DD	FLAT:$L104588
$T104622 DD	019930520H
	DD	01H
	DD	FLAT:$T104624
	DD	2 DUP(00H)
	DD	2 DUP(00H)
; Function compile flags: /Ogsy
xdata$x	ENDS
;	COMDAT ??1StoreInfo@@QAE@XZ
_TEXT	SEGMENT
_this$ = -16						; size = 4
__$EHRec$ = -12						; size = 12
??1StoreInfo@@QAE@XZ PROC NEAR				; StoreInfo::~StoreInfo, COMDAT
; _this$ = ecx
  00000	b8 00 00 00 00	 mov	 eax, __ehhandler$??1StoreInfo@@QAE@XZ
  00005	e8 00 00 00 00	 call	 __EH_prolog
  0000a	51		 push	 ecx
  0000b	56		 push	 esi
  0000c	8b f1		 mov	 esi, ecx
  0000e	89 75 f0	 mov	 DWORD PTR _this$[ebp], esi
  00011	83 65 fc 00	 and	 DWORD PTR __$EHRec$[ebp+8], 0
  00015	8d 4e 10	 lea	 ecx, DWORD PTR [esi+16]
  00018	e8 00 00 00 00	 call	 ??1?$vector@VStoreItemInfo@@V?$allocator@VStoreItemInfo@@@_STL@@@_STL@@QAE@XZ ; _STL::vector<StoreItemInfo,_STL::allocator<StoreItemInfo> >::~vector<StoreItemInfo,_STL::allocator<StoreItemInfo> >
  0001d	83 4d fc ff	 or	 DWORD PTR __$EHRec$[ebp+8], -1
  00021	8d 4e 04	 lea	 ecx, DWORD PTR [esi+4]
  00024	e8 00 00 00 00	 call	 ?_M_deallocate_block@?$_String_base@DV?$allocator@D@_STL@@@_STL@@QAEXXZ ; _STL::_String_base<char,_STL::allocator<char> >::_M_deallocate_block
  00029	8b 4d f4	 mov	 ecx, DWORD PTR __$EHRec$[ebp]
  0002c	5e		 pop	 esi
  0002d	64 89 0d 00 00
	00 00		 mov	 DWORD PTR fs:__except_list, ecx
  00034	c9		 leave
  00035	c3		 ret	 0
_TEXT	ENDS
;	COMDAT text$x
text$x	SEGMENT
$L104588:
  00000	8b 4d f0	 mov	 ecx, DWORD PTR _this$[ebp]
  00003	83 c1 04	 add	 ecx, 4
  00006	e9 00 00 00 00	 jmp	 ??1?$basic_string@DV?$char_traits@D@_STL@@V?$allocator@D@2@@_STL@@QAE@XZ ; _STL::basic_string<char,_STL::char_traits<char>,_STL::allocator<char> >::~basic_string<char,_STL::char_traits<char>,_STL::allocator<char> >
__ehhandler$??1StoreInfo@@QAE@XZ:
  0000b	b8 00 00 00 00	 mov	 eax, OFFSET FLAT:$T104622
  00010	e9 00 00 00 00	 jmp	 ___CxxFrameHandler
text$x	ENDS
??1StoreInfo@@QAE@XZ ENDP				; StoreInfo::~StoreInfo
PUBLIC	??0?$list@PAVSubItemInfo@@V?$allocator@PAVSubItemInfo@@@_STL@@@_STL@@QAE@ABV01@@Z ; _STL::list<SubItemInfo *,_STL::allocator<SubItemInfo *> >::list<SubItemInfo *,_STL::allocator<SubItemInfo *> >
;	COMDAT xdata$x
; File c:\stlport-4.6.1\stlport\stl\_list.h
xdata$x	SEGMENT
$T104689 DD	0ffffffffH
	DD	FLAT:$L104633
$T104687 DD	019930520H
	DD	01H
	DD	FLAT:$T104689
	DD	2 DUP(00H)
	DD	2 DUP(00H)
; Function compile flags: /Ogsy
xdata$x	ENDS
;	COMDAT ??0?$list@PAVSubItemInfo@@V?$allocator@PAVSubItemInfo@@@_STL@@@_STL@@QAE@ABV01@@Z
_TEXT	SEGMENT
$T104632 = -20						; size = 4
_this$ = -16						; size = 4
__$EHRec$ = -12						; size = 12
___x$ = 8						; size = 4
$T104629 = 11						; size = 1
??0?$list@PAVSubItemInfo@@V?$allocator@PAVSubItemInfo@@@_STL@@@_STL@@QAE@ABV01@@Z PROC NEAR ; _STL::list<SubItemInfo *,_STL::allocator<SubItemInfo *> >::list<SubItemInfo *,_STL::allocator<SubItemInfo *> >, COMDAT
; _this$ = ecx

; 414  :     { insert(begin(), __x.begin(), __x.end()); }

  00000	b8 00 00 00 00	 mov	 eax, __ehhandler$??0?$list@PAVSubItemInfo@@V?$allocator@PAVSubItemInfo@@@_STL@@@_STL@@QAE@ABV01@@Z
  00005	e8 00 00 00 00	 call	 __EH_prolog
  0000a	51		 push	 ecx
  0000b	51		 push	 ecx
  0000c	56		 push	 esi
  0000d	57		 push	 edi
  0000e	8b 7d 08	 mov	 edi, DWORD PTR ___x$[ebp]
  00011	8b f1		 mov	 esi, ecx
  00013	8d 45 0b	 lea	 eax, DWORD PTR $T104629[ebp]
  00016	50		 push	 eax
  00017	8b cf		 mov	 ecx, edi
  00019	89 75 f0	 mov	 DWORD PTR _this$[ebp], esi
  0001c	e8 00 00 00 00	 call	 ?get_allocator@?$_List_base@PAVSubItemInfo@@V?$allocator@PAVSubItemInfo@@@_STL@@@_STL@@QBE?AV?$allocator@PAVSubItemInfo@@@2@XZ ; _STL::_List_base<SubItemInfo *,_STL::allocator<SubItemInfo *> >::get_allocator
  00021	50		 push	 eax
  00022	8b ce		 mov	 ecx, esi
  00024	e8 00 00 00 00	 call	 ??0?$_List_base@PAVSubItemInfo@@V?$allocator@PAVSubItemInfo@@@_STL@@@_STL@@QAE@ABV?$allocator@PAVSubItemInfo@@@1@@Z ; _STL::_List_base<SubItemInfo *,_STL::allocator<SubItemInfo *> >::_List_base<SubItemInfo *,_STL::allocator<SubItemInfo *> >
  00029	8b 07		 mov	 eax, DWORD PTR [edi]
  0002b	8b 08		 mov	 ecx, DWORD PTR [eax]
  0002d	83 65 fc 00	 and	 DWORD PTR __$EHRec$[ebp+8], 0
  00031	50		 push	 eax
  00032	51		 push	 ecx
  00033	51		 push	 ecx
  00034	8b 0e		 mov	 ecx, DWORD PTR [esi]
  00036	8b 09		 mov	 ecx, DWORD PTR [ecx]
  00038	8b c4		 mov	 eax, esp
  0003a	89 08		 mov	 DWORD PTR [eax], ecx
  0003c	8b ce		 mov	 ecx, esi
  0003e	89 65 ec	 mov	 DWORD PTR $T104632[ebp], esp
  00041	e8 00 00 00 00	 call	 ??$insert@U?$_List_iterator@PAVSubItemInfo@@U?$_Const_traits@PAVSubItemInfo@@@_STL@@@_STL@@@?$list@PAVSubItemInfo@@V?$allocator@PAVSubItemInfo@@@_STL@@@_STL@@QAEXU?$_List_iterator@PAVSubItemInfo@@U?$_Nonconst_traits@PAVSubItemInfo@@@_STL@@@1@U?$_List_iterator@PAVSubItemInfo@@U?$_Const_traits@PAVSubItemInfo@@@_STL@@@1@1@Z ; _STL::list<SubItemInfo *,_STL::allocator<SubItemInfo *> >::insert<_STL::_List_iterator<SubItemInfo *,_STL::_Const_traits<SubItemInfo *> > >
  00046	8b 4d f4	 mov	 ecx, DWORD PTR __$EHRec$[ebp]
  00049	5f		 pop	 edi
  0004a	8b c6		 mov	 eax, esi
  0004c	64 89 0d 00 00
	00 00		 mov	 DWORD PTR fs:__except_list, ecx
  00053	5e		 pop	 esi
  00054	c9		 leave
  00055	c2 04 00	 ret	 4
_TEXT	ENDS
;	COMDAT text$x
text$x	SEGMENT
$L104633:
  00000	8b 4d f0	 mov	 ecx, DWORD PTR _this$[ebp]
  00003	e9 00 00 00 00	 jmp	 ??1?$_List_base@PAVSubItemInfo@@V?$allocator@PAVSubItemInfo@@@_STL@@@_STL@@QAE@XZ ; _STL::_List_base<SubItemInfo *,_STL::allocator<SubItemInfo *> >::~_List_base<SubItemInfo *,_STL::allocator<SubItemInfo *> >
__ehhandler$??0?$list@PAVSubItemInfo@@V?$allocator@PAVSubItemInfo@@@_STL@@@_STL@@QAE@ABV01@@Z:
  00008	b8 00 00 00 00	 mov	 eax, OFFSET FLAT:$T104687
  0000d	e9 00 00 00 00	 jmp	 ___CxxFrameHandler
text$x	ENDS
??0?$list@PAVSubItemInfo@@V?$allocator@PAVSubItemInfo@@@_STL@@@_STL@@QAE@ABV01@@Z ENDP ; _STL::list<SubItemInfo *,_STL::allocator<SubItemInfo *> >::list<SubItemInfo *,_STL::allocator<SubItemInfo *> >
PUBLIC	??_GStoreInfo@@QAEPAXI@Z			; StoreInfo::`scalar deleting destructor'
; Function compile flags: /Ogsy
;	COMDAT ??_GStoreInfo@@QAEPAXI@Z
_TEXT	SEGMENT
___flags$ = 8						; size = 4
??_GStoreInfo@@QAEPAXI@Z PROC NEAR			; StoreInfo::`scalar deleting destructor', COMDAT
; _this$ = ecx
  00000	56		 push	 esi
  00001	8b f1		 mov	 esi, ecx
  00003	e8 00 00 00 00	 call	 ??1StoreInfo@@QAE@XZ
  00008	f6 44 24 08 01	 test	 BYTE PTR ___flags$[esp], 1
  0000d	74 07		 je	 SHORT $L102064
  0000f	56		 push	 esi
  00010	e8 00 00 00 00	 call	 ??3@YAXPAX@Z		; operator delete
  00015	59		 pop	 ecx
$L102064:
  00016	8b c6		 mov	 eax, esi
  00018	5e		 pop	 esi
  00019	c2 04 00	 ret	 4
??_GStoreInfo@@QAEPAXI@Z ENDP				; StoreInfo::`scalar deleting destructor'
_TEXT	ENDS
PUBLIC	??0PCItemInfo@@QAE@ABV0@@Z			; PCItemInfo::PCItemInfo
PUBLIC	??_7PCItemInfo@@6B@				; PCItemInfo::`vftable'
PUBLIC	??_GPCItemInfo@@UAEPAXI@Z			; PCItemInfo::`scalar deleting destructor'
PUBLIC	??_R4PCItemInfo@@6B@				; PCItemInfo::`RTTI Complete Object Locator'
PUBLIC	??_R3PCItemInfo@@8				; PCItemInfo::`RTTI Class Hierarchy Descriptor'
PUBLIC	??_R2PCItemInfo@@8				; PCItemInfo::`RTTI Base Class Array'
EXTRN	??_EPCItemInfo@@UAEPAXI@Z:NEAR			; PCItemInfo::`vector deleting destructor'
;	COMDAT xdata$x
xdata$x	SEGMENT
$T104705 DD	0ffffffffH
	DD	FLAT:$L104697
	DD	00H
	DD	FLAT:$L104698
	DD	01H
	DD	FLAT:$L104699
	DD	02H
	DD	FLAT:$L104700
$T104703 DD	019930520H
	DD	04H
	DD	FLAT:$T104705
	DD	2 DUP(00H)
	DD	2 DUP(00H)
xdata$x	ENDS
;	COMDAT ??_7PCItemInfo@@6B@
CONST	SEGMENT
??_7PCItemInfo@@6B@ DD FLAT:??_R4PCItemInfo@@6B@	; PCItemInfo::`vftable'
	DD	FLAT:??_EPCItemInfo@@UAEPAXI@Z
CONST	ENDS
;	COMDAT ??_R4PCItemInfo@@6B@
rdata$r	SEGMENT
??_R4PCItemInfo@@6B@ DD 00H				; PCItemInfo::`RTTI Complete Object Locator'
	DD	00H
	DD	00H
	DD	FLAT:??_R0?AVPCItemInfo@@@8
	DD	FLAT:??_R3PCItemInfo@@8
rdata$r	ENDS
;	COMDAT ??_R3PCItemInfo@@8
rdata$r	SEGMENT
??_R3PCItemInfo@@8 DD 00H				; PCItemInfo::`RTTI Class Hierarchy Descriptor'
	DD	00H
	DD	01H
	DD	FLAT:??_R2PCItemInfo@@8
rdata$r	ENDS
;	COMDAT ??_R2PCItemInfo@@8
rdata$r	SEGMENT
??_R2PCItemInfo@@8 DD FLAT:??_R1A@?0A@A@PCItemInfo@@8	; PCItemInfo::`RTTI Base Class Array'
; Function compile flags: /Ogsy
rdata$r	ENDS
;	COMDAT ??0PCItemInfo@@QAE@ABV0@@Z
_TEXT	SEGMENT
_this$ = -16						; size = 4
__$EHRec$ = -12						; size = 12
___that$ = 8						; size = 4
??0PCItemInfo@@QAE@ABV0@@Z PROC NEAR			; PCItemInfo::PCItemInfo, COMDAT
; _this$ = ecx
  00000	b8 00 00 00 00	 mov	 eax, __ehhandler$??0PCItemInfo@@QAE@ABV0@@Z
  00005	e8 00 00 00 00	 call	 __EH_prolog
  0000a	51		 push	 ecx
  0000b	56		 push	 esi
  0000c	8b f1		 mov	 esi, ecx
  0000e	57		 push	 edi
  0000f	8b 7d 08	 mov	 edi, DWORD PTR ___that$[ebp]
  00012	c7 06 00 00 00
	00		 mov	 DWORD PTR [esi], OFFSET FLAT:??_7PCItemInfo@@6B@
  00018	8b 47 04	 mov	 eax, DWORD PTR [edi+4]
  0001b	89 46 04	 mov	 DWORD PTR [esi+4], eax
  0001e	8a 47 08	 mov	 al, BYTE PTR [edi+8]
  00021	88 46 08	 mov	 BYTE PTR [esi+8], al
  00024	66 8b 47 0a	 mov	 ax, WORD PTR [edi+10]
  00028	66 89 46 0a	 mov	 WORD PTR [esi+10], ax
  0002c	8d 47 0c	 lea	 eax, DWORD PTR [edi+12]
  0002f	50		 push	 eax
  00030	8d 4e 0c	 lea	 ecx, DWORD PTR [esi+12]
  00033	89 75 f0	 mov	 DWORD PTR _this$[ebp], esi
  00036	e8 00 00 00 00	 call	 ??0?$list@GV?$allocator@G@_STL@@@_STL@@QAE@ABV01@@Z ; _STL::list<unsigned short,_STL::allocator<unsigned short> >::list<unsigned short,_STL::allocator<unsigned short> >
  0003b	83 65 fc 00	 and	 DWORD PTR __$EHRec$[ebp+8], 0
  0003f	8d 47 10	 lea	 eax, DWORD PTR [edi+16]
  00042	50		 push	 eax
  00043	8d 4e 10	 lea	 ecx, DWORD PTR [esi+16]
  00046	e8 00 00 00 00	 call	 ??0?$list@GV?$allocator@G@_STL@@@_STL@@QAE@ABV01@@Z ; _STL::list<unsigned short,_STL::allocator<unsigned short> >::list<unsigned short,_STL::allocator<unsigned short> >
  0004b	8b 47 14	 mov	 eax, DWORD PTR [edi+20]
  0004e	89 46 14	 mov	 DWORD PTR [esi+20], eax
  00051	66 8b 47 18	 mov	 ax, WORD PTR [edi+24]
  00055	66 89 46 18	 mov	 WORD PTR [esi+24], ax
  00059	8b 47 1c	 mov	 eax, DWORD PTR [edi+28]
  0005c	89 46 1c	 mov	 DWORD PTR [esi+28], eax
  0005f	8a 47 20	 mov	 al, BYTE PTR [edi+32]
  00062	88 46 20	 mov	 BYTE PTR [esi+32], al
  00065	8a 47 21	 mov	 al, BYTE PTR [edi+33]
  00068	88 46 21	 mov	 BYTE PTR [esi+33], al
  0006b	66 8b 47 22	 mov	 ax, WORD PTR [edi+34]
  0006f	66 89 46 22	 mov	 WORD PTR [esi+34], ax
  00073	8a 47 24	 mov	 al, BYTE PTR [edi+36]
  00076	88 46 24	 mov	 BYTE PTR [esi+36], al
  00079	8d 47 28	 lea	 eax, DWORD PTR [edi+40]
  0007c	50		 push	 eax
  0007d	8d 4e 28	 lea	 ecx, DWORD PTR [esi+40]
  00080	c6 45 fc 01	 mov	 BYTE PTR __$EHRec$[ebp+8], 1
  00084	e8 00 00 00 00	 call	 ??0?$list@PAVSubItemInfo@@V?$allocator@PAVSubItemInfo@@@_STL@@@_STL@@QAE@ABV01@@Z ; _STL::list<SubItemInfo *,_STL::allocator<SubItemInfo *> >::list<SubItemInfo *,_STL::allocator<SubItemInfo *> >
  00089	8d 47 2c	 lea	 eax, DWORD PTR [edi+44]
  0008c	50		 push	 eax
  0008d	8d 4e 2c	 lea	 ecx, DWORD PTR [esi+44]
  00090	c6 45 fc 02	 mov	 BYTE PTR __$EHRec$[ebp+8], 2
  00094	e8 00 00 00 00	 call	 ??0?$list@GV?$allocator@G@_STL@@@_STL@@QAE@ABV01@@Z ; _STL::list<unsigned short,_STL::allocator<unsigned short> >::list<unsigned short,_STL::allocator<unsigned short> >
  00099	8a 47 30	 mov	 al, BYTE PTR [edi+48]
  0009c	88 46 30	 mov	 BYTE PTR [esi+48], al
  0009f	8a 47 31	 mov	 al, BYTE PTR [edi+49]
  000a2	88 46 31	 mov	 BYTE PTR [esi+49], al
  000a5	8a 47 32	 mov	 al, BYTE PTR [edi+50]
  000a8	88 46 32	 mov	 BYTE PTR [esi+50], al
  000ab	8a 47 33	 mov	 al, BYTE PTR [edi+51]
  000ae	83 c7 34	 add	 edi, 52			; 00000034H
  000b1	57		 push	 edi
  000b2	8d 4e 34	 lea	 ecx, DWORD PTR [esi+52]
  000b5	c6 45 fc 03	 mov	 BYTE PTR __$EHRec$[ebp+8], 3
  000b9	88 46 33	 mov	 BYTE PTR [esi+51], al
  000bc	e8 00 00 00 00	 call	 ??0?$list@GV?$allocator@G@_STL@@@_STL@@QAE@ABV01@@Z ; _STL::list<unsigned short,_STL::allocator<unsigned short> >::list<unsigned short,_STL::allocator<unsigned short> >
  000c1	8b 4d f4	 mov	 ecx, DWORD PTR __$EHRec$[ebp]
  000c4	5f		 pop	 edi
  000c5	8b c6		 mov	 eax, esi
  000c7	5e		 pop	 esi
  000c8	64 89 0d 00 00
	00 00		 mov	 DWORD PTR fs:__except_list, ecx
  000cf	c9		 leave
  000d0	c2 04 00	 ret	 4
_TEXT	ENDS
;	COMDAT text$x
text$x	SEGMENT
$L104697:
  00000	8b 4d f0	 mov	 ecx, DWORD PTR _this$[ebp]
  00003	83 c1 0c	 add	 ecx, 12			; 0000000cH
  00006	e9 00 00 00 00	 jmp	 ??1?$list@GV?$allocator@G@_STL@@@_STL@@QAE@XZ ; _STL::list<unsigned short,_STL::allocator<unsigned short> >::~list<unsigned short,_STL::allocator<unsigned short> >
$L104698:
  0000b	8b 4d f0	 mov	 ecx, DWORD PTR _this$[ebp]
  0000e	83 c1 10	 add	 ecx, 16			; 00000010H
  00011	e9 00 00 00 00	 jmp	 ??1?$list@GV?$allocator@G@_STL@@@_STL@@QAE@XZ ; _STL::list<unsigned short,_STL::allocator<unsigned short> >::~list<unsigned short,_STL::allocator<unsigned short> >
$L104699:
  00016	8b 4d f0	 mov	 ecx, DWORD PTR _this$[ebp]
  00019	83 c1 28	 add	 ecx, 40			; 00000028H
  0001c	e9 00 00 00 00	 jmp	 ??1?$list@PAVSubItemInfo@@V?$allocator@PAVSubItemInfo@@@_STL@@@_STL@@QAE@XZ ; _STL::list<SubItemInfo *,_STL::allocator<SubItemInfo *> >::~list<SubItemInfo *,_STL::allocator<SubItemInfo *> >
$L104700:
  00021	8b 4d f0	 mov	 ecx, DWORD PTR _this$[ebp]
  00024	83 c1 2c	 add	 ecx, 44			; 0000002cH
  00027	e9 00 00 00 00	 jmp	 ??1?$list@GV?$allocator@G@_STL@@@_STL@@QAE@XZ ; _STL::list<unsigned short,_STL::allocator<unsigned short> >::~list<unsigned short,_STL::allocator<unsigned short> >
__ehhandler$??0PCItemInfo@@QAE@ABV0@@Z:
  0002c	b8 00 00 00 00	 mov	 eax, OFFSET FLAT:$T104703
  00031	e9 00 00 00 00	 jmp	 ___CxxFrameHandler
text$x	ENDS
??0PCItemInfo@@QAE@ABV0@@Z ENDP				; PCItemInfo::PCItemInfo
; Function compile flags: /Ogsy
;	COMDAT ??_GPCItemInfo@@UAEPAXI@Z
_TEXT	SEGMENT
___flags$ = 8						; size = 4
??_GPCItemInfo@@UAEPAXI@Z PROC NEAR			; PCItemInfo::`scalar deleting destructor', COMDAT
; _this$ = ecx
  00000	56		 push	 esi
  00001	8b f1		 mov	 esi, ecx
  00003	e8 00 00 00 00	 call	 ??1PCItemInfo@@UAE@XZ	; PCItemInfo::~PCItemInfo
  00008	f6 44 24 08 01	 test	 BYTE PTR ___flags$[esp], 1
  0000d	74 07		 je	 SHORT $L103069
  0000f	56		 push	 esi
  00010	e8 00 00 00 00	 call	 ??3@YAXPAX@Z		; operator delete
  00015	59		 pop	 ecx
$L103069:
  00016	8b c6		 mov	 eax, esi
  00018	5e		 pop	 esi
  00019	c2 04 00	 ret	 4
??_GPCItemInfo@@UAEPAXI@Z ENDP				; PCItemInfo::`scalar deleting destructor'
_TEXT	ENDS
PUBLIC	??0StoreItemInfo@@QAE@ABV0@@Z			; StoreItemInfo::StoreItemInfo
; Function compile flags: /Ogsy
;	COMDAT ??0StoreItemInfo@@QAE@ABV0@@Z
_TEXT	SEGMENT
___that$ = 8						; size = 4
??0StoreItemInfo@@QAE@ABV0@@Z PROC NEAR			; StoreItemInfo::StoreItemInfo, COMDAT
; _this$ = ecx
  00000	56		 push	 esi
  00001	57		 push	 edi
  00002	8b 7c 24 0c	 mov	 edi, DWORD PTR ___that$[esp+4]
  00006	57		 push	 edi
  00007	8b f1		 mov	 esi, ecx
  00009	e8 00 00 00 00	 call	 ??0PCItemInfo@@QAE@ABV0@@Z
  0000e	c7 06 00 00 00
	00		 mov	 DWORD PTR [esi], OFFSET FLAT:??_7StoreItemInfo@@6B@
  00014	8a 47 38	 mov	 al, BYTE PTR [edi+56]
  00017	88 46 38	 mov	 BYTE PTR [esi+56], al
  0001a	8b 47 3c	 mov	 eax, DWORD PTR [edi+60]
  0001d	89 46 3c	 mov	 DWORD PTR [esi+60], eax
  00020	5f		 pop	 edi
  00021	8b c6		 mov	 eax, esi
  00023	5e		 pop	 esi
  00024	c2 04 00	 ret	 4
??0StoreItemInfo@@QAE@ABV0@@Z ENDP			; StoreItemInfo::StoreItemInfo
_TEXT	ENDS
PUBLIC	??$_Construct@VStoreItemInfo@@V1@@_STL@@YAXPAVStoreItemInfo@@ABV1@@Z ; _STL::_Construct<StoreItemInfo,StoreItemInfo>
;	COMDAT xdata$x
; File c:\program files\microsoft visual studio .net 2003\vc7\include\new
xdata$x	SEGMENT
$T104728 DD	0ffffffffH
	DD	FLAT:$L104721
$T104726 DD	019930520H
	DD	01H
	DD	FLAT:$T104728
	DD	2 DUP(00H)
	DD	2 DUP(00H)
; Function compile flags: /Ogsy
; File c:\stlport-4.6.1\stlport\stl\_construct.h
xdata$x	ENDS
;	COMDAT ??$_Construct@VStoreItemInfo@@V1@@_STL@@YAXPAVStoreItemInfo@@ABV1@@Z
_TEXT	SEGMENT
$T104718 = -16						; size = 4
__$EHRec$ = -12						; size = 12
___p$ = 8						; size = 4
___val$ = 12						; size = 4
??$_Construct@VStoreItemInfo@@V1@@_STL@@YAXPAVStoreItemInfo@@ABV1@@Z PROC NEAR ; _STL::_Construct<StoreItemInfo,StoreItemInfo>, COMDAT

; 93   : inline void _Construct(_T1* __p, const _T2& __val) {

  00000	b8 00 00 00 00	 mov	 eax, __ehhandler$??$_Construct@VStoreItemInfo@@V1@@_STL@@YAXPAVStoreItemInfo@@ABV1@@Z
  00005	e8 00 00 00 00	 call	 __EH_prolog
  0000a	51		 push	 ecx

; 94   : # ifdef _STLP_DEBUG_UNINITIALIZED
; 95   : 	memset((char*)__p, _STLP_SHRED_BYTE, sizeof(_T1));
; 96   : # endif
; 97   :     _STLP_PLACEMENT_NEW (__p) _T1(__val);

  0000b	8b 4d 08	 mov	 ecx, DWORD PTR ___p$[ebp]
  0000e	89 4d f0	 mov	 DWORD PTR $T104718[ebp], ecx
  00011	83 65 fc 00	 and	 DWORD PTR __$EHRec$[ebp+8], 0
  00015	85 c9		 test	 ecx, ecx
  00017	74 08		 je	 SHORT $L104719
  00019	ff 75 0c	 push	 DWORD PTR ___val$[ebp]
  0001c	e8 00 00 00 00	 call	 ??0StoreItemInfo@@QAE@ABV0@@Z
$L104719:

; 98   : }

  00021	8b 4d f4	 mov	 ecx, DWORD PTR __$EHRec$[ebp]
  00024	64 89 0d 00 00
	00 00		 mov	 DWORD PTR fs:__except_list, ecx
  0002b	c9		 leave
  0002c	c3		 ret	 0
_TEXT	ENDS
;	COMDAT text$x
text$x	SEGMENT
$L104721:
  00000	ff 75 08	 push	 DWORD PTR ___p$[ebp]
  00003	ff 75 f0	 push	 DWORD PTR $T104718[ebp]
  00006	e8 00 00 00 00	 call	 ??3@YAXPAX0@Z		; operator delete
  0000b	59		 pop	 ecx
  0000c	59		 pop	 ecx
  0000d	c3		 ret	 0
__ehhandler$??$_Construct@VStoreItemInfo@@V1@@_STL@@YAXPAVStoreItemInfo@@ABV1@@Z:
  0000e	b8 00 00 00 00	 mov	 eax, OFFSET FLAT:$T104726
  00013	e9 00 00 00 00	 jmp	 ___CxxFrameHandler
text$x	ENDS
??$_Construct@VStoreItemInfo@@V1@@_STL@@YAXPAVStoreItemInfo@@ABV1@@Z ENDP ; _STL::_Construct<StoreItemInfo,StoreItemInfo>
PUBLIC	??$__uninitialized_fill_n@PAVStoreItemInfo@@IV1@@_STL@@YAPAVStoreItemInfo@@PAV1@IABV1@ABU__false_type@0@@Z ; _STL::__uninitialized_fill_n<StoreItemInfo *,unsigned int,StoreItemInfo>
;	COMDAT xdata$x
; File c:\stlport-4.6.1\stlport\stl\_uninitialized.h
xdata$x	SEGMENT
$T104740 DD	0ffffffffH
	DD	00H
	DD	0ffffffffH
	DD	00H
$T104742 DD	00H
	DD	00H
	DD	00H
	DD	FLAT:$L104734
$T104741 DD	00H
	DD	00H
	DD	01H
	DD	01H
	DD	FLAT:$T104742
$T104736 DD	019930520H
	DD	02H
	DD	FLAT:$T104740
	DD	01H
	DD	FLAT:$T104741
	DD	2 DUP(00H)
; Function compile flags: /Ogsy
xdata$x	ENDS
;	COMDAT ??$__uninitialized_fill_n@PAVStoreItemInfo@@IV1@@_STL@@YAPAVStoreItemInfo@@PAV1@IABV1@ABU__false_type@0@@Z
_TEXT	SEGMENT
___cur$ = -20						; size = 4
__$EHRec$ = -16						; size = 16
___first$ = 8						; size = 4
___n$ = 12						; size = 4
___x$ = 16						; size = 4
___formal$ = 20						; size = 4
??$__uninitialized_fill_n@PAVStoreItemInfo@@IV1@@_STL@@YAPAVStoreItemInfo@@PAV1@IABV1@ABU__false_type@0@@Z PROC NEAR ; _STL::__uninitialized_fill_n<StoreItemInfo *,unsigned int,StoreItemInfo>, COMDAT

; 192  : {

  00000	b8 00 00 00 00	 mov	 eax, __ehhandler$??$__uninitialized_fill_n@PAVStoreItemInfo@@IV1@@_STL@@YAPAVStoreItemInfo@@PAV1@IABV1@ABU__false_type@0@@Z
  00005	e8 00 00 00 00	 call	 __EH_prolog
  0000a	51		 push	 ecx
  0000b	51		 push	 ecx

; 193  :   _ForwardIter __cur = __first;

  0000c	8b 45 08	 mov	 eax, DWORD PTR ___first$[ebp]

; 194  :   _STLP_TRY {

  0000f	83 65 fc 00	 and	 DWORD PTR __$EHRec$[ebp+12], 0
  00013	53		 push	 ebx
  00014	56		 push	 esi
  00015	57		 push	 edi
  00016	89 65 f0	 mov	 DWORD PTR __$EHRec$[ebp], esp
  00019	89 45 ec	 mov	 DWORD PTR ___cur$[ebp], eax
$L102942:

; 195  :     for ( ; __n > 0; --__n, ++__cur)

  0001c	83 7d 0c 00	 cmp	 DWORD PTR ___n$[ebp], 0
  00020	76 2c		 jbe	 SHORT $L102944

; 196  :       _Construct(&*__cur, __x);

  00022	ff 75 10	 push	 DWORD PTR ___x$[ebp]
  00025	ff 75 ec	 push	 DWORD PTR ___cur$[ebp]
  00028	e8 00 00 00 00	 call	 ??$_Construct@VStoreItemInfo@@V1@@_STL@@YAXPAVStoreItemInfo@@ABV1@@Z ; _STL::_Construct<StoreItemInfo,StoreItemInfo>
  0002d	ff 4d 0c	 dec	 DWORD PTR ___n$[ebp]
  00030	83 45 ec 40	 add	 DWORD PTR ___cur$[ebp], 64 ; 00000040H
  00034	59		 pop	 ecx
  00035	59		 pop	 ecx
  00036	eb e4		 jmp	 SHORT $L102942
$L104734:

; 197  :     return __cur;
; 198  :   }
; 199  :   _STLP_UNWIND(_STLP_STD::_Destroy(__first, __cur));

  00038	ff 75 ec	 push	 DWORD PTR ___cur$[ebp]
  0003b	ff 75 08	 push	 DWORD PTR ___first$[ebp]
  0003e	e8 00 00 00 00	 call	 ??$_Destroy@PAVStoreItemInfo@@@_STL@@YAXPAVStoreItemInfo@@0@Z ; _STL::_Destroy<StoreItemInfo *>
  00043	59		 pop	 ecx
  00044	59		 pop	 ecx
  00045	6a 00		 push	 0
  00047	6a 00		 push	 0
  00049	e8 00 00 00 00	 call	 __CxxThrowException@8
$L104743:
$L102944:

; 200  : # ifdef _STLP_THROW_RETURN_BUG
; 201  :   return __cur;
; 202  : # endif
; 203  : }

  0004e	8b 4d f4	 mov	 ecx, DWORD PTR __$EHRec$[ebp+4]
  00051	8b 45 ec	 mov	 eax, DWORD PTR ___cur$[ebp]
  00054	5f		 pop	 edi
  00055	5e		 pop	 esi
  00056	64 89 0d 00 00
	00 00		 mov	 DWORD PTR fs:__except_list, ecx
  0005d	5b		 pop	 ebx
  0005e	c9		 leave
  0005f	c3		 ret	 0
$L104739:
_TEXT	ENDS
;	COMDAT text$x
text$x	SEGMENT
__ehhandler$??$__uninitialized_fill_n@PAVStoreItemInfo@@IV1@@_STL@@YAPAVStoreItemInfo@@PAV1@IABV1@ABU__false_type@0@@Z:
  00000	b8 00 00 00 00	 mov	 eax, OFFSET FLAT:$T104736
  00005	e9 00 00 00 00	 jmp	 ___CxxFrameHandler
text$x	ENDS
??$__uninitialized_fill_n@PAVStoreItemInfo@@IV1@@_STL@@YAPAVStoreItemInfo@@PAV1@IABV1@ABU__false_type@0@@Z ENDP ; _STL::__uninitialized_fill_n<StoreItemInfo *,unsigned int,StoreItemInfo>
PUBLIC	__TI3?AVUnsupportedError@@
PUBLIC	__CTA3?AVUnsupportedError@@
PUBLIC	__CT??_R0?AVUnsupportedError@@@8??0UnsupportedError@@QAE@ABV0@@Z20
PUBLIC	__CT??_R0?AVError@@@8??0Error@@QAE@ABV0@@Z20
PUBLIC	__CT??_R0?AVThrowable@@@8??0Throwable@@QAE@ABV0@@Z20
PUBLIC	??0Error@@QAE@ABV0@@Z				; Error::Error
PUBLIC	??0UnsupportedError@@QAE@XZ			; UnsupportedError::UnsupportedError
PUBLIC	??1UnsupportedError@@UAE@XZ			; UnsupportedError::~UnsupportedError
PUBLIC	??0UnsupportedError@@QAE@ABV0@@Z		; UnsupportedError::UnsupportedError
PUBLIC	??_R0?AVError@@@8				; Error `RTTI Type Descriptor'
PUBLIC	??_R0?AVThrowable@@@8				; Throwable `RTTI Type Descriptor'
PUBLIC	??0Throwable@@QAE@ABV0@@Z			; Throwable::Throwable
PUBLIC	??_R0?AVUnsupportedError@@@8			; UnsupportedError `RTTI Type Descriptor'
;	COMDAT __TI3?AVUnsupportedError@@
; File c:\darkeden\designed_common\project\client\packet\packet.h
xdata$x	SEGMENT
__TI3?AVUnsupportedError@@ DD 00H
	DD	FLAT:??1UnsupportedError@@UAE@XZ
	DD	00H
	DD	FLAT:__CTA3?AVUnsupportedError@@
xdata$x	ENDS
;	COMDAT __CTA3?AVUnsupportedError@@
xdata$x	SEGMENT
__CTA3?AVUnsupportedError@@ DD 03H
	DD	FLAT:__CT??_R0?AVUnsupportedError@@@8??0UnsupportedError@@QAE@ABV0@@Z20
	DD	FLAT:__CT??_R0?AVError@@@8??0Error@@QAE@ABV0@@Z20
	DD	FLAT:__CT??_R0?AVThrowable@@@8??0Throwable@@QAE@ABV0@@Z20
xdata$x	ENDS
;	COMDAT __CT??_R0?AVUnsupportedError@@@8??0UnsupportedError@@QAE@ABV0@@Z20
xdata$x	SEGMENT
__CT??_R0?AVUnsupportedError@@@8??0UnsupportedError@@QAE@ABV0@@Z20 DD 00H
	DD	FLAT:??_R0?AVUnsupportedError@@@8
	DD	00H
	DD	0ffffffffH
	ORG $+4
	DD	014H
	DD	FLAT:??0UnsupportedError@@QAE@ABV0@@Z
xdata$x	ENDS
;	COMDAT ??_R0?AVUnsupportedError@@@8
_DATA	SEGMENT
??_R0?AVUnsupportedError@@@8 DD FLAT:??_7type_info@@6B@	; UnsupportedError `RTTI Type Descriptor'
	DD	00H
	DB	'.?AVUnsupportedError@@', 00H
	ORG $-31
	DD	FLAT:??_7type_info@@6B@
	DD	00H
	DB	'.?AVUnsupportedError@@', 00H
_DATA	ENDS
;	COMDAT __CT??_R0?AVError@@@8??0Error@@QAE@ABV0@@Z20
xdata$x	SEGMENT
__CT??_R0?AVError@@@8??0Error@@QAE@ABV0@@Z20 DD 00H
	DD	FLAT:??_R0?AVError@@@8
	DD	00H
	DD	0ffffffffH
	ORG $+4
	DD	014H
	DD	FLAT:??0Error@@QAE@ABV0@@Z
xdata$x	ENDS
;	COMDAT ??_R0?AVError@@@8
_DATA	SEGMENT
??_R0?AVError@@@8 DD FLAT:??_7type_info@@6B@		; Error `RTTI Type Descriptor'
	DD	00H
	DB	'.?AVError@@', 00H
	ORG $-20
	DD	FLAT:??_7type_info@@6B@
	DD	00H
	DB	'.?AVError@@', 00H
_DATA	ENDS
;	COMDAT __CT??_R0?AVThrowable@@@8??0Throwable@@QAE@ABV0@@Z20
xdata$x	SEGMENT
__CT??_R0?AVThrowable@@@8??0Throwable@@QAE@ABV0@@Z20 DD 00H
	DD	FLAT:??_R0?AVThrowable@@@8
	DD	00H
	DD	0ffffffffH
	ORG $+4
	DD	014H
	DD	FLAT:??0Throwable@@QAE@ABV0@@Z
xdata$x	ENDS
;	COMDAT ??_R0?AVThrowable@@@8
_DATA	SEGMENT
??_R0?AVThrowable@@@8 DD FLAT:??_7type_info@@6B@	; Throwable `RTTI Type Descriptor'
	DD	00H
	DB	'.?AVThrowable@@', 00H
	ORG $-24
	DD	FLAT:??_7type_info@@6B@
	DD	00H
	DB	'.?AVThrowable@@', 00H
; Function compile flags: /Ogsy
_DATA	ENDS
;	COMDAT ?read@Packet@@UAEXPAVSocket@@@Z
_TEXT	SEGMENT
$T104748 = -20						; size = 20
_pSocket$ = 8						; size = 4
?read@Packet@@UAEXPAVSocket@@@Z PROC NEAR		; Packet::read, COMDAT
; _this$ = ecx

; 732  : 	virtual void read (Socket* pSocket) throw (ProtocolException, Error) { throw UnsupportedError(); }	

  00000	55		 push	 ebp
  00001	8b ec		 mov	 ebp, esp
  00003	83 ec 14	 sub	 esp, 20			; 00000014H
  00006	8d 4d ec	 lea	 ecx, DWORD PTR $T104748[ebp]
  00009	e8 00 00 00 00	 call	 ??0UnsupportedError@@QAE@XZ ; UnsupportedError::UnsupportedError
  0000e	68 00 00 00 00	 push	 OFFSET FLAT:__TI3?AVUnsupportedError@@
  00013	8d 45 ec	 lea	 eax, DWORD PTR $T104748[ebp]
  00016	50		 push	 eax
  00017	e8 00 00 00 00	 call	 __CxxThrowException@8
$L104750:
$L104749:
  0001c	cc		 int	 3
?read@Packet@@UAEXPAVSocket@@@Z ENDP			; Packet::read
_TEXT	ENDS
PUBLIC	??0Error@@QAE@XZ				; Error::Error
PUBLIC	?getName@UnsupportedError@@UBE?AV?$basic_string@DV?$char_traits@D@_STL@@V?$allocator@D@2@@_STL@@XZ ; UnsupportedError::getName
PUBLIC	??_7UnsupportedError@@6B@			; UnsupportedError::`vftable'
PUBLIC	??_GUnsupportedError@@UAEPAXI@Z			; UnsupportedError::`scalar deleting destructor'
PUBLIC	??_R1A@?0A@A@Error@@8				; Error::`RTTI Base Class Descriptor at (0,-1,0,0)'
PUBLIC	??_R1A@?0A@A@Throwable@@8			; Throwable::`RTTI Base Class Descriptor at (0,-1,0,0)'
PUBLIC	?toString@Throwable@@UBE?AV?$basic_string@DV?$char_traits@D@_STL@@V?$allocator@D@2@@_STL@@XZ ; Throwable::toString
PUBLIC	??_R4UnsupportedError@@6B@			; UnsupportedError::`RTTI Complete Object Locator'
PUBLIC	??_R3UnsupportedError@@8			; UnsupportedError::`RTTI Class Hierarchy Descriptor'
PUBLIC	??_R2UnsupportedError@@8			; UnsupportedError::`RTTI Base Class Array'
PUBLIC	??_R1A@?0A@A@UnsupportedError@@8		; UnsupportedError::`RTTI Base Class Descriptor at (0,-1,0,0)'
EXTRN	??_EUnsupportedError@@UAEPAXI@Z:NEAR		; UnsupportedError::`vector deleting destructor'
;	COMDAT ??_7UnsupportedError@@6B@
; File c:\darkeden\designed_common\project\client\packet\exception.h
CONST	SEGMENT
??_7UnsupportedError@@6B@ DD FLAT:??_R4UnsupportedError@@6B@ ; UnsupportedError::`vftable'
	DD	FLAT:??_EUnsupportedError@@UAEPAXI@Z
	DD	FLAT:?getName@UnsupportedError@@UBE?AV?$basic_string@DV?$char_traits@D@_STL@@V?$allocator@D@2@@_STL@@XZ
	DD	FLAT:?toString@Throwable@@UBE?AV?$basic_string@DV?$char_traits@D@_STL@@V?$allocator@D@2@@_STL@@XZ
CONST	ENDS
;	COMDAT ??_R4UnsupportedError@@6B@
rdata$r	SEGMENT
??_R4UnsupportedError@@6B@ DD 00H			; UnsupportedError::`RTTI Complete Object Locator'
	DD	00H
	DD	00H
	DD	FLAT:??_R0?AVUnsupportedError@@@8
	DD	FLAT:??_R3UnsupportedError@@8
rdata$r	ENDS
;	COMDAT ??_R3UnsupportedError@@8
rdata$r	SEGMENT
??_R3UnsupportedError@@8 DD 00H				; UnsupportedError::`RTTI Class Hierarchy Descriptor'
	DD	00H
	DD	03H
	DD	FLAT:??_R2UnsupportedError@@8
rdata$r	ENDS
;	COMDAT ??_R2UnsupportedError@@8
rdata$r	SEGMENT
??_R2UnsupportedError@@8 DD FLAT:??_R1A@?0A@A@UnsupportedError@@8 ; UnsupportedError::`RTTI Base Class Array'
	DD	FLAT:??_R1A@?0A@A@Error@@8
	DD	FLAT:??_R1A@?0A@A@Throwable@@8
rdata$r	ENDS
;	COMDAT ??_R1A@?0A@A@UnsupportedError@@8
rdata$r	SEGMENT
??_R1A@?0A@A@UnsupportedError@@8 DD FLAT:??_R0?AVUnsupportedError@@@8 ; UnsupportedError::`RTTI Base Class Descriptor at (0,-1,0,0)'
	DD	02H
	DD	00H
	DD	0ffffffffH
	DD	00H
	DD	00H
rdata$r	ENDS
;	COMDAT ??_R1A@?0A@A@Error@@8
rdata$r	SEGMENT
??_R1A@?0A@A@Error@@8 DD FLAT:??_R0?AVError@@@8		; Error::`RTTI Base Class Descriptor at (0,-1,0,0)'
	DD	01H
	DD	00H
	DD	0ffffffffH
	DD	00H
	DD	00H
rdata$r	ENDS
;	COMDAT ??_R1A@?0A@A@Throwable@@8
rdata$r	SEGMENT
??_R1A@?0A@A@Throwable@@8 DD FLAT:??_R0?AVThrowable@@@8	; Throwable::`RTTI Base Class Descriptor at (0,-1,0,0)'
	DD	00H
	DD	00H
	DD	0ffffffffH
	DD	00H
	DD	00H
; Function compile flags: /Ogsy
rdata$r	ENDS
;	COMDAT ??0UnsupportedError@@QAE@XZ
_TEXT	SEGMENT
??0UnsupportedError@@QAE@XZ PROC NEAR			; UnsupportedError::UnsupportedError, COMDAT
; _this$ = ecx

; 711  : 		UnsupportedError () throw () : Error () {}

  00000	56		 push	 esi
  00001	8b f1		 mov	 esi, ecx
  00003	e8 00 00 00 00	 call	 ??0Error@@QAE@XZ	; Error::Error
  00008	c7 06 00 00 00
	00		 mov	 DWORD PTR [esi], OFFSET FLAT:??_7UnsupportedError@@6B@
  0000e	8b c6		 mov	 eax, esi
  00010	5e		 pop	 esi
  00011	c3		 ret	 0
??0UnsupportedError@@QAE@XZ ENDP			; UnsupportedError::UnsupportedError
_TEXT	ENDS
PUBLIC	??_C@_0BB@EOCHEBED@UnsupportedError?$AA@	; `string'
PUBLIC	??0?$basic_string@DV?$char_traits@D@_STL@@V?$allocator@D@2@@_STL@@QAE@PBDABV?$allocator@D@1@@Z ; _STL::basic_string<char,_STL::char_traits<char>,_STL::allocator<char> >::basic_string<char,_STL::char_traits<char>,_STL::allocator<char> >
;	COMDAT ??_C@_0BB@EOCHEBED@UnsupportedError?$AA@
; File c:\stlport-4.6.1\stlport\stl\_alloc.h
CONST	SEGMENT
??_C@_0BB@EOCHEBED@UnsupportedError?$AA@ DB 'UnsupportedError', 00H ; `string'
; Function compile flags: /Ogsy
; File c:\darkeden\designed_common\project\client\packet\exception.h
CONST	ENDS
;	COMDAT ?getName@UnsupportedError@@UBE?AV?$basic_string@DV?$char_traits@D@_STL@@V?$allocator@D@2@@_STL@@XZ
_TEXT	SEGMENT
$T104756 = -1						; size = 1
___$ReturnUdt$ = 8					; size = 4
?getName@UnsupportedError@@UBE?AV?$basic_string@DV?$char_traits@D@_STL@@V?$allocator@D@2@@_STL@@XZ PROC NEAR ; UnsupportedError::getName, COMDAT
; _this$ = ecx

; 713  : 		std::string getName () const throw () { return "UnsupportedError"; }

  00000	55		 push	 ebp
  00001	8b ec		 mov	 ebp, esp
  00003	51		 push	 ecx
  00004	8b 4d 08	 mov	 ecx, DWORD PTR ___$ReturnUdt$[ebp]
  00007	8d 45 ff	 lea	 eax, DWORD PTR $T104756[ebp]
  0000a	50		 push	 eax
  0000b	68 00 00 00 00	 push	 OFFSET FLAT:??_C@_0BB@EOCHEBED@UnsupportedError?$AA@
  00010	e8 00 00 00 00	 call	 ??0?$basic_string@DV?$char_traits@D@_STL@@V?$allocator@D@2@@_STL@@QAE@PBDABV?$allocator@D@1@@Z ; _STL::basic_string<char,_STL::char_traits<char>,_STL::allocator<char> >::basic_string<char,_STL::char_traits<char>,_STL::allocator<char> >
  00015	8b 45 08	 mov	 eax, DWORD PTR ___$ReturnUdt$[ebp]
  00018	c9		 leave
  00019	c2 04 00	 ret	 4
?getName@UnsupportedError@@UBE?AV?$basic_string@DV?$char_traits@D@_STL@@V?$allocator@D@2@@_STL@@XZ ENDP ; UnsupportedError::getName
_TEXT	ENDS
PUBLIC	??$_M_range_initialize@PBD@?$basic_string@DV?$char_traits@D@_STL@@V?$allocator@D@2@@_STL@@AAEXPBD0ABUforward_iterator_tag@1@@Z ; _STL::basic_string<char,_STL::char_traits<char>,_STL::allocator<char> >::_M_range_initialize<char const *>
EXTRN	_strlen:NEAR
;	COMDAT xdata$x
; File c:\stlport-4.6.1\stlport\stl\_string.h
xdata$x	SEGMENT
$T104830 DD	0ffffffffH
	DD	FLAT:$L104765
$T104828 DD	019930520H
	DD	01H
	DD	FLAT:$T104830
	DD	2 DUP(00H)
	DD	2 DUP(00H)
; Function compile flags: /Ogsy
; File c:\stlport-4.6.1\stlport\stl\_string.c
xdata$x	ENDS
;	COMDAT ??0?$basic_string@DV?$char_traits@D@_STL@@V?$allocator@D@2@@_STL@@QAE@PBDABV?$allocator@D@1@@Z
_TEXT	SEGMENT
_this$ = -16						; size = 4
__$EHRec$ = -12						; size = 12
___s$ = 8						; size = 4
$T104825 = 11						; size = 1
___a$ = 12						; size = 4
??0?$basic_string@DV?$char_traits@D@_STL@@V?$allocator@D@2@@_STL@@QAE@PBDABV?$allocator@D@1@@Z PROC NEAR ; _STL::basic_string<char,_STL::char_traits<char>,_STL::allocator<char> >::basic_string<char,_STL::char_traits<char>,_STL::allocator<char> >, COMDAT
; _this$ = ecx

; 552  : { 

  00000	b8 00 00 00 00	 mov	 eax, __ehhandler$??0?$basic_string@DV?$char_traits@D@_STL@@V?$allocator@D@2@@_STL@@QAE@PBDABV?$allocator@D@1@@Z
  00005	e8 00 00 00 00	 call	 __EH_prolog
  0000a	51		 push	 ecx
  0000b	56		 push	 esi
  0000c	ff 75 0c	 push	 DWORD PTR ___a$[ebp]
  0000f	8b f1		 mov	 esi, ecx
  00011	89 75 f0	 mov	 DWORD PTR _this$[ebp], esi
  00014	e8 00 00 00 00	 call	 ??0?$_String_base@DV?$allocator@D@_STL@@@_STL@@QAE@ABV?$allocator@D@1@@Z ; _STL::_String_base<char,_STL::allocator<char> >::_String_base<char,_STL::allocator<char> >

; 553  :   _STLP_FIX_LITERAL_BUG(__s) 
; 554  :     _M_range_initialize(__s, __s + traits_type::length(__s));  

  00019	ff 75 08	 push	 DWORD PTR ___s$[ebp]
  0001c	83 65 fc 00	 and	 DWORD PTR __$EHRec$[ebp+8], 0
  00020	e8 00 00 00 00	 call	 _strlen
  00025	03 45 08	 add	 eax, DWORD PTR ___s$[ebp]
  00028	59		 pop	 ecx
  00029	8d 4d 0b	 lea	 ecx, DWORD PTR $T104825[ebp]
  0002c	51		 push	 ecx
  0002d	50		 push	 eax
  0002e	ff 75 08	 push	 DWORD PTR ___s$[ebp]
  00031	8b ce		 mov	 ecx, esi
  00033	e8 00 00 00 00	 call	 ??$_M_range_initialize@PBD@?$basic_string@DV?$char_traits@D@_STL@@V?$allocator@D@2@@_STL@@AAEXPBD0ABUforward_iterator_tag@1@@Z ; _STL::basic_string<char,_STL::char_traits<char>,_STL::allocator<char> >::_M_range_initialize<char const *>

; 555  : } 

  00038	8b 4d f4	 mov	 ecx, DWORD PTR __$EHRec$[ebp]
  0003b	8b c6		 mov	 eax, esi
  0003d	5e		 pop	 esi
  0003e	64 89 0d 00 00
	00 00		 mov	 DWORD PTR fs:__except_list, ecx
  00045	c9		 leave
  00046	c2 08 00	 ret	 8
_TEXT	ENDS
;	COMDAT text$x
text$x	SEGMENT
$L104765:
  00000	8b 4d f0	 mov	 ecx, DWORD PTR _this$[ebp]
  00003	e9 00 00 00 00	 jmp	 ??1?$_String_base@DV?$allocator@D@_STL@@@_STL@@QAE@XZ ; _STL::_String_base<char,_STL::allocator<char> >::~_String_base<char,_STL::allocator<char> >
__ehhandler$??0?$basic_string@DV?$char_traits@D@_STL@@V?$allocator@D@2@@_STL@@QAE@PBDABV?$allocator@D@1@@Z:
  00008	b8 00 00 00 00	 mov	 eax, OFFSET FLAT:$T104828
  0000d	e9 00 00 00 00	 jmp	 ___CxxFrameHandler
text$x	ENDS
??0?$basic_string@DV?$char_traits@D@_STL@@V?$allocator@D@2@@_STL@@QAE@PBDABV?$allocator@D@1@@Z ENDP ; _STL::basic_string<char,_STL::char_traits<char>,_STL::allocator<char> >::basic_string<char,_STL::char_traits<char>,_STL::allocator<char> >
PUBLIC	?_M_allocate_block@?$_String_base@DV?$allocator@D@_STL@@@_STL@@QAEXI@Z ; _STL::_String_base<char,_STL::allocator<char> >::_M_allocate_block
EXTRN	_memmove:NEAR
; Function compile flags: /Ogsy
; File c:\stlport-4.6.1\stlport\stl\_string.h
;	COMDAT ??$_M_range_initialize@PBD@?$basic_string@DV?$char_traits@D@_STL@@V?$allocator@D@2@@_STL@@AAEXPBD0ABUforward_iterator_tag@1@@Z
_TEXT	SEGMENT
___f$ = 8						; size = 4
___l$ = 12						; size = 4
___formal$ = 16						; size = 4
??$_M_range_initialize@PBD@?$basic_string@DV?$char_traits@D@_STL@@V?$allocator@D@2@@_STL@@AAEXPBD0ABUforward_iterator_tag@1@@Z PROC NEAR ; _STL::basic_string<char,_STL::char_traits<char>,_STL::allocator<char> >::_M_range_initialize<char const *>, COMDAT
; _this$ = ecx

; 382  :   template <class _ForwardIter> void _M_range_initialize(_ForwardIter __f, _ForwardIter __l, 

  00000	53		 push	 ebx

; 383  :                            const forward_iterator_tag &) {
; 384  :     difference_type __n = distance(__f, __l);
; 385  :     this->_M_allocate_block(__n + 1);
; 386  :     this->_M_finish = uninitialized_copy(__f, __l, this->_M_start);
; 387  :     _M_terminate_string();

  00001	8b 5c 24 08	 mov	 ebx, DWORD PTR ___f$[esp]
  00005	56		 push	 esi
  00006	8b 74 24 10	 mov	 esi, DWORD PTR ___l$[esp+4]
  0000a	57		 push	 edi
  0000b	2b f3		 sub	 esi, ebx
  0000d	8d 46 01	 lea	 eax, DWORD PTR [esi+1]
  00010	50		 push	 eax
  00011	8b f9		 mov	 edi, ecx
  00013	e8 00 00 00 00	 call	 ?_M_allocate_block@?$_String_base@DV?$allocator@D@_STL@@@_STL@@QAEXI@Z ; _STL::_String_base<char,_STL::allocator<char> >::_M_allocate_block
  00018	39 5c 24 14	 cmp	 DWORD PTR ___l$[esp+8], ebx
  0001c	8b 07		 mov	 eax, DWORD PTR [edi]
  0001e	74 0d		 je	 SHORT $L104871
  00020	56		 push	 esi
  00021	53		 push	 ebx
  00022	50		 push	 eax
  00023	e8 00 00 00 00	 call	 _memmove
  00028	83 c4 0c	 add	 esp, 12			; 0000000cH
  0002b	03 c6		 add	 eax, esi
$L104871:
  0002d	89 47 04	 mov	 DWORD PTR [edi+4], eax
  00030	5f		 pop	 edi
  00031	5e		 pop	 esi
  00032	c6 00 00	 mov	 BYTE PTR [eax], 0
  00035	5b		 pop	 ebx

; 388  :   }

  00036	c2 0c 00	 ret	 12			; 0000000cH
??$_M_range_initialize@PBD@?$basic_string@DV?$char_traits@D@_STL@@V?$allocator@D@2@@_STL@@AAEXPBD0ABUforward_iterator_tag@1@@Z ENDP ; _STL::basic_string<char,_STL::char_traits<char>,_STL::allocator<char> >::_M_range_initialize<char const *>
_TEXT	ENDS
PUBLIC	??_C@_0N@GOPDCEEB@basic_string?$AA@		; `string'
EXTRN	?__stl_throw_length_error@_STL@@YAXPBD@Z:NEAR	; _STL::__stl_throw_length_error
;	COMDAT ??_C@_0N@GOPDCEEB@basic_string?$AA@
; File c:\stlport-4.6.1\stlport\stl\_string.c
CONST	SEGMENT
??_C@_0N@GOPDCEEB@basic_string?$AA@ DB 'basic_string', 00H ; `string'
; Function compile flags: /Ogsy
CONST	ENDS
;	COMDAT ?_M_allocate_block@?$_String_base@DV?$allocator@D@_STL@@@_STL@@QAEXI@Z
_TEXT	SEGMENT
___n$ = 8						; size = 4
?_M_allocate_block@?$_String_base@DV?$allocator@D@_STL@@@_STL@@QAEXI@Z PROC NEAR ; _STL::_String_base<char,_STL::allocator<char> >::_M_allocate_block, COMDAT
; _this$ = ecx

; 530  : template <class _Tp, class _Alloc> void _String_base<_Tp, _Alloc>::_M_allocate_block(size_t __n) {  

  00000	56		 push	 esi
  00001	57		 push	 edi

; 531  :   if ((__n <= (max_size()+1)) && (__n>0)){ 

  00002	8b 7c 24 0c	 mov	 edi, DWORD PTR ___n$[esp+4]
  00006	83 ff ff	 cmp	 edi, -1
  00009	8b f1		 mov	 esi, ecx
  0000b	77 16		 ja	 SHORT $L102992
  0000d	85 ff		 test	 edi, edi
  0000f	76 12		 jbe	 SHORT $L102992

; 532  :     _M_start  = _M_end_of_storage.allocate(__n); 

  00011	57		 push	 edi
  00012	e8 00 00 00 00	 call	 ?allocate@?$__node_alloc@$00$0A@@_STL@@SAPAXI@Z ; _STL::__node_alloc<1,0>::allocate
  00017	89 06		 mov	 DWORD PTR [esi], eax

; 533  :     _M_finish = _M_start; 

  00019	89 46 04	 mov	 DWORD PTR [esi+4], eax

; 534  :     _M_end_of_storage._M_data = _M_start + __n; 

  0001c	03 c7		 add	 eax, edi
  0001e	89 46 08	 mov	 DWORD PTR [esi+8], eax

; 535  :   } 
; 536  :     else 

  00021	eb 0a		 jmp	 SHORT $L104902
$L102992:

; 537  :       _M_throw_length_error(); 

  00023	68 00 00 00 00	 push	 OFFSET FLAT:??_C@_0N@GOPDCEEB@basic_string?$AA@
  00028	e8 00 00 00 00	 call	 ?__stl_throw_length_error@_STL@@YAXPBD@Z ; _STL::__stl_throw_length_error
$L104902:
  0002d	59		 pop	 ecx
  0002e	5f		 pop	 edi
  0002f	5e		 pop	 esi

; 538  : } 

  00030	c2 04 00	 ret	 4
?_M_allocate_block@?$_String_base@DV?$allocator@D@_STL@@@_STL@@QAEXI@Z ENDP ; _STL::_String_base<char,_STL::allocator<char> >::_M_allocate_block
_TEXT	ENDS
PUBLIC	??0?$basic_string@DV?$char_traits@D@_STL@@V?$allocator@D@2@@_STL@@QAE@ABV01@@Z ; _STL::basic_string<char,_STL::char_traits<char>,_STL::allocator<char> >::basic_string<char,_STL::char_traits<char>,_STL::allocator<char> >
PUBLIC	?getStackTrace@Throwable@@QBE?AV?$basic_string@DV?$char_traits@D@_STL@@V?$allocator@D@2@@_STL@@XZ ; Throwable::getStackTrace
PUBLIC	??_C@_03MCPBMLDJ@?5?3?5?$AA@			; `string'
EXTRN	??0StringStream@@QAE@XZ:NEAR			; StringStream::StringStream
EXTRN	??1StringStream@@QAE@XZ:NEAR			; StringStream::~StringStream
EXTRN	??6StringStream@@QAEAAV0@D@Z:NEAR		; StringStream::operator<<
EXTRN	??6StringStream@@QAEAAV0@PBD@Z:NEAR		; StringStream::operator<<
EXTRN	??6StringStream@@QAEAAV0@ABV?$basic_string@DV?$char_traits@D@_STL@@V?$allocator@D@2@@_STL@@@Z:NEAR ; StringStream::operator<<
EXTRN	?toString@StringStream@@QBE?AV?$basic_string@DV?$char_traits@D@_STL@@V?$allocator@D@2@@_STL@@XZ:NEAR ; StringStream::toString
;	COMDAT ??_C@_03MCPBMLDJ@?5?3?5?$AA@
; File c:\darkeden\designed_common\project\client\packet\exception.h
CONST	SEGMENT
??_C@_03MCPBMLDJ@?5?3?5?$AA@ DB ' : ', 00H		; `string'
; Function compile flags: /Ogsy
CONST	ENDS
;	COMDAT ?toString@Throwable@@UBE?AV?$basic_string@DV?$char_traits@D@_STL@@V?$allocator@D@2@@_STL@@XZ
_TEXT	SEGMENT
_buf$ = -44						; size = 20
$T104908 = -24						; size = 12
$T104907 = -24						; size = 12
$T104906 = -12						; size = 12
___$ReturnUdt$ = 8					; size = 4
?toString@Throwable@@UBE?AV?$basic_string@DV?$char_traits@D@_STL@@V?$allocator@D@2@@_STL@@XZ PROC NEAR ; Throwable::toString, COMDAT
; _this$ = ecx

; 79   : 	{

  00000	55		 push	 ebp
  00001	8b ec		 mov	 ebp, esp
  00003	83 ec 2c	 sub	 esp, 44			; 0000002cH
  00006	56		 push	 esi
  00007	8b f1		 mov	 esi, ecx

; 80   : 		StringStream buf;

  00009	8d 4d d4	 lea	 ecx, DWORD PTR _buf$[ebp]
  0000c	e8 00 00 00 00	 call	 ??0StringStream@@QAE@XZ	; StringStream::StringStream

; 81   : 		buf << getName() << " : " << m_Message << '\n'
; 82   : 			<< getStackTrace () ;

  00011	8d 45 e8	 lea	 eax, DWORD PTR $T104907[ebp]
  00014	50		 push	 eax
  00015	8b ce		 mov	 ecx, esi
  00017	e8 00 00 00 00	 call	 ?getStackTrace@Throwable@@QBE?AV?$basic_string@DV?$char_traits@D@_STL@@V?$allocator@D@2@@_STL@@XZ ; Throwable::getStackTrace
  0001c	50		 push	 eax
  0001d	6a 0a		 push	 10			; 0000000aH
  0001f	8d 46 04	 lea	 eax, DWORD PTR [esi+4]
  00022	50		 push	 eax
  00023	8b 06		 mov	 eax, DWORD PTR [esi]
  00025	68 00 00 00 00	 push	 OFFSET FLAT:??_C@_03MCPBMLDJ@?5?3?5?$AA@
  0002a	8d 4d f4	 lea	 ecx, DWORD PTR $T104906[ebp]
  0002d	51		 push	 ecx
  0002e	8b ce		 mov	 ecx, esi
  00030	ff 50 04	 call	 DWORD PTR [eax+4]
  00033	50		 push	 eax
  00034	8d 4d d4	 lea	 ecx, DWORD PTR _buf$[ebp]
  00037	e8 00 00 00 00	 call	 ??6StringStream@@QAEAAV0@ABV?$basic_string@DV?$char_traits@D@_STL@@V?$allocator@D@2@@_STL@@@Z ; StringStream::operator<<
  0003c	8b c8		 mov	 ecx, eax
  0003e	e8 00 00 00 00	 call	 ??6StringStream@@QAEAAV0@PBD@Z ; StringStream::operator<<
  00043	8b c8		 mov	 ecx, eax
  00045	e8 00 00 00 00	 call	 ??6StringStream@@QAEAAV0@ABV?$basic_string@DV?$char_traits@D@_STL@@V?$allocator@D@2@@_STL@@@Z ; StringStream::operator<<
  0004a	8b c8		 mov	 ecx, eax
  0004c	e8 00 00 00 00	 call	 ??6StringStream@@QAEAAV0@D@Z ; StringStream::operator<<
  00051	8b c8		 mov	 ecx, eax
  00053	e8 00 00 00 00	 call	 ??6StringStream@@QAEAAV0@ABV?$basic_string@DV?$char_traits@D@_STL@@V?$allocator@D@2@@_STL@@@Z ; StringStream::operator<<
  00058	8d 4d f4	 lea	 ecx, DWORD PTR $T104906[ebp]
  0005b	e8 00 00 00 00	 call	 ??1?$basic_string@DV?$char_traits@D@_STL@@V?$allocator@D@2@@_STL@@QAE@XZ ; _STL::basic_string<char,_STL::char_traits<char>,_STL::allocator<char> >::~basic_string<char,_STL::char_traits<char>,_STL::allocator<char> >
  00060	8d 4d e8	 lea	 ecx, DWORD PTR $T104907[ebp]
  00063	e8 00 00 00 00	 call	 ??1?$basic_string@DV?$char_traits@D@_STL@@V?$allocator@D@2@@_STL@@QAE@XZ ; _STL::basic_string<char,_STL::char_traits<char>,_STL::allocator<char> >::~basic_string<char,_STL::char_traits<char>,_STL::allocator<char> >

; 83   : 		
; 84   : 		return std::string( buf.toString() );

  00068	8d 45 e8	 lea	 eax, DWORD PTR $T104908[ebp]
  0006b	50		 push	 eax
  0006c	8d 4d d4	 lea	 ecx, DWORD PTR _buf$[ebp]
  0006f	e8 00 00 00 00	 call	 ?toString@StringStream@@QBE?AV?$basic_string@DV?$char_traits@D@_STL@@V?$allocator@D@2@@_STL@@XZ ; StringStream::toString
  00074	8b 4d 08	 mov	 ecx, DWORD PTR ___$ReturnUdt$[ebp]
  00077	50		 push	 eax
  00078	e8 00 00 00 00	 call	 ??0?$basic_string@DV?$char_traits@D@_STL@@V?$allocator@D@2@@_STL@@QAE@ABV01@@Z ; _STL::basic_string<char,_STL::char_traits<char>,_STL::allocator<char> >::basic_string<char,_STL::char_traits<char>,_STL::allocator<char> >
  0007d	8d 4d e8	 lea	 ecx, DWORD PTR $T104908[ebp]
  00080	e8 00 00 00 00	 call	 ??1?$basic_string@DV?$char_traits@D@_STL@@V?$allocator@D@2@@_STL@@QAE@XZ ; _STL::basic_string<char,_STL::char_traits<char>,_STL::allocator<char> >::~basic_string<char,_STL::char_traits<char>,_STL::allocator<char> >
  00085	8d 4d d4	 lea	 ecx, DWORD PTR _buf$[ebp]
  00088	e8 00 00 00 00	 call	 ??1StringStream@@QAE@XZ	; StringStream::~StringStream
  0008d	8b 45 08	 mov	 eax, DWORD PTR ___$ReturnUdt$[ebp]
  00090	5e		 pop	 esi

; 85   : 	}

  00091	c9		 leave
  00092	c2 04 00	 ret	 4
?toString@Throwable@@UBE?AV?$basic_string@DV?$char_traits@D@_STL@@V?$allocator@D@2@@_STL@@XZ ENDP ; Throwable::toString
_TEXT	ENDS
PUBLIC	??$_M_range_initialize@PAD@?$basic_string@DV?$char_traits@D@_STL@@V?$allocator@D@2@@_STL@@AAEXPAD0ABUforward_iterator_tag@1@@Z ; _STL::basic_string<char,_STL::char_traits<char>,_STL::allocator<char> >::_M_range_initialize<char *>
PUBLIC	?get_allocator@?$basic_string@DV?$char_traits@D@_STL@@V?$allocator@D@2@@_STL@@QBE?AV?$allocator@D@2@XZ ; _STL::basic_string<char,_STL::char_traits<char>,_STL::allocator<char> >::get_allocator
;	COMDAT xdata$x
; File c:\stlport-4.6.1\stlport\stl\_string.h
xdata$x	SEGMENT
$T104989 DD	0ffffffffH
	DD	FLAT:$L104912
$T104987 DD	019930520H
	DD	01H
	DD	FLAT:$T104989
	DD	2 DUP(00H)
	DD	2 DUP(00H)
; Function compile flags: /Ogsy
; File c:\stlport-4.6.1\stlport\stl\_string.c
xdata$x	ENDS
;	COMDAT ??0?$basic_string@DV?$char_traits@D@_STL@@V?$allocator@D@2@@_STL@@QAE@ABV01@@Z
_TEXT	SEGMENT
_this$ = -20						; size = 4
$T104983 = -13						; size = 1
__$EHRec$ = -12						; size = 12
___s$ = 8						; size = 4
$T104911 = 11						; size = 1
??0?$basic_string@DV?$char_traits@D@_STL@@V?$allocator@D@2@@_STL@@QAE@ABV01@@Z PROC NEAR ; _STL::basic_string<char,_STL::char_traits<char>,_STL::allocator<char> >::basic_string<char,_STL::char_traits<char>,_STL::allocator<char> >, COMDAT
; _this$ = ecx

; 560  : {  

  00000	b8 00 00 00 00	 mov	 eax, __ehhandler$??0?$basic_string@DV?$char_traits@D@_STL@@V?$allocator@D@2@@_STL@@QAE@ABV01@@Z
  00005	e8 00 00 00 00	 call	 __EH_prolog
  0000a	51		 push	 ecx
  0000b	51		 push	 ecx
  0000c	56		 push	 esi
  0000d	8b 75 08	 mov	 esi, DWORD PTR ___s$[ebp]
  00010	57		 push	 edi
  00011	8b f9		 mov	 edi, ecx
  00013	8d 45 0b	 lea	 eax, DWORD PTR $T104911[ebp]
  00016	50		 push	 eax
  00017	8b ce		 mov	 ecx, esi
  00019	89 7d ec	 mov	 DWORD PTR _this$[ebp], edi
  0001c	e8 00 00 00 00	 call	 ?get_allocator@?$basic_string@DV?$char_traits@D@_STL@@V?$allocator@D@2@@_STL@@QBE?AV?$allocator@D@2@XZ ; _STL::basic_string<char,_STL::char_traits<char>,_STL::allocator<char> >::get_allocator
  00021	50		 push	 eax
  00022	8b cf		 mov	 ecx, edi
  00024	e8 00 00 00 00	 call	 ??0?$_String_base@DV?$allocator@D@_STL@@@_STL@@QAE@ABV?$allocator@D@1@@Z ; _STL::_String_base<char,_STL::allocator<char> >::_String_base<char,_STL::allocator<char> >
  00029	83 65 fc 00	 and	 DWORD PTR __$EHRec$[ebp+8], 0

; 561  :   _M_range_initialize(__s._M_start, __s._M_finish);  

  0002d	8d 45 f3	 lea	 eax, DWORD PTR $T104983[ebp]
  00030	50		 push	 eax
  00031	ff 76 04	 push	 DWORD PTR [esi+4]
  00034	8b cf		 mov	 ecx, edi
  00036	ff 36		 push	 DWORD PTR [esi]
  00038	e8 00 00 00 00	 call	 ??$_M_range_initialize@PAD@?$basic_string@DV?$char_traits@D@_STL@@V?$allocator@D@2@@_STL@@AAEXPAD0ABUforward_iterator_tag@1@@Z ; _STL::basic_string<char,_STL::char_traits<char>,_STL::allocator<char> >::_M_range_initialize<char *>

; 562  : } 

  0003d	8b 4d f4	 mov	 ecx, DWORD PTR __$EHRec$[ebp]
  00040	8b c7		 mov	 eax, edi
  00042	5f		 pop	 edi
  00043	5e		 pop	 esi
  00044	64 89 0d 00 00
	00 00		 mov	 DWORD PTR fs:__except_list, ecx
  0004b	c9		 leave
  0004c	c2 04 00	 ret	 4
_TEXT	ENDS
;	COMDAT text$x
text$x	SEGMENT
$L104912:
  00000	8b 4d ec	 mov	 ecx, DWORD PTR _this$[ebp]
  00003	e9 00 00 00 00	 jmp	 ??1?$_String_base@DV?$allocator@D@_STL@@@_STL@@QAE@XZ ; _STL::_String_base<char,_STL::allocator<char> >::~_String_base<char,_STL::allocator<char> >
__ehhandler$??0?$basic_string@DV?$char_traits@D@_STL@@V?$allocator@D@2@@_STL@@QAE@ABV01@@Z:
  00008	b8 00 00 00 00	 mov	 eax, OFFSET FLAT:$T104987
  0000d	e9 00 00 00 00	 jmp	 ___CxxFrameHandler
text$x	ENDS
??0?$basic_string@DV?$char_traits@D@_STL@@V?$allocator@D@2@@_STL@@QAE@ABV01@@Z ENDP ; _STL::basic_string<char,_STL::char_traits<char>,_STL::allocator<char> >::basic_string<char,_STL::char_traits<char>,_STL::allocator<char> >
; Function compile flags: /Ogsy
; File c:\stlport-4.6.1\stlport\stl\_string.h
;	COMDAT ?get_allocator@?$basic_string@DV?$char_traits@D@_STL@@V?$allocator@D@2@@_STL@@QBE?AV?$allocator@D@2@XZ
_TEXT	SEGMENT
___$ReturnUdt$ = 8					; size = 4
?get_allocator@?$basic_string@DV?$char_traits@D@_STL@@V?$allocator@D@2@@_STL@@QBE?AV?$allocator@D@2@XZ PROC NEAR ; _STL::basic_string<char,_STL::char_traits<char>,_STL::allocator<char> >::get_allocator, COMDAT
; _this$ = ecx

; 216  :     return _STLP_CONVERT_ALLOCATOR((const allocator_type&)this->_M_end_of_storage, _CharT);

  00000	8b 44 24 04	 mov	 eax, DWORD PTR ___$ReturnUdt$[esp-4]

; 217  :   }

  00004	c2 04 00	 ret	 4
?get_allocator@?$basic_string@DV?$char_traits@D@_STL@@V?$allocator@D@2@@_STL@@QBE?AV?$allocator@D@2@XZ ENDP ; _STL::basic_string<char,_STL::char_traits<char>,_STL::allocator<char> >::get_allocator
_TEXT	ENDS
PUBLIC	??$uninitialized_copy@PADPAD@_STL@@YAPADPAD00@Z	; _STL::uninitialized_copy<char *,char *>
; Function compile flags: /Ogsy
;	COMDAT ??$_M_range_initialize@PAD@?$basic_string@DV?$char_traits@D@_STL@@V?$allocator@D@2@@_STL@@AAEXPAD0ABUforward_iterator_tag@1@@Z
_TEXT	SEGMENT
___f$ = 8						; size = 4
___l$ = 12						; size = 4
___formal$ = 16						; size = 4
??$_M_range_initialize@PAD@?$basic_string@DV?$char_traits@D@_STL@@V?$allocator@D@2@@_STL@@AAEXPAD0ABUforward_iterator_tag@1@@Z PROC NEAR ; _STL::basic_string<char,_STL::char_traits<char>,_STL::allocator<char> >::_M_range_initialize<char *>, COMDAT
; _this$ = ecx

; 383  :                            const forward_iterator_tag &) {
; 384  :     difference_type __n = distance(__f, __l);
; 385  :     this->_M_allocate_block(__n + 1);

  00000	8b 44 24 08	 mov	 eax, DWORD PTR ___l$[esp-4]
  00004	2b 44 24 04	 sub	 eax, DWORD PTR ___f$[esp-4]
  00008	56		 push	 esi
  00009	40		 inc	 eax
  0000a	50		 push	 eax
  0000b	8b f1		 mov	 esi, ecx
  0000d	e8 00 00 00 00	 call	 ?_M_allocate_block@?$_String_base@DV?$allocator@D@_STL@@@_STL@@QAEXI@Z ; _STL::_String_base<char,_STL::allocator<char> >::_M_allocate_block

; 386  :     this->_M_finish = uninitialized_copy(__f, __l, this->_M_start);

  00012	ff 36		 push	 DWORD PTR [esi]
  00014	ff 74 24 10	 push	 DWORD PTR ___l$[esp+4]
  00018	ff 74 24 10	 push	 DWORD PTR ___f$[esp+8]
  0001c	e8 00 00 00 00	 call	 ??$uninitialized_copy@PADPAD@_STL@@YAPADPAD00@Z ; _STL::uninitialized_copy<char *,char *>
  00021	83 c4 0c	 add	 esp, 12			; 0000000cH
  00024	89 46 04	 mov	 DWORD PTR [esi+4], eax

; 387  :     _M_terminate_string();

  00027	c6 00 00	 mov	 BYTE PTR [eax], 0
  0002a	5e		 pop	 esi

; 388  :   }

  0002b	c2 0c 00	 ret	 12			; 0000000cH
??$_M_range_initialize@PAD@?$basic_string@DV?$char_traits@D@_STL@@V?$allocator@D@2@@_STL@@AAEXPAD0ABUforward_iterator_tag@1@@Z ENDP ; _STL::basic_string<char,_STL::char_traits<char>,_STL::allocator<char> >::_M_range_initialize<char *>
_TEXT	ENDS
PUBLIC	??$__copy_aux@PADPAD@_STL@@YAPADPAD00ABU__true_type@0@@Z ; _STL::__copy_aux<char *,char *>
; Function compile flags: /Ogsy
; File c:\stlport-4.6.1\stlport\stl\_uninitialized.h
;	COMDAT ??$uninitialized_copy@PADPAD@_STL@@YAPADPAD00@Z
_TEXT	SEGMENT
$T105100 = -1						; size = 1
$T105098 = -1						; size = 1
___first$ = 8						; size = 4
___last$ = 12						; size = 4
___result$ = 16						; size = 4
??$uninitialized_copy@PADPAD@_STL@@YAPADPAD00@Z PROC NEAR ; _STL::uninitialized_copy<char *,char *>, COMDAT

; 78   : uninitialized_copy(_InputIter __first, _InputIter __last, _ForwardIter __result) {

  00000	55		 push	 ebp
  00001	8b ec		 mov	 ebp, esp
  00003	51		 push	 ecx
  00004	57		 push	 edi

; 79   :   return __uninitialized_copy(__first, __last, __result,  _IS_POD_ITER(__result, _ForwardIter));

  00005	33 c0		 xor	 eax, eax
  00007	8d 7d ff	 lea	 edi, DWORD PTR $T105100[ebp]
  0000a	aa		 stosb
  0000b	8a 45 ff	 mov	 al, BYTE PTR $T105100[ebp]
  0000e	88 45 ff	 mov	 BYTE PTR $T105098[ebp], al
  00011	8d 45 ff	 lea	 eax, DWORD PTR $T105098[ebp]
  00014	50		 push	 eax
  00015	ff 75 10	 push	 DWORD PTR ___result$[ebp]
  00018	ff 75 0c	 push	 DWORD PTR ___last$[ebp]
  0001b	ff 75 08	 push	 DWORD PTR ___first$[ebp]
  0001e	e8 00 00 00 00	 call	 ??$__copy_aux@PADPAD@_STL@@YAPADPAD00ABU__true_type@0@@Z ; _STL::__copy_aux<char *,char *>
  00023	83 c4 10	 add	 esp, 16			; 00000010H
  00026	5f		 pop	 edi

; 80   : }

  00027	c9		 leave
  00028	c3		 ret	 0
??$uninitialized_copy@PADPAD@_STL@@YAPADPAD00@Z ENDP	; _STL::uninitialized_copy<char *,char *>
; Function compile flags: /Ogsy
; File c:\stlport-4.6.1\stlport\stl\_algobase.h
_TEXT	ENDS
;	COMDAT ??$__copy_aux@PADPAD@_STL@@YAPADPAD00ABU__true_type@0@@Z
_TEXT	SEGMENT
___first$ = 8						; size = 4
___last$ = 12						; size = 4
___result$ = 16						; size = 4
___formal$ = 20						; size = 4
??$__copy_aux@PADPAD@_STL@@YAPADPAD00ABU__true_type@0@@Z PROC NEAR ; _STL::__copy_aux<char *,char *>, COMDAT

; 201  : inline _OutputIter __copy_aux(_InputIter __first, _InputIter __last, _OutputIter __result, const __true_type&) {

  00000	55		 push	 ebp
  00001	8b ec		 mov	 ebp, esp
  00003	56		 push	 esi

; 202  :   return __copy_ptrs(__first, __last, __result, 
; 203  :                      _IsOKToMemCpy(_STLP_VALUE_TYPE(__first, _InputIter), 
; 204  :                                    _STLP_VALUE_TYPE(__result, _OutputIter))._Ret());

  00004	8b 75 0c	 mov	 esi, DWORD PTR ___last$[ebp]
  00007	3b 75 08	 cmp	 esi, DWORD PTR ___first$[ebp]
  0000a	75 05		 jne	 SHORT $L105128
  0000c	8b 45 10	 mov	 eax, DWORD PTR ___result$[ebp]
  0000f	eb 14		 jmp	 SHORT $L105129
$L105128:
  00011	2b 75 08	 sub	 esi, DWORD PTR ___first$[ebp]
  00014	56		 push	 esi
  00015	ff 75 08	 push	 DWORD PTR ___first$[ebp]
  00018	ff 75 10	 push	 DWORD PTR ___result$[ebp]
  0001b	e8 00 00 00 00	 call	 _memmove
  00020	83 c4 0c	 add	 esp, 12			; 0000000cH
  00023	03 c6		 add	 eax, esi
$L105129:
  00025	5e		 pop	 esi

; 205  : }

  00026	5d		 pop	 ebp
  00027	c3		 ret	 0
??$__copy_aux@PADPAD@_STL@@YAPADPAD00ABU__true_type@0@@Z ENDP ; _STL::__copy_aux<char *,char *>
_TEXT	ENDS
PUBLIC	??_C@_01CLKCMJKC@?5?$AA@			; `string'
;	COMDAT ??_C@_01CLKCMJKC@?5?$AA@
; File c:\stlport-4.6.1\stlport\stl\_list.h
CONST	SEGMENT
??_C@_01CLKCMJKC@?5?$AA@ DB ' ', 00H			; `string'
; Function compile flags: /Ogsy
; File c:\darkeden\designed_common\project\client\packet\exception.h
CONST	ENDS
;	COMDAT ?getStackTrace@Throwable@@QBE?AV?$basic_string@DV?$char_traits@D@_STL@@V?$allocator@D@2@@_STL@@XZ
_TEXT	SEGMENT
_buf$ = -36						; size = 20
$T105135 = -16						; size = 12
tv90 = -4						; size = 4
___$ReturnUdt$ = 8					; size = 4
?getStackTrace@Throwable@@QBE?AV?$basic_string@DV?$char_traits@D@_STL@@V?$allocator@D@2@@_STL@@XZ PROC NEAR ; Throwable::getStackTrace, COMDAT
; _this$ = ecx

; 56   : 	{

  00000	55		 push	 ebp
  00001	8b ec		 mov	 ebp, esp
  00003	83 ec 24	 sub	 esp, 36			; 00000024H
  00006	53		 push	 ebx
  00007	56		 push	 esi
  00008	57		 push	 edi
  00009	8b f9		 mov	 edi, ecx

; 57   : 		StringStream buf;

  0000b	8d 4d dc	 lea	 ecx, DWORD PTR _buf$[ebp]
  0000e	e8 00 00 00 00	 call	 ??0StringStream@@QAE@XZ	; StringStream::StringStream

; 58   : 		int i = 1;
; 59   : 
; 60   : 		for ( std::list<std::string>::const_iterator itr = m_Stacks.begin() ;

  00013	8b 47 10	 mov	 eax, DWORD PTR [edi+16]
  00016	8b 30		 mov	 esi, DWORD PTR [eax]
  00018	33 db		 xor	 ebx, ebx
  0001a	43		 inc	 ebx

; 61   : 			  itr != m_Stacks.end() ;
; 62   : 			  itr ++ , i ++ ) {

  0001b	3b f0		 cmp	 esi, eax
  0001d	74 36		 je	 SHORT $L88001
$L87999:

; 63   : 			for ( int j = 0 ; j < i ; j ++ )

  0001f	85 db		 test	 ebx, ebx
  00021	7e 15		 jle	 SHORT $L88005
  00023	89 5d fc	 mov	 DWORD PTR tv90[ebp], ebx
$L88003:

; 64   : 				buf << " ";

  00026	68 00 00 00 00	 push	 OFFSET FLAT:??_C@_01CLKCMJKC@?5?$AA@
  0002b	8d 4d dc	 lea	 ecx, DWORD PTR _buf$[ebp]
  0002e	e8 00 00 00 00	 call	 ??6StringStream@@QAEAAV0@PBD@Z ; StringStream::operator<<
  00033	ff 4d fc	 dec	 DWORD PTR tv90[ebp]
  00036	75 ee		 jne	 SHORT $L88003
$L88005:

; 65   : 			buf << *itr << '\n' ;

  00038	6a 0a		 push	 10			; 0000000aH
  0003a	8d 46 08	 lea	 eax, DWORD PTR [esi+8]
  0003d	50		 push	 eax
  0003e	8d 4d dc	 lea	 ecx, DWORD PTR _buf$[ebp]
  00041	e8 00 00 00 00	 call	 ??6StringStream@@QAEAAV0@ABV?$basic_string@DV?$char_traits@D@_STL@@V?$allocator@D@2@@_STL@@@Z ; StringStream::operator<<
  00046	8b c8		 mov	 ecx, eax
  00048	e8 00 00 00 00	 call	 ??6StringStream@@QAEAAV0@D@Z ; StringStream::operator<<
  0004d	8b 36		 mov	 esi, DWORD PTR [esi]
  0004f	43		 inc	 ebx
  00050	3b 77 10	 cmp	 esi, DWORD PTR [edi+16]
  00053	75 ca		 jne	 SHORT $L87999
$L88001:

; 66   : 		}
; 67   : 		
; 68   : 		return std::string( buf.toString() );

  00055	8d 45 f0	 lea	 eax, DWORD PTR $T105135[ebp]
  00058	50		 push	 eax
  00059	8d 4d dc	 lea	 ecx, DWORD PTR _buf$[ebp]
  0005c	e8 00 00 00 00	 call	 ?toString@StringStream@@QBE?AV?$basic_string@DV?$char_traits@D@_STL@@V?$allocator@D@2@@_STL@@XZ ; StringStream::toString
  00061	8b 4d 08	 mov	 ecx, DWORD PTR ___$ReturnUdt$[ebp]
  00064	50		 push	 eax
  00065	e8 00 00 00 00	 call	 ??0?$basic_string@DV?$char_traits@D@_STL@@V?$allocator@D@2@@_STL@@QAE@ABV01@@Z ; _STL::basic_string<char,_STL::char_traits<char>,_STL::allocator<char> >::basic_string<char,_STL::char_traits<char>,_STL::allocator<char> >
  0006a	8d 4d f0	 lea	 ecx, DWORD PTR $T105135[ebp]
  0006d	e8 00 00 00 00	 call	 ??1?$basic_string@DV?$char_traits@D@_STL@@V?$allocator@D@2@@_STL@@QAE@XZ ; _STL::basic_string<char,_STL::char_traits<char>,_STL::allocator<char> >::~basic_string<char,_STL::char_traits<char>,_STL::allocator<char> >
  00072	8d 4d dc	 lea	 ecx, DWORD PTR _buf$[ebp]
  00075	e8 00 00 00 00	 call	 ??1StringStream@@QAE@XZ	; StringStream::~StringStream
  0007a	8b 45 08	 mov	 eax, DWORD PTR ___$ReturnUdt$[ebp]
  0007d	5f		 pop	 edi
  0007e	5e		 pop	 esi
  0007f	5b		 pop	 ebx

; 69   : 	}

  00080	c9		 leave
  00081	c2 04 00	 ret	 4
?getStackTrace@Throwable@@QBE?AV?$basic_string@DV?$char_traits@D@_STL@@V?$allocator@D@2@@_STL@@XZ ENDP ; Throwable::getStackTrace
_TEXT	ENDS
PUBLIC	?getName@Error@@UBE?AV?$basic_string@DV?$char_traits@D@_STL@@V?$allocator@D@2@@_STL@@XZ ; Error::getName
PUBLIC	??_7Error@@6B@					; Error::`vftable'
PUBLIC	??_GError@@UAEPAXI@Z				; Error::`scalar deleting destructor'
PUBLIC	??_R4Error@@6B@					; Error::`RTTI Complete Object Locator'
PUBLIC	??_R3Error@@8					; Error::`RTTI Class Hierarchy Descriptor'
PUBLIC	??_R2Error@@8					; Error::`RTTI Base Class Array'
PUBLIC	??0Throwable@@QAE@XZ				; Throwable::Throwable
EXTRN	??_EError@@UAEPAXI@Z:NEAR			; Error::`vector deleting destructor'
;	COMDAT ??_7Error@@6B@
CONST	SEGMENT
??_7Error@@6B@ DD FLAT:??_R4Error@@6B@			; Error::`vftable'
	DD	FLAT:??_EError@@UAEPAXI@Z
	DD	FLAT:?getName@Error@@UBE?AV?$basic_string@DV?$char_traits@D@_STL@@V?$allocator@D@2@@_STL@@XZ
	DD	FLAT:?toString@Throwable@@UBE?AV?$basic_string@DV?$char_traits@D@_STL@@V?$allocator@D@2@@_STL@@XZ
CONST	ENDS
;	COMDAT ??_R4Error@@6B@
rdata$r	SEGMENT
??_R4Error@@6B@ DD 00H					; Error::`RTTI Complete Object Locator'
	DD	00H
	DD	00H
	DD	FLAT:??_R0?AVError@@@8
	DD	FLAT:??_R3Error@@8
rdata$r	ENDS
;	COMDAT ??_R3Error@@8
rdata$r	SEGMENT
??_R3Error@@8 DD 00H					; Error::`RTTI Class Hierarchy Descriptor'
	DD	00H
	DD	02H
	DD	FLAT:??_R2Error@@8
rdata$r	ENDS
;	COMDAT ??_R2Error@@8
rdata$r	SEGMENT
??_R2Error@@8 DD FLAT:??_R1A@?0A@A@Error@@8		; Error::`RTTI Base Class Array'
	DD	FLAT:??_R1A@?0A@A@Throwable@@8
; Function compile flags: /Ogsy
rdata$r	ENDS
;	COMDAT ??0Error@@QAE@XZ
_TEXT	SEGMENT
??0Error@@QAE@XZ PROC NEAR				; Error::Error, COMDAT
; _this$ = ecx

; 675  : 	Error () throw () : Throwable() {}

  00000	56		 push	 esi
  00001	8b f1		 mov	 esi, ecx
  00003	e8 00 00 00 00	 call	 ??0Throwable@@QAE@XZ	; Throwable::Throwable
  00008	c7 06 00 00 00
	00		 mov	 DWORD PTR [esi], OFFSET FLAT:??_7Error@@6B@
  0000e	8b c6		 mov	 eax, esi
  00010	5e		 pop	 esi
  00011	c3		 ret	 0
??0Error@@QAE@XZ ENDP					; Error::Error
_TEXT	ENDS
PUBLIC	??_C@_05NAOIJFC@Error?$AA@			; `string'
;	COMDAT ??_C@_05NAOIJFC@Error?$AA@
; File c:\stlport-4.6.1\stlport\stl\_alloc.h
CONST	SEGMENT
??_C@_05NAOIJFC@Error?$AA@ DB 'Error', 00H		; `string'
; Function compile flags: /Ogsy
; File c:\darkeden\designed_common\project\client\packet\exception.h
CONST	ENDS
;	COMDAT ?getName@Error@@UBE?AV?$basic_string@DV?$char_traits@D@_STL@@V?$allocator@D@2@@_STL@@XZ
_TEXT	SEGMENT
___$ReturnUdt$ = 8					; size = 4
$T105192 = 11						; size = 1
?getName@Error@@UBE?AV?$basic_string@DV?$char_traits@D@_STL@@V?$allocator@D@2@@_STL@@XZ PROC NEAR ; Error::getName, COMDAT
; _this$ = ecx

; 677  : 	std::string getName () const throw () { return "Error"; }

  00000	55		 push	 ebp
  00001	8b ec		 mov	 ebp, esp
  00003	8b 4d 08	 mov	 ecx, DWORD PTR ___$ReturnUdt$[ebp]
  00006	8d 45 0b	 lea	 eax, DWORD PTR $T105192[ebp]
  00009	50		 push	 eax
  0000a	68 00 00 00 00	 push	 OFFSET FLAT:??_C@_05NAOIJFC@Error?$AA@
  0000f	e8 00 00 00 00	 call	 ??0?$basic_string@DV?$char_traits@D@_STL@@V?$allocator@D@2@@_STL@@QAE@PBDABV?$allocator@D@1@@Z ; _STL::basic_string<char,_STL::char_traits<char>,_STL::allocator<char> >::basic_string<char,_STL::char_traits<char>,_STL::allocator<char> >
  00014	8b 45 08	 mov	 eax, DWORD PTR ___$ReturnUdt$[ebp]
  00017	5d		 pop	 ebp
  00018	c2 04 00	 ret	 4
?getName@Error@@UBE?AV?$basic_string@DV?$char_traits@D@_STL@@V?$allocator@D@2@@_STL@@XZ ENDP ; Error::getName
_TEXT	ENDS
PUBLIC	??0?$list@V?$basic_string@DV?$char_traits@D@_STL@@V?$allocator@D@2@@_STL@@V?$allocator@V?$basic_string@DV?$char_traits@D@_STL@@V?$allocator@D@2@@_STL@@@2@@_STL@@QAE@ABV?$allocator@V?$basic_string@DV?$char_traits@D@_STL@@V?$allocator@D@2@@_STL@@@1@@Z ; _STL::list<_STL::basic_string<char,_STL::char_traits<char>,_STL::allocator<char> >,_STL::allocator<_STL::basic_string<char,_STL::char_traits<char>,_STL::allocator<char> > > >::list<_STL::basic_string<char,_STL::char_traits<char>,_STL::allocator<char> >,_STL::allocator<_STL::basic_string<char,_STL::char_traits<char>,_STL::allocator<char> > > >
PUBLIC	?getName@Throwable@@UBE?AV?$basic_string@DV?$char_traits@D@_STL@@V?$allocator@D@2@@_STL@@XZ ; Throwable::getName
PUBLIC	??_R4Throwable@@6B@				; Throwable::`RTTI Complete Object Locator'
PUBLIC	??_R3Throwable@@8				; Throwable::`RTTI Class Hierarchy Descriptor'
PUBLIC	??_R2Throwable@@8				; Throwable::`RTTI Base Class Array'
PUBLIC	??_7Throwable@@6B@				; Throwable::`vftable'
PUBLIC	??_GThrowable@@UAEPAXI@Z			; Throwable::`scalar deleting destructor'
EXTRN	??_EThrowable@@UAEPAXI@Z:NEAR			; Throwable::`vector deleting destructor'
;	COMDAT ??_7Throwable@@6B@
; File c:\stlport-4.6.1\stlport\stl\_alloc.h
CONST	SEGMENT
??_7Throwable@@6B@ DD FLAT:??_R4Throwable@@6B@		; Throwable::`vftable'
	DD	FLAT:??_EThrowable@@UAEPAXI@Z
	DD	FLAT:?getName@Throwable@@UBE?AV?$basic_string@DV?$char_traits@D@_STL@@V?$allocator@D@2@@_STL@@XZ
	DD	FLAT:?toString@Throwable@@UBE?AV?$basic_string@DV?$char_traits@D@_STL@@V?$allocator@D@2@@_STL@@XZ
CONST	ENDS
;	COMDAT ??_R4Throwable@@6B@
rdata$r	SEGMENT
??_R4Throwable@@6B@ DD 00H				; Throwable::`RTTI Complete Object Locator'
	DD	00H
	DD	00H
	DD	FLAT:??_R0?AVThrowable@@@8
	DD	FLAT:??_R3Throwable@@8
rdata$r	ENDS
;	COMDAT ??_R3Throwable@@8
rdata$r	SEGMENT
??_R3Throwable@@8 DD 00H				; Throwable::`RTTI Class Hierarchy Descriptor'
	DD	00H
	DD	01H
	DD	FLAT:??_R2Throwable@@8
rdata$r	ENDS
;	COMDAT ??_R2Throwable@@8
rdata$r	SEGMENT
??_R2Throwable@@8 DD FLAT:??_R1A@?0A@A@Throwable@@8	; Throwable::`RTTI Base Class Array'
; Function compile flags: /Ogsy
; File c:\darkeden\designed_common\project\client\packet\exception.h
rdata$r	ENDS
;	COMDAT ??0Throwable@@QAE@XZ
_TEXT	SEGMENT
$T105201 = -1						; size = 1
??0Throwable@@QAE@XZ PROC NEAR				; Throwable::Throwable, COMDAT
; _this$ = ecx

; 37   : 	Throwable () throw () {}

  00000	51		 push	 ecx
  00001	56		 push	 esi
  00002	8b f1		 mov	 esi, ecx
  00004	8d 4e 04	 lea	 ecx, DWORD PTR [esi+4]
  00007	c7 06 00 00 00
	00		 mov	 DWORD PTR [esi], OFFSET FLAT:??_7Throwable@@6B@
  0000d	e8 00 00 00 00	 call	 ??0?$basic_string@DV?$char_traits@D@_STL@@V?$allocator@D@2@@_STL@@QAE@XZ ; _STL::basic_string<char,_STL::char_traits<char>,_STL::allocator<char> >::basic_string<char,_STL::char_traits<char>,_STL::allocator<char> >
  00012	8d 44 24 07	 lea	 eax, DWORD PTR $T105201[esp+8]
  00016	50		 push	 eax
  00017	8d 4e 10	 lea	 ecx, DWORD PTR [esi+16]
  0001a	e8 00 00 00 00	 call	 ??0?$list@V?$basic_string@DV?$char_traits@D@_STL@@V?$allocator@D@2@@_STL@@V?$allocator@V?$basic_string@DV?$char_traits@D@_STL@@V?$allocator@D@2@@_STL@@@2@@_STL@@QAE@ABV?$allocator@V?$basic_string@DV?$char_traits@D@_STL@@V?$allocator@D@2@@_STL@@@1@@Z ; _STL::list<_STL::basic_string<char,_STL::char_traits<char>,_STL::allocator<char> >,_STL::allocator<_STL::basic_string<char,_STL::char_traits<char>,_STL::allocator<char> > > >::list<_STL::basic_string<char,_STL::char_traits<char>,_STL::allocator<char> >,_STL::allocator<_STL::basic_string<char,_STL::char_traits<char>,_STL::allocator<char> > > >
  0001f	8b c6		 mov	 eax, esi
  00021	5e		 pop	 esi
  00022	59		 pop	 ecx
  00023	c3		 ret	 0
??0Throwable@@QAE@XZ ENDP				; Throwable::Throwable
_TEXT	ENDS
PUBLIC	??_C@_09KCKHMJEM@Throwable?$AA@			; `string'
;	COMDAT ??_C@_09KCKHMJEM@Throwable?$AA@
; File c:\stlport-4.6.1\stlport\stl\_alloc.h
CONST	SEGMENT
??_C@_09KCKHMJEM@Throwable?$AA@ DB 'Throwable', 00H	; `string'
; Function compile flags: /Ogsy
; File c:\darkeden\designed_common\project\client\packet\exception.h
CONST	ENDS
;	COMDAT ?getName@Throwable@@UBE?AV?$basic_string@DV?$char_traits@D@_STL@@V?$allocator@D@2@@_STL@@XZ
_TEXT	SEGMENT
___$ReturnUdt$ = 8					; size = 4
$T105211 = 11						; size = 1
?getName@Throwable@@UBE?AV?$basic_string@DV?$char_traits@D@_STL@@V?$allocator@D@2@@_STL@@XZ PROC NEAR ; Throwable::getName, COMDAT
; _this$ = ecx

; 46   : 	virtual std::string getName () const throw () { return "Throwable"; }

  00000	55		 push	 ebp
  00001	8b ec		 mov	 ebp, esp
  00003	8b 4d 08	 mov	 ecx, DWORD PTR ___$ReturnUdt$[ebp]
  00006	8d 45 0b	 lea	 eax, DWORD PTR $T105211[ebp]
  00009	50		 push	 eax
  0000a	68 00 00 00 00	 push	 OFFSET FLAT:??_C@_09KCKHMJEM@Throwable?$AA@
  0000f	e8 00 00 00 00	 call	 ??0?$basic_string@DV?$char_traits@D@_STL@@V?$allocator@D@2@@_STL@@QAE@PBDABV?$allocator@D@1@@Z ; _STL::basic_string<char,_STL::char_traits<char>,_STL::allocator<char> >::basic_string<char,_STL::char_traits<char>,_STL::allocator<char> >
  00014	8b 45 08	 mov	 eax, DWORD PTR ___$ReturnUdt$[ebp]
  00017	5d		 pop	 ebp
  00018	c2 04 00	 ret	 4
?getName@Throwable@@UBE?AV?$basic_string@DV?$char_traits@D@_STL@@V?$allocator@D@2@@_STL@@XZ ENDP ; Throwable::getName
_TEXT	ENDS
PUBLIC	??0?$_List_base@V?$basic_string@DV?$char_traits@D@_STL@@V?$allocator@D@2@@_STL@@V?$allocator@V?$basic_string@DV?$char_traits@D@_STL@@V?$allocator@D@2@@_STL@@@2@@_STL@@QAE@ABV?$allocator@V?$basic_string@DV?$char_traits@D@_STL@@V?$allocator@D@2@@_STL@@@1@@Z ; _STL::_List_base<_STL::basic_string<char,_STL::char_traits<char>,_STL::allocator<char> >,_STL::allocator<_STL::basic_string<char,_STL::char_traits<char>,_STL::allocator<char> > > >::_List_base<_STL::basic_string<char,_STL::char_traits<char>,_STL::allocator<char> >,_STL::allocator<_STL::basic_string<char,_STL::char_traits<char>,_STL::allocator<char> > > >
; Function compile flags: /Ogsy
; File c:\stlport-4.6.1\stlport\stl\_list.h
;	COMDAT ??0?$list@V?$basic_string@DV?$char_traits@D@_STL@@V?$allocator@D@2@@_STL@@V?$allocator@V?$basic_string@DV?$char_traits@D@_STL@@V?$allocator@D@2@@_STL@@@2@@_STL@@QAE@ABV?$allocator@V?$basic_string@DV?$char_traits@D@_STL@@V?$allocator@D@2@@_STL@@@1@@Z
_TEXT	SEGMENT
___a$ = 8						; size = 4
??0?$list@V?$basic_string@DV?$char_traits@D@_STL@@V?$allocator@D@2@@_STL@@V?$allocator@V?$basic_string@DV?$char_traits@D@_STL@@V?$allocator@D@2@@_STL@@@2@@_STL@@QAE@ABV?$allocator@V?$basic_string@DV?$char_traits@D@_STL@@V?$allocator@D@2@@_STL@@@1@@Z PROC NEAR ; _STL::list<_STL::basic_string<char,_STL::char_traits<char>,_STL::allocator<char> >,_STL::allocator<_STL::basic_string<char,_STL::char_traits<char>,_STL::allocator<char> > > >::list<_STL::basic_string<char,_STL::char_traits<char>,_STL::allocator<char> >,_STL::allocator<_STL::basic_string<char,_STL::char_traits<char>,_STL::allocator<char> > > >, COMDAT
; _this$ = ecx

; 264  :     _List_base<_Tp, _Alloc>(__a) {}

  00000	56		 push	 esi
  00001	ff 74 24 08	 push	 DWORD PTR ___a$[esp]
  00005	8b f1		 mov	 esi, ecx
  00007	e8 00 00 00 00	 call	 ??0?$_List_base@V?$basic_string@DV?$char_traits@D@_STL@@V?$allocator@D@2@@_STL@@V?$allocator@V?$basic_string@DV?$char_traits@D@_STL@@V?$allocator@D@2@@_STL@@@2@@_STL@@QAE@ABV?$allocator@V?$basic_string@DV?$char_traits@D@_STL@@V?$allocator@D@2@@_STL@@@1@@Z ; _STL::_List_base<_STL::basic_string<char,_STL::char_traits<char>,_STL::allocator<char> >,_STL::allocator<_STL::basic_string<char,_STL::char_traits<char>,_STL::allocator<char> > > >::_List_base<_STL::basic_string<char,_STL::char_traits<char>,_STL::allocator<char> >,_STL::allocator<_STL::basic_string<char,_STL::char_traits<char>,_STL::allocator<char> > > >
  0000c	8b c6		 mov	 eax, esi
  0000e	5e		 pop	 esi
  0000f	c2 04 00	 ret	 4
??0?$list@V?$basic_string@DV?$char_traits@D@_STL@@V?$allocator@D@2@@_STL@@V?$allocator@V?$basic_string@DV?$char_traits@D@_STL@@V?$allocator@D@2@@_STL@@@2@@_STL@@QAE@ABV?$allocator@V?$basic_string@DV?$char_traits@D@_STL@@V?$allocator@D@2@@_STL@@@1@@Z ENDP ; _STL::list<_STL::basic_string<char,_STL::char_traits<char>,_STL::allocator<char> >,_STL::allocator<_STL::basic_string<char,_STL::char_traits<char>,_STL::allocator<char> > > >::list<_STL::basic_string<char,_STL::char_traits<char>,_STL::allocator<char> >,_STL::allocator<_STL::basic_string<char,_STL::char_traits<char>,_STL::allocator<char> > > >
_TEXT	ENDS
PUBLIC	??1?$_STLP_alloc_proxy@PAU?$_List_node@V?$basic_string@DV?$char_traits@D@_STL@@V?$allocator@D@2@@_STL@@@_STL@@U12@V?$allocator@U?$_List_node@V?$basic_string@DV?$char_traits@D@_STL@@V?$allocator@D@2@@_STL@@@_STL@@@2@@_STL@@QAE@XZ ; _STL::_STLP_alloc_proxy<_STL::_List_node<_STL::basic_string<char,_STL::char_traits<char>,_STL::allocator<char> > > *,_STL::_List_node<_STL::basic_string<char,_STL::char_traits<char>,_STL::allocator<char> > >,_STL::allocator<_STL::_List_node<_STL::basic_string<char,_STL::char_traits<char>,_STL::allocator<char> > > > >::~_STLP_alloc_proxy<_STL::_List_node<_STL::basic_string<char,_STL::char_traits<char>,_STL::allocator<char> > > *,_STL::_List_node<_STL::basic_string<char,_STL::char_traits<char>,_STL::allocator<char> > >,_STL::allocator<_STL::_List_node<_STL::basic_string<char,_STL::char_traits<char>,_STL::allocator<char> > > > >
;	COMDAT xdata$x
; File c:\stlport-4.6.1\stlport\stl\_alloc.h
xdata$x	SEGMENT
$T105278 DD	0ffffffffH
	DD	FLAT:$L105252
$T105276 DD	019930520H
	DD	01H
	DD	FLAT:$T105278
	DD	2 DUP(00H)
	DD	2 DUP(00H)
; Function compile flags: /Ogsy
; File c:\stlport-4.6.1\stlport\stl\_list.h
xdata$x	ENDS
;	COMDAT ??0?$_List_base@V?$basic_string@DV?$char_traits@D@_STL@@V?$allocator@D@2@@_STL@@V?$allocator@V?$basic_string@DV?$char_traits@D@_STL@@V?$allocator@D@2@@_STL@@@2@@_STL@@QAE@ABV?$allocator@V?$basic_string@DV?$char_traits@D@_STL@@V?$allocator@D@2@@_STL@@@1@@Z
_TEXT	SEGMENT
_this$ = -16						; size = 4
__$EHRec$ = -12						; size = 12
___a$ = 8						; size = 4
??0?$_List_base@V?$basic_string@DV?$char_traits@D@_STL@@V?$allocator@D@2@@_STL@@V?$allocator@V?$basic_string@DV?$char_traits@D@_STL@@V?$allocator@D@2@@_STL@@@2@@_STL@@QAE@ABV?$allocator@V?$basic_string@DV?$char_traits@D@_STL@@V?$allocator@D@2@@_STL@@@1@@Z PROC NEAR ; _STL::_List_base<_STL::basic_string<char,_STL::char_traits<char>,_STL::allocator<char> >,_STL::allocator<_STL::basic_string<char,_STL::char_traits<char>,_STL::allocator<char> > > >::_List_base<_STL::basic_string<char,_STL::char_traits<char>,_STL::allocator<char> >,_STL::allocator<_STL::basic_string<char,_STL::char_traits<char>,_STL::allocator<char> > > >, COMDAT
; _this$ = ecx

; 182  :   _List_base(const allocator_type& __a) : _M_node(_STLP_CONVERT_ALLOCATOR(__a, _Node), (_Node*)0) {

  00000	b8 00 00 00 00	 mov	 eax, __ehhandler$??0?$_List_base@V?$basic_string@DV?$char_traits@D@_STL@@V?$allocator@D@2@@_STL@@V?$allocator@V?$basic_string@DV?$char_traits@D@_STL@@V?$allocator@D@2@@_STL@@@2@@_STL@@QAE@ABV?$allocator@V?$basic_string@DV?$char_traits@D@_STL@@V?$allocator@D@2@@_STL@@@1@@Z
  00005	e8 00 00 00 00	 call	 __EH_prolog
  0000a	51		 push	 ecx
  0000b	56		 push	 esi
  0000c	8b f1		 mov	 esi, ecx
  0000e	83 26 00	 and	 DWORD PTR [esi], 0
  00011	89 75 f0	 mov	 DWORD PTR _this$[ebp], esi
  00014	83 65 fc 00	 and	 DWORD PTR __$EHRec$[ebp+8], 0

; 183  :     _Node* __n = _M_node.allocate(1);

  00018	6a 14		 push	 20			; 00000014H
  0001a	e8 00 00 00 00	 call	 ?allocate@?$__node_alloc@$00$0A@@_STL@@SAPAXI@Z ; _STL::__node_alloc<1,0>::allocate

; 184  :     __n->_M_next = __n;

  0001f	89 00		 mov	 DWORD PTR [eax], eax

; 185  :     __n->_M_prev = __n;

  00021	89 40 04	 mov	 DWORD PTR [eax+4], eax
  00024	59		 pop	 ecx

; 186  :     _M_node._M_data = __n;
; 187  :   }

  00025	8b 4d f4	 mov	 ecx, DWORD PTR __$EHRec$[ebp]
  00028	89 06		 mov	 DWORD PTR [esi], eax
  0002a	8b c6		 mov	 eax, esi
  0002c	5e		 pop	 esi
  0002d	64 89 0d 00 00
	00 00		 mov	 DWORD PTR fs:__except_list, ecx
  00034	c9		 leave
  00035	c2 04 00	 ret	 4
_TEXT	ENDS
;	COMDAT text$x
text$x	SEGMENT
$L105252:
  00000	8b 4d f0	 mov	 ecx, DWORD PTR _this$[ebp]
  00003	e9 00 00 00 00	 jmp	 ??1?$_STLP_alloc_proxy@PAU?$_List_node@V?$basic_string@DV?$char_traits@D@_STL@@V?$allocator@D@2@@_STL@@@_STL@@U12@V?$allocator@U?$_List_node@V?$basic_string@DV?$char_traits@D@_STL@@V?$allocator@D@2@@_STL@@@_STL@@@2@@_STL@@QAE@XZ
__ehhandler$??0?$_List_base@V?$basic_string@DV?$char_traits@D@_STL@@V?$allocator@D@2@@_STL@@V?$allocator@V?$basic_string@DV?$char_traits@D@_STL@@V?$allocator@D@2@@_STL@@@2@@_STL@@QAE@ABV?$allocator@V?$basic_string@DV?$char_traits@D@_STL@@V?$allocator@D@2@@_STL@@@1@@Z:
  00008	b8 00 00 00 00	 mov	 eax, OFFSET FLAT:$T105276
  0000d	e9 00 00 00 00	 jmp	 ___CxxFrameHandler
text$x	ENDS
??0?$_List_base@V?$basic_string@DV?$char_traits@D@_STL@@V?$allocator@D@2@@_STL@@V?$allocator@V?$basic_string@DV?$char_traits@D@_STL@@V?$allocator@D@2@@_STL@@@2@@_STL@@QAE@ABV?$allocator@V?$basic_string@DV?$char_traits@D@_STL@@V?$allocator@D@2@@_STL@@@1@@Z ENDP ; _STL::_List_base<_STL::basic_string<char,_STL::char_traits<char>,_STL::allocator<char> >,_STL::allocator<_STL::basic_string<char,_STL::char_traits<char>,_STL::allocator<char> > > >::_List_base<_STL::basic_string<char,_STL::char_traits<char>,_STL::allocator<char> >,_STL::allocator<_STL::basic_string<char,_STL::char_traits<char>,_STL::allocator<char> > > >
; Function compile flags: /Ogsy
;	COMDAT ??1?$_STLP_alloc_proxy@PAU?$_List_node@V?$basic_string@DV?$char_traits@D@_STL@@V?$allocator@D@2@@_STL@@@_STL@@U12@V?$allocator@U?$_List_node@V?$basic_string@DV?$char_traits@D@_STL@@V?$allocator@D@2@@_STL@@@_STL@@@2@@_STL@@QAE@XZ
_TEXT	SEGMENT
??1?$_STLP_alloc_proxy@PAU?$_List_node@V?$basic_string@DV?$char_traits@D@_STL@@V?$allocator@D@2@@_STL@@@_STL@@U12@V?$allocator@U?$_List_node@V?$basic_string@DV?$char_traits@D@_STL@@V?$allocator@D@2@@_STL@@@_STL@@@2@@_STL@@QAE@XZ PROC NEAR ; _STL::_STLP_alloc_proxy<_STL::_List_node<_STL::basic_string<char,_STL::char_traits<char>,_STL::allocator<char> > > *,_STL::_List_node<_STL::basic_string<char,_STL::char_traits<char>,_STL::allocator<char> > >,_STL::allocator<_STL::_List_node<_STL::basic_string<char,_STL::char_traits<char>,_STL::allocator<char> > > > >::~_STLP_alloc_proxy<_STL::_List_node<_STL::basic_string<char,_STL::char_traits<char>,_STL::allocator<char> > > *,_STL::_List_node<_STL::basic_string<char,_STL::char_traits<char>,_STL::allocator<char> > >,_STL::allocator<_STL::_List_node<_STL::basic_string<char,_STL::char_traits<char>,_STL::allocator<char> > > > >, COMDAT
; _this$ = ecx
  00000	c3		 ret	 0
??1?$_STLP_alloc_proxy@PAU?$_List_node@V?$basic_string@DV?$char_traits@D@_STL@@V?$allocator@D@2@@_STL@@@_STL@@U12@V?$allocator@U?$_List_node@V?$basic_string@DV?$char_traits@D@_STL@@V?$allocator@D@2@@_STL@@@_STL@@@2@@_STL@@QAE@XZ ENDP ; _STL::_STLP_alloc_proxy<_STL::_List_node<_STL::basic_string<char,_STL::char_traits<char>,_STL::allocator<char> > > *,_STL::_List_node<_STL::basic_string<char,_STL::char_traits<char>,_STL::allocator<char> > >,_STL::allocator<_STL::_List_node<_STL::basic_string<char,_STL::char_traits<char>,_STL::allocator<char> > > > >::~_STLP_alloc_proxy<_STL::_List_node<_STL::basic_string<char,_STL::char_traits<char>,_STL::allocator<char> > > *,_STL::_List_node<_STL::basic_string<char,_STL::char_traits<char>,_STL::allocator<char> > >,_STL::allocator<_STL::_List_node<_STL::basic_string<char,_STL::char_traits<char>,_STL::allocator<char> > > > >
_TEXT	ENDS
PUBLIC	??1Throwable@@UAE@XZ				; Throwable::~Throwable
; Function compile flags: /Ogsy
;	COMDAT ??_GThrowable@@UAEPAXI@Z
_TEXT	SEGMENT
___flags$ = 8						; size = 4
??_GThrowable@@UAEPAXI@Z PROC NEAR			; Throwable::`scalar deleting destructor', COMDAT
; _this$ = ecx
  00000	56		 push	 esi
  00001	8b f1		 mov	 esi, ecx
  00003	e8 00 00 00 00	 call	 ??1Throwable@@UAE@XZ	; Throwable::~Throwable
  00008	f6 44 24 08 01	 test	 BYTE PTR ___flags$[esp], 1
  0000d	74 07		 je	 SHORT $L88026
  0000f	56		 push	 esi
  00010	e8 00 00 00 00	 call	 ??3@YAXPAX@Z		; operator delete
  00015	59		 pop	 ecx
$L88026:
  00016	8b c6		 mov	 eax, esi
  00018	5e		 pop	 esi
  00019	c2 04 00	 ret	 4
??_GThrowable@@UAEPAXI@Z ENDP				; Throwable::`scalar deleting destructor'
_TEXT	ENDS
PUBLIC	??1?$list@V?$basic_string@DV?$char_traits@D@_STL@@V?$allocator@D@2@@_STL@@V?$allocator@V?$basic_string@DV?$char_traits@D@_STL@@V?$allocator@D@2@@_STL@@@2@@_STL@@QAE@XZ ; _STL::list<_STL::basic_string<char,_STL::char_traits<char>,_STL::allocator<char> >,_STL::allocator<_STL::basic_string<char,_STL::char_traits<char>,_STL::allocator<char> > > >::~list<_STL::basic_string<char,_STL::char_traits<char>,_STL::allocator<char> >,_STL::allocator<_STL::basic_string<char,_STL::char_traits<char>,_STL::allocator<char> > > >
; Function compile flags: /Ogsy
; File c:\darkeden\designed_common\project\client\packet\exception.h
;	COMDAT ??1Throwable@@UAE@XZ
_TEXT	SEGMENT
??1Throwable@@UAE@XZ PROC NEAR				; Throwable::~Throwable, COMDAT
; _this$ = ecx

; 43   : 	virtual ~Throwable () throw () {}

  00000	56		 push	 esi
  00001	8b f1		 mov	 esi, ecx
  00003	8d 4e 10	 lea	 ecx, DWORD PTR [esi+16]
  00006	c7 06 00 00 00
	00		 mov	 DWORD PTR [esi], OFFSET FLAT:??_7Throwable@@6B@
  0000c	e8 00 00 00 00	 call	 ??1?$list@V?$basic_string@DV?$char_traits@D@_STL@@V?$allocator@D@2@@_STL@@V?$allocator@V?$basic_string@DV?$char_traits@D@_STL@@V?$allocator@D@2@@_STL@@@2@@_STL@@QAE@XZ ; _STL::list<_STL::basic_string<char,_STL::char_traits<char>,_STL::allocator<char> >,_STL::allocator<_STL::basic_string<char,_STL::char_traits<char>,_STL::allocator<char> > > >::~list<_STL::basic_string<char,_STL::char_traits<char>,_STL::allocator<char> >,_STL::allocator<_STL::basic_string<char,_STL::char_traits<char>,_STL::allocator<char> > > >
  00011	8d 4e 04	 lea	 ecx, DWORD PTR [esi+4]
  00014	5e		 pop	 esi
  00015	e9 00 00 00 00	 jmp	 ??1?$basic_string@DV?$char_traits@D@_STL@@V?$allocator@D@2@@_STL@@QAE@XZ ; _STL::basic_string<char,_STL::char_traits<char>,_STL::allocator<char> >::~basic_string<char,_STL::char_traits<char>,_STL::allocator<char> >
??1Throwable@@UAE@XZ ENDP				; Throwable::~Throwable
_TEXT	ENDS
PUBLIC	??1?$_List_base@V?$basic_string@DV?$char_traits@D@_STL@@V?$allocator@D@2@@_STL@@V?$allocator@V?$basic_string@DV?$char_traits@D@_STL@@V?$allocator@D@2@@_STL@@@2@@_STL@@QAE@XZ ; _STL::_List_base<_STL::basic_string<char,_STL::char_traits<char>,_STL::allocator<char> >,_STL::allocator<_STL::basic_string<char,_STL::char_traits<char>,_STL::allocator<char> > > >::~_List_base<_STL::basic_string<char,_STL::char_traits<char>,_STL::allocator<char> >,_STL::allocator<_STL::basic_string<char,_STL::char_traits<char>,_STL::allocator<char> > > >
; Function compile flags: /Ogsy
; File c:\stlport-4.6.1\stlport\stl\_list.h
;	COMDAT ??1?$list@V?$basic_string@DV?$char_traits@D@_STL@@V?$allocator@D@2@@_STL@@V?$allocator@V?$basic_string@DV?$char_traits@D@_STL@@V?$allocator@D@2@@_STL@@@2@@_STL@@QAE@XZ
_TEXT	SEGMENT
??1?$list@V?$basic_string@DV?$char_traits@D@_STL@@V?$allocator@D@2@@_STL@@V?$allocator@V?$basic_string@DV?$char_traits@D@_STL@@V?$allocator@D@2@@_STL@@@2@@_STL@@QAE@XZ PROC NEAR ; _STL::list<_STL::basic_string<char,_STL::char_traits<char>,_STL::allocator<char> >,_STL::allocator<_STL::basic_string<char,_STL::char_traits<char>,_STL::allocator<char> > > >::~list<_STL::basic_string<char,_STL::char_traits<char>,_STL::allocator<char> >,_STL::allocator<_STL::basic_string<char,_STL::char_traits<char>,_STL::allocator<char> > > >, COMDAT
; _this$ = ecx

; 416  :   ~list() { }

  00000	e9 00 00 00 00	 jmp	 ??1?$_List_base@V?$basic_string@DV?$char_traits@D@_STL@@V?$allocator@D@2@@_STL@@V?$allocator@V?$basic_string@DV?$char_traits@D@_STL@@V?$allocator@D@2@@_STL@@@2@@_STL@@QAE@XZ ; _STL::_List_base<_STL::basic_string<char,_STL::char_traits<char>,_STL::allocator<char> >,_STL::allocator<_STL::basic_string<char,_STL::char_traits<char>,_STL::allocator<char> > > >::~_List_base<_STL::basic_string<char,_STL::char_traits<char>,_STL::allocator<char> >,_STL::allocator<_STL::basic_string<char,_STL::char_traits<char>,_STL::allocator<char> > > >
??1?$list@V?$basic_string@DV?$char_traits@D@_STL@@V?$allocator@D@2@@_STL@@V?$allocator@V?$basic_string@DV?$char_traits@D@_STL@@V?$allocator@D@2@@_STL@@@2@@_STL@@QAE@XZ ENDP ; _STL::list<_STL::basic_string<char,_STL::char_traits<char>,_STL::allocator<char> >,_STL::allocator<_STL::basic_string<char,_STL::char_traits<char>,_STL::allocator<char> > > >::~list<_STL::basic_string<char,_STL::char_traits<char>,_STL::allocator<char> >,_STL::allocator<_STL::basic_string<char,_STL::char_traits<char>,_STL::allocator<char> > > >
_TEXT	ENDS
PUBLIC	?clear@?$_List_base@V?$basic_string@DV?$char_traits@D@_STL@@V?$allocator@D@2@@_STL@@V?$allocator@V?$basic_string@DV?$char_traits@D@_STL@@V?$allocator@D@2@@_STL@@@2@@_STL@@QAEXXZ ; _STL::_List_base<_STL::basic_string<char,_STL::char_traits<char>,_STL::allocator<char> >,_STL::allocator<_STL::basic_string<char,_STL::char_traits<char>,_STL::allocator<char> > > >::clear
; Function compile flags: /Ogsy
;	COMDAT ??1?$_List_base@V?$basic_string@DV?$char_traits@D@_STL@@V?$allocator@D@2@@_STL@@V?$allocator@V?$basic_string@DV?$char_traits@D@_STL@@V?$allocator@D@2@@_STL@@@2@@_STL@@QAE@XZ
_TEXT	SEGMENT
??1?$_List_base@V?$basic_string@DV?$char_traits@D@_STL@@V?$allocator@D@2@@_STL@@V?$allocator@V?$basic_string@DV?$char_traits@D@_STL@@V?$allocator@D@2@@_STL@@@2@@_STL@@QAE@XZ PROC NEAR ; _STL::_List_base<_STL::basic_string<char,_STL::char_traits<char>,_STL::allocator<char> >,_STL::allocator<_STL::basic_string<char,_STL::char_traits<char>,_STL::allocator<char> > > >::~_List_base<_STL::basic_string<char,_STL::char_traits<char>,_STL::allocator<char> >,_STL::allocator<_STL::basic_string<char,_STL::char_traits<char>,_STL::allocator<char> > > >, COMDAT
; _this$ = ecx

; 188  :   ~_List_base() {

  00000	56		 push	 esi
  00001	8b f1		 mov	 esi, ecx

; 189  :     clear();

  00003	e8 00 00 00 00	 call	 ?clear@?$_List_base@V?$basic_string@DV?$char_traits@D@_STL@@V?$allocator@D@2@@_STL@@V?$allocator@V?$basic_string@DV?$char_traits@D@_STL@@V?$allocator@D@2@@_STL@@@2@@_STL@@QAEXXZ ; _STL::_List_base<_STL::basic_string<char,_STL::char_traits<char>,_STL::allocator<char> >,_STL::allocator<_STL::basic_string<char,_STL::char_traits<char>,_STL::allocator<char> > > >::clear

; 190  :     _M_node.deallocate(_M_node._M_data, 1);

  00008	8b 36		 mov	 esi, DWORD PTR [esi]
  0000a	85 f6		 test	 esi, esi
  0000c	74 0a		 je	 SHORT $L105399
  0000e	6a 14		 push	 20			; 00000014H
  00010	56		 push	 esi
  00011	e8 00 00 00 00	 call	 ?deallocate@?$__node_alloc@$00$0A@@_STL@@SAXPAXI@Z ; _STL::__node_alloc<1,0>::deallocate
  00016	59		 pop	 ecx
  00017	59		 pop	 ecx
$L105399:
  00018	5e		 pop	 esi

; 191  :   }

  00019	c3		 ret	 0
??1?$_List_base@V?$basic_string@DV?$char_traits@D@_STL@@V?$allocator@D@2@@_STL@@V?$allocator@V?$basic_string@DV?$char_traits@D@_STL@@V?$allocator@D@2@@_STL@@@2@@_STL@@QAE@XZ ENDP ; _STL::_List_base<_STL::basic_string<char,_STL::char_traits<char>,_STL::allocator<char> >,_STL::allocator<_STL::basic_string<char,_STL::char_traits<char>,_STL::allocator<char> > > >::~_List_base<_STL::basic_string<char,_STL::char_traits<char>,_STL::allocator<char> >,_STL::allocator<_STL::basic_string<char,_STL::char_traits<char>,_STL::allocator<char> > > >
; Function compile flags: /Ogsy
; File c:\stlport-4.6.1\stlport\stl\_list.c
_TEXT	ENDS
;	COMDAT ?clear@?$_List_base@V?$basic_string@DV?$char_traits@D@_STL@@V?$allocator@D@2@@_STL@@V?$allocator@V?$basic_string@DV?$char_traits@D@_STL@@V?$allocator@D@2@@_STL@@@2@@_STL@@QAEXXZ
_TEXT	SEGMENT
?clear@?$_List_base@V?$basic_string@DV?$char_traits@D@_STL@@V?$allocator@D@2@@_STL@@V?$allocator@V?$basic_string@DV?$char_traits@D@_STL@@V?$allocator@D@2@@_STL@@@2@@_STL@@QAEXXZ PROC NEAR ; _STL::_List_base<_STL::basic_string<char,_STL::char_traits<char>,_STL::allocator<char> >,_STL::allocator<_STL::basic_string<char,_STL::char_traits<char>,_STL::allocator<char> > > >::clear, COMDAT
; _this$ = ecx

; 68   : {

  00000	56		 push	 esi
  00001	57		 push	 edi
  00002	8b f9		 mov	 edi, ecx

; 69   :   _List_node<_Tp>* __cur = (_List_node<_Tp>*) this->_M_node._M_data->_M_next;

  00004	8b 07		 mov	 eax, DWORD PTR [edi]
  00006	8b 30		 mov	 esi, DWORD PTR [eax]

; 70   :   while (__cur != this->_M_node._M_data) {

  00008	3b f0		 cmp	 esi, eax
  0000a	74 1c		 je	 SHORT $L98971
  0000c	53		 push	 ebx
$L98970:

; 71   :     _List_node<_Tp>* __tmp = __cur;

  0000d	8b de		 mov	 ebx, esi

; 72   :     __cur = (_List_node<_Tp>*) __cur->_M_next;

  0000f	8b 36		 mov	 esi, DWORD PTR [esi]

; 73   :     _STLP_STD::_Destroy(&__tmp->_M_data);

  00011	8d 4b 08	 lea	 ecx, DWORD PTR [ebx+8]
  00014	e8 00 00 00 00	 call	 ??1?$basic_string@DV?$char_traits@D@_STL@@V?$allocator@D@2@@_STL@@QAE@XZ ; _STL::basic_string<char,_STL::char_traits<char>,_STL::allocator<char> >::~basic_string<char,_STL::char_traits<char>,_STL::allocator<char> >

; 74   :     this->_M_node.deallocate(__tmp, 1);

  00019	6a 14		 push	 20			; 00000014H
  0001b	53		 push	 ebx
  0001c	e8 00 00 00 00	 call	 ?deallocate@?$__node_alloc@$00$0A@@_STL@@SAXPAXI@Z ; _STL::__node_alloc<1,0>::deallocate
  00021	3b 37		 cmp	 esi, DWORD PTR [edi]
  00023	59		 pop	 ecx
  00024	59		 pop	 ecx
  00025	75 e6		 jne	 SHORT $L98970
  00027	5b		 pop	 ebx
$L98971:

; 75   :   }
; 76   :   this->_M_node._M_data->_M_next = this->_M_node._M_data;

  00028	8b 07		 mov	 eax, DWORD PTR [edi]
  0002a	89 00		 mov	 DWORD PTR [eax], eax

; 77   :   this->_M_node._M_data->_M_prev = this->_M_node._M_data;

  0002c	8b 3f		 mov	 edi, DWORD PTR [edi]
  0002e	89 7f 04	 mov	 DWORD PTR [edi+4], edi
  00031	5f		 pop	 edi
  00032	5e		 pop	 esi

; 78   : }

  00033	c3		 ret	 0
?clear@?$_List_base@V?$basic_string@DV?$char_traits@D@_STL@@V?$allocator@D@2@@_STL@@V?$allocator@V?$basic_string@DV?$char_traits@D@_STL@@V?$allocator@D@2@@_STL@@@2@@_STL@@QAEXXZ ENDP ; _STL::_List_base<_STL::basic_string<char,_STL::char_traits<char>,_STL::allocator<char> >,_STL::allocator<_STL::basic_string<char,_STL::char_traits<char>,_STL::allocator<char> > > >::clear
_TEXT	ENDS
PUBLIC	??1Error@@UAE@XZ				; Error::~Error
; Function compile flags: /Ogsy
;	COMDAT ??1UnsupportedError@@UAE@XZ
_TEXT	SEGMENT
??1UnsupportedError@@UAE@XZ PROC NEAR			; UnsupportedError::~UnsupportedError, COMDAT
; _this$ = ecx
  00000	e9 00 00 00 00	 jmp	 ??1Error@@UAE@XZ
??1UnsupportedError@@UAE@XZ ENDP			; UnsupportedError::~UnsupportedError
; Function compile flags: /Ogsy
_TEXT	ENDS
;	COMDAT ??1Error@@UAE@XZ
_TEXT	SEGMENT
??1Error@@UAE@XZ PROC NEAR				; Error::~Error, COMDAT
; _this$ = ecx
  00000	e9 00 00 00 00	 jmp	 ??1Throwable@@UAE@XZ	; Throwable::~Throwable
??1Error@@UAE@XZ ENDP					; Error::~Error
; Function compile flags: /Ogsy
; File c:\darkeden\designed_common\project\client\packet\packet.h
_TEXT	ENDS
;	COMDAT ?write@Packet@@UBEXPAVSocket@@@Z
_TEXT	SEGMENT
$T105430 = -20						; size = 20
_pSocket$ = 8						; size = 4
?write@Packet@@UBEXPAVSocket@@@Z PROC NEAR		; Packet::write, COMDAT
; _this$ = ecx

; 738  : 	virtual void write (Socket* pSocket) const throw (ProtocolException, Error) { throw UnsupportedError(); }	

  00000	55		 push	 ebp
  00001	8b ec		 mov	 ebp, esp
  00003	83 ec 14	 sub	 esp, 20			; 00000014H
  00006	8d 4d ec	 lea	 ecx, DWORD PTR $T105430[ebp]
  00009	e8 00 00 00 00	 call	 ??0UnsupportedError@@QAE@XZ ; UnsupportedError::UnsupportedError
  0000e	68 00 00 00 00	 push	 OFFSET FLAT:__TI3?AVUnsupportedError@@
  00013	8d 45 ec	 lea	 eax, DWORD PTR $T105430[ebp]
  00016	50		 push	 eax
  00017	e8 00 00 00 00	 call	 __CxxThrowException@8
$L105432:
$L105431:
  0001c	cc		 int	 3
?write@Packet@@UBEXPAVSocket@@@Z ENDP			; Packet::write
_TEXT	ENDS
PUBLIC	??$uninitialized_fill_n@PAVStoreItemInfo@@IV1@@_STL@@YAPAVStoreItemInfo@@PAV1@IABV1@@Z ; _STL::uninitialized_fill_n<StoreItemInfo *,unsigned int,StoreItemInfo>
; Function compile flags: /Ogsy
; File c:\stlport-4.6.1\stlport\stl\_uninitialized.h
;	COMDAT ??$uninitialized_fill_n@PAVStoreItemInfo@@IV1@@_STL@@YAPAVStoreItemInfo@@PAV1@IABV1@@Z
_TEXT	SEGMENT
$T105435 = -1						; size = 1
___first$ = 8						; size = 4
___n$ = 12						; size = 4
___x$ = 16						; size = 4
??$uninitialized_fill_n@PAVStoreItemInfo@@IV1@@_STL@@YAPAVStoreItemInfo@@PAV1@IABV1@@Z PROC NEAR ; _STL::uninitialized_fill_n<StoreItemInfo *,unsigned int,StoreItemInfo>, COMDAT

; 207  : uninitialized_fill_n(_ForwardIter __first, _Size __n, const _Tp& __x) {

  00000	55		 push	 ebp
  00001	8b ec		 mov	 ebp, esp
  00003	51		 push	 ecx

; 208  :   return __uninitialized_fill_n(__first, __n, __x, _IS_POD_ITER(__first, _ForwardIter));

  00004	8d 45 ff	 lea	 eax, DWORD PTR $T105435[ebp]
  00007	50		 push	 eax
  00008	ff 75 10	 push	 DWORD PTR ___x$[ebp]
  0000b	ff 75 0c	 push	 DWORD PTR ___n$[ebp]
  0000e	ff 75 08	 push	 DWORD PTR ___first$[ebp]
  00011	e8 00 00 00 00	 call	 ??$__uninitialized_fill_n@PAVStoreItemInfo@@IV1@@_STL@@YAPAVStoreItemInfo@@PAV1@IABV1@ABU__false_type@0@@Z ; _STL::__uninitialized_fill_n<StoreItemInfo *,unsigned int,StoreItemInfo>
  00016	83 c4 10	 add	 esp, 16			; 00000010H

; 209  : }

  00019	c9		 leave
  0001a	c3		 ret	 0
??$uninitialized_fill_n@PAVStoreItemInfo@@IV1@@_STL@@YAPAVStoreItemInfo@@PAV1@IABV1@@Z ENDP ; _STL::uninitialized_fill_n<StoreItemInfo *,unsigned int,StoreItemInfo>
; Function compile flags: /Ogsy
_TEXT	ENDS
;	COMDAT ??_GError@@UAEPAXI@Z
_TEXT	SEGMENT
___flags$ = 8						; size = 4
??_GError@@UAEPAXI@Z PROC NEAR				; Error::`scalar deleting destructor', COMDAT
; _this$ = ecx
  00000	56		 push	 esi
  00001	8b f1		 mov	 esi, ecx
  00003	e8 00 00 00 00	 call	 ??1Error@@UAE@XZ
  00008	f6 44 24 08 01	 test	 BYTE PTR ___flags$[esp], 1
  0000d	74 07		 je	 SHORT $L89237
  0000f	56		 push	 esi
  00010	e8 00 00 00 00	 call	 ??3@YAXPAX@Z		; operator delete
  00015	59		 pop	 ecx
$L89237:
  00016	8b c6		 mov	 eax, esi
  00018	5e		 pop	 esi
  00019	c2 04 00	 ret	 4
??_GError@@UAEPAXI@Z ENDP				; Error::`scalar deleting destructor'
; Function compile flags: /Ogsy
_TEXT	ENDS
;	COMDAT ??_GUnsupportedError@@UAEPAXI@Z
_TEXT	SEGMENT
___flags$ = 8						; size = 4
??_GUnsupportedError@@UAEPAXI@Z PROC NEAR		; UnsupportedError::`scalar deleting destructor', COMDAT
; _this$ = ecx
  00000	56		 push	 esi
  00001	8b f1		 mov	 esi, ecx
  00003	e8 00 00 00 00	 call	 ??1UnsupportedError@@UAE@XZ
  00008	f6 44 24 08 01	 test	 BYTE PTR ___flags$[esp], 1
  0000d	74 07		 je	 SHORT $L89333
  0000f	56		 push	 esi
  00010	e8 00 00 00 00	 call	 ??3@YAXPAX@Z		; operator delete
  00015	59		 pop	 ecx
$L89333:
  00016	8b c6		 mov	 eax, esi
  00018	5e		 pop	 esi
  00019	c2 04 00	 ret	 4
??_GUnsupportedError@@UAEPAXI@Z ENDP			; UnsupportedError::`scalar deleting destructor'
_TEXT	ENDS
PUBLIC	??0?$list@V?$basic_string@DV?$char_traits@D@_STL@@V?$allocator@D@2@@_STL@@V?$allocator@V?$basic_string@DV?$char_traits@D@_STL@@V?$allocator@D@2@@_STL@@@2@@_STL@@QAE@ABV01@@Z ; _STL::list<_STL::basic_string<char,_STL::char_traits<char>,_STL::allocator<char> >,_STL::allocator<_STL::basic_string<char,_STL::char_traits<char>,_STL::allocator<char> > > >::list<_STL::basic_string<char,_STL::char_traits<char>,_STL::allocator<char> >,_STL::allocator<_STL::basic_string<char,_STL::char_traits<char>,_STL::allocator<char> > > >
;	COMDAT xdata$x
xdata$x	SEGMENT
$T105449 DD	0ffffffffH
	DD	FLAT:$L105444
$T105447 DD	019930520H
	DD	01H
	DD	FLAT:$T105449
	DD	2 DUP(00H)
	DD	2 DUP(00H)
; Function compile flags: /Ogsy
xdata$x	ENDS
;	COMDAT ??0Throwable@@QAE@ABV0@@Z
_TEXT	SEGMENT
_this$ = -16						; size = 4
__$EHRec$ = -12						; size = 12
___that$ = 8						; size = 4
??0Throwable@@QAE@ABV0@@Z PROC NEAR			; Throwable::Throwable, COMDAT
; _this$ = ecx
  00000	b8 00 00 00 00	 mov	 eax, __ehhandler$??0Throwable@@QAE@ABV0@@Z
  00005	e8 00 00 00 00	 call	 __EH_prolog
  0000a	51		 push	 ecx
  0000b	56		 push	 esi
  0000c	57		 push	 edi
  0000d	8b 7d 08	 mov	 edi, DWORD PTR ___that$[ebp]
  00010	8b f1		 mov	 esi, ecx
  00012	8d 47 04	 lea	 eax, DWORD PTR [edi+4]
  00015	50		 push	 eax
  00016	8d 4e 04	 lea	 ecx, DWORD PTR [esi+4]
  00019	89 75 f0	 mov	 DWORD PTR _this$[ebp], esi
  0001c	c7 06 00 00 00
	00		 mov	 DWORD PTR [esi], OFFSET FLAT:??_7Throwable@@6B@
  00022	e8 00 00 00 00	 call	 ??0?$basic_string@DV?$char_traits@D@_STL@@V?$allocator@D@2@@_STL@@QAE@ABV01@@Z ; _STL::basic_string<char,_STL::char_traits<char>,_STL::allocator<char> >::basic_string<char,_STL::char_traits<char>,_STL::allocator<char> >
  00027	83 65 fc 00	 and	 DWORD PTR __$EHRec$[ebp+8], 0
  0002b	83 c7 10	 add	 edi, 16			; 00000010H
  0002e	57		 push	 edi
  0002f	8d 4e 10	 lea	 ecx, DWORD PTR [esi+16]
  00032	e8 00 00 00 00	 call	 ??0?$list@V?$basic_string@DV?$char_traits@D@_STL@@V?$allocator@D@2@@_STL@@V?$allocator@V?$basic_string@DV?$char_traits@D@_STL@@V?$allocator@D@2@@_STL@@@2@@_STL@@QAE@ABV01@@Z ; _STL::list<_STL::basic_string<char,_STL::char_traits<char>,_STL::allocator<char> >,_STL::allocator<_STL::basic_string<char,_STL::char_traits<char>,_STL::allocator<char> > > >::list<_STL::basic_string<char,_STL::char_traits<char>,_STL::allocator<char> >,_STL::allocator<_STL::basic_string<char,_STL::char_traits<char>,_STL::allocator<char> > > >
  00037	8b 4d f4	 mov	 ecx, DWORD PTR __$EHRec$[ebp]
  0003a	5f		 pop	 edi
  0003b	8b c6		 mov	 eax, esi
  0003d	5e		 pop	 esi
  0003e	64 89 0d 00 00
	00 00		 mov	 DWORD PTR fs:__except_list, ecx
  00045	c9		 leave
  00046	c2 04 00	 ret	 4
_TEXT	ENDS
;	COMDAT text$x
text$x	SEGMENT
$L105444:
  00000	8b 4d f0	 mov	 ecx, DWORD PTR _this$[ebp]
  00003	83 c1 04	 add	 ecx, 4
  00006	e9 00 00 00 00	 jmp	 ??1?$basic_string@DV?$char_traits@D@_STL@@V?$allocator@D@2@@_STL@@QAE@XZ ; _STL::basic_string<char,_STL::char_traits<char>,_STL::allocator<char> >::~basic_string<char,_STL::char_traits<char>,_STL::allocator<char> >
__ehhandler$??0Throwable@@QAE@ABV0@@Z:
  0000b	b8 00 00 00 00	 mov	 eax, OFFSET FLAT:$T105447
  00010	e9 00 00 00 00	 jmp	 ___CxxFrameHandler
text$x	ENDS
??0Throwable@@QAE@ABV0@@Z ENDP				; Throwable::Throwable
PUBLIC	??1?$allocator@V?$basic_string@DV?$char_traits@D@_STL@@V?$allocator@D@2@@_STL@@@_STL@@QAE@XZ ; _STL::allocator<_STL::basic_string<char,_STL::char_traits<char>,_STL::allocator<char> > >::~allocator<_STL::basic_string<char,_STL::char_traits<char>,_STL::allocator<char> > >
PUBLIC	?get_allocator@?$_List_base@V?$basic_string@DV?$char_traits@D@_STL@@V?$allocator@D@2@@_STL@@V?$allocator@V?$basic_string@DV?$char_traits@D@_STL@@V?$allocator@D@2@@_STL@@@2@@_STL@@QBE?AV?$allocator@V?$basic_string@DV?$char_traits@D@_STL@@V?$allocator@D@2@@_STL@@@2@XZ ; _STL::_List_base<_STL::basic_string<char,_STL::char_traits<char>,_STL::allocator<char> >,_STL::allocator<_STL::basic_string<char,_STL::char_traits<char>,_STL::allocator<char> > > >::get_allocator
PUBLIC	??$insert@U?$_List_iterator@V?$basic_string@DV?$char_traits@D@_STL@@V?$allocator@D@2@@_STL@@U?$_Const_traits@V?$basic_string@DV?$char_traits@D@_STL@@V?$allocator@D@2@@_STL@@@2@@_STL@@@?$list@V?$basic_string@DV?$char_traits@D@_STL@@V?$allocator@D@2@@_STL@@V?$allocator@V?$basic_string@DV?$char_traits@D@_STL@@V?$allocator@D@2@@_STL@@@2@@_STL@@QAEXU?$_List_iterator@V?$basic_string@DV?$char_traits@D@_STL@@V?$allocator@D@2@@_STL@@U?$_Nonconst_traits@V?$basic_string@DV?$char_traits@D@_STL@@V?$allocator@D@2@@_STL@@@2@@1@U?$_List_iterator@V?$basic_string@DV?$char_traits@D@_STL@@V?$allocator@D@2@@_STL@@U?$_Const_traits@V?$basic_string@DV?$char_traits@D@_STL@@V?$allocator@D@2@@_STL@@@2@@1@1@Z ; _STL::list<_STL::basic_string<char,_STL::char_traits<char>,_STL::allocator<char> >,_STL::allocator<_STL::basic_string<char,_STL::char_traits<char>,_STL::allocator<char> > > >::insert<_STL::_List_iterator<_STL::basic_string<char,_STL::char_traits<char>,_STL::allocator<char> >,_STL::_Const_traits<_STL::basic_string<char,_STL::char_traits<char>,_STL::allocator<char> > > > >
;	COMDAT xdata$x
; File c:\stlport-4.6.1\stlport\stl\_list.h
xdata$x	SEGMENT
$T105575 DD	0ffffffffH
	DD	FLAT:$L105458
	DD	00H
	DD	FLAT:$L105459
	DD	0ffffffffH
	DD	FLAT:$L105459
$T105573 DD	019930520H
	DD	03H
	DD	FLAT:$T105575
	DD	2 DUP(00H)
	DD	2 DUP(00H)
; Function compile flags: /Ogsy
xdata$x	ENDS
;	COMDAT ??0?$list@V?$basic_string@DV?$char_traits@D@_STL@@V?$allocator@D@2@@_STL@@V?$allocator@V?$basic_string@DV?$char_traits@D@_STL@@V?$allocator@D@2@@_STL@@@2@@_STL@@QAE@ABV01@@Z
_TEXT	SEGMENT
$T105457 = -20						; size = 4
_this$ = -16						; size = 4
__$EHRec$ = -12						; size = 12
___x$ = 8						; size = 4
$T105454 = 11						; size = 1
??0?$list@V?$basic_string@DV?$char_traits@D@_STL@@V?$allocator@D@2@@_STL@@V?$allocator@V?$basic_string@DV?$char_traits@D@_STL@@V?$allocator@D@2@@_STL@@@2@@_STL@@QAE@ABV01@@Z PROC NEAR ; _STL::list<_STL::basic_string<char,_STL::char_traits<char>,_STL::allocator<char> >,_STL::allocator<_STL::basic_string<char,_STL::char_traits<char>,_STL::allocator<char> > > >::list<_STL::basic_string<char,_STL::char_traits<char>,_STL::allocator<char> >,_STL::allocator<_STL::basic_string<char,_STL::char_traits<char>,_STL::allocator<char> > > >, COMDAT
; _this$ = ecx

; 414  :     { insert(begin(), __x.begin(), __x.end()); }

  00000	b8 00 00 00 00	 mov	 eax, __ehhandler$??0?$list@V?$basic_string@DV?$char_traits@D@_STL@@V?$allocator@D@2@@_STL@@V?$allocator@V?$basic_string@DV?$char_traits@D@_STL@@V?$allocator@D@2@@_STL@@@2@@_STL@@QAE@ABV01@@Z
  00005	e8 00 00 00 00	 call	 __EH_prolog
  0000a	51		 push	 ecx
  0000b	51		 push	 ecx
  0000c	56		 push	 esi
  0000d	57		 push	 edi
  0000e	8b 7d 08	 mov	 edi, DWORD PTR ___x$[ebp]
  00011	8b f1		 mov	 esi, ecx
  00013	8d 45 0b	 lea	 eax, DWORD PTR $T105454[ebp]
  00016	50		 push	 eax
  00017	8b cf		 mov	 ecx, edi
  00019	89 75 f0	 mov	 DWORD PTR _this$[ebp], esi
  0001c	e8 00 00 00 00	 call	 ?get_allocator@?$_List_base@V?$basic_string@DV?$char_traits@D@_STL@@V?$allocator@D@2@@_STL@@V?$allocator@V?$basic_string@DV?$char_traits@D@_STL@@V?$allocator@D@2@@_STL@@@2@@_STL@@QBE?AV?$allocator@V?$basic_string@DV?$char_traits@D@_STL@@V?$allocator@D@2@@_STL@@@2@XZ ; _STL::_List_base<_STL::basic_string<char,_STL::char_traits<char>,_STL::allocator<char> >,_STL::allocator<_STL::basic_string<char,_STL::char_traits<char>,_STL::allocator<char> > > >::get_allocator
  00021	83 65 fc 00	 and	 DWORD PTR __$EHRec$[ebp+8], 0
  00025	50		 push	 eax
  00026	8b ce		 mov	 ecx, esi
  00028	e8 00 00 00 00	 call	 ??0?$_List_base@V?$basic_string@DV?$char_traits@D@_STL@@V?$allocator@D@2@@_STL@@V?$allocator@V?$basic_string@DV?$char_traits@D@_STL@@V?$allocator@D@2@@_STL@@@2@@_STL@@QAE@ABV?$allocator@V?$basic_string@DV?$char_traits@D@_STL@@V?$allocator@D@2@@_STL@@@1@@Z ; _STL::_List_base<_STL::basic_string<char,_STL::char_traits<char>,_STL::allocator<char> >,_STL::allocator<_STL::basic_string<char,_STL::char_traits<char>,_STL::allocator<char> > > >::_List_base<_STL::basic_string<char,_STL::char_traits<char>,_STL::allocator<char> >,_STL::allocator<_STL::basic_string<char,_STL::char_traits<char>,_STL::allocator<char> > > >
  0002d	8b 07		 mov	 eax, DWORD PTR [edi]
  0002f	8b 08		 mov	 ecx, DWORD PTR [eax]
  00031	50		 push	 eax
  00032	51		 push	 ecx
  00033	51		 push	 ecx
  00034	8b 0e		 mov	 ecx, DWORD PTR [esi]
  00036	8b 09		 mov	 ecx, DWORD PTR [ecx]
  00038	8b c4		 mov	 eax, esp
  0003a	89 08		 mov	 DWORD PTR [eax], ecx
  0003c	8b ce		 mov	 ecx, esi
  0003e	c6 45 fc 02	 mov	 BYTE PTR __$EHRec$[ebp+8], 2
  00042	89 65 ec	 mov	 DWORD PTR $T105457[ebp], esp
  00045	e8 00 00 00 00	 call	 ??$insert@U?$_List_iterator@V?$basic_string@DV?$char_traits@D@_STL@@V?$allocator@D@2@@_STL@@U?$_Const_traits@V?$basic_string@DV?$char_traits@D@_STL@@V?$allocator@D@2@@_STL@@@2@@_STL@@@?$list@V?$basic_string@DV?$char_traits@D@_STL@@V?$allocator@D@2@@_STL@@V?$allocator@V?$basic_string@DV?$char_traits@D@_STL@@V?$allocator@D@2@@_STL@@@2@@_STL@@QAEXU?$_List_iterator@V?$basic_string@DV?$char_traits@D@_STL@@V?$allocator@D@2@@_STL@@U?$_Nonconst_traits@V?$basic_string@DV?$char_traits@D@_STL@@V?$allocator@D@2@@_STL@@@2@@1@U?$_List_iterator@V?$basic_string@DV?$char_traits@D@_STL@@V?$allocator@D@2@@_STL@@U?$_Const_traits@V?$basic_string@DV?$char_traits@D@_STL@@V?$allocator@D@2@@_STL@@@2@@1@1@Z ; _STL::list<_STL::basic_string<char,_STL::char_traits<char>,_STL::allocator<char> >,_STL::allocator<_STL::basic_string<char,_STL::char_traits<char>,_STL::allocator<char> > > >::insert<_STL::_List_iterator<_STL::basic_string<char,_STL::char_traits<char>,_STL::allocator<char> >,_STL::_Const_traits<_STL::basic_string<char,_STL::char_traits<char>,_STL::allocator<char> > > > >
  0004a	8b 4d f4	 mov	 ecx, DWORD PTR __$EHRec$[ebp]
  0004d	5f		 pop	 edi
  0004e	8b c6		 mov	 eax, esi
  00050	64 89 0d 00 00
	00 00		 mov	 DWORD PTR fs:__except_list, ecx
  00057	5e		 pop	 esi
  00058	c9		 leave
  00059	c2 04 00	 ret	 4
_TEXT	ENDS
;	COMDAT text$x
text$x	SEGMENT
$L105458:
  00000	8d 4d 0b	 lea	 ecx, DWORD PTR $T105454[ebp]
  00003	e9 00 00 00 00	 jmp	 ??1?$allocator@V?$basic_string@DV?$char_traits@D@_STL@@V?$allocator@D@2@@_STL@@@_STL@@QAE@XZ ; _STL::allocator<_STL::basic_string<char,_STL::char_traits<char>,_STL::allocator<char> > >::~allocator<_STL::basic_string<char,_STL::char_traits<char>,_STL::allocator<char> > >
$L105459:
  00008	8b 4d f0	 mov	 ecx, DWORD PTR _this$[ebp]
  0000b	e9 00 00 00 00	 jmp	 ??1?$_List_base@V?$basic_string@DV?$char_traits@D@_STL@@V?$allocator@D@2@@_STL@@V?$allocator@V?$basic_string@DV?$char_traits@D@_STL@@V?$allocator@D@2@@_STL@@@2@@_STL@@QAE@XZ ; _STL::_List_base<_STL::basic_string<char,_STL::char_traits<char>,_STL::allocator<char> >,_STL::allocator<_STL::basic_string<char,_STL::char_traits<char>,_STL::allocator<char> > > >::~_List_base<_STL::basic_string<char,_STL::char_traits<char>,_STL::allocator<char> >,_STL::allocator<_STL::basic_string<char,_STL::char_traits<char>,_STL::allocator<char> > > >
__ehhandler$??0?$list@V?$basic_string@DV?$char_traits@D@_STL@@V?$allocator@D@2@@_STL@@V?$allocator@V?$basic_string@DV?$char_traits@D@_STL@@V?$allocator@D@2@@_STL@@@2@@_STL@@QAE@ABV01@@Z:
  00010	b8 00 00 00 00	 mov	 eax, OFFSET FLAT:$T105573
  00015	e9 00 00 00 00	 jmp	 ___CxxFrameHandler
text$x	ENDS
??0?$list@V?$basic_string@DV?$char_traits@D@_STL@@V?$allocator@D@2@@_STL@@V?$allocator@V?$basic_string@DV?$char_traits@D@_STL@@V?$allocator@D@2@@_STL@@@2@@_STL@@QAE@ABV01@@Z ENDP ; _STL::list<_STL::basic_string<char,_STL::char_traits<char>,_STL::allocator<char> >,_STL::allocator<_STL::basic_string<char,_STL::char_traits<char>,_STL::allocator<char> > > >::list<_STL::basic_string<char,_STL::char_traits<char>,_STL::allocator<char> >,_STL::allocator<_STL::basic_string<char,_STL::char_traits<char>,_STL::allocator<char> > > >
; Function compile flags: /Ogsy
; File c:\stlport-4.6.1\stlport\stl\_alloc.h
;	COMDAT ??1?$allocator@V?$basic_string@DV?$char_traits@D@_STL@@V?$allocator@D@2@@_STL@@@_STL@@QAE@XZ
_TEXT	SEGMENT
??1?$allocator@V?$basic_string@DV?$char_traits@D@_STL@@V?$allocator@D@2@@_STL@@@_STL@@QAE@XZ PROC NEAR ; _STL::allocator<_STL::basic_string<char,_STL::char_traits<char>,_STL::allocator<char> > >::~allocator<_STL::basic_string<char,_STL::char_traits<char>,_STL::allocator<char> > >, COMDAT
; _this$ = ecx

; 350  :   ~allocator() _STLP_NOTHROW {}

  00000	c3		 ret	 0
??1?$allocator@V?$basic_string@DV?$char_traits@D@_STL@@V?$allocator@D@2@@_STL@@@_STL@@QAE@XZ ENDP ; _STL::allocator<_STL::basic_string<char,_STL::char_traits<char>,_STL::allocator<char> > >::~allocator<_STL::basic_string<char,_STL::char_traits<char>,_STL::allocator<char> > >
; Function compile flags: /Ogsy
; File c:\stlport-4.6.1\stlport\stl\_list.h
_TEXT	ENDS
;	COMDAT ?get_allocator@?$_List_base@V?$basic_string@DV?$char_traits@D@_STL@@V?$allocator@D@2@@_STL@@V?$allocator@V?$basic_string@DV?$char_traits@D@_STL@@V?$allocator@D@2@@_STL@@@2@@_STL@@QBE?AV?$allocator@V?$basic_string@DV?$char_traits@D@_STL@@V?$allocator@D@2@@_STL@@@2@XZ
_TEXT	SEGMENT
___$ReturnUdt$ = 8					; size = 4
?get_allocator@?$_List_base@V?$basic_string@DV?$char_traits@D@_STL@@V?$allocator@D@2@@_STL@@V?$allocator@V?$basic_string@DV?$char_traits@D@_STL@@V?$allocator@D@2@@_STL@@@2@@_STL@@QBE?AV?$allocator@V?$basic_string@DV?$char_traits@D@_STL@@V?$allocator@D@2@@_STL@@@2@XZ PROC NEAR ; _STL::_List_base<_STL::basic_string<char,_STL::char_traits<char>,_STL::allocator<char> >,_STL::allocator<_STL::basic_string<char,_STL::char_traits<char>,_STL::allocator<char> > > >::get_allocator, COMDAT
; _this$ = ecx

; 179  :     return _STLP_CONVERT_ALLOCATOR((const _Node_allocator_type&)_M_node, _Tp);

  00000	8b 44 24 04	 mov	 eax, DWORD PTR ___$ReturnUdt$[esp-4]

; 180  :   }

  00004	c2 04 00	 ret	 4
?get_allocator@?$_List_base@V?$basic_string@DV?$char_traits@D@_STL@@V?$allocator@D@2@@_STL@@V?$allocator@V?$basic_string@DV?$char_traits@D@_STL@@V?$allocator@D@2@@_STL@@@2@@_STL@@QBE?AV?$allocator@V?$basic_string@DV?$char_traits@D@_STL@@V?$allocator@D@2@@_STL@@@2@XZ ENDP ; _STL::_List_base<_STL::basic_string<char,_STL::char_traits<char>,_STL::allocator<char> >,_STL::allocator<_STL::basic_string<char,_STL::char_traits<char>,_STL::allocator<char> > > >::get_allocator
_TEXT	ENDS
PUBLIC	??$_M_insert_dispatch@U?$_List_iterator@V?$basic_string@DV?$char_traits@D@_STL@@V?$allocator@D@2@@_STL@@U?$_Const_traits@V?$basic_string@DV?$char_traits@D@_STL@@V?$allocator@D@2@@_STL@@@2@@_STL@@@?$list@V?$basic_string@DV?$char_traits@D@_STL@@V?$allocator@D@2@@_STL@@V?$allocator@V?$basic_string@DV?$char_traits@D@_STL@@V?$allocator@D@2@@_STL@@@2@@_STL@@QAEXU?$_List_iterator@V?$basic_string@DV?$char_traits@D@_STL@@V?$allocator@D@2@@_STL@@U?$_Nonconst_traits@V?$basic_string@DV?$char_traits@D@_STL@@V?$allocator@D@2@@_STL@@@2@@1@U?$_List_iterator@V?$basic_string@DV?$char_traits@D@_STL@@V?$allocator@D@2@@_STL@@U?$_Const_traits@V?$basic_string@DV?$char_traits@D@_STL@@V?$allocator@D@2@@_STL@@@2@@1@1ABU__false_type@1@@Z ; _STL::list<_STL::basic_string<char,_STL::char_traits<char>,_STL::allocator<char> >,_STL::allocator<_STL::basic_string<char,_STL::char_traits<char>,_STL::allocator<char> > > >::_M_insert_dispatch<_STL::_List_iterator<_STL::basic_string<char,_STL::char_traits<char>,_STL::allocator<char> >,_STL::_Const_traits<_STL::basic_string<char,_STL::char_traits<char>,_STL::allocator<char> > > > >
; Function compile flags: /Ogsy
;	COMDAT ??$insert@U?$_List_iterator@V?$basic_string@DV?$char_traits@D@_STL@@V?$allocator@D@2@@_STL@@U?$_Const_traits@V?$basic_string@DV?$char_traits@D@_STL@@V?$allocator@D@2@@_STL@@@2@@_STL@@@?$list@V?$basic_string@DV?$char_traits@D@_STL@@V?$allocator@D@2@@_STL@@V?$allocator@V?$basic_string@DV?$char_traits@D@_STL@@V?$allocator@D@2@@_STL@@@2@@_STL@@QAEXU?$_List_iterator@V?$basic_string@DV?$char_traits@D@_STL@@V?$allocator@D@2@@_STL@@U?$_Nonconst_traits@V?$basic_string@DV?$char_traits@D@_STL@@V?$allocator@D@2@@_STL@@@2@@1@U?$_List_iterator@V?$basic_string@DV?$char_traits@D@_STL@@V?$allocator@D@2@@_STL@@U?$_Const_traits@V?$basic_string@DV?$char_traits@D@_STL@@V?$allocator@D@2@@_STL@@@2@@1@1@Z
_TEXT	SEGMENT
$T105589 = -1						; size = 1
___pos$ = 8						; size = 4
___first$ = 12						; size = 4
___last$ = 16						; size = 4
??$insert@U?$_List_iterator@V?$basic_string@DV?$char_traits@D@_STL@@V?$allocator@D@2@@_STL@@U?$_Const_traits@V?$basic_string@DV?$char_traits@D@_STL@@V?$allocator@D@2@@_STL@@@2@@_STL@@@?$list@V?$basic_string@DV?$char_traits@D@_STL@@V?$allocator@D@2@@_STL@@V?$allocator@V?$basic_string@DV?$char_traits@D@_STL@@V?$allocator@D@2@@_STL@@@2@@_STL@@QAEXU?$_List_iterator@V?$basic_string@DV?$char_traits@D@_STL@@V?$allocator@D@2@@_STL@@U?$_Nonconst_traits@V?$basic_string@DV?$char_traits@D@_STL@@V?$allocator@D@2@@_STL@@@2@@1@U?$_List_iterator@V?$basic_string@DV?$char_traits@D@_STL@@V?$allocator@D@2@@_STL@@U?$_Const_traits@V?$basic_string@DV?$char_traits@D@_STL@@V?$allocator@D@2@@_STL@@@2@@1@1@Z PROC NEAR ; _STL::list<_STL::basic_string<char,_STL::char_traits<char>,_STL::allocator<char> >,_STL::allocator<_STL::basic_string<char,_STL::char_traits<char>,_STL::allocator<char> > > >::insert<_STL::_List_iterator<_STL::basic_string<char,_STL::char_traits<char>,_STL::allocator<char> >,_STL::_Const_traits<_STL::basic_string<char,_STL::char_traits<char>,_STL::allocator<char> > > > >, COMDAT
; _this$ = ecx

; 312  :   void insert(iterator __pos, _InputIterator __first, _InputIterator __last) {

  00000	55		 push	 ebp
  00001	8b ec		 mov	 ebp, esp
  00003	51		 push	 ecx

; 313  :     typedef typename _Is_integer<_InputIterator>::_Integral _Integral;
; 314  :     _M_insert_dispatch(__pos, __first, __last, _Integral());

  00004	8b 55 08	 mov	 edx, DWORD PTR ___pos$[ebp]
  00007	57		 push	 edi
  00008	33 c0		 xor	 eax, eax
  0000a	8d 7d ff	 lea	 edi, DWORD PTR $T105589[ebp]
  0000d	aa		 stosb
  0000e	8d 45 ff	 lea	 eax, DWORD PTR $T105589[ebp]
  00011	50		 push	 eax
  00012	ff 75 10	 push	 DWORD PTR ___last$[ebp]
  00015	ff 75 0c	 push	 DWORD PTR ___first$[ebp]
  00018	51		 push	 ecx
  00019	8b c4		 mov	 eax, esp
  0001b	89 10		 mov	 DWORD PTR [eax], edx
  0001d	e8 00 00 00 00	 call	 ??$_M_insert_dispatch@U?$_List_iterator@V?$basic_string@DV?$char_traits@D@_STL@@V?$allocator@D@2@@_STL@@U?$_Const_traits@V?$basic_string@DV?$char_traits@D@_STL@@V?$allocator@D@2@@_STL@@@2@@_STL@@@?$list@V?$basic_string@DV?$char_traits@D@_STL@@V?$allocator@D@2@@_STL@@V?$allocator@V?$basic_string@DV?$char_traits@D@_STL@@V?$allocator@D@2@@_STL@@@2@@_STL@@QAEXU?$_List_iterator@V?$basic_string@DV?$char_traits@D@_STL@@V?$allocator@D@2@@_STL@@U?$_Nonconst_traits@V?$basic_string@DV?$char_traits@D@_STL@@V?$allocator@D@2@@_STL@@@2@@1@U?$_List_iterator@V?$basic_string@DV?$char_traits@D@_STL@@V?$allocator@D@2@@_STL@@U?$_Const_traits@V?$basic_string@DV?$char_traits@D@_STL@@V?$allocator@D@2@@_STL@@@2@@1@1ABU__false_type@1@@Z ; _STL::list<_STL::basic_string<char,_STL::char_traits<char>,_STL::allocator<char> >,_STL::allocator<_STL::basic_string<char,_STL::char_traits<char>,_STL::allocator<char> > > >::_M_insert_dispatch<_STL::_List_iterator<_STL::basic_string<char,_STL::char_traits<char>,_STL::allocator<char> >,_STL::_Const_traits<_STL::basic_string<char,_STL::char_traits<char>,_STL::allocator<char> > > > >

; 315  :   }

  00022	5f		 pop	 edi
  00023	c9		 leave
  00024	c2 0c 00	 ret	 12			; 0000000cH
??$insert@U?$_List_iterator@V?$basic_string@DV?$char_traits@D@_STL@@V?$allocator@D@2@@_STL@@U?$_Const_traits@V?$basic_string@DV?$char_traits@D@_STL@@V?$allocator@D@2@@_STL@@@2@@_STL@@@?$list@V?$basic_string@DV?$char_traits@D@_STL@@V?$allocator@D@2@@_STL@@V?$allocator@V?$basic_string@DV?$char_traits@D@_STL@@V?$allocator@D@2@@_STL@@@2@@_STL@@QAEXU?$_List_iterator@V?$basic_string@DV?$char_traits@D@_STL@@V?$allocator@D@2@@_STL@@U?$_Nonconst_traits@V?$basic_string@DV?$char_traits@D@_STL@@V?$allocator@D@2@@_STL@@@2@@1@U?$_List_iterator@V?$basic_string@DV?$char_traits@D@_STL@@V?$allocator@D@2@@_STL@@U?$_Const_traits@V?$basic_string@DV?$char_traits@D@_STL@@V?$allocator@D@2@@_STL@@@2@@1@1@Z ENDP ; _STL::list<_STL::basic_string<char,_STL::char_traits<char>,_STL::allocator<char> >,_STL::allocator<_STL::basic_string<char,_STL::char_traits<char>,_STL::allocator<char> > > >::insert<_STL::_List_iterator<_STL::basic_string<char,_STL::char_traits<char>,_STL::allocator<char> >,_STL::_Const_traits<_STL::basic_string<char,_STL::char_traits<char>,_STL::allocator<char> > > > >
_TEXT	ENDS
PUBLIC	?_M_create_node@?$list@V?$basic_string@DV?$char_traits@D@_STL@@V?$allocator@D@2@@_STL@@V?$allocator@V?$basic_string@DV?$char_traits@D@_STL@@V?$allocator@D@2@@_STL@@@2@@_STL@@IAEPAU?$_List_node@V?$basic_string@DV?$char_traits@D@_STL@@V?$allocator@D@2@@_STL@@@2@ABV?$basic_string@DV?$char_traits@D@_STL@@V?$allocator@D@2@@2@@Z ; _STL::list<_STL::basic_string<char,_STL::char_traits<char>,_STL::allocator<char> >,_STL::allocator<_STL::basic_string<char,_STL::char_traits<char>,_STL::allocator<char> > > >::_M_create_node
; Function compile flags: /Ogsy
;	COMDAT ??$_M_insert_dispatch@U?$_List_iterator@V?$basic_string@DV?$char_traits@D@_STL@@V?$allocator@D@2@@_STL@@U?$_Const_traits@V?$basic_string@DV?$char_traits@D@_STL@@V?$allocator@D@2@@_STL@@@2@@_STL@@@?$list@V?$basic_string@DV?$char_traits@D@_STL@@V?$allocator@D@2@@_STL@@V?$allocator@V?$basic_string@DV?$char_traits@D@_STL@@V?$allocator@D@2@@_STL@@@2@@_STL@@QAEXU?$_List_iterator@V?$basic_string@DV?$char_traits@D@_STL@@V?$allocator@D@2@@_STL@@U?$_Nonconst_traits@V?$basic_string@DV?$char_traits@D@_STL@@V?$allocator@D@2@@_STL@@@2@@1@U?$_List_iterator@V?$basic_string@DV?$char_traits@D@_STL@@V?$allocator@D@2@@_STL@@U?$_Const_traits@V?$basic_string@DV?$char_traits@D@_STL@@V?$allocator@D@2@@_STL@@@2@@1@1ABU__false_type@1@@Z
_TEXT	SEGMENT
___position$ = 8					; size = 4
___first$ = 12						; size = 4
___last$ = 16						; size = 4
___formal$ = 20						; size = 4
??$_M_insert_dispatch@U?$_List_iterator@V?$basic_string@DV?$char_traits@D@_STL@@V?$allocator@D@2@@_STL@@U?$_Const_traits@V?$basic_string@DV?$char_traits@D@_STL@@V?$allocator@D@2@@_STL@@@2@@_STL@@@?$list@V?$basic_string@DV?$char_traits@D@_STL@@V?$allocator@D@2@@_STL@@V?$allocator@V?$basic_string@DV?$char_traits@D@_STL@@V?$allocator@D@2@@_STL@@@2@@_STL@@QAEXU?$_List_iterator@V?$basic_string@DV?$char_traits@D@_STL@@V?$allocator@D@2@@_STL@@U?$_Nonconst_traits@V?$basic_string@DV?$char_traits@D@_STL@@V?$allocator@D@2@@_STL@@@2@@1@U?$_List_iterator@V?$basic_string@DV?$char_traits@D@_STL@@V?$allocator@D@2@@_STL@@U?$_Const_traits@V?$basic_string@DV?$char_traits@D@_STL@@V?$allocator@D@2@@_STL@@@2@@1@1ABU__false_type@1@@Z PROC NEAR ; _STL::list<_STL::basic_string<char,_STL::char_traits<char>,_STL::allocator<char> >,_STL::allocator<_STL::basic_string<char,_STL::char_traits<char>,_STL::allocator<char> > > >::_M_insert_dispatch<_STL::_List_iterator<_STL::basic_string<char,_STL::char_traits<char>,_STL::allocator<char> >,_STL::_Const_traits<_STL::basic_string<char,_STL::char_traits<char>,_STL::allocator<char> > > > >, COMDAT
; _this$ = ecx

; 323  :   void 

  00000	53		 push	 ebx
  00001	56		 push	 esi

; 324  :   _M_insert_dispatch(iterator __position,
; 325  : 		     _InputIter __first, _InputIter __last,
; 326  : 		     const __false_type&) 
; 327  : #else /* _STLP_MEMBER_TEMPLATES */
; 328  :   void insert(iterator __position, const _Tp* __first, const _Tp* __last) {
; 329  :     for ( ; __first != __last; ++__first)
; 330  :       insert(__position, *__first);
; 331  :   }
; 332  :   void insert(iterator __position, const_iterator __first, const_iterator __last)
; 333  : #endif /* _STLP_MEMBER_TEMPLATES */
; 334  :   {
; 335  :     for ( ; __first != __last; ++__first)

  00002	8b 74 24 10	 mov	 esi, DWORD PTR ___first$[esp+4]
  00006	3b 74 24 14	 cmp	 esi, DWORD PTR ___last$[esp+4]
  0000a	57		 push	 edi
  0000b	8b d9		 mov	 ebx, ecx
  0000d	74 24		 je	 SHORT $L102930
  0000f	8b 7c 24 10	 mov	 edi, DWORD PTR ___position$[esp+8]
$L105659:

; 336  :       insert(__position, *__first);

  00013	8d 46 08	 lea	 eax, DWORD PTR [esi+8]
  00016	50		 push	 eax
  00017	8b cb		 mov	 ecx, ebx
  00019	e8 00 00 00 00	 call	 ?_M_create_node@?$list@V?$basic_string@DV?$char_traits@D@_STL@@V?$allocator@D@2@@_STL@@V?$allocator@V?$basic_string@DV?$char_traits@D@_STL@@V?$allocator@D@2@@_STL@@@2@@_STL@@IAEPAU?$_List_node@V?$basic_string@DV?$char_traits@D@_STL@@V?$allocator@D@2@@_STL@@@2@ABV?$basic_string@DV?$char_traits@D@_STL@@V?$allocator@D@2@@2@@Z ; _STL::list<_STL::basic_string<char,_STL::char_traits<char>,_STL::allocator<char> >,_STL::allocator<_STL::basic_string<char,_STL::char_traits<char>,_STL::allocator<char> > > >::_M_create_node
  0001e	8b 4f 04	 mov	 ecx, DWORD PTR [edi+4]
  00021	89 38		 mov	 DWORD PTR [eax], edi
  00023	89 48 04	 mov	 DWORD PTR [eax+4], ecx
  00026	89 01		 mov	 DWORD PTR [ecx], eax
  00028	89 47 04	 mov	 DWORD PTR [edi+4], eax
  0002b	8b 36		 mov	 esi, DWORD PTR [esi]
  0002d	3b 74 24 18	 cmp	 esi, DWORD PTR ___last$[esp+8]
  00031	75 e0		 jne	 SHORT $L105659
$L102930:

; 337  :   }

  00033	5f		 pop	 edi
  00034	5e		 pop	 esi
  00035	5b		 pop	 ebx
  00036	c2 10 00	 ret	 16			; 00000010H
??$_M_insert_dispatch@U?$_List_iterator@V?$basic_string@DV?$char_traits@D@_STL@@V?$allocator@D@2@@_STL@@U?$_Const_traits@V?$basic_string@DV?$char_traits@D@_STL@@V?$allocator@D@2@@_STL@@@2@@_STL@@@?$list@V?$basic_string@DV?$char_traits@D@_STL@@V?$allocator@D@2@@_STL@@V?$allocator@V?$basic_string@DV?$char_traits@D@_STL@@V?$allocator@D@2@@_STL@@@2@@_STL@@QAEXU?$_List_iterator@V?$basic_string@DV?$char_traits@D@_STL@@V?$allocator@D@2@@_STL@@U?$_Nonconst_traits@V?$basic_string@DV?$char_traits@D@_STL@@V?$allocator@D@2@@_STL@@@2@@1@U?$_List_iterator@V?$basic_string@DV?$char_traits@D@_STL@@V?$allocator@D@2@@_STL@@U?$_Const_traits@V?$basic_string@DV?$char_traits@D@_STL@@V?$allocator@D@2@@_STL@@@2@@1@1ABU__false_type@1@@Z ENDP ; _STL::list<_STL::basic_string<char,_STL::char_traits<char>,_STL::allocator<char> >,_STL::allocator<_STL::basic_string<char,_STL::char_traits<char>,_STL::allocator<char> > > >::_M_insert_dispatch<_STL::_List_iterator<_STL::basic_string<char,_STL::char_traits<char>,_STL::allocator<char> >,_STL::_Const_traits<_STL::basic_string<char,_STL::char_traits<char>,_STL::allocator<char> > > > >
_TEXT	ENDS
;	COMDAT xdata$x
; File c:\stlport-4.6.1\stlport\stl\_alloc.h
xdata$x	SEGMENT
$T105735 DD	0ffffffffH
	DD	00H
	DD	00H
	DD	FLAT:$L105714
	DD	0ffffffffH
	DD	00H
$T105737 DD	00H
	DD	00H
	DD	00H
	DD	FLAT:$L105701
$T105736 DD	00H
	DD	01H
	DD	02H
	DD	01H
	DD	FLAT:$T105737
$T105732 DD	019930520H
	DD	03H
	DD	FLAT:$T105735
	DD	01H
	DD	FLAT:$T105736
	DD	2 DUP(00H)
; Function compile flags: /Ogsy
; File c:\stlport-4.6.1\stlport\stl\_list.h
xdata$x	ENDS
;	COMDAT ?_M_create_node@?$list@V?$basic_string@DV?$char_traits@D@_STL@@V?$allocator@D@2@@_STL@@V?$allocator@V?$basic_string@DV?$char_traits@D@_STL@@V?$allocator@D@2@@_STL@@@2@@_STL@@IAEPAU?$_List_node@V?$basic_string@DV?$char_traits@D@_STL@@V?$allocator@D@2@@_STL@@@2@ABV?$basic_string@DV?$char_traits@D@_STL@@V?$allocator@D@2@@2@@Z
_TEXT	SEGMENT
$T105720 = -28						; size = 4
$T105726 = -24						; size = 4
___p$ = -20						; size = 4
__$EHRec$ = -16						; size = 16
___x$ = 8						; size = 4
?_M_create_node@?$list@V?$basic_string@DV?$char_traits@D@_STL@@V?$allocator@D@2@@_STL@@V?$allocator@V?$basic_string@DV?$char_traits@D@_STL@@V?$allocator@D@2@@_STL@@@2@@_STL@@IAEPAU?$_List_node@V?$basic_string@DV?$char_traits@D@_STL@@V?$allocator@D@2@@_STL@@@2@ABV?$basic_string@DV?$char_traits@D@_STL@@V?$allocator@D@2@@2@@Z PROC NEAR ; _STL::list<_STL::basic_string<char,_STL::char_traits<char>,_STL::allocator<char> >,_STL::allocator<_STL::basic_string<char,_STL::char_traits<char>,_STL::allocator<char> > > >::_M_create_node, COMDAT
; _this$ = ecx

; 240  :   {

  00000	b8 00 00 00 00	 mov	 eax, __ehhandler$?_M_create_node@?$list@V?$basic_string@DV?$char_traits@D@_STL@@V?$allocator@D@2@@_STL@@V?$allocator@V?$basic_string@DV?$char_traits@D@_STL@@V?$allocator@D@2@@_STL@@@2@@_STL@@IAEPAU?$_List_node@V?$basic_string@DV?$char_traits@D@_STL@@V?$allocator@D@2@@_STL@@@2@ABV?$basic_string@DV?$char_traits@D@_STL@@V?$allocator@D@2@@2@@Z
  00005	e8 00 00 00 00	 call	 __EH_prolog
  0000a	83 ec 10	 sub	 esp, 16			; 00000010H
  0000d	53		 push	 ebx
  0000e	56		 push	 esi
  0000f	57		 push	 edi
  00010	89 65 f0	 mov	 DWORD PTR __$EHRec$[ebp], esp

; 241  :     _Node* __p = this->_M_node.allocate(1);

  00013	6a 14		 push	 20			; 00000014H
  00015	e8 00 00 00 00	 call	 ?allocate@?$__node_alloc@$00$0A@@_STL@@SAPAXI@Z ; _STL::__node_alloc<1,0>::allocate

; 242  :     _STLP_TRY {

  0001a	83 65 fc 00	 and	 DWORD PTR __$EHRec$[ebp+12], 0
  0001e	8b f0		 mov	 esi, eax
  00020	59		 pop	 ecx

; 243  :       _Construct(&__p->_M_data, __x);

  00021	8d 4e 08	 lea	 ecx, DWORD PTR [esi+8]
  00024	89 75 ec	 mov	 DWORD PTR ___p$[ebp], esi
  00027	89 4d e8	 mov	 DWORD PTR $T105726[ebp], ecx
  0002a	89 4d e4	 mov	 DWORD PTR $T105720[ebp], ecx
  0002d	85 c9		 test	 ecx, ecx
  0002f	c6 45 fc 01	 mov	 BYTE PTR __$EHRec$[ebp+12], 1
  00033	74 08		 je	 SHORT $L105721
  00035	ff 75 08	 push	 DWORD PTR ___x$[ebp]
  00038	e8 00 00 00 00	 call	 ??0?$basic_string@DV?$char_traits@D@_STL@@V?$allocator@D@2@@_STL@@QAE@ABV01@@Z ; _STL::basic_string<char,_STL::char_traits<char>,_STL::allocator<char> >::basic_string<char,_STL::char_traits<char>,_STL::allocator<char> >
$L105721:

; 246  :     return __p;
; 247  :   }

  0003d	8b 4d f4	 mov	 ecx, DWORD PTR __$EHRec$[ebp+4]
  00040	5f		 pop	 edi
  00041	8b c6		 mov	 eax, esi
  00043	5e		 pop	 esi
  00044	64 89 0d 00 00
	00 00		 mov	 DWORD PTR fs:__except_list, ecx
  0004b	5b		 pop	 ebx
  0004c	c9		 leave
  0004d	c2 04 00	 ret	 4
$L105701:

; 244  :     }
; 245  :     _STLP_UNWIND(this->_M_node.deallocate(__p, 1));

  00050	83 7d ec 00	 cmp	 DWORD PTR ___p$[ebp], 0
  00054	74 0c		 je	 SHORT $L105730
  00056	6a 14		 push	 20			; 00000014H
  00058	ff 75 ec	 push	 DWORD PTR ___p$[ebp]
  0005b	e8 00 00 00 00	 call	 ?deallocate@?$__node_alloc@$00$0A@@_STL@@SAXPAXI@Z ; _STL::__node_alloc<1,0>::deallocate
  00060	59		 pop	 ecx
  00061	59		 pop	 ecx
$L105730:
  00062	6a 00		 push	 0
  00064	6a 00		 push	 0
  00066	e8 00 00 00 00	 call	 __CxxThrowException@8
$L105738:
$L105734:
  0006b	cc		 int	 3
_TEXT	ENDS
;	COMDAT text$x
text$x	SEGMENT
$L105714:
  00000	ff 75 e8	 push	 DWORD PTR $T105726[ebp]
  00003	ff 75 e4	 push	 DWORD PTR $T105720[ebp]
  00006	e8 00 00 00 00	 call	 ??3@YAXPAX0@Z		; operator delete
  0000b	59		 pop	 ecx
  0000c	59		 pop	 ecx
  0000d	c3		 ret	 0
__ehhandler$?_M_create_node@?$list@V?$basic_string@DV?$char_traits@D@_STL@@V?$allocator@D@2@@_STL@@V?$allocator@V?$basic_string@DV?$char_traits@D@_STL@@V?$allocator@D@2@@_STL@@@2@@_STL@@IAEPAU?$_List_node@V?$basic_string@DV?$char_traits@D@_STL@@V?$allocator@D@2@@_STL@@@2@ABV?$basic_string@DV?$char_traits@D@_STL@@V?$allocator@D@2@@2@@Z:
  0000e	b8 00 00 00 00	 mov	 eax, OFFSET FLAT:$T105732
  00013	e9 00 00 00 00	 jmp	 ___CxxFrameHandler
text$x	ENDS
?_M_create_node@?$list@V?$basic_string@DV?$char_traits@D@_STL@@V?$allocator@D@2@@_STL@@V?$allocator@V?$basic_string@DV?$char_traits@D@_STL@@V?$allocator@D@2@@_STL@@@2@@_STL@@IAEPAU?$_List_node@V?$basic_string@DV?$char_traits@D@_STL@@V?$allocator@D@2@@_STL@@@2@ABV?$basic_string@DV?$char_traits@D@_STL@@V?$allocator@D@2@@2@@Z ENDP ; _STL::list<_STL::basic_string<char,_STL::char_traits<char>,_STL::allocator<char> >,_STL::allocator<_STL::basic_string<char,_STL::char_traits<char>,_STL::allocator<char> > > >::_M_create_node
PUBLIC	??0?$vector@VStoreItemInfo@@V?$allocator@VStoreItemInfo@@@_STL@@@_STL@@QAE@I@Z ; _STL::vector<StoreItemInfo,_STL::allocator<StoreItemInfo> >::vector<StoreItemInfo,_STL::allocator<StoreItemInfo> >
;	COMDAT xdata$x
; File c:\darkeden\designed_common\project\client\storeinfo.h
xdata$x	SEGMENT
$T105759 DD	0ffffffffH
	DD	FLAT:$L105745
	DD	00H
	DD	FLAT:$L105746
$T105757 DD	019930520H
	DD	02H
	DD	FLAT:$T105759
	DD	2 DUP(00H)
	DD	2 DUP(00H)
; Function compile flags: /Ogsy
; File c:\stlport-4.6.1\stlport\stl\_vector.h
xdata$x	ENDS
;	COMDAT ??0?$vector@VStoreItemInfo@@V?$allocator@VStoreItemInfo@@@_STL@@@_STL@@QAE@I@Z
_TEXT	SEGMENT
$T105744 = -80						; size = 64
_this$ = -16						; size = 4
__$EHRec$ = -12						; size = 12
___n$ = 8						; size = 4
$T105743 = 11						; size = 1
??0?$vector@VStoreItemInfo@@V?$allocator@VStoreItemInfo@@@_STL@@@_STL@@QAE@I@Z PROC NEAR ; _STL::vector<StoreItemInfo,_STL::allocator<StoreItemInfo> >::vector<StoreItemInfo,_STL::allocator<StoreItemInfo> >, COMDAT
; _this$ = ecx

; 208  :     : _Vector_base<_Tp, _Alloc>(__n, allocator_type() ) {

  00000	b8 00 00 00 00	 mov	 eax, __ehhandler$??0?$vector@VStoreItemInfo@@V?$allocator@VStoreItemInfo@@@_STL@@@_STL@@QAE@I@Z
  00005	e8 00 00 00 00	 call	 __EH_prolog
  0000a	83 ec 44	 sub	 esp, 68			; 00000044H
  0000d	56		 push	 esi
  0000e	8d 45 0b	 lea	 eax, DWORD PTR $T105743[ebp]
  00011	50		 push	 eax
  00012	ff 75 08	 push	 DWORD PTR ___n$[ebp]
  00015	8b f1		 mov	 esi, ecx
  00017	89 75 f0	 mov	 DWORD PTR _this$[ebp], esi
  0001a	e8 00 00 00 00	 call	 ??0?$_Vector_base@VStoreItemInfo@@V?$allocator@VStoreItemInfo@@@_STL@@@_STL@@QAE@IABV?$allocator@VStoreItemInfo@@@1@@Z ; _STL::_Vector_base<StoreItemInfo,_STL::allocator<StoreItemInfo> >::_Vector_base<StoreItemInfo,_STL::allocator<StoreItemInfo> >
  0001f	83 65 fc 00	 and	 DWORD PTR __$EHRec$[ebp+8], 0

; 209  :     this->_M_finish = uninitialized_fill_n(this->_M_start, __n, _Tp()); 

  00023	8d 4d b0	 lea	 ecx, DWORD PTR $T105744[ebp]
  00026	e8 00 00 00 00	 call	 ??0StoreItemInfo@@QAE@XZ ; StoreItemInfo::StoreItemInfo
  0002b	50		 push	 eax
  0002c	ff 75 08	 push	 DWORD PTR ___n$[ebp]
  0002f	c6 45 fc 01	 mov	 BYTE PTR __$EHRec$[ebp+8], 1
  00033	ff 36		 push	 DWORD PTR [esi]
  00035	e8 00 00 00 00	 call	 ??$uninitialized_fill_n@PAVStoreItemInfo@@IV1@@_STL@@YAPAVStoreItemInfo@@PAV1@IABV1@@Z ; _STL::uninitialized_fill_n<StoreItemInfo *,unsigned int,StoreItemInfo>
  0003a	83 c4 0c	 add	 esp, 12			; 0000000cH
  0003d	8d 4d b0	 lea	 ecx, DWORD PTR $T105744[ebp]
  00040	89 46 04	 mov	 DWORD PTR [esi+4], eax
  00043	e8 00 00 00 00	 call	 ??1PCItemInfo@@UAE@XZ	; PCItemInfo::~PCItemInfo

; 210  :   }

  00048	8b 4d f4	 mov	 ecx, DWORD PTR __$EHRec$[ebp]
  0004b	8b c6		 mov	 eax, esi
  0004d	5e		 pop	 esi
  0004e	64 89 0d 00 00
	00 00		 mov	 DWORD PTR fs:__except_list, ecx
  00055	c9		 leave
  00056	c2 04 00	 ret	 4
_TEXT	ENDS
;	COMDAT text$x
text$x	SEGMENT
$L105745:
  00000	8b 4d f0	 mov	 ecx, DWORD PTR _this$[ebp]
  00003	e9 00 00 00 00	 jmp	 ??1?$_Vector_base@VStoreItemInfo@@V?$allocator@VStoreItemInfo@@@_STL@@@_STL@@QAE@XZ ; _STL::_Vector_base<StoreItemInfo,_STL::allocator<StoreItemInfo> >::~_Vector_base<StoreItemInfo,_STL::allocator<StoreItemInfo> >
$L105746:
  00008	8d 4d b0	 lea	 ecx, DWORD PTR $T105744[ebp]
  0000b	e9 00 00 00 00	 jmp	 ??1StoreItemInfo@@UAE@XZ
__ehhandler$??0?$vector@VStoreItemInfo@@V?$allocator@VStoreItemInfo@@@_STL@@@_STL@@QAE@I@Z:
  00010	b8 00 00 00 00	 mov	 eax, OFFSET FLAT:$T105757
  00015	e9 00 00 00 00	 jmp	 ___CxxFrameHandler
text$x	ENDS
??0?$vector@VStoreItemInfo@@V?$allocator@VStoreItemInfo@@@_STL@@@_STL@@QAE@I@Z ENDP ; _STL::vector<StoreItemInfo,_STL::allocator<StoreItemInfo> >::vector<StoreItemInfo,_STL::allocator<StoreItemInfo> >
; Function compile flags: /Ogsy
;	COMDAT ??0Error@@QAE@ABV0@@Z
_TEXT	SEGMENT
___that$ = 8						; size = 4
??0Error@@QAE@ABV0@@Z PROC NEAR				; Error::Error, COMDAT
; _this$ = ecx
  00000	56		 push	 esi
  00001	ff 74 24 08	 push	 DWORD PTR ___that$[esp]
  00005	8b f1		 mov	 esi, ecx
  00007	e8 00 00 00 00	 call	 ??0Throwable@@QAE@ABV0@@Z
  0000c	c7 06 00 00 00
	00		 mov	 DWORD PTR [esi], OFFSET FLAT:??_7Error@@6B@
  00012	8b c6		 mov	 eax, esi
  00014	5e		 pop	 esi
  00015	c2 04 00	 ret	 4
??0Error@@QAE@ABV0@@Z ENDP				; Error::Error
_TEXT	ENDS
PUBLIC	??0StoreInfo@@QAE@XZ				; StoreInfo::StoreInfo
;	COMDAT xdata$x
; File c:\darkeden\designed_common\project\client\storeinfo.h
xdata$x	SEGMENT
$T105773 DD	0ffffffffH
	DD	FLAT:$L105768
$T105771 DD	019930520H
	DD	01H
	DD	FLAT:$T105773
	DD	2 DUP(00H)
	DD	2 DUP(00H)
; Function compile flags: /Ogsy
xdata$x	ENDS
;	COMDAT ??0StoreInfo@@QAE@XZ
_TEXT	SEGMENT
_this$ = -16						; size = 4
__$EHRec$ = -12						; size = 12
??0StoreInfo@@QAE@XZ PROC NEAR				; StoreInfo::StoreInfo, COMDAT
; _this$ = ecx

; 69   : 	StoreInfo() : m_Open(0), m_Items(MAX_ITEM_NUM) { }

  00000	b8 00 00 00 00	 mov	 eax, __ehhandler$??0StoreInfo@@QAE@XZ
  00005	e8 00 00 00 00	 call	 __EH_prolog
  0000a	51		 push	 ecx
  0000b	56		 push	 esi
  0000c	8b f1		 mov	 esi, ecx
  0000e	8d 4e 04	 lea	 ecx, DWORD PTR [esi+4]
  00011	89 75 f0	 mov	 DWORD PTR _this$[ebp], esi
  00014	c6 06 00	 mov	 BYTE PTR [esi], 0
  00017	e8 00 00 00 00	 call	 ??0?$basic_string@DV?$char_traits@D@_STL@@V?$allocator@D@2@@_STL@@QAE@XZ ; _STL::basic_string<char,_STL::char_traits<char>,_STL::allocator<char> >::basic_string<char,_STL::char_traits<char>,_STL::allocator<char> >
  0001c	83 65 fc 00	 and	 DWORD PTR __$EHRec$[ebp+8], 0
  00020	6a 14		 push	 20			; 00000014H
  00022	8d 4e 10	 lea	 ecx, DWORD PTR [esi+16]
  00025	e8 00 00 00 00	 call	 ??0?$vector@VStoreItemInfo@@V?$allocator@VStoreItemInfo@@@_STL@@@_STL@@QAE@I@Z ; _STL::vector<StoreItemInfo,_STL::allocator<StoreItemInfo> >::vector<StoreItemInfo,_STL::allocator<StoreItemInfo> >
  0002a	8b 4d f4	 mov	 ecx, DWORD PTR __$EHRec$[ebp]
  0002d	8b c6		 mov	 eax, esi
  0002f	5e		 pop	 esi
  00030	64 89 0d 00 00
	00 00		 mov	 DWORD PTR fs:__except_list, ecx
  00037	c9		 leave
  00038	c3		 ret	 0
_TEXT	ENDS
;	COMDAT text$x
text$x	SEGMENT
$L105768:
  00000	8b 4d f0	 mov	 ecx, DWORD PTR _this$[ebp]
  00003	83 c1 04	 add	 ecx, 4
  00006	e9 00 00 00 00	 jmp	 ??1?$basic_string@DV?$char_traits@D@_STL@@V?$allocator@D@2@@_STL@@QAE@XZ ; _STL::basic_string<char,_STL::char_traits<char>,_STL::allocator<char> >::~basic_string<char,_STL::char_traits<char>,_STL::allocator<char> >
__ehhandler$??0StoreInfo@@QAE@XZ:
  0000b	b8 00 00 00 00	 mov	 eax, OFFSET FLAT:$T105771
  00010	e9 00 00 00 00	 jmp	 ___CxxFrameHandler
text$x	ENDS
??0StoreInfo@@QAE@XZ ENDP				; StoreInfo::StoreInfo
PUBLIC	?read@GCOtherStoreInfo@@UAEXAAVSocketInputStream@@@Z ; GCOtherStoreInfo::read
EXTRN	?read@StoreInfo@@QAEXAAVSocketInputStream@@_N@Z:NEAR ; StoreInfo::read
;	COMDAT xdata$x
; File c:\darkeden\designed_common\project\client\packet\gpackets\gcotherstoreinfo.cpp
xdata$x	SEGMENT
$T105800 DD	0ffffffffH
	DD	FLAT:$L105786
$T105798 DD	019930520H
	DD	01H
	DD	FLAT:$T105800
	DD	2 DUP(00H)
	DD	2 DUP(00H)
; Function compile flags: /Ogsy
xdata$x	ENDS
;	COMDAT ?read@GCOtherStoreInfo@@UAEXAAVSocketInputStream@@@Z
_TEXT	SEGMENT
$T105783 = -16						; size = 4
__$EHRec$ = -12						; size = 12
_iStream$ = 8						; size = 4
?read@GCOtherStoreInfo@@UAEXAAVSocketInputStream@@@Z PROC NEAR ; GCOtherStoreInfo::read, COMDAT
; _this$ = ecx

; 28   : {

  00000	b8 00 00 00 00	 mov	 eax, __ehhandler$?read@GCOtherStoreInfo@@UAEXAAVSocketInputStream@@@Z
  00005	e8 00 00 00 00	 call	 __EH_prolog
  0000a	51		 push	 ecx
  0000b	56		 push	 esi
  0000c	57		 push	 edi
  0000d	8b f1		 mov	 esi, ecx

; 29   : 	__BEGIN_TRY
; 30   : 
; 31   : 	iStream.read(m_ObjectID);

  0000f	8b 4d 08	 mov	 ecx, DWORD PTR _iStream$[ebp]
  00012	6a 04		 push	 4
  00014	8d 46 04	 lea	 eax, DWORD PTR [esi+4]
  00017	50		 push	 eax
  00018	e8 00 00 00 00	 call	 ?read@SocketInputStream@@QAEIPADI@Z ; SocketInputStream::read

; 32   : 	iStream.read(m_IsRequested);

  0001d	8b 4d 08	 mov	 ecx, DWORD PTR _iStream$[ebp]
  00020	6a 01		 push	 1
  00022	8d 46 08	 lea	 eax, DWORD PTR [esi+8]
  00025	50		 push	 eax
  00026	e8 00 00 00 00	 call	 ?read@SocketInputStream@@QAEIPADI@Z ; SocketInputStream::read

; 33   : 	SAFE_DELETE(m_pInfo);

  0002b	8b 7e 0c	 mov	 edi, DWORD PTR [esi+12]
  0002e	85 ff		 test	 edi, edi
  00030	74 12		 je	 SHORT $L102053
  00032	8b cf		 mov	 ecx, edi
  00034	e8 00 00 00 00	 call	 ??1StoreInfo@@QAE@XZ
  00039	57		 push	 edi
  0003a	e8 00 00 00 00	 call	 ??3@YAXPAX@Z		; operator delete
  0003f	83 66 0c 00	 and	 DWORD PTR [esi+12], 0
  00043	59		 pop	 ecx
$L102053:

; 34   : 	m_pInfo = new StoreInfo;	

  00044	6a 20		 push	 32			; 00000020H
  00046	e8 00 00 00 00	 call	 ??2@YAPAXI@Z		; operator new
  0004b	59		 pop	 ecx
  0004c	8b c8		 mov	 ecx, eax
  0004e	89 4d f0	 mov	 DWORD PTR $T105783[ebp], ecx
  00051	83 65 fc 00	 and	 DWORD PTR __$EHRec$[ebp+8], 0
  00055	85 c9		 test	 ecx, ecx
  00057	74 07		 je	 SHORT $L105784
  00059	e8 00 00 00 00	 call	 ??0StoreInfo@@QAE@XZ	; StoreInfo::StoreInfo
  0005e	eb 02		 jmp	 SHORT $L105785
$L105784:
  00060	33 c0		 xor	 eax, eax
$L105785:
  00062	83 4d fc ff	 or	 DWORD PTR __$EHRec$[ebp+8], -1

; 35   : 	m_pInfo->read( iStream, true );

  00066	6a 01		 push	 1
  00068	ff 75 08	 push	 DWORD PTR _iStream$[ebp]
  0006b	8b c8		 mov	 ecx, eax
  0006d	89 46 0c	 mov	 DWORD PTR [esi+12], eax
  00070	e8 00 00 00 00	 call	 ?read@StoreInfo@@QAEXAAVSocketInputStream@@_N@Z ; StoreInfo::read

; 36   : 
; 37   : 	__END_CATCH
; 38   : }

  00075	8b 4d f4	 mov	 ecx, DWORD PTR __$EHRec$[ebp]
  00078	5f		 pop	 edi
  00079	5e		 pop	 esi
  0007a	64 89 0d 00 00
	00 00		 mov	 DWORD PTR fs:__except_list, ecx
  00081	c9		 leave
  00082	c2 04 00	 ret	 4
_TEXT	ENDS
;	COMDAT text$x
text$x	SEGMENT
$L105786:
  00000	ff 75 f0	 push	 DWORD PTR $T105783[ebp]
  00003	e8 00 00 00 00	 call	 ??3@YAXPAX@Z		; operator delete
  00008	59		 pop	 ecx
  00009	c3		 ret	 0
__ehhandler$?read@GCOtherStoreInfo@@UAEXAAVSocketInputStream@@@Z:
  0000a	b8 00 00 00 00	 mov	 eax, OFFSET FLAT:$T105798
  0000f	e9 00 00 00 00	 jmp	 ___CxxFrameHandler
text$x	ENDS
?read@GCOtherStoreInfo@@UAEXAAVSocketInputStream@@@Z ENDP ; GCOtherStoreInfo::read
; Function compile flags: /Ogsy
;	COMDAT ??0UnsupportedError@@QAE@ABV0@@Z
_TEXT	SEGMENT
___that$ = 8						; size = 4
??0UnsupportedError@@QAE@ABV0@@Z PROC NEAR		; UnsupportedError::UnsupportedError, COMDAT
; _this$ = ecx
  00000	56		 push	 esi
  00001	ff 74 24 08	 push	 DWORD PTR ___that$[esp]
  00005	8b f1		 mov	 esi, ecx
  00007	e8 00 00 00 00	 call	 ??0Error@@QAE@ABV0@@Z
  0000c	c7 06 00 00 00
	00		 mov	 DWORD PTR [esi], OFFSET FLAT:??_7UnsupportedError@@6B@
  00012	8b c6		 mov	 eax, esi
  00014	5e		 pop	 esi
  00015	c2 04 00	 ret	 4
??0UnsupportedError@@QAE@ABV0@@Z ENDP			; UnsupportedError::UnsupportedError
_TEXT	ENDS
END
