; Listing generated by Microsoft (R) Optimizing Compiler Version 13.10.3077 

	TITLE	\darkeden\Designed_Common\Project\Client\Packet\Gpackets\GCStashList.cpp
	.386P
include listing.inc
if @Version gt 510
.model FLAT
else
_TEXT	SEGMENT PARA USE32 PUBLIC 'CODE'
_TEXT	ENDS
_DATA	SEGMENT DWORD USE32 PUBLIC 'DATA'
_DATA	ENDS
CONST	SEGMENT DWORD USE32 PUBLIC 'CONST'
CONST	ENDS
_BSS	SEGMENT DWORD USE32 PUBLIC 'BSS'
_BSS	ENDS
$$SYMBOLS	SEGMENT BYTE USE32 'DEBSYM'
$$SYMBOLS	ENDS
$$TYPES	SEGMENT BYTE USE32 'DEBTYP'
$$TYPES	ENDS
_TLS	SEGMENT DWORD USE32 PUBLIC 'TLS'
_TLS	ENDS
;	COMDAT ??_C@_0CA@NDINADEE@SocketOutputStream?$CIm_BufferLen?3?$AA@
CONST	SEGMENT DWORD USE32 PUBLIC 'CONST'
CONST	ENDS
;	COMDAT ??_C@_08LIHEOLAN@?0m_Head?3?$AA@
CONST	SEGMENT DWORD USE32 PUBLIC 'CONST'
CONST	ENDS
;	COMDAT ??_C@_08PCEHPGHK@?0m_Tail?3?$AA@
CONST	SEGMENT DWORD USE32 PUBLIC 'CONST'
CONST	ENDS
;	COMDAT ??_C@_01PKGAHCOL@?$CJ?$AA@
CONST	SEGMENT DWORD USE32 PUBLIC 'CONST'
CONST	ENDS
;	COMDAT ??_C@_0M@JDLIDHAN@GCStashList?$AA@
CONST	SEGMENT DWORD USE32 PUBLIC 'CONST'
CONST	ENDS
;	COMDAT ??_C@_0N@GOPDCEEB@basic_string?$AA@
CONST	SEGMENT DWORD USE32 PUBLIC 'CONST'
CONST	ENDS
xdata$x	SEGMENT DWORD USE32 PUBLIC 'CONST'
xdata$x	ENDS
rdata$r	SEGMENT DWORD USE32 PUBLIC 'CONST'
rdata$r	ENDS
text$yc	SEGMENT PARA USE32 PUBLIC 'CODE'
text$yc	ENDS
CRT$XCA	SEGMENT DWORD USE32 PUBLIC 'DATA'
CRT$XCA	ENDS
CRT$XCU	SEGMENT DWORD USE32 PUBLIC 'DATA'
CRT$XCU	ENDS
CRT$XCL	SEGMENT DWORD USE32 PUBLIC 'DATA'
CRT$XCL	ENDS
CRT$XCC	SEGMENT DWORD USE32 PUBLIC 'DATA'
CRT$XCC	ENDS
CRT$XCZ	SEGMENT DWORD USE32 PUBLIC 'DATA'
CRT$XCZ	ENDS
text$yd	SEGMENT PARA USE32 PUBLIC 'CODE'
text$yd	ENDS
;	COMDAT ?getHost@SocketImpl@@QBE?AV?$basic_string@DV?$char_traits@D@_STL@@V?$allocator@D@2@@_STL@@XZ
_TEXT	SEGMENT PARA USE32 PUBLIC 'CODE'
_TEXT	ENDS
;	COMDAT ?getPort@SocketImpl@@QBEIXZ
_TEXT	SEGMENT PARA USE32 PUBLIC 'CODE'
_TEXT	ENDS
;	COMDAT ?isValid@SocketImpl@@QBE_NXZ
_TEXT	SEGMENT PARA USE32 PUBLIC 'CODE'
_TEXT	ENDS
;	COMDAT ?getSOCKET@SocketImpl@@QBEIXZ
_TEXT	SEGMENT PARA USE32 PUBLIC 'CODE'
_TEXT	ENDS
;	COMDAT ?read@SocketInputStream@@QAEIAAD@Z
_TEXT	SEGMENT PARA USE32 PUBLIC 'CODE'
_TEXT	ENDS
;	COMDAT ?read@SocketInputStream@@QAEIAAE@Z
_TEXT	SEGMENT PARA USE32 PUBLIC 'CODE'
_TEXT	ENDS
;	COMDAT ?read@SocketInputStream@@QAEIAAG@Z
_TEXT	SEGMENT PARA USE32 PUBLIC 'CODE'
_TEXT	ENDS
;	COMDAT ?read@SocketInputStream@@QAEIAAH@Z
_TEXT	SEGMENT PARA USE32 PUBLIC 'CODE'
_TEXT	ENDS
;	COMDAT ?read@SocketInputStream@@QAEIAAK@Z
_TEXT	SEGMENT PARA USE32 PUBLIC 'CODE'
_TEXT	ENDS
;	COMDAT ?write@SocketOutputStream@@QAEID@Z
_TEXT	SEGMENT PARA USE32 PUBLIC 'CODE'
_TEXT	ENDS
;	COMDAT ?write@SocketOutputStream@@QAEIE@Z
_TEXT	SEGMENT PARA USE32 PUBLIC 'CODE'
_TEXT	ENDS
;	COMDAT ?write@SocketOutputStream@@QAEIG@Z
_TEXT	SEGMENT PARA USE32 PUBLIC 'CODE'
_TEXT	ENDS
;	COMDAT ?write@SocketOutputStream@@QAEIH@Z
_TEXT	SEGMENT PARA USE32 PUBLIC 'CODE'
_TEXT	ENDS
;	COMDAT ?write@SocketOutputStream@@QAEII@Z
_TEXT	SEGMENT PARA USE32 PUBLIC 'CODE'
_TEXT	ENDS
;	COMDAT ?write@SocketOutputStream@@QAEIK@Z
_TEXT	SEGMENT PARA USE32 PUBLIC 'CODE'
_TEXT	ENDS
;	COMDAT ??1Packet@@UAE@XZ
_TEXT	SEGMENT PARA USE32 PUBLIC 'CODE'
_TEXT	ENDS
;	COMDAT ?read@Packet@@UAEXPAVSocket@@@Z
_TEXT	SEGMENT PARA USE32 PUBLIC 'CODE'
_TEXT	ENDS
;	COMDAT ?write@Packet@@UBEXPAVSocket@@@Z
_TEXT	SEGMENT PARA USE32 PUBLIC 'CODE'
_TEXT	ENDS
;	COMDAT ??_GPacket@@UAEPAXI@Z
_TEXT	SEGMENT PARA USE32 PUBLIC 'CODE'
_TEXT	ENDS
;	COMDAT ??0UnsupportedError@@QAE@ABV0@@Z
_TEXT	SEGMENT PARA USE32 PUBLIC 'CODE'
_TEXT	ENDS
;	COMDAT ??0Error@@QAE@ABV0@@Z
_TEXT	SEGMENT PARA USE32 PUBLIC 'CODE'
_TEXT	ENDS
;	COMDAT ??0Throwable@@QAE@ABV0@@Z
_TEXT	SEGMENT PARA USE32 PUBLIC 'CODE'
_TEXT	ENDS
;	COMDAT ??1PacketFactory@@UAE@XZ
_TEXT	SEGMENT PARA USE32 PUBLIC 'CODE'
_TEXT	ENDS
;	COMDAT ??_GPacketFactory@@UAEPAXI@Z
_TEXT	SEGMENT PARA USE32 PUBLIC 'CODE'
_TEXT	ENDS
;	COMDAT ?getSize@SubItemInfo@@SAIXZ
_TEXT	SEGMENT PARA USE32 PUBLIC 'CODE'
_TEXT	ENDS
;	COMDAT ?getPacketSize@_STASHITEM@@QBEHXZ
_TEXT	SEGMENT PARA USE32 PUBLIC 'CODE'
_TEXT	ENDS
;	COMDAT ?getPacketMaxSize@_STASHITEM@@SAHXZ
_TEXT	SEGMENT PARA USE32 PUBLIC 'CODE'
_TEXT	ENDS
;	COMDAT ?getPacketID@GCStashList@@UBEGXZ
_TEXT	SEGMENT PARA USE32 PUBLIC 'CODE'
_TEXT	ENDS
;	COMDAT ??0GCStashList@@QAE@XZ
_TEXT	SEGMENT PARA USE32 PUBLIC 'CODE'
_TEXT	ENDS
;	COMDAT ??_GGCStashList@@UAEPAXI@Z
_TEXT	SEGMENT PARA USE32 PUBLIC 'CODE'
_TEXT	ENDS
;	COMDAT ??0Packet@@QAE@XZ
_TEXT	SEGMENT PARA USE32 PUBLIC 'CODE'
_TEXT	ENDS
;	COMDAT ??0_STASHITEM@@QAE@XZ
_TEXT	SEGMENT PARA USE32 PUBLIC 'CODE'
_TEXT	ENDS
;	COMDAT ??1_STASHITEM@@QAE@XZ
_TEXT	SEGMENT PARA USE32 PUBLIC 'CODE'
_TEXT	ENDS
;	COMDAT ??_F?$list@PAVSubItemInfo@@V?$allocator@PAVSubItemInfo@@@_STL@@@_STL@@QAEXXZ
_TEXT	SEGMENT PARA USE32 PUBLIC 'CODE'
_TEXT	ENDS
;	COMDAT ??1GCStashList@@UAE@XZ
_TEXT	SEGMENT PARA USE32 PUBLIC 'CODE'
_TEXT	ENDS
;	COMDAT ?read@GCStashList@@UAEXAAVSocketInputStream@@@Z
_TEXT	SEGMENT PARA USE32 PUBLIC 'CODE'
_TEXT	ENDS
;	COMDAT ?write@GCStashList@@UBEXAAVSocketOutputStream@@@Z
_TEXT	SEGMENT PARA USE32 PUBLIC 'CODE'
_TEXT	ENDS
;	COMDAT ?execute@GCStashList@@UAEXPAVPlayer@@@Z
_TEXT	SEGMENT PARA USE32 PUBLIC 'CODE'
_TEXT	ENDS
;	COMDAT ?getPacketSize@GCStashList@@UBEIXZ
_TEXT	SEGMENT PARA USE32 PUBLIC 'CODE'
_TEXT	ENDS
;	COMDAT ?isExist@GCStashList@@QBE_NEE@Z
_TEXT	SEGMENT PARA USE32 PUBLIC 'CODE'
_TEXT	ENDS
;	COMDAT ?getStashItem@GCStashList@@QBE?AU_STASHITEM@@EE@Z
_TEXT	SEGMENT PARA USE32 PUBLIC 'CODE'
_TEXT	ENDS
;	COMDAT ??0_STASHITEM@@QAE@ABU0@@Z
_TEXT	SEGMENT PARA USE32 PUBLIC 'CODE'
_TEXT	ENDS
;	COMDAT ?setStashItem@GCStashList@@QAEXEEPAVItem@@@Z
_TEXT	SEGMENT PARA USE32 PUBLIC 'CODE'
_TEXT	ENDS
;	COMDAT ?getSubItems@GCStashList@@QAEAAV?$list@PAVSubItemInfo@@V?$allocator@PAVSubItemInfo@@@_STL@@@_STL@@EE@Z
_TEXT	SEGMENT PARA USE32 PUBLIC 'CODE'
_TEXT	ENDS
;	COMDAT ?getSubItemCount@GCStashList@@QAEEEE@Z
_TEXT	SEGMENT PARA USE32 PUBLIC 'CODE'
_TEXT	ENDS
;	COMDAT ?eq@?$__char_traits_base@DH@_STL@@SA_NABD0@Z
_TEXT	SEGMENT PARA USE32 PUBLIC 'CODE'
_TEXT	ENDS
;	COMDAT ?not_eof@?$__char_traits_base@DH@_STL@@SAHABH@Z
_TEXT	SEGMENT PARA USE32 PUBLIC 'CODE'
_TEXT	ENDS
;	COMDAT ?eq_int_type@?$__char_traits_base@DH@_STL@@SA_NABH0@Z
_TEXT	SEGMENT PARA USE32 PUBLIC 'CODE'
_TEXT	ENDS
;	COMDAT ?get_allocator@?$basic_string@DV?$char_traits@D@_STL@@V?$allocator@D@2@@_STL@@QBE?AV?$allocator@D@2@XZ
_TEXT	SEGMENT PARA USE32 PUBLIC 'CODE'
_TEXT	ENDS
;	COMDAT ?_M_terminate_string@?$basic_string@DV?$char_traits@D@_STL@@V?$allocator@D@2@@_STL@@AAEXXZ
_TEXT	SEGMENT PARA USE32 PUBLIC 'CODE'
_TEXT	ENDS
;	COMDAT ?size@?$basic_string@DV?$char_traits@D@_STL@@V?$allocator@D@2@@_STL@@QBEIXZ
_TEXT	SEGMENT PARA USE32 PUBLIC 'CODE'
_TEXT	ENDS
;	COMDAT ?c_str@?$basic_string@DV?$char_traits@D@_STL@@V?$allocator@D@2@@_STL@@QBEPBDXZ
_TEXT	SEGMENT PARA USE32 PUBLIC 'CODE'
_TEXT	ENDS
;	COMDAT ??0?$_String_base@DV?$allocator@D@_STL@@@_STL@@QAE@ABV?$allocator@D@1@@Z
_TEXT	SEGMENT PARA USE32 PUBLIC 'CODE'
_TEXT	ENDS
;	COMDAT ?allocate@?$allocator@D@_STL@@QAEPADIPBX@Z
_TEXT	SEGMENT PARA USE32 PUBLIC 'CODE'
_TEXT	ENDS
;	COMDAT ??0?$allocator@G@_STL@@QAE@XZ
_TEXT	SEGMENT PARA USE32 PUBLIC 'CODE'
_TEXT	ENDS
;	COMDAT ??0?$fpos@H@_STL@@QAE@J@Z
_TEXT	SEGMENT PARA USE32 PUBLIC 'CODE'
_TEXT	ENDS
;	COMDAT ??B?$fpos@H@_STL@@QBEJXZ
_TEXT	SEGMENT PARA USE32 PUBLIC 'CODE'
_TEXT	ENDS
;	COMDAT ?state@?$fpos@H@_STL@@QBEHXZ
_TEXT	SEGMENT PARA USE32 PUBLIC 'CODE'
_TEXT	ENDS
;	COMDAT ?is_open@?$basic_filebuf@DV?$char_traits@D@_STL@@@_STL@@QBE_NXZ
_TEXT	SEGMENT PARA USE32 PUBLIC 'CODE'
_TEXT	ENDS
;	COMDAT ?_M_seek_return@?$basic_filebuf@DV?$char_traits@D@_STL@@@_STL@@AAE?AV?$fpos@H@2@JH@Z
_TEXT	SEGMENT PARA USE32 PUBLIC 'CODE'
_TEXT	ENDS
;	COMDAT ??0?$list@V?$basic_string@DV?$char_traits@D@_STL@@V?$allocator@D@2@@_STL@@V?$allocator@V?$basic_string@DV?$char_traits@D@_STL@@V?$allocator@D@2@@_STL@@@2@@_STL@@QAE@ABV01@@Z
_TEXT	SEGMENT PARA USE32 PUBLIC 'CODE'
_TEXT	ENDS
;	COMDAT ??0?$_Filebuf_Tmp_Buf@D@_STL@@QAE@H@Z
_TEXT	SEGMENT PARA USE32 PUBLIC 'CODE'
_TEXT	ENDS
;	COMDAT ??1?$_Filebuf_Tmp_Buf@D@_STL@@QAE@XZ
_TEXT	SEGMENT PARA USE32 PUBLIC 'CODE'
_TEXT	ENDS
;	COMDAT ??0?$list@GV?$allocator@G@_STL@@@_STL@@QAE@ABV?$allocator@G@1@@Z
_TEXT	SEGMENT PARA USE32 PUBLIC 'CODE'
_TEXT	ENDS
;	COMDAT ?begin@?$list@GV?$allocator@G@_STL@@@_STL@@QBE?AU?$_List_iterator@GU?$_Const_traits@G@_STL@@@2@XZ
_TEXT	SEGMENT PARA USE32 PUBLIC 'CODE'
_TEXT	ENDS
;	COMDAT ?end@?$list@GV?$allocator@G@_STL@@@_STL@@QBE?AU?$_List_iterator@GU?$_Const_traits@G@_STL@@@2@XZ
_TEXT	SEGMENT PARA USE32 PUBLIC 'CODE'
_TEXT	ENDS
;	COMDAT ?size@?$list@GV?$allocator@G@_STL@@@_STL@@QBEIXZ
_TEXT	SEGMENT PARA USE32 PUBLIC 'CODE'
_TEXT	ENDS
;	COMDAT ?push_back@?$list@GV?$allocator@G@_STL@@@_STL@@QAEXABG@Z
_TEXT	SEGMENT PARA USE32 PUBLIC 'CODE'
_TEXT	ENDS
;	COMDAT ??0?$list@GV?$allocator@G@_STL@@@_STL@@QAE@ABV01@@Z
_TEXT	SEGMENT PARA USE32 PUBLIC 'CODE'
_TEXT	ENDS
;	COMDAT ??1?$list@GV?$allocator@G@_STL@@@_STL@@QAE@XZ
_TEXT	SEGMENT PARA USE32 PUBLIC 'CODE'
_TEXT	ENDS
;	COMDAT ??0?$list@PAVSubItemInfo@@V?$allocator@PAVSubItemInfo@@@_STL@@@_STL@@QAE@ABV?$allocator@PAVSubItemInfo@@@1@@Z
_TEXT	SEGMENT PARA USE32 PUBLIC 'CODE'
_TEXT	ENDS
;	COMDAT ?begin@?$list@PAVSubItemInfo@@V?$allocator@PAVSubItemInfo@@@_STL@@@_STL@@QAE?AU?$_List_iterator@PAVSubItemInfo@@U?$_Nonconst_traits@PAVSubItemInfo@@@_STL@@@2@XZ
_TEXT	SEGMENT PARA USE32 PUBLIC 'CODE'
_TEXT	ENDS
;	COMDAT ?begin@?$list@PAVSubItemInfo@@V?$allocator@PAVSubItemInfo@@@_STL@@@_STL@@QBE?AU?$_List_iterator@PAVSubItemInfo@@U?$_Const_traits@PAVSubItemInfo@@@_STL@@@2@XZ
_TEXT	SEGMENT PARA USE32 PUBLIC 'CODE'
_TEXT	ENDS
;	COMDAT ?end@?$list@PAVSubItemInfo@@V?$allocator@PAVSubItemInfo@@@_STL@@@_STL@@QAE?AU?$_List_iterator@PAVSubItemInfo@@U?$_Nonconst_traits@PAVSubItemInfo@@@_STL@@@2@XZ
_TEXT	SEGMENT PARA USE32 PUBLIC 'CODE'
_TEXT	ENDS
;	COMDAT ?end@?$list@PAVSubItemInfo@@V?$allocator@PAVSubItemInfo@@@_STL@@@_STL@@QBE?AU?$_List_iterator@PAVSubItemInfo@@U?$_Const_traits@PAVSubItemInfo@@@_STL@@@2@XZ
_TEXT	SEGMENT PARA USE32 PUBLIC 'CODE'
_TEXT	ENDS
;	COMDAT ?push_back@?$list@PAVSubItemInfo@@V?$allocator@PAVSubItemInfo@@@_STL@@@_STL@@QAEXABQAVSubItemInfo@@@Z
_TEXT	SEGMENT PARA USE32 PUBLIC 'CODE'
_TEXT	ENDS
;	COMDAT ??1?$list@PAVSubItemInfo@@V?$allocator@PAVSubItemInfo@@@_STL@@@_STL@@QAE@XZ
_TEXT	SEGMENT PARA USE32 PUBLIC 'CODE'
_TEXT	ENDS
;	COMDAT ??0?$allocator@PAVSubItemInfo@@@_STL@@QAE@XZ
_TEXT	SEGMENT PARA USE32 PUBLIC 'CODE'
_TEXT	ENDS
;	COMDAT ??1?$allocator@PAVSubItemInfo@@@_STL@@QAE@XZ
_TEXT	SEGMENT PARA USE32 PUBLIC 'CODE'
_TEXT	ENDS
;	COMDAT ??D?$_List_iterator@PAVSubItemInfo@@U?$_Nonconst_traits@PAVSubItemInfo@@@_STL@@@_STL@@QBEAAPAVSubItemInfo@@XZ
_TEXT	SEGMENT PARA USE32 PUBLIC 'CODE'
_TEXT	ENDS
;	COMDAT ??E?$_List_iterator@PAVSubItemInfo@@U?$_Nonconst_traits@PAVSubItemInfo@@@_STL@@@_STL@@QAE?AU01@H@Z
_TEXT	SEGMENT PARA USE32 PUBLIC 'CODE'
_TEXT	ENDS
;	COMDAT ??0?$_List_iterator@GU?$_Const_traits@G@_STL@@@_STL@@QAE@XZ
_TEXT	SEGMENT PARA USE32 PUBLIC 'CODE'
_TEXT	ENDS
;	COMDAT ??D?$_List_iterator@GU?$_Const_traits@G@_STL@@@_STL@@QBEABGXZ
_TEXT	SEGMENT PARA USE32 PUBLIC 'CODE'
_TEXT	ENDS
;	COMDAT ??E?$_List_iterator@GU?$_Const_traits@G@_STL@@@_STL@@QAE?AU01@H@Z
_TEXT	SEGMENT PARA USE32 PUBLIC 'CODE'
_TEXT	ENDS
;	COMDAT ??D?$_List_iterator@PAVSubItemInfo@@U?$_Const_traits@PAVSubItemInfo@@@_STL@@@_STL@@QBEABQAVSubItemInfo@@XZ
_TEXT	SEGMENT PARA USE32 PUBLIC 'CODE'
_TEXT	ENDS
;	COMDAT ??E?$_List_iterator@PAVSubItemInfo@@U?$_Const_traits@PAVSubItemInfo@@@_STL@@@_STL@@QAE?AU01@H@Z
_TEXT	SEGMENT PARA USE32 PUBLIC 'CODE'
_TEXT	ENDS
;	COMDAT ?_M_terminate_string_aux@?$basic_string@DV?$char_traits@D@_STL@@V?$allocator@D@2@@_STL@@AAEXABU__true_type@2@@Z
_TEXT	SEGMENT PARA USE32 PUBLIC 'CODE'
_TEXT	ENDS
;	COMDAT ??0?$allocator@D@_STL@@QAE@ABV01@@Z
_TEXT	SEGMENT PARA USE32 PUBLIC 'CODE'
_TEXT	ENDS
;	COMDAT ??0?$_STLP_alloc_proxy@PADDV?$allocator@D@_STL@@@_STL@@QAE@ABV?$allocator@D@1@PAD@Z
_TEXT	SEGMENT PARA USE32 PUBLIC 'CODE'
_TEXT	ENDS
;	COMDAT ?state@?$fpos@H@_STL@@QAEXH@Z
_TEXT	SEGMENT PARA USE32 PUBLIC 'CODE'
_TEXT	ENDS
;	COMDAT ?get_allocator@?$_List_base@V?$basic_string@DV?$char_traits@D@_STL@@V?$allocator@D@2@@_STL@@V?$allocator@V?$basic_string@DV?$char_traits@D@_STL@@V?$allocator@D@2@@_STL@@@2@@_STL@@QBE?AV?$allocator@V?$basic_string@DV?$char_traits@D@_STL@@V?$allocator@D@2@@_STL@@@2@XZ
_TEXT	SEGMENT PARA USE32 PUBLIC 'CODE'
_TEXT	ENDS
;	COMDAT ?begin@?$list@GV?$allocator@G@_STL@@@_STL@@QAE?AU?$_List_iterator@GU?$_Nonconst_traits@G@_STL@@@2@XZ
_TEXT	SEGMENT PARA USE32 PUBLIC 'CODE'
_TEXT	ENDS
;	COMDAT ?end@?$list@GV?$allocator@G@_STL@@@_STL@@QAE?AU?$_List_iterator@GU?$_Nonconst_traits@G@_STL@@@2@XZ
_TEXT	SEGMENT PARA USE32 PUBLIC 'CODE'
_TEXT	ENDS
;	COMDAT ?insert@?$list@GV?$allocator@G@_STL@@@_STL@@QAE?AU?$_List_iterator@GU?$_Nonconst_traits@G@_STL@@@2@U32@ABG@Z
_TEXT	SEGMENT PARA USE32 PUBLIC 'CODE'
_TEXT	ENDS
;	COMDAT ?get_allocator@?$_List_base@GV?$allocator@G@_STL@@@_STL@@QBE?AV?$allocator@G@2@XZ
_TEXT	SEGMENT PARA USE32 PUBLIC 'CODE'
_TEXT	ENDS
;	COMDAT ??0?$_List_base@GV?$allocator@G@_STL@@@_STL@@QAE@ABV?$allocator@G@1@@Z
_TEXT	SEGMENT PARA USE32 PUBLIC 'CODE'
_TEXT	ENDS
;	COMDAT ??1?$_List_base@GV?$allocator@G@_STL@@@_STL@@QAE@XZ
_TEXT	SEGMENT PARA USE32 PUBLIC 'CODE'
_TEXT	ENDS
;	COMDAT ?insert@?$list@PAVSubItemInfo@@V?$allocator@PAVSubItemInfo@@@_STL@@@_STL@@QAE?AU?$_List_iterator@PAVSubItemInfo@@U?$_Nonconst_traits@PAVSubItemInfo@@@_STL@@@2@U32@ABQAVSubItemInfo@@@Z
_TEXT	SEGMENT PARA USE32 PUBLIC 'CODE'
_TEXT	ENDS
;	COMDAT ??0?$_List_base@PAVSubItemInfo@@V?$allocator@PAVSubItemInfo@@@_STL@@@_STL@@QAE@ABV?$allocator@PAVSubItemInfo@@@1@@Z
_TEXT	SEGMENT PARA USE32 PUBLIC 'CODE'
_TEXT	ENDS
;	COMDAT ??1?$_List_base@PAVSubItemInfo@@V?$allocator@PAVSubItemInfo@@@_STL@@@_STL@@QAE@XZ
_TEXT	SEGMENT PARA USE32 PUBLIC 'CODE'
_TEXT	ENDS
;	COMDAT ??0?$_List_iterator@PAVSubItemInfo@@U?$_Nonconst_traits@PAVSubItemInfo@@@_STL@@@_STL@@QAE@PAU?$_List_node@PAVSubItemInfo@@@1@@Z
_TEXT	SEGMENT PARA USE32 PUBLIC 'CODE'
_TEXT	ENDS
;	COMDAT ??0?$_List_iterator@PAVSubItemInfo@@U?$_Nonconst_traits@PAVSubItemInfo@@@_STL@@@_STL@@QAE@ABU01@@Z
_TEXT	SEGMENT PARA USE32 PUBLIC 'CODE'
_TEXT	ENDS
;	COMDAT ??0?$_List_iterator@GU?$_Const_traits@G@_STL@@@_STL@@QAE@PAU?$_List_node@G@1@@Z
_TEXT	SEGMENT PARA USE32 PUBLIC 'CODE'
_TEXT	ENDS
;	COMDAT ??0?$_List_iterator@PAVSubItemInfo@@U?$_Const_traits@PAVSubItemInfo@@@_STL@@@_STL@@QAE@PAU?$_List_node@PAVSubItemInfo@@@1@@Z
_TEXT	SEGMENT PARA USE32 PUBLIC 'CODE'
_TEXT	ENDS
;	COMDAT ??1?$_STLP_alloc_proxy@PAU?$_List_node@G@_STL@@U12@V?$allocator@U?$_List_node@G@_STL@@@2@@_STL@@QAE@XZ
_TEXT	SEGMENT PARA USE32 PUBLIC 'CODE'
_TEXT	ENDS
;	COMDAT ??1?$_STLP_alloc_proxy@PAU?$_List_node@PAVSubItemInfo@@@_STL@@U12@V?$allocator@U?$_List_node@PAVSubItemInfo@@@_STL@@@2@@_STL@@QAE@XZ
_TEXT	SEGMENT PARA USE32 PUBLIC 'CODE'
_TEXT	ENDS
;	COMDAT ?_M_create_node@?$list@GV?$allocator@G@_STL@@@_STL@@IAEPAU?$_List_node@G@2@ABG@Z
_TEXT	SEGMENT PARA USE32 PUBLIC 'CODE'
_TEXT	ENDS
;	COMDAT ??0?$_STLP_alloc_proxy@PAU?$_List_node@G@_STL@@U12@V?$allocator@U?$_List_node@G@_STL@@@2@@_STL@@QAE@ABV?$allocator@U?$_List_node@G@_STL@@@1@PAU?$_List_node@G@1@@Z
_TEXT	SEGMENT PARA USE32 PUBLIC 'CODE'
_TEXT	ENDS
;	COMDAT ??1?$allocator@U?$_List_node@G@_STL@@@_STL@@QAE@XZ
_TEXT	SEGMENT PARA USE32 PUBLIC 'CODE'
_TEXT	ENDS
;	COMDAT ?allocate@?$allocator@U?$_List_node@G@_STL@@@_STL@@QAEPAU?$_List_node@G@2@IPBX@Z
_TEXT	SEGMENT PARA USE32 PUBLIC 'CODE'
_TEXT	ENDS
;	COMDAT ?deallocate@?$allocator@U?$_List_node@G@_STL@@@_STL@@QAEXPAU?$_List_node@G@2@I@Z
_TEXT	SEGMENT PARA USE32 PUBLIC 'CODE'
_TEXT	ENDS
;	COMDAT ?_M_create_node@?$list@PAVSubItemInfo@@V?$allocator@PAVSubItemInfo@@@_STL@@@_STL@@IAEPAU?$_List_node@PAVSubItemInfo@@@2@ABQAVSubItemInfo@@@Z
_TEXT	SEGMENT PARA USE32 PUBLIC 'CODE'
_TEXT	ENDS
;	COMDAT ??0?$_STLP_alloc_proxy@PAU?$_List_node@PAVSubItemInfo@@@_STL@@U12@V?$allocator@U?$_List_node@PAVSubItemInfo@@@_STL@@@2@@_STL@@QAE@ABV?$allocator@U?$_List_node@PAVSubItemInfo@@@_STL@@@1@PAU?$_List_node@PAVSubItemInfo@@@1@@Z
_TEXT	SEGMENT PARA USE32 PUBLIC 'CODE'
_TEXT	ENDS
;	COMDAT ??1?$allocator@U?$_List_node@PAVSubItemInfo@@@_STL@@@_STL@@QAE@XZ
_TEXT	SEGMENT PARA USE32 PUBLIC 'CODE'
_TEXT	ENDS
;	COMDAT ?allocate@?$allocator@U?$_List_node@PAVSubItemInfo@@@_STL@@@_STL@@QAEPAU?$_List_node@PAVSubItemInfo@@@2@IPBX@Z
_TEXT	SEGMENT PARA USE32 PUBLIC 'CODE'
_TEXT	ENDS
;	COMDAT ?deallocate@?$allocator@U?$_List_node@PAVSubItemInfo@@@_STL@@@_STL@@QAEXPAU?$_List_node@PAVSubItemInfo@@@2@I@Z
_TEXT	SEGMENT PARA USE32 PUBLIC 'CODE'
_TEXT	ENDS
;	COMDAT ??0?$_List_iterator@GU?$_Nonconst_traits@G@_STL@@@_STL@@QAE@PAU?$_List_node@G@1@@Z
_TEXT	SEGMENT PARA USE32 PUBLIC 'CODE'
_TEXT	ENDS
;	COMDAT ??0?$allocator@U?$_List_node@G@_STL@@@_STL@@QAE@ABV01@@Z
_TEXT	SEGMENT PARA USE32 PUBLIC 'CODE'
_TEXT	ENDS
;	COMDAT ??0?$allocator@U?$_List_node@PAVSubItemInfo@@@_STL@@@_STL@@QAE@ABV01@@Z
_TEXT	SEGMENT PARA USE32 PUBLIC 'CODE'
_TEXT	ENDS
;	COMDAT ??$_M_range_initialize@PBD@?$basic_string@DV?$char_traits@D@_STL@@V?$allocator@D@2@@_STL@@AAEXPBD0@Z
_TEXT	SEGMENT PARA USE32 PUBLIC 'CODE'
_TEXT	ENDS
;	COMDAT ??$_M_range_initialize@PAD@?$basic_string@DV?$char_traits@D@_STL@@V?$allocator@D@2@@_STL@@AAEXPAD0@Z
_TEXT	SEGMENT PARA USE32 PUBLIC 'CODE'
_TEXT	ENDS
;	COMDAT ?close@?$basic_filebuf@DV?$char_traits@D@_STL@@@_STL@@QAEPAV12@XZ
_TEXT	SEGMENT PARA USE32 PUBLIC 'CODE'
_TEXT	ENDS
;	COMDAT ?_M_exit_input_mode@?$basic_filebuf@DV?$char_traits@D@_STL@@@_STL@@AAEXXZ
_TEXT	SEGMENT PARA USE32 PUBLIC 'CODE'
_TEXT	ENDS
;	COMDAT ?_M_switch_to_output_mode@?$basic_filebuf@DV?$char_traits@D@_STL@@@_STL@@AAE_NXZ
_TEXT	SEGMENT PARA USE32 PUBLIC 'CODE'
_TEXT	ENDS
;	COMDAT ?_M_output_error@?$basic_filebuf@DV?$char_traits@D@_STL@@@_STL@@AAEHXZ
_TEXT	SEGMENT PARA USE32 PUBLIC 'CODE'
_TEXT	ENDS
;	COMDAT ?_M_allocate_buffers@?$basic_filebuf@DV?$char_traits@D@_STL@@@_STL@@AAE_NPADH@Z
_TEXT	SEGMENT PARA USE32 PUBLIC 'CODE'
_TEXT	ENDS
;	COMDAT ?_M_deallocate_buffers@?$basic_filebuf@DV?$char_traits@D@_STL@@@_STL@@AAEXXZ
_TEXT	SEGMENT PARA USE32 PUBLIC 'CODE'
_TEXT	ENDS
;	COMDAT ?_M_seek_init@?$basic_filebuf@DV?$char_traits@D@_STL@@@_STL@@AAE_N_N@Z
_TEXT	SEGMENT PARA USE32 PUBLIC 'CODE'
_TEXT	ENDS
;	COMDAT ?_M_setup_codecvt@?$basic_filebuf@DV?$char_traits@D@_STL@@@_STL@@AAEXABVlocale@2@@Z
_TEXT	SEGMENT PARA USE32 PUBLIC 'CODE'
_TEXT	ENDS
;	COMDAT ??$equal@PADPADU?$_Eq_traits@V?$char_traits@D@_STL@@@_STL@@@_STL@@YA_NPAD00U?$_Eq_traits@V?$char_traits@D@_STL@@@0@@Z
_TEXT	SEGMENT PARA USE32 PUBLIC 'CODE'
_TEXT	ENDS
;	COMDAT ??$_Destroy@V?$basic_string@DV?$char_traits@D@_STL@@V?$allocator@D@2@@_STL@@@_STL@@YAXPAV?$basic_string@DV?$char_traits@D@_STL@@V?$allocator@D@2@@0@@Z
_TEXT	SEGMENT PARA USE32 PUBLIC 'CODE'
_TEXT	ENDS
;	COMDAT ??$_M_assign_dispatch@PAD@?$basic_string@DV?$char_traits@D@_STL@@V?$allocator@D@2@@_STL@@AAEAAV01@PAD0ABU__false_type@1@@Z
_TEXT	SEGMENT PARA USE32 PUBLIC 'CODE'
_TEXT	ENDS
;	COMDAT ?clear@?$_List_base@GV?$allocator@G@_STL@@@_STL@@QAEXXZ
_TEXT	SEGMENT PARA USE32 PUBLIC 'CODE'
_TEXT	ENDS
;	COMDAT ?clear@?$_List_base@PAVSubItemInfo@@V?$allocator@PAVSubItemInfo@@@_STL@@@_STL@@QAEXXZ
_TEXT	SEGMENT PARA USE32 PUBLIC 'CODE'
_TEXT	ENDS
;	COMDAT ??$insert@U?$_List_iterator@V?$basic_string@DV?$char_traits@D@_STL@@V?$allocator@D@2@@_STL@@U?$_Const_traits@V?$basic_string@DV?$char_traits@D@_STL@@V?$allocator@D@2@@_STL@@@2@@_STL@@@?$list@V?$basic_string@DV?$char_traits@D@_STL@@V?$allocator@D@2@@_STL@@V?$allocator@V?$basic_string@DV?$char_traits@D@_STL@@V?$allocator@D@2@@_STL@@@2@@_STL@@QAEXU?$_List_iterator@V?$basic_string@DV?$char_traits@D@_STL@@V?$allocator@D@2@@_STL@@U?$_Nonconst_traits@V?$basic_string@DV?$char_traits@D@_STL@@V?$allocator@D@2@@_STL@@@2@@1@U?$_List_iterator@V?$basic_string@DV?$char_traits@D@_STL@@V?$allocator@D@2@@_STL@@U?$_Const_traits@V?$basic_string@DV?$char_traits@D@_STL@@V?$allocator@D@2@@_STL@@@2@@1@1@Z
_TEXT	SEGMENT PARA USE32 PUBLIC 'CODE'
_TEXT	ENDS
;	COMDAT ??$distance@U?$_List_iterator@GU?$_Const_traits@G@_STL@@@_STL@@@_STL@@YAHABU?$_List_iterator@GU?$_Const_traits@G@_STL@@@0@0@Z
_TEXT	SEGMENT PARA USE32 PUBLIC 'CODE'
_TEXT	ENDS
;	COMDAT ??$insert@U?$_List_iterator@GU?$_Const_traits@G@_STL@@@_STL@@@?$list@GV?$allocator@G@_STL@@@_STL@@QAEXU?$_List_iterator@GU?$_Nonconst_traits@G@_STL@@@1@U?$_List_iterator@GU?$_Const_traits@G@_STL@@@1@1@Z
_TEXT	SEGMENT PARA USE32 PUBLIC 'CODE'
_TEXT	ENDS
;	COMDAT ??$?0U?$_List_node@V?$basic_string@DV?$char_traits@D@_STL@@V?$allocator@D@2@@_STL@@@_STL@@@?$allocator@V?$basic_string@DV?$char_traits@D@_STL@@V?$allocator@D@2@@_STL@@@_STL@@QAE@ABV?$allocator@U?$_List_node@V?$basic_string@DV?$char_traits@D@_STL@@V?$allocator@D@2@@_STL@@@_STL@@@1@@Z
_TEXT	SEGMENT PARA USE32 PUBLIC 'CODE'
_TEXT	ENDS
;	COMDAT ??$?0U?$_List_node@G@_STL@@@?$allocator@G@_STL@@QAE@ABV?$allocator@U?$_List_node@G@_STL@@@1@@Z
_TEXT	SEGMENT PARA USE32 PUBLIC 'CODE'
_TEXT	ENDS
;	COMDAT ??$?0G@?$allocator@U?$_List_node@G@_STL@@@_STL@@QAE@ABV?$allocator@G@1@@Z
_TEXT	SEGMENT PARA USE32 PUBLIC 'CODE'
_TEXT	ENDS
;	COMDAT ??$?0PAVSubItemInfo@@@?$allocator@U?$_List_node@PAVSubItemInfo@@@_STL@@@_STL@@QAE@ABV?$allocator@PAVSubItemInfo@@@1@@Z
_TEXT	SEGMENT PARA USE32 PUBLIC 'CODE'
_TEXT	ENDS
;	COMDAT ??$_Construct@GG@_STL@@YAXPAGABG@Z
_TEXT	SEGMENT PARA USE32 PUBLIC 'CODE'
_TEXT	ENDS
;	COMDAT ??$_Construct@PAVSubItemInfo@@PAV1@@_STL@@YAXPAPAVSubItemInfo@@ABQAV1@@Z
_TEXT	SEGMENT PARA USE32 PUBLIC 'CODE'
_TEXT	ENDS
;	COMDAT ??_G?$basic_string@DV?$char_traits@D@_STL@@V?$allocator@D@2@@_STL@@QAEPAXI@Z
_TEXT	SEGMENT PARA USE32 PUBLIC 'CODE'
_TEXT	ENDS
;	COMDAT ?end@?$basic_string@DV?$char_traits@D@_STL@@V?$allocator@D@2@@_STL@@QAEPADXZ
_TEXT	SEGMENT PARA USE32 PUBLIC 'CODE'
_TEXT	ENDS
;	COMDAT ?erase@?$basic_string@DV?$char_traits@D@_STL@@V?$allocator@D@2@@_STL@@QAEPADPAD0@Z
_TEXT	SEGMENT PARA USE32 PUBLIC 'CODE'
_TEXT	ENDS
;	COMDAT ?_M_exit_putback_mode@?$basic_filebuf@DV?$char_traits@D@_STL@@@_STL@@AAEXXZ
_TEXT	SEGMENT PARA USE32 PUBLIC 'CODE'
_TEXT	ENDS
;	COMDAT ??0?$_List_iterator@V?$basic_string@DV?$char_traits@D@_STL@@V?$allocator@D@2@@_STL@@U?$_Nonconst_traits@V?$basic_string@DV?$char_traits@D@_STL@@V?$allocator@D@2@@_STL@@@2@@_STL@@QAE@ABU01@@Z
_TEXT	SEGMENT PARA USE32 PUBLIC 'CODE'
_TEXT	ENDS
;	COMDAT ??R?$_Eq_traits@V?$char_traits@D@_STL@@@_STL@@QBE_NABD0@Z
_TEXT	SEGMENT PARA USE32 PUBLIC 'CODE'
_TEXT	ENDS
;	COMDAT ??0?$_List_iterator@GU?$_Nonconst_traits@G@_STL@@@_STL@@QAE@ABU01@@Z
_TEXT	SEGMENT PARA USE32 PUBLIC 'CODE'
_TEXT	ENDS
;	COMDAT ?move@?$__char_traits_base@DH@_STL@@SAPADPADPBDI@Z
_TEXT	SEGMENT PARA USE32 PUBLIC 'CODE'
_TEXT	ENDS
;	COMDAT ??$_M_range_initialize@PBD@?$basic_string@DV?$char_traits@D@_STL@@V?$allocator@D@2@@_STL@@AAEXPBD0ABUforward_iterator_tag@1@@Z
_TEXT	SEGMENT PARA USE32 PUBLIC 'CODE'
_TEXT	ENDS
;	COMDAT ??$_M_range_initialize@PAD@?$basic_string@DV?$char_traits@D@_STL@@V?$allocator@D@2@@_STL@@AAEXPAD0ABUforward_iterator_tag@1@@Z
_TEXT	SEGMENT PARA USE32 PUBLIC 'CODE'
_TEXT	ENDS
;	COMDAT ?_M_unshift@?$basic_filebuf@DV?$char_traits@D@_STL@@@_STL@@AAE_NXZ
_TEXT	SEGMENT PARA USE32 PUBLIC 'CODE'
_TEXT	ENDS
;	COMDAT ?_M_allocate_buffers@?$basic_filebuf@DV?$char_traits@D@_STL@@@_STL@@AAE_NXZ
_TEXT	SEGMENT PARA USE32 PUBLIC 'CODE'
_TEXT	ENDS
;	COMDAT ??$max@H@_STL@@YAABHABH0@Z
_TEXT	SEGMENT PARA USE32 PUBLIC 'CODE'
_TEXT	ENDS
;	COMDAT ??$use_facet@V?$codecvt@DDH@_STL@@@_STL@@YAABV?$codecvt@DDH@0@ABVlocale@0@@Z
_TEXT	SEGMENT PARA USE32 PUBLIC 'CODE'
_TEXT	ENDS
;	COMDAT ??$append@PAD@?$basic_string@DV?$char_traits@D@_STL@@V?$allocator@D@2@@_STL@@QAEAAV01@PAD0@Z
_TEXT	SEGMENT PARA USE32 PUBLIC 'CODE'
_TEXT	ENDS
;	COMDAT ??$_Destroy@G@_STL@@YAXPAG@Z
_TEXT	SEGMENT PARA USE32 PUBLIC 'CODE'
_TEXT	ENDS
;	COMDAT ??$_Destroy@PAVSubItemInfo@@@_STL@@YAXPAPAVSubItemInfo@@@Z
_TEXT	SEGMENT PARA USE32 PUBLIC 'CODE'
_TEXT	ENDS
;	COMDAT ??$_M_insert_dispatch@U?$_List_iterator@V?$basic_string@DV?$char_traits@D@_STL@@V?$allocator@D@2@@_STL@@U?$_Const_traits@V?$basic_string@DV?$char_traits@D@_STL@@V?$allocator@D@2@@_STL@@@2@@_STL@@@?$list@V?$basic_string@DV?$char_traits@D@_STL@@V?$allocator@D@2@@_STL@@V?$allocator@V?$basic_string@DV?$char_traits@D@_STL@@V?$allocator@D@2@@_STL@@@2@@_STL@@QAEXU?$_List_iterator@V?$basic_string@DV?$char_traits@D@_STL@@V?$allocator@D@2@@_STL@@U?$_Nonconst_traits@V?$basic_string@DV?$char_traits@D@_STL@@V?$allocator@D@2@@_STL@@@2@@1@U?$_List_iterator@V?$basic_string@DV?$char_traits@D@_STL@@V?$allocator@D@2@@_STL@@U?$_Const_traits@V?$basic_string@DV?$char_traits@D@_STL@@V?$allocator@D@2@@_STL@@@2@@1@1ABU__false_type@1@@Z
_TEXT	SEGMENT PARA USE32 PUBLIC 'CODE'
_TEXT	ENDS
;	COMDAT ??$__distance@U?$_List_iterator@GU?$_Const_traits@G@_STL@@@_STL@@@_STL@@YAHABU?$_List_iterator@GU?$_Const_traits@G@_STL@@@0@0ABUinput_iterator_tag@0@@Z
_TEXT	SEGMENT PARA USE32 PUBLIC 'CODE'
_TEXT	ENDS
;	COMDAT ??$_M_insert_dispatch@U?$_List_iterator@GU?$_Const_traits@G@_STL@@@_STL@@@?$list@GV?$allocator@G@_STL@@@_STL@@QAEXU?$_List_iterator@GU?$_Nonconst_traits@G@_STL@@@1@U?$_List_iterator@GU?$_Const_traits@G@_STL@@@1@1ABU__false_type@1@@Z
_TEXT	SEGMENT PARA USE32 PUBLIC 'CODE'
_TEXT	ENDS
;	COMDAT ??E?$_List_iterator@V?$basic_string@DV?$char_traits@D@_STL@@V?$allocator@D@2@@_STL@@U?$_Const_traits@V?$basic_string@DV?$char_traits@D@_STL@@V?$allocator@D@2@@_STL@@@2@@_STL@@QAEAAU01@XZ
_TEXT	SEGMENT PARA USE32 PUBLIC 'CODE'
_TEXT	ENDS
;	COMDAT ??E?$_List_iterator@GU?$_Const_traits@G@_STL@@@_STL@@QAEAAU01@XZ
_TEXT	SEGMENT PARA USE32 PUBLIC 'CODE'
_TEXT	ENDS
;	COMDAT ??$distance@PBD@_STL@@YAHABQBD0@Z
_TEXT	SEGMENT PARA USE32 PUBLIC 'CODE'
_TEXT	ENDS
;	COMDAT ?_M_allocate_block@?$_String_base@DV?$allocator@D@_STL@@@_STL@@QAEXI@Z
_TEXT	SEGMENT PARA USE32 PUBLIC 'CODE'
_TEXT	ENDS
;	COMDAT ??$distance@PAD@_STL@@YAHABQAD0@Z
_TEXT	SEGMENT PARA USE32 PUBLIC 'CODE'
_TEXT	ENDS
;	COMDAT ??$uninitialized_copy@PADPAD@_STL@@YAPADPAD00@Z
_TEXT	SEGMENT PARA USE32 PUBLIC 'CODE'
_TEXT	ENDS
;	COMDAT ??$_M_append_dispatch@PAD@?$basic_string@DV?$char_traits@D@_STL@@V?$allocator@D@2@@_STL@@AAEAAV01@PAD0ABU__false_type@1@@Z
_TEXT	SEGMENT PARA USE32 PUBLIC 'CODE'
_TEXT	ENDS
;	COMDAT ?max_size@?$_String_base@DV?$allocator@D@_STL@@@_STL@@QBEIXZ
_TEXT	SEGMENT PARA USE32 PUBLIC 'CODE'
_TEXT	ENDS
;	COMDAT ??$__distance@PBD@_STL@@YAHABQBD0ABUrandom_access_iterator_tag@0@@Z
_TEXT	SEGMENT PARA USE32 PUBLIC 'CODE'
_TEXT	ENDS
;	COMDAT ?_M_throw_length_error@?$_String_base@DV?$allocator@D@_STL@@@_STL@@QBEXXZ
_TEXT	SEGMENT PARA USE32 PUBLIC 'CODE'
_TEXT	ENDS
;	COMDAT ??$__distance@PAD@_STL@@YAHABQAD0ABUrandom_access_iterator_tag@0@@Z
_TEXT	SEGMENT PARA USE32 PUBLIC 'CODE'
_TEXT	ENDS
;	COMDAT ??$__uninitialized_copy@PADPAD@_STL@@YAPADPAD00ABU__true_type@0@@Z
_TEXT	SEGMENT PARA USE32 PUBLIC 'CODE'
_TEXT	ENDS
;	COMDAT ??$append@PAD@?$basic_string@DV?$char_traits@D@_STL@@V?$allocator@D@2@@_STL@@AAEAAV01@PAD0ABUforward_iterator_tag@1@@Z
_TEXT	SEGMENT PARA USE32 PUBLIC 'CODE'
_TEXT	ENDS
;	COMDAT ?_M_construct_null@?$basic_string@DV?$char_traits@D@_STL@@V?$allocator@D@2@@_STL@@AAEXPAD@Z
_TEXT	SEGMENT PARA USE32 PUBLIC 'CODE'
_TEXT	ENDS
;	COMDAT ?max_size@?$basic_string@DV?$char_traits@D@_STL@@V?$allocator@D@2@@_STL@@QBEIXZ
_TEXT	SEGMENT PARA USE32 PUBLIC 'CODE'
_TEXT	ENDS
;	COMDAT ?capacity@?$basic_string@DV?$char_traits@D@_STL@@V?$allocator@D@2@@_STL@@QBEIXZ
_TEXT	SEGMENT PARA USE32 PUBLIC 'CODE'
_TEXT	ENDS
;	COMDAT ?_Ret@?$_BothPtrType@PADPAD@_STL@@SA?AU__true_type@2@XZ
_TEXT	SEGMENT PARA USE32 PUBLIC 'CODE'
_TEXT	ENDS
;	COMDAT ?_M_construct_null_aux@?$basic_string@DV?$char_traits@D@_STL@@V?$allocator@D@2@@_STL@@AAEXPADABU__true_type@2@@Z
_TEXT	SEGMENT PARA USE32 PUBLIC 'CODE'
_TEXT	ENDS
;	COMDAT ??$__copy_aux@PADPAD@_STL@@YAPADPAD00ABU__true_type@0@@Z
_TEXT	SEGMENT PARA USE32 PUBLIC 'CODE'
_TEXT	ENDS
;	COMDAT ??$max@I@_STL@@YAABIABI0@Z
_TEXT	SEGMENT PARA USE32 PUBLIC 'CODE'
_TEXT	ENDS
;	COMDAT ?_Ret@?$_OKToMemCpy@DD@_STL@@SA?AU__true_type@2@XZ
_TEXT	SEGMENT PARA USE32 PUBLIC 'CODE'
_TEXT	ENDS
;	COMDAT ??$_IsOKToMemCpy@DD@_STL@@YA?AU?$_OKToMemCpy@DD@0@PAD0@Z
_TEXT	SEGMENT PARA USE32 PUBLIC 'CODE'
_TEXT	ENDS
;	COMDAT ??$__copy_ptrs@PADPAD@_STL@@YAPADPAD00ABU__true_type@0@@Z
_TEXT	SEGMENT PARA USE32 PUBLIC 'CODE'
_TEXT	ENDS
;	COMDAT ??_R3Packet@@8
rdata$r	SEGMENT DWORD USE32 PUBLIC 'CONST'
rdata$r	ENDS
;	COMDAT ??_R3GCStashList@@8
rdata$r	SEGMENT DWORD USE32 PUBLIC 'CONST'
rdata$r	ENDS
;	COMDAT ??_R3PacketFactory@@8
rdata$r	SEGMENT DWORD USE32 PUBLIC 'CONST'
rdata$r	ENDS
;	COMDAT ??_R2Packet@@8
rdata$r	SEGMENT DWORD USE32 PUBLIC 'CONST'
rdata$r	ENDS
;	COMDAT ??_R2GCStashList@@8
rdata$r	SEGMENT DWORD USE32 PUBLIC 'CONST'
rdata$r	ENDS
;	COMDAT ??_R2PacketFactory@@8
rdata$r	SEGMENT DWORD USE32 PUBLIC 'CONST'
rdata$r	ENDS
;	COMDAT ??_R1A@?0A@A@Packet@@8
rdata$r	SEGMENT DWORD USE32 PUBLIC 'CONST'
rdata$r	ENDS
;	COMDAT ??_R1A@?0A@A@GCStashList@@8
rdata$r	SEGMENT DWORD USE32 PUBLIC 'CONST'
rdata$r	ENDS
;	COMDAT ??_R1A@?0A@A@PacketFactory@@8
rdata$r	SEGMENT DWORD USE32 PUBLIC 'CONST'
rdata$r	ENDS
;	COMDAT ??_R0?AVPacket@@@8
_DATA	SEGMENT DWORD USE32 PUBLIC 'DATA'
_DATA	ENDS
;	COMDAT ??_R0?AVGCStashList@@@8
_DATA	SEGMENT DWORD USE32 PUBLIC 'DATA'
_DATA	ENDS
;	COMDAT ??_R0?AVPacketFactory@@@8
_DATA	SEGMENT DWORD USE32 PUBLIC 'DATA'
_DATA	ENDS
;	COMDAT ??_R4Packet@@6B@
rdata$r	SEGMENT DWORD USE32 PUBLIC 'CONST'
rdata$r	ENDS
;	COMDAT ??_R4GCStashList@@6B@
rdata$r	SEGMENT DWORD USE32 PUBLIC 'CONST'
rdata$r	ENDS
;	COMDAT ??_R4PacketFactory@@6B@
rdata$r	SEGMENT DWORD USE32 PUBLIC 'CONST'
rdata$r	ENDS
;	COMDAT ?__copy_trivial@_STL@@YAPAXPBX0PAX@Z
_TEXT	SEGMENT PARA USE32 PUBLIC 'CODE'
_TEXT	ENDS
;	COMDAT ?_M_deallocate_block@?$_String_base@DV?$allocator@D@_STL@@@_STL@@QAEXXZ
_TEXT	SEGMENT PARA USE32 PUBLIC 'CODE'
_TEXT	ENDS
;	COMDAT ?deallocate@?$allocator@D@_STL@@QAEXPADI@Z
_TEXT	SEGMENT PARA USE32 PUBLIC 'CODE'
_TEXT	ENDS
;	COMDAT ??D?$_List_iterator@V?$basic_string@DV?$char_traits@D@_STL@@V?$allocator@D@2@@_STL@@U?$_Const_traits@V?$basic_string@DV?$char_traits@D@_STL@@V?$allocator@D@2@@_STL@@@2@@_STL@@QBEABV?$basic_string@DV?$char_traits@D@_STL@@V?$allocator@D@2@@1@XZ
_TEXT	SEGMENT PARA USE32 PUBLIC 'CODE'
_TEXT	ENDS
;	COMDAT ?insert@?$list@V?$basic_string@DV?$char_traits@D@_STL@@V?$allocator@D@2@@_STL@@V?$allocator@V?$basic_string@DV?$char_traits@D@_STL@@V?$allocator@D@2@@_STL@@@2@@_STL@@QAE?AU?$_List_iterator@V?$basic_string@DV?$char_traits@D@_STL@@V?$allocator@D@2@@_STL@@U?$_Nonconst_traits@V?$basic_string@DV?$char_traits@D@_STL@@V?$allocator@D@2@@_STL@@@2@@2@U32@ABV?$basic_string@DV?$char_traits@D@_STL@@V?$allocator@D@2@@2@@Z
_TEXT	SEGMENT PARA USE32 PUBLIC 'CODE'
_TEXT	ENDS
;	COMDAT ?_M_create_node@?$list@V?$basic_string@DV?$char_traits@D@_STL@@V?$allocator@D@2@@_STL@@V?$allocator@V?$basic_string@DV?$char_traits@D@_STL@@V?$allocator@D@2@@_STL@@@2@@_STL@@IAEPAU?$_List_node@V?$basic_string@DV?$char_traits@D@_STL@@V?$allocator@D@2@@_STL@@@2@ABV?$basic_string@DV?$char_traits@D@_STL@@V?$allocator@D@2@@2@@Z
_TEXT	SEGMENT PARA USE32 PUBLIC 'CODE'
_TEXT	ENDS
;	COMDAT ?allocate@?$allocator@U?$_List_node@V?$basic_string@DV?$char_traits@D@_STL@@V?$allocator@D@2@@_STL@@@_STL@@@_STL@@QAEPAU?$_List_node@V?$basic_string@DV?$char_traits@D@_STL@@V?$allocator@D@2@@_STL@@@2@IPBX@Z
_TEXT	SEGMENT PARA USE32 PUBLIC 'CODE'
_TEXT	ENDS
;	COMDAT ??$_Construct@V?$basic_string@DV?$char_traits@D@_STL@@V?$allocator@D@2@@_STL@@V12@@_STL@@YAXPAV?$basic_string@DV?$char_traits@D@_STL@@V?$allocator@D@2@@0@ABV10@@Z
_TEXT	SEGMENT PARA USE32 PUBLIC 'CODE'
_TEXT	ENDS
;	COMDAT ??3@YAXPAX0@Z
_TEXT	SEGMENT PARA USE32 PUBLIC 'CODE'
_TEXT	ENDS
;	COMDAT ?deallocate@?$allocator@U?$_List_node@V?$basic_string@DV?$char_traits@D@_STL@@V?$allocator@D@2@@_STL@@@_STL@@@_STL@@QAEXPAU?$_List_node@V?$basic_string@DV?$char_traits@D@_STL@@V?$allocator@D@2@@_STL@@@2@I@Z
_TEXT	SEGMENT PARA USE32 PUBLIC 'CODE'
_TEXT	ENDS
;	COMDAT ??0?$_List_iterator@V?$basic_string@DV?$char_traits@D@_STL@@V?$allocator@D@2@@_STL@@U?$_Nonconst_traits@V?$basic_string@DV?$char_traits@D@_STL@@V?$allocator@D@2@@_STL@@@2@@_STL@@QAE@PAU?$_List_node@V?$basic_string@DV?$char_traits@D@_STL@@V?$allocator@D@2@@_STL@@@1@@Z
_TEXT	SEGMENT PARA USE32 PUBLIC 'CODE'
_TEXT	ENDS
;	COMDAT ?__page_size@_Filebuf_base@_STL@@SAIXZ
_TEXT	SEGMENT PARA USE32 PUBLIC 'CODE'
_TEXT	ENDS
;	COMDAT ?_M_write@?$basic_filebuf@DV?$char_traits@D@_STL@@@_STL@@QAE_NPADH@Z
_TEXT	SEGMENT PARA USE32 PUBLIC 'CODE'
_TEXT	ENDS
;	COMDAT ?unshift@?$codecvt@DDH@_STL@@QBE?AW4result@codecvt_base@2@AAHPAD1AAPAD@Z
_TEXT	SEGMENT PARA USE32 PUBLIC 'CODE'
_TEXT	ENDS
;	COMDAT ?uninitialized_copy@_STL@@YAPADPBD0PAD@Z
_TEXT	SEGMENT PARA USE32 PUBLIC 'CODE'
_TEXT	ENDS
;	COMDAT ?_Destroy@_STL@@YAXPAD0@Z
_TEXT	SEGMENT PARA USE32 PUBLIC 'CODE'
_TEXT	ENDS
;	COMDAT ??2@YAPAXIPAX@Z
_TEXT	SEGMENT PARA USE32 PUBLIC 'CODE'
_TEXT	ENDS
;	COMDAT ?assign@?$char_traits@D@_STL@@SAXAADABD@Z
_TEXT	SEGMENT PARA USE32 PUBLIC 'CODE'
_TEXT	ENDS
;	COMDAT ?always_noconv@?$codecvt@DDH@_STL@@QBE_NXZ
_TEXT	SEGMENT PARA USE32 PUBLIC 'CODE'
_TEXT	ENDS
;	COMDAT ?encoding@?$codecvt@DDH@_STL@@QBEHXZ
_TEXT	SEGMENT PARA USE32 PUBLIC 'CODE'
_TEXT	ENDS
;	COMDAT ?max_length@?$codecvt@DDH@_STL@@QBEHXZ
_TEXT	SEGMENT PARA USE32 PUBLIC 'CODE'
_TEXT	ENDS
;	COMDAT ?__o_mode@_Filebuf_base@_STL@@QBEHXZ
_TEXT	SEGMENT PARA USE32 PUBLIC 'CODE'
_TEXT	ENDS
;	COMDAT ?deallocate@?$__node_alloc@$00$0A@@_STL@@SAXPAXI@Z
_TEXT	SEGMENT PARA USE32 PUBLIC 'CODE'
_TEXT	ENDS
;	COMDAT ?__stl_delete@_STL@@YAXPAX@Z
_TEXT	SEGMENT PARA USE32 PUBLIC 'CODE'
_TEXT	ENDS
;	COMDAT ??0_List_iterator_base@_STL@@QAE@PAU_List_node_base@1@@Z
_TEXT	SEGMENT PARA USE32 PUBLIC 'CODE'
_TEXT	ENDS
;	COMDAT ??0_List_iterator_base@_STL@@QAE@XZ
_TEXT	SEGMENT PARA USE32 PUBLIC 'CODE'
_TEXT	ENDS
;	COMDAT ?_M_incr@_List_iterator_base@_STL@@QAEXXZ
_TEXT	SEGMENT PARA USE32 PUBLIC 'CODE'
_TEXT	ENDS
;	COMDAT ?begin@?$list@V?$basic_string@DV?$char_traits@D@_STL@@V?$allocator@D@2@@_STL@@V?$allocator@V?$basic_string@DV?$char_traits@D@_STL@@V?$allocator@D@2@@_STL@@@2@@_STL@@QAE?AU?$_List_iterator@V?$basic_string@DV?$char_traits@D@_STL@@V?$allocator@D@2@@_STL@@U?$_Nonconst_traits@V?$basic_string@DV?$char_traits@D@_STL@@V?$allocator@D@2@@_STL@@@2@@2@XZ
_TEXT	SEGMENT PARA USE32 PUBLIC 'CODE'
_TEXT	ENDS
;	COMDAT ?begin@?$list@V?$basic_string@DV?$char_traits@D@_STL@@V?$allocator@D@2@@_STL@@V?$allocator@V?$basic_string@DV?$char_traits@D@_STL@@V?$allocator@D@2@@_STL@@@2@@_STL@@QBE?AU?$_List_iterator@V?$basic_string@DV?$char_traits@D@_STL@@V?$allocator@D@2@@_STL@@U?$_Const_traits@V?$basic_string@DV?$char_traits@D@_STL@@V?$allocator@D@2@@_STL@@@2@@2@XZ
_TEXT	SEGMENT PARA USE32 PUBLIC 'CODE'
_TEXT	ENDS
;	COMDAT ??0?$_List_iterator@V?$basic_string@DV?$char_traits@D@_STL@@V?$allocator@D@2@@_STL@@U?$_Const_traits@V?$basic_string@DV?$char_traits@D@_STL@@V?$allocator@D@2@@_STL@@@2@@_STL@@QAE@PAU?$_List_node@V?$basic_string@DV?$char_traits@D@_STL@@V?$allocator@D@2@@_STL@@@1@@Z
_TEXT	SEGMENT PARA USE32 PUBLIC 'CODE'
_TEXT	ENDS
;	COMDAT ?end@?$list@V?$basic_string@DV?$char_traits@D@_STL@@V?$allocator@D@2@@_STL@@V?$allocator@V?$basic_string@DV?$char_traits@D@_STL@@V?$allocator@D@2@@_STL@@@2@@_STL@@QBE?AU?$_List_iterator@V?$basic_string@DV?$char_traits@D@_STL@@V?$allocator@D@2@@_STL@@U?$_Const_traits@V?$basic_string@DV?$char_traits@D@_STL@@V?$allocator@D@2@@_STL@@@2@@2@XZ
_TEXT	SEGMENT PARA USE32 PUBLIC 'CODE'
_TEXT	ENDS
;	COMDAT ??1?$_List_base@V?$basic_string@DV?$char_traits@D@_STL@@V?$allocator@D@2@@_STL@@V?$allocator@V?$basic_string@DV?$char_traits@D@_STL@@V?$allocator@D@2@@_STL@@@2@@_STL@@QAE@XZ
_TEXT	SEGMENT PARA USE32 PUBLIC 'CODE'
_TEXT	ENDS
;	COMDAT ??1?$_STLP_alloc_proxy@PAU?$_List_node@V?$basic_string@DV?$char_traits@D@_STL@@V?$allocator@D@2@@_STL@@@_STL@@U12@V?$allocator@U?$_List_node@V?$basic_string@DV?$char_traits@D@_STL@@V?$allocator@D@2@@_STL@@@_STL@@@2@@_STL@@QAE@XZ
_TEXT	SEGMENT PARA USE32 PUBLIC 'CODE'
_TEXT	ENDS
;	COMDAT ??1?$allocator@U?$_List_node@V?$basic_string@DV?$char_traits@D@_STL@@V?$allocator@D@2@@_STL@@@_STL@@@_STL@@QAE@XZ
_TEXT	SEGMENT PARA USE32 PUBLIC 'CODE'
_TEXT	ENDS
;	COMDAT ?clear@?$_List_base@V?$basic_string@DV?$char_traits@D@_STL@@V?$allocator@D@2@@_STL@@V?$allocator@V?$basic_string@DV?$char_traits@D@_STL@@V?$allocator@D@2@@_STL@@@2@@_STL@@QAEXXZ
_TEXT	SEGMENT PARA USE32 PUBLIC 'CODE'
_TEXT	ENDS
;	COMDAT ??1?$allocator@V?$basic_string@DV?$char_traits@D@_STL@@V?$allocator@D@2@@_STL@@@_STL@@QAE@XZ
_TEXT	SEGMENT PARA USE32 PUBLIC 'CODE'
_TEXT	ENDS
;	COMDAT ??0?$_List_base@V?$basic_string@DV?$char_traits@D@_STL@@V?$allocator@D@2@@_STL@@V?$allocator@V?$basic_string@DV?$char_traits@D@_STL@@V?$allocator@D@2@@_STL@@@2@@_STL@@QAE@ABV?$allocator@V?$basic_string@DV?$char_traits@D@_STL@@V?$allocator@D@2@@_STL@@@1@@Z
_TEXT	SEGMENT PARA USE32 PUBLIC 'CODE'
_TEXT	ENDS
;	COMDAT ??0?$_STLP_alloc_proxy@PAU?$_List_node@V?$basic_string@DV?$char_traits@D@_STL@@V?$allocator@D@2@@_STL@@@_STL@@U12@V?$allocator@U?$_List_node@V?$basic_string@DV?$char_traits@D@_STL@@V?$allocator@D@2@@_STL@@@_STL@@@2@@_STL@@QAE@ABV?$allocator@U?$_List_node@V?$basic_string@DV?$char_traits@D@_STL@@V?$allocator@D@2@@_STL@@@_STL@@@1@PAU?$_List_node@V?$basic_string@DV?$char_traits@D@_STL@@V?$allocator@D@2@@_STL@@@1@@Z
_TEXT	SEGMENT PARA USE32 PUBLIC 'CODE'
_TEXT	ENDS
;	COMDAT ??0?$allocator@U?$_List_node@V?$basic_string@DV?$char_traits@D@_STL@@V?$allocator@D@2@@_STL@@@_STL@@@_STL@@QAE@ABV01@@Z
_TEXT	SEGMENT PARA USE32 PUBLIC 'CODE'
_TEXT	ENDS
;	COMDAT ??$?0V?$basic_string@DV?$char_traits@D@_STL@@V?$allocator@D@2@@_STL@@@?$allocator@U?$_List_node@V?$basic_string@DV?$char_traits@D@_STL@@V?$allocator@D@2@@_STL@@@_STL@@@_STL@@QAE@ABV?$allocator@V?$basic_string@DV?$char_traits@D@_STL@@V?$allocator@D@2@@_STL@@@1@@Z
_TEXT	SEGMENT PARA USE32 PUBLIC 'CODE'
_TEXT	ENDS
;	COMDAT ?setp@?$basic_streambuf@DV?$char_traits@D@_STL@@@_STL@@IAEXPAD0@Z
_TEXT	SEGMENT PARA USE32 PUBLIC 'CODE'
_TEXT	ENDS
;	COMDAT ?_FILE_O_set@_STL@@YAXPAU_iobuf@@PAD11@Z
_TEXT	SEGMENT PARA USE32 PUBLIC 'CODE'
_TEXT	ENDS
;	COMDAT ?_FILE_I_set@_STL@@YAXPAU_iobuf@@PAD11@Z
_TEXT	SEGMENT PARA USE32 PUBLIC 'CODE'
_TEXT	ENDS
;	COMDAT ?setg@?$basic_streambuf@DV?$char_traits@D@_STL@@@_STL@@IAEXPAD00@Z
_TEXT	SEGMENT PARA USE32 PUBLIC 'CODE'
_TEXT	ENDS
;	COMDAT ?__is_open@_Filebuf_base@_STL@@QBE_NXZ
_TEXT	SEGMENT PARA USE32 PUBLIC 'CODE'
_TEXT	ENDS
;	COMDAT ?allocate@?$__node_alloc@$00$0A@@_STL@@SAPAXI@Z
_TEXT	SEGMENT PARA USE32 PUBLIC 'CODE'
_TEXT	ENDS
;	COMDAT ?__stl_new@_STL@@YAPAXI@Z
_TEXT	SEGMENT PARA USE32 PUBLIC 'CODE'
_TEXT	ENDS
;	COMDAT ??1?$_STLP_alloc_proxy@PADDV?$allocator@D@_STL@@@_STL@@QAE@XZ
_TEXT	SEGMENT PARA USE32 PUBLIC 'CODE'
_TEXT	ENDS
;	COMDAT ?eof@?$__char_traits_base@DH@_STL@@SAHXZ
_TEXT	SEGMENT PARA USE32 PUBLIC 'CODE'
_TEXT	ENDS
;	COMDAT ??9_List_iterator_base@_STL@@QBE_NABU01@@Z
_TEXT	SEGMENT PARA USE32 PUBLIC 'CODE'
_TEXT	ENDS
;	COMDAT ??1?$allocator@G@_STL@@QAE@XZ
_TEXT	SEGMENT PARA USE32 PUBLIC 'CODE'
_TEXT	ENDS
;	COMDAT ??_7GCStashList@@6B@
CONST	SEGMENT DWORD USE32 PUBLIC 'CONST'
CONST	ENDS
;	COMDAT ??1?$allocator@D@_STL@@QAE@XZ
_TEXT	SEGMENT PARA USE32 PUBLIC 'CODE'
_TEXT	ENDS
;	COMDAT ??0?$allocator@D@_STL@@QAE@XZ
_TEXT	SEGMENT PARA USE32 PUBLIC 'CODE'
_TEXT	ENDS
;	COMDAT ??0?$basic_string@DV?$char_traits@D@_STL@@V?$allocator@D@2@@_STL@@QAE@PBDABV?$allocator@D@1@@Z
_TEXT	SEGMENT PARA USE32 PUBLIC 'CODE'
_TEXT	ENDS
;	COMDAT ??1?$_String_base@DV?$allocator@D@_STL@@@_STL@@QAE@XZ
_TEXT	SEGMENT PARA USE32 PUBLIC 'CODE'
_TEXT	ENDS
;	COMDAT ?length@?$char_traits@D@_STL@@SAIPBD@Z
_TEXT	SEGMENT PARA USE32 PUBLIC 'CODE'
_TEXT	ENDS
;	COMDAT ??_7PacketFactory@@6B@
CONST	SEGMENT DWORD USE32 PUBLIC 'CONST'
CONST	ENDS
;	COMDAT ??1?$list@V?$basic_string@DV?$char_traits@D@_STL@@V?$allocator@D@2@@_STL@@V?$allocator@V?$basic_string@DV?$char_traits@D@_STL@@V?$allocator@D@2@@_STL@@@2@@_STL@@QAE@XZ
_TEXT	SEGMENT PARA USE32 PUBLIC 'CODE'
_TEXT	ENDS
;	COMDAT ??_7Throwable@@6B@
CONST	SEGMENT DWORD USE32 PUBLIC 'CONST'
CONST	ENDS
;	COMDAT ??_R4Throwable@@6B@
rdata$r	SEGMENT DWORD USE32 PUBLIC 'CONST'
rdata$r	ENDS
;	COMDAT ??_R3Throwable@@8
rdata$r	SEGMENT DWORD USE32 PUBLIC 'CONST'
rdata$r	ENDS
;	COMDAT ??_R2Throwable@@8
rdata$r	SEGMENT DWORD USE32 PUBLIC 'CONST'
rdata$r	ENDS
;	COMDAT ??_R1A@?0A@A@Throwable@@8
rdata$r	SEGMENT DWORD USE32 PUBLIC 'CONST'
rdata$r	ENDS
;	COMDAT ??_GThrowable@@UAEPAXI@Z
_TEXT	SEGMENT PARA USE32 PUBLIC 'CODE'
_TEXT	ENDS
;	COMDAT ?getName@Throwable@@UBE?AV?$basic_string@DV?$char_traits@D@_STL@@V?$allocator@D@2@@_STL@@XZ
_TEXT	SEGMENT PARA USE32 PUBLIC 'CODE'
_TEXT	ENDS
;	COMDAT ??_C@_09KCKHMJEM@Throwable?$AA@
CONST	SEGMENT DWORD USE32 PUBLIC 'CONST'
CONST	ENDS
;	COMDAT ?toString@Throwable@@UBE?AV?$basic_string@DV?$char_traits@D@_STL@@V?$allocator@D@2@@_STL@@XZ
_TEXT	SEGMENT PARA USE32 PUBLIC 'CODE'
_TEXT	ENDS
;	COMDAT ??_C@_03MCPBMLDJ@?5?3?5?$AA@
CONST	SEGMENT DWORD USE32 PUBLIC 'CONST'
CONST	ENDS
;	COMDAT ?getStackTrace@Throwable@@QBE?AV?$basic_string@DV?$char_traits@D@_STL@@V?$allocator@D@2@@_STL@@XZ
_TEXT	SEGMENT PARA USE32 PUBLIC 'CODE'
_TEXT	ENDS
;	COMDAT ??E?$_List_iterator@V?$basic_string@DV?$char_traits@D@_STL@@V?$allocator@D@2@@_STL@@U?$_Const_traits@V?$basic_string@DV?$char_traits@D@_STL@@V?$allocator@D@2@@_STL@@@2@@_STL@@QAE?AU01@H@Z
_TEXT	SEGMENT PARA USE32 PUBLIC 'CODE'
_TEXT	ENDS
;	COMDAT ??_C@_01CLKCMJKC@?5?$AA@
CONST	SEGMENT DWORD USE32 PUBLIC 'CONST'
CONST	ENDS
;	COMDAT ??_7Error@@6B@
CONST	SEGMENT DWORD USE32 PUBLIC 'CONST'
CONST	ENDS
;	COMDAT ??_R4Error@@6B@
rdata$r	SEGMENT DWORD USE32 PUBLIC 'CONST'
rdata$r	ENDS
;	COMDAT ??_R3Error@@8
rdata$r	SEGMENT DWORD USE32 PUBLIC 'CONST'
rdata$r	ENDS
;	COMDAT ??_R2Error@@8
rdata$r	SEGMENT DWORD USE32 PUBLIC 'CONST'
rdata$r	ENDS
;	COMDAT ??_R1A@?0A@A@Error@@8
rdata$r	SEGMENT DWORD USE32 PUBLIC 'CONST'
rdata$r	ENDS
;	COMDAT ??_GError@@UAEPAXI@Z
_TEXT	SEGMENT PARA USE32 PUBLIC 'CODE'
_TEXT	ENDS
;	COMDAT ?getName@Error@@UBE?AV?$basic_string@DV?$char_traits@D@_STL@@V?$allocator@D@2@@_STL@@XZ
_TEXT	SEGMENT PARA USE32 PUBLIC 'CODE'
_TEXT	ENDS
;	COMDAT ??_C@_05NAOIJFC@Error?$AA@
CONST	SEGMENT DWORD USE32 PUBLIC 'CONST'
CONST	ENDS
;	COMDAT ??1Throwable@@UAE@XZ
_TEXT	SEGMENT PARA USE32 PUBLIC 'CODE'
_TEXT	ENDS
;	COMDAT ??_7UnsupportedError@@6B@
CONST	SEGMENT DWORD USE32 PUBLIC 'CONST'
CONST	ENDS
;	COMDAT ??_R4UnsupportedError@@6B@
rdata$r	SEGMENT DWORD USE32 PUBLIC 'CONST'
rdata$r	ENDS
;	COMDAT ??_R3UnsupportedError@@8
rdata$r	SEGMENT DWORD USE32 PUBLIC 'CONST'
rdata$r	ENDS
;	COMDAT ??_R2UnsupportedError@@8
rdata$r	SEGMENT DWORD USE32 PUBLIC 'CONST'
rdata$r	ENDS
;	COMDAT ??_R1A@?0A@A@UnsupportedError@@8
rdata$r	SEGMENT DWORD USE32 PUBLIC 'CONST'
rdata$r	ENDS
;	COMDAT ??_GUnsupportedError@@UAEPAXI@Z
_TEXT	SEGMENT PARA USE32 PUBLIC 'CODE'
_TEXT	ENDS
;	COMDAT ?getName@UnsupportedError@@UBE?AV?$basic_string@DV?$char_traits@D@_STL@@V?$allocator@D@2@@_STL@@XZ
_TEXT	SEGMENT PARA USE32 PUBLIC 'CODE'
_TEXT	ENDS
;	COMDAT ??_C@_0BB@EOCHEBED@UnsupportedError?$AA@
CONST	SEGMENT DWORD USE32 PUBLIC 'CONST'
CONST	ENDS
;	COMDAT ??1Error@@UAE@XZ
_TEXT	SEGMENT PARA USE32 PUBLIC 'CODE'
_TEXT	ENDS
;	COMDAT __CTA3?AVUnsupportedError@@
xdata$x	SEGMENT DWORD USE32 PUBLIC 'CONST'
xdata$x	ENDS
;	COMDAT ??1UnsupportedError@@UAE@XZ
_TEXT	SEGMENT PARA USE32 PUBLIC 'CODE'
_TEXT	ENDS
;	COMDAT __CT??_R0?AVThrowable@@@8??0Throwable@@QAE@ABV0@@Z20
xdata$x	SEGMENT DWORD USE32 PUBLIC 'CONST'
xdata$x	ENDS
;	COMDAT __CT??_R0?AVError@@@8??0Error@@QAE@ABV0@@Z20
xdata$x	SEGMENT DWORD USE32 PUBLIC 'CONST'
xdata$x	ENDS
;	COMDAT __CT??_R0?AVUnsupportedError@@@8??0UnsupportedError@@QAE@ABV0@@Z20
xdata$x	SEGMENT DWORD USE32 PUBLIC 'CONST'
xdata$x	ENDS
;	COMDAT ??_R0?AVThrowable@@@8
_DATA	SEGMENT DWORD USE32 PUBLIC 'DATA'
_DATA	ENDS
;	COMDAT ??_R0?AVError@@@8
_DATA	SEGMENT DWORD USE32 PUBLIC 'DATA'
_DATA	ENDS
;	COMDAT ??_R0?AVUnsupportedError@@@8
_DATA	SEGMENT DWORD USE32 PUBLIC 'DATA'
_DATA	ENDS
;	COMDAT __TI3?AVUnsupportedError@@
xdata$x	SEGMENT DWORD USE32 PUBLIC 'CONST'
xdata$x	ENDS
;	COMDAT ??0UnsupportedError@@QAE@XZ
_TEXT	SEGMENT PARA USE32 PUBLIC 'CODE'
_TEXT	ENDS
;	COMDAT ??0Error@@QAE@XZ
_TEXT	SEGMENT PARA USE32 PUBLIC 'CODE'
_TEXT	ENDS
;	COMDAT ??0Throwable@@QAE@XZ
_TEXT	SEGMENT PARA USE32 PUBLIC 'CODE'
_TEXT	ENDS
;	COMDAT ??0?$basic_string@DV?$char_traits@D@_STL@@V?$allocator@D@2@@_STL@@QAE@XZ
_TEXT	SEGMENT PARA USE32 PUBLIC 'CODE'
_TEXT	ENDS
;	COMDAT ??0?$list@V?$basic_string@DV?$char_traits@D@_STL@@V?$allocator@D@2@@_STL@@V?$allocator@V?$basic_string@DV?$char_traits@D@_STL@@V?$allocator@D@2@@_STL@@@2@@_STL@@QAE@ABV?$allocator@V?$basic_string@DV?$char_traits@D@_STL@@V?$allocator@D@2@@_STL@@@1@@Z
_TEXT	SEGMENT PARA USE32 PUBLIC 'CODE'
_TEXT	ENDS
;	COMDAT ??0?$allocator@V?$basic_string@DV?$char_traits@D@_STL@@V?$allocator@D@2@@_STL@@@_STL@@QAE@XZ
_TEXT	SEGMENT PARA USE32 PUBLIC 'CODE'
_TEXT	ENDS
;	COMDAT ??_7Packet@@6B@
CONST	SEGMENT DWORD USE32 PUBLIC 'CONST'
CONST	ENDS
;	COMDAT ??1?$basic_string@DV?$char_traits@D@_STL@@V?$allocator@D@2@@_STL@@QAE@XZ
_TEXT	SEGMENT PARA USE32 PUBLIC 'CODE'
_TEXT	ENDS
;	COMDAT ??0?$basic_string@DV?$char_traits@D@_STL@@V?$allocator@D@2@@_STL@@QAE@ABV01@@Z
_TEXT	SEGMENT PARA USE32 PUBLIC 'CODE'
_TEXT	ENDS
sxdata	SEGMENT DWORD USE32 'SXDATA'
sxdata	ENDS
FLAT	GROUP _DATA, CONST, _BSS
	ASSUME	CS: FLAT, DS: FLAT, SS: FLAT
endif

INCLUDELIB LIBCMT
INCLUDELIB OLDNAMES

PUBLIC	??2@YAPAXIPAX@Z					; operator new
; Function compile flags: /Ogsy
; File c:\program files\microsoft visual studio .net 2003\vc7\include\new
;	COMDAT ??2@YAPAXIPAX@Z
_TEXT	SEGMENT
___formal$ = 8						; size = 4
__Where$ = 12						; size = 4
??2@YAPAXIPAX@Z PROC NEAR				; operator new, COMDAT

; 64   : 	return (_Where);

  00000	8b 44 24 08	 mov	 eax, DWORD PTR __Where$[esp-4]

; 65   : 	}

  00004	c3		 ret	 0
??2@YAPAXIPAX@Z ENDP					; operator new
_TEXT	ENDS
PUBLIC	?__stl_new@_STL@@YAPAXI@Z			; _STL::__stl_new
EXTRN	??2@YAPAXI@Z:NEAR				; operator new
; Function compile flags: /Ogsy
; File c:\stlport-4.6.1\stlport\stl\_new.h
;	COMDAT ?__stl_new@_STL@@YAPAXI@Z
_TEXT	SEGMENT
___n$ = 8						; size = 4
?__stl_new@_STL@@YAPAXI@Z PROC NEAR			; _STL::__stl_new, COMDAT

; 86   : inline void*  _STLP_CALL __stl_new(size_t __n)   { _STLP_CHECK_NULL_ALLOC(::operator _STLP_NEW(__n)); }

  00000	e9 00 00 00 00	 jmp	 ??2@YAPAXI@Z		; operator new
?__stl_new@_STL@@YAPAXI@Z ENDP				; _STL::__stl_new
_TEXT	ENDS
PUBLIC	?__stl_delete@_STL@@YAXPAX@Z			; _STL::__stl_delete
EXTRN	??3@YAXPAX@Z:NEAR				; operator delete
; Function compile flags: /Ogsy
;	COMDAT ?__stl_delete@_STL@@YAXPAX@Z
_TEXT	SEGMENT
___p$ = 8						; size = 4
?__stl_delete@_STL@@YAXPAX@Z PROC NEAR			; _STL::__stl_delete, COMDAT

; 87   : inline void   _STLP_CALL __stl_delete(void* __p) { ::operator delete(__p); }

  00000	e9 00 00 00 00	 jmp	 ??3@YAXPAX@Z		; operator delete
?__stl_delete@_STL@@YAXPAX@Z ENDP			; _STL::__stl_delete
_TEXT	ENDS
PUBLIC	?read@SocketInputStream@@QAEIAAD@Z		; SocketInputStream::read
EXTRN	?read@SocketInputStream@@QAEIPADI@Z:NEAR	; SocketInputStream::read
; Function compile flags: /Ogsy
; File c:\darkeden\designed_common\project\client\packet\socketinputstream.h
;	COMDAT ?read@SocketInputStream@@QAEIAAD@Z
_TEXT	SEGMENT
_buf$ = 8						; size = 4
?read@SocketInputStream@@QAEIAAD@Z PROC NEAR		; SocketInputStream::read, COMDAT
; _this$ = ecx

; 68   : 	uint read ( char   & buf ) throw ( ProtocolException , Error ) { return read( (char*)&buf, szchar   ); }

  00000	6a 01		 push	 1
  00002	ff 74 24 08	 push	 DWORD PTR _buf$[esp]
  00006	e8 00 00 00 00	 call	 ?read@SocketInputStream@@QAEIPADI@Z ; SocketInputStream::read
  0000b	c2 04 00	 ret	 4
?read@SocketInputStream@@QAEIAAD@Z ENDP			; SocketInputStream::read
_TEXT	ENDS
PUBLIC	?read@SocketInputStream@@QAEIAAE@Z		; SocketInputStream::read
; Function compile flags: /Ogsy
;	COMDAT ?read@SocketInputStream@@QAEIAAE@Z
_TEXT	SEGMENT
_buf$ = 8						; size = 4
?read@SocketInputStream@@QAEIAAE@Z PROC NEAR		; SocketInputStream::read, COMDAT
; _this$ = ecx

; 69   : 	uint read ( uchar  & buf ) throw ( ProtocolException , Error ) { return read( (char*)&buf, szuchar  ); }

  00000	6a 01		 push	 1
  00002	ff 74 24 08	 push	 DWORD PTR _buf$[esp]
  00006	e8 00 00 00 00	 call	 ?read@SocketInputStream@@QAEIPADI@Z ; SocketInputStream::read
  0000b	c2 04 00	 ret	 4
?read@SocketInputStream@@QAEIAAE@Z ENDP			; SocketInputStream::read
_TEXT	ENDS
PUBLIC	?read@SocketInputStream@@QAEIAAG@Z		; SocketInputStream::read
; Function compile flags: /Ogsy
;	COMDAT ?read@SocketInputStream@@QAEIAAG@Z
_TEXT	SEGMENT
_buf$ = 8						; size = 4
?read@SocketInputStream@@QAEIAAG@Z PROC NEAR		; SocketInputStream::read, COMDAT
; _this$ = ecx

; 71   : 	uint read ( ushort & buf ) throw ( ProtocolException , Error ) { return read( (char*)&buf, szushort ); }

  00000	6a 02		 push	 2
  00002	ff 74 24 08	 push	 DWORD PTR _buf$[esp]
  00006	e8 00 00 00 00	 call	 ?read@SocketInputStream@@QAEIPADI@Z ; SocketInputStream::read
  0000b	c2 04 00	 ret	 4
?read@SocketInputStream@@QAEIAAG@Z ENDP			; SocketInputStream::read
_TEXT	ENDS
PUBLIC	?read@SocketInputStream@@QAEIAAH@Z		; SocketInputStream::read
; Function compile flags: /Ogsy
;	COMDAT ?read@SocketInputStream@@QAEIAAH@Z
_TEXT	SEGMENT
_buf$ = 8						; size = 4
?read@SocketInputStream@@QAEIAAH@Z PROC NEAR		; SocketInputStream::read, COMDAT
; _this$ = ecx

; 72   : 	uint read ( int    & buf ) throw ( ProtocolException , Error ) { return read( (char*)&buf, szint    ); }

  00000	6a 04		 push	 4
  00002	ff 74 24 08	 push	 DWORD PTR _buf$[esp]
  00006	e8 00 00 00 00	 call	 ?read@SocketInputStream@@QAEIPADI@Z ; SocketInputStream::read
  0000b	c2 04 00	 ret	 4
?read@SocketInputStream@@QAEIAAH@Z ENDP			; SocketInputStream::read
_TEXT	ENDS
PUBLIC	?read@SocketInputStream@@QAEIAAK@Z		; SocketInputStream::read
; Function compile flags: /Ogsy
;	COMDAT ?read@SocketInputStream@@QAEIAAK@Z
_TEXT	SEGMENT
_buf$ = 8						; size = 4
?read@SocketInputStream@@QAEIAAK@Z PROC NEAR		; SocketInputStream::read, COMDAT
; _this$ = ecx

; 75   : 	uint read ( ulong  & buf ) throw ( ProtocolException , Error ) { return read( (char*)&buf, szulong  ); }

  00000	6a 04		 push	 4
  00002	ff 74 24 08	 push	 DWORD PTR _buf$[esp]
  00006	e8 00 00 00 00	 call	 ?read@SocketInputStream@@QAEIPADI@Z ; SocketInputStream::read
  0000b	c2 04 00	 ret	 4
?read@SocketInputStream@@QAEIAAK@Z ENDP			; SocketInputStream::read
_TEXT	ENDS
PUBLIC	?write@SocketOutputStream@@QAEID@Z		; SocketOutputStream::write
EXTRN	?write@SocketOutputStream@@QAEIPBDI@Z:NEAR	; SocketOutputStream::write
; Function compile flags: /Ogsy
; File c:\darkeden\designed_common\project\client\packet\socketoutputstream.h
;	COMDAT ?write@SocketOutputStream@@QAEID@Z
_TEXT	SEGMENT
_buf$ = 8						; size = 1
?write@SocketOutputStream@@QAEID@Z PROC NEAR		; SocketOutputStream::write, COMDAT
; _this$ = ecx

; 61   :     uint write ( char   buf ) throw ( ProtocolException , Error ) { return write( (const char*)&buf, szchar   ); }

  00000	6a 01		 push	 1
  00002	8d 44 24 08	 lea	 eax, DWORD PTR _buf$[esp]
  00006	50		 push	 eax
  00007	e8 00 00 00 00	 call	 ?write@SocketOutputStream@@QAEIPBDI@Z ; SocketOutputStream::write
  0000c	c2 04 00	 ret	 4
?write@SocketOutputStream@@QAEID@Z ENDP			; SocketOutputStream::write
_TEXT	ENDS
PUBLIC	?write@SocketOutputStream@@QAEIE@Z		; SocketOutputStream::write
; Function compile flags: /Ogsy
;	COMDAT ?write@SocketOutputStream@@QAEIE@Z
_TEXT	SEGMENT
_buf$ = 8						; size = 1
?write@SocketOutputStream@@QAEIE@Z PROC NEAR		; SocketOutputStream::write, COMDAT
; _this$ = ecx

; 62   :     uint write ( uchar  buf ) throw ( ProtocolException , Error ) { return write( (const char*)&buf, szuchar  ); }

  00000	6a 01		 push	 1
  00002	8d 44 24 08	 lea	 eax, DWORD PTR _buf$[esp]
  00006	50		 push	 eax
  00007	e8 00 00 00 00	 call	 ?write@SocketOutputStream@@QAEIPBDI@Z ; SocketOutputStream::write
  0000c	c2 04 00	 ret	 4
?write@SocketOutputStream@@QAEIE@Z ENDP			; SocketOutputStream::write
_TEXT	ENDS
PUBLIC	?write@SocketOutputStream@@QAEIG@Z		; SocketOutputStream::write
; Function compile flags: /Ogsy
;	COMDAT ?write@SocketOutputStream@@QAEIG@Z
_TEXT	SEGMENT
_buf$ = 8						; size = 2
?write@SocketOutputStream@@QAEIG@Z PROC NEAR		; SocketOutputStream::write, COMDAT
; _this$ = ecx

; 64   :     uint write ( ushort buf ) throw ( ProtocolException , Error ) { return write( (const char*)&buf, szushort ); }

  00000	6a 02		 push	 2
  00002	8d 44 24 08	 lea	 eax, DWORD PTR _buf$[esp]
  00006	50		 push	 eax
  00007	e8 00 00 00 00	 call	 ?write@SocketOutputStream@@QAEIPBDI@Z ; SocketOutputStream::write
  0000c	c2 04 00	 ret	 4
?write@SocketOutputStream@@QAEIG@Z ENDP			; SocketOutputStream::write
_TEXT	ENDS
PUBLIC	?write@SocketOutputStream@@QAEIH@Z		; SocketOutputStream::write
; Function compile flags: /Ogsy
;	COMDAT ?write@SocketOutputStream@@QAEIH@Z
_TEXT	SEGMENT
_buf$ = 8						; size = 4
?write@SocketOutputStream@@QAEIH@Z PROC NEAR		; SocketOutputStream::write, COMDAT
; _this$ = ecx

; 65   :     uint write ( int    buf ) throw ( ProtocolException , Error ) { return write( (const char*)&buf, szint    ); }

  00000	6a 04		 push	 4
  00002	8d 44 24 08	 lea	 eax, DWORD PTR _buf$[esp]
  00006	50		 push	 eax
  00007	e8 00 00 00 00	 call	 ?write@SocketOutputStream@@QAEIPBDI@Z ; SocketOutputStream::write
  0000c	c2 04 00	 ret	 4
?write@SocketOutputStream@@QAEIH@Z ENDP			; SocketOutputStream::write
_TEXT	ENDS
PUBLIC	?write@SocketOutputStream@@QAEIK@Z		; SocketOutputStream::write
; Function compile flags: /Ogsy
;	COMDAT ?write@SocketOutputStream@@QAEIK@Z
_TEXT	SEGMENT
_buf$ = 8						; size = 4
?write@SocketOutputStream@@QAEIK@Z PROC NEAR		; SocketOutputStream::write, COMDAT
; _this$ = ecx

; 68   :     uint write ( ulong  buf ) throw ( ProtocolException , Error ) { return write( (const char*)&buf, szulong  ); }

  00000	6a 04		 push	 4
  00002	8d 44 24 08	 lea	 eax, DWORD PTR _buf$[esp]
  00006	50		 push	 eax
  00007	e8 00 00 00 00	 call	 ?write@SocketOutputStream@@QAEIPBDI@Z ; SocketOutputStream::write
  0000c	c2 04 00	 ret	 4
?write@SocketOutputStream@@QAEIK@Z ENDP			; SocketOutputStream::write
_TEXT	ENDS
PUBLIC	??1Packet@@UAE@XZ				; Packet::~Packet
PUBLIC	?read@Packet@@UAEXPAVSocket@@@Z			; Packet::read
PUBLIC	?write@Packet@@UBEXPAVSocket@@@Z		; Packet::write
PUBLIC	??_7Packet@@6B@					; Packet::`vftable'
PUBLIC	??_GPacket@@UAEPAXI@Z				; Packet::`scalar deleting destructor'
PUBLIC	??_R1A@?0A@A@Packet@@8				; Packet::`RTTI Base Class Descriptor at (0,-1,0,0)'
PUBLIC	??_R0?AVPacket@@@8				; Packet `RTTI Type Descriptor'
PUBLIC	??_R4Packet@@6B@				; Packet::`RTTI Complete Object Locator'
PUBLIC	??_R3Packet@@8					; Packet::`RTTI Class Hierarchy Descriptor'
PUBLIC	??_R2Packet@@8					; Packet::`RTTI Base Class Array'
EXTRN	??_7type_info@@6B@:QWORD			; type_info::`vftable'
EXTRN	??_EPacket@@UAEPAXI@Z:NEAR			; Packet::`vector deleting destructor'
EXTRN	__purecall:NEAR
;	COMDAT ??_7Packet@@6B@
; File c:\darkeden\designed_common\project\client\packet\packet.h
CONST	SEGMENT
??_7Packet@@6B@ DD FLAT:??_R4Packet@@6B@		; Packet::`vftable'
	DD	FLAT:??_EPacket@@UAEPAXI@Z
	DD	FLAT:?read@Packet@@UAEXPAVSocket@@@Z
	DD	FLAT:__purecall
	DD	FLAT:?write@Packet@@UBEXPAVSocket@@@Z
	DD	FLAT:__purecall
	DD	FLAT:__purecall
	DD	FLAT:__purecall
	DD	FLAT:__purecall
CONST	ENDS
;	COMDAT ??_R4Packet@@6B@
rdata$r	SEGMENT
??_R4Packet@@6B@ DD 00H					; Packet::`RTTI Complete Object Locator'
	DD	00H
	DD	00H
	DD	FLAT:??_R0?AVPacket@@@8
	DD	FLAT:??_R3Packet@@8
rdata$r	ENDS
;	COMDAT ??_R0?AVPacket@@@8
_DATA	SEGMENT
??_R0?AVPacket@@@8 DD FLAT:??_7type_info@@6B@		; Packet `RTTI Type Descriptor'
	DD	00H
	DB	'.?AVPacket@@', 00H
_DATA	ENDS
;	COMDAT ??_R3Packet@@8
rdata$r	SEGMENT
??_R3Packet@@8 DD 00H					; Packet::`RTTI Class Hierarchy Descriptor'
	DD	00H
	DD	01H
	DD	FLAT:??_R2Packet@@8
rdata$r	ENDS
;	COMDAT ??_R2Packet@@8
rdata$r	SEGMENT
??_R2Packet@@8 DD FLAT:??_R1A@?0A@A@Packet@@8		; Packet::`RTTI Base Class Array'
rdata$r	ENDS
;	COMDAT ??_R1A@?0A@A@Packet@@8
rdata$r	SEGMENT
??_R1A@?0A@A@Packet@@8 DD FLAT:??_R0?AVPacket@@@8	; Packet::`RTTI Base Class Descriptor at (0,-1,0,0)'
	DD	00H
	DD	00H
	DD	0ffffffffH
	DD	00H
	DD	00H
; Function compile flags: /Ogsy
rdata$r	ENDS
;	COMDAT ??1Packet@@UAE@XZ
_TEXT	SEGMENT
??1Packet@@UAE@XZ PROC NEAR				; Packet::~Packet, COMDAT
; _this$ = ecx

; 726  : 	virtual ~Packet () throw () {}

  00000	c7 01 00 00 00
	00		 mov	 DWORD PTR [ecx], OFFSET FLAT:??_7Packet@@6B@
  00006	c3		 ret	 0
??1Packet@@UAE@XZ ENDP					; Packet::~Packet
; Function compile flags: /Ogsy
_TEXT	ENDS
;	COMDAT ??_GPacket@@UAEPAXI@Z
_TEXT	SEGMENT
___flags$ = 8						; size = 4
??_GPacket@@UAEPAXI@Z PROC NEAR				; Packet::`scalar deleting destructor', COMDAT
; _this$ = ecx
  00000	f6 44 24 04 01	 test	 BYTE PTR ___flags$[esp-4], 1
  00005	56		 push	 esi
  00006	8b f1		 mov	 esi, ecx
  00008	c7 06 00 00 00
	00		 mov	 DWORD PTR [esi], OFFSET FLAT:??_7Packet@@6B@
  0000e	74 07		 je	 SHORT $L100453
  00010	56		 push	 esi
  00011	e8 00 00 00 00	 call	 ??3@YAXPAX@Z		; operator delete
  00016	59		 pop	 ecx
$L100453:
  00017	8b c6		 mov	 eax, esi
  00019	5e		 pop	 esi
  0001a	c2 04 00	 ret	 4
??_GPacket@@UAEPAXI@Z ENDP				; Packet::`scalar deleting destructor'
_TEXT	ENDS
PUBLIC	?getSize@SubItemInfo@@SAIXZ			; SubItemInfo::getSize
; Function compile flags: /Ogsy
; File c:\darkeden\designed_common\project\client\packet\subiteminfo.h
;	COMDAT ?getSize@SubItemInfo@@SAIXZ
_TEXT	SEGMENT
?getSize@SubItemInfo@@SAIXZ PROC NEAR			; SubItemInfo::getSize, COMDAT

; 39   : 	{ return szObjectID + szBYTE + szItemType + szItemNum + szSlotID; }

  00000	6a 09		 push	 9
  00002	58		 pop	 eax
  00003	c3		 ret	 0
?getSize@SubItemInfo@@SAIXZ ENDP			; SubItemInfo::getSize
_TEXT	ENDS
PUBLIC	??0Packet@@QAE@XZ				; Packet::Packet
; Function compile flags: /Ogsy
;	COMDAT ??0Packet@@QAE@XZ
_TEXT	SEGMENT
??0Packet@@QAE@XZ PROC NEAR				; Packet::Packet, COMDAT
; _this$ = ecx
  00000	8b c1		 mov	 eax, ecx
  00002	c7 00 00 00 00
	00		 mov	 DWORD PTR [eax], OFFSET FLAT:??_7Packet@@6B@
  00008	c3		 ret	 0
??0Packet@@QAE@XZ ENDP					; Packet::Packet
_TEXT	ENDS
PUBLIC	?execute@GCStashList@@UAEXPAVPlayer@@@Z		; GCStashList::execute
EXTRN	?execute@GCStashListHandler@@SAXPAVGCStashList@@PAVPlayer@@@Z:NEAR ; GCStashListHandler::execute
; Function compile flags: /Ogsy
; File c:\darkeden\designed_common\project\client\packet\gpackets\gcstashlist.cpp
;	COMDAT ?execute@GCStashList@@UAEXPAVPlayer@@@Z
_TEXT	SEGMENT
_pPlayer$ = 8						; size = 4
?execute@GCStashList@@UAEXPAVPlayer@@@Z PROC NEAR	; GCStashList::execute, COMDAT
; _this$ = ecx

; 236  : 	__BEGIN_TRY
; 237  : 	__BEGIN_DEBUG
; 238  : 		
; 239  : 	GCStashListHandler::execute( this , pPlayer );

  00000	ff 74 24 04	 push	 DWORD PTR _pPlayer$[esp-4]
  00004	51		 push	 ecx
  00005	e8 00 00 00 00	 call	 ?execute@GCStashListHandler@@SAXPAVGCStashList@@PAVPlayer@@@Z ; GCStashListHandler::execute
  0000a	59		 pop	 ecx
  0000b	59		 pop	 ecx

; 240  : 
; 241  : 	__END_DEBUG
; 242  : 	__END_CATCH
; 243  : }

  0000c	c2 04 00	 ret	 4
?execute@GCStashList@@UAEXPAVPlayer@@@Z ENDP		; GCStashList::execute
_TEXT	ENDS
PUBLIC	?isExist@GCStashList@@QBE_NEE@Z			; GCStashList::isExist
; Function compile flags: /Ogsy
;	COMDAT ?isExist@GCStashList@@QBE_NEE@Z
_TEXT	SEGMENT
_rack$ = 8						; size = 1
_index$ = 12						; size = 1
?isExist@GCStashList@@QBE_NEE@Z PROC NEAR		; GCStashList::isExist, COMDAT
; _this$ = ecx

; 347  : 	__BEGIN_TRY
; 348  : 
; 349  : 	Assert(rack < STASH_RACK_MAX && index < STASH_INDEX_MAX);
; 350  : 	return m_bExist[rack][index];

  00000	0f b6 44 24 04	 movzx	 eax, BYTE PTR _rack$[esp-4]
  00005	0f b6 54 24 08	 movzx	 edx, BYTE PTR _index$[esp-4]
  0000a	8d 04 80	 lea	 eax, DWORD PTR [eax+eax*4]
  0000d	03 d1		 add	 edx, ecx
  0000f	8a 44 82 04	 mov	 al, BYTE PTR [edx+eax*4+4]

; 351  : 
; 352  : 	__END_CATCH
; 353  : }

  00013	c2 08 00	 ret	 8
?isExist@GCStashList@@QBE_NEE@Z ENDP			; GCStashList::isExist
_TEXT	ENDS
PUBLIC	?setStashItem@GCStashList@@QAEXEEPAVItem@@@Z	; GCStashList::setStashItem
; Function compile flags: /Ogsy
;	COMDAT ?setStashItem@GCStashList@@QAEXEEPAVItem@@@Z
_TEXT	SEGMENT
_rack$ = 8						; size = 1
_index$ = 12						; size = 1
_pItem$ = 16						; size = 4
?setStashItem@GCStashList@@QAEXEEPAVItem@@@Z PROC NEAR	; GCStashList::setStashItem, COMDAT
; _this$ = ecx

; 373  : 	__BEGIN_TRY
; 374  : 
; 375  : #ifdef	__GAME_SERVER__
; 376  : 
; 377  : 	Assert(rack < STASH_RACK_MAX && index < STASH_INDEX_MAX);
; 378  : 	Assert(pItem != NULL);	
; 379  : 
; 380  : 	ItemInfo*  pItemInfo      = NULL;
; 381  : 	AR*        pAR            = NULL;
; 382  : 	SR*        pSR            = NULL;
; 383  : 	SG*        pSG            = NULL;
; 384  : 	SMG*       pSMG           = NULL;
; 385  : 	Belt*      pBelt          = NULL;
; 386  : 	BYTE       pocketCount    = 0;
; 387  : 	Inventory* pBeltInventory = NULL;
; 388  : 	BYTE       subItemCount   = 0;
; 389  : 	BYTE       i              = 0;
; 390  : 
; 391  : 	switch (pItem->getItemClass())
; 392  : 	{
; 393  : 		case Item::ITEM_CLASS_AR:
; 394  : 			pAR = dynamic_cast<AR*>(pItem);
; 395  : 			m_pItems[rack][index].objectID     = pItem->getObjectID();
; 396  : 			m_pItems[rack][index].itemClass    = pItem->getItemClass();
; 397  : 			m_pItems[rack][index].itemType     = pItem->getItemType();
; 398  : 			m_pItems[rack][index].optionType   = pItem->getOptionTypeList();
; 399  : 			m_pItems[rack][index].durability   = pItem->getDurability();
; 400  : 			m_pItems[rack][index].num          = pAR->getBulletCount();
; 401  : 			m_pItems[rack][index].silver       = pItem->getSilver();
; 402  : 			m_pItems[rack][index].Grade        = pItem->getGrade();
; 403  : 			m_pItems[rack][index].enchantLevel = pItem->getEnchantLevel();
; 404  : 			break;
; 405  : 		case Item::ITEM_CLASS_SR:
; 406  : 			pSR = dynamic_cast<SR*>(pItem);
; 407  : 			m_pItems[rack][index].objectID     = pItem->getObjectID();
; 408  : 			m_pItems[rack][index].itemClass    = pItem->getItemClass();
; 409  : 			m_pItems[rack][index].itemType     = pItem->getItemType();
; 410  : 			m_pItems[rack][index].optionType   = pItem->getOptionTypeList();
; 411  : 			m_pItems[rack][index].durability   = pItem->getDurability();
; 412  : 			m_pItems[rack][index].num          = pSR->getBulletCount();
; 413  : 			m_pItems[rack][index].silver       = pItem->getSilver();
; 414  : 			m_pItems[rack][index].grade        = pItem->getGrade();
; 415  : 			m_pItems[rack][index].enchantLevel = pItem->getEnchantLevel();
; 416  : 			break;
; 417  : 		case Item::ITEM_CLASS_SG:
; 418  : 			pSG = dynamic_cast<SG*>(pItem);
; 419  : 			m_pItems[rack][index].objectID     = pItem->getObjectID();
; 420  : 			m_pItems[rack][index].itemClass    = pItem->getItemClass();
; 421  : 			m_pItems[rack][index].itemType     = pItem->getItemType();
; 422  : 			m_pItems[rack][index].optionType   = pItem->getOptionTypeList();
; 423  : 			m_pItems[rack][index].durability   = pItem->getDurability();
; 424  : 			m_pItems[rack][index].num          = pSG->getBulletCount();
; 425  : 			m_pItems[rack][index].silver       = pItem->getSilver();
; 426  : 			m_pItems[rack][index].grade        = pItem->getGrade();
; 427  : 			m_pItems[rack][index].enchantLevel = pItem->getEnchantLevel();
; 428  : 			break;
; 429  : 		case Item::ITEM_CLASS_SMG:
; 430  : 			pSMG = dynamic_cast<SMG*>(pItem);
; 431  : 			m_pItems[rack][index].objectID     = pItem->getObjectID();
; 432  : 			m_pItems[rack][index].itemClass    = pItem->getItemClass();
; 433  : 			m_pItems[rack][index].itemType     = pItem->getItemType();
; 434  : 			m_pItems[rack][index].optionType   = pItem->getOptionTypeList();
; 435  : 			m_pItems[rack][index].durability   = pItem->getDurability();
; 436  : 			m_pItems[rack][index].num          = pSMG->getBulletCount();
; 437  : 			m_pItems[rack][index].silver       = pItem->getSilver();
; 438  : 			m_pItems[rack][index].Grade        = pItem->getGrade();
; 439  : 			m_pItems[rack][index].enchantLevel = pItem->getEnchantLevel();
; 440  : 			break;
; 441  : 		case Item::ITEM_CLASS_BELT:
; 442  : 			m_pItems[rack][index].objectID     = pItem->getObjectID();
; 443  : 			m_pItems[rack][index].itemClass    = pItem->getItemClass();
; 444  : 			m_pItems[rack][index].itemType     = pItem->getItemType();
; 445  : 			m_pItems[rack][index].optionType   = pItem->getOptionTypeList();
; 446  : 			m_pItems[rack][index].durability   = pItem->getDurability();
; 447  : 			m_pItems[rack][index].num          = pItem->getNum();
; 448  : 			m_pItems[rack][index].Grade	       = pItem->getGrade();
; 449  : 			m_pItems[rack][index].enchantLevel = pItem->getEnchantLevel();
; 450  : 
; 451  : 			//       .
; 452  : 			// ,   .
; 453  : 			pBelt          = dynamic_cast<Belt*>(pItem);
; 454  : 			pItemInfo      = g_pItemInfoManager->getItemInfo(pBelt->getItemClass(), pBelt->getItemType());
; 455  : 			pocketCount    = dynamic_cast<BeltInfo*>(pItemInfo)->getPocketCount();
; 456  : 			pBeltInventory = pBelt->getInventory();
; 457  : 
; 458  : 			for (i = 0; i<pocketCount; i++)
; 459  : 			{
; 460  : 				Item* pBeltItem = pBeltInventory->getItem((int)i, 0);
; 461  : 				//   ...
; 462  : 				if (pBeltItem != NULL)
; 463  : 				{
; 464  : 					SubItemInfo* pSubItemInfo = new SubItemInfo;
; 465  : 					Assert(pSubItemInfo != NULL);
; 466  : 
; 467  : 					pSubItemInfo->setObjectID(pBeltItem->getObjectID());
; 468  : 					pSubItemInfo->setItemClass(pBeltItem->getItemClass());
; 469  : 					pSubItemInfo->setItemType(pBeltItem->getItemType());
; 470  : 					pSubItemInfo->setItemNum(pBeltItem->getNum());
; 471  : 					pSubItemInfo->setSlotID(i);
; 472  : 
; 473  : 					//     .
; 474  : 					m_pSubItems[rack][index].push_back(pSubItemInfo);
; 475  : 
; 476  : 					//  
; 477  : 					subItemCount++;
; 478  : 				}
; 479  : 			}
; 480  : 			//     .
; 481  : 			m_SubItemsCount[rack][index] = subItemCount;
; 482  : 
; 483  : 			break;
; 484  : 		default:
; 485  : 			m_pItems[rack][index].objectID     = pItem->getObjectID();
; 486  : 			m_pItems[rack][index].itemClass    = pItem->getItemClass();
; 487  : 			m_pItems[rack][index].itemType     = pItem->getItemType();
; 488  : 			m_pItems[rack][index].optionType   = pItem->getOptionTypeList();
; 489  : 			m_pItems[rack][index].durability   = pItem->getDurability();
; 490  : 			m_pItems[rack][index].num          = pItem->getNum();
; 491  : 			m_pItems[rack][index].Grade        = pItem->getGrade();
; 492  : 			m_pItems[rack][index].enchantLevel = pItem->getEnchantLevel();
; 493  : 			break;
; 494  : 	}
; 495  : 
; 496  : 	m_bExist[rack][index] = true;
; 497  : 
; 498  : #endif
; 499  : 
; 500  : 	__END_CATCH
; 501  : }

  00000	c2 0c 00	 ret	 12			; 0000000cH
?setStashItem@GCStashList@@QAEXEEPAVItem@@@Z ENDP	; GCStashList::setStashItem
_TEXT	ENDS
PUBLIC	?getSubItems@GCStashList@@QAEAAV?$list@PAVSubItemInfo@@V?$allocator@PAVSubItemInfo@@@_STL@@@_STL@@EE@Z ; GCStashList::getSubItems
; Function compile flags: /Ogsy
;	COMDAT ?getSubItems@GCStashList@@QAEAAV?$list@PAVSubItemInfo@@V?$allocator@PAVSubItemInfo@@@_STL@@@_STL@@EE@Z
_TEXT	SEGMENT
_rack$ = 8						; size = 1
_index$ = 12						; size = 1
?getSubItems@GCStashList@@QAEAAV?$list@PAVSubItemInfo@@V?$allocator@PAVSubItemInfo@@@_STL@@@_STL@@EE@Z PROC NEAR ; GCStashList::getSubItems, COMDAT
; _this$ = ecx

; 508  : 	__BEGIN_TRY
; 509  : 
; 510  : 	Assert(rack < STASH_RACK_MAX && index < STASH_INDEX_MAX);
; 511  : 	return m_pSubItems[rack][index];

  00000	0f b6 44 24 04	 movzx	 eax, BYTE PTR _rack$[esp-4]
  00005	0f b6 54 24 08	 movzx	 edx, BYTE PTR _index$[esp-4]
  0000a	8d 04 80	 lea	 eax, DWORD PTR [eax+eax*4]
  0000d	8d 04 82	 lea	 eax, DWORD PTR [edx+eax*4]
  00010	8d 84 81 78 0e
	00 00		 lea	 eax, DWORD PTR [ecx+eax*4+3704]

; 512  : 
; 513  : 	__END_CATCH
; 514  : }

  00017	c2 08 00	 ret	 8
?getSubItems@GCStashList@@QAEAAV?$list@PAVSubItemInfo@@V?$allocator@PAVSubItemInfo@@@_STL@@@_STL@@EE@Z ENDP ; GCStashList::getSubItems
_TEXT	ENDS
PUBLIC	?getSubItemCount@GCStashList@@QAEEEE@Z		; GCStashList::getSubItemCount
; Function compile flags: /Ogsy
;	COMDAT ?getSubItemCount@GCStashList@@QAEEEE@Z
_TEXT	SEGMENT
_rack$ = 8						; size = 1
_index$ = 12						; size = 1
?getSubItemCount@GCStashList@@QAEEEE@Z PROC NEAR	; GCStashList::getSubItemCount, COMDAT
; _this$ = ecx

; 522  : 	__BEGIN_TRY
; 523  : 
; 524  : 	Assert(rack < STASH_RACK_MAX && index < STASH_INDEX_MAX);
; 525  : 	return m_SubItemsCount[rack][index];

  00000	0f b6 44 24 04	 movzx	 eax, BYTE PTR _rack$[esp-4]
  00005	0f b6 54 24 08	 movzx	 edx, BYTE PTR _index$[esp-4]
  0000a	8d 04 80	 lea	 eax, DWORD PTR [eax+eax*4]
  0000d	03 d1		 add	 edx, ecx
  0000f	8a 84 82 08 10
	00 00		 mov	 al, BYTE PTR [edx+eax*4+4104]

; 526  : 
; 527  : 	__END_CATCH
; 528  : }

  00016	c2 08 00	 ret	 8
?getSubItemCount@GCStashList@@QAEEEE@Z ENDP		; GCStashList::getSubItemCount
_TEXT	ENDS
PUBLIC	??0?$allocator@G@_STL@@QAE@XZ			; _STL::allocator<unsigned short>::allocator<unsigned short>
; Function compile flags: /Ogsy
; File c:\stlport-4.6.1\stlport\stl\_alloc.h
;	COMDAT ??0?$allocator@G@_STL@@QAE@XZ
_TEXT	SEGMENT
??0?$allocator@G@_STL@@QAE@XZ PROC NEAR			; _STL::allocator<unsigned short>::allocator<unsigned short>, COMDAT
; _this$ = ecx

; 345  :   allocator() _STLP_NOTHROW {}

  00000	8b c1		 mov	 eax, ecx
  00002	c3		 ret	 0
??0?$allocator@G@_STL@@QAE@XZ ENDP			; _STL::allocator<unsigned short>::allocator<unsigned short>
_TEXT	ENDS
PUBLIC	??0?$allocator@PAVSubItemInfo@@@_STL@@QAE@XZ	; _STL::allocator<SubItemInfo *>::allocator<SubItemInfo *>
; Function compile flags: /Ogsy
;	COMDAT ??0?$allocator@PAVSubItemInfo@@@_STL@@QAE@XZ
_TEXT	SEGMENT
??0?$allocator@PAVSubItemInfo@@@_STL@@QAE@XZ PROC NEAR	; _STL::allocator<SubItemInfo *>::allocator<SubItemInfo *>, COMDAT
; _this$ = ecx

; 345  :   allocator() _STLP_NOTHROW {}

  00000	8b c1		 mov	 eax, ecx
  00002	c3		 ret	 0
??0?$allocator@PAVSubItemInfo@@@_STL@@QAE@XZ ENDP	; _STL::allocator<SubItemInfo *>::allocator<SubItemInfo *>
_TEXT	ENDS
PUBLIC	??1?$allocator@PAVSubItemInfo@@@_STL@@QAE@XZ	; _STL::allocator<SubItemInfo *>::~allocator<SubItemInfo *>
; Function compile flags: /Ogsy
;	COMDAT ??1?$allocator@PAVSubItemInfo@@@_STL@@QAE@XZ
_TEXT	SEGMENT
??1?$allocator@PAVSubItemInfo@@@_STL@@QAE@XZ PROC NEAR	; _STL::allocator<SubItemInfo *>::~allocator<SubItemInfo *>, COMDAT
; _this$ = ecx

; 350  :   ~allocator() _STLP_NOTHROW {}

  00000	c3		 ret	 0
??1?$allocator@PAVSubItemInfo@@@_STL@@QAE@XZ ENDP	; _STL::allocator<SubItemInfo *>::~allocator<SubItemInfo *>
_TEXT	ENDS
PUBLIC	??D?$_List_iterator@PAVSubItemInfo@@U?$_Nonconst_traits@PAVSubItemInfo@@@_STL@@@_STL@@QBEAAPAVSubItemInfo@@XZ ; _STL::_List_iterator<SubItemInfo *,_STL::_Nonconst_traits<SubItemInfo *> >::operator*
; Function compile flags: /Ogsy
; File c:\stlport-4.6.1\stlport\stl\_list.h
;	COMDAT ??D?$_List_iterator@PAVSubItemInfo@@U?$_Nonconst_traits@PAVSubItemInfo@@@_STL@@@_STL@@QBEAAPAVSubItemInfo@@XZ
_TEXT	SEGMENT
??D?$_List_iterator@PAVSubItemInfo@@U?$_Nonconst_traits@PAVSubItemInfo@@@_STL@@@_STL@@QBEAAPAVSubItemInfo@@XZ PROC NEAR ; _STL::_List_iterator<SubItemInfo *,_STL::_Nonconst_traits<SubItemInfo *> >::operator*, COMDAT
; _this$ = ecx

; 130  :   reference operator*() const { return ((_Node*)_M_node)->_M_data; }

  00000	8b 01		 mov	 eax, DWORD PTR [ecx]
  00002	83 c0 08	 add	 eax, 8
  00005	c3		 ret	 0
??D?$_List_iterator@PAVSubItemInfo@@U?$_Nonconst_traits@PAVSubItemInfo@@@_STL@@@_STL@@QBEAAPAVSubItemInfo@@XZ ENDP ; _STL::_List_iterator<SubItemInfo *,_STL::_Nonconst_traits<SubItemInfo *> >::operator*
_TEXT	ENDS
PUBLIC	??D?$_List_iterator@GU?$_Const_traits@G@_STL@@@_STL@@QBEABGXZ ; _STL::_List_iterator<unsigned short,_STL::_Const_traits<unsigned short> >::operator*
; Function compile flags: /Ogsy
;	COMDAT ??D?$_List_iterator@GU?$_Const_traits@G@_STL@@@_STL@@QBEABGXZ
_TEXT	SEGMENT
??D?$_List_iterator@GU?$_Const_traits@G@_STL@@@_STL@@QBEABGXZ PROC NEAR ; _STL::_List_iterator<unsigned short,_STL::_Const_traits<unsigned short> >::operator*, COMDAT
; _this$ = ecx

; 130  :   reference operator*() const { return ((_Node*)_M_node)->_M_data; }

  00000	8b 01		 mov	 eax, DWORD PTR [ecx]
  00002	83 c0 08	 add	 eax, 8
  00005	c3		 ret	 0
??D?$_List_iterator@GU?$_Const_traits@G@_STL@@@_STL@@QBEABGXZ ENDP ; _STL::_List_iterator<unsigned short,_STL::_Const_traits<unsigned short> >::operator*
_TEXT	ENDS
PUBLIC	??D?$_List_iterator@PAVSubItemInfo@@U?$_Const_traits@PAVSubItemInfo@@@_STL@@@_STL@@QBEABQAVSubItemInfo@@XZ ; _STL::_List_iterator<SubItemInfo *,_STL::_Const_traits<SubItemInfo *> >::operator*
; Function compile flags: /Ogsy
;	COMDAT ??D?$_List_iterator@PAVSubItemInfo@@U?$_Const_traits@PAVSubItemInfo@@@_STL@@@_STL@@QBEABQAVSubItemInfo@@XZ
_TEXT	SEGMENT
??D?$_List_iterator@PAVSubItemInfo@@U?$_Const_traits@PAVSubItemInfo@@@_STL@@@_STL@@QBEABQAVSubItemInfo@@XZ PROC NEAR ; _STL::_List_iterator<SubItemInfo *,_STL::_Const_traits<SubItemInfo *> >::operator*, COMDAT
; _this$ = ecx

; 130  :   reference operator*() const { return ((_Node*)_M_node)->_M_data; }

  00000	8b 01		 mov	 eax, DWORD PTR [ecx]
  00002	83 c0 08	 add	 eax, 8
  00005	c3		 ret	 0
??D?$_List_iterator@PAVSubItemInfo@@U?$_Const_traits@PAVSubItemInfo@@@_STL@@@_STL@@QBEABQAVSubItemInfo@@XZ ENDP ; _STL::_List_iterator<SubItemInfo *,_STL::_Const_traits<SubItemInfo *> >::operator*
_TEXT	ENDS
PUBLIC	??1?$allocator@U?$_List_node@G@_STL@@@_STL@@QAE@XZ ; _STL::allocator<_STL::_List_node<unsigned short> >::~allocator<_STL::_List_node<unsigned short> >
; Function compile flags: /Ogsy
; File c:\stlport-4.6.1\stlport\stl\_alloc.h
;	COMDAT ??1?$allocator@U?$_List_node@G@_STL@@@_STL@@QAE@XZ
_TEXT	SEGMENT
??1?$allocator@U?$_List_node@G@_STL@@@_STL@@QAE@XZ PROC NEAR ; _STL::allocator<_STL::_List_node<unsigned short> >::~allocator<_STL::_List_node<unsigned short> >, COMDAT
; _this$ = ecx

; 350  :   ~allocator() _STLP_NOTHROW {}

  00000	c3		 ret	 0
??1?$allocator@U?$_List_node@G@_STL@@@_STL@@QAE@XZ ENDP	; _STL::allocator<_STL::_List_node<unsigned short> >::~allocator<_STL::_List_node<unsigned short> >
_TEXT	ENDS
PUBLIC	??1?$allocator@U?$_List_node@PAVSubItemInfo@@@_STL@@@_STL@@QAE@XZ ; _STL::allocator<_STL::_List_node<SubItemInfo *> >::~allocator<_STL::_List_node<SubItemInfo *> >
; Function compile flags: /Ogsy
;	COMDAT ??1?$allocator@U?$_List_node@PAVSubItemInfo@@@_STL@@@_STL@@QAE@XZ
_TEXT	SEGMENT
??1?$allocator@U?$_List_node@PAVSubItemInfo@@@_STL@@@_STL@@QAE@XZ PROC NEAR ; _STL::allocator<_STL::_List_node<SubItemInfo *> >::~allocator<_STL::_List_node<SubItemInfo *> >, COMDAT
; _this$ = ecx

; 350  :   ~allocator() _STLP_NOTHROW {}

  00000	c3		 ret	 0
??1?$allocator@U?$_List_node@PAVSubItemInfo@@@_STL@@@_STL@@QAE@XZ ENDP ; _STL::allocator<_STL::_List_node<SubItemInfo *> >::~allocator<_STL::_List_node<SubItemInfo *> >
_TEXT	ENDS
PUBLIC	??0?$allocator@U?$_List_node@G@_STL@@@_STL@@QAE@ABV01@@Z ; _STL::allocator<_STL::_List_node<unsigned short> >::allocator<_STL::_List_node<unsigned short> >
; Function compile flags: /Ogsy
;	COMDAT ??0?$allocator@U?$_List_node@G@_STL@@@_STL@@QAE@ABV01@@Z
_TEXT	SEGMENT
___formal$ = 8						; size = 4
??0?$allocator@U?$_List_node@G@_STL@@@_STL@@QAE@ABV01@@Z PROC NEAR ; _STL::allocator<_STL::_List_node<unsigned short> >::allocator<_STL::_List_node<unsigned short> >, COMDAT
; _this$ = ecx

; 349  :   allocator(const allocator<_Tp>&) _STLP_NOTHROW {}

  00000	8b c1		 mov	 eax, ecx
  00002	c2 04 00	 ret	 4
??0?$allocator@U?$_List_node@G@_STL@@@_STL@@QAE@ABV01@@Z ENDP ; _STL::allocator<_STL::_List_node<unsigned short> >::allocator<_STL::_List_node<unsigned short> >
_TEXT	ENDS
PUBLIC	??0?$allocator@U?$_List_node@PAVSubItemInfo@@@_STL@@@_STL@@QAE@ABV01@@Z ; _STL::allocator<_STL::_List_node<SubItemInfo *> >::allocator<_STL::_List_node<SubItemInfo *> >
; Function compile flags: /Ogsy
;	COMDAT ??0?$allocator@U?$_List_node@PAVSubItemInfo@@@_STL@@@_STL@@QAE@ABV01@@Z
_TEXT	SEGMENT
___formal$ = 8						; size = 4
??0?$allocator@U?$_List_node@PAVSubItemInfo@@@_STL@@@_STL@@QAE@ABV01@@Z PROC NEAR ; _STL::allocator<_STL::_List_node<SubItemInfo *> >::allocator<_STL::_List_node<SubItemInfo *> >, COMDAT
; _this$ = ecx

; 349  :   allocator(const allocator<_Tp>&) _STLP_NOTHROW {}

  00000	8b c1		 mov	 eax, ecx
  00002	c2 04 00	 ret	 4
??0?$allocator@U?$_List_node@PAVSubItemInfo@@@_STL@@@_STL@@QAE@ABV01@@Z ENDP ; _STL::allocator<_STL::_List_node<SubItemInfo *> >::allocator<_STL::_List_node<SubItemInfo *> >
_TEXT	ENDS
PUBLIC	??$?0U?$_List_node@G@_STL@@@?$allocator@G@_STL@@QAE@ABV?$allocator@U?$_List_node@G@_STL@@@1@@Z ; _STL::allocator<unsigned short>::allocator<unsigned short><_STL::_List_node<unsigned short> >
; Function compile flags: /Ogsy
;	COMDAT ??$?0U?$_List_node@G@_STL@@@?$allocator@G@_STL@@QAE@ABV?$allocator@U?$_List_node@G@_STL@@@1@@Z
_TEXT	SEGMENT
___formal$ = 8						; size = 4
??$?0U?$_List_node@G@_STL@@@?$allocator@G@_STL@@QAE@ABV?$allocator@U?$_List_node@G@_STL@@@1@@Z PROC NEAR ; _STL::allocator<unsigned short>::allocator<unsigned short><_STL::_List_node<unsigned short> >, COMDAT
; _this$ = ecx

; 347  :   template <class _Tp1> allocator(const allocator<_Tp1>&) _STLP_NOTHROW {}

  00000	8b c1		 mov	 eax, ecx
  00002	c2 04 00	 ret	 4
??$?0U?$_List_node@G@_STL@@@?$allocator@G@_STL@@QAE@ABV?$allocator@U?$_List_node@G@_STL@@@1@@Z ENDP ; _STL::allocator<unsigned short>::allocator<unsigned short><_STL::_List_node<unsigned short> >
_TEXT	ENDS
PUBLIC	??$?0G@?$allocator@U?$_List_node@G@_STL@@@_STL@@QAE@ABV?$allocator@G@1@@Z ; _STL::allocator<_STL::_List_node<unsigned short> >::allocator<_STL::_List_node<unsigned short> ><unsigned short>
; Function compile flags: /Ogsy
;	COMDAT ??$?0G@?$allocator@U?$_List_node@G@_STL@@@_STL@@QAE@ABV?$allocator@G@1@@Z
_TEXT	SEGMENT
___formal$ = 8						; size = 4
??$?0G@?$allocator@U?$_List_node@G@_STL@@@_STL@@QAE@ABV?$allocator@G@1@@Z PROC NEAR ; _STL::allocator<_STL::_List_node<unsigned short> >::allocator<_STL::_List_node<unsigned short> ><unsigned short>, COMDAT
; _this$ = ecx

; 347  :   template <class _Tp1> allocator(const allocator<_Tp1>&) _STLP_NOTHROW {}

  00000	8b c1		 mov	 eax, ecx
  00002	c2 04 00	 ret	 4
??$?0G@?$allocator@U?$_List_node@G@_STL@@@_STL@@QAE@ABV?$allocator@G@1@@Z ENDP ; _STL::allocator<_STL::_List_node<unsigned short> >::allocator<_STL::_List_node<unsigned short> ><unsigned short>
_TEXT	ENDS
PUBLIC	??$?0PAVSubItemInfo@@@?$allocator@U?$_List_node@PAVSubItemInfo@@@_STL@@@_STL@@QAE@ABV?$allocator@PAVSubItemInfo@@@1@@Z ; _STL::allocator<_STL::_List_node<SubItemInfo *> >::allocator<_STL::_List_node<SubItemInfo *> ><SubItemInfo *>
; Function compile flags: /Ogsy
;	COMDAT ??$?0PAVSubItemInfo@@@?$allocator@U?$_List_node@PAVSubItemInfo@@@_STL@@@_STL@@QAE@ABV?$allocator@PAVSubItemInfo@@@1@@Z
_TEXT	SEGMENT
___formal$ = 8						; size = 4
??$?0PAVSubItemInfo@@@?$allocator@U?$_List_node@PAVSubItemInfo@@@_STL@@@_STL@@QAE@ABV?$allocator@PAVSubItemInfo@@@1@@Z PROC NEAR ; _STL::allocator<_STL::_List_node<SubItemInfo *> >::allocator<_STL::_List_node<SubItemInfo *> ><SubItemInfo *>, COMDAT
; _this$ = ecx

; 347  :   template <class _Tp1> allocator(const allocator<_Tp1>&) _STLP_NOTHROW {}

  00000	8b c1		 mov	 eax, ecx
  00002	c2 04 00	 ret	 4
??$?0PAVSubItemInfo@@@?$allocator@U?$_List_node@PAVSubItemInfo@@@_STL@@@_STL@@QAE@ABV?$allocator@PAVSubItemInfo@@@1@@Z ENDP ; _STL::allocator<_STL::_List_node<SubItemInfo *> >::allocator<_STL::_List_node<SubItemInfo *> ><SubItemInfo *>
_TEXT	ENDS
PUBLIC	??$_Construct@GG@_STL@@YAXPAGABG@Z		; _STL::_Construct<unsigned short,unsigned short>
; Function compile flags: /Ogsy
; File c:\stlport-4.6.1\stlport\stl\_construct.h
;	COMDAT ??$_Construct@GG@_STL@@YAXPAGABG@Z
_TEXT	SEGMENT
___p$ = 8						; size = 4
___val$ = 12						; size = 4
??$_Construct@GG@_STL@@YAXPAGABG@Z PROC NEAR		; _STL::_Construct<unsigned short,unsigned short>, COMDAT

; 94   : # ifdef _STLP_DEBUG_UNINITIALIZED
; 95   : 	memset((char*)__p, _STLP_SHRED_BYTE, sizeof(_T1));
; 96   : # endif
; 97   :     _STLP_PLACEMENT_NEW (__p) _T1(__val);

  00000	8b 44 24 04	 mov	 eax, DWORD PTR ___p$[esp-4]
  00004	85 c0		 test	 eax, eax
  00006	74 0a		 je	 SHORT $L103013
  00008	8b 4c 24 08	 mov	 ecx, DWORD PTR ___val$[esp-4]
  0000c	66 8b 09	 mov	 cx, WORD PTR [ecx]
  0000f	66 89 08	 mov	 WORD PTR [eax], cx
$L103013:

; 98   : }

  00012	c3		 ret	 0
??$_Construct@GG@_STL@@YAXPAGABG@Z ENDP			; _STL::_Construct<unsigned short,unsigned short>
_TEXT	ENDS
PUBLIC	??$_Construct@PAVSubItemInfo@@PAV1@@_STL@@YAXPAPAVSubItemInfo@@ABQAV1@@Z ; _STL::_Construct<SubItemInfo *,SubItemInfo *>
; Function compile flags: /Ogsy
;	COMDAT ??$_Construct@PAVSubItemInfo@@PAV1@@_STL@@YAXPAPAVSubItemInfo@@ABQAV1@@Z
_TEXT	SEGMENT
___p$ = 8						; size = 4
___val$ = 12						; size = 4
??$_Construct@PAVSubItemInfo@@PAV1@@_STL@@YAXPAPAVSubItemInfo@@ABQAV1@@Z PROC NEAR ; _STL::_Construct<SubItemInfo *,SubItemInfo *>, COMDAT

; 94   : # ifdef _STLP_DEBUG_UNINITIALIZED
; 95   : 	memset((char*)__p, _STLP_SHRED_BYTE, sizeof(_T1));
; 96   : # endif
; 97   :     _STLP_PLACEMENT_NEW (__p) _T1(__val);

  00000	8b 44 24 04	 mov	 eax, DWORD PTR ___p$[esp-4]
  00004	85 c0		 test	 eax, eax
  00006	74 08		 je	 SHORT $L103022
  00008	8b 4c 24 08	 mov	 ecx, DWORD PTR ___val$[esp-4]
  0000c	8b 09		 mov	 ecx, DWORD PTR [ecx]
  0000e	89 08		 mov	 DWORD PTR [eax], ecx
$L103022:

; 98   : }

  00010	c3		 ret	 0
??$_Construct@PAVSubItemInfo@@PAV1@@_STL@@YAXPAPAVSubItemInfo@@ABQAV1@@Z ENDP ; _STL::_Construct<SubItemInfo *,SubItemInfo *>
_TEXT	ENDS
PUBLIC	??$_Destroy@G@_STL@@YAXPAG@Z			; _STL::_Destroy<unsigned short>
; Function compile flags: /Ogsy
;	COMDAT ??$_Destroy@G@_STL@@YAXPAG@Z
_TEXT	SEGMENT
___pointer$ = 8						; size = 4
??$_Destroy@G@_STL@@YAXPAG@Z PROC NEAR			; _STL::_Destroy<unsigned short>, COMDAT

; 57   : # if _MSC_VER >= 1010
; 58   :   __pointer;
; 59   : # endif	// _MSC_VER >= 1000
; 60   : # ifdef _STLP_TRIVIAL_DESTRUCTOR_BUG
; 61   :   typedef typename __type_traits<_Tp>::has_trivial_destructor _Trivial_destructor;
; 62   :   __destroy_aux(__pointer, _Trivial_destructor());
; 63   : # else
; 64   : #  if ( defined (__BORLANDC__) && ( __BORLANDC__ < 0x500 ) )
; 65   :     __pointer->_Tp::~_Tp();
; 66   : #  else
; 67   :     __pointer->~_Tp();
; 68   : #  endif
; 69   : # endif
; 70   : # ifdef _STLP_DEBUG_UNINITIALIZED
; 71   : 	memset((char*)__pointer, _STLP_SHRED_BYTE, sizeof(_Tp));
; 72   : # endif
; 73   : }

  00000	c3		 ret	 0
??$_Destroy@G@_STL@@YAXPAG@Z ENDP			; _STL::_Destroy<unsigned short>
_TEXT	ENDS
PUBLIC	??$_Destroy@PAVSubItemInfo@@@_STL@@YAXPAPAVSubItemInfo@@@Z ; _STL::_Destroy<SubItemInfo *>
; Function compile flags: /Ogsy
;	COMDAT ??$_Destroy@PAVSubItemInfo@@@_STL@@YAXPAPAVSubItemInfo@@@Z
_TEXT	SEGMENT
___pointer$ = 8						; size = 4
??$_Destroy@PAVSubItemInfo@@@_STL@@YAXPAPAVSubItemInfo@@@Z PROC NEAR ; _STL::_Destroy<SubItemInfo *>, COMDAT

; 57   : # if _MSC_VER >= 1010
; 58   :   __pointer;
; 59   : # endif	// _MSC_VER >= 1000
; 60   : # ifdef _STLP_TRIVIAL_DESTRUCTOR_BUG
; 61   :   typedef typename __type_traits<_Tp>::has_trivial_destructor _Trivial_destructor;
; 62   :   __destroy_aux(__pointer, _Trivial_destructor());
; 63   : # else
; 64   : #  if ( defined (__BORLANDC__) && ( __BORLANDC__ < 0x500 ) )
; 65   :     __pointer->_Tp::~_Tp();
; 66   : #  else
; 67   :     __pointer->~_Tp();
; 68   : #  endif
; 69   : # endif
; 70   : # ifdef _STLP_DEBUG_UNINITIALIZED
; 71   : 	memset((char*)__pointer, _STLP_SHRED_BYTE, sizeof(_Tp));
; 72   : # endif
; 73   : }

  00000	c3		 ret	 0
??$_Destroy@PAVSubItemInfo@@@_STL@@YAXPAPAVSubItemInfo@@@Z ENDP ; _STL::_Destroy<SubItemInfo *>
_TEXT	ENDS
PUBLIC	??0_List_iterator_base@_STL@@QAE@PAU_List_node_base@1@@Z ; _STL::_List_iterator_base::_List_iterator_base
; Function compile flags: /Ogsy
; File c:\stlport-4.6.1\stlport\stl\_list.h
;	COMDAT ??0_List_iterator_base@_STL@@QAE@PAU_List_node_base@1@@Z
_TEXT	SEGMENT
___x$ = 8						; size = 4
??0_List_iterator_base@_STL@@QAE@PAU_List_node_base@1@@Z PROC NEAR ; _STL::_List_iterator_base::_List_iterator_base, COMDAT
; _this$ = ecx

; 95   :   _List_iterator_base(_List_node_base* __x) : _M_node(__x) {}

  00000	8b c1		 mov	 eax, ecx
  00002	8b 4c 24 04	 mov	 ecx, DWORD PTR ___x$[esp-4]
  00006	89 08		 mov	 DWORD PTR [eax], ecx
  00008	c2 04 00	 ret	 4
??0_List_iterator_base@_STL@@QAE@PAU_List_node_base@1@@Z ENDP ; _STL::_List_iterator_base::_List_iterator_base
_TEXT	ENDS
PUBLIC	??0_List_iterator_base@_STL@@QAE@XZ		; _STL::_List_iterator_base::_List_iterator_base
; Function compile flags: /Ogsy
;	COMDAT ??0_List_iterator_base@_STL@@QAE@XZ
_TEXT	SEGMENT
??0_List_iterator_base@_STL@@QAE@XZ PROC NEAR		; _STL::_List_iterator_base::_List_iterator_base, COMDAT
; _this$ = ecx

; 96   :   _List_iterator_base() {}

  00000	8b c1		 mov	 eax, ecx
  00002	c3		 ret	 0
??0_List_iterator_base@_STL@@QAE@XZ ENDP		; _STL::_List_iterator_base::_List_iterator_base
_TEXT	ENDS
PUBLIC	?_M_incr@_List_iterator_base@_STL@@QAEXXZ	; _STL::_List_iterator_base::_M_incr
; Function compile flags: /Ogsy
;	COMDAT ?_M_incr@_List_iterator_base@_STL@@QAEXXZ
_TEXT	SEGMENT
?_M_incr@_List_iterator_base@_STL@@QAEXXZ PROC NEAR	; _STL::_List_iterator_base::_M_incr, COMDAT
; _this$ = ecx

; 98   :   void _M_incr() { _M_node = _M_node->_M_next; }

  00000	8b 01		 mov	 eax, DWORD PTR [ecx]
  00002	8b 00		 mov	 eax, DWORD PTR [eax]
  00004	89 01		 mov	 DWORD PTR [ecx], eax
  00006	c3		 ret	 0
?_M_incr@_List_iterator_base@_STL@@QAEXXZ ENDP		; _STL::_List_iterator_base::_M_incr
_TEXT	ENDS
PUBLIC	??9_List_iterator_base@_STL@@QBE_NABU01@@Z	; _STL::_List_iterator_base::operator!=
; Function compile flags: /Ogsy
;	COMDAT ??9_List_iterator_base@_STL@@QBE_NABU01@@Z
_TEXT	SEGMENT
___y$ = 8						; size = 4
??9_List_iterator_base@_STL@@QBE_NABU01@@Z PROC NEAR	; _STL::_List_iterator_base::operator!=, COMDAT
; _this$ = ecx

; 104  :     return _M_node != __y._M_node; 

  00000	8b 01		 mov	 eax, DWORD PTR [ecx]
  00002	8b 54 24 04	 mov	 edx, DWORD PTR ___y$[esp-4]
  00006	33 c9		 xor	 ecx, ecx
  00008	3b 02		 cmp	 eax, DWORD PTR [edx]
  0000a	0f 95 c1	 setne	 cl
  0000d	8a c1		 mov	 al, cl

; 105  :   }

  0000f	c2 04 00	 ret	 4
??9_List_iterator_base@_STL@@QBE_NABU01@@Z ENDP		; _STL::_List_iterator_base::operator!=
_TEXT	ENDS
PUBLIC	??1?$allocator@G@_STL@@QAE@XZ			; _STL::allocator<unsigned short>::~allocator<unsigned short>
; Function compile flags: /Ogsy
; File c:\stlport-4.6.1\stlport\stl\_alloc.h
;	COMDAT ??1?$allocator@G@_STL@@QAE@XZ
_TEXT	SEGMENT
??1?$allocator@G@_STL@@QAE@XZ PROC NEAR			; _STL::allocator<unsigned short>::~allocator<unsigned short>, COMDAT
; _this$ = ecx

; 350  :   ~allocator() _STLP_NOTHROW {}

  00000	c3		 ret	 0
??1?$allocator@G@_STL@@QAE@XZ ENDP			; _STL::allocator<unsigned short>::~allocator<unsigned short>
_TEXT	ENDS
PUBLIC	?allocate@?$__node_alloc@$00$0A@@_STL@@SAPAXI@Z	; _STL::__node_alloc<1,0>::allocate
EXTRN	?_M_allocate@?$__node_alloc@$00$0A@@_STL@@CAPAXI@Z:NEAR ; _STL::__node_alloc<1,0>::_M_allocate
; Function compile flags: /Ogsy
;	COMDAT ?allocate@?$__node_alloc@$00$0A@@_STL@@SAPAXI@Z
_TEXT	SEGMENT
___n$ = 8						; size = 4
?allocate@?$__node_alloc@$00$0A@@_STL@@SAPAXI@Z PROC NEAR ; _STL::__node_alloc<1,0>::allocate, COMDAT

; 251  :   static void * _STLP_CALL allocate(size_t __n) { return (__n > (size_t)_MAX_BYTES) ?  __stl_new(__n) : _M_allocate(__n); }

  00000	8b 44 24 04	 mov	 eax, DWORD PTR ___n$[esp-4]
  00004	3d 80 00 00 00	 cmp	 eax, 128		; 00000080H
  00009	50		 push	 eax
  0000a	76 07		 jbe	 SHORT $L103051
  0000c	e8 00 00 00 00	 call	 ??2@YAPAXI@Z		; operator new
  00011	59		 pop	 ecx
  00012	c3		 ret	 0
$L103051:
  00013	e8 00 00 00 00	 call	 ?_M_allocate@?$__node_alloc@$00$0A@@_STL@@CAPAXI@Z ; _STL::__node_alloc<1,0>::_M_allocate
  00018	59		 pop	 ecx
  00019	c3		 ret	 0
?allocate@?$__node_alloc@$00$0A@@_STL@@SAPAXI@Z ENDP	; _STL::__node_alloc<1,0>::allocate
_TEXT	ENDS
PUBLIC	?deallocate@?$__node_alloc@$00$0A@@_STL@@SAXPAXI@Z ; _STL::__node_alloc<1,0>::deallocate
EXTRN	?_M_deallocate@?$__node_alloc@$00$0A@@_STL@@CAXPAXI@Z:NEAR ; _STL::__node_alloc<1,0>::_M_deallocate
; Function compile flags: /Ogsy
;	COMDAT ?deallocate@?$__node_alloc@$00$0A@@_STL@@SAXPAXI@Z
_TEXT	SEGMENT
___p$ = 8						; size = 4
___n$ = 12						; size = 4
?deallocate@?$__node_alloc@$00$0A@@_STL@@SAXPAXI@Z PROC NEAR ; _STL::__node_alloc<1,0>::deallocate, COMDAT

; 253  :   static void _STLP_CALL deallocate(void *__p, size_t __n) { if (__n > (size_t)_MAX_BYTES) __stl_delete(__p); else _M_deallocate(__p, __n); }

  00000	81 7c 24 08 80
	00 00 00	 cmp	 DWORD PTR ___n$[esp-4], 128 ; 00000080H
  00008	76 0b		 jbe	 SHORT $L98677
  0000a	ff 74 24 04	 push	 DWORD PTR ___p$[esp-4]
  0000e	e8 00 00 00 00	 call	 ??3@YAXPAX@Z		; operator delete
  00013	59		 pop	 ecx
  00014	c3		 ret	 0
$L98677:
  00015	e9 00 00 00 00	 jmp	 ?_M_deallocate@?$__node_alloc@$00$0A@@_STL@@CAXPAXI@Z ; _STL::__node_alloc<1,0>::_M_deallocate
?deallocate@?$__node_alloc@$00$0A@@_STL@@SAXPAXI@Z ENDP	; _STL::__node_alloc<1,0>::deallocate
_TEXT	ENDS
PUBLIC	??0?$_List_iterator@GU?$_Const_traits@G@_STL@@@_STL@@QAE@XZ ; _STL::_List_iterator<unsigned short,_STL::_Const_traits<unsigned short> >::_List_iterator<unsigned short,_STL::_Const_traits<unsigned short> >
; Function compile flags: /Ogsy
; File c:\stlport-4.6.1\stlport\stl\_list.h
;	COMDAT ??0?$_List_iterator@GU?$_Const_traits@G@_STL@@@_STL@@QAE@XZ
_TEXT	SEGMENT
??0?$_List_iterator@GU?$_Const_traits@G@_STL@@@_STL@@QAE@XZ PROC NEAR ; _STL::_List_iterator<unsigned short,_STL::_Const_traits<unsigned short> >::_List_iterator<unsigned short,_STL::_Const_traits<unsigned short> >, COMDAT
; _this$ = ecx

; 127  :   _List_iterator() {}

  00000	8b c1		 mov	 eax, ecx
  00002	c3		 ret	 0
??0?$_List_iterator@GU?$_Const_traits@G@_STL@@@_STL@@QAE@XZ ENDP ; _STL::_List_iterator<unsigned short,_STL::_Const_traits<unsigned short> >::_List_iterator<unsigned short,_STL::_Const_traits<unsigned short> >
_TEXT	ENDS
PUBLIC	??E?$_List_iterator@GU?$_Const_traits@G@_STL@@@_STL@@QAE?AU01@H@Z ; _STL::_List_iterator<unsigned short,_STL::_Const_traits<unsigned short> >::operator++
; Function compile flags: /Ogsy
;	COMDAT ??E?$_List_iterator@GU?$_Const_traits@G@_STL@@@_STL@@QAE?AU01@H@Z
_TEXT	SEGMENT
___$ReturnUdt$ = 8					; size = 4
___formal$ = 12						; size = 4
??E?$_List_iterator@GU?$_Const_traits@G@_STL@@@_STL@@QAE?AU01@H@Z PROC NEAR ; _STL::_List_iterator<unsigned short,_STL::_Const_traits<unsigned short> >::operator++, COMDAT
; _this$ = ecx

; 139  :     _Self __tmp = *this;

  00000	8b 11		 mov	 edx, DWORD PTR [ecx]

; 140  :     this->_M_incr();

  00002	8b 02		 mov	 eax, DWORD PTR [edx]
  00004	89 01		 mov	 DWORD PTR [ecx], eax

; 141  :     return __tmp;

  00006	8b 44 24 04	 mov	 eax, DWORD PTR ___$ReturnUdt$[esp-4]
  0000a	89 10		 mov	 DWORD PTR [eax], edx

; 142  :   }

  0000c	c2 08 00	 ret	 8
??E?$_List_iterator@GU?$_Const_traits@G@_STL@@@_STL@@QAE?AU01@H@Z ENDP ; _STL::_List_iterator<unsigned short,_STL::_Const_traits<unsigned short> >::operator++
_TEXT	ENDS
PUBLIC	??E?$_List_iterator@PAVSubItemInfo@@U?$_Const_traits@PAVSubItemInfo@@@_STL@@@_STL@@QAE?AU01@H@Z ; _STL::_List_iterator<SubItemInfo *,_STL::_Const_traits<SubItemInfo *> >::operator++
; Function compile flags: /Ogsy
;	COMDAT ??E?$_List_iterator@PAVSubItemInfo@@U?$_Const_traits@PAVSubItemInfo@@@_STL@@@_STL@@QAE?AU01@H@Z
_TEXT	SEGMENT
___$ReturnUdt$ = 8					; size = 4
___formal$ = 12						; size = 4
??E?$_List_iterator@PAVSubItemInfo@@U?$_Const_traits@PAVSubItemInfo@@@_STL@@@_STL@@QAE?AU01@H@Z PROC NEAR ; _STL::_List_iterator<SubItemInfo *,_STL::_Const_traits<SubItemInfo *> >::operator++, COMDAT
; _this$ = ecx

; 139  :     _Self __tmp = *this;

  00000	8b 11		 mov	 edx, DWORD PTR [ecx]

; 140  :     this->_M_incr();

  00002	8b 02		 mov	 eax, DWORD PTR [edx]
  00004	89 01		 mov	 DWORD PTR [ecx], eax

; 141  :     return __tmp;

  00006	8b 44 24 04	 mov	 eax, DWORD PTR ___$ReturnUdt$[esp-4]
  0000a	89 10		 mov	 DWORD PTR [eax], edx

; 142  :   }

  0000c	c2 08 00	 ret	 8
??E?$_List_iterator@PAVSubItemInfo@@U?$_Const_traits@PAVSubItemInfo@@@_STL@@@_STL@@QAE?AU01@H@Z ENDP ; _STL::_List_iterator<SubItemInfo *,_STL::_Const_traits<SubItemInfo *> >::operator++
_TEXT	ENDS
PUBLIC	?get_allocator@?$_List_base@GV?$allocator@G@_STL@@@_STL@@QBE?AV?$allocator@G@2@XZ ; _STL::_List_base<unsigned short,_STL::allocator<unsigned short> >::get_allocator
; Function compile flags: /Ogsy
;	COMDAT ?get_allocator@?$_List_base@GV?$allocator@G@_STL@@@_STL@@QBE?AV?$allocator@G@2@XZ
_TEXT	SEGMENT
___$ReturnUdt$ = 8					; size = 4
?get_allocator@?$_List_base@GV?$allocator@G@_STL@@@_STL@@QBE?AV?$allocator@G@2@XZ PROC NEAR ; _STL::_List_base<unsigned short,_STL::allocator<unsigned short> >::get_allocator, COMDAT
; _this$ = ecx

; 179  :     return _STLP_CONVERT_ALLOCATOR((const _Node_allocator_type&)_M_node, _Tp);

  00000	8b 44 24 04	 mov	 eax, DWORD PTR ___$ReturnUdt$[esp-4]

; 180  :   }

  00004	c2 04 00	 ret	 4
?get_allocator@?$_List_base@GV?$allocator@G@_STL@@@_STL@@QBE?AV?$allocator@G@2@XZ ENDP ; _STL::_List_base<unsigned short,_STL::allocator<unsigned short> >::get_allocator
_TEXT	ENDS
PUBLIC	??0?$_List_iterator@PAVSubItemInfo@@U?$_Nonconst_traits@PAVSubItemInfo@@@_STL@@@_STL@@QAE@PAU?$_List_node@PAVSubItemInfo@@@1@@Z ; _STL::_List_iterator<SubItemInfo *,_STL::_Nonconst_traits<SubItemInfo *> >::_List_iterator<SubItemInfo *,_STL::_Nonconst_traits<SubItemInfo *> >
; Function compile flags: /Ogsy
;	COMDAT ??0?$_List_iterator@PAVSubItemInfo@@U?$_Nonconst_traits@PAVSubItemInfo@@@_STL@@@_STL@@QAE@PAU?$_List_node@PAVSubItemInfo@@@1@@Z
_TEXT	SEGMENT
___x$ = 8						; size = 4
??0?$_List_iterator@PAVSubItemInfo@@U?$_Nonconst_traits@PAVSubItemInfo@@@_STL@@@_STL@@QAE@PAU?$_List_node@PAVSubItemInfo@@@1@@Z PROC NEAR ; _STL::_List_iterator<SubItemInfo *,_STL::_Nonconst_traits<SubItemInfo *> >::_List_iterator<SubItemInfo *,_STL::_Nonconst_traits<SubItemInfo *> >, COMDAT
; _this$ = ecx

; 126  :   _List_iterator(_Node* __x) : _List_iterator_base(__x) {}

  00000	8b c1		 mov	 eax, ecx
  00002	8b 4c 24 04	 mov	 ecx, DWORD PTR ___x$[esp-4]
  00006	89 08		 mov	 DWORD PTR [eax], ecx
  00008	c2 04 00	 ret	 4
??0?$_List_iterator@PAVSubItemInfo@@U?$_Nonconst_traits@PAVSubItemInfo@@@_STL@@@_STL@@QAE@PAU?$_List_node@PAVSubItemInfo@@@1@@Z ENDP ; _STL::_List_iterator<SubItemInfo *,_STL::_Nonconst_traits<SubItemInfo *> >::_List_iterator<SubItemInfo *,_STL::_Nonconst_traits<SubItemInfo *> >
_TEXT	ENDS
PUBLIC	??0?$_List_iterator@PAVSubItemInfo@@U?$_Nonconst_traits@PAVSubItemInfo@@@_STL@@@_STL@@QAE@ABU01@@Z ; _STL::_List_iterator<SubItemInfo *,_STL::_Nonconst_traits<SubItemInfo *> >::_List_iterator<SubItemInfo *,_STL::_Nonconst_traits<SubItemInfo *> >
; Function compile flags: /Ogsy
;	COMDAT ??0?$_List_iterator@PAVSubItemInfo@@U?$_Nonconst_traits@PAVSubItemInfo@@@_STL@@@_STL@@QAE@ABU01@@Z
_TEXT	SEGMENT
___x$ = 8						; size = 4
??0?$_List_iterator@PAVSubItemInfo@@U?$_Nonconst_traits@PAVSubItemInfo@@@_STL@@@_STL@@QAE@ABU01@@Z PROC NEAR ; _STL::_List_iterator<SubItemInfo *,_STL::_Nonconst_traits<SubItemInfo *> >::_List_iterator<SubItemInfo *,_STL::_Nonconst_traits<SubItemInfo *> >, COMDAT
; _this$ = ecx

; 128  :   _List_iterator(const iterator& __x) :  _List_iterator_base(__x._M_node) {}

  00000	8b c1		 mov	 eax, ecx
  00002	8b 4c 24 04	 mov	 ecx, DWORD PTR ___x$[esp-4]
  00006	8b 09		 mov	 ecx, DWORD PTR [ecx]
  00008	89 08		 mov	 DWORD PTR [eax], ecx
  0000a	c2 04 00	 ret	 4
??0?$_List_iterator@PAVSubItemInfo@@U?$_Nonconst_traits@PAVSubItemInfo@@@_STL@@@_STL@@QAE@ABU01@@Z ENDP ; _STL::_List_iterator<SubItemInfo *,_STL::_Nonconst_traits<SubItemInfo *> >::_List_iterator<SubItemInfo *,_STL::_Nonconst_traits<SubItemInfo *> >
_TEXT	ENDS
PUBLIC	??0?$_List_iterator@GU?$_Const_traits@G@_STL@@@_STL@@QAE@PAU?$_List_node@G@1@@Z ; _STL::_List_iterator<unsigned short,_STL::_Const_traits<unsigned short> >::_List_iterator<unsigned short,_STL::_Const_traits<unsigned short> >
; Function compile flags: /Ogsy
;	COMDAT ??0?$_List_iterator@GU?$_Const_traits@G@_STL@@@_STL@@QAE@PAU?$_List_node@G@1@@Z
_TEXT	SEGMENT
___x$ = 8						; size = 4
??0?$_List_iterator@GU?$_Const_traits@G@_STL@@@_STL@@QAE@PAU?$_List_node@G@1@@Z PROC NEAR ; _STL::_List_iterator<unsigned short,_STL::_Const_traits<unsigned short> >::_List_iterator<unsigned short,_STL::_Const_traits<unsigned short> >, COMDAT
; _this$ = ecx

; 126  :   _List_iterator(_Node* __x) : _List_iterator_base(__x) {}

  00000	8b c1		 mov	 eax, ecx
  00002	8b 4c 24 04	 mov	 ecx, DWORD PTR ___x$[esp-4]
  00006	89 08		 mov	 DWORD PTR [eax], ecx
  00008	c2 04 00	 ret	 4
??0?$_List_iterator@GU?$_Const_traits@G@_STL@@@_STL@@QAE@PAU?$_List_node@G@1@@Z ENDP ; _STL::_List_iterator<unsigned short,_STL::_Const_traits<unsigned short> >::_List_iterator<unsigned short,_STL::_Const_traits<unsigned short> >
_TEXT	ENDS
PUBLIC	??0?$_List_iterator@PAVSubItemInfo@@U?$_Const_traits@PAVSubItemInfo@@@_STL@@@_STL@@QAE@PAU?$_List_node@PAVSubItemInfo@@@1@@Z ; _STL::_List_iterator<SubItemInfo *,_STL::_Const_traits<SubItemInfo *> >::_List_iterator<SubItemInfo *,_STL::_Const_traits<SubItemInfo *> >
; Function compile flags: /Ogsy
;	COMDAT ??0?$_List_iterator@PAVSubItemInfo@@U?$_Const_traits@PAVSubItemInfo@@@_STL@@@_STL@@QAE@PAU?$_List_node@PAVSubItemInfo@@@1@@Z
_TEXT	SEGMENT
___x$ = 8						; size = 4
??0?$_List_iterator@PAVSubItemInfo@@U?$_Const_traits@PAVSubItemInfo@@@_STL@@@_STL@@QAE@PAU?$_List_node@PAVSubItemInfo@@@1@@Z PROC NEAR ; _STL::_List_iterator<SubItemInfo *,_STL::_Const_traits<SubItemInfo *> >::_List_iterator<SubItemInfo *,_STL::_Const_traits<SubItemInfo *> >, COMDAT
; _this$ = ecx

; 126  :   _List_iterator(_Node* __x) : _List_iterator_base(__x) {}

  00000	8b c1		 mov	 eax, ecx
  00002	8b 4c 24 04	 mov	 ecx, DWORD PTR ___x$[esp-4]
  00006	89 08		 mov	 DWORD PTR [eax], ecx
  00008	c2 04 00	 ret	 4
??0?$_List_iterator@PAVSubItemInfo@@U?$_Const_traits@PAVSubItemInfo@@@_STL@@@_STL@@QAE@PAU?$_List_node@PAVSubItemInfo@@@1@@Z ENDP ; _STL::_List_iterator<SubItemInfo *,_STL::_Const_traits<SubItemInfo *> >::_List_iterator<SubItemInfo *,_STL::_Const_traits<SubItemInfo *> >
_TEXT	ENDS
PUBLIC	??1?$_STLP_alloc_proxy@PAU?$_List_node@G@_STL@@U12@V?$allocator@U?$_List_node@G@_STL@@@2@@_STL@@QAE@XZ ; _STL::_STLP_alloc_proxy<_STL::_List_node<unsigned short> *,_STL::_List_node<unsigned short>,_STL::allocator<_STL::_List_node<unsigned short> > >::~_STLP_alloc_proxy<_STL::_List_node<unsigned short> *,_STL::_List_node<unsigned short>,_STL::allocator<_STL::_List_node<unsigned short> > >
; Function compile flags: /Ogsy
;	COMDAT ??1?$_STLP_alloc_proxy@PAU?$_List_node@G@_STL@@U12@V?$allocator@U?$_List_node@G@_STL@@@2@@_STL@@QAE@XZ
_TEXT	SEGMENT
??1?$_STLP_alloc_proxy@PAU?$_List_node@G@_STL@@U12@V?$allocator@U?$_List_node@G@_STL@@@2@@_STL@@QAE@XZ PROC NEAR ; _STL::_STLP_alloc_proxy<_STL::_List_node<unsigned short> *,_STL::_List_node<unsigned short>,_STL::allocator<_STL::_List_node<unsigned short> > >::~_STLP_alloc_proxy<_STL::_List_node<unsigned short> *,_STL::_List_node<unsigned short>,_STL::allocator<_STL::_List_node<unsigned short> > >, COMDAT
; _this$ = ecx
  00000	c3		 ret	 0
??1?$_STLP_alloc_proxy@PAU?$_List_node@G@_STL@@U12@V?$allocator@U?$_List_node@G@_STL@@@2@@_STL@@QAE@XZ ENDP ; _STL::_STLP_alloc_proxy<_STL::_List_node<unsigned short> *,_STL::_List_node<unsigned short>,_STL::allocator<_STL::_List_node<unsigned short> > >::~_STLP_alloc_proxy<_STL::_List_node<unsigned short> *,_STL::_List_node<unsigned short>,_STL::allocator<_STL::_List_node<unsigned short> > >
_TEXT	ENDS
PUBLIC	??1?$_STLP_alloc_proxy@PAU?$_List_node@PAVSubItemInfo@@@_STL@@U12@V?$allocator@U?$_List_node@PAVSubItemInfo@@@_STL@@@2@@_STL@@QAE@XZ ; _STL::_STLP_alloc_proxy<_STL::_List_node<SubItemInfo *> *,_STL::_List_node<SubItemInfo *>,_STL::allocator<_STL::_List_node<SubItemInfo *> > >::~_STLP_alloc_proxy<_STL::_List_node<SubItemInfo *> *,_STL::_List_node<SubItemInfo *>,_STL::allocator<_STL::_List_node<SubItemInfo *> > >
; Function compile flags: /Ogsy
;	COMDAT ??1?$_STLP_alloc_proxy@PAU?$_List_node@PAVSubItemInfo@@@_STL@@U12@V?$allocator@U?$_List_node@PAVSubItemInfo@@@_STL@@@2@@_STL@@QAE@XZ
_TEXT	SEGMENT
??1?$_STLP_alloc_proxy@PAU?$_List_node@PAVSubItemInfo@@@_STL@@U12@V?$allocator@U?$_List_node@PAVSubItemInfo@@@_STL@@@2@@_STL@@QAE@XZ PROC NEAR ; _STL::_STLP_alloc_proxy<_STL::_List_node<SubItemInfo *> *,_STL::_List_node<SubItemInfo *>,_STL::allocator<_STL::_List_node<SubItemInfo *> > >::~_STLP_alloc_proxy<_STL::_List_node<SubItemInfo *> *,_STL::_List_node<SubItemInfo *>,_STL::allocator<_STL::_List_node<SubItemInfo *> > >, COMDAT
; _this$ = ecx
  00000	c3		 ret	 0
??1?$_STLP_alloc_proxy@PAU?$_List_node@PAVSubItemInfo@@@_STL@@U12@V?$allocator@U?$_List_node@PAVSubItemInfo@@@_STL@@@2@@_STL@@QAE@XZ ENDP ; _STL::_STLP_alloc_proxy<_STL::_List_node<SubItemInfo *> *,_STL::_List_node<SubItemInfo *>,_STL::allocator<_STL::_List_node<SubItemInfo *> > >::~_STLP_alloc_proxy<_STL::_List_node<SubItemInfo *> *,_STL::_List_node<SubItemInfo *>,_STL::allocator<_STL::_List_node<SubItemInfo *> > >
_TEXT	ENDS
PUBLIC	??0?$_STLP_alloc_proxy@PAU?$_List_node@G@_STL@@U12@V?$allocator@U?$_List_node@G@_STL@@@2@@_STL@@QAE@ABV?$allocator@U?$_List_node@G@_STL@@@1@PAU?$_List_node@G@1@@Z ; _STL::_STLP_alloc_proxy<_STL::_List_node<unsigned short> *,_STL::_List_node<unsigned short>,_STL::allocator<_STL::_List_node<unsigned short> > >::_STLP_alloc_proxy<_STL::_List_node<unsigned short> *,_STL::_List_node<unsigned short>,_STL::allocator<_STL::_List_node<unsigned short> > >
; Function compile flags: /Ogsy
; File c:\stlport-4.6.1\stlport\stl\_alloc.h
;	COMDAT ??0?$_STLP_alloc_proxy@PAU?$_List_node@G@_STL@@U12@V?$allocator@U?$_List_node@G@_STL@@@2@@_STL@@QAE@ABV?$allocator@U?$_List_node@G@_STL@@@1@PAU?$_List_node@G@1@@Z
_TEXT	SEGMENT
___a$ = 8						; size = 4
___p$ = 12						; size = 4
??0?$_STLP_alloc_proxy@PAU?$_List_node@G@_STL@@U12@V?$allocator@U?$_List_node@G@_STL@@@2@@_STL@@QAE@ABV?$allocator@U?$_List_node@G@_STL@@@1@PAU?$_List_node@G@1@@Z PROC NEAR ; _STL::_STLP_alloc_proxy<_STL::_List_node<unsigned short> *,_STL::_List_node<unsigned short>,_STL::allocator<_STL::_List_node<unsigned short> > >::_STLP_alloc_proxy<_STL::_List_node<unsigned short> *,_STL::_List_node<unsigned short>,_STL::allocator<_STL::_List_node<unsigned short> > >, COMDAT
; _this$ = ecx

; 487  :   inline _STLP_alloc_proxy(const _MaybeReboundAlloc& __a, _Value __p) : _MaybeReboundAlloc(__a), _M_data(__p) {}

  00000	8b c1		 mov	 eax, ecx
  00002	8b 4c 24 08	 mov	 ecx, DWORD PTR ___p$[esp-4]
  00006	89 08		 mov	 DWORD PTR [eax], ecx
  00008	c2 08 00	 ret	 8
??0?$_STLP_alloc_proxy@PAU?$_List_node@G@_STL@@U12@V?$allocator@U?$_List_node@G@_STL@@@2@@_STL@@QAE@ABV?$allocator@U?$_List_node@G@_STL@@@1@PAU?$_List_node@G@1@@Z ENDP ; _STL::_STLP_alloc_proxy<_STL::_List_node<unsigned short> *,_STL::_List_node<unsigned short>,_STL::allocator<_STL::_List_node<unsigned short> > >::_STLP_alloc_proxy<_STL::_List_node<unsigned short> *,_STL::_List_node<unsigned short>,_STL::allocator<_STL::_List_node<unsigned short> > >
_TEXT	ENDS
PUBLIC	?allocate@?$allocator@U?$_List_node@G@_STL@@@_STL@@QAEPAU?$_List_node@G@2@IPBX@Z ; _STL::allocator<_STL::_List_node<unsigned short> >::allocate
; Function compile flags: /Ogsy
;	COMDAT ?allocate@?$allocator@U?$_List_node@G@_STL@@@_STL@@QAEPAU?$_List_node@G@2@IPBX@Z
_TEXT	SEGMENT
___n$ = 8						; size = 4
___formal$ = 12						; size = 4
?allocate@?$allocator@U?$_List_node@G@_STL@@@_STL@@QAEPAU?$_List_node@G@2@IPBX@Z PROC NEAR ; _STL::allocator<_STL::_List_node<unsigned short> >::allocate, COMDAT
; _this$ = ecx

; 355  :     return __n != 0 ? __REINTERPRET_CAST(value_type*,__sgi_alloc::allocate(__n * sizeof(value_type))) : 0;

  00000	8b 44 24 04	 mov	 eax, DWORD PTR ___n$[esp-4]
  00004	85 c0		 test	 eax, eax
  00006	74 0f		 je	 SHORT $L103127
  00008	8d 04 40	 lea	 eax, DWORD PTR [eax+eax*2]
  0000b	c1 e0 02	 shl	 eax, 2
  0000e	50		 push	 eax
  0000f	e8 00 00 00 00	 call	 ?allocate@?$__node_alloc@$00$0A@@_STL@@SAPAXI@Z ; _STL::__node_alloc<1,0>::allocate
  00014	59		 pop	 ecx
  00015	eb 02		 jmp	 SHORT $L103128
$L103127:
  00017	33 c0		 xor	 eax, eax
$L103128:

; 356  :   }

  00019	c2 08 00	 ret	 8
?allocate@?$allocator@U?$_List_node@G@_STL@@@_STL@@QAEPAU?$_List_node@G@2@IPBX@Z ENDP ; _STL::allocator<_STL::_List_node<unsigned short> >::allocate
_TEXT	ENDS
PUBLIC	?deallocate@?$allocator@U?$_List_node@G@_STL@@@_STL@@QAEXPAU?$_List_node@G@2@I@Z ; _STL::allocator<_STL::_List_node<unsigned short> >::deallocate
; Function compile flags: /Ogsy
;	COMDAT ?deallocate@?$allocator@U?$_List_node@G@_STL@@@_STL@@QAEXPAU?$_List_node@G@2@I@Z
_TEXT	SEGMENT
___p$ = 8						; size = 4
___n$ = 12						; size = 4
?deallocate@?$allocator@U?$_List_node@G@_STL@@@_STL@@QAEXPAU?$_List_node@G@2@I@Z PROC NEAR ; _STL::allocator<_STL::_List_node<unsigned short> >::deallocate, COMDAT
; _this$ = ecx

; 359  :     _STLP_ASSERT( (__p == 0) == (__n == 0) )
; 360  :       if (__p != 0) __sgi_alloc::deallocate((void*)__p, __n * sizeof(value_type));

  00000	83 7c 24 04 00	 cmp	 DWORD PTR ___p$[esp-4], 0
  00005	74 16		 je	 SHORT $L101949
  00007	8b 44 24 08	 mov	 eax, DWORD PTR ___n$[esp-4]
  0000b	8d 04 40	 lea	 eax, DWORD PTR [eax+eax*2]
  0000e	c1 e0 02	 shl	 eax, 2
  00011	50		 push	 eax
  00012	ff 74 24 08	 push	 DWORD PTR ___p$[esp]
  00016	e8 00 00 00 00	 call	 ?deallocate@?$__node_alloc@$00$0A@@_STL@@SAXPAXI@Z ; _STL::__node_alloc<1,0>::deallocate
  0001b	59		 pop	 ecx
  0001c	59		 pop	 ecx
$L101949:

; 361  :   }

  0001d	c2 08 00	 ret	 8
?deallocate@?$allocator@U?$_List_node@G@_STL@@@_STL@@QAEXPAU?$_List_node@G@2@I@Z ENDP ; _STL::allocator<_STL::_List_node<unsigned short> >::deallocate
_TEXT	ENDS
PUBLIC	??0?$_STLP_alloc_proxy@PAU?$_List_node@PAVSubItemInfo@@@_STL@@U12@V?$allocator@U?$_List_node@PAVSubItemInfo@@@_STL@@@2@@_STL@@QAE@ABV?$allocator@U?$_List_node@PAVSubItemInfo@@@_STL@@@1@PAU?$_List_node@PAVSubItemInfo@@@1@@Z ; _STL::_STLP_alloc_proxy<_STL::_List_node<SubItemInfo *> *,_STL::_List_node<SubItemInfo *>,_STL::allocator<_STL::_List_node<SubItemInfo *> > >::_STLP_alloc_proxy<_STL::_List_node<SubItemInfo *> *,_STL::_List_node<SubItemInfo *>,_STL::allocator<_STL::_List_node<SubItemInfo *> > >
; Function compile flags: /Ogsy
;	COMDAT ??0?$_STLP_alloc_proxy@PAU?$_List_node@PAVSubItemInfo@@@_STL@@U12@V?$allocator@U?$_List_node@PAVSubItemInfo@@@_STL@@@2@@_STL@@QAE@ABV?$allocator@U?$_List_node@PAVSubItemInfo@@@_STL@@@1@PAU?$_List_node@PAVSubItemInfo@@@1@@Z
_TEXT	SEGMENT
___a$ = 8						; size = 4
___p$ = 12						; size = 4
??0?$_STLP_alloc_proxy@PAU?$_List_node@PAVSubItemInfo@@@_STL@@U12@V?$allocator@U?$_List_node@PAVSubItemInfo@@@_STL@@@2@@_STL@@QAE@ABV?$allocator@U?$_List_node@PAVSubItemInfo@@@_STL@@@1@PAU?$_List_node@PAVSubItemInfo@@@1@@Z PROC NEAR ; _STL::_STLP_alloc_proxy<_STL::_List_node<SubItemInfo *> *,_STL::_List_node<SubItemInfo *>,_STL::allocator<_STL::_List_node<SubItemInfo *> > >::_STLP_alloc_proxy<_STL::_List_node<SubItemInfo *> *,_STL::_List_node<SubItemInfo *>,_STL::allocator<_STL::_List_node<SubItemInfo *> > >, COMDAT
; _this$ = ecx

; 487  :   inline _STLP_alloc_proxy(const _MaybeReboundAlloc& __a, _Value __p) : _MaybeReboundAlloc(__a), _M_data(__p) {}

  00000	8b c1		 mov	 eax, ecx
  00002	8b 4c 24 08	 mov	 ecx, DWORD PTR ___p$[esp-4]
  00006	89 08		 mov	 DWORD PTR [eax], ecx
  00008	c2 08 00	 ret	 8
??0?$_STLP_alloc_proxy@PAU?$_List_node@PAVSubItemInfo@@@_STL@@U12@V?$allocator@U?$_List_node@PAVSubItemInfo@@@_STL@@@2@@_STL@@QAE@ABV?$allocator@U?$_List_node@PAVSubItemInfo@@@_STL@@@1@PAU?$_List_node@PAVSubItemInfo@@@1@@Z ENDP ; _STL::_STLP_alloc_proxy<_STL::_List_node<SubItemInfo *> *,_STL::_List_node<SubItemInfo *>,_STL::allocator<_STL::_List_node<SubItemInfo *> > >::_STLP_alloc_proxy<_STL::_List_node<SubItemInfo *> *,_STL::_List_node<SubItemInfo *>,_STL::allocator<_STL::_List_node<SubItemInfo *> > >
_TEXT	ENDS
PUBLIC	?allocate@?$allocator@U?$_List_node@PAVSubItemInfo@@@_STL@@@_STL@@QAEPAU?$_List_node@PAVSubItemInfo@@@2@IPBX@Z ; _STL::allocator<_STL::_List_node<SubItemInfo *> >::allocate
; Function compile flags: /Ogsy
;	COMDAT ?allocate@?$allocator@U?$_List_node@PAVSubItemInfo@@@_STL@@@_STL@@QAEPAU?$_List_node@PAVSubItemInfo@@@2@IPBX@Z
_TEXT	SEGMENT
___n$ = 8						; size = 4
___formal$ = 12						; size = 4
?allocate@?$allocator@U?$_List_node@PAVSubItemInfo@@@_STL@@@_STL@@QAEPAU?$_List_node@PAVSubItemInfo@@@2@IPBX@Z PROC NEAR ; _STL::allocator<_STL::_List_node<SubItemInfo *> >::allocate, COMDAT
; _this$ = ecx

; 355  :     return __n != 0 ? __REINTERPRET_CAST(value_type*,__sgi_alloc::allocate(__n * sizeof(value_type))) : 0;

  00000	8b 44 24 04	 mov	 eax, DWORD PTR ___n$[esp-4]
  00004	85 c0		 test	 eax, eax
  00006	74 0f		 je	 SHORT $L103138
  00008	8d 04 40	 lea	 eax, DWORD PTR [eax+eax*2]
  0000b	c1 e0 02	 shl	 eax, 2
  0000e	50		 push	 eax
  0000f	e8 00 00 00 00	 call	 ?allocate@?$__node_alloc@$00$0A@@_STL@@SAPAXI@Z ; _STL::__node_alloc<1,0>::allocate
  00014	59		 pop	 ecx
  00015	eb 02		 jmp	 SHORT $L103139
$L103138:
  00017	33 c0		 xor	 eax, eax
$L103139:

; 356  :   }

  00019	c2 08 00	 ret	 8
?allocate@?$allocator@U?$_List_node@PAVSubItemInfo@@@_STL@@@_STL@@QAEPAU?$_List_node@PAVSubItemInfo@@@2@IPBX@Z ENDP ; _STL::allocator<_STL::_List_node<SubItemInfo *> >::allocate
_TEXT	ENDS
PUBLIC	?deallocate@?$allocator@U?$_List_node@PAVSubItemInfo@@@_STL@@@_STL@@QAEXPAU?$_List_node@PAVSubItemInfo@@@2@I@Z ; _STL::allocator<_STL::_List_node<SubItemInfo *> >::deallocate
; Function compile flags: /Ogsy
;	COMDAT ?deallocate@?$allocator@U?$_List_node@PAVSubItemInfo@@@_STL@@@_STL@@QAEXPAU?$_List_node@PAVSubItemInfo@@@2@I@Z
_TEXT	SEGMENT
___p$ = 8						; size = 4
___n$ = 12						; size = 4
?deallocate@?$allocator@U?$_List_node@PAVSubItemInfo@@@_STL@@@_STL@@QAEXPAU?$_List_node@PAVSubItemInfo@@@2@I@Z PROC NEAR ; _STL::allocator<_STL::_List_node<SubItemInfo *> >::deallocate, COMDAT
; _this$ = ecx

; 359  :     _STLP_ASSERT( (__p == 0) == (__n == 0) )
; 360  :       if (__p != 0) __sgi_alloc::deallocate((void*)__p, __n * sizeof(value_type));

  00000	83 7c 24 04 00	 cmp	 DWORD PTR ___p$[esp-4], 0
  00005	74 16		 je	 SHORT $L101975
  00007	8b 44 24 08	 mov	 eax, DWORD PTR ___n$[esp-4]
  0000b	8d 04 40	 lea	 eax, DWORD PTR [eax+eax*2]
  0000e	c1 e0 02	 shl	 eax, 2
  00011	50		 push	 eax
  00012	ff 74 24 08	 push	 DWORD PTR ___p$[esp]
  00016	e8 00 00 00 00	 call	 ?deallocate@?$__node_alloc@$00$0A@@_STL@@SAXPAXI@Z ; _STL::__node_alloc<1,0>::deallocate
  0001b	59		 pop	 ecx
  0001c	59		 pop	 ecx
$L101975:

; 361  :   }

  0001d	c2 08 00	 ret	 8
?deallocate@?$allocator@U?$_List_node@PAVSubItemInfo@@@_STL@@@_STL@@QAEXPAU?$_List_node@PAVSubItemInfo@@@2@I@Z ENDP ; _STL::allocator<_STL::_List_node<SubItemInfo *> >::deallocate
_TEXT	ENDS
PUBLIC	??0?$_List_iterator@GU?$_Nonconst_traits@G@_STL@@@_STL@@QAE@PAU?$_List_node@G@1@@Z ; _STL::_List_iterator<unsigned short,_STL::_Nonconst_traits<unsigned short> >::_List_iterator<unsigned short,_STL::_Nonconst_traits<unsigned short> >
; Function compile flags: /Ogsy
; File c:\stlport-4.6.1\stlport\stl\_list.h
;	COMDAT ??0?$_List_iterator@GU?$_Nonconst_traits@G@_STL@@@_STL@@QAE@PAU?$_List_node@G@1@@Z
_TEXT	SEGMENT
___x$ = 8						; size = 4
??0?$_List_iterator@GU?$_Nonconst_traits@G@_STL@@@_STL@@QAE@PAU?$_List_node@G@1@@Z PROC NEAR ; _STL::_List_iterator<unsigned short,_STL::_Nonconst_traits<unsigned short> >::_List_iterator<unsigned short,_STL::_Nonconst_traits<unsigned short> >, COMDAT
; _this$ = ecx

; 126  :   _List_iterator(_Node* __x) : _List_iterator_base(__x) {}

  00000	8b c1		 mov	 eax, ecx
  00002	8b 4c 24 04	 mov	 ecx, DWORD PTR ___x$[esp-4]
  00006	89 08		 mov	 DWORD PTR [eax], ecx
  00008	c2 04 00	 ret	 4
??0?$_List_iterator@GU?$_Nonconst_traits@G@_STL@@@_STL@@QAE@PAU?$_List_node@G@1@@Z ENDP ; _STL::_List_iterator<unsigned short,_STL::_Nonconst_traits<unsigned short> >::_List_iterator<unsigned short,_STL::_Nonconst_traits<unsigned short> >
_TEXT	ENDS
PUBLIC	?clear@?$_List_base@GV?$allocator@G@_STL@@@_STL@@QAEXXZ ; _STL::_List_base<unsigned short,_STL::allocator<unsigned short> >::clear
; Function compile flags: /Ogsy
; File c:\stlport-4.6.1\stlport\stl\_list.c
;	COMDAT ?clear@?$_List_base@GV?$allocator@G@_STL@@@_STL@@QAEXXZ
_TEXT	SEGMENT
?clear@?$_List_base@GV?$allocator@G@_STL@@@_STL@@QAEXXZ PROC NEAR ; _STL::_List_base<unsigned short,_STL::allocator<unsigned short> >::clear, COMDAT
; _this$ = ecx

; 68   : {

  00000	56		 push	 esi
  00001	57		 push	 edi
  00002	8b f9		 mov	 edi, ecx

; 69   :   _List_node<_Tp>* __cur = (_List_node<_Tp>*) this->_M_node._M_data->_M_next;

  00004	8b 07		 mov	 eax, DWORD PTR [edi]
  00006	8b 30		 mov	 esi, DWORD PTR [eax]

; 70   :   while (__cur != this->_M_node._M_data) {

  00008	3b f0		 cmp	 esi, eax
  0000a	74 12		 je	 SHORT $L102140
$L102139:

; 71   :     _List_node<_Tp>* __tmp = __cur;

  0000c	8b c6		 mov	 eax, esi

; 72   :     __cur = (_List_node<_Tp>*) __cur->_M_next;

  0000e	8b 36		 mov	 esi, DWORD PTR [esi]

; 73   :     _STLP_STD::_Destroy(&__tmp->_M_data);
; 74   :     this->_M_node.deallocate(__tmp, 1);

  00010	6a 01		 push	 1
  00012	50		 push	 eax
  00013	8b cf		 mov	 ecx, edi
  00015	e8 00 00 00 00	 call	 ?deallocate@?$allocator@U?$_List_node@G@_STL@@@_STL@@QAEXPAU?$_List_node@G@2@I@Z ; _STL::allocator<_STL::_List_node<unsigned short> >::deallocate
  0001a	3b 37		 cmp	 esi, DWORD PTR [edi]
  0001c	75 ee		 jne	 SHORT $L102139
$L102140:

; 75   :   }
; 76   :   this->_M_node._M_data->_M_next = this->_M_node._M_data;

  0001e	8b 07		 mov	 eax, DWORD PTR [edi]
  00020	89 00		 mov	 DWORD PTR [eax], eax

; 77   :   this->_M_node._M_data->_M_prev = this->_M_node._M_data;

  00022	8b 3f		 mov	 edi, DWORD PTR [edi]
  00024	89 7f 04	 mov	 DWORD PTR [edi+4], edi
  00027	5f		 pop	 edi
  00028	5e		 pop	 esi

; 78   : }

  00029	c3		 ret	 0
?clear@?$_List_base@GV?$allocator@G@_STL@@@_STL@@QAEXXZ ENDP ; _STL::_List_base<unsigned short,_STL::allocator<unsigned short> >::clear
_TEXT	ENDS
PUBLIC	?clear@?$_List_base@PAVSubItemInfo@@V?$allocator@PAVSubItemInfo@@@_STL@@@_STL@@QAEXXZ ; _STL::_List_base<SubItemInfo *,_STL::allocator<SubItemInfo *> >::clear
; Function compile flags: /Ogsy
;	COMDAT ?clear@?$_List_base@PAVSubItemInfo@@V?$allocator@PAVSubItemInfo@@@_STL@@@_STL@@QAEXXZ
_TEXT	SEGMENT
?clear@?$_List_base@PAVSubItemInfo@@V?$allocator@PAVSubItemInfo@@@_STL@@@_STL@@QAEXXZ PROC NEAR ; _STL::_List_base<SubItemInfo *,_STL::allocator<SubItemInfo *> >::clear, COMDAT
; _this$ = ecx

; 68   : {

  00000	56		 push	 esi
  00001	57		 push	 edi
  00002	8b f9		 mov	 edi, ecx

; 69   :   _List_node<_Tp>* __cur = (_List_node<_Tp>*) this->_M_node._M_data->_M_next;

  00004	8b 07		 mov	 eax, DWORD PTR [edi]
  00006	8b 30		 mov	 esi, DWORD PTR [eax]

; 70   :   while (__cur != this->_M_node._M_data) {

  00008	3b f0		 cmp	 esi, eax
  0000a	74 12		 je	 SHORT $L102156
$L102155:

; 71   :     _List_node<_Tp>* __tmp = __cur;

  0000c	8b c6		 mov	 eax, esi

; 72   :     __cur = (_List_node<_Tp>*) __cur->_M_next;

  0000e	8b 36		 mov	 esi, DWORD PTR [esi]

; 73   :     _STLP_STD::_Destroy(&__tmp->_M_data);
; 74   :     this->_M_node.deallocate(__tmp, 1);

  00010	6a 01		 push	 1
  00012	50		 push	 eax
  00013	8b cf		 mov	 ecx, edi
  00015	e8 00 00 00 00	 call	 ?deallocate@?$allocator@U?$_List_node@PAVSubItemInfo@@@_STL@@@_STL@@QAEXPAU?$_List_node@PAVSubItemInfo@@@2@I@Z ; _STL::allocator<_STL::_List_node<SubItemInfo *> >::deallocate
  0001a	3b 37		 cmp	 esi, DWORD PTR [edi]
  0001c	75 ee		 jne	 SHORT $L102155
$L102156:

; 75   :   }
; 76   :   this->_M_node._M_data->_M_next = this->_M_node._M_data;

  0001e	8b 07		 mov	 eax, DWORD PTR [edi]
  00020	89 00		 mov	 DWORD PTR [eax], eax

; 77   :   this->_M_node._M_data->_M_prev = this->_M_node._M_data;

  00022	8b 3f		 mov	 edi, DWORD PTR [edi]
  00024	89 7f 04	 mov	 DWORD PTR [edi+4], edi
  00027	5f		 pop	 edi
  00028	5e		 pop	 esi

; 78   : }

  00029	c3		 ret	 0
?clear@?$_List_base@PAVSubItemInfo@@V?$allocator@PAVSubItemInfo@@@_STL@@@_STL@@QAEXXZ ENDP ; _STL::_List_base<SubItemInfo *,_STL::allocator<SubItemInfo *> >::clear
_TEXT	ENDS
PUBLIC	??0?$_List_iterator@GU?$_Nonconst_traits@G@_STL@@@_STL@@QAE@ABU01@@Z ; _STL::_List_iterator<unsigned short,_STL::_Nonconst_traits<unsigned short> >::_List_iterator<unsigned short,_STL::_Nonconst_traits<unsigned short> >
; Function compile flags: /Ogsy
; File c:\stlport-4.6.1\stlport\stl\_list.h
;	COMDAT ??0?$_List_iterator@GU?$_Nonconst_traits@G@_STL@@@_STL@@QAE@ABU01@@Z
_TEXT	SEGMENT
___x$ = 8						; size = 4
??0?$_List_iterator@GU?$_Nonconst_traits@G@_STL@@@_STL@@QAE@ABU01@@Z PROC NEAR ; _STL::_List_iterator<unsigned short,_STL::_Nonconst_traits<unsigned short> >::_List_iterator<unsigned short,_STL::_Nonconst_traits<unsigned short> >, COMDAT
; _this$ = ecx

; 128  :   _List_iterator(const iterator& __x) :  _List_iterator_base(__x._M_node) {}

  00000	8b c1		 mov	 eax, ecx
  00002	8b 4c 24 04	 mov	 ecx, DWORD PTR ___x$[esp-4]
  00006	8b 09		 mov	 ecx, DWORD PTR [ecx]
  00008	89 08		 mov	 DWORD PTR [eax], ecx
  0000a	c2 04 00	 ret	 4
??0?$_List_iterator@GU?$_Nonconst_traits@G@_STL@@@_STL@@QAE@ABU01@@Z ENDP ; _STL::_List_iterator<unsigned short,_STL::_Nonconst_traits<unsigned short> >::_List_iterator<unsigned short,_STL::_Nonconst_traits<unsigned short> >
_TEXT	ENDS
PUBLIC	??E?$_List_iterator@GU?$_Const_traits@G@_STL@@@_STL@@QAEAAU01@XZ ; _STL::_List_iterator<unsigned short,_STL::_Const_traits<unsigned short> >::operator++
; Function compile flags: /Ogsy
;	COMDAT ??E?$_List_iterator@GU?$_Const_traits@G@_STL@@@_STL@@QAEAAU01@XZ
_TEXT	SEGMENT
??E?$_List_iterator@GU?$_Const_traits@G@_STL@@@_STL@@QAEAAU01@XZ PROC NEAR ; _STL::_List_iterator<unsigned short,_STL::_Const_traits<unsigned short> >::operator++, COMDAT
; _this$ = ecx

; 134  :   _Self& operator++() { 

  00000	8b c1		 mov	 eax, ecx

; 135  :     this->_M_incr();

  00002	8b 08		 mov	 ecx, DWORD PTR [eax]
  00004	8b 09		 mov	 ecx, DWORD PTR [ecx]
  00006	89 08		 mov	 DWORD PTR [eax], ecx

; 136  :     return *this;
; 137  :   }

  00008	c3		 ret	 0
??E?$_List_iterator@GU?$_Const_traits@G@_STL@@@_STL@@QAEAAU01@XZ ENDP ; _STL::_List_iterator<unsigned short,_STL::_Const_traits<unsigned short> >::operator++
_TEXT	ENDS
PUBLIC	?begin@?$list@GV?$allocator@G@_STL@@@_STL@@QBE?AU?$_List_iterator@GU?$_Const_traits@G@_STL@@@2@XZ ; _STL::list<unsigned short,_STL::allocator<unsigned short> >::begin
; Function compile flags: /Ogsy
;	COMDAT ?begin@?$list@GV?$allocator@G@_STL@@@_STL@@QBE?AU?$_List_iterator@GU?$_Const_traits@G@_STL@@@2@XZ
_TEXT	SEGMENT
___$ReturnUdt$ = 8					; size = 4
?begin@?$list@GV?$allocator@G@_STL@@@_STL@@QBE?AU?$_List_iterator@GU?$_Const_traits@G@_STL@@@2@XZ PROC NEAR ; _STL::list<unsigned short,_STL::allocator<unsigned short> >::begin, COMDAT
; _this$ = ecx

; 267  :   const_iterator begin() const { return const_iterator((_Node*)(this->_M_node._M_data->_M_next)); }

  00000	8b 01		 mov	 eax, DWORD PTR [ecx]
  00002	8b 08		 mov	 ecx, DWORD PTR [eax]
  00004	8b 44 24 04	 mov	 eax, DWORD PTR ___$ReturnUdt$[esp-4]
  00008	89 08		 mov	 DWORD PTR [eax], ecx
  0000a	c2 04 00	 ret	 4
?begin@?$list@GV?$allocator@G@_STL@@@_STL@@QBE?AU?$_List_iterator@GU?$_Const_traits@G@_STL@@@2@XZ ENDP ; _STL::list<unsigned short,_STL::allocator<unsigned short> >::begin
_TEXT	ENDS
PUBLIC	?end@?$list@GV?$allocator@G@_STL@@@_STL@@QBE?AU?$_List_iterator@GU?$_Const_traits@G@_STL@@@2@XZ ; _STL::list<unsigned short,_STL::allocator<unsigned short> >::end
; Function compile flags: /Ogsy
;	COMDAT ?end@?$list@GV?$allocator@G@_STL@@@_STL@@QBE?AU?$_List_iterator@GU?$_Const_traits@G@_STL@@@2@XZ
_TEXT	SEGMENT
___$ReturnUdt$ = 8					; size = 4
?end@?$list@GV?$allocator@G@_STL@@@_STL@@QBE?AU?$_List_iterator@GU?$_Const_traits@G@_STL@@@2@XZ PROC NEAR ; _STL::list<unsigned short,_STL::allocator<unsigned short> >::end, COMDAT
; _this$ = ecx

; 270  :   const_iterator end() const { return this->_M_node._M_data; }

  00000	8b 09		 mov	 ecx, DWORD PTR [ecx]
  00002	8b 44 24 04	 mov	 eax, DWORD PTR ___$ReturnUdt$[esp-4]
  00006	89 08		 mov	 DWORD PTR [eax], ecx
  00008	c2 04 00	 ret	 4
?end@?$list@GV?$allocator@G@_STL@@@_STL@@QBE?AU?$_List_iterator@GU?$_Const_traits@G@_STL@@@2@XZ ENDP ; _STL::list<unsigned short,_STL::allocator<unsigned short> >::end
_TEXT	ENDS
PUBLIC	?begin@?$list@PAVSubItemInfo@@V?$allocator@PAVSubItemInfo@@@_STL@@@_STL@@QAE?AU?$_List_iterator@PAVSubItemInfo@@U?$_Nonconst_traits@PAVSubItemInfo@@@_STL@@@2@XZ ; _STL::list<SubItemInfo *,_STL::allocator<SubItemInfo *> >::begin
; Function compile flags: /Ogsy
;	COMDAT ?begin@?$list@PAVSubItemInfo@@V?$allocator@PAVSubItemInfo@@@_STL@@@_STL@@QAE?AU?$_List_iterator@PAVSubItemInfo@@U?$_Nonconst_traits@PAVSubItemInfo@@@_STL@@@2@XZ
_TEXT	SEGMENT
___$ReturnUdt$ = 8					; size = 4
?begin@?$list@PAVSubItemInfo@@V?$allocator@PAVSubItemInfo@@@_STL@@@_STL@@QAE?AU?$_List_iterator@PAVSubItemInfo@@U?$_Nonconst_traits@PAVSubItemInfo@@@_STL@@@2@XZ PROC NEAR ; _STL::list<SubItemInfo *,_STL::allocator<SubItemInfo *> >::begin, COMDAT
; _this$ = ecx

; 266  :   iterator begin()             { return iterator((_Node*)(this->_M_node._M_data->_M_next)); }

  00000	8b 01		 mov	 eax, DWORD PTR [ecx]
  00002	8b 08		 mov	 ecx, DWORD PTR [eax]
  00004	8b 44 24 04	 mov	 eax, DWORD PTR ___$ReturnUdt$[esp-4]
  00008	89 08		 mov	 DWORD PTR [eax], ecx
  0000a	c2 04 00	 ret	 4
?begin@?$list@PAVSubItemInfo@@V?$allocator@PAVSubItemInfo@@@_STL@@@_STL@@QAE?AU?$_List_iterator@PAVSubItemInfo@@U?$_Nonconst_traits@PAVSubItemInfo@@@_STL@@@2@XZ ENDP ; _STL::list<SubItemInfo *,_STL::allocator<SubItemInfo *> >::begin
_TEXT	ENDS
PUBLIC	?begin@?$list@PAVSubItemInfo@@V?$allocator@PAVSubItemInfo@@@_STL@@@_STL@@QBE?AU?$_List_iterator@PAVSubItemInfo@@U?$_Const_traits@PAVSubItemInfo@@@_STL@@@2@XZ ; _STL::list<SubItemInfo *,_STL::allocator<SubItemInfo *> >::begin
; Function compile flags: /Ogsy
;	COMDAT ?begin@?$list@PAVSubItemInfo@@V?$allocator@PAVSubItemInfo@@@_STL@@@_STL@@QBE?AU?$_List_iterator@PAVSubItemInfo@@U?$_Const_traits@PAVSubItemInfo@@@_STL@@@2@XZ
_TEXT	SEGMENT
___$ReturnUdt$ = 8					; size = 4
?begin@?$list@PAVSubItemInfo@@V?$allocator@PAVSubItemInfo@@@_STL@@@_STL@@QBE?AU?$_List_iterator@PAVSubItemInfo@@U?$_Const_traits@PAVSubItemInfo@@@_STL@@@2@XZ PROC NEAR ; _STL::list<SubItemInfo *,_STL::allocator<SubItemInfo *> >::begin, COMDAT
; _this$ = ecx

; 267  :   const_iterator begin() const { return const_iterator((_Node*)(this->_M_node._M_data->_M_next)); }

  00000	8b 01		 mov	 eax, DWORD PTR [ecx]
  00002	8b 08		 mov	 ecx, DWORD PTR [eax]
  00004	8b 44 24 04	 mov	 eax, DWORD PTR ___$ReturnUdt$[esp-4]
  00008	89 08		 mov	 DWORD PTR [eax], ecx
  0000a	c2 04 00	 ret	 4
?begin@?$list@PAVSubItemInfo@@V?$allocator@PAVSubItemInfo@@@_STL@@@_STL@@QBE?AU?$_List_iterator@PAVSubItemInfo@@U?$_Const_traits@PAVSubItemInfo@@@_STL@@@2@XZ ENDP ; _STL::list<SubItemInfo *,_STL::allocator<SubItemInfo *> >::begin
_TEXT	ENDS
PUBLIC	?end@?$list@PAVSubItemInfo@@V?$allocator@PAVSubItemInfo@@@_STL@@@_STL@@QAE?AU?$_List_iterator@PAVSubItemInfo@@U?$_Nonconst_traits@PAVSubItemInfo@@@_STL@@@2@XZ ; _STL::list<SubItemInfo *,_STL::allocator<SubItemInfo *> >::end
; Function compile flags: /Ogsy
;	COMDAT ?end@?$list@PAVSubItemInfo@@V?$allocator@PAVSubItemInfo@@@_STL@@@_STL@@QAE?AU?$_List_iterator@PAVSubItemInfo@@U?$_Nonconst_traits@PAVSubItemInfo@@@_STL@@@2@XZ
_TEXT	SEGMENT
___$ReturnUdt$ = 8					; size = 4
?end@?$list@PAVSubItemInfo@@V?$allocator@PAVSubItemInfo@@@_STL@@@_STL@@QAE?AU?$_List_iterator@PAVSubItemInfo@@U?$_Nonconst_traits@PAVSubItemInfo@@@_STL@@@2@XZ PROC NEAR ; _STL::list<SubItemInfo *,_STL::allocator<SubItemInfo *> >::end, COMDAT
; _this$ = ecx

; 269  :   iterator end()             { return this->_M_node._M_data; }

  00000	8b 09		 mov	 ecx, DWORD PTR [ecx]
  00002	8b 44 24 04	 mov	 eax, DWORD PTR ___$ReturnUdt$[esp-4]
  00006	89 08		 mov	 DWORD PTR [eax], ecx
  00008	c2 04 00	 ret	 4
?end@?$list@PAVSubItemInfo@@V?$allocator@PAVSubItemInfo@@@_STL@@@_STL@@QAE?AU?$_List_iterator@PAVSubItemInfo@@U?$_Nonconst_traits@PAVSubItemInfo@@@_STL@@@2@XZ ENDP ; _STL::list<SubItemInfo *,_STL::allocator<SubItemInfo *> >::end
_TEXT	ENDS
PUBLIC	?end@?$list@PAVSubItemInfo@@V?$allocator@PAVSubItemInfo@@@_STL@@@_STL@@QBE?AU?$_List_iterator@PAVSubItemInfo@@U?$_Const_traits@PAVSubItemInfo@@@_STL@@@2@XZ ; _STL::list<SubItemInfo *,_STL::allocator<SubItemInfo *> >::end
; Function compile flags: /Ogsy
;	COMDAT ?end@?$list@PAVSubItemInfo@@V?$allocator@PAVSubItemInfo@@@_STL@@@_STL@@QBE?AU?$_List_iterator@PAVSubItemInfo@@U?$_Const_traits@PAVSubItemInfo@@@_STL@@@2@XZ
_TEXT	SEGMENT
___$ReturnUdt$ = 8					; size = 4
?end@?$list@PAVSubItemInfo@@V?$allocator@PAVSubItemInfo@@@_STL@@@_STL@@QBE?AU?$_List_iterator@PAVSubItemInfo@@U?$_Const_traits@PAVSubItemInfo@@@_STL@@@2@XZ PROC NEAR ; _STL::list<SubItemInfo *,_STL::allocator<SubItemInfo *> >::end, COMDAT
; _this$ = ecx

; 270  :   const_iterator end() const { return this->_M_node._M_data; }

  00000	8b 09		 mov	 ecx, DWORD PTR [ecx]
  00002	8b 44 24 04	 mov	 eax, DWORD PTR ___$ReturnUdt$[esp-4]
  00006	89 08		 mov	 DWORD PTR [eax], ecx
  00008	c2 04 00	 ret	 4
?end@?$list@PAVSubItemInfo@@V?$allocator@PAVSubItemInfo@@@_STL@@@_STL@@QBE?AU?$_List_iterator@PAVSubItemInfo@@U?$_Const_traits@PAVSubItemInfo@@@_STL@@@2@XZ ENDP ; _STL::list<SubItemInfo *,_STL::allocator<SubItemInfo *> >::end
_TEXT	ENDS
PUBLIC	??E?$_List_iterator@PAVSubItemInfo@@U?$_Nonconst_traits@PAVSubItemInfo@@@_STL@@@_STL@@QAE?AU01@H@Z ; _STL::_List_iterator<SubItemInfo *,_STL::_Nonconst_traits<SubItemInfo *> >::operator++
; Function compile flags: /Ogsy
;	COMDAT ??E?$_List_iterator@PAVSubItemInfo@@U?$_Nonconst_traits@PAVSubItemInfo@@@_STL@@@_STL@@QAE?AU01@H@Z
_TEXT	SEGMENT
___$ReturnUdt$ = 8					; size = 4
___formal$ = 12						; size = 4
??E?$_List_iterator@PAVSubItemInfo@@U?$_Nonconst_traits@PAVSubItemInfo@@@_STL@@@_STL@@QAE?AU01@H@Z PROC NEAR ; _STL::_List_iterator<SubItemInfo *,_STL::_Nonconst_traits<SubItemInfo *> >::operator++, COMDAT
; _this$ = ecx

; 139  :     _Self __tmp = *this;

  00000	8b 11		 mov	 edx, DWORD PTR [ecx]

; 140  :     this->_M_incr();

  00002	8b 02		 mov	 eax, DWORD PTR [edx]
  00004	89 01		 mov	 DWORD PTR [ecx], eax

; 141  :     return __tmp;

  00006	8b 44 24 04	 mov	 eax, DWORD PTR ___$ReturnUdt$[esp-4]
  0000a	89 10		 mov	 DWORD PTR [eax], edx

; 142  :   }

  0000c	c2 08 00	 ret	 8
??E?$_List_iterator@PAVSubItemInfo@@U?$_Nonconst_traits@PAVSubItemInfo@@@_STL@@@_STL@@QAE?AU01@H@Z ENDP ; _STL::_List_iterator<SubItemInfo *,_STL::_Nonconst_traits<SubItemInfo *> >::operator++
_TEXT	ENDS
PUBLIC	?begin@?$list@GV?$allocator@G@_STL@@@_STL@@QAE?AU?$_List_iterator@GU?$_Nonconst_traits@G@_STL@@@2@XZ ; _STL::list<unsigned short,_STL::allocator<unsigned short> >::begin
; Function compile flags: /Ogsy
;	COMDAT ?begin@?$list@GV?$allocator@G@_STL@@@_STL@@QAE?AU?$_List_iterator@GU?$_Nonconst_traits@G@_STL@@@2@XZ
_TEXT	SEGMENT
___$ReturnUdt$ = 8					; size = 4
?begin@?$list@GV?$allocator@G@_STL@@@_STL@@QAE?AU?$_List_iterator@GU?$_Nonconst_traits@G@_STL@@@2@XZ PROC NEAR ; _STL::list<unsigned short,_STL::allocator<unsigned short> >::begin, COMDAT
; _this$ = ecx

; 266  :   iterator begin()             { return iterator((_Node*)(this->_M_node._M_data->_M_next)); }

  00000	8b 01		 mov	 eax, DWORD PTR [ecx]
  00002	8b 08		 mov	 ecx, DWORD PTR [eax]
  00004	8b 44 24 04	 mov	 eax, DWORD PTR ___$ReturnUdt$[esp-4]
  00008	89 08		 mov	 DWORD PTR [eax], ecx
  0000a	c2 04 00	 ret	 4
?begin@?$list@GV?$allocator@G@_STL@@@_STL@@QAE?AU?$_List_iterator@GU?$_Nonconst_traits@G@_STL@@@2@XZ ENDP ; _STL::list<unsigned short,_STL::allocator<unsigned short> >::begin
_TEXT	ENDS
PUBLIC	?end@?$list@GV?$allocator@G@_STL@@@_STL@@QAE?AU?$_List_iterator@GU?$_Nonconst_traits@G@_STL@@@2@XZ ; _STL::list<unsigned short,_STL::allocator<unsigned short> >::end
; Function compile flags: /Ogsy
;	COMDAT ?end@?$list@GV?$allocator@G@_STL@@@_STL@@QAE?AU?$_List_iterator@GU?$_Nonconst_traits@G@_STL@@@2@XZ
_TEXT	SEGMENT
___$ReturnUdt$ = 8					; size = 4
?end@?$list@GV?$allocator@G@_STL@@@_STL@@QAE?AU?$_List_iterator@GU?$_Nonconst_traits@G@_STL@@@2@XZ PROC NEAR ; _STL::list<unsigned short,_STL::allocator<unsigned short> >::end, COMDAT
; _this$ = ecx

; 269  :   iterator end()             { return this->_M_node._M_data; }

  00000	8b 09		 mov	 ecx, DWORD PTR [ecx]
  00002	8b 44 24 04	 mov	 eax, DWORD PTR ___$ReturnUdt$[esp-4]
  00006	89 08		 mov	 DWORD PTR [eax], ecx
  00008	c2 04 00	 ret	 4
?end@?$list@GV?$allocator@G@_STL@@@_STL@@QAE?AU?$_List_iterator@GU?$_Nonconst_traits@G@_STL@@@2@XZ ENDP ; _STL::list<unsigned short,_STL::allocator<unsigned short> >::end
_TEXT	ENDS
PUBLIC	??0?$_List_base@GV?$allocator@G@_STL@@@_STL@@QAE@ABV?$allocator@G@1@@Z ; _STL::_List_base<unsigned short,_STL::allocator<unsigned short> >::_List_base<unsigned short,_STL::allocator<unsigned short> >
; Function compile flags: /Ogsy
;	COMDAT ??0?$_List_base@GV?$allocator@G@_STL@@@_STL@@QAE@ABV?$allocator@G@1@@Z
_TEXT	SEGMENT
$T103301 = -1						; size = 1
___a$ = 8						; size = 4
??0?$_List_base@GV?$allocator@G@_STL@@@_STL@@QAE@ABV?$allocator@G@1@@Z PROC NEAR ; _STL::_List_base<unsigned short,_STL::allocator<unsigned short> >::_List_base<unsigned short,_STL::allocator<unsigned short> >, COMDAT
; _this$ = ecx

; 182  :   _List_base(const allocator_type& __a) : _M_node(_STLP_CONVERT_ALLOCATOR(__a, _Node), (_Node*)0) {

  00000	51		 push	 ecx
  00001	56		 push	 esi
  00002	6a 00		 push	 0
  00004	8d 44 24 0b	 lea	 eax, DWORD PTR $T103301[esp+12]
  00008	50		 push	 eax
  00009	8b f1		 mov	 esi, ecx
  0000b	e8 00 00 00 00	 call	 ??0?$_STLP_alloc_proxy@PAU?$_List_node@G@_STL@@U12@V?$allocator@U?$_List_node@G@_STL@@@2@@_STL@@QAE@ABV?$allocator@U?$_List_node@G@_STL@@@1@PAU?$_List_node@G@1@@Z ; _STL::_STLP_alloc_proxy<_STL::_List_node<unsigned short> *,_STL::_List_node<unsigned short>,_STL::allocator<_STL::_List_node<unsigned short> > >::_STLP_alloc_proxy<_STL::_List_node<unsigned short> *,_STL::_List_node<unsigned short>,_STL::allocator<_STL::_List_node<unsigned short> > >

; 183  :     _Node* __n = _M_node.allocate(1);

  00010	6a 0c		 push	 12			; 0000000cH
  00012	e8 00 00 00 00	 call	 ?allocate@?$__node_alloc@$00$0A@@_STL@@SAPAXI@Z ; _STL::__node_alloc<1,0>::allocate

; 184  :     __n->_M_next = __n;

  00017	89 00		 mov	 DWORD PTR [eax], eax

; 185  :     __n->_M_prev = __n;

  00019	89 40 04	 mov	 DWORD PTR [eax+4], eax

; 186  :     _M_node._M_data = __n;

  0001c	89 06		 mov	 DWORD PTR [esi], eax
  0001e	59		 pop	 ecx

; 187  :   }

  0001f	8b c6		 mov	 eax, esi
  00021	5e		 pop	 esi
  00022	59		 pop	 ecx
  00023	c2 04 00	 ret	 4
??0?$_List_base@GV?$allocator@G@_STL@@@_STL@@QAE@ABV?$allocator@G@1@@Z ENDP ; _STL::_List_base<unsigned short,_STL::allocator<unsigned short> >::_List_base<unsigned short,_STL::allocator<unsigned short> >
_TEXT	ENDS
PUBLIC	??1?$_List_base@GV?$allocator@G@_STL@@@_STL@@QAE@XZ ; _STL::_List_base<unsigned short,_STL::allocator<unsigned short> >::~_List_base<unsigned short,_STL::allocator<unsigned short> >
; Function compile flags: /Ogsy
;	COMDAT ??1?$_List_base@GV?$allocator@G@_STL@@@_STL@@QAE@XZ
_TEXT	SEGMENT
??1?$_List_base@GV?$allocator@G@_STL@@@_STL@@QAE@XZ PROC NEAR ; _STL::_List_base<unsigned short,_STL::allocator<unsigned short> >::~_List_base<unsigned short,_STL::allocator<unsigned short> >, COMDAT
; _this$ = ecx

; 188  :   ~_List_base() {

  00000	56		 push	 esi
  00001	8b f1		 mov	 esi, ecx

; 189  :     clear();

  00003	e8 00 00 00 00	 call	 ?clear@?$_List_base@GV?$allocator@G@_STL@@@_STL@@QAEXXZ ; _STL::_List_base<unsigned short,_STL::allocator<unsigned short> >::clear

; 190  :     _M_node.deallocate(_M_node._M_data, 1);

  00008	6a 01		 push	 1
  0000a	ff 36		 push	 DWORD PTR [esi]
  0000c	8b ce		 mov	 ecx, esi
  0000e	e8 00 00 00 00	 call	 ?deallocate@?$allocator@U?$_List_node@G@_STL@@@_STL@@QAEXPAU?$_List_node@G@2@I@Z ; _STL::allocator<_STL::_List_node<unsigned short> >::deallocate
  00013	5e		 pop	 esi

; 191  :   }

  00014	c3		 ret	 0
??1?$_List_base@GV?$allocator@G@_STL@@@_STL@@QAE@XZ ENDP ; _STL::_List_base<unsigned short,_STL::allocator<unsigned short> >::~_List_base<unsigned short,_STL::allocator<unsigned short> >
_TEXT	ENDS
PUBLIC	??0?$_List_base@PAVSubItemInfo@@V?$allocator@PAVSubItemInfo@@@_STL@@@_STL@@QAE@ABV?$allocator@PAVSubItemInfo@@@1@@Z ; _STL::_List_base<SubItemInfo *,_STL::allocator<SubItemInfo *> >::_List_base<SubItemInfo *,_STL::allocator<SubItemInfo *> >
; Function compile flags: /Ogsy
;	COMDAT ??0?$_List_base@PAVSubItemInfo@@V?$allocator@PAVSubItemInfo@@@_STL@@@_STL@@QAE@ABV?$allocator@PAVSubItemInfo@@@1@@Z
_TEXT	SEGMENT
$T103318 = -1						; size = 1
___a$ = 8						; size = 4
??0?$_List_base@PAVSubItemInfo@@V?$allocator@PAVSubItemInfo@@@_STL@@@_STL@@QAE@ABV?$allocator@PAVSubItemInfo@@@1@@Z PROC NEAR ; _STL::_List_base<SubItemInfo *,_STL::allocator<SubItemInfo *> >::_List_base<SubItemInfo *,_STL::allocator<SubItemInfo *> >, COMDAT
; _this$ = ecx

; 182  :   _List_base(const allocator_type& __a) : _M_node(_STLP_CONVERT_ALLOCATOR(__a, _Node), (_Node*)0) {

  00000	51		 push	 ecx
  00001	56		 push	 esi
  00002	6a 00		 push	 0
  00004	8d 44 24 0b	 lea	 eax, DWORD PTR $T103318[esp+12]
  00008	50		 push	 eax
  00009	8b f1		 mov	 esi, ecx
  0000b	e8 00 00 00 00	 call	 ??0?$_STLP_alloc_proxy@PAU?$_List_node@PAVSubItemInfo@@@_STL@@U12@V?$allocator@U?$_List_node@PAVSubItemInfo@@@_STL@@@2@@_STL@@QAE@ABV?$allocator@U?$_List_node@PAVSubItemInfo@@@_STL@@@1@PAU?$_List_node@PAVSubItemInfo@@@1@@Z ; _STL::_STLP_alloc_proxy<_STL::_List_node<SubItemInfo *> *,_STL::_List_node<SubItemInfo *>,_STL::allocator<_STL::_List_node<SubItemInfo *> > >::_STLP_alloc_proxy<_STL::_List_node<SubItemInfo *> *,_STL::_List_node<SubItemInfo *>,_STL::allocator<_STL::_List_node<SubItemInfo *> > >

; 183  :     _Node* __n = _M_node.allocate(1);

  00010	6a 0c		 push	 12			; 0000000cH
  00012	e8 00 00 00 00	 call	 ?allocate@?$__node_alloc@$00$0A@@_STL@@SAPAXI@Z ; _STL::__node_alloc<1,0>::allocate

; 184  :     __n->_M_next = __n;

  00017	89 00		 mov	 DWORD PTR [eax], eax

; 185  :     __n->_M_prev = __n;

  00019	89 40 04	 mov	 DWORD PTR [eax+4], eax

; 186  :     _M_node._M_data = __n;

  0001c	89 06		 mov	 DWORD PTR [esi], eax
  0001e	59		 pop	 ecx

; 187  :   }

  0001f	8b c6		 mov	 eax, esi
  00021	5e		 pop	 esi
  00022	59		 pop	 ecx
  00023	c2 04 00	 ret	 4
??0?$_List_base@PAVSubItemInfo@@V?$allocator@PAVSubItemInfo@@@_STL@@@_STL@@QAE@ABV?$allocator@PAVSubItemInfo@@@1@@Z ENDP ; _STL::_List_base<SubItemInfo *,_STL::allocator<SubItemInfo *> >::_List_base<SubItemInfo *,_STL::allocator<SubItemInfo *> >
_TEXT	ENDS
PUBLIC	??1?$_List_base@PAVSubItemInfo@@V?$allocator@PAVSubItemInfo@@@_STL@@@_STL@@QAE@XZ ; _STL::_List_base<SubItemInfo *,_STL::allocator<SubItemInfo *> >::~_List_base<SubItemInfo *,_STL::allocator<SubItemInfo *> >
; Function compile flags: /Ogsy
;	COMDAT ??1?$_List_base@PAVSubItemInfo@@V?$allocator@PAVSubItemInfo@@@_STL@@@_STL@@QAE@XZ
_TEXT	SEGMENT
??1?$_List_base@PAVSubItemInfo@@V?$allocator@PAVSubItemInfo@@@_STL@@@_STL@@QAE@XZ PROC NEAR ; _STL::_List_base<SubItemInfo *,_STL::allocator<SubItemInfo *> >::~_List_base<SubItemInfo *,_STL::allocator<SubItemInfo *> >, COMDAT
; _this$ = ecx

; 188  :   ~_List_base() {

  00000	56		 push	 esi
  00001	8b f1		 mov	 esi, ecx

; 189  :     clear();

  00003	e8 00 00 00 00	 call	 ?clear@?$_List_base@PAVSubItemInfo@@V?$allocator@PAVSubItemInfo@@@_STL@@@_STL@@QAEXXZ ; _STL::_List_base<SubItemInfo *,_STL::allocator<SubItemInfo *> >::clear

; 190  :     _M_node.deallocate(_M_node._M_data, 1);

  00008	6a 01		 push	 1
  0000a	ff 36		 push	 DWORD PTR [esi]
  0000c	8b ce		 mov	 ecx, esi
  0000e	e8 00 00 00 00	 call	 ?deallocate@?$allocator@U?$_List_node@PAVSubItemInfo@@@_STL@@@_STL@@QAEXPAU?$_List_node@PAVSubItemInfo@@@2@I@Z ; _STL::allocator<_STL::_List_node<SubItemInfo *> >::deallocate
  00013	5e		 pop	 esi

; 191  :   }

  00014	c3		 ret	 0
??1?$_List_base@PAVSubItemInfo@@V?$allocator@PAVSubItemInfo@@@_STL@@@_STL@@QAE@XZ ENDP ; _STL::_List_base<SubItemInfo *,_STL::allocator<SubItemInfo *> >::~_List_base<SubItemInfo *,_STL::allocator<SubItemInfo *> >
_TEXT	ENDS
PUBLIC	?_M_create_node@?$list@GV?$allocator@G@_STL@@@_STL@@IAEPAU?$_List_node@G@2@ABG@Z ; _STL::list<unsigned short,_STL::allocator<unsigned short> >::_M_create_node
EXTRN	__CxxThrowException@8:NEAR
; Function compile flags: /Ogsy
;	COMDAT ?_M_create_node@?$list@GV?$allocator@G@_STL@@@_STL@@IAEPAU?$_List_node@G@2@ABG@Z
_TEXT	SEGMENT
___x$ = 8						; size = 4
?_M_create_node@?$list@GV?$allocator@G@_STL@@@_STL@@IAEPAU?$_List_node@G@2@ABG@Z PROC NEAR ; _STL::list<unsigned short,_STL::allocator<unsigned short> >::_M_create_node, COMDAT
; _this$ = ecx

; 241  :     _Node* __p = this->_M_node.allocate(1);

  00000	6a 0c		 push	 12			; 0000000cH
  00002	e8 00 00 00 00	 call	 ?allocate@?$__node_alloc@$00$0A@@_STL@@SAPAXI@Z ; _STL::__node_alloc<1,0>::allocate
  00007	59		 pop	 ecx

; 242  :     _STLP_TRY {
; 243  :       _Construct(&__p->_M_data, __x);

  00008	8d 48 08	 lea	 ecx, DWORD PTR [eax+8]
  0000b	85 c9		 test	 ecx, ecx
  0000d	74 0a		 je	 SHORT $L103355
  0000f	8b 54 24 04	 mov	 edx, DWORD PTR ___x$[esp-4]
  00013	66 8b 12	 mov	 dx, WORD PTR [edx]
  00016	66 89 11	 mov	 WORD PTR [ecx], dx
$L103355:

; 244  :     }
; 245  :     _STLP_UNWIND(this->_M_node.deallocate(__p, 1));
; 246  :     return __p;
; 247  :   }

  00019	c2 04 00	 ret	 4
?_M_create_node@?$list@GV?$allocator@G@_STL@@@_STL@@IAEPAU?$_List_node@G@2@ABG@Z ENDP ; _STL::list<unsigned short,_STL::allocator<unsigned short> >::_M_create_node
_TEXT	ENDS
PUBLIC	?_M_create_node@?$list@PAVSubItemInfo@@V?$allocator@PAVSubItemInfo@@@_STL@@@_STL@@IAEPAU?$_List_node@PAVSubItemInfo@@@2@ABQAVSubItemInfo@@@Z ; _STL::list<SubItemInfo *,_STL::allocator<SubItemInfo *> >::_M_create_node
; Function compile flags: /Ogsy
;	COMDAT ?_M_create_node@?$list@PAVSubItemInfo@@V?$allocator@PAVSubItemInfo@@@_STL@@@_STL@@IAEPAU?$_List_node@PAVSubItemInfo@@@2@ABQAVSubItemInfo@@@Z
_TEXT	SEGMENT
___x$ = 8						; size = 4
?_M_create_node@?$list@PAVSubItemInfo@@V?$allocator@PAVSubItemInfo@@@_STL@@@_STL@@IAEPAU?$_List_node@PAVSubItemInfo@@@2@ABQAVSubItemInfo@@@Z PROC NEAR ; _STL::list<SubItemInfo *,_STL::allocator<SubItemInfo *> >::_M_create_node, COMDAT
; _this$ = ecx

; 241  :     _Node* __p = this->_M_node.allocate(1);

  00000	6a 0c		 push	 12			; 0000000cH
  00002	e8 00 00 00 00	 call	 ?allocate@?$__node_alloc@$00$0A@@_STL@@SAPAXI@Z ; _STL::__node_alloc<1,0>::allocate
  00007	59		 pop	 ecx

; 242  :     _STLP_TRY {
; 243  :       _Construct(&__p->_M_data, __x);

  00008	8d 48 08	 lea	 ecx, DWORD PTR [eax+8]
  0000b	85 c9		 test	 ecx, ecx
  0000d	74 08		 je	 SHORT $L103385
  0000f	8b 54 24 04	 mov	 edx, DWORD PTR ___x$[esp-4]
  00013	8b 12		 mov	 edx, DWORD PTR [edx]
  00015	89 11		 mov	 DWORD PTR [ecx], edx
$L103385:

; 244  :     }
; 245  :     _STLP_UNWIND(this->_M_node.deallocate(__p, 1));
; 246  :     return __p;
; 247  :   }

  00017	c2 04 00	 ret	 4
?_M_create_node@?$list@PAVSubItemInfo@@V?$allocator@PAVSubItemInfo@@@_STL@@@_STL@@IAEPAU?$_List_node@PAVSubItemInfo@@@2@ABQAVSubItemInfo@@@Z ENDP ; _STL::list<SubItemInfo *,_STL::allocator<SubItemInfo *> >::_M_create_node
_TEXT	ENDS
PUBLIC	??$__distance@U?$_List_iterator@GU?$_Const_traits@G@_STL@@@_STL@@@_STL@@YAHABU?$_List_iterator@GU?$_Const_traits@G@_STL@@@0@0ABUinput_iterator_tag@0@@Z ; _STL::__distance<_STL::_List_iterator<unsigned short,_STL::_Const_traits<unsigned short> > >
; Function compile flags: /Ogsy
; File c:\stlport-4.6.1\stlport\stl\_iterator_base.h
;	COMDAT ??$__distance@U?$_List_iterator@GU?$_Const_traits@G@_STL@@@_STL@@@_STL@@YAHABU?$_List_iterator@GU?$_Const_traits@G@_STL@@@0@0ABUinput_iterator_tag@0@@Z
_TEXT	SEGMENT
___first$ = 8						; size = 4
___last$ = 12						; size = 4
___formal$ = 16						; size = 4
??$__distance@U?$_List_iterator@GU?$_Const_traits@G@_STL@@@_STL@@@_STL@@YAHABU?$_List_iterator@GU?$_Const_traits@G@_STL@@@0@0ABUinput_iterator_tag@0@@Z PROC NEAR ; _STL::__distance<_STL::_List_iterator<unsigned short,_STL::_Const_traits<unsigned short> > >, COMDAT

; 323  :   _STLP_DIFFERENCE_TYPE(_InputIterator) __n = 0;
; 324  :   _InputIterator __it(__first);  
; 325  :   while (__it != __last) {

  00000	8b 54 24 08	 mov	 edx, DWORD PTR ___last$[esp-4]
  00004	8b 4c 24 04	 mov	 ecx, DWORD PTR ___first$[esp-4]
  00008	8b 12		 mov	 edx, DWORD PTR [edx]
  0000a	33 c0		 xor	 eax, eax
  0000c	eb 01		 jmp	 SHORT $L103408
$L102349:

; 326  :     ++__it; ++__n;

  0000e	40		 inc	 eax
$L103408:
  0000f	8b 09		 mov	 ecx, DWORD PTR [ecx]
  00011	3b ca		 cmp	 ecx, edx
  00013	75 f9		 jne	 SHORT $L102349

; 327  :   }
; 328  :   return __n;
; 329  : }

  00015	c3		 ret	 0
??$__distance@U?$_List_iterator@GU?$_Const_traits@G@_STL@@@_STL@@@_STL@@YAHABU?$_List_iterator@GU?$_Const_traits@G@_STL@@@0@0ABUinput_iterator_tag@0@@Z ENDP ; _STL::__distance<_STL::_List_iterator<unsigned short,_STL::_Const_traits<unsigned short> > >
_TEXT	ENDS
PUBLIC	??0?$list@GV?$allocator@G@_STL@@@_STL@@QAE@ABV?$allocator@G@1@@Z ; _STL::list<unsigned short,_STL::allocator<unsigned short> >::list<unsigned short,_STL::allocator<unsigned short> >
; Function compile flags: /Ogsy
; File c:\stlport-4.6.1\stlport\stl\_list.h
;	COMDAT ??0?$list@GV?$allocator@G@_STL@@@_STL@@QAE@ABV?$allocator@G@1@@Z
_TEXT	SEGMENT
___a$ = 8						; size = 4
??0?$list@GV?$allocator@G@_STL@@@_STL@@QAE@ABV?$allocator@G@1@@Z PROC NEAR ; _STL::list<unsigned short,_STL::allocator<unsigned short> >::list<unsigned short,_STL::allocator<unsigned short> >, COMDAT
; _this$ = ecx

; 264  :     _List_base<_Tp, _Alloc>(__a) {}

  00000	56		 push	 esi
  00001	ff 74 24 08	 push	 DWORD PTR ___a$[esp]
  00005	8b f1		 mov	 esi, ecx
  00007	e8 00 00 00 00	 call	 ??0?$_List_base@GV?$allocator@G@_STL@@@_STL@@QAE@ABV?$allocator@G@1@@Z ; _STL::_List_base<unsigned short,_STL::allocator<unsigned short> >::_List_base<unsigned short,_STL::allocator<unsigned short> >
  0000c	8b c6		 mov	 eax, esi
  0000e	5e		 pop	 esi
  0000f	c2 04 00	 ret	 4
??0?$list@GV?$allocator@G@_STL@@@_STL@@QAE@ABV?$allocator@G@1@@Z ENDP ; _STL::list<unsigned short,_STL::allocator<unsigned short> >::list<unsigned short,_STL::allocator<unsigned short> >
_TEXT	ENDS
PUBLIC	??1?$list@GV?$allocator@G@_STL@@@_STL@@QAE@XZ	; _STL::list<unsigned short,_STL::allocator<unsigned short> >::~list<unsigned short,_STL::allocator<unsigned short> >
; Function compile flags: /Ogsy
;	COMDAT ??1?$list@GV?$allocator@G@_STL@@@_STL@@QAE@XZ
_TEXT	SEGMENT
??1?$list@GV?$allocator@G@_STL@@@_STL@@QAE@XZ PROC NEAR	; _STL::list<unsigned short,_STL::allocator<unsigned short> >::~list<unsigned short,_STL::allocator<unsigned short> >, COMDAT
; _this$ = ecx

; 416  :   ~list() { }

  00000	e9 00 00 00 00	 jmp	 ??1?$_List_base@GV?$allocator@G@_STL@@@_STL@@QAE@XZ ; _STL::_List_base<unsigned short,_STL::allocator<unsigned short> >::~_List_base<unsigned short,_STL::allocator<unsigned short> >
??1?$list@GV?$allocator@G@_STL@@@_STL@@QAE@XZ ENDP	; _STL::list<unsigned short,_STL::allocator<unsigned short> >::~list<unsigned short,_STL::allocator<unsigned short> >
_TEXT	ENDS
PUBLIC	??0?$list@PAVSubItemInfo@@V?$allocator@PAVSubItemInfo@@@_STL@@@_STL@@QAE@ABV?$allocator@PAVSubItemInfo@@@1@@Z ; _STL::list<SubItemInfo *,_STL::allocator<SubItemInfo *> >::list<SubItemInfo *,_STL::allocator<SubItemInfo *> >
; Function compile flags: /Ogsy
;	COMDAT ??0?$list@PAVSubItemInfo@@V?$allocator@PAVSubItemInfo@@@_STL@@@_STL@@QAE@ABV?$allocator@PAVSubItemInfo@@@1@@Z
_TEXT	SEGMENT
___a$ = 8						; size = 4
??0?$list@PAVSubItemInfo@@V?$allocator@PAVSubItemInfo@@@_STL@@@_STL@@QAE@ABV?$allocator@PAVSubItemInfo@@@1@@Z PROC NEAR ; _STL::list<SubItemInfo *,_STL::allocator<SubItemInfo *> >::list<SubItemInfo *,_STL::allocator<SubItemInfo *> >, COMDAT
; _this$ = ecx

; 264  :     _List_base<_Tp, _Alloc>(__a) {}

  00000	56		 push	 esi
  00001	ff 74 24 08	 push	 DWORD PTR ___a$[esp]
  00005	8b f1		 mov	 esi, ecx
  00007	e8 00 00 00 00	 call	 ??0?$_List_base@PAVSubItemInfo@@V?$allocator@PAVSubItemInfo@@@_STL@@@_STL@@QAE@ABV?$allocator@PAVSubItemInfo@@@1@@Z ; _STL::_List_base<SubItemInfo *,_STL::allocator<SubItemInfo *> >::_List_base<SubItemInfo *,_STL::allocator<SubItemInfo *> >
  0000c	8b c6		 mov	 eax, esi
  0000e	5e		 pop	 esi
  0000f	c2 04 00	 ret	 4
??0?$list@PAVSubItemInfo@@V?$allocator@PAVSubItemInfo@@@_STL@@@_STL@@QAE@ABV?$allocator@PAVSubItemInfo@@@1@@Z ENDP ; _STL::list<SubItemInfo *,_STL::allocator<SubItemInfo *> >::list<SubItemInfo *,_STL::allocator<SubItemInfo *> >
_TEXT	ENDS
PUBLIC	??1?$list@PAVSubItemInfo@@V?$allocator@PAVSubItemInfo@@@_STL@@@_STL@@QAE@XZ ; _STL::list<SubItemInfo *,_STL::allocator<SubItemInfo *> >::~list<SubItemInfo *,_STL::allocator<SubItemInfo *> >
; Function compile flags: /Ogsy
;	COMDAT ??1?$list@PAVSubItemInfo@@V?$allocator@PAVSubItemInfo@@@_STL@@@_STL@@QAE@XZ
_TEXT	SEGMENT
??1?$list@PAVSubItemInfo@@V?$allocator@PAVSubItemInfo@@@_STL@@@_STL@@QAE@XZ PROC NEAR ; _STL::list<SubItemInfo *,_STL::allocator<SubItemInfo *> >::~list<SubItemInfo *,_STL::allocator<SubItemInfo *> >, COMDAT
; _this$ = ecx

; 416  :   ~list() { }

  00000	e9 00 00 00 00	 jmp	 ??1?$_List_base@PAVSubItemInfo@@V?$allocator@PAVSubItemInfo@@@_STL@@@_STL@@QAE@XZ ; _STL::_List_base<SubItemInfo *,_STL::allocator<SubItemInfo *> >::~_List_base<SubItemInfo *,_STL::allocator<SubItemInfo *> >
??1?$list@PAVSubItemInfo@@V?$allocator@PAVSubItemInfo@@@_STL@@@_STL@@QAE@XZ ENDP ; _STL::list<SubItemInfo *,_STL::allocator<SubItemInfo *> >::~list<SubItemInfo *,_STL::allocator<SubItemInfo *> >
_TEXT	ENDS
PUBLIC	?insert@?$list@GV?$allocator@G@_STL@@@_STL@@QAE?AU?$_List_iterator@GU?$_Nonconst_traits@G@_STL@@@2@U32@ABG@Z ; _STL::list<unsigned short,_STL::allocator<unsigned short> >::insert
; Function compile flags: /Ogsy
;	COMDAT ?insert@?$list@GV?$allocator@G@_STL@@@_STL@@QAE?AU?$_List_iterator@GU?$_Nonconst_traits@G@_STL@@@2@U32@ABG@Z
_TEXT	SEGMENT
___$ReturnUdt$ = 8					; size = 4
___position$ = 12					; size = 4
___x$ = 16						; size = 4
?insert@?$list@GV?$allocator@G@_STL@@@_STL@@QAE?AU?$_List_iterator@GU?$_Nonconst_traits@G@_STL@@@2@U32@ABG@Z PROC NEAR ; _STL::list<unsigned short,_STL::allocator<unsigned short> >::insert, COMDAT
; _this$ = ecx

; 299  : 
; 300  :     _Node* __tmp = _M_create_node(__x);

  00000	ff 74 24 0c	 push	 DWORD PTR ___x$[esp-4]
  00004	e8 00 00 00 00	 call	 ?_M_create_node@?$list@GV?$allocator@G@_STL@@@_STL@@IAEPAU?$_List_node@G@2@ABG@Z ; _STL::list<unsigned short,_STL::allocator<unsigned short> >::_M_create_node

; 301  :     _List_node_base* __n = __position._M_node;
; 302  :     _List_node_base* __p = __n->_M_prev;

  00009	8b 4c 24 08	 mov	 ecx, DWORD PTR ___position$[esp-4]
  0000d	8b 51 04	 mov	 edx, DWORD PTR [ecx+4]

; 303  :     __tmp->_M_next = __n;

  00010	89 08		 mov	 DWORD PTR [eax], ecx

; 304  :     __tmp->_M_prev = __p;

  00012	89 50 04	 mov	 DWORD PTR [eax+4], edx

; 305  :     __p->_M_next = __tmp;

  00015	89 02		 mov	 DWORD PTR [edx], eax

; 306  :     __n->_M_prev = __tmp;

  00017	89 41 04	 mov	 DWORD PTR [ecx+4], eax

; 307  :     return __tmp;

  0001a	8b 4c 24 04	 mov	 ecx, DWORD PTR ___$ReturnUdt$[esp-4]
  0001e	89 01		 mov	 DWORD PTR [ecx], eax
  00020	8b c1		 mov	 eax, ecx

; 308  :   }

  00022	c2 0c 00	 ret	 12			; 0000000cH
?insert@?$list@GV?$allocator@G@_STL@@@_STL@@QAE?AU?$_List_iterator@GU?$_Nonconst_traits@G@_STL@@@2@U32@ABG@Z ENDP ; _STL::list<unsigned short,_STL::allocator<unsigned short> >::insert
_TEXT	ENDS
PUBLIC	?insert@?$list@PAVSubItemInfo@@V?$allocator@PAVSubItemInfo@@@_STL@@@_STL@@QAE?AU?$_List_iterator@PAVSubItemInfo@@U?$_Nonconst_traits@PAVSubItemInfo@@@_STL@@@2@U32@ABQAVSubItemInfo@@@Z ; _STL::list<SubItemInfo *,_STL::allocator<SubItemInfo *> >::insert
; Function compile flags: /Ogsy
;	COMDAT ?insert@?$list@PAVSubItemInfo@@V?$allocator@PAVSubItemInfo@@@_STL@@@_STL@@QAE?AU?$_List_iterator@PAVSubItemInfo@@U?$_Nonconst_traits@PAVSubItemInfo@@@_STL@@@2@U32@ABQAVSubItemInfo@@@Z
_TEXT	SEGMENT
___$ReturnUdt$ = 8					; size = 4
___position$ = 12					; size = 4
___x$ = 16						; size = 4
?insert@?$list@PAVSubItemInfo@@V?$allocator@PAVSubItemInfo@@@_STL@@@_STL@@QAE?AU?$_List_iterator@PAVSubItemInfo@@U?$_Nonconst_traits@PAVSubItemInfo@@@_STL@@@2@U32@ABQAVSubItemInfo@@@Z PROC NEAR ; _STL::list<SubItemInfo *,_STL::allocator<SubItemInfo *> >::insert, COMDAT
; _this$ = ecx

; 299  : 
; 300  :     _Node* __tmp = _M_create_node(__x);

  00000	ff 74 24 0c	 push	 DWORD PTR ___x$[esp-4]
  00004	e8 00 00 00 00	 call	 ?_M_create_node@?$list@PAVSubItemInfo@@V?$allocator@PAVSubItemInfo@@@_STL@@@_STL@@IAEPAU?$_List_node@PAVSubItemInfo@@@2@ABQAVSubItemInfo@@@Z ; _STL::list<SubItemInfo *,_STL::allocator<SubItemInfo *> >::_M_create_node

; 301  :     _List_node_base* __n = __position._M_node;
; 302  :     _List_node_base* __p = __n->_M_prev;

  00009	8b 4c 24 08	 mov	 ecx, DWORD PTR ___position$[esp-4]
  0000d	8b 51 04	 mov	 edx, DWORD PTR [ecx+4]

; 303  :     __tmp->_M_next = __n;

  00010	89 08		 mov	 DWORD PTR [eax], ecx

; 304  :     __tmp->_M_prev = __p;

  00012	89 50 04	 mov	 DWORD PTR [eax+4], edx

; 305  :     __p->_M_next = __tmp;

  00015	89 02		 mov	 DWORD PTR [edx], eax

; 306  :     __n->_M_prev = __tmp;

  00017	89 41 04	 mov	 DWORD PTR [ecx+4], eax

; 307  :     return __tmp;

  0001a	8b 4c 24 04	 mov	 ecx, DWORD PTR ___$ReturnUdt$[esp-4]
  0001e	89 01		 mov	 DWORD PTR [ecx], eax
  00020	8b c1		 mov	 eax, ecx

; 308  :   }

  00022	c2 0c 00	 ret	 12			; 0000000cH
?insert@?$list@PAVSubItemInfo@@V?$allocator@PAVSubItemInfo@@@_STL@@@_STL@@QAE?AU?$_List_iterator@PAVSubItemInfo@@U?$_Nonconst_traits@PAVSubItemInfo@@@_STL@@@2@U32@ABQAVSubItemInfo@@@Z ENDP ; _STL::list<SubItemInfo *,_STL::allocator<SubItemInfo *> >::insert
_TEXT	ENDS
PUBLIC	??$distance@U?$_List_iterator@GU?$_Const_traits@G@_STL@@@_STL@@@_STL@@YAHABU?$_List_iterator@GU?$_Const_traits@G@_STL@@@0@0@Z ; _STL::distance<_STL::_List_iterator<unsigned short,_STL::_Const_traits<unsigned short> > >
; Function compile flags: /Ogsy
; File c:\stlport-4.6.1\stlport\stl\_iterator_base.h
;	COMDAT ??$distance@U?$_List_iterator@GU?$_Const_traits@G@_STL@@@_STL@@@_STL@@YAHABU?$_List_iterator@GU?$_Const_traits@G@_STL@@@0@0@Z
_TEXT	SEGMENT
___first$ = 8						; size = 4
___last$ = 12						; size = 4
??$distance@U?$_List_iterator@GU?$_Const_traits@G@_STL@@@_STL@@@_STL@@YAHABU?$_List_iterator@GU?$_Const_traits@G@_STL@@@0@0@Z PROC NEAR ; _STL::distance<_STL::_List_iterator<unsigned short,_STL::_Const_traits<unsigned short> > >, COMDAT

; 369  :   return __distance(__first, __last, _STLP_ITERATOR_CATEGORY(__first, _InputIterator));  

  00000	8b 54 24 08	 mov	 edx, DWORD PTR ___last$[esp-4]
  00004	8b 4c 24 04	 mov	 ecx, DWORD PTR ___first$[esp-4]
  00008	8b 12		 mov	 edx, DWORD PTR [edx]
  0000a	33 c0		 xor	 eax, eax
  0000c	eb 01		 jmp	 SHORT $L103478
$L103473:
  0000e	40		 inc	 eax
$L103478:
  0000f	8b 09		 mov	 ecx, DWORD PTR [ecx]
  00011	3b ca		 cmp	 ecx, edx
  00013	75 f9		 jne	 SHORT $L103473

; 370  : }

  00015	c3		 ret	 0
??$distance@U?$_List_iterator@GU?$_Const_traits@G@_STL@@@_STL@@@_STL@@YAHABU?$_List_iterator@GU?$_Const_traits@G@_STL@@@0@0@Z ENDP ; _STL::distance<_STL::_List_iterator<unsigned short,_STL::_Const_traits<unsigned short> > >
_TEXT	ENDS
PUBLIC	??$_M_insert_dispatch@U?$_List_iterator@GU?$_Const_traits@G@_STL@@@_STL@@@?$list@GV?$allocator@G@_STL@@@_STL@@QAEXU?$_List_iterator@GU?$_Nonconst_traits@G@_STL@@@1@U?$_List_iterator@GU?$_Const_traits@G@_STL@@@1@1ABU__false_type@1@@Z ; _STL::list<unsigned short,_STL::allocator<unsigned short> >::_M_insert_dispatch<_STL::_List_iterator<unsigned short,_STL::_Const_traits<unsigned short> > >
; Function compile flags: /Ogsy
; File c:\stlport-4.6.1\stlport\stl\_list.h
;	COMDAT ??$_M_insert_dispatch@U?$_List_iterator@GU?$_Const_traits@G@_STL@@@_STL@@@?$list@GV?$allocator@G@_STL@@@_STL@@QAEXU?$_List_iterator@GU?$_Nonconst_traits@G@_STL@@@1@U?$_List_iterator@GU?$_Const_traits@G@_STL@@@1@1ABU__false_type@1@@Z
_TEXT	SEGMENT
___position$ = 8					; size = 4
$T103483 = 12						; size = 4
___first$ = 12						; size = 4
___last$ = 16						; size = 4
___formal$ = 20						; size = 4
??$_M_insert_dispatch@U?$_List_iterator@GU?$_Const_traits@G@_STL@@@_STL@@@?$list@GV?$allocator@G@_STL@@@_STL@@QAEXU?$_List_iterator@GU?$_Nonconst_traits@G@_STL@@@1@U?$_List_iterator@GU?$_Const_traits@G@_STL@@@1@1ABU__false_type@1@@Z PROC NEAR ; _STL::list<unsigned short,_STL::allocator<unsigned short> >::_M_insert_dispatch<_STL::_List_iterator<unsigned short,_STL::_Const_traits<unsigned short> > >, COMDAT
; _this$ = ecx

; 323  :   void 

  00000	55		 push	 ebp
  00001	8b ec		 mov	 ebp, esp
  00003	56		 push	 esi

; 324  :   _M_insert_dispatch(iterator __position,
; 325  : 		     _InputIter __first, _InputIter __last,
; 326  : 		     const __false_type&) 
; 327  : #else /* _STLP_MEMBER_TEMPLATES */
; 328  :   void insert(iterator __position, const _Tp* __first, const _Tp* __last) {
; 329  :     for ( ; __first != __last; ++__first)
; 330  :       insert(__position, *__first);
; 331  :   }
; 332  :   void insert(iterator __position, const_iterator __first, const_iterator __last)
; 333  : #endif /* _STLP_MEMBER_TEMPLATES */
; 334  :   {
; 335  :     for ( ; __first != __last; ++__first)

  00004	8b 75 0c	 mov	 esi, DWORD PTR ___first$[ebp]
  00007	57		 push	 edi
  00008	8b f9		 mov	 edi, ecx
  0000a	eb 19		 jmp	 SHORT $L103509
$L103491:

; 336  :       insert(__position, *__first);

  0000c	8d 46 08	 lea	 eax, DWORD PTR [esi+8]
  0000f	50		 push	 eax
  00010	51		 push	 ecx
  00011	8b 4d 08	 mov	 ecx, DWORD PTR ___position$[ebp]
  00014	8b c4		 mov	 eax, esp
  00016	89 08		 mov	 DWORD PTR [eax], ecx
  00018	8d 45 0c	 lea	 eax, DWORD PTR $T103483[ebp]
  0001b	50		 push	 eax
  0001c	8b cf		 mov	 ecx, edi
  0001e	e8 00 00 00 00	 call	 ?insert@?$list@GV?$allocator@G@_STL@@@_STL@@QAE?AU?$_List_iterator@GU?$_Nonconst_traits@G@_STL@@@2@U32@ABG@Z ; _STL::list<unsigned short,_STL::allocator<unsigned short> >::insert
  00023	8b 36		 mov	 esi, DWORD PTR [esi]
$L103509:

; 324  :   _M_insert_dispatch(iterator __position,
; 325  : 		     _InputIter __first, _InputIter __last,
; 326  : 		     const __false_type&) 
; 327  : #else /* _STLP_MEMBER_TEMPLATES */
; 328  :   void insert(iterator __position, const _Tp* __first, const _Tp* __last) {
; 329  :     for ( ; __first != __last; ++__first)
; 330  :       insert(__position, *__first);
; 331  :   }
; 332  :   void insert(iterator __position, const_iterator __first, const_iterator __last)
; 333  : #endif /* _STLP_MEMBER_TEMPLATES */
; 334  :   {
; 335  :     for ( ; __first != __last; ++__first)

  00025	3b 75 10	 cmp	 esi, DWORD PTR ___last$[ebp]
  00028	75 e2		 jne	 SHORT $L103491

; 337  :   }

  0002a	5f		 pop	 edi
  0002b	5e		 pop	 esi
  0002c	5d		 pop	 ebp
  0002d	c2 10 00	 ret	 16			; 00000010H
??$_M_insert_dispatch@U?$_List_iterator@GU?$_Const_traits@G@_STL@@@_STL@@@?$list@GV?$allocator@G@_STL@@@_STL@@QAEXU?$_List_iterator@GU?$_Nonconst_traits@G@_STL@@@1@U?$_List_iterator@GU?$_Const_traits@G@_STL@@@1@1ABU__false_type@1@@Z ENDP ; _STL::list<unsigned short,_STL::allocator<unsigned short> >::_M_insert_dispatch<_STL::_List_iterator<unsigned short,_STL::_Const_traits<unsigned short> > >
_TEXT	ENDS
PUBLIC	??0_STASHITEM@@QAE@XZ				; _STASHITEM::_STASHITEM
EXTRN	__EH_prolog:NEAR
EXTRN	__except_list:DWORD
EXTRN	___CxxFrameHandler:NEAR
;	COMDAT xdata$x
xdata$x	SEGMENT
$T103543 DD	0ffffffffH
	DD	FLAT:$L103514
$T103539 DD	019930520H
	DD	01H
	DD	FLAT:$T103543
	DD	2 DUP(00H)
	DD	2 DUP(00H)
; Function compile flags: /Ogsy
xdata$x	ENDS
;	COMDAT ??0_STASHITEM@@QAE@XZ
_TEXT	SEGMENT
_this$ = -20						; size = 4
$T103513 = -13						; size = 1
$T103512 = -13						; size = 1
__$EHRec$ = -12						; size = 12
??0_STASHITEM@@QAE@XZ PROC NEAR				; _STASHITEM::_STASHITEM, COMDAT
; _this$ = ecx
  00000	b8 00 00 00 00	 mov	 eax, __ehhandler$??0_STASHITEM@@QAE@XZ
  00005	e8 00 00 00 00	 call	 __EH_prolog
  0000a	51		 push	 ecx
  0000b	51		 push	 ecx
  0000c	56		 push	 esi
  0000d	8b f1		 mov	 esi, ecx
  0000f	8d 45 f3	 lea	 eax, DWORD PTR $T103512[ebp]
  00012	8d 4e 08	 lea	 ecx, DWORD PTR [esi+8]
  00015	50		 push	 eax
  00016	89 75 ec	 mov	 DWORD PTR _this$[ebp], esi
  00019	e8 00 00 00 00	 call	 ??0?$_List_base@GV?$allocator@G@_STL@@@_STL@@QAE@ABV?$allocator@G@1@@Z ; _STL::_List_base<unsigned short,_STL::allocator<unsigned short> >::_List_base<unsigned short,_STL::allocator<unsigned short> >
  0001e	83 65 fc 00	 and	 DWORD PTR __$EHRec$[ebp+8], 0
  00022	8d 45 f3	 lea	 eax, DWORD PTR $T103513[ebp]
  00025	50		 push	 eax
  00026	8d 4e 1c	 lea	 ecx, DWORD PTR [esi+28]
  00029	e8 00 00 00 00	 call	 ??0?$_List_base@GV?$allocator@G@_STL@@@_STL@@QAE@ABV?$allocator@G@1@@Z ; _STL::_List_base<unsigned short,_STL::allocator<unsigned short> >::_List_base<unsigned short,_STL::allocator<unsigned short> >
  0002e	8b 4d f4	 mov	 ecx, DWORD PTR __$EHRec$[ebp]
  00031	8b c6		 mov	 eax, esi
  00033	5e		 pop	 esi
  00034	64 89 0d 00 00
	00 00		 mov	 DWORD PTR fs:__except_list, ecx
  0003b	c9		 leave
  0003c	c3		 ret	 0
_TEXT	ENDS
;	COMDAT text$x
text$x	SEGMENT
$L103514:
  00000	8b 4d ec	 mov	 ecx, DWORD PTR _this$[ebp]
  00003	83 c1 08	 add	 ecx, 8
  00006	e9 00 00 00 00	 jmp	 ??1?$list@GV?$allocator@G@_STL@@@_STL@@QAE@XZ ; _STL::list<unsigned short,_STL::allocator<unsigned short> >::~list<unsigned short,_STL::allocator<unsigned short> >
__ehhandler$??0_STASHITEM@@QAE@XZ:
  0000b	b8 00 00 00 00	 mov	 eax, OFFSET FLAT:$T103539
  00010	e9 00 00 00 00	 jmp	 ___CxxFrameHandler
text$x	ENDS
??0_STASHITEM@@QAE@XZ ENDP				; _STASHITEM::_STASHITEM
PUBLIC	??1_STASHITEM@@QAE@XZ				; _STASHITEM::~_STASHITEM
;	COMDAT xdata$x
xdata$x	SEGMENT
$T103564 DD	0ffffffffH
	DD	FLAT:$L103549
$T103562 DD	019930520H
	DD	01H
	DD	FLAT:$T103564
	DD	2 DUP(00H)
	DD	2 DUP(00H)
; Function compile flags: /Ogsy
xdata$x	ENDS
;	COMDAT ??1_STASHITEM@@QAE@XZ
_TEXT	SEGMENT
_this$ = -16						; size = 4
__$EHRec$ = -12						; size = 12
??1_STASHITEM@@QAE@XZ PROC NEAR				; _STASHITEM::~_STASHITEM, COMDAT
; _this$ = ecx
  00000	b8 00 00 00 00	 mov	 eax, __ehhandler$??1_STASHITEM@@QAE@XZ
  00005	e8 00 00 00 00	 call	 __EH_prolog
  0000a	51		 push	 ecx
  0000b	56		 push	 esi
  0000c	8b f1		 mov	 esi, ecx
  0000e	89 75 f0	 mov	 DWORD PTR _this$[ebp], esi
  00011	83 65 fc 00	 and	 DWORD PTR __$EHRec$[ebp+8], 0
  00015	8d 4e 1c	 lea	 ecx, DWORD PTR [esi+28]
  00018	e8 00 00 00 00	 call	 ??1?$_List_base@GV?$allocator@G@_STL@@@_STL@@QAE@XZ ; _STL::_List_base<unsigned short,_STL::allocator<unsigned short> >::~_List_base<unsigned short,_STL::allocator<unsigned short> >
  0001d	83 4d fc ff	 or	 DWORD PTR __$EHRec$[ebp+8], -1
  00021	8d 4e 08	 lea	 ecx, DWORD PTR [esi+8]
  00024	e8 00 00 00 00	 call	 ??1?$_List_base@GV?$allocator@G@_STL@@@_STL@@QAE@XZ ; _STL::_List_base<unsigned short,_STL::allocator<unsigned short> >::~_List_base<unsigned short,_STL::allocator<unsigned short> >
  00029	8b 4d f4	 mov	 ecx, DWORD PTR __$EHRec$[ebp]
  0002c	5e		 pop	 esi
  0002d	64 89 0d 00 00
	00 00		 mov	 DWORD PTR fs:__except_list, ecx
  00034	c9		 leave
  00035	c3		 ret	 0
_TEXT	ENDS
;	COMDAT text$x
text$x	SEGMENT
$L103549:
  00000	8b 4d f0	 mov	 ecx, DWORD PTR _this$[ebp]
  00003	83 c1 08	 add	 ecx, 8
  00006	e9 00 00 00 00	 jmp	 ??1?$list@GV?$allocator@G@_STL@@@_STL@@QAE@XZ ; _STL::list<unsigned short,_STL::allocator<unsigned short> >::~list<unsigned short,_STL::allocator<unsigned short> >
__ehhandler$??1_STASHITEM@@QAE@XZ:
  0000b	b8 00 00 00 00	 mov	 eax, OFFSET FLAT:$T103562
  00010	e9 00 00 00 00	 jmp	 ___CxxFrameHandler
text$x	ENDS
??1_STASHITEM@@QAE@XZ ENDP				; _STASHITEM::~_STASHITEM
PUBLIC	??_F?$list@PAVSubItemInfo@@V?$allocator@PAVSubItemInfo@@@_STL@@@_STL@@QAEXXZ ; _STL::list<SubItemInfo *,_STL::allocator<SubItemInfo *> >::`default constructor closure'
; Function compile flags: /Ogsy
;	COMDAT ??_F?$list@PAVSubItemInfo@@V?$allocator@PAVSubItemInfo@@@_STL@@@_STL@@QAEXXZ
_TEXT	SEGMENT
$T103569 = -1						; size = 1
??_F?$list@PAVSubItemInfo@@V?$allocator@PAVSubItemInfo@@@_STL@@@_STL@@QAEXXZ PROC NEAR ; _STL::list<SubItemInfo *,_STL::allocator<SubItemInfo *> >::`default constructor closure', COMDAT
; _this$ = ecx
  00000	51		 push	 ecx
  00001	8d 44 24 03	 lea	 eax, DWORD PTR $T103569[esp+4]
  00005	50		 push	 eax
  00006	e8 00 00 00 00	 call	 ??0?$list@PAVSubItemInfo@@V?$allocator@PAVSubItemInfo@@@_STL@@@_STL@@QAE@ABV?$allocator@PAVSubItemInfo@@@1@@Z ; _STL::list<SubItemInfo *,_STL::allocator<SubItemInfo *> >::list<SubItemInfo *,_STL::allocator<SubItemInfo *> >
  0000b	59		 pop	 ecx
  0000c	c3		 ret	 0
??_F?$list@PAVSubItemInfo@@V?$allocator@PAVSubItemInfo@@@_STL@@@_STL@@QAEXXZ ENDP ; _STL::list<SubItemInfo *,_STL::allocator<SubItemInfo *> >::`default constructor closure'
_TEXT	ENDS
PUBLIC	??_R4GCStashList@@6B@				; GCStashList::`RTTI Complete Object Locator'
PUBLIC	??_R0?AVGCStashList@@@8				; GCStashList `RTTI Type Descriptor'
PUBLIC	??_R3GCStashList@@8				; GCStashList::`RTTI Class Hierarchy Descriptor'
PUBLIC	??_R2GCStashList@@8				; GCStashList::`RTTI Base Class Array'
PUBLIC	??_R1A@?0A@A@GCStashList@@8			; GCStashList::`RTTI Base Class Descriptor at (0,-1,0,0)'
PUBLIC	??1GCStashList@@UAE@XZ				; GCStashList::~GCStashList
PUBLIC	?read@GCStashList@@UAEXAAVSocketInputStream@@@Z	; GCStashList::read
PUBLIC	?write@GCStashList@@UBEXAAVSocketOutputStream@@@Z ; GCStashList::write
PUBLIC	?getPacketID@GCStashList@@UBEGXZ		; GCStashList::getPacketID
PUBLIC	?getPacketSize@GCStashList@@UBEIXZ		; GCStashList::getPacketSize
PUBLIC	??_7GCStashList@@6B@				; GCStashList::`vftable'
PUBLIC	??_GGCStashList@@UAEPAXI@Z			; GCStashList::`scalar deleting destructor'
EXTRN	??_M@YGXPAXIHP6EX0@Z@Z:NEAR			; `eh vector destructor iterator'
EXTRN	??_EGCStashList@@UAEPAXI@Z:NEAR			; GCStashList::`vector deleting destructor'
;	COMDAT ??_7GCStashList@@6B@
; File c:\darkeden\designed_common\project\client\packet\packet.h
CONST	SEGMENT
??_7GCStashList@@6B@ DD FLAT:??_R4GCStashList@@6B@	; GCStashList::`vftable'
	DD	FLAT:??_EGCStashList@@UAEPAXI@Z
	DD	FLAT:?read@Packet@@UAEXPAVSocket@@@Z
	DD	FLAT:?read@GCStashList@@UAEXAAVSocketInputStream@@@Z
	DD	FLAT:?write@Packet@@UBEXPAVSocket@@@Z
	DD	FLAT:?write@GCStashList@@UBEXAAVSocketOutputStream@@@Z
	DD	FLAT:?execute@GCStashList@@UAEXPAVPlayer@@@Z
	DD	FLAT:?getPacketID@GCStashList@@UBEGXZ
	DD	FLAT:?getPacketSize@GCStashList@@UBEIXZ
CONST	ENDS
;	COMDAT ??_R4GCStashList@@6B@
rdata$r	SEGMENT
??_R4GCStashList@@6B@ DD 00H				; GCStashList::`RTTI Complete Object Locator'
	DD	00H
	DD	00H
	DD	FLAT:??_R0?AVGCStashList@@@8
	DD	FLAT:??_R3GCStashList@@8
rdata$r	ENDS
;	COMDAT ??_R0?AVGCStashList@@@8
_DATA	SEGMENT
??_R0?AVGCStashList@@@8 DD FLAT:??_7type_info@@6B@	; GCStashList `RTTI Type Descriptor'
	DD	00H
	DB	'.?AVGCStashList@@', 00H
_DATA	ENDS
;	COMDAT ??_R3GCStashList@@8
rdata$r	SEGMENT
??_R3GCStashList@@8 DD 00H				; GCStashList::`RTTI Class Hierarchy Descriptor'
	DD	00H
	DD	02H
	DD	FLAT:??_R2GCStashList@@8
rdata$r	ENDS
;	COMDAT ??_R2GCStashList@@8
rdata$r	SEGMENT
??_R2GCStashList@@8 DD FLAT:??_R1A@?0A@A@GCStashList@@8	; GCStashList::`RTTI Base Class Array'
	DD	FLAT:??_R1A@?0A@A@Packet@@8
rdata$r	ENDS
;	COMDAT ??_R1A@?0A@A@GCStashList@@8
rdata$r	SEGMENT
??_R1A@?0A@A@GCStashList@@8 DD FLAT:??_R0?AVGCStashList@@@8 ; GCStashList::`RTTI Base Class Descriptor at (0,-1,0,0)'
	DD	01H
	DD	00H
	DD	0ffffffffH
	DD	00H
	DD	00H
; Function compile flags: /Ogsy
; File c:\darkeden\designed_common\project\client\packet\gpackets\gcstashlist.cpp
rdata$r	ENDS
;	COMDAT ??1GCStashList@@UAE@XZ
_TEXT	SEGMENT
tv368 = -8						; size = 4
tv64 = -4						; size = 4
??1GCStashList@@UAE@XZ PROC NEAR			; GCStashList::~GCStashList, COMDAT
; _this$ = ecx

; 48   : {

  00000	55		 push	 ebp
  00001	8b ec		 mov	 ebp, esp
  00003	51		 push	 ecx
  00004	51		 push	 ecx
  00005	53		 push	 ebx
  00006	56		 push	 esi
  00007	8b f1		 mov	 esi, ecx
  00009	8d 86 78 0e 00
	00		 lea	 eax, DWORD PTR [esi+3704]
  0000f	57		 push	 edi
  00010	c7 06 00 00 00
	00		 mov	 DWORD PTR [esi], OFFSET FLAT:??_7GCStashList@@6B@
  00016	8b d8		 mov	 ebx, eax
  00018	c7 45 f8 05 00
	00 00		 mov	 DWORD PTR tv368[ebp], 5
$L101334:

; 52   : 	{
; 53   : 		for (int i=0; i<STASH_INDEX_MAX; i++)

  0001f	c7 45 fc 14 00
	00 00		 mov	 DWORD PTR tv64[ebp], 20	; 00000014H
$L101338:

; 54   : 		{
; 55   : 			std::list<SubItemInfo*>::iterator itr = m_pSubItems[r][i].begin();

  00026	8b 03		 mov	 eax, DWORD PTR [ebx]
  00028	8b 38		 mov	 edi, DWORD PTR [eax]

; 56   : 			for (; itr != m_pSubItems[r][i].end(); itr++)

  0002a	3b f8		 cmp	 edi, eax
  0002c	74 0f		 je	 SHORT $L101339
$L103629:

; 57   : 			{
; 58   : 				SubItemInfo* pItemInfo = *itr;
; 59   : 				delete pItemInfo;

  0002e	ff 77 08	 push	 DWORD PTR [edi+8]
  00031	e8 00 00 00 00	 call	 ??3@YAXPAX@Z		; operator delete
  00036	8b 3f		 mov	 edi, DWORD PTR [edi]
  00038	3b 3b		 cmp	 edi, DWORD PTR [ebx]
  0003a	59		 pop	 ecx
  0003b	75 f1		 jne	 SHORT $L103629
$L101339:

; 52   : 	{
; 53   : 		for (int i=0; i<STASH_INDEX_MAX; i++)

  0003d	83 c3 04	 add	 ebx, 4
  00040	ff 4d fc	 dec	 DWORD PTR tv64[ebp]
  00043	75 e1		 jne	 SHORT $L101338

; 49   : 	__BEGIN_TRY
; 50   : 	
; 51   : 	for (int r=0; r<STASH_RACK_MAX; r++)

  00045	ff 4d f8	 dec	 DWORD PTR tv368[ebp]
  00048	75 d5		 jne	 SHORT $L101334

; 60   : 			}
; 61   : 		}
; 62   : 	}
; 63   : 
; 64   : 	__END_CATCH
; 65   : }

  0004a	68 00 00 00 00	 push	 OFFSET FLAT:??1?$list@PAVSubItemInfo@@V?$allocator@PAVSubItemInfo@@@_STL@@@_STL@@QAE@XZ ; _STL::list<SubItemInfo *,_STL::allocator<SubItemInfo *> >::~list<SubItemInfo *,_STL::allocator<SubItemInfo *> >
  0004f	6a 64		 push	 100			; 00000064H
  00051	6a 04		 push	 4
  00053	8d 86 78 0e 00
	00		 lea	 eax, DWORD PTR [esi+3704]
  00059	50		 push	 eax
  0005a	e8 00 00 00 00	 call	 ??_M@YGXPAXIHP6EX0@Z@Z
  0005f	68 00 00 00 00	 push	 OFFSET FLAT:??1_STASHITEM@@QAE@XZ
  00064	6a 64		 push	 100			; 00000064H
  00066	6a 24		 push	 36			; 00000024H
  00068	8d 46 68	 lea	 eax, DWORD PTR [esi+104]
  0006b	50		 push	 eax
  0006c	e8 00 00 00 00	 call	 ??_M@YGXPAXIHP6EX0@Z@Z
  00071	5f		 pop	 edi
  00072	c7 06 00 00 00
	00		 mov	 DWORD PTR [esi], OFFSET FLAT:??_7Packet@@6B@
  00078	5e		 pop	 esi
  00079	5b		 pop	 ebx
  0007a	c9		 leave
  0007b	c3		 ret	 0
??1GCStashList@@UAE@XZ ENDP				; GCStashList::~GCStashList
; Function compile flags: /Ogsy
; File c:\darkeden\designed_common\project\client\packet\gpackets\gcstashlist.h
_TEXT	ENDS
;	COMDAT ?getPacketID@GCStashList@@UBEGXZ
_TEXT	SEGMENT
?getPacketID@GCStashList@@UBEGXZ PROC NEAR		; GCStashList::getPacketID, COMDAT
; _this$ = ecx

; 86   : 	PacketID_t getPacketID() const throw() { return PACKET_GC_STASH_LIST; }

  00000	66 b8 c9 00	 mov	 ax, 201			; 000000c9H
  00004	c3		 ret	 0
?getPacketID@GCStashList@@UBEGXZ ENDP			; GCStashList::getPacketID
_TEXT	ENDS
PUBLIC	?size@?$list@GV?$allocator@G@_STL@@@_STL@@QBEIXZ ; _STL::list<unsigned short,_STL::allocator<unsigned short> >::size
; Function compile flags: /Ogsy
; File c:\stlport-4.6.1\stlport\stl\_list.h
;	COMDAT ?size@?$list@GV?$allocator@G@_STL@@@_STL@@QBEIXZ
_TEXT	SEGMENT
?size@?$list@GV?$allocator@G@_STL@@@_STL@@QBEIXZ PROC NEAR ; _STL::list<unsigned short,_STL::allocator<unsigned short> >::size, COMDAT
; _this$ = ecx

; 284  :     size_type __result = distance(begin(), end());

  00000	8b 11		 mov	 edx, DWORD PTR [ecx]
  00002	8b 0a		 mov	 ecx, DWORD PTR [edx]
  00004	33 c0		 xor	 eax, eax
  00006	eb 03		 jmp	 SHORT $L103743
$L103738:
  00008	8b 09		 mov	 ecx, DWORD PTR [ecx]
  0000a	40		 inc	 eax
$L103743:
  0000b	3b ca		 cmp	 ecx, edx
  0000d	75 f9		 jne	 SHORT $L103738

; 285  :     return __result;
; 286  :   }

  0000f	c3		 ret	 0
?size@?$list@GV?$allocator@G@_STL@@@_STL@@QBEIXZ ENDP	; _STL::list<unsigned short,_STL::allocator<unsigned short> >::size
_TEXT	ENDS
PUBLIC	?push_back@?$list@GV?$allocator@G@_STL@@@_STL@@QAEXABG@Z ; _STL::list<unsigned short,_STL::allocator<unsigned short> >::push_back
; Function compile flags: /Ogsy
;	COMDAT ?push_back@?$list@GV?$allocator@G@_STL@@@_STL@@QAEXABG@Z
_TEXT	SEGMENT
$T103748 = 8						; size = 4
___x$ = 8						; size = 4
?push_back@?$list@GV?$allocator@G@_STL@@@_STL@@QAEXABG@Z PROC NEAR ; _STL::list<unsigned short,_STL::allocator<unsigned short> >::push_back, COMDAT
; _this$ = ecx

; 345  :   void push_back(const _Tp& __x) { insert(end(), __x); }

  00000	55		 push	 ebp
  00001	8b ec		 mov	 ebp, esp
  00003	ff 75 08	 push	 DWORD PTR ___x$[ebp]
  00006	8b 11		 mov	 edx, DWORD PTR [ecx]
  00008	51		 push	 ecx
  00009	8b c4		 mov	 eax, esp
  0000b	89 10		 mov	 DWORD PTR [eax], edx
  0000d	8d 45 08	 lea	 eax, DWORD PTR $T103748[ebp]
  00010	50		 push	 eax
  00011	e8 00 00 00 00	 call	 ?insert@?$list@GV?$allocator@G@_STL@@@_STL@@QAE?AU?$_List_iterator@GU?$_Nonconst_traits@G@_STL@@@2@U32@ABG@Z ; _STL::list<unsigned short,_STL::allocator<unsigned short> >::insert
  00016	5d		 pop	 ebp
  00017	c2 04 00	 ret	 4
?push_back@?$list@GV?$allocator@G@_STL@@@_STL@@QAEXABG@Z ENDP ; _STL::list<unsigned short,_STL::allocator<unsigned short> >::push_back
_TEXT	ENDS
PUBLIC	?push_back@?$list@PAVSubItemInfo@@V?$allocator@PAVSubItemInfo@@@_STL@@@_STL@@QAEXABQAVSubItemInfo@@@Z ; _STL::list<SubItemInfo *,_STL::allocator<SubItemInfo *> >::push_back
; Function compile flags: /Ogsy
;	COMDAT ?push_back@?$list@PAVSubItemInfo@@V?$allocator@PAVSubItemInfo@@@_STL@@@_STL@@QAEXABQAVSubItemInfo@@@Z
_TEXT	SEGMENT
$T103769 = 8						; size = 4
___x$ = 8						; size = 4
?push_back@?$list@PAVSubItemInfo@@V?$allocator@PAVSubItemInfo@@@_STL@@@_STL@@QAEXABQAVSubItemInfo@@@Z PROC NEAR ; _STL::list<SubItemInfo *,_STL::allocator<SubItemInfo *> >::push_back, COMDAT
; _this$ = ecx

; 345  :   void push_back(const _Tp& __x) { insert(end(), __x); }

  00000	55		 push	 ebp
  00001	8b ec		 mov	 ebp, esp
  00003	ff 75 08	 push	 DWORD PTR ___x$[ebp]
  00006	8b 11		 mov	 edx, DWORD PTR [ecx]
  00008	51		 push	 ecx
  00009	8b c4		 mov	 eax, esp
  0000b	89 10		 mov	 DWORD PTR [eax], edx
  0000d	8d 45 08	 lea	 eax, DWORD PTR $T103769[ebp]
  00010	50		 push	 eax
  00011	e8 00 00 00 00	 call	 ?insert@?$list@PAVSubItemInfo@@V?$allocator@PAVSubItemInfo@@@_STL@@@_STL@@QAE?AU?$_List_iterator@PAVSubItemInfo@@U?$_Nonconst_traits@PAVSubItemInfo@@@_STL@@@2@U32@ABQAVSubItemInfo@@@Z ; _STL::list<SubItemInfo *,_STL::allocator<SubItemInfo *> >::insert
  00016	5d		 pop	 ebp
  00017	c2 04 00	 ret	 4
?push_back@?$list@PAVSubItemInfo@@V?$allocator@PAVSubItemInfo@@@_STL@@@_STL@@QAEXABQAVSubItemInfo@@@Z ENDP ; _STL::list<SubItemInfo *,_STL::allocator<SubItemInfo *> >::push_back
_TEXT	ENDS
PUBLIC	??$insert@U?$_List_iterator@GU?$_Const_traits@G@_STL@@@_STL@@@?$list@GV?$allocator@G@_STL@@@_STL@@QAEXU?$_List_iterator@GU?$_Nonconst_traits@G@_STL@@@1@U?$_List_iterator@GU?$_Const_traits@G@_STL@@@1@1@Z ; _STL::list<unsigned short,_STL::allocator<unsigned short> >::insert<_STL::_List_iterator<unsigned short,_STL::_Const_traits<unsigned short> > >
; Function compile flags: /Ogsy
;	COMDAT ??$insert@U?$_List_iterator@GU?$_Const_traits@G@_STL@@@_STL@@@?$list@GV?$allocator@G@_STL@@@_STL@@QAEXU?$_List_iterator@GU?$_Nonconst_traits@G@_STL@@@1@U?$_List_iterator@GU?$_Const_traits@G@_STL@@@1@1@Z
_TEXT	SEGMENT
___pos$ = 8						; size = 4
___first$ = 12						; size = 4
___last$ = 16						; size = 4
$T103789 = 19						; size = 1
??$insert@U?$_List_iterator@GU?$_Const_traits@G@_STL@@@_STL@@@?$list@GV?$allocator@G@_STL@@@_STL@@QAEXU?$_List_iterator@GU?$_Nonconst_traits@G@_STL@@@1@U?$_List_iterator@GU?$_Const_traits@G@_STL@@@1@1@Z PROC NEAR ; _STL::list<unsigned short,_STL::allocator<unsigned short> >::insert<_STL::_List_iterator<unsigned short,_STL::_Const_traits<unsigned short> > >, COMDAT
; _this$ = ecx

; 312  :   void insert(iterator __pos, _InputIterator __first, _InputIterator __last) {

  00000	55		 push	 ebp
  00001	8b ec		 mov	 ebp, esp

; 313  :     typedef typename _Is_integer<_InputIterator>::_Integral _Integral;
; 314  :     _M_insert_dispatch(__pos, __first, __last, _Integral());

  00003	8b 55 08	 mov	 edx, DWORD PTR ___pos$[ebp]
  00006	8d 45 13	 lea	 eax, DWORD PTR $T103789[ebp]
  00009	50		 push	 eax
  0000a	ff 75 10	 push	 DWORD PTR ___last$[ebp]
  0000d	ff 75 0c	 push	 DWORD PTR ___first$[ebp]
  00010	51		 push	 ecx
  00011	8b c4		 mov	 eax, esp
  00013	89 10		 mov	 DWORD PTR [eax], edx
  00015	e8 00 00 00 00	 call	 ??$_M_insert_dispatch@U?$_List_iterator@GU?$_Const_traits@G@_STL@@@_STL@@@?$list@GV?$allocator@G@_STL@@@_STL@@QAEXU?$_List_iterator@GU?$_Nonconst_traits@G@_STL@@@1@U?$_List_iterator@GU?$_Const_traits@G@_STL@@@1@1ABU__false_type@1@@Z ; _STL::list<unsigned short,_STL::allocator<unsigned short> >::_M_insert_dispatch<_STL::_List_iterator<unsigned short,_STL::_Const_traits<unsigned short> > >

; 315  :   }

  0001a	5d		 pop	 ebp
  0001b	c2 0c 00	 ret	 12			; 0000000cH
??$insert@U?$_List_iterator@GU?$_Const_traits@G@_STL@@@_STL@@@?$list@GV?$allocator@G@_STL@@@_STL@@QAEXU?$_List_iterator@GU?$_Nonconst_traits@G@_STL@@@1@U?$_List_iterator@GU?$_Const_traits@G@_STL@@@1@1@Z ENDP ; _STL::list<unsigned short,_STL::allocator<unsigned short> >::insert<_STL::_List_iterator<unsigned short,_STL::_Const_traits<unsigned short> > >
_TEXT	ENDS
PUBLIC	?getPacketSize@_STASHITEM@@QBEHXZ		; _STASHITEM::getPacketSize
; Function compile flags: /Ogsy
; File c:\darkeden\designed_common\project\client\packet\gpackets\gcstashlist.h
;	COMDAT ?getPacketSize@_STASHITEM@@QBEHXZ
_TEXT	SEGMENT
?getPacketSize@_STASHITEM@@QBEHXZ PROC NEAR		; _STASHITEM::getPacketSize, COMDAT
; _this$ = ecx

; 19   : 		return szObjectID + 
; 20   : 				szBYTE + 
; 21   : 				szItemType + 
; 22   : 				szBYTE + optionType.size() +
; 23   : 				szDurability +
; 24   : 				szItemNum +
; 25   : 				szSilver +
; 26   : 				szGrade +
; 27   : 				szEnchantLevel
; 28   : 				+ szBYTE + thirdOptionType.size() +
; 29   : 				szBYTE
; 30   : #if __CONTENTS(__INTERNATIONAL_PREMIUM_SYSTEM)
; 31   : 				+ szBYTE
; 32   : #endif
; 33   : 				;

  00000	8b 51 08	 mov	 edx, DWORD PTR [ecx+8]
  00003	8b 02		 mov	 eax, DWORD PTR [edx]
  00005	56		 push	 esi
  00006	33 f6		 xor	 esi, esi
  00008	eb 03		 jmp	 SHORT $L104025
$L103908:
  0000a	8b 00		 mov	 eax, DWORD PTR [eax]
  0000c	46		 inc	 esi
$L104025:
  0000d	3b c2		 cmp	 eax, edx
  0000f	75 f9		 jne	 SHORT $L103908
  00011	8b 49 1c	 mov	 ecx, DWORD PTR [ecx+28]
  00014	8b 01		 mov	 eax, DWORD PTR [ecx]
  00016	33 d2		 xor	 edx, edx
  00018	eb 03		 jmp	 SHORT $L104026
$L104017:
  0001a	8b 00		 mov	 eax, DWORD PTR [eax]
  0001c	42		 inc	 edx
$L104026:
  0001d	3b c1		 cmp	 eax, ecx
  0001f	75 f9		 jne	 SHORT $L104017
  00021	8d 44 32 16	 lea	 eax, DWORD PTR [edx+esi+22]
  00025	5e		 pop	 esi

; 34   : 	}

  00026	c3		 ret	 0
?getPacketSize@_STASHITEM@@QBEHXZ ENDP			; _STASHITEM::getPacketSize
_TEXT	ENDS
PUBLIC	??0GCStashList@@QAE@XZ				; GCStashList::GCStashList
EXTRN	??_L@YGXPAXIHP6EX0@Z1@Z:NEAR			; `eh vector constructor iterator'
; Function compile flags: /Ogsy
; File c:\darkeden\designed_common\project\client\packet\gpackets\gcstashlist.cpp
;	COMDAT ??0GCStashList@@QAE@XZ
_TEXT	SEGMENT
??0GCStashList@@QAE@XZ PROC NEAR			; GCStashList::GCStashList, COMDAT
; _this$ = ecx

; 28   : {

  00000	56		 push	 esi
  00001	68 00 00 00 00	 push	 OFFSET FLAT:??1_STASHITEM@@QAE@XZ
  00006	68 00 00 00 00	 push	 OFFSET FLAT:??0_STASHITEM@@QAE@XZ
  0000b	8b f1		 mov	 esi, ecx
  0000d	6a 64		 push	 100			; 00000064H
  0000f	6a 24		 push	 36			; 00000024H
  00011	8d 46 68	 lea	 eax, DWORD PTR [esi+104]
  00014	50		 push	 eax
  00015	c7 06 00 00 00
	00		 mov	 DWORD PTR [esi], OFFSET FLAT:??_7GCStashList@@6B@
  0001b	e8 00 00 00 00	 call	 ??_L@YGXPAXIHP6EX0@Z1@Z
  00020	68 00 00 00 00	 push	 OFFSET FLAT:??1?$list@PAVSubItemInfo@@V?$allocator@PAVSubItemInfo@@@_STL@@@_STL@@QAE@XZ ; _STL::list<SubItemInfo *,_STL::allocator<SubItemInfo *> >::~list<SubItemInfo *,_STL::allocator<SubItemInfo *> >
  00025	68 00 00 00 00	 push	 OFFSET FLAT:??_F?$list@PAVSubItemInfo@@V?$allocator@PAVSubItemInfo@@@_STL@@@_STL@@QAEXXZ
  0002a	6a 64		 push	 100			; 00000064H
  0002c	6a 04		 push	 4
  0002e	8d 86 78 0e 00
	00		 lea	 eax, DWORD PTR [esi+3704]
  00034	50		 push	 eax
  00035	e8 00 00 00 00	 call	 ??_L@YGXPAXIHP6EX0@Z1@Z
  0003a	6a 05		 push	 5
  0003c	8d 8e 08 10 00
	00		 lea	 ecx, DWORD PTR [esi+4104]
  00042	5a		 pop	 edx
$L101302:

; 29   : 	__BEGIN_TRY
; 30   :  
; 31   : 	for (int r=0; r<STASH_RACK_MAX; r++)
; 32   : 	{
; 33   : 		for (int i=0; i<STASH_INDEX_MAX; i++)

  00043	33 c0		 xor	 eax, eax
$L101306:

; 34   : 		{
; 35   : 			m_bExist[r][i]       = false;

  00045	c6 84 01 fc ef
	ff ff 00	 mov	 BYTE PTR [ecx+eax-4100], 0

; 36   : 			m_SubItemsCount[r][i] = 0;

  0004d	c6 04 01 00	 mov	 BYTE PTR [ecx+eax], 0
  00051	40		 inc	 eax
  00052	83 f8 14	 cmp	 eax, 20			; 00000014H
  00055	7c ee		 jl	 SHORT $L101306
  00057	83 c1 14	 add	 ecx, 20			; 00000014H
  0005a	4a		 dec	 edx
  0005b	75 e6		 jne	 SHORT $L101302

; 37   : 		}
; 38   : 	}
; 39   : 
; 40   : 	__END_CATCH
; 41   : }

  0005d	8b c6		 mov	 eax, esi
  0005f	5e		 pop	 esi
  00060	c3		 ret	 0
??0GCStashList@@QAE@XZ ENDP				; GCStashList::GCStashList
; Function compile flags: /Ogsy
_TEXT	ENDS
;	COMDAT ??_GGCStashList@@UAEPAXI@Z
_TEXT	SEGMENT
___flags$ = 8						; size = 4
??_GGCStashList@@UAEPAXI@Z PROC NEAR			; GCStashList::`scalar deleting destructor', COMDAT
; _this$ = ecx
  00000	56		 push	 esi
  00001	8b f1		 mov	 esi, ecx
  00003	e8 00 00 00 00	 call	 ??1GCStashList@@UAE@XZ	; GCStashList::~GCStashList
  00008	f6 44 24 08 01	 test	 BYTE PTR ___flags$[esp], 1
  0000d	74 07		 je	 SHORT $L101313
  0000f	56		 push	 esi
  00010	e8 00 00 00 00	 call	 ??3@YAXPAX@Z		; operator delete
  00015	59		 pop	 ecx
$L101313:
  00016	8b c6		 mov	 eax, esi
  00018	5e		 pop	 esi
  00019	c2 04 00	 ret	 4
??_GGCStashList@@UAEPAXI@Z ENDP				; GCStashList::`scalar deleting destructor'
_TEXT	ENDS
EXTRN	?read@SubItemInfo@@QAEXAAVSocketInputStream@@@Z:NEAR ; SubItemInfo::read
; Function compile flags: /Ogsy
;	COMDAT ?read@GCStashList@@UAEXAAVSocketInputStream@@@Z
_TEXT	SEGMENT
_this$ = -24						; size = 4
_pSubItemInfo$101420 = -20				; size = 4
_thirdindex$101411 = -20				; size = 4
_j$101405 = -20						; size = 4
_optionType$101415 = -16				; size = 2
_optionType$101409 = -12				; size = 2
_thirdOptionSize$101410 = -5				; size = 1
_optionSize$101404 = -4					; size = 1
_nTotal$ = -3						; size = 1
_index$ = -2						; size = 1
_rack$ = -1						; size = 1
_iStream$ = 8						; size = 4
_i$ = 11						; size = 1
?read@GCStashList@@UAEXAAVSocketInputStream@@@Z PROC NEAR ; GCStashList::read, COMDAT
; _this$ = ecx

; 72   : {

  00000	55		 push	 ebp
  00001	8b ec		 mov	 ebp, esp
  00003	83 ec 18	 sub	 esp, 24			; 00000018H
  00006	53		 push	 ebx

; 73   : 	__BEGIN_TRY
; 74   : 
; 75   : 	BYTE i      = 0;
; 76   : 	BYTE nTotal = 0;
; 77   : 	BYTE rack   = 0;
; 78   : 	BYTE index  = 0;
; 79   : 	
; 80   : 	//   .
; 81   : 	iStream.read(m_StashNum);

  00007	8b 5d 08	 mov	 ebx, DWORD PTR _iStream$[ebp]
  0000a	57		 push	 edi
  0000b	8b f9		 mov	 edi, ecx
  0000d	6a 01		 push	 1
  0000f	8d 87 70 10 00
	00		 lea	 eax, DWORD PTR [edi+4208]
  00015	50		 push	 eax
  00016	8b cb		 mov	 ecx, ebx
  00018	89 7d e8	 mov	 DWORD PTR _this$[ebp], edi
  0001b	c6 45 fd 00	 mov	 BYTE PTR _nTotal$[ebp], 0
  0001f	c6 45 ff 00	 mov	 BYTE PTR _rack$[ebp], 0
  00023	c6 45 fe 00	 mov	 BYTE PTR _index$[ebp], 0
  00027	e8 00 00 00 00	 call	 ?read@SocketInputStream@@QAEIPADI@Z ; SocketInputStream::read

; 82   : 
; 83   : 	//    .
; 84   : 	iStream.read(nTotal);

  0002c	6a 01		 push	 1
  0002e	8d 45 fd	 lea	 eax, DWORD PTR _nTotal$[ebp]
  00031	50		 push	 eax
  00032	8b cb		 mov	 ecx, ebx
  00034	e8 00 00 00 00	 call	 ?read@SocketInputStream@@QAEIPADI@Z ; SocketInputStream::read

; 85   : 
; 86   : 	//    .
; 87   : 	for (i=0; i<nTotal; i++)

  00039	80 7d fd 00	 cmp	 BYTE PTR _nTotal$[ebp], 0
  0003d	c6 45 0b 00	 mov	 BYTE PTR _i$[ebp], 0
  00041	0f 86 dd 01 00
	00		 jbe	 $L104113
  00047	56		 push	 esi
$L104114:

; 88   : 	{
; 89   : 		
; 90   : 		iStream.read(rack);

  00048	6a 01		 push	 1
  0004a	8d 45 ff	 lea	 eax, DWORD PTR _rack$[ebp]
  0004d	50		 push	 eax
  0004e	8b cb		 mov	 ecx, ebx
  00050	e8 00 00 00 00	 call	 ?read@SocketInputStream@@QAEIPADI@Z ; SocketInputStream::read

; 91   : 		iStream.read(index);

  00055	6a 01		 push	 1
  00057	8d 45 fe	 lea	 eax, DWORD PTR _index$[ebp]
  0005a	50		 push	 eax
  0005b	8b cb		 mov	 ecx, ebx
  0005d	e8 00 00 00 00	 call	 ?read@SocketInputStream@@QAEIPADI@Z ; SocketInputStream::read

; 92   : 		_STASHITEM& item = m_pItems[rack][index];

  00062	0f b6 45 ff	 movzx	 eax, BYTE PTR _rack$[ebp]
  00066	0f b6 4d fe	 movzx	 ecx, BYTE PTR _index$[ebp]
  0006a	8d 04 80	 lea	 eax, DWORD PTR [eax+eax*4]
  0006d	8d 04 81	 lea	 eax, DWORD PTR [ecx+eax*4]
  00070	8d 04 c0	 lea	 eax, DWORD PTR [eax+eax*8]
  00073	8d 74 87 68	 lea	 esi, DWORD PTR [edi+eax*4+104]

; 93   : 
; 94   : 		iStream.read(item.objectID);

  00077	6a 04		 push	 4
  00079	56		 push	 esi
  0007a	8b cb		 mov	 ecx, ebx
  0007c	e8 00 00 00 00	 call	 ?read@SocketInputStream@@QAEIPADI@Z ; SocketInputStream::read

; 95   : 		iStream.read(item.itemClass);

  00081	6a 01		 push	 1
  00083	8d 46 04	 lea	 eax, DWORD PTR [esi+4]
  00086	50		 push	 eax
  00087	8b cb		 mov	 ecx, ebx
  00089	e8 00 00 00 00	 call	 ?read@SocketInputStream@@QAEIPADI@Z ; SocketInputStream::read

; 96   : 		iStream.read(item.itemType);

  0008e	6a 02		 push	 2
  00090	8d 46 06	 lea	 eax, DWORD PTR [esi+6]
  00093	50		 push	 eax
  00094	8b cb		 mov	 ecx, ebx
  00096	e8 00 00 00 00	 call	 ?read@SocketInputStream@@QAEIPADI@Z ; SocketInputStream::read

; 97   : 
; 98   : 		BYTE optionSize;
; 99   : 		iStream.read(optionSize);

  0009b	6a 01		 push	 1
  0009d	8d 45 fc	 lea	 eax, DWORD PTR _optionSize$101404[ebp]
  000a0	50		 push	 eax
  000a1	8b cb		 mov	 ecx, ebx
  000a3	e8 00 00 00 00	 call	 ?read@SocketInputStream@@QAEIPADI@Z ; SocketInputStream::read

; 100  : 		for (int j=0; j<optionSize; j++)

  000a8	83 65 ec 00	 and	 DWORD PTR _j$101405[ebp], 0
  000ac	80 7d fc 00	 cmp	 BYTE PTR _optionSize$101404[ebp], 0
  000b0	76 25		 jbe	 SHORT $L101408
$L101406:

; 101  : 		{
; 102  : 			OptionType_t optionType;
; 103  : 			iStream.read(optionType);

  000b2	6a 02		 push	 2
  000b4	8d 45 f4	 lea	 eax, DWORD PTR _optionType$101409[ebp]
  000b7	50		 push	 eax
  000b8	8b cb		 mov	 ecx, ebx
  000ba	e8 00 00 00 00	 call	 ?read@SocketInputStream@@QAEIPADI@Z ; SocketInputStream::read

; 104  : 			item.optionType.push_back( optionType );

  000bf	8d 45 f4	 lea	 eax, DWORD PTR _optionType$101409[ebp]
  000c2	50		 push	 eax
  000c3	8d 4e 08	 lea	 ecx, DWORD PTR [esi+8]
  000c6	e8 00 00 00 00	 call	 ?push_back@?$list@GV?$allocator@G@_STL@@@_STL@@QAEXABG@Z ; _STL::list<unsigned short,_STL::allocator<unsigned short> >::push_back
  000cb	0f b6 45 fc	 movzx	 eax, BYTE PTR _optionSize$101404[ebp]
  000cf	ff 45 ec	 inc	 DWORD PTR _j$101405[ebp]
  000d2	39 45 ec	 cmp	 DWORD PTR _j$101405[ebp], eax
  000d5	7c db		 jl	 SHORT $L101406
$L101408:

; 105  : 		}
; 106  : 
; 107  : 		iStream.read(item.durability);

  000d7	6a 04		 push	 4
  000d9	8d 46 0c	 lea	 eax, DWORD PTR [esi+12]
  000dc	50		 push	 eax
  000dd	8b cb		 mov	 ecx, ebx
  000df	e8 00 00 00 00	 call	 ?read@SocketInputStream@@QAEIPADI@Z ; SocketInputStream::read

; 108  : 		iStream.read(item.num);

  000e4	6a 01		 push	 1
  000e6	8d 46 10	 lea	 eax, DWORD PTR [esi+16]
  000e9	50		 push	 eax
  000ea	8b cb		 mov	 ecx, ebx
  000ec	e8 00 00 00 00	 call	 ?read@SocketInputStream@@QAEIPADI@Z ; SocketInputStream::read

; 109  : 		iStream.read(item.silver);

  000f1	6a 02		 push	 2
  000f3	8d 46 12	 lea	 eax, DWORD PTR [esi+18]
  000f6	50		 push	 eax
  000f7	8b cb		 mov	 ecx, ebx
  000f9	e8 00 00 00 00	 call	 ?read@SocketInputStream@@QAEIPADI@Z ; SocketInputStream::read

; 110  : 		iStream.read(item.grade);

  000fe	6a 04		 push	 4
  00100	8d 46 14	 lea	 eax, DWORD PTR [esi+20]
  00103	50		 push	 eax
  00104	8b cb		 mov	 ecx, ebx
  00106	e8 00 00 00 00	 call	 ?read@SocketInputStream@@QAEIPADI@Z ; SocketInputStream::read

; 111  : 		iStream.read(item.enchantLevel);

  0010b	6a 01		 push	 1
  0010d	8d 46 18	 lea	 eax, DWORD PTR [esi+24]
  00110	50		 push	 eax
  00111	8b cb		 mov	 ecx, ebx
  00113	e8 00 00 00 00	 call	 ?read@SocketInputStream@@QAEIPADI@Z ; SocketInputStream::read

; 112  : 		BYTE thirdOptionSize;
; 113  : 		iStream.read( thirdOptionSize );

  00118	6a 01		 push	 1
  0011a	8d 45 fb	 lea	 eax, DWORD PTR _thirdOptionSize$101410[ebp]
  0011d	50		 push	 eax
  0011e	8b cb		 mov	 ecx, ebx
  00120	e8 00 00 00 00	 call	 ?read@SocketInputStream@@QAEIPADI@Z ; SocketInputStream::read

; 114  : 		//20071009 by diesirace   
; 115  : 		item.thirdOptionType.clear();

  00125	8d 4e 1c	 lea	 ecx, DWORD PTR [esi+28]
  00128	e8 00 00 00 00	 call	 ?clear@?$_List_base@GV?$allocator@G@_STL@@@_STL@@QAEXXZ ; _STL::_List_base<unsigned short,_STL::allocator<unsigned short> >::clear

; 116  : 		for (int thirdindex = 0; thirdindex < thirdOptionSize; thirdindex++) 

  0012d	83 65 ec 00	 and	 DWORD PTR _thirdindex$101411[ebp], 0
  00131	80 7d fb 00	 cmp	 BYTE PTR _thirdOptionSize$101410[ebp], 0
  00135	76 25		 jbe	 SHORT $L101414
$L101412:

; 117  : 		{
; 118  : 			OptionType_t optionType;
; 119  : 			iStream.read( optionType );

  00137	6a 02		 push	 2
  00139	8d 45 f0	 lea	 eax, DWORD PTR _optionType$101415[ebp]
  0013c	50		 push	 eax
  0013d	8b cb		 mov	 ecx, ebx
  0013f	e8 00 00 00 00	 call	 ?read@SocketInputStream@@QAEIPADI@Z ; SocketInputStream::read

; 120  : 			item.thirdOptionType.push_back( optionType );

  00144	8d 45 f0	 lea	 eax, DWORD PTR _optionType$101415[ebp]
  00147	50		 push	 eax
  00148	8d 4e 1c	 lea	 ecx, DWORD PTR [esi+28]
  0014b	e8 00 00 00 00	 call	 ?push_back@?$list@GV?$allocator@G@_STL@@@_STL@@QAEXABG@Z ; _STL::list<unsigned short,_STL::allocator<unsigned short> >::push_back
  00150	0f b6 45 fb	 movzx	 eax, BYTE PTR _thirdOptionSize$101410[ebp]
  00154	ff 45 ec	 inc	 DWORD PTR _thirdindex$101411[ebp]
  00157	39 45 ec	 cmp	 DWORD PTR _thirdindex$101411[ebp], eax
  0015a	7c db		 jl	 SHORT $L101412
$L101414:

; 121  : 		}
; 122  : 		
; 123  : 		iStream.read( item.thirdEnchantType );

  0015c	6a 01		 push	 1
  0015e	83 c6 20	 add	 esi, 32			; 00000020H
  00161	56		 push	 esi
  00162	8b cb		 mov	 ecx, ebx
  00164	e8 00 00 00 00	 call	 ?read@SocketInputStream@@QAEIPADI@Z ; SocketInputStream::read

; 124  : #if __CONTENTS(__INTERNATIONAL_PREMIUM_SYSTEM)
; 125  : 		iStream.read(item.cashItem);
; 126  : #endif		
; 127  : 		// sub   .
; 128  : 		iStream.read( m_SubItemsCount[rack][index] );

  00169	0f b6 45 ff	 movzx	 eax, BYTE PTR _rack$[ebp]
  0016d	0f b6 4d fe	 movzx	 ecx, BYTE PTR _index$[ebp]

; 137  : 	}
; 138  : 
; 139  : 	//   .
; 140  : 	iStream.read(m_StashGold);

  00171	03 cf		 add	 ecx, edi
  00173	8d 04 80	 lea	 eax, DWORD PTR [eax+eax*4]
  00176	8d 84 81 08 10
	00 00		 lea	 eax, DWORD PTR [ecx+eax*4+4104]
  0017d	6a 01		 push	 1
  0017f	50		 push	 eax
  00180	8b cb		 mov	 ecx, ebx
  00182	e8 00 00 00 00	 call	 ?read@SocketInputStream@@QAEIPADI@Z ; SocketInputStream::read
  00187	0f b6 45 ff	 movzx	 eax, BYTE PTR _rack$[ebp]
  0018b	0f b6 4d fe	 movzx	 ecx, BYTE PTR _index$[ebp]
  0018f	8d 04 80	 lea	 eax, DWORD PTR [eax+eax*4]
  00192	03 cf		 add	 ecx, edi
  00194	33 f6		 xor	 esi, esi
  00196	80 bc 81 08 10
	00 00 00	 cmp	 BYTE PTR [ecx+eax*4+4104], 0
  0019e	76 62		 jbe	 SHORT $L101419
$L101417:

; 129  : 		for (int s=0; s < m_SubItemsCount[rack][index]; s++)
; 130  : 		{
; 131  : 			SubItemInfo* pSubItemInfo = new SubItemInfo();

  001a0	6a 0c		 push	 12			; 0000000cH
  001a2	e8 00 00 00 00	 call	 ??2@YAPAXI@Z		; operator new
  001a7	59		 pop	 ecx
  001a8	8b c8		 mov	 ecx, eax
  001aa	85 c9		 test	 ecx, ecx
  001ac	74 0f		 je	 SHORT $L104045
  001ae	33 c0		 xor	 eax, eax
  001b0	8b f9		 mov	 edi, ecx
  001b2	ab		 stosd
  001b3	ab		 stosd
  001b4	ab		 stosd
  001b5	8b 7d e8	 mov	 edi, DWORD PTR _this$[ebp]
  001b8	89 4d ec	 mov	 DWORD PTR _pSubItemInfo$101420[ebp], ecx
  001bb	eb 04		 jmp	 SHORT $L104046
$L104045:
  001bd	83 65 ec 00	 and	 DWORD PTR _pSubItemInfo$101420[ebp], 0
$L104046:

; 132  : 			pSubItemInfo->read(iStream);

  001c1	8b 4d ec	 mov	 ecx, DWORD PTR _pSubItemInfo$101420[ebp]
  001c4	53		 push	 ebx
  001c5	e8 00 00 00 00	 call	 ?read@SubItemInfo@@QAEXAAVSocketInputStream@@@Z ; SubItemInfo::read

; 133  : 			m_pSubItems[rack][index].push_back(pSubItemInfo);

  001ca	0f b6 4d fe	 movzx	 ecx, BYTE PTR _index$[ebp]
  001ce	8d 45 ec	 lea	 eax, DWORD PTR _pSubItemInfo$101420[ebp]
  001d1	50		 push	 eax
  001d2	0f b6 45 ff	 movzx	 eax, BYTE PTR _rack$[ebp]
  001d6	8d 04 80	 lea	 eax, DWORD PTR [eax+eax*4]
  001d9	8d 04 81	 lea	 eax, DWORD PTR [ecx+eax*4]
  001dc	8d 8c 87 78 0e
	00 00		 lea	 ecx, DWORD PTR [edi+eax*4+3704]
  001e3	e8 00 00 00 00	 call	 ?push_back@?$list@PAVSubItemInfo@@V?$allocator@PAVSubItemInfo@@@_STL@@@_STL@@QAEXABQAVSubItemInfo@@@Z ; _STL::list<SubItemInfo *,_STL::allocator<SubItemInfo *> >::push_back
  001e8	0f b6 45 ff	 movzx	 eax, BYTE PTR _rack$[ebp]
  001ec	0f b6 4d fe	 movzx	 ecx, BYTE PTR _index$[ebp]
  001f0	03 cf		 add	 ecx, edi
  001f2	8d 04 80	 lea	 eax, DWORD PTR [eax+eax*4]
  001f5	0f b6 84 81 08
	10 00 00	 movzx	 eax, BYTE PTR [ecx+eax*4+4104]
  001fd	46		 inc	 esi
  001fe	3b f0		 cmp	 esi, eax
  00200	7c 9e		 jl	 SHORT $L101417
$L101419:

; 134  : 		}
; 135  : 		
; 136  : 		m_bExist[rack][index] = true;

  00202	0f b6 45 ff	 movzx	 eax, BYTE PTR _rack$[ebp]
  00206	0f b6 4d fe	 movzx	 ecx, BYTE PTR _index$[ebp]
  0020a	03 cf		 add	 ecx, edi
  0020c	fe 45 0b	 inc	 BYTE PTR _i$[ebp]
  0020f	8d 04 80	 lea	 eax, DWORD PTR [eax+eax*4]
  00212	c6 44 81 04 01	 mov	 BYTE PTR [ecx+eax*4+4], 1
  00217	8a 45 0b	 mov	 al, BYTE PTR _i$[ebp]
  0021a	3a 45 fd	 cmp	 al, BYTE PTR _nTotal$[ebp]
  0021d	0f 82 25 fe ff
	ff		 jb	 $L104114
  00223	5e		 pop	 esi
$L104113:

; 137  : 	}
; 138  : 
; 139  : 	//   .
; 140  : 	iStream.read(m_StashGold);

  00224	6a 04		 push	 4
  00226	81 c7 6c 10 00
	00		 add	 edi, 4204		; 0000106cH
  0022c	57		 push	 edi
  0022d	8b cb		 mov	 ecx, ebx
  0022f	e8 00 00 00 00	 call	 ?read@SocketInputStream@@QAEIPADI@Z ; SocketInputStream::read
  00234	5f		 pop	 edi
  00235	5b		 pop	 ebx

; 141  : 
; 142  : 	__END_CATCH
; 143  : }

  00236	c9		 leave
  00237	c2 04 00	 ret	 4
?read@GCStashList@@UAEXAAVSocketInputStream@@@Z ENDP	; GCStashList::read
_TEXT	ENDS
EXTRN	?write@SubItemInfo@@QBEXAAVSocketOutputStream@@@Z:NEAR ; SubItemInfo::write
; Function compile flags: /Ogsy
;	COMDAT ?write@GCStashList@@UBEXAAVSocketOutputStream@@@Z
_TEXT	SEGMENT
$T104507 = -24						; size = 2
$T104335 = -24						; size = 2
$T104323 = -24						; size = 2
$T104151 = -24						; size = 2
$T104339 = -24						; size = 4
$T104327 = -24						; size = 4
$T104143 = -24						; size = 4
_this$ = -20						; size = 4
tv873 = -16						; size = 4
tv843 = -12						; size = 4
$T104515 = -8						; size = 1
$T104456 = -8						; size = 1
$T104511 = -8						; size = 1
$T104343 = -8						; size = 1
$T104331 = -8						; size = 1
$T104264 = -8						; size = 1
$T104147 = -8						; size = 1
$T104139 = -8						; size = 1
$T104135 = -8						; size = 1
$T104127 = -8						; size = 1
_nTotal$ = -1						; size = 1
_r$ = -1						; size = 1
$T104569 = 8						; size = 4
_oStream$ = 8						; size = 4
$T104131 = 11						; size = 1
_i$ = 11						; size = 1
?write@GCStashList@@UBEXAAVSocketOutputStream@@@Z PROC NEAR ; GCStashList::write, COMDAT
; _this$ = ecx

; 151  : {

  00000	55		 push	 ebp
  00001	8b ec		 mov	 ebp, esp
  00003	83 ec 18	 sub	 esp, 24			; 00000018H
  00006	53		 push	 ebx
  00007	56		 push	 esi
  00008	57		 push	 edi
  00009	8b d9		 mov	 ebx, ecx

; 152  : 	__BEGIN_TRY
; 153  : 	__BEGIN_DEBUG
; 154  : 		
; 155  : 	BYTE r = 0;
; 156  : 	BYTE i = 0;
; 157  : 	BYTE nTotal = 0;

  0000b	6a 05		 push	 5
  0000d	89 5d ec	 mov	 DWORD PTR _this$[ebp], ebx
  00010	c6 45 ff 00	 mov	 BYTE PTR _nTotal$[ebp], 0
  00014	8d 43 04	 lea	 eax, DWORD PTR [ebx+4]
  00017	5f		 pop	 edi
$L101434:

; 161  : 		for (i=0; i<STASH_INDEX_MAX; i++)

  00018	6a 14		 push	 20			; 00000014H
  0001a	5e		 pop	 esi
$L101437:

; 162  : 			if (m_bExist[r][i]) nTotal++;

  0001b	80 38 00	 cmp	 BYTE PTR [eax], 0
  0001e	74 03		 je	 SHORT $L101438
  00020	fe 45 ff	 inc	 BYTE PTR _nTotal$[ebp]
$L101438:

; 161  : 		for (i=0; i<STASH_INDEX_MAX; i++)

  00023	40		 inc	 eax
  00024	4e		 dec	 esi
  00025	75 f4		 jne	 SHORT $L101437

; 158  : 	
; 159  : 	//    .
; 160  : 	for (r=0; r<STASH_RACK_MAX; r++)

  00027	4f		 dec	 edi
  00028	75 ee		 jne	 SHORT $L101434

; 163  : 		
; 164  : 	//   .
; 165  : 	oStream.write(m_StashNum);

  0002a	8a 83 70 10 00
	00		 mov	 al, BYTE PTR [ebx+4208]
  00030	8b 7d 08	 mov	 edi, DWORD PTR _oStream$[ebp]
  00033	88 45 f8	 mov	 BYTE PTR $T104127[ebp], al
  00036	6a 01		 push	 1
  00038	8d 45 f8	 lea	 eax, DWORD PTR $T104127[ebp]
  0003b	50		 push	 eax
  0003c	8b cf		 mov	 ecx, edi
  0003e	e8 00 00 00 00	 call	 ?write@SocketOutputStream@@QAEIPBDI@Z ; SocketOutputStream::write

; 166  : 
; 167  : 	//    
; 168  : 	oStream.write(nTotal);

  00043	8a 45 ff	 mov	 al, BYTE PTR _nTotal$[ebp]
  00046	88 45 0b	 mov	 BYTE PTR $T104131[ebp], al
  00049	6a 01		 push	 1
  0004b	8d 45 0b	 lea	 eax, DWORD PTR $T104131[ebp]
  0004e	50		 push	 eax
  0004f	8b cf		 mov	 ecx, edi
  00051	e8 00 00 00 00	 call	 ?write@SocketOutputStream@@QAEIPBDI@Z ; SocketOutputStream::write

; 169  : 
; 170  : 	// write each item info
; 171  : 	for (r=0; r<STASH_RACK_MAX; r++)

  00056	c6 45 ff 00	 mov	 BYTE PTR _r$[ebp], 0
  0005a	8d 73 70	 lea	 esi, DWORD PTR [ebx+112]
  0005d	8d 8b 78 0e 00
	00		 lea	 ecx, DWORD PTR [ebx+3704]
  00063	8d 83 08 10 00
	00		 lea	 eax, DWORD PTR [ebx+4104]
$L101441:

; 172  : 	{
; 173  : 		for (i=0; i<STASH_INDEX_MAX; i++)

  00069	c6 45 0b 00	 mov	 BYTE PTR _i$[ebp], 0
  0006d	89 45 f4	 mov	 DWORD PTR tv843[ebp], eax
  00070	89 4d f0	 mov	 DWORD PTR tv873[ebp], ecx
$L101444:

; 174  : 		{
; 175  : 			if (m_bExist[r][i])

  00073	8b 45 f4	 mov	 eax, DWORD PTR tv843[ebp]
  00076	80 b8 fc ef ff
	ff 00		 cmp	 BYTE PTR [eax-4100], 0
  0007d	0f 84 98 01 00
	00		 je	 $L101445

; 176  : 			{
; 177  : 				const _STASHITEM& item = m_pItems[r][i];
; 178  : 				oStream.write(r);

  00083	8a 45 ff	 mov	 al, BYTE PTR _r$[ebp]
  00086	33 db		 xor	 ebx, ebx
  00088	88 45 f8	 mov	 BYTE PTR $T104135[ebp], al
  0008b	43		 inc	 ebx
  0008c	53		 push	 ebx
  0008d	8d 45 f8	 lea	 eax, DWORD PTR $T104135[ebp]
  00090	50		 push	 eax
  00091	8b cf		 mov	 ecx, edi
  00093	e8 00 00 00 00	 call	 ?write@SocketOutputStream@@QAEIPBDI@Z ; SocketOutputStream::write

; 179  : 				oStream.write(i);

  00098	8a 45 0b	 mov	 al, BYTE PTR _i$[ebp]
  0009b	88 45 f8	 mov	 BYTE PTR $T104139[ebp], al
  0009e	53		 push	 ebx
  0009f	8d 45 f8	 lea	 eax, DWORD PTR $T104139[ebp]
  000a2	50		 push	 eax
  000a3	8b cf		 mov	 ecx, edi
  000a5	e8 00 00 00 00	 call	 ?write@SocketOutputStream@@QAEIPBDI@Z ; SocketOutputStream::write

; 180  : 				oStream.write(item.objectID);

  000aa	8b 46 f8	 mov	 eax, DWORD PTR [esi-8]
  000ad	89 45 e8	 mov	 DWORD PTR $T104143[ebp], eax
  000b0	6a 04		 push	 4
  000b2	8d 45 e8	 lea	 eax, DWORD PTR $T104143[ebp]
  000b5	50		 push	 eax
  000b6	8b cf		 mov	 ecx, edi
  000b8	e8 00 00 00 00	 call	 ?write@SocketOutputStream@@QAEIPBDI@Z ; SocketOutputStream::write

; 181  : 				oStream.write(item.itemClass);

  000bd	8a 46 fc	 mov	 al, BYTE PTR [esi-4]
  000c0	88 45 f8	 mov	 BYTE PTR $T104147[ebp], al
  000c3	53		 push	 ebx
  000c4	8d 45 f8	 lea	 eax, DWORD PTR $T104147[ebp]
  000c7	50		 push	 eax
  000c8	8b cf		 mov	 ecx, edi
  000ca	e8 00 00 00 00	 call	 ?write@SocketOutputStream@@QAEIPBDI@Z ; SocketOutputStream::write

; 182  : 				oStream.write(item.itemType);

  000cf	33 c0		 xor	 eax, eax
  000d1	66 8b 46 fe	 mov	 ax, WORD PTR [esi-2]
  000d5	6a 02		 push	 2
  000d7	8b cf		 mov	 ecx, edi
  000d9	89 45 e8	 mov	 DWORD PTR $T104151[ebp], eax
  000dc	8d 45 e8	 lea	 eax, DWORD PTR $T104151[ebp]
  000df	50		 push	 eax
  000e0	e8 00 00 00 00	 call	 ?write@SocketOutputStream@@QAEIPBDI@Z ; SocketOutputStream::write

; 183  : 
; 184  : 				BYTE optionSize = item.optionType.size();

  000e5	8b 06		 mov	 eax, DWORD PTR [esi]
  000e7	8b 08		 mov	 ecx, DWORD PTR [eax]
  000e9	33 d2		 xor	 edx, edx
  000eb	eb 03		 jmp	 SHORT $L104589
$L104257:
  000ed	8b 09		 mov	 ecx, DWORD PTR [ecx]
  000ef	42		 inc	 edx
$L104589:
  000f0	3b c8		 cmp	 ecx, eax
  000f2	75 f9		 jne	 SHORT $L104257

; 185  : 				oStream.write(optionSize);

  000f4	53		 push	 ebx
  000f5	8d 45 f8	 lea	 eax, DWORD PTR $T104264[ebp]
  000f8	50		 push	 eax
  000f9	8b cf		 mov	 ecx, edi
  000fb	88 55 f8	 mov	 BYTE PTR $T104264[ebp], dl
  000fe	e8 00 00 00 00	 call	 ?write@SocketOutputStream@@QAEIPBDI@Z ; SocketOutputStream::write

; 186  : 				std::list<OptionType_t>::const_iterator iOption;
; 187  : 				for (iOption=item.optionType.begin(); iOption!=item.optionType.end(); iOption++)

  00103	8b 06		 mov	 eax, DWORD PTR [esi]
  00105	8b 18		 mov	 ebx, DWORD PTR [eax]
  00107	3b d8		 cmp	 ebx, eax
  00109	74 1c		 je	 SHORT $L101498
$L104293:

; 188  : 				{
; 189  : 					OptionType_t optionType = *iOption;
; 190  : 					oStream.write(optionType);

  0010b	33 c0		 xor	 eax, eax
  0010d	66 8b 43 08	 mov	 ax, WORD PTR [ebx+8]
  00111	6a 02		 push	 2
  00113	8b cf		 mov	 ecx, edi
  00115	89 45 e8	 mov	 DWORD PTR $T104323[ebp], eax
  00118	8d 45 e8	 lea	 eax, DWORD PTR $T104323[ebp]
  0011b	50		 push	 eax
  0011c	e8 00 00 00 00	 call	 ?write@SocketOutputStream@@QAEIPBDI@Z ; SocketOutputStream::write
  00121	8b 1b		 mov	 ebx, DWORD PTR [ebx]
  00123	3b 1e		 cmp	 ebx, DWORD PTR [esi]
  00125	75 e4		 jne	 SHORT $L104293
$L101498:

; 191  : 				}
; 192  : 
; 193  : 				oStream.write(item.durability);

  00127	8b 46 04	 mov	 eax, DWORD PTR [esi+4]
  0012a	89 45 e8	 mov	 DWORD PTR $T104327[ebp], eax
  0012d	6a 04		 push	 4
  0012f	8d 45 e8	 lea	 eax, DWORD PTR $T104327[ebp]
  00132	50		 push	 eax
  00133	8b cf		 mov	 ecx, edi
  00135	e8 00 00 00 00	 call	 ?write@SocketOutputStream@@QAEIPBDI@Z ; SocketOutputStream::write

; 194  : 				oStream.write(item.num);

  0013a	8a 46 08	 mov	 al, BYTE PTR [esi+8]
  0013d	88 45 f8	 mov	 BYTE PTR $T104331[ebp], al
  00140	6a 01		 push	 1
  00142	8d 45 f8	 lea	 eax, DWORD PTR $T104331[ebp]
  00145	50		 push	 eax
  00146	8b cf		 mov	 ecx, edi
  00148	e8 00 00 00 00	 call	 ?write@SocketOutputStream@@QAEIPBDI@Z ; SocketOutputStream::write

; 195  : 				oStream.write(item.silver);

  0014d	33 c0		 xor	 eax, eax
  0014f	66 8b 46 0a	 mov	 ax, WORD PTR [esi+10]
  00153	6a 02		 push	 2
  00155	8b cf		 mov	 ecx, edi
  00157	89 45 e8	 mov	 DWORD PTR $T104335[ebp], eax
  0015a	8d 45 e8	 lea	 eax, DWORD PTR $T104335[ebp]
  0015d	50		 push	 eax
  0015e	e8 00 00 00 00	 call	 ?write@SocketOutputStream@@QAEIPBDI@Z ; SocketOutputStream::write

; 196  : 				oStream.write(item.grade);

  00163	8b 46 0c	 mov	 eax, DWORD PTR [esi+12]
  00166	89 45 e8	 mov	 DWORD PTR $T104339[ebp], eax
  00169	6a 04		 push	 4
  0016b	8d 45 e8	 lea	 eax, DWORD PTR $T104339[ebp]
  0016e	50		 push	 eax
  0016f	8b cf		 mov	 ecx, edi
  00171	e8 00 00 00 00	 call	 ?write@SocketOutputStream@@QAEIPBDI@Z ; SocketOutputStream::write

; 197  : 				oStream.write(item.enchantLevel);

  00176	8a 46 10	 mov	 al, BYTE PTR [esi+16]
  00179	88 45 f8	 mov	 BYTE PTR $T104343[ebp], al
  0017c	6a 01		 push	 1
  0017e	8d 45 f8	 lea	 eax, DWORD PTR $T104343[ebp]
  00181	50		 push	 eax
  00182	8b cf		 mov	 ecx, edi
  00184	e8 00 00 00 00	 call	 ?write@SocketOutputStream@@QAEIPBDI@Z ; SocketOutputStream::write

; 198  : 				BYTE thirdOptionSize = item.thirdOptionType.size();

  00189	8b 46 14	 mov	 eax, DWORD PTR [esi+20]
  0018c	8b 08		 mov	 ecx, DWORD PTR [eax]
  0018e	33 d2		 xor	 edx, edx
  00190	eb 03		 jmp	 SHORT $L104590
$L104450:
  00192	8b 09		 mov	 ecx, DWORD PTR [ecx]
  00194	42		 inc	 edx
$L104590:
  00195	3b c8		 cmp	 ecx, eax
  00197	75 f9		 jne	 SHORT $L104450

; 199  : 				oStream.write( thirdOptionSize );

  00199	6a 01		 push	 1
  0019b	8d 45 f8	 lea	 eax, DWORD PTR $T104456[ebp]
  0019e	50		 push	 eax
  0019f	8b cf		 mov	 ecx, edi
  001a1	88 55 f8	 mov	 BYTE PTR $T104456[ebp], dl
  001a4	e8 00 00 00 00	 call	 ?write@SocketOutputStream@@QAEIPBDI@Z ; SocketOutputStream::write

; 200  : 				
; 201  : 				std::list<OptionType_t>::const_iterator iThirdOption = item.thirdOptionType.begin();

  001a9	8b 46 14	 mov	 eax, DWORD PTR [esi+20]
  001ac	8b 18		 mov	 ebx, DWORD PTR [eax]

; 202  : 				for (; iThirdOption!= item.thirdOptionType.end(); iThirdOption++) 

  001ae	3b d8		 cmp	 ebx, eax
  001b0	74 1d		 je	 SHORT $L101547
$L104480:

; 203  : 				{
; 204  : 					OptionType_t optionType = *iThirdOption;
; 205  : 					oStream.write( optionType );

  001b2	33 c0		 xor	 eax, eax
  001b4	66 8b 43 08	 mov	 ax, WORD PTR [ebx+8]
  001b8	6a 02		 push	 2
  001ba	8b cf		 mov	 ecx, edi
  001bc	89 45 e8	 mov	 DWORD PTR $T104507[ebp], eax
  001bf	8d 45 e8	 lea	 eax, DWORD PTR $T104507[ebp]
  001c2	50		 push	 eax
  001c3	e8 00 00 00 00	 call	 ?write@SocketOutputStream@@QAEIPBDI@Z ; SocketOutputStream::write
  001c8	8b 1b		 mov	 ebx, DWORD PTR [ebx]
  001ca	3b 5e 14	 cmp	 ebx, DWORD PTR [esi+20]
  001cd	75 e3		 jne	 SHORT $L104480
$L101547:

; 206  : 				}
; 207  : 				oStream.write( item.thirdEnchantType );

  001cf	8a 46 18	 mov	 al, BYTE PTR [esi+24]
  001d2	88 45 f8	 mov	 BYTE PTR $T104511[ebp], al
  001d5	6a 01		 push	 1
  001d7	8d 45 f8	 lea	 eax, DWORD PTR $T104511[ebp]
  001da	50		 push	 eax
  001db	8b cf		 mov	 ecx, edi
  001dd	e8 00 00 00 00	 call	 ?write@SocketOutputStream@@QAEIPBDI@Z ; SocketOutputStream::write

; 208  : #if __CONTENTS(__INTERNATIONAL_PREMIUM_SYSTEM)
; 209  : 				oStream.write(item.cashItem);
; 210  : #endif
; 211  : 				// sub   .
; 212  : 				oStream.write(m_SubItemsCount[r][i]);

  001e2	8b 45 f4	 mov	 eax, DWORD PTR tv843[ebp]
  001e5	8a 00		 mov	 al, BYTE PTR [eax]
  001e7	88 45 f8	 mov	 BYTE PTR $T104515[ebp], al
  001ea	6a 01		 push	 1
  001ec	8d 45 f8	 lea	 eax, DWORD PTR $T104515[ebp]
  001ef	50		 push	 eax
  001f0	8b cf		 mov	 ecx, edi
  001f2	e8 00 00 00 00	 call	 ?write@SocketOutputStream@@QAEIPBDI@Z ; SocketOutputStream::write

; 213  : 
; 214  : 				std::list<SubItemInfo*>::const_iterator itr = m_pSubItems[r][i].begin();

  001f7	8b 45 f0	 mov	 eax, DWORD PTR tv873[ebp]
  001fa	8b 00		 mov	 eax, DWORD PTR [eax]
  001fc	8b 18		 mov	 ebx, DWORD PTR [eax]

; 215  : 				for (; itr != m_pSubItems[r][i].end(); itr++)

  001fe	3b d8		 cmp	 ebx, eax
  00200	74 16		 je	 SHORT $L104588
$L104539:

; 216  : 				{
; 217  : 					if (*itr) (*itr)->write(oStream);

  00202	8b 4b 08	 mov	 ecx, DWORD PTR [ebx+8]
  00205	85 c9		 test	 ecx, ecx
  00207	74 06		 je	 SHORT $L101596
  00209	57		 push	 edi
  0020a	e8 00 00 00 00	 call	 ?write@SubItemInfo@@QBEXAAVSocketOutputStream@@@Z ; SubItemInfo::write
$L101596:
  0020f	8b 1b		 mov	 ebx, DWORD PTR [ebx]
  00211	8b 45 f0	 mov	 eax, DWORD PTR tv873[ebp]
  00214	3b 18		 cmp	 ebx, DWORD PTR [eax]
  00216	75 ea		 jne	 SHORT $L104539
$L104588:

; 215  : 				for (; itr != m_pSubItems[r][i].end(); itr++)

  00218	8b 5d ec	 mov	 ebx, DWORD PTR _this$[ebp]
$L101445:

; 172  : 	{
; 173  : 		for (i=0; i<STASH_INDEX_MAX; i++)

  0021b	fe 45 0b	 inc	 BYTE PTR _i$[ebp]
  0021e	83 45 f0 04	 add	 DWORD PTR tv873[ebp], 4
  00222	83 c6 24	 add	 esi, 36			; 00000024H
  00225	ff 45 f4	 inc	 DWORD PTR tv843[ebp]
  00228	80 7d 0b 14	 cmp	 BYTE PTR _i$[ebp], 20	; 00000014H
  0022c	0f 82 41 fe ff
	ff		 jb	 $L101444
  00232	fe 45 ff	 inc	 BYTE PTR _r$[ebp]
  00235	80 7d ff 05	 cmp	 BYTE PTR _r$[ebp], 5
  00239	8b 45 f4	 mov	 eax, DWORD PTR tv843[ebp]
  0023c	8b 4d f0	 mov	 ecx, DWORD PTR tv873[ebp]
  0023f	0f 82 24 fe ff
	ff		 jb	 $L101441

; 218  : 				}
; 219  : 			}
; 220  : 		}
; 221  : 	}
; 222  : 
; 223  : 	//   .
; 224  : 	oStream.write(m_StashGold);

  00245	8b 83 6c 10 00
	00		 mov	 eax, DWORD PTR [ebx+4204]
  0024b	89 45 08	 mov	 DWORD PTR $T104569[ebp], eax
  0024e	6a 04		 push	 4
  00250	8d 45 08	 lea	 eax, DWORD PTR $T104569[ebp]
  00253	50		 push	 eax
  00254	8b cf		 mov	 ecx, edi
  00256	e8 00 00 00 00	 call	 ?write@SocketOutputStream@@QAEIPBDI@Z ; SocketOutputStream::write
  0025b	5f		 pop	 edi
  0025c	5e		 pop	 esi
  0025d	5b		 pop	 ebx

; 225  : 	
; 226  : 	__END_DEBUG
; 227  : 	__END_CATCH
; 228  : }

  0025e	c9		 leave
  0025f	c2 04 00	 ret	 4
?write@GCStashList@@UBEXAAVSocketOutputStream@@@Z ENDP	; GCStashList::write
; Function compile flags: /Ogsy
_TEXT	ENDS
;	COMDAT ?getPacketSize@GCStashList@@UBEIXZ
_TEXT	SEGMENT
tv288 = -8						; size = 4
tv222 = -4						; size = 4
?getPacketSize@GCStashList@@UBEIXZ PROC NEAR		; GCStashList::getPacketSize, COMDAT
; _this$ = ecx

; 249  : { 

  00000	55		 push	 ebp
  00001	8b ec		 mov	 ebp, esp
  00003	51		 push	 ecx
  00004	51		 push	 ecx
  00005	53		 push	 ebx
  00006	56		 push	 esi
  00007	57		 push	 edi

; 250  : 	__BEGIN_TRY
; 251  : 	__BEGIN_DEBUG
; 252  : 
; 253  : 	PacketSize_t size = szBYTE; //  
; 254  : 
; 255  : 	size += szBYTE; //   

  00008	6a 02		 push	 2
  0000a	5b		 pop	 ebx
  0000b	8b f9		 mov	 edi, ecx
  0000d	8d 41 68	 lea	 eax, DWORD PTR [ecx+104]
  00010	c7 45 f8 05 00
	00 00		 mov	 DWORD PTR tv288[ebp], 5
$L101616:

; 256  : 
; 257  : 	for (int r=0; r<STASH_RACK_MAX; r++)
; 258  : 	{
; 259  : 		for (int i=0; i<STASH_INDEX_MAX; i++)

  00017	33 f6		 xor	 esi, esi
  00019	89 45 fc	 mov	 DWORD PTR tv222[ebp], eax
$L101620:

; 260  : 		{
; 261  : 			if (m_bExist[r][i]) 

  0001c	80 7c 37 04 00	 cmp	 BYTE PTR [edi+esi+4], 0
  00021	74 19		 je	 SHORT $L101621

; 262  : 			{
; 263  : 				// rack 
; 264  : 				size += szBYTE*2; 
; 265  : 
; 266  : 				//  
; 267  : 				/*
; 268  : 				size += szObjectID;
; 269  : 				size += szBYTE;
; 270  : 				size += szItemType;
; 271  : 				size += szBYTE + optionType.size();
; 272  : 				size += szDurability;
; 273  : 				size += szItemNum;
; 274  : 				size += szSilver;
; 275  : 				size += szGrade;
; 276  : 				size += szEnchantLevel;
; 277  : 				*/
; 278  : 				size += m_pItems[r][i].getPacketSize();

  00023	8b 4d fc	 mov	 ecx, DWORD PTR tv222[ebp]
  00026	e8 00 00 00 00	 call	 ?getPacketSize@_STASHITEM@@QBEHXZ ; _STASHITEM::getPacketSize

; 279  : 
; 280  : 				//    
; 281  : 				size += szBYTE;
; 282  : 
; 283  : 				//     
; 284  : 				size += SubItemInfo::getSize() * m_SubItemsCount[r][i];

  0002b	0f b6 8c 37 08
	10 00 00	 movzx	 ecx, BYTE PTR [edi+esi+4104]
  00033	8d 14 cb	 lea	 edx, DWORD PTR [ebx+ecx*8]
  00036	03 d1		 add	 edx, ecx
  00038	8d 5c 02 03	 lea	 ebx, DWORD PTR [edx+eax+3]
$L101621:
  0003c	83 45 fc 24	 add	 DWORD PTR tv222[ebp], 36 ; 00000024H
  00040	46		 inc	 esi
  00041	83 fe 14	 cmp	 esi, 20			; 00000014H
  00044	7c d6		 jl	 SHORT $L101620
  00046	8b 45 fc	 mov	 eax, DWORD PTR tv222[ebp]
  00049	83 c7 14	 add	 edi, 20			; 00000014H
  0004c	ff 4d f8	 dec	 DWORD PTR tv288[ebp]
  0004f	75 c6		 jne	 SHORT $L101616
  00051	5f		 pop	 edi
  00052	5e		 pop	 esi

; 285  : 			}
; 286  : 		}
; 287  : 	}
; 288  : 
; 289  : 	size += szGold; //   

  00053	8d 43 04	 lea	 eax, DWORD PTR [ebx+4]
  00056	5b		 pop	 ebx

; 290  : 
; 291  : 	return size;
; 292  : 
; 293  : 	__END_DEBUG
; 294  : 	__END_CATCH
; 295  : }

  00057	c9		 leave
  00058	c3		 ret	 0
?getPacketSize@GCStashList@@UBEIXZ ENDP			; GCStashList::getPacketSize
_TEXT	ENDS
PUBLIC	??0?$list@GV?$allocator@G@_STL@@@_STL@@QAE@ABV01@@Z ; _STL::list<unsigned short,_STL::allocator<unsigned short> >::list<unsigned short,_STL::allocator<unsigned short> >
;	COMDAT xdata$x
; File c:\stlport-4.6.1\stlport\stl\_list.h
xdata$x	SEGMENT
$T104662 DD	0ffffffffH
	DD	FLAT:$L104606
$T104660 DD	019930520H
	DD	01H
	DD	FLAT:$T104662
	DD	2 DUP(00H)
	DD	2 DUP(00H)
; Function compile flags: /Ogsy
xdata$x	ENDS
;	COMDAT ??0?$list@GV?$allocator@G@_STL@@@_STL@@QAE@ABV01@@Z
_TEXT	SEGMENT
$T104605 = -20						; size = 4
_this$ = -16						; size = 4
__$EHRec$ = -12						; size = 12
___x$ = 8						; size = 4
$T104602 = 11						; size = 1
??0?$list@GV?$allocator@G@_STL@@@_STL@@QAE@ABV01@@Z PROC NEAR ; _STL::list<unsigned short,_STL::allocator<unsigned short> >::list<unsigned short,_STL::allocator<unsigned short> >, COMDAT
; _this$ = ecx

; 414  :     { insert(begin(), __x.begin(), __x.end()); }

  00000	b8 00 00 00 00	 mov	 eax, __ehhandler$??0?$list@GV?$allocator@G@_STL@@@_STL@@QAE@ABV01@@Z
  00005	e8 00 00 00 00	 call	 __EH_prolog
  0000a	51		 push	 ecx
  0000b	51		 push	 ecx
  0000c	56		 push	 esi
  0000d	57		 push	 edi
  0000e	8b 7d 08	 mov	 edi, DWORD PTR ___x$[ebp]
  00011	8b f1		 mov	 esi, ecx
  00013	8d 45 0b	 lea	 eax, DWORD PTR $T104602[ebp]
  00016	50		 push	 eax
  00017	8b cf		 mov	 ecx, edi
  00019	89 75 f0	 mov	 DWORD PTR _this$[ebp], esi
  0001c	e8 00 00 00 00	 call	 ?get_allocator@?$_List_base@GV?$allocator@G@_STL@@@_STL@@QBE?AV?$allocator@G@2@XZ ; _STL::_List_base<unsigned short,_STL::allocator<unsigned short> >::get_allocator
  00021	50		 push	 eax
  00022	8b ce		 mov	 ecx, esi
  00024	e8 00 00 00 00	 call	 ??0?$_List_base@GV?$allocator@G@_STL@@@_STL@@QAE@ABV?$allocator@G@1@@Z ; _STL::_List_base<unsigned short,_STL::allocator<unsigned short> >::_List_base<unsigned short,_STL::allocator<unsigned short> >
  00029	8b 07		 mov	 eax, DWORD PTR [edi]
  0002b	8b 08		 mov	 ecx, DWORD PTR [eax]
  0002d	83 65 fc 00	 and	 DWORD PTR __$EHRec$[ebp+8], 0
  00031	50		 push	 eax
  00032	51		 push	 ecx
  00033	51		 push	 ecx
  00034	8b 0e		 mov	 ecx, DWORD PTR [esi]
  00036	8b 09		 mov	 ecx, DWORD PTR [ecx]
  00038	8b c4		 mov	 eax, esp
  0003a	89 08		 mov	 DWORD PTR [eax], ecx
  0003c	8b ce		 mov	 ecx, esi
  0003e	89 65 ec	 mov	 DWORD PTR $T104605[ebp], esp
  00041	e8 00 00 00 00	 call	 ??$insert@U?$_List_iterator@GU?$_Const_traits@G@_STL@@@_STL@@@?$list@GV?$allocator@G@_STL@@@_STL@@QAEXU?$_List_iterator@GU?$_Nonconst_traits@G@_STL@@@1@U?$_List_iterator@GU?$_Const_traits@G@_STL@@@1@1@Z ; _STL::list<unsigned short,_STL::allocator<unsigned short> >::insert<_STL::_List_iterator<unsigned short,_STL::_Const_traits<unsigned short> > >
  00046	8b 4d f4	 mov	 ecx, DWORD PTR __$EHRec$[ebp]
  00049	5f		 pop	 edi
  0004a	8b c6		 mov	 eax, esi
  0004c	64 89 0d 00 00
	00 00		 mov	 DWORD PTR fs:__except_list, ecx
  00053	5e		 pop	 esi
  00054	c9		 leave
  00055	c2 04 00	 ret	 4
_TEXT	ENDS
;	COMDAT text$x
text$x	SEGMENT
$L104606:
  00000	8b 4d f0	 mov	 ecx, DWORD PTR _this$[ebp]
  00003	e9 00 00 00 00	 jmp	 ??1?$_List_base@GV?$allocator@G@_STL@@@_STL@@QAE@XZ ; _STL::_List_base<unsigned short,_STL::allocator<unsigned short> >::~_List_base<unsigned short,_STL::allocator<unsigned short> >
__ehhandler$??0?$list@GV?$allocator@G@_STL@@@_STL@@QAE@ABV01@@Z:
  00008	b8 00 00 00 00	 mov	 eax, OFFSET FLAT:$T104660
  0000d	e9 00 00 00 00	 jmp	 ___CxxFrameHandler
text$x	ENDS
??0?$list@GV?$allocator@G@_STL@@@_STL@@QAE@ABV01@@Z ENDP ; _STL::list<unsigned short,_STL::allocator<unsigned short> >::list<unsigned short,_STL::allocator<unsigned short> >
PUBLIC	??0_STASHITEM@@QAE@ABU0@@Z			; _STASHITEM::_STASHITEM
;	COMDAT xdata$x
xdata$x	SEGMENT
$T104672 DD	0ffffffffH
	DD	FLAT:$L104667
$T104670 DD	019930520H
	DD	01H
	DD	FLAT:$T104672
	DD	2 DUP(00H)
	DD	2 DUP(00H)
; Function compile flags: /Ogsy
xdata$x	ENDS
;	COMDAT ??0_STASHITEM@@QAE@ABU0@@Z
_TEXT	SEGMENT
_this$ = -16						; size = 4
__$EHRec$ = -12						; size = 12
___that$ = 8						; size = 4
??0_STASHITEM@@QAE@ABU0@@Z PROC NEAR			; _STASHITEM::_STASHITEM, COMDAT
; _this$ = ecx
  00000	b8 00 00 00 00	 mov	 eax, __ehhandler$??0_STASHITEM@@QAE@ABU0@@Z
  00005	e8 00 00 00 00	 call	 __EH_prolog
  0000a	51		 push	 ecx
  0000b	56		 push	 esi
  0000c	57		 push	 edi
  0000d	8b 7d 08	 mov	 edi, DWORD PTR ___that$[ebp]
  00010	8b 07		 mov	 eax, DWORD PTR [edi]
  00012	8b f1		 mov	 esi, ecx
  00014	89 06		 mov	 DWORD PTR [esi], eax
  00016	8a 47 04	 mov	 al, BYTE PTR [edi+4]
  00019	88 46 04	 mov	 BYTE PTR [esi+4], al
  0001c	66 8b 47 06	 mov	 ax, WORD PTR [edi+6]
  00020	66 89 46 06	 mov	 WORD PTR [esi+6], ax
  00024	8d 47 08	 lea	 eax, DWORD PTR [edi+8]
  00027	50		 push	 eax
  00028	8d 4e 08	 lea	 ecx, DWORD PTR [esi+8]
  0002b	89 75 f0	 mov	 DWORD PTR _this$[ebp], esi
  0002e	e8 00 00 00 00	 call	 ??0?$list@GV?$allocator@G@_STL@@@_STL@@QAE@ABV01@@Z ; _STL::list<unsigned short,_STL::allocator<unsigned short> >::list<unsigned short,_STL::allocator<unsigned short> >
  00033	8b 47 0c	 mov	 eax, DWORD PTR [edi+12]
  00036	83 65 fc 00	 and	 DWORD PTR __$EHRec$[ebp+8], 0
  0003a	89 46 0c	 mov	 DWORD PTR [esi+12], eax
  0003d	8a 47 10	 mov	 al, BYTE PTR [edi+16]
  00040	88 46 10	 mov	 BYTE PTR [esi+16], al
  00043	66 8b 47 12	 mov	 ax, WORD PTR [edi+18]
  00047	66 89 46 12	 mov	 WORD PTR [esi+18], ax
  0004b	8b 47 14	 mov	 eax, DWORD PTR [edi+20]
  0004e	89 46 14	 mov	 DWORD PTR [esi+20], eax
  00051	8a 47 18	 mov	 al, BYTE PTR [edi+24]
  00054	88 46 18	 mov	 BYTE PTR [esi+24], al
  00057	8d 47 1c	 lea	 eax, DWORD PTR [edi+28]
  0005a	50		 push	 eax
  0005b	8d 4e 1c	 lea	 ecx, DWORD PTR [esi+28]
  0005e	e8 00 00 00 00	 call	 ??0?$list@GV?$allocator@G@_STL@@@_STL@@QAE@ABV01@@Z ; _STL::list<unsigned short,_STL::allocator<unsigned short> >::list<unsigned short,_STL::allocator<unsigned short> >
  00063	8a 47 20	 mov	 al, BYTE PTR [edi+32]
  00066	8b 4d f4	 mov	 ecx, DWORD PTR __$EHRec$[ebp]
  00069	88 46 20	 mov	 BYTE PTR [esi+32], al
  0006c	5f		 pop	 edi
  0006d	8b c6		 mov	 eax, esi
  0006f	5e		 pop	 esi
  00070	64 89 0d 00 00
	00 00		 mov	 DWORD PTR fs:__except_list, ecx
  00077	c9		 leave
  00078	c2 04 00	 ret	 4
_TEXT	ENDS
;	COMDAT text$x
text$x	SEGMENT
$L104667:
  00000	8b 4d f0	 mov	 ecx, DWORD PTR _this$[ebp]
  00003	83 c1 08	 add	 ecx, 8
  00006	e9 00 00 00 00	 jmp	 ??1?$list@GV?$allocator@G@_STL@@@_STL@@QAE@XZ ; _STL::list<unsigned short,_STL::allocator<unsigned short> >::~list<unsigned short,_STL::allocator<unsigned short> >
__ehhandler$??0_STASHITEM@@QAE@ABU0@@Z:
  0000b	b8 00 00 00 00	 mov	 eax, OFFSET FLAT:$T104670
  00010	e9 00 00 00 00	 jmp	 ___CxxFrameHandler
text$x	ENDS
??0_STASHITEM@@QAE@ABU0@@Z ENDP				; _STASHITEM::_STASHITEM
PUBLIC	?getStashItem@GCStashList@@QBE?AU_STASHITEM@@EE@Z ; GCStashList::getStashItem
; Function compile flags: /Ogsy
; File c:\darkeden\designed_common\project\client\packet\gpackets\gcstashlist.cpp
;	COMDAT ?getStashItem@GCStashList@@QBE?AU_STASHITEM@@EE@Z
_TEXT	SEGMENT
___$ReturnUdt$ = 8					; size = 4
_rack$ = 12						; size = 1
_index$ = 16						; size = 1
?getStashItem@GCStashList@@QBE?AU_STASHITEM@@EE@Z PROC NEAR ; GCStashList::getStashItem, COMDAT
; _this$ = ecx

; 360  : 	__BEGIN_TRY
; 361  : 
; 362  : 	Assert(rack < STASH_RACK_MAX && index < STASH_INDEX_MAX);
; 363  : 	return m_pItems[rack][index];

  00000	0f b6 44 24 08	 movzx	 eax, BYTE PTR _rack$[esp-4]
  00005	0f b6 54 24 0c	 movzx	 edx, BYTE PTR _index$[esp-4]
  0000a	8d 04 80	 lea	 eax, DWORD PTR [eax+eax*4]
  0000d	8d 04 82	 lea	 eax, DWORD PTR [edx+eax*4]
  00010	8d 04 c0	 lea	 eax, DWORD PTR [eax+eax*8]
  00013	8d 44 81 68	 lea	 eax, DWORD PTR [ecx+eax*4+104]
  00017	8b 4c 24 04	 mov	 ecx, DWORD PTR ___$ReturnUdt$[esp-4]
  0001b	50		 push	 eax
  0001c	e8 00 00 00 00	 call	 ??0_STASHITEM@@QAE@ABU0@@Z
  00021	8b 44 24 04	 mov	 eax, DWORD PTR ___$ReturnUdt$[esp-4]

; 364  : 
; 365  : 	__END_CATCH
; 366  : }

  00025	c2 0c 00	 ret	 12			; 0000000cH
?getStashItem@GCStashList@@QBE?AU_STASHITEM@@EE@Z ENDP	; GCStashList::getStashItem
_TEXT	ENDS
PUBLIC	__TI3?AVUnsupportedError@@
PUBLIC	__CTA3?AVUnsupportedError@@
PUBLIC	__CT??_R0?AVUnsupportedError@@@8??0UnsupportedError@@QAE@ABV0@@Z20
PUBLIC	__CT??_R0?AVError@@@8??0Error@@QAE@ABV0@@Z20
PUBLIC	__CT??_R0?AVThrowable@@@8??0Throwable@@QAE@ABV0@@Z20
PUBLIC	??0Error@@QAE@ABV0@@Z				; Error::Error
PUBLIC	??0UnsupportedError@@QAE@XZ			; UnsupportedError::UnsupportedError
PUBLIC	??1UnsupportedError@@UAE@XZ			; UnsupportedError::~UnsupportedError
PUBLIC	??0UnsupportedError@@QAE@ABV0@@Z		; UnsupportedError::UnsupportedError
PUBLIC	??_R0?AVError@@@8				; Error `RTTI Type Descriptor'
PUBLIC	??_R0?AVThrowable@@@8				; Throwable `RTTI Type Descriptor'
PUBLIC	??0Throwable@@QAE@ABV0@@Z			; Throwable::Throwable
PUBLIC	??_R0?AVUnsupportedError@@@8			; UnsupportedError `RTTI Type Descriptor'
;	COMDAT __TI3?AVUnsupportedError@@
; File c:\darkeden\designed_common\project\client\packet\packet.h
xdata$x	SEGMENT
__TI3?AVUnsupportedError@@ DD 00H
	DD	FLAT:??1UnsupportedError@@UAE@XZ
	DD	00H
	DD	FLAT:__CTA3?AVUnsupportedError@@
xdata$x	ENDS
;	COMDAT __CTA3?AVUnsupportedError@@
xdata$x	SEGMENT
__CTA3?AVUnsupportedError@@ DD 03H
	DD	FLAT:__CT??_R0?AVUnsupportedError@@@8??0UnsupportedError@@QAE@ABV0@@Z20
	DD	FLAT:__CT??_R0?AVError@@@8??0Error@@QAE@ABV0@@Z20
	DD	FLAT:__CT??_R0?AVThrowable@@@8??0Throwable@@QAE@ABV0@@Z20
xdata$x	ENDS
;	COMDAT __CT??_R0?AVUnsupportedError@@@8??0UnsupportedError@@QAE@ABV0@@Z20
xdata$x	SEGMENT
__CT??_R0?AVUnsupportedError@@@8??0UnsupportedError@@QAE@ABV0@@Z20 DD 00H
	DD	FLAT:??_R0?AVUnsupportedError@@@8
	DD	00H
	DD	0ffffffffH
	ORG $+4
	DD	014H
	DD	FLAT:??0UnsupportedError@@QAE@ABV0@@Z
xdata$x	ENDS
;	COMDAT ??_R0?AVUnsupportedError@@@8
_DATA	SEGMENT
??_R0?AVUnsupportedError@@@8 DD FLAT:??_7type_info@@6B@	; UnsupportedError `RTTI Type Descriptor'
	DD	00H
	DB	'.?AVUnsupportedError@@', 00H
	ORG $-31
	DD	FLAT:??_7type_info@@6B@
	DD	00H
	DB	'.?AVUnsupportedError@@', 00H
_DATA	ENDS
;	COMDAT __CT??_R0?AVError@@@8??0Error@@QAE@ABV0@@Z20
xdata$x	SEGMENT
__CT??_R0?AVError@@@8??0Error@@QAE@ABV0@@Z20 DD 00H
	DD	FLAT:??_R0?AVError@@@8
	DD	00H
	DD	0ffffffffH
	ORG $+4
	DD	014H
	DD	FLAT:??0Error@@QAE@ABV0@@Z
xdata$x	ENDS
;	COMDAT ??_R0?AVError@@@8
_DATA	SEGMENT
??_R0?AVError@@@8 DD FLAT:??_7type_info@@6B@		; Error `RTTI Type Descriptor'
	DD	00H
	DB	'.?AVError@@', 00H
	ORG $-20
	DD	FLAT:??_7type_info@@6B@
	DD	00H
	DB	'.?AVError@@', 00H
_DATA	ENDS
;	COMDAT __CT??_R0?AVThrowable@@@8??0Throwable@@QAE@ABV0@@Z20
xdata$x	SEGMENT
__CT??_R0?AVThrowable@@@8??0Throwable@@QAE@ABV0@@Z20 DD 00H
	DD	FLAT:??_R0?AVThrowable@@@8
	DD	00H
	DD	0ffffffffH
	ORG $+4
	DD	014H
	DD	FLAT:??0Throwable@@QAE@ABV0@@Z
xdata$x	ENDS
;	COMDAT ??_R0?AVThrowable@@@8
_DATA	SEGMENT
??_R0?AVThrowable@@@8 DD FLAT:??_7type_info@@6B@	; Throwable `RTTI Type Descriptor'
	DD	00H
	DB	'.?AVThrowable@@', 00H
	ORG $-24
	DD	FLAT:??_7type_info@@6B@
	DD	00H
	DB	'.?AVThrowable@@', 00H
; Function compile flags: /Ogsy
_DATA	ENDS
;	COMDAT ?read@Packet@@UAEXPAVSocket@@@Z
_TEXT	SEGMENT
$T104680 = -20						; size = 20
_pSocket$ = 8						; size = 4
?read@Packet@@UAEXPAVSocket@@@Z PROC NEAR		; Packet::read, COMDAT
; _this$ = ecx

; 732  : 	virtual void read (Socket* pSocket) throw (ProtocolException, Error) { throw UnsupportedError(); }	

  00000	55		 push	 ebp
  00001	8b ec		 mov	 ebp, esp
  00003	83 ec 14	 sub	 esp, 20			; 00000014H
  00006	8d 4d ec	 lea	 ecx, DWORD PTR $T104680[ebp]
  00009	e8 00 00 00 00	 call	 ??0UnsupportedError@@QAE@XZ ; UnsupportedError::UnsupportedError
  0000e	68 00 00 00 00	 push	 OFFSET FLAT:__TI3?AVUnsupportedError@@
  00013	8d 45 ec	 lea	 eax, DWORD PTR $T104680[ebp]
  00016	50		 push	 eax
  00017	e8 00 00 00 00	 call	 __CxxThrowException@8
$L104682:
$L104681:
  0001c	cc		 int	 3
?read@Packet@@UAEXPAVSocket@@@Z ENDP			; Packet::read
_TEXT	ENDS
PUBLIC	??0Error@@QAE@XZ				; Error::Error
PUBLIC	?getName@UnsupportedError@@UBE?AV?$basic_string@DV?$char_traits@D@_STL@@V?$allocator@D@2@@_STL@@XZ ; UnsupportedError::getName
PUBLIC	??_7UnsupportedError@@6B@			; UnsupportedError::`vftable'
PUBLIC	??_GUnsupportedError@@UAEPAXI@Z			; UnsupportedError::`scalar deleting destructor'
PUBLIC	??_R1A@?0A@A@Error@@8				; Error::`RTTI Base Class Descriptor at (0,-1,0,0)'
PUBLIC	??_R1A@?0A@A@Throwable@@8			; Throwable::`RTTI Base Class Descriptor at (0,-1,0,0)'
PUBLIC	?toString@Throwable@@UBE?AV?$basic_string@DV?$char_traits@D@_STL@@V?$allocator@D@2@@_STL@@XZ ; Throwable::toString
PUBLIC	??_R4UnsupportedError@@6B@			; UnsupportedError::`RTTI Complete Object Locator'
PUBLIC	??_R3UnsupportedError@@8			; UnsupportedError::`RTTI Class Hierarchy Descriptor'
PUBLIC	??_R2UnsupportedError@@8			; UnsupportedError::`RTTI Base Class Array'
PUBLIC	??_R1A@?0A@A@UnsupportedError@@8		; UnsupportedError::`RTTI Base Class Descriptor at (0,-1,0,0)'
EXTRN	??_EUnsupportedError@@UAEPAXI@Z:NEAR		; UnsupportedError::`vector deleting destructor'
;	COMDAT ??_7UnsupportedError@@6B@
; File c:\darkeden\designed_common\project\client\packet\exception.h
CONST	SEGMENT
??_7UnsupportedError@@6B@ DD FLAT:??_R4UnsupportedError@@6B@ ; UnsupportedError::`vftable'
	DD	FLAT:??_EUnsupportedError@@UAEPAXI@Z
	DD	FLAT:?getName@UnsupportedError@@UBE?AV?$basic_string@DV?$char_traits@D@_STL@@V?$allocator@D@2@@_STL@@XZ
	DD	FLAT:?toString@Throwable@@UBE?AV?$basic_string@DV?$char_traits@D@_STL@@V?$allocator@D@2@@_STL@@XZ
CONST	ENDS
;	COMDAT ??_R4UnsupportedError@@6B@
rdata$r	SEGMENT
??_R4UnsupportedError@@6B@ DD 00H			; UnsupportedError::`RTTI Complete Object Locator'
	DD	00H
	DD	00H
	DD	FLAT:??_R0?AVUnsupportedError@@@8
	DD	FLAT:??_R3UnsupportedError@@8
rdata$r	ENDS
;	COMDAT ??_R3UnsupportedError@@8
rdata$r	SEGMENT
??_R3UnsupportedError@@8 DD 00H				; UnsupportedError::`RTTI Class Hierarchy Descriptor'
	DD	00H
	DD	03H
	DD	FLAT:??_R2UnsupportedError@@8
rdata$r	ENDS
;	COMDAT ??_R2UnsupportedError@@8
rdata$r	SEGMENT
??_R2UnsupportedError@@8 DD FLAT:??_R1A@?0A@A@UnsupportedError@@8 ; UnsupportedError::`RTTI Base Class Array'
	DD	FLAT:??_R1A@?0A@A@Error@@8
	DD	FLAT:??_R1A@?0A@A@Throwable@@8
rdata$r	ENDS
;	COMDAT ??_R1A@?0A@A@UnsupportedError@@8
rdata$r	SEGMENT
??_R1A@?0A@A@UnsupportedError@@8 DD FLAT:??_R0?AVUnsupportedError@@@8 ; UnsupportedError::`RTTI Base Class Descriptor at (0,-1,0,0)'
	DD	02H
	DD	00H
	DD	0ffffffffH
	DD	00H
	DD	00H
rdata$r	ENDS
;	COMDAT ??_R1A@?0A@A@Error@@8
rdata$r	SEGMENT
??_R1A@?0A@A@Error@@8 DD FLAT:??_R0?AVError@@@8		; Error::`RTTI Base Class Descriptor at (0,-1,0,0)'
	DD	01H
	DD	00H
	DD	0ffffffffH
	DD	00H
	DD	00H
rdata$r	ENDS
;	COMDAT ??_R1A@?0A@A@Throwable@@8
rdata$r	SEGMENT
??_R1A@?0A@A@Throwable@@8 DD FLAT:??_R0?AVThrowable@@@8	; Throwable::`RTTI Base Class Descriptor at (0,-1,0,0)'
	DD	00H
	DD	00H
	DD	0ffffffffH
	DD	00H
	DD	00H
; Function compile flags: /Ogsy
rdata$r	ENDS
;	COMDAT ??0UnsupportedError@@QAE@XZ
_TEXT	SEGMENT
??0UnsupportedError@@QAE@XZ PROC NEAR			; UnsupportedError::UnsupportedError, COMDAT
; _this$ = ecx

; 711  : 		UnsupportedError () throw () : Error () {}

  00000	56		 push	 esi
  00001	8b f1		 mov	 esi, ecx
  00003	e8 00 00 00 00	 call	 ??0Error@@QAE@XZ	; Error::Error
  00008	c7 06 00 00 00
	00		 mov	 DWORD PTR [esi], OFFSET FLAT:??_7UnsupportedError@@6B@
  0000e	8b c6		 mov	 eax, esi
  00010	5e		 pop	 esi
  00011	c3		 ret	 0
??0UnsupportedError@@QAE@XZ ENDP			; UnsupportedError::UnsupportedError
_TEXT	ENDS
PUBLIC	??_C@_0BB@EOCHEBED@UnsupportedError?$AA@	; `string'
PUBLIC	??0?$basic_string@DV?$char_traits@D@_STL@@V?$allocator@D@2@@_STL@@QAE@PBDABV?$allocator@D@1@@Z ; _STL::basic_string<char,_STL::char_traits<char>,_STL::allocator<char> >::basic_string<char,_STL::char_traits<char>,_STL::allocator<char> >
;	COMDAT ??_C@_0BB@EOCHEBED@UnsupportedError?$AA@
; File c:\stlport-4.6.1\stlport\stl\_alloc.h
CONST	SEGMENT
??_C@_0BB@EOCHEBED@UnsupportedError?$AA@ DB 'UnsupportedError', 00H ; `string'
; Function compile flags: /Ogsy
; File c:\darkeden\designed_common\project\client\packet\exception.h
CONST	ENDS
;	COMDAT ?getName@UnsupportedError@@UBE?AV?$basic_string@DV?$char_traits@D@_STL@@V?$allocator@D@2@@_STL@@XZ
_TEXT	SEGMENT
$T104688 = -1						; size = 1
___$ReturnUdt$ = 8					; size = 4
?getName@UnsupportedError@@UBE?AV?$basic_string@DV?$char_traits@D@_STL@@V?$allocator@D@2@@_STL@@XZ PROC NEAR ; UnsupportedError::getName, COMDAT
; _this$ = ecx

; 713  : 		std::string getName () const throw () { return "UnsupportedError"; }

  00000	55		 push	 ebp
  00001	8b ec		 mov	 ebp, esp
  00003	51		 push	 ecx
  00004	8b 4d 08	 mov	 ecx, DWORD PTR ___$ReturnUdt$[ebp]
  00007	8d 45 ff	 lea	 eax, DWORD PTR $T104688[ebp]
  0000a	50		 push	 eax
  0000b	68 00 00 00 00	 push	 OFFSET FLAT:??_C@_0BB@EOCHEBED@UnsupportedError?$AA@
  00010	e8 00 00 00 00	 call	 ??0?$basic_string@DV?$char_traits@D@_STL@@V?$allocator@D@2@@_STL@@QAE@PBDABV?$allocator@D@1@@Z ; _STL::basic_string<char,_STL::char_traits<char>,_STL::allocator<char> >::basic_string<char,_STL::char_traits<char>,_STL::allocator<char> >
  00015	8b 45 08	 mov	 eax, DWORD PTR ___$ReturnUdt$[ebp]
  00018	c9		 leave
  00019	c2 04 00	 ret	 4
?getName@UnsupportedError@@UBE?AV?$basic_string@DV?$char_traits@D@_STL@@V?$allocator@D@2@@_STL@@XZ ENDP ; UnsupportedError::getName
_TEXT	ENDS
PUBLIC	??$_M_range_initialize@PBD@?$basic_string@DV?$char_traits@D@_STL@@V?$allocator@D@2@@_STL@@AAEXPBD0ABUforward_iterator_tag@1@@Z ; _STL::basic_string<char,_STL::char_traits<char>,_STL::allocator<char> >::_M_range_initialize<char const *>
PUBLIC	??1?$_String_base@DV?$allocator@D@_STL@@@_STL@@QAE@XZ ; _STL::_String_base<char,_STL::allocator<char> >::~_String_base<char,_STL::allocator<char> >
EXTRN	_strlen:NEAR
;	COMDAT xdata$x
; File c:\stlport-4.6.1\stlport\stl\_string.h
xdata$x	SEGMENT
$T104780 DD	0ffffffffH
	DD	FLAT:$L104697
$T104778 DD	019930520H
	DD	01H
	DD	FLAT:$T104780
	DD	2 DUP(00H)
	DD	2 DUP(00H)
; Function compile flags: /Ogsy
; File c:\stlport-4.6.1\stlport\stl\_string.c
xdata$x	ENDS
;	COMDAT ??0?$basic_string@DV?$char_traits@D@_STL@@V?$allocator@D@2@@_STL@@QAE@PBDABV?$allocator@D@1@@Z
_TEXT	SEGMENT
_this$ = -16						; size = 4
__$EHRec$ = -12						; size = 12
___s$ = 8						; size = 4
$T104774 = 11						; size = 1
___a$ = 12						; size = 4
??0?$basic_string@DV?$char_traits@D@_STL@@V?$allocator@D@2@@_STL@@QAE@PBDABV?$allocator@D@1@@Z PROC NEAR ; _STL::basic_string<char,_STL::char_traits<char>,_STL::allocator<char> >::basic_string<char,_STL::char_traits<char>,_STL::allocator<char> >, COMDAT
; _this$ = ecx

; 552  : { 

  00000	b8 00 00 00 00	 mov	 eax, __ehhandler$??0?$basic_string@DV?$char_traits@D@_STL@@V?$allocator@D@2@@_STL@@QAE@PBDABV?$allocator@D@1@@Z
  00005	e8 00 00 00 00	 call	 __EH_prolog
  0000a	51		 push	 ecx
  0000b	33 c0		 xor	 eax, eax
  0000d	56		 push	 esi
  0000e	8b f1		 mov	 esi, ecx
  00010	89 06		 mov	 DWORD PTR [esi], eax
  00012	89 46 04	 mov	 DWORD PTR [esi+4], eax
  00015	89 75 f0	 mov	 DWORD PTR _this$[ebp], esi
  00018	89 46 08	 mov	 DWORD PTR [esi+8], eax

; 553  :   _STLP_FIX_LITERAL_BUG(__s) 
; 554  :     _M_range_initialize(__s, __s + traits_type::length(__s));  

  0001b	ff 75 08	 push	 DWORD PTR ___s$[ebp]
  0001e	89 45 fc	 mov	 DWORD PTR __$EHRec$[ebp+8], eax
  00021	e8 00 00 00 00	 call	 _strlen
  00026	03 45 08	 add	 eax, DWORD PTR ___s$[ebp]
  00029	59		 pop	 ecx
  0002a	8d 4d 0b	 lea	 ecx, DWORD PTR $T104774[ebp]
  0002d	51		 push	 ecx
  0002e	50		 push	 eax
  0002f	ff 75 08	 push	 DWORD PTR ___s$[ebp]
  00032	8b ce		 mov	 ecx, esi
  00034	e8 00 00 00 00	 call	 ??$_M_range_initialize@PBD@?$basic_string@DV?$char_traits@D@_STL@@V?$allocator@D@2@@_STL@@AAEXPBD0ABUforward_iterator_tag@1@@Z ; _STL::basic_string<char,_STL::char_traits<char>,_STL::allocator<char> >::_M_range_initialize<char const *>

; 555  : } 

  00039	8b 4d f4	 mov	 ecx, DWORD PTR __$EHRec$[ebp]
  0003c	8b c6		 mov	 eax, esi
  0003e	5e		 pop	 esi
  0003f	64 89 0d 00 00
	00 00		 mov	 DWORD PTR fs:__except_list, ecx
  00046	c9		 leave
  00047	c2 08 00	 ret	 8
_TEXT	ENDS
;	COMDAT text$x
text$x	SEGMENT
$L104697:
  00000	8b 4d f0	 mov	 ecx, DWORD PTR _this$[ebp]
  00003	e9 00 00 00 00	 jmp	 ??1?$_String_base@DV?$allocator@D@_STL@@@_STL@@QAE@XZ ; _STL::_String_base<char,_STL::allocator<char> >::~_String_base<char,_STL::allocator<char> >
__ehhandler$??0?$basic_string@DV?$char_traits@D@_STL@@V?$allocator@D@2@@_STL@@QAE@PBDABV?$allocator@D@1@@Z:
  00008	b8 00 00 00 00	 mov	 eax, OFFSET FLAT:$T104778
  0000d	e9 00 00 00 00	 jmp	 ___CxxFrameHandler
text$x	ENDS
??0?$basic_string@DV?$char_traits@D@_STL@@V?$allocator@D@2@@_STL@@QAE@PBDABV?$allocator@D@1@@Z ENDP ; _STL::basic_string<char,_STL::char_traits<char>,_STL::allocator<char> >::basic_string<char,_STL::char_traits<char>,_STL::allocator<char> >
PUBLIC	?_M_allocate_block@?$_String_base@DV?$allocator@D@_STL@@@_STL@@QAEXI@Z ; _STL::_String_base<char,_STL::allocator<char> >::_M_allocate_block
EXTRN	_memmove:NEAR
; Function compile flags: /Ogsy
; File c:\stlport-4.6.1\stlport\stl\_string.h
;	COMDAT ??$_M_range_initialize@PBD@?$basic_string@DV?$char_traits@D@_STL@@V?$allocator@D@2@@_STL@@AAEXPBD0ABUforward_iterator_tag@1@@Z
_TEXT	SEGMENT
___f$ = 8						; size = 4
___l$ = 12						; size = 4
___formal$ = 16						; size = 4
??$_M_range_initialize@PBD@?$basic_string@DV?$char_traits@D@_STL@@V?$allocator@D@2@@_STL@@AAEXPBD0ABUforward_iterator_tag@1@@Z PROC NEAR ; _STL::basic_string<char,_STL::char_traits<char>,_STL::allocator<char> >::_M_range_initialize<char const *>, COMDAT
; _this$ = ecx

; 382  :   template <class _ForwardIter> void _M_range_initialize(_ForwardIter __f, _ForwardIter __l, 

  00000	53		 push	 ebx

; 383  :                            const forward_iterator_tag &) {
; 384  :     difference_type __n = distance(__f, __l);
; 385  :     this->_M_allocate_block(__n + 1);
; 386  :     this->_M_finish = uninitialized_copy(__f, __l, this->_M_start);
; 387  :     _M_terminate_string();

  00001	8b 5c 24 08	 mov	 ebx, DWORD PTR ___f$[esp]
  00005	56		 push	 esi
  00006	8b 74 24 10	 mov	 esi, DWORD PTR ___l$[esp+4]
  0000a	57		 push	 edi
  0000b	2b f3		 sub	 esi, ebx
  0000d	8d 46 01	 lea	 eax, DWORD PTR [esi+1]
  00010	50		 push	 eax
  00011	8b f9		 mov	 edi, ecx
  00013	e8 00 00 00 00	 call	 ?_M_allocate_block@?$_String_base@DV?$allocator@D@_STL@@@_STL@@QAEXI@Z ; _STL::_String_base<char,_STL::allocator<char> >::_M_allocate_block
  00018	39 5c 24 14	 cmp	 DWORD PTR ___l$[esp+8], ebx
  0001c	8b 07		 mov	 eax, DWORD PTR [edi]
  0001e	74 0d		 je	 SHORT $L104821
  00020	56		 push	 esi
  00021	53		 push	 ebx
  00022	50		 push	 eax
  00023	e8 00 00 00 00	 call	 _memmove
  00028	83 c4 0c	 add	 esp, 12			; 0000000cH
  0002b	03 c6		 add	 eax, esi
$L104821:
  0002d	89 47 04	 mov	 DWORD PTR [edi+4], eax
  00030	5f		 pop	 edi
  00031	5e		 pop	 esi
  00032	c6 00 00	 mov	 BYTE PTR [eax], 0
  00035	5b		 pop	 ebx

; 388  :   }

  00036	c2 0c 00	 ret	 12			; 0000000cH
??$_M_range_initialize@PBD@?$basic_string@DV?$char_traits@D@_STL@@V?$allocator@D@2@@_STL@@AAEXPBD0ABUforward_iterator_tag@1@@Z ENDP ; _STL::basic_string<char,_STL::char_traits<char>,_STL::allocator<char> >::_M_range_initialize<char const *>
_TEXT	ENDS
PUBLIC	??_C@_0N@GOPDCEEB@basic_string?$AA@		; `string'
EXTRN	?__stl_throw_length_error@_STL@@YAXPBD@Z:NEAR	; _STL::__stl_throw_length_error
;	COMDAT ??_C@_0N@GOPDCEEB@basic_string?$AA@
; File c:\stlport-4.6.1\stlport\stl\_string.c
CONST	SEGMENT
??_C@_0N@GOPDCEEB@basic_string?$AA@ DB 'basic_string', 00H ; `string'
; Function compile flags: /Ogsy
CONST	ENDS
;	COMDAT ?_M_allocate_block@?$_String_base@DV?$allocator@D@_STL@@@_STL@@QAEXI@Z
_TEXT	SEGMENT
___n$ = 8						; size = 4
?_M_allocate_block@?$_String_base@DV?$allocator@D@_STL@@@_STL@@QAEXI@Z PROC NEAR ; _STL::_String_base<char,_STL::allocator<char> >::_M_allocate_block, COMDAT
; _this$ = ecx

; 530  : template <class _Tp, class _Alloc> void _String_base<_Tp, _Alloc>::_M_allocate_block(size_t __n) {  

  00000	56		 push	 esi
  00001	57		 push	 edi

; 531  :   if ((__n <= (max_size()+1)) && (__n>0)){ 

  00002	8b 7c 24 0c	 mov	 edi, DWORD PTR ___n$[esp+4]
  00006	83 ff ff	 cmp	 edi, -1
  00009	8b f1		 mov	 esi, ecx
  0000b	77 16		 ja	 SHORT $L102382
  0000d	85 ff		 test	 edi, edi
  0000f	76 12		 jbe	 SHORT $L102382

; 532  :     _M_start  = _M_end_of_storage.allocate(__n); 

  00011	57		 push	 edi
  00012	e8 00 00 00 00	 call	 ?allocate@?$__node_alloc@$00$0A@@_STL@@SAPAXI@Z ; _STL::__node_alloc<1,0>::allocate
  00017	89 06		 mov	 DWORD PTR [esi], eax

; 533  :     _M_finish = _M_start; 

  00019	89 46 04	 mov	 DWORD PTR [esi+4], eax

; 534  :     _M_end_of_storage._M_data = _M_start + __n; 

  0001c	03 c7		 add	 eax, edi
  0001e	89 46 08	 mov	 DWORD PTR [esi+8], eax

; 535  :   } 
; 536  :     else 

  00021	eb 0a		 jmp	 SHORT $L104852
$L102382:

; 537  :       _M_throw_length_error(); 

  00023	68 00 00 00 00	 push	 OFFSET FLAT:??_C@_0N@GOPDCEEB@basic_string?$AA@
  00028	e8 00 00 00 00	 call	 ?__stl_throw_length_error@_STL@@YAXPBD@Z ; _STL::__stl_throw_length_error
$L104852:
  0002d	59		 pop	 ecx
  0002e	5f		 pop	 edi
  0002f	5e		 pop	 esi

; 538  : } 

  00030	c2 04 00	 ret	 4
?_M_allocate_block@?$_String_base@DV?$allocator@D@_STL@@@_STL@@QAEXI@Z ENDP ; _STL::_String_base<char,_STL::allocator<char> >::_M_allocate_block
_TEXT	ENDS
PUBLIC	??1?$_STLP_alloc_proxy@PADDV?$allocator@D@_STL@@@_STL@@QAE@XZ ; _STL::_STLP_alloc_proxy<char *,char,_STL::allocator<char> >::~_STLP_alloc_proxy<char *,char,_STL::allocator<char> >
;	COMDAT xdata$x
; File c:\stlport-4.6.1\stlport\stl\_alloc.h
xdata$x	SEGMENT
$T104881 DD	0ffffffffH
	DD	FLAT:$L104856
$T104879 DD	019930520H
	DD	01H
	DD	FLAT:$T104881
	DD	2 DUP(00H)
	DD	2 DUP(00H)
; Function compile flags: /Ogsy
; File c:\stlport-4.6.1\stlport\stl\_string.h
xdata$x	ENDS
;	COMDAT ??1?$_String_base@DV?$allocator@D@_STL@@@_STL@@QAE@XZ
_TEXT	SEGMENT
_this$ = -16						; size = 4
__$EHRec$ = -12						; size = 12
??1?$_String_base@DV?$allocator@D@_STL@@@_STL@@QAE@XZ PROC NEAR ; _STL::_String_base<char,_STL::allocator<char> >::~_String_base<char,_STL::allocator<char> >, COMDAT
; _this$ = ecx

; 135  :   ~_String_base() { _M_deallocate_block(); }

  00000	b8 00 00 00 00	 mov	 eax, __ehhandler$??1?$_String_base@DV?$allocator@D@_STL@@@_STL@@QAE@XZ
  00005	e8 00 00 00 00	 call	 __EH_prolog
  0000a	51		 push	 ecx
  0000b	89 4d f0	 mov	 DWORD PTR _this$[ebp], ecx
  0000e	8b 01		 mov	 eax, DWORD PTR [ecx]
  00010	83 65 fc 00	 and	 DWORD PTR __$EHRec$[ebp+8], 0
  00014	85 c0		 test	 eax, eax
  00016	74 0e		 je	 SHORT $L104867
  00018	8b 49 08	 mov	 ecx, DWORD PTR [ecx+8]
  0001b	2b c8		 sub	 ecx, eax
  0001d	51		 push	 ecx
  0001e	50		 push	 eax
  0001f	e8 00 00 00 00	 call	 ?deallocate@?$__node_alloc@$00$0A@@_STL@@SAXPAXI@Z ; _STL::__node_alloc<1,0>::deallocate
  00024	59		 pop	 ecx
  00025	59		 pop	 ecx
$L104867:
  00026	8b 4d f4	 mov	 ecx, DWORD PTR __$EHRec$[ebp]
  00029	64 89 0d 00 00
	00 00		 mov	 DWORD PTR fs:__except_list, ecx
  00030	c9		 leave
  00031	c3		 ret	 0
_TEXT	ENDS
;	COMDAT text$x
text$x	SEGMENT
$L104856:
  00000	8b 4d f0	 mov	 ecx, DWORD PTR _this$[ebp]
  00003	83 c1 08	 add	 ecx, 8
  00006	e9 00 00 00 00	 jmp	 ??1?$_STLP_alloc_proxy@PADDV?$allocator@D@_STL@@@_STL@@QAE@XZ
__ehhandler$??1?$_String_base@DV?$allocator@D@_STL@@@_STL@@QAE@XZ:
  0000b	b8 00 00 00 00	 mov	 eax, OFFSET FLAT:$T104879
  00010	e9 00 00 00 00	 jmp	 ___CxxFrameHandler
text$x	ENDS
??1?$_String_base@DV?$allocator@D@_STL@@@_STL@@QAE@XZ ENDP ; _STL::_String_base<char,_STL::allocator<char> >::~_String_base<char,_STL::allocator<char> >
; Function compile flags: /Ogsy
;	COMDAT ??1?$_STLP_alloc_proxy@PADDV?$allocator@D@_STL@@@_STL@@QAE@XZ
_TEXT	SEGMENT
??1?$_STLP_alloc_proxy@PADDV?$allocator@D@_STL@@@_STL@@QAE@XZ PROC NEAR ; _STL::_STLP_alloc_proxy<char *,char,_STL::allocator<char> >::~_STLP_alloc_proxy<char *,char,_STL::allocator<char> >, COMDAT
; _this$ = ecx
  00000	c3		 ret	 0
??1?$_STLP_alloc_proxy@PADDV?$allocator@D@_STL@@@_STL@@QAE@XZ ENDP ; _STL::_STLP_alloc_proxy<char *,char,_STL::allocator<char> >::~_STLP_alloc_proxy<char *,char,_STL::allocator<char> >
_TEXT	ENDS
PUBLIC	??0?$basic_string@DV?$char_traits@D@_STL@@V?$allocator@D@2@@_STL@@QAE@ABV01@@Z ; _STL::basic_string<char,_STL::char_traits<char>,_STL::allocator<char> >::basic_string<char,_STL::char_traits<char>,_STL::allocator<char> >
PUBLIC	??1?$basic_string@DV?$char_traits@D@_STL@@V?$allocator@D@2@@_STL@@QAE@XZ ; _STL::basic_string<char,_STL::char_traits<char>,_STL::allocator<char> >::~basic_string<char,_STL::char_traits<char>,_STL::allocator<char> >
PUBLIC	?getStackTrace@Throwable@@QBE?AV?$basic_string@DV?$char_traits@D@_STL@@V?$allocator@D@2@@_STL@@XZ ; Throwable::getStackTrace
PUBLIC	??_C@_03MCPBMLDJ@?5?3?5?$AA@			; `string'
EXTRN	??0StringStream@@QAE@XZ:NEAR			; StringStream::StringStream
EXTRN	??1StringStream@@QAE@XZ:NEAR			; StringStream::~StringStream
EXTRN	??6StringStream@@QAEAAV0@D@Z:NEAR		; StringStream::operator<<
EXTRN	??6StringStream@@QAEAAV0@PBD@Z:NEAR		; StringStream::operator<<
EXTRN	??6StringStream@@QAEAAV0@ABV?$basic_string@DV?$char_traits@D@_STL@@V?$allocator@D@2@@_STL@@@Z:NEAR ; StringStream::operator<<
EXTRN	?toString@StringStream@@QBE?AV?$basic_string@DV?$char_traits@D@_STL@@V?$allocator@D@2@@_STL@@XZ:NEAR ; StringStream::toString
;	COMDAT ??_C@_03MCPBMLDJ@?5?3?5?$AA@
; File c:\darkeden\designed_common\project\client\packet\exception.h
CONST	SEGMENT
??_C@_03MCPBMLDJ@?5?3?5?$AA@ DB ' : ', 00H		; `string'
; Function compile flags: /Ogsy
CONST	ENDS
;	COMDAT ?toString@Throwable@@UBE?AV?$basic_string@DV?$char_traits@D@_STL@@V?$allocator@D@2@@_STL@@XZ
_TEXT	SEGMENT
_buf$ = -44						; size = 20
$T104895 = -24						; size = 12
$T104894 = -24						; size = 12
$T104893 = -12						; size = 12
___$ReturnUdt$ = 8					; size = 4
?toString@Throwable@@UBE?AV?$basic_string@DV?$char_traits@D@_STL@@V?$allocator@D@2@@_STL@@XZ PROC NEAR ; Throwable::toString, COMDAT
; _this$ = ecx

; 79   : 	{

  00000	55		 push	 ebp
  00001	8b ec		 mov	 ebp, esp
  00003	83 ec 2c	 sub	 esp, 44			; 0000002cH
  00006	56		 push	 esi
  00007	8b f1		 mov	 esi, ecx

; 80   : 		StringStream buf;

  00009	8d 4d d4	 lea	 ecx, DWORD PTR _buf$[ebp]
  0000c	e8 00 00 00 00	 call	 ??0StringStream@@QAE@XZ	; StringStream::StringStream

; 81   : 		buf << getName() << " : " << m_Message << '\n'
; 82   : 			<< getStackTrace () ;

  00011	8d 45 e8	 lea	 eax, DWORD PTR $T104894[ebp]
  00014	50		 push	 eax
  00015	8b ce		 mov	 ecx, esi
  00017	e8 00 00 00 00	 call	 ?getStackTrace@Throwable@@QBE?AV?$basic_string@DV?$char_traits@D@_STL@@V?$allocator@D@2@@_STL@@XZ ; Throwable::getStackTrace
  0001c	50		 push	 eax
  0001d	6a 0a		 push	 10			; 0000000aH
  0001f	8d 46 04	 lea	 eax, DWORD PTR [esi+4]
  00022	50		 push	 eax
  00023	8b 06		 mov	 eax, DWORD PTR [esi]
  00025	68 00 00 00 00	 push	 OFFSET FLAT:??_C@_03MCPBMLDJ@?5?3?5?$AA@
  0002a	8d 4d f4	 lea	 ecx, DWORD PTR $T104893[ebp]
  0002d	51		 push	 ecx
  0002e	8b ce		 mov	 ecx, esi
  00030	ff 50 04	 call	 DWORD PTR [eax+4]
  00033	50		 push	 eax
  00034	8d 4d d4	 lea	 ecx, DWORD PTR _buf$[ebp]
  00037	e8 00 00 00 00	 call	 ??6StringStream@@QAEAAV0@ABV?$basic_string@DV?$char_traits@D@_STL@@V?$allocator@D@2@@_STL@@@Z ; StringStream::operator<<
  0003c	8b c8		 mov	 ecx, eax
  0003e	e8 00 00 00 00	 call	 ??6StringStream@@QAEAAV0@PBD@Z ; StringStream::operator<<
  00043	8b c8		 mov	 ecx, eax
  00045	e8 00 00 00 00	 call	 ??6StringStream@@QAEAAV0@ABV?$basic_string@DV?$char_traits@D@_STL@@V?$allocator@D@2@@_STL@@@Z ; StringStream::operator<<
  0004a	8b c8		 mov	 ecx, eax
  0004c	e8 00 00 00 00	 call	 ??6StringStream@@QAEAAV0@D@Z ; StringStream::operator<<
  00051	8b c8		 mov	 ecx, eax
  00053	e8 00 00 00 00	 call	 ??6StringStream@@QAEAAV0@ABV?$basic_string@DV?$char_traits@D@_STL@@V?$allocator@D@2@@_STL@@@Z ; StringStream::operator<<
  00058	8d 4d f4	 lea	 ecx, DWORD PTR $T104893[ebp]
  0005b	e8 00 00 00 00	 call	 ??1?$basic_string@DV?$char_traits@D@_STL@@V?$allocator@D@2@@_STL@@QAE@XZ ; _STL::basic_string<char,_STL::char_traits<char>,_STL::allocator<char> >::~basic_string<char,_STL::char_traits<char>,_STL::allocator<char> >
  00060	8d 4d e8	 lea	 ecx, DWORD PTR $T104894[ebp]
  00063	e8 00 00 00 00	 call	 ??1?$basic_string@DV?$char_traits@D@_STL@@V?$allocator@D@2@@_STL@@QAE@XZ ; _STL::basic_string<char,_STL::char_traits<char>,_STL::allocator<char> >::~basic_string<char,_STL::char_traits<char>,_STL::allocator<char> >

; 83   : 		
; 84   : 		return std::string( buf.toString() );

  00068	8d 45 e8	 lea	 eax, DWORD PTR $T104895[ebp]
  0006b	50		 push	 eax
  0006c	8d 4d d4	 lea	 ecx, DWORD PTR _buf$[ebp]
  0006f	e8 00 00 00 00	 call	 ?toString@StringStream@@QBE?AV?$basic_string@DV?$char_traits@D@_STL@@V?$allocator@D@2@@_STL@@XZ ; StringStream::toString
  00074	8b 4d 08	 mov	 ecx, DWORD PTR ___$ReturnUdt$[ebp]
  00077	50		 push	 eax
  00078	e8 00 00 00 00	 call	 ??0?$basic_string@DV?$char_traits@D@_STL@@V?$allocator@D@2@@_STL@@QAE@ABV01@@Z ; _STL::basic_string<char,_STL::char_traits<char>,_STL::allocator<char> >::basic_string<char,_STL::char_traits<char>,_STL::allocator<char> >
  0007d	8d 4d e8	 lea	 ecx, DWORD PTR $T104895[ebp]
  00080	e8 00 00 00 00	 call	 ??1?$basic_string@DV?$char_traits@D@_STL@@V?$allocator@D@2@@_STL@@QAE@XZ ; _STL::basic_string<char,_STL::char_traits<char>,_STL::allocator<char> >::~basic_string<char,_STL::char_traits<char>,_STL::allocator<char> >
  00085	8d 4d d4	 lea	 ecx, DWORD PTR _buf$[ebp]
  00088	e8 00 00 00 00	 call	 ??1StringStream@@QAE@XZ	; StringStream::~StringStream
  0008d	8b 45 08	 mov	 eax, DWORD PTR ___$ReturnUdt$[ebp]
  00090	5e		 pop	 esi

; 85   : 	}

  00091	c9		 leave
  00092	c2 04 00	 ret	 4
?toString@Throwable@@UBE?AV?$basic_string@DV?$char_traits@D@_STL@@V?$allocator@D@2@@_STL@@XZ ENDP ; Throwable::toString
; Function compile flags: /Ogsy
; File c:\stlport-4.6.1\stlport\stl\_string.h
_TEXT	ENDS
;	COMDAT ??1?$basic_string@DV?$char_traits@D@_STL@@V?$allocator@D@2@@_STL@@QAE@XZ
_TEXT	SEGMENT
??1?$basic_string@DV?$char_traits@D@_STL@@V?$allocator@D@2@@_STL@@QAE@XZ PROC NEAR ; _STL::basic_string<char,_STL::char_traits<char>,_STL::allocator<char> >::~basic_string<char,_STL::char_traits<char>,_STL::allocator<char> >, COMDAT
; _this$ = ecx

; 305  :   ~basic_string() { _STLP_STD::_Destroy(this->_M_start, this->_M_finish + 1); }

  00000	e9 00 00 00 00	 jmp	 ??1?$_String_base@DV?$allocator@D@_STL@@@_STL@@QAE@XZ ; _STL::_String_base<char,_STL::allocator<char> >::~_String_base<char,_STL::allocator<char> >
??1?$basic_string@DV?$char_traits@D@_STL@@V?$allocator@D@2@@_STL@@QAE@XZ ENDP ; _STL::basic_string<char,_STL::char_traits<char>,_STL::allocator<char> >::~basic_string<char,_STL::char_traits<char>,_STL::allocator<char> >
_TEXT	ENDS
PUBLIC	??$_M_range_initialize@PAD@?$basic_string@DV?$char_traits@D@_STL@@V?$allocator@D@2@@_STL@@AAEXPAD0ABUforward_iterator_tag@1@@Z ; _STL::basic_string<char,_STL::char_traits<char>,_STL::allocator<char> >::_M_range_initialize<char *>
PUBLIC	?get_allocator@?$basic_string@DV?$char_traits@D@_STL@@V?$allocator@D@2@@_STL@@QBE?AV?$allocator@D@2@XZ ; _STL::basic_string<char,_STL::char_traits<char>,_STL::allocator<char> >::get_allocator
;	COMDAT xdata$x
xdata$x	SEGMENT
$T105001 DD	0ffffffffH
	DD	FLAT:$L104907
$T104999 DD	019930520H
	DD	01H
	DD	FLAT:$T105001
	DD	2 DUP(00H)
	DD	2 DUP(00H)
; Function compile flags: /Ogsy
; File c:\stlport-4.6.1\stlport\stl\_string.c
xdata$x	ENDS
;	COMDAT ??0?$basic_string@DV?$char_traits@D@_STL@@V?$allocator@D@2@@_STL@@QAE@ABV01@@Z
_TEXT	SEGMENT
_this$ = -20						; size = 4
$T104994 = -13						; size = 1
__$EHRec$ = -12						; size = 12
___s$ = 8						; size = 4
$T104905 = 11						; size = 1
??0?$basic_string@DV?$char_traits@D@_STL@@V?$allocator@D@2@@_STL@@QAE@ABV01@@Z PROC NEAR ; _STL::basic_string<char,_STL::char_traits<char>,_STL::allocator<char> >::basic_string<char,_STL::char_traits<char>,_STL::allocator<char> >, COMDAT
; _this$ = ecx

; 560  : {  

  00000	b8 00 00 00 00	 mov	 eax, __ehhandler$??0?$basic_string@DV?$char_traits@D@_STL@@V?$allocator@D@2@@_STL@@QAE@ABV01@@Z
  00005	e8 00 00 00 00	 call	 __EH_prolog
  0000a	51		 push	 ecx
  0000b	51		 push	 ecx
  0000c	56		 push	 esi
  0000d	57		 push	 edi
  0000e	8b 7d 08	 mov	 edi, DWORD PTR ___s$[ebp]
  00011	8b f1		 mov	 esi, ecx
  00013	8d 45 0b	 lea	 eax, DWORD PTR $T104905[ebp]
  00016	50		 push	 eax
  00017	8b cf		 mov	 ecx, edi
  00019	89 75 ec	 mov	 DWORD PTR _this$[ebp], esi
  0001c	e8 00 00 00 00	 call	 ?get_allocator@?$basic_string@DV?$char_traits@D@_STL@@V?$allocator@D@2@@_STL@@QBE?AV?$allocator@D@2@XZ ; _STL::basic_string<char,_STL::char_traits<char>,_STL::allocator<char> >::get_allocator
  00021	33 c0		 xor	 eax, eax
  00023	89 06		 mov	 DWORD PTR [esi], eax
  00025	89 46 04	 mov	 DWORD PTR [esi+4], eax
  00028	89 46 08	 mov	 DWORD PTR [esi+8], eax
  0002b	89 45 fc	 mov	 DWORD PTR __$EHRec$[ebp+8], eax

; 561  :   _M_range_initialize(__s._M_start, __s._M_finish);  

  0002e	8d 45 f3	 lea	 eax, DWORD PTR $T104994[ebp]
  00031	50		 push	 eax
  00032	ff 77 04	 push	 DWORD PTR [edi+4]
  00035	8b ce		 mov	 ecx, esi
  00037	ff 37		 push	 DWORD PTR [edi]
  00039	e8 00 00 00 00	 call	 ??$_M_range_initialize@PAD@?$basic_string@DV?$char_traits@D@_STL@@V?$allocator@D@2@@_STL@@AAEXPAD0ABUforward_iterator_tag@1@@Z ; _STL::basic_string<char,_STL::char_traits<char>,_STL::allocator<char> >::_M_range_initialize<char *>

; 562  : } 

  0003e	8b 4d f4	 mov	 ecx, DWORD PTR __$EHRec$[ebp]
  00041	5f		 pop	 edi
  00042	8b c6		 mov	 eax, esi
  00044	5e		 pop	 esi
  00045	64 89 0d 00 00
	00 00		 mov	 DWORD PTR fs:__except_list, ecx
  0004c	c9		 leave
  0004d	c2 04 00	 ret	 4
_TEXT	ENDS
;	COMDAT text$x
text$x	SEGMENT
$L104907:
  00000	8b 4d ec	 mov	 ecx, DWORD PTR _this$[ebp]
  00003	e9 00 00 00 00	 jmp	 ??1?$_String_base@DV?$allocator@D@_STL@@@_STL@@QAE@XZ ; _STL::_String_base<char,_STL::allocator<char> >::~_String_base<char,_STL::allocator<char> >
__ehhandler$??0?$basic_string@DV?$char_traits@D@_STL@@V?$allocator@D@2@@_STL@@QAE@ABV01@@Z:
  00008	b8 00 00 00 00	 mov	 eax, OFFSET FLAT:$T104999
  0000d	e9 00 00 00 00	 jmp	 ___CxxFrameHandler
text$x	ENDS
??0?$basic_string@DV?$char_traits@D@_STL@@V?$allocator@D@2@@_STL@@QAE@ABV01@@Z ENDP ; _STL::basic_string<char,_STL::char_traits<char>,_STL::allocator<char> >::basic_string<char,_STL::char_traits<char>,_STL::allocator<char> >
; Function compile flags: /Ogsy
; File c:\stlport-4.6.1\stlport\stl\_string.h
;	COMDAT ?get_allocator@?$basic_string@DV?$char_traits@D@_STL@@V?$allocator@D@2@@_STL@@QBE?AV?$allocator@D@2@XZ
_TEXT	SEGMENT
$T105007 = -4						; size = 4
___$ReturnUdt$ = 8					; size = 4
?get_allocator@?$basic_string@DV?$char_traits@D@_STL@@V?$allocator@D@2@@_STL@@QBE?AV?$allocator@D@2@XZ PROC NEAR ; _STL::basic_string<char,_STL::char_traits<char>,_STL::allocator<char> >::get_allocator, COMDAT
; _this$ = ecx

; 215  :   allocator_type get_allocator() const {

  00000	55		 push	 ebp
  00001	8b ec		 mov	 ebp, esp
  00003	51		 push	 ecx
  00004	83 65 fc 00	 and	 DWORD PTR $T105007[ebp], 0

; 216  :     return _STLP_CONVERT_ALLOCATOR((const allocator_type&)this->_M_end_of_storage, _CharT);

  00008	8b 45 08	 mov	 eax, DWORD PTR ___$ReturnUdt$[ebp]

; 217  :   }

  0000b	c9		 leave
  0000c	c2 04 00	 ret	 4
?get_allocator@?$basic_string@DV?$char_traits@D@_STL@@V?$allocator@D@2@@_STL@@QBE?AV?$allocator@D@2@XZ ENDP ; _STL::basic_string<char,_STL::char_traits<char>,_STL::allocator<char> >::get_allocator
_TEXT	ENDS
PUBLIC	??$uninitialized_copy@PADPAD@_STL@@YAPADPAD00@Z	; _STL::uninitialized_copy<char *,char *>
; Function compile flags: /Ogsy
;	COMDAT ??$_M_range_initialize@PAD@?$basic_string@DV?$char_traits@D@_STL@@V?$allocator@D@2@@_STL@@AAEXPAD0ABUforward_iterator_tag@1@@Z
_TEXT	SEGMENT
___f$ = 8						; size = 4
___l$ = 12						; size = 4
___formal$ = 16						; size = 4
??$_M_range_initialize@PAD@?$basic_string@DV?$char_traits@D@_STL@@V?$allocator@D@2@@_STL@@AAEXPAD0ABUforward_iterator_tag@1@@Z PROC NEAR ; _STL::basic_string<char,_STL::char_traits<char>,_STL::allocator<char> >::_M_range_initialize<char *>, COMDAT
; _this$ = ecx

; 383  :                            const forward_iterator_tag &) {
; 384  :     difference_type __n = distance(__f, __l);
; 385  :     this->_M_allocate_block(__n + 1);

  00000	8b 44 24 08	 mov	 eax, DWORD PTR ___l$[esp-4]
  00004	2b 44 24 04	 sub	 eax, DWORD PTR ___f$[esp-4]
  00008	56		 push	 esi
  00009	40		 inc	 eax
  0000a	50		 push	 eax
  0000b	8b f1		 mov	 esi, ecx
  0000d	e8 00 00 00 00	 call	 ?_M_allocate_block@?$_String_base@DV?$allocator@D@_STL@@@_STL@@QAEXI@Z ; _STL::_String_base<char,_STL::allocator<char> >::_M_allocate_block

; 386  :     this->_M_finish = uninitialized_copy(__f, __l, this->_M_start);

  00012	ff 36		 push	 DWORD PTR [esi]
  00014	ff 74 24 10	 push	 DWORD PTR ___l$[esp+4]
  00018	ff 74 24 10	 push	 DWORD PTR ___f$[esp+8]
  0001c	e8 00 00 00 00	 call	 ??$uninitialized_copy@PADPAD@_STL@@YAPADPAD00@Z ; _STL::uninitialized_copy<char *,char *>
  00021	83 c4 0c	 add	 esp, 12			; 0000000cH
  00024	89 46 04	 mov	 DWORD PTR [esi+4], eax

; 387  :     _M_terminate_string();

  00027	c6 00 00	 mov	 BYTE PTR [eax], 0
  0002a	5e		 pop	 esi

; 388  :   }

  0002b	c2 0c 00	 ret	 12			; 0000000cH
??$_M_range_initialize@PAD@?$basic_string@DV?$char_traits@D@_STL@@V?$allocator@D@2@@_STL@@AAEXPAD0ABUforward_iterator_tag@1@@Z ENDP ; _STL::basic_string<char,_STL::char_traits<char>,_STL::allocator<char> >::_M_range_initialize<char *>
_TEXT	ENDS
PUBLIC	??$__copy_aux@PADPAD@_STL@@YAPADPAD00ABU__true_type@0@@Z ; _STL::__copy_aux<char *,char *>
; Function compile flags: /Ogsy
; File c:\stlport-4.6.1\stlport\stl\_uninitialized.h
;	COMDAT ??$uninitialized_copy@PADPAD@_STL@@YAPADPAD00@Z
_TEXT	SEGMENT
$T105119 = -1						; size = 1
$T105116 = -1						; size = 1
___first$ = 8						; size = 4
___last$ = 12						; size = 4
___result$ = 16						; size = 4
??$uninitialized_copy@PADPAD@_STL@@YAPADPAD00@Z PROC NEAR ; _STL::uninitialized_copy<char *,char *>, COMDAT

; 78   : uninitialized_copy(_InputIter __first, _InputIter __last, _ForwardIter __result) {

  00000	55		 push	 ebp
  00001	8b ec		 mov	 ebp, esp
  00003	51		 push	 ecx
  00004	57		 push	 edi

; 79   :   return __uninitialized_copy(__first, __last, __result,  _IS_POD_ITER(__result, _ForwardIter));

  00005	33 c0		 xor	 eax, eax
  00007	8d 7d ff	 lea	 edi, DWORD PTR $T105119[ebp]
  0000a	aa		 stosb
  0000b	8a 45 ff	 mov	 al, BYTE PTR $T105119[ebp]
  0000e	88 45 ff	 mov	 BYTE PTR $T105116[ebp], al
  00011	8d 45 ff	 lea	 eax, DWORD PTR $T105116[ebp]
  00014	50		 push	 eax
  00015	ff 75 10	 push	 DWORD PTR ___result$[ebp]
  00018	ff 75 0c	 push	 DWORD PTR ___last$[ebp]
  0001b	ff 75 08	 push	 DWORD PTR ___first$[ebp]
  0001e	e8 00 00 00 00	 call	 ??$__copy_aux@PADPAD@_STL@@YAPADPAD00ABU__true_type@0@@Z ; _STL::__copy_aux<char *,char *>
  00023	83 c4 10	 add	 esp, 16			; 00000010H
  00026	5f		 pop	 edi

; 80   : }

  00027	c9		 leave
  00028	c3		 ret	 0
??$uninitialized_copy@PADPAD@_STL@@YAPADPAD00@Z ENDP	; _STL::uninitialized_copy<char *,char *>
; Function compile flags: /Ogsy
; File c:\stlport-4.6.1\stlport\stl\_algobase.h
_TEXT	ENDS
;	COMDAT ??$__copy_aux@PADPAD@_STL@@YAPADPAD00ABU__true_type@0@@Z
_TEXT	SEGMENT
___first$ = 8						; size = 4
___last$ = 12						; size = 4
___result$ = 16						; size = 4
___formal$ = 20						; size = 4
??$__copy_aux@PADPAD@_STL@@YAPADPAD00ABU__true_type@0@@Z PROC NEAR ; _STL::__copy_aux<char *,char *>, COMDAT

; 201  : inline _OutputIter __copy_aux(_InputIter __first, _InputIter __last, _OutputIter __result, const __true_type&) {

  00000	55		 push	 ebp
  00001	8b ec		 mov	 ebp, esp
  00003	56		 push	 esi

; 202  :   return __copy_ptrs(__first, __last, __result, 
; 203  :                      _IsOKToMemCpy(_STLP_VALUE_TYPE(__first, _InputIter), 
; 204  :                                    _STLP_VALUE_TYPE(__result, _OutputIter))._Ret());

  00004	8b 75 0c	 mov	 esi, DWORD PTR ___last$[ebp]
  00007	3b 75 08	 cmp	 esi, DWORD PTR ___first$[ebp]
  0000a	75 05		 jne	 SHORT $L105146
  0000c	8b 45 10	 mov	 eax, DWORD PTR ___result$[ebp]
  0000f	eb 14		 jmp	 SHORT $L105147
