; Listing generated by Microsoft (R) Optimizing Compiler Version 13.10.3077 

	TITLE	\darkeden\Designed_Common\Project\Client\Packet\InventoryInfo.cpp
	.386P
include listing.inc
if @Version gt 510
.model FLAT
else
_TEXT	SEGMENT PARA USE32 PUBLIC 'CODE'
_TEXT	ENDS
_DATA	SEGMENT DWORD USE32 PUBLIC 'DATA'
_DATA	ENDS
CONST	SEGMENT DWORD USE32 PUBLIC 'CONST'
CONST	ENDS
_BSS	SEGMENT DWORD USE32 PUBLIC 'BSS'
_BSS	ENDS
$$SYMBOLS	SEGMENT BYTE USE32 'DEBSYM'
$$SYMBOLS	ENDS
$$TYPES	SEGMENT BYTE USE32 'DEBTYP'
$$TYPES	ENDS
_TLS	SEGMENT DWORD USE32 PUBLIC 'TLS'
_TLS	ENDS
;	COMDAT ??_C@_0CA@NDINADEE@SocketOutputStream?$CIm_BufferLen?3?$AA@
CONST	SEGMENT DWORD USE32 PUBLIC 'CONST'
CONST	ENDS
;	COMDAT ??_C@_08LIHEOLAN@?0m_Head?3?$AA@
CONST	SEGMENT DWORD USE32 PUBLIC 'CONST'
CONST	ENDS
;	COMDAT ??_C@_08PCEHPGHK@?0m_Tail?3?$AA@
CONST	SEGMENT DWORD USE32 PUBLIC 'CONST'
CONST	ENDS
;	COMDAT ??_C@_01PKGAHCOL@?$CJ?$AA@
CONST	SEGMENT DWORD USE32 PUBLIC 'CONST'
CONST	ENDS
;	COMDAT ??_C@_0N@GOPDCEEB@basic_string?$AA@
CONST	SEGMENT DWORD USE32 PUBLIC 'CONST'
CONST	ENDS
xdata$x	SEGMENT DWORD USE32 PUBLIC 'CONST'
xdata$x	ENDS
rdata$r	SEGMENT DWORD USE32 PUBLIC 'CONST'
rdata$r	ENDS
text$yc	SEGMENT PARA USE32 PUBLIC 'CODE'
text$yc	ENDS
CRT$XCA	SEGMENT DWORD USE32 PUBLIC 'DATA'
CRT$XCA	ENDS
CRT$XCU	SEGMENT DWORD USE32 PUBLIC 'DATA'
CRT$XCU	ENDS
CRT$XCL	SEGMENT DWORD USE32 PUBLIC 'DATA'
CRT$XCL	ENDS
CRT$XCC	SEGMENT DWORD USE32 PUBLIC 'DATA'
CRT$XCC	ENDS
CRT$XCZ	SEGMENT DWORD USE32 PUBLIC 'DATA'
CRT$XCZ	ENDS
text$yd	SEGMENT PARA USE32 PUBLIC 'CODE'
text$yd	ENDS
;	COMDAT ?getHost@SocketImpl@@QBE?AV?$basic_string@DV?$char_traits@D@_STL@@V?$allocator@D@2@@_STL@@XZ
_TEXT	SEGMENT PARA USE32 PUBLIC 'CODE'
_TEXT	ENDS
;	COMDAT ?getPort@SocketImpl@@QBEIXZ
_TEXT	SEGMENT PARA USE32 PUBLIC 'CODE'
_TEXT	ENDS
;	COMDAT ?isValid@SocketImpl@@QBE_NXZ
_TEXT	SEGMENT PARA USE32 PUBLIC 'CODE'
_TEXT	ENDS
;	COMDAT ?getSOCKET@SocketImpl@@QBEIXZ
_TEXT	SEGMENT PARA USE32 PUBLIC 'CODE'
_TEXT	ENDS
;	COMDAT ?read@SocketInputStream@@QAEIAAE@Z
_TEXT	SEGMENT PARA USE32 PUBLIC 'CODE'
_TEXT	ENDS
;	COMDAT ?write@SocketOutputStream@@QAEIE@Z
_TEXT	SEGMENT PARA USE32 PUBLIC 'CODE'
_TEXT	ENDS
;	COMDAT ?write@SocketOutputStream@@QAEIG@Z
_TEXT	SEGMENT PARA USE32 PUBLIC 'CODE'
_TEXT	ENDS
;	COMDAT ?write@SocketOutputStream@@QAEII@Z
_TEXT	SEGMENT PARA USE32 PUBLIC 'CODE'
_TEXT	ENDS
;	COMDAT ?getMaxSize@SubItemInfo@@SAIXZ
_TEXT	SEGMENT PARA USE32 PUBLIC 'CODE'
_TEXT	ENDS
;	COMDAT ?getSize@PCItemInfo@@QBEIXZ
_TEXT	SEGMENT PARA USE32 PUBLIC 'CODE'
_TEXT	ENDS
;	COMDAT ?getMaxSize@PCItemInfo@@SAIXZ
_TEXT	SEGMENT PARA USE32 PUBLIC 'CODE'
_TEXT	ENDS
;	COMDAT ?getSize@InventorySlotInfo@@QAEIXZ
_TEXT	SEGMENT PARA USE32 PUBLIC 'CODE'
_TEXT	ENDS
;	COMDAT ?getMaxSize@InventorySlotInfo@@SAIXZ
_TEXT	SEGMENT PARA USE32 PUBLIC 'CODE'
_TEXT	ENDS
;	COMDAT ??1Packet@@UAE@XZ
_TEXT	SEGMENT PARA USE32 PUBLIC 'CODE'
_TEXT	ENDS
;	COMDAT ?read@Packet@@UAEXPAVSocket@@@Z
_TEXT	SEGMENT PARA USE32 PUBLIC 'CODE'
_TEXT	ENDS
;	COMDAT ?write@Packet@@UBEXPAVSocket@@@Z
_TEXT	SEGMENT PARA USE32 PUBLIC 'CODE'
_TEXT	ENDS
;	COMDAT ??_GPacket@@UAEPAXI@Z
_TEXT	SEGMENT PARA USE32 PUBLIC 'CODE'
_TEXT	ENDS
;	COMDAT ??0UnsupportedError@@QAE@ABV0@@Z
_TEXT	SEGMENT PARA USE32 PUBLIC 'CODE'
_TEXT	ENDS
;	COMDAT ??0Error@@QAE@ABV0@@Z
_TEXT	SEGMENT PARA USE32 PUBLIC 'CODE'
_TEXT	ENDS
;	COMDAT ??0Throwable@@QAE@ABV0@@Z
_TEXT	SEGMENT PARA USE32 PUBLIC 'CODE'
_TEXT	ENDS
;	COMDAT ??0InventoryInfo@@QAE@XZ
_TEXT	SEGMENT PARA USE32 PUBLIC 'CODE'
_TEXT	ENDS
;	COMDAT ??1InventoryInfo@@QAE@XZ
_TEXT	SEGMENT PARA USE32 PUBLIC 'CODE'
_TEXT	ENDS
;	COMDAT ?read@InventoryInfo@@QAEXAAVSocketInputStream@@@Z
_TEXT	SEGMENT PARA USE32 PUBLIC 'CODE'
_TEXT	ENDS
;	COMDAT ??0InventorySlotInfo@@QAE@XZ
_TEXT	SEGMENT PARA USE32 PUBLIC 'CODE'
_TEXT	ENDS
;	COMDAT ??_GInventorySlotInfo@@UAEPAXI@Z
_TEXT	SEGMENT PARA USE32 PUBLIC 'CODE'
_TEXT	ENDS
;	COMDAT ??1InventorySlotInfo@@UAE@XZ
_TEXT	SEGMENT PARA USE32 PUBLIC 'CODE'
_TEXT	ENDS
;	COMDAT ?write@InventoryInfo@@QBEXAAVSocketOutputStream@@@Z
_TEXT	SEGMENT PARA USE32 PUBLIC 'CODE'
_TEXT	ENDS
;	COMDAT ?getSize@InventoryInfo@@QAEIXZ
_TEXT	SEGMENT PARA USE32 PUBLIC 'CODE'
_TEXT	ENDS
;	COMDAT ?eq@?$__char_traits_base@DH@_STL@@SA_NABD0@Z
_TEXT	SEGMENT PARA USE32 PUBLIC 'CODE'
_TEXT	ENDS
;	COMDAT ?not_eof@?$__char_traits_base@DH@_STL@@SAHABH@Z
_TEXT	SEGMENT PARA USE32 PUBLIC 'CODE'
_TEXT	ENDS
;	COMDAT ?eq_int_type@?$__char_traits_base@DH@_STL@@SA_NABH0@Z
_TEXT	SEGMENT PARA USE32 PUBLIC 'CODE'
_TEXT	ENDS
;	COMDAT ?get_allocator@?$basic_string@DV?$char_traits@D@_STL@@V?$allocator@D@2@@_STL@@QBE?AV?$allocator@D@2@XZ
_TEXT	SEGMENT PARA USE32 PUBLIC 'CODE'
_TEXT	ENDS
;	COMDAT ?_M_terminate_string@?$basic_string@DV?$char_traits@D@_STL@@V?$allocator@D@2@@_STL@@AAEXXZ
_TEXT	SEGMENT PARA USE32 PUBLIC 'CODE'
_TEXT	ENDS
;	COMDAT ?size@?$basic_string@DV?$char_traits@D@_STL@@V?$allocator@D@2@@_STL@@QBEIXZ
_TEXT	SEGMENT PARA USE32 PUBLIC 'CODE'
_TEXT	ENDS
;	COMDAT ?c_str@?$basic_string@DV?$char_traits@D@_STL@@V?$allocator@D@2@@_STL@@QBEPBDXZ
_TEXT	SEGMENT PARA USE32 PUBLIC 'CODE'
_TEXT	ENDS
;	COMDAT ??0?$_String_base@DV?$allocator@D@_STL@@@_STL@@QAE@ABV?$allocator@D@1@@Z
_TEXT	SEGMENT PARA USE32 PUBLIC 'CODE'
_TEXT	ENDS
;	COMDAT ?allocate@?$allocator@D@_STL@@QAEPADIPBX@Z
_TEXT	SEGMENT PARA USE32 PUBLIC 'CODE'
_TEXT	ENDS
;	COMDAT ??0?$fpos@H@_STL@@QAE@J@Z
_TEXT	SEGMENT PARA USE32 PUBLIC 'CODE'
_TEXT	ENDS
;	COMDAT ??B?$fpos@H@_STL@@QBEJXZ
_TEXT	SEGMENT PARA USE32 PUBLIC 'CODE'
_TEXT	ENDS
;	COMDAT ?state@?$fpos@H@_STL@@QBEHXZ
_TEXT	SEGMENT PARA USE32 PUBLIC 'CODE'
_TEXT	ENDS
;	COMDAT ?is_open@?$basic_filebuf@DV?$char_traits@D@_STL@@@_STL@@QBE_NXZ
_TEXT	SEGMENT PARA USE32 PUBLIC 'CODE'
_TEXT	ENDS
;	COMDAT ?_M_seek_return@?$basic_filebuf@DV?$char_traits@D@_STL@@@_STL@@AAE?AV?$fpos@H@2@JH@Z
_TEXT	SEGMENT PARA USE32 PUBLIC 'CODE'
_TEXT	ENDS
;	COMDAT ??0?$list@V?$basic_string@DV?$char_traits@D@_STL@@V?$allocator@D@2@@_STL@@V?$allocator@V?$basic_string@DV?$char_traits@D@_STL@@V?$allocator@D@2@@_STL@@@2@@_STL@@QAE@ABV01@@Z
_TEXT	SEGMENT PARA USE32 PUBLIC 'CODE'
_TEXT	ENDS
;	COMDAT ??0?$_Filebuf_Tmp_Buf@D@_STL@@QAE@H@Z
_TEXT	SEGMENT PARA USE32 PUBLIC 'CODE'
_TEXT	ENDS
;	COMDAT ??1?$_Filebuf_Tmp_Buf@D@_STL@@QAE@XZ
_TEXT	SEGMENT PARA USE32 PUBLIC 'CODE'
_TEXT	ENDS
;	COMDAT ?begin@?$list@GV?$allocator@G@_STL@@@_STL@@QAE?AU?$_List_iterator@GU?$_Nonconst_traits@G@_STL@@@2@XZ
_TEXT	SEGMENT PARA USE32 PUBLIC 'CODE'
_TEXT	ENDS
;	COMDAT ?end@?$list@GV?$allocator@G@_STL@@@_STL@@QAE?AU?$_List_iterator@GU?$_Nonconst_traits@G@_STL@@@2@XZ
_TEXT	SEGMENT PARA USE32 PUBLIC 'CODE'
_TEXT	ENDS
;	COMDAT ?empty@?$list@GV?$allocator@G@_STL@@@_STL@@QBE_NXZ
_TEXT	SEGMENT PARA USE32 PUBLIC 'CODE'
_TEXT	ENDS
;	COMDAT ?size@?$list@GV?$allocator@G@_STL@@@_STL@@QBEIXZ
_TEXT	SEGMENT PARA USE32 PUBLIC 'CODE'
_TEXT	ENDS
;	COMDAT ?front@?$list@GV?$allocator@G@_STL@@@_STL@@QAEAAGXZ
_TEXT	SEGMENT PARA USE32 PUBLIC 'CODE'
_TEXT	ENDS
;	COMDAT ?front@?$list@GV?$allocator@G@_STL@@@_STL@@QBEABGXZ
_TEXT	SEGMENT PARA USE32 PUBLIC 'CODE'
_TEXT	ENDS
;	COMDAT ?push_back@?$list@GV?$allocator@G@_STL@@@_STL@@QAEXABG@Z
_TEXT	SEGMENT PARA USE32 PUBLIC 'CODE'
_TEXT	ENDS
;	COMDAT ?erase@?$list@GV?$allocator@G@_STL@@@_STL@@QAE?AU?$_List_iterator@GU?$_Nonconst_traits@G@_STL@@@2@U32@@Z
_TEXT	SEGMENT PARA USE32 PUBLIC 'CODE'
_TEXT	ENDS
;	COMDAT ?pop_front@?$list@GV?$allocator@G@_STL@@@_STL@@QAEXXZ
_TEXT	SEGMENT PARA USE32 PUBLIC 'CODE'
_TEXT	ENDS
;	COMDAT ?front@?$list@PAVSubItemInfo@@V?$allocator@PAVSubItemInfo@@@_STL@@@_STL@@QAEAAPAVSubItemInfo@@XZ
_TEXT	SEGMENT PARA USE32 PUBLIC 'CODE'
_TEXT	ENDS
;	COMDAT ?push_back@?$list@PAVSubItemInfo@@V?$allocator@PAVSubItemInfo@@@_STL@@@_STL@@QAEXABQAVSubItemInfo@@@Z
_TEXT	SEGMENT PARA USE32 PUBLIC 'CODE'
_TEXT	ENDS
;	COMDAT ?pop_front@?$list@PAVSubItemInfo@@V?$allocator@PAVSubItemInfo@@@_STL@@@_STL@@QAEXXZ
_TEXT	SEGMENT PARA USE32 PUBLIC 'CODE'
_TEXT	ENDS
;	COMDAT ??0?$_List_iterator@GU?$_Nonconst_traits@G@_STL@@@_STL@@QAE@ABU01@@Z
_TEXT	SEGMENT PARA USE32 PUBLIC 'CODE'
_TEXT	ENDS
;	COMDAT ??0?$list@PAVInventorySlotInfo@@V?$allocator@PAVInventorySlotInfo@@@_STL@@@_STL@@QAE@ABV?$allocator@PAVInventorySlotInfo@@@1@@Z
_TEXT	SEGMENT PARA USE32 PUBLIC 'CODE'
_TEXT	ENDS
;	COMDAT ?begin@?$list@PAVInventorySlotInfo@@V?$allocator@PAVInventorySlotInfo@@@_STL@@@_STL@@QAE?AU?$_List_iterator@PAVInventorySlotInfo@@U?$_Nonconst_traits@PAVInventorySlotInfo@@@_STL@@@2@XZ
_TEXT	SEGMENT PARA USE32 PUBLIC 'CODE'
_TEXT	ENDS
;	COMDAT ?begin@?$list@PAVInventorySlotInfo@@V?$allocator@PAVInventorySlotInfo@@@_STL@@@_STL@@QBE?AU?$_List_iterator@PAVInventorySlotInfo@@U?$_Const_traits@PAVInventorySlotInfo@@@_STL@@@2@XZ
_TEXT	SEGMENT PARA USE32 PUBLIC 'CODE'
_TEXT	ENDS
;	COMDAT ?end@?$list@PAVInventorySlotInfo@@V?$allocator@PAVInventorySlotInfo@@@_STL@@@_STL@@QAE?AU?$_List_iterator@PAVInventorySlotInfo@@U?$_Nonconst_traits@PAVInventorySlotInfo@@@_STL@@@2@XZ
_TEXT	SEGMENT PARA USE32 PUBLIC 'CODE'
_TEXT	ENDS
;	COMDAT ?end@?$list@PAVInventorySlotInfo@@V?$allocator@PAVInventorySlotInfo@@@_STL@@@_STL@@QBE?AU?$_List_iterator@PAVInventorySlotInfo@@U?$_Const_traits@PAVInventorySlotInfo@@@_STL@@@2@XZ
_TEXT	SEGMENT PARA USE32 PUBLIC 'CODE'
_TEXT	ENDS
;	COMDAT ?empty@?$list@PAVInventorySlotInfo@@V?$allocator@PAVInventorySlotInfo@@@_STL@@@_STL@@QBE_NXZ
_TEXT	SEGMENT PARA USE32 PUBLIC 'CODE'
_TEXT	ENDS
;	COMDAT ?front@?$list@PAVInventorySlotInfo@@V?$allocator@PAVInventorySlotInfo@@@_STL@@@_STL@@QAEAAPAVInventorySlotInfo@@XZ
_TEXT	SEGMENT PARA USE32 PUBLIC 'CODE'
_TEXT	ENDS
;	COMDAT ?push_back@?$list@PAVInventorySlotInfo@@V?$allocator@PAVInventorySlotInfo@@@_STL@@@_STL@@QAEXABQAVInventorySlotInfo@@@Z
_TEXT	SEGMENT PARA USE32 PUBLIC 'CODE'
_TEXT	ENDS
;	COMDAT ?pop_front@?$list@PAVInventorySlotInfo@@V?$allocator@PAVInventorySlotInfo@@@_STL@@@_STL@@QAEXXZ
_TEXT	SEGMENT PARA USE32 PUBLIC 'CODE'
_TEXT	ENDS
;	COMDAT ??1?$list@PAVInventorySlotInfo@@V?$allocator@PAVInventorySlotInfo@@@_STL@@@_STL@@QAE@XZ
_TEXT	SEGMENT PARA USE32 PUBLIC 'CODE'
_TEXT	ENDS
;	COMDAT ??0?$allocator@PAVInventorySlotInfo@@@_STL@@QAE@XZ
_TEXT	SEGMENT PARA USE32 PUBLIC 'CODE'
_TEXT	ENDS
;	COMDAT ??1?$allocator@PAVInventorySlotInfo@@@_STL@@QAE@XZ
_TEXT	SEGMENT PARA USE32 PUBLIC 'CODE'
_TEXT	ENDS
;	COMDAT ??0?$_List_iterator@PAVInventorySlotInfo@@U?$_Const_traits@PAVInventorySlotInfo@@@_STL@@@_STL@@QAE@ABU?$_List_iterator@PAVInventorySlotInfo@@U?$_Nonconst_traits@PAVInventorySlotInfo@@@_STL@@@1@@Z
_TEXT	SEGMENT PARA USE32 PUBLIC 'CODE'
_TEXT	ENDS
;	COMDAT ??D?$_List_iterator@PAVInventorySlotInfo@@U?$_Const_traits@PAVInventorySlotInfo@@@_STL@@@_STL@@QBEABQAVInventorySlotInfo@@XZ
_TEXT	SEGMENT PARA USE32 PUBLIC 'CODE'
_TEXT	ENDS
;	COMDAT ??E?$_List_iterator@PAVInventorySlotInfo@@U?$_Const_traits@PAVInventorySlotInfo@@@_STL@@@_STL@@QAE?AU01@H@Z
_TEXT	SEGMENT PARA USE32 PUBLIC 'CODE'
_TEXT	ENDS
;	COMDAT ?_M_terminate_string_aux@?$basic_string@DV?$char_traits@D@_STL@@V?$allocator@D@2@@_STL@@AAEXABU__true_type@2@@Z
_TEXT	SEGMENT PARA USE32 PUBLIC 'CODE'
_TEXT	ENDS
;	COMDAT ??0?$allocator@D@_STL@@QAE@ABV01@@Z
_TEXT	SEGMENT PARA USE32 PUBLIC 'CODE'
_TEXT	ENDS
;	COMDAT ??0?$_STLP_alloc_proxy@PADDV?$allocator@D@_STL@@@_STL@@QAE@ABV?$allocator@D@1@PAD@Z
_TEXT	SEGMENT PARA USE32 PUBLIC 'CODE'
_TEXT	ENDS
;	COMDAT ?state@?$fpos@H@_STL@@QAEXH@Z
_TEXT	SEGMENT PARA USE32 PUBLIC 'CODE'
_TEXT	ENDS
;	COMDAT ?get_allocator@?$_List_base@V?$basic_string@DV?$char_traits@D@_STL@@V?$allocator@D@2@@_STL@@V?$allocator@V?$basic_string@DV?$char_traits@D@_STL@@V?$allocator@D@2@@_STL@@@2@@_STL@@QBE?AV?$allocator@V?$basic_string@DV?$char_traits@D@_STL@@V?$allocator@D@2@@_STL@@@2@XZ
_TEXT	SEGMENT PARA USE32 PUBLIC 'CODE'
_TEXT	ENDS
;	COMDAT ?begin@?$list@GV?$allocator@G@_STL@@@_STL@@QBE?AU?$_List_iterator@GU?$_Const_traits@G@_STL@@@2@XZ
_TEXT	SEGMENT PARA USE32 PUBLIC 'CODE'
_TEXT	ENDS
;	COMDAT ?end@?$list@GV?$allocator@G@_STL@@@_STL@@QBE?AU?$_List_iterator@GU?$_Const_traits@G@_STL@@@2@XZ
_TEXT	SEGMENT PARA USE32 PUBLIC 'CODE'
_TEXT	ENDS
;	COMDAT ?insert@?$list@GV?$allocator@G@_STL@@@_STL@@QAE?AU?$_List_iterator@GU?$_Nonconst_traits@G@_STL@@@2@U32@ABG@Z
_TEXT	SEGMENT PARA USE32 PUBLIC 'CODE'
_TEXT	ENDS
;	COMDAT ?deallocate@?$allocator@U?$_List_node@G@_STL@@@_STL@@QAEXPAU?$_List_node@G@2@I@Z
_TEXT	SEGMENT PARA USE32 PUBLIC 'CODE'
_TEXT	ENDS
;	COMDAT ?begin@?$list@PAVSubItemInfo@@V?$allocator@PAVSubItemInfo@@@_STL@@@_STL@@QAE?AU?$_List_iterator@PAVSubItemInfo@@U?$_Nonconst_traits@PAVSubItemInfo@@@_STL@@@2@XZ
_TEXT	SEGMENT PARA USE32 PUBLIC 'CODE'
_TEXT	ENDS
;	COMDAT ?end@?$list@PAVSubItemInfo@@V?$allocator@PAVSubItemInfo@@@_STL@@@_STL@@QAE?AU?$_List_iterator@PAVSubItemInfo@@U?$_Nonconst_traits@PAVSubItemInfo@@@_STL@@@2@XZ
_TEXT	SEGMENT PARA USE32 PUBLIC 'CODE'
_TEXT	ENDS
;	COMDAT ?insert@?$list@PAVSubItemInfo@@V?$allocator@PAVSubItemInfo@@@_STL@@@_STL@@QAE?AU?$_List_iterator@PAVSubItemInfo@@U?$_Nonconst_traits@PAVSubItemInfo@@@_STL@@@2@U32@ABQAVSubItemInfo@@@Z
_TEXT	SEGMENT PARA USE32 PUBLIC 'CODE'
_TEXT	ENDS
;	COMDAT ?erase@?$list@PAVSubItemInfo@@V?$allocator@PAVSubItemInfo@@@_STL@@@_STL@@QAE?AU?$_List_iterator@PAVSubItemInfo@@U?$_Nonconst_traits@PAVSubItemInfo@@@_STL@@@2@U32@@Z
_TEXT	SEGMENT PARA USE32 PUBLIC 'CODE'
_TEXT	ENDS
;	COMDAT ??0?$_List_iterator@GU?$_Nonconst_traits@G@_STL@@@_STL@@QAE@PAU?$_List_node@G@1@@Z
_TEXT	SEGMENT PARA USE32 PUBLIC 'CODE'
_TEXT	ENDS
;	COMDAT ??D?$_List_iterator@GU?$_Nonconst_traits@G@_STL@@@_STL@@QBEAAGXZ
_TEXT	SEGMENT PARA USE32 PUBLIC 'CODE'
_TEXT	ENDS
;	COMDAT ?insert@?$list@PAVInventorySlotInfo@@V?$allocator@PAVInventorySlotInfo@@@_STL@@@_STL@@QAE?AU?$_List_iterator@PAVInventorySlotInfo@@U?$_Nonconst_traits@PAVInventorySlotInfo@@@_STL@@@2@U32@ABQAVInventorySlotInfo@@@Z
_TEXT	SEGMENT PARA USE32 PUBLIC 'CODE'
_TEXT	ENDS
;	COMDAT ?erase@?$list@PAVInventorySlotInfo@@V?$allocator@PAVInventorySlotInfo@@@_STL@@@_STL@@QAE?AU?$_List_iterator@PAVInventorySlotInfo@@U?$_Nonconst_traits@PAVInventorySlotInfo@@@_STL@@@2@U32@@Z
_TEXT	SEGMENT PARA USE32 PUBLIC 'CODE'
_TEXT	ENDS
;	COMDAT ??0?$_List_base@PAVInventorySlotInfo@@V?$allocator@PAVInventorySlotInfo@@@_STL@@@_STL@@QAE@ABV?$allocator@PAVInventorySlotInfo@@@1@@Z
_TEXT	SEGMENT PARA USE32 PUBLIC 'CODE'
_TEXT	ENDS
;	COMDAT ??1?$_List_base@PAVInventorySlotInfo@@V?$allocator@PAVInventorySlotInfo@@@_STL@@@_STL@@QAE@XZ
_TEXT	SEGMENT PARA USE32 PUBLIC 'CODE'
_TEXT	ENDS
;	COMDAT ??0?$_List_iterator@PAVInventorySlotInfo@@U?$_Const_traits@PAVInventorySlotInfo@@@_STL@@@_STL@@QAE@PAU?$_List_node@PAVInventorySlotInfo@@@1@@Z
_TEXT	SEGMENT PARA USE32 PUBLIC 'CODE'
_TEXT	ENDS
;	COMDAT ??0?$_List_iterator@PAVInventorySlotInfo@@U?$_Nonconst_traits@PAVInventorySlotInfo@@@_STL@@@_STL@@QAE@PAU?$_List_node@PAVInventorySlotInfo@@@1@@Z
_TEXT	SEGMENT PARA USE32 PUBLIC 'CODE'
_TEXT	ENDS
;	COMDAT ??D?$_List_iterator@PAVInventorySlotInfo@@U?$_Nonconst_traits@PAVInventorySlotInfo@@@_STL@@@_STL@@QBEAAPAVInventorySlotInfo@@XZ
_TEXT	SEGMENT PARA USE32 PUBLIC 'CODE'
_TEXT	ENDS
;	COMDAT ??D?$_List_iterator@GU?$_Const_traits@G@_STL@@@_STL@@QBEABGXZ
_TEXT	SEGMENT PARA USE32 PUBLIC 'CODE'
_TEXT	ENDS
;	COMDAT ??D?$_List_iterator@PAVSubItemInfo@@U?$_Nonconst_traits@PAVSubItemInfo@@@_STL@@@_STL@@QBEAAPAVSubItemInfo@@XZ
_TEXT	SEGMENT PARA USE32 PUBLIC 'CODE'
_TEXT	ENDS
;	COMDAT ??1?$_STLP_alloc_proxy@PAU?$_List_node@PAVInventorySlotInfo@@@_STL@@U12@V?$allocator@U?$_List_node@PAVInventorySlotInfo@@@_STL@@@2@@_STL@@QAE@XZ
_TEXT	SEGMENT PARA USE32 PUBLIC 'CODE'
_TEXT	ENDS
;	COMDAT ?_M_create_node@?$list@GV?$allocator@G@_STL@@@_STL@@IAEPAU?$_List_node@G@2@ABG@Z
_TEXT	SEGMENT PARA USE32 PUBLIC 'CODE'
_TEXT	ENDS
;	COMDAT ?_M_create_node@?$list@PAVSubItemInfo@@V?$allocator@PAVSubItemInfo@@@_STL@@@_STL@@IAEPAU?$_List_node@PAVSubItemInfo@@@2@ABQAVSubItemInfo@@@Z
_TEXT	SEGMENT PARA USE32 PUBLIC 'CODE'
_TEXT	ENDS
;	COMDAT ?deallocate@?$allocator@U?$_List_node@PAVSubItemInfo@@@_STL@@@_STL@@QAEXPAU?$_List_node@PAVSubItemInfo@@@2@I@Z
_TEXT	SEGMENT PARA USE32 PUBLIC 'CODE'
_TEXT	ENDS
;	COMDAT ?_M_create_node@?$list@PAVInventorySlotInfo@@V?$allocator@PAVInventorySlotInfo@@@_STL@@@_STL@@IAEPAU?$_List_node@PAVInventorySlotInfo@@@2@ABQAVInventorySlotInfo@@@Z
_TEXT	SEGMENT PARA USE32 PUBLIC 'CODE'
_TEXT	ENDS
;	COMDAT ??0?$_STLP_alloc_proxy@PAU?$_List_node@PAVInventorySlotInfo@@@_STL@@U12@V?$allocator@U?$_List_node@PAVInventorySlotInfo@@@_STL@@@2@@_STL@@QAE@ABV?$allocator@U?$_List_node@PAVInventorySlotInfo@@@_STL@@@1@PAU?$_List_node@PAVInventorySlotInfo@@@1@@Z
_TEXT	SEGMENT PARA USE32 PUBLIC 'CODE'
_TEXT	ENDS
;	COMDAT ??1?$allocator@U?$_List_node@PAVInventorySlotInfo@@@_STL@@@_STL@@QAE@XZ
_TEXT	SEGMENT PARA USE32 PUBLIC 'CODE'
_TEXT	ENDS
;	COMDAT ?allocate@?$allocator@U?$_List_node@PAVInventorySlotInfo@@@_STL@@@_STL@@QAEPAU?$_List_node@PAVInventorySlotInfo@@@2@IPBX@Z
_TEXT	SEGMENT PARA USE32 PUBLIC 'CODE'
_TEXT	ENDS
;	COMDAT ?deallocate@?$allocator@U?$_List_node@PAVInventorySlotInfo@@@_STL@@@_STL@@QAEXPAU?$_List_node@PAVInventorySlotInfo@@@2@I@Z
_TEXT	SEGMENT PARA USE32 PUBLIC 'CODE'
_TEXT	ENDS
;	COMDAT ??0?$_List_iterator@GU?$_Const_traits@G@_STL@@@_STL@@QAE@PAU?$_List_node@G@1@@Z
_TEXT	SEGMENT PARA USE32 PUBLIC 'CODE'
_TEXT	ENDS
;	COMDAT ??0?$_List_iterator@PAVSubItemInfo@@U?$_Nonconst_traits@PAVSubItemInfo@@@_STL@@@_STL@@QAE@PAU?$_List_node@PAVSubItemInfo@@@1@@Z
_TEXT	SEGMENT PARA USE32 PUBLIC 'CODE'
_TEXT	ENDS
;	COMDAT ?allocate@?$allocator@U?$_List_node@G@_STL@@@_STL@@QAEPAU?$_List_node@G@2@IPBX@Z
_TEXT	SEGMENT PARA USE32 PUBLIC 'CODE'
_TEXT	ENDS
;	COMDAT ?allocate@?$allocator@U?$_List_node@PAVSubItemInfo@@@_STL@@@_STL@@QAEPAU?$_List_node@PAVSubItemInfo@@@2@IPBX@Z
_TEXT	SEGMENT PARA USE32 PUBLIC 'CODE'
_TEXT	ENDS
;	COMDAT ??0?$allocator@U?$_List_node@PAVInventorySlotInfo@@@_STL@@@_STL@@QAE@ABV01@@Z
_TEXT	SEGMENT PARA USE32 PUBLIC 'CODE'
_TEXT	ENDS
;	COMDAT ??$_M_range_initialize@PBD@?$basic_string@DV?$char_traits@D@_STL@@V?$allocator@D@2@@_STL@@AAEXPBD0@Z
_TEXT	SEGMENT PARA USE32 PUBLIC 'CODE'
_TEXT	ENDS
;	COMDAT ??$_M_range_initialize@PAD@?$basic_string@DV?$char_traits@D@_STL@@V?$allocator@D@2@@_STL@@AAEXPAD0@Z
_TEXT	SEGMENT PARA USE32 PUBLIC 'CODE'
_TEXT	ENDS
;	COMDAT ?close@?$basic_filebuf@DV?$char_traits@D@_STL@@@_STL@@QAEPAV12@XZ
_TEXT	SEGMENT PARA USE32 PUBLIC 'CODE'
_TEXT	ENDS
;	COMDAT ?_M_exit_input_mode@?$basic_filebuf@DV?$char_traits@D@_STL@@@_STL@@AAEXXZ
_TEXT	SEGMENT PARA USE32 PUBLIC 'CODE'
_TEXT	ENDS
;	COMDAT ?_M_switch_to_output_mode@?$basic_filebuf@DV?$char_traits@D@_STL@@@_STL@@AAE_NXZ
_TEXT	SEGMENT PARA USE32 PUBLIC 'CODE'
_TEXT	ENDS
;	COMDAT ?_M_output_error@?$basic_filebuf@DV?$char_traits@D@_STL@@@_STL@@AAEHXZ
_TEXT	SEGMENT PARA USE32 PUBLIC 'CODE'
_TEXT	ENDS
;	COMDAT ?_M_allocate_buffers@?$basic_filebuf@DV?$char_traits@D@_STL@@@_STL@@AAE_NPADH@Z
_TEXT	SEGMENT PARA USE32 PUBLIC 'CODE'
_TEXT	ENDS
;	COMDAT ?_M_deallocate_buffers@?$basic_filebuf@DV?$char_traits@D@_STL@@@_STL@@AAEXXZ
_TEXT	SEGMENT PARA USE32 PUBLIC 'CODE'
_TEXT	ENDS
;	COMDAT ?_M_seek_init@?$basic_filebuf@DV?$char_traits@D@_STL@@@_STL@@AAE_N_N@Z
_TEXT	SEGMENT PARA USE32 PUBLIC 'CODE'
_TEXT	ENDS
;	COMDAT ?_M_setup_codecvt@?$basic_filebuf@DV?$char_traits@D@_STL@@@_STL@@AAEXABVlocale@2@@Z
_TEXT	SEGMENT PARA USE32 PUBLIC 'CODE'
_TEXT	ENDS
;	COMDAT ??$equal@PADPADU?$_Eq_traits@V?$char_traits@D@_STL@@@_STL@@@_STL@@YA_NPAD00U?$_Eq_traits@V?$char_traits@D@_STL@@@0@@Z
_TEXT	SEGMENT PARA USE32 PUBLIC 'CODE'
_TEXT	ENDS
;	COMDAT ??$_Destroy@V?$basic_string@DV?$char_traits@D@_STL@@V?$allocator@D@2@@_STL@@@_STL@@YAXPAV?$basic_string@DV?$char_traits@D@_STL@@V?$allocator@D@2@@0@@Z
_TEXT	SEGMENT PARA USE32 PUBLIC 'CODE'
_TEXT	ENDS
;	COMDAT ??$_M_assign_dispatch@PAD@?$basic_string@DV?$char_traits@D@_STL@@V?$allocator@D@2@@_STL@@AAEAAV01@PAD0ABU__false_type@1@@Z
_TEXT	SEGMENT PARA USE32 PUBLIC 'CODE'
_TEXT	ENDS
;	COMDAT ??4?$list@GV?$allocator@G@_STL@@@_STL@@QAEAAV01@ABV01@@Z
_TEXT	SEGMENT PARA USE32 PUBLIC 'CODE'
_TEXT	ENDS
;	COMDAT ?clear@?$_List_base@PAVSubItemInfo@@V?$allocator@PAVSubItemInfo@@@_STL@@@_STL@@QAEXXZ
_TEXT	SEGMENT PARA USE32 PUBLIC 'CODE'
_TEXT	ENDS
;	COMDAT ??$find@U?$_List_iterator@GU?$_Nonconst_traits@G@_STL@@@_STL@@G@_STL@@YA?AU?$_List_iterator@GU?$_Nonconst_traits@G@_STL@@@0@U10@0ABG@Z
_TEXT	SEGMENT PARA USE32 PUBLIC 'CODE'
_TEXT	ENDS
;	COMDAT ?clear@?$_List_base@PAVInventorySlotInfo@@V?$allocator@PAVInventorySlotInfo@@@_STL@@@_STL@@QAEXXZ
_TEXT	SEGMENT PARA USE32 PUBLIC 'CODE'
_TEXT	ENDS
;	COMDAT ??$insert@U?$_List_iterator@V?$basic_string@DV?$char_traits@D@_STL@@V?$allocator@D@2@@_STL@@U?$_Const_traits@V?$basic_string@DV?$char_traits@D@_STL@@V?$allocator@D@2@@_STL@@@2@@_STL@@@?$list@V?$basic_string@DV?$char_traits@D@_STL@@V?$allocator@D@2@@_STL@@V?$allocator@V?$basic_string@DV?$char_traits@D@_STL@@V?$allocator@D@2@@_STL@@@2@@_STL@@QAEXU?$_List_iterator@V?$basic_string@DV?$char_traits@D@_STL@@V?$allocator@D@2@@_STL@@U?$_Nonconst_traits@V?$basic_string@DV?$char_traits@D@_STL@@V?$allocator@D@2@@_STL@@@2@@1@U?$_List_iterator@V?$basic_string@DV?$char_traits@D@_STL@@V?$allocator@D@2@@_STL@@U?$_Const_traits@V?$basic_string@DV?$char_traits@D@_STL@@V?$allocator@D@2@@_STL@@@2@@1@1@Z
_TEXT	SEGMENT PARA USE32 PUBLIC 'CODE'
_TEXT	ENDS
;	COMDAT ??$distance@U?$_List_iterator@GU?$_Const_traits@G@_STL@@@_STL@@@_STL@@YAHABU?$_List_iterator@GU?$_Const_traits@G@_STL@@@0@0@Z
_TEXT	SEGMENT PARA USE32 PUBLIC 'CODE'
_TEXT	ENDS
;	COMDAT ??$_Destroy@G@_STL@@YAXPAG@Z
_TEXT	SEGMENT PARA USE32 PUBLIC 'CODE'
_TEXT	ENDS
;	COMDAT ??$?0U?$_List_node@V?$basic_string@DV?$char_traits@D@_STL@@V?$allocator@D@2@@_STL@@@_STL@@@?$allocator@V?$basic_string@DV?$char_traits@D@_STL@@V?$allocator@D@2@@_STL@@@_STL@@QAE@ABV?$allocator@U?$_List_node@V?$basic_string@DV?$char_traits@D@_STL@@V?$allocator@D@2@@_STL@@@_STL@@@1@@Z
_TEXT	SEGMENT PARA USE32 PUBLIC 'CODE'
_TEXT	ENDS
;	COMDAT ??$_Destroy@PAVSubItemInfo@@@_STL@@YAXPAPAVSubItemInfo@@@Z
_TEXT	SEGMENT PARA USE32 PUBLIC 'CODE'
_TEXT	ENDS
;	COMDAT ??$_Destroy@PAVInventorySlotInfo@@@_STL@@YAXPAPAVInventorySlotInfo@@@Z
_TEXT	SEGMENT PARA USE32 PUBLIC 'CODE'
_TEXT	ENDS
;	COMDAT ??$?0PAVInventorySlotInfo@@@?$allocator@U?$_List_node@PAVInventorySlotInfo@@@_STL@@@_STL@@QAE@ABV?$allocator@PAVInventorySlotInfo@@@1@@Z
_TEXT	SEGMENT PARA USE32 PUBLIC 'CODE'
_TEXT	ENDS
;	COMDAT ??$_Construct@GG@_STL@@YAXPAGABG@Z
_TEXT	SEGMENT PARA USE32 PUBLIC 'CODE'
_TEXT	ENDS
;	COMDAT ??$_Construct@PAVSubItemInfo@@PAV1@@_STL@@YAXPAPAVSubItemInfo@@ABQAV1@@Z
_TEXT	SEGMENT PARA USE32 PUBLIC 'CODE'
_TEXT	ENDS
;	COMDAT ??$_Construct@PAVInventorySlotInfo@@PAV1@@_STL@@YAXPAPAVInventorySlotInfo@@ABQAV1@@Z
_TEXT	SEGMENT PARA USE32 PUBLIC 'CODE'
_TEXT	ENDS
;	COMDAT ??_G?$basic_string@DV?$char_traits@D@_STL@@V?$allocator@D@2@@_STL@@QAEPAXI@Z
_TEXT	SEGMENT PARA USE32 PUBLIC 'CODE'
_TEXT	ENDS
;	COMDAT ?end@?$basic_string@DV?$char_traits@D@_STL@@V?$allocator@D@2@@_STL@@QAEPADXZ
_TEXT	SEGMENT PARA USE32 PUBLIC 'CODE'
_TEXT	ENDS
;	COMDAT ?erase@?$basic_string@DV?$char_traits@D@_STL@@V?$allocator@D@2@@_STL@@QAEPADPAD0@Z
_TEXT	SEGMENT PARA USE32 PUBLIC 'CODE'
_TEXT	ENDS
;	COMDAT ?_M_exit_putback_mode@?$basic_filebuf@DV?$char_traits@D@_STL@@@_STL@@AAEXXZ
_TEXT	SEGMENT PARA USE32 PUBLIC 'CODE'
_TEXT	ENDS
;	COMDAT ??0?$_List_iterator@V?$basic_string@DV?$char_traits@D@_STL@@V?$allocator@D@2@@_STL@@U?$_Nonconst_traits@V?$basic_string@DV?$char_traits@D@_STL@@V?$allocator@D@2@@_STL@@@2@@_STL@@QAE@ABU01@@Z
_TEXT	SEGMENT PARA USE32 PUBLIC 'CODE'
_TEXT	ENDS
;	COMDAT ??R?$_Eq_traits@V?$char_traits@D@_STL@@@_STL@@QBE_NABD0@Z
_TEXT	SEGMENT PARA USE32 PUBLIC 'CODE'
_TEXT	ENDS
;	COMDAT ?erase@?$list@GV?$allocator@G@_STL@@@_STL@@QAE?AU?$_List_iterator@GU?$_Nonconst_traits@G@_STL@@@2@U32@0@Z
_TEXT	SEGMENT PARA USE32 PUBLIC 'CODE'
_TEXT	ENDS
;	COMDAT ??E?$_List_iterator@GU?$_Nonconst_traits@G@_STL@@@_STL@@QAE?AU01@H@Z
_TEXT	SEGMENT PARA USE32 PUBLIC 'CODE'
_TEXT	ENDS
;	COMDAT ??E?$_List_iterator@GU?$_Const_traits@G@_STL@@@_STL@@QAE?AU01@H@Z
_TEXT	SEGMENT PARA USE32 PUBLIC 'CODE'
_TEXT	ENDS
;	COMDAT ?move@?$__char_traits_base@DH@_STL@@SAPADPADPBDI@Z
_TEXT	SEGMENT PARA USE32 PUBLIC 'CODE'
_TEXT	ENDS
;	COMDAT ??$_M_range_initialize@PBD@?$basic_string@DV?$char_traits@D@_STL@@V?$allocator@D@2@@_STL@@AAEXPBD0ABUforward_iterator_tag@1@@Z
_TEXT	SEGMENT PARA USE32 PUBLIC 'CODE'
_TEXT	ENDS
;	COMDAT ??$_M_range_initialize@PAD@?$basic_string@DV?$char_traits@D@_STL@@V?$allocator@D@2@@_STL@@AAEXPAD0ABUforward_iterator_tag@1@@Z
_TEXT	SEGMENT PARA USE32 PUBLIC 'CODE'
_TEXT	ENDS
;	COMDAT ?_M_unshift@?$basic_filebuf@DV?$char_traits@D@_STL@@@_STL@@AAE_NXZ
_TEXT	SEGMENT PARA USE32 PUBLIC 'CODE'
_TEXT	ENDS
;	COMDAT ?_M_allocate_buffers@?$basic_filebuf@DV?$char_traits@D@_STL@@@_STL@@AAE_NXZ
_TEXT	SEGMENT PARA USE32 PUBLIC 'CODE'
_TEXT	ENDS
;	COMDAT ??$max@H@_STL@@YAABHABH0@Z
_TEXT	SEGMENT PARA USE32 PUBLIC 'CODE'
_TEXT	ENDS
;	COMDAT ??$use_facet@V?$codecvt@DDH@_STL@@@_STL@@YAABV?$codecvt@DDH@0@ABVlocale@0@@Z
_TEXT	SEGMENT PARA USE32 PUBLIC 'CODE'
_TEXT	ENDS
;	COMDAT ??$append@PAD@?$basic_string@DV?$char_traits@D@_STL@@V?$allocator@D@2@@_STL@@QAEAAV01@PAD0@Z
_TEXT	SEGMENT PARA USE32 PUBLIC 'CODE'
_TEXT	ENDS
;	COMDAT ??$insert@U?$_List_iterator@GU?$_Const_traits@G@_STL@@@_STL@@@?$list@GV?$allocator@G@_STL@@@_STL@@QAEXU?$_List_iterator@GU?$_Nonconst_traits@G@_STL@@@1@U?$_List_iterator@GU?$_Const_traits@G@_STL@@@1@1@Z
_TEXT	SEGMENT PARA USE32 PUBLIC 'CODE'
_TEXT	ENDS
;	COMDAT ??$__find@U?$_List_iterator@GU?$_Nonconst_traits@G@_STL@@@_STL@@G@_STL@@YA?AU?$_List_iterator@GU?$_Nonconst_traits@G@_STL@@@0@U10@0ABGABUinput_iterator_tag@0@@Z
_TEXT	SEGMENT PARA USE32 PUBLIC 'CODE'
_TEXT	ENDS
;	COMDAT ??$_M_insert_dispatch@U?$_List_iterator@V?$basic_string@DV?$char_traits@D@_STL@@V?$allocator@D@2@@_STL@@U?$_Const_traits@V?$basic_string@DV?$char_traits@D@_STL@@V?$allocator@D@2@@_STL@@@2@@_STL@@@?$list@V?$basic_string@DV?$char_traits@D@_STL@@V?$allocator@D@2@@_STL@@V?$allocator@V?$basic_string@DV?$char_traits@D@_STL@@V?$allocator@D@2@@_STL@@@2@@_STL@@QAEXU?$_List_iterator@V?$basic_string@DV?$char_traits@D@_STL@@V?$allocator@D@2@@_STL@@U?$_Nonconst_traits@V?$basic_string@DV?$char_traits@D@_STL@@V?$allocator@D@2@@_STL@@@2@@1@U?$_List_iterator@V?$basic_string@DV?$char_traits@D@_STL@@V?$allocator@D@2@@_STL@@U?$_Const_traits@V?$basic_string@DV?$char_traits@D@_STL@@V?$allocator@D@2@@_STL@@@2@@1@1ABU__false_type@1@@Z
_TEXT	SEGMENT PARA USE32 PUBLIC 'CODE'
_TEXT	ENDS
;	COMDAT ??$__distance@U?$_List_iterator@GU?$_Const_traits@G@_STL@@@_STL@@@_STL@@YAHABU?$_List_iterator@GU?$_Const_traits@G@_STL@@@0@0ABUinput_iterator_tag@0@@Z
_TEXT	SEGMENT PARA USE32 PUBLIC 'CODE'
_TEXT	ENDS
;	COMDAT ??E?$_List_iterator@V?$basic_string@DV?$char_traits@D@_STL@@V?$allocator@D@2@@_STL@@U?$_Const_traits@V?$basic_string@DV?$char_traits@D@_STL@@V?$allocator@D@2@@_STL@@@2@@_STL@@QAEAAU01@XZ
_TEXT	SEGMENT PARA USE32 PUBLIC 'CODE'
_TEXT	ENDS
;	COMDAT ??E?$_List_iterator@GU?$_Nonconst_traits@G@_STL@@@_STL@@QAEAAU01@XZ
_TEXT	SEGMENT PARA USE32 PUBLIC 'CODE'
_TEXT	ENDS
;	COMDAT ??E?$_List_iterator@GU?$_Const_traits@G@_STL@@@_STL@@QAEAAU01@XZ
_TEXT	SEGMENT PARA USE32 PUBLIC 'CODE'
_TEXT	ENDS
;	COMDAT ??$distance@PBD@_STL@@YAHABQBD0@Z
_TEXT	SEGMENT PARA USE32 PUBLIC 'CODE'
_TEXT	ENDS
;	COMDAT ?_M_allocate_block@?$_String_base@DV?$allocator@D@_STL@@@_STL@@QAEXI@Z
_TEXT	SEGMENT PARA USE32 PUBLIC 'CODE'
_TEXT	ENDS
;	COMDAT ??$distance@PAD@_STL@@YAHABQAD0@Z
_TEXT	SEGMENT PARA USE32 PUBLIC 'CODE'
_TEXT	ENDS
;	COMDAT ??$uninitialized_copy@PADPAD@_STL@@YAPADPAD00@Z
_TEXT	SEGMENT PARA USE32 PUBLIC 'CODE'
_TEXT	ENDS
;	COMDAT ??$_M_append_dispatch@PAD@?$basic_string@DV?$char_traits@D@_STL@@V?$allocator@D@2@@_STL@@AAEAAV01@PAD0ABU__false_type@1@@Z
_TEXT	SEGMENT PARA USE32 PUBLIC 'CODE'
_TEXT	ENDS
;	COMDAT ??$_M_insert_dispatch@U?$_List_iterator@GU?$_Const_traits@G@_STL@@@_STL@@@?$list@GV?$allocator@G@_STL@@@_STL@@QAEXU?$_List_iterator@GU?$_Nonconst_traits@G@_STL@@@1@U?$_List_iterator@GU?$_Const_traits@G@_STL@@@1@1ABU__false_type@1@@Z
_TEXT	SEGMENT PARA USE32 PUBLIC 'CODE'
_TEXT	ENDS
;	COMDAT ?max_size@?$_String_base@DV?$allocator@D@_STL@@@_STL@@QBEIXZ
_TEXT	SEGMENT PARA USE32 PUBLIC 'CODE'
_TEXT	ENDS
;	COMDAT ??$__distance@PBD@_STL@@YAHABQBD0ABUrandom_access_iterator_tag@0@@Z
_TEXT	SEGMENT PARA USE32 PUBLIC 'CODE'
_TEXT	ENDS
;	COMDAT ?_M_throw_length_error@?$_String_base@DV?$allocator@D@_STL@@@_STL@@QBEXXZ
_TEXT	SEGMENT PARA USE32 PUBLIC 'CODE'
_TEXT	ENDS
;	COMDAT ??$__distance@PAD@_STL@@YAHABQAD0ABUrandom_access_iterator_tag@0@@Z
_TEXT	SEGMENT PARA USE32 PUBLIC 'CODE'
_TEXT	ENDS
;	COMDAT ??$__uninitialized_copy@PADPAD@_STL@@YAPADPAD00ABU__true_type@0@@Z
_TEXT	SEGMENT PARA USE32 PUBLIC 'CODE'
_TEXT	ENDS
;	COMDAT ??$append@PAD@?$basic_string@DV?$char_traits@D@_STL@@V?$allocator@D@2@@_STL@@AAEAAV01@PAD0ABUforward_iterator_tag@1@@Z
_TEXT	SEGMENT PARA USE32 PUBLIC 'CODE'
_TEXT	ENDS
;	COMDAT ?_M_construct_null@?$basic_string@DV?$char_traits@D@_STL@@V?$allocator@D@2@@_STL@@AAEXPAD@Z
_TEXT	SEGMENT PARA USE32 PUBLIC 'CODE'
_TEXT	ENDS
;	COMDAT ?max_size@?$basic_string@DV?$char_traits@D@_STL@@V?$allocator@D@2@@_STL@@QBEIXZ
_TEXT	SEGMENT PARA USE32 PUBLIC 'CODE'
_TEXT	ENDS
;	COMDAT ?capacity@?$basic_string@DV?$char_traits@D@_STL@@V?$allocator@D@2@@_STL@@QBEIXZ
_TEXT	SEGMENT PARA USE32 PUBLIC 'CODE'
_TEXT	ENDS
;	COMDAT ?_Ret@?$_BothPtrType@PADPAD@_STL@@SA?AU__true_type@2@XZ
_TEXT	SEGMENT PARA USE32 PUBLIC 'CODE'
_TEXT	ENDS
;	COMDAT ?_M_construct_null_aux@?$basic_string@DV?$char_traits@D@_STL@@V?$allocator@D@2@@_STL@@AAEXPADABU__true_type@2@@Z
_TEXT	SEGMENT PARA USE32 PUBLIC 'CODE'
_TEXT	ENDS
;	COMDAT ??$__copy_aux@PADPAD@_STL@@YAPADPAD00ABU__true_type@0@@Z
_TEXT	SEGMENT PARA USE32 PUBLIC 'CODE'
_TEXT	ENDS
;	COMDAT ??$max@I@_STL@@YAABIABI0@Z
_TEXT	SEGMENT PARA USE32 PUBLIC 'CODE'
_TEXT	ENDS
;	COMDAT ?_Ret@?$_OKToMemCpy@DD@_STL@@SA?AU__true_type@2@XZ
_TEXT	SEGMENT PARA USE32 PUBLIC 'CODE'
_TEXT	ENDS
;	COMDAT ??$_IsOKToMemCpy@DD@_STL@@YA?AU?$_OKToMemCpy@DD@0@PAD0@Z
_TEXT	SEGMENT PARA USE32 PUBLIC 'CODE'
_TEXT	ENDS
;	COMDAT ??$__copy_ptrs@PADPAD@_STL@@YAPADPAD00ABU__true_type@0@@Z
_TEXT	SEGMENT PARA USE32 PUBLIC 'CODE'
_TEXT	ENDS
;	COMDAT ??_R3Packet@@8
rdata$r	SEGMENT DWORD USE32 PUBLIC 'CONST'
rdata$r	ENDS
;	COMDAT ??_R3InventorySlotInfo@@8
rdata$r	SEGMENT DWORD USE32 PUBLIC 'CONST'
rdata$r	ENDS
;	COMDAT ??_R2Packet@@8
rdata$r	SEGMENT DWORD USE32 PUBLIC 'CONST'
rdata$r	ENDS
;	COMDAT ??_R2InventorySlotInfo@@8
rdata$r	SEGMENT DWORD USE32 PUBLIC 'CONST'
rdata$r	ENDS
;	COMDAT ??_R1A@?0A@A@Packet@@8
rdata$r	SEGMENT DWORD USE32 PUBLIC 'CONST'
rdata$r	ENDS
;	COMDAT ??_R1A@?0A@A@PCItemInfo@@8
rdata$r	SEGMENT DWORD USE32 PUBLIC 'CONST'
rdata$r	ENDS
;	COMDAT ??_R1A@?0A@A@InventorySlotInfo@@8
rdata$r	SEGMENT DWORD USE32 PUBLIC 'CONST'
rdata$r	ENDS
;	COMDAT ??_R0?AVPacket@@@8
_DATA	SEGMENT DWORD USE32 PUBLIC 'DATA'
_DATA	ENDS
;	COMDAT ??_R0?AVPCItemInfo@@@8
_DATA	SEGMENT DWORD USE32 PUBLIC 'DATA'
_DATA	ENDS
;	COMDAT ??_R0?AVInventorySlotInfo@@@8
_DATA	SEGMENT DWORD USE32 PUBLIC 'DATA'
_DATA	ENDS
;	COMDAT ??_R4Packet@@6B@
rdata$r	SEGMENT DWORD USE32 PUBLIC 'CONST'
rdata$r	ENDS
;	COMDAT ??_R4InventorySlotInfo@@6B@
rdata$r	SEGMENT DWORD USE32 PUBLIC 'CONST'
rdata$r	ENDS
;	COMDAT ?__copy_trivial@_STL@@YAPAXPBX0PAX@Z
_TEXT	SEGMENT PARA USE32 PUBLIC 'CODE'
_TEXT	ENDS
;	COMDAT ?_M_deallocate_block@?$_String_base@DV?$allocator@D@_STL@@@_STL@@QAEXXZ
_TEXT	SEGMENT PARA USE32 PUBLIC 'CODE'
_TEXT	ENDS
;	COMDAT ?deallocate@?$allocator@D@_STL@@QAEXPADI@Z
_TEXT	SEGMENT PARA USE32 PUBLIC 'CODE'
_TEXT	ENDS
;	COMDAT ??D?$_List_iterator@V?$basic_string@DV?$char_traits@D@_STL@@V?$allocator@D@2@@_STL@@U?$_Const_traits@V?$basic_string@DV?$char_traits@D@_STL@@V?$allocator@D@2@@_STL@@@2@@_STL@@QBEABV?$basic_string@DV?$char_traits@D@_STL@@V?$allocator@D@2@@1@XZ
_TEXT	SEGMENT PARA USE32 PUBLIC 'CODE'
_TEXT	ENDS
;	COMDAT ?insert@?$list@V?$basic_string@DV?$char_traits@D@_STL@@V?$allocator@D@2@@_STL@@V?$allocator@V?$basic_string@DV?$char_traits@D@_STL@@V?$allocator@D@2@@_STL@@@2@@_STL@@QAE?AU?$_List_iterator@V?$basic_string@DV?$char_traits@D@_STL@@V?$allocator@D@2@@_STL@@U?$_Nonconst_traits@V?$basic_string@DV?$char_traits@D@_STL@@V?$allocator@D@2@@_STL@@@2@@2@U32@ABV?$basic_string@DV?$char_traits@D@_STL@@V?$allocator@D@2@@2@@Z
_TEXT	SEGMENT PARA USE32 PUBLIC 'CODE'
_TEXT	ENDS
;	COMDAT ?_M_create_node@?$list@V?$basic_string@DV?$char_traits@D@_STL@@V?$allocator@D@2@@_STL@@V?$allocator@V?$basic_string@DV?$char_traits@D@_STL@@V?$allocator@D@2@@_STL@@@2@@_STL@@IAEPAU?$_List_node@V?$basic_string@DV?$char_traits@D@_STL@@V?$allocator@D@2@@_STL@@@2@ABV?$basic_string@DV?$char_traits@D@_STL@@V?$allocator@D@2@@2@@Z
_TEXT	SEGMENT PARA USE32 PUBLIC 'CODE'
_TEXT	ENDS
;	COMDAT ?allocate@?$allocator@U?$_List_node@V?$basic_string@DV?$char_traits@D@_STL@@V?$allocator@D@2@@_STL@@@_STL@@@_STL@@QAEPAU?$_List_node@V?$basic_string@DV?$char_traits@D@_STL@@V?$allocator@D@2@@_STL@@@2@IPBX@Z
_TEXT	SEGMENT PARA USE32 PUBLIC 'CODE'
_TEXT	ENDS
;	COMDAT ??$_Construct@V?$basic_string@DV?$char_traits@D@_STL@@V?$allocator@D@2@@_STL@@V12@@_STL@@YAXPAV?$basic_string@DV?$char_traits@D@_STL@@V?$allocator@D@2@@0@ABV10@@Z
_TEXT	SEGMENT PARA USE32 PUBLIC 'CODE'
_TEXT	ENDS
;	COMDAT ??3@YAXPAX0@Z
_TEXT	SEGMENT PARA USE32 PUBLIC 'CODE'
_TEXT	ENDS
;	COMDAT ?deallocate@?$allocator@U?$_List_node@V?$basic_string@DV?$char_traits@D@_STL@@V?$allocator@D@2@@_STL@@@_STL@@@_STL@@QAEXPAU?$_List_node@V?$basic_string@DV?$char_traits@D@_STL@@V?$allocator@D@2@@_STL@@@2@I@Z
_TEXT	SEGMENT PARA USE32 PUBLIC 'CODE'
_TEXT	ENDS
;	COMDAT ??0?$_List_iterator@V?$basic_string@DV?$char_traits@D@_STL@@V?$allocator@D@2@@_STL@@U?$_Nonconst_traits@V?$basic_string@DV?$char_traits@D@_STL@@V?$allocator@D@2@@_STL@@@2@@_STL@@QAE@PAU?$_List_node@V?$basic_string@DV?$char_traits@D@_STL@@V?$allocator@D@2@@_STL@@@1@@Z
_TEXT	SEGMENT PARA USE32 PUBLIC 'CODE'
_TEXT	ENDS
;	COMDAT ?__page_size@_Filebuf_base@_STL@@SAIXZ
_TEXT	SEGMENT PARA USE32 PUBLIC 'CODE'
_TEXT	ENDS
;	COMDAT ?_M_write@?$basic_filebuf@DV?$char_traits@D@_STL@@@_STL@@QAE_NPADH@Z
_TEXT	SEGMENT PARA USE32 PUBLIC 'CODE'
_TEXT	ENDS
;	COMDAT ?unshift@?$codecvt@DDH@_STL@@QBE?AW4result@codecvt_base@2@AAHPAD1AAPAD@Z
_TEXT	SEGMENT PARA USE32 PUBLIC 'CODE'
_TEXT	ENDS
;	COMDAT ?uninitialized_copy@_STL@@YAPADPBD0PAD@Z
_TEXT	SEGMENT PARA USE32 PUBLIC 'CODE'
_TEXT	ENDS
;	COMDAT ?_Destroy@_STL@@YAXPAD0@Z
_TEXT	SEGMENT PARA USE32 PUBLIC 'CODE'
_TEXT	ENDS
;	COMDAT ??2@YAPAXIPAX@Z
_TEXT	SEGMENT PARA USE32 PUBLIC 'CODE'
_TEXT	ENDS
;	COMDAT ??8_List_iterator_base@_STL@@QBE_NABU01@@Z
_TEXT	SEGMENT PARA USE32 PUBLIC 'CODE'
_TEXT	ENDS
;	COMDAT ?assign@?$char_traits@D@_STL@@SAXAADABD@Z
_TEXT	SEGMENT PARA USE32 PUBLIC 'CODE'
_TEXT	ENDS
;	COMDAT ?always_noconv@?$codecvt@DDH@_STL@@QBE_NXZ
_TEXT	SEGMENT PARA USE32 PUBLIC 'CODE'
_TEXT	ENDS
;	COMDAT ?encoding@?$codecvt@DDH@_STL@@QBEHXZ
_TEXT	SEGMENT PARA USE32 PUBLIC 'CODE'
_TEXT	ENDS
;	COMDAT ?max_length@?$codecvt@DDH@_STL@@QBEHXZ
_TEXT	SEGMENT PARA USE32 PUBLIC 'CODE'
_TEXT	ENDS
;	COMDAT ?__o_mode@_Filebuf_base@_STL@@QBEHXZ
_TEXT	SEGMENT PARA USE32 PUBLIC 'CODE'
_TEXT	ENDS
;	COMDAT ?deallocate@?$__node_alloc@$00$0A@@_STL@@SAXPAXI@Z
_TEXT	SEGMENT PARA USE32 PUBLIC 'CODE'
_TEXT	ENDS
;	COMDAT ?__stl_delete@_STL@@YAXPAX@Z
_TEXT	SEGMENT PARA USE32 PUBLIC 'CODE'
_TEXT	ENDS
;	COMDAT ?_M_incr@_List_iterator_base@_STL@@QAEXXZ
_TEXT	SEGMENT PARA USE32 PUBLIC 'CODE'
_TEXT	ENDS
;	COMDAT ??0_List_iterator_base@_STL@@QAE@PAU_List_node_base@1@@Z
_TEXT	SEGMENT PARA USE32 PUBLIC 'CODE'
_TEXT	ENDS
;	COMDAT ?begin@?$list@V?$basic_string@DV?$char_traits@D@_STL@@V?$allocator@D@2@@_STL@@V?$allocator@V?$basic_string@DV?$char_traits@D@_STL@@V?$allocator@D@2@@_STL@@@2@@_STL@@QAE?AU?$_List_iterator@V?$basic_string@DV?$char_traits@D@_STL@@V?$allocator@D@2@@_STL@@U?$_Nonconst_traits@V?$basic_string@DV?$char_traits@D@_STL@@V?$allocator@D@2@@_STL@@@2@@2@XZ
_TEXT	SEGMENT PARA USE32 PUBLIC 'CODE'
_TEXT	ENDS
;	COMDAT ?begin@?$list@V?$basic_string@DV?$char_traits@D@_STL@@V?$allocator@D@2@@_STL@@V?$allocator@V?$basic_string@DV?$char_traits@D@_STL@@V?$allocator@D@2@@_STL@@@2@@_STL@@QBE?AU?$_List_iterator@V?$basic_string@DV?$char_traits@D@_STL@@V?$allocator@D@2@@_STL@@U?$_Const_traits@V?$basic_string@DV?$char_traits@D@_STL@@V?$allocator@D@2@@_STL@@@2@@2@XZ
_TEXT	SEGMENT PARA USE32 PUBLIC 'CODE'
_TEXT	ENDS
;	COMDAT ??0?$_List_iterator@V?$basic_string@DV?$char_traits@D@_STL@@V?$allocator@D@2@@_STL@@U?$_Const_traits@V?$basic_string@DV?$char_traits@D@_STL@@V?$allocator@D@2@@_STL@@@2@@_STL@@QAE@PAU?$_List_node@V?$basic_string@DV?$char_traits@D@_STL@@V?$allocator@D@2@@_STL@@@1@@Z
_TEXT	SEGMENT PARA USE32 PUBLIC 'CODE'
_TEXT	ENDS
;	COMDAT ?end@?$list@V?$basic_string@DV?$char_traits@D@_STL@@V?$allocator@D@2@@_STL@@V?$allocator@V?$basic_string@DV?$char_traits@D@_STL@@V?$allocator@D@2@@_STL@@@2@@_STL@@QBE?AU?$_List_iterator@V?$basic_string@DV?$char_traits@D@_STL@@V?$allocator@D@2@@_STL@@U?$_Const_traits@V?$basic_string@DV?$char_traits@D@_STL@@V?$allocator@D@2@@_STL@@@2@@2@XZ
_TEXT	SEGMENT PARA USE32 PUBLIC 'CODE'
_TEXT	ENDS
;	COMDAT ??1?$_List_base@V?$basic_string@DV?$char_traits@D@_STL@@V?$allocator@D@2@@_STL@@V?$allocator@V?$basic_string@DV?$char_traits@D@_STL@@V?$allocator@D@2@@_STL@@@2@@_STL@@QAE@XZ
_TEXT	SEGMENT PARA USE32 PUBLIC 'CODE'
_TEXT	ENDS
;	COMDAT ??1?$_STLP_alloc_proxy@PAU?$_List_node@V?$basic_string@DV?$char_traits@D@_STL@@V?$allocator@D@2@@_STL@@@_STL@@U12@V?$allocator@U?$_List_node@V?$basic_string@DV?$char_traits@D@_STL@@V?$allocator@D@2@@_STL@@@_STL@@@2@@_STL@@QAE@XZ
_TEXT	SEGMENT PARA USE32 PUBLIC 'CODE'
_TEXT	ENDS
;	COMDAT ??1?$allocator@U?$_List_node@V?$basic_string@DV?$char_traits@D@_STL@@V?$allocator@D@2@@_STL@@@_STL@@@_STL@@QAE@XZ
_TEXT	SEGMENT PARA USE32 PUBLIC 'CODE'
_TEXT	ENDS
;	COMDAT ?clear@?$_List_base@V?$basic_string@DV?$char_traits@D@_STL@@V?$allocator@D@2@@_STL@@V?$allocator@V?$basic_string@DV?$char_traits@D@_STL@@V?$allocator@D@2@@_STL@@@2@@_STL@@QAEXXZ
_TEXT	SEGMENT PARA USE32 PUBLIC 'CODE'
_TEXT	ENDS
;	COMDAT ??1?$allocator@V?$basic_string@DV?$char_traits@D@_STL@@V?$allocator@D@2@@_STL@@@_STL@@QAE@XZ
_TEXT	SEGMENT PARA USE32 PUBLIC 'CODE'
_TEXT	ENDS
;	COMDAT ??0?$_List_base@V?$basic_string@DV?$char_traits@D@_STL@@V?$allocator@D@2@@_STL@@V?$allocator@V?$basic_string@DV?$char_traits@D@_STL@@V?$allocator@D@2@@_STL@@@2@@_STL@@QAE@ABV?$allocator@V?$basic_string@DV?$char_traits@D@_STL@@V?$allocator@D@2@@_STL@@@1@@Z
_TEXT	SEGMENT PARA USE32 PUBLIC 'CODE'
_TEXT	ENDS
;	COMDAT ??0?$_STLP_alloc_proxy@PAU?$_List_node@V?$basic_string@DV?$char_traits@D@_STL@@V?$allocator@D@2@@_STL@@@_STL@@U12@V?$allocator@U?$_List_node@V?$basic_string@DV?$char_traits@D@_STL@@V?$allocator@D@2@@_STL@@@_STL@@@2@@_STL@@QAE@ABV?$allocator@U?$_List_node@V?$basic_string@DV?$char_traits@D@_STL@@V?$allocator@D@2@@_STL@@@_STL@@@1@PAU?$_List_node@V?$basic_string@DV?$char_traits@D@_STL@@V?$allocator@D@2@@_STL@@@1@@Z
_TEXT	SEGMENT PARA USE32 PUBLIC 'CODE'
_TEXT	ENDS
;	COMDAT ??0?$allocator@U?$_List_node@V?$basic_string@DV?$char_traits@D@_STL@@V?$allocator@D@2@@_STL@@@_STL@@@_STL@@QAE@ABV01@@Z
_TEXT	SEGMENT PARA USE32 PUBLIC 'CODE'
_TEXT	ENDS
;	COMDAT ??$?0V?$basic_string@DV?$char_traits@D@_STL@@V?$allocator@D@2@@_STL@@@?$allocator@U?$_List_node@V?$basic_string@DV?$char_traits@D@_STL@@V?$allocator@D@2@@_STL@@@_STL@@@_STL@@QAE@ABV?$allocator@V?$basic_string@DV?$char_traits@D@_STL@@V?$allocator@D@2@@_STL@@@1@@Z
_TEXT	SEGMENT PARA USE32 PUBLIC 'CODE'
_TEXT	ENDS
;	COMDAT ?setp@?$basic_streambuf@DV?$char_traits@D@_STL@@@_STL@@IAEXPAD0@Z
_TEXT	SEGMENT PARA USE32 PUBLIC 'CODE'
_TEXT	ENDS
;	COMDAT ?_FILE_O_set@_STL@@YAXPAU_iobuf@@PAD11@Z
_TEXT	SEGMENT PARA USE32 PUBLIC 'CODE'
_TEXT	ENDS
;	COMDAT ?_FILE_I_set@_STL@@YAXPAU_iobuf@@PAD11@Z
_TEXT	SEGMENT PARA USE32 PUBLIC 'CODE'
_TEXT	ENDS
;	COMDAT ?setg@?$basic_streambuf@DV?$char_traits@D@_STL@@@_STL@@IAEXPAD00@Z
_TEXT	SEGMENT PARA USE32 PUBLIC 'CODE'
_TEXT	ENDS
;	COMDAT ?__is_open@_Filebuf_base@_STL@@QBE_NXZ
_TEXT	SEGMENT PARA USE32 PUBLIC 'CODE'
_TEXT	ENDS
;	COMDAT ?allocate@?$__node_alloc@$00$0A@@_STL@@SAPAXI@Z
_TEXT	SEGMENT PARA USE32 PUBLIC 'CODE'
_TEXT	ENDS
;	COMDAT ?__stl_new@_STL@@YAPAXI@Z
_TEXT	SEGMENT PARA USE32 PUBLIC 'CODE'
_TEXT	ENDS
;	COMDAT ??1?$_STLP_alloc_proxy@PADDV?$allocator@D@_STL@@@_STL@@QAE@XZ
_TEXT	SEGMENT PARA USE32 PUBLIC 'CODE'
_TEXT	ENDS
;	COMDAT ??1?$allocator@D@_STL@@QAE@XZ
_TEXT	SEGMENT PARA USE32 PUBLIC 'CODE'
_TEXT	ENDS
;	COMDAT ?eof@?$__char_traits_base@DH@_STL@@SAHXZ
_TEXT	SEGMENT PARA USE32 PUBLIC 'CODE'
_TEXT	ENDS
;	COMDAT ??_7InventorySlotInfo@@6B@
CONST	SEGMENT DWORD USE32 PUBLIC 'CONST'
CONST	ENDS
;	COMDAT ??1?$list@V?$basic_string@DV?$char_traits@D@_STL@@V?$allocator@D@2@@_STL@@V?$allocator@V?$basic_string@DV?$char_traits@D@_STL@@V?$allocator@D@2@@_STL@@@2@@_STL@@QAE@XZ
_TEXT	SEGMENT PARA USE32 PUBLIC 'CODE'
_TEXT	ENDS
;	COMDAT ??_7Throwable@@6B@
CONST	SEGMENT DWORD USE32 PUBLIC 'CONST'
CONST	ENDS
;	COMDAT ??_R4Throwable@@6B@
rdata$r	SEGMENT DWORD USE32 PUBLIC 'CONST'
rdata$r	ENDS
;	COMDAT ??_R3Throwable@@8
rdata$r	SEGMENT DWORD USE32 PUBLIC 'CONST'
rdata$r	ENDS
;	COMDAT ??_R2Throwable@@8
rdata$r	SEGMENT DWORD USE32 PUBLIC 'CONST'
rdata$r	ENDS
;	COMDAT ??_R1A@?0A@A@Throwable@@8
rdata$r	SEGMENT DWORD USE32 PUBLIC 'CONST'
rdata$r	ENDS
;	COMDAT ??_GThrowable@@UAEPAXI@Z
_TEXT	SEGMENT PARA USE32 PUBLIC 'CODE'
_TEXT	ENDS
;	COMDAT ?getName@Throwable@@UBE?AV?$basic_string@DV?$char_traits@D@_STL@@V?$allocator@D@2@@_STL@@XZ
_TEXT	SEGMENT PARA USE32 PUBLIC 'CODE'
_TEXT	ENDS
;	COMDAT ??0?$basic_string@DV?$char_traits@D@_STL@@V?$allocator@D@2@@_STL@@QAE@PBDABV?$allocator@D@1@@Z
_TEXT	SEGMENT PARA USE32 PUBLIC 'CODE'
_TEXT	ENDS
;	COMDAT ??1?$_String_base@DV?$allocator@D@_STL@@@_STL@@QAE@XZ
_TEXT	SEGMENT PARA USE32 PUBLIC 'CODE'
_TEXT	ENDS
;	COMDAT ?length@?$char_traits@D@_STL@@SAIPBD@Z
_TEXT	SEGMENT PARA USE32 PUBLIC 'CODE'
_TEXT	ENDS
;	COMDAT ??0?$allocator@D@_STL@@QAE@XZ
_TEXT	SEGMENT PARA USE32 PUBLIC 'CODE'
_TEXT	ENDS
;	COMDAT ??_C@_09KCKHMJEM@Throwable?$AA@
CONST	SEGMENT DWORD USE32 PUBLIC 'CONST'
CONST	ENDS
;	COMDAT ?toString@Throwable@@UBE?AV?$basic_string@DV?$char_traits@D@_STL@@V?$allocator@D@2@@_STL@@XZ
_TEXT	SEGMENT PARA USE32 PUBLIC 'CODE'
_TEXT	ENDS
;	COMDAT ??_C@_03MCPBMLDJ@?5?3?5?$AA@
CONST	SEGMENT DWORD USE32 PUBLIC 'CONST'
CONST	ENDS
;	COMDAT ?getStackTrace@Throwable@@QBE?AV?$basic_string@DV?$char_traits@D@_STL@@V?$allocator@D@2@@_STL@@XZ
_TEXT	SEGMENT PARA USE32 PUBLIC 'CODE'
_TEXT	ENDS
;	COMDAT ??E?$_List_iterator@V?$basic_string@DV?$char_traits@D@_STL@@V?$allocator@D@2@@_STL@@U?$_Const_traits@V?$basic_string@DV?$char_traits@D@_STL@@V?$allocator@D@2@@_STL@@@2@@_STL@@QAE?AU01@H@Z
_TEXT	SEGMENT PARA USE32 PUBLIC 'CODE'
_TEXT	ENDS
;	COMDAT ??_C@_01CLKCMJKC@?5?$AA@
CONST	SEGMENT DWORD USE32 PUBLIC 'CONST'
CONST	ENDS
;	COMDAT ??_7Error@@6B@
CONST	SEGMENT DWORD USE32 PUBLIC 'CONST'
CONST	ENDS
;	COMDAT ??_R4Error@@6B@
rdata$r	SEGMENT DWORD USE32 PUBLIC 'CONST'
rdata$r	ENDS
;	COMDAT ??_R3Error@@8
rdata$r	SEGMENT DWORD USE32 PUBLIC 'CONST'
rdata$r	ENDS
;	COMDAT ??_R2Error@@8
rdata$r	SEGMENT DWORD USE32 PUBLIC 'CONST'
rdata$r	ENDS
;	COMDAT ??_R1A@?0A@A@Error@@8
rdata$r	SEGMENT DWORD USE32 PUBLIC 'CONST'
rdata$r	ENDS
;	COMDAT ??_GError@@UAEPAXI@Z
_TEXT	SEGMENT PARA USE32 PUBLIC 'CODE'
_TEXT	ENDS
;	COMDAT ?getName@Error@@UBE?AV?$basic_string@DV?$char_traits@D@_STL@@V?$allocator@D@2@@_STL@@XZ
_TEXT	SEGMENT PARA USE32 PUBLIC 'CODE'
_TEXT	ENDS
;	COMDAT ??_C@_05NAOIJFC@Error?$AA@
CONST	SEGMENT DWORD USE32 PUBLIC 'CONST'
CONST	ENDS
;	COMDAT ??1Throwable@@UAE@XZ
_TEXT	SEGMENT PARA USE32 PUBLIC 'CODE'
_TEXT	ENDS
;	COMDAT ??_7UnsupportedError@@6B@
CONST	SEGMENT DWORD USE32 PUBLIC 'CONST'
CONST	ENDS
;	COMDAT ??_R4UnsupportedError@@6B@
rdata$r	SEGMENT DWORD USE32 PUBLIC 'CONST'
rdata$r	ENDS
;	COMDAT ??_R3UnsupportedError@@8
rdata$r	SEGMENT DWORD USE32 PUBLIC 'CONST'
rdata$r	ENDS
;	COMDAT ??_R2UnsupportedError@@8
rdata$r	SEGMENT DWORD USE32 PUBLIC 'CONST'
rdata$r	ENDS
;	COMDAT ??_R1A@?0A@A@UnsupportedError@@8
rdata$r	SEGMENT DWORD USE32 PUBLIC 'CONST'
rdata$r	ENDS
;	COMDAT ??_GUnsupportedError@@UAEPAXI@Z
_TEXT	SEGMENT PARA USE32 PUBLIC 'CODE'
_TEXT	ENDS
;	COMDAT ?getName@UnsupportedError@@UBE?AV?$basic_string@DV?$char_traits@D@_STL@@V?$allocator@D@2@@_STL@@XZ
_TEXT	SEGMENT PARA USE32 PUBLIC 'CODE'
_TEXT	ENDS
;	COMDAT ??_C@_0BB@EOCHEBED@UnsupportedError?$AA@
CONST	SEGMENT DWORD USE32 PUBLIC 'CONST'
CONST	ENDS
;	COMDAT ??1Error@@UAE@XZ
_TEXT	SEGMENT PARA USE32 PUBLIC 'CODE'
_TEXT	ENDS
;	COMDAT __CTA3?AVUnsupportedError@@
xdata$x	SEGMENT DWORD USE32 PUBLIC 'CONST'
xdata$x	ENDS
;	COMDAT ??1UnsupportedError@@UAE@XZ
_TEXT	SEGMENT PARA USE32 PUBLIC 'CODE'
_TEXT	ENDS
;	COMDAT __CT??_R0?AVThrowable@@@8??0Throwable@@QAE@ABV0@@Z20
xdata$x	SEGMENT DWORD USE32 PUBLIC 'CONST'
xdata$x	ENDS
;	COMDAT __CT??_R0?AVError@@@8??0Error@@QAE@ABV0@@Z20
xdata$x	SEGMENT DWORD USE32 PUBLIC 'CONST'
xdata$x	ENDS
;	COMDAT __CT??_R0?AVUnsupportedError@@@8??0UnsupportedError@@QAE@ABV0@@Z20
xdata$x	SEGMENT DWORD USE32 PUBLIC 'CONST'
xdata$x	ENDS
;	COMDAT ??_R0?AVThrowable@@@8
_DATA	SEGMENT DWORD USE32 PUBLIC 'DATA'
_DATA	ENDS
;	COMDAT ??_R0?AVError@@@8
_DATA	SEGMENT DWORD USE32 PUBLIC 'DATA'
_DATA	ENDS
;	COMDAT ??_R0?AVUnsupportedError@@@8
_DATA	SEGMENT DWORD USE32 PUBLIC 'DATA'
_DATA	ENDS
;	COMDAT __TI3?AVUnsupportedError@@
xdata$x	SEGMENT DWORD USE32 PUBLIC 'CONST'
xdata$x	ENDS
;	COMDAT ??0UnsupportedError@@QAE@XZ
_TEXT	SEGMENT PARA USE32 PUBLIC 'CODE'
_TEXT	ENDS
;	COMDAT ??0Error@@QAE@XZ
_TEXT	SEGMENT PARA USE32 PUBLIC 'CODE'
_TEXT	ENDS
;	COMDAT ??0Throwable@@QAE@XZ
_TEXT	SEGMENT PARA USE32 PUBLIC 'CODE'
_TEXT	ENDS
;	COMDAT ??0?$basic_string@DV?$char_traits@D@_STL@@V?$allocator@D@2@@_STL@@QAE@XZ
_TEXT	SEGMENT PARA USE32 PUBLIC 'CODE'
_TEXT	ENDS
;	COMDAT ??0?$list@V?$basic_string@DV?$char_traits@D@_STL@@V?$allocator@D@2@@_STL@@V?$allocator@V?$basic_string@DV?$char_traits@D@_STL@@V?$allocator@D@2@@_STL@@@2@@_STL@@QAE@ABV?$allocator@V?$basic_string@DV?$char_traits@D@_STL@@V?$allocator@D@2@@_STL@@@1@@Z
_TEXT	SEGMENT PARA USE32 PUBLIC 'CODE'
_TEXT	ENDS
;	COMDAT ??0?$allocator@V?$basic_string@DV?$char_traits@D@_STL@@V?$allocator@D@2@@_STL@@@_STL@@QAE@XZ
_TEXT	SEGMENT PARA USE32 PUBLIC 'CODE'
_TEXT	ENDS
;	COMDAT ??_7Packet@@6B@
CONST	SEGMENT DWORD USE32 PUBLIC 'CONST'
CONST	ENDS
;	COMDAT ??9_List_iterator_base@_STL@@QBE_NABU01@@Z
_TEXT	SEGMENT PARA USE32 PUBLIC 'CODE'
_TEXT	ENDS
;	COMDAT ??1?$basic_string@DV?$char_traits@D@_STL@@V?$allocator@D@2@@_STL@@QAE@XZ
_TEXT	SEGMENT PARA USE32 PUBLIC 'CODE'
_TEXT	ENDS
;	COMDAT ??0?$basic_string@DV?$char_traits@D@_STL@@V?$allocator@D@2@@_STL@@QAE@ABV01@@Z
_TEXT	SEGMENT PARA USE32 PUBLIC 'CODE'
_TEXT	ENDS
sxdata	SEGMENT DWORD USE32 'SXDATA'
sxdata	ENDS
FLAT	GROUP _DATA, CONST, _BSS
	ASSUME	CS: FLAT, DS: FLAT, SS: FLAT
endif

INCLUDELIB LIBCMT
INCLUDELIB OLDNAMES

PUBLIC	??2@YAPAXIPAX@Z					; operator new
; Function compile flags: /Ogsy
; File c:\program files\microsoft visual studio .net 2003\vc7\include\new
;	COMDAT ??2@YAPAXIPAX@Z
_TEXT	SEGMENT
___formal$ = 8						; size = 4
__Where$ = 12						; size = 4
??2@YAPAXIPAX@Z PROC NEAR				; operator new, COMDAT

; 64   : 	return (_Where);

  00000	8b 44 24 08	 mov	 eax, DWORD PTR __Where$[esp-4]

; 65   : 	}

  00004	c3		 ret	 0
??2@YAPAXIPAX@Z ENDP					; operator new
_TEXT	ENDS
PUBLIC	?__stl_new@_STL@@YAPAXI@Z			; _STL::__stl_new
EXTRN	??2@YAPAXI@Z:NEAR				; operator new
; Function compile flags: /Ogsy
; File c:\stlport-4.6.1\stlport\stl\_new.h
;	COMDAT ?__stl_new@_STL@@YAPAXI@Z
_TEXT	SEGMENT
___n$ = 8						; size = 4
?__stl_new@_STL@@YAPAXI@Z PROC NEAR			; _STL::__stl_new, COMDAT

; 86   : inline void*  _STLP_CALL __stl_new(size_t __n)   { _STLP_CHECK_NULL_ALLOC(::operator _STLP_NEW(__n)); }

  00000	e9 00 00 00 00	 jmp	 ??2@YAPAXI@Z		; operator new
?__stl_new@_STL@@YAPAXI@Z ENDP				; _STL::__stl_new
_TEXT	ENDS
PUBLIC	?__stl_delete@_STL@@YAXPAX@Z			; _STL::__stl_delete
EXTRN	??3@YAXPAX@Z:NEAR				; operator delete
; Function compile flags: /Ogsy
;	COMDAT ?__stl_delete@_STL@@YAXPAX@Z
_TEXT	SEGMENT
___p$ = 8						; size = 4
?__stl_delete@_STL@@YAXPAX@Z PROC NEAR			; _STL::__stl_delete, COMDAT

; 87   : inline void   _STLP_CALL __stl_delete(void* __p) { ::operator delete(__p); }

  00000	e9 00 00 00 00	 jmp	 ??3@YAXPAX@Z		; operator delete
?__stl_delete@_STL@@YAXPAX@Z ENDP			; _STL::__stl_delete
_TEXT	ENDS
PUBLIC	?read@SocketInputStream@@QAEIAAE@Z		; SocketInputStream::read
EXTRN	?read@SocketInputStream@@QAEIPADI@Z:NEAR	; SocketInputStream::read
; Function compile flags: /Ogsy
; File c:\darkeden\designed_common\project\client\packet\socketinputstream.h
;	COMDAT ?read@SocketInputStream@@QAEIAAE@Z
_TEXT	SEGMENT
_buf$ = 8						; size = 4
?read@SocketInputStream@@QAEIAAE@Z PROC NEAR		; SocketInputStream::read, COMDAT
; _this$ = ecx

; 69   : 	uint read ( uchar  & buf ) throw ( ProtocolException , Error ) { return read( (char*)&buf, szuchar  ); }

  00000	6a 01		 push	 1
  00002	ff 74 24 08	 push	 DWORD PTR _buf$[esp]
  00006	e8 00 00 00 00	 call	 ?read@SocketInputStream@@QAEIPADI@Z ; SocketInputStream::read
  0000b	c2 04 00	 ret	 4
?read@SocketInputStream@@QAEIAAE@Z ENDP			; SocketInputStream::read
_TEXT	ENDS
PUBLIC	?write@SocketOutputStream@@QAEIE@Z		; SocketOutputStream::write
EXTRN	?write@SocketOutputStream@@QAEIPBDI@Z:NEAR	; SocketOutputStream::write
; Function compile flags: /Ogsy
; File c:\darkeden\designed_common\project\client\packet\socketoutputstream.h
;	COMDAT ?write@SocketOutputStream@@QAEIE@Z
_TEXT	SEGMENT
_buf$ = 8						; size = 1
?write@SocketOutputStream@@QAEIE@Z PROC NEAR		; SocketOutputStream::write, COMDAT
; _this$ = ecx

; 62   :     uint write ( uchar  buf ) throw ( ProtocolException , Error ) { return write( (const char*)&buf, szuchar  ); }

  00000	6a 01		 push	 1
  00002	8d 44 24 08	 lea	 eax, DWORD PTR _buf$[esp]
  00006	50		 push	 eax
  00007	e8 00 00 00 00	 call	 ?write@SocketOutputStream@@QAEIPBDI@Z ; SocketOutputStream::write
  0000c	c2 04 00	 ret	 4
?write@SocketOutputStream@@QAEIE@Z ENDP			; SocketOutputStream::write
_TEXT	ENDS
PUBLIC	?getMaxSize@SubItemInfo@@SAIXZ			; SubItemInfo::getMaxSize
; Function compile flags: /Ogsy
; File c:\darkeden\designed_common\project\client\packet\subiteminfo.h
;	COMDAT ?getMaxSize@SubItemInfo@@SAIXZ
_TEXT	SEGMENT
?getMaxSize@SubItemInfo@@SAIXZ PROC NEAR		; SubItemInfo::getMaxSize, COMDAT

; 43   : 	{ return szObjectID + szBYTE + szItemType + szItemNum + szSlotID; }

  00000	6a 09		 push	 9
  00002	58		 pop	 eax
  00003	c3		 ret	 0
?getMaxSize@SubItemInfo@@SAIXZ ENDP			; SubItemInfo::getMaxSize
_TEXT	ENDS
PUBLIC	??0InventorySlotInfo@@QAE@XZ			; InventorySlotInfo::InventorySlotInfo
PUBLIC	??_7InventorySlotInfo@@6B@			; InventorySlotInfo::`vftable'
PUBLIC	??_GInventorySlotInfo@@UAEPAXI@Z		; InventorySlotInfo::`scalar deleting destructor'
PUBLIC	??_R4InventorySlotInfo@@6B@			; InventorySlotInfo::`RTTI Complete Object Locator'
PUBLIC	??_R0?AVInventorySlotInfo@@@8			; InventorySlotInfo `RTTI Type Descriptor'
PUBLIC	??_R3InventorySlotInfo@@8			; InventorySlotInfo::`RTTI Class Hierarchy Descriptor'
PUBLIC	??_R2InventorySlotInfo@@8			; InventorySlotInfo::`RTTI Base Class Array'
PUBLIC	??_R1A@?0A@A@InventorySlotInfo@@8		; InventorySlotInfo::`RTTI Base Class Descriptor at (0,-1,0,0)'
PUBLIC	??_R1A@?0A@A@PCItemInfo@@8			; PCItemInfo::`RTTI Base Class Descriptor at (0,-1,0,0)'
PUBLIC	??_R0?AVPCItemInfo@@@8				; PCItemInfo `RTTI Type Descriptor'
EXTRN	??_7type_info@@6B@:QWORD			; type_info::`vftable'
EXTRN	??_EInventorySlotInfo@@UAEPAXI@Z:NEAR		; InventorySlotInfo::`vector deleting destructor'
EXTRN	??0PCItemInfo@@QAE@XZ:NEAR			; PCItemInfo::PCItemInfo
;	COMDAT ??_7InventorySlotInfo@@6B@
CONST	SEGMENT
??_7InventorySlotInfo@@6B@ DD FLAT:??_R4InventorySlotInfo@@6B@ ; InventorySlotInfo::`vftable'
	DD	FLAT:??_EInventorySlotInfo@@UAEPAXI@Z
CONST	ENDS
;	COMDAT ??_R4InventorySlotInfo@@6B@
rdata$r	SEGMENT
??_R4InventorySlotInfo@@6B@ DD 00H			; InventorySlotInfo::`RTTI Complete Object Locator'
	DD	00H
	DD	00H
	DD	FLAT:??_R0?AVInventorySlotInfo@@@8
	DD	FLAT:??_R3InventorySlotInfo@@8
rdata$r	ENDS
;	COMDAT ??_R0?AVInventorySlotInfo@@@8
_DATA	SEGMENT
??_R0?AVInventorySlotInfo@@@8 DD FLAT:??_7type_info@@6B@ ; InventorySlotInfo `RTTI Type Descriptor'
	DD	00H
	DB	'.?AVInventorySlotInfo@@', 00H
_DATA	ENDS
;	COMDAT ??_R3InventorySlotInfo@@8
rdata$r	SEGMENT
??_R3InventorySlotInfo@@8 DD 00H			; InventorySlotInfo::`RTTI Class Hierarchy Descriptor'
	DD	00H
	DD	02H
	DD	FLAT:??_R2InventorySlotInfo@@8
rdata$r	ENDS
;	COMDAT ??_R2InventorySlotInfo@@8
rdata$r	SEGMENT
??_R2InventorySlotInfo@@8 DD FLAT:??_R1A@?0A@A@InventorySlotInfo@@8 ; InventorySlotInfo::`RTTI Base Class Array'
	DD	FLAT:??_R1A@?0A@A@PCItemInfo@@8
rdata$r	ENDS
;	COMDAT ??_R1A@?0A@A@InventorySlotInfo@@8
rdata$r	SEGMENT
??_R1A@?0A@A@InventorySlotInfo@@8 DD FLAT:??_R0?AVInventorySlotInfo@@@8 ; InventorySlotInfo::`RTTI Base Class Descriptor at (0,-1,0,0)'
	DD	01H
	DD	00H
	DD	0ffffffffH
	DD	00H
	DD	00H
rdata$r	ENDS
;	COMDAT ??_R1A@?0A@A@PCItemInfo@@8
rdata$r	SEGMENT
??_R1A@?0A@A@PCItemInfo@@8 DD FLAT:??_R0?AVPCItemInfo@@@8 ; PCItemInfo::`RTTI Base Class Descriptor at (0,-1,0,0)'
	DD	00H
	DD	00H
	DD	0ffffffffH
	DD	00H
	DD	00H
rdata$r	ENDS
;	COMDAT ??_R0?AVPCItemInfo@@@8
_DATA	SEGMENT
??_R0?AVPCItemInfo@@@8 DD FLAT:??_7type_info@@6B@	; PCItemInfo `RTTI Type Descriptor'
	DD	00H
	DB	'.?AVPCItemInfo@@', 00H
; Function compile flags: /Ogsy
_DATA	ENDS
;	COMDAT ??0InventorySlotInfo@@QAE@XZ
_TEXT	SEGMENT
??0InventorySlotInfo@@QAE@XZ PROC NEAR			; InventorySlotInfo::InventorySlotInfo, COMDAT
; _this$ = ecx
  00000	56		 push	 esi
  00001	8b f1		 mov	 esi, ecx
  00003	e8 00 00 00 00	 call	 ??0PCItemInfo@@QAE@XZ	; PCItemInfo::PCItemInfo
  00008	c7 06 00 00 00
	00		 mov	 DWORD PTR [esi], OFFSET FLAT:??_7InventorySlotInfo@@6B@
  0000e	8b c6		 mov	 eax, esi
  00010	5e		 pop	 esi
  00011	c3		 ret	 0
??0InventorySlotInfo@@QAE@XZ ENDP			; InventorySlotInfo::InventorySlotInfo
_TEXT	ENDS
PUBLIC	?empty@?$list@PAVInventorySlotInfo@@V?$allocator@PAVInventorySlotInfo@@@_STL@@@_STL@@QBE_NXZ ; _STL::list<InventorySlotInfo *,_STL::allocator<InventorySlotInfo *> >::empty
; Function compile flags: /Ogsy
; File c:\stlport-4.6.1\stlport\stl\_list.h
;	COMDAT ?empty@?$list@PAVInventorySlotInfo@@V?$allocator@PAVInventorySlotInfo@@@_STL@@@_STL@@QBE_NXZ
_TEXT	SEGMENT
?empty@?$list@PAVInventorySlotInfo@@V?$allocator@PAVInventorySlotInfo@@@_STL@@@_STL@@QBE_NXZ PROC NEAR ; _STL::list<InventorySlotInfo *,_STL::allocator<InventorySlotInfo *> >::empty, COMDAT
; _this$ = ecx

; 282  :   bool empty() const { return this->_M_node._M_data->_M_next == this->_M_node._M_data; }

  00000	8b 01		 mov	 eax, DWORD PTR [ecx]
  00002	33 c9		 xor	 ecx, ecx
  00004	39 00		 cmp	 DWORD PTR [eax], eax
  00006	0f 94 c1	 sete	 cl
  00009	8a c1		 mov	 al, cl
  0000b	c3		 ret	 0
?empty@?$list@PAVInventorySlotInfo@@V?$allocator@PAVInventorySlotInfo@@@_STL@@@_STL@@QBE_NXZ ENDP ; _STL::list<InventorySlotInfo *,_STL::allocator<InventorySlotInfo *> >::empty
_TEXT	ENDS
PUBLIC	??0?$allocator@PAVInventorySlotInfo@@@_STL@@QAE@XZ ; _STL::allocator<InventorySlotInfo *>::allocator<InventorySlotInfo *>
; Function compile flags: /Ogsy
; File c:\stlport-4.6.1\stlport\stl\_alloc.h
;	COMDAT ??0?$allocator@PAVInventorySlotInfo@@@_STL@@QAE@XZ
_TEXT	SEGMENT
??0?$allocator@PAVInventorySlotInfo@@@_STL@@QAE@XZ PROC NEAR ; _STL::allocator<InventorySlotInfo *>::allocator<InventorySlotInfo *>, COMDAT
; _this$ = ecx

; 345  :   allocator() _STLP_NOTHROW {}

  00000	8b c1		 mov	 eax, ecx
  00002	c3		 ret	 0
??0?$allocator@PAVInventorySlotInfo@@@_STL@@QAE@XZ ENDP	; _STL::allocator<InventorySlotInfo *>::allocator<InventorySlotInfo *>
_TEXT	ENDS
PUBLIC	??1?$allocator@PAVInventorySlotInfo@@@_STL@@QAE@XZ ; _STL::allocator<InventorySlotInfo *>::~allocator<InventorySlotInfo *>
; Function compile flags: /Ogsy
;	COMDAT ??1?$allocator@PAVInventorySlotInfo@@@_STL@@QAE@XZ
_TEXT	SEGMENT
??1?$allocator@PAVInventorySlotInfo@@@_STL@@QAE@XZ PROC NEAR ; _STL::allocator<InventorySlotInfo *>::~allocator<InventorySlotInfo *>, COMDAT
; _this$ = ecx

; 350  :   ~allocator() _STLP_NOTHROW {}

  00000	c3		 ret	 0
??1?$allocator@PAVInventorySlotInfo@@@_STL@@QAE@XZ ENDP	; _STL::allocator<InventorySlotInfo *>::~allocator<InventorySlotInfo *>
_TEXT	ENDS
PUBLIC	??D?$_List_iterator@PAVInventorySlotInfo@@U?$_Const_traits@PAVInventorySlotInfo@@@_STL@@@_STL@@QBEABQAVInventorySlotInfo@@XZ ; _STL::_List_iterator<InventorySlotInfo *,_STL::_Const_traits<InventorySlotInfo *> >::operator*
; Function compile flags: /Ogsy
; File c:\stlport-4.6.1\stlport\stl\_list.h
;	COMDAT ??D?$_List_iterator@PAVInventorySlotInfo@@U?$_Const_traits@PAVInventorySlotInfo@@@_STL@@@_STL@@QBEABQAVInventorySlotInfo@@XZ
_TEXT	SEGMENT
??D?$_List_iterator@PAVInventorySlotInfo@@U?$_Const_traits@PAVInventorySlotInfo@@@_STL@@@_STL@@QBEABQAVInventorySlotInfo@@XZ PROC NEAR ; _STL::_List_iterator<InventorySlotInfo *,_STL::_Const_traits<InventorySlotInfo *> >::operator*, COMDAT
; _this$ = ecx

; 130  :   reference operator*() const { return ((_Node*)_M_node)->_M_data; }

  00000	8b 01		 mov	 eax, DWORD PTR [ecx]
  00002	83 c0 08	 add	 eax, 8
  00005	c3		 ret	 0
??D?$_List_iterator@PAVInventorySlotInfo@@U?$_Const_traits@PAVInventorySlotInfo@@@_STL@@@_STL@@QBEABQAVInventorySlotInfo@@XZ ENDP ; _STL::_List_iterator<InventorySlotInfo *,_STL::_Const_traits<InventorySlotInfo *> >::operator*
_TEXT	ENDS
PUBLIC	??D?$_List_iterator@PAVInventorySlotInfo@@U?$_Nonconst_traits@PAVInventorySlotInfo@@@_STL@@@_STL@@QBEAAPAVInventorySlotInfo@@XZ ; _STL::_List_iterator<InventorySlotInfo *,_STL::_Nonconst_traits<InventorySlotInfo *> >::operator*
; Function compile flags: /Ogsy
;	COMDAT ??D?$_List_iterator@PAVInventorySlotInfo@@U?$_Nonconst_traits@PAVInventorySlotInfo@@@_STL@@@_STL@@QBEAAPAVInventorySlotInfo@@XZ
_TEXT	SEGMENT
??D?$_List_iterator@PAVInventorySlotInfo@@U?$_Nonconst_traits@PAVInventorySlotInfo@@@_STL@@@_STL@@QBEAAPAVInventorySlotInfo@@XZ PROC NEAR ; _STL::_List_iterator<InventorySlotInfo *,_STL::_Nonconst_traits<InventorySlotInfo *> >::operator*, COMDAT
; _this$ = ecx

; 130  :   reference operator*() const { return ((_Node*)_M_node)->_M_data; }

  00000	8b 01		 mov	 eax, DWORD PTR [ecx]
  00002	83 c0 08	 add	 eax, 8
  00005	c3		 ret	 0
??D?$_List_iterator@PAVInventorySlotInfo@@U?$_Nonconst_traits@PAVInventorySlotInfo@@@_STL@@@_STL@@QBEAAPAVInventorySlotInfo@@XZ ENDP ; _STL::_List_iterator<InventorySlotInfo *,_STL::_Nonconst_traits<InventorySlotInfo *> >::operator*
_TEXT	ENDS
PUBLIC	??1?$allocator@U?$_List_node@PAVInventorySlotInfo@@@_STL@@@_STL@@QAE@XZ ; _STL::allocator<_STL::_List_node<InventorySlotInfo *> >::~allocator<_STL::_List_node<InventorySlotInfo *> >
; Function compile flags: /Ogsy
; File c:\stlport-4.6.1\stlport\stl\_alloc.h
;	COMDAT ??1?$allocator@U?$_List_node@PAVInventorySlotInfo@@@_STL@@@_STL@@QAE@XZ
_TEXT	SEGMENT
??1?$allocator@U?$_List_node@PAVInventorySlotInfo@@@_STL@@@_STL@@QAE@XZ PROC NEAR ; _STL::allocator<_STL::_List_node<InventorySlotInfo *> >::~allocator<_STL::_List_node<InventorySlotInfo *> >, COMDAT
; _this$ = ecx

; 350  :   ~allocator() _STLP_NOTHROW {}

  00000	c3		 ret	 0
??1?$allocator@U?$_List_node@PAVInventorySlotInfo@@@_STL@@@_STL@@QAE@XZ ENDP ; _STL::allocator<_STL::_List_node<InventorySlotInfo *> >::~allocator<_STL::_List_node<InventorySlotInfo *> >
_TEXT	ENDS
PUBLIC	??0?$allocator@U?$_List_node@PAVInventorySlotInfo@@@_STL@@@_STL@@QAE@ABV01@@Z ; _STL::allocator<_STL::_List_node<InventorySlotInfo *> >::allocator<_STL::_List_node<InventorySlotInfo *> >
; Function compile flags: /Ogsy
;	COMDAT ??0?$allocator@U?$_List_node@PAVInventorySlotInfo@@@_STL@@@_STL@@QAE@ABV01@@Z
_TEXT	SEGMENT
___formal$ = 8						; size = 4
??0?$allocator@U?$_List_node@PAVInventorySlotInfo@@@_STL@@@_STL@@QAE@ABV01@@Z PROC NEAR ; _STL::allocator<_STL::_List_node<InventorySlotInfo *> >::allocator<_STL::_List_node<InventorySlotInfo *> >, COMDAT
; _this$ = ecx

; 349  :   allocator(const allocator<_Tp>&) _STLP_NOTHROW {}

  00000	8b c1		 mov	 eax, ecx
  00002	c2 04 00	 ret	 4
??0?$allocator@U?$_List_node@PAVInventorySlotInfo@@@_STL@@@_STL@@QAE@ABV01@@Z ENDP ; _STL::allocator<_STL::_List_node<InventorySlotInfo *> >::allocator<_STL::_List_node<InventorySlotInfo *> >
_TEXT	ENDS
PUBLIC	??$_Destroy@PAVInventorySlotInfo@@@_STL@@YAXPAPAVInventorySlotInfo@@@Z ; _STL::_Destroy<InventorySlotInfo *>
; Function compile flags: /Ogsy
; File c:\stlport-4.6.1\stlport\stl\_construct.h
;	COMDAT ??$_Destroy@PAVInventorySlotInfo@@@_STL@@YAXPAPAVInventorySlotInfo@@@Z
_TEXT	SEGMENT
___pointer$ = 8						; size = 4
??$_Destroy@PAVInventorySlotInfo@@@_STL@@YAXPAPAVInventorySlotInfo@@@Z PROC NEAR ; _STL::_Destroy<InventorySlotInfo *>, COMDAT

; 57   : # if _MSC_VER >= 1010
; 58   :   __pointer;
; 59   : # endif	// _MSC_VER >= 1000
; 60   : # ifdef _STLP_TRIVIAL_DESTRUCTOR_BUG
; 61   :   typedef typename __type_traits<_Tp>::has_trivial_destructor _Trivial_destructor;
; 62   :   __destroy_aux(__pointer, _Trivial_destructor());
; 63   : # else
; 64   : #  if ( defined (__BORLANDC__) && ( __BORLANDC__ < 0x500 ) )
; 65   :     __pointer->_Tp::~_Tp();
; 66   : #  else
; 67   :     __pointer->~_Tp();
; 68   : #  endif
; 69   : # endif
; 70   : # ifdef _STLP_DEBUG_UNINITIALIZED
; 71   : 	memset((char*)__pointer, _STLP_SHRED_BYTE, sizeof(_Tp));
; 72   : # endif
; 73   : }

  00000	c3		 ret	 0
??$_Destroy@PAVInventorySlotInfo@@@_STL@@YAXPAPAVInventorySlotInfo@@@Z ENDP ; _STL::_Destroy<InventorySlotInfo *>
_TEXT	ENDS
PUBLIC	??$?0PAVInventorySlotInfo@@@?$allocator@U?$_List_node@PAVInventorySlotInfo@@@_STL@@@_STL@@QAE@ABV?$allocator@PAVInventorySlotInfo@@@1@@Z ; _STL::allocator<_STL::_List_node<InventorySlotInfo *> >::allocator<_STL::_List_node<InventorySlotInfo *> ><InventorySlotInfo *>
; Function compile flags: /Ogsy
; File c:\stlport-4.6.1\stlport\stl\_alloc.h
;	COMDAT ??$?0PAVInventorySlotInfo@@@?$allocator@U?$_List_node@PAVInventorySlotInfo@@@_STL@@@_STL@@QAE@ABV?$allocator@PAVInventorySlotInfo@@@1@@Z
_TEXT	SEGMENT
___formal$ = 8						; size = 4
??$?0PAVInventorySlotInfo@@@?$allocator@U?$_List_node@PAVInventorySlotInfo@@@_STL@@@_STL@@QAE@ABV?$allocator@PAVInventorySlotInfo@@@1@@Z PROC NEAR ; _STL::allocator<_STL::_List_node<InventorySlotInfo *> >::allocator<_STL::_List_node<InventorySlotInfo *> ><InventorySlotInfo *>, COMDAT
; _this$ = ecx

; 347  :   template <class _Tp1> allocator(const allocator<_Tp1>&) _STLP_NOTHROW {}

  00000	8b c1		 mov	 eax, ecx
  00002	c2 04 00	 ret	 4
??$?0PAVInventorySlotInfo@@@?$allocator@U?$_List_node@PAVInventorySlotInfo@@@_STL@@@_STL@@QAE@ABV?$allocator@PAVInventorySlotInfo@@@1@@Z ENDP ; _STL::allocator<_STL::_List_node<InventorySlotInfo *> >::allocator<_STL::_List_node<InventorySlotInfo *> ><InventorySlotInfo *>
_TEXT	ENDS
PUBLIC	??$_Construct@PAVInventorySlotInfo@@PAV1@@_STL@@YAXPAPAVInventorySlotInfo@@ABQAV1@@Z ; _STL::_Construct<InventorySlotInfo *,InventorySlotInfo *>
; Function compile flags: /Ogsy
; File c:\stlport-4.6.1\stlport\stl\_construct.h
;	COMDAT ??$_Construct@PAVInventorySlotInfo@@PAV1@@_STL@@YAXPAPAVInventorySlotInfo@@ABQAV1@@Z
_TEXT	SEGMENT
___p$ = 8						; size = 4
___val$ = 12						; size = 4
??$_Construct@PAVInventorySlotInfo@@PAV1@@_STL@@YAXPAPAVInventorySlotInfo@@ABQAV1@@Z PROC NEAR ; _STL::_Construct<InventorySlotInfo *,InventorySlotInfo *>, COMDAT

; 94   : # ifdef _STLP_DEBUG_UNINITIALIZED
; 95   : 	memset((char*)__p, _STLP_SHRED_BYTE, sizeof(_T1));
; 96   : # endif
; 97   :     _STLP_PLACEMENT_NEW (__p) _T1(__val);

  00000	8b 44 24 04	 mov	 eax, DWORD PTR ___p$[esp-4]
  00004	85 c0		 test	 eax, eax
  00006	74 08		 je	 SHORT $L103517
  00008	8b 4c 24 08	 mov	 ecx, DWORD PTR ___val$[esp-4]
  0000c	8b 09		 mov	 ecx, DWORD PTR [ecx]
  0000e	89 08		 mov	 DWORD PTR [eax], ecx
$L103517:

; 98   : }

  00010	c3		 ret	 0
??$_Construct@PAVInventorySlotInfo@@PAV1@@_STL@@YAXPAPAVInventorySlotInfo@@ABQAV1@@Z ENDP ; _STL::_Construct<InventorySlotInfo *,InventorySlotInfo *>
_TEXT	ENDS
PUBLIC	??0_List_iterator_base@_STL@@QAE@PAU_List_node_base@1@@Z ; _STL::_List_iterator_base::_List_iterator_base
; Function compile flags: /Ogsy
; File c:\stlport-4.6.1\stlport\stl\_list.h
;	COMDAT ??0_List_iterator_base@_STL@@QAE@PAU_List_node_base@1@@Z
_TEXT	SEGMENT
___x$ = 8						; size = 4
??0_List_iterator_base@_STL@@QAE@PAU_List_node_base@1@@Z PROC NEAR ; _STL::_List_iterator_base::_List_iterator_base, COMDAT
; _this$ = ecx

; 95   :   _List_iterator_base(_List_node_base* __x) : _M_node(__x) {}

  00000	8b c1		 mov	 eax, ecx
  00002	8b 4c 24 04	 mov	 ecx, DWORD PTR ___x$[esp-4]
  00006	89 08		 mov	 DWORD PTR [eax], ecx
  00008	c2 04 00	 ret	 4
??0_List_iterator_base@_STL@@QAE@PAU_List_node_base@1@@Z ENDP ; _STL::_List_iterator_base::_List_iterator_base
_TEXT	ENDS
PUBLIC	?_M_incr@_List_iterator_base@_STL@@QAEXXZ	; _STL::_List_iterator_base::_M_incr
; Function compile flags: /Ogsy
;	COMDAT ?_M_incr@_List_iterator_base@_STL@@QAEXXZ
_TEXT	SEGMENT
?_M_incr@_List_iterator_base@_STL@@QAEXXZ PROC NEAR	; _STL::_List_iterator_base::_M_incr, COMDAT
; _this$ = ecx

; 98   :   void _M_incr() { _M_node = _M_node->_M_next; }

  00000	8b 01		 mov	 eax, DWORD PTR [ecx]
  00002	8b 00		 mov	 eax, DWORD PTR [eax]
  00004	89 01		 mov	 DWORD PTR [ecx], eax
  00006	c3		 ret	 0
?_M_incr@_List_iterator_base@_STL@@QAEXXZ ENDP		; _STL::_List_iterator_base::_M_incr
_TEXT	ENDS
PUBLIC	??9_List_iterator_base@_STL@@QBE_NABU01@@Z	; _STL::_List_iterator_base::operator!=
; Function compile flags: /Ogsy
;	COMDAT ??9_List_iterator_base@_STL@@QBE_NABU01@@Z
_TEXT	SEGMENT
___y$ = 8						; size = 4
??9_List_iterator_base@_STL@@QBE_NABU01@@Z PROC NEAR	; _STL::_List_iterator_base::operator!=, COMDAT
; _this$ = ecx

; 104  :     return _M_node != __y._M_node; 

  00000	8b 01		 mov	 eax, DWORD PTR [ecx]
  00002	8b 54 24 04	 mov	 edx, DWORD PTR ___y$[esp-4]
  00006	33 c9		 xor	 ecx, ecx
  00008	3b 02		 cmp	 eax, DWORD PTR [edx]
  0000a	0f 95 c1	 setne	 cl
  0000d	8a c1		 mov	 al, cl

; 105  :   }

  0000f	c2 04 00	 ret	 4
??9_List_iterator_base@_STL@@QBE_NABU01@@Z ENDP		; _STL::_List_iterator_base::operator!=
_TEXT	ENDS
PUBLIC	?allocate@?$__node_alloc@$00$0A@@_STL@@SAPAXI@Z	; _STL::__node_alloc<1,0>::allocate
EXTRN	?_M_allocate@?$__node_alloc@$00$0A@@_STL@@CAPAXI@Z:NEAR ; _STL::__node_alloc<1,0>::_M_allocate
; Function compile flags: /Ogsy
; File c:\stlport-4.6.1\stlport\stl\_alloc.h
;	COMDAT ?allocate@?$__node_alloc@$00$0A@@_STL@@SAPAXI@Z
_TEXT	SEGMENT
___n$ = 8						; size = 4
?allocate@?$__node_alloc@$00$0A@@_STL@@SAPAXI@Z PROC NEAR ; _STL::__node_alloc<1,0>::allocate, COMDAT

; 251  :   static void * _STLP_CALL allocate(size_t __n) { return (__n > (size_t)_MAX_BYTES) ?  __stl_new(__n) : _M_allocate(__n); }

  00000	8b 44 24 04	 mov	 eax, DWORD PTR ___n$[esp-4]
  00004	3d 80 00 00 00	 cmp	 eax, 128		; 00000080H
  00009	50		 push	 eax
  0000a	76 07		 jbe	 SHORT $L103534
  0000c	e8 00 00 00 00	 call	 ??2@YAPAXI@Z		; operator new
  00011	59		 pop	 ecx
  00012	c3		 ret	 0
$L103534:
  00013	e8 00 00 00 00	 call	 ?_M_allocate@?$__node_alloc@$00$0A@@_STL@@CAPAXI@Z ; _STL::__node_alloc<1,0>::_M_allocate
  00018	59		 pop	 ecx
  00019	c3		 ret	 0
?allocate@?$__node_alloc@$00$0A@@_STL@@SAPAXI@Z ENDP	; _STL::__node_alloc<1,0>::allocate
_TEXT	ENDS
PUBLIC	?deallocate@?$__node_alloc@$00$0A@@_STL@@SAXPAXI@Z ; _STL::__node_alloc<1,0>::deallocate
EXTRN	?_M_deallocate@?$__node_alloc@$00$0A@@_STL@@CAXPAXI@Z:NEAR ; _STL::__node_alloc<1,0>::_M_deallocate
; Function compile flags: /Ogsy
;	COMDAT ?deallocate@?$__node_alloc@$00$0A@@_STL@@SAXPAXI@Z
_TEXT	SEGMENT
___p$ = 8						; size = 4
___n$ = 12						; size = 4
?deallocate@?$__node_alloc@$00$0A@@_STL@@SAXPAXI@Z PROC NEAR ; _STL::__node_alloc<1,0>::deallocate, COMDAT

; 253  :   static void _STLP_CALL deallocate(void *__p, size_t __n) { if (__n > (size_t)_MAX_BYTES) __stl_delete(__p); else _M_deallocate(__p, __n); }

  00000	81 7c 24 08 80
	00 00 00	 cmp	 DWORD PTR ___n$[esp-4], 128 ; 00000080H
  00008	76 0b		 jbe	 SHORT $L98677
  0000a	ff 74 24 04	 push	 DWORD PTR ___p$[esp-4]
  0000e	e8 00 00 00 00	 call	 ??3@YAXPAX@Z		; operator delete
  00013	59		 pop	 ecx
  00014	c3		 ret	 0
$L98677:
  00015	e9 00 00 00 00	 jmp	 ?_M_deallocate@?$__node_alloc@$00$0A@@_STL@@CAXPAXI@Z ; _STL::__node_alloc<1,0>::_M_deallocate
?deallocate@?$__node_alloc@$00$0A@@_STL@@SAXPAXI@Z ENDP	; _STL::__node_alloc<1,0>::deallocate
_TEXT	ENDS
PUBLIC	??1InventorySlotInfo@@UAE@XZ			; InventorySlotInfo::~InventorySlotInfo
; Function compile flags: /Ogsy
;	COMDAT ??_GInventorySlotInfo@@UAEPAXI@Z
_TEXT	SEGMENT
___flags$ = 8						; size = 4
??_GInventorySlotInfo@@UAEPAXI@Z PROC NEAR		; InventorySlotInfo::`scalar deleting destructor', COMDAT
; _this$ = ecx
  00000	56		 push	 esi
  00001	8b f1		 mov	 esi, ecx
  00003	e8 00 00 00 00	 call	 ??1InventorySlotInfo@@UAE@XZ
  00008	f6 44 24 08 01	 test	 BYTE PTR ___flags$[esp], 1
  0000d	74 07		 je	 SHORT $L101907
  0000f	56		 push	 esi
  00010	e8 00 00 00 00	 call	 ??3@YAXPAX@Z		; operator delete
  00015	59		 pop	 ecx
$L101907:
  00016	8b c6		 mov	 eax, esi
  00018	5e		 pop	 esi
  00019	c2 04 00	 ret	 4
??_GInventorySlotInfo@@UAEPAXI@Z ENDP			; InventorySlotInfo::`scalar deleting destructor'
_TEXT	ENDS
EXTRN	??1PCItemInfo@@UAE@XZ:NEAR			; PCItemInfo::~PCItemInfo
; Function compile flags: /Ogsy
;	COMDAT ??1InventorySlotInfo@@UAE@XZ
_TEXT	SEGMENT
??1InventorySlotInfo@@UAE@XZ PROC NEAR			; InventorySlotInfo::~InventorySlotInfo, COMDAT
; _this$ = ecx
  00000	e9 00 00 00 00	 jmp	 ??1PCItemInfo@@UAE@XZ	; PCItemInfo::~PCItemInfo
??1InventorySlotInfo@@UAE@XZ ENDP			; InventorySlotInfo::~InventorySlotInfo
_TEXT	ENDS
PUBLIC	??0?$_List_iterator@PAVInventorySlotInfo@@U?$_Const_traits@PAVInventorySlotInfo@@@_STL@@@_STL@@QAE@ABU?$_List_iterator@PAVInventorySlotInfo@@U?$_Nonconst_traits@PAVInventorySlotInfo@@@_STL@@@1@@Z ; _STL::_List_iterator<InventorySlotInfo *,_STL::_Const_traits<InventorySlotInfo *> >::_List_iterator<InventorySlotInfo *,_STL::_Const_traits<InventorySlotInfo *> >
; Function compile flags: /Ogsy
; File c:\stlport-4.6.1\stlport\stl\_list.h
;	COMDAT ??0?$_List_iterator@PAVInventorySlotInfo@@U?$_Const_traits@PAVInventorySlotInfo@@@_STL@@@_STL@@QAE@ABU?$_List_iterator@PAVInventorySlotInfo@@U?$_Nonconst_traits@PAVInventorySlotInfo@@@_STL@@@1@@Z
_TEXT	SEGMENT
___x$ = 8						; size = 4
??0?$_List_iterator@PAVInventorySlotInfo@@U?$_Const_traits@PAVInventorySlotInfo@@@_STL@@@_STL@@QAE@ABU?$_List_iterator@PAVInventorySlotInfo@@U?$_Nonconst_traits@PAVInventorySlotInfo@@@_STL@@@1@@Z PROC NEAR ; _STL::_List_iterator<InventorySlotInfo *,_STL::_Const_traits<InventorySlotInfo *> >::_List_iterator<InventorySlotInfo *,_STL::_Const_traits<InventorySlotInfo *> >, COMDAT
; _this$ = ecx

; 128  :   _List_iterator(const iterator& __x) :  _List_iterator_base(__x._M_node) {}

  00000	8b c1		 mov	 eax, ecx
  00002	8b 4c 24 04	 mov	 ecx, DWORD PTR ___x$[esp-4]
  00006	8b 09		 mov	 ecx, DWORD PTR [ecx]
  00008	89 08		 mov	 DWORD PTR [eax], ecx
  0000a	c2 04 00	 ret	 4
??0?$_List_iterator@PAVInventorySlotInfo@@U?$_Const_traits@PAVInventorySlotInfo@@@_STL@@@_STL@@QAE@ABU?$_List_iterator@PAVInventorySlotInfo@@U?$_Nonconst_traits@PAVInventorySlotInfo@@@_STL@@@1@@Z ENDP ; _STL::_List_iterator<InventorySlotInfo *,_STL::_Const_traits<InventorySlotInfo *> >::_List_iterator<InventorySlotInfo *,_STL::_Const_traits<InventorySlotInfo *> >
_TEXT	ENDS
PUBLIC	??E?$_List_iterator@PAVInventorySlotInfo@@U?$_Const_traits@PAVInventorySlotInfo@@@_STL@@@_STL@@QAE?AU01@H@Z ; _STL::_List_iterator<InventorySlotInfo *,_STL::_Const_traits<InventorySlotInfo *> >::operator++
; Function compile flags: /Ogsy
;	COMDAT ??E?$_List_iterator@PAVInventorySlotInfo@@U?$_Const_traits@PAVInventorySlotInfo@@@_STL@@@_STL@@QAE?AU01@H@Z
_TEXT	SEGMENT
___$ReturnUdt$ = 8					; size = 4
___formal$ = 12						; size = 4
??E?$_List_iterator@PAVInventorySlotInfo@@U?$_Const_traits@PAVInventorySlotInfo@@@_STL@@@_STL@@QAE?AU01@H@Z PROC NEAR ; _STL::_List_iterator<InventorySlotInfo *,_STL::_Const_traits<InventorySlotInfo *> >::operator++, COMDAT
; _this$ = ecx

; 139  :     _Self __tmp = *this;

  00000	8b 11		 mov	 edx, DWORD PTR [ecx]

; 140  :     this->_M_incr();

  00002	8b 02		 mov	 eax, DWORD PTR [edx]
  00004	89 01		 mov	 DWORD PTR [ecx], eax

; 141  :     return __tmp;

  00006	8b 44 24 04	 mov	 eax, DWORD PTR ___$ReturnUdt$[esp-4]
  0000a	89 10		 mov	 DWORD PTR [eax], edx

; 142  :   }

  0000c	c2 08 00	 ret	 8
??E?$_List_iterator@PAVInventorySlotInfo@@U?$_Const_traits@PAVInventorySlotInfo@@@_STL@@@_STL@@QAE?AU01@H@Z ENDP ; _STL::_List_iterator<InventorySlotInfo *,_STL::_Const_traits<InventorySlotInfo *> >::operator++
_TEXT	ENDS
PUBLIC	??0?$_List_iterator@PAVInventorySlotInfo@@U?$_Const_traits@PAVInventorySlotInfo@@@_STL@@@_STL@@QAE@PAU?$_List_node@PAVInventorySlotInfo@@@1@@Z ; _STL::_List_iterator<InventorySlotInfo *,_STL::_Const_traits<InventorySlotInfo *> >::_List_iterator<InventorySlotInfo *,_STL::_Const_traits<InventorySlotInfo *> >
; Function compile flags: /Ogsy
;	COMDAT ??0?$_List_iterator@PAVInventorySlotInfo@@U?$_Const_traits@PAVInventorySlotInfo@@@_STL@@@_STL@@QAE@PAU?$_List_node@PAVInventorySlotInfo@@@1@@Z
_TEXT	SEGMENT
___x$ = 8						; size = 4
??0?$_List_iterator@PAVInventorySlotInfo@@U?$_Const_traits@PAVInventorySlotInfo@@@_STL@@@_STL@@QAE@PAU?$_List_node@PAVInventorySlotInfo@@@1@@Z PROC NEAR ; _STL::_List_iterator<InventorySlotInfo *,_STL::_Const_traits<InventorySlotInfo *> >::_List_iterator<InventorySlotInfo *,_STL::_Const_traits<InventorySlotInfo *> >, COMDAT
; _this$ = ecx

; 126  :   _List_iterator(_Node* __x) : _List_iterator_base(__x) {}

  00000	8b c1		 mov	 eax, ecx
  00002	8b 4c 24 04	 mov	 ecx, DWORD PTR ___x$[esp-4]
  00006	89 08		 mov	 DWORD PTR [eax], ecx
  00008	c2 04 00	 ret	 4
??0?$_List_iterator@PAVInventorySlotInfo@@U?$_Const_traits@PAVInventorySlotInfo@@@_STL@@@_STL@@QAE@PAU?$_List_node@PAVInventorySlotInfo@@@1@@Z ENDP ; _STL::_List_iterator<InventorySlotInfo *,_STL::_Const_traits<InventorySlotInfo *> >::_List_iterator<InventorySlotInfo *,_STL::_Const_traits<InventorySlotInfo *> >
_TEXT	ENDS
PUBLIC	??0?$_List_iterator@PAVInventorySlotInfo@@U?$_Nonconst_traits@PAVInventorySlotInfo@@@_STL@@@_STL@@QAE@PAU?$_List_node@PAVInventorySlotInfo@@@1@@Z ; _STL::_List_iterator<InventorySlotInfo *,_STL::_Nonconst_traits<InventorySlotInfo *> >::_List_iterator<InventorySlotInfo *,_STL::_Nonconst_traits<InventorySlotInfo *> >
; Function compile flags: /Ogsy
;	COMDAT ??0?$_List_iterator@PAVInventorySlotInfo@@U?$_Nonconst_traits@PAVInventorySlotInfo@@@_STL@@@_STL@@QAE@PAU?$_List_node@PAVInventorySlotInfo@@@1@@Z
_TEXT	SEGMENT
___x$ = 8						; size = 4
??0?$_List_iterator@PAVInventorySlotInfo@@U?$_Nonconst_traits@PAVInventorySlotInfo@@@_STL@@@_STL@@QAE@PAU?$_List_node@PAVInventorySlotInfo@@@1@@Z PROC NEAR ; _STL::_List_iterator<InventorySlotInfo *,_STL::_Nonconst_traits<InventorySlotInfo *> >::_List_iterator<InventorySlotInfo *,_STL::_Nonconst_traits<InventorySlotInfo *> >, COMDAT
; _this$ = ecx

; 126  :   _List_iterator(_Node* __x) : _List_iterator_base(__x) {}

  00000	8b c1		 mov	 eax, ecx
  00002	8b 4c 24 04	 mov	 ecx, DWORD PTR ___x$[esp-4]
  00006	89 08		 mov	 DWORD PTR [eax], ecx
  00008	c2 04 00	 ret	 4
??0?$_List_iterator@PAVInventorySlotInfo@@U?$_Nonconst_traits@PAVInventorySlotInfo@@@_STL@@@_STL@@QAE@PAU?$_List_node@PAVInventorySlotInfo@@@1@@Z ENDP ; _STL::_List_iterator<InventorySlotInfo *,_STL::_Nonconst_traits<InventorySlotInfo *> >::_List_iterator<InventorySlotInfo *,_STL::_Nonconst_traits<InventorySlotInfo *> >
_TEXT	ENDS
PUBLIC	??1?$_STLP_alloc_proxy@PAU?$_List_node@PAVInventorySlotInfo@@@_STL@@U12@V?$allocator@U?$_List_node@PAVInventorySlotInfo@@@_STL@@@2@@_STL@@QAE@XZ ; _STL::_STLP_alloc_proxy<_STL::_List_node<InventorySlotInfo *> *,_STL::_List_node<InventorySlotInfo *>,_STL::allocator<_STL::_List_node<InventorySlotInfo *> > >::~_STLP_alloc_proxy<_STL::_List_node<InventorySlotInfo *> *,_STL::_List_node<InventorySlotInfo *>,_STL::allocator<_STL::_List_node<InventorySlotInfo *> > >
; Function compile flags: /Ogsy
;	COMDAT ??1?$_STLP_alloc_proxy@PAU?$_List_node@PAVInventorySlotInfo@@@_STL@@U12@V?$allocator@U?$_List_node@PAVInventorySlotInfo@@@_STL@@@2@@_STL@@QAE@XZ
_TEXT	SEGMENT
??1?$_STLP_alloc_proxy@PAU?$_List_node@PAVInventorySlotInfo@@@_STL@@U12@V?$allocator@U?$_List_node@PAVInventorySlotInfo@@@_STL@@@2@@_STL@@QAE@XZ PROC NEAR ; _STL::_STLP_alloc_proxy<_STL::_List_node<InventorySlotInfo *> *,_STL::_List_node<InventorySlotInfo *>,_STL::allocator<_STL::_List_node<InventorySlotInfo *> > >::~_STLP_alloc_proxy<_STL::_List_node<InventorySlotInfo *> *,_STL::_List_node<InventorySlotInfo *>,_STL::allocator<_STL::_List_node<InventorySlotInfo *> > >, COMDAT
; _this$ = ecx
  00000	c3		 ret	 0
??1?$_STLP_alloc_proxy@PAU?$_List_node@PAVInventorySlotInfo@@@_STL@@U12@V?$allocator@U?$_List_node@PAVInventorySlotInfo@@@_STL@@@2@@_STL@@QAE@XZ ENDP ; _STL::_STLP_alloc_proxy<_STL::_List_node<InventorySlotInfo *> *,_STL::_List_node<InventorySlotInfo *>,_STL::allocator<_STL::_List_node<InventorySlotInfo *> > >::~_STLP_alloc_proxy<_STL::_List_node<InventorySlotInfo *> *,_STL::_List_node<InventorySlotInfo *>,_STL::allocator<_STL::_List_node<InventorySlotInfo *> > >
_TEXT	ENDS
PUBLIC	??0?$_STLP_alloc_proxy@PAU?$_List_node@PAVInventorySlotInfo@@@_STL@@U12@V?$allocator@U?$_List_node@PAVInventorySlotInfo@@@_STL@@@2@@_STL@@QAE@ABV?$allocator@U?$_List_node@PAVInventorySlotInfo@@@_STL@@@1@PAU?$_List_node@PAVInventorySlotInfo@@@1@@Z ; _STL::_STLP_alloc_proxy<_STL::_List_node<InventorySlotInfo *> *,_STL::_List_node<InventorySlotInfo *>,_STL::allocator<_STL::_List_node<InventorySlotInfo *> > >::_STLP_alloc_proxy<_STL::_List_node<InventorySlotInfo *> *,_STL::_List_node<InventorySlotInfo *>,_STL::allocator<_STL::_List_node<InventorySlotInfo *> > >
; Function compile flags: /Ogsy
; File c:\stlport-4.6.1\stlport\stl\_alloc.h
;	COMDAT ??0?$_STLP_alloc_proxy@PAU?$_List_node@PAVInventorySlotInfo@@@_STL@@U12@V?$allocator@U?$_List_node@PAVInventorySlotInfo@@@_STL@@@2@@_STL@@QAE@ABV?$allocator@U?$_List_node@PAVInventorySlotInfo@@@_STL@@@1@PAU?$_List_node@PAVInventorySlotInfo@@@1@@Z
_TEXT	SEGMENT
___a$ = 8						; size = 4
___p$ = 12						; size = 4
??0?$_STLP_alloc_proxy@PAU?$_List_node@PAVInventorySlotInfo@@@_STL@@U12@V?$allocator@U?$_List_node@PAVInventorySlotInfo@@@_STL@@@2@@_STL@@QAE@ABV?$allocator@U?$_List_node@PAVInventorySlotInfo@@@_STL@@@1@PAU?$_List_node@PAVInventorySlotInfo@@@1@@Z PROC NEAR ; _STL::_STLP_alloc_proxy<_STL::_List_node<InventorySlotInfo *> *,_STL::_List_node<InventorySlotInfo *>,_STL::allocator<_STL::_List_node<InventorySlotInfo *> > >::_STLP_alloc_proxy<_STL::_List_node<InventorySlotInfo *> *,_STL::_List_node<InventorySlotInfo *>,_STL::allocator<_STL::_List_node<InventorySlotInfo *> > >, COMDAT
; _this$ = ecx

; 487  :   inline _STLP_alloc_proxy(const _MaybeReboundAlloc& __a, _Value __p) : _MaybeReboundAlloc(__a), _M_data(__p) {}

  00000	8b c1		 mov	 eax, ecx
  00002	8b 4c 24 08	 mov	 ecx, DWORD PTR ___p$[esp-4]
  00006	89 08		 mov	 DWORD PTR [eax], ecx
  00008	c2 08 00	 ret	 8
??0?$_STLP_alloc_proxy@PAU?$_List_node@PAVInventorySlotInfo@@@_STL@@U12@V?$allocator@U?$_List_node@PAVInventorySlotInfo@@@_STL@@@2@@_STL@@QAE@ABV?$allocator@U?$_List_node@PAVInventorySlotInfo@@@_STL@@@1@PAU?$_List_node@PAVInventorySlotInfo@@@1@@Z ENDP ; _STL::_STLP_alloc_proxy<_STL::_List_node<InventorySlotInfo *> *,_STL::_List_node<InventorySlotInfo *>,_STL::allocator<_STL::_List_node<InventorySlotInfo *> > >::_STLP_alloc_proxy<_STL::_List_node<InventorySlotInfo *> *,_STL::_List_node<InventorySlotInfo *>,_STL::allocator<_STL::_List_node<InventorySlotInfo *> > >
_TEXT	ENDS
PUBLIC	?allocate@?$allocator@U?$_List_node@PAVInventorySlotInfo@@@_STL@@@_STL@@QAEPAU?$_List_node@PAVInventorySlotInfo@@@2@IPBX@Z ; _STL::allocator<_STL::_List_node<InventorySlotInfo *> >::allocate
; Function compile flags: /Ogsy
;	COMDAT ?allocate@?$allocator@U?$_List_node@PAVInventorySlotInfo@@@_STL@@@_STL@@QAEPAU?$_List_node@PAVInventorySlotInfo@@@2@IPBX@Z
_TEXT	SEGMENT
___n$ = 8						; size = 4
___formal$ = 12						; size = 4
?allocate@?$allocator@U?$_List_node@PAVInventorySlotInfo@@@_STL@@@_STL@@QAEPAU?$_List_node@PAVInventorySlotInfo@@@2@IPBX@Z PROC NEAR ; _STL::allocator<_STL::_List_node<InventorySlotInfo *> >::allocate, COMDAT
; _this$ = ecx

; 355  :     return __n != 0 ? __REINTERPRET_CAST(value_type*,__sgi_alloc::allocate(__n * sizeof(value_type))) : 0;

  00000	8b 44 24 04	 mov	 eax, DWORD PTR ___n$[esp-4]
  00004	85 c0		 test	 eax, eax
  00006	74 0f		 je	 SHORT $L103589
  00008	8d 04 40	 lea	 eax, DWORD PTR [eax+eax*2]
  0000b	c1 e0 02	 shl	 eax, 2
  0000e	50		 push	 eax
  0000f	e8 00 00 00 00	 call	 ?allocate@?$__node_alloc@$00$0A@@_STL@@SAPAXI@Z ; _STL::__node_alloc<1,0>::allocate
  00014	59		 pop	 ecx
  00015	eb 02		 jmp	 SHORT $L103590
$L103589:
  00017	33 c0		 xor	 eax, eax
$L103590:

; 356  :   }

  00019	c2 08 00	 ret	 8
?allocate@?$allocator@U?$_List_node@PAVInventorySlotInfo@@@_STL@@@_STL@@QAEPAU?$_List_node@PAVInventorySlotInfo@@@2@IPBX@Z ENDP ; _STL::allocator<_STL::_List_node<InventorySlotInfo *> >::allocate
_TEXT	ENDS
PUBLIC	?deallocate@?$allocator@U?$_List_node@PAVInventorySlotInfo@@@_STL@@@_STL@@QAEXPAU?$_List_node@PAVInventorySlotInfo@@@2@I@Z ; _STL::allocator<_STL::_List_node<InventorySlotInfo *> >::deallocate
; Function compile flags: /Ogsy
;	COMDAT ?deallocate@?$allocator@U?$_List_node@PAVInventorySlotInfo@@@_STL@@@_STL@@QAEXPAU?$_List_node@PAVInventorySlotInfo@@@2@I@Z
_TEXT	SEGMENT
___p$ = 8						; size = 4
___n$ = 12						; size = 4
?deallocate@?$allocator@U?$_List_node@PAVInventorySlotInfo@@@_STL@@@_STL@@QAEXPAU?$_List_node@PAVInventorySlotInfo@@@2@I@Z PROC NEAR ; _STL::allocator<_STL::_List_node<InventorySlotInfo *> >::deallocate, COMDAT
; _this$ = ecx

; 359  :     _STLP_ASSERT( (__p == 0) == (__n == 0) )
; 360  :       if (__p != 0) __sgi_alloc::deallocate((void*)__p, __n * sizeof(value_type));

  00000	83 7c 24 04 00	 cmp	 DWORD PTR ___p$[esp-4], 0
  00005	74 16		 je	 SHORT $L102462
  00007	8b 44 24 08	 mov	 eax, DWORD PTR ___n$[esp-4]
  0000b	8d 04 40	 lea	 eax, DWORD PTR [eax+eax*2]
  0000e	c1 e0 02	 shl	 eax, 2
  00011	50		 push	 eax
  00012	ff 74 24 08	 push	 DWORD PTR ___p$[esp]
  00016	e8 00 00 00 00	 call	 ?deallocate@?$__node_alloc@$00$0A@@_STL@@SAXPAXI@Z ; _STL::__node_alloc<1,0>::deallocate
  0001b	59		 pop	 ecx
  0001c	59		 pop	 ecx
$L102462:

; 361  :   }

  0001d	c2 08 00	 ret	 8
?deallocate@?$allocator@U?$_List_node@PAVInventorySlotInfo@@@_STL@@@_STL@@QAEXPAU?$_List_node@PAVInventorySlotInfo@@@2@I@Z ENDP ; _STL::allocator<_STL::_List_node<InventorySlotInfo *> >::deallocate
_TEXT	ENDS
PUBLIC	??0?$_List_iterator@GU?$_Const_traits@G@_STL@@@_STL@@QAE@PAU?$_List_node@G@1@@Z ; _STL::_List_iterator<unsigned short,_STL::_Const_traits<unsigned short> >::_List_iterator<unsigned short,_STL::_Const_traits<unsigned short> >
; Function compile flags: /Ogsy
; File c:\stlport-4.6.1\stlport\stl\_list.h
;	COMDAT ??0?$_List_iterator@GU?$_Const_traits@G@_STL@@@_STL@@QAE@PAU?$_List_node@G@1@@Z
_TEXT	SEGMENT
___x$ = 8						; size = 4
??0?$_List_iterator@GU?$_Const_traits@G@_STL@@@_STL@@QAE@PAU?$_List_node@G@1@@Z PROC NEAR ; _STL::_List_iterator<unsigned short,_STL::_Const_traits<unsigned short> >::_List_iterator<unsigned short,_STL::_Const_traits<unsigned short> >, COMDAT
; _this$ = ecx

; 126  :   _List_iterator(_Node* __x) : _List_iterator_base(__x) {}

  00000	8b c1		 mov	 eax, ecx
  00002	8b 4c 24 04	 mov	 ecx, DWORD PTR ___x$[esp-4]
  00006	89 08		 mov	 DWORD PTR [eax], ecx
  00008	c2 04 00	 ret	 4
??0?$_List_iterator@GU?$_Const_traits@G@_STL@@@_STL@@QAE@PAU?$_List_node@G@1@@Z ENDP ; _STL::_List_iterator<unsigned short,_STL::_Const_traits<unsigned short> >::_List_iterator<unsigned short,_STL::_Const_traits<unsigned short> >
_TEXT	ENDS
PUBLIC	?clear@?$_List_base@PAVInventorySlotInfo@@V?$allocator@PAVInventorySlotInfo@@@_STL@@@_STL@@QAEXXZ ; _STL::_List_base<InventorySlotInfo *,_STL::allocator<InventorySlotInfo *> >::clear
; Function compile flags: /Ogsy
; File c:\stlport-4.6.1\stlport\stl\_list.c
;	COMDAT ?clear@?$_List_base@PAVInventorySlotInfo@@V?$allocator@PAVInventorySlotInfo@@@_STL@@@_STL@@QAEXXZ
_TEXT	SEGMENT
?clear@?$_List_base@PAVInventorySlotInfo@@V?$allocator@PAVInventorySlotInfo@@@_STL@@@_STL@@QAEXXZ PROC NEAR ; _STL::_List_base<InventorySlotInfo *,_STL::allocator<InventorySlotInfo *> >::clear, COMDAT
; _this$ = ecx

; 68   : {

  00000	56		 push	 esi
  00001	57		 push	 edi
  00002	8b f9		 mov	 edi, ecx

; 69   :   _List_node<_Tp>* __cur = (_List_node<_Tp>*) this->_M_node._M_data->_M_next;

  00004	8b 07		 mov	 eax, DWORD PTR [edi]
  00006	8b 30		 mov	 esi, DWORD PTR [eax]

; 70   :   while (__cur != this->_M_node._M_data) {

  00008	3b f0		 cmp	 esi, eax
  0000a	74 12		 je	 SHORT $L102713
$L102712:

; 71   :     _List_node<_Tp>* __tmp = __cur;

  0000c	8b c6		 mov	 eax, esi

; 72   :     __cur = (_List_node<_Tp>*) __cur->_M_next;

  0000e	8b 36		 mov	 esi, DWORD PTR [esi]

; 73   :     _STLP_STD::_Destroy(&__tmp->_M_data);
; 74   :     this->_M_node.deallocate(__tmp, 1);

  00010	6a 01		 push	 1
  00012	50		 push	 eax
  00013	8b cf		 mov	 ecx, edi
  00015	e8 00 00 00 00	 call	 ?deallocate@?$allocator@U?$_List_node@PAVInventorySlotInfo@@@_STL@@@_STL@@QAEXPAU?$_List_node@PAVInventorySlotInfo@@@2@I@Z ; _STL::allocator<_STL::_List_node<InventorySlotInfo *> >::deallocate
  0001a	3b 37		 cmp	 esi, DWORD PTR [edi]
  0001c	75 ee		 jne	 SHORT $L102712
$L102713:

; 75   :   }
; 76   :   this->_M_node._M_data->_M_next = this->_M_node._M_data;

  0001e	8b 07		 mov	 eax, DWORD PTR [edi]
  00020	89 00		 mov	 DWORD PTR [eax], eax

; 77   :   this->_M_node._M_data->_M_prev = this->_M_node._M_data;

  00022	8b 3f		 mov	 edi, DWORD PTR [edi]
  00024	89 7f 04	 mov	 DWORD PTR [edi+4], edi
  00027	5f		 pop	 edi
  00028	5e		 pop	 esi

; 78   : }

  00029	c3		 ret	 0
?clear@?$_List_base@PAVInventorySlotInfo@@V?$allocator@PAVInventorySlotInfo@@@_STL@@@_STL@@QAEXXZ ENDP ; _STL::_List_base<InventorySlotInfo *,_STL::allocator<InventorySlotInfo *> >::clear
_TEXT	ENDS
PUBLIC	??E?$_List_iterator@GU?$_Const_traits@G@_STL@@@_STL@@QAEAAU01@XZ ; _STL::_List_iterator<unsigned short,_STL::_Const_traits<unsigned short> >::operator++
; Function compile flags: /Ogsy
; File c:\stlport-4.6.1\stlport\stl\_list.h
;	COMDAT ??E?$_List_iterator@GU?$_Const_traits@G@_STL@@@_STL@@QAEAAU01@XZ
_TEXT	SEGMENT
??E?$_List_iterator@GU?$_Const_traits@G@_STL@@@_STL@@QAEAAU01@XZ PROC NEAR ; _STL::_List_iterator<unsigned short,_STL::_Const_traits<unsigned short> >::operator++, COMDAT
; _this$ = ecx

; 134  :   _Self& operator++() { 

  00000	8b c1		 mov	 eax, ecx

; 135  :     this->_M_incr();

  00002	8b 08		 mov	 ecx, DWORD PTR [eax]
  00004	8b 09		 mov	 ecx, DWORD PTR [ecx]
  00006	89 08		 mov	 DWORD PTR [eax], ecx

; 136  :     return *this;
; 137  :   }

  00008	c3		 ret	 0
??E?$_List_iterator@GU?$_Const_traits@G@_STL@@@_STL@@QAEAAU01@XZ ENDP ; _STL::_List_iterator<unsigned short,_STL::_Const_traits<unsigned short> >::operator++
_TEXT	ENDS
PUBLIC	?begin@?$list@PAVInventorySlotInfo@@V?$allocator@PAVInventorySlotInfo@@@_STL@@@_STL@@QAE?AU?$_List_iterator@PAVInventorySlotInfo@@U?$_Nonconst_traits@PAVInventorySlotInfo@@@_STL@@@2@XZ ; _STL::list<InventorySlotInfo *,_STL::allocator<InventorySlotInfo *> >::begin
; Function compile flags: /Ogsy
;	COMDAT ?begin@?$list@PAVInventorySlotInfo@@V?$allocator@PAVInventorySlotInfo@@@_STL@@@_STL@@QAE?AU?$_List_iterator@PAVInventorySlotInfo@@U?$_Nonconst_traits@PAVInventorySlotInfo@@@_STL@@@2@XZ
_TEXT	SEGMENT
___$ReturnUdt$ = 8					; size = 4
?begin@?$list@PAVInventorySlotInfo@@V?$allocator@PAVInventorySlotInfo@@@_STL@@@_STL@@QAE?AU?$_List_iterator@PAVInventorySlotInfo@@U?$_Nonconst_traits@PAVInventorySlotInfo@@@_STL@@@2@XZ PROC NEAR ; _STL::list<InventorySlotInfo *,_STL::allocator<InventorySlotInfo *> >::begin, COMDAT
; _this$ = ecx

; 266  :   iterator begin()             { return iterator((_Node*)(this->_M_node._M_data->_M_next)); }

  00000	8b 01		 mov	 eax, DWORD PTR [ecx]
  00002	8b 08		 mov	 ecx, DWORD PTR [eax]
  00004	8b 44 24 04	 mov	 eax, DWORD PTR ___$ReturnUdt$[esp-4]
  00008	89 08		 mov	 DWORD PTR [eax], ecx
  0000a	c2 04 00	 ret	 4
?begin@?$list@PAVInventorySlotInfo@@V?$allocator@PAVInventorySlotInfo@@@_STL@@@_STL@@QAE?AU?$_List_iterator@PAVInventorySlotInfo@@U?$_Nonconst_traits@PAVInventorySlotInfo@@@_STL@@@2@XZ ENDP ; _STL::list<InventorySlotInfo *,_STL::allocator<InventorySlotInfo *> >::begin
_TEXT	ENDS
PUBLIC	?begin@?$list@PAVInventorySlotInfo@@V?$allocator@PAVInventorySlotInfo@@@_STL@@@_STL@@QBE?AU?$_List_iterator@PAVInventorySlotInfo@@U?$_Const_traits@PAVInventorySlotInfo@@@_STL@@@2@XZ ; _STL::list<InventorySlotInfo *,_STL::allocator<InventorySlotInfo *> >::begin
; Function compile flags: /Ogsy
;	COMDAT ?begin@?$list@PAVInventorySlotInfo@@V?$allocator@PAVInventorySlotInfo@@@_STL@@@_STL@@QBE?AU?$_List_iterator@PAVInventorySlotInfo@@U?$_Const_traits@PAVInventorySlotInfo@@@_STL@@@2@XZ
_TEXT	SEGMENT
___$ReturnUdt$ = 8					; size = 4
?begin@?$list@PAVInventorySlotInfo@@V?$allocator@PAVInventorySlotInfo@@@_STL@@@_STL@@QBE?AU?$_List_iterator@PAVInventorySlotInfo@@U?$_Const_traits@PAVInventorySlotInfo@@@_STL@@@2@XZ PROC NEAR ; _STL::list<InventorySlotInfo *,_STL::allocator<InventorySlotInfo *> >::begin, COMDAT
; _this$ = ecx

; 267  :   const_iterator begin() const { return const_iterator((_Node*)(this->_M_node._M_data->_M_next)); }

  00000	8b 01		 mov	 eax, DWORD PTR [ecx]
  00002	8b 08		 mov	 ecx, DWORD PTR [eax]
  00004	8b 44 24 04	 mov	 eax, DWORD PTR ___$ReturnUdt$[esp-4]
  00008	89 08		 mov	 DWORD PTR [eax], ecx
  0000a	c2 04 00	 ret	 4
?begin@?$list@PAVInventorySlotInfo@@V?$allocator@PAVInventorySlotInfo@@@_STL@@@_STL@@QBE?AU?$_List_iterator@PAVInventorySlotInfo@@U?$_Const_traits@PAVInventorySlotInfo@@@_STL@@@2@XZ ENDP ; _STL::list<InventorySlotInfo *,_STL::allocator<InventorySlotInfo *> >::begin
_TEXT	ENDS
PUBLIC	?end@?$list@PAVInventorySlotInfo@@V?$allocator@PAVInventorySlotInfo@@@_STL@@@_STL@@QAE?AU?$_List_iterator@PAVInventorySlotInfo@@U?$_Nonconst_traits@PAVInventorySlotInfo@@@_STL@@@2@XZ ; _STL::list<InventorySlotInfo *,_STL::allocator<InventorySlotInfo *> >::end
; Function compile flags: /Ogsy
;	COMDAT ?end@?$list@PAVInventorySlotInfo@@V?$allocator@PAVInventorySlotInfo@@@_STL@@@_STL@@QAE?AU?$_List_iterator@PAVInventorySlotInfo@@U?$_Nonconst_traits@PAVInventorySlotInfo@@@_STL@@@2@XZ
_TEXT	SEGMENT
___$ReturnUdt$ = 8					; size = 4
?end@?$list@PAVInventorySlotInfo@@V?$allocator@PAVInventorySlotInfo@@@_STL@@@_STL@@QAE?AU?$_List_iterator@PAVInventorySlotInfo@@U?$_Nonconst_traits@PAVInventorySlotInfo@@@_STL@@@2@XZ PROC NEAR ; _STL::list<InventorySlotInfo *,_STL::allocator<InventorySlotInfo *> >::end, COMDAT
; _this$ = ecx

; 269  :   iterator end()             { return this->_M_node._M_data; }

  00000	8b 09		 mov	 ecx, DWORD PTR [ecx]
  00002	8b 44 24 04	 mov	 eax, DWORD PTR ___$ReturnUdt$[esp-4]
  00006	89 08		 mov	 DWORD PTR [eax], ecx
  00008	c2 04 00	 ret	 4
?end@?$list@PAVInventorySlotInfo@@V?$allocator@PAVInventorySlotInfo@@@_STL@@@_STL@@QAE?AU?$_List_iterator@PAVInventorySlotInfo@@U?$_Nonconst_traits@PAVInventorySlotInfo@@@_STL@@@2@XZ ENDP ; _STL::list<InventorySlotInfo *,_STL::allocator<InventorySlotInfo *> >::end
_TEXT	ENDS
PUBLIC	?end@?$list@PAVInventorySlotInfo@@V?$allocator@PAVInventorySlotInfo@@@_STL@@@_STL@@QBE?AU?$_List_iterator@PAVInventorySlotInfo@@U?$_Const_traits@PAVInventorySlotInfo@@@_STL@@@2@XZ ; _STL::list<InventorySlotInfo *,_STL::allocator<InventorySlotInfo *> >::end
; Function compile flags: /Ogsy
;	COMDAT ?end@?$list@PAVInventorySlotInfo@@V?$allocator@PAVInventorySlotInfo@@@_STL@@@_STL@@QBE?AU?$_List_iterator@PAVInventorySlotInfo@@U?$_Const_traits@PAVInventorySlotInfo@@@_STL@@@2@XZ
_TEXT	SEGMENT
___$ReturnUdt$ = 8					; size = 4
?end@?$list@PAVInventorySlotInfo@@V?$allocator@PAVInventorySlotInfo@@@_STL@@@_STL@@QBE?AU?$_List_iterator@PAVInventorySlotInfo@@U?$_Const_traits@PAVInventorySlotInfo@@@_STL@@@2@XZ PROC NEAR ; _STL::list<InventorySlotInfo *,_STL::allocator<InventorySlotInfo *> >::end, COMDAT
; _this$ = ecx

; 270  :   const_iterator end() const { return this->_M_node._M_data; }

  00000	8b 09		 mov	 ecx, DWORD PTR [ecx]
  00002	8b 44 24 04	 mov	 eax, DWORD PTR ___$ReturnUdt$[esp-4]
  00006	89 08		 mov	 DWORD PTR [eax], ecx
  00008	c2 04 00	 ret	 4
?end@?$list@PAVInventorySlotInfo@@V?$allocator@PAVInventorySlotInfo@@@_STL@@@_STL@@QBE?AU?$_List_iterator@PAVInventorySlotInfo@@U?$_Const_traits@PAVInventorySlotInfo@@@_STL@@@2@XZ ENDP ; _STL::list<InventorySlotInfo *,_STL::allocator<InventorySlotInfo *> >::end
_TEXT	ENDS
PUBLIC	?front@?$list@PAVInventorySlotInfo@@V?$allocator@PAVInventorySlotInfo@@@_STL@@@_STL@@QAEAAPAVInventorySlotInfo@@XZ ; _STL::list<InventorySlotInfo *,_STL::allocator<InventorySlotInfo *> >::front
; Function compile flags: /Ogsy
;	COMDAT ?front@?$list@PAVInventorySlotInfo@@V?$allocator@PAVInventorySlotInfo@@@_STL@@@_STL@@QAEAAPAVInventorySlotInfo@@XZ
_TEXT	SEGMENT
?front@?$list@PAVInventorySlotInfo@@V?$allocator@PAVInventorySlotInfo@@@_STL@@@_STL@@QAEAAPAVInventorySlotInfo@@XZ PROC NEAR ; _STL::list<InventorySlotInfo *,_STL::allocator<InventorySlotInfo *> >::front, COMDAT
; _this$ = ecx

; 289  :   reference front() { return *begin(); }

  00000	8b 01		 mov	 eax, DWORD PTR [ecx]
  00002	8b 00		 mov	 eax, DWORD PTR [eax]
  00004	83 c0 08	 add	 eax, 8
  00007	c3		 ret	 0
?front@?$list@PAVInventorySlotInfo@@V?$allocator@PAVInventorySlotInfo@@@_STL@@@_STL@@QAEAAPAVInventorySlotInfo@@XZ ENDP ; _STL::list<InventorySlotInfo *,_STL::allocator<InventorySlotInfo *> >::front
_TEXT	ENDS
PUBLIC	?begin@?$list@GV?$allocator@G@_STL@@@_STL@@QBE?AU?$_List_iterator@GU?$_Const_traits@G@_STL@@@2@XZ ; _STL::list<unsigned short,_STL::allocator<unsigned short> >::begin
; Function compile flags: /Ogsy
;	COMDAT ?begin@?$list@GV?$allocator@G@_STL@@@_STL@@QBE?AU?$_List_iterator@GU?$_Const_traits@G@_STL@@@2@XZ
_TEXT	SEGMENT
___$ReturnUdt$ = 8					; size = 4
?begin@?$list@GV?$allocator@G@_STL@@@_STL@@QBE?AU?$_List_iterator@GU?$_Const_traits@G@_STL@@@2@XZ PROC NEAR ; _STL::list<unsigned short,_STL::allocator<unsigned short> >::begin, COMDAT
; _this$ = ecx

; 267  :   const_iterator begin() const { return const_iterator((_Node*)(this->_M_node._M_data->_M_next)); }

  00000	8b 01		 mov	 eax, DWORD PTR [ecx]
  00002	8b 08		 mov	 ecx, DWORD PTR [eax]
  00004	8b 44 24 04	 mov	 eax, DWORD PTR ___$ReturnUdt$[esp-4]
  00008	89 08		 mov	 DWORD PTR [eax], ecx
  0000a	c2 04 00	 ret	 4
?begin@?$list@GV?$allocator@G@_STL@@@_STL@@QBE?AU?$_List_iterator@GU?$_Const_traits@G@_STL@@@2@XZ ENDP ; _STL::list<unsigned short,_STL::allocator<unsigned short> >::begin
_TEXT	ENDS
PUBLIC	?end@?$list@GV?$allocator@G@_STL@@@_STL@@QBE?AU?$_List_iterator@GU?$_Const_traits@G@_STL@@@2@XZ ; _STL::list<unsigned short,_STL::allocator<unsigned short> >::end
; Function compile flags: /Ogsy
;	COMDAT ?end@?$list@GV?$allocator@G@_STL@@@_STL@@QBE?AU?$_List_iterator@GU?$_Const_traits@G@_STL@@@2@XZ
_TEXT	SEGMENT
___$ReturnUdt$ = 8					; size = 4
?end@?$list@GV?$allocator@G@_STL@@@_STL@@QBE?AU?$_List_iterator@GU?$_Const_traits@G@_STL@@@2@XZ PROC NEAR ; _STL::list<unsigned short,_STL::allocator<unsigned short> >::end, COMDAT
; _this$ = ecx

; 270  :   const_iterator end() const { return this->_M_node._M_data; }

  00000	8b 09		 mov	 ecx, DWORD PTR [ecx]
  00002	8b 44 24 04	 mov	 eax, DWORD PTR ___$ReturnUdt$[esp-4]
  00006	89 08		 mov	 DWORD PTR [eax], ecx
  00008	c2 04 00	 ret	 4
?end@?$list@GV?$allocator@G@_STL@@@_STL@@QBE?AU?$_List_iterator@GU?$_Const_traits@G@_STL@@@2@XZ ENDP ; _STL::list<unsigned short,_STL::allocator<unsigned short> >::end
_TEXT	ENDS
PUBLIC	?erase@?$list@PAVInventorySlotInfo@@V?$allocator@PAVInventorySlotInfo@@@_STL@@@_STL@@QAE?AU?$_List_iterator@PAVInventorySlotInfo@@U?$_Nonconst_traits@PAVInventorySlotInfo@@@_STL@@@2@U32@@Z ; _STL::list<InventorySlotInfo *,_STL::allocator<InventorySlotInfo *> >::erase
; Function compile flags: /Ogsy
;	COMDAT ?erase@?$list@PAVInventorySlotInfo@@V?$allocator@PAVInventorySlotInfo@@@_STL@@@_STL@@QAE?AU?$_List_iterator@PAVInventorySlotInfo@@U?$_Nonconst_traits@PAVInventorySlotInfo@@@_STL@@@2@U32@@Z
_TEXT	SEGMENT
___$ReturnUdt$ = 8					; size = 4
___position$ = 12					; size = 4
?erase@?$list@PAVInventorySlotInfo@@V?$allocator@PAVInventorySlotInfo@@@_STL@@@_STL@@QAE?AU?$_List_iterator@PAVInventorySlotInfo@@U?$_Nonconst_traits@PAVInventorySlotInfo@@@_STL@@@2@U32@@Z PROC NEAR ; _STL::list<InventorySlotInfo *,_STL::allocator<InventorySlotInfo *> >::erase, COMDAT
; _this$ = ecx

; 354  :     _List_node_base* __next_node = __position._M_node->_M_next;

  00000	8b 54 24 08	 mov	 edx, DWORD PTR ___position$[esp-4]

; 355  :     _List_node_base* __prev_node = __position._M_node->_M_prev;

  00004	8b 42 04	 mov	 eax, DWORD PTR [edx+4]
  00007	56		 push	 esi
  00008	8b 32		 mov	 esi, DWORD PTR [edx]

; 356  :     _Node* __n = (_Node*) __position._M_node;
; 357  :     __prev_node->_M_next = __next_node;
; 358  :     __next_node->_M_prev = __prev_node;
; 359  :     _STLP_STD::_Destroy(&__n->_M_data);
; 360  :     this->_M_node.deallocate(__n, 1);

  0000a	6a 01		 push	 1
  0000c	89 30		 mov	 DWORD PTR [eax], esi
  0000e	52		 push	 edx
  0000f	89 46 04	 mov	 DWORD PTR [esi+4], eax
  00012	e8 00 00 00 00	 call	 ?deallocate@?$allocator@U?$_List_node@PAVInventorySlotInfo@@@_STL@@@_STL@@QAEXPAU?$_List_node@PAVInventorySlotInfo@@@2@I@Z ; _STL::allocator<_STL::_List_node<InventorySlotInfo *> >::deallocate

; 361  :     return iterator((_Node*)__next_node);

  00017	8b 44 24 08	 mov	 eax, DWORD PTR ___$ReturnUdt$[esp]
  0001b	89 30		 mov	 DWORD PTR [eax], esi
  0001d	5e		 pop	 esi

; 362  :     }

  0001e	c2 08 00	 ret	 8
?erase@?$list@PAVInventorySlotInfo@@V?$allocator@PAVInventorySlotInfo@@@_STL@@@_STL@@QAE?AU?$_List_iterator@PAVInventorySlotInfo@@U?$_Nonconst_traits@PAVInventorySlotInfo@@@_STL@@@2@U32@@Z ENDP ; _STL::list<InventorySlotInfo *,_STL::allocator<InventorySlotInfo *> >::erase
_TEXT	ENDS
PUBLIC	??0?$_List_base@PAVInventorySlotInfo@@V?$allocator@PAVInventorySlotInfo@@@_STL@@@_STL@@QAE@ABV?$allocator@PAVInventorySlotInfo@@@1@@Z ; _STL::_List_base<InventorySlotInfo *,_STL::allocator<InventorySlotInfo *> >::_List_base<InventorySlotInfo *,_STL::allocator<InventorySlotInfo *> >
; Function compile flags: /Ogsy
;	COMDAT ??0?$_List_base@PAVInventorySlotInfo@@V?$allocator@PAVInventorySlotInfo@@@_STL@@@_STL@@QAE@ABV?$allocator@PAVInventorySlotInfo@@@1@@Z
_TEXT	SEGMENT
$T103726 = -1						; size = 1
___a$ = 8						; size = 4
??0?$_List_base@PAVInventorySlotInfo@@V?$allocator@PAVInventorySlotInfo@@@_STL@@@_STL@@QAE@ABV?$allocator@PAVInventorySlotInfo@@@1@@Z PROC NEAR ; _STL::_List_base<InventorySlotInfo *,_STL::allocator<InventorySlotInfo *> >::_List_base<InventorySlotInfo *,_STL::allocator<InventorySlotInfo *> >, COMDAT
; _this$ = ecx

; 182  :   _List_base(const allocator_type& __a) : _M_node(_STLP_CONVERT_ALLOCATOR(__a, _Node), (_Node*)0) {

  00000	51		 push	 ecx
  00001	56		 push	 esi
  00002	6a 00		 push	 0
  00004	8d 44 24 0b	 lea	 eax, DWORD PTR $T103726[esp+12]
  00008	50		 push	 eax
  00009	8b f1		 mov	 esi, ecx
  0000b	e8 00 00 00 00	 call	 ??0?$_STLP_alloc_proxy@PAU?$_List_node@PAVInventorySlotInfo@@@_STL@@U12@V?$allocator@U?$_List_node@PAVInventorySlotInfo@@@_STL@@@2@@_STL@@QAE@ABV?$allocator@U?$_List_node@PAVInventorySlotInfo@@@_STL@@@1@PAU?$_List_node@PAVInventorySlotInfo@@@1@@Z ; _STL::_STLP_alloc_proxy<_STL::_List_node<InventorySlotInfo *> *,_STL::_List_node<InventorySlotInfo *>,_STL::allocator<_STL::_List_node<InventorySlotInfo *> > >::_STLP_alloc_proxy<_STL::_List_node<InventorySlotInfo *> *,_STL::_List_node<InventorySlotInfo *>,_STL::allocator<_STL::_List_node<InventorySlotInfo *> > >

; 183  :     _Node* __n = _M_node.allocate(1);

  00010	6a 0c		 push	 12			; 0000000cH
  00012	e8 00 00 00 00	 call	 ?allocate@?$__node_alloc@$00$0A@@_STL@@SAPAXI@Z ; _STL::__node_alloc<1,0>::allocate

; 184  :     __n->_M_next = __n;

  00017	89 00		 mov	 DWORD PTR [eax], eax

; 185  :     __n->_M_prev = __n;

  00019	89 40 04	 mov	 DWORD PTR [eax+4], eax

; 186  :     _M_node._M_data = __n;

  0001c	89 06		 mov	 DWORD PTR [esi], eax
  0001e	59		 pop	 ecx

; 187  :   }

  0001f	8b c6		 mov	 eax, esi
  00021	5e		 pop	 esi
  00022	59		 pop	 ecx
  00023	c2 04 00	 ret	 4
??0?$_List_base@PAVInventorySlotInfo@@V?$allocator@PAVInventorySlotInfo@@@_STL@@@_STL@@QAE@ABV?$allocator@PAVInventorySlotInfo@@@1@@Z ENDP ; _STL::_List_base<InventorySlotInfo *,_STL::allocator<InventorySlotInfo *> >::_List_base<InventorySlotInfo *,_STL::allocator<InventorySlotInfo *> >
_TEXT	ENDS
PUBLIC	??1?$_List_base@PAVInventorySlotInfo@@V?$allocator@PAVInventorySlotInfo@@@_STL@@@_STL@@QAE@XZ ; _STL::_List_base<InventorySlotInfo *,_STL::allocator<InventorySlotInfo *> >::~_List_base<InventorySlotInfo *,_STL::allocator<InventorySlotInfo *> >
; Function compile flags: /Ogsy
;	COMDAT ??1?$_List_base@PAVInventorySlotInfo@@V?$allocator@PAVInventorySlotInfo@@@_STL@@@_STL@@QAE@XZ
_TEXT	SEGMENT
??1?$_List_base@PAVInventorySlotInfo@@V?$allocator@PAVInventorySlotInfo@@@_STL@@@_STL@@QAE@XZ PROC NEAR ; _STL::_List_base<InventorySlotInfo *,_STL::allocator<InventorySlotInfo *> >::~_List_base<InventorySlotInfo *,_STL::allocator<InventorySlotInfo *> >, COMDAT
; _this$ = ecx

; 188  :   ~_List_base() {

  00000	56		 push	 esi
  00001	8b f1		 mov	 esi, ecx

; 189  :     clear();

  00003	e8 00 00 00 00	 call	 ?clear@?$_List_base@PAVInventorySlotInfo@@V?$allocator@PAVInventorySlotInfo@@@_STL@@@_STL@@QAEXXZ ; _STL::_List_base<InventorySlotInfo *,_STL::allocator<InventorySlotInfo *> >::clear

; 190  :     _M_node.deallocate(_M_node._M_data, 1);

  00008	6a 01		 push	 1
  0000a	ff 36		 push	 DWORD PTR [esi]
  0000c	8b ce		 mov	 ecx, esi
  0000e	e8 00 00 00 00	 call	 ?deallocate@?$allocator@U?$_List_node@PAVInventorySlotInfo@@@_STL@@@_STL@@QAEXPAU?$_List_node@PAVInventorySlotInfo@@@2@I@Z ; _STL::allocator<_STL::_List_node<InventorySlotInfo *> >::deallocate
  00013	5e		 pop	 esi

; 191  :   }

  00014	c3		 ret	 0
??1?$_List_base@PAVInventorySlotInfo@@V?$allocator@PAVInventorySlotInfo@@@_STL@@@_STL@@QAE@XZ ENDP ; _STL::_List_base<InventorySlotInfo *,_STL::allocator<InventorySlotInfo *> >::~_List_base<InventorySlotInfo *,_STL::allocator<InventorySlotInfo *> >
_TEXT	ENDS
PUBLIC	?_M_create_node@?$list@PAVInventorySlotInfo@@V?$allocator@PAVInventorySlotInfo@@@_STL@@@_STL@@IAEPAU?$_List_node@PAVInventorySlotInfo@@@2@ABQAVInventorySlotInfo@@@Z ; _STL::list<InventorySlotInfo *,_STL::allocator<InventorySlotInfo *> >::_M_create_node
EXTRN	__CxxThrowException@8:NEAR
; Function compile flags: /Ogsy
;	COMDAT ?_M_create_node@?$list@PAVInventorySlotInfo@@V?$allocator@PAVInventorySlotInfo@@@_STL@@@_STL@@IAEPAU?$_List_node@PAVInventorySlotInfo@@@2@ABQAVInventorySlotInfo@@@Z
_TEXT	SEGMENT
___x$ = 8						; size = 4
?_M_create_node@?$list@PAVInventorySlotInfo@@V?$allocator@PAVInventorySlotInfo@@@_STL@@@_STL@@IAEPAU?$_List_node@PAVInventorySlotInfo@@@2@ABQAVInventorySlotInfo@@@Z PROC NEAR ; _STL::list<InventorySlotInfo *,_STL::allocator<InventorySlotInfo *> >::_M_create_node, COMDAT
; _this$ = ecx

; 241  :     _Node* __p = this->_M_node.allocate(1);

  00000	6a 0c		 push	 12			; 0000000cH
  00002	e8 00 00 00 00	 call	 ?allocate@?$__node_alloc@$00$0A@@_STL@@SAPAXI@Z ; _STL::__node_alloc<1,0>::allocate
  00007	59		 pop	 ecx

; 242  :     _STLP_TRY {
; 243  :       _Construct(&__p->_M_data, __x);

  00008	8d 48 08	 lea	 ecx, DWORD PTR [eax+8]
  0000b	85 c9		 test	 ecx, ecx
  0000d	74 08		 je	 SHORT $L103762
  0000f	8b 54 24 04	 mov	 edx, DWORD PTR ___x$[esp-4]
  00013	8b 12		 mov	 edx, DWORD PTR [edx]
  00015	89 11		 mov	 DWORD PTR [ecx], edx
$L103762:

; 244  :     }
; 245  :     _STLP_UNWIND(this->_M_node.deallocate(__p, 1));
; 246  :     return __p;
; 247  :   }

  00017	c2 04 00	 ret	 4
?_M_create_node@?$list@PAVInventorySlotInfo@@V?$allocator@PAVInventorySlotInfo@@@_STL@@@_STL@@IAEPAU?$_List_node@PAVInventorySlotInfo@@@2@ABQAVInventorySlotInfo@@@Z ENDP ; _STL::list<InventorySlotInfo *,_STL::allocator<InventorySlotInfo *> >::_M_create_node
_TEXT	ENDS
PUBLIC	??$__distance@U?$_List_iterator@GU?$_Const_traits@G@_STL@@@_STL@@@_STL@@YAHABU?$_List_iterator@GU?$_Const_traits@G@_STL@@@0@0ABUinput_iterator_tag@0@@Z ; _STL::__distance<_STL::_List_iterator<unsigned short,_STL::_Const_traits<unsigned short> > >
; Function compile flags: /Ogsy
; File c:\stlport-4.6.1\stlport\stl\_iterator_base.h
;	COMDAT ??$__distance@U?$_List_iterator@GU?$_Const_traits@G@_STL@@@_STL@@@_STL@@YAHABU?$_List_iterator@GU?$_Const_traits@G@_STL@@@0@0ABUinput_iterator_tag@0@@Z
_TEXT	SEGMENT
___first$ = 8						; size = 4
___last$ = 12						; size = 4
___formal$ = 16						; size = 4
??$__distance@U?$_List_iterator@GU?$_Const_traits@G@_STL@@@_STL@@@_STL@@YAHABU?$_List_iterator@GU?$_Const_traits@G@_STL@@@0@0ABUinput_iterator_tag@0@@Z PROC NEAR ; _STL::__distance<_STL::_List_iterator<unsigned short,_STL::_Const_traits<unsigned short> > >, COMDAT

; 323  :   _STLP_DIFFERENCE_TYPE(_InputIterator) __n = 0;
; 324  :   _InputIterator __it(__first);  
; 325  :   while (__it != __last) {

  00000	8b 54 24 08	 mov	 edx, DWORD PTR ___last$[esp-4]
  00004	8b 4c 24 04	 mov	 ecx, DWORD PTR ___first$[esp-4]
  00008	8b 12		 mov	 edx, DWORD PTR [edx]
  0000a	33 c0		 xor	 eax, eax
  0000c	eb 01		 jmp	 SHORT $L103788
$L102922:

; 326  :     ++__it; ++__n;

  0000e	40		 inc	 eax
$L103788:
  0000f	8b 09		 mov	 ecx, DWORD PTR [ecx]
  00011	3b ca		 cmp	 ecx, edx
  00013	75 f9		 jne	 SHORT $L102922

; 327  :   }
; 328  :   return __n;
; 329  : }

  00015	c3		 ret	 0
??$__distance@U?$_List_iterator@GU?$_Const_traits@G@_STL@@@_STL@@@_STL@@YAHABU?$_List_iterator@GU?$_Const_traits@G@_STL@@@0@0ABUinput_iterator_tag@0@@Z ENDP ; _STL::__distance<_STL::_List_iterator<unsigned short,_STL::_Const_traits<unsigned short> > >
_TEXT	ENDS
PUBLIC	?write@InventoryInfo@@QBEXAAVSocketOutputStream@@@Z ; InventoryInfo::write
EXTRN	?write@InventorySlotInfo@@QBEXAAVSocketOutputStream@@@Z:NEAR ; InventorySlotInfo::write
; Function compile flags: /Ogsy
; File c:\darkeden\designed_common\project\client\packet\inventoryinfo.cpp
;	COMDAT ?write@InventoryInfo@@QBEXAAVSocketOutputStream@@@Z
_TEXT	SEGMENT
$T103797 = -4						; size = 1
_oStream$ = 8						; size = 4
$T103805 = 11						; size = 1
$T103801 = 11						; size = 1
?write@InventoryInfo@@QBEXAAVSocketOutputStream@@@Z PROC NEAR ; InventoryInfo::write, COMDAT
; _this$ = ecx

; 79   : {

  00000	55		 push	 ebp
  00001	8b ec		 mov	 ebp, esp
  00003	51		 push	 ecx
  00004	53		 push	 ebx

; 80   : 	__BEGIN_TRY
; 81   : 		
; 82   : 	oStream.write( m_Width );

  00005	8b 5d 08	 mov	 ebx, DWORD PTR _oStream$[ebp]
  00008	56		 push	 esi
  00009	8b f1		 mov	 esi, ecx
  0000b	8a 06		 mov	 al, BYTE PTR [esi]
  0000d	57		 push	 edi
  0000e	88 45 fc	 mov	 BYTE PTR $T103797[ebp], al
  00011	6a 01		 push	 1
  00013	8d 45 fc	 lea	 eax, DWORD PTR $T103797[ebp]
  00016	50		 push	 eax
  00017	8b cb		 mov	 ecx, ebx
  00019	e8 00 00 00 00	 call	 ?write@SocketOutputStream@@QAEIPBDI@Z ; SocketOutputStream::write

; 83   : 	oStream.write( m_Height );

  0001e	8a 46 01	 mov	 al, BYTE PTR [esi+1]
  00021	88 45 0b	 mov	 BYTE PTR $T103801[ebp], al
  00024	6a 01		 push	 1
  00026	8d 45 0b	 lea	 eax, DWORD PTR $T103801[ebp]
  00029	50		 push	 eax
  0002a	8b cb		 mov	 ecx, ebx
  0002c	e8 00 00 00 00	 call	 ?write@SocketOutputStream@@QAEIPBDI@Z ; SocketOutputStream::write

; 84   : 
; 85   : 	//      .
; 86   : 	oStream.write( m_ListNum );

  00031	8a 46 02	 mov	 al, BYTE PTR [esi+2]
  00034	88 45 0b	 mov	 BYTE PTR $T103805[ebp], al
  00037	6a 01		 push	 1
  00039	8d 45 0b	 lea	 eax, DWORD PTR $T103805[ebp]
  0003c	50		 push	 eax
  0003d	8b cb		 mov	 ecx, ebx
  0003f	e8 00 00 00 00	 call	 ?write@SocketOutputStream@@QAEIPBDI@Z ; SocketOutputStream::write

; 87   : 
; 88   :     for ( std::list<InventorySlotInfo*>:: const_iterator itr = m_InventorySlotInfoList.begin(); itr!= m_InventorySlotInfoList.end(); itr++) {

  00044	8b 46 04	 mov	 eax, DWORD PTR [esi+4]
  00047	8b 38		 mov	 edi, DWORD PTR [eax]
  00049	3b f8		 cmp	 edi, eax
  0004b	74 10		 je	 SHORT $L102002
$L103829:

; 89   : 		(*itr)->write( oStream );

  0004d	8b 4f 08	 mov	 ecx, DWORD PTR [edi+8]
  00050	53		 push	 ebx
  00051	e8 00 00 00 00	 call	 ?write@InventorySlotInfo@@QBEXAAVSocketOutputStream@@@Z ; InventorySlotInfo::write
  00056	8b 3f		 mov	 edi, DWORD PTR [edi]
  00058	3b 7e 04	 cmp	 edi, DWORD PTR [esi+4]
  0005b	75 f0		 jne	 SHORT $L103829
$L102002:
  0005d	5f		 pop	 edi
  0005e	5e		 pop	 esi
  0005f	5b		 pop	 ebx

; 90   : 	}
; 91   : 
; 92   : 	__END_CATCH
; 93   : }

  00060	c9		 leave
  00061	c2 04 00	 ret	 4
?write@InventoryInfo@@QBEXAAVSocketOutputStream@@@Z ENDP ; InventoryInfo::write
_TEXT	ENDS
PUBLIC	??0?$list@PAVInventorySlotInfo@@V?$allocator@PAVInventorySlotInfo@@@_STL@@@_STL@@QAE@ABV?$allocator@PAVInventorySlotInfo@@@1@@Z ; _STL::list<InventorySlotInfo *,_STL::allocator<InventorySlotInfo *> >::list<InventorySlotInfo *,_STL::allocator<InventorySlotInfo *> >
; Function compile flags: /Ogsy
; File c:\stlport-4.6.1\stlport\stl\_list.h
;	COMDAT ??0?$list@PAVInventorySlotInfo@@V?$allocator@PAVInventorySlotInfo@@@_STL@@@_STL@@QAE@ABV?$allocator@PAVInventorySlotInfo@@@1@@Z
_TEXT	SEGMENT
___a$ = 8						; size = 4
??0?$list@PAVInventorySlotInfo@@V?$allocator@PAVInventorySlotInfo@@@_STL@@@_STL@@QAE@ABV?$allocator@PAVInventorySlotInfo@@@1@@Z PROC NEAR ; _STL::list<InventorySlotInfo *,_STL::allocator<InventorySlotInfo *> >::list<InventorySlotInfo *,_STL::allocator<InventorySlotInfo *> >, COMDAT
; _this$ = ecx

; 264  :     _List_base<_Tp, _Alloc>(__a) {}

  00000	56		 push	 esi
  00001	ff 74 24 08	 push	 DWORD PTR ___a$[esp]
  00005	8b f1		 mov	 esi, ecx
  00007	e8 00 00 00 00	 call	 ??0?$_List_base@PAVInventorySlotInfo@@V?$allocator@PAVInventorySlotInfo@@@_STL@@@_STL@@QAE@ABV?$allocator@PAVInventorySlotInfo@@@1@@Z ; _STL::_List_base<InventorySlotInfo *,_STL::allocator<InventorySlotInfo *> >::_List_base<InventorySlotInfo *,_STL::allocator<InventorySlotInfo *> >
  0000c	8b c6		 mov	 eax, esi
  0000e	5e		 pop	 esi
  0000f	c2 04 00	 ret	 4
??0?$list@PAVInventorySlotInfo@@V?$allocator@PAVInventorySlotInfo@@@_STL@@@_STL@@QAE@ABV?$allocator@PAVInventorySlotInfo@@@1@@Z ENDP ; _STL::list<InventorySlotInfo *,_STL::allocator<InventorySlotInfo *> >::list<InventorySlotInfo *,_STL::allocator<InventorySlotInfo *> >
_TEXT	ENDS
PUBLIC	?pop_front@?$list@PAVInventorySlotInfo@@V?$allocator@PAVInventorySlotInfo@@@_STL@@@_STL@@QAEXXZ ; _STL::list<InventorySlotInfo *,_STL::allocator<InventorySlotInfo *> >::pop_front
; Function compile flags: /Ogsy
;	COMDAT ?pop_front@?$list@PAVInventorySlotInfo@@V?$allocator@PAVInventorySlotInfo@@@_STL@@@_STL@@QAEXXZ
_TEXT	SEGMENT
$T103862 = -4						; size = 4
?pop_front@?$list@PAVInventorySlotInfo@@V?$allocator@PAVInventorySlotInfo@@@_STL@@@_STL@@QAEXXZ PROC NEAR ; _STL::list<InventorySlotInfo *,_STL::allocator<InventorySlotInfo *> >::pop_front, COMDAT
; _this$ = ecx

; 373  :   void pop_front() { erase(begin()); }

  00000	51		 push	 ecx
  00001	8b 11		 mov	 edx, DWORD PTR [ecx]
  00003	8b 12		 mov	 edx, DWORD PTR [edx]
  00005	51		 push	 ecx
  00006	8b c4		 mov	 eax, esp
  00008	89 10		 mov	 DWORD PTR [eax], edx
  0000a	8d 44 24 04	 lea	 eax, DWORD PTR $T103862[esp+8]
  0000e	50		 push	 eax
  0000f	e8 00 00 00 00	 call	 ?erase@?$list@PAVInventorySlotInfo@@V?$allocator@PAVInventorySlotInfo@@@_STL@@@_STL@@QAE?AU?$_List_iterator@PAVInventorySlotInfo@@U?$_Nonconst_traits@PAVInventorySlotInfo@@@_STL@@@2@U32@@Z ; _STL::list<InventorySlotInfo *,_STL::allocator<InventorySlotInfo *> >::erase
  00014	59		 pop	 ecx
  00015	c3		 ret	 0
?pop_front@?$list@PAVInventorySlotInfo@@V?$allocator@PAVInventorySlotInfo@@@_STL@@@_STL@@QAEXXZ ENDP ; _STL::list<InventorySlotInfo *,_STL::allocator<InventorySlotInfo *> >::pop_front
_TEXT	ENDS
PUBLIC	??1?$list@PAVInventorySlotInfo@@V?$allocator@PAVInventorySlotInfo@@@_STL@@@_STL@@QAE@XZ ; _STL::list<InventorySlotInfo *,_STL::allocator<InventorySlotInfo *> >::~list<InventorySlotInfo *,_STL::allocator<InventorySlotInfo *> >
; Function compile flags: /Ogsy
;	COMDAT ??1?$list@PAVInventorySlotInfo@@V?$allocator@PAVInventorySlotInfo@@@_STL@@@_STL@@QAE@XZ
_TEXT	SEGMENT
??1?$list@PAVInventorySlotInfo@@V?$allocator@PAVInventorySlotInfo@@@_STL@@@_STL@@QAE@XZ PROC NEAR ; _STL::list<InventorySlotInfo *,_STL::allocator<InventorySlotInfo *> >::~list<InventorySlotInfo *,_STL::allocator<InventorySlotInfo *> >, COMDAT
; _this$ = ecx

; 416  :   ~list() { }

  00000	e9 00 00 00 00	 jmp	 ??1?$_List_base@PAVInventorySlotInfo@@V?$allocator@PAVInventorySlotInfo@@@_STL@@@_STL@@QAE@XZ ; _STL::_List_base<InventorySlotInfo *,_STL::allocator<InventorySlotInfo *> >::~_List_base<InventorySlotInfo *,_STL::allocator<InventorySlotInfo *> >
??1?$list@PAVInventorySlotInfo@@V?$allocator@PAVInventorySlotInfo@@@_STL@@@_STL@@QAE@XZ ENDP ; _STL::list<InventorySlotInfo *,_STL::allocator<InventorySlotInfo *> >::~list<InventorySlotInfo *,_STL::allocator<InventorySlotInfo *> >
_TEXT	ENDS
PUBLIC	?insert@?$list@PAVInventorySlotInfo@@V?$allocator@PAVInventorySlotInfo@@@_STL@@@_STL@@QAE?AU?$_List_iterator@PAVInventorySlotInfo@@U?$_Nonconst_traits@PAVInventorySlotInfo@@@_STL@@@2@U32@ABQAVInventorySlotInfo@@@Z ; _STL::list<InventorySlotInfo *,_STL::allocator<InventorySlotInfo *> >::insert
; Function compile flags: /Ogsy
;	COMDAT ?insert@?$list@PAVInventorySlotInfo@@V?$allocator@PAVInventorySlotInfo@@@_STL@@@_STL@@QAE?AU?$_List_iterator@PAVInventorySlotInfo@@U?$_Nonconst_traits@PAVInventorySlotInfo@@@_STL@@@2@U32@ABQAVInventorySlotInfo@@@Z
_TEXT	SEGMENT
___$ReturnUdt$ = 8					; size = 4
___position$ = 12					; size = 4
___x$ = 16						; size = 4
?insert@?$list@PAVInventorySlotInfo@@V?$allocator@PAVInventorySlotInfo@@@_STL@@@_STL@@QAE?AU?$_List_iterator@PAVInventorySlotInfo@@U?$_Nonconst_traits@PAVInventorySlotInfo@@@_STL@@@2@U32@ABQAVInventorySlotInfo@@@Z PROC NEAR ; _STL::list<InventorySlotInfo *,_STL::allocator<InventorySlotInfo *> >::insert, COMDAT
; _this$ = ecx

; 299  : 
; 300  :     _Node* __tmp = _M_create_node(__x);

  00000	ff 74 24 0c	 push	 DWORD PTR ___x$[esp-4]
  00004	e8 00 00 00 00	 call	 ?_M_create_node@?$list@PAVInventorySlotInfo@@V?$allocator@PAVInventorySlotInfo@@@_STL@@@_STL@@IAEPAU?$_List_node@PAVInventorySlotInfo@@@2@ABQAVInventorySlotInfo@@@Z ; _STL::list<InventorySlotInfo *,_STL::allocator<InventorySlotInfo *> >::_M_create_node

; 301  :     _List_node_base* __n = __position._M_node;
; 302  :     _List_node_base* __p = __n->_M_prev;

  00009	8b 4c 24 08	 mov	 ecx, DWORD PTR ___position$[esp-4]
  0000d	8b 51 04	 mov	 edx, DWORD PTR [ecx+4]

; 303  :     __tmp->_M_next = __n;

  00010	89 08		 mov	 DWORD PTR [eax], ecx

; 304  :     __tmp->_M_prev = __p;

  00012	89 50 04	 mov	 DWORD PTR [eax+4], edx

; 305  :     __p->_M_next = __tmp;

  00015	89 02		 mov	 DWORD PTR [edx], eax

; 306  :     __n->_M_prev = __tmp;

  00017	89 41 04	 mov	 DWORD PTR [ecx+4], eax

; 307  :     return __tmp;

  0001a	8b 4c 24 04	 mov	 ecx, DWORD PTR ___$ReturnUdt$[esp-4]
  0001e	89 01		 mov	 DWORD PTR [ecx], eax
  00020	8b c1		 mov	 eax, ecx

; 308  :   }

  00022	c2 0c 00	 ret	 12			; 0000000cH
?insert@?$list@PAVInventorySlotInfo@@V?$allocator@PAVInventorySlotInfo@@@_STL@@@_STL@@QAE?AU?$_List_iterator@PAVInventorySlotInfo@@U?$_Nonconst_traits@PAVInventorySlotInfo@@@_STL@@@2@U32@ABQAVInventorySlotInfo@@@Z ENDP ; _STL::list<InventorySlotInfo *,_STL::allocator<InventorySlotInfo *> >::insert
_TEXT	ENDS
PUBLIC	??$distance@U?$_List_iterator@GU?$_Const_traits@G@_STL@@@_STL@@@_STL@@YAHABU?$_List_iterator@GU?$_Const_traits@G@_STL@@@0@0@Z ; _STL::distance<_STL::_List_iterator<unsigned short,_STL::_Const_traits<unsigned short> > >
; Function compile flags: /Ogsy
; File c:\stlport-4.6.1\stlport\stl\_iterator_base.h
;	COMDAT ??$distance@U?$_List_iterator@GU?$_Const_traits@G@_STL@@@_STL@@@_STL@@YAHABU?$_List_iterator@GU?$_Const_traits@G@_STL@@@0@0@Z
_TEXT	SEGMENT
___first$ = 8						; size = 4
___last$ = 12						; size = 4
??$distance@U?$_List_iterator@GU?$_Const_traits@G@_STL@@@_STL@@@_STL@@YAHABU?$_List_iterator@GU?$_Const_traits@G@_STL@@@0@0@Z PROC NEAR ; _STL::distance<_STL::_List_iterator<unsigned short,_STL::_Const_traits<unsigned short> > >, COMDAT

; 369  :   return __distance(__first, __last, _STLP_ITERATOR_CATEGORY(__first, _InputIterator));  

  00000	8b 54 24 08	 mov	 edx, DWORD PTR ___last$[esp-4]
  00004	8b 4c 24 04	 mov	 ecx, DWORD PTR ___first$[esp-4]
  00008	8b 12		 mov	 edx, DWORD PTR [edx]
  0000a	33 c0		 xor	 eax, eax
  0000c	eb 01		 jmp	 SHORT $L103926
$L103921:
  0000e	40		 inc	 eax
$L103926:
  0000f	8b 09		 mov	 ecx, DWORD PTR [ecx]
  00011	3b ca		 cmp	 ecx, edx
  00013	75 f9		 jne	 SHORT $L103921

; 370  : }

  00015	c3		 ret	 0
??$distance@U?$_List_iterator@GU?$_Const_traits@G@_STL@@@_STL@@@_STL@@YAHABU?$_List_iterator@GU?$_Const_traits@G@_STL@@@0@0@Z ENDP ; _STL::distance<_STL::_List_iterator<unsigned short,_STL::_Const_traits<unsigned short> > >
_TEXT	ENDS
PUBLIC	??0InventoryInfo@@QAE@XZ			; InventoryInfo::InventoryInfo
; Function compile flags: /Ogsy
; File c:\darkeden\designed_common\project\client\packet\inventoryinfo.cpp
;	COMDAT ??0InventoryInfo@@QAE@XZ
_TEXT	SEGMENT
$T103930 = -1						; size = 1
??0InventoryInfo@@QAE@XZ PROC NEAR			; InventoryInfo::InventoryInfo, COMDAT
; _this$ = ecx

; 24   : {

  00000	51		 push	 ecx
  00001	56		 push	 esi
  00002	8b f1		 mov	 esi, ecx
  00004	8d 44 24 07	 lea	 eax, DWORD PTR $T103930[esp+8]
  00008	50		 push	 eax
  00009	8d 4e 04	 lea	 ecx, DWORD PTR [esi+4]
  0000c	e8 00 00 00 00	 call	 ??0?$list@PAVInventorySlotInfo@@V?$allocator@PAVInventorySlotInfo@@@_STL@@@_STL@@QAE@ABV?$allocator@PAVInventorySlotInfo@@@1@@Z ; _STL::list<InventorySlotInfo *,_STL::allocator<InventorySlotInfo *> >::list<InventorySlotInfo *,_STL::allocator<InventorySlotInfo *> >

; 25   : 	__BEGIN_TRY
; 26   : 	m_ListNum = 0;

  00011	c6 46 02 00	 mov	 BYTE PTR [esi+2], 0

; 27   : 	__END_CATCH
; 28   : }

  00015	8b c6		 mov	 eax, esi
  00017	5e		 pop	 esi
  00018	59		 pop	 ecx
  00019	c3		 ret	 0
??0InventoryInfo@@QAE@XZ ENDP				; InventoryInfo::InventoryInfo
_TEXT	ENDS
PUBLIC	??1InventoryInfo@@QAE@XZ			; InventoryInfo::~InventoryInfo
; Function compile flags: /Ogsy
;	COMDAT ??1InventoryInfo@@QAE@XZ
_TEXT	SEGMENT
??1InventoryInfo@@QAE@XZ PROC NEAR			; InventoryInfo::~InventoryInfo, COMDAT
; _this$ = ecx

; 36   : {

  00000	56		 push	 esi

; 37   : 	__BEGIN_TRY
; 38   : 
; 39   : 	//    .
; 40   : 	while ( !m_InventorySlotInfoList.empty() ) {

  00001	8d 71 04	 lea	 esi, DWORD PTR [ecx+4]
  00004	eb 18		 jmp	 SHORT $L103984
$L101883:

; 41   : 		InventorySlotInfo * pInventorySlotInfo = m_InventorySlotInfoList.front();

  00006	8b 06		 mov	 eax, DWORD PTR [esi]

; 42   : 		delete pInventorySlotInfo;

  00008	8b 00		 mov	 eax, DWORD PTR [eax]
  0000a	8b 48 08	 mov	 ecx, DWORD PTR [eax+8]
  0000d	85 c9		 test	 ecx, ecx
  0000f	74 06		 je	 SHORT $L103942
  00011	8b 01		 mov	 eax, DWORD PTR [ecx]
  00013	6a 01		 push	 1
  00015	ff 10		 call	 DWORD PTR [eax]
$L103942:

; 43   : 		m_InventorySlotInfoList.pop_front();

  00017	8b ce		 mov	 ecx, esi
  00019	e8 00 00 00 00	 call	 ?pop_front@?$list@PAVInventorySlotInfo@@V?$allocator@PAVInventorySlotInfo@@@_STL@@@_STL@@QAEXXZ ; _STL::list<InventorySlotInfo *,_STL::allocator<InventorySlotInfo *> >::pop_front
$L103984:
  0001e	8b 06		 mov	 eax, DWORD PTR [esi]
  00020	39 00		 cmp	 DWORD PTR [eax], eax
  00022	75 e2		 jne	 SHORT $L101883

; 44   : 	}
; 45   : 
; 46   : 	__END_CATCH
; 47   : }

  00024	8b ce		 mov	 ecx, esi
  00026	5e		 pop	 esi
  00027	e9 00 00 00 00	 jmp	 ??1?$list@PAVInventorySlotInfo@@V?$allocator@PAVInventorySlotInfo@@@_STL@@@_STL@@QAE@XZ ; _STL::list<InventorySlotInfo *,_STL::allocator<InventorySlotInfo *> >::~list<InventorySlotInfo *,_STL::allocator<InventorySlotInfo *> >
??1InventoryInfo@@QAE@XZ ENDP				; InventoryInfo::~InventoryInfo
_TEXT	ENDS
PUBLIC	?size@?$list@GV?$allocator@G@_STL@@@_STL@@QBEIXZ ; _STL::list<unsigned short,_STL::allocator<unsigned short> >::size
; Function compile flags: /Ogsy
; File c:\stlport-4.6.1\stlport\stl\_list.h
;	COMDAT ?size@?$list@GV?$allocator@G@_STL@@@_STL@@QBEIXZ
_TEXT	SEGMENT
?size@?$list@GV?$allocator@G@_STL@@@_STL@@QBEIXZ PROC NEAR ; _STL::list<unsigned short,_STL::allocator<unsigned short> >::size, COMDAT
; _this$ = ecx

; 284  :     size_type __result = distance(begin(), end());

  00000	8b 11		 mov	 edx, DWORD PTR [ecx]
  00002	8b 0a		 mov	 ecx, DWORD PTR [edx]
  00004	33 c0		 xor	 eax, eax
  00006	eb 03		 jmp	 SHORT $L104065
$L104054:
  00008	8b 09		 mov	 ecx, DWORD PTR [ecx]
  0000a	40		 inc	 eax
$L104065:
  0000b	3b ca		 cmp	 ecx, edx
  0000d	75 f9		 jne	 SHORT $L104054

; 285  :     return __result;
; 286  :   }

  0000f	c3		 ret	 0
?size@?$list@GV?$allocator@G@_STL@@@_STL@@QBEIXZ ENDP	; _STL::list<unsigned short,_STL::allocator<unsigned short> >::size
_TEXT	ENDS
PUBLIC	?push_back@?$list@PAVInventorySlotInfo@@V?$allocator@PAVInventorySlotInfo@@@_STL@@@_STL@@QAEXABQAVInventorySlotInfo@@@Z ; _STL::list<InventorySlotInfo *,_STL::allocator<InventorySlotInfo *> >::push_back
; Function compile flags: /Ogsy
;	COMDAT ?push_back@?$list@PAVInventorySlotInfo@@V?$allocator@PAVInventorySlotInfo@@@_STL@@@_STL@@QAEXABQAVInventorySlotInfo@@@Z
_TEXT	SEGMENT
$T104070 = 8						; size = 4
___x$ = 8						; size = 4
?push_back@?$list@PAVInventorySlotInfo@@V?$allocator@PAVInventorySlotInfo@@@_STL@@@_STL@@QAEXABQAVInventorySlotInfo@@@Z PROC NEAR ; _STL::list<InventorySlotInfo *,_STL::allocator<InventorySlotInfo *> >::push_back, COMDAT
; _this$ = ecx

; 345  :   void push_back(const _Tp& __x) { insert(end(), __x); }

  00000	55		 push	 ebp
  00001	8b ec		 mov	 ebp, esp
  00003	ff 75 08	 push	 DWORD PTR ___x$[ebp]
  00006	8b 11		 mov	 edx, DWORD PTR [ecx]
  00008	51		 push	 ecx
  00009	8b c4		 mov	 eax, esp
  0000b	89 10		 mov	 DWORD PTR [eax], edx
  0000d	8d 45 08	 lea	 eax, DWORD PTR $T104070[ebp]
  00010	50		 push	 eax
  00011	e8 00 00 00 00	 call	 ?insert@?$list@PAVInventorySlotInfo@@V?$allocator@PAVInventorySlotInfo@@@_STL@@@_STL@@QAE?AU?$_List_iterator@PAVInventorySlotInfo@@U?$_Nonconst_traits@PAVInventorySlotInfo@@@_STL@@@2@U32@ABQAVInventorySlotInfo@@@Z ; _STL::list<InventorySlotInfo *,_STL::allocator<InventorySlotInfo *> >::insert
  00016	5d		 pop	 ebp
  00017	c2 04 00	 ret	 4
?push_back@?$list@PAVInventorySlotInfo@@V?$allocator@PAVInventorySlotInfo@@@_STL@@@_STL@@QAEXABQAVInventorySlotInfo@@@Z ENDP ; _STL::list<InventorySlotInfo *,_STL::allocator<InventorySlotInfo *> >::push_back
_TEXT	ENDS
PUBLIC	?getSize@PCItemInfo@@QBEIXZ			; PCItemInfo::getSize
; Function compile flags: /Ogsy
; File c:\darkeden\designed_common\project\client\packet\pciteminfo.h
;	COMDAT ?getSize@PCItemInfo@@QBEIXZ
_TEXT	SEGMENT
___n$104296 = -4					; size = 4
?getSize@PCItemInfo@@QBEIXZ PROC NEAR			; PCItemInfo::getSize, COMDAT
; _this$ = ecx

; 153  : 	{

  00000	55		 push	 ebp
  00001	8b ec		 mov	 ebp, esp
  00003	51		 push	 ecx

; 154  : 		return szObjectID +
; 155  : 			szBYTE +
; 156  : 			szItemType + 
; 157  : 			szBYTE + m_OptionType.size() + m_GTwoOptionType.size() +
; 158  : 			szDurability +
; 159  : 			szSilver + 
; 160  : 			szGrade +
; 161  : 			szEnchantLevel +
; 162  : 			szItemNum +
; 163  : 			szWORD +
; 164  : 			szBYTE +
; 165  : 			SubItemInfo::getMaxSize()*m_ListNum
; 166  : #if __CONTENTS(__PET_VISION_AMPLE)
; 167  : 			//1208 wlzzi
; 168  : 			+ szBYTE * 3 //by rallser 3
; 169  : #endif //__PET_VISION_AMPLE
; 170  : 			+ szBYTE + m_ThirdOptionType.size() +
; 171  : 			szBYTE
; 172  : #if __CONTENTS(__INTERNATIONAL_PREMIUM_SYSTEM)
; 173  : 			+ szBYTE
; 174  : #endif
; 175  : #if __CONTENTS(__PET_MIXINGFORGE)
; 176  : 			+ szBYTE + m_MixOptionType.size() * szOptionType //mixOptionType
; 177  : #endif //__PET_MIXINGFORGE
; 178  : 			;

  00004	8b 51 0c	 mov	 edx, DWORD PTR [ecx+12]
  00007	8b 02		 mov	 eax, DWORD PTR [edx]
  00009	53		 push	 ebx
  0000a	56		 push	 esi
  0000b	33 f6		 xor	 esi, esi
  0000d	57		 push	 edi
  0000e	33 db		 xor	 ebx, ebx
  00010	eb 03		 jmp	 SHORT $L104537
$L104189:
  00012	8b 00		 mov	 eax, DWORD PTR [eax]
  00014	43		 inc	 ebx
$L104537:
  00015	3b c2		 cmp	 eax, edx
  00017	75 f9		 jne	 SHORT $L104189
  00019	8b 51 10	 mov	 edx, DWORD PTR [ecx+16]
  0001c	8b 02		 mov	 eax, DWORD PTR [edx]
  0001e	89 75 fc	 mov	 DWORD PTR ___n$104296[ebp], esi
  00021	eb 05		 jmp	 SHORT $L104538
$L104298:
  00023	8b 00		 mov	 eax, DWORD PTR [eax]
  00025	ff 45 fc	 inc	 DWORD PTR ___n$104296[ebp]
$L104538:
  00028	3b c2		 cmp	 eax, edx
  0002a	75 f7		 jne	 SHORT $L104298
  0002c	8b 51 2c	 mov	 edx, DWORD PTR [ecx+44]
  0002f	8b 02		 mov	 eax, DWORD PTR [edx]
  00031	33 ff		 xor	 edi, edi
  00033	eb 03		 jmp	 SHORT $L104539
$L104410:
  00035	8b 00		 mov	 eax, DWORD PTR [eax]
  00037	47		 inc	 edi
$L104539:
  00038	3b c2		 cmp	 eax, edx
  0003a	75 f9		 jne	 SHORT $L104410
  0003c	8b 51 34	 mov	 edx, DWORD PTR [ecx+52]
  0003f	8b 02		 mov	 eax, DWORD PTR [edx]
  00041	eb 03		 jmp	 SHORT $L104540
$L104514:
  00043	8b 00		 mov	 eax, DWORD PTR [eax]
  00045	46		 inc	 esi
$L104540:
  00046	3b c2		 cmp	 eax, edx
  00048	75 f9		 jne	 SHORT $L104514
  0004a	0f b6 41 24	 movzx	 eax, BYTE PTR [ecx+36]
  0004e	8d 0c 38	 lea	 ecx, DWORD PTR [eax+edi]
  00051	8d 04 c1	 lea	 eax, DWORD PTR [ecx+eax*8]
  00054	8d 04 70	 lea	 eax, DWORD PTR [eax+esi*2]
  00057	03 45 fc	 add	 eax, DWORD PTR ___n$104296[ebp]
  0005a	5f		 pop	 edi
  0005b	5e		 pop	 esi
  0005c	8d 44 18 1d	 lea	 eax, DWORD PTR [eax+ebx+29]
  00060	5b		 pop	 ebx

; 179  : 	}

  00061	c9		 leave
  00062	c3		 ret	 0
?getSize@PCItemInfo@@QBEIXZ ENDP			; PCItemInfo::getSize
_TEXT	ENDS
PUBLIC	?getSize@InventorySlotInfo@@QAEIXZ		; InventorySlotInfo::getSize
; Function compile flags: /Ogsy
; File c:\darkeden\designed_common\project\client\packet\inventoryslotinfo.h
;	COMDAT ?getSize@InventorySlotInfo@@QAEIXZ
_TEXT	SEGMENT
?getSize@InventorySlotInfo@@QAEIXZ PROC NEAR		; InventorySlotInfo::getSize, COMDAT
; _this$ = ecx

; 28   : 		return PCItemInfo::getSize() + szCoordInven * 2;

  00000	e8 00 00 00 00	 call	 ?getSize@PCItemInfo@@QBEIXZ ; PCItemInfo::getSize
  00005	40		 inc	 eax
  00006	40		 inc	 eax

; 29   : 	}

  00007	c3		 ret	 0
?getSize@InventorySlotInfo@@QAEIXZ ENDP			; InventorySlotInfo::getSize
_TEXT	ENDS
PUBLIC	?read@InventoryInfo@@QAEXAAVSocketInputStream@@@Z ; InventoryInfo::read
EXTRN	?read@InventorySlotInfo@@QAEXAAVSocketInputStream@@@Z:NEAR ; InventorySlotInfo::read
; Function compile flags: /Ogsy
; File c:\darkeden\designed_common\project\client\packet\inventoryinfo.cpp
;	COMDAT ?read@InventoryInfo@@QAEXAAVSocketInputStream@@@Z
_TEXT	SEGMENT
_i$101894 = -4						; size = 4
_pInventorySlotInfo$101898 = 8				; size = 4
_iStream$ = 8						; size = 4
?read@InventoryInfo@@QAEXAAVSocketInputStream@@@Z PROC NEAR ; InventoryInfo::read, COMDAT
; _this$ = ecx

; 55   : {

  00000	55		 push	 ebp
  00001	8b ec		 mov	 ebp, esp
  00003	51		 push	 ecx
  00004	53		 push	 ebx

; 56   : 	__BEGIN_TRY
; 57   : 		
; 58   : 	iStream.read( m_Width );

  00005	8b 5d 08	 mov	 ebx, DWORD PTR _iStream$[ebp]
  00008	56		 push	 esi
  00009	57		 push	 edi
  0000a	8b f1		 mov	 esi, ecx
  0000c	6a 01		 push	 1
  0000e	56		 push	 esi
  0000f	8b cb		 mov	 ecx, ebx
  00011	e8 00 00 00 00	 call	 ?read@SocketInputStream@@QAEIPADI@Z ; SocketInputStream::read

; 59   : 	iStream.read( m_Height );

  00016	6a 01		 push	 1
  00018	8d 46 01	 lea	 eax, DWORD PTR [esi+1]
  0001b	50		 push	 eax
  0001c	8b cb		 mov	 ecx, ebx
  0001e	e8 00 00 00 00	 call	 ?read@SocketInputStream@@QAEIPADI@Z ; SocketInputStream::read

; 60   : 	//      .
; 61   : 	iStream.read( m_ListNum );

  00023	6a 01		 push	 1
  00025	8d 7e 02	 lea	 edi, DWORD PTR [esi+2]
  00028	57		 push	 edi
  00029	8b cb		 mov	 ecx, ebx
  0002b	e8 00 00 00 00	 call	 ?read@SocketInputStream@@QAEIPADI@Z ; SocketInputStream::read

; 62   : 
; 63   : 	for( int i = 0; i < m_ListNum; i++ ) {

  00030	83 65 fc 00	 and	 DWORD PTR _i$101894[ebp], 0
  00034	80 3f 00	 cmp	 BYTE PTR [edi], 0
  00037	76 3e		 jbe	 SHORT $L101897
  00039	83 c6 04	 add	 esi, 4
$L101895:

; 64   : 		InventorySlotInfo * pInventorySlotInfo = new InventorySlotInfo();

  0003c	6a 3c		 push	 60			; 0000003cH
  0003e	e8 00 00 00 00	 call	 ??2@YAPAXI@Z		; operator new
  00043	85 c0		 test	 eax, eax
  00045	59		 pop	 ecx
  00046	74 0c		 je	 SHORT $L104547
  00048	8b c8		 mov	 ecx, eax
  0004a	e8 00 00 00 00	 call	 ??0InventorySlotInfo@@QAE@XZ
  0004f	89 45 08	 mov	 DWORD PTR _pInventorySlotInfo$101898[ebp], eax
  00052	eb 04		 jmp	 SHORT $L104548
$L104547:
  00054	83 65 08 00	 and	 DWORD PTR _pInventorySlotInfo$101898[ebp], 0
$L104548:

; 65   : 		pInventorySlotInfo->read( iStream );

  00058	8b 4d 08	 mov	 ecx, DWORD PTR _pInventorySlotInfo$101898[ebp]
  0005b	53		 push	 ebx
  0005c	e8 00 00 00 00	 call	 ?read@InventorySlotInfo@@QAEXAAVSocketInputStream@@@Z ; InventorySlotInfo::read

; 66   : 		m_InventorySlotInfoList.push_back( pInventorySlotInfo );

  00061	8d 45 08	 lea	 eax, DWORD PTR _pInventorySlotInfo$101898[ebp]
  00064	50		 push	 eax
  00065	8b ce		 mov	 ecx, esi
  00067	e8 00 00 00 00	 call	 ?push_back@?$list@PAVInventorySlotInfo@@V?$allocator@PAVInventorySlotInfo@@@_STL@@@_STL@@QAEXABQAVInventorySlotInfo@@@Z ; _STL::list<InventorySlotInfo *,_STL::allocator<InventorySlotInfo *> >::push_back
  0006c	0f b6 07	 movzx	 eax, BYTE PTR [edi]
  0006f	ff 45 fc	 inc	 DWORD PTR _i$101894[ebp]
  00072	39 45 fc	 cmp	 DWORD PTR _i$101894[ebp], eax
  00075	7c c5		 jl	 SHORT $L101895
$L101897:
  00077	5f		 pop	 edi
  00078	5e		 pop	 esi
  00079	5b		 pop	 ebx

; 67   : 
; 68   : 	}
; 69   : 
; 70   : 	__END_CATCH
; 71   : }

  0007a	c9		 leave
  0007b	c2 04 00	 ret	 4
?read@InventoryInfo@@QAEXAAVSocketInputStream@@@Z ENDP	; InventoryInfo::read
_TEXT	ENDS
PUBLIC	?getSize@InventoryInfo@@QAEIXZ			; InventoryInfo::getSize
; Function compile flags: /Ogsy
;	COMDAT ?getSize@InventoryInfo@@QAEIXZ
_TEXT	SEGMENT
?getSize@InventoryInfo@@QAEIXZ PROC NEAR		; InventoryInfo::getSize, COMDAT
; _this$ = ecx

; 100  : {

  00000	53		 push	 ebx
  00001	56		 push	 esi
  00002	57		 push	 edi

; 101  : 
; 102  : 	PacketSize_t PacketSize = szBYTE;
; 103  : 
; 104  : 	for ( std::list< InventorySlotInfo* >::const_iterator itr = m_InventorySlotInfoList.begin() ; itr != m_InventorySlotInfoList.end() ; itr ++ ) {

  00003	8b 79 04	 mov	 edi, DWORD PTR [ecx+4]
  00006	8b 37		 mov	 esi, DWORD PTR [edi]
  00008	33 db		 xor	 ebx, ebx
  0000a	43		 inc	 ebx
  0000b	eb 0e		 jmp	 SHORT $L104625
$L104596:

; 105  : 
; 106  : 		PacketSize += (*itr)->getSize();

  0000d	8b 4e 08	 mov	 ecx, DWORD PTR [esi+8]
  00010	e8 00 00 00 00	 call	 ?getSize@PCItemInfo@@QBEIXZ ; PCItemInfo::getSize
  00015	8b 36		 mov	 esi, DWORD PTR [esi]
  00017	8d 5c 03 02	 lea	 ebx, DWORD PTR [ebx+eax+2]
$L104625:

; 101  : 
; 102  : 	PacketSize_t PacketSize = szBYTE;
; 103  : 
; 104  : 	for ( std::list< InventorySlotInfo* >::const_iterator itr = m_InventorySlotInfoList.begin() ; itr != m_InventorySlotInfoList.end() ; itr ++ ) {

  0001b	3b f7		 cmp	 esi, edi
  0001d	75 ee		 jne	 SHORT $L104596
  0001f	5f		 pop	 edi
  00020	5e		 pop	 esi

; 107  : 
; 108  : 	}
; 109  : 
; 110  : 	return PacketSize;

  00021	8b c3		 mov	 eax, ebx
  00023	5b		 pop	 ebx

; 111  : 
; 112  : }

  00024	c3		 ret	 0
?getSize@InventoryInfo@@QAEIXZ ENDP			; InventoryInfo::getSize
_TEXT	ENDS
END
