; Listing generated by Microsoft (R) Optimizing Compiler Version 13.10.3077 

	TITLE	\darkeden\Designed_Common\Project\Client\MCreatureTable.cpp
	.386P
include listing.inc
if @Version gt 510
.model FLAT
else
_TEXT	SEGMENT PARA USE32 PUBLIC 'CODE'
_TEXT	ENDS
_DATA	SEGMENT DWORD USE32 PUBLIC 'DATA'
_DATA	ENDS
CONST	SEGMENT DWORD USE32 PUBLIC 'CONST'
CONST	ENDS
_BSS	SEGMENT DWORD USE32 PUBLIC 'BSS'
_BSS	ENDS
$$SYMBOLS	SEGMENT BYTE USE32 'DEBSYM'
$$SYMBOLS	ENDS
$$TYPES	SEGMENT BYTE USE32 'DEBTYP'
$$TYPES	ENDS
_TLS	SEGMENT DWORD USE32 PUBLIC 'TLS'
_TLS	ENDS
;	COMDAT ??_C@_0BN@ODLNCKCA@Data?2?2Info?2?2ClientConfig?4inf?$AA@
CONST	SEGMENT DWORD USE32 PUBLIC 'CONST'
CONST	ENDS
;	COMDAT ??_C@_0BM@DFPLPGPC@Data?2?2Info?2?2GuildMapper?4inf?$AA@
CONST	SEGMENT DWORD USE32 PUBLIC 'CONST'
CONST	ENDS
;	COMDAT ??_C@_0BN@LHODHNBK@Data?2?2Info?2?2GuildVersion?4inf?$AA@
CONST	SEGMENT DWORD USE32 PUBLIC 'CONST'
CONST	ENDS
;	COMDAT ??_C@_0BH@DDPLNCOL@Data?2?2Info?2?2Player?4inf?$AA@
CONST	SEGMENT DWORD USE32 PUBLIC 'CONST'
CONST	ENDS
;	COMDAT ??_C@_0BL@ILLNAPHB@Data?2?2Info?2?2Resolution?4inf?$AA@
CONST	SEGMENT DWORD USE32 PUBLIC 'CONST'
CONST	ENDS
;	COMDAT ??_C@_0CA@HEIGFDLG@Data?2?2Info?2?2SelectedChannel?4inf?$AA@
CONST	SEGMENT DWORD USE32 PUBLIC 'CONST'
CONST	ENDS
;	COMDAT ??_C@_0O@JKENFCBN@MinTrace?52003?$AA@
CONST	SEGMENT DWORD USE32 PUBLIC 'CONST'
CONST	ENDS
;	COMDAT ??_C@_0BE@MNEJIGLM@__MinTrace?5Window__?$AA@
CONST	SEGMENT DWORD USE32 PUBLIC 'CONST'
CONST	ENDS
;	COMDAT ??_C@_06KLPNNMEP@?$CF8d?0?$CFs?$AA@
CONST	SEGMENT DWORD USE32 PUBLIC 'CONST'
CONST	ENDS
;	COMDAT ??_C@_06OJHGLDPL@?$CInull?$CJ?$AA@
CONST	SEGMENT DWORD USE32 PUBLIC 'CONST'
CONST	ENDS
;	COMDAT ??_C@_01IHBHIGKO@?0?$AA@
CONST	SEGMENT DWORD USE32 PUBLIC 'CONST'
CONST	ENDS
;	COMDAT ??_C@_0N@GOPDCEEB@basic_string?$AA@
CONST	SEGMENT DWORD USE32 PUBLIC 'CONST'
CONST	ENDS
rdata$r	SEGMENT DWORD USE32 PUBLIC 'CONST'
rdata$r	ENDS
text$yc	SEGMENT PARA USE32 PUBLIC 'CODE'
text$yc	ENDS
CRT$XCA	SEGMENT DWORD USE32 PUBLIC 'DATA'
CRT$XCA	ENDS
CRT$XCU	SEGMENT DWORD USE32 PUBLIC 'DATA'
CRT$XCU	ENDS
CRT$XCL	SEGMENT DWORD USE32 PUBLIC 'DATA'
CRT$XCL	ENDS
CRT$XCC	SEGMENT DWORD USE32 PUBLIC 'DATA'
CRT$XCC	ENDS
CRT$XCZ	SEGMENT DWORD USE32 PUBLIC 'DATA'
CRT$XCZ	ENDS
text$yd	SEGMENT PARA USE32 PUBLIC 'CODE'
text$yd	ENDS
;	COMDAT ?start@CNFS@@QAE_NPADH@Z
_TEXT	SEGMENT PARA USE32 PUBLIC 'CODE'
_TEXT	ENDS
;	COMDAT ?end@CNFS@@QAEXXZ
_TEXT	SEGMENT PARA USE32 PUBLIC 'CODE'
_TEXT	ENDS
;	COMDAT ?Init@VirtualFileHeader@@QAEXXZ
_TEXT	SEGMENT PARA USE32 PUBLIC 'CODE'
_TEXT	ENDS
;	COMDAT ??1IFileIO@@UAE@XZ
_TEXT	SEGMENT PARA USE32 PUBLIC 'CODE'
_TEXT	ENDS
;	COMDAT ??_GIFileIO@@UAEPAXI@Z
_TEXT	SEGMENT PARA USE32 PUBLIC 'CODE'
_TEXT	ENDS
;	COMDAT ??0iovfs_base@@QAE@XZ
_TEXT	SEGMENT PARA USE32 PUBLIC 'CODE'
_TEXT	ENDS
;	COMDAT ??_Giovfs_base@@UAEPAXI@Z
_TEXT	SEGMENT PARA USE32 PUBLIC 'CODE'
_TEXT	ENDS
;	COMDAT ??1iovfs_base@@UAE@XZ
_TEXT	SEGMENT PARA USE32 PUBLIC 'CODE'
_TEXT	ENDS
;	COMDAT ?Init@iovfs_base@@QAEXXZ
_TEXT	SEGMENT PARA USE32 PUBLIC 'CODE'
_TEXT	ENDS
;	COMDAT ??_Givfstream@@UAEPAXI@Z
_TEXT	SEGMENT PARA USE32 PUBLIC 'CODE'
_TEXT	ENDS
;	COMDAT ??1ivfstream@@UAE@XZ
_TEXT	SEGMENT PARA USE32 PUBLIC 'CODE'
_TEXT	ENDS
;	COMDAT ?open@ivfstream@@UAEXPBDH@Z
_TEXT	SEGMENT PARA USE32 PUBLIC 'CODE'
_TEXT	ENDS
;	COMDAT ?read@ivfstream@@QAEXPADI@Z
_TEXT	SEGMENT PARA USE32 PUBLIC 'CODE'
_TEXT	ENDS
;	COMDAT ??_Govfstream@@UAEPAXI@Z
_TEXT	SEGMENT PARA USE32 PUBLIC 'CODE'
_TEXT	ENDS
;	COMDAT ??1ovfstream@@UAE@XZ
_TEXT	SEGMENT PARA USE32 PUBLIC 'CODE'
_TEXT	ENDS
;	COMDAT ?open@ovfstream@@UAEXPBDH@Z
_TEXT	SEGMENT PARA USE32 PUBLIC 'CODE'
_TEXT	ENDS
;	COMDAT ?GetLength@MString@@QBEIXZ
_TEXT	SEGMENT PARA USE32 PUBLIC 'CODE'
_TEXT	ENDS
;	COMDAT ?GetString@MString@@QBEPADXZ
_TEXT	SEGMENT PARA USE32 PUBLIC 'CODE'
_TEXT	ENDS
;	COMDAT ?_MinTraceA@@YAXPBD@Z
_TEXT	SEGMENT PARA USE32 PUBLIC 'CODE'
_TEXT	ENDS
;	COMDAT ?_MinTraceErrA@@YAXPBD@Z
_TEXT	SEGMENT PARA USE32 PUBLIC 'CODE'
_TEXT	ENDS
;	COMDAT ?_MinTraceWarA@@YAXPBD@Z
_TEXT	SEGMENT PARA USE32 PUBLIC 'CODE'
_TEXT	ENDS
;	COMDAT ?_ClMinTraceA@@YAXKPBD@Z
_TEXT	SEGMENT PARA USE32 PUBLIC 'CODE'
_TEXT	ENDS
;	COMDAT ?_CmdMinTraceA@@YAXHPBD@Z
_TEXT	SEGMENT PARA USE32 PUBLIC 'CODE'
_TEXT	ENDS
;	COMDAT ??0ITEM_WEARINFO@@QAE@XZ
_TEXT	SEGMENT PARA USE32 PUBLIC 'CODE'
_TEXT	ENDS
;	COMDAT ??4ITEM_WEARINFO@@QAEXABV0@@Z
_TEXT	SEGMENT PARA USE32 PUBLIC 'CODE'
_TEXT	ENDS
;	COMDAT ?SaveToFile@ITEM_WEARINFO@@QAEXAAV?$basic_ofstream@DV?$char_traits@D@_STL@@@_STL@@@Z
_TEXT	SEGMENT PARA USE32 PUBLIC 'CODE'
_TEXT	ENDS
;	COMDAT ?LoadFromFile@ITEM_WEARINFO@@QAEXAAVivfstream@@@Z
_TEXT	SEGMENT PARA USE32 PUBLIC 'CODE'
_TEXT	ENDS
;	COMDAT ??0CREATURETABLE_INFO@@QAE@XZ
_TEXT	SEGMENT PARA USE32 PUBLIC 'CODE'
_TEXT	ENDS
;	COMDAT ??1CREATURETABLE_INFO@@QAE@XZ
_TEXT	SEGMENT PARA USE32 PUBLIC 'CODE'
_TEXT	ENDS
;	COMDAT ?SetCreatureTribe@CREATURETABLE_INFO@@QAEXW4CREATURETRIBE@@H@Z
_TEXT	SEGMENT PARA USE32 PUBLIC 'CODE'
_TEXT	ENDS
;	COMDAT ?InitActionType@CREATURETABLE_INFO@@IAEXH@Z
_TEXT	SEGMENT PARA USE32 PUBLIC 'CODE'
_TEXT	ENDS
;	COMDAT ?GetActionMax@CREATURETABLE_INFO@@QBEHXZ
_TEXT	SEGMENT PARA USE32 PUBLIC 'CODE'
_TEXT	ENDS
;	COMDAT ?SaveToFile@CREATURETABLE_INFO@@QAEXAAV?$basic_ofstream@DV?$char_traits@D@_STL@@@_STL@@@Z
_TEXT	SEGMENT PARA USE32 PUBLIC 'CODE'
_TEXT	ENDS
;	COMDAT ?LoadFromFile@CREATURETABLE_INFO@@QAEXAAVivfstream@@@Z
_TEXT	SEGMENT PARA USE32 PUBLIC 'CODE'
_TEXT	ENDS
;	COMDAT ??4CREATURETABLE_INFO@@QAEXABV0@@Z
_TEXT	SEGMENT PARA USE32 PUBLIC 'CODE'
_TEXT	ENDS
;	COMDAT ?SaveToCSVFile@CREATURETABLE_INFO@@QAEXAAV?$basic_ofstream@DV?$char_traits@D@_STL@@@_STL@@I@Z
_TEXT	SEGMENT PARA USE32 PUBLIC 'CODE'
_TEXT	ENDS
;	COMDAT ??0CreatureSpriteTypeMapper@@QAE@XZ
_TEXT	SEGMENT PARA USE32 PUBLIC 'CODE'
_TEXT	ENDS
;	COMDAT ??1CreatureSpriteTypeMapper@@QAE@XZ
_TEXT	SEGMENT PARA USE32 PUBLIC 'CODE'
_TEXT	ENDS
;	COMDAT ?Init@CreatureSpriteTypeMapper@@QAEXH@Z
_TEXT	SEGMENT PARA USE32 PUBLIC 'CODE'
_TEXT	ENDS
;	COMDAT ?Release@CreatureSpriteTypeMapper@@QAEXXZ
_TEXT	SEGMENT PARA USE32 PUBLIC 'CODE'
_TEXT	ENDS
;	COMDAT ??_G?$vector@GV?$allocator@G@_STL@@@_STL@@QAEPAXI@Z
_TEXT	SEGMENT PARA USE32 PUBLIC 'CODE'
_TEXT	ENDS
;	COMDAT ?AddCreatureType@CreatureSpriteTypeMapper@@QAEXGG@Z
_TEXT	SEGMENT PARA USE32 PUBLIC 'CODE'
_TEXT	ENDS
;	COMDAT ?GetRandomCreatureType@CreatureSpriteTypeMapper@@QBEHG@Z
_TEXT	SEGMENT PARA USE32 PUBLIC 'CODE'
_TEXT	ENDS
;	COMDAT ?SaveToFile@CreatureSpriteTypeMapper@@QAEXAAV?$basic_ofstream@DV?$char_traits@D@_STL@@@_STL@@@Z
_TEXT	SEGMENT PARA USE32 PUBLIC 'CODE'
_TEXT	ENDS
;	COMDAT ?LoadFromFile@CreatureSpriteTypeMapper@@QAEXAAVivfstream@@@Z
_TEXT	SEGMENT PARA USE32 PUBLIC 'CODE'
_TEXT	ENDS
;	COMDAT ?SaveStringToCSVFile@CREATURETABLE_INFO@@QAEXAAV?$basic_ofstream@DV?$char_traits@D@_STL@@@_STL@@ABVMString@@@Z
_TEXT	SEGMENT PARA USE32 PUBLIC 'CODE'
_TEXT	ENDS
;	COMDAT ?SaveNumberToCSVFile@CREATURETABLE_INFO@@QAEXAAV?$basic_ofstream@DV?$char_traits@D@_STL@@@_STL@@HH@Z
_TEXT	SEGMENT PARA USE32 PUBLIC 'CODE'
_TEXT	ENDS
;	COMDAT ?eq@?$__char_traits_base@DH@_STL@@SA_NABD0@Z
_TEXT	SEGMENT PARA USE32 PUBLIC 'CODE'
_TEXT	ENDS
;	COMDAT ?not_eof@?$__char_traits_base@DH@_STL@@SAHABH@Z
_TEXT	SEGMENT PARA USE32 PUBLIC 'CODE'
_TEXT	ENDS
;	COMDAT ?eq_int_type@?$__char_traits_base@DH@_STL@@SA_NABH0@Z
_TEXT	SEGMENT PARA USE32 PUBLIC 'CODE'
_TEXT	ENDS
;	COMDAT ?get_allocator@?$basic_string@DV?$char_traits@D@_STL@@V?$allocator@D@2@@_STL@@QBE?AV?$allocator@D@2@XZ
_TEXT	SEGMENT PARA USE32 PUBLIC 'CODE'
_TEXT	ENDS
;	COMDAT ??4?$basic_string@DV?$char_traits@D@_STL@@V?$allocator@D@2@@_STL@@QAEAAV01@PBD@Z
_TEXT	SEGMENT PARA USE32 PUBLIC 'CODE'
_TEXT	ENDS
;	COMDAT ?_M_terminate_string@?$basic_string@DV?$char_traits@D@_STL@@V?$allocator@D@2@@_STL@@AAEXXZ
_TEXT	SEGMENT PARA USE32 PUBLIC 'CODE'
_TEXT	ENDS
;	COMDAT ??0?$_String_base@DV?$allocator@D@_STL@@@_STL@@QAE@ABV?$allocator@D@1@@Z
_TEXT	SEGMENT PARA USE32 PUBLIC 'CODE'
_TEXT	ENDS
;	COMDAT ?allocate@?$allocator@D@_STL@@QAEPADIPBX@Z
_TEXT	SEGMENT PARA USE32 PUBLIC 'CODE'
_TEXT	ENDS
;	COMDAT ??0?$allocator@G@_STL@@QAE@XZ
_TEXT	SEGMENT PARA USE32 PUBLIC 'CODE'
_TEXT	ENDS
;	COMDAT ??0?$fpos@H@_STL@@QAE@J@Z
_TEXT	SEGMENT PARA USE32 PUBLIC 'CODE'
_TEXT	ENDS
;	COMDAT ??B?$fpos@H@_STL@@QBEJXZ
_TEXT	SEGMENT PARA USE32 PUBLIC 'CODE'
_TEXT	ENDS
;	COMDAT ?state@?$fpos@H@_STL@@QBEHXZ
_TEXT	SEGMENT PARA USE32 PUBLIC 'CODE'
_TEXT	ENDS
;	COMDAT ??6?$basic_ostream@DV?$char_traits@D@_STL@@@_STL@@QAEAAV01@H@Z
_TEXT	SEGMENT PARA USE32 PUBLIC 'CODE'
_TEXT	ENDS
;	COMDAT ?is_open@?$basic_filebuf@DV?$char_traits@D@_STL@@@_STL@@QBE_NXZ
_TEXT	SEGMENT PARA USE32 PUBLIC 'CODE'
_TEXT	ENDS
;	COMDAT ?_M_seek_return@?$basic_filebuf@DV?$char_traits@D@_STL@@@_STL@@AAE?AV?$fpos@H@2@JH@Z
_TEXT	SEGMENT PARA USE32 PUBLIC 'CODE'
_TEXT	ENDS
;	COMDAT ??0?$_Filebuf_Tmp_Buf@D@_STL@@QAE@H@Z
_TEXT	SEGMENT PARA USE32 PUBLIC 'CODE'
_TEXT	ENDS
;	COMDAT ??1?$_Filebuf_Tmp_Buf@D@_STL@@QAE@XZ
_TEXT	SEGMENT PARA USE32 PUBLIC 'CODE'
_TEXT	ENDS
;	COMDAT ?GetSize@?$CTypeTable@H@@QBEHXZ
_TEXT	SEGMENT PARA USE32 PUBLIC 'CODE'
_TEXT	ENDS
;	COMDAT ??A?$CTypeTable@H@@QBEABHH@Z
_TEXT	SEGMENT PARA USE32 PUBLIC 'CODE'
_TEXT	ENDS
;	COMDAT ??A?$CTypeTable@H@@QAEAAHH@Z
_TEXT	SEGMENT PARA USE32 PUBLIC 'CODE'
_TEXT	ENDS
;	COMDAT ?capacity@?$vector@PAV?$vector@GV?$allocator@G@_STL@@@_STL@@V?$allocator@PAV?$vector@GV?$allocator@G@_STL@@@_STL@@@2@@_STL@@QBEIXZ
_TEXT	SEGMENT PARA USE32 PUBLIC 'CODE'
_TEXT	ENDS
;	COMDAT ??A?$vector@PAV?$vector@GV?$allocator@G@_STL@@@_STL@@V?$allocator@PAV?$vector@GV?$allocator@G@_STL@@@_STL@@@2@@_STL@@QAEAAPAV?$vector@GV?$allocator@G@_STL@@@1@I@Z
_TEXT	SEGMENT PARA USE32 PUBLIC 'CODE'
_TEXT	ENDS
;	COMDAT ??A?$vector@PAV?$vector@GV?$allocator@G@_STL@@@_STL@@V?$allocator@PAV?$vector@GV?$allocator@G@_STL@@@_STL@@@2@@_STL@@QBEABQAV?$vector@GV?$allocator@G@_STL@@@1@I@Z
_TEXT	SEGMENT PARA USE32 PUBLIC 'CODE'
_TEXT	ENDS
;	COMDAT ??0?$vector@PAV?$vector@GV?$allocator@G@_STL@@@_STL@@V?$allocator@PAV?$vector@GV?$allocator@G@_STL@@@_STL@@@2@@_STL@@QAE@ABV?$allocator@PAV?$vector@GV?$allocator@G@_STL@@@_STL@@@1@@Z
_TEXT	SEGMENT PARA USE32 PUBLIC 'CODE'
_TEXT	ENDS
;	COMDAT ??1?$vector@PAV?$vector@GV?$allocator@G@_STL@@@_STL@@V?$allocator@PAV?$vector@GV?$allocator@G@_STL@@@_STL@@@2@@_STL@@QAE@XZ
_TEXT	SEGMENT PARA USE32 PUBLIC 'CODE'
_TEXT	ENDS
;	COMDAT ??0?$allocator@PAV?$vector@GV?$allocator@G@_STL@@@_STL@@@_STL@@QAE@XZ
_TEXT	SEGMENT PARA USE32 PUBLIC 'CODE'
_TEXT	ENDS
;	COMDAT ??1?$allocator@PAV?$vector@GV?$allocator@G@_STL@@@_STL@@@_STL@@QAE@XZ
_TEXT	SEGMENT PARA USE32 PUBLIC 'CODE'
_TEXT	ENDS
;	COMDAT ??1?$basic_ofstream@DV?$char_traits@D@_STL@@@_STL@@UAE@XZ
_TEXT	SEGMENT PARA USE32 PUBLIC 'CODE'
_TEXT	ENDS
;	COMDAT ?size@?$vector@GV?$allocator@G@_STL@@@_STL@@QBEIXZ
_TEXT	SEGMENT PARA USE32 PUBLIC 'CODE'
_TEXT	ENDS
;	COMDAT ?capacity@?$vector@GV?$allocator@G@_STL@@@_STL@@QBEIXZ
_TEXT	SEGMENT PARA USE32 PUBLIC 'CODE'
_TEXT	ENDS
;	COMDAT ??A?$vector@GV?$allocator@G@_STL@@@_STL@@QAEAAGI@Z
_TEXT	SEGMENT PARA USE32 PUBLIC 'CODE'
_TEXT	ENDS
;	COMDAT ??A?$vector@GV?$allocator@G@_STL@@@_STL@@QBEABGI@Z
_TEXT	SEGMENT PARA USE32 PUBLIC 'CODE'
_TEXT	ENDS
;	COMDAT ??0?$vector@GV?$allocator@G@_STL@@@_STL@@QAE@ABV?$allocator@G@1@@Z
_TEXT	SEGMENT PARA USE32 PUBLIC 'CODE'
_TEXT	ENDS
;	COMDAT ??1?$vector@GV?$allocator@G@_STL@@@_STL@@QAE@XZ
_TEXT	SEGMENT PARA USE32 PUBLIC 'CODE'
_TEXT	ENDS
;	COMDAT ?push_back@?$vector@GV?$allocator@G@_STL@@@_STL@@QAEXABG@Z
_TEXT	SEGMENT PARA USE32 PUBLIC 'CODE'
_TEXT	ENDS
;	COMDAT ??_G?$basic_ofstream@DV?$char_traits@D@_STL@@@_STL@@UAEPAXI@Z
_TEXT	SEGMENT PARA USE32 PUBLIC 'CODE'
_TEXT	ENDS
;	COMDAT ??_D?$basic_ofstream@DV?$char_traits@D@_STL@@@_STL@@QAEXXZ
_TEXT	SEGMENT PARA USE32 PUBLIC 'CODE'
_TEXT	ENDS
;	COMDAT ?_M_terminate_string_aux@?$basic_string@DV?$char_traits@D@_STL@@V?$allocator@D@2@@_STL@@AAEXABU__true_type@2@@Z
_TEXT	SEGMENT PARA USE32 PUBLIC 'CODE'
_TEXT	ENDS
;	COMDAT ?assign@?$basic_string@DV?$char_traits@D@_STL@@V?$allocator@D@2@@_STL@@QAEAAV12@PBD0@Z
_TEXT	SEGMENT PARA USE32 PUBLIC 'CODE'
_TEXT	ENDS
;	COMDAT ??0?$allocator@D@_STL@@QAE@ABV01@@Z
_TEXT	SEGMENT PARA USE32 PUBLIC 'CODE'
_TEXT	ENDS
;	COMDAT ??0?$_STLP_alloc_proxy@PADDV?$allocator@D@_STL@@@_STL@@QAE@ABV?$allocator@D@1@PAD@Z
_TEXT	SEGMENT PARA USE32 PUBLIC 'CODE'
_TEXT	ENDS
;	COMDAT ?state@?$fpos@H@_STL@@QAEXH@Z
_TEXT	SEGMENT PARA USE32 PUBLIC 'CODE'
_TEXT	ENDS
;	COMDAT ?begin@?$vector@PAV?$vector@GV?$allocator@G@_STL@@@_STL@@V?$allocator@PAV?$vector@GV?$allocator@G@_STL@@@_STL@@@2@@_STL@@QAEPAPAV?$vector@GV?$allocator@G@_STL@@@2@XZ
_TEXT	SEGMENT PARA USE32 PUBLIC 'CODE'
_TEXT	ENDS
;	COMDAT ?begin@?$vector@PAV?$vector@GV?$allocator@G@_STL@@@_STL@@V?$allocator@PAV?$vector@GV?$allocator@G@_STL@@@_STL@@@2@@_STL@@QBEPBQAV?$vector@GV?$allocator@G@_STL@@@2@XZ
_TEXT	SEGMENT PARA USE32 PUBLIC 'CODE'
_TEXT	ENDS
;	COMDAT ??0?$_Vector_base@PAV?$vector@GV?$allocator@G@_STL@@@_STL@@V?$allocator@PAV?$vector@GV?$allocator@G@_STL@@@_STL@@@2@@_STL@@QAE@ABV?$allocator@PAV?$vector@GV?$allocator@G@_STL@@@_STL@@@1@@Z
_TEXT	SEGMENT PARA USE32 PUBLIC 'CODE'
_TEXT	ENDS
;	COMDAT ??1?$_Vector_base@PAV?$vector@GV?$allocator@G@_STL@@@_STL@@V?$allocator@PAV?$vector@GV?$allocator@G@_STL@@@_STL@@@2@@_STL@@QAE@XZ
_TEXT	SEGMENT PARA USE32 PUBLIC 'CODE'
_TEXT	ENDS
;	COMDAT ?_M_insert_overflow@?$vector@GV?$allocator@G@_STL@@@_STL@@IAEXPAGABGABU__true_type@2@I_N@Z
_TEXT	SEGMENT PARA USE32 PUBLIC 'CODE'
_TEXT	ENDS
;	COMDAT ?begin@?$vector@GV?$allocator@G@_STL@@@_STL@@QAEPAGXZ
_TEXT	SEGMENT PARA USE32 PUBLIC 'CODE'
_TEXT	ENDS
;	COMDAT ?begin@?$vector@GV?$allocator@G@_STL@@@_STL@@QBEPBGXZ
_TEXT	SEGMENT PARA USE32 PUBLIC 'CODE'
_TEXT	ENDS
;	COMDAT ??0?$_Vector_base@GV?$allocator@G@_STL@@@_STL@@QAE@ABV?$allocator@G@1@@Z
_TEXT	SEGMENT PARA USE32 PUBLIC 'CODE'
_TEXT	ENDS
;	COMDAT ??1?$_Vector_base@GV?$allocator@G@_STL@@@_STL@@QAE@XZ
_TEXT	SEGMENT PARA USE32 PUBLIC 'CODE'
_TEXT	ENDS
;	COMDAT ??1?$_STLP_alloc_proxy@PAPAV?$vector@GV?$allocator@G@_STL@@@_STL@@PAV12@V?$allocator@PAV?$vector@GV?$allocator@G@_STL@@@_STL@@@2@@_STL@@QAE@XZ
_TEXT	SEGMENT PARA USE32 PUBLIC 'CODE'
_TEXT	ENDS
;	COMDAT ?copy@?$__char_traits_base@DH@_STL@@SAPADPADPBDI@Z
_TEXT	SEGMENT PARA USE32 PUBLIC 'CODE'
_TEXT	ENDS
;	COMDAT ?begin@?$basic_string@DV?$char_traits@D@_STL@@V?$allocator@D@2@@_STL@@QAEPADXZ
_TEXT	SEGMENT PARA USE32 PUBLIC 'CODE'
_TEXT	ENDS
;	COMDAT ?end@?$basic_string@DV?$char_traits@D@_STL@@V?$allocator@D@2@@_STL@@QAEPADXZ
_TEXT	SEGMENT PARA USE32 PUBLIC 'CODE'
_TEXT	ENDS
;	COMDAT ?size@?$basic_string@DV?$char_traits@D@_STL@@V?$allocator@D@2@@_STL@@QBEIXZ
_TEXT	SEGMENT PARA USE32 PUBLIC 'CODE'
_TEXT	ENDS
;	COMDAT ?erase@?$basic_string@DV?$char_traits@D@_STL@@V?$allocator@D@2@@_STL@@QAEPADPAD0@Z
_TEXT	SEGMENT PARA USE32 PUBLIC 'CODE'
_TEXT	ENDS
;	COMDAT ?allocate@?$allocator@G@_STL@@QAEPAGIPBX@Z
_TEXT	SEGMENT PARA USE32 PUBLIC 'CODE'
_TEXT	ENDS
;	COMDAT ??0?$_STLP_alloc_proxy@PAGGV?$allocator@G@_STL@@@_STL@@QAE@ABV?$allocator@G@1@PAG@Z
_TEXT	SEGMENT PARA USE32 PUBLIC 'CODE'
_TEXT	ENDS
;	COMDAT ?deallocate@?$allocator@PAV?$vector@GV?$allocator@G@_STL@@@_STL@@@_STL@@QAEXPAPAV?$vector@GV?$allocator@G@_STL@@@2@I@Z
_TEXT	SEGMENT PARA USE32 PUBLIC 'CODE'
_TEXT	ENDS
;	COMDAT ??0?$_STLP_alloc_proxy@PAPAV?$vector@GV?$allocator@G@_STL@@@_STL@@PAV12@V?$allocator@PAV?$vector@GV?$allocator@G@_STL@@@_STL@@@2@@_STL@@QAE@ABV?$allocator@PAV?$vector@GV?$allocator@G@_STL@@@_STL@@@1@PAPAV?$vector@GV?$allocator@G@_STL@@@1@@Z
_TEXT	SEGMENT PARA USE32 PUBLIC 'CODE'
_TEXT	ENDS
;	COMDAT ?_M_clear@?$vector@GV?$allocator@G@_STL@@@_STL@@IAEXXZ
_TEXT	SEGMENT PARA USE32 PUBLIC 'CODE'
_TEXT	ENDS
;	COMDAT ?_M_set@?$vector@GV?$allocator@G@_STL@@@_STL@@IAEXPAG00@Z
_TEXT	SEGMENT PARA USE32 PUBLIC 'CODE'
_TEXT	ENDS
;	COMDAT ?move@?$__char_traits_base@DH@_STL@@SAPADPADPBDI@Z
_TEXT	SEGMENT PARA USE32 PUBLIC 'CODE'
_TEXT	ENDS
;	COMDAT ??0?$allocator@G@_STL@@QAE@ABV01@@Z
_TEXT	SEGMENT PARA USE32 PUBLIC 'CODE'
_TEXT	ENDS
;	COMDAT ??0?$allocator@PAV?$vector@GV?$allocator@G@_STL@@@_STL@@@_STL@@QAE@ABV01@@Z
_TEXT	SEGMENT PARA USE32 PUBLIC 'CODE'
_TEXT	ENDS
;	COMDAT ??$_M_range_initialize@PBD@?$basic_string@DV?$char_traits@D@_STL@@V?$allocator@D@2@@_STL@@AAEXPBD0@Z
_TEXT	SEGMENT PARA USE32 PUBLIC 'CODE'
_TEXT	ENDS
;	COMDAT ??$_M_range_initialize@PAD@?$basic_string@DV?$char_traits@D@_STL@@V?$allocator@D@2@@_STL@@AAEXPAD0@Z
_TEXT	SEGMENT PARA USE32 PUBLIC 'CODE'
_TEXT	ENDS
;	COMDAT ?write@?$basic_ostream@DV?$char_traits@D@_STL@@@_STL@@QAEAAV12@PBDH@Z
_TEXT	SEGMENT PARA USE32 PUBLIC 'CODE'
_TEXT	ENDS
;	COMDAT ?close@?$basic_filebuf@DV?$char_traits@D@_STL@@@_STL@@QAEPAV12@XZ
_TEXT	SEGMENT PARA USE32 PUBLIC 'CODE'
_TEXT	ENDS
;	COMDAT ?_M_exit_input_mode@?$basic_filebuf@DV?$char_traits@D@_STL@@@_STL@@AAEXXZ
_TEXT	SEGMENT PARA USE32 PUBLIC 'CODE'
_TEXT	ENDS
;	COMDAT ?_M_switch_to_output_mode@?$basic_filebuf@DV?$char_traits@D@_STL@@@_STL@@AAE_NXZ
_TEXT	SEGMENT PARA USE32 PUBLIC 'CODE'
_TEXT	ENDS
;	COMDAT ?_M_output_error@?$basic_filebuf@DV?$char_traits@D@_STL@@@_STL@@AAEHXZ
_TEXT	SEGMENT PARA USE32 PUBLIC 'CODE'
_TEXT	ENDS
;	COMDAT ?_M_allocate_buffers@?$basic_filebuf@DV?$char_traits@D@_STL@@@_STL@@AAE_NPADH@Z
_TEXT	SEGMENT PARA USE32 PUBLIC 'CODE'
_TEXT	ENDS
;	COMDAT ?_M_deallocate_buffers@?$basic_filebuf@DV?$char_traits@D@_STL@@@_STL@@AAEXXZ
_TEXT	SEGMENT PARA USE32 PUBLIC 'CODE'
_TEXT	ENDS
;	COMDAT ?_M_seek_init@?$basic_filebuf@DV?$char_traits@D@_STL@@@_STL@@AAE_N_N@Z
_TEXT	SEGMENT PARA USE32 PUBLIC 'CODE'
_TEXT	ENDS
;	COMDAT ?_M_setup_codecvt@?$basic_filebuf@DV?$char_traits@D@_STL@@@_STL@@AAEXABVlocale@2@@Z
_TEXT	SEGMENT PARA USE32 PUBLIC 'CODE'
_TEXT	ENDS
;	COMDAT ??$equal@PADPADU?$_Eq_traits@V?$char_traits@D@_STL@@@_STL@@@_STL@@YA_NPAD00U?$_Eq_traits@V?$char_traits@D@_STL@@@0@@Z
_TEXT	SEGMENT PARA USE32 PUBLIC 'CODE'
_TEXT	ENDS
;	COMDAT ??$_Destroy@V?$basic_string@DV?$char_traits@D@_STL@@V?$allocator@D@2@@_STL@@@_STL@@YAXPAV?$basic_string@DV?$char_traits@D@_STL@@V?$allocator@D@2@@0@@Z
_TEXT	SEGMENT PARA USE32 PUBLIC 'CODE'
_TEXT	ENDS
;	COMDAT ??$_M_assign_dispatch@PAD@?$basic_string@DV?$char_traits@D@_STL@@V?$allocator@D@2@@_STL@@AAEAAV01@PAD0ABU__false_type@1@@Z
_TEXT	SEGMENT PARA USE32 PUBLIC 'CODE'
_TEXT	ENDS
;	COMDAT ??0?$CTypeTable@H@@QAE@XZ
_TEXT	SEGMENT PARA USE32 PUBLIC 'CODE'
_TEXT	ENDS
;	COMDAT ??1?$CTypeTable@H@@QAE@XZ
_TEXT	SEGMENT PARA USE32 PUBLIC 'CODE'
_TEXT	ENDS
;	COMDAT ?Init@?$CTypeTable@H@@QAEXH@Z
_TEXT	SEGMENT PARA USE32 PUBLIC 'CODE'
_TEXT	ENDS
;	COMDAT ?reserve@?$vector@PAV?$vector@GV?$allocator@G@_STL@@@_STL@@V?$allocator@PAV?$vector@GV?$allocator@G@_STL@@@_STL@@@2@@_STL@@QAEXI@Z
_TEXT	SEGMENT PARA USE32 PUBLIC 'CODE'
_TEXT	ENDS
;	COMDAT ?reserve@?$vector@GV?$allocator@G@_STL@@@_STL@@QAEXI@Z
_TEXT	SEGMENT PARA USE32 PUBLIC 'CODE'
_TEXT	ENDS
;	COMDAT ??$?6V?$char_traits@D@_STL@@@_STL@@YAAAV?$basic_ostream@DV?$char_traits@D@_STL@@@0@AAV10@PBD@Z
_TEXT	SEGMENT PARA USE32 PUBLIC 'CODE'
_TEXT	ENDS
;	COMDAT ??$?6V?$char_traits@D@_STL@@@_STL@@YAAAV?$basic_ostream@DV?$char_traits@D@_STL@@@0@AAV10@D@Z
_TEXT	SEGMENT PARA USE32 PUBLIC 'CODE'
_TEXT	ENDS
;	COMDAT ??$_M_put_num@DV?$char_traits@D@_STL@@J@_STL@@YAAAV?$basic_ostream@DV?$char_traits@D@_STL@@@0@AAV10@J@Z
_TEXT	SEGMENT PARA USE32 PUBLIC 'CODE'
_TEXT	ENDS
;	COMDAT ??$_Destroy@PAPAV?$vector@GV?$allocator@G@_STL@@@_STL@@@_STL@@YAXPAPAV?$vector@GV?$allocator@G@_STL@@@0@0@Z
_TEXT	SEGMENT PARA USE32 PUBLIC 'CODE'
_TEXT	ENDS
;	COMDAT ??$_Construct@GG@_STL@@YAXPAGABG@Z
_TEXT	SEGMENT PARA USE32 PUBLIC 'CODE'
_TEXT	ENDS
;	COMDAT ??$append@PBD@?$basic_string@DV?$char_traits@D@_STL@@V?$allocator@D@2@@_STL@@QAEAAV01@PBD0@Z
_TEXT	SEGMENT PARA USE32 PUBLIC 'CODE'
_TEXT	ENDS
;	COMDAT ??$max@I@_STL@@YAABIABI0@Z
_TEXT	SEGMENT PARA USE32 PUBLIC 'CODE'
_TEXT	ENDS
;	COMDAT ??$fill_n@PAGIG@_STL@@YAPAGPAGIABG@Z
_TEXT	SEGMENT PARA USE32 PUBLIC 'CODE'
_TEXT	ENDS
;	COMDAT ??_G?$basic_string@DV?$char_traits@D@_STL@@V?$allocator@D@2@@_STL@@QAEPAXI@Z
_TEXT	SEGMENT PARA USE32 PUBLIC 'CODE'
_TEXT	ENDS
;	COMDAT ?rdbuf@?$basic_ios@DV?$char_traits@D@_STL@@@_STL@@QBEPAV?$basic_streambuf@DV?$char_traits@D@_STL@@@2@XZ
_TEXT	SEGMENT PARA USE32 PUBLIC 'CODE'
_TEXT	ENDS
;	COMDAT ?fill@?$basic_ios@DV?$char_traits@D@_STL@@@_STL@@QBEDXZ
_TEXT	SEGMENT PARA USE32 PUBLIC 'CODE'
_TEXT	ENDS
;	COMDAT ?setstate@?$basic_ios@DV?$char_traits@D@_STL@@@_STL@@QAEXH@Z
_TEXT	SEGMENT PARA USE32 PUBLIC 'CODE'
_TEXT	ENDS
;	COMDAT ?_M_exit_putback_mode@?$basic_filebuf@DV?$char_traits@D@_STL@@@_STL@@AAEXXZ
_TEXT	SEGMENT PARA USE32 PUBLIC 'CODE'
_TEXT	ENDS
;	COMDAT ??R?$_Eq_traits@V?$char_traits@D@_STL@@@_STL@@QBE_NABD0@Z
_TEXT	SEGMENT PARA USE32 PUBLIC 'CODE'
_TEXT	ENDS
;	COMDAT ?size@?$vector@PAV?$vector@GV?$allocator@G@_STL@@@_STL@@V?$allocator@PAV?$vector@GV?$allocator@G@_STL@@@_STL@@@2@@_STL@@QBEIXZ
_TEXT	SEGMENT PARA USE32 PUBLIC 'CODE'
_TEXT	ENDS
;	COMDAT ?_M_clear@?$vector@PAV?$vector@GV?$allocator@G@_STL@@@_STL@@V?$allocator@PAV?$vector@GV?$allocator@G@_STL@@@_STL@@@2@@_STL@@IAEXXZ
_TEXT	SEGMENT PARA USE32 PUBLIC 'CODE'
_TEXT	ENDS
;	COMDAT ?_M_set@?$vector@PAV?$vector@GV?$allocator@G@_STL@@@_STL@@V?$allocator@PAV?$vector@GV?$allocator@G@_STL@@@_STL@@@2@@_STL@@IAEXPAPAV?$vector@GV?$allocator@G@_STL@@@2@00@Z
_TEXT	SEGMENT PARA USE32 PUBLIC 'CODE'
_TEXT	ENDS
;	COMDAT ?allocate@?$allocator@PAV?$vector@GV?$allocator@G@_STL@@@_STL@@@_STL@@QAEPAPAV?$vector@GV?$allocator@G@_STL@@@2@IPBX@Z
_TEXT	SEGMENT PARA USE32 PUBLIC 'CODE'
_TEXT	ENDS
;	COMDAT ??0sentry@?$basic_ostream@DV?$char_traits@D@_STL@@@_STL@@QAE@AAV12@@Z
_TEXT	SEGMENT PARA USE32 PUBLIC 'CODE'
_TEXT	ENDS
;	COMDAT ??1sentry@?$basic_ostream@DV?$char_traits@D@_STL@@@_STL@@QAE@XZ
_TEXT	SEGMENT PARA USE32 PUBLIC 'CODE'
_TEXT	ENDS
;	COMDAT ??Bsentry@?$basic_ostream@DV?$char_traits@D@_STL@@@_STL@@QBE_NXZ
_TEXT	SEGMENT PARA USE32 PUBLIC 'CODE'
_TEXT	ENDS
;	COMDAT ?put@?$num_put@DV?$ostreambuf_iterator@DV?$char_traits@D@_STL@@@_STL@@@_STL@@QBE?AV?$ostreambuf_iterator@DV?$char_traits@D@_STL@@@2@V32@AAVios_base@2@DJ@Z
_TEXT	SEGMENT PARA USE32 PUBLIC 'CODE'
_TEXT	ENDS
;	COMDAT ??1?$num_put@DV?$ostreambuf_iterator@DV?$char_traits@D@_STL@@@_STL@@@_STL@@MAE@XZ
_TEXT	SEGMENT PARA USE32 PUBLIC 'CODE'
_TEXT	ENDS
;	COMDAT ??0?$ostreambuf_iterator@DV?$char_traits@D@_STL@@@_STL@@QAE@PAV?$basic_streambuf@DV?$char_traits@D@_STL@@@1@@Z
_TEXT	SEGMENT PARA USE32 PUBLIC 'CODE'
_TEXT	ENDS
;	COMDAT ?failed@?$ostreambuf_iterator@DV?$char_traits@D@_STL@@@_STL@@QBE_NXZ
_TEXT	SEGMENT PARA USE32 PUBLIC 'CODE'
_TEXT	ENDS
;	COMDAT ??_G?$num_put@DV?$ostreambuf_iterator@DV?$char_traits@D@_STL@@@_STL@@@_STL@@MAEPAXI@Z
_TEXT	SEGMENT PARA USE32 PUBLIC 'CODE'
_TEXT	ENDS
;	COMDAT ?clear@?$basic_ios@DV?$char_traits@D@_STL@@@_STL@@QAEXH@Z
_TEXT	SEGMENT PARA USE32 PUBLIC 'CODE'
_TEXT	ENDS
;	COMDAT ?flush@?$basic_ostream@DV?$char_traits@D@_STL@@@_STL@@QAEAAV12@XZ
_TEXT	SEGMENT PARA USE32 PUBLIC 'CODE'
_TEXT	ENDS
;	COMDAT ??$_M_range_initialize@PBD@?$basic_string@DV?$char_traits@D@_STL@@V?$allocator@D@2@@_STL@@AAEXPBD0ABUforward_iterator_tag@1@@Z
_TEXT	SEGMENT PARA USE32 PUBLIC 'CODE'
_TEXT	ENDS
;	COMDAT ??$_M_range_initialize@PAD@?$basic_string@DV?$char_traits@D@_STL@@V?$allocator@D@2@@_STL@@AAEXPAD0ABUforward_iterator_tag@1@@Z
_TEXT	SEGMENT PARA USE32 PUBLIC 'CODE'
_TEXT	ENDS
;	COMDAT ?_M_put_char@?$basic_ostream@DV?$char_traits@D@_STL@@@_STL@@QAEXD@Z
_TEXT	SEGMENT PARA USE32 PUBLIC 'CODE'
_TEXT	ENDS
;	COMDAT ?_M_put_nowiden@?$basic_ostream@DV?$char_traits@D@_STL@@@_STL@@QAEXPBD@Z
_TEXT	SEGMENT PARA USE32 PUBLIC 'CODE'
_TEXT	ENDS
;	COMDAT ?_M_handle_exception@?$basic_ios@DV?$char_traits@D@_STL@@@_STL@@QAEXH@Z
_TEXT	SEGMENT PARA USE32 PUBLIC 'CODE'
_TEXT	ENDS
;	COMDAT ?_M_unshift@?$basic_filebuf@DV?$char_traits@D@_STL@@@_STL@@AAE_NXZ
_TEXT	SEGMENT PARA USE32 PUBLIC 'CODE'
_TEXT	ENDS
;	COMDAT ?_M_allocate_buffers@?$basic_filebuf@DV?$char_traits@D@_STL@@@_STL@@AAE_NXZ
_TEXT	SEGMENT PARA USE32 PUBLIC 'CODE'
_TEXT	ENDS
;	COMDAT ??$max@H@_STL@@YAABHABH0@Z
_TEXT	SEGMENT PARA USE32 PUBLIC 'CODE'
_TEXT	ENDS
;	COMDAT ??$use_facet@V?$codecvt@DDH@_STL@@@_STL@@YAABV?$codecvt@DDH@0@ABVlocale@0@@Z
_TEXT	SEGMENT PARA USE32 PUBLIC 'CODE'
_TEXT	ENDS
;	COMDAT ??$append@PAD@?$basic_string@DV?$char_traits@D@_STL@@V?$allocator@D@2@@_STL@@QAEAAV01@PAD0@Z
_TEXT	SEGMENT PARA USE32 PUBLIC 'CODE'
_TEXT	ENDS
;	COMDAT ?Release@?$CTypeTable@H@@QAEXXZ
_TEXT	SEGMENT PARA USE32 PUBLIC 'CODE'
_TEXT	ENDS
;	COMDAT ??$_M_allocate_and_copy@PAPAV?$vector@GV?$allocator@G@_STL@@@_STL@@@?$vector@PAV?$vector@GV?$allocator@G@_STL@@@_STL@@V?$allocator@PAV?$vector@GV?$allocator@G@_STL@@@_STL@@@2@@_STL@@IAEPAPAV?$vector@GV?$allocator@G@_STL@@@1@IPAPAV21@0@Z
_TEXT	SEGMENT PARA USE32 PUBLIC 'CODE'
_TEXT	ENDS
;	COMDAT ??$_M_allocate_and_copy@PAG@?$vector@GV?$allocator@G@_STL@@@_STL@@IAEPAGIPAG0@Z
_TEXT	SEGMENT PARA USE32 PUBLIC 'CODE'
_TEXT	ENDS
;	COMDAT ??$use_facet@V?$num_put@DV?$ostreambuf_iterator@DV?$char_traits@D@_STL@@@_STL@@@_STL@@@_STL@@YAABV?$num_put@DV?$ostreambuf_iterator@DV?$char_traits@D@_STL@@@_STL@@@0@ABVlocale@0@@Z
_TEXT	SEGMENT PARA USE32 PUBLIC 'CODE'
_TEXT	ENDS
;	COMDAT ?do_put@?$num_put@DV?$ostreambuf_iterator@DV?$char_traits@D@_STL@@@_STL@@@_STL@@MBE?AV?$ostreambuf_iterator@DV?$char_traits@D@_STL@@@2@V32@AAVios_base@2@DPBX@Z
_TEXT	SEGMENT PARA USE32 PUBLIC 'CODE'
_TEXT	ENDS
;	COMDAT ?do_put@?$num_put@DV?$ostreambuf_iterator@DV?$char_traits@D@_STL@@@_STL@@@_STL@@MBE?AV?$ostreambuf_iterator@DV?$char_traits@D@_STL@@@2@V32@AAVios_base@2@D_K@Z
_TEXT	SEGMENT PARA USE32 PUBLIC 'CODE'
_TEXT	ENDS
;	COMDAT ?do_put@?$num_put@DV?$ostreambuf_iterator@DV?$char_traits@D@_STL@@@_STL@@@_STL@@MBE?AV?$ostreambuf_iterator@DV?$char_traits@D@_STL@@@2@V32@AAVios_base@2@D_J@Z
_TEXT	SEGMENT PARA USE32 PUBLIC 'CODE'
_TEXT	ENDS
;	COMDAT ?do_put@?$num_put@DV?$ostreambuf_iterator@DV?$char_traits@D@_STL@@@_STL@@@_STL@@MBE?AV?$ostreambuf_iterator@DV?$char_traits@D@_STL@@@2@V32@AAVios_base@2@DO@Z
_TEXT	SEGMENT PARA USE32 PUBLIC 'CODE'
_TEXT	ENDS
;	COMDAT ?do_put@?$num_put@DV?$ostreambuf_iterator@DV?$char_traits@D@_STL@@@_STL@@@_STL@@MBE?AV?$ostreambuf_iterator@DV?$char_traits@D@_STL@@@2@V32@AAVios_base@2@DN@Z
_TEXT	SEGMENT PARA USE32 PUBLIC 'CODE'
_TEXT	ENDS
;	COMDAT ?do_put@?$num_put@DV?$ostreambuf_iterator@DV?$char_traits@D@_STL@@@_STL@@@_STL@@MBE?AV?$ostreambuf_iterator@DV?$char_traits@D@_STL@@@2@V32@AAVios_base@2@DK@Z
_TEXT	SEGMENT PARA USE32 PUBLIC 'CODE'
_TEXT	ENDS
;	COMDAT ?do_put@?$num_put@DV?$ostreambuf_iterator@DV?$char_traits@D@_STL@@@_STL@@@_STL@@MBE?AV?$ostreambuf_iterator@DV?$char_traits@D@_STL@@@2@V32@AAVios_base@2@DJ@Z
_TEXT	SEGMENT PARA USE32 PUBLIC 'CODE'
_TEXT	ENDS
;	COMDAT ?do_put@?$num_put@DV?$ostreambuf_iterator@DV?$char_traits@D@_STL@@@_STL@@@_STL@@MBE?AV?$ostreambuf_iterator@DV?$char_traits@D@_STL@@@2@V32@AAVios_base@2@D_N@Z
_TEXT	SEGMENT PARA USE32 PUBLIC 'CODE'
_TEXT	ENDS
;	COMDAT ??$__destroy@PAPAV?$vector@GV?$allocator@G@_STL@@@_STL@@PAV12@@_STL@@YAXPAPAV?$vector@GV?$allocator@G@_STL@@@0@00@Z
_TEXT	SEGMENT PARA USE32 PUBLIC 'CODE'
_TEXT	ENDS
;	COMDAT ??$_M_append_dispatch@PBD@?$basic_string@DV?$char_traits@D@_STL@@V?$allocator@D@2@@_STL@@AAEAAV01@PBD0ABU__false_type@1@@Z
_TEXT	SEGMENT PARA USE32 PUBLIC 'CODE'
_TEXT	ENDS
;	COMDAT ??$_M_init@DV?$char_traits@D@_STL@@@_STL@@YA_NAAV?$basic_ostream@DV?$char_traits@D@_STL@@@0@@Z
_TEXT	SEGMENT PARA USE32 PUBLIC 'CODE'
_TEXT	ENDS
;	COMDAT ?c_str@?$basic_string@DV?$char_traits@D@_STL@@V?$allocator@D@2@@_STL@@QBEPBDXZ
_TEXT	SEGMENT PARA USE32 PUBLIC 'CODE'
_TEXT	ENDS
;	COMDAT ?tie@?$basic_ios@DV?$char_traits@D@_STL@@@_STL@@QBEPAV?$basic_ostream@DV?$char_traits@D@_STL@@@2@XZ
_TEXT	SEGMENT PARA USE32 PUBLIC 'CODE'
_TEXT	ENDS
;	COMDAT ?_S_eof@?$basic_ios@DV?$char_traits@D@_STL@@@_STL@@SA_NH@Z
_TEXT	SEGMENT PARA USE32 PUBLIC 'CODE'
_TEXT	ENDS
;	COMDAT ??$distance@PBD@_STL@@YAHABQBD0@Z
_TEXT	SEGMENT PARA USE32 PUBLIC 'CODE'
_TEXT	ENDS
;	COMDAT ?_M_allocate_block@?$_String_base@DV?$allocator@D@_STL@@@_STL@@QAEXI@Z
_TEXT	SEGMENT PARA USE32 PUBLIC 'CODE'
_TEXT	ENDS
;	COMDAT ??$distance@PAD@_STL@@YAHABQAD0@Z
_TEXT	SEGMENT PARA USE32 PUBLIC 'CODE'
_TEXT	ENDS
;	COMDAT ??$uninitialized_copy@PADPAD@_STL@@YAPADPAD00@Z
_TEXT	SEGMENT PARA USE32 PUBLIC 'CODE'
_TEXT	ENDS
;	COMDAT ??$_M_append_dispatch@PAD@?$basic_string@DV?$char_traits@D@_STL@@V?$allocator@D@2@@_STL@@AAEAAV01@PAD0ABU__false_type@1@@Z
_TEXT	SEGMENT PARA USE32 PUBLIC 'CODE'
_TEXT	ENDS
;	COMDAT ??$__uninitialized_copy@PAPAV?$vector@GV?$allocator@G@_STL@@@_STL@@PAPAV12@@_STL@@YAPAPAV?$vector@GV?$allocator@G@_STL@@@0@PAPAV10@00ABU__true_type@0@@Z
_TEXT	SEGMENT PARA USE32 PUBLIC 'CODE'
_TEXT	ENDS
;	COMDAT ??$__uninitialized_copy@PAGPAG@_STL@@YAPAGPAG00ABU__true_type@0@@Z
_TEXT	SEGMENT PARA USE32 PUBLIC 'CODE'
_TEXT	ENDS
;	COMDAT ??$__write_integer_backward@_K@_STL@@YAPADPADH_K@Z
_TEXT	SEGMENT PARA USE32 PUBLIC 'CODE'
_TEXT	ENDS
;	COMDAT ??$__put_integer@V?$ostreambuf_iterator@DV?$char_traits@D@_STL@@@_STL@@@_STL@@YA?AV?$ostreambuf_iterator@DV?$char_traits@D@_STL@@@0@PAD0V10@AAVios_base@0@HD@Z
_TEXT	SEGMENT PARA USE32 PUBLIC 'CODE'
_TEXT	ENDS
;	COMDAT ??$__write_integer_backward@_J@_STL@@YAPADPADH_J@Z
_TEXT	SEGMENT PARA USE32 PUBLIC 'CODE'
_TEXT	ENDS
;	COMDAT ??$_M_do_put_float@DV?$ostreambuf_iterator@DV?$char_traits@D@_STL@@@_STL@@O@_STL@@YA?AV?$ostreambuf_iterator@DV?$char_traits@D@_STL@@@0@V10@AAVios_base@0@DO@Z
_TEXT	SEGMENT PARA USE32 PUBLIC 'CODE'
_TEXT	ENDS
;	COMDAT ??$_M_do_put_float@DV?$ostreambuf_iterator@DV?$char_traits@D@_STL@@@_STL@@N@_STL@@YA?AV?$ostreambuf_iterator@DV?$char_traits@D@_STL@@@0@V10@AAVios_base@0@DN@Z
_TEXT	SEGMENT PARA USE32 PUBLIC 'CODE'
_TEXT	ENDS
;	COMDAT ??$__write_integer_backward@K@_STL@@YAPADPADHK@Z
_TEXT	SEGMENT PARA USE32 PUBLIC 'CODE'
_TEXT	ENDS
;	COMDAT ??$__write_integer_backward@J@_STL@@YAPADPADHJ@Z
_TEXT	SEGMENT PARA USE32 PUBLIC 'CODE'
_TEXT	ENDS
;	COMDAT ??$__copy_integer_and_fill@DV?$ostreambuf_iterator@DV?$char_traits@D@_STL@@@_STL@@@_STL@@YA?AV?$ostreambuf_iterator@DV?$char_traits@D@_STL@@@0@PBDHV10@HHDDD@Z
_TEXT	SEGMENT PARA USE32 PUBLIC 'CODE'
_TEXT	ENDS
;	COMDAT ??$__destroy_aux@PAPAV?$vector@GV?$allocator@G@_STL@@@_STL@@@_STL@@YAXPAPAV?$vector@GV?$allocator@G@_STL@@@0@0ABU__true_type@0@@Z
_TEXT	SEGMENT PARA USE32 PUBLIC 'CODE'
_TEXT	ENDS
;	COMDAT ??$append@PBD@?$basic_string@DV?$char_traits@D@_STL@@V?$allocator@D@2@@_STL@@AAEAAV01@PBD0ABUforward_iterator_tag@1@@Z
_TEXT	SEGMENT PARA USE32 PUBLIC 'CODE'
_TEXT	ENDS
;	COMDAT ?_M_construct_null@?$basic_string@DV?$char_traits@D@_STL@@V?$allocator@D@2@@_STL@@AAEXPAD@Z
_TEXT	SEGMENT PARA USE32 PUBLIC 'CODE'
_TEXT	ENDS
;	COMDAT ?max_size@?$basic_string@DV?$char_traits@D@_STL@@V?$allocator@D@2@@_STL@@QBEIXZ
_TEXT	SEGMENT PARA USE32 PUBLIC 'CODE'
_TEXT	ENDS
;	COMDAT ?capacity@?$basic_string@DV?$char_traits@D@_STL@@V?$allocator@D@2@@_STL@@QBEIXZ
_TEXT	SEGMENT PARA USE32 PUBLIC 'CODE'
_TEXT	ENDS
;	COMDAT ?empty@?$basic_string@DV?$char_traits@D@_STL@@V?$allocator@D@2@@_STL@@QBE_NXZ
_TEXT	SEGMENT PARA USE32 PUBLIC 'CODE'
_TEXT	ENDS
;	COMDAT ?max_size@?$_String_base@DV?$allocator@D@_STL@@@_STL@@QBEIXZ
_TEXT	SEGMENT PARA USE32 PUBLIC 'CODE'
_TEXT	ENDS
;	COMDAT ??4?$ostreambuf_iterator@DV?$char_traits@D@_STL@@@_STL@@QAEAAV01@D@Z
_TEXT	SEGMENT PARA USE32 PUBLIC 'CODE'
_TEXT	ENDS
;	COMDAT ??D?$ostreambuf_iterator@DV?$char_traits@D@_STL@@@_STL@@QAEAAV01@XZ
_TEXT	SEGMENT PARA USE32 PUBLIC 'CODE'
_TEXT	ENDS
;	COMDAT ??E?$ostreambuf_iterator@DV?$char_traits@D@_STL@@@_STL@@QAEAAV01@H@Z
_TEXT	SEGMENT PARA USE32 PUBLIC 'CODE'
_TEXT	ENDS
;	COMDAT ?_Ret@?$_BothPtrType@PAPAV?$vector@GV?$allocator@G@_STL@@@_STL@@PAPAV12@@_STL@@SA?AU__true_type@2@XZ
_TEXT	SEGMENT PARA USE32 PUBLIC 'CODE'
_TEXT	ENDS
;	COMDAT ?_Ret@?$_BothPtrType@PAGPAG@_STL@@SA?AU__true_type@2@XZ
_TEXT	SEGMENT PARA USE32 PUBLIC 'CODE'
_TEXT	ENDS
;	COMDAT ?_M_construct_null_aux@?$basic_string@DV?$char_traits@D@_STL@@V?$allocator@D@2@@_STL@@AAEXPADABU__true_type@2@@Z
_TEXT	SEGMENT PARA USE32 PUBLIC 'CODE'
_TEXT	ENDS
;	COMDAT ??$__distance@PBD@_STL@@YAHABQBD0ABUrandom_access_iterator_tag@0@@Z
_TEXT	SEGMENT PARA USE32 PUBLIC 'CODE'
_TEXT	ENDS
;	COMDAT ?_M_throw_length_error@?$_String_base@DV?$allocator@D@_STL@@@_STL@@QBEXXZ
_TEXT	SEGMENT PARA USE32 PUBLIC 'CODE'
_TEXT	ENDS
;	COMDAT ??$__distance@PAD@_STL@@YAHABQAD0ABUrandom_access_iterator_tag@0@@Z
_TEXT	SEGMENT PARA USE32 PUBLIC 'CODE'
_TEXT	ENDS
;	COMDAT ??$__uninitialized_copy@PADPAD@_STL@@YAPADPAD00ABU__true_type@0@@Z
_TEXT	SEGMENT PARA USE32 PUBLIC 'CODE'
_TEXT	ENDS
;	COMDAT ?reserve@?$basic_string@DV?$char_traits@D@_STL@@V?$allocator@D@2@@_STL@@QAEXI@Z
_TEXT	SEGMENT PARA USE32 PUBLIC 'CODE'
_TEXT	ENDS
;	COMDAT ??$append@PAD@?$basic_string@DV?$char_traits@D@_STL@@V?$allocator@D@2@@_STL@@AAEAAV01@PAD0ABUforward_iterator_tag@1@@Z
_TEXT	SEGMENT PARA USE32 PUBLIC 'CODE'
_TEXT	ENDS
;	COMDAT ??$__copy_aux@PAPAV?$vector@GV?$allocator@G@_STL@@@_STL@@PAPAV12@@_STL@@YAPAPAV?$vector@GV?$allocator@G@_STL@@@0@PAPAV10@00ABU__true_type@0@@Z
_TEXT	SEGMENT PARA USE32 PUBLIC 'CODE'
_TEXT	ENDS
;	COMDAT ??$__copy_aux@PAGPAG@_STL@@YAPAGPAG00ABU__true_type@0@@Z
_TEXT	SEGMENT PARA USE32 PUBLIC 'CODE'
_TEXT	ENDS
;	COMDAT ??$__write_decimal_backward@_K@_STL@@YAPADPAD_KHABU__false_type@0@@Z
_TEXT	SEGMENT PARA USE32 PUBLIC 'CODE'
_TEXT	ENDS
;	COMDAT ??$copy@PADPAD@_STL@@YAPADPAD00@Z
_TEXT	SEGMENT PARA USE32 PUBLIC 'CODE'
_TEXT	ENDS
;	COMDAT ??$__write_decimal_backward@_J@_STL@@YAPADPAD_JHABU__true_type@0@@Z
_TEXT	SEGMENT PARA USE32 PUBLIC 'CODE'
_TEXT	ENDS
;	COMDAT ??$__put_float@V?$ostreambuf_iterator@DV?$char_traits@D@_STL@@@_STL@@@_STL@@YA?AV?$ostreambuf_iterator@DV?$char_traits@D@_STL@@@0@PAD0V10@AAVios_base@0@DDDABV?$basic_string@DV?$char_traits@D@_STL@@V?$allocator@D@2@@0@@Z
_TEXT	SEGMENT PARA USE32 PUBLIC 'CODE'
_TEXT	ENDS
;	COMDAT ??$__write_decimal_backward@K@_STL@@YAPADPADKHABU__false_type@0@@Z
_TEXT	SEGMENT PARA USE32 PUBLIC 'CODE'
_TEXT	ENDS
;	COMDAT ??$__write_decimal_backward@J@_STL@@YAPADPADJHABU__true_type@0@@Z
_TEXT	SEGMENT PARA USE32 PUBLIC 'CODE'
_TEXT	ENDS
;	COMDAT ??$copy@PBDV?$ostreambuf_iterator@DV?$char_traits@D@_STL@@@_STL@@@_STL@@YA?AV?$ostreambuf_iterator@DV?$char_traits@D@_STL@@@0@PBD0V10@@Z
_TEXT	SEGMENT PARA USE32 PUBLIC 'CODE'
_TEXT	ENDS
;	COMDAT ??$fill_n@V?$ostreambuf_iterator@DV?$char_traits@D@_STL@@@_STL@@HD@_STL@@YA?AV?$ostreambuf_iterator@DV?$char_traits@D@_STL@@@0@V10@HABD@Z
_TEXT	SEGMENT PARA USE32 PUBLIC 'CODE'
_TEXT	ENDS
;	COMDAT ??A?$basic_string@DV?$char_traits@D@_STL@@V?$allocator@D@2@@_STL@@QBEABDI@Z
_TEXT	SEGMENT PARA USE32 PUBLIC 'CODE'
_TEXT	ENDS
;	COMDAT ??A?$basic_string@DV?$char_traits@D@_STL@@V?$allocator@D@2@@_STL@@QAEAADI@Z
_TEXT	SEGMENT PARA USE32 PUBLIC 'CODE'
_TEXT	ENDS
;	COMDAT ?push_back@?$basic_string@DV?$char_traits@D@_STL@@V?$allocator@D@2@@_STL@@QAEXD@Z
_TEXT	SEGMENT PARA USE32 PUBLIC 'CODE'
_TEXT	ENDS
;	COMDAT ??E?$ostreambuf_iterator@DV?$char_traits@D@_STL@@@_STL@@QAEAAV01@XZ
_TEXT	SEGMENT PARA USE32 PUBLIC 'CODE'
_TEXT	ENDS
;	COMDAT ?_Ret@?$_BothPtrType@PADPAD@_STL@@SA?AU__true_type@2@XZ
_TEXT	SEGMENT PARA USE32 PUBLIC 'CODE'
_TEXT	ENDS
;	COMDAT ?_Ret@?$_OKToMemCpy@PAV?$vector@GV?$allocator@G@_STL@@@_STL@@PAV12@@_STL@@SA?AU__true_type@2@XZ
_TEXT	SEGMENT PARA USE32 PUBLIC 'CODE'
_TEXT	ENDS
;	COMDAT ?_Ret@?$_OKToMemCpy@GG@_STL@@SA?AU__true_type@2@XZ
_TEXT	SEGMENT PARA USE32 PUBLIC 'CODE'
_TEXT	ENDS
;	COMDAT ?_Ret@?$_BothPtrType@PBDV?$ostreambuf_iterator@DV?$char_traits@D@_STL@@@_STL@@@_STL@@SA?AU__false_type@2@XZ
_TEXT	SEGMENT PARA USE32 PUBLIC 'CODE'
_TEXT	ENDS
;	COMDAT ??$__copy_aux@PADPAD@_STL@@YAPADPAD00ABU__true_type@0@@Z
_TEXT	SEGMENT PARA USE32 PUBLIC 'CODE'
_TEXT	ENDS
;	COMDAT ??$_IsOKToMemCpy@PAV?$vector@GV?$allocator@G@_STL@@@_STL@@PAV12@@_STL@@YA?AU?$_OKToMemCpy@PAV?$vector@GV?$allocator@G@_STL@@@_STL@@PAV12@@0@PAPAV?$vector@GV?$allocator@G@_STL@@@0@0@Z
_TEXT	SEGMENT PARA USE32 PUBLIC 'CODE'
_TEXT	ENDS
;	COMDAT ??$__copy_ptrs@PAPAV?$vector@GV?$allocator@G@_STL@@@_STL@@PAPAV12@@_STL@@YAPAPAV?$vector@GV?$allocator@G@_STL@@@0@PAPAV10@00ABU__true_type@0@@Z
_TEXT	SEGMENT PARA USE32 PUBLIC 'CODE'
_TEXT	ENDS
;	COMDAT ??$_IsOKToMemCpy@GG@_STL@@YA?AU?$_OKToMemCpy@GG@0@PAG0@Z
_TEXT	SEGMENT PARA USE32 PUBLIC 'CODE'
_TEXT	ENDS
;	COMDAT ??$__copy_ptrs@PAGPAG@_STL@@YAPAGPAG00ABU__true_type@0@@Z
_TEXT	SEGMENT PARA USE32 PUBLIC 'CODE'
_TEXT	ENDS
;	COMDAT ??$find@PADD@_STL@@YAPADPAD0ABD@Z
_TEXT	SEGMENT PARA USE32 PUBLIC 'CODE'
_TEXT	ENDS
;	COMDAT ??$__copy_float_and_fill@DV?$ostreambuf_iterator@DV?$char_traits@D@_STL@@@_STL@@@_STL@@YA?AV?$ostreambuf_iterator@DV?$char_traits@D@_STL@@@0@PBD0V10@HHDDD@Z
_TEXT	SEGMENT PARA USE32 PUBLIC 'CODE'
_TEXT	ENDS
;	COMDAT ??$__copy_aux@PBDV?$ostreambuf_iterator@DV?$char_traits@D@_STL@@@_STL@@@_STL@@YA?AV?$ostreambuf_iterator@DV?$char_traits@D@_STL@@@0@PBD0V10@ABU__false_type@0@@Z
_TEXT	SEGMENT PARA USE32 PUBLIC 'CODE'
_TEXT	ENDS
;	COMDAT ?_Ret@?$_OKToMemCpy@DD@_STL@@SA?AU__true_type@2@XZ
_TEXT	SEGMENT PARA USE32 PUBLIC 'CODE'
_TEXT	ENDS
;	COMDAT ??$_IsOKToMemCpy@DD@_STL@@YA?AU?$_OKToMemCpy@DD@0@PAD0@Z
_TEXT	SEGMENT PARA USE32 PUBLIC 'CODE'
_TEXT	ENDS
;	COMDAT ??$__copy_ptrs@PADPAD@_STL@@YAPADPAD00ABU__true_type@0@@Z
_TEXT	SEGMENT PARA USE32 PUBLIC 'CODE'
_TEXT	ENDS
;	COMDAT ??$__find@PADD@_STL@@YAPADPAD0ABDABUrandom_access_iterator_tag@0@@Z
_TEXT	SEGMENT PARA USE32 PUBLIC 'CODE'
_TEXT	ENDS
;	COMDAT ??$__copy@PBDV?$ostreambuf_iterator@DV?$char_traits@D@_STL@@@_STL@@H@_STL@@YA?AV?$ostreambuf_iterator@DV?$char_traits@D@_STL@@@0@PBD0V10@ABUrandom_access_iterator_tag@0@PAH@Z
_TEXT	SEGMENT PARA USE32 PUBLIC 'CODE'
_TEXT	ENDS
;	COMDAT ??_R3iovfs_base@@8
rdata$r	SEGMENT DWORD USE32 PUBLIC 'CONST'
rdata$r	ENDS
;	COMDAT ??_R3?$basic_ofstream@DV?$char_traits@D@_STL@@@_STL@@8
rdata$r	SEGMENT DWORD USE32 PUBLIC 'CONST'
rdata$r	ENDS
;	COMDAT ??_R3IFileIO@@8
rdata$r	SEGMENT DWORD USE32 PUBLIC 'CONST'
rdata$r	ENDS
;	COMDAT ??_R3ovfstream@@8
rdata$r	SEGMENT DWORD USE32 PUBLIC 'CONST'
rdata$r	ENDS
;	COMDAT ??_R3MObject@@8
rdata$r	SEGMENT DWORD USE32 PUBLIC 'CONST'
rdata$r	ENDS
;	COMDAT ??_R3ivfstream@@8
rdata$r	SEGMENT DWORD USE32 PUBLIC 'CONST'
rdata$r	ENDS
;	COMDAT ??_R3?$num_put@DV?$ostreambuf_iterator@DV?$char_traits@D@_STL@@@_STL@@@_STL@@8
rdata$r	SEGMENT DWORD USE32 PUBLIC 'CONST'
rdata$r	ENDS
;	COMDAT ??_R2iovfs_base@@8
rdata$r	SEGMENT DWORD USE32 PUBLIC 'CONST'
rdata$r	ENDS
;	COMDAT ??_R2?$basic_ofstream@DV?$char_traits@D@_STL@@@_STL@@8
rdata$r	SEGMENT DWORD USE32 PUBLIC 'CONST'
rdata$r	ENDS
;	COMDAT ??_R2IFileIO@@8
rdata$r	SEGMENT DWORD USE32 PUBLIC 'CONST'
rdata$r	ENDS
;	COMDAT ??_R2ovfstream@@8
rdata$r	SEGMENT DWORD USE32 PUBLIC 'CONST'
rdata$r	ENDS
;	COMDAT ??_R2MObject@@8
rdata$r	SEGMENT DWORD USE32 PUBLIC 'CONST'
rdata$r	ENDS
;	COMDAT ??_R2ivfstream@@8
rdata$r	SEGMENT DWORD USE32 PUBLIC 'CONST'
rdata$r	ENDS
;	COMDAT ??_R2?$num_put@DV?$ostreambuf_iterator@DV?$char_traits@D@_STL@@@_STL@@@_STL@@8
rdata$r	SEGMENT DWORD USE32 PUBLIC 'CONST'
rdata$r	ENDS
;	COMDAT ??_R1A@A@3A@ios_base@_STL@@8
rdata$r	SEGMENT DWORD USE32 PUBLIC 'CONST'
rdata$r	ENDS
;	COMDAT ??_R0?AVios_base@_STL@@@8
_DATA	SEGMENT DWORD USE32 PUBLIC 'DATA'
_DATA	ENDS
;	COMDAT ??_R1A@A@3BA@?$basic_ios@DV?$char_traits@D@_STL@@@_STL@@8
rdata$r	SEGMENT DWORD USE32 PUBLIC 'CONST'
rdata$r	ENDS
;	COMDAT ??_R0?AV?$basic_ios@DV?$char_traits@D@_STL@@@_STL@@@8
_DATA	SEGMENT DWORD USE32 PUBLIC 'DATA'
_DATA	ENDS
;	COMDAT ??_R1A@?0A@A@?$basic_ostream@DV?$char_traits@D@_STL@@@_STL@@8
rdata$r	SEGMENT DWORD USE32 PUBLIC 'CONST'
rdata$r	ENDS
;	COMDAT ??_R0?AV?$basic_ostream@DV?$char_traits@D@_STL@@@_STL@@@8
_DATA	SEGMENT DWORD USE32 PUBLIC 'DATA'
_DATA	ENDS
;	COMDAT ??_R1A@?0A@A@?$basic_ofstream@DV?$char_traits@D@_STL@@@_STL@@8
rdata$r	SEGMENT DWORD USE32 PUBLIC 'CONST'
rdata$r	ENDS
;	COMDAT ??_R1A@?0A@A@IFileIO@@8
rdata$r	SEGMENT DWORD USE32 PUBLIC 'CONST'
rdata$r	ENDS
;	COMDAT ??_R1A@?0A@A@ovfstream@@8
rdata$r	SEGMENT DWORD USE32 PUBLIC 'CONST'
rdata$r	ENDS
;	COMDAT ??_R1A@?0A@A@MObject@@8
rdata$r	SEGMENT DWORD USE32 PUBLIC 'CONST'
rdata$r	ENDS
;	COMDAT ??_R1A@?0A@A@iovfs_base@@8
rdata$r	SEGMENT DWORD USE32 PUBLIC 'CONST'
rdata$r	ENDS
;	COMDAT ??_R1A@?0A@A@ivfstream@@8
rdata$r	SEGMENT DWORD USE32 PUBLIC 'CONST'
rdata$r	ENDS
;	COMDAT ??_R13?0A@8_Refcount_Base@_STL@@8
rdata$r	SEGMENT DWORD USE32 PUBLIC 'CONST'
rdata$r	ENDS
;	COMDAT ??_R0?AU_Refcount_Base@_STL@@@8
_DATA	SEGMENT DWORD USE32 PUBLIC 'DATA'
_DATA	ENDS
;	COMDAT ??_R1A@?0A@A@facet@locale@_STL@@8
rdata$r	SEGMENT DWORD USE32 PUBLIC 'CONST'
rdata$r	ENDS
;	COMDAT ??_R0?AVfacet@locale@_STL@@@8
_DATA	SEGMENT DWORD USE32 PUBLIC 'DATA'
_DATA	ENDS
;	COMDAT ??_R1A@?0A@A@?$num_put@DV?$ostreambuf_iterator@DV?$char_traits@D@_STL@@@_STL@@@_STL@@8
rdata$r	SEGMENT DWORD USE32 PUBLIC 'CONST'
rdata$r	ENDS
;	COMDAT ??_R0?AV?$basic_ofstream@DV?$char_traits@D@_STL@@@_STL@@@8
_DATA	SEGMENT DWORD USE32 PUBLIC 'DATA'
_DATA	ENDS
;	COMDAT ??_R0?AVIFileIO@@@8
_DATA	SEGMENT DWORD USE32 PUBLIC 'DATA'
_DATA	ENDS
;	COMDAT ??_R0?AVovfstream@@@8
_DATA	SEGMENT DWORD USE32 PUBLIC 'DATA'
_DATA	ENDS
;	COMDAT ??_R0?AVMObject@@@8
_DATA	SEGMENT DWORD USE32 PUBLIC 'DATA'
_DATA	ENDS
;	COMDAT ??_R0?AViovfs_base@@@8
_DATA	SEGMENT DWORD USE32 PUBLIC 'DATA'
_DATA	ENDS
;	COMDAT ??_R0?AVivfstream@@@8
_DATA	SEGMENT DWORD USE32 PUBLIC 'DATA'
_DATA	ENDS
;	COMDAT ??_R0?AV?$num_put@DV?$ostreambuf_iterator@DV?$char_traits@D@_STL@@@_STL@@@_STL@@@8
_DATA	SEGMENT DWORD USE32 PUBLIC 'DATA'
_DATA	ENDS
;	COMDAT ??_R4iovfs_base@@6B@
rdata$r	SEGMENT DWORD USE32 PUBLIC 'CONST'
rdata$r	ENDS
;	COMDAT ??_R4?$basic_ofstream@DV?$char_traits@D@_STL@@@_STL@@6B@
rdata$r	SEGMENT DWORD USE32 PUBLIC 'CONST'
rdata$r	ENDS
;	COMDAT ??_R4IFileIO@@6B@
rdata$r	SEGMENT DWORD USE32 PUBLIC 'CONST'
rdata$r	ENDS
;	COMDAT ??_R4ovfstream@@6B@
rdata$r	SEGMENT DWORD USE32 PUBLIC 'CONST'
rdata$r	ENDS
;	COMDAT ??_R4MObject@@6B@
rdata$r	SEGMENT DWORD USE32 PUBLIC 'CONST'
rdata$r	ENDS
;	COMDAT ??_R4ivfstream@@6B@
rdata$r	SEGMENT DWORD USE32 PUBLIC 'CONST'
rdata$r	ENDS
;	COMDAT ??_R4?$num_put@DV?$ostreambuf_iterator@DV?$char_traits@D@_STL@@@_STL@@@_STL@@6B@
rdata$r	SEGMENT DWORD USE32 PUBLIC 'CONST'
rdata$r	ENDS
;	COMDAT ?_M_deallocate_block@?$_String_base@DV?$allocator@D@_STL@@@_STL@@QAEXXZ
_TEXT	SEGMENT PARA USE32 PUBLIC 'CODE'
_TEXT	ENDS
;	COMDAT ?deallocate@?$allocator@D@_STL@@QAEXPADI@Z
_TEXT	SEGMENT PARA USE32 PUBLIC 'CODE'
_TEXT	ENDS
;	COMDAT ?decimal_point@?$numpunct@D@_STL@@QBEDXZ
_TEXT	SEGMENT PARA USE32 PUBLIC 'CODE'
_TEXT	ENDS
;	COMDAT ?precision@ios_base@_STL@@QBEHXZ
_TEXT	SEGMENT PARA USE32 PUBLIC 'CODE'
_TEXT	ENDS
;	COMDAT ?thousands_sep@?$numpunct@D@_STL@@QBEDXZ
_TEXT	SEGMENT PARA USE32 PUBLIC 'CODE'
_TEXT	ENDS
;	COMDAT ?_M_grouping@ios_base@_STL@@QBEABV?$basic_string@DV?$char_traits@D@_STL@@V?$allocator@D@2@@2@XZ
_TEXT	SEGMENT PARA USE32 PUBLIC 'CODE'
_TEXT	ENDS
;	COMDAT ?good@ios_base@_STL@@QBE_NXZ
_TEXT	SEGMENT PARA USE32 PUBLIC 'CODE'
_TEXT	ENDS
;	COMDAT ?falsename@?$numpunct@D@_STL@@QBE?AV?$basic_string@DV?$char_traits@D@_STL@@V?$allocator@D@2@@2@XZ
_TEXT	SEGMENT PARA USE32 PUBLIC 'CODE'
_TEXT	ENDS
;	COMDAT ?truename@?$numpunct@D@_STL@@QBE?AV?$basic_string@DV?$char_traits@D@_STL@@V?$allocator@D@2@@2@XZ
_TEXT	SEGMENT PARA USE32 PUBLIC 'CODE'
_TEXT	ENDS
;	COMDAT ??0?$basic_string@DV?$char_traits@D@_STL@@V?$allocator@D@2@@_STL@@QAE@ABV01@@Z
_TEXT	SEGMENT PARA USE32 PUBLIC 'CODE'
_TEXT	ENDS
;	COMDAT ??1?$_String_base@DV?$allocator@D@_STL@@@_STL@@QAE@XZ
_TEXT	SEGMENT PARA USE32 PUBLIC 'CODE'
_TEXT	ENDS
;	COMDAT ?_M_numpunct_facet@ios_base@_STL@@QBEPBVfacet@locale@2@XZ
_TEXT	SEGMENT PARA USE32 PUBLIC 'CODE'
_TEXT	ENDS
;	COMDAT ?flags@ios_base@_STL@@QAEHH@Z
_TEXT	SEGMENT PARA USE32 PUBLIC 'CODE'
_TEXT	ENDS
;	COMDAT ?widen@?$ctype@D@_STL@@QBEDD@Z
_TEXT	SEGMENT PARA USE32 PUBLIC 'CODE'
_TEXT	ENDS
;	COMDAT ?setf@ios_base@_STL@@QAEHH@Z
_TEXT	SEGMENT PARA USE32 PUBLIC 'CODE'
_TEXT	ENDS
;	COMDAT ?setf@ios_base@_STL@@QAEHHH@Z
_TEXT	SEGMENT PARA USE32 PUBLIC 'CODE'
_TEXT	ENDS
;	COMDAT ?_M_ctype_facet@ios_base@_STL@@QBEPBVfacet@locale@2@XZ
_TEXT	SEGMENT PARA USE32 PUBLIC 'CODE'
_TEXT	ENDS
;	COMDAT ?id@?$num_put@DV?$ostreambuf_iterator@DV?$char_traits@D@_STL@@@_STL@@@_STL@@2V0locale@2@A
_BSS	SEGMENT DWORD USE32 PUBLIC 'BSS'
_BSS	ENDS
;	COMDAT ?__page_size@_Filebuf_base@_STL@@SAIXZ
_TEXT	SEGMENT PARA USE32 PUBLIC 'CODE'
_TEXT	ENDS
;	COMDAT ?_M_write@?$basic_filebuf@DV?$char_traits@D@_STL@@@_STL@@QAE_NPADH@Z
_TEXT	SEGMENT PARA USE32 PUBLIC 'CODE'
_TEXT	ENDS
;	COMDAT ?unshift@?$codecvt@DDH@_STL@@QBE?AW4result@codecvt_base@2@AAHPAD1AAPAD@Z
_TEXT	SEGMENT PARA USE32 PUBLIC 'CODE'
_TEXT	ENDS
;	COMDAT ?_M_get_exception_mask@ios_base@_STL@@IBEHXZ
_TEXT	SEGMENT PARA USE32 PUBLIC 'CODE'
_TEXT	ENDS
;	COMDAT ?_M_setstate_nothrow@ios_base@_STL@@IAEXH@Z
_TEXT	SEGMENT PARA USE32 PUBLIC 'CODE'
_TEXT	ENDS
;	COMDAT ?width@ios_base@_STL@@QAEHH@Z
_TEXT	SEGMENT PARA USE32 PUBLIC 'CODE'
_TEXT	ENDS
;	COMDAT ?_M_sputnc@?$basic_streambuf@DV?$char_traits@D@_STL@@@_STL@@QAEHDH@Z
_TEXT	SEGMENT PARA USE32 PUBLIC 'CODE'
_TEXT	ENDS
;	COMDAT ?sputc@?$basic_streambuf@DV?$char_traits@D@_STL@@@_STL@@QAEHD@Z
_TEXT	SEGMENT PARA USE32 PUBLIC 'CODE'
_TEXT	ENDS
;	COMDAT ?_FILE_O_avail@_STL@@YAHPBU_iobuf@@@Z
_TEXT	SEGMENT PARA USE32 PUBLIC 'CODE'
_TEXT	ENDS
;	COMDAT ?_FILE_I_avail@_STL@@YAHPBU_iobuf@@@Z
_TEXT	SEGMENT PARA USE32 PUBLIC 'CODE'
_TEXT	ENDS
;	COMDAT ?_FILE_O_postincr@_STL@@YAAADPAU_iobuf@@@Z
_TEXT	SEGMENT PARA USE32 PUBLIC 'CODE'
_TEXT	ENDS
;	COMDAT ?_FILE_I_postincr@_STL@@YAAADPAU_iobuf@@@Z
_TEXT	SEGMENT PARA USE32 PUBLIC 'CODE'
_TEXT	ENDS
;	COMDAT ?to_int_type@?$char_traits@D@_STL@@SAHABD@Z
_TEXT	SEGMENT PARA USE32 PUBLIC 'CODE'
_TEXT	ENDS
;	COMDAT ?width@ios_base@_STL@@QBEHXZ
_TEXT	SEGMENT PARA USE32 PUBLIC 'CODE'
_TEXT	ENDS
;	COMDAT ?uninitialized_copy@_STL@@YAPADPBD0PAD@Z
_TEXT	SEGMENT PARA USE32 PUBLIC 'CODE'
_TEXT	ENDS
;	COMDAT ?pubsync@?$basic_streambuf@DV?$char_traits@D@_STL@@@_STL@@QAEHXZ
_TEXT	SEGMENT PARA USE32 PUBLIC 'CODE'
_TEXT	ENDS
;	COMDAT ?_M_check_exception_mask@ios_base@_STL@@IAEXXZ
_TEXT	SEGMENT PARA USE32 PUBLIC 'CODE'
_TEXT	ENDS
;	COMDAT ?_M_clear_nothrow@ios_base@_STL@@IAEXH@Z
_TEXT	SEGMENT PARA USE32 PUBLIC 'CODE'
_TEXT	ENDS
;	COMDAT ??_7?$num_put@DV?$ostreambuf_iterator@DV?$char_traits@D@_STL@@@_STL@@@_STL@@6B@
CONST	SEGMENT DWORD USE32 PUBLIC 'CONST'
CONST	ENDS
;	COMDAT ?flags@ios_base@_STL@@QBEHXZ
_TEXT	SEGMENT PARA USE32 PUBLIC 'CODE'
_TEXT	ENDS
;	COMDAT ?rdstate@ios_base@_STL@@QBEHXZ
_TEXT	SEGMENT PARA USE32 PUBLIC 'CODE'
_TEXT	ENDS
;	COMDAT ??2@YAPAXIPAX@Z
_TEXT	SEGMENT PARA USE32 PUBLIC 'CODE'
_TEXT	ENDS
;	COMDAT ?getloc@ios_base@_STL@@QBE?AVlocale@2@XZ
_TEXT	SEGMENT PARA USE32 PUBLIC 'CODE'
_TEXT	ENDS
;	COMDAT ?assign@?$char_traits@D@_STL@@SAXAADABD@Z
_TEXT	SEGMENT PARA USE32 PUBLIC 'CODE'
_TEXT	ENDS
;	COMDAT ?always_noconv@?$codecvt@DDH@_STL@@QBE_NXZ
_TEXT	SEGMENT PARA USE32 PUBLIC 'CODE'
_TEXT	ENDS
;	COMDAT ?encoding@?$codecvt@DDH@_STL@@QBEHXZ
_TEXT	SEGMENT PARA USE32 PUBLIC 'CODE'
_TEXT	ENDS
;	COMDAT ?max_length@?$codecvt@DDH@_STL@@QBEHXZ
_TEXT	SEGMENT PARA USE32 PUBLIC 'CODE'
_TEXT	ENDS
;	COMDAT ?__o_mode@_Filebuf_base@_STL@@QBEHXZ
_TEXT	SEGMENT PARA USE32 PUBLIC 'CODE'
_TEXT	ENDS
;	COMDAT ?sputn@?$basic_streambuf@DV?$char_traits@D@_STL@@@_STL@@QAEHPBDH@Z
_TEXT	SEGMENT PARA USE32 PUBLIC 'CODE'
_TEXT	ENDS
;	COMDAT ?deallocate@?$__node_alloc@$00$0A@@_STL@@SAXPAXI@Z
_TEXT	SEGMENT PARA USE32 PUBLIC 'CODE'
_TEXT	ENDS
;	COMDAT ?__stl_delete@_STL@@YAXPAX@Z
_TEXT	SEGMENT PARA USE32 PUBLIC 'CODE'
_TEXT	ENDS
;	COMDAT ?_Destroy@_STL@@YAXPAD0@Z
_TEXT	SEGMENT PARA USE32 PUBLIC 'CODE'
_TEXT	ENDS
;	COMDAT ?deallocate@?$allocator@G@_STL@@QAEXPAGI@Z
_TEXT	SEGMENT PARA USE32 PUBLIC 'CODE'
_TEXT	ENDS
;	COMDAT ??1?$_STLP_alloc_proxy@PAGGV?$allocator@G@_STL@@@_STL@@QAE@XZ
_TEXT	SEGMENT PARA USE32 PUBLIC 'CODE'
_TEXT	ENDS
;	COMDAT ?__copy_trivial@_STL@@YAPAXPBX0PAX@Z
_TEXT	SEGMENT PARA USE32 PUBLIC 'CODE'
_TEXT	ENDS
;	COMDAT ??1?$basic_ios@DV?$char_traits@D@_STL@@@_STL@@UAE@XZ
_TEXT	SEGMENT PARA USE32 PUBLIC 'CODE'
_TEXT	ENDS
;	COMDAT ??_7?$basic_ios@DV?$char_traits@D@_STL@@@_STL@@6B@
CONST	SEGMENT DWORD USE32 PUBLIC 'CONST'
CONST	ENDS
;	COMDAT ??_R4?$basic_ios@DV?$char_traits@D@_STL@@@_STL@@6B@
rdata$r	SEGMENT DWORD USE32 PUBLIC 'CONST'
rdata$r	ENDS
;	COMDAT ??_R3?$basic_ios@DV?$char_traits@D@_STL@@@_STL@@8
rdata$r	SEGMENT DWORD USE32 PUBLIC 'CONST'
rdata$r	ENDS
;	COMDAT ??_R2?$basic_ios@DV?$char_traits@D@_STL@@@_STL@@8
rdata$r	SEGMENT DWORD USE32 PUBLIC 'CONST'
rdata$r	ENDS
;	COMDAT ??_R1A@?0A@A@?$basic_ios@DV?$char_traits@D@_STL@@@_STL@@8
rdata$r	SEGMENT DWORD USE32 PUBLIC 'CONST'
rdata$r	ENDS
;	COMDAT ??_R1A@?0A@A@ios_base@_STL@@8
rdata$r	SEGMENT DWORD USE32 PUBLIC 'CONST'
rdata$r	ENDS
;	COMDAT ??_G?$basic_ios@DV?$char_traits@D@_STL@@@_STL@@UAEPAXI@Z
_TEXT	SEGMENT PARA USE32 PUBLIC 'CODE'
_TEXT	ENDS
;	COMDAT ?_Destroy@_STL@@YAXPAG0@Z
_TEXT	SEGMENT PARA USE32 PUBLIC 'CODE'
_TEXT	ENDS
;	COMDAT ??1?$basic_filebuf@DV?$char_traits@D@_STL@@@_STL@@UAE@XZ
_TEXT	SEGMENT PARA USE32 PUBLIC 'CODE'
_TEXT	ENDS
;	COMDAT ??_7?$basic_filebuf@DV?$char_traits@D@_STL@@@_STL@@6B@
CONST	SEGMENT DWORD USE32 PUBLIC 'CONST'
CONST	ENDS
;	COMDAT ??_R4?$basic_filebuf@DV?$char_traits@D@_STL@@@_STL@@6B@
rdata$r	SEGMENT DWORD USE32 PUBLIC 'CONST'
rdata$r	ENDS
;	COMDAT ??_R0?AV?$basic_filebuf@DV?$char_traits@D@_STL@@@_STL@@@8
_DATA	SEGMENT DWORD USE32 PUBLIC 'DATA'
_DATA	ENDS
;	COMDAT ??_R3?$basic_filebuf@DV?$char_traits@D@_STL@@@_STL@@8
rdata$r	SEGMENT DWORD USE32 PUBLIC 'CONST'
rdata$r	ENDS
;	COMDAT ??_R2?$basic_filebuf@DV?$char_traits@D@_STL@@@_STL@@8
rdata$r	SEGMENT DWORD USE32 PUBLIC 'CONST'
rdata$r	ENDS
;	COMDAT ??_R1A@?0A@A@?$basic_filebuf@DV?$char_traits@D@_STL@@@_STL@@8
rdata$r	SEGMENT DWORD USE32 PUBLIC 'CONST'
rdata$r	ENDS
;	COMDAT ??_R1A@?0A@A@?$basic_streambuf@DV?$char_traits@D@_STL@@@_STL@@8
rdata$r	SEGMENT DWORD USE32 PUBLIC 'CONST'
rdata$r	ENDS
;	COMDAT ??_R0?AV?$basic_streambuf@DV?$char_traits@D@_STL@@@_STL@@@8
_DATA	SEGMENT DWORD USE32 PUBLIC 'DATA'
_DATA	ENDS
;	COMDAT ??_G?$basic_filebuf@DV?$char_traits@D@_STL@@@_STL@@UAEPAXI@Z
_TEXT	SEGMENT PARA USE32 PUBLIC 'CODE'
_TEXT	ENDS
;	COMDAT ?setbuf@?$basic_filebuf@DV?$char_traits@D@_STL@@@_STL@@MAEPAV?$basic_streambuf@DV?$char_traits@D@_STL@@@2@PADH@Z
_TEXT	SEGMENT PARA USE32 PUBLIC 'CODE'
_TEXT	ENDS
;	COMDAT ?seekoff@?$basic_filebuf@DV?$char_traits@D@_STL@@@_STL@@MAE?AV?$fpos@H@2@JHH@Z
_TEXT	SEGMENT PARA USE32 PUBLIC 'CODE'
_TEXT	ENDS
;	COMDAT ?_M_in_binary_mode@_Filebuf_base@_STL@@QBE_NXZ
_TEXT	SEGMENT PARA USE32 PUBLIC 'CODE'
_TEXT	ENDS
;	COMDAT ?length@?$codecvt@DDH@_STL@@QBEHABHPBD1I@Z
_TEXT	SEGMENT PARA USE32 PUBLIC 'CODE'
_TEXT	ENDS
;	COMDAT ?in@?$codecvt@DDH@_STL@@QBE?AW4result@codecvt_base@2@AAHPBD1AAPBDPAD3AAPAD@Z
_TEXT	SEGMENT PARA USE32 PUBLIC 'CODE'
_TEXT	ENDS
;	COMDAT ?eback@?$basic_streambuf@DV?$char_traits@D@_STL@@@_STL@@IBEPADXZ
_TEXT	SEGMENT PARA USE32 PUBLIC 'CODE'
_TEXT	ENDS
;	COMDAT ?_FILE_I_begin@_STL@@YAPADPBU_iobuf@@@Z
_TEXT	SEGMENT PARA USE32 PUBLIC 'CODE'
_TEXT	ENDS
;	COMDAT ?gptr@?$basic_streambuf@DV?$char_traits@D@_STL@@@_STL@@IBEPADXZ
_TEXT	SEGMENT PARA USE32 PUBLIC 'CODE'
_TEXT	ENDS
;	COMDAT ?_FILE_I_next@_STL@@YAPADPBU_iobuf@@@Z
_TEXT	SEGMENT PARA USE32 PUBLIC 'CODE'
_TEXT	ENDS
;	COMDAT ?_M_get_offset@_Filebuf_base@_STL@@QAEJPAD0@Z
_TEXT	SEGMENT PARA USE32 PUBLIC 'CODE'
_TEXT	ENDS
;	COMDAT ??$count@PADD@_STL@@YAHPAD0ABD@Z
_TEXT	SEGMENT PARA USE32 PUBLIC 'CODE'
_TEXT	ENDS
;	COMDAT ?seekpos@?$basic_filebuf@DV?$char_traits@D@_STL@@@_STL@@MAE?AV?$fpos@H@2@V32@H@Z
_TEXT	SEGMENT PARA USE32 PUBLIC 'CODE'
_TEXT	ENDS
;	COMDAT ?sync@?$basic_filebuf@DV?$char_traits@D@_STL@@@_STL@@MAEHXZ
_TEXT	SEGMENT PARA USE32 PUBLIC 'CODE'
_TEXT	ENDS
;	COMDAT ?showmanyc@?$basic_filebuf@DV?$char_traits@D@_STL@@@_STL@@MAEHXZ
_TEXT	SEGMENT PARA USE32 PUBLIC 'CODE'
_TEXT	ENDS
;	COMDAT ?egptr@?$basic_streambuf@DV?$char_traits@D@_STL@@@_STL@@IBEPADXZ
_TEXT	SEGMENT PARA USE32 PUBLIC 'CODE'
_TEXT	ENDS
;	COMDAT ?_FILE_I_end@_STL@@YAPADPBU_iobuf@@@Z
_TEXT	SEGMENT PARA USE32 PUBLIC 'CODE'
_TEXT	ENDS
;	COMDAT ?underflow@?$basic_filebuf@DV?$char_traits@D@_STL@@@_STL@@MAEHXZ
_TEXT	SEGMENT PARA USE32 PUBLIC 'CODE'
_TEXT	ENDS
;	COMDAT ?pbackfail@?$basic_filebuf@DV?$char_traits@D@_STL@@@_STL@@MAEHH@Z
_TEXT	SEGMENT PARA USE32 PUBLIC 'CODE'
_TEXT	ENDS
;	COMDAT ?gbump@?$basic_streambuf@DV?$char_traits@D@_STL@@@_STL@@IAEXH@Z
_TEXT	SEGMENT PARA USE32 PUBLIC 'CODE'
_TEXT	ENDS
;	COMDAT ?_FILE_I_bump@_STL@@YAXPAU_iobuf@@H@Z
_TEXT	SEGMENT PARA USE32 PUBLIC 'CODE'
_TEXT	ENDS
;	COMDAT ?to_char_type@?$char_traits@D@_STL@@SADABH@Z
_TEXT	SEGMENT PARA USE32 PUBLIC 'CODE'
_TEXT	ENDS
;	COMDAT ?overflow@?$basic_filebuf@DV?$char_traits@D@_STL@@@_STL@@MAEHH@Z
_TEXT	SEGMENT PARA USE32 PUBLIC 'CODE'
_TEXT	ENDS
;	COMDAT ?pptr@?$basic_streambuf@DV?$char_traits@D@_STL@@@_STL@@IBEPADXZ
_TEXT	SEGMENT PARA USE32 PUBLIC 'CODE'
_TEXT	ENDS
;	COMDAT ?_FILE_O_next@_STL@@YAPADPBU_iobuf@@@Z
_TEXT	SEGMENT PARA USE32 PUBLIC 'CODE'
_TEXT	ENDS
;	COMDAT ?out@?$codecvt@DDH@_STL@@QBE?AW4result@codecvt_base@2@AAHPBD1AAPBDPAD3AAPAD@Z
_TEXT	SEGMENT PARA USE32 PUBLIC 'CODE'
_TEXT	ENDS
;	COMDAT ?_M_doit@?$_Noconv_output@V?$char_traits@D@_STL@@@_STL@@SA_NPAV?$basic_filebuf@DV?$char_traits@D@_STL@@@2@PAD1@Z
_TEXT	SEGMENT PARA USE32 PUBLIC 'CODE'
_TEXT	ENDS
;	COMDAT ?imbue@?$basic_filebuf@DV?$char_traits@D@_STL@@@_STL@@MAEXABVlocale@2@@Z
_TEXT	SEGMENT PARA USE32 PUBLIC 'CODE'
_TEXT	ENDS
;	COMDAT ??1?$basic_ostream@DV?$char_traits@D@_STL@@@_STL@@UAE@XZ
_TEXT	SEGMENT PARA USE32 PUBLIC 'CODE'
_TEXT	ENDS
;	COMDAT ??_7?$basic_ostream@DV?$char_traits@D@_STL@@@_STL@@6B@
CONST	SEGMENT DWORD USE32 PUBLIC 'CONST'
CONST	ENDS
;	COMDAT ??_R4?$basic_ostream@DV?$char_traits@D@_STL@@@_STL@@6B@
rdata$r	SEGMENT DWORD USE32 PUBLIC 'CONST'
rdata$r	ENDS
;	COMDAT ??_R3?$basic_ostream@DV?$char_traits@D@_STL@@@_STL@@8
rdata$r	SEGMENT DWORD USE32 PUBLIC 'CONST'
rdata$r	ENDS
;	COMDAT ??_R2?$basic_ostream@DV?$char_traits@D@_STL@@@_STL@@8
rdata$r	SEGMENT DWORD USE32 PUBLIC 'CONST'
rdata$r	ENDS
;	COMDAT ??_G?$basic_ostream@DV?$char_traits@D@_STL@@@_STL@@UAEPAXI@Z
_TEXT	SEGMENT PARA USE32 PUBLIC 'CODE'
_TEXT	ENDS
;	COMDAT ??_D?$basic_ostream@DV?$char_traits@D@_STL@@@_STL@@QAEXXZ
_TEXT	SEGMENT PARA USE32 PUBLIC 'CODE'
_TEXT	ENDS
;	COMDAT ??_7?$basic_ofstream@DV?$char_traits@D@_STL@@@_STL@@6B@
CONST	SEGMENT DWORD USE32 PUBLIC 'CONST'
CONST	ENDS
;	COMDAT ?setp@?$basic_streambuf@DV?$char_traits@D@_STL@@@_STL@@IAEXPAD0@Z
_TEXT	SEGMENT PARA USE32 PUBLIC 'CODE'
_TEXT	ENDS
;	COMDAT ?_FILE_O_set@_STL@@YAXPAU_iobuf@@PAD11@Z
_TEXT	SEGMENT PARA USE32 PUBLIC 'CODE'
_TEXT	ENDS
;	COMDAT ?_FILE_I_set@_STL@@YAXPAU_iobuf@@PAD11@Z
_TEXT	SEGMENT PARA USE32 PUBLIC 'CODE'
_TEXT	ENDS
;	COMDAT ?setg@?$basic_streambuf@DV?$char_traits@D@_STL@@@_STL@@IAEXPAD00@Z
_TEXT	SEGMENT PARA USE32 PUBLIC 'CODE'
_TEXT	ENDS
;	COMDAT ?__is_open@_Filebuf_base@_STL@@QBE_NXZ
_TEXT	SEGMENT PARA USE32 PUBLIC 'CODE'
_TEXT	ENDS
;	COMDAT ?allocate@?$__node_alloc@$00$0A@@_STL@@SAPAXI@Z
_TEXT	SEGMENT PARA USE32 PUBLIC 'CODE'
_TEXT	ENDS
;	COMDAT ?__stl_new@_STL@@YAPAXI@Z
_TEXT	SEGMENT PARA USE32 PUBLIC 'CODE'
_TEXT	ENDS
;	COMDAT ??1?$_STLP_alloc_proxy@PADDV?$allocator@D@_STL@@@_STL@@QAE@XZ
_TEXT	SEGMENT PARA USE32 PUBLIC 'CODE'
_TEXT	ENDS
;	COMDAT ?length@?$char_traits@D@_STL@@SAIPBD@Z
_TEXT	SEGMENT PARA USE32 PUBLIC 'CODE'
_TEXT	ENDS
;	COMDAT ??1?$allocator@D@_STL@@QAE@XZ
_TEXT	SEGMENT PARA USE32 PUBLIC 'CODE'
_TEXT	ENDS
;	COMDAT ?eof@?$__char_traits_base@DH@_STL@@SAHXZ
_TEXT	SEGMENT PARA USE32 PUBLIC 'CODE'
_TEXT	ENDS
;	COMDAT ??1?$allocator@G@_STL@@QAE@XZ
_TEXT	SEGMENT PARA USE32 PUBLIC 'CODE'
_TEXT	ENDS
;	COMDAT ??_7MObject@@6B@
CONST	SEGMENT DWORD USE32 PUBLIC 'CONST'
CONST	ENDS
;	COMDAT ??_7ovfstream@@6B@
CONST	SEGMENT DWORD USE32 PUBLIC 'CONST'
CONST	ENDS
;	COMDAT ??_7ivfstream@@6B@
CONST	SEGMENT DWORD USE32 PUBLIC 'CONST'
CONST	ENDS
;	COMDAT ??0?$basic_string@DV?$char_traits@D@_STL@@V?$allocator@D@2@@_STL@@QAE@XZ
_TEXT	SEGMENT PARA USE32 PUBLIC 'CODE'
_TEXT	ENDS
;	COMDAT ??0?$allocator@D@_STL@@QAE@XZ
_TEXT	SEGMENT PARA USE32 PUBLIC 'CODE'
_TEXT	ENDS
;	COMDAT ??1?$basic_string@DV?$char_traits@D@_STL@@V?$allocator@D@2@@_STL@@QAE@XZ
_TEXT	SEGMENT PARA USE32 PUBLIC 'CODE'
_TEXT	ENDS
;	COMDAT ??_7iovfs_base@@6B@
CONST	SEGMENT DWORD USE32 PUBLIC 'CONST'
CONST	ENDS
;	COMDAT ??_7IFileIO@@6B@
CONST	SEGMENT DWORD USE32 PUBLIC 'CONST'
CONST	ENDS
sxdata	SEGMENT DWORD USE32 'SXDATA'
sxdata	ENDS
FLAT	GROUP _DATA, CONST, _BSS
	ASSUME	CS: FLAT, DS: FLAT, SS: FLAT
endif

INCLUDELIB LIBCMT
INCLUDELIB OLDNAMES

PUBLIC	??_C@_0O@JKENFCBN@MinTrace?52003?$AA@		; `string'
PUBLIC	??_C@_0BE@MNEJIGLM@__MinTrace?5Window__?$AA@	; `string'
PUBLIC	?g_pCreatureTable@@3PAV?$CTypeTable@VCREATURETABLE_INFO@@@@A ; g_pCreatureTable
PUBLIC	?g_pCreatureSpriteTypeMapper@@3PAVCreatureSpriteTypeMapper@@A ; g_pCreatureSpriteTypeMapper
_BSS	SEGMENT
?g_pCreatureTable@@3PAV?$CTypeTable@VCREATURETABLE_INFO@@@@A DD 01H DUP (?) ; g_pCreatureTable
?g_pCreatureSpriteTypeMapper@@3PAVCreatureSpriteTypeMapper@@A DD 01H DUP (?) ; g_pCreatureSpriteTypeMapper
_BSS	ENDS
;	COMDAT ??_C@_0O@JKENFCBN@MinTrace?52003?$AA@
CONST	SEGMENT
??_C@_0O@JKENFCBN@MinTrace?52003?$AA@ DB 'MinTrace 2003', 00H ; `string'
CONST	ENDS
_DATA	SEGMENT
_g_pszMinTraceTitle DD FLAT:??_C@_0O@JKENFCBN@MinTrace?52003?$AA@
_DATA	ENDS
;	COMDAT ??_C@_0BE@MNEJIGLM@__MinTrace?5Window__?$AA@
CONST	SEGMENT
??_C@_0BE@MNEJIGLM@__MinTrace?5Window__?$AA@ DB '__MinTrace Window__', 00H ; `string'
CONST	ENDS
_DATA	SEGMENT
_g_pszMinTraceClassName DD FLAT:??_C@_0BE@MNEJIGLM@__MinTrace?5Window__?$AA@
_DATA	ENDS
PUBLIC	??2@YAPAXIPAX@Z					; operator new
; Function compile flags: /Ogsy
; File c:\program files\microsoft visual studio .net 2003\vc7\include\new
;	COMDAT ??2@YAPAXIPAX@Z
_TEXT	SEGMENT
___formal$ = 8						; size = 4
__Where$ = 12						; size = 4
??2@YAPAXIPAX@Z PROC NEAR				; operator new, COMDAT

; 64   : 	return (_Where);

  00000	8b 44 24 08	 mov	 eax, DWORD PTR __Where$[esp-4]

; 65   : 	}

  00004	c3		 ret	 0
??2@YAPAXIPAX@Z ENDP					; operator new
_TEXT	ENDS
PUBLIC	?__stl_new@_STL@@YAPAXI@Z			; _STL::__stl_new
EXTRN	??2@YAPAXI@Z:NEAR				; operator new
; Function compile flags: /Ogsy
; File c:\stlport-4.6.1\stlport\stl\_new.h
;	COMDAT ?__stl_new@_STL@@YAPAXI@Z
_TEXT	SEGMENT
___n$ = 8						; size = 4
?__stl_new@_STL@@YAPAXI@Z PROC NEAR			; _STL::__stl_new, COMDAT

; 86   : inline void*  _STLP_CALL __stl_new(size_t __n)   { _STLP_CHECK_NULL_ALLOC(::operator _STLP_NEW(__n)); }

  00000	e9 00 00 00 00	 jmp	 ??2@YAPAXI@Z		; operator new
?__stl_new@_STL@@YAPAXI@Z ENDP				; _STL::__stl_new
_TEXT	ENDS
PUBLIC	?__stl_delete@_STL@@YAXPAX@Z			; _STL::__stl_delete
EXTRN	??3@YAXPAX@Z:NEAR				; operator delete
; Function compile flags: /Ogsy
;	COMDAT ?__stl_delete@_STL@@YAXPAX@Z
_TEXT	SEGMENT
___p$ = 8						; size = 4
?__stl_delete@_STL@@YAXPAX@Z PROC NEAR			; _STL::__stl_delete, COMDAT

; 87   : inline void   _STLP_CALL __stl_delete(void* __p) { ::operator delete(__p); }

  00000	e9 00 00 00 00	 jmp	 ??3@YAXPAX@Z		; operator delete
?__stl_delete@_STL@@YAXPAX@Z ENDP			; _STL::__stl_delete
_TEXT	ENDS
PUBLIC	?_Destroy@_STL@@YAXPAG0@Z			; _STL::_Destroy
; Function compile flags: /Ogsy
; File c:\stlport-4.6.1\stlport\stl\_construct.h
;	COMDAT ?_Destroy@_STL@@YAXPAG0@Z
_TEXT	SEGMENT
___formal$ = 8						; size = 4
___formal$ = 12						; size = 4
?_Destroy@_STL@@YAXPAG0@Z PROC NEAR			; _STL::_Destroy, COMDAT

; 144  : inline void _Destroy(wchar_t*, wchar_t*) {}

  00000	c3		 ret	 0
?_Destroy@_STL@@YAXPAG0@Z ENDP				; _STL::_Destroy
_TEXT	ENDS
PUBLIC	?__copy_trivial@_STL@@YAPAXPBX0PAX@Z		; _STL::__copy_trivial
EXTRN	_memmove:NEAR
; Function compile flags: /Ogsy
; File c:\stlport-4.6.1\stlport\stl\_algobase.h
;	COMDAT ?__copy_trivial@_STL@@YAPAXPBX0PAX@Z
_TEXT	SEGMENT
___first$ = 8						; size = 4
___last$ = 12						; size = 4
___result$ = 16						; size = 4
?__copy_trivial@_STL@@YAPAXPBX0PAX@Z PROC NEAR		; _STL::__copy_trivial, COMDAT

; 147  : __copy_trivial(const void* __first, const void* __last, void* __result) {

  00000	55		 push	 ebp
  00001	8b ec		 mov	 ebp, esp
  00003	56		 push	 esi

; 148  :   return (__last == __first) ? __result : 
; 149  :     ((char*)memmove(__result, __first, ((const char*)__last - (const char*)__first))) + 
; 150  :     ((const char*)__last - (const char*)__first);

  00004	8b 75 0c	 mov	 esi, DWORD PTR ___last$[ebp]
  00007	3b 75 08	 cmp	 esi, DWORD PTR ___first$[ebp]
  0000a	75 05		 jne	 SHORT $L111063
  0000c	8b 45 10	 mov	 eax, DWORD PTR ___result$[ebp]
  0000f	eb 14		 jmp	 SHORT $L111064
$L111063:
  00011	2b 75 08	 sub	 esi, DWORD PTR ___first$[ebp]
  00014	56		 push	 esi
  00015	ff 75 08	 push	 DWORD PTR ___first$[ebp]
  00018	ff 75 10	 push	 DWORD PTR ___result$[ebp]
  0001b	e8 00 00 00 00	 call	 _memmove
  00020	83 c4 0c	 add	 esp, 12			; 0000000cH
  00023	03 c6		 add	 eax, esi
$L111064:
  00025	5e		 pop	 esi

; 151  : }

  00026	5d		 pop	 ebp
  00027	c3		 ret	 0
?__copy_trivial@_STL@@YAPAXPBX0PAX@Z ENDP		; _STL::__copy_trivial
_TEXT	ENDS
PUBLIC	?read@ivfstream@@QAEXPADI@Z			; ivfstream::read
; Function compile flags: /Ogsy
; File c:\darkeden\designed_common\project\client\virtualfilesystem\vfstream.inl
;	COMDAT ?read@ivfstream@@QAEXPADI@Z
_TEXT	SEGMENT
_buf$ = 8						; size = 4
_len$ = 12						; size = 4
?read@ivfstream@@QAEXPADI@Z PROC NEAR			; ivfstream::read, COMDAT
; _this$ = ecx

; 81   : 	if(m_pFileIO) m_pFileIO->read(buf, len);

  00000	83 79 04 00	 cmp	 DWORD PTR [ecx+4], 0
  00004	74 08		 je	 SHORT $L100689
  00006	8b 49 04	 mov	 ecx, DWORD PTR [ecx+4]
  00009	8b 01		 mov	 eax, DWORD PTR [ecx]
  0000b	ff 60 10	 jmp	 DWORD PTR [eax+16]
$L100689:

; 82   : }

  0000e	c2 08 00	 ret	 8
?read@ivfstream@@QAEXPADI@Z ENDP			; ivfstream::read
_TEXT	ENDS
PUBLIC	?to_int_type@?$char_traits@D@_STL@@SAHABD@Z	; _STL::char_traits<char>::to_int_type
; Function compile flags: /Ogsy
; File c:\stlport-4.6.1\stlport\stl\char_traits.h
;	COMDAT ?to_int_type@?$char_traits@D@_STL@@SAHABD@Z
_TEXT	SEGMENT
___c$ = 8						; size = 4
?to_int_type@?$char_traits@D@_STL@@SAHABD@Z PROC NEAR	; _STL::char_traits<char>::to_int_type, COMDAT

; 232  :     return (unsigned char)__c;

  00000	8b 44 24 04	 mov	 eax, DWORD PTR ___c$[esp-4]
  00004	0f b6 00	 movzx	 eax, BYTE PTR [eax]

; 233  :   }

  00007	c3		 ret	 0
?to_int_type@?$char_traits@D@_STL@@SAHABD@Z ENDP	; _STL::char_traits<char>::to_int_type
_TEXT	ENDS
PUBLIC	?length@?$char_traits@D@_STL@@SAIPBD@Z		; _STL::char_traits<char>::length
EXTRN	_strlen:NEAR
; Function compile flags: /Ogsy
;	COMDAT ?length@?$char_traits@D@_STL@@SAIPBD@Z
_TEXT	SEGMENT
___s$ = 8						; size = 4
?length@?$char_traits@D@_STL@@SAIPBD@Z PROC NEAR	; _STL::char_traits<char>::length, COMDAT

; 238  :   static size_t _STLP_CALL length(const char* __s) { return strlen(__s); }

  00000	e9 00 00 00 00	 jmp	 _strlen
?length@?$char_traits@D@_STL@@SAIPBD@Z ENDP		; _STL::char_traits<char>::length
_TEXT	ENDS
PUBLIC	?GetLength@MString@@QBEIXZ			; MString::GetLength
; Function compile flags: /Ogsy
; File c:\darkeden\designed_common\project\client\mstring.h
;	COMDAT ?GetLength@MString@@QBEIXZ
_TEXT	SEGMENT
?GetLength@MString@@QBEIXZ PROC NEAR			; MString::GetLength, COMDAT
; _this$ = ecx

; 38   : 		size_t		GetLength()	const		{ return m_Length; }

  00000	8b 41 04	 mov	 eax, DWORD PTR [ecx+4]
  00003	c3		 ret	 0
?GetLength@MString@@QBEIXZ ENDP				; MString::GetLength
_TEXT	ENDS
PUBLIC	?GetString@MString@@QBEPADXZ			; MString::GetString
; Function compile flags: /Ogsy
;	COMDAT ?GetString@MString@@QBEPADXZ
_TEXT	SEGMENT
?GetString@MString@@QBEPADXZ PROC NEAR			; MString::GetString, COMDAT
; _this$ = ecx

; 39   : 		char*		GetString() const		{ return m_pString; }

  00000	8b 41 08	 mov	 eax, DWORD PTR [ecx+8]
  00003	c3		 ret	 0
?GetString@MString@@QBEPADXZ ENDP			; MString::GetString
_TEXT	ENDS
PUBLIC	??0ITEM_WEARINFO@@QAE@XZ			; ITEM_WEARINFO::ITEM_WEARINFO
; Function compile flags: /Ogsy
; File c:\darkeden\designed_common\project\client\mcreaturetable.cpp
;	COMDAT ??0ITEM_WEARINFO@@QAE@XZ
_TEXT	SEGMENT
??0ITEM_WEARINFO@@QAE@XZ PROC NEAR			; ITEM_WEARINFO::ITEM_WEARINFO, COMDAT
; _this$ = ecx

; 25   : {

  00000	8b c1		 mov	 eax, ecx

; 26   : 	skinColor = 0;

  00002	33 c9		 xor	 ecx, ecx
  00004	66 89 08	 mov	 WORD PTR [eax], cx

; 27   : 	hairColor = 0;		

  00007	66 89 48 02	 mov	 WORD PTR [eax+2], cx

; 28   : 	jacketColor = 0;

  0000b	66 89 48 04	 mov	 WORD PTR [eax+4], cx

; 29   : 	pantsColor = 0;

  0000f	66 89 48 06	 mov	 WORD PTR [eax+6], cx

; 30   : 	helmetColor = 0;

  00013	66 89 48 08	 mov	 WORD PTR [eax+8], cx

; 31   : 	weaponColor = 0;

  00017	66 89 48 0a	 mov	 WORD PTR [eax+10], cx

; 32   : 	shieldColor = 0;

  0001b	66 89 48 0c	 mov	 WORD PTR [eax+12], cx

; 33   : 	motorcycleColor = 0;

  0001f	66 89 48 0e	 mov	 WORD PTR [eax+14], cx

; 34   : 		
; 35   : 	hair = 0;		

  00023	88 48 10	 mov	 BYTE PTR [eax+16], cl

; 36   : 	jacket = 0;

  00026	88 48 11	 mov	 BYTE PTR [eax+17], cl

; 37   : 	pants = 0;

  00029	88 48 12	 mov	 BYTE PTR [eax+18], cl

; 38   : 	helmet = 0;

  0002c	88 48 13	 mov	 BYTE PTR [eax+19], cl

; 39   : 	weapon = 0;

  0002f	88 48 14	 mov	 BYTE PTR [eax+20], cl

; 40   : 	shield = 0;

  00032	88 48 15	 mov	 BYTE PTR [eax+21], cl

; 41   : 	motorcycle = 0;	

  00035	88 48 16	 mov	 BYTE PTR [eax+22], cl

; 42   : }

  00038	c3		 ret	 0
??0ITEM_WEARINFO@@QAE@XZ ENDP				; ITEM_WEARINFO::ITEM_WEARINFO
_TEXT	ENDS
PUBLIC	?flags@ios_base@_STL@@QBEHXZ			; _STL::ios_base::flags
; Function compile flags: /Ogsy
; File c:\stlport-4.6.1\stlport\stl\_ios_base.h
;	COMDAT ?flags@ios_base@_STL@@QBEHXZ
_TEXT	SEGMENT
?flags@ios_base@_STL@@QBEHXZ PROC NEAR			; _STL::ios_base::flags, COMDAT
; _this$ = ecx

; 115  :   fmtflags flags() const { return _M_fmtflags; }

  00000	8b 41 04	 mov	 eax, DWORD PTR [ecx+4]
  00003	c3		 ret	 0
?flags@ios_base@_STL@@QBEHXZ ENDP			; _STL::ios_base::flags
_TEXT	ENDS
PUBLIC	??4ITEM_WEARINFO@@QAEXABV0@@Z			; ITEM_WEARINFO::operator=
; Function compile flags: /Ogsy
; File c:\darkeden\designed_common\project\client\mcreaturetable.cpp
;	COMDAT ??4ITEM_WEARINFO@@QAEXABV0@@Z
_TEXT	SEGMENT
_info$ = 8						; size = 4
??4ITEM_WEARINFO@@QAEXABV0@@Z PROC NEAR			; ITEM_WEARINFO::operator=, COMDAT
; _this$ = ecx

; 50   : 	skinColor = info.skinColor;

  00000	8b 44 24 04	 mov	 eax, DWORD PTR _info$[esp-4]
  00004	66 8b 10	 mov	 dx, WORD PTR [eax]
  00007	66 89 11	 mov	 WORD PTR [ecx], dx

; 51   : 	hairColor = info.hairColor;		

  0000a	66 8b 50 02	 mov	 dx, WORD PTR [eax+2]
  0000e	66 89 51 02	 mov	 WORD PTR [ecx+2], dx

; 52   : 	jacketColor = info.jacketColor;

  00012	66 8b 50 04	 mov	 dx, WORD PTR [eax+4]
  00016	66 89 51 04	 mov	 WORD PTR [ecx+4], dx

; 53   : 	pantsColor = info.pantsColor;

  0001a	66 8b 50 06	 mov	 dx, WORD PTR [eax+6]
  0001e	66 89 51 06	 mov	 WORD PTR [ecx+6], dx

; 54   : 	helmetColor = info.helmetColor;

  00022	66 8b 50 08	 mov	 dx, WORD PTR [eax+8]
  00026	66 89 51 08	 mov	 WORD PTR [ecx+8], dx

; 55   : 	weaponColor = info.weaponColor;

  0002a	66 8b 50 0a	 mov	 dx, WORD PTR [eax+10]
  0002e	66 89 51 0a	 mov	 WORD PTR [ecx+10], dx

; 56   : 	shieldColor = info.shieldColor;

  00032	66 8b 50 0c	 mov	 dx, WORD PTR [eax+12]
  00036	66 89 51 0c	 mov	 WORD PTR [ecx+12], dx

; 57   : 	motorcycleColor = info.motorcycleColor;

  0003a	66 8b 50 0e	 mov	 dx, WORD PTR [eax+14]
  0003e	66 89 51 0e	 mov	 WORD PTR [ecx+14], dx

; 58   : 		
; 59   : 	hair = info.hair;		

  00042	8a 50 10	 mov	 dl, BYTE PTR [eax+16]
  00045	88 51 10	 mov	 BYTE PTR [ecx+16], dl

; 60   : 	jacket = info.jacket;

  00048	8a 50 11	 mov	 dl, BYTE PTR [eax+17]
  0004b	88 51 11	 mov	 BYTE PTR [ecx+17], dl

; 61   : 	pants = info.pants;

  0004e	8a 50 12	 mov	 dl, BYTE PTR [eax+18]
  00051	88 51 12	 mov	 BYTE PTR [ecx+18], dl

; 62   : 	helmet = info.helmet;

  00054	8a 50 13	 mov	 dl, BYTE PTR [eax+19]
  00057	88 51 13	 mov	 BYTE PTR [ecx+19], dl

; 63   : 	weapon = info.weapon;

  0005a	8a 50 14	 mov	 dl, BYTE PTR [eax+20]
  0005d	88 51 14	 mov	 BYTE PTR [ecx+20], dl

; 64   : 	shield = info.shield;

  00060	8a 50 15	 mov	 dl, BYTE PTR [eax+21]
  00063	88 51 15	 mov	 BYTE PTR [ecx+21], dl

; 65   : 	motorcycle = info.motorcycle;

  00066	8a 40 16	 mov	 al, BYTE PTR [eax+22]
  00069	88 41 16	 mov	 BYTE PTR [ecx+22], al

; 66   : }

  0006c	c2 04 00	 ret	 4
??4ITEM_WEARINFO@@QAEXABV0@@Z ENDP			; ITEM_WEARINFO::operator=
_TEXT	ENDS
PUBLIC	?width@ios_base@_STL@@QBEHXZ			; _STL::ios_base::width
; Function compile flags: /Ogsy
; File c:\stlport-4.6.1\stlport\stl\_ios_base.h
;	COMDAT ?width@ios_base@_STL@@QBEHXZ
_TEXT	SEGMENT
?width@ios_base@_STL@@QBEHXZ PROC NEAR			; _STL::ios_base::width, COMDAT
; _this$ = ecx

; 142  :   streamsize width() const { return _M_width; }

  00000	8b 41 1c	 mov	 eax, DWORD PTR [ecx+28]
  00003	c3		 ret	 0
?width@ios_base@_STL@@QBEHXZ ENDP			; _STL::ios_base::width
_TEXT	ENDS
PUBLIC	?width@ios_base@_STL@@QAEHH@Z			; _STL::ios_base::width
; Function compile flags: /Ogsy
;	COMDAT ?width@ios_base@_STL@@QAEHH@Z
_TEXT	SEGMENT
___newwidth$ = 8					; size = 4
?width@ios_base@_STL@@QAEHH@Z PROC NEAR			; _STL::ios_base::width, COMDAT
; _this$ = ecx

; 144  :     streamsize __tmp = _M_width;
; 145  :     _M_width = __newwidth;

  00000	8b 54 24 04	 mov	 edx, DWORD PTR ___newwidth$[esp-4]
  00004	8b 41 1c	 mov	 eax, DWORD PTR [ecx+28]
  00007	89 51 1c	 mov	 DWORD PTR [ecx+28], edx

; 146  :     return __tmp;
; 147  :   }

  0000a	c2 04 00	 ret	 4
?width@ios_base@_STL@@QAEHH@Z ENDP			; _STL::ios_base::width
_TEXT	ENDS
PUBLIC	?getloc@ios_base@_STL@@QBE?AVlocale@2@XZ	; _STL::ios_base::getloc
EXTRN	??0locale@_STL@@QAE@ABV01@@Z:NEAR		; _STL::locale::locale
; Function compile flags: /Ogsy
;	COMDAT ?getloc@ios_base@_STL@@QBE?AVlocale@2@XZ
_TEXT	SEGMENT
$T111099 = -4						; size = 4
___$ReturnUdt$ = 8					; size = 4
?getloc@ios_base@_STL@@QBE?AVlocale@2@XZ PROC NEAR	; _STL::ios_base::getloc, COMDAT
; _this$ = ecx

; 151  :   locale getloc() const { return _M_locale; }

  00000	55		 push	 ebp
  00001	8b ec		 mov	 ebp, esp
  00003	51		 push	 ecx
  00004	83 65 fc 00	 and	 DWORD PTR $T111099[ebp], 0
  00008	83 c1 20	 add	 ecx, 32			; 00000020H
  0000b	51		 push	 ecx
  0000c	8b 4d 08	 mov	 ecx, DWORD PTR ___$ReturnUdt$[ebp]
  0000f	e8 00 00 00 00	 call	 ??0locale@_STL@@QAE@ABV01@@Z ; _STL::locale::locale
  00014	8b 45 08	 mov	 eax, DWORD PTR ___$ReturnUdt$[ebp]
  00017	c9		 leave
  00018	c2 04 00	 ret	 4
?getloc@ios_base@_STL@@QBE?AVlocale@2@XZ ENDP		; _STL::ios_base::getloc
_TEXT	ENDS
PUBLIC	?rdstate@ios_base@_STL@@QBEHXZ			; _STL::ios_base::rdstate
; Function compile flags: /Ogsy
;	COMDAT ?rdstate@ios_base@_STL@@QBEHXZ
_TEXT	SEGMENT
?rdstate@ios_base@_STL@@QBEHXZ PROC NEAR		; _STL::ios_base::rdstate, COMDAT
; _this$ = ecx

; 178  :   iostate rdstate() const { return _M_iostate; }

  00000	8b 41 08	 mov	 eax, DWORD PTR [ecx+8]
  00003	c3		 ret	 0
?rdstate@ios_base@_STL@@QBEHXZ ENDP			; _STL::ios_base::rdstate
_TEXT	ENDS
PUBLIC	?LoadFromFile@ITEM_WEARINFO@@QAEXAAVivfstream@@@Z ; ITEM_WEARINFO::LoadFromFile
; Function compile flags: /Ogsy
; File c:\darkeden\designed_common\project\client\mcreaturetable.cpp
;	COMDAT ?LoadFromFile@ITEM_WEARINFO@@QAEXAAVivfstream@@@Z
_TEXT	SEGMENT
_file$ = 8						; size = 4
?LoadFromFile@ITEM_WEARINFO@@QAEXAAVivfstream@@@Z PROC NEAR ; ITEM_WEARINFO::LoadFromFile, COMDAT
; _this$ = ecx

; 97   : {

  00000	53		 push	 ebx
  00001	55		 push	 ebp
  00002	56		 push	 esi

; 98   : 	file.read((char*)&skinColor, 2);

  00003	8b 74 24 10	 mov	 esi, DWORD PTR _file$[esp+8]
  00007	57		 push	 edi
  00008	33 ed		 xor	 ebp, ebp
  0000a	39 6e 04	 cmp	 DWORD PTR [esi+4], ebp
  0000d	6a 02		 push	 2
  0000f	8b f9		 mov	 edi, ecx
  00011	5b		 pop	 ebx
  00012	0f 84 88 00 00
	00		 je	 $L111143
  00018	8b 4e 04	 mov	 ecx, DWORD PTR [esi+4]
  0001b	8b 01		 mov	 eax, DWORD PTR [ecx]
  0001d	53		 push	 ebx
  0001e	57		 push	 edi
  0001f	ff 50 10	 call	 DWORD PTR [eax+16]

; 99   : 	file.read((char*)&hairColor, 2);

  00022	39 6e 04	 cmp	 DWORD PTR [esi+4], ebp
  00025	74 79		 je	 SHORT $L111143
  00027	8b 4e 04	 mov	 ecx, DWORD PTR [esi+4]
  0002a	8b 01		 mov	 eax, DWORD PTR [ecx]
  0002c	53		 push	 ebx
  0002d	8d 57 02	 lea	 edx, DWORD PTR [edi+2]
  00030	52		 push	 edx
  00031	ff 50 10	 call	 DWORD PTR [eax+16]

; 100  : 	file.read((char*)&jacketColor, 2);

  00034	39 6e 04	 cmp	 DWORD PTR [esi+4], ebp
  00037	74 67		 je	 SHORT $L111143
  00039	8b 4e 04	 mov	 ecx, DWORD PTR [esi+4]
  0003c	8b 01		 mov	 eax, DWORD PTR [ecx]
  0003e	53		 push	 ebx
  0003f	8d 57 04	 lea	 edx, DWORD PTR [edi+4]
  00042	52		 push	 edx
  00043	ff 50 10	 call	 DWORD PTR [eax+16]

; 101  : 	file.read((char*)&pantsColor, 2);

  00046	39 6e 04	 cmp	 DWORD PTR [esi+4], ebp
  00049	74 55		 je	 SHORT $L111143
  0004b	8b 4e 04	 mov	 ecx, DWORD PTR [esi+4]
  0004e	8b 01		 mov	 eax, DWORD PTR [ecx]
  00050	53		 push	 ebx
  00051	8d 57 06	 lea	 edx, DWORD PTR [edi+6]
  00054	52		 push	 edx
  00055	ff 50 10	 call	 DWORD PTR [eax+16]

; 102  : 	file.read((char*)&helmetColor, 2);

  00058	39 6e 04	 cmp	 DWORD PTR [esi+4], ebp
  0005b	74 43		 je	 SHORT $L111143
  0005d	8b 4e 04	 mov	 ecx, DWORD PTR [esi+4]
  00060	8b 01		 mov	 eax, DWORD PTR [ecx]
  00062	53		 push	 ebx
  00063	8d 57 08	 lea	 edx, DWORD PTR [edi+8]
  00066	52		 push	 edx
  00067	ff 50 10	 call	 DWORD PTR [eax+16]

; 103  : 	file.read((char*)&weaponColor, 2);

  0006a	39 6e 04	 cmp	 DWORD PTR [esi+4], ebp
  0006d	74 31		 je	 SHORT $L111143
  0006f	8b 4e 04	 mov	 ecx, DWORD PTR [esi+4]
  00072	8b 01		 mov	 eax, DWORD PTR [ecx]
  00074	53		 push	 ebx
  00075	8d 57 0a	 lea	 edx, DWORD PTR [edi+10]
  00078	52		 push	 edx
  00079	ff 50 10	 call	 DWORD PTR [eax+16]

; 104  : 	file.read((char*)&shieldColor, 2);

  0007c	39 6e 04	 cmp	 DWORD PTR [esi+4], ebp
  0007f	74 1f		 je	 SHORT $L111143
  00081	8b 4e 04	 mov	 ecx, DWORD PTR [esi+4]
  00084	8b 01		 mov	 eax, DWORD PTR [ecx]
  00086	53		 push	 ebx
  00087	8d 57 0c	 lea	 edx, DWORD PTR [edi+12]
  0008a	52		 push	 edx
  0008b	ff 50 10	 call	 DWORD PTR [eax+16]

; 105  : 	file.read((char*)&motorcycleColor, 2);

  0008e	39 6e 04	 cmp	 DWORD PTR [esi+4], ebp
  00091	74 0d		 je	 SHORT $L111143
  00093	8b 4e 04	 mov	 ecx, DWORD PTR [esi+4]
  00096	8b 01		 mov	 eax, DWORD PTR [ecx]
  00098	53		 push	 ebx
  00099	8d 57 0e	 lea	 edx, DWORD PTR [edi+14]
  0009c	52		 push	 edx
  0009d	ff 50 10	 call	 DWORD PTR [eax+16]
$L111143:

; 106  : 	
; 107  : 	file.read((char*)&hair, 1);

  000a0	33 db		 xor	 ebx, ebx
  000a2	43		 inc	 ebx
  000a3	39 6e 04	 cmp	 DWORD PTR [esi+4], ebp
  000a6	74 79		 je	 SHORT $L111178
  000a8	8b 4e 04	 mov	 ecx, DWORD PTR [esi+4]
  000ab	8b 01		 mov	 eax, DWORD PTR [ecx]
  000ad	53		 push	 ebx
  000ae	8d 57 10	 lea	 edx, DWORD PTR [edi+16]
  000b1	52		 push	 edx
  000b2	ff 50 10	 call	 DWORD PTR [eax+16]

; 108  : 	file.read((char*)&jacket, 1);

  000b5	39 6e 04	 cmp	 DWORD PTR [esi+4], ebp
  000b8	74 67		 je	 SHORT $L111178
  000ba	8b 4e 04	 mov	 ecx, DWORD PTR [esi+4]
  000bd	8b 01		 mov	 eax, DWORD PTR [ecx]
  000bf	53		 push	 ebx
  000c0	8d 57 11	 lea	 edx, DWORD PTR [edi+17]
  000c3	52		 push	 edx
  000c4	ff 50 10	 call	 DWORD PTR [eax+16]

; 109  : 	file.read((char*)&pants, 1);

  000c7	39 6e 04	 cmp	 DWORD PTR [esi+4], ebp
  000ca	74 55		 je	 SHORT $L111178
  000cc	8b 4e 04	 mov	 ecx, DWORD PTR [esi+4]
  000cf	8b 01		 mov	 eax, DWORD PTR [ecx]
  000d1	53		 push	 ebx
  000d2	8d 57 12	 lea	 edx, DWORD PTR [edi+18]
  000d5	52		 push	 edx
  000d6	ff 50 10	 call	 DWORD PTR [eax+16]

; 110  : 	file.read((char*)&helmet, 1);

  000d9	39 6e 04	 cmp	 DWORD PTR [esi+4], ebp
  000dc	74 43		 je	 SHORT $L111178
  000de	8b 4e 04	 mov	 ecx, DWORD PTR [esi+4]
  000e1	8b 01		 mov	 eax, DWORD PTR [ecx]
  000e3	53		 push	 ebx
  000e4	8d 57 13	 lea	 edx, DWORD PTR [edi+19]
  000e7	52		 push	 edx
  000e8	ff 50 10	 call	 DWORD PTR [eax+16]

; 111  : 	file.read((char*)&weapon, 1);

  000eb	39 6e 04	 cmp	 DWORD PTR [esi+4], ebp
  000ee	74 31		 je	 SHORT $L111178
  000f0	8b 4e 04	 mov	 ecx, DWORD PTR [esi+4]
  000f3	8b 01		 mov	 eax, DWORD PTR [ecx]
  000f5	53		 push	 ebx
  000f6	8d 57 14	 lea	 edx, DWORD PTR [edi+20]
  000f9	52		 push	 edx
  000fa	ff 50 10	 call	 DWORD PTR [eax+16]

; 112  : 	file.read((char*)&shield, 1);

  000fd	39 6e 04	 cmp	 DWORD PTR [esi+4], ebp
  00100	74 1f		 je	 SHORT $L111178
  00102	8b 4e 04	 mov	 ecx, DWORD PTR [esi+4]
  00105	8b 01		 mov	 eax, DWORD PTR [ecx]
  00107	53		 push	 ebx
  00108	8d 57 15	 lea	 edx, DWORD PTR [edi+21]
  0010b	52		 push	 edx
  0010c	ff 50 10	 call	 DWORD PTR [eax+16]

; 113  : 	file.read((char*)&motorcycle, 1);

  0010f	39 6e 04	 cmp	 DWORD PTR [esi+4], ebp
  00112	74 0d		 je	 SHORT $L111178
  00114	8b 4e 04	 mov	 ecx, DWORD PTR [esi+4]
  00117	8b 01		 mov	 eax, DWORD PTR [ecx]
  00119	53		 push	 ebx
  0011a	83 c7 16	 add	 edi, 22			; 00000016H
  0011d	57		 push	 edi
  0011e	ff 50 10	 call	 DWORD PTR [eax+16]
$L111178:
  00121	5f		 pop	 edi
  00122	5e		 pop	 esi
  00123	5d		 pop	 ebp
  00124	5b		 pop	 ebx

; 114  : }

  00125	c2 04 00	 ret	 4
?LoadFromFile@ITEM_WEARINFO@@QAEXAAVivfstream@@@Z ENDP	; ITEM_WEARINFO::LoadFromFile
_TEXT	ENDS
PUBLIC	?good@ios_base@_STL@@QBE_NXZ			; _STL::ios_base::good
; Function compile flags: /Ogsy
; File c:\stlport-4.6.1\stlport\stl\_ios_base.h
;	COMDAT ?good@ios_base@_STL@@QBE_NXZ
_TEXT	SEGMENT
?good@ios_base@_STL@@QBE_NXZ PROC NEAR			; _STL::ios_base::good, COMDAT
; _this$ = ecx

; 180  :   bool good() const { return _M_iostate == 0; }

  00000	33 c0		 xor	 eax, eax
  00002	39 41 08	 cmp	 DWORD PTR [ecx+8], eax
  00005	0f 94 c0	 sete	 al
  00008	c3		 ret	 0
?good@ios_base@_STL@@QBE_NXZ ENDP			; _STL::ios_base::good
_TEXT	ENDS
PUBLIC	?_M_setstate_nothrow@ios_base@_STL@@IAEXH@Z	; _STL::ios_base::_M_setstate_nothrow
; Function compile flags: /Ogsy
;	COMDAT ?_M_setstate_nothrow@ios_base@_STL@@IAEXH@Z
_TEXT	SEGMENT
___state$ = 8						; size = 4
?_M_setstate_nothrow@ios_base@_STL@@IAEXH@Z PROC NEAR	; _STL::ios_base::_M_setstate_nothrow, COMDAT
; _this$ = ecx

; 193  :   void _M_setstate_nothrow(iostate __state) { _M_iostate |= __state; }

  00000	8b 44 24 04	 mov	 eax, DWORD PTR ___state$[esp-4]
  00004	09 41 08	 or	 DWORD PTR [ecx+8], eax
  00007	c2 04 00	 ret	 4
?_M_setstate_nothrow@ios_base@_STL@@IAEXH@Z ENDP	; _STL::ios_base::_M_setstate_nothrow
_TEXT	ENDS
PUBLIC	?_M_clear_nothrow@ios_base@_STL@@IAEXH@Z	; _STL::ios_base::_M_clear_nothrow
; Function compile flags: /Ogsy
;	COMDAT ?_M_clear_nothrow@ios_base@_STL@@IAEXH@Z
_TEXT	SEGMENT
___state$ = 8						; size = 4
?_M_clear_nothrow@ios_base@_STL@@IAEXH@Z PROC NEAR	; _STL::ios_base::_M_clear_nothrow, COMDAT
; _this$ = ecx

; 194  :   void _M_clear_nothrow(iostate __state) { _M_iostate = __state; }

  00000	8b 44 24 04	 mov	 eax, DWORD PTR ___state$[esp-4]
  00004	89 41 08	 mov	 DWORD PTR [ecx+8], eax
  00007	c2 04 00	 ret	 4
?_M_clear_nothrow@ios_base@_STL@@IAEXH@Z ENDP		; _STL::ios_base::_M_clear_nothrow
_TEXT	ENDS
PUBLIC	?_M_get_exception_mask@ios_base@_STL@@IBEHXZ	; _STL::ios_base::_M_get_exception_mask
; Function compile flags: /Ogsy
;	COMDAT ?_M_get_exception_mask@ios_base@_STL@@IBEHXZ
_TEXT	SEGMENT
?_M_get_exception_mask@ios_base@_STL@@IBEHXZ PROC NEAR	; _STL::ios_base::_M_get_exception_mask, COMDAT
; _this$ = ecx

; 195  :   iostate _M_get_exception_mask() const { return _M_exception_mask; }

  00000	8b 41 14	 mov	 eax, DWORD PTR [ecx+20]
  00003	c3		 ret	 0
?_M_get_exception_mask@ios_base@_STL@@IBEHXZ ENDP	; _STL::ios_base::_M_get_exception_mask
_TEXT	ENDS
PUBLIC	?_M_check_exception_mask@ios_base@_STL@@IAEXXZ	; _STL::ios_base::_M_check_exception_mask
EXTRN	?_M_throw_failure@ios_base@_STL@@IAEXXZ:NEAR	; _STL::ios_base::_M_throw_failure
; Function compile flags: /Ogsy
;	COMDAT ?_M_check_exception_mask@ios_base@_STL@@IAEXXZ
_TEXT	SEGMENT
?_M_check_exception_mask@ios_base@_STL@@IAEXXZ PROC NEAR ; _STL::ios_base::_M_check_exception_mask, COMDAT
; _this$ = ecx

; 198  :     if (_M_iostate & _M_exception_mask)

  00000	8b 41 14	 mov	 eax, DWORD PTR [ecx+20]
  00003	85 41 08	 test	 eax, DWORD PTR [ecx+8]
  00006	74 05		 je	 SHORT $L79498

; 199  :       _M_throw_failure(); 

  00008	e9 00 00 00 00	 jmp	 ?_M_throw_failure@ios_base@_STL@@IAEXXZ ; _STL::ios_base::_M_throw_failure
$L79498:

; 200  :   }

  0000d	c3		 ret	 0
?_M_check_exception_mask@ios_base@_STL@@IAEXXZ ENDP	; _STL::ios_base::_M_check_exception_mask
_TEXT	ENDS
PUBLIC	?_FILE_I_avail@_STL@@YAHPBU_iobuf@@@Z		; _STL::_FILE_I_avail
; Function compile flags: /Ogsy
; File c:\stlport-4.6.1\stlport\stl\_stdio_file.h
;	COMDAT ?_FILE_I_avail@_STL@@YAHPBU_iobuf@@@Z
_TEXT	SEGMENT
___f$ = 8						; size = 4
?_FILE_I_avail@_STL@@YAHPBU_iobuf@@@Z PROC NEAR		; _STL::_FILE_I_avail, COMDAT

; 103  : inline ptrdiff_t _FILE_I_avail(const FILE *__f) { return __f->_cnt; }

  00000	8b 44 24 04	 mov	 eax, DWORD PTR ___f$[esp-4]
  00004	8b 40 04	 mov	 eax, DWORD PTR [eax+4]
  00007	c3		 ret	 0
?_FILE_I_avail@_STL@@YAHPBU_iobuf@@@Z ENDP		; _STL::_FILE_I_avail
_TEXT	ENDS
PUBLIC	?_FILE_I_postincr@_STL@@YAAADPAU_iobuf@@@Z	; _STL::_FILE_I_postincr
; Function compile flags: /Ogsy
;	COMDAT ?_FILE_I_postincr@_STL@@YAAADPAU_iobuf@@@Z
_TEXT	SEGMENT
___f$ = 8						; size = 4
?_FILE_I_postincr@_STL@@YAAADPAU_iobuf@@@Z PROC NEAR	; _STL::_FILE_I_postincr, COMDAT

; 108  :   { --__f->_cnt; return *(char*) (__f->_ptr++); }

  00000	8b 4c 24 04	 mov	 ecx, DWORD PTR ___f$[esp-4]
  00004	8b 01		 mov	 eax, DWORD PTR [ecx]
  00006	ff 49 04	 dec	 DWORD PTR [ecx+4]
  00009	8d 50 01	 lea	 edx, DWORD PTR [eax+1]
  0000c	89 11		 mov	 DWORD PTR [ecx], edx
  0000e	c3		 ret	 0
?_FILE_I_postincr@_STL@@YAAADPAU_iobuf@@@Z ENDP		; _STL::_FILE_I_postincr
_TEXT	ENDS
PUBLIC	?_FILE_O_avail@_STL@@YAHPBU_iobuf@@@Z		; _STL::_FILE_O_avail
; Function compile flags: /Ogsy
;	COMDAT ?_FILE_O_avail@_STL@@YAHPBU_iobuf@@@Z
_TEXT	SEGMENT
___f$ = 8						; size = 4
?_FILE_O_avail@_STL@@YAHPBU_iobuf@@@Z PROC NEAR		; _STL::_FILE_O_avail, COMDAT

; 736  : inline ptrdiff_t _FILE_O_avail(const FILE *__f) { return _FILE_I_avail(__f); }

  00000	8b 44 24 04	 mov	 eax, DWORD PTR ___f$[esp-4]
  00004	8b 40 04	 mov	 eax, DWORD PTR [eax+4]
  00007	c3		 ret	 0
?_FILE_O_avail@_STL@@YAHPBU_iobuf@@@Z ENDP		; _STL::_FILE_O_avail
_TEXT	ENDS
PUBLIC	?_FILE_O_postincr@_STL@@YAAADPAU_iobuf@@@Z	; _STL::_FILE_O_postincr
; Function compile flags: /Ogsy
;	COMDAT ?_FILE_O_postincr@_STL@@YAAADPAU_iobuf@@@Z
_TEXT	SEGMENT
___f$ = 8						; size = 4
?_FILE_O_postincr@_STL@@YAAADPAU_iobuf@@@Z PROC NEAR	; _STL::_FILE_O_postincr, COMDAT

; 739  : inline char& _FILE_O_postincr(FILE *__f) { return _FILE_I_postincr(__f); }

  00000	8b 4c 24 04	 mov	 ecx, DWORD PTR ___f$[esp-4]
  00004	8b 01		 mov	 eax, DWORD PTR [ecx]
  00006	ff 49 04	 dec	 DWORD PTR [ecx+4]
  00009	8d 50 01	 lea	 edx, DWORD PTR [eax+1]
  0000c	89 11		 mov	 DWORD PTR [ecx], edx
  0000e	c3		 ret	 0
?_FILE_O_postincr@_STL@@YAAADPAU_iobuf@@@Z ENDP		; _STL::_FILE_O_postincr
_TEXT	ENDS
PUBLIC	?pubsync@?$basic_streambuf@DV?$char_traits@D@_STL@@@_STL@@QAEHXZ ; _STL::basic_streambuf<char,_STL::char_traits<char> >::pubsync
; Function compile flags: /Ogsy
; File c:\stlport-4.6.1\stlport\stl\_streambuf.h
;	COMDAT ?pubsync@?$basic_streambuf@DV?$char_traits@D@_STL@@@_STL@@QAEHXZ
_TEXT	SEGMENT
?pubsync@?$basic_streambuf@DV?$char_traits@D@_STL@@@_STL@@QAEHXZ PROC NEAR ; _STL::basic_streambuf<char,_STL::char_traits<char> >::pubsync, COMDAT
; _this$ = ecx

; 411  :   int pubsync() { return this->sync(); }

  00000	8b 01		 mov	 eax, DWORD PTR [ecx]
  00002	ff 60 10	 jmp	 DWORD PTR [eax+16]
?pubsync@?$basic_streambuf@DV?$char_traits@D@_STL@@@_STL@@QAEHXZ ENDP ; _STL::basic_streambuf<char,_STL::char_traits<char> >::pubsync
_TEXT	ENDS
PUBLIC	?sputc@?$basic_streambuf@DV?$char_traits@D@_STL@@@_STL@@QAEHD@Z ; _STL::basic_streambuf<char,_STL::char_traits<char> >::sputc
; Function compile flags: /Ogsy
;	COMDAT ?sputc@?$basic_streambuf@DV?$char_traits@D@_STL@@@_STL@@QAEHD@Z
_TEXT	SEGMENT
___c$ = 8						; size = 1
?sputc@?$basic_streambuf@DV?$char_traits@D@_STL@@@_STL@@QAEHD@Z PROC NEAR ; _STL::basic_streambuf<char,_STL::char_traits<char> >::sputc, COMDAT
; _this$ = ecx

; 428  :     int_type __res;
; 429  : 	if( _FILE_O_avail(_M_put) > 0 )

  00000	8b 41 08	 mov	 eax, DWORD PTR [ecx+8]
  00003	83 78 04 00	 cmp	 DWORD PTR [eax+4], 0
  00007	7e 15		 jle	 SHORT $L81027

; 430  : 	{
; 431  : 		_FILE_O_postincr(_M_put) = __c;

  00009	8b 08		 mov	 ecx, DWORD PTR [eax]
  0000b	ff 48 04	 dec	 DWORD PTR [eax+4]
  0000e	8d 51 01	 lea	 edx, DWORD PTR [ecx+1]
  00011	89 10		 mov	 DWORD PTR [eax], edx
  00013	8a 44 24 04	 mov	 al, BYTE PTR ___c$[esp-4]
  00017	88 01		 mov	 BYTE PTR [ecx], al

; 432  : 		__res = traits_type::to_int_type(__c);

  00019	0f b6 c0	 movzx	 eax, al

; 433  : 	}
; 434  : 	else

  0001c	eb 0b		 jmp	 SHORT $L81028
$L81027:

; 435  :       __res = this->overflow(traits_type::to_int_type(__c));

  0001e	0f b6 54 24 04	 movzx	 edx, BYTE PTR ___c$[esp-4]
  00023	8b 01		 mov	 eax, DWORD PTR [ecx]
  00025	52		 push	 edx
  00026	ff 50 30	 call	 DWORD PTR [eax+48]
$L81028:

; 436  :     return __res;
; 437  :   }

  00029	c2 04 00	 ret	 4
?sputc@?$basic_streambuf@DV?$char_traits@D@_STL@@@_STL@@QAEHD@Z ENDP ; _STL::basic_streambuf<char,_STL::char_traits<char> >::sputc
_TEXT	ENDS
PUBLIC	?sputn@?$basic_streambuf@DV?$char_traits@D@_STL@@@_STL@@QAEHPBDH@Z ; _STL::basic_streambuf<char,_STL::char_traits<char> >::sputn
; Function compile flags: /Ogsy
;	COMDAT ?sputn@?$basic_streambuf@DV?$char_traits@D@_STL@@@_STL@@QAEHPBDH@Z
_TEXT	SEGMENT
___s$ = 8						; size = 4
___n$ = 12						; size = 4
?sputn@?$basic_streambuf@DV?$char_traits@D@_STL@@@_STL@@QAEHPBDH@Z PROC NEAR ; _STL::basic_streambuf<char,_STL::char_traits<char> >::sputn, COMDAT
; _this$ = ecx

; 441  :     { return this->xsputn(__s, __n); }

  00000	8b 01		 mov	 eax, DWORD PTR [ecx]
  00002	ff 60 28	 jmp	 DWORD PTR [eax+40]
?sputn@?$basic_streambuf@DV?$char_traits@D@_STL@@@_STL@@QAEHPBDH@Z ENDP ; _STL::basic_streambuf<char,_STL::char_traits<char> >::sputn
_TEXT	ENDS
PUBLIC	?_M_sputnc@?$basic_streambuf@DV?$char_traits@D@_STL@@@_STL@@QAEHDH@Z ; _STL::basic_streambuf<char,_STL::char_traits<char> >::_M_sputnc
; Function compile flags: /Ogsy
;	COMDAT ?_M_sputnc@?$basic_streambuf@DV?$char_traits@D@_STL@@@_STL@@QAEHDH@Z
_TEXT	SEGMENT
___c$ = 8						; size = 1
___n$ = 12						; size = 4
?_M_sputnc@?$basic_streambuf@DV?$char_traits@D@_STL@@@_STL@@QAEHDH@Z PROC NEAR ; _STL::basic_streambuf<char,_STL::char_traits<char> >::_M_sputnc, COMDAT
; _this$ = ecx

; 445  :     { return this->_M_xsputnc(__c, __n); }

  00000	8b 01		 mov	 eax, DWORD PTR [ecx]
  00002	ff 60 2c	 jmp	 DWORD PTR [eax+44]
?_M_sputnc@?$basic_streambuf@DV?$char_traits@D@_STL@@@_STL@@QAEHDH@Z ENDP ; _STL::basic_streambuf<char,_STL::char_traits<char> >::_M_sputnc
_TEXT	ENDS
PUBLIC	?eq_int_type@?$__char_traits_base@DH@_STL@@SA_NABH0@Z ; _STL::__char_traits_base<char,int>::eq_int_type
; Function compile flags: /Ogsy
; File c:\stlport-4.6.1\stlport\stl\char_traits.h
;	COMDAT ?eq_int_type@?$__char_traits_base@DH@_STL@@SA_NABH0@Z
_TEXT	SEGMENT
___c1$ = 8						; size = 4
___c2$ = 12						; size = 4
?eq_int_type@?$__char_traits_base@DH@_STL@@SA_NABH0@Z PROC NEAR ; _STL::__char_traits_base<char,int>::eq_int_type, COMDAT

; 193  :     return __c1 == __c2;

  00000	8b 44 24 04	 mov	 eax, DWORD PTR ___c1$[esp-4]
  00004	8b 00		 mov	 eax, DWORD PTR [eax]
  00006	8b 4c 24 08	 mov	 ecx, DWORD PTR ___c2$[esp-4]
  0000a	2b 01		 sub	 eax, DWORD PTR [ecx]
  0000c	f7 d8		 neg	 eax
  0000e	1b c0		 sbb	 eax, eax
  00010	40		 inc	 eax

; 194  :   }

  00011	c3		 ret	 0
?eq_int_type@?$__char_traits_base@DH@_STL@@SA_NABH0@Z ENDP ; _STL::__char_traits_base<char,int>::eq_int_type
_TEXT	ENDS
PUBLIC	??0?$allocator@G@_STL@@QAE@XZ			; _STL::allocator<unsigned short>::allocator<unsigned short>
; Function compile flags: /Ogsy
; File c:\stlport-4.6.1\stlport\stl\_alloc.h
;	COMDAT ??0?$allocator@G@_STL@@QAE@XZ
_TEXT	SEGMENT
??0?$allocator@G@_STL@@QAE@XZ PROC NEAR			; _STL::allocator<unsigned short>::allocator<unsigned short>, COMDAT
; _this$ = ecx

; 345  :   allocator() _STLP_NOTHROW {}

  00000	8b c1		 mov	 eax, ecx
  00002	c3		 ret	 0
??0?$allocator@G@_STL@@QAE@XZ ENDP			; _STL::allocator<unsigned short>::allocator<unsigned short>
_TEXT	ENDS
PUBLIC	?GetSize@?$CTypeTable@H@@QBEHXZ			; CTypeTable<int>::GetSize
; Function compile flags: /Ogsy
; File c:\darkeden\designed_common\project\client\ctypetable.h
;	COMDAT ?GetSize@?$CTypeTable@H@@QBEHXZ
_TEXT	SEGMENT
?GetSize@?$CTypeTable@H@@QBEHXZ PROC NEAR		; CTypeTable<int>::GetSize, COMDAT
; _this$ = ecx

; 32   : 		int				GetSize() const		{ return m_Size; }

  00000	8b 01		 mov	 eax, DWORD PTR [ecx]
  00002	c3		 ret	 0
?GetSize@?$CTypeTable@H@@QBEHXZ ENDP			; CTypeTable<int>::GetSize
_TEXT	ENDS
PUBLIC	??A?$CTypeTable@H@@QBEABHH@Z			; CTypeTable<int>::operator[]
; Function compile flags: /Ogsy
;	COMDAT ??A?$CTypeTable@H@@QBEABHH@Z
_TEXT	SEGMENT
_type$ = 8						; size = 4
??A?$CTypeTable@H@@QBEABHH@Z PROC NEAR			; CTypeTable<int>::operator[], COMDAT
; _this$ = ecx

; 37   : 		const Type&	operator [] (int type) const	{ return m_pTypeInfo[type]; }

  00000	8b 41 04	 mov	 eax, DWORD PTR [ecx+4]
  00003	8b 4c 24 04	 mov	 ecx, DWORD PTR _type$[esp-4]
  00007	8d 04 88	 lea	 eax, DWORD PTR [eax+ecx*4]
  0000a	c2 04 00	 ret	 4
??A?$CTypeTable@H@@QBEABHH@Z ENDP			; CTypeTable<int>::operator[]
_TEXT	ENDS
PUBLIC	??A?$CTypeTable@H@@QAEAAHH@Z			; CTypeTable<int>::operator[]
; Function compile flags: /Ogsy
;	COMDAT ??A?$CTypeTable@H@@QAEAAHH@Z
_TEXT	SEGMENT
_type$ = 8						; size = 4
??A?$CTypeTable@H@@QAEAAHH@Z PROC NEAR			; CTypeTable<int>::operator[], COMDAT
; _this$ = ecx

; 38   : 		Type&	operator [] (int type)				{ return m_pTypeInfo[type]; }

  00000	8b 41 04	 mov	 eax, DWORD PTR [ecx+4]
  00003	8b 4c 24 04	 mov	 ecx, DWORD PTR _type$[esp-4]
  00007	8d 04 88	 lea	 eax, DWORD PTR [eax+ecx*4]
  0000a	c2 04 00	 ret	 4
??A?$CTypeTable@H@@QAEAAHH@Z ENDP			; CTypeTable<int>::operator[]
_TEXT	ENDS
PUBLIC	?capacity@?$vector@PAV?$vector@GV?$allocator@G@_STL@@@_STL@@V?$allocator@PAV?$vector@GV?$allocator@G@_STL@@@_STL@@@2@@_STL@@QBEIXZ ; _STL::vector<_STL::vector<unsigned short,_STL::allocator<unsigned short> > *,_STL::allocator<_STL::vector<unsigned short,_STL::allocator<unsigned short> > *> >::capacity
; Function compile flags: /Ogsy
; File c:\stlport-4.6.1\stlport\stl\_vector.h
;	COMDAT ?capacity@?$vector@PAV?$vector@GV?$allocator@G@_STL@@@_STL@@V?$allocator@PAV?$vector@GV?$allocator@G@_STL@@@_STL@@@2@@_STL@@QBEIXZ
_TEXT	SEGMENT
?capacity@?$vector@PAV?$vector@GV?$allocator@G@_STL@@@_STL@@V?$allocator@PAV?$vector@GV?$allocator@G@_STL@@@_STL@@@2@@_STL@@QBEIXZ PROC NEAR ; _STL::vector<_STL::vector<unsigned short,_STL::allocator<unsigned short> > *,_STL::allocator<_STL::vector<unsigned short,_STL::allocator<unsigned short> > *> >::capacity, COMDAT
; _this$ = ecx

; 184  :   size_type capacity() const    { return size_type(this->_M_end_of_storage._M_data - this->_M_start); }

  00000	8b 41 08	 mov	 eax, DWORD PTR [ecx+8]
  00003	2b 01		 sub	 eax, DWORD PTR [ecx]
  00005	c1 f8 02	 sar	 eax, 2
  00008	c3		 ret	 0
?capacity@?$vector@PAV?$vector@GV?$allocator@G@_STL@@@_STL@@V?$allocator@PAV?$vector@GV?$allocator@G@_STL@@@_STL@@@2@@_STL@@QBEIXZ ENDP ; _STL::vector<_STL::vector<unsigned short,_STL::allocator<unsigned short> > *,_STL::allocator<_STL::vector<unsigned short,_STL::allocator<unsigned short> > *> >::capacity
_TEXT	ENDS
PUBLIC	??0?$allocator@PAV?$vector@GV?$allocator@G@_STL@@@_STL@@@_STL@@QAE@XZ ; _STL::allocator<_STL::vector<unsigned short,_STL::allocator<unsigned short> > *>::allocator<_STL::vector<unsigned short,_STL::allocator<unsigned short> > *>
; Function compile flags: /Ogsy
; File c:\stlport-4.6.1\stlport\stl\_alloc.h
;	COMDAT ??0?$allocator@PAV?$vector@GV?$allocator@G@_STL@@@_STL@@@_STL@@QAE@XZ
_TEXT	SEGMENT
??0?$allocator@PAV?$vector@GV?$allocator@G@_STL@@@_STL@@@_STL@@QAE@XZ PROC NEAR ; _STL::allocator<_STL::vector<unsigned short,_STL::allocator<unsigned short> > *>::allocator<_STL::vector<unsigned short,_STL::allocator<unsigned short> > *>, COMDAT
; _this$ = ecx

; 345  :   allocator() _STLP_NOTHROW {}

  00000	8b c1		 mov	 eax, ecx
  00002	c3		 ret	 0
??0?$allocator@PAV?$vector@GV?$allocator@G@_STL@@@_STL@@@_STL@@QAE@XZ ENDP ; _STL::allocator<_STL::vector<unsigned short,_STL::allocator<unsigned short> > *>::allocator<_STL::vector<unsigned short,_STL::allocator<unsigned short> > *>
_TEXT	ENDS
PUBLIC	??1?$allocator@PAV?$vector@GV?$allocator@G@_STL@@@_STL@@@_STL@@QAE@XZ ; _STL::allocator<_STL::vector<unsigned short,_STL::allocator<unsigned short> > *>::~allocator<_STL::vector<unsigned short,_STL::allocator<unsigned short> > *>
; Function compile flags: /Ogsy
;	COMDAT ??1?$allocator@PAV?$vector@GV?$allocator@G@_STL@@@_STL@@@_STL@@QAE@XZ
_TEXT	SEGMENT
??1?$allocator@PAV?$vector@GV?$allocator@G@_STL@@@_STL@@@_STL@@QAE@XZ PROC NEAR ; _STL::allocator<_STL::vector<unsigned short,_STL::allocator<unsigned short> > *>::~allocator<_STL::vector<unsigned short,_STL::allocator<unsigned short> > *>, COMDAT
; _this$ = ecx

; 350  :   ~allocator() _STLP_NOTHROW {}

  00000	c3		 ret	 0
??1?$allocator@PAV?$vector@GV?$allocator@G@_STL@@@_STL@@@_STL@@QAE@XZ ENDP ; _STL::allocator<_STL::vector<unsigned short,_STL::allocator<unsigned short> > *>::~allocator<_STL::vector<unsigned short,_STL::allocator<unsigned short> > *>
_TEXT	ENDS
PUBLIC	?size@?$vector@GV?$allocator@G@_STL@@@_STL@@QBEIXZ ; _STL::vector<unsigned short,_STL::allocator<unsigned short> >::size
; Function compile flags: /Ogsy
; File c:\stlport-4.6.1\stlport\stl\_vector.h
;	COMDAT ?size@?$vector@GV?$allocator@G@_STL@@@_STL@@QBEIXZ
_TEXT	SEGMENT
?size@?$vector@GV?$allocator@G@_STL@@@_STL@@QBEIXZ PROC NEAR ; _STL::vector<unsigned short,_STL::allocator<unsigned short> >::size, COMDAT
; _this$ = ecx

; 182  :   size_type size() const        { return size_type(this->_M_finish - this->_M_start); }

  00000	8b 41 04	 mov	 eax, DWORD PTR [ecx+4]
  00003	2b 01		 sub	 eax, DWORD PTR [ecx]
  00005	d1 f8		 sar	 eax, 1
  00007	c3		 ret	 0
?size@?$vector@GV?$allocator@G@_STL@@@_STL@@QBEIXZ ENDP	; _STL::vector<unsigned short,_STL::allocator<unsigned short> >::size
_TEXT	ENDS
PUBLIC	?capacity@?$vector@GV?$allocator@G@_STL@@@_STL@@QBEIXZ ; _STL::vector<unsigned short,_STL::allocator<unsigned short> >::capacity
; Function compile flags: /Ogsy
;	COMDAT ?capacity@?$vector@GV?$allocator@G@_STL@@@_STL@@QBEIXZ
_TEXT	SEGMENT
?capacity@?$vector@GV?$allocator@G@_STL@@@_STL@@QBEIXZ PROC NEAR ; _STL::vector<unsigned short,_STL::allocator<unsigned short> >::capacity, COMDAT
; _this$ = ecx

; 184  :   size_type capacity() const    { return size_type(this->_M_end_of_storage._M_data - this->_M_start); }

  00000	8b 41 08	 mov	 eax, DWORD PTR [ecx+8]
  00003	2b 01		 sub	 eax, DWORD PTR [ecx]
  00005	d1 f8		 sar	 eax, 1
  00007	c3		 ret	 0
?capacity@?$vector@GV?$allocator@G@_STL@@@_STL@@QBEIXZ ENDP ; _STL::vector<unsigned short,_STL::allocator<unsigned short> >::capacity
_TEXT	ENDS
PUBLIC	?begin@?$vector@PAV?$vector@GV?$allocator@G@_STL@@@_STL@@V?$allocator@PAV?$vector@GV?$allocator@G@_STL@@@_STL@@@2@@_STL@@QAEPAPAV?$vector@GV?$allocator@G@_STL@@@2@XZ ; _STL::vector<_STL::vector<unsigned short,_STL::allocator<unsigned short> > *,_STL::allocator<_STL::vector<unsigned short,_STL::allocator<unsigned short> > *> >::begin
; Function compile flags: /Ogsy
;	COMDAT ?begin@?$vector@PAV?$vector@GV?$allocator@G@_STL@@@_STL@@V?$allocator@PAV?$vector@GV?$allocator@G@_STL@@@_STL@@@2@@_STL@@QAEPAPAV?$vector@GV?$allocator@G@_STL@@@2@XZ
_TEXT	SEGMENT
?begin@?$vector@PAV?$vector@GV?$allocator@G@_STL@@@_STL@@V?$allocator@PAV?$vector@GV?$allocator@G@_STL@@@_STL@@@2@@_STL@@QAEPAPAV?$vector@GV?$allocator@G@_STL@@@2@XZ PROC NEAR ; _STL::vector<_STL::vector<unsigned short,_STL::allocator<unsigned short> > *,_STL::allocator<_STL::vector<unsigned short,_STL::allocator<unsigned short> > *> >::begin, COMDAT
; _this$ = ecx

; 172  :   iterator begin()             { return this->_M_start; }

  00000	8b 01		 mov	 eax, DWORD PTR [ecx]
  00002	c3		 ret	 0
?begin@?$vector@PAV?$vector@GV?$allocator@G@_STL@@@_STL@@V?$allocator@PAV?$vector@GV?$allocator@G@_STL@@@_STL@@@2@@_STL@@QAEPAPAV?$vector@GV?$allocator@G@_STL@@@2@XZ ENDP ; _STL::vector<_STL::vector<unsigned short,_STL::allocator<unsigned short> > *,_STL::allocator<_STL::vector<unsigned short,_STL::allocator<unsigned short> > *> >::begin
_TEXT	ENDS
PUBLIC	?begin@?$vector@PAV?$vector@GV?$allocator@G@_STL@@@_STL@@V?$allocator@PAV?$vector@GV?$allocator@G@_STL@@@_STL@@@2@@_STL@@QBEPBQAV?$vector@GV?$allocator@G@_STL@@@2@XZ ; _STL::vector<_STL::vector<unsigned short,_STL::allocator<unsigned short> > *,_STL::allocator<_STL::vector<unsigned short,_STL::allocator<unsigned short> > *> >::begin
; Function compile flags: /Ogsy
;	COMDAT ?begin@?$vector@PAV?$vector@GV?$allocator@G@_STL@@@_STL@@V?$allocator@PAV?$vector@GV?$allocator@G@_STL@@@_STL@@@2@@_STL@@QBEPBQAV?$vector@GV?$allocator@G@_STL@@@2@XZ
_TEXT	SEGMENT
?begin@?$vector@PAV?$vector@GV?$allocator@G@_STL@@@_STL@@V?$allocator@PAV?$vector@GV?$allocator@G@_STL@@@_STL@@@2@@_STL@@QBEPBQAV?$vector@GV?$allocator@G@_STL@@@2@XZ PROC NEAR ; _STL::vector<_STL::vector<unsigned short,_STL::allocator<unsigned short> > *,_STL::allocator<_STL::vector<unsigned short,_STL::allocator<unsigned short> > *> >::begin, COMDAT
; _this$ = ecx

; 173  :   const_iterator begin() const { return this->_M_start; }

  00000	8b 01		 mov	 eax, DWORD PTR [ecx]
  00002	c3		 ret	 0
?begin@?$vector@PAV?$vector@GV?$allocator@G@_STL@@@_STL@@V?$allocator@PAV?$vector@GV?$allocator@G@_STL@@@_STL@@@2@@_STL@@QBEPBQAV?$vector@GV?$allocator@G@_STL@@@2@XZ ENDP ; _STL::vector<_STL::vector<unsigned short,_STL::allocator<unsigned short> > *,_STL::allocator<_STL::vector<unsigned short,_STL::allocator<unsigned short> > *> >::begin
_TEXT	ENDS
PUBLIC	?begin@?$vector@GV?$allocator@G@_STL@@@_STL@@QAEPAGXZ ; _STL::vector<unsigned short,_STL::allocator<unsigned short> >::begin
; Function compile flags: /Ogsy
;	COMDAT ?begin@?$vector@GV?$allocator@G@_STL@@@_STL@@QAEPAGXZ
_TEXT	SEGMENT
?begin@?$vector@GV?$allocator@G@_STL@@@_STL@@QAEPAGXZ PROC NEAR ; _STL::vector<unsigned short,_STL::allocator<unsigned short> >::begin, COMDAT
; _this$ = ecx

; 172  :   iterator begin()             { return this->_M_start; }

  00000	8b 01		 mov	 eax, DWORD PTR [ecx]
  00002	c3		 ret	 0
?begin@?$vector@GV?$allocator@G@_STL@@@_STL@@QAEPAGXZ ENDP ; _STL::vector<unsigned short,_STL::allocator<unsigned short> >::begin
_TEXT	ENDS
PUBLIC	?begin@?$vector@GV?$allocator@G@_STL@@@_STL@@QBEPBGXZ ; _STL::vector<unsigned short,_STL::allocator<unsigned short> >::begin
; Function compile flags: /Ogsy
;	COMDAT ?begin@?$vector@GV?$allocator@G@_STL@@@_STL@@QBEPBGXZ
_TEXT	SEGMENT
?begin@?$vector@GV?$allocator@G@_STL@@@_STL@@QBEPBGXZ PROC NEAR ; _STL::vector<unsigned short,_STL::allocator<unsigned short> >::begin, COMDAT
; _this$ = ecx

; 173  :   const_iterator begin() const { return this->_M_start; }

  00000	8b 01		 mov	 eax, DWORD PTR [ecx]
  00002	c3		 ret	 0
?begin@?$vector@GV?$allocator@G@_STL@@@_STL@@QBEPBGXZ ENDP ; _STL::vector<unsigned short,_STL::allocator<unsigned short> >::begin
_TEXT	ENDS
PUBLIC	??1?$_STLP_alloc_proxy@PAPAV?$vector@GV?$allocator@G@_STL@@@_STL@@PAV12@V?$allocator@PAV?$vector@GV?$allocator@G@_STL@@@_STL@@@2@@_STL@@QAE@XZ ; _STL::_STLP_alloc_proxy<_STL::vector<unsigned short,_STL::allocator<unsigned short> > * *,_STL::vector<unsigned short,_STL::allocator<unsigned short> > *,_STL::allocator<_STL::vector<unsigned short,_STL::allocator<unsigned short> > *> >::~_STLP_alloc_proxy<_STL::vector<unsigned short,_STL::allocator<unsigned short> > * *,_STL::vector<unsigned short,_STL::allocator<unsigned short> > *,_STL::allocator<_STL::vector<unsigned short,_STL::allocator<unsigned short> > *> >
; Function compile flags: /Ogsy
;	COMDAT ??1?$_STLP_alloc_proxy@PAPAV?$vector@GV?$allocator@G@_STL@@@_STL@@PAV12@V?$allocator@PAV?$vector@GV?$allocator@G@_STL@@@_STL@@@2@@_STL@@QAE@XZ
_TEXT	SEGMENT
??1?$_STLP_alloc_proxy@PAPAV?$vector@GV?$allocator@G@_STL@@@_STL@@PAV12@V?$allocator@PAV?$vector@GV?$allocator@G@_STL@@@_STL@@@2@@_STL@@QAE@XZ PROC NEAR ; _STL::_STLP_alloc_proxy<_STL::vector<unsigned short,_STL::allocator<unsigned short> > * *,_STL::vector<unsigned short,_STL::allocator<unsigned short> > *,_STL::allocator<_STL::vector<unsigned short,_STL::allocator<unsigned short> > *> >::~_STLP_alloc_proxy<_STL::vector<unsigned short,_STL::allocator<unsigned short> > * *,_STL::vector<unsigned short,_STL::allocator<unsigned short> > *,_STL::allocator<_STL::vector<unsigned short,_STL::allocator<unsigned short> > *> >, COMDAT
; _this$ = ecx
  00000	c3		 ret	 0
??1?$_STLP_alloc_proxy@PAPAV?$vector@GV?$allocator@G@_STL@@@_STL@@PAV12@V?$allocator@PAV?$vector@GV?$allocator@G@_STL@@@_STL@@@2@@_STL@@QAE@XZ ENDP ; _STL::_STLP_alloc_proxy<_STL::vector<unsigned short,_STL::allocator<unsigned short> > * *,_STL::vector<unsigned short,_STL::allocator<unsigned short> > *,_STL::allocator<_STL::vector<unsigned short,_STL::allocator<unsigned short> > *> >::~_STLP_alloc_proxy<_STL::vector<unsigned short,_STL::allocator<unsigned short> > * *,_STL::vector<unsigned short,_STL::allocator<unsigned short> > *,_STL::allocator<_STL::vector<unsigned short,_STL::allocator<unsigned short> > *> >
_TEXT	ENDS
PUBLIC	?_M_set@?$vector@GV?$allocator@G@_STL@@@_STL@@IAEXPAG00@Z ; _STL::vector<unsigned short,_STL::allocator<unsigned short> >::_M_set
; Function compile flags: /Ogsy
;	COMDAT ?_M_set@?$vector@GV?$allocator@G@_STL@@@_STL@@IAEXPAG00@Z
_TEXT	SEGMENT
___s$ = 8						; size = 4
___f$ = 12						; size = 4
___e$ = 16						; size = 4
?_M_set@?$vector@GV?$allocator@G@_STL@@@_STL@@IAEXPAG00@Z PROC NEAR ; _STL::vector<unsigned short,_STL::allocator<unsigned short> >::_M_set, COMDAT
; _this$ = ecx

; 501  :     this->_M_start = __s;

  00000	8b 44 24 04	 mov	 eax, DWORD PTR ___s$[esp-4]
  00004	89 01		 mov	 DWORD PTR [ecx], eax

; 502  :     this->_M_finish = __f;

  00006	8b 44 24 08	 mov	 eax, DWORD PTR ___f$[esp-4]
  0000a	89 41 04	 mov	 DWORD PTR [ecx+4], eax

; 503  :     this->_M_end_of_storage._M_data = __e;

  0000d	8b 44 24 0c	 mov	 eax, DWORD PTR ___e$[esp-4]
  00011	89 41 08	 mov	 DWORD PTR [ecx+8], eax

; 504  :   }

  00014	c2 0c 00	 ret	 12			; 0000000cH
?_M_set@?$vector@GV?$allocator@G@_STL@@@_STL@@IAEXPAG00@Z ENDP ; _STL::vector<unsigned short,_STL::allocator<unsigned short> >::_M_set
_TEXT	ENDS
PUBLIC	??0?$allocator@G@_STL@@QAE@ABV01@@Z		; _STL::allocator<unsigned short>::allocator<unsigned short>
; Function compile flags: /Ogsy
; File c:\stlport-4.6.1\stlport\stl\_alloc.h
;	COMDAT ??0?$allocator@G@_STL@@QAE@ABV01@@Z
_TEXT	SEGMENT
___formal$ = 8						; size = 4
??0?$allocator@G@_STL@@QAE@ABV01@@Z PROC NEAR		; _STL::allocator<unsigned short>::allocator<unsigned short>, COMDAT
; _this$ = ecx

; 349  :   allocator(const allocator<_Tp>&) _STLP_NOTHROW {}

  00000	8b c1		 mov	 eax, ecx
  00002	c2 04 00	 ret	 4
??0?$allocator@G@_STL@@QAE@ABV01@@Z ENDP		; _STL::allocator<unsigned short>::allocator<unsigned short>
_TEXT	ENDS
PUBLIC	??0?$allocator@PAV?$vector@GV?$allocator@G@_STL@@@_STL@@@_STL@@QAE@ABV01@@Z ; _STL::allocator<_STL::vector<unsigned short,_STL::allocator<unsigned short> > *>::allocator<_STL::vector<unsigned short,_STL::allocator<unsigned short> > *>
; Function compile flags: /Ogsy
;	COMDAT ??0?$allocator@PAV?$vector@GV?$allocator@G@_STL@@@_STL@@@_STL@@QAE@ABV01@@Z
_TEXT	SEGMENT
___formal$ = 8						; size = 4
??0?$allocator@PAV?$vector@GV?$allocator@G@_STL@@@_STL@@@_STL@@QAE@ABV01@@Z PROC NEAR ; _STL::allocator<_STL::vector<unsigned short,_STL::allocator<unsigned short> > *>::allocator<_STL::vector<unsigned short,_STL::allocator<unsigned short> > *>, COMDAT
; _this$ = ecx

; 349  :   allocator(const allocator<_Tp>&) _STLP_NOTHROW {}

  00000	8b c1		 mov	 eax, ecx
  00002	c2 04 00	 ret	 4
??0?$allocator@PAV?$vector@GV?$allocator@G@_STL@@@_STL@@@_STL@@QAE@ABV01@@Z ENDP ; _STL::allocator<_STL::vector<unsigned short,_STL::allocator<unsigned short> > *>::allocator<_STL::vector<unsigned short,_STL::allocator<unsigned short> > *>
_TEXT	ENDS
PUBLIC	??0?$CTypeTable@H@@QAE@XZ			; CTypeTable<int>::CTypeTable<int>
; Function compile flags: /Ogsy
; File c:\darkeden\designed_common\project\client\ctypetable.h
;	COMDAT ??0?$CTypeTable@H@@QAE@XZ
_TEXT	SEGMENT
??0?$CTypeTable@H@@QAE@XZ PROC NEAR			; CTypeTable<int>::CTypeTable<int>, COMDAT
; _this$ = ecx

; 64   : {

  00000	8b c1		 mov	 eax, ecx

; 65   : 	m_pTypeInfo	= NULL;

  00002	83 60 04 00	 and	 DWORD PTR [eax+4], 0

; 66   : 	m_Size		= 0;

  00006	83 20 00	 and	 DWORD PTR [eax], 0

; 67   : }

  00009	c3		 ret	 0
??0?$CTypeTable@H@@QAE@XZ ENDP				; CTypeTable<int>::CTypeTable<int>
_TEXT	ENDS
PUBLIC	??$_Construct@GG@_STL@@YAXPAGABG@Z		; _STL::_Construct<unsigned short,unsigned short>
; Function compile flags: /Ogsy
; File c:\stlport-4.6.1\stlport\stl\_construct.h
;	COMDAT ??$_Construct@GG@_STL@@YAXPAGABG@Z
_TEXT	SEGMENT
___p$ = 8						; size = 4
___val$ = 12						; size = 4
??$_Construct@GG@_STL@@YAXPAGABG@Z PROC NEAR		; _STL::_Construct<unsigned short,unsigned short>, COMDAT

; 94   : # ifdef _STLP_DEBUG_UNINITIALIZED
; 95   : 	memset((char*)__p, _STLP_SHRED_BYTE, sizeof(_T1));
; 96   : # endif
; 97   :     _STLP_PLACEMENT_NEW (__p) _T1(__val);

  00000	8b 44 24 04	 mov	 eax, DWORD PTR ___p$[esp-4]
  00004	85 c0		 test	 eax, eax
  00006	74 0a		 je	 SHORT $L111331
  00008	8b 4c 24 08	 mov	 ecx, DWORD PTR ___val$[esp-4]
  0000c	66 8b 09	 mov	 cx, WORD PTR [ecx]
  0000f	66 89 08	 mov	 WORD PTR [eax], cx
$L111331:

; 98   : }

  00012	c3		 ret	 0
??$_Construct@GG@_STL@@YAXPAGABG@Z ENDP			; _STL::_Construct<unsigned short,unsigned short>
_TEXT	ENDS
PUBLIC	??$max@I@_STL@@YAABIABI0@Z			; _STL::max<unsigned int>
; Function compile flags: /Ogsy
; File c:\stlport-4.6.1\stlport\stl\_algobase.h
;	COMDAT ??$max@I@_STL@@YAABIABI0@Z
_TEXT	SEGMENT
___a$ = 8						; size = 4
___b$ = 12						; size = 4
??$max@I@_STL@@YAABIABI0@Z PROC NEAR			; _STL::max<unsigned int>, COMDAT

; 79   : inline const _Tp& (max)(const _Tp& __a, const _Tp& __b) {  return  __a < __b ? __b : __a; }

  00000	8b 44 24 04	 mov	 eax, DWORD PTR ___a$[esp-4]
  00004	8b 10		 mov	 edx, DWORD PTR [eax]
  00006	8b 4c 24 08	 mov	 ecx, DWORD PTR ___b$[esp-4]
  0000a	3b 11		 cmp	 edx, DWORD PTR [ecx]
  0000c	73 02		 jae	 SHORT $L111341
  0000e	8b c1		 mov	 eax, ecx
$L111341:
  00010	c3		 ret	 0
??$max@I@_STL@@YAABIABI0@Z ENDP				; _STL::max<unsigned int>
_TEXT	ENDS
PUBLIC	??$fill_n@PAGIG@_STL@@YAPAGPAGIABG@Z		; _STL::fill_n<unsigned short *,unsigned int,unsigned short>
; Function compile flags: /Ogsy
;	COMDAT ??$fill_n@PAGIG@_STL@@YAPAGPAGIABG@Z
_TEXT	SEGMENT
___first$ = 8						; size = 4
___n$ = 12						; size = 4
___val$ = 16						; size = 4
??$fill_n@PAGIG@_STL@@YAPAGPAGIABG@Z PROC NEAR		; _STL::fill_n<unsigned short *,unsigned int,unsigned short>, COMDAT

; 332  : _OutputIter fill_n(_OutputIter __first, _Size __n, const _Tp& __val) {

  00000	55		 push	 ebp
  00001	8b ec		 mov	 ebp, esp

; 333  :   _STLP_FIX_LITERAL_BUG(__first)
; 334  :   for ( ; __n > 0; --__n, ++__first)

  00003	8b 45 0c	 mov	 eax, DWORD PTR ___n$[ebp]
  00006	85 c0		 test	 eax, eax
  00008	76 13		 jbe	 SHORT $L109177
$L109175:

; 335  :     *__first = __val;

  0000a	8b 4d 10	 mov	 ecx, DWORD PTR ___val$[ebp]
  0000d	8b 55 08	 mov	 edx, DWORD PTR ___first$[ebp]
  00010	66 8b 09	 mov	 cx, WORD PTR [ecx]
  00013	83 45 08 02	 add	 DWORD PTR ___first$[ebp], 2
  00017	48		 dec	 eax
  00018	66 89 0a	 mov	 WORD PTR [edx], cx
  0001b	75 ed		 jne	 SHORT $L109175
$L109177:

; 336  :   return __first;

  0001d	8b 45 08	 mov	 eax, DWORD PTR ___first$[ebp]

; 337  : }

  00020	5d		 pop	 ebp
  00021	c3		 ret	 0
??$fill_n@PAGIG@_STL@@YAPAGPAGIABG@Z ENDP		; _STL::fill_n<unsigned short *,unsigned int,unsigned short>
_TEXT	ENDS
PUBLIC	?rdbuf@?$basic_ios@DV?$char_traits@D@_STL@@@_STL@@QBEPAV?$basic_streambuf@DV?$char_traits@D@_STL@@@2@XZ ; _STL::basic_ios<char,_STL::char_traits<char> >::rdbuf
; Function compile flags: /Ogsy
; File c:\stlport-4.6.1\stlport\stl\_ios.h
;	COMDAT ?rdbuf@?$basic_ios@DV?$char_traits@D@_STL@@@_STL@@QBEPAV?$basic_streambuf@DV?$char_traits@D@_STL@@@2@XZ
_TEXT	SEGMENT
?rdbuf@?$basic_ios@DV?$char_traits@D@_STL@@@_STL@@QBEPAV?$basic_streambuf@DV?$char_traits@D@_STL@@@2@XZ PROC NEAR ; _STL::basic_ios<char,_STL::char_traits<char> >::rdbuf, COMDAT
; _this$ = ecx

; 72   :     { return _M_streambuf; }

  00000	8b 41 58	 mov	 eax, DWORD PTR [ecx+88]
  00003	c3		 ret	 0
?rdbuf@?$basic_ios@DV?$char_traits@D@_STL@@@_STL@@QBEPAV?$basic_streambuf@DV?$char_traits@D@_STL@@@2@XZ ENDP ; _STL::basic_ios<char,_STL::char_traits<char> >::rdbuf
_TEXT	ENDS
PUBLIC	?fill@?$basic_ios@DV?$char_traits@D@_STL@@@_STL@@QBEDXZ ; _STL::basic_ios<char,_STL::char_traits<char> >::fill
; Function compile flags: /Ogsy
;	COMDAT ?fill@?$basic_ios@DV?$char_traits@D@_STL@@@_STL@@QBEDXZ
_TEXT	SEGMENT
?fill@?$basic_ios@DV?$char_traits@D@_STL@@@_STL@@QBEDXZ PROC NEAR ; _STL::basic_ios<char,_STL::char_traits<char> >::fill, COMDAT
; _this$ = ecx

; 80   :   char_type fill() const { return _M_fill; }

  00000	8a 41 54	 mov	 al, BYTE PTR [ecx+84]
  00003	c3		 ret	 0
?fill@?$basic_ios@DV?$char_traits@D@_STL@@@_STL@@QBEDXZ ENDP ; _STL::basic_ios<char,_STL::char_traits<char> >::fill
_TEXT	ENDS
PUBLIC	?size@?$vector@PAV?$vector@GV?$allocator@G@_STL@@@_STL@@V?$allocator@PAV?$vector@GV?$allocator@G@_STL@@@_STL@@@2@@_STL@@QBEIXZ ; _STL::vector<_STL::vector<unsigned short,_STL::allocator<unsigned short> > *,_STL::allocator<_STL::vector<unsigned short,_STL::allocator<unsigned short> > *> >::size
; Function compile flags: /Ogsy
; File c:\stlport-4.6.1\stlport\stl\_vector.h
;	COMDAT ?size@?$vector@PAV?$vector@GV?$allocator@G@_STL@@@_STL@@V?$allocator@PAV?$vector@GV?$allocator@G@_STL@@@_STL@@@2@@_STL@@QBEIXZ
_TEXT	SEGMENT
?size@?$vector@PAV?$vector@GV?$allocator@G@_STL@@@_STL@@V?$allocator@PAV?$vector@GV?$allocator@G@_STL@@@_STL@@@2@@_STL@@QBEIXZ PROC NEAR ; _STL::vector<_STL::vector<unsigned short,_STL::allocator<unsigned short> > *,_STL::allocator<_STL::vector<unsigned short,_STL::allocator<unsigned short> > *> >::size, COMDAT
; _this$ = ecx

; 182  :   size_type size() const        { return size_type(this->_M_finish - this->_M_start); }

  00000	8b 41 04	 mov	 eax, DWORD PTR [ecx+4]
  00003	2b 01		 sub	 eax, DWORD PTR [ecx]
  00005	c1 f8 02	 sar	 eax, 2
  00008	c3		 ret	 0
?size@?$vector@PAV?$vector@GV?$allocator@G@_STL@@@_STL@@V?$allocator@PAV?$vector@GV?$allocator@G@_STL@@@_STL@@@2@@_STL@@QBEIXZ ENDP ; _STL::vector<_STL::vector<unsigned short,_STL::allocator<unsigned short> > *,_STL::allocator<_STL::vector<unsigned short,_STL::allocator<unsigned short> > *> >::size
_TEXT	ENDS
PUBLIC	?_M_set@?$vector@PAV?$vector@GV?$allocator@G@_STL@@@_STL@@V?$allocator@PAV?$vector@GV?$allocator@G@_STL@@@_STL@@@2@@_STL@@IAEXPAPAV?$vector@GV?$allocator@G@_STL@@@2@00@Z ; _STL::vector<_STL::vector<unsigned short,_STL::allocator<unsigned short> > *,_STL::allocator<_STL::vector<unsigned short,_STL::allocator<unsigned short> > *> >::_M_set
; Function compile flags: /Ogsy
;	COMDAT ?_M_set@?$vector@PAV?$vector@GV?$allocator@G@_STL@@@_STL@@V?$allocator@PAV?$vector@GV?$allocator@G@_STL@@@_STL@@@2@@_STL@@IAEXPAPAV?$vector@GV?$allocator@G@_STL@@@2@00@Z
_TEXT	SEGMENT
___s$ = 8						; size = 4
___f$ = 12						; size = 4
___e$ = 16						; size = 4
?_M_set@?$vector@PAV?$vector@GV?$allocator@G@_STL@@@_STL@@V?$allocator@PAV?$vector@GV?$allocator@G@_STL@@@_STL@@@2@@_STL@@IAEXPAPAV?$vector@GV?$allocator@G@_STL@@@2@00@Z PROC NEAR ; _STL::vector<_STL::vector<unsigned short,_STL::allocator<unsigned short> > *,_STL::allocator<_STL::vector<unsigned short,_STL::allocator<unsigned short> > *> >::_M_set, COMDAT
; _this$ = ecx

; 501  :     this->_M_start = __s;

  00000	8b 44 24 04	 mov	 eax, DWORD PTR ___s$[esp-4]
  00004	89 01		 mov	 DWORD PTR [ecx], eax

; 502  :     this->_M_finish = __f;

  00006	8b 44 24 08	 mov	 eax, DWORD PTR ___f$[esp-4]
  0000a	89 41 04	 mov	 DWORD PTR [ecx+4], eax

; 503  :     this->_M_end_of_storage._M_data = __e;

  0000d	8b 44 24 0c	 mov	 eax, DWORD PTR ___e$[esp-4]
  00011	89 41 08	 mov	 DWORD PTR [ecx+8], eax

; 504  :   }

  00014	c2 0c 00	 ret	 12			; 0000000cH
?_M_set@?$vector@PAV?$vector@GV?$allocator@G@_STL@@@_STL@@V?$allocator@PAV?$vector@GV?$allocator@G@_STL@@@_STL@@@2@@_STL@@IAEXPAPAV?$vector@GV?$allocator@G@_STL@@@2@00@Z ENDP ; _STL::vector<_STL::vector<unsigned short,_STL::allocator<unsigned short> > *,_STL::allocator<_STL::vector<unsigned short,_STL::allocator<unsigned short> > *> >::_M_set
_TEXT	ENDS
PUBLIC	??Bsentry@?$basic_ostream@DV?$char_traits@D@_STL@@@_STL@@QBE_NXZ ; _STL::basic_ostream<char,_STL::char_traits<char> >::sentry::operator bool
; Function compile flags: /Ogsy
; File c:\stlport-4.6.1\stlport\stl\_ostream.h
;	COMDAT ??Bsentry@?$basic_ostream@DV?$char_traits@D@_STL@@@_STL@@QBE_NXZ
_TEXT	SEGMENT
??Bsentry@?$basic_ostream@DV?$char_traits@D@_STL@@@_STL@@QBE_NXZ PROC NEAR ; _STL::basic_ostream<char,_STL::char_traits<char> >::sentry::operator bool, COMDAT
; _this$ = ecx

; 176  :       operator bool() const { return _M_ok; }

  00000	8a 41 04	 mov	 al, BYTE PTR [ecx+4]
  00003	c3		 ret	 0
??Bsentry@?$basic_ostream@DV?$char_traits@D@_STL@@@_STL@@QBE_NXZ ENDP ; _STL::basic_ostream<char,_STL::char_traits<char> >::sentry::operator bool
_TEXT	ENDS
PUBLIC	?put@?$num_put@DV?$ostreambuf_iterator@DV?$char_traits@D@_STL@@@_STL@@@_STL@@QBE?AV?$ostreambuf_iterator@DV?$char_traits@D@_STL@@@2@V32@AAVios_base@2@DJ@Z ; _STL::num_put<char,_STL::ostreambuf_iterator<char,_STL::char_traits<char> > >::put
; Function compile flags: /Ogsy
; File c:\stlport-4.6.1\stlport\stl\_num_put.h
;	COMDAT ?put@?$num_put@DV?$ostreambuf_iterator@DV?$char_traits@D@_STL@@@_STL@@@_STL@@QBE?AV?$ostreambuf_iterator@DV?$char_traits@D@_STL@@@2@V32@AAVios_base@2@DJ@Z
_TEXT	SEGMENT
___$ReturnUdt$ = 8					; size = 4
___s$ = 12						; size = 8
___f$ = 20						; size = 4
___fill$ = 24						; size = 1
___val$ = 28						; size = 4
?put@?$num_put@DV?$ostreambuf_iterator@DV?$char_traits@D@_STL@@@_STL@@@_STL@@QBE?AV?$ostreambuf_iterator@DV?$char_traits@D@_STL@@@2@V32@AAVios_base@2@DJ@Z PROC NEAR ; _STL::num_put<char,_STL::ostreambuf_iterator<char,_STL::char_traits<char> > >::put, COMDAT
; _this$ = ecx

; 62   :                long __val) const {

  00000	55		 push	 ebp
  00001	8b ec		 mov	 ebp, esp

; 63   :     return do_put(__s, __f, __fill, __val);

  00003	ff 75 1c	 push	 DWORD PTR ___val$[ebp]
  00006	8b 01		 mov	 eax, DWORD PTR [ecx]
  00008	ff 75 18	 push	 DWORD PTR ___fill$[ebp]
  0000b	ff 75 14	 push	 DWORD PTR ___f$[ebp]
  0000e	ff 75 10	 push	 DWORD PTR ___s$[ebp+4]
  00011	ff 75 0c	 push	 DWORD PTR ___s$[ebp]
  00014	ff 75 08	 push	 DWORD PTR ___$ReturnUdt$[ebp]
  00017	ff 50 1c	 call	 DWORD PTR [eax+28]
  0001a	8b 45 08	 mov	 eax, DWORD PTR ___$ReturnUdt$[ebp]

; 64   :   }

  0001d	5d		 pop	 ebp
  0001e	c2 18 00	 ret	 24			; 00000018H
?put@?$num_put@DV?$ostreambuf_iterator@DV?$char_traits@D@_STL@@@_STL@@@_STL@@QBE?AV?$ostreambuf_iterator@DV?$char_traits@D@_STL@@@2@V32@AAVios_base@2@DJ@Z ENDP ; _STL::num_put<char,_STL::ostreambuf_iterator<char,_STL::char_traits<char> > >::put
_TEXT	ENDS
PUBLIC	??0?$ostreambuf_iterator@DV?$char_traits@D@_STL@@@_STL@@QAE@PAV?$basic_streambuf@DV?$char_traits@D@_STL@@@1@@Z ; _STL::ostreambuf_iterator<char,_STL::char_traits<char> >::ostreambuf_iterator<char,_STL::char_traits<char> >
; Function compile flags: /Ogsy
; File c:\stlport-4.6.1\stlport\stl\_ostreambuf_iterator.h
;	COMDAT ??0?$ostreambuf_iterator@DV?$char_traits@D@_STL@@@_STL@@QAE@PAV?$basic_streambuf@DV?$char_traits@D@_STL@@@1@@Z
_TEXT	SEGMENT
___buf$ = 8						; size = 4
??0?$ostreambuf_iterator@DV?$char_traits@D@_STL@@@_STL@@QAE@PAV?$basic_streambuf@DV?$char_traits@D@_STL@@@1@@Z PROC NEAR ; _STL::ostreambuf_iterator<char,_STL::char_traits<char> >::ostreambuf_iterator<char,_STL::char_traits<char> >, COMDAT
; _this$ = ecx

; 53   :   ostreambuf_iterator(streambuf_type* __buf) _STLP_NOTHROW : _M_buf(__buf), _M_ok(__buf!=0) {}

  00000	8b c1		 mov	 eax, ecx
  00002	8b 4c 24 04	 mov	 ecx, DWORD PTR ___buf$[esp-4]
  00006	85 c9		 test	 ecx, ecx
  00008	89 08		 mov	 DWORD PTR [eax], ecx
  0000a	0f 95 c1	 setne	 cl
  0000d	88 48 04	 mov	 BYTE PTR [eax+4], cl
  00010	c2 04 00	 ret	 4
??0?$ostreambuf_iterator@DV?$char_traits@D@_STL@@@_STL@@QAE@PAV?$basic_streambuf@DV?$char_traits@D@_STL@@@1@@Z ENDP ; _STL::ostreambuf_iterator<char,_STL::char_traits<char> >::ostreambuf_iterator<char,_STL::char_traits<char> >
_TEXT	ENDS
PUBLIC	?failed@?$ostreambuf_iterator@DV?$char_traits@D@_STL@@@_STL@@QBE_NXZ ; _STL::ostreambuf_iterator<char,_STL::char_traits<char> >::failed
; Function compile flags: /Ogsy
;	COMDAT ?failed@?$ostreambuf_iterator@DV?$char_traits@D@_STL@@@_STL@@QBE_NXZ
_TEXT	SEGMENT
?failed@?$ostreambuf_iterator@DV?$char_traits@D@_STL@@@_STL@@QBE_NXZ PROC NEAR ; _STL::ostreambuf_iterator<char,_STL::char_traits<char> >::failed, COMDAT
; _this$ = ecx

; 67   :   bool failed() const { return !_M_ok; }

  00000	33 c0		 xor	 eax, eax
  00002	38 41 04	 cmp	 BYTE PTR [ecx+4], al
  00005	0f 94 c0	 sete	 al
  00008	c3		 ret	 0
?failed@?$ostreambuf_iterator@DV?$char_traits@D@_STL@@@_STL@@QBE_NXZ ENDP ; _STL::ostreambuf_iterator<char,_STL::char_traits<char> >::failed
_TEXT	ENDS
PUBLIC	?clear@?$basic_ios@DV?$char_traits@D@_STL@@@_STL@@QAEXH@Z ; _STL::basic_ios<char,_STL::char_traits<char> >::clear
; Function compile flags: /Ogsy
; File c:\stlport-4.6.1\stlport\stl\_ios.h
;	COMDAT ?clear@?$basic_ios@DV?$char_traits@D@_STL@@@_STL@@QAEXH@Z
_TEXT	SEGMENT
___state$ = 8						; size = 4
?clear@?$basic_ios@DV?$char_traits@D@_STL@@@_STL@@QAEXH@Z PROC NEAR ; _STL::basic_ios<char,_STL::char_traits<char> >::clear, COMDAT
; _this$ = ecx

; 91   :     _M_clear_nothrow(this->rdbuf() ? __state : iostate(__state|ios_base::badbit));

  00000	83 79 58 00	 cmp	 DWORD PTR [ecx+88], 0
  00004	8b 44 24 04	 mov	 eax, DWORD PTR ___state$[esp-4]
  00008	75 03		 jne	 SHORT $L111374
  0000a	83 c8 01	 or	 eax, 1
$L111374:

; 92   :     _M_check_exception_mask();

  0000d	85 41 14	 test	 DWORD PTR [ecx+20], eax
  00010	89 41 08	 mov	 DWORD PTR [ecx+8], eax
  00013	74 05		 je	 SHORT $L111385
  00015	e8 00 00 00 00	 call	 ?_M_throw_failure@ios_base@_STL@@IAEXXZ ; _STL::ios_base::_M_throw_failure
$L111385:

; 93   :   }

  0001a	c2 04 00	 ret	 4
?clear@?$basic_ios@DV?$char_traits@D@_STL@@@_STL@@QAEXH@Z ENDP ; _STL::basic_ios<char,_STL::char_traits<char> >::clear
_TEXT	ENDS
PUBLIC	?_M_handle_exception@?$basic_ios@DV?$char_traits@D@_STL@@@_STL@@QAEXH@Z ; _STL::basic_ios<char,_STL::char_traits<char> >::_M_handle_exception
EXTRN	__CxxThrowException@8:NEAR
; Function compile flags: /Ogsy
; File c:\stlport-4.6.1\stlport\stl\_ios.c
;	COMDAT ?_M_handle_exception@?$basic_ios@DV?$char_traits@D@_STL@@@_STL@@QAEXH@Z
_TEXT	SEGMENT
___flag$ = 8						; size = 4
?_M_handle_exception@?$basic_ios@DV?$char_traits@D@_STL@@@_STL@@QAEXH@Z PROC NEAR ; _STL::basic_ios<char,_STL::char_traits<char> >::_M_handle_exception, COMDAT
; _this$ = ecx

; 118  :   this->_M_setstate_nothrow(__flag);

  00000	8b 44 24 04	 mov	 eax, DWORD PTR ___flag$[esp-4]
  00004	09 41 08	 or	 DWORD PTR [ecx+8], eax

; 119  :   if (this->_M_get_exception_mask() & __flag)

  00007	85 41 14	 test	 DWORD PTR [ecx+20], eax
  0000a	74 09		 je	 SHORT $L109303

; 120  :     _STLP_RETHROW;

  0000c	6a 00		 push	 0
  0000e	6a 00		 push	 0
  00010	e8 00 00 00 00	 call	 __CxxThrowException@8
$L111399:
$L109303:

; 121  : }

  00015	c2 04 00	 ret	 4
$L111398:
?_M_handle_exception@?$basic_ios@DV?$char_traits@D@_STL@@@_STL@@QAEXH@Z ENDP ; _STL::basic_ios<char,_STL::char_traits<char> >::_M_handle_exception
_TEXT	ENDS
PUBLIC	?Release@?$CTypeTable@H@@QAEXXZ			; CTypeTable<int>::Release
EXTRN	??_V@YAXPAX@Z:NEAR				; operator delete[]
; Function compile flags: /Ogsy
; File c:\darkeden\designed_common\project\client\ctypetable.h
;	COMDAT ?Release@?$CTypeTable@H@@QAEXXZ
_TEXT	SEGMENT
?Release@?$CTypeTable@H@@QAEXXZ PROC NEAR		; CTypeTable<int>::Release, COMDAT
; _this$ = ecx

; 108  : {

  00000	56		 push	 esi
  00001	8b f1		 mov	 esi, ecx

; 109  : 	if (m_pTypeInfo != NULL)

  00003	8b 46 04	 mov	 eax, DWORD PTR [esi+4]
  00006	85 c0		 test	 eax, eax
  00008	74 0e		 je	 SHORT $L109350

; 110  : 	{
; 111  : 		//  CSprite .
; 112  : 		delete [] m_pTypeInfo;

  0000a	50		 push	 eax
  0000b	e8 00 00 00 00	 call	 ??_V@YAXPAX@Z		; operator delete[]

; 113  : 		m_pTypeInfo = NULL;

  00010	83 66 04 00	 and	 DWORD PTR [esi+4], 0

; 114  : 		
; 115  : 		m_Size = 0;

  00014	83 26 00	 and	 DWORD PTR [esi], 0
  00017	59		 pop	 ecx
$L109350:
  00018	5e		 pop	 esi

; 116  : 	}
; 117  : }

  00019	c3		 ret	 0
?Release@?$CTypeTable@H@@QAEXXZ ENDP			; CTypeTable<int>::Release
_TEXT	ENDS
PUBLIC	??$use_facet@V?$num_put@DV?$ostreambuf_iterator@DV?$char_traits@D@_STL@@@_STL@@@_STL@@@_STL@@YAABV?$num_put@DV?$ostreambuf_iterator@DV?$char_traits@D@_STL@@@_STL@@@0@ABVlocale@0@@Z ; _STL::use_facet<_STL::num_put<char,_STL::ostreambuf_iterator<char,_STL::char_traits<char> > > >
PUBLIC	?id@?$num_put@DV?$ostreambuf_iterator@DV?$char_traits@D@_STL@@@_STL@@@_STL@@2V0locale@2@A ; _STL::num_put<char,_STL::ostreambuf_iterator<char,_STL::char_traits<char> > >::id
EXTRN	?_M_use_facet@locale@_STL@@QBEPAVfacet@12@ABVid@12@@Z:NEAR ; _STL::locale::_M_use_facet
;	COMDAT ?id@?$num_put@DV?$ostreambuf_iterator@DV?$char_traits@D@_STL@@@_STL@@@_STL@@2V0locale@2@A
; File c:\stlport-4.6.1\stlport\stl\_locale.h
_BSS	SEGMENT
?id@?$num_put@DV?$ostreambuf_iterator@DV?$char_traits@D@_STL@@@_STL@@@_STL@@2V0locale@2@A DD 01H DUP (?) ; _STL::num_put<char,_STL::ostreambuf_iterator<char,_STL::char_traits<char> > >::id
; Function compile flags: /Ogsy
_BSS	ENDS
;	COMDAT ??$use_facet@V?$num_put@DV?$ostreambuf_iterator@DV?$char_traits@D@_STL@@@_STL@@@_STL@@@_STL@@YAABV?$num_put@DV?$ostreambuf_iterator@DV?$char_traits@D@_STL@@@_STL@@@0@ABVlocale@0@@Z
_TEXT	SEGMENT
___loc$ = 8						; size = 4
??$use_facet@V?$num_put@DV?$ostreambuf_iterator@DV?$char_traits@D@_STL@@@_STL@@@_STL@@@_STL@@YAABV?$num_put@DV?$ostreambuf_iterator@DV?$char_traits@D@_STL@@@_STL@@@0@ABVlocale@0@@Z PROC NEAR ; _STL::use_facet<_STL::num_put<char,_STL::ostreambuf_iterator<char,_STL::char_traits<char> > > >, COMDAT

; 204  :   return *__STATIC_CAST(const _Facet*,__loc._M_use_facet(_Facet::id));

  00000	8b 4c 24 04	 mov	 ecx, DWORD PTR ___loc$[esp-4]
  00004	68 00 00 00 00	 push	 OFFSET FLAT:?id@?$num_put@DV?$ostreambuf_iterator@DV?$char_traits@D@_STL@@@_STL@@@_STL@@2V0locale@2@A ; _STL::num_put<char,_STL::ostreambuf_iterator<char,_STL::char_traits<char> > >::id
  00009	e8 00 00 00 00	 call	 ?_M_use_facet@locale@_STL@@QBEPAVfacet@12@ABVid@12@@Z ; _STL::locale::_M_use_facet

; 205  : }

  0000e	c3		 ret	 0
??$use_facet@V?$num_put@DV?$ostreambuf_iterator@DV?$char_traits@D@_STL@@@_STL@@@_STL@@@_STL@@YAABV?$num_put@DV?$ostreambuf_iterator@DV?$char_traits@D@_STL@@@_STL@@@0@ABVlocale@0@@Z ENDP ; _STL::use_facet<_STL::num_put<char,_STL::ostreambuf_iterator<char,_STL::char_traits<char> > > >
_TEXT	ENDS
PUBLIC	?tie@?$basic_ios@DV?$char_traits@D@_STL@@@_STL@@QBEPAV?$basic_ostream@DV?$char_traits@D@_STL@@@2@XZ ; _STL::basic_ios<char,_STL::char_traits<char> >::tie
; Function compile flags: /Ogsy
; File c:\stlport-4.6.1\stlport\stl\_ios.h
;	COMDAT ?tie@?$basic_ios@DV?$char_traits@D@_STL@@@_STL@@QBEPAV?$basic_ostream@DV?$char_traits@D@_STL@@@2@XZ
_TEXT	SEGMENT
?tie@?$basic_ios@DV?$char_traits@D@_STL@@@_STL@@QBEPAV?$basic_ostream@DV?$char_traits@D@_STL@@@2@XZ PROC NEAR ; _STL::basic_ios<char,_STL::char_traits<char> >::tie, COMDAT
; _this$ = ecx

; 62   :     return _M_tied_ostream;

  00000	8b 41 5c	 mov	 eax, DWORD PTR [ecx+92]

; 63   :   }

  00003	c3		 ret	 0
?tie@?$basic_ios@DV?$char_traits@D@_STL@@@_STL@@QBEPAV?$basic_ostream@DV?$char_traits@D@_STL@@@2@XZ ENDP ; _STL::basic_ios<char,_STL::char_traits<char> >::tie
_TEXT	ENDS
PUBLIC	??$__destroy_aux@PAPAV?$vector@GV?$allocator@G@_STL@@@_STL@@@_STL@@YAXPAPAV?$vector@GV?$allocator@G@_STL@@@0@0ABU__true_type@0@@Z ; _STL::__destroy_aux<_STL::vector<unsigned short,_STL::allocator<unsigned short> > * *>
; Function compile flags: /Ogsy
; File c:\stlport-4.6.1\stlport\stl\_construct.h
;	COMDAT ??$__destroy_aux@PAPAV?$vector@GV?$allocator@G@_STL@@@_STL@@@_STL@@YAXPAPAV?$vector@GV?$allocator@G@_STL@@@0@0ABU__true_type@0@@Z
_TEXT	SEGMENT
___formal$ = 8						; size = 4
___formal$ = 12						; size = 4
___formal$ = 16						; size = 4
??$__destroy_aux@PAPAV?$vector@GV?$allocator@G@_STL@@@_STL@@@_STL@@YAXPAPAV?$vector@GV?$allocator@G@_STL@@@0@0ABU__true_type@0@@Z PROC NEAR ; _STL::__destroy_aux<_STL::vector<unsigned short,_STL::allocator<unsigned short> > * *>, COMDAT

; 128  : inline void __destroy_aux(_ForwardIterator, _ForwardIterator, const __true_type&) {}

  00000	c3		 ret	 0
??$__destroy_aux@PAPAV?$vector@GV?$allocator@G@_STL@@@_STL@@@_STL@@YAXPAPAV?$vector@GV?$allocator@G@_STL@@@0@0ABU__true_type@0@@Z ENDP ; _STL::__destroy_aux<_STL::vector<unsigned short,_STL::allocator<unsigned short> > * *>
_TEXT	ENDS
PUBLIC	?_Ret@?$_BothPtrType@PAPAV?$vector@GV?$allocator@G@_STL@@@_STL@@PAPAV12@@_STL@@SA?AU__true_type@2@XZ ; _STL::_BothPtrType<_STL::vector<unsigned short,_STL::allocator<unsigned short> > * *,_STL::vector<unsigned short,_STL::allocator<unsigned short> > * *>::_Ret
; Function compile flags: /Ogsy
; File c:\stlport-4.6.1\stlport\stl\type_traits.h
;	COMDAT ?_Ret@?$_BothPtrType@PAPAV?$vector@GV?$allocator@G@_STL@@@_STL@@PAPAV12@@_STL@@SA?AU__true_type@2@XZ
_TEXT	SEGMENT
$T111416 = -1						; size = 1
?_Ret@?$_BothPtrType@PAPAV?$vector@GV?$allocator@G@_STL@@@_STL@@PAPAV12@@_STL@@SA?AU__true_type@2@XZ PROC NEAR ; _STL::_BothPtrType<_STL::vector<unsigned short,_STL::allocator<unsigned short> > * *,_STL::vector<unsigned short,_STL::allocator<unsigned short> > * *>::_Ret, COMDAT

; 234  :   static __true_type _Ret() { return __true_type();} 

  00000	55		 push	 ebp
  00001	8b ec		 mov	 ebp, esp
  00003	51		 push	 ecx
  00004	57		 push	 edi
  00005	33 c0		 xor	 eax, eax
  00007	8d 7d ff	 lea	 edi, DWORD PTR $T111416[ebp]
  0000a	aa		 stosb
  0000b	8a 45 ff	 mov	 al, BYTE PTR $T111416[ebp]
  0000e	5f		 pop	 edi
  0000f	c9		 leave
  00010	c3		 ret	 0
?_Ret@?$_BothPtrType@PAPAV?$vector@GV?$allocator@G@_STL@@@_STL@@PAPAV12@@_STL@@SA?AU__true_type@2@XZ ENDP ; _STL::_BothPtrType<_STL::vector<unsigned short,_STL::allocator<unsigned short> > * *,_STL::vector<unsigned short,_STL::allocator<unsigned short> > * *>::_Ret
_TEXT	ENDS
PUBLIC	?_Ret@?$_BothPtrType@PAGPAG@_STL@@SA?AU__true_type@2@XZ ; _STL::_BothPtrType<unsigned short *,unsigned short *>::_Ret
; Function compile flags: /Ogsy
;	COMDAT ?_Ret@?$_BothPtrType@PAGPAG@_STL@@SA?AU__true_type@2@XZ
_TEXT	SEGMENT
$T111419 = -1						; size = 1
?_Ret@?$_BothPtrType@PAGPAG@_STL@@SA?AU__true_type@2@XZ PROC NEAR ; _STL::_BothPtrType<unsigned short *,unsigned short *>::_Ret, COMDAT

; 234  :   static __true_type _Ret() { return __true_type();} 

  00000	55		 push	 ebp
  00001	8b ec		 mov	 ebp, esp
  00003	51		 push	 ecx
  00004	57		 push	 edi
  00005	33 c0		 xor	 eax, eax
  00007	8d 7d ff	 lea	 edi, DWORD PTR $T111419[ebp]
  0000a	aa		 stosb
  0000b	8a 45 ff	 mov	 al, BYTE PTR $T111419[ebp]
  0000e	5f		 pop	 edi
  0000f	c9		 leave
  00010	c3		 ret	 0
?_Ret@?$_BothPtrType@PAGPAG@_STL@@SA?AU__true_type@2@XZ ENDP ; _STL::_BothPtrType<unsigned short *,unsigned short *>::_Ret
_TEXT	ENDS
PUBLIC	?_Ret@?$_OKToMemCpy@PAV?$vector@GV?$allocator@G@_STL@@@_STL@@PAV12@@_STL@@SA?AU__true_type@2@XZ ; _STL::_OKToMemCpy<_STL::vector<unsigned short,_STL::allocator<unsigned short> > *,_STL::vector<unsigned short,_STL::allocator<unsigned short> > *>::_Ret
; Function compile flags: /Ogsy
;	COMDAT ?_Ret@?$_OKToMemCpy@PAV?$vector@GV?$allocator@G@_STL@@@_STL@@PAV12@@_STL@@SA?AU__true_type@2@XZ
_TEXT	SEGMENT
$T111422 = -1						; size = 1
?_Ret@?$_OKToMemCpy@PAV?$vector@GV?$allocator@G@_STL@@@_STL@@PAV12@@_STL@@SA?AU__true_type@2@XZ PROC NEAR ; _STL::_OKToMemCpy<_STL::vector<unsigned short,_STL::allocator<unsigned short> > *,_STL::vector<unsigned short,_STL::allocator<unsigned short> > *>::_Ret, COMDAT

; 361  :   static _Type _Ret() { return _Type(); }

  00000	55		 push	 ebp
  00001	8b ec		 mov	 ebp, esp
  00003	51		 push	 ecx
  00004	57		 push	 edi
  00005	33 c0		 xor	 eax, eax
  00007	8d 7d ff	 lea	 edi, DWORD PTR $T111422[ebp]
  0000a	aa		 stosb
  0000b	8a 45 ff	 mov	 al, BYTE PTR $T111422[ebp]
  0000e	5f		 pop	 edi
  0000f	c9		 leave
  00010	c3		 ret	 0
?_Ret@?$_OKToMemCpy@PAV?$vector@GV?$allocator@G@_STL@@@_STL@@PAV12@@_STL@@SA?AU__true_type@2@XZ ENDP ; _STL::_OKToMemCpy<_STL::vector<unsigned short,_STL::allocator<unsigned short> > *,_STL::vector<unsigned short,_STL::allocator<unsigned short> > *>::_Ret
_TEXT	ENDS
PUBLIC	?_Ret@?$_OKToMemCpy@GG@_STL@@SA?AU__true_type@2@XZ ; _STL::_OKToMemCpy<unsigned short,unsigned short>::_Ret
; Function compile flags: /Ogsy
;	COMDAT ?_Ret@?$_OKToMemCpy@GG@_STL@@SA?AU__true_type@2@XZ
_TEXT	SEGMENT
$T111425 = -1						; size = 1
?_Ret@?$_OKToMemCpy@GG@_STL@@SA?AU__true_type@2@XZ PROC NEAR ; _STL::_OKToMemCpy<unsigned short,unsigned short>::_Ret, COMDAT

; 361  :   static _Type _Ret() { return _Type(); }

  00000	55		 push	 ebp
  00001	8b ec		 mov	 ebp, esp
  00003	51		 push	 ecx
  00004	57		 push	 edi
  00005	33 c0		 xor	 eax, eax
  00007	8d 7d ff	 lea	 edi, DWORD PTR $T111425[ebp]
  0000a	aa		 stosb
  0000b	8a 45 ff	 mov	 al, BYTE PTR $T111425[ebp]
  0000e	5f		 pop	 edi
  0000f	c9		 leave
  00010	c3		 ret	 0
?_Ret@?$_OKToMemCpy@GG@_STL@@SA?AU__true_type@2@XZ ENDP	; _STL::_OKToMemCpy<unsigned short,unsigned short>::_Ret
_TEXT	ENDS
PUBLIC	??$_IsOKToMemCpy@PAV?$vector@GV?$allocator@G@_STL@@@_STL@@PAV12@@_STL@@YA?AU?$_OKToMemCpy@PAV?$vector@GV?$allocator@G@_STL@@@_STL@@PAV12@@0@PAPAV?$vector@GV?$allocator@G@_STL@@@0@0@Z ; _STL::_IsOKToMemCpy<_STL::vector<unsigned short,_STL::allocator<unsigned short> > *,_STL::vector<unsigned short,_STL::allocator<unsigned short> > *>
; Function compile flags: /Ogsy
;	COMDAT ??$_IsOKToMemCpy@PAV?$vector@GV?$allocator@G@_STL@@@_STL@@PAV12@@_STL@@YA?AU?$_OKToMemCpy@PAV?$vector@GV?$allocator@G@_STL@@@_STL@@PAV12@@0@PAPAV?$vector@GV?$allocator@G@_STL@@@0@0@Z
_TEXT	SEGMENT
$T111428 = -1						; size = 1
___formal$ = 8						; size = 4
___formal$ = 12						; size = 4
??$_IsOKToMemCpy@PAV?$vector@GV?$allocator@G@_STL@@@_STL@@PAV12@@_STL@@YA?AU?$_OKToMemCpy@PAV?$vector@GV?$allocator@G@_STL@@@_STL@@PAV12@@0@PAPAV?$vector@GV?$allocator@G@_STL@@@0@0@Z PROC NEAR ; _STL::_IsOKToMemCpy<_STL::vector<unsigned short,_STL::allocator<unsigned short> > *,_STL::vector<unsigned short,_STL::allocator<unsigned short> > *>, COMDAT

; 365  : inline _OKToMemCpy<_Tp1, _Tp2> _IsOKToMemCpy(_Tp1*, _Tp2*)  {

  00000	55		 push	 ebp
  00001	8b ec		 mov	 ebp, esp
  00003	51		 push	 ecx
  00004	57		 push	 edi

; 366  :   return _OKToMemCpy<_Tp1, _Tp2>();

  00005	33 c0		 xor	 eax, eax
  00007	8d 7d ff	 lea	 edi, DWORD PTR $T111428[ebp]
  0000a	aa		 stosb
  0000b	8a 45 ff	 mov	 al, BYTE PTR $T111428[ebp]
  0000e	5f		 pop	 edi

; 367  : }

  0000f	c9		 leave
  00010	c3		 ret	 0
??$_IsOKToMemCpy@PAV?$vector@GV?$allocator@G@_STL@@@_STL@@PAV12@@_STL@@YA?AU?$_OKToMemCpy@PAV?$vector@GV?$allocator@G@_STL@@@_STL@@PAV12@@0@PAPAV?$vector@GV?$allocator@G@_STL@@@0@0@Z ENDP ; _STL::_IsOKToMemCpy<_STL::vector<unsigned short,_STL::allocator<unsigned short> > *,_STL::vector<unsigned short,_STL::allocator<unsigned short> > *>
_TEXT	ENDS
PUBLIC	??$__copy_ptrs@PAPAV?$vector@GV?$allocator@G@_STL@@@_STL@@PAPAV12@@_STL@@YAPAPAV?$vector@GV?$allocator@G@_STL@@@0@PAPAV10@00ABU__true_type@0@@Z ; _STL::__copy_ptrs<_STL::vector<unsigned short,_STL::allocator<unsigned short> > * *,_STL::vector<unsigned short,_STL::allocator<unsigned short> > * *>
; Function compile flags: /Ogsy
; File c:\stlport-4.6.1\stlport\stl\_algobase.h
;	COMDAT ??$__copy_ptrs@PAPAV?$vector@GV?$allocator@G@_STL@@@_STL@@PAPAV12@@_STL@@YAPAPAV?$vector@GV?$allocator@G@_STL@@@0@PAPAV10@00ABU__true_type@0@@Z
_TEXT	SEGMENT
___first$ = 8						; size = 4
___last$ = 12						; size = 4
___result$ = 16						; size = 4
___formal$ = 20						; size = 4
??$__copy_ptrs@PAPAV?$vector@GV?$allocator@G@_STL@@@_STL@@PAPAV12@@_STL@@YAPAPAV?$vector@GV?$allocator@G@_STL@@@0@PAPAV10@00ABU__true_type@0@@Z PROC NEAR ; _STL::__copy_ptrs<_STL::vector<unsigned short,_STL::allocator<unsigned short> > * *,_STL::vector<unsigned short,_STL::allocator<unsigned short> > * *>, COMDAT

; 195  : // we know they all pointers, so this cast is OK 
; 196  :   //  return (_OutputIter)__copy_trivial(&(*__first), &(*__last), &(*__result));
; 197  :   return (_OutputIter)__copy_trivial(__first, __last, __result);

  00000	ff 74 24 0c	 push	 DWORD PTR ___result$[esp-4]
  00004	ff 74 24 0c	 push	 DWORD PTR ___last$[esp]
  00008	ff 74 24 0c	 push	 DWORD PTR ___first$[esp+4]
  0000c	e8 00 00 00 00	 call	 ?__copy_trivial@_STL@@YAPAXPBX0PAX@Z ; _STL::__copy_trivial
  00011	83 c4 0c	 add	 esp, 12			; 0000000cH

; 198  : }

  00014	c3		 ret	 0
??$__copy_ptrs@PAPAV?$vector@GV?$allocator@G@_STL@@@_STL@@PAPAV12@@_STL@@YAPAPAV?$vector@GV?$allocator@G@_STL@@@0@PAPAV10@00ABU__true_type@0@@Z ENDP ; _STL::__copy_ptrs<_STL::vector<unsigned short,_STL::allocator<unsigned short> > * *,_STL::vector<unsigned short,_STL::allocator<unsigned short> > * *>
_TEXT	ENDS
PUBLIC	??$_IsOKToMemCpy@GG@_STL@@YA?AU?$_OKToMemCpy@GG@0@PAG0@Z ; _STL::_IsOKToMemCpy<unsigned short,unsigned short>
; Function compile flags: /Ogsy
; File c:\stlport-4.6.1\stlport\stl\type_traits.h
;	COMDAT ??$_IsOKToMemCpy@GG@_STL@@YA?AU?$_OKToMemCpy@GG@0@PAG0@Z
_TEXT	SEGMENT
$T111434 = -1						; size = 1
___formal$ = 8						; size = 4
___formal$ = 12						; size = 4
??$_IsOKToMemCpy@GG@_STL@@YA?AU?$_OKToMemCpy@GG@0@PAG0@Z PROC NEAR ; _STL::_IsOKToMemCpy<unsigned short,unsigned short>, COMDAT

; 365  : inline _OKToMemCpy<_Tp1, _Tp2> _IsOKToMemCpy(_Tp1*, _Tp2*)  {

  00000	55		 push	 ebp
  00001	8b ec		 mov	 ebp, esp
  00003	51		 push	 ecx
  00004	57		 push	 edi

; 366  :   return _OKToMemCpy<_Tp1, _Tp2>();

  00005	33 c0		 xor	 eax, eax
  00007	8d 7d ff	 lea	 edi, DWORD PTR $T111434[ebp]
  0000a	aa		 stosb
  0000b	8a 45 ff	 mov	 al, BYTE PTR $T111434[ebp]
  0000e	5f		 pop	 edi

; 367  : }

  0000f	c9		 leave
  00010	c3		 ret	 0
??$_IsOKToMemCpy@GG@_STL@@YA?AU?$_OKToMemCpy@GG@0@PAG0@Z ENDP ; _STL::_IsOKToMemCpy<unsigned short,unsigned short>
_TEXT	ENDS
PUBLIC	??$__copy_ptrs@PAGPAG@_STL@@YAPAGPAG00ABU__true_type@0@@Z ; _STL::__copy_ptrs<unsigned short *,unsigned short *>
; Function compile flags: /Ogsy
; File c:\stlport-4.6.1\stlport\stl\_algobase.h
;	COMDAT ??$__copy_ptrs@PAGPAG@_STL@@YAPAGPAG00ABU__true_type@0@@Z
_TEXT	SEGMENT
___first$ = 8						; size = 4
___last$ = 12						; size = 4
___result$ = 16						; size = 4
___formal$ = 20						; size = 4
??$__copy_ptrs@PAGPAG@_STL@@YAPAGPAG00ABU__true_type@0@@Z PROC NEAR ; _STL::__copy_ptrs<unsigned short *,unsigned short *>, COMDAT

; 195  : // we know they all pointers, so this cast is OK 
; 196  :   //  return (_OutputIter)__copy_trivial(&(*__first), &(*__last), &(*__result));
; 197  :   return (_OutputIter)__copy_trivial(__first, __last, __result);

  00000	ff 74 24 0c	 push	 DWORD PTR ___result$[esp-4]
  00004	ff 74 24 0c	 push	 DWORD PTR ___last$[esp]
  00008	ff 74 24 0c	 push	 DWORD PTR ___first$[esp+4]
  0000c	e8 00 00 00 00	 call	 ?__copy_trivial@_STL@@YAPAXPBX0PAX@Z ; _STL::__copy_trivial
  00011	83 c4 0c	 add	 esp, 12			; 0000000cH

; 198  : }

  00014	c3		 ret	 0
??$__copy_ptrs@PAGPAG@_STL@@YAPAGPAG00ABU__true_type@0@@Z ENDP ; _STL::__copy_ptrs<unsigned short *,unsigned short *>
_TEXT	ENDS
PUBLIC	?eof@?$__char_traits_base@DH@_STL@@SAHXZ	; _STL::__char_traits_base<char,int>::eof
; Function compile flags: /Ogsy
; File c:\stlport-4.6.1\stlport\stl\char_traits.h
;	COMDAT ?eof@?$__char_traits_base@DH@_STL@@SAHXZ
_TEXT	SEGMENT
?eof@?$__char_traits_base@DH@_STL@@SAHXZ PROC NEAR	; _STL::__char_traits_base<char,int>::eof, COMDAT

; 197  :     return (int_type)-1;

  00000	83 c8 ff	 or	 eax, -1

; 198  :     //    return __STATIC_CAST(int_type,-1);
; 199  :   }

  00003	c3		 ret	 0
?eof@?$__char_traits_base@DH@_STL@@SAHXZ ENDP		; _STL::__char_traits_base<char,int>::eof
_TEXT	ENDS
PUBLIC	??1?$allocator@G@_STL@@QAE@XZ			; _STL::allocator<unsigned short>::~allocator<unsigned short>
; Function compile flags: /Ogsy
; File c:\stlport-4.6.1\stlport\stl\_alloc.h
;	COMDAT ??1?$allocator@G@_STL@@QAE@XZ
_TEXT	SEGMENT
??1?$allocator@G@_STL@@QAE@XZ PROC NEAR			; _STL::allocator<unsigned short>::~allocator<unsigned short>, COMDAT
; _this$ = ecx

; 350  :   ~allocator() _STLP_NOTHROW {}

  00000	c3		 ret	 0
??1?$allocator@G@_STL@@QAE@XZ ENDP			; _STL::allocator<unsigned short>::~allocator<unsigned short>
_TEXT	ENDS
PUBLIC	?allocate@?$__node_alloc@$00$0A@@_STL@@SAPAXI@Z	; _STL::__node_alloc<1,0>::allocate
EXTRN	?_M_allocate@?$__node_alloc@$00$0A@@_STL@@CAPAXI@Z:NEAR ; _STL::__node_alloc<1,0>::_M_allocate
; Function compile flags: /Ogsy
;	COMDAT ?allocate@?$__node_alloc@$00$0A@@_STL@@SAPAXI@Z
_TEXT	SEGMENT
___n$ = 8						; size = 4
?allocate@?$__node_alloc@$00$0A@@_STL@@SAPAXI@Z PROC NEAR ; _STL::__node_alloc<1,0>::allocate, COMDAT

; 251  :   static void * _STLP_CALL allocate(size_t __n) { return (__n > (size_t)_MAX_BYTES) ?  __stl_new(__n) : _M_allocate(__n); }

  00000	8b 44 24 04	 mov	 eax, DWORD PTR ___n$[esp-4]
  00004	3d 80 00 00 00	 cmp	 eax, 128		; 00000080H
  00009	50		 push	 eax
  0000a	76 07		 jbe	 SHORT $L111446
  0000c	e8 00 00 00 00	 call	 ??2@YAPAXI@Z		; operator new
  00011	59		 pop	 ecx
  00012	c3		 ret	 0
$L111446:
  00013	e8 00 00 00 00	 call	 ?_M_allocate@?$__node_alloc@$00$0A@@_STL@@CAPAXI@Z ; _STL::__node_alloc<1,0>::_M_allocate
  00018	59		 pop	 ecx
  00019	c3		 ret	 0
?allocate@?$__node_alloc@$00$0A@@_STL@@SAPAXI@Z ENDP	; _STL::__node_alloc<1,0>::allocate
_TEXT	ENDS
PUBLIC	?deallocate@?$__node_alloc@$00$0A@@_STL@@SAXPAXI@Z ; _STL::__node_alloc<1,0>::deallocate
EXTRN	?_M_deallocate@?$__node_alloc@$00$0A@@_STL@@CAXPAXI@Z:NEAR ; _STL::__node_alloc<1,0>::_M_deallocate
; Function compile flags: /Ogsy
;	COMDAT ?deallocate@?$__node_alloc@$00$0A@@_STL@@SAXPAXI@Z
_TEXT	SEGMENT
___p$ = 8						; size = 4
___n$ = 12						; size = 4
?deallocate@?$__node_alloc@$00$0A@@_STL@@SAXPAXI@Z PROC NEAR ; _STL::__node_alloc<1,0>::deallocate, COMDAT

; 253  :   static void _STLP_CALL deallocate(void *__p, size_t __n) { if (__n > (size_t)_MAX_BYTES) __stl_delete(__p); else _M_deallocate(__p, __n); }

  00000	81 7c 24 08 80
	00 00 00	 cmp	 DWORD PTR ___n$[esp-4], 128 ; 00000080H
  00008	76 0b		 jbe	 SHORT $L98677
  0000a	ff 74 24 04	 push	 DWORD PTR ___p$[esp-4]
  0000e	e8 00 00 00 00	 call	 ??3@YAXPAX@Z		; operator delete
  00013	59		 pop	 ecx
  00014	c3		 ret	 0
$L98677:
  00015	e9 00 00 00 00	 jmp	 ?_M_deallocate@?$__node_alloc@$00$0A@@_STL@@CAXPAXI@Z ; _STL::__node_alloc<1,0>::_M_deallocate
?deallocate@?$__node_alloc@$00$0A@@_STL@@SAXPAXI@Z ENDP	; _STL::__node_alloc<1,0>::deallocate
_TEXT	ENDS
PUBLIC	?GetActionMax@CREATURETABLE_INFO@@QBEHXZ	; CREATURETABLE_INFO::GetActionMax
; Function compile flags: /Ogsy
; File c:\darkeden\designed_common\project\client\mcreaturetable.cpp
;	COMDAT ?GetActionMax@CREATURETABLE_INFO@@QBEHXZ
_TEXT	SEGMENT
?GetActionMax@CREATURETABLE_INFO@@QBEHXZ PROC NEAR	; CREATURETABLE_INFO::GetActionMax, COMDAT
; _this$ = ecx

; 231  : 
; 232  : 	switch (m_CreatureTribe)

  00000	8b 41 64	 mov	 eax, DWORD PTR [ecx+100]
  00003	83 f8 0a	 cmp	 eax, 10			; 0000000aH
  00006	77 2b		 ja	 SHORT $L107965
  00008	ff 24 85 00 00
	00 00		 jmp	 DWORD PTR $L111465[eax*4]
$L107968:

; 233  : 	{
; 234  : 		case CREATURETRIBE_SLAYER :			// 
; 235  : 		case CREATURETRIBE_SLAYER_NPC :		//  NPC
; 236  : 			return ACTION_MAX_SLAYER;

  0000f	6a 28		 push	 40			; 00000028H
  00011	eb 1e		 jmp	 SHORT $L111464
$L107969:

; 237  : 		break;
; 238  : 
; 239  : 		case CREATURETRIBE_VAMPIRE :			// 
; 240  : 			if(204 == SpriteTypes[0]) // 

  00013	8b 41 18	 mov	 eax, DWORD PTR [ecx+24]
  00016	33 c9		 xor	 ecx, ecx
  00018	81 38 cc 00 00
	00		 cmp	 DWORD PTR [eax], 204	; 000000ccH
  0001e	0f 95 c1	 setne	 cl
  00021	49		 dec	 ecx
  00022	83 e1 05	 and	 ecx, 5
  00025	83 c1 11	 add	 ecx, 17			; 00000011H
  00028	8b c1		 mov	 eax, ecx

; 267  : }

  0002a	c3		 ret	 0
$L107971:

; 241  : 				return ACTION_MAX_OUSTERS;
; 242  : 			return ACTION_MAX_VAMPIRE;
; 243  : 		break;
; 244  : 
; 245  : 		case CREATURETRIBE_OUSTERS :			// 
; 246  : 		case CREATURETRIBE_OUSTERS_NPC:
; 247  : 			return ACTION_MAX_OUSTERS;

  0002b	6a 16		 push	 22			; 00000016H
  0002d	eb 02		 jmp	 SHORT $L111464
$L107974:

; 248  : 			break;
; 249  : 			
; 250  : 		case CREATURETRIBE_NPC :				// NPC
; 251  : 			//return ACTION_MAX_NPC;
; 252  : 			return ACTION_MAX_VAMPIRE;
; 253  : 		break;		
; 254  : 	case CREATURETRIBE_UNKNOW1 :				// NPC
; 255  : 	case CREATURETRIBE_UNKNOW2 :	
; 256  : 	case CREATURETRIBE_UNKNOW3 :	
; 257  : 		//return ACTION_MAX_NPC;
; 258  : 		return ACTION_MAX_VAMPIRE;
; 259  : 		break;
; 260  : 	case CREATURETRIBE_UNKNOW4 :
; 261  : 	case CREATURETRIBE_UNKNOW5 :
; 262  : 		//return ACTION_MAX_NPC;
; 263  : 		return ACTION_MAX_VAMPIRE;

  0002f	6a 11		 push	 17			; 00000011H
$L111464:
  00031	58		 pop	 eax

; 267  : }

  00032	c3		 ret	 0
$L107965:

; 264  : 	}
; 265  : 
; 266  : 	return 0;

  00033	33 c0		 xor	 eax, eax

; 267  : }

  00035	c3		 ret	 0
$L111465:
  00036	00 00 00 00	 DD	 $L107968
  0003a	00 00 00 00	 DD	 $L107969
  0003e	00 00 00 00	 DD	 $L107974
  00042	00 00 00 00	 DD	 $L107968
  00046	00 00 00 00	 DD	 $L107971
  0004a	00 00 00 00	 DD	 $L107971
  0004e	00 00 00 00	 DD	 $L107974
  00052	00 00 00 00	 DD	 $L107974
  00056	00 00 00 00	 DD	 $L107974
  0005a	00 00 00 00	 DD	 $L107974
  0005e	00 00 00 00	 DD	 $L107974
?GetActionMax@CREATURETABLE_INFO@@QBEHXZ ENDP		; CREATURETABLE_INFO::GetActionMax
_TEXT	ENDS
PUBLIC	??A?$vector@PAV?$vector@GV?$allocator@G@_STL@@@_STL@@V?$allocator@PAV?$vector@GV?$allocator@G@_STL@@@_STL@@@2@@_STL@@QAEAAPAV?$vector@GV?$allocator@G@_STL@@@1@I@Z ; _STL::vector<_STL::vector<unsigned short,_STL::allocator<unsigned short> > *,_STL::allocator<_STL::vector<unsigned short,_STL::allocator<unsigned short> > *> >::operator[]
; Function compile flags: /Ogsy
; File c:\stlport-4.6.1\stlport\stl\_vector.h
;	COMDAT ??A?$vector@PAV?$vector@GV?$allocator@G@_STL@@@_STL@@V?$allocator@PAV?$vector@GV?$allocator@G@_STL@@@_STL@@@2@@_STL@@QAEAAPAV?$vector@GV?$allocator@G@_STL@@@1@I@Z
_TEXT	SEGMENT
___n$ = 8						; size = 4
??A?$vector@PAV?$vector@GV?$allocator@G@_STL@@@_STL@@V?$allocator@PAV?$vector@GV?$allocator@G@_STL@@@_STL@@@2@@_STL@@QAEAAPAV?$vector@GV?$allocator@G@_STL@@@1@I@Z PROC NEAR ; _STL::vector<_STL::vector<unsigned short,_STL::allocator<unsigned short> > *,_STL::allocator<_STL::vector<unsigned short,_STL::allocator<unsigned short> > *> >::operator[], COMDAT
; _this$ = ecx

; 187  :   reference operator[](size_type __n) { return *(begin() + __n); }

  00000	8b 01		 mov	 eax, DWORD PTR [ecx]
  00002	8b 4c 24 04	 mov	 ecx, DWORD PTR ___n$[esp-4]
  00006	8d 04 88	 lea	 eax, DWORD PTR [eax+ecx*4]
  00009	c2 04 00	 ret	 4
??A?$vector@PAV?$vector@GV?$allocator@G@_STL@@@_STL@@V?$allocator@PAV?$vector@GV?$allocator@G@_STL@@@_STL@@@2@@_STL@@QAEAAPAV?$vector@GV?$allocator@G@_STL@@@1@I@Z ENDP ; _STL::vector<_STL::vector<unsigned short,_STL::allocator<unsigned short> > *,_STL::allocator<_STL::vector<unsigned short,_STL::allocator<unsigned short> > *> >::operator[]
_TEXT	ENDS
PUBLIC	??A?$vector@PAV?$vector@GV?$allocator@G@_STL@@@_STL@@V?$allocator@PAV?$vector@GV?$allocator@G@_STL@@@_STL@@@2@@_STL@@QBEABQAV?$vector@GV?$allocator@G@_STL@@@1@I@Z ; _STL::vector<_STL::vector<unsigned short,_STL::allocator<unsigned short> > *,_STL::allocator<_STL::vector<unsigned short,_STL::allocator<unsigned short> > *> >::operator[]
; Function compile flags: /Ogsy
;	COMDAT ??A?$vector@PAV?$vector@GV?$allocator@G@_STL@@@_STL@@V?$allocator@PAV?$vector@GV?$allocator@G@_STL@@@_STL@@@2@@_STL@@QBEABQAV?$vector@GV?$allocator@G@_STL@@@1@I@Z
_TEXT	SEGMENT
___n$ = 8						; size = 4
??A?$vector@PAV?$vector@GV?$allocator@G@_STL@@@_STL@@V?$allocator@PAV?$vector@GV?$allocator@G@_STL@@@_STL@@@2@@_STL@@QBEABQAV?$vector@GV?$allocator@G@_STL@@@1@I@Z PROC NEAR ; _STL::vector<_STL::vector<unsigned short,_STL::allocator<unsigned short> > *,_STL::allocator<_STL::vector<unsigned short,_STL::allocator<unsigned short> > *> >::operator[], COMDAT
; _this$ = ecx

; 188  :   const_reference operator[](size_type __n) const { return *(begin() + __n); }

  00000	8b 01		 mov	 eax, DWORD PTR [ecx]
  00002	8b 4c 24 04	 mov	 ecx, DWORD PTR ___n$[esp-4]
  00006	8d 04 88	 lea	 eax, DWORD PTR [eax+ecx*4]
  00009	c2 04 00	 ret	 4
??A?$vector@PAV?$vector@GV?$allocator@G@_STL@@@_STL@@V?$allocator@PAV?$vector@GV?$allocator@G@_STL@@@_STL@@@2@@_STL@@QBEABQAV?$vector@GV?$allocator@G@_STL@@@1@I@Z ENDP ; _STL::vector<_STL::vector<unsigned short,_STL::allocator<unsigned short> > *,_STL::allocator<_STL::vector<unsigned short,_STL::allocator<unsigned short> > *> >::operator[]
_TEXT	ENDS
PUBLIC	??A?$vector@GV?$allocator@G@_STL@@@_STL@@QAEAAGI@Z ; _STL::vector<unsigned short,_STL::allocator<unsigned short> >::operator[]
; Function compile flags: /Ogsy
;	COMDAT ??A?$vector@GV?$allocator@G@_STL@@@_STL@@QAEAAGI@Z
_TEXT	SEGMENT
___n$ = 8						; size = 4
??A?$vector@GV?$allocator@G@_STL@@@_STL@@QAEAAGI@Z PROC NEAR ; _STL::vector<unsigned short,_STL::allocator<unsigned short> >::operator[], COMDAT
; _this$ = ecx

; 187  :   reference operator[](size_type __n) { return *(begin() + __n); }

  00000	8b 01		 mov	 eax, DWORD PTR [ecx]
  00002	8b 4c 24 04	 mov	 ecx, DWORD PTR ___n$[esp-4]
  00006	8d 04 48	 lea	 eax, DWORD PTR [eax+ecx*2]
  00009	c2 04 00	 ret	 4
??A?$vector@GV?$allocator@G@_STL@@@_STL@@QAEAAGI@Z ENDP	; _STL::vector<unsigned short,_STL::allocator<unsigned short> >::operator[]
_TEXT	ENDS
PUBLIC	??A?$vector@GV?$allocator@G@_STL@@@_STL@@QBEABGI@Z ; _STL::vector<unsigned short,_STL::allocator<unsigned short> >::operator[]
; Function compile flags: /Ogsy
;	COMDAT ??A?$vector@GV?$allocator@G@_STL@@@_STL@@QBEABGI@Z
_TEXT	SEGMENT
___n$ = 8						; size = 4
??A?$vector@GV?$allocator@G@_STL@@@_STL@@QBEABGI@Z PROC NEAR ; _STL::vector<unsigned short,_STL::allocator<unsigned short> >::operator[], COMDAT
; _this$ = ecx

; 188  :   const_reference operator[](size_type __n) const { return *(begin() + __n); }

  00000	8b 01		 mov	 eax, DWORD PTR [ecx]
  00002	8b 4c 24 04	 mov	 ecx, DWORD PTR ___n$[esp-4]
  00006	8d 04 48	 lea	 eax, DWORD PTR [eax+ecx*2]
  00009	c2 04 00	 ret	 4
??A?$vector@GV?$allocator@G@_STL@@@_STL@@QBEABGI@Z ENDP	; _STL::vector<unsigned short,_STL::allocator<unsigned short> >::operator[]
_TEXT	ENDS
PUBLIC	?allocate@?$allocator@G@_STL@@QAEPAGIPBX@Z	; _STL::allocator<unsigned short>::allocate
; Function compile flags: /Ogsy
; File c:\stlport-4.6.1\stlport\stl\_alloc.h
;	COMDAT ?allocate@?$allocator@G@_STL@@QAEPAGIPBX@Z
_TEXT	SEGMENT
___n$ = 8						; size = 4
___formal$ = 12						; size = 4
?allocate@?$allocator@G@_STL@@QAEPAGIPBX@Z PROC NEAR	; _STL::allocator<unsigned short>::allocate, COMDAT
; _this$ = ecx

; 355  :     return __n != 0 ? __REINTERPRET_CAST(value_type*,__sgi_alloc::allocate(__n * sizeof(value_type))) : 0;

  00000	8b 44 24 04	 mov	 eax, DWORD PTR ___n$[esp-4]
  00004	85 c0		 test	 eax, eax
  00006	74 0b		 je	 SHORT $L111497
  00008	03 c0		 add	 eax, eax
  0000a	50		 push	 eax
  0000b	e8 00 00 00 00	 call	 ?allocate@?$__node_alloc@$00$0A@@_STL@@SAPAXI@Z ; _STL::__node_alloc<1,0>::allocate
  00010	59		 pop	 ecx
  00011	eb 02		 jmp	 SHORT $L111498
$L111497:
  00013	33 c0		 xor	 eax, eax
$L111498:

; 356  :   }

  00015	c2 08 00	 ret	 8
?allocate@?$allocator@G@_STL@@QAEPAGIPBX@Z ENDP		; _STL::allocator<unsigned short>::allocate
_TEXT	ENDS
PUBLIC	??0?$_STLP_alloc_proxy@PAGGV?$allocator@G@_STL@@@_STL@@QAE@ABV?$allocator@G@1@PAG@Z ; _STL::_STLP_alloc_proxy<unsigned short *,unsigned short,_STL::allocator<unsigned short> >::_STLP_alloc_proxy<unsigned short *,unsigned short,_STL::allocator<unsigned short> >
; Function compile flags: /Ogsy
;	COMDAT ??0?$_STLP_alloc_proxy@PAGGV?$allocator@G@_STL@@@_STL@@QAE@ABV?$allocator@G@1@PAG@Z
_TEXT	SEGMENT
___a$ = 8						; size = 4
___p$ = 12						; size = 4
??0?$_STLP_alloc_proxy@PAGGV?$allocator@G@_STL@@@_STL@@QAE@ABV?$allocator@G@1@PAG@Z PROC NEAR ; _STL::_STLP_alloc_proxy<unsigned short *,unsigned short,_STL::allocator<unsigned short> >::_STLP_alloc_proxy<unsigned short *,unsigned short,_STL::allocator<unsigned short> >, COMDAT
; _this$ = ecx

; 487  :   inline _STLP_alloc_proxy(const _MaybeReboundAlloc& __a, _Value __p) : _MaybeReboundAlloc(__a), _M_data(__p) {}

  00000	8b c1		 mov	 eax, ecx
  00002	8b 4c 24 08	 mov	 ecx, DWORD PTR ___p$[esp-4]
  00006	89 08		 mov	 DWORD PTR [eax], ecx
  00008	c2 08 00	 ret	 8
??0?$_STLP_alloc_proxy@PAGGV?$allocator@G@_STL@@@_STL@@QAE@ABV?$allocator@G@1@PAG@Z ENDP ; _STL::_STLP_alloc_proxy<unsigned short *,unsigned short,_STL::allocator<unsigned short> >::_STLP_alloc_proxy<unsigned short *,unsigned short,_STL::allocator<unsigned short> >
_TEXT	ENDS
PUBLIC	?deallocate@?$allocator@PAV?$vector@GV?$allocator@G@_STL@@@_STL@@@_STL@@QAEXPAPAV?$vector@GV?$allocator@G@_STL@@@2@I@Z ; _STL::allocator<_STL::vector<unsigned short,_STL::allocator<unsigned short> > *>::deallocate
; Function compile flags: /Ogsy
;	COMDAT ?deallocate@?$allocator@PAV?$vector@GV?$allocator@G@_STL@@@_STL@@@_STL@@QAEXPAPAV?$vector@GV?$allocator@G@_STL@@@2@I@Z
_TEXT	SEGMENT
___p$ = 8						; size = 4
___n$ = 12						; size = 4
?deallocate@?$allocator@PAV?$vector@GV?$allocator@G@_STL@@@_STL@@@_STL@@QAEXPAPAV?$vector@GV?$allocator@G@_STL@@@2@I@Z PROC NEAR ; _STL::allocator<_STL::vector<unsigned short,_STL::allocator<unsigned short> > *>::deallocate, COMDAT
; _this$ = ecx

; 359  :     _STLP_ASSERT( (__p == 0) == (__n == 0) )
; 360  :       if (__p != 0) __sgi_alloc::deallocate((void*)__p, __n * sizeof(value_type));

  00000	83 7c 24 04 00	 cmp	 DWORD PTR ___p$[esp-4], 0
  00005	74 13		 je	 SHORT $L108734
  00007	8b 44 24 08	 mov	 eax, DWORD PTR ___n$[esp-4]
  0000b	c1 e0 02	 shl	 eax, 2
  0000e	50		 push	 eax
  0000f	ff 74 24 08	 push	 DWORD PTR ___p$[esp]
  00013	e8 00 00 00 00	 call	 ?deallocate@?$__node_alloc@$00$0A@@_STL@@SAXPAXI@Z ; _STL::__node_alloc<1,0>::deallocate
  00018	59		 pop	 ecx
  00019	59		 pop	 ecx
$L108734:

; 361  :   }

  0001a	c2 08 00	 ret	 8
?deallocate@?$allocator@PAV?$vector@GV?$allocator@G@_STL@@@_STL@@@_STL@@QAEXPAPAV?$vector@GV?$allocator@G@_STL@@@2@I@Z ENDP ; _STL::allocator<_STL::vector<unsigned short,_STL::allocator<unsigned short> > *>::deallocate
_TEXT	ENDS
PUBLIC	??0?$_STLP_alloc_proxy@PAPAV?$vector@GV?$allocator@G@_STL@@@_STL@@PAV12@V?$allocator@PAV?$vector@GV?$allocator@G@_STL@@@_STL@@@2@@_STL@@QAE@ABV?$allocator@PAV?$vector@GV?$allocator@G@_STL@@@_STL@@@1@PAPAV?$vector@GV?$allocator@G@_STL@@@1@@Z ; _STL::_STLP_alloc_proxy<_STL::vector<unsigned short,_STL::allocator<unsigned short> > * *,_STL::vector<unsigned short,_STL::allocator<unsigned short> > *,_STL::allocator<_STL::vector<unsigned short,_STL::allocator<unsigned short> > *> >::_STLP_alloc_proxy<_STL::vector<unsigned short,_STL::allocator<unsigned short> > * *,_STL::vector<unsigned short,_STL::allocator<unsigned short> > *,_STL::allocator<_STL::vector<unsigned short,_STL::allocator<unsigned short> > *> >
; Function compile flags: /Ogsy
;	COMDAT ??0?$_STLP_alloc_proxy@PAPAV?$vector@GV?$allocator@G@_STL@@@_STL@@PAV12@V?$allocator@PAV?$vector@GV?$allocator@G@_STL@@@_STL@@@2@@_STL@@QAE@ABV?$allocator@PAV?$vector@GV?$allocator@G@_STL@@@_STL@@@1@PAPAV?$vector@GV?$allocator@G@_STL@@@1@@Z
_TEXT	SEGMENT
___a$ = 8						; size = 4
___p$ = 12						; size = 4
??0?$_STLP_alloc_proxy@PAPAV?$vector@GV?$allocator@G@_STL@@@_STL@@PAV12@V?$allocator@PAV?$vector@GV?$allocator@G@_STL@@@_STL@@@2@@_STL@@QAE@ABV?$allocator@PAV?$vector@GV?$allocator@G@_STL@@@_STL@@@1@PAPAV?$vector@GV?$allocator@G@_STL@@@1@@Z PROC NEAR ; _STL::_STLP_alloc_proxy<_STL::vector<unsigned short,_STL::allocator<unsigned short> > * *,_STL::vector<unsigned short,_STL::allocator<unsigned short> > *,_STL::allocator<_STL::vector<unsigned short,_STL::allocator<unsigned short> > *> >::_STLP_alloc_proxy<_STL::vector<unsigned short,_STL::allocator<unsigned short> > * *,_STL::vector<unsigned short,_STL::allocator<unsigned short> > *,_STL::allocator<_STL::vector<unsigned short,_STL::allocator<unsigned short> > *> >, COMDAT
; _this$ = ecx

; 487  :   inline _STLP_alloc_proxy(const _MaybeReboundAlloc& __a, _Value __p) : _MaybeReboundAlloc(__a), _M_data(__p) {}

  00000	8b c1		 mov	 eax, ecx
  00002	8b 4c 24 08	 mov	 ecx, DWORD PTR ___p$[esp-4]
  00006	89 08		 mov	 DWORD PTR [eax], ecx
  00008	c2 08 00	 ret	 8
??0?$_STLP_alloc_proxy@PAPAV?$vector@GV?$allocator@G@_STL@@@_STL@@PAV12@V?$allocator@PAV?$vector@GV?$allocator@G@_STL@@@_STL@@@2@@_STL@@QAE@ABV?$allocator@PAV?$vector@GV?$allocator@G@_STL@@@_STL@@@1@PAPAV?$vector@GV?$allocator@G@_STL@@@1@@Z ENDP ; _STL::_STLP_alloc_proxy<_STL::vector<unsigned short,_STL::allocator<unsigned short> > * *,_STL::vector<unsigned short,_STL::allocator<unsigned short> > *,_STL::allocator<_STL::vector<unsigned short,_STL::allocator<unsigned short> > *> >::_STLP_alloc_proxy<_STL::vector<unsigned short,_STL::allocator<unsigned short> > * *,_STL::vector<unsigned short,_STL::allocator<unsigned short> > *,_STL::allocator<_STL::vector<unsigned short,_STL::allocator<unsigned short> > *> >
_TEXT	ENDS
PUBLIC	??1?$CTypeTable@H@@QAE@XZ			; CTypeTable<int>::~CTypeTable<int>
; Function compile flags: /Ogsy
; File c:\darkeden\designed_common\project\client\ctypetable.h
;	COMDAT ??1?$CTypeTable@H@@QAE@XZ
_TEXT	SEGMENT
??1?$CTypeTable@H@@QAE@XZ PROC NEAR			; CTypeTable<int>::~CTypeTable<int>, COMDAT
; _this$ = ecx

; 72   : 	Release();

  00000	e9 00 00 00 00	 jmp	 ?Release@?$CTypeTable@H@@QAEXXZ ; CTypeTable<int>::Release
??1?$CTypeTable@H@@QAE@XZ ENDP				; CTypeTable<int>::~CTypeTable<int>
_TEXT	ENDS
PUBLIC	?Init@?$CTypeTable@H@@QAEXH@Z			; CTypeTable<int>::Init
EXTRN	??_U@YAPAXI@Z:NEAR				; operator new[]
; Function compile flags: /Ogsy
;	COMDAT ?Init@?$CTypeTable@H@@QAEXH@Z
_TEXT	SEGMENT
_size$ = 8						; size = 4
?Init@?$CTypeTable@H@@QAEXH@Z PROC NEAR			; CTypeTable<int>::Init, COMDAT
; _this$ = ecx

; 87   : {

  00000	56		 push	 esi
  00001	57		 push	 edi

; 88   : 	//    
; 89   : 	if (size==0) 

  00002	8b 7c 24 0c	 mov	 edi, DWORD PTR _size$[esp+4]
  00006	85 ff		 test	 edi, edi
  00008	8b f1		 mov	 esi, ecx
  0000a	74 16		 je	 SHORT $L108940

; 90   : 		return;
; 91   : 
; 92   : 	//  
; 93   : 	Release();

  0000c	e8 00 00 00 00	 call	 ?Release@?$CTypeTable@H@@QAEXXZ ; CTypeTable<int>::Release

; 94   : 
; 95   : 	//  
; 96   : 	m_Size = size;
; 97   : 	
; 98   : 	m_pTypeInfo = new Type [m_Size];	

  00011	8b c7		 mov	 eax, edi
  00013	c1 e0 02	 shl	 eax, 2
  00016	50		 push	 eax
  00017	89 3e		 mov	 DWORD PTR [esi], edi
  00019	e8 00 00 00 00	 call	 ??_U@YAPAXI@Z		; operator new[]
  0001e	59		 pop	 ecx
  0001f	89 46 04	 mov	 DWORD PTR [esi+4], eax
$L108940:
  00022	5f		 pop	 edi
  00023	5e		 pop	 esi

; 99   : }

  00024	c2 04 00	 ret	 4
?Init@?$CTypeTable@H@@QAEXH@Z ENDP			; CTypeTable<int>::Init
_TEXT	ENDS
PUBLIC	?setstate@?$basic_ios@DV?$char_traits@D@_STL@@@_STL@@QAEXH@Z ; _STL::basic_ios<char,_STL::char_traits<char> >::setstate
; Function compile flags: /Ogsy
; File c:\stlport-4.6.1\stlport\stl\_ios.h
;	COMDAT ?setstate@?$basic_ios@DV?$char_traits@D@_STL@@@_STL@@QAEXH@Z
_TEXT	SEGMENT
___state$ = 8						; size = 4
?setstate@?$basic_ios@DV?$char_traits@D@_STL@@@_STL@@QAEXH@Z PROC NEAR ; _STL::basic_ios<char,_STL::char_traits<char> >::setstate, COMDAT
; _this$ = ecx

; 94   :   void setstate(iostate __state) { this->clear(rdstate() | __state); }

  00000	8b 41 08	 mov	 eax, DWORD PTR [ecx+8]
  00003	0b 44 24 04	 or	 eax, DWORD PTR ___state$[esp-4]
  00007	50		 push	 eax
  00008	e8 00 00 00 00	 call	 ?clear@?$basic_ios@DV?$char_traits@D@_STL@@@_STL@@QAEXH@Z ; _STL::basic_ios<char,_STL::char_traits<char> >::clear
  0000d	c2 04 00	 ret	 4
?setstate@?$basic_ios@DV?$char_traits@D@_STL@@@_STL@@QAEXH@Z ENDP ; _STL::basic_ios<char,_STL::char_traits<char> >::setstate
_TEXT	ENDS
PUBLIC	?allocate@?$allocator@PAV?$vector@GV?$allocator@G@_STL@@@_STL@@@_STL@@QAEPAPAV?$vector@GV?$allocator@G@_STL@@@2@IPBX@Z ; _STL::allocator<_STL::vector<unsigned short,_STL::allocator<unsigned short> > *>::allocate
; Function compile flags: /Ogsy
; File c:\stlport-4.6.1\stlport\stl\_alloc.h
;	COMDAT ?allocate@?$allocator@PAV?$vector@GV?$allocator@G@_STL@@@_STL@@@_STL@@QAEPAPAV?$vector@GV?$allocator@G@_STL@@@2@IPBX@Z
_TEXT	SEGMENT
___n$ = 8						; size = 4
___formal$ = 12						; size = 4
?allocate@?$allocator@PAV?$vector@GV?$allocator@G@_STL@@@_STL@@@_STL@@QAEPAPAV?$vector@GV?$allocator@G@_STL@@@2@IPBX@Z PROC NEAR ; _STL::allocator<_STL::vector<unsigned short,_STL::allocator<unsigned short> > *>::allocate, COMDAT
; _this$ = ecx

; 355  :     return __n != 0 ? __REINTERPRET_CAST(value_type*,__sgi_alloc::allocate(__n * sizeof(value_type))) : 0;

  00000	8b 44 24 04	 mov	 eax, DWORD PTR ___n$[esp-4]
  00004	85 c0		 test	 eax, eax
  00006	74 0c		 je	 SHORT $L111525
  00008	c1 e0 02	 shl	 eax, 2
  0000b	50		 push	 eax
  0000c	e8 00 00 00 00	 call	 ?allocate@?$__node_alloc@$00$0A@@_STL@@SAPAXI@Z ; _STL::__node_alloc<1,0>::allocate
  00011	59		 pop	 ecx
  00012	eb 02		 jmp	 SHORT $L111526
$L111525:
  00014	33 c0		 xor	 eax, eax
$L111526:

; 356  :   }

  00016	c2 08 00	 ret	 8
?allocate@?$allocator@PAV?$vector@GV?$allocator@G@_STL@@@_STL@@@_STL@@QAEPAPAV?$vector@GV?$allocator@G@_STL@@@2@IPBX@Z ENDP ; _STL::allocator<_STL::vector<unsigned short,_STL::allocator<unsigned short> > *>::allocate
_TEXT	ENDS
PUBLIC	?flush@?$basic_ostream@DV?$char_traits@D@_STL@@@_STL@@QAEAAV12@XZ ; _STL::basic_ostream<char,_STL::char_traits<char> >::flush
; Function compile flags: /Ogsy
; File c:\stlport-4.6.1\stlport\stl\_ostream.h
;	COMDAT ?flush@?$basic_ostream@DV?$char_traits@D@_STL@@@_STL@@QAEAAV12@XZ
_TEXT	SEGMENT
?flush@?$basic_ostream@DV?$char_traits@D@_STL@@@_STL@@QAEAAV12@XZ PROC NEAR ; _STL::basic_ostream<char,_STL::char_traits<char> >::flush, COMDAT
; _this$ = ecx

; 120  :   _Self& flush() {

  00000	56		 push	 esi
  00001	8b f1		 mov	 esi, ecx

; 121  :     if (this->rdbuf())

  00003	8b 06		 mov	 eax, DWORD PTR [esi]
  00005	8b 40 04	 mov	 eax, DWORD PTR [eax+4]
  00008	8b 4c 30 58	 mov	 ecx, DWORD PTR [eax+esi+88]
  0000c	85 c9		 test	 ecx, ecx
  0000e	74 1d		 je	 SHORT $L111546

; 122  :       if (this->rdbuf()->pubsync() == -1)

  00010	8b 01		 mov	 eax, DWORD PTR [ecx]
  00012	ff 50 10	 call	 DWORD PTR [eax+16]
  00015	83 f8 ff	 cmp	 eax, -1
  00018	75 13		 jne	 SHORT $L111546

; 123  :         this->setstate(ios_base::badbit);

  0001a	8b 06		 mov	 eax, DWORD PTR [esi]
  0001c	8b 48 04	 mov	 ecx, DWORD PTR [eax+4]
  0001f	03 ce		 add	 ecx, esi
  00021	8b 41 08	 mov	 eax, DWORD PTR [ecx+8]
  00024	83 c8 01	 or	 eax, 1
  00027	50		 push	 eax
  00028	e8 00 00 00 00	 call	 ?clear@?$basic_ios@DV?$char_traits@D@_STL@@@_STL@@QAEXH@Z ; _STL::basic_ios<char,_STL::char_traits<char> >::clear
$L111546:

; 124  :     return *this;

  0002d	8b c6		 mov	 eax, esi
  0002f	5e		 pop	 esi

; 125  :   }

  00030	c3		 ret	 0
?flush@?$basic_ostream@DV?$char_traits@D@_STL@@@_STL@@QAEAAV12@XZ ENDP ; _STL::basic_ostream<char,_STL::char_traits<char> >::flush
_TEXT	ENDS
PUBLIC	??$__destroy@PAPAV?$vector@GV?$allocator@G@_STL@@@_STL@@PAV12@@_STL@@YAXPAPAV?$vector@GV?$allocator@G@_STL@@@0@00@Z ; _STL::__destroy<_STL::vector<unsigned short,_STL::allocator<unsigned short> > * *,_STL::vector<unsigned short,_STL::allocator<unsigned short> > *>
; Function compile flags: /Ogsy
; File c:\stlport-4.6.1\stlport\stl\_construct.h
;	COMDAT ??$__destroy@PAPAV?$vector@GV?$allocator@G@_STL@@@_STL@@PAV12@@_STL@@YAXPAPAV?$vector@GV?$allocator@G@_STL@@@0@00@Z
_TEXT	SEGMENT
___first$ = 8						; size = 4
___last$ = 12						; size = 4
___formal$ = 16						; size = 4
??$__destroy@PAPAV?$vector@GV?$allocator@G@_STL@@@_STL@@PAV12@@_STL@@YAXPAPAV?$vector@GV?$allocator@G@_STL@@@0@00@Z PROC NEAR ; _STL::__destroy<_STL::vector<unsigned short,_STL::allocator<unsigned short> > * *,_STL::vector<unsigned short,_STL::allocator<unsigned short> > *>, COMDAT

; 133  :   typedef typename __type_traits<_Tp>::has_trivial_destructor _Trivial_destructor;
; 134  :   __destroy_aux(__first, __last, _Trivial_destructor());
; 135  : }

  00000	c3		 ret	 0
??$__destroy@PAPAV?$vector@GV?$allocator@G@_STL@@@_STL@@PAV12@@_STL@@YAXPAPAV?$vector@GV?$allocator@G@_STL@@@0@00@Z ENDP ; _STL::__destroy<_STL::vector<unsigned short,_STL::allocator<unsigned short> > * *,_STL::vector<unsigned short,_STL::allocator<unsigned short> > *>
_TEXT	ENDS
PUBLIC	??$_M_init@DV?$char_traits@D@_STL@@@_STL@@YA_NAAV?$basic_ostream@DV?$char_traits@D@_STL@@@0@@Z ; _STL::_M_init<char,_STL::char_traits<char> >
; Function compile flags: /Ogsy
; File c:\stlport-4.6.1\stlport\stl\_ostream.c
;	COMDAT ??$_M_init@DV?$char_traits@D@_STL@@@_STL@@YA_NAAV?$basic_ostream@DV?$char_traits@D@_STL@@@0@@Z
_TEXT	SEGMENT
___str$ = 8						; size = 4
??$_M_init@DV?$char_traits@D@_STL@@@_STL@@YA_NAAV?$basic_ostream@DV?$char_traits@D@_STL@@@0@@Z PROC NEAR ; _STL::_M_init<char,_STL::char_traits<char> >, COMDAT

; 37   : _M_init(basic_ostream<_CharT, _Traits>& __str) {

  00000	56		 push	 esi

; 38   :   if (__str.good()) {

  00001	8b 74 24 08	 mov	 esi, DWORD PTR ___str$[esp]
  00005	8b 06		 mov	 eax, DWORD PTR [esi]
  00007	8b 40 04	 mov	 eax, DWORD PTR [eax+4]
  0000a	8d 0c 30	 lea	 ecx, DWORD PTR [eax+esi]
  0000d	83 79 08 00	 cmp	 DWORD PTR [ecx+8], 0
  00011	75 36		 jne	 SHORT $L109629

; 39   :     // boris : check if this is needed !
; 40   :     if (!__str.rdbuf())

  00013	83 79 58 00	 cmp	 DWORD PTR [ecx+88], 0
  00017	75 0c		 jne	 SHORT $L111573

; 41   :       __str.setstate(ios_base::badbit);

  00019	8b 41 08	 mov	 eax, DWORD PTR [ecx+8]
  0001c	83 c8 01	 or	 eax, 1
  0001f	50		 push	 eax
  00020	e8 00 00 00 00	 call	 ?clear@?$basic_ios@DV?$char_traits@D@_STL@@@_STL@@QAEXH@Z ; _STL::basic_ios<char,_STL::char_traits<char> >::clear
$L111573:

; 42   :     if (__str.tie())

  00025	8b 06		 mov	 eax, DWORD PTR [esi]
  00027	8b 40 04	 mov	 eax, DWORD PTR [eax+4]
  0002a	8b 4c 30 5c	 mov	 ecx, DWORD PTR [eax+esi+92]
  0002e	85 c9		 test	 ecx, ecx
  00030	74 05		 je	 SHORT $L109631

; 43   :       __str.tie()->flush();

  00032	e8 00 00 00 00	 call	 ?flush@?$basic_ostream@DV?$char_traits@D@_STL@@@_STL@@QAEAAV12@XZ ; _STL::basic_ostream<char,_STL::char_traits<char> >::flush
$L109631:

; 44   :     return __str.good();

  00037	8b 06		 mov	 eax, DWORD PTR [esi]
  00039	8b 40 04	 mov	 eax, DWORD PTR [eax+4]
  0003c	33 c9		 xor	 ecx, ecx
  0003e	39 4c 30 08	 cmp	 DWORD PTR [eax+esi+8], ecx
  00042	5e		 pop	 esi
  00043	0f 94 c1	 sete	 cl
  00046	8a c1		 mov	 al, cl

; 47   : }

  00048	c3		 ret	 0
$L109629:

; 45   :   } else
; 46   :     return false;

  00049	32 c0		 xor	 al, al
  0004b	5e		 pop	 esi

; 47   : }

  0004c	c3		 ret	 0
??$_M_init@DV?$char_traits@D@_STL@@@_STL@@YA_NAAV?$basic_ostream@DV?$char_traits@D@_STL@@@0@@Z ENDP ; _STL::_M_init<char,_STL::char_traits<char> >
_TEXT	ENDS
PUBLIC	?_S_eof@?$basic_ios@DV?$char_traits@D@_STL@@@_STL@@SA_NH@Z ; _STL::basic_ios<char,_STL::char_traits<char> >::_S_eof
; Function compile flags: /Ogsy
; File c:\stlport-4.6.1\stlport\stl\_ios.h
;	COMDAT ?_S_eof@?$basic_ios@DV?$char_traits@D@_STL@@@_STL@@SA_NH@Z
_TEXT	SEGMENT
___c$ = 8						; size = 4
?_S_eof@?$basic_ios@DV?$char_traits@D@_STL@@@_STL@@SA_NH@Z PROC NEAR ; _STL::basic_ios<char,_STL::char_traits<char> >::_S_eof, COMDAT

; 110  :     const int_type __eof = _Traits::eof();
; 111  :     return _Traits::eq_int_type(__c, __eof);

  00000	33 c0		 xor	 eax, eax
  00002	83 7c 24 04 ff	 cmp	 DWORD PTR ___c$[esp-4], -1
  00007	0f 94 c0	 sete	 al

; 112  :   }

  0000a	c3		 ret	 0
?_S_eof@?$basic_ios@DV?$char_traits@D@_STL@@@_STL@@SA_NH@Z ENDP ; _STL::basic_ios<char,_STL::char_traits<char> >::_S_eof
_TEXT	ENDS
PUBLIC	??$__copy_aux@PAPAV?$vector@GV?$allocator@G@_STL@@@_STL@@PAPAV12@@_STL@@YAPAPAV?$vector@GV?$allocator@G@_STL@@@0@PAPAV10@00ABU__true_type@0@@Z ; _STL::__copy_aux<_STL::vector<unsigned short,_STL::allocator<unsigned short> > * *,_STL::vector<unsigned short,_STL::allocator<unsigned short> > * *>
; Function compile flags: /Ogsy
; File c:\stlport-4.6.1\stlport\stl\_algobase.h
;	COMDAT ??$__copy_aux@PAPAV?$vector@GV?$allocator@G@_STL@@@_STL@@PAPAV12@@_STL@@YAPAPAV?$vector@GV?$allocator@G@_STL@@@0@PAPAV10@00ABU__true_type@0@@Z
_TEXT	SEGMENT
___first$ = 8						; size = 4
___last$ = 12						; size = 4
___result$ = 16						; size = 4
___formal$ = 20						; size = 4
??$__copy_aux@PAPAV?$vector@GV?$allocator@G@_STL@@@_STL@@PAPAV12@@_STL@@YAPAPAV?$vector@GV?$allocator@G@_STL@@@0@PAPAV10@00ABU__true_type@0@@Z PROC NEAR ; _STL::__copy_aux<_STL::vector<unsigned short,_STL::allocator<unsigned short> > * *,_STL::vector<unsigned short,_STL::allocator<unsigned short> > * *>, COMDAT

; 202  :   return __copy_ptrs(__first, __last, __result, 
; 203  :                      _IsOKToMemCpy(_STLP_VALUE_TYPE(__first, _InputIter), 
; 204  :                                    _STLP_VALUE_TYPE(__result, _OutputIter))._Ret());

  00000	ff 74 24 0c	 push	 DWORD PTR ___result$[esp-4]
  00004	ff 74 24 0c	 push	 DWORD PTR ___last$[esp]
  00008	ff 74 24 0c	 push	 DWORD PTR ___first$[esp+4]
  0000c	e8 00 00 00 00	 call	 ?__copy_trivial@_STL@@YAPAXPBX0PAX@Z ; _STL::__copy_trivial
  00011	83 c4 0c	 add	 esp, 12			; 0000000cH

; 205  : }

  00014	c3		 ret	 0
??$__copy_aux@PAPAV?$vector@GV?$allocator@G@_STL@@@_STL@@PAPAV12@@_STL@@YAPAPAV?$vector@GV?$allocator@G@_STL@@@0@PAPAV10@00ABU__true_type@0@@Z ENDP ; _STL::__copy_aux<_STL::vector<unsigned short,_STL::allocator<unsigned short> > * *,_STL::vector<unsigned short,_STL::allocator<unsigned short> > * *>
_TEXT	ENDS
PUBLIC	??$__copy_aux@PAGPAG@_STL@@YAPAGPAG00ABU__true_type@0@@Z ; _STL::__copy_aux<unsigned short *,unsigned short *>
; Function compile flags: /Ogsy
;	COMDAT ??$__copy_aux@PAGPAG@_STL@@YAPAGPAG00ABU__true_type@0@@Z
_TEXT	SEGMENT
___first$ = 8						; size = 4
___last$ = 12						; size = 4
___result$ = 16						; size = 4
___formal$ = 20						; size = 4
??$__copy_aux@PAGPAG@_STL@@YAPAGPAG00ABU__true_type@0@@Z PROC NEAR ; _STL::__copy_aux<unsigned short *,unsigned short *>, COMDAT

; 202  :   return __copy_ptrs(__first, __last, __result, 
; 203  :                      _IsOKToMemCpy(_STLP_VALUE_TYPE(__first, _InputIter), 
; 204  :                                    _STLP_VALUE_TYPE(__result, _OutputIter))._Ret());

  00000	ff 74 24 0c	 push	 DWORD PTR ___result$[esp-4]
  00004	ff 74 24 0c	 push	 DWORD PTR ___last$[esp]
  00008	ff 74 24 0c	 push	 DWORD PTR ___first$[esp+4]
  0000c	e8 00 00 00 00	 call	 ?__copy_trivial@_STL@@YAPAXPBX0PAX@Z ; _STL::__copy_trivial
  00011	83 c4 0c	 add	 esp, 12			; 0000000cH

; 205  : }

  00014	c3		 ret	 0
??$__copy_aux@PAGPAG@_STL@@YAPAGPAG00ABU__true_type@0@@Z ENDP ; _STL::__copy_aux<unsigned short *,unsigned short *>
_TEXT	ENDS
PUBLIC	??1?$_STLP_alloc_proxy@PAGGV?$allocator@G@_STL@@@_STL@@QAE@XZ ; _STL::_STLP_alloc_proxy<unsigned short *,unsigned short,_STL::allocator<unsigned short> >::~_STLP_alloc_proxy<unsigned short *,unsigned short,_STL::allocator<unsigned short> >
; Function compile flags: /Ogsy
;	COMDAT ??1?$_STLP_alloc_proxy@PAGGV?$allocator@G@_STL@@@_STL@@QAE@XZ
_TEXT	SEGMENT
??1?$_STLP_alloc_proxy@PAGGV?$allocator@G@_STL@@@_STL@@QAE@XZ PROC NEAR ; _STL::_STLP_alloc_proxy<unsigned short *,unsigned short,_STL::allocator<unsigned short> >::~_STLP_alloc_proxy<unsigned short *,unsigned short,_STL::allocator<unsigned short> >, COMDAT
; _this$ = ecx
  00000	c3		 ret	 0
??1?$_STLP_alloc_proxy@PAGGV?$allocator@G@_STL@@@_STL@@QAE@XZ ENDP ; _STL::_STLP_alloc_proxy<unsigned short *,unsigned short,_STL::allocator<unsigned short> >::~_STLP_alloc_proxy<unsigned short *,unsigned short,_STL::allocator<unsigned short> >
_TEXT	ENDS
PUBLIC	?deallocate@?$allocator@G@_STL@@QAEXPAGI@Z	; _STL::allocator<unsigned short>::deallocate
; Function compile flags: /Ogsy
; File c:\stlport-4.6.1\stlport\stl\_alloc.h
;	COMDAT ?deallocate@?$allocator@G@_STL@@QAEXPAGI@Z
_TEXT	SEGMENT
___p$ = 8						; size = 4
___n$ = 12						; size = 4
?deallocate@?$allocator@G@_STL@@QAEXPAGI@Z PROC NEAR	; _STL::allocator<unsigned short>::deallocate, COMDAT
; _this$ = ecx

; 359  :     _STLP_ASSERT( (__p == 0) == (__n == 0) )
; 360  :       if (__p != 0) __sgi_alloc::deallocate((void*)__p, __n * sizeof(value_type));

  00000	83 7c 24 04 00	 cmp	 DWORD PTR ___p$[esp-4], 0
  00005	74 12		 je	 SHORT $L98668
  00007	8b 44 24 08	 mov	 eax, DWORD PTR ___n$[esp-4]
  0000b	03 c0		 add	 eax, eax
  0000d	50		 push	 eax
  0000e	ff 74 24 08	 push	 DWORD PTR ___p$[esp]
  00012	e8 00 00 00 00	 call	 ?deallocate@?$__node_alloc@$00$0A@@_STL@@SAXPAXI@Z ; _STL::__node_alloc<1,0>::deallocate
  00017	59		 pop	 ecx
  00018	59		 pop	 ecx
$L98668:

; 361  :   }

  00019	c2 08 00	 ret	 8
?deallocate@?$allocator@G@_STL@@QAEXPAGI@Z ENDP		; _STL::allocator<unsigned short>::deallocate
_TEXT	ENDS
PUBLIC	??0CREATURETABLE_INFO@@QAE@XZ			; CREATURETABLE_INFO::CREATURETABLE_INFO
PUBLIC	??_C@_06OJHGLDPL@?$CInull?$CJ?$AA@		; `string'
PUBLIC	??_C@_01IHBHIGKO@?0?$AA@			; `string'
EXTRN	??0MString@@QAE@XZ:NEAR				; MString::MString
;	COMDAT ??_C@_06OJHGLDPL@?$CInull?$CJ?$AA@
; File c:\darkeden\designed_common\project\client\ctypetable.h
CONST	SEGMENT
??_C@_06OJHGLDPL@?$CInull?$CJ?$AA@ DB '(null)', 00H	; `string'
CONST	ENDS
;	COMDAT ??_C@_01IHBHIGKO@?0?$AA@
CONST	SEGMENT
??_C@_01IHBHIGKO@?0?$AA@ DB ',', 00H			; `string'
; Function compile flags: /Ogsy
; File c:\darkeden\designed_common\project\client\mcreaturetable.cpp
CONST	ENDS
;	COMDAT ??0CREATURETABLE_INFO@@QAE@XZ
_TEXT	SEGMENT
??0CREATURETABLE_INFO@@QAE@XZ PROC NEAR			; CREATURETABLE_INFO::CREATURETABLE_INFO, COMDAT
; _this$ = ecx

; 123  : { 	

  00000	56		 push	 esi
  00001	8b f1		 mov	 esi, ecx
  00003	8d 4e 08	 lea	 ecx, DWORD PTR [esi+8]
  00006	e8 00 00 00 00	 call	 ??0MString@@QAE@XZ	; MString::MString
  0000b	33 c0		 xor	 eax, eax
  0000d	89 46 18	 mov	 DWORD PTR [esi+24], eax
  00010	89 46 14	 mov	 DWORD PTR [esi+20], eax

; 124  : 	MoveTimesMotor = 1;
; 125  : 	bMale			= true;
; 126  : 	ColorSet		= 0;
; 127  : 	m_pActionSound	= NULL; 
; 128  : 	m_pActionCount	= NULL;	
; 129  : 
; 130  : 	bFlyingCreature = false;
; 131  : 	FlyingHeight	= 0;
; 132  : 	bHeadCut		= false;
; 133  : 	HPBarWidth		= 120;
; 134  : 	
; 135  : 	ChangeColorSet	= 0xFFFF;	// default  .

  00013	66 81 4e 48 ff
	ff		 or	 WORD PTR [esi+72], 65535 ; 0000ffffH

; 136  : 
; 137  : 	pItemWearInfo	= NULL;
; 138  : 
; 139  : 	ShadowCount		= 0;
; 140  : 	Width			= -1 ;

  00019	83 4e 24 ff	 or	 DWORD PTR [esi+36], -1
  0001d	89 46 30	 mov	 DWORD PTR [esi+48], eax
  00020	89 46 68	 mov	 DWORD PTR [esi+104], eax
  00023	89 46 6c	 mov	 DWORD PTR [esi+108], eax
  00026	88 46 34	 mov	 BYTE PTR [esi+52], al
  00029	89 46 38	 mov	 DWORD PTR [esi+56], eax
  0002c	88 46 3c	 mov	 BYTE PTR [esi+60], al
  0002f	89 46 44	 mov	 DWORD PTR [esi+68], eax
  00032	89 46 4c	 mov	 DWORD PTR [esi+76], eax

; 141  : 	
; 142  : 	EffectStatus	= EFFECTSTATUS_NULL;
; 143  : 	EffectSpriteType = MAX_EFFECTSPRITETYPE;
; 144  : 
; 145  : 	bFade			= false;

  00035	88 46 58	 mov	 BYTE PTR [esi+88], al

; 146  : 	bFadeShadow		= false;

  00038	88 46 59	 mov	 BYTE PTR [esi+89], al
  0003b	c6 46 1f 01	 mov	 BYTE PTR [esi+31], 1
  0003f	c6 46 1c 01	 mov	 BYTE PTR [esi+28], 1
  00043	c7 46 40 78 00
	00 00		 mov	 DWORD PTR [esi+64], 120	; 00000078H
  0004a	c7 46 50 83 04
	00 00		 mov	 DWORD PTR [esi+80], 1155 ; 00000483H
  00051	c7 46 60 59 0e
	00 00		 mov	 DWORD PTR [esi+96], 3673 ; 00000e59H

; 147  : 	CSV_NULL_VALUE	= "(null)";

  00058	c7 06 00 00 00
	00		 mov	 DWORD PTR [esi], OFFSET FLAT:??_C@_06OJHGLDPL@?$CInull?$CJ?$AA@

; 148  : 	CSV_TOKEN		= ",";

  0005e	c7 46 04 00 00
	00 00		 mov	 DWORD PTR [esi+4], OFFSET FLAT:??_C@_01IHBHIGKO@?0?$AA@

; 149  : }

  00065	8b c6		 mov	 eax, esi
  00067	5e		 pop	 esi
  00068	c3		 ret	 0
??0CREATURETABLE_INFO@@QAE@XZ ENDP			; CREATURETABLE_INFO::CREATURETABLE_INFO
_TEXT	ENDS
PUBLIC	??1CREATURETABLE_INFO@@QAE@XZ			; CREATURETABLE_INFO::~CREATURETABLE_INFO
EXTRN	??1MString@@UAE@XZ:NEAR				; MString::~MString
; Function compile flags: /Ogsy
;	COMDAT ??1CREATURETABLE_INFO@@QAE@XZ
_TEXT	SEGMENT
??1CREATURETABLE_INFO@@QAE@XZ PROC NEAR			; CREATURETABLE_INFO::~CREATURETABLE_INFO, COMDAT
; _this$ = ecx

; 152  : {

  00000	56		 push	 esi
  00001	8b f1		 mov	 esi, ecx

; 153  : 	
; 154  : 	if (m_pActionSound != NULL)

  00003	8b 46 68	 mov	 eax, DWORD PTR [esi+104]
  00006	85 c0		 test	 eax, eax
  00008	74 0b		 je	 SHORT $L107931

; 155  : 	{
; 156  : 		delete [] m_pActionSound;

  0000a	50		 push	 eax
  0000b	e8 00 00 00 00	 call	 ??_V@YAXPAX@Z		; operator delete[]

; 157  : 		m_pActionSound = NULL;

  00010	83 66 68 00	 and	 DWORD PTR [esi+104], 0
  00014	59		 pop	 ecx
$L107931:

; 158  : 	}
; 159  : 		
; 160  : 
; 161  : 	if (m_pActionCount != NULL)

  00015	8b 46 6c	 mov	 eax, DWORD PTR [esi+108]
  00018	85 c0		 test	 eax, eax
  0001a	74 0b		 je	 SHORT $L107933

; 162  : 	{
; 163  : 		delete [] m_pActionCount;

  0001c	50		 push	 eax
  0001d	e8 00 00 00 00	 call	 ??_V@YAXPAX@Z		; operator delete[]

; 164  : 		m_pActionCount = NULL;

  00022	83 66 6c 00	 and	 DWORD PTR [esi+108], 0
  00026	59		 pop	 ecx
$L107933:

; 165  : 	}
; 166  : 
; 167  : 	if (pItemWearInfo!=NULL)

  00027	8b 46 44	 mov	 eax, DWORD PTR [esi+68]
  0002a	85 c0		 test	 eax, eax
  0002c	74 07		 je	 SHORT $L107935

; 168  : 	{
; 169  : 		delete pItemWearInfo;

  0002e	50		 push	 eax
  0002f	e8 00 00 00 00	 call	 ??3@YAXPAX@Z		; operator delete
  00034	59		 pop	 ecx
$L107935:

; 170  : 	}
; 171  : }

  00035	8d 4e 14	 lea	 ecx, DWORD PTR [esi+20]
  00038	e8 00 00 00 00	 call	 ?Release@?$CTypeTable@H@@QAEXXZ ; CTypeTable<int>::Release
  0003d	8d 4e 08	 lea	 ecx, DWORD PTR [esi+8]
  00040	5e		 pop	 esi
  00041	e9 00 00 00 00	 jmp	 ??1MString@@UAE@XZ	; MString::~MString
??1CREATURETABLE_INFO@@QAE@XZ ENDP			; CREATURETABLE_INFO::~CREATURETABLE_INFO
_TEXT	ENDS
PUBLIC	?InitActionType@CREATURETABLE_INFO@@IAEXH@Z	; CREATURETABLE_INFO::InitActionType
; Function compile flags: /Ogsy
;	COMDAT ?InitActionType@CREATURETABLE_INFO@@IAEXH@Z
_TEXT	SEGMENT
_nMaxAction$ = 8					; size = 4
?InitActionType@CREATURETABLE_INFO@@IAEXH@Z PROC NEAR	; CREATURETABLE_INFO::InitActionType, COMDAT
; _this$ = ecx

; 196  : {

  00000	56		 push	 esi
  00001	8b f1		 mov	 esi, ecx

; 197  : 	if (m_pActionSound!=NULL)

  00003	8b 46 68	 mov	 eax, DWORD PTR [esi+104]
  00006	85 c0		 test	 eax, eax
  00008	57		 push	 edi
  00009	74 0b		 je	 SHORT $L107946

; 198  : 	{
; 199  : 		delete [] m_pActionSound;

  0000b	50		 push	 eax
  0000c	e8 00 00 00 00	 call	 ??_V@YAXPAX@Z		; operator delete[]

; 200  : 		m_pActionSound = NULL;

  00011	83 66 68 00	 and	 DWORD PTR [esi+104], 0
  00015	59		 pop	 ecx
$L107946:

; 201  : 	}
; 202  : 
; 203  : 	if (m_pActionCount!=NULL)

  00016	8b 46 6c	 mov	 eax, DWORD PTR [esi+108]
  00019	85 c0		 test	 eax, eax
  0001b	74 0b		 je	 SHORT $L107948

; 204  : 	{
; 205  : 		delete [] m_pActionCount;

  0001d	50		 push	 eax
  0001e	e8 00 00 00 00	 call	 ??_V@YAXPAX@Z		; operator delete[]

; 206  : 		m_pActionCount = NULL;

  00023	83 66 6c 00	 and	 DWORD PTR [esi+108], 0
  00027	59		 pop	 ecx
$L107948:

; 207  : 	}
; 208  : 
; 209  : 	int max;
; 210  : 	if(0 == nMaxAction)

  00028	8b 7c 24 0c	 mov	 edi, DWORD PTR _nMaxAction$[esp+4]
  0002c	85 ff		 test	 edi, edi
  0002e	75 09		 jne	 SHORT $L107952

; 211  : 		max = GetActionMax();

  00030	8b ce		 mov	 ecx, esi
  00032	e8 00 00 00 00	 call	 ?GetActionMax@CREATURETABLE_INFO@@QBEHXZ ; CREATURETABLE_INFO::GetActionMax
  00037	8b f8		 mov	 edi, eax
$L107952:

; 212  : 	else 
; 213  : 		max = nMaxAction;
; 214  : 
; 215  : 	m_pActionSound = new TYPE_SOUNDID [max];

  00039	8d 04 3f	 lea	 eax, DWORD PTR [edi+edi]
  0003c	50		 push	 eax
  0003d	e8 00 00 00 00	 call	 ??_U@YAPAXI@Z		; operator new[]
  00042	89 46 68	 mov	 DWORD PTR [esi+104], eax

; 216  : 	m_pActionCount = new int [max];

  00045	8b c7		 mov	 eax, edi
  00047	c1 e0 02	 shl	 eax, 2
  0004a	50		 push	 eax
  0004b	e8 00 00 00 00	 call	 ??_U@YAPAXI@Z		; operator new[]
  00050	89 46 6c	 mov	 DWORD PTR [esi+108], eax
  00053	59		 pop	 ecx

; 217  : 
; 218  : 	for (int i=0; i<max; i++)

  00054	33 c0		 xor	 eax, eax
  00056	85 ff		 test	 edi, edi
  00058	59		 pop	 ecx
  00059	7e 15		 jle	 SHORT $L107960
$L107958:

; 219  : 	{
; 220  : 		m_pActionSound[i] = SOUNDID_NULL;

  0005b	8b 4e 68	 mov	 ecx, DWORD PTR [esi+104]
  0005e	66 81 0c 41 ff
	ff		 or	 WORD PTR [ecx+eax*2], 65535 ; 0000ffffH

; 221  : 		m_pActionCount[i] = 0;

  00064	8b 4e 6c	 mov	 ecx, DWORD PTR [esi+108]
  00067	83 24 81 00	 and	 DWORD PTR [ecx+eax*4], 0
  0006b	40		 inc	 eax
  0006c	3b c7		 cmp	 eax, edi
  0006e	7c eb		 jl	 SHORT $L107958
$L107960:
  00070	5f		 pop	 edi
  00071	5e		 pop	 esi

; 222  : 	}
; 223  : }

  00072	c2 04 00	 ret	 4
?InitActionType@CREATURETABLE_INFO@@IAEXH@Z ENDP	; CREATURETABLE_INFO::InitActionType
_TEXT	ENDS
PUBLIC	?GetRandomCreatureType@CreatureSpriteTypeMapper@@QBEHG@Z ; CreatureSpriteTypeMapper::GetRandomCreatureType
EXTRN	_rand:NEAR
; Function compile flags: /Ogsy
;	COMDAT ?GetRandomCreatureType@CreatureSpriteTypeMapper@@QBEHG@Z
_TEXT	SEGMENT
_spriteID$ = 8						; size = 2
?GetRandomCreatureType@CreatureSpriteTypeMapper@@QBEHG@Z PROC NEAR ; CreatureSpriteTypeMapper::GetRandomCreatureType, COMDAT
; _this$ = ecx

; 562  : 	const int defaultCreatureType = 28;
; 563  : 
; 564  : 	if (spriteID > m_CreatureSpriteTypes.capacity())

  00000	8b 01		 mov	 eax, DWORD PTR [ecx]
  00002	8b 49 08	 mov	 ecx, DWORD PTR [ecx+8]
  00005	0f b7 54 24 04	 movzx	 edx, WORD PTR _spriteID$[esp-4]
  0000a	2b c8		 sub	 ecx, eax
  0000c	c1 f9 02	 sar	 ecx, 2
  0000f	3b d1		 cmp	 edx, ecx
  00011	76 05		 jbe	 SHORT $L108376

; 565  : 	{
; 566  : 		//   default - -;
; 567  : 		return defaultCreatureType;

  00013	6a 1c		 push	 28			; 0000001cH
  00015	58		 pop	 eax
  00016	eb 23		 jmp	 SHORT $L108374
$L108376:
  00018	56		 push	 esi
  00019	57		 push	 edi

; 568  : 	}
; 569  : 
; 570  : 	const CREATURE_TYPES* pCreatureTypes = m_CreatureSpriteTypes[spriteID];

  0001a	8b 3c 90	 mov	 edi, DWORD PTR [eax+edx*4]

; 571  : 
; 572  : 	int numCreatures = pCreatureTypes->capacity();

  0001d	8b 77 08	 mov	 esi, DWORD PTR [edi+8]
  00020	2b 37		 sub	 esi, DWORD PTR [edi]
  00022	d1 fe		 sar	 esi, 1

; 573  : 
; 574  : 	if (numCreatures==0)

  00024	75 05		 jne	 SHORT $L108379

; 575  : 	{
; 576  : 		return defaultCreatureType;

  00026	6a 1c		 push	 28			; 0000001cH
  00028	58		 pop	 eax
  00029	eb 0e		 jmp	 SHORT $L111700
$L108379:

; 577  : 	}
; 578  : 
; 579  : 	int selectNum = rand()%numCreatures;

  0002b	e8 00 00 00 00	 call	 _rand
  00030	99		 cdq
  00031	f7 fe		 idiv	 esi

; 580  : 
; 581  : 	return (*pCreatureTypes)[selectNum];

  00033	8b 07		 mov	 eax, DWORD PTR [edi]
  00035	0f b7 04 50	 movzx	 eax, WORD PTR [eax+edx*2]
$L111700:
  00039	5f		 pop	 edi
  0003a	5e		 pop	 esi
$L108374:

; 582  : }

  0003b	c2 04 00	 ret	 4
?GetRandomCreatureType@CreatureSpriteTypeMapper@@QBEHG@Z ENDP ; CreatureSpriteTypeMapper::GetRandomCreatureType
_TEXT	ENDS
PUBLIC	??0?$_Vector_base@PAV?$vector@GV?$allocator@G@_STL@@@_STL@@V?$allocator@PAV?$vector@GV?$allocator@G@_STL@@@_STL@@@2@@_STL@@QAE@ABV?$allocator@PAV?$vector@GV?$allocator@G@_STL@@@_STL@@@1@@Z ; _STL::_Vector_base<_STL::vector<unsigned short,_STL::allocator<unsigned short> > *,_STL::allocator<_STL::vector<unsigned short,_STL::allocator<unsigned short> > *> >::_Vector_base<_STL::vector<unsigned short,_STL::allocator<unsigned short> > *,_STL::allocator<_STL::vector<unsigned short,_STL::allocator<unsigned short> > *> >
; Function compile flags: /Ogsy
; File c:\stlport-4.6.1\stlport\stl\_vector.h
;	COMDAT ??0?$_Vector_base@PAV?$vector@GV?$allocator@G@_STL@@@_STL@@V?$allocator@PAV?$vector@GV?$allocator@G@_STL@@@_STL@@@2@@_STL@@QAE@ABV?$allocator@PAV?$vector@GV?$allocator@G@_STL@@@_STL@@@1@@Z
_TEXT	SEGMENT
___a$ = 8						; size = 4
??0?$_Vector_base@PAV?$vector@GV?$allocator@G@_STL@@@_STL@@V?$allocator@PAV?$vector@GV?$allocator@G@_STL@@@_STL@@@2@@_STL@@QAE@ABV?$allocator@PAV?$vector@GV?$allocator@G@_STL@@@_STL@@@1@@Z PROC NEAR ; _STL::_Vector_base<_STL::vector<unsigned short,_STL::allocator<unsigned short> > *,_STL::allocator<_STL::vector<unsigned short,_STL::allocator<unsigned short> > *> >::_Vector_base<_STL::vector<unsigned short,_STL::allocator<unsigned short> > *,_STL::allocator<_STL::vector<unsigned short,_STL::allocator<unsigned short> > *> >, COMDAT
; _this$ = ecx

; 72   :     : _M_start(0), _M_finish(0), _M_end_of_storage(__a, 0) {

  00000	56		 push	 esi
  00001	33 c0		 xor	 eax, eax
  00003	8b f1		 mov	 esi, ecx
  00005	50		 push	 eax
  00006	ff 74 24 0c	 push	 DWORD PTR ___a$[esp+4]
  0000a	8d 4e 08	 lea	 ecx, DWORD PTR [esi+8]
  0000d	89 06		 mov	 DWORD PTR [esi], eax
  0000f	89 46 04	 mov	 DWORD PTR [esi+4], eax
  00012	e8 00 00 00 00	 call	 ??0?$_STLP_alloc_proxy@PAPAV?$vector@GV?$allocator@G@_STL@@@_STL@@PAV12@V?$allocator@PAV?$vector@GV?$allocator@G@_STL@@@_STL@@@2@@_STL@@QAE@ABV?$allocator@PAV?$vector@GV?$allocator@G@_STL@@@_STL@@@1@PAPAV?$vector@GV?$allocator@G@_STL@@@1@@Z ; _STL::_STLP_alloc_proxy<_STL::vector<unsigned short,_STL::allocator<unsigned short> > * *,_STL::vector<unsigned short,_STL::allocator<unsigned short> > *,_STL::allocator<_STL::vector<unsigned short,_STL::allocator<unsigned short> > *> >::_STLP_alloc_proxy<_STL::vector<unsigned short,_STL::allocator<unsigned short> > * *,_STL::vector<unsigned short,_STL::allocator<unsigned short> > *,_STL::allocator<_STL::vector<unsigned short,_STL::allocator<unsigned short> > *> >

; 73   :   }

  00017	8b c6		 mov	 eax, esi
  00019	5e		 pop	 esi
  0001a	c2 04 00	 ret	 4
??0?$_Vector_base@PAV?$vector@GV?$allocator@G@_STL@@@_STL@@V?$allocator@PAV?$vector@GV?$allocator@G@_STL@@@_STL@@@2@@_STL@@QAE@ABV?$allocator@PAV?$vector@GV?$allocator@G@_STL@@@_STL@@@1@@Z ENDP ; _STL::_Vector_base<_STL::vector<unsigned short,_STL::allocator<unsigned short> > *,_STL::allocator<_STL::vector<unsigned short,_STL::allocator<unsigned short> > *> >::_Vector_base<_STL::vector<unsigned short,_STL::allocator<unsigned short> > *,_STL::allocator<_STL::vector<unsigned short,_STL::allocator<unsigned short> > *> >
_TEXT	ENDS
PUBLIC	??1?$_Vector_base@PAV?$vector@GV?$allocator@G@_STL@@@_STL@@V?$allocator@PAV?$vector@GV?$allocator@G@_STL@@@_STL@@@2@@_STL@@QAE@XZ ; _STL::_Vector_base<_STL::vector<unsigned short,_STL::allocator<unsigned short> > *,_STL::allocator<_STL::vector<unsigned short,_STL::allocator<unsigned short> > *> >::~_Vector_base<_STL::vector<unsigned short,_STL::allocator<unsigned short> > *,_STL::allocator<_STL::vector<unsigned short,_STL::allocator<unsigned short> > *> >
; Function compile flags: /Ogsy
;	COMDAT ??1?$_Vector_base@PAV?$vector@GV?$allocator@G@_STL@@@_STL@@V?$allocator@PAV?$vector@GV?$allocator@G@_STL@@@_STL@@@2@@_STL@@QAE@XZ
_TEXT	SEGMENT
??1?$_Vector_base@PAV?$vector@GV?$allocator@G@_STL@@@_STL@@V?$allocator@PAV?$vector@GV?$allocator@G@_STL@@@_STL@@@2@@_STL@@QAE@XZ PROC NEAR ; _STL::_Vector_base<_STL::vector<unsigned short,_STL::allocator<unsigned short> > *,_STL::allocator<_STL::vector<unsigned short,_STL::allocator<unsigned short> > *> >::~_Vector_base<_STL::vector<unsigned short,_STL::allocator<unsigned short> > *,_STL::allocator<_STL::vector<unsigned short,_STL::allocator<unsigned short> > *> >, COMDAT
; _this$ = ecx

; 84   :     if (_M_start !=0) 

  00000	8b 01		 mov	 eax, DWORD PTR [ecx]
  00002	85 c0		 test	 eax, eax
  00004	74 11		 je	 SHORT $L108658

; 85   :     _M_end_of_storage.deallocate(_M_start, _M_end_of_storage._M_data - _M_start); 

  00006	83 c1 08	 add	 ecx, 8
  00009	8b 11		 mov	 edx, DWORD PTR [ecx]
  0000b	2b d0		 sub	 edx, eax
  0000d	c1 fa 02	 sar	 edx, 2
  00010	52		 push	 edx
  00011	50		 push	 eax
  00012	e8 00 00 00 00	 call	 ?deallocate@?$allocator@PAV?$vector@GV?$allocator@G@_STL@@@_STL@@@_STL@@QAEXPAPAV?$vector@GV?$allocator@G@_STL@@@2@I@Z ; _STL::allocator<_STL::vector<unsigned short,_STL::allocator<unsigned short> > *>::deallocate
$L108658:

; 86   :   }

  00017	c3		 ret	 0
??1?$_Vector_base@PAV?$vector@GV?$allocator@G@_STL@@@_STL@@V?$allocator@PAV?$vector@GV?$allocator@G@_STL@@@_STL@@@2@@_STL@@QAE@XZ ENDP ; _STL::_Vector_base<_STL::vector<unsigned short,_STL::allocator<unsigned short> > *,_STL::allocator<_STL::vector<unsigned short,_STL::allocator<unsigned short> > *> >::~_Vector_base<_STL::vector<unsigned short,_STL::allocator<unsigned short> > *,_STL::allocator<_STL::vector<unsigned short,_STL::allocator<unsigned short> > *> >
_TEXT	ENDS
PUBLIC	??0?$_Vector_base@GV?$allocator@G@_STL@@@_STL@@QAE@ABV?$allocator@G@1@@Z ; _STL::_Vector_base<unsigned short,_STL::allocator<unsigned short> >::_Vector_base<unsigned short,_STL::allocator<unsigned short> >
; Function compile flags: /Ogsy
;	COMDAT ??0?$_Vector_base@GV?$allocator@G@_STL@@@_STL@@QAE@ABV?$allocator@G@1@@Z
_TEXT	SEGMENT
___a$ = 8						; size = 4
??0?$_Vector_base@GV?$allocator@G@_STL@@@_STL@@QAE@ABV?$allocator@G@1@@Z PROC NEAR ; _STL::_Vector_base<unsigned short,_STL::allocator<unsigned short> >::_Vector_base<unsigned short,_STL::allocator<unsigned short> >, COMDAT
; _this$ = ecx

; 72   :     : _M_start(0), _M_finish(0), _M_end_of_storage(__a, 0) {

  00000	56		 push	 esi
  00001	33 c0		 xor	 eax, eax
  00003	8b f1		 mov	 esi, ecx
  00005	50		 push	 eax
  00006	ff 74 24 0c	 push	 DWORD PTR ___a$[esp+4]
  0000a	8d 4e 08	 lea	 ecx, DWORD PTR [esi+8]
  0000d	89 06		 mov	 DWORD PTR [esi], eax
  0000f	89 46 04	 mov	 DWORD PTR [esi+4], eax
  00012	e8 00 00 00 00	 call	 ??0?$_STLP_alloc_proxy@PAGGV?$allocator@G@_STL@@@_STL@@QAE@ABV?$allocator@G@1@PAG@Z ; _STL::_STLP_alloc_proxy<unsigned short *,unsigned short,_STL::allocator<unsigned short> >::_STLP_alloc_proxy<unsigned short *,unsigned short,_STL::allocator<unsigned short> >

; 73   :   }

  00017	8b c6		 mov	 eax, esi
  00019	5e		 pop	 esi
  0001a	c2 04 00	 ret	 4
??0?$_Vector_base@GV?$allocator@G@_STL@@@_STL@@QAE@ABV?$allocator@G@1@@Z ENDP ; _STL::_Vector_base<unsigned short,_STL::allocator<unsigned short> >::_Vector_base<unsigned short,_STL::allocator<unsigned short> >
_TEXT	ENDS
PUBLIC	??1?$_Vector_base@GV?$allocator@G@_STL@@@_STL@@QAE@XZ ; _STL::_Vector_base<unsigned short,_STL::allocator<unsigned short> >::~_Vector_base<unsigned short,_STL::allocator<unsigned short> >
; Function compile flags: /Ogsy
;	COMDAT ??1?$_Vector_base@GV?$allocator@G@_STL@@@_STL@@QAE@XZ
_TEXT	SEGMENT
??1?$_Vector_base@GV?$allocator@G@_STL@@@_STL@@QAE@XZ PROC NEAR ; _STL::_Vector_base<unsigned short,_STL::allocator<unsigned short> >::~_Vector_base<unsigned short,_STL::allocator<unsigned short> >, COMDAT
; _this$ = ecx

; 84   :     if (_M_start !=0) 

  00000	8b 01		 mov	 eax, DWORD PTR [ecx]
  00002	85 c0		 test	 eax, eax
  00004	74 10		 je	 SHORT $L108707

; 85   :     _M_end_of_storage.deallocate(_M_start, _M_end_of_storage._M_data - _M_start); 

  00006	83 c1 08	 add	 ecx, 8
  00009	8b 11		 mov	 edx, DWORD PTR [ecx]
  0000b	2b d0		 sub	 edx, eax
  0000d	d1 fa		 sar	 edx, 1
  0000f	52		 push	 edx
  00010	50		 push	 eax
  00011	e8 00 00 00 00	 call	 ?deallocate@?$allocator@G@_STL@@QAEXPAGI@Z ; _STL::allocator<unsigned short>::deallocate
$L108707:

; 86   :   }

  00016	c3		 ret	 0
??1?$_Vector_base@GV?$allocator@G@_STL@@@_STL@@QAE@XZ ENDP ; _STL::_Vector_base<unsigned short,_STL::allocator<unsigned short> >::~_Vector_base<unsigned short,_STL::allocator<unsigned short> >
_TEXT	ENDS
PUBLIC	?_M_clear@?$vector@GV?$allocator@G@_STL@@@_STL@@IAEXXZ ; _STL::vector<unsigned short,_STL::allocator<unsigned short> >::_M_clear
; Function compile flags: /Ogsy
;	COMDAT ?_M_clear@?$vector@GV?$allocator@G@_STL@@@_STL@@IAEXXZ
_TEXT	SEGMENT
?_M_clear@?$vector@GV?$allocator@G@_STL@@@_STL@@IAEXXZ PROC NEAR ; _STL::vector<unsigned short,_STL::allocator<unsigned short> >::_M_clear, COMDAT
; _this$ = ecx

; 493  :   void _M_clear() {

  00000	8b c1		 mov	 eax, ecx

; 494  :     //    if (this->_M_start) {
; 495  :     _Destroy(this->_M_start, this->_M_finish);
; 496  :     this->_M_end_of_storage.deallocate(this->_M_start, this->_M_end_of_storage._M_data - this->_M_start);

  00002	8d 48 08	 lea	 ecx, DWORD PTR [eax+8]
  00005	8b 00		 mov	 eax, DWORD PTR [eax]
  00007	8b 11		 mov	 edx, DWORD PTR [ecx]
  00009	2b d0		 sub	 edx, eax
  0000b	d1 fa		 sar	 edx, 1
  0000d	52		 push	 edx
  0000e	50		 push	 eax
  0000f	e8 00 00 00 00	 call	 ?deallocate@?$allocator@G@_STL@@QAEXPAGI@Z ; _STL::allocator<unsigned short>::deallocate

; 497  :     //    }
; 498  :   }

  00014	c3		 ret	 0
?_M_clear@?$vector@GV?$allocator@G@_STL@@@_STL@@IAEXXZ ENDP ; _STL::vector<unsigned short,_STL::allocator<unsigned short> >::_M_clear
_TEXT	ENDS
PUBLIC	??$_Destroy@PAPAV?$vector@GV?$allocator@G@_STL@@@_STL@@@_STL@@YAXPAPAV?$vector@GV?$allocator@G@_STL@@@0@0@Z ; _STL::_Destroy<_STL::vector<unsigned short,_STL::allocator<unsigned short> > * *>
; Function compile flags: /Ogsy
; File c:\stlport-4.6.1\stlport\stl\_construct.h
;	COMDAT ??$_Destroy@PAPAV?$vector@GV?$allocator@G@_STL@@@_STL@@@_STL@@YAXPAPAV?$vector@GV?$allocator@G@_STL@@@0@0@Z
_TEXT	SEGMENT
___first$ = 8						; size = 4
___last$ = 12						; size = 4
??$_Destroy@PAPAV?$vector@GV?$allocator@G@_STL@@@_STL@@@_STL@@YAXPAPAV?$vector@GV?$allocator@G@_STL@@@0@0@Z PROC NEAR ; _STL::_Destroy<_STL::vector<unsigned short,_STL::allocator<unsigned short> > * *>, COMDAT

; 139  :   __destroy(__first, __last, _STLP_VALUE_TYPE(__first, _ForwardIterator));
; 140  : }

  00000	c3		 ret	 0
??$_Destroy@PAPAV?$vector@GV?$allocator@G@_STL@@@_STL@@@_STL@@YAXPAPAV?$vector@GV?$allocator@G@_STL@@@0@0@Z ENDP ; _STL::_Destroy<_STL::vector<unsigned short,_STL::allocator<unsigned short> > * *>
_TEXT	ENDS
PUBLIC	?_M_clear@?$vector@PAV?$vector@GV?$allocator@G@_STL@@@_STL@@V?$allocator@PAV?$vector@GV?$allocator@G@_STL@@@_STL@@@2@@_STL@@IAEXXZ ; _STL::vector<_STL::vector<unsigned short,_STL::allocator<unsigned short> > *,_STL::allocator<_STL::vector<unsigned short,_STL::allocator<unsigned short> > *> >::_M_clear
; Function compile flags: /Ogsy
; File c:\stlport-4.6.1\stlport\stl\_vector.h
;	COMDAT ?_M_clear@?$vector@PAV?$vector@GV?$allocator@G@_STL@@@_STL@@V?$allocator@PAV?$vector@GV?$allocator@G@_STL@@@_STL@@@2@@_STL@@IAEXXZ
_TEXT	SEGMENT
?_M_clear@?$vector@PAV?$vector@GV?$allocator@G@_STL@@@_STL@@V?$allocator@PAV?$vector@GV?$allocator@G@_STL@@@_STL@@@2@@_STL@@IAEXXZ PROC NEAR ; _STL::vector<_STL::vector<unsigned short,_STL::allocator<unsigned short> > *,_STL::allocator<_STL::vector<unsigned short,_STL::allocator<unsigned short> > *> >::_M_clear, COMDAT
; _this$ = ecx

; 493  :   void _M_clear() {

  00000	8b c1		 mov	 eax, ecx

; 494  :     //    if (this->_M_start) {
; 495  :     _Destroy(this->_M_start, this->_M_finish);
; 496  :     this->_M_end_of_storage.deallocate(this->_M_start, this->_M_end_of_storage._M_data - this->_M_start);

  00002	8d 48 08	 lea	 ecx, DWORD PTR [eax+8]
  00005	8b 00		 mov	 eax, DWORD PTR [eax]
  00007	8b 11		 mov	 edx, DWORD PTR [ecx]
  00009	2b d0		 sub	 edx, eax
  0000b	c1 fa 02	 sar	 edx, 2
  0000e	52		 push	 edx
  0000f	50		 push	 eax
  00010	e8 00 00 00 00	 call	 ?deallocate@?$allocator@PAV?$vector@GV?$allocator@G@_STL@@@_STL@@@_STL@@QAEXPAPAV?$vector@GV?$allocator@G@_STL@@@2@I@Z ; _STL::allocator<_STL::vector<unsigned short,_STL::allocator<unsigned short> > *>::deallocate

; 497  :     //    }
; 498  :   }

  00015	c3		 ret	 0
?_M_clear@?$vector@PAV?$vector@GV?$allocator@G@_STL@@@_STL@@V?$allocator@PAV?$vector@GV?$allocator@G@_STL@@@_STL@@@2@@_STL@@IAEXXZ ENDP ; _STL::vector<_STL::vector<unsigned short,_STL::allocator<unsigned short> > *,_STL::allocator<_STL::vector<unsigned short,_STL::allocator<unsigned short> > *> >::_M_clear
_TEXT	ENDS
PUBLIC	??0sentry@?$basic_ostream@DV?$char_traits@D@_STL@@@_STL@@QAE@AAV12@@Z ; _STL::basic_ostream<char,_STL::char_traits<char> >::sentry::sentry
; Function compile flags: /Ogsy
; File c:\stlport-4.6.1\stlport\stl\_ostream.h
;	COMDAT ??0sentry@?$basic_ostream@DV?$char_traits@D@_STL@@@_STL@@QAE@AAV12@@Z
_TEXT	SEGMENT
___str$ = 8						; size = 4
??0sentry@?$basic_ostream@DV?$char_traits@D@_STL@@@_STL@@QAE@AAV12@@Z PROC NEAR ; _STL::basic_ostream<char,_STL::char_traits<char> >::sentry::sentry, COMDAT
; _this$ = ecx

; 165  :       {

  00000	8b 44 24 04	 mov	 eax, DWORD PTR ___str$[esp-4]
  00004	56		 push	 esi
  00005	8b f1		 mov	 esi, ecx
  00007	50		 push	 eax
  00008	89 06		 mov	 DWORD PTR [esi], eax
  0000a	e8 00 00 00 00	 call	 ??$_M_init@DV?$char_traits@D@_STL@@@_STL@@YA_NAAV?$basic_ostream@DV?$char_traits@D@_STL@@@0@@Z ; _STL::_M_init<char,_STL::char_traits<char> >
  0000f	88 46 04	 mov	 BYTE PTR [esi+4], al
  00012	59		 pop	 ecx

; 166  :       }

  00013	8b c6		 mov	 eax, esi
  00015	5e		 pop	 esi
  00016	c2 04 00	 ret	 4
??0sentry@?$basic_ostream@DV?$char_traits@D@_STL@@@_STL@@QAE@AAV12@@Z ENDP ; _STL::basic_ostream<char,_STL::char_traits<char> >::sentry::sentry
_TEXT	ENDS
PUBLIC	??1sentry@?$basic_ostream@DV?$char_traits@D@_STL@@@_STL@@QAE@XZ ; _STL::basic_ostream<char,_STL::char_traits<char> >::sentry::~sentry
; Function compile flags: /Ogsy
;	COMDAT ??1sentry@?$basic_ostream@DV?$char_traits@D@_STL@@@_STL@@QAE@XZ
_TEXT	SEGMENT
??1sentry@?$basic_ostream@DV?$char_traits@D@_STL@@@_STL@@QAE@XZ PROC NEAR ; _STL::basic_ostream<char,_STL::char_traits<char> >::sentry::~sentry, COMDAT
; _this$ = ecx

; 169  :         if (_M_str.flags() & ios_base::unitbuf)

  00000	8b 09		 mov	 ecx, DWORD PTR [ecx]
  00002	8b 01		 mov	 eax, DWORD PTR [ecx]
  00004	8b 40 04	 mov	 eax, DWORD PTR [eax+4]
  00007	f6 44 08 05 20	 test	 BYTE PTR [eax+ecx+5], 32 ; 00000020H
  0000c	74 05		 je	 SHORT $L109211

; 170  : # ifndef _STLP_INCOMPLETE_EXCEPTION_HEADER 
; 171  :           if (!_STLP_VENDOR_EXCEPT_STD::uncaught_exception())
; 172  : # endif
; 173  :             _M_str.flush();

  0000e	e9 00 00 00 00	 jmp	 ?flush@?$basic_ostream@DV?$char_traits@D@_STL@@@_STL@@QAEAAV12@XZ ; _STL::basic_ostream<char,_STL::char_traits<char> >::flush
$L109211:

; 174  :       }

  00013	c3		 ret	 0
??1sentry@?$basic_ostream@DV?$char_traits@D@_STL@@@_STL@@QAE@XZ ENDP ; _STL::basic_ostream<char,_STL::char_traits<char> >::sentry::~sentry
_TEXT	ENDS
PUBLIC	?_M_put_char@?$basic_ostream@DV?$char_traits@D@_STL@@@_STL@@QAEXD@Z ; _STL::basic_ostream<char,_STL::char_traits<char> >::_M_put_char
EXTRN	__EH_prolog:NEAR
EXTRN	__except_list:DWORD
EXTRN	___CxxFrameHandler:NEAR
;	COMDAT xdata$x
; File c:\stlport-4.6.1\stlport\stl\_ios_base.h
xdata$x	SEGMENT
$T111909 DD	0ffffffffH
	DD	FLAT:$L111777
	DD	00H
	DD	00H
	DD	00H
	DD	00H
$T111911 DD	00H
	DD	00H
	DD	00H
	DD	FLAT:$L111776
$T111910 DD	01H
	DD	01H
	DD	02H
	DD	01H
	DD	FLAT:$T111911
$T111901 DD	019930520H
	DD	03H
	DD	FLAT:$T111909
	DD	01H
	DD	FLAT:$T111910
	DD	2 DUP(00H)
; Function compile flags: /Ogsy
; File c:\stlport-4.6.1\stlport\stl\_ostream.c
xdata$x	ENDS
;	COMDAT ?_M_put_char@?$basic_ostream@DV?$char_traits@D@_STL@@@_STL@@QAEXD@Z
_TEXT	SEGMENT
___sentry$ = -36					; size = 8
$T111846 = -28						; size = 1
_this$ = -24						; size = 4
___failed$109272 = -17					; size = 1
__$EHRec$ = -16						; size = 16
$T111835 = 8						; size = 1
___c$ = 8						; size = 1
?_M_put_char@?$basic_ostream@DV?$char_traits@D@_STL@@@_STL@@QAEXD@Z PROC NEAR ; _STL::basic_ostream<char,_STL::char_traits<char> >::_M_put_char, COMDAT
; _this$ = ecx

; 224  : {

  00000	b8 00 00 00 00	 mov	 eax, __ehhandler$?_M_put_char@?$basic_ostream@DV?$char_traits@D@_STL@@@_STL@@QAEXD@Z
  00005	e8 00 00 00 00	 call	 __EH_prolog
  0000a	83 ec 18	 sub	 esp, 24			; 00000018H
  0000d	53		 push	 ebx
  0000e	56		 push	 esi
  0000f	57		 push	 edi
  00010	8b f1		 mov	 esi, ecx
  00012	89 65 f0	 mov	 DWORD PTR __$EHRec$[ebp], esp

; 225  :   sentry __sentry(*this);

  00015	56		 push	 esi
  00016	8d 4d dc	 lea	 ecx, DWORD PTR ___sentry$[ebp]
  00019	89 75 e8	 mov	 DWORD PTR _this$[ebp], esi
  0001c	e8 00 00 00 00	 call	 ??0sentry@?$basic_ostream@DV?$char_traits@D@_STL@@@_STL@@QAE@AAV12@@Z ; _STL::basic_ostream<char,_STL::char_traits<char> >::sentry::sentry
  00021	33 db		 xor	 ebx, ebx

; 226  :   if (__sentry) {

  00023	38 5d e0	 cmp	 BYTE PTR ___sentry$[ebp+4], bl
  00026	89 5d fc	 mov	 DWORD PTR __$EHRec$[ebp+12], ebx
  00029	0f 84 fe 00 00
	00		 je	 $L111886

; 227  :     bool __failed = true;
; 228  :     _STLP_TRY {
; 229  :       streamsize __npad = this->width() > 0 ? this->width() - 1 : 0;

  0002f	8b 0e		 mov	 ecx, DWORD PTR [esi]
  00031	8b 41 04	 mov	 eax, DWORD PTR [ecx+4]
  00034	03 c6		 add	 eax, esi
  00036	8b 50 1c	 mov	 edx, DWORD PTR [eax+28]
  00039	3b d3		 cmp	 edx, ebx
  0003b	c6 45 ef 01	 mov	 BYTE PTR ___failed$109272[ebp], 1
  0003f	c6 45 fc 01	 mov	 BYTE PTR __$EHRec$[ebp+12], 1
  00043	7e 05		 jle	 SHORT $L111769
  00045	8d 7a ff	 lea	 edi, DWORD PTR [edx-1]
  00048	eb 02		 jmp	 SHORT $L111770
$L111769:
  0004a	33 ff		 xor	 edi, edi
$L111770:

; 230  :       //      if (__npad <= 1)
; 231  :       if (__npad == 0)

  0004c	3b fb		 cmp	 edi, ebx
  0004e	75 15		 jne	 SHORT $L109275

; 232  :         __failed = this->_S_eof(this->rdbuf()->sputc(__c));

  00050	8b 40 58	 mov	 eax, DWORD PTR [eax+88]
  00053	ff 75 08	 push	 DWORD PTR ___c$[ebp]
  00056	8b c8		 mov	 ecx, eax
  00058	e8 00 00 00 00	 call	 ?sputc@?$basic_streambuf@DV?$char_traits@D@_STL@@@_STL@@QAEHD@Z ; _STL::basic_streambuf<char,_STL::char_traits<char> >::sputc
  0005d	83 f8 ff	 cmp	 eax, -1
  00060	0f 94 c1	 sete	 cl

; 233  :       else if ((this->flags() & ios_base::adjustfield) == ios_base::left) {

  00063	eb 45		 jmp	 SHORT $L111774
$L109275:
  00065	8b 50 04	 mov	 edx, DWORD PTR [eax+4]
  00068	80 e2 07	 and	 dl, 7
  0006b	80 fa 01	 cmp	 dl, 1
  0006e	75 46		 jne	 SHORT $L109277

; 234  :         __failed = this->_S_eof(this->rdbuf()->sputc(__c));

  00070	8b 40 58	 mov	 eax, DWORD PTR [eax+88]
  00073	ff 75 08	 push	 DWORD PTR ___c$[ebp]
  00076	8b c8		 mov	 ecx, eax
  00078	e8 00 00 00 00	 call	 ?sputc@?$basic_streambuf@DV?$char_traits@D@_STL@@@_STL@@QAEHD@Z ; _STL::basic_streambuf<char,_STL::char_traits<char> >::sputc
  0007d	83 f8 ff	 cmp	 eax, -1
  00080	0f 94 45 ef	 sete	 BYTE PTR ___failed$109272[ebp]

; 235  :         __failed = __failed || 
; 236  :                    this->rdbuf()->_M_sputnc(this->fill(), __npad) != __npad;

  00084	38 5d ef	 cmp	 BYTE PTR ___failed$109272[ebp], bl
  00087	75 1f		 jne	 SHORT $L111773
  00089	8b 06		 mov	 eax, DWORD PTR [esi]
  0008b	8b 40 04	 mov	 eax, DWORD PTR [eax+4]
  0008e	03 c6		 add	 eax, esi
  00090	8a 48 54	 mov	 cl, BYTE PTR [eax+84]
  00093	8b 40 58	 mov	 eax, DWORD PTR [eax+88]
  00096	8b 10		 mov	 edx, DWORD PTR [eax]
  00098	88 4d 08	 mov	 BYTE PTR $T111835[ebp], cl
  0009b	57		 push	 edi
  0009c	ff 75 08	 push	 DWORD PTR $T111835[ebp]
  0009f	8b c8		 mov	 ecx, eax
  000a1	ff 52 2c	 call	 DWORD PTR [edx+44]
  000a4	3b c7		 cmp	 eax, edi
  000a6	74 48		 je	 SHORT $L111908
$L111773:

; 240  :         __failed = __failed || this->_S_eof(this->rdbuf()->sputc(__c));

  000a8	b1 01		 mov	 cl, 1
$L111774:

; 241  :       }
; 242  : 
; 243  :       this->width(0);

  000aa	8b 06		 mov	 eax, DWORD PTR [esi]
  000ac	8b 40 04	 mov	 eax, DWORD PTR [eax+4]
  000af	03 c6		 add	 eax, esi
  000b1	89 58 1c	 mov	 DWORD PTR [eax+28], ebx
  000b4	eb 5d		 jmp	 SHORT $L109273
$L109277:

; 237  :       }
; 238  :       else {
; 239  :         __failed = this->rdbuf()->_M_sputnc(this->fill(), __npad) != __npad;

  000b6	8b 41 04	 mov	 eax, DWORD PTR [ecx+4]
  000b9	03 c6		 add	 eax, esi
  000bb	8a 48 54	 mov	 cl, BYTE PTR [eax+84]
  000be	8b 40 58	 mov	 eax, DWORD PTR [eax+88]
  000c1	8b 10		 mov	 edx, DWORD PTR [eax]
  000c3	88 4d e4	 mov	 BYTE PTR $T111846[ebp], cl
  000c6	57		 push	 edi
  000c7	ff 75 e4	 push	 DWORD PTR $T111846[ebp]
  000ca	8b c8		 mov	 ecx, eax
  000cc	ff 52 2c	 call	 DWORD PTR [edx+44]
  000cf	3b c7		 cmp	 eax, edi
  000d1	0f 95 45 ef	 setne	 BYTE PTR ___failed$109272[ebp]

; 240  :         __failed = __failed || this->_S_eof(this->rdbuf()->sputc(__c));

  000d5	38 5d ef	 cmp	 BYTE PTR ___failed$109272[ebp], bl
  000d8	75 ce		 jne	 SHORT $L111773
  000da	8b 06		 mov	 eax, DWORD PTR [esi]
  000dc	8b 40 04	 mov	 eax, DWORD PTR [eax+4]
  000df	ff 75 08	 push	 DWORD PTR ___c$[ebp]
  000e2	8b 4c 30 58	 mov	 ecx, DWORD PTR [eax+esi+88]
  000e6	e8 00 00 00 00	 call	 ?sputc@?$basic_streambuf@DV?$char_traits@D@_STL@@@_STL@@QAEHD@Z ; _STL::basic_streambuf<char,_STL::char_traits<char> >::sputc
  000eb	83 f8 ff	 cmp	 eax, -1
  000ee	74 b8		 je	 SHORT $L111773
$L111908:
  000f0	32 c9		 xor	 cl, cl
  000f2	eb b6		 jmp	 SHORT $L111774
$L111776:

; 244  :     }
; 245  :     _STLP_CATCH_ALL {
; 246  :       this->_M_handle_exception(ios_base::badbit);

  000f4	8b 45 e8	 mov	 eax, DWORD PTR _this$[ebp]
  000f7	8b 08		 mov	 ecx, DWORD PTR [eax]
  000f9	8b 49 04	 mov	 ecx, DWORD PTR [ecx+4]
  000fc	6a 01		 push	 1
  000fe	03 c8		 add	 ecx, eax
  00100	e8 00 00 00 00	 call	 ?_M_handle_exception@?$basic_ios@DV?$char_traits@D@_STL@@@_STL@@QAEXH@Z ; _STL::basic_ios<char,_STL::char_traits<char> >::_M_handle_exception

; 247  :     }

  00105	b8 00 00 00 00	 mov	 eax, $L111903
  0010a	c3		 ret	 0
$L111903:
  0010b	8b 75 e8	 mov	 esi, DWORD PTR _this$[ebp]
  0010e	8a 4d ef	 mov	 cl, BYTE PTR ___failed$109272[ebp]
  00111	33 db		 xor	 ebx, ebx
$L109273:

; 248  : 
; 249  :     if (__failed)

  00113	3a cb		 cmp	 cl, bl
  00115	89 5d fc	 mov	 DWORD PTR __$EHRec$[ebp+12], ebx
  00118	74 13		 je	 SHORT $L111886

; 250  :       this->setstate(ios_base::badbit);

  0011a	8b 06		 mov	 eax, DWORD PTR [esi]
  0011c	8b 48 04	 mov	 ecx, DWORD PTR [eax+4]
  0011f	03 ce		 add	 ecx, esi
  00121	8b 41 08	 mov	 eax, DWORD PTR [ecx+8]
  00124	83 c8 01	 or	 eax, 1
  00127	50		 push	 eax
  00128	e8 00 00 00 00	 call	 ?clear@?$basic_ios@DV?$char_traits@D@_STL@@@_STL@@QAEXH@Z ; _STL::basic_ios<char,_STL::char_traits<char> >::clear
$L111886:

; 251  :   }
; 252  : }

  0012d	8b 4d dc	 mov	 ecx, DWORD PTR ___sentry$[ebp]
  00130	8b 01		 mov	 eax, DWORD PTR [ecx]
  00132	8b 40 04	 mov	 eax, DWORD PTR [eax+4]
  00135	83 4d fc ff	 or	 DWORD PTR __$EHRec$[ebp+12], -1
  00139	f6 44 08 05 20	 test	 BYTE PTR [eax+ecx+5], 32 ; 00000020H
  0013e	74 05		 je	 SHORT $L111897
  00140	e8 00 00 00 00	 call	 ?flush@?$basic_ostream@DV?$char_traits@D@_STL@@@_STL@@QAEAAV12@XZ ; _STL::basic_ostream<char,_STL::char_traits<char> >::flush
$L111897:
  00145	8b 4d f4	 mov	 ecx, DWORD PTR __$EHRec$[ebp+4]
  00148	5f		 pop	 edi
  00149	5e		 pop	 esi
  0014a	64 89 0d 00 00
	00 00		 mov	 DWORD PTR fs:__except_list, ecx
  00151	5b		 pop	 ebx
  00152	c9		 leave
  00153	c2 04 00	 ret	 4
_TEXT	ENDS
;	COMDAT text$x
text$x	SEGMENT
$L111777:
  00000	8d 4d dc	 lea	 ecx, DWORD PTR ___sentry$[ebp]
  00003	e9 00 00 00 00	 jmp	 ??1sentry@?$basic_ostream@DV?$char_traits@D@_STL@@@_STL@@QAE@XZ ; _STL::basic_ostream<char,_STL::char_traits<char> >::sentry::~sentry
__ehhandler$?_M_put_char@?$basic_ostream@DV?$char_traits@D@_STL@@@_STL@@QAEXD@Z:
  00008	b8 00 00 00 00	 mov	 eax, OFFSET FLAT:$T111901
  0000d	e9 00 00 00 00	 jmp	 ___CxxFrameHandler
text$x	ENDS
?_M_put_char@?$basic_ostream@DV?$char_traits@D@_STL@@@_STL@@QAEXD@Z ENDP ; _STL::basic_ostream<char,_STL::char_traits<char> >::_M_put_char
PUBLIC	?_M_put_nowiden@?$basic_ostream@DV?$char_traits@D@_STL@@@_STL@@QAEXPBD@Z ; _STL::basic_ostream<char,_STL::char_traits<char> >::_M_put_nowiden
;	COMDAT xdata$x
; File c:\stlport-4.6.1\stlport\stl\_ios_base.h
xdata$x	SEGMENT
$T112019 DD	0ffffffffH
	DD	FLAT:$L111925
	DD	00H
	DD	00H
	DD	00H
	DD	00H
$T112021 DD	00H
	DD	00H
	DD	00H
	DD	FLAT:$L111924
$T112020 DD	01H
	DD	01H
	DD	02H
	DD	01H
	DD	FLAT:$T112021
$T112014 DD	019930520H
	DD	03H
	DD	FLAT:$T112019
	DD	01H
	DD	FLAT:$T112020
	DD	2 DUP(00H)
; Function compile flags: /Ogsy
; File c:\stlport-4.6.1\stlport\stl\_ostream.c
xdata$x	ENDS
;	COMDAT ?_M_put_nowiden@?$basic_ostream@DV?$char_traits@D@_STL@@@_STL@@QAEXPBD@Z
_TEXT	SEGMENT
___sentry$ = -36					; size = 8
$T111973 = -28						; size = 1
_this$ = -24						; size = 4
___failed$109288 = -17					; size = 1
__$EHRec$ = -16						; size = 16
$T111962 = 8						; size = 1
___s$ = 8						; size = 4
?_M_put_nowiden@?$basic_ostream@DV?$char_traits@D@_STL@@@_STL@@QAEXPBD@Z PROC NEAR ; _STL::basic_ostream<char,_STL::char_traits<char> >::_M_put_nowiden, COMDAT
; _this$ = ecx

; 256  : {

  00000	b8 00 00 00 00	 mov	 eax, __ehhandler$?_M_put_nowiden@?$basic_ostream@DV?$char_traits@D@_STL@@@_STL@@QAEXPBD@Z
  00005	e8 00 00 00 00	 call	 __EH_prolog
  0000a	83 ec 18	 sub	 esp, 24			; 00000018H
  0000d	53		 push	 ebx
  0000e	56		 push	 esi
  0000f	57		 push	 edi
  00010	8b f1		 mov	 esi, ecx
  00012	89 65 f0	 mov	 DWORD PTR __$EHRec$[ebp], esp

; 257  :   sentry __sentry(*this);

  00015	56		 push	 esi
  00016	8d 4d dc	 lea	 ecx, DWORD PTR ___sentry$[ebp]
  00019	89 75 e8	 mov	 DWORD PTR _this$[ebp], esi
  0001c	e8 00 00 00 00	 call	 ??0sentry@?$basic_ostream@DV?$char_traits@D@_STL@@@_STL@@QAE@AAV12@@Z ; _STL::basic_ostream<char,_STL::char_traits<char> >::sentry::sentry
  00021	33 db		 xor	 ebx, ebx

; 258  :   if (__sentry) {

  00023	38 5d e0	 cmp	 BYTE PTR ___sentry$[ebp+4], bl
  00026	89 5d fc	 mov	 DWORD PTR __$EHRec$[ebp+12], ebx
  00029	0f 84 0b 01 00
	00		 je	 $L112001

; 259  :     bool __failed = true;
; 260  :     streamsize __n = _Traits::length(__s);

  0002f	ff 75 08	 push	 DWORD PTR ___s$[ebp]
  00032	c6 45 ef 01	 mov	 BYTE PTR ___failed$109288[ebp], 1
  00036	e8 00 00 00 00	 call	 _strlen
  0003b	59		 pop	 ecx

; 261  :     streamsize __npad = this->width() > __n ? this->width() - __n : 0;

  0003c	8b 0e		 mov	 ecx, DWORD PTR [esi]
  0003e	8b f8		 mov	 edi, eax
  00040	8b 41 04	 mov	 eax, DWORD PTR [ecx+4]
  00043	03 c6		 add	 eax, esi
  00045	8b 50 1c	 mov	 edx, DWORD PTR [eax+28]
  00048	3b d7		 cmp	 edx, edi
  0004a	7e 04		 jle	 SHORT $L111918
  0004c	2b d7		 sub	 edx, edi
  0004e	8b da		 mov	 ebx, edx
$L111918:

; 262  : 
; 263  :     _STLP_TRY {
; 264  :       if (__npad == 0)

  00050	85 db		 test	 ebx, ebx
  00052	c6 45 fc 01	 mov	 BYTE PTR __$EHRec$[ebp+12], 1
  00056	75 18		 jne	 SHORT $L109292

; 265  :         __failed = this->rdbuf()->sputn(__s, __n) != __n;

  00058	8b 40 58	 mov	 eax, DWORD PTR [eax+88]
  0005b	8b 10		 mov	 edx, DWORD PTR [eax]
  0005d	57		 push	 edi
  0005e	ff 75 08	 push	 DWORD PTR ___s$[ebp]
  00061	8b c8		 mov	 ecx, eax
  00063	ff 52 28	 call	 DWORD PTR [edx+40]
  00066	3b c7		 cmp	 eax, edi
  00068	0f 95 c1	 setne	 cl

; 266  :       else if ((this->flags() & ios_base::adjustfield) == ios_base::left) {

  0006b	e9 85 00 00 00	 jmp	 $L111922
$L109292:
  00070	8b 50 04	 mov	 edx, DWORD PTR [eax+4]
  00073	80 e2 07	 and	 dl, 7
  00076	80 fa 01	 cmp	 dl, 1
  00079	75 39		 jne	 SHORT $L109294

; 267  :         __failed = this->rdbuf()->sputn(__s, __n) != __n;

  0007b	8b 40 58	 mov	 eax, DWORD PTR [eax+88]
  0007e	8b 10		 mov	 edx, DWORD PTR [eax]
  00080	57		 push	 edi
  00081	ff 75 08	 push	 DWORD PTR ___s$[ebp]
  00084	8b c8		 mov	 ecx, eax
  00086	ff 52 28	 call	 DWORD PTR [edx+40]
  00089	3b c7		 cmp	 eax, edi
  0008b	0f 95 45 ef	 setne	 BYTE PTR ___failed$109288[ebp]

; 268  :         __failed = __failed || 
; 269  :                    this->rdbuf()->_M_sputnc(this->fill(), __npad) != __npad;

  0008f	80 7d ef 00	 cmp	 BYTE PTR ___failed$109288[ebp], 0
  00093	75 5e		 jne	 SHORT $L111921
  00095	8b 06		 mov	 eax, DWORD PTR [esi]
  00097	8b 40 04	 mov	 eax, DWORD PTR [eax+4]
  0009a	03 c6		 add	 eax, esi
  0009c	8a 48 54	 mov	 cl, BYTE PTR [eax+84]
  0009f	8b 40 58	 mov	 eax, DWORD PTR [eax+88]
  000a2	8b 10		 mov	 edx, DWORD PTR [eax]
  000a4	88 4d 08	 mov	 BYTE PTR $T111962[ebp], cl
  000a7	53		 push	 ebx
  000a8	ff 75 08	 push	 DWORD PTR $T111962[ebp]
  000ab	8b c8		 mov	 ecx, eax
  000ad	ff 52 2c	 call	 DWORD PTR [edx+44]
  000b0	3b c3		 cmp	 eax, ebx

; 270  :       }
; 271  :       else {

  000b2	eb 39		 jmp	 SHORT $L112018
$L109294:

; 272  :         __failed = this->rdbuf()->_M_sputnc(this->fill(), __npad) != __npad;

  000b4	8b 41 04	 mov	 eax, DWORD PTR [ecx+4]
  000b7	03 c6		 add	 eax, esi
  000b9	8a 48 54	 mov	 cl, BYTE PTR [eax+84]
  000bc	8b 40 58	 mov	 eax, DWORD PTR [eax+88]
  000bf	8b 10		 mov	 edx, DWORD PTR [eax]
  000c1	88 4d e4	 mov	 BYTE PTR $T111973[ebp], cl
  000c4	53		 push	 ebx
  000c5	ff 75 e4	 push	 DWORD PTR $T111973[ebp]
  000c8	8b c8		 mov	 ecx, eax
  000ca	ff 52 2c	 call	 DWORD PTR [edx+44]
  000cd	3b c3		 cmp	 eax, ebx
  000cf	0f 95 45 ef	 setne	 BYTE PTR ___failed$109288[ebp]

; 273  :         __failed = __failed || this->rdbuf()->sputn(__s, __n) != __n;

  000d3	80 7d ef 00	 cmp	 BYTE PTR ___failed$109288[ebp], 0
  000d7	75 1a		 jne	 SHORT $L111921
  000d9	8b 06		 mov	 eax, DWORD PTR [esi]
  000db	8b 40 04	 mov	 eax, DWORD PTR [eax+4]
  000de	8b 4c 30 58	 mov	 ecx, DWORD PTR [eax+esi+88]
  000e2	8b 01		 mov	 eax, DWORD PTR [ecx]
  000e4	57		 push	 edi
  000e5	ff 75 08	 push	 DWORD PTR ___s$[ebp]
  000e8	ff 50 28	 call	 DWORD PTR [eax+40]
  000eb	3b c7		 cmp	 eax, edi
$L112018:
  000ed	75 04		 jne	 SHORT $L111921
  000ef	32 c9		 xor	 cl, cl
  000f1	eb 02		 jmp	 SHORT $L111922
$L111921:
  000f3	b1 01		 mov	 cl, 1
$L111922:

; 274  :       }
; 275  : 
; 276  :       this->width(0);

  000f5	8b 06		 mov	 eax, DWORD PTR [esi]
  000f7	8b 40 04	 mov	 eax, DWORD PTR [eax+4]
  000fa	03 c6		 add	 eax, esi
  000fc	83 60 1c 00	 and	 DWORD PTR [eax+28], 0
  00100	eb 1d		 jmp	 SHORT $L109291
$L111924:

; 277  :     }
; 278  :     _STLP_CATCH_ALL {
; 279  :       this->_M_handle_exception(ios_base::badbit);

  00102	8b 45 e8	 mov	 eax, DWORD PTR _this$[ebp]
  00105	8b 08		 mov	 ecx, DWORD PTR [eax]
  00107	8b 49 04	 mov	 ecx, DWORD PTR [ecx+4]
  0010a	6a 01		 push	 1
  0010c	03 c8		 add	 ecx, eax
  0010e	e8 00 00 00 00	 call	 ?_M_handle_exception@?$basic_ios@DV?$char_traits@D@_STL@@@_STL@@QAEXH@Z ; _STL::basic_ios<char,_STL::char_traits<char> >::_M_handle_exception

; 280  :     }

  00113	b8 00 00 00 00	 mov	 eax, $L112015
  00118	c3		 ret	 0
$L112015:
  00119	8b 75 e8	 mov	 esi, DWORD PTR _this$[ebp]
  0011c	8a 4d ef	 mov	 cl, BYTE PTR ___failed$109288[ebp]
$L109291:
  0011f	83 65 fc 00	 and	 DWORD PTR __$EHRec$[ebp+12], 0

; 281  : 
; 282  :     if (__failed)

  00123	84 c9		 test	 cl, cl
  00125	74 13		 je	 SHORT $L112001

; 283  :       this->setstate(ios_base::failbit);

  00127	8b 06		 mov	 eax, DWORD PTR [esi]
  00129	8b 48 04	 mov	 ecx, DWORD PTR [eax+4]
  0012c	03 ce		 add	 ecx, esi
  0012e	8b 41 08	 mov	 eax, DWORD PTR [ecx+8]
  00131	83 c8 04	 or	 eax, 4
  00134	50		 push	 eax
  00135	e8 00 00 00 00	 call	 ?clear@?$basic_ios@DV?$char_traits@D@_STL@@@_STL@@QAEXH@Z ; _STL::basic_ios<char,_STL::char_traits<char> >::clear
$L112001:

; 284  :   }
; 285  : }

  0013a	8b 4d dc	 mov	 ecx, DWORD PTR ___sentry$[ebp]
  0013d	8b 01		 mov	 eax, DWORD PTR [ecx]
  0013f	8b 40 04	 mov	 eax, DWORD PTR [eax+4]
  00142	83 4d fc ff	 or	 DWORD PTR __$EHRec$[ebp+12], -1
  00146	f6 44 08 05 20	 test	 BYTE PTR [eax+ecx+5], 32 ; 00000020H
  0014b	74 05		 je	 SHORT $L112012
  0014d	e8 00 00 00 00	 call	 ?flush@?$basic_ostream@DV?$char_traits@D@_STL@@@_STL@@QAEAAV12@XZ ; _STL::basic_ostream<char,_STL::char_traits<char> >::flush
$L112012:
  00152	8b 4d f4	 mov	 ecx, DWORD PTR __$EHRec$[ebp+4]
  00155	5f		 pop	 edi
  00156	5e		 pop	 esi
  00157	64 89 0d 00 00
	00 00		 mov	 DWORD PTR fs:__except_list, ecx
  0015e	5b		 pop	 ebx
  0015f	c9		 leave
  00160	c2 04 00	 ret	 4
_TEXT	ENDS
;	COMDAT text$x
text$x	SEGMENT
$L111925:
  00000	8d 4d dc	 lea	 ecx, DWORD PTR ___sentry$[ebp]
  00003	e9 00 00 00 00	 jmp	 ??1sentry@?$basic_ostream@DV?$char_traits@D@_STL@@@_STL@@QAE@XZ ; _STL::basic_ostream<char,_STL::char_traits<char> >::sentry::~sentry
__ehhandler$?_M_put_nowiden@?$basic_ostream@DV?$char_traits@D@_STL@@@_STL@@QAEXPBD@Z:
  00008	b8 00 00 00 00	 mov	 eax, OFFSET FLAT:$T112014
  0000d	e9 00 00 00 00	 jmp	 ___CxxFrameHandler
text$x	ENDS
?_M_put_nowiden@?$basic_ostream@DV?$char_traits@D@_STL@@@_STL@@QAEXPBD@Z ENDP ; _STL::basic_ostream<char,_STL::char_traits<char> >::_M_put_nowiden
PUBLIC	??$__uninitialized_copy@PAPAV?$vector@GV?$allocator@G@_STL@@@_STL@@PAPAV12@@_STL@@YAPAPAV?$vector@GV?$allocator@G@_STL@@@0@PAPAV10@00ABU__true_type@0@@Z ; _STL::__uninitialized_copy<_STL::vector<unsigned short,_STL::allocator<unsigned short> > * *,_STL::vector<unsigned short,_STL::allocator<unsigned short> > * *>
; Function compile flags: /Ogsy
; File c:\stlport-4.6.1\stlport\stl\_uninitialized.h
;	COMDAT ??$__uninitialized_copy@PAPAV?$vector@GV?$allocator@G@_STL@@@_STL@@PAPAV12@@_STL@@YAPAPAV?$vector@GV?$allocator@G@_STL@@@0@PAPAV10@00ABU__true_type@0@@Z
_TEXT	SEGMENT
___first$ = 8						; size = 4
___last$ = 12						; size = 4
___result$ = 16						; size = 4
___formal$ = 20						; size = 4
??$__uninitialized_copy@PAPAV?$vector@GV?$allocator@G@_STL@@@_STL@@PAPAV12@@_STL@@YAPAPAV?$vector@GV?$allocator@G@_STL@@@0@PAPAV10@00ABU__true_type@0@@Z PROC NEAR ; _STL::__uninitialized_copy<_STL::vector<unsigned short,_STL::allocator<unsigned short> > * *,_STL::vector<unsigned short,_STL::allocator<unsigned short> > * *>, COMDAT

; 55   :   return __copy_aux(__first, __last, __result, _BothPtrType< _InputIter, _ForwardIter> :: _Ret());

  00000	ff 74 24 0c	 push	 DWORD PTR ___result$[esp-4]
  00004	ff 74 24 0c	 push	 DWORD PTR ___last$[esp]
  00008	ff 74 24 0c	 push	 DWORD PTR ___first$[esp+4]
  0000c	e8 00 00 00 00	 call	 ?__copy_trivial@_STL@@YAPAXPBX0PAX@Z ; _STL::__copy_trivial
  00011	83 c4 0c	 add	 esp, 12			; 0000000cH

; 56   : }

  00014	c3		 ret	 0
??$__uninitialized_copy@PAPAV?$vector@GV?$allocator@G@_STL@@@_STL@@PAPAV12@@_STL@@YAPAPAV?$vector@GV?$allocator@G@_STL@@@0@PAPAV10@00ABU__true_type@0@@Z ENDP ; _STL::__uninitialized_copy<_STL::vector<unsigned short,_STL::allocator<unsigned short> > * *,_STL::vector<unsigned short,_STL::allocator<unsigned short> > * *>
_TEXT	ENDS
PUBLIC	??$__uninitialized_copy@PAGPAG@_STL@@YAPAGPAG00ABU__true_type@0@@Z ; _STL::__uninitialized_copy<unsigned short *,unsigned short *>
; Function compile flags: /Ogsy
;	COMDAT ??$__uninitialized_copy@PAGPAG@_STL@@YAPAGPAG00ABU__true_type@0@@Z
_TEXT	SEGMENT
___first$ = 8						; size = 4
___last$ = 12						; size = 4
___result$ = 16						; size = 4
___formal$ = 20						; size = 4
??$__uninitialized_copy@PAGPAG@_STL@@YAPAGPAG00ABU__true_type@0@@Z PROC NEAR ; _STL::__uninitialized_copy<unsigned short *,unsigned short *>, COMDAT

; 55   :   return __copy_aux(__first, __last, __result, _BothPtrType< _InputIter, _ForwardIter> :: _Ret());

  00000	ff 74 24 0c	 push	 DWORD PTR ___result$[esp-4]
  00004	ff 74 24 0c	 push	 DWORD PTR ___last$[esp]
  00008	ff 74 24 0c	 push	 DWORD PTR ___first$[esp+4]
  0000c	e8 00 00 00 00	 call	 ?__copy_trivial@_STL@@YAPAXPBX0PAX@Z ; _STL::__copy_trivial
  00011	83 c4 0c	 add	 esp, 12			; 0000000cH

; 56   : }

  00014	c3		 ret	 0
??$__uninitialized_copy@PAGPAG@_STL@@YAPAGPAG00ABU__true_type@0@@Z ENDP ; _STL::__uninitialized_copy<unsigned short *,unsigned short *>
_TEXT	ENDS
PUBLIC	?SetCreatureTribe@CREATURETABLE_INFO@@QAEXW4CREATURETRIBE@@H@Z ; CREATURETABLE_INFO::SetCreatureTribe
; Function compile flags: /Ogsy
; File c:\darkeden\designed_common\project\client\mcreaturetable.cpp
;	COMDAT ?SetCreatureTribe@CREATURETABLE_INFO@@QAEXW4CREATURETRIBE@@H@Z
_TEXT	SEGMENT
_ct$ = 8						; size = 4
_nMaxAction$ = 12					; size = 4
?SetCreatureTribe@CREATURETABLE_INFO@@QAEXW4CREATURETRIBE@@H@Z PROC NEAR ; CREATURETABLE_INFO::SetCreatureTribe, COMDAT
; _this$ = ecx

; 184  : 	m_CreatureTribe = ct; 

  00000	8b 44 24 04	 mov	 eax, DWORD PTR _ct$[esp-4]

; 185  : 
; 186  : 	InitActionType(nMaxAction); 	

  00004	ff 74 24 08	 push	 DWORD PTR _nMaxAction$[esp-4]
  00008	89 41 64	 mov	 DWORD PTR [ecx+100], eax
  0000b	e8 00 00 00 00	 call	 ?InitActionType@CREATURETABLE_INFO@@IAEXH@Z ; CREATURETABLE_INFO::InitActionType

; 187  : }

  00010	c2 08 00	 ret	 8
?SetCreatureTribe@CREATURETABLE_INFO@@QAEXW4CREATURETRIBE@@H@Z ENDP ; CREATURETABLE_INFO::SetCreatureTribe
_TEXT	ENDS
PUBLIC	?LoadFromFile@CREATURETABLE_INFO@@QAEXAAVivfstream@@@Z ; CREATURETABLE_INFO::LoadFromFile
; Function compile flags: /Ogsy
;	COMDAT ?LoadFromFile@CREATURETABLE_INFO@@QAEXAAVivfstream@@@Z
_TEXT	SEGMENT
_max$ = -12						; size = 4
_stcount$ = -8						; size = 4
_bExistItemWearInfo$ = -1				; size = 1
_file$ = 8						; size = 4
_ct$ = 11						; size = 1
?LoadFromFile@CREATURETABLE_INFO@@QAEXAAVivfstream@@@Z PROC NEAR ; CREATURETABLE_INFO::LoadFromFile, COMDAT
; _this$ = ecx

; 344  : {

  00000	55		 push	 ebp
  00001	8b ec		 mov	 ebp, esp
  00003	83 ec 0c	 sub	 esp, 12			; 0000000cH
  00006	53		 push	 ebx
  00007	56		 push	 esi

; 345  : 	Name.LoadFromFile( file );

  00008	8b 75 08	 mov	 esi, DWORD PTR _file$[ebp]
  0000b	57		 push	 edi
  0000c	8b f9		 mov	 edi, ecx
  0000e	8d 4f 08	 lea	 ecx, DWORD PTR [edi+8]
  00011	8b 01		 mov	 eax, DWORD PTR [ecx]
  00013	56		 push	 esi
  00014	ff 50 08	 call	 DWORD PTR [eax+8]

; 346  : 
; 347  : 	int stcount = 0;

  00017	33 db		 xor	 ebx, ebx

; 348  : 	file.read((char*)&stcount, 4);

  00019	39 5e 04	 cmp	 DWORD PTR [esi+4], ebx
  0001c	89 5d f8	 mov	 DWORD PTR _stcount$[ebp], ebx
  0001f	74 0e		 je	 SHORT $L112111
  00021	8b 4e 04	 mov	 ecx, DWORD PTR [esi+4]
  00024	8b 01		 mov	 eax, DWORD PTR [ecx]
  00026	6a 04		 push	 4
  00028	8d 55 f8	 lea	 edx, DWORD PTR _stcount$[ebp]
  0002b	52		 push	 edx
  0002c	ff 50 10	 call	 DWORD PTR [eax+16]
$L112111:

; 349  : #ifndef __INIT_INFO_
; 350  : 	SpriteTypes.Init(stcount);

  0002f	ff 75 f8	 push	 DWORD PTR _stcount$[ebp]
  00032	8d 4f 14	 lea	 ecx, DWORD PTR [edi+20]
  00035	e8 00 00 00 00	 call	 ?Init@?$CTypeTable@H@@QAEXH@Z ; CTypeTable<int>::Init

; 351  : #endif
; 352  : 	for(int st = 0; st < stcount; st++) 

  0003a	83 7d f8 00	 cmp	 DWORD PTR _stcount$[ebp], 0
  0003e	7e 1d		 jle	 SHORT $L108031
$L112261:

; 353  : 	{	
; 354  : 		file.read((char*)&SpriteTypes[st], 4);

  00040	83 7e 04 00	 cmp	 DWORD PTR [esi+4], 0
  00044	74 11		 je	 SHORT $L108030
  00046	8b 57 18	 mov	 edx, DWORD PTR [edi+24]
  00049	8b 4e 04	 mov	 ecx, DWORD PTR [esi+4]
  0004c	8b 01		 mov	 eax, DWORD PTR [ecx]
  0004e	6a 04		 push	 4
  00050	8d 14 9a	 lea	 edx, DWORD PTR [edx+ebx*4]
  00053	52		 push	 edx
  00054	ff 50 10	 call	 DWORD PTR [eax+16]
$L108030:
  00057	43		 inc	 ebx
  00058	3b 5d f8	 cmp	 ebx, DWORD PTR _stcount$[ebp]
  0005b	7c e3		 jl	 SHORT $L112261
$L108031:

; 355  : 	}
; 356  : 
; 357  : 	file.read((char*)&bMale, 1);

  0005d	83 7e 04 00	 cmp	 DWORD PTR [esi+4], 0
  00061	74 22		 je	 SHORT $L112130
  00063	8b 4e 04	 mov	 ecx, DWORD PTR [esi+4]
  00066	8b 01		 mov	 eax, DWORD PTR [ecx]
  00068	6a 01		 push	 1
  0006a	8d 57 1c	 lea	 edx, DWORD PTR [edi+28]
  0006d	52		 push	 edx
  0006e	ff 50 10	 call	 DWORD PTR [eax+16]

; 358  : 
; 359  : 	BYTE ct;	
; 360  : 	file.read((char*)&ct, 1);

  00071	83 7e 04 00	 cmp	 DWORD PTR [esi+4], 0
  00075	74 0e		 je	 SHORT $L112130
  00077	8b 4e 04	 mov	 ecx, DWORD PTR [esi+4]
  0007a	8b 01		 mov	 eax, DWORD PTR [ecx]
  0007c	6a 01		 push	 1
  0007e	8d 55 0b	 lea	 edx, DWORD PTR _ct$[ebp]
  00081	52		 push	 edx
  00082	ff 50 10	 call	 DWORD PTR [eax+16]
$L112130:

; 361  : 	SetCreatureTribe((enum CREATURETRIBE)ct);		// soundID array

  00085	0f b6 45 0b	 movzx	 eax, BYTE PTR _ct$[ebp]
  00089	6a 00		 push	 0
  0008b	50		 push	 eax
  0008c	8b cf		 mov	 ecx, edi
  0008e	e8 00 00 00 00	 call	 ?SetCreatureTribe@CREATURETABLE_INFO@@QAEXW4CREATURETRIBE@@H@Z ; CREATURETABLE_INFO::SetCreatureTribe

; 362  : 
; 363  : 	file.read((char*)&MoveTimes, 1);

  00093	33 db		 xor	 ebx, ebx
  00095	39 5e 04	 cmp	 DWORD PTR [esi+4], ebx
  00098	74 4b		 je	 SHORT $L112256
  0009a	8b 4e 04	 mov	 ecx, DWORD PTR [esi+4]
  0009d	8b 01		 mov	 eax, DWORD PTR [ecx]
  0009f	6a 01		 push	 1
  000a1	8d 57 1d	 lea	 edx, DWORD PTR [edi+29]
  000a4	52		 push	 edx
  000a5	ff 50 10	 call	 DWORD PTR [eax+16]

; 364  : 	file.read((char*)&MoveRatio, 1);

  000a8	39 5e 04	 cmp	 DWORD PTR [esi+4], ebx
  000ab	74 38		 je	 SHORT $L112256
  000ad	8b 4e 04	 mov	 ecx, DWORD PTR [esi+4]
  000b0	8b 01		 mov	 eax, DWORD PTR [ecx]
  000b2	6a 01		 push	 1
  000b4	8d 57 1e	 lea	 edx, DWORD PTR [edi+30]
  000b7	52		 push	 edx
  000b8	ff 50 10	 call	 DWORD PTR [eax+16]

; 365  : 	file.read((char*)&MoveTimesMotor, 1);

  000bb	39 5e 04	 cmp	 DWORD PTR [esi+4], ebx
  000be	74 25		 je	 SHORT $L112256
  000c0	8b 4e 04	 mov	 ecx, DWORD PTR [esi+4]
  000c3	8b 01		 mov	 eax, DWORD PTR [ecx]
  000c5	6a 01		 push	 1
  000c7	8d 57 1f	 lea	 edx, DWORD PTR [edi+31]
  000ca	52		 push	 edx
  000cb	ff 50 10	 call	 DWORD PTR [eax+16]

; 366  : 	file.read((char*)&Height, 4);

  000ce	39 5e 04	 cmp	 DWORD PTR [esi+4], ebx
  000d1	74 12		 je	 SHORT $L112256
  000d3	8b 4e 04	 mov	 ecx, DWORD PTR [esi+4]
  000d6	8b 01		 mov	 eax, DWORD PTR [ecx]
  000d8	6a 04		 push	 4
  000da	5b		 pop	 ebx
  000db	53		 push	 ebx
  000dc	8d 57 20	 lea	 edx, DWORD PTR [edi+32]
  000df	52		 push	 edx
  000e0	ff 50 10	 call	 DWORD PTR [eax+16]
  000e3	eb 03		 jmp	 SHORT $L112150
$L112256:
  000e5	6a 04		 push	 4
  000e7	5b		 pop	 ebx
$L112150:

; 367  : 	file.read((char*)&Width, 4);

  000e8	83 7e 04 00	 cmp	 DWORD PTR [esi+4], 0
  000ec	0f 84 f6 00 00
	00		 je	 $L112210
  000f2	8b 4e 04	 mov	 ecx, DWORD PTR [esi+4]
  000f5	8b 01		 mov	 eax, DWORD PTR [ecx]
  000f7	53		 push	 ebx
  000f8	8d 57 24	 lea	 edx, DWORD PTR [edi+36]
  000fb	52		 push	 edx
  000fc	ff 50 10	 call	 DWORD PTR [eax+16]

; 368  : 	file.read((char*)&DeadHeight, 4);

  000ff	83 7e 04 00	 cmp	 DWORD PTR [esi+4], 0
  00103	0f 84 df 00 00
	00		 je	 $L112210
  00109	8b 4e 04	 mov	 ecx, DWORD PTR [esi+4]
  0010c	8b 01		 mov	 eax, DWORD PTR [ecx]
  0010e	53		 push	 ebx
  0010f	8d 57 28	 lea	 edx, DWORD PTR [edi+40]
  00112	52		 push	 edx
  00113	ff 50 10	 call	 DWORD PTR [eax+16]

; 369  : 	file.read((char*)&DeadActionInfo, SIZE_ACTIONINFO);

  00116	83 7e 04 00	 cmp	 DWORD PTR [esi+4], 0
  0011a	0f 84 c8 00 00
	00		 je	 $L112210
  00120	8b 4e 04	 mov	 ecx, DWORD PTR [esi+4]
  00123	8b 01		 mov	 eax, DWORD PTR [ecx]
  00125	6a 02		 push	 2
  00127	8d 57 2c	 lea	 edx, DWORD PTR [edi+44]
  0012a	52		 push	 edx
  0012b	ff 50 10	 call	 DWORD PTR [eax+16]

; 370  : //	DeadActionInfo += 122;
; 371  : 	file.read((char*)&ColorSet, 4);

  0012e	83 7e 04 00	 cmp	 DWORD PTR [esi+4], 0
  00132	0f 84 b0 00 00
	00		 je	 $L112210
  00138	8b 4e 04	 mov	 ecx, DWORD PTR [esi+4]
  0013b	8b 01		 mov	 eax, DWORD PTR [ecx]
  0013d	53		 push	 ebx
  0013e	8d 57 30	 lea	 edx, DWORD PTR [edi+48]
  00141	52		 push	 edx
  00142	ff 50 10	 call	 DWORD PTR [eax+16]

; 372  : 	file.read((char*)&bFlyingCreature, 1);

  00145	83 7e 04 00	 cmp	 DWORD PTR [esi+4], 0
  00149	0f 84 99 00 00
	00		 je	 $L112210
  0014f	8b 4e 04	 mov	 ecx, DWORD PTR [esi+4]
  00152	8b 01		 mov	 eax, DWORD PTR [ecx]
  00154	6a 01		 push	 1
  00156	8d 57 34	 lea	 edx, DWORD PTR [edi+52]
  00159	52		 push	 edx
  0015a	ff 50 10	 call	 DWORD PTR [eax+16]

; 373  : 	file.read((char*)&FlyingHeight, 4);

  0015d	83 7e 04 00	 cmp	 DWORD PTR [esi+4], 0
  00161	0f 84 81 00 00
	00		 je	 $L112210
  00167	8b 4e 04	 mov	 ecx, DWORD PTR [esi+4]
  0016a	8b 01		 mov	 eax, DWORD PTR [ecx]
  0016c	53		 push	 ebx
  0016d	8d 57 38	 lea	 edx, DWORD PTR [edi+56]
  00170	52		 push	 edx
  00171	ff 50 10	 call	 DWORD PTR [eax+16]

; 374  : 	file.read((char*)&bHeadCut, 4);

  00174	83 7e 04 00	 cmp	 DWORD PTR [esi+4], 0
  00178	74 6e		 je	 SHORT $L112210
  0017a	8b 4e 04	 mov	 ecx, DWORD PTR [esi+4]
  0017d	8b 01		 mov	 eax, DWORD PTR [ecx]
  0017f	53		 push	 ebx
  00180	8d 57 3c	 lea	 edx, DWORD PTR [edi+60]
  00183	52		 push	 edx
  00184	ff 50 10	 call	 DWORD PTR [eax+16]

; 375  : 	file.read((char*)&HPBarWidth, 4);

  00187	83 7e 04 00	 cmp	 DWORD PTR [esi+4], 0
  0018b	74 5b		 je	 SHORT $L112210
  0018d	8b 4e 04	 mov	 ecx, DWORD PTR [esi+4]
  00190	8b 01		 mov	 eax, DWORD PTR [ecx]
  00192	53		 push	 ebx
  00193	8d 57 40	 lea	 edx, DWORD PTR [edi+64]
  00196	52		 push	 edx
  00197	ff 50 10	 call	 DWORD PTR [eax+16]

; 376  : 	file.read((char*)&ChangeColorSet, 2);

  0019a	83 7e 04 00	 cmp	 DWORD PTR [esi+4], 0
  0019e	74 48		 je	 SHORT $L112210
  001a0	8b 4e 04	 mov	 ecx, DWORD PTR [esi+4]
  001a3	8b 01		 mov	 eax, DWORD PTR [ecx]
  001a5	6a 02		 push	 2
  001a7	8d 57 48	 lea	 edx, DWORD PTR [edi+72]
  001aa	52		 push	 edx
  001ab	ff 50 10	 call	 DWORD PTR [eax+16]

; 377  : 	file.read((char*)&ShadowCount, 2);

  001ae	83 7e 04 00	 cmp	 DWORD PTR [esi+4], 0
  001b2	74 34		 je	 SHORT $L112210
  001b4	8b 4e 04	 mov	 ecx, DWORD PTR [esi+4]
  001b7	8b 01		 mov	 eax, DWORD PTR [ecx]
  001b9	6a 02		 push	 2
  001bb	8d 57 4c	 lea	 edx, DWORD PTR [edi+76]
  001be	52		 push	 edx
  001bf	ff 50 10	 call	 DWORD PTR [eax+16]

; 378  : 	file.read((char*)&EffectStatus, 4);

  001c2	83 7e 04 00	 cmp	 DWORD PTR [esi+4], 0
  001c6	74 20		 je	 SHORT $L112210
  001c8	8b 4e 04	 mov	 ecx, DWORD PTR [esi+4]
  001cb	8b 01		 mov	 eax, DWORD PTR [ecx]
  001cd	53		 push	 ebx
  001ce	8d 57 50	 lea	 edx, DWORD PTR [edi+80]
  001d1	52		 push	 edx
  001d2	ff 50 10	 call	 DWORD PTR [eax+16]

; 379  : 	//EffectStatus += 135;
; 380  : 	file.read((char*)&Level, 4);

  001d5	83 7e 04 00	 cmp	 DWORD PTR [esi+4], 0
  001d9	74 0d		 je	 SHORT $L112210
  001db	8b 4e 04	 mov	 ecx, DWORD PTR [esi+4]
  001de	8b 01		 mov	 eax, DWORD PTR [ecx]
  001e0	53		 push	 ebx
  001e1	8d 57 54	 lea	 edx, DWORD PTR [edi+84]
  001e4	52		 push	 edx
  001e5	ff 50 10	 call	 DWORD PTR [eax+16]
$L112210:

; 381  : 
; 382  : 	//  SoundID load.
; 383  : 	int max = GetActionMax();

  001e8	8b cf		 mov	 ecx, edi
  001ea	e8 00 00 00 00	 call	 ?GetActionMax@CREATURETABLE_INFO@@QBEHXZ ; CREATURETABLE_INFO::GetActionMax

; 384  : 	for (int i=0; i<max; i++)

  001ef	33 db		 xor	 ebx, ebx
  001f1	85 c0		 test	 eax, eax
  001f3	89 45 f4	 mov	 DWORD PTR _max$[ebp], eax
  001f6	7e 1f		 jle	 SHORT $L108057
$L112262:

; 385  : 	{
; 386  : 		file.read((char*)&m_pActionSound[i], SIZE_SOUNDID);

  001f8	83 7e 04 00	 cmp	 DWORD PTR [esi+4], 0
  001fc	74 11		 je	 SHORT $L108056
  001fe	8b 57 68	 mov	 edx, DWORD PTR [edi+104]
  00201	8b 4e 04	 mov	 ecx, DWORD PTR [esi+4]
  00204	8b 01		 mov	 eax, DWORD PTR [ecx]
  00206	6a 02		 push	 2
  00208	8d 14 5a	 lea	 edx, DWORD PTR [edx+ebx*2]
  0020b	52		 push	 edx
  0020c	ff 50 10	 call	 DWORD PTR [eax+16]
$L108056:
  0020f	8b 45 f4	 mov	 eax, DWORD PTR _max$[ebp]
  00212	43		 inc	 ebx
  00213	3b d8		 cmp	 ebx, eax
  00215	7c e1		 jl	 SHORT $L112262
$L108057:

; 387  : 	}
; 388  : 
; 389  : 	//  SoundID load.
; 390  : 	for (i=0; i<max; i++)

  00217	33 db		 xor	 ebx, ebx
  00219	85 c0		 test	 eax, eax
  0021b	7e 1d		 jle	 SHORT $L108061
$L112263:

; 391  : 	{
; 392  : 		file.read((char*)&m_pActionCount[i], 4);

  0021d	83 7e 04 00	 cmp	 DWORD PTR [esi+4], 0
  00221	74 11		 je	 SHORT $L108060
  00223	8b 57 6c	 mov	 edx, DWORD PTR [edi+108]
  00226	8b 4e 04	 mov	 ecx, DWORD PTR [esi+4]
  00229	8b 01		 mov	 eax, DWORD PTR [ecx]
  0022b	6a 04		 push	 4
  0022d	8d 14 9a	 lea	 edx, DWORD PTR [edx+ebx*4]
  00230	52		 push	 edx
  00231	ff 50 10	 call	 DWORD PTR [eax+16]
$L108060:
  00234	43		 inc	 ebx
  00235	3b 5d f4	 cmp	 ebx, DWORD PTR _max$[ebp]
  00238	7c e3		 jl	 SHORT $L112263
$L108061:

; 393  : 	}
; 394  : 
; 395  : 	//---------------------------------------------------------------
; 396  : 	//  NPC  
; 397  : 	//---------------------------------------------------------------
; 398  : 	if (pItemWearInfo!=NULL)

  0023a	8b 47 44	 mov	 eax, DWORD PTR [edi+68]
  0023d	85 c0		 test	 eax, eax
  0023f	74 0b		 je	 SHORT $L108063

; 399  : 	{
; 400  : 		delete pItemWearInfo;

  00241	50		 push	 eax
  00242	e8 00 00 00 00	 call	 ??3@YAXPAX@Z		; operator delete

; 401  : 		pItemWearInfo = NULL;

  00247	83 67 44 00	 and	 DWORD PTR [edi+68], 0
  0024b	59		 pop	 ecx
$L108063:

; 402  : 	}
; 403  : 
; 404  : 	bool bExistItemWearInfo;
; 405  : 	
; 406  : 	file.read((char*)&bExistItemWearInfo, 1);

  0024c	83 7e 04 00	 cmp	 DWORD PTR [esi+4], 0
  00250	74 0e		 je	 SHORT $L112259
  00252	8b 4e 04	 mov	 ecx, DWORD PTR [esi+4]
  00255	8b 01		 mov	 eax, DWORD PTR [ecx]
  00257	6a 01		 push	 1
  00259	8d 55 ff	 lea	 edx, DWORD PTR _bExistItemWearInfo$[ebp]
  0025c	52		 push	 edx
  0025d	ff 50 10	 call	 DWORD PTR [eax+16]
$L112259:

; 407  : 
; 408  : 	if (bExistItemWearInfo)

  00260	80 7d ff 00	 cmp	 BYTE PTR _bExistItemWearInfo$[ebp], 0
  00264	74 22		 je	 SHORT $L108067

; 409  : 	{
; 410  : 		pItemWearInfo = new ITEM_WEARINFO;

  00266	6a 18		 push	 24			; 00000018H
  00268	e8 00 00 00 00	 call	 ??2@YAPAXI@Z		; operator new
  0026d	85 c0		 test	 eax, eax
  0026f	59		 pop	 ecx
  00270	74 09		 je	 SHORT $L112106
  00272	8b c8		 mov	 ecx, eax
  00274	e8 00 00 00 00	 call	 ??0ITEM_WEARINFO@@QAE@XZ ; ITEM_WEARINFO::ITEM_WEARINFO
  00279	eb 02		 jmp	 SHORT $L112107
$L112106:
  0027b	33 c0		 xor	 eax, eax
$L112107:

; 411  : 		pItemWearInfo->LoadFromFile( file );

  0027d	56		 push	 esi
  0027e	8b c8		 mov	 ecx, eax
  00280	89 47 44	 mov	 DWORD PTR [edi+68], eax
  00283	e8 00 00 00 00	 call	 ?LoadFromFile@ITEM_WEARINFO@@QAEXAAVivfstream@@@Z ; ITEM_WEARINFO::LoadFromFile
$L108067:

; 412  : 	}
; 413  : 	file.read((char*)&bFade, 1);

  00288	83 7e 04 00	 cmp	 DWORD PTR [esi+4], 0
  0028c	74 4c		 je	 SHORT $L112247
  0028e	8b 4e 04	 mov	 ecx, DWORD PTR [esi+4]
  00291	8b 01		 mov	 eax, DWORD PTR [ecx]
  00293	6a 01		 push	 1
  00295	8d 57 58	 lea	 edx, DWORD PTR [edi+88]
  00298	52		 push	 edx
  00299	ff 50 10	 call	 DWORD PTR [eax+16]

; 414  : 	file.read((char*)&bFadeShadow, 1);

  0029c	83 7e 04 00	 cmp	 DWORD PTR [esi+4], 0
  002a0	74 38		 je	 SHORT $L112247
  002a2	8b 4e 04	 mov	 ecx, DWORD PTR [esi+4]
  002a5	8b 01		 mov	 eax, DWORD PTR [ecx]
  002a7	6a 01		 push	 1
  002a9	8d 57 59	 lea	 edx, DWORD PTR [edi+89]
  002ac	52		 push	 edx
  002ad	ff 50 10	 call	 DWORD PTR [eax+16]

; 415  : 
; 416  : 	file.read((char*)&EffectSpriteType, 4);//     

  002b0	83 7e 04 00	 cmp	 DWORD PTR [esi+4], 0
  002b4	74 24		 je	 SHORT $L112247
  002b6	8b 4e 04	 mov	 ecx, DWORD PTR [esi+4]
  002b9	8b 01		 mov	 eax, DWORD PTR [ecx]
  002bb	6a 04		 push	 4
  002bd	8d 57 60	 lea	 edx, DWORD PTR [edi+96]
  002c0	52		 push	 edx
  002c1	ff 50 10	 call	 DWORD PTR [eax+16]

; 417  : 	//EffectSpriteType += 238;//238 +5
; 418  : 	file.read((char*)&tmp, 4);

  002c4	83 7e 04 00	 cmp	 DWORD PTR [esi+4], 0
  002c8	74 10		 je	 SHORT $L112247
  002ca	8b 76 04	 mov	 esi, DWORD PTR [esi+4]
  002cd	8b 06		 mov	 eax, DWORD PTR [esi]
  002cf	6a 04		 push	 4
  002d1	83 c7 5c	 add	 edi, 92			; 0000005cH
  002d4	57		 push	 edi
  002d5	8b ce		 mov	 ecx, esi
  002d7	ff 50 10	 call	 DWORD PTR [eax+16]
$L112247:
  002da	5f		 pop	 edi
  002db	5e		 pop	 esi
  002dc	5b		 pop	 ebx

; 419  : }

  002dd	c9		 leave
  002de	c2 04 00	 ret	 4
?LoadFromFile@CREATURETABLE_INFO@@QAEXAAVivfstream@@@Z ENDP ; CREATURETABLE_INFO::LoadFromFile
_TEXT	ENDS
PUBLIC	??4CREATURETABLE_INFO@@QAEXABV0@@Z		; CREATURETABLE_INFO::operator=
EXTRN	??4MString@@QAEXABV0@@Z:NEAR			; MString::operator=
; Function compile flags: /Ogsy
;	COMDAT ??4CREATURETABLE_INFO@@QAEXABV0@@Z
_TEXT	SEGMENT
_max$ = 8						; size = 4
_creatureInfo$ = 8					; size = 4
??4CREATURETABLE_INFO@@QAEXABV0@@Z PROC NEAR		; CREATURETABLE_INFO::operator=, COMDAT
; _this$ = ecx

; 426  : {

  00000	55		 push	 ebp
  00001	8b ec		 mov	 ebp, esp
  00003	56		 push	 esi

; 427  : 	Name		= creatureInfo.Name;

  00004	8b 75 08	 mov	 esi, DWORD PTR _creatureInfo$[ebp]
  00007	57		 push	 edi
  00008	8b f9		 mov	 edi, ecx
  0000a	8d 46 08	 lea	 eax, DWORD PTR [esi+8]
  0000d	50		 push	 eax
  0000e	8d 4f 08	 lea	 ecx, DWORD PTR [edi+8]
  00011	e8 00 00 00 00	 call	 ??4MString@@QAEXABV0@@Z	; MString::operator=

; 428  : 	SpriteTypes.Init(creatureInfo.SpriteTypes.GetSize());

  00016	ff 76 14	 push	 DWORD PTR [esi+20]
  00019	8d 4f 14	 lea	 ecx, DWORD PTR [edi+20]
  0001c	e8 00 00 00 00	 call	 ?Init@?$CTypeTable@H@@QAEXH@Z ; CTypeTable<int>::Init

; 429  : 
; 430  : 	for(int st = 0; st< creatureInfo.SpriteTypes.GetSize(); st++)

  00021	33 c0		 xor	 eax, eax
  00023	39 46 14	 cmp	 DWORD PTR [esi+20], eax
  00026	7e 12		 jle	 SHORT $L108083
$L108081:

; 431  : 		SpriteTypes[st] = creatureInfo.SpriteTypes[st];

  00028	8b 4e 18	 mov	 ecx, DWORD PTR [esi+24]
  0002b	8b 0c 81	 mov	 ecx, DWORD PTR [ecx+eax*4]
  0002e	8b 57 18	 mov	 edx, DWORD PTR [edi+24]
  00031	89 0c 82	 mov	 DWORD PTR [edx+eax*4], ecx
  00034	40		 inc	 eax
  00035	3b 46 14	 cmp	 eax, DWORD PTR [esi+20]
  00038	7c ee		 jl	 SHORT $L108081
$L108083:

; 432  : 
; 433  : 	bMale		= creatureInfo.bMale;

  0003a	8a 46 1c	 mov	 al, BYTE PTR [esi+28]

; 434  : 	SetCreatureTribe( creatureInfo.m_CreatureTribe );

  0003d	6a 00		 push	 0
  0003f	88 47 1c	 mov	 BYTE PTR [edi+28], al
  00042	ff 76 64	 push	 DWORD PTR [esi+100]
  00045	8b cf		 mov	 ecx, edi
  00047	e8 00 00 00 00	 call	 ?SetCreatureTribe@CREATURETABLE_INFO@@QAEXW4CREATURETRIBE@@H@Z ; CREATURETABLE_INFO::SetCreatureTribe

; 435  : 
; 436  : 	MoveTimes		= creatureInfo.MoveTimes;

  0004c	8a 46 1d	 mov	 al, BYTE PTR [esi+29]
  0004f	88 47 1d	 mov	 BYTE PTR [edi+29], al

; 437  : 	MoveRatio		= creatureInfo.MoveRatio;

  00052	8a 46 1e	 mov	 al, BYTE PTR [esi+30]
  00055	88 47 1e	 mov	 BYTE PTR [edi+30], al

; 438  : 	MoveTimesMotor	= creatureInfo.MoveTimesMotor;

  00058	8a 46 1f	 mov	 al, BYTE PTR [esi+31]
  0005b	88 47 1f	 mov	 BYTE PTR [edi+31], al

; 439  : 	Height			= creatureInfo.Height;

  0005e	8b 46 20	 mov	 eax, DWORD PTR [esi+32]
  00061	89 47 20	 mov	 DWORD PTR [edi+32], eax

; 440  : 	Width			= creatureInfo.Width;

  00064	8b 46 24	 mov	 eax, DWORD PTR [esi+36]
  00067	89 47 24	 mov	 DWORD PTR [edi+36], eax

; 441  : 	DeadHeight		= creatureInfo.DeadHeight;

  0006a	8b 46 28	 mov	 eax, DWORD PTR [esi+40]
  0006d	89 47 28	 mov	 DWORD PTR [edi+40], eax

; 442  : 	DeadActionInfo	= creatureInfo.DeadActionInfo;

  00070	66 8b 46 2c	 mov	 ax, WORD PTR [esi+44]
  00074	66 89 47 2c	 mov	 WORD PTR [edi+44], ax

; 443  : 	ColorSet		= creatureInfo.ColorSet;

  00078	8b 46 30	 mov	 eax, DWORD PTR [esi+48]
  0007b	89 47 30	 mov	 DWORD PTR [edi+48], eax

; 444  : 	bFlyingCreature = creatureInfo.bFlyingCreature;

  0007e	8a 46 34	 mov	 al, BYTE PTR [esi+52]
  00081	88 47 34	 mov	 BYTE PTR [edi+52], al

; 445  : 	FlyingHeight	= creatureInfo.FlyingHeight;

  00084	8b 46 38	 mov	 eax, DWORD PTR [esi+56]
  00087	89 47 38	 mov	 DWORD PTR [edi+56], eax

; 446  : 	bHeadCut		= creatureInfo.bHeadCut;

  0008a	8a 46 3c	 mov	 al, BYTE PTR [esi+60]
  0008d	88 47 3c	 mov	 BYTE PTR [edi+60], al

; 447  : 	HPBarWidth		= creatureInfo.HPBarWidth;

  00090	8b 46 40	 mov	 eax, DWORD PTR [esi+64]
  00093	89 47 40	 mov	 DWORD PTR [edi+64], eax

; 448  : 	ChangeColorSet = creatureInfo.ChangeColorSet;

  00096	66 8b 46 48	 mov	 ax, WORD PTR [esi+72]
  0009a	66 89 47 48	 mov	 WORD PTR [edi+72], ax

; 449  : 	ShadowCount		= creatureInfo.ShadowCount;

  0009e	8b 46 4c	 mov	 eax, DWORD PTR [esi+76]
  000a1	89 47 4c	 mov	 DWORD PTR [edi+76], eax

; 450  : 	EffectStatus	= creatureInfo.EffectStatus;

  000a4	8b 46 50	 mov	 eax, DWORD PTR [esi+80]
  000a7	89 47 50	 mov	 DWORD PTR [edi+80], eax

; 451  : 	Level			= creatureInfo.Level;

  000aa	8b 46 54	 mov	 eax, DWORD PTR [esi+84]
  000ad	89 47 54	 mov	 DWORD PTR [edi+84], eax

; 452  : 	bFade			= creatureInfo.bFade;

  000b0	8a 46 58	 mov	 al, BYTE PTR [esi+88]
  000b3	88 47 58	 mov	 BYTE PTR [edi+88], al

; 453  : 	bFadeShadow		= creatureInfo.bFadeShadow;

  000b6	8a 46 59	 mov	 al, BYTE PTR [esi+89]
  000b9	88 47 59	 mov	 BYTE PTR [edi+89], al

; 454  : 	EffectSpriteType = creatureInfo.EffectSpriteType;

  000bc	8b 46 60	 mov	 eax, DWORD PTR [esi+96]

; 455  : 
; 456  : 	//  SoundID load.
; 457  : 	int max = GetActionMax();

  000bf	8b cf		 mov	 ecx, edi
  000c1	89 47 60	 mov	 DWORD PTR [edi+96], eax
  000c4	e8 00 00 00 00	 call	 ?GetActionMax@CREATURETABLE_INFO@@QBEHXZ ; CREATURETABLE_INFO::GetActionMax

; 458  : 	for (int i=0; i<max; i++)

  000c9	33 c9		 xor	 ecx, ecx
  000cb	85 c0		 test	 eax, eax
  000cd	89 45 08	 mov	 DWORD PTR _max$[ebp], eax
  000d0	7e 14		 jle	 SHORT $L108088
$L108086:

; 459  : 	{
; 460  : 		m_pActionSound[i] = creatureInfo.m_pActionSound[i];

  000d2	8b 46 68	 mov	 eax, DWORD PTR [esi+104]
  000d5	66 8b 04 48	 mov	 ax, WORD PTR [eax+ecx*2]
  000d9	8b 57 68	 mov	 edx, DWORD PTR [edi+104]
  000dc	66 89 04 4a	 mov	 WORD PTR [edx+ecx*2], ax
  000e0	41		 inc	 ecx
  000e1	3b 4d 08	 cmp	 ecx, DWORD PTR _max$[ebp]
  000e4	7c ec		 jl	 SHORT $L108086
$L108088:

; 461  : 	}
; 462  : 
; 463  : 	//  SoundID load.
; 464  : 	for (i=0; i<max; i++)

  000e6	33 c0		 xor	 eax, eax
  000e8	39 45 08	 cmp	 DWORD PTR _max$[ebp], eax
  000eb	7e 12		 jle	 SHORT $L108091
$L108089:

; 465  : 	{
; 466  : 		m_pActionCount[i] = creatureInfo.m_pActionCount[i];

  000ed	8b 4e 6c	 mov	 ecx, DWORD PTR [esi+108]
  000f0	8b 0c 81	 mov	 ecx, DWORD PTR [ecx+eax*4]
  000f3	8b 57 6c	 mov	 edx, DWORD PTR [edi+108]
  000f6	89 0c 82	 mov	 DWORD PTR [edx+eax*4], ecx
  000f9	40		 inc	 eax
  000fa	3b 45 08	 cmp	 eax, DWORD PTR _max$[ebp]
  000fd	7c ee		 jl	 SHORT $L108089
$L108091:

; 467  : 	}
; 468  : 
; 469  : 	if (pItemWearInfo!=NULL)

  000ff	8b 47 44	 mov	 eax, DWORD PTR [edi+68]
  00102	85 c0		 test	 eax, eax
  00104	74 0b		 je	 SHORT $L108092

; 470  : 	{
; 471  : 		delete pItemWearInfo;

  00106	50		 push	 eax
  00107	e8 00 00 00 00	 call	 ??3@YAXPAX@Z		; operator delete

; 472  : 		pItemWearInfo = NULL;

  0010c	83 67 44 00	 and	 DWORD PTR [edi+68], 0
  00110	59		 pop	 ecx
$L108092:

; 473  : 	}
; 474  : 
; 475  : 	if (creatureInfo.pItemWearInfo!=NULL)

  00111	83 7e 44 00	 cmp	 DWORD PTR [esi+68], 0
  00115	74 24		 je	 SHORT $L108094

; 476  : 	{
; 477  : 		pItemWearInfo = new ITEM_WEARINFO;

  00117	6a 18		 push	 24			; 00000018H
  00119	e8 00 00 00 00	 call	 ??2@YAPAXI@Z		; operator new
  0011e	85 c0		 test	 eax, eax
  00120	59		 pop	 ecx
  00121	74 09		 je	 SHORT $L112288
  00123	8b c8		 mov	 ecx, eax
  00125	e8 00 00 00 00	 call	 ??0ITEM_WEARINFO@@QAE@XZ ; ITEM_WEARINFO::ITEM_WEARINFO
  0012a	eb 02		 jmp	 SHORT $L112289
$L112288:
  0012c	33 c0		 xor	 eax, eax
$L112289:
  0012e	89 47 44	 mov	 DWORD PTR [edi+68], eax

; 478  : 		
; 479  : 		*pItemWearInfo = *(creatureInfo.pItemWearInfo);

  00131	ff 76 44	 push	 DWORD PTR [esi+68]
  00134	8b c8		 mov	 ecx, eax
  00136	e8 00 00 00 00	 call	 ??4ITEM_WEARINFO@@QAEXABV0@@Z ; ITEM_WEARINFO::operator=
$L108094:
  0013b	5f		 pop	 edi
  0013c	5e		 pop	 esi

; 480  : 	}	
; 481  : }

  0013d	5d		 pop	 ebp
  0013e	c2 04 00	 ret	 4
??4CREATURETABLE_INFO@@QAEXABV0@@Z ENDP			; CREATURETABLE_INFO::operator=
_TEXT	ENDS
PUBLIC	??0?$vector@PAV?$vector@GV?$allocator@G@_STL@@@_STL@@V?$allocator@PAV?$vector@GV?$allocator@G@_STL@@@_STL@@@2@@_STL@@QAE@ABV?$allocator@PAV?$vector@GV?$allocator@G@_STL@@@_STL@@@1@@Z ; _STL::vector<_STL::vector<unsigned short,_STL::allocator<unsigned short> > *,_STL::allocator<_STL::vector<unsigned short,_STL::allocator<unsigned short> > *> >::vector<_STL::vector<unsigned short,_STL::allocator<unsigned short> > *,_STL::allocator<_STL::vector<unsigned short,_STL::allocator<unsigned short> > *> >
; Function compile flags: /Ogsy
; File c:\stlport-4.6.1\stlport\stl\_vector.h
;	COMDAT ??0?$vector@PAV?$vector@GV?$allocator@G@_STL@@@_STL@@V?$allocator@PAV?$vector@GV?$allocator@G@_STL@@@_STL@@@2@@_STL@@QAE@ABV?$allocator@PAV?$vector@GV?$allocator@G@_STL@@@_STL@@@1@@Z
_TEXT	SEGMENT
___a$ = 8						; size = 4
??0?$vector@PAV?$vector@GV?$allocator@G@_STL@@@_STL@@V?$allocator@PAV?$vector@GV?$allocator@G@_STL@@@_STL@@@2@@_STL@@QAE@ABV?$allocator@PAV?$vector@GV?$allocator@G@_STL@@@_STL@@@1@@Z PROC NEAR ; _STL::vector<_STL::vector<unsigned short,_STL::allocator<unsigned short> > *,_STL::allocator<_STL::vector<unsigned short,_STL::allocator<unsigned short> > *> >::vector<_STL::vector<unsigned short,_STL::allocator<unsigned short> > *,_STL::allocator<_STL::vector<unsigned short,_STL::allocator<unsigned short> > *> >, COMDAT
; _this$ = ecx

; 199  :     _Vector_base<_Tp, _Alloc>(__a) {}

  00000	56		 push	 esi
  00001	ff 74 24 08	 push	 DWORD PTR ___a$[esp]
  00005	8b f1		 mov	 esi, ecx
  00007	e8 00 00 00 00	 call	 ??0?$_Vector_base@PAV?$vector@GV?$allocator@G@_STL@@@_STL@@V?$allocator@PAV?$vector@GV?$allocator@G@_STL@@@_STL@@@2@@_STL@@QAE@ABV?$allocator@PAV?$vector@GV?$allocator@G@_STL@@@_STL@@@1@@Z ; _STL::_Vector_base<_STL::vector<unsigned short,_STL::allocator<unsigned short> > *,_STL::allocator<_STL::vector<unsigned short,_STL::allocator<unsigned short> > *> >::_Vector_base<_STL::vector<unsigned short,_STL::allocator<unsigned short> > *,_STL::allocator<_STL::vector<unsigned short,_STL::allocator<unsigned short> > *> >
  0000c	8b c6		 mov	 eax, esi
  0000e	5e		 pop	 esi
  0000f	c2 04 00	 ret	 4
??0?$vector@PAV?$vector@GV?$allocator@G@_STL@@@_STL@@V?$allocator@PAV?$vector@GV?$allocator@G@_STL@@@_STL@@@2@@_STL@@QAE@ABV?$allocator@PAV?$vector@GV?$allocator@G@_STL@@@_STL@@@1@@Z ENDP ; _STL::vector<_STL::vector<unsigned short,_STL::allocator<unsigned short> > *,_STL::allocator<_STL::vector<unsigned short,_STL::allocator<unsigned short> > *> >::vector<_STL::vector<unsigned short,_STL::allocator<unsigned short> > *,_STL::allocator<_STL::vector<unsigned short,_STL::allocator<unsigned short> > *> >
_TEXT	ENDS
PUBLIC	??1?$vector@PAV?$vector@GV?$allocator@G@_STL@@@_STL@@V?$allocator@PAV?$vector@GV?$allocator@G@_STL@@@_STL@@@2@@_STL@@QAE@XZ ; _STL::vector<_STL::vector<unsigned short,_STL::allocator<unsigned short> > *,_STL::allocator<_STL::vector<unsigned short,_STL::allocator<unsigned short> > *> >::~vector<_STL::vector<unsigned short,_STL::allocator<unsigned short> > *,_STL::allocator<_STL::vector<unsigned short,_STL::allocator<unsigned short> > *> >
; Function compile flags: /Ogsy
;	COMDAT ??1?$vector@PAV?$vector@GV?$allocator@G@_STL@@@_STL@@V?$allocator@PAV?$vector@GV?$allocator@G@_STL@@@_STL@@@2@@_STL@@QAE@XZ
_TEXT	SEGMENT
??1?$vector@PAV?$vector@GV?$allocator@G@_STL@@@_STL@@V?$allocator@PAV?$vector@GV?$allocator@G@_STL@@@_STL@@@2@@_STL@@QAE@XZ PROC NEAR ; _STL::vector<_STL::vector<unsigned short,_STL::allocator<unsigned short> > *,_STL::allocator<_STL::vector<unsigned short,_STL::allocator<unsigned short> > *> >::~vector<_STL::vector<unsigned short,_STL::allocator<unsigned short> > *,_STL::allocator<_STL::vector<unsigned short,_STL::allocator<unsigned short> > *> >, COMDAT
; _this$ = ecx

; 258  :   ~vector() { _Destroy(this->_M_start, this->_M_finish); }

  00000	e9 00 00 00 00	 jmp	 ??1?$_Vector_base@PAV?$vector@GV?$allocator@G@_STL@@@_STL@@V?$allocator@PAV?$vector@GV?$allocator@G@_STL@@@_STL@@@2@@_STL@@QAE@XZ ; _STL::_Vector_base<_STL::vector<unsigned short,_STL::allocator<unsigned short> > *,_STL::allocator<_STL::vector<unsigned short,_STL::allocator<unsigned short> > *> >::~_Vector_base<_STL::vector<unsigned short,_STL::allocator<unsigned short> > *,_STL::allocator<_STL::vector<unsigned short,_STL::allocator<unsigned short> > *> >
??1?$vector@PAV?$vector@GV?$allocator@G@_STL@@@_STL@@V?$allocator@PAV?$vector@GV?$allocator@G@_STL@@@_STL@@@2@@_STL@@QAE@XZ ENDP ; _STL::vector<_STL::vector<unsigned short,_STL::allocator<unsigned short> > *,_STL::allocator<_STL::vector<unsigned short,_STL::allocator<unsigned short> > *> >::~vector<_STL::vector<unsigned short,_STL::allocator<unsigned short> > *,_STL::allocator<_STL::vector<unsigned short,_STL::allocator<unsigned short> > *> >
_TEXT	ENDS
PUBLIC	??0?$vector@GV?$allocator@G@_STL@@@_STL@@QAE@ABV?$allocator@G@1@@Z ; _STL::vector<unsigned short,_STL::allocator<unsigned short> >::vector<unsigned short,_STL::allocator<unsigned short> >
; Function compile flags: /Ogsy
;	COMDAT ??0?$vector@GV?$allocator@G@_STL@@@_STL@@QAE@ABV?$allocator@G@1@@Z
_TEXT	SEGMENT
___a$ = 8						; size = 4
??0?$vector@GV?$allocator@G@_STL@@@_STL@@QAE@ABV?$allocator@G@1@@Z PROC NEAR ; _STL::vector<unsigned short,_STL::allocator<unsigned short> >::vector<unsigned short,_STL::allocator<unsigned short> >, COMDAT
; _this$ = ecx

; 199  :     _Vector_base<_Tp, _Alloc>(__a) {}

  00000	56		 push	 esi
  00001	ff 74 24 08	 push	 DWORD PTR ___a$[esp]
  00005	8b f1		 mov	 esi, ecx
  00007	e8 00 00 00 00	 call	 ??0?$_Vector_base@GV?$allocator@G@_STL@@@_STL@@QAE@ABV?$allocator@G@1@@Z ; _STL::_Vector_base<unsigned short,_STL::allocator<unsigned short> >::_Vector_base<unsigned short,_STL::allocator<unsigned short> >
  0000c	8b c6		 mov	 eax, esi
  0000e	5e		 pop	 esi
  0000f	c2 04 00	 ret	 4
??0?$vector@GV?$allocator@G@_STL@@@_STL@@QAE@ABV?$allocator@G@1@@Z ENDP ; _STL::vector<unsigned short,_STL::allocator<unsigned short> >::vector<unsigned short,_STL::allocator<unsigned short> >
_TEXT	ENDS
PUBLIC	??1?$vector@GV?$allocator@G@_STL@@@_STL@@QAE@XZ	; _STL::vector<unsigned short,_STL::allocator<unsigned short> >::~vector<unsigned short,_STL::allocator<unsigned short> >
; Function compile flags: /Ogsy
;	COMDAT ??1?$vector@GV?$allocator@G@_STL@@@_STL@@QAE@XZ
_TEXT	SEGMENT
??1?$vector@GV?$allocator@G@_STL@@@_STL@@QAE@XZ PROC NEAR ; _STL::vector<unsigned short,_STL::allocator<unsigned short> >::~vector<unsigned short,_STL::allocator<unsigned short> >, COMDAT
; _this$ = ecx

; 258  :   ~vector() { _Destroy(this->_M_start, this->_M_finish); }

  00000	e9 00 00 00 00	 jmp	 ??1?$_Vector_base@GV?$allocator@G@_STL@@@_STL@@QAE@XZ ; _STL::_Vector_base<unsigned short,_STL::allocator<unsigned short> >::~_Vector_base<unsigned short,_STL::allocator<unsigned short> >
??1?$vector@GV?$allocator@G@_STL@@@_STL@@QAE@XZ ENDP	; _STL::vector<unsigned short,_STL::allocator<unsigned short> >::~vector<unsigned short,_STL::allocator<unsigned short> >
_TEXT	ENDS
PUBLIC	?_M_insert_overflow@?$vector@GV?$allocator@G@_STL@@@_STL@@IAEXPAGABGABU__true_type@2@I_N@Z ; _STL::vector<unsigned short,_STL::allocator<unsigned short> >::_M_insert_overflow
; Function compile flags: /Ogsy
;	COMDAT ?_M_insert_overflow@?$vector@GV?$allocator@G@_STL@@@_STL@@IAEXPAGABGABU__true_type@2@I_N@Z
_TEXT	SEGMENT
___old_size$ = -4					; size = 4
___position$ = 8					; size = 4
___x$ = 12						; size = 4
___formal$ = 16						; size = 4
___new_finish$ = 20					; size = 4
___fill_len$ = 20					; size = 4
___atend$ = 24						; size = 1
?_M_insert_overflow@?$vector@GV?$allocator@G@_STL@@@_STL@@IAEXPAGABGABU__true_type@2@I_N@Z PROC NEAR ; _STL::vector<unsigned short,_STL::allocator<unsigned short> >::_M_insert_overflow, COMDAT
; _this$ = ecx

; 151  : 			  size_type __fill_len, bool __atend = false) {

  00000	55		 push	 ebp
  00001	8b ec		 mov	 ebp, esp
  00003	51		 push	 ecx
  00004	53		 push	 ebx
  00005	56		 push	 esi
  00006	8b f1		 mov	 esi, ecx

; 152  :     const size_type __old_size = size();

  00008	8b 46 04	 mov	 eax, DWORD PTR [esi+4]
  0000b	2b 06		 sub	 eax, DWORD PTR [esi]
  0000d	57		 push	 edi
  0000e	d1 f8		 sar	 eax, 1

; 153  :     const size_type __len = __old_size + (max)(__old_size, __fill_len);

  00010	3b 45 14	 cmp	 eax, DWORD PTR ___fill_len$[ebp]
  00013	89 45 fc	 mov	 DWORD PTR ___old_size$[ebp], eax
  00016	8d 4d 14	 lea	 ecx, DWORD PTR ___fill_len$[ebp]
  00019	72 03		 jb	 SHORT $L112363
  0001b	8d 4d fc	 lea	 ecx, DWORD PTR ___old_size$[ebp]
$L112363:
  0001e	8b 39		 mov	 edi, DWORD PTR [ecx]
  00020	03 f8		 add	 edi, eax

; 154  :     
; 155  :     pointer __new_start = this->_M_end_of_storage.allocate(__len);

  00022	74 0e		 je	 SHORT $L112369
  00024	8d 04 3f	 lea	 eax, DWORD PTR [edi+edi]
  00027	50		 push	 eax
  00028	e8 00 00 00 00	 call	 ?allocate@?$__node_alloc@$00$0A@@_STL@@SAPAXI@Z ; _STL::__node_alloc<1,0>::allocate
  0002d	59		 pop	 ecx
  0002e	8b d8		 mov	 ebx, eax
  00030	eb 02		 jmp	 SHORT $L112370
$L112369:
  00032	33 db		 xor	 ebx, ebx
$L112370:

; 156  :     pointer __new_finish = (pointer)__copy_trivial(this->_M_start, __position, __new_start);

  00034	53		 push	 ebx
  00035	ff 75 08	 push	 DWORD PTR ___position$[ebp]
  00038	ff 36		 push	 DWORD PTR [esi]
  0003a	e8 00 00 00 00	 call	 ?__copy_trivial@_STL@@YAPAXPBX0PAX@Z ; _STL::__copy_trivial

; 157  :       // handle insertion
; 158  :     __new_finish = fill_n(__new_finish, __fill_len, __x);

  0003f	ff 75 0c	 push	 DWORD PTR ___x$[ebp]
  00042	ff 75 14	 push	 DWORD PTR ___fill_len$[ebp]
  00045	50		 push	 eax
  00046	e8 00 00 00 00	 call	 ??$fill_n@PAGIG@_STL@@YAPAGPAGIABG@Z ; _STL::fill_n<unsigned short *,unsigned int,unsigned short>
  0004b	83 c4 18	 add	 esp, 24			; 00000018H

; 159  :     if (!__atend)

  0004e	80 7d 18 00	 cmp	 BYTE PTR ___atend$[ebp], 0
  00052	89 45 14	 mov	 DWORD PTR ___new_finish$[ebp], eax
  00055	75 12		 jne	 SHORT $L108697

; 160  :       // copy remainder
; 161  :       __new_finish = (pointer)__copy_trivial(__position, this->_M_finish, __new_finish);

  00057	50		 push	 eax
  00058	ff 76 04	 push	 DWORD PTR [esi+4]
  0005b	ff 75 08	 push	 DWORD PTR ___position$[ebp]
  0005e	e8 00 00 00 00	 call	 ?__copy_trivial@_STL@@YAPAXPBX0PAX@Z ; _STL::__copy_trivial
  00063	83 c4 0c	 add	 esp, 12			; 0000000cH
  00066	89 45 14	 mov	 DWORD PTR ___new_finish$[ebp], eax
$L108697:

; 162  :     _M_clear();

  00069	8b ce		 mov	 ecx, esi
  0006b	e8 00 00 00 00	 call	 ?_M_clear@?$vector@GV?$allocator@G@_STL@@@_STL@@IAEXXZ ; _STL::vector<unsigned short,_STL::allocator<unsigned short> >::_M_clear

; 163  :     _M_set(__new_start, __new_finish, __new_start + __len);

  00070	8b 45 14	 mov	 eax, DWORD PTR ___new_finish$[ebp]
  00073	89 46 04	 mov	 DWORD PTR [esi+4], eax
  00076	8d 04 7b	 lea	 eax, DWORD PTR [ebx+edi*2]
  00079	5f		 pop	 edi
  0007a	89 1e		 mov	 DWORD PTR [esi], ebx
  0007c	89 46 08	 mov	 DWORD PTR [esi+8], eax
  0007f	5e		 pop	 esi
  00080	5b		 pop	 ebx

; 164  :   }

  00081	c9		 leave
  00082	c2 14 00	 ret	 20			; 00000014H
?_M_insert_overflow@?$vector@GV?$allocator@G@_STL@@@_STL@@IAEXPAGABGABU__true_type@2@I_N@Z ENDP ; _STL::vector<unsigned short,_STL::allocator<unsigned short> >::_M_insert_overflow
_TEXT	ENDS
PUBLIC	?write@?$basic_ostream@DV?$char_traits@D@_STL@@@_STL@@QAEAAV12@PBDH@Z ; _STL::basic_ostream<char,_STL::char_traits<char> >::write
;	COMDAT xdata$x
; File c:\stlport-4.6.1\stlport\stl\_ios_base.h
xdata$x	SEGMENT
$T112415 DD	0ffffffffH
	DD	FLAT:$L112379
	DD	00H
	DD	00H
	DD	00H
	DD	00H
$T112417 DD	00H
	DD	00H
	DD	00H
	DD	FLAT:$L112378
$T112416 DD	01H
	DD	01H
	DD	02H
	DD	01H
	DD	FLAT:$T112417
$T112412 DD	019930520H
	DD	03H
	DD	FLAT:$T112415
	DD	01H
	DD	FLAT:$T112416
	DD	2 DUP(00H)
; Function compile flags: /Ogsy
; File c:\stlport-4.6.1\stlport\stl\_ostream.c
xdata$x	ENDS
;	COMDAT ?write@?$basic_ostream@DV?$char_traits@D@_STL@@@_STL@@QAEAAV12@PBDH@Z
_TEXT	SEGMENT
___sentry$ = -32					; size = 8
_this$ = -24						; size = 4
___failed$ = -17					; size = 1
__$EHRec$ = -16						; size = 16
___s$ = 8						; size = 4
___n$ = 12						; size = 4
?write@?$basic_ostream@DV?$char_traits@D@_STL@@@_STL@@QAEAAV12@PBDH@Z PROC NEAR ; _STL::basic_ostream<char,_STL::char_traits<char> >::write, COMDAT
; _this$ = ecx

; 359  : {

  00000	b8 00 00 00 00	 mov	 eax, __ehhandler$?write@?$basic_ostream@DV?$char_traits@D@_STL@@@_STL@@QAEAAV12@PBDH@Z
  00005	e8 00 00 00 00	 call	 __EH_prolog
  0000a	83 ec 14	 sub	 esp, 20			; 00000014H
  0000d	53		 push	 ebx
  0000e	56		 push	 esi
  0000f	57		 push	 edi
  00010	8b f1		 mov	 esi, ecx
  00012	89 65 f0	 mov	 DWORD PTR __$EHRec$[ebp], esp

; 360  :   sentry __sentry(*this);

  00015	56		 push	 esi
  00016	8d 4d e0	 lea	 ecx, DWORD PTR ___sentry$[ebp]
  00019	89 75 e8	 mov	 DWORD PTR _this$[ebp], esi
  0001c	e8 00 00 00 00	 call	 ??0sentry@?$basic_ostream@DV?$char_traits@D@_STL@@@_STL@@QAE@AAV12@@Z ; _STL::basic_ostream<char,_STL::char_traits<char> >::sentry::sentry
  00021	83 65 fc 00	 and	 DWORD PTR __$EHRec$[ebp+12], 0

; 361  :   bool __failed = true;
; 362  : 
; 363  :   if (__sentry) {

  00025	80 7d e4 00	 cmp	 BYTE PTR ___sentry$[ebp+4], 0
  00029	c6 45 ef 01	 mov	 BYTE PTR ___failed$[ebp], 1
  0002d	74 3b		 je	 SHORT $L108819

; 364  :     _STLP_TRY {
; 365  :       __failed = this->rdbuf()->sputn(__s, __n) != __n;

  0002f	8b 06		 mov	 eax, DWORD PTR [esi]
  00031	8b 40 04	 mov	 eax, DWORD PTR [eax+4]
  00034	ff 75 0c	 push	 DWORD PTR ___n$[ebp]
  00037	8b 4c 30 58	 mov	 ecx, DWORD PTR [eax+esi+88]
  0003b	ff 75 08	 push	 DWORD PTR ___s$[ebp]
  0003e	8b 01		 mov	 eax, DWORD PTR [ecx]
  00040	c6 45 fc 01	 mov	 BYTE PTR __$EHRec$[ebp+12], 1
  00044	ff 50 28	 call	 DWORD PTR [eax+40]
  00047	3b 45 0c	 cmp	 eax, DWORD PTR ___n$[ebp]
  0004a	0f 95 45 ef	 setne	 BYTE PTR ___failed$[ebp]
  0004e	eb 1a		 jmp	 SHORT $L108819
$L112378:

; 366  :     }
; 367  :     _STLP_CATCH_ALL {
; 368  :       this->_M_handle_exception(ios_base::badbit);

  00050	8b 45 e8	 mov	 eax, DWORD PTR _this$[ebp]
  00053	8b 08		 mov	 ecx, DWORD PTR [eax]
  00055	8b 49 04	 mov	 ecx, DWORD PTR [ecx+4]
  00058	6a 01		 push	 1
  0005a	03 c8		 add	 ecx, eax
  0005c	e8 00 00 00 00	 call	 ?_M_handle_exception@?$basic_ios@DV?$char_traits@D@_STL@@@_STL@@QAEXH@Z ; _STL::basic_ios<char,_STL::char_traits<char> >::_M_handle_exception

; 369  :     }

  00061	b8 00 00 00 00	 mov	 eax, $L112413
  00066	c3		 ret	 0
$L112413:
  00067	8b 75 e8	 mov	 esi, DWORD PTR _this$[ebp]
$L108819:
  0006a	83 65 fc 00	 and	 DWORD PTR __$EHRec$[ebp+12], 0

; 370  :   }
; 371  : 
; 372  :   if (__failed)

  0006e	80 7d ef 00	 cmp	 BYTE PTR ___failed$[ebp], 0
  00072	74 13		 je	 SHORT $L112396

; 373  :     this->setstate(ios_base::badbit);

  00074	8b 06		 mov	 eax, DWORD PTR [esi]
  00076	8b 48 04	 mov	 ecx, DWORD PTR [eax+4]
  00079	03 ce		 add	 ecx, esi
  0007b	8b 41 08	 mov	 eax, DWORD PTR [ecx+8]
  0007e	83 c8 01	 or	 eax, 1
  00081	50		 push	 eax
  00082	e8 00 00 00 00	 call	 ?clear@?$basic_ios@DV?$char_traits@D@_STL@@@_STL@@QAEXH@Z ; _STL::basic_ios<char,_STL::char_traits<char> >::clear
$L112396:

; 374  : 
; 375  :   return *this;

  00087	8b 4d e0	 mov	 ecx, DWORD PTR ___sentry$[ebp]
  0008a	8b 01		 mov	 eax, DWORD PTR [ecx]
  0008c	8b 40 04	 mov	 eax, DWORD PTR [eax+4]
  0008f	83 4d fc ff	 or	 DWORD PTR __$EHRec$[ebp+12], -1
  00093	f6 44 08 05 20	 test	 BYTE PTR [eax+ecx+5], 32 ; 00000020H
  00098	74 05		 je	 SHORT $L112407
  0009a	e8 00 00 00 00	 call	 ?flush@?$basic_ostream@DV?$char_traits@D@_STL@@@_STL@@QAEAAV12@XZ ; _STL::basic_ostream<char,_STL::char_traits<char> >::flush
$L112407:

; 376  : }

  0009f	8b 4d f4	 mov	 ecx, DWORD PTR __$EHRec$[ebp+4]
  000a2	5f		 pop	 edi
  000a3	8b c6		 mov	 eax, esi
  000a5	5e		 pop	 esi
  000a6	64 89 0d 00 00
	00 00		 mov	 DWORD PTR fs:__except_list, ecx
  000ad	5b		 pop	 ebx
  000ae	c9		 leave
  000af	c2 08 00	 ret	 8
_TEXT	ENDS
;	COMDAT text$x
text$x	SEGMENT
$L112379:
  00000	8d 4d e0	 lea	 ecx, DWORD PTR ___sentry$[ebp]
  00003	e9 00 00 00 00	 jmp	 ??1sentry@?$basic_ostream@DV?$char_traits@D@_STL@@@_STL@@QAE@XZ ; _STL::basic_ostream<char,_STL::char_traits<char> >::sentry::~sentry
__ehhandler$?write@?$basic_ostream@DV?$char_traits@D@_STL@@@_STL@@QAEAAV12@PBDH@Z:
  00008	b8 00 00 00 00	 mov	 eax, OFFSET FLAT:$T112412
  0000d	e9 00 00 00 00	 jmp	 ___CxxFrameHandler
text$x	ENDS
?write@?$basic_ostream@DV?$char_traits@D@_STL@@@_STL@@QAEAAV12@PBDH@Z ENDP ; _STL::basic_ostream<char,_STL::char_traits<char> >::write
PUBLIC	??$?6V?$char_traits@D@_STL@@@_STL@@YAAAV?$basic_ostream@DV?$char_traits@D@_STL@@@0@AAV10@PBD@Z ; _STL::operator<<<_STL::char_traits<char> >
; Function compile flags: /Ogsy
; File c:\stlport-4.6.1\stlport\stl\_ostream.h
;	COMDAT ??$?6V?$char_traits@D@_STL@@@_STL@@YAAAV?$basic_ostream@DV?$char_traits@D@_STL@@@0@AAV10@PBD@Z
_TEXT	SEGMENT
___os$ = 8						; size = 4
___s$ = 12						; size = 4
??$?6V?$char_traits@D@_STL@@@_STL@@YAAAV?$basic_ostream@DV?$char_traits@D@_STL@@@0@AAV10@PBD@Z PROC NEAR ; _STL::operator<<<_STL::char_traits<char> >, COMDAT

; 300  :   __os._M_put_nowiden(__s);

  00000	ff 74 24 08	 push	 DWORD PTR ___s$[esp-4]
  00004	8b 4c 24 08	 mov	 ecx, DWORD PTR ___os$[esp]
  00008	e8 00 00 00 00	 call	 ?_M_put_nowiden@?$basic_ostream@DV?$char_traits@D@_STL@@@_STL@@QAEXPBD@Z ; _STL::basic_ostream<char,_STL::char_traits<char> >::_M_put_nowiden

; 301  :   return __os;

  0000d	8b 44 24 04	 mov	 eax, DWORD PTR ___os$[esp-4]

; 302  : }

  00011	c3		 ret	 0
??$?6V?$char_traits@D@_STL@@@_STL@@YAAAV?$basic_ostream@DV?$char_traits@D@_STL@@@0@AAV10@PBD@Z ENDP ; _STL::operator<<<_STL::char_traits<char> >
_TEXT	ENDS
PUBLIC	??$?6V?$char_traits@D@_STL@@@_STL@@YAAAV?$basic_ostream@DV?$char_traits@D@_STL@@@0@AAV10@D@Z ; _STL::operator<<<_STL::char_traits<char> >
; Function compile flags: /Ogsy
;	COMDAT ??$?6V?$char_traits@D@_STL@@@_STL@@YAAAV?$basic_ostream@DV?$char_traits@D@_STL@@@0@AAV10@D@Z
_TEXT	SEGMENT
___os$ = 8						; size = 4
___c$ = 12						; size = 1
??$?6V?$char_traits@D@_STL@@@_STL@@YAAAV?$basic_ostream@DV?$char_traits@D@_STL@@@0@AAV10@D@Z PROC NEAR ; _STL::operator<<<_STL::char_traits<char> >, COMDAT

; 272  :   __os._M_put_char(__c);

  00000	ff 74 24 08	 push	 DWORD PTR ___c$[esp-4]
  00004	8b 4c 24 08	 mov	 ecx, DWORD PTR ___os$[esp]
  00008	e8 00 00 00 00	 call	 ?_M_put_char@?$basic_ostream@DV?$char_traits@D@_STL@@@_STL@@QAEXD@Z ; _STL::basic_ostream<char,_STL::char_traits<char> >::_M_put_char

; 273  :   return __os;

  0000d	8b 44 24 04	 mov	 eax, DWORD PTR ___os$[esp-4]

; 274  : }

  00011	c3		 ret	 0
??$?6V?$char_traits@D@_STL@@@_STL@@YAAAV?$basic_ostream@DV?$char_traits@D@_STL@@@0@AAV10@D@Z ENDP ; _STL::operator<<<_STL::char_traits<char> >
_TEXT	ENDS
PUBLIC	??$_M_put_num@DV?$char_traits@D@_STL@@J@_STL@@YAAAV?$basic_ostream@DV?$char_traits@D@_STL@@@0@AAV10@J@Z ; _STL::_M_put_num<char,_STL::char_traits<char>,long>
EXTRN	??1locale@_STL@@QAE@XZ:NEAR			; _STL::locale::~locale
;	COMDAT xdata$x
; File c:\stlport-4.6.1\stlport\stl\_ios_base.h
xdata$x	SEGMENT
$T112486 DD	0ffffffffH
	DD	FLAT:$L112436
	DD	00H
	DD	00H
	DD	01H
	DD	FLAT:$L112437
	DD	00H
	DD	00H
$T112488 DD	00H
	DD	00H
	DD	00H
	DD	FLAT:$L112435
$T112487 DD	01H
	DD	02H
	DD	03H
	DD	01H
	DD	FLAT:$T112488
$T112483 DD	019930520H
	DD	04H
	DD	FLAT:$T112486
	DD	01H
	DD	FLAT:$T112487
	DD	2 DUP(00H)
; Function compile flags: /Ogsy
; File c:\stlport-4.6.1\stlport\stl\_ostream.c
xdata$x	ENDS
;	COMDAT ??$_M_put_num@DV?$char_traits@D@_STL@@J@_STL@@YAAAV?$basic_ostream@DV?$char_traits@D@_STL@@@0@AAV10@J@Z
_TEXT	SEGMENT
$T112432 = -52						; size = 8
$T112431 = -44						; size = 8
___sentry$ = -36					; size = 8
$T112428 = -28						; size = 4
$T112445 = -21						; size = 1
___failed$ = -17					; size = 1
__$EHRec$ = -16						; size = 16
___os$ = 8						; size = 4
___x$ = 12						; size = 4
??$_M_put_num@DV?$char_traits@D@_STL@@J@_STL@@YAAAV?$basic_ostream@DV?$char_traits@D@_STL@@@0@AAV10@J@Z PROC NEAR ; _STL::_M_put_num<char,_STL::char_traits<char>,long>, COMDAT

; 187  : {

  00000	b8 00 00 00 00	 mov	 eax, __ehhandler$??$_M_put_num@DV?$char_traits@D@_STL@@J@_STL@@YAAAV?$basic_ostream@DV?$char_traits@D@_STL@@@0@AAV10@J@Z
  00005	e8 00 00 00 00	 call	 __EH_prolog
  0000a	83 ec 28	 sub	 esp, 40			; 00000028H
  0000d	53		 push	 ebx
  0000e	56		 push	 esi

; 188  :   typedef typename basic_ostream<_CharT, _Traits>::sentry _Sentry;
; 189  :   _Sentry __sentry(__os);

  0000f	8b 75 08	 mov	 esi, DWORD PTR ___os$[ebp]
  00012	57		 push	 edi
  00013	89 65 f0	 mov	 DWORD PTR __$EHRec$[ebp], esp
  00016	56		 push	 esi
  00017	8d 4d dc	 lea	 ecx, DWORD PTR ___sentry$[ebp]
  0001a	e8 00 00 00 00	 call	 ??0sentry@?$basic_ostream@DV?$char_traits@D@_STL@@@_STL@@QAE@AAV12@@Z ; _STL::basic_ostream<char,_STL::char_traits<char> >::sentry::sentry
  0001f	33 db		 xor	 ebx, ebx

; 190  :   bool __failed = true;
; 191  : 
; 192  :   if (__sentry) {

  00021	38 5d e0	 cmp	 BYTE PTR ___sentry$[ebp+4], bl
  00024	89 5d fc	 mov	 DWORD PTR __$EHRec$[ebp+12], ebx
  00027	c6 45 ef 01	 mov	 BYTE PTR ___failed$[ebp], 1
  0002b	0f 84 8e 00 00
	00		 je	 $L108983

; 193  :     _STLP_TRY {
; 194  :       typedef num_put<_CharT, ostreambuf_iterator<_CharT, _Traits> > _NumPut;      
; 195  :       __failed = (use_facet<_NumPut>(__os.getloc())).put(
; 196  :                                                          ostreambuf_iterator<_CharT, _Traits>(__os.rdbuf()), 
; 197  :                                                          __os, __os.fill(),
; 198  :                                                          __x).failed();

  00031	3b f3		 cmp	 esi, ebx
  00033	c6 45 fc 01	 mov	 BYTE PTR __$EHRec$[ebp+12], 1
  00037	74 07		 je	 SHORT $L112430
  00039	8b 06		 mov	 eax, DWORD PTR [esi]
  0003b	8b 58 04	 mov	 ebx, DWORD PTR [eax+4]
  0003e	03 de		 add	 ebx, esi
$L112430:
  00040	8d 45 e4	 lea	 eax, DWORD PTR $T112428[ebp]
  00043	50		 push	 eax
  00044	8b 06		 mov	 eax, DWORD PTR [esi]
  00046	8b 48 04	 mov	 ecx, DWORD PTR [eax+4]
  00049	03 ce		 add	 ecx, esi
  0004b	e8 00 00 00 00	 call	 ?getloc@ios_base@_STL@@QBE?AVlocale@2@XZ ; _STL::ios_base::getloc
  00050	8b 0e		 mov	 ecx, DWORD PTR [esi]
  00052	8b 49 04	 mov	 ecx, DWORD PTR [ecx+4]
  00055	8d 14 31	 lea	 edx, DWORD PTR [ecx+esi]
  00058	8a 4a 54	 mov	 cl, BYTE PTR [edx+84]
  0005b	8b 7a 58	 mov	 edi, DWORD PTR [edx+88]
  0005e	88 4d eb	 mov	 BYTE PTR $T112445[ebp], cl
  00061	85 ff		 test	 edi, edi
  00063	0f 95 c1	 setne	 cl
  00066	88 4d d8	 mov	 BYTE PTR $T112431[ebp+4], cl
  00069	68 00 00 00 00	 push	 OFFSET FLAT:?id@?$num_put@DV?$ostreambuf_iterator@DV?$char_traits@D@_STL@@@_STL@@@_STL@@2V0locale@2@A ; _STL::num_put<char,_STL::ostreambuf_iterator<char,_STL::char_traits<char> > >::id
  0006e	8b c8		 mov	 ecx, eax
  00070	c6 45 fc 02	 mov	 BYTE PTR __$EHRec$[ebp+12], 2
  00074	e8 00 00 00 00	 call	 ?_M_use_facet@locale@_STL@@QBEPAVfacet@12@ABVid@12@@Z ; _STL::locale::_M_use_facet
  00079	ff 75 0c	 push	 DWORD PTR ___x$[ebp]
  0007c	8d 4d cc	 lea	 ecx, DWORD PTR $T112432[ebp]
  0007f	ff 75 eb	 push	 DWORD PTR $T112445[ebp]
  00082	53		 push	 ebx
  00083	ff 75 d8	 push	 DWORD PTR $T112431[ebp+4]
  00086	57		 push	 edi
  00087	51		 push	 ecx
  00088	8b c8		 mov	 ecx, eax
  0008a	e8 00 00 00 00	 call	 ?put@?$num_put@DV?$ostreambuf_iterator@DV?$char_traits@D@_STL@@@_STL@@@_STL@@QBE?AV?$ostreambuf_iterator@DV?$char_traits@D@_STL@@@2@V32@AAVios_base@2@DJ@Z ; _STL::num_put<char,_STL::ostreambuf_iterator<char,_STL::char_traits<char> > >::put
  0008f	80 78 04 00	 cmp	 BYTE PTR [eax+4], 0
  00093	8d 4d e4	 lea	 ecx, DWORD PTR $T112428[ebp]
  00096	0f 94 45 ef	 sete	 BYTE PTR ___failed$[ebp]
  0009a	c6 45 fc 01	 mov	 BYTE PTR __$EHRec$[ebp+12], 1
  0009e	e8 00 00 00 00	 call	 ??1locale@_STL@@QAE@XZ	; _STL::locale::~locale
  000a3	eb 1a		 jmp	 SHORT $L108983
$L112435:

; 199  :     }
; 200  :     _STLP_CATCH_ALL {
; 201  :       __os._M_handle_exception(ios_base::badbit);

  000a5	8b 45 08	 mov	 eax, DWORD PTR ___os$[ebp]
  000a8	8b 08		 mov	 ecx, DWORD PTR [eax]
  000aa	8b 49 04	 mov	 ecx, DWORD PTR [ecx+4]
  000ad	6a 01		 push	 1
  000af	03 c8		 add	 ecx, eax
  000b1	e8 00 00 00 00	 call	 ?_M_handle_exception@?$basic_ios@DV?$char_traits@D@_STL@@@_STL@@QAEXH@Z ; _STL::basic_ios<char,_STL::char_traits<char> >::_M_handle_exception

; 202  :     }

  000b6	b8 00 00 00 00	 mov	 eax, $L112484
  000bb	c3		 ret	 0
$L112484:
  000bc	8b 75 08	 mov	 esi, DWORD PTR ___os$[ebp]
$L108983:
  000bf	83 65 fc 00	 and	 DWORD PTR __$EHRec$[ebp+12], 0

; 203  :   }
; 204  :   if (__failed)

  000c3	80 7d ef 00	 cmp	 BYTE PTR ___failed$[ebp], 0
  000c7	74 13		 je	 SHORT $L112467

; 205  :     __os.setstate(ios_base::badbit); 

  000c9	8b 06		 mov	 eax, DWORD PTR [esi]
  000cb	8b 48 04	 mov	 ecx, DWORD PTR [eax+4]
  000ce	03 ce		 add	 ecx, esi
  000d0	8b 41 08	 mov	 eax, DWORD PTR [ecx+8]
  000d3	83 c8 01	 or	 eax, 1
  000d6	50		 push	 eax
  000d7	e8 00 00 00 00	 call	 ?clear@?$basic_ios@DV?$char_traits@D@_STL@@@_STL@@QAEXH@Z ; _STL::basic_ios<char,_STL::char_traits<char> >::clear
$L112467:

; 206  :   return __os;

  000dc	8b 4d dc	 mov	 ecx, DWORD PTR ___sentry$[ebp]
  000df	8b 01		 mov	 eax, DWORD PTR [ecx]
  000e1	8b 40 04	 mov	 eax, DWORD PTR [eax+4]
  000e4	83 4d fc ff	 or	 DWORD PTR __$EHRec$[ebp+12], -1
  000e8	f6 44 08 05 20	 test	 BYTE PTR [eax+ecx+5], 32 ; 00000020H
  000ed	74 05		 je	 SHORT $L112478
  000ef	e8 00 00 00 00	 call	 ?flush@?$basic_ostream@DV?$char_traits@D@_STL@@@_STL@@QAEAAV12@XZ ; _STL::basic_ostream<char,_STL::char_traits<char> >::flush
$L112478:

; 207  : }

  000f4	8b 4d f4	 mov	 ecx, DWORD PTR __$EHRec$[ebp+4]
  000f7	5f		 pop	 edi
  000f8	8b c6		 mov	 eax, esi
  000fa	5e		 pop	 esi
  000fb	64 89 0d 00 00
	00 00		 mov	 DWORD PTR fs:__except_list, ecx
  00102	5b		 pop	 ebx
  00103	c9		 leave
  00104	c3		 ret	 0
_TEXT	ENDS
;	COMDAT text$x
text$x	SEGMENT
$L112436:
  00000	8d 4d dc	 lea	 ecx, DWORD PTR ___sentry$[ebp]
  00003	e9 00 00 00 00	 jmp	 ??1sentry@?$basic_ostream@DV?$char_traits@D@_STL@@@_STL@@QAE@XZ ; _STL::basic_ostream<char,_STL::char_traits<char> >::sentry::~sentry
$L112437:
  00008	8d 4d e4	 lea	 ecx, DWORD PTR $T112428[ebp]
  0000b	e9 00 00 00 00	 jmp	 ??1locale@_STL@@QAE@XZ	; _STL::locale::~locale
__ehhandler$??$_M_put_num@DV?$char_traits@D@_STL@@J@_STL@@YAAAV?$basic_ostream@DV?$char_traits@D@_STL@@@0@AAV10@J@Z:
  00010	b8 00 00 00 00	 mov	 eax, OFFSET FLAT:$T112483
  00015	e9 00 00 00 00	 jmp	 ___CxxFrameHandler
text$x	ENDS
??$_M_put_num@DV?$char_traits@D@_STL@@J@_STL@@YAAAV?$basic_ostream@DV?$char_traits@D@_STL@@@0@AAV10@J@Z ENDP ; _STL::_M_put_num<char,_STL::char_traits<char>,long>
PUBLIC	??$_M_allocate_and_copy@PAPAV?$vector@GV?$allocator@G@_STL@@@_STL@@@?$vector@PAV?$vector@GV?$allocator@G@_STL@@@_STL@@V?$allocator@PAV?$vector@GV?$allocator@G@_STL@@@_STL@@@2@@_STL@@IAEPAPAV?$vector@GV?$allocator@G@_STL@@@1@IPAPAV21@0@Z ; _STL::vector<_STL::vector<unsigned short,_STL::allocator<unsigned short> > *,_STL::allocator<_STL::vector<unsigned short,_STL::allocator<unsigned short> > *> >::_M_allocate_and_copy<_STL::vector<unsigned short,_STL::allocator<unsigned short> > * *>
; Function compile flags: /Ogsy
; File c:\stlport-4.6.1\stlport\stl\_vector.h
;	COMDAT ??$_M_allocate_and_copy@PAPAV?$vector@GV?$allocator@G@_STL@@@_STL@@@?$vector@PAV?$vector@GV?$allocator@G@_STL@@@_STL@@V?$allocator@PAV?$vector@GV?$allocator@G@_STL@@@_STL@@@2@@_STL@@IAEPAPAV?$vector@GV?$allocator@G@_STL@@@1@IPAPAV21@0@Z
_TEXT	SEGMENT
___n$ = 8						; size = 4
___first$ = 12						; size = 4
___last$ = 16						; size = 4
??$_M_allocate_and_copy@PAPAV?$vector@GV?$allocator@G@_STL@@@_STL@@@?$vector@PAV?$vector@GV?$allocator@G@_STL@@@_STL@@V?$allocator@PAV?$vector@GV?$allocator@G@_STL@@@_STL@@@2@@_STL@@IAEPAPAV?$vector@GV?$allocator@G@_STL@@@1@IPAPAV21@0@Z PROC NEAR ; _STL::vector<_STL::vector<unsigned short,_STL::allocator<unsigned short> > *,_STL::allocator<_STL::vector<unsigned short,_STL::allocator<unsigned short> > *> >::_M_allocate_and_copy<_STL::vector<unsigned short,_STL::allocator<unsigned short> > * *>, COMDAT
; _this$ = ecx

; 509  : 				_ForwardIterator __last)
; 510  : #else /* _STLP_MEMBER_TEMPLATES */
; 511  :   pointer _M_allocate_and_copy(size_type __n, const_pointer __first, 
; 512  : 			       const_pointer __last)
; 513  : #endif /* _STLP_MEMBER_TEMPLATES */
; 514  :   {
; 515  :     pointer __result = this->_M_end_of_storage.allocate(__n);

  00000	8b 44 24 04	 mov	 eax, DWORD PTR ___n$[esp-4]
  00004	85 c0		 test	 eax, eax
  00006	56		 push	 esi
  00007	74 0e		 je	 SHORT $L112501
  00009	c1 e0 02	 shl	 eax, 2
  0000c	50		 push	 eax
  0000d	e8 00 00 00 00	 call	 ?allocate@?$__node_alloc@$00$0A@@_STL@@SAPAXI@Z ; _STL::__node_alloc<1,0>::allocate
  00012	59		 pop	 ecx
  00013	8b f0		 mov	 esi, eax
  00015	eb 02		 jmp	 SHORT $L112502
$L112501:
  00017	33 f6		 xor	 esi, esi
$L112502:

; 516  :     _STLP_TRY {
; 517  : #if !defined(__MRC__)		//*TY 12/17/2000 - added workaround for MrCpp. it confuses on nested try/catch block
; 518  :       __uninitialized_copy(__first, __last, __result, _IsPODType());

  00019	56		 push	 esi
  0001a	ff 74 24 14	 push	 DWORD PTR ___last$[esp+4]
  0001e	ff 74 24 14	 push	 DWORD PTR ___first$[esp+8]
  00022	e8 00 00 00 00	 call	 ?__copy_trivial@_STL@@YAPAXPBX0PAX@Z ; _STL::__copy_trivial
  00027	83 c4 0c	 add	 esp, 12			; 0000000cH

; 519  : #else
; 520  :       uninitialized_copy(__first, __last, __result);
; 521  : #endif
; 522  :       return __result;

  0002a	8b c6		 mov	 eax, esi
  0002c	5e		 pop	 esi

; 523  :     }
; 524  :     _STLP_UNWIND(this->_M_end_of_storage.deallocate(__result, __n));
; 525  : # ifdef _STLP_THROW_RETURN_BUG
; 526  : 	return __result;
; 527  : # endif
; 528  :   }

  0002d	c2 0c 00	 ret	 12			; 0000000cH
??$_M_allocate_and_copy@PAPAV?$vector@GV?$allocator@G@_STL@@@_STL@@@?$vector@PAV?$vector@GV?$allocator@G@_STL@@@_STL@@V?$allocator@PAV?$vector@GV?$allocator@G@_STL@@@_STL@@@2@@_STL@@IAEPAPAV?$vector@GV?$allocator@G@_STL@@@1@IPAPAV21@0@Z ENDP ; _STL::vector<_STL::vector<unsigned short,_STL::allocator<unsigned short> > *,_STL::allocator<_STL::vector<unsigned short,_STL::allocator<unsigned short> > *> >::_M_allocate_and_copy<_STL::vector<unsigned short,_STL::allocator<unsigned short> > * *>
_TEXT	ENDS
PUBLIC	??$_M_allocate_and_copy@PAG@?$vector@GV?$allocator@G@_STL@@@_STL@@IAEPAGIPAG0@Z ; _STL::vector<unsigned short,_STL::allocator<unsigned short> >::_M_allocate_and_copy<unsigned short *>
; Function compile flags: /Ogsy
;	COMDAT ??$_M_allocate_and_copy@PAG@?$vector@GV?$allocator@G@_STL@@@_STL@@IAEPAGIPAG0@Z
_TEXT	SEGMENT
___n$ = 8						; size = 4
___first$ = 12						; size = 4
___last$ = 16						; size = 4
??$_M_allocate_and_copy@PAG@?$vector@GV?$allocator@G@_STL@@@_STL@@IAEPAGIPAG0@Z PROC NEAR ; _STL::vector<unsigned short,_STL::allocator<unsigned short> >::_M_allocate_and_copy<unsigned short *>, COMDAT
; _this$ = ecx

; 509  : 				_ForwardIterator __last)
; 510  : #else /* _STLP_MEMBER_TEMPLATES */
; 511  :   pointer _M_allocate_and_copy(size_type __n, const_pointer __first, 
; 512  : 			       const_pointer __last)
; 513  : #endif /* _STLP_MEMBER_TEMPLATES */
; 514  :   {
; 515  :     pointer __result = this->_M_end_of_storage.allocate(__n);

  00000	8b 44 24 04	 mov	 eax, DWORD PTR ___n$[esp-4]
  00004	85 c0		 test	 eax, eax
  00006	56		 push	 esi
  00007	74 0d		 je	 SHORT $L112569
  00009	03 c0		 add	 eax, eax
  0000b	50		 push	 eax
  0000c	e8 00 00 00 00	 call	 ?allocate@?$__node_alloc@$00$0A@@_STL@@SAPAXI@Z ; _STL::__node_alloc<1,0>::allocate
  00011	59		 pop	 ecx
  00012	8b f0		 mov	 esi, eax
  00014	eb 02		 jmp	 SHORT $L112570
$L112569:
  00016	33 f6		 xor	 esi, esi
$L112570:

; 516  :     _STLP_TRY {
; 517  : #if !defined(__MRC__)		//*TY 12/17/2000 - added workaround for MrCpp. it confuses on nested try/catch block
; 518  :       __uninitialized_copy(__first, __last, __result, _IsPODType());

  00018	56		 push	 esi
  00019	ff 74 24 14	 push	 DWORD PTR ___last$[esp+4]
  0001d	ff 74 24 14	 push	 DWORD PTR ___first$[esp+8]
  00021	e8 00 00 00 00	 call	 ?__copy_trivial@_STL@@YAPAXPBX0PAX@Z ; _STL::__copy_trivial
  00026	83 c4 0c	 add	 esp, 12			; 0000000cH

; 519  : #else
; 520  :       uninitialized_copy(__first, __last, __result);
; 521  : #endif
; 522  :       return __result;

  00029	8b c6		 mov	 eax, esi
  0002b	5e		 pop	 esi

; 523  :     }
; 524  :     _STLP_UNWIND(this->_M_end_of_storage.deallocate(__result, __n));
; 525  : # ifdef _STLP_THROW_RETURN_BUG
; 526  : 	return __result;
; 527  : # endif
; 528  :   }

  0002c	c2 0c 00	 ret	 12			; 0000000cH
??$_M_allocate_and_copy@PAG@?$vector@GV?$allocator@G@_STL@@@_STL@@IAEPAGIPAG0@Z ENDP ; _STL::vector<unsigned short,_STL::allocator<unsigned short> >::_M_allocate_and_copy<unsigned short *>
_TEXT	ENDS
PUBLIC	?SaveToFile@ITEM_WEARINFO@@QAEXAAV?$basic_ofstream@DV?$char_traits@D@_STL@@@_STL@@@Z ; ITEM_WEARINFO::SaveToFile
; Function compile flags: /Ogsy
; File c:\darkeden\designed_common\project\client\mcreaturetable.cpp
;	COMDAT ?SaveToFile@ITEM_WEARINFO@@QAEXAAV?$basic_ofstream@DV?$char_traits@D@_STL@@@_STL@@@Z
_TEXT	SEGMENT
_file$ = 8						; size = 4
?SaveToFile@ITEM_WEARINFO@@QAEXAAV?$basic_ofstream@DV?$char_traits@D@_STL@@@_STL@@@Z PROC NEAR ; ITEM_WEARINFO::SaveToFile, COMDAT
; _this$ = ecx

; 73   : {

  00000	53		 push	 ebx
  00001	56		 push	 esi
  00002	57		 push	 edi

; 74   : 	file.write((const char*)&skinColor, 2);

  00003	8b 7c 24 10	 mov	 edi, DWORD PTR _file$[esp+8]
  00007	6a 02		 push	 2
  00009	5b		 pop	 ebx
  0000a	8b f1		 mov	 esi, ecx
  0000c	53		 push	 ebx
  0000d	56		 push	 esi
  0000e	8b cf		 mov	 ecx, edi
  00010	e8 00 00 00 00	 call	 ?write@?$basic_ostream@DV?$char_traits@D@_STL@@@_STL@@QAEAAV12@PBDH@Z ; _STL::basic_ostream<char,_STL::char_traits<char> >::write

; 75   : 	file.write((const char*)&hairColor, 2);

  00015	53		 push	 ebx
  00016	8d 46 02	 lea	 eax, DWORD PTR [esi+2]
  00019	50		 push	 eax
  0001a	8b cf		 mov	 ecx, edi
  0001c	e8 00 00 00 00	 call	 ?write@?$basic_ostream@DV?$char_traits@D@_STL@@@_STL@@QAEAAV12@PBDH@Z ; _STL::basic_ostream<char,_STL::char_traits<char> >::write

; 76   : 	file.write((const char*)&jacketColor, 2);

  00021	53		 push	 ebx
  00022	8d 46 04	 lea	 eax, DWORD PTR [esi+4]
  00025	50		 push	 eax
  00026	8b cf		 mov	 ecx, edi
  00028	e8 00 00 00 00	 call	 ?write@?$basic_ostream@DV?$char_traits@D@_STL@@@_STL@@QAEAAV12@PBDH@Z ; _STL::basic_ostream<char,_STL::char_traits<char> >::write

; 77   : 	file.write((const char*)&pantsColor, 2);

  0002d	53		 push	 ebx
  0002e	8d 46 06	 lea	 eax, DWORD PTR [esi+6]
  00031	50		 push	 eax
  00032	8b cf		 mov	 ecx, edi
  00034	e8 00 00 00 00	 call	 ?write@?$basic_ostream@DV?$char_traits@D@_STL@@@_STL@@QAEAAV12@PBDH@Z ; _STL::basic_ostream<char,_STL::char_traits<char> >::write

; 78   : 	file.write((const char*)&helmetColor, 2);

  00039	53		 push	 ebx
  0003a	8d 46 08	 lea	 eax, DWORD PTR [esi+8]
  0003d	50		 push	 eax
  0003e	8b cf		 mov	 ecx, edi
  00040	e8 00 00 00 00	 call	 ?write@?$basic_ostream@DV?$char_traits@D@_STL@@@_STL@@QAEAAV12@PBDH@Z ; _STL::basic_ostream<char,_STL::char_traits<char> >::write

; 79   : 	file.write((const char*)&weaponColor, 2);

  00045	53		 push	 ebx
  00046	8d 46 0a	 lea	 eax, DWORD PTR [esi+10]
  00049	50		 push	 eax
  0004a	8b cf		 mov	 ecx, edi
  0004c	e8 00 00 00 00	 call	 ?write@?$basic_ostream@DV?$char_traits@D@_STL@@@_STL@@QAEAAV12@PBDH@Z ; _STL::basic_ostream<char,_STL::char_traits<char> >::write

; 80   : 	file.write((const char*)&shieldColor, 2);

  00051	53		 push	 ebx
  00052	8d 46 0c	 lea	 eax, DWORD PTR [esi+12]
  00055	50		 push	 eax
  00056	8b cf		 mov	 ecx, edi
  00058	e8 00 00 00 00	 call	 ?write@?$basic_ostream@DV?$char_traits@D@_STL@@@_STL@@QAEAAV12@PBDH@Z ; _STL::basic_ostream<char,_STL::char_traits<char> >::write

; 81   : 	file.write((const char*)&motorcycleColor, 2);

  0005d	53		 push	 ebx
  0005e	8d 46 0e	 lea	 eax, DWORD PTR [esi+14]
  00061	50		 push	 eax
  00062	8b cf		 mov	 ecx, edi
  00064	e8 00 00 00 00	 call	 ?write@?$basic_ostream@DV?$char_traits@D@_STL@@@_STL@@QAEAAV12@PBDH@Z ; _STL::basic_ostream<char,_STL::char_traits<char> >::write

; 82   : 	
; 83   : 	file.write((const char*)&hair, 1);

  00069	33 db		 xor	 ebx, ebx
  0006b	43		 inc	 ebx
  0006c	53		 push	 ebx
  0006d	8d 46 10	 lea	 eax, DWORD PTR [esi+16]
  00070	50		 push	 eax
  00071	8b cf		 mov	 ecx, edi
  00073	e8 00 00 00 00	 call	 ?write@?$basic_ostream@DV?$char_traits@D@_STL@@@_STL@@QAEAAV12@PBDH@Z ; _STL::basic_ostream<char,_STL::char_traits<char> >::write

; 84   : 	file.write((const char*)&jacket, 1);

  00078	53		 push	 ebx
  00079	8d 46 11	 lea	 eax, DWORD PTR [esi+17]
  0007c	50		 push	 eax
  0007d	8b cf		 mov	 ecx, edi
  0007f	e8 00 00 00 00	 call	 ?write@?$basic_ostream@DV?$char_traits@D@_STL@@@_STL@@QAEAAV12@PBDH@Z ; _STL::basic_ostream<char,_STL::char_traits<char> >::write

; 85   : 	file.write((const char*)&pants, 1);

  00084	53		 push	 ebx
  00085	8d 46 12	 lea	 eax, DWORD PTR [esi+18]
  00088	50		 push	 eax
  00089	8b cf		 mov	 ecx, edi
  0008b	e8 00 00 00 00	 call	 ?write@?$basic_ostream@DV?$char_traits@D@_STL@@@_STL@@QAEAAV12@PBDH@Z ; _STL::basic_ostream<char,_STL::char_traits<char> >::write

; 86   : 	file.write((const char*)&helmet, 1);

  00090	53		 push	 ebx
  00091	8d 46 13	 lea	 eax, DWORD PTR [esi+19]
  00094	50		 push	 eax
  00095	8b cf		 mov	 ecx, edi
  00097	e8 00 00 00 00	 call	 ?write@?$basic_ostream@DV?$char_traits@D@_STL@@@_STL@@QAEAAV12@PBDH@Z ; _STL::basic_ostream<char,_STL::char_traits<char> >::write

; 87   : 	file.write((const char*)&weapon, 1);

  0009c	53		 push	 ebx
  0009d	8d 46 14	 lea	 eax, DWORD PTR [esi+20]
  000a0	50		 push	 eax
  000a1	8b cf		 mov	 ecx, edi
  000a3	e8 00 00 00 00	 call	 ?write@?$basic_ostream@DV?$char_traits@D@_STL@@@_STL@@QAEAAV12@PBDH@Z ; _STL::basic_ostream<char,_STL::char_traits<char> >::write

; 88   : 	file.write((const char*)&shield, 1);

  000a8	53		 push	 ebx
  000a9	8d 46 15	 lea	 eax, DWORD PTR [esi+21]
  000ac	50		 push	 eax
  000ad	8b cf		 mov	 ecx, edi
  000af	e8 00 00 00 00	 call	 ?write@?$basic_ostream@DV?$char_traits@D@_STL@@@_STL@@QAEAAV12@PBDH@Z ; _STL::basic_ostream<char,_STL::char_traits<char> >::write

; 89   : 	file.write((const char*)&motorcycle, 1);	

  000b4	53		 push	 ebx
  000b5	83 c6 16	 add	 esi, 22			; 00000016H
  000b8	56		 push	 esi
  000b9	8b cf		 mov	 ecx, edi
  000bb	e8 00 00 00 00	 call	 ?write@?$basic_ostream@DV?$char_traits@D@_STL@@@_STL@@QAEAAV12@PBDH@Z ; _STL::basic_ostream<char,_STL::char_traits<char> >::write
  000c0	5f		 pop	 edi
  000c1	5e		 pop	 esi
  000c2	5b		 pop	 ebx

; 90   : }

  000c3	c2 04 00	 ret	 4
?SaveToFile@ITEM_WEARINFO@@QAEXAAV?$basic_ofstream@DV?$char_traits@D@_STL@@@_STL@@@Z ENDP ; ITEM_WEARINFO::SaveToFile
_TEXT	ENDS
PUBLIC	?SaveToFile@CREATURETABLE_INFO@@QAEXAAV?$basic_ofstream@DV?$char_traits@D@_STL@@@_STL@@@Z ; CREATURETABLE_INFO::SaveToFile
; Function compile flags: /Ogsy
;	COMDAT ?SaveToFile@CREATURETABLE_INFO@@QAEXAAV?$basic_ofstream@DV?$char_traits@D@_STL@@@_STL@@@Z
_TEXT	SEGMENT
_max$ = -16						; size = 4
_stcnt$ = -12						; size = 4
_i$108006 = -8						; size = 4
_st$107981 = -8						; size = 4
_ct$ = -1						; size = 1
_file$ = 8						; size = 4
_bExistItemWearInfo$ = 11				; size = 1
?SaveToFile@CREATURETABLE_INFO@@QAEXAAV?$basic_ofstream@DV?$char_traits@D@_STL@@@_STL@@@Z PROC NEAR ; CREATURETABLE_INFO::SaveToFile, COMDAT
; _this$ = ecx

; 274  : {

  00000	55		 push	 ebp
  00001	8b ec		 mov	 ebp, esp
  00003	83 ec 10	 sub	 esp, 16			; 00000010H
  00006	53		 push	 ebx
  00007	56		 push	 esi
  00008	57		 push	 edi

; 275  : 	Name.SaveToFile( file );

  00009	8b 7d 08	 mov	 edi, DWORD PTR _file$[ebp]
  0000c	8b f1		 mov	 esi, ecx
  0000e	8d 4e 08	 lea	 ecx, DWORD PTR [esi+8]
  00011	8b 01		 mov	 eax, DWORD PTR [ecx]
  00013	57		 push	 edi
  00014	ff 50 04	 call	 DWORD PTR [eax+4]

; 276  : 
; 277  : 	int stcnt = SpriteTypes.GetSize();

  00017	8b 46 14	 mov	 eax, DWORD PTR [esi+20]

; 278  : 	file.write((const char*)&stcnt, 4);

  0001a	6a 04		 push	 4
  0001c	5b		 pop	 ebx
  0001d	89 45 f4	 mov	 DWORD PTR _stcnt$[ebp], eax
  00020	53		 push	 ebx
  00021	8d 45 f4	 lea	 eax, DWORD PTR _stcnt$[ebp]
  00024	50		 push	 eax
  00025	8b cf		 mov	 ecx, edi
  00027	e8 00 00 00 00	 call	 ?write@?$basic_ostream@DV?$char_traits@D@_STL@@@_STL@@QAEAAV12@PBDH@Z ; _STL::basic_ostream<char,_STL::char_traits<char> >::write

; 279  : 	for(int st = 0; st < stcnt; st++)

  0002c	83 65 f8 00	 and	 DWORD PTR _st$107981[ebp], 0
  00030	83 7d f4 00	 cmp	 DWORD PTR _stcnt$[ebp], 0
  00034	7e 1d		 jle	 SHORT $L107984
$L112645:
  00036	8b 46 18	 mov	 eax, DWORD PTR [esi+24]
  00039	8b 4d f8	 mov	 ecx, DWORD PTR _st$107981[ebp]
  0003c	8d 04 88	 lea	 eax, DWORD PTR [eax+ecx*4]

; 280  : 	{
; 281  : //		file.write((const char*)&SpriteTypes[stcnt-(st+1)], 4);
; 282  : 		file.write((const char*)&SpriteTypes[st], 4);

  0003f	53		 push	 ebx
  00040	50		 push	 eax
  00041	8b cf		 mov	 ecx, edi
  00043	e8 00 00 00 00	 call	 ?write@?$basic_ostream@DV?$char_traits@D@_STL@@@_STL@@QAEAAV12@PBDH@Z ; _STL::basic_ostream<char,_STL::char_traits<char> >::write
  00048	ff 45 f8	 inc	 DWORD PTR _st$107981[ebp]
  0004b	8b 45 f8	 mov	 eax, DWORD PTR _st$107981[ebp]
  0004e	3b 45 f4	 cmp	 eax, DWORD PTR _stcnt$[ebp]
  00051	7c e3		 jl	 SHORT $L112645
$L107984:

; 283  : 	}
; 284  : 	
; 285  : 	file.write((const char*)&bMale, 1);

  00053	6a 01		 push	 1
  00055	8d 46 1c	 lea	 eax, DWORD PTR [esi+28]
  00058	50		 push	 eax
  00059	8b cf		 mov	 ecx, edi
  0005b	e8 00 00 00 00	 call	 ?write@?$basic_ostream@DV?$char_traits@D@_STL@@@_STL@@QAEAAV12@PBDH@Z ; _STL::basic_ostream<char,_STL::char_traits<char> >::write

; 286  : 	BYTE ct = m_CreatureTribe;

  00060	8a 46 64	 mov	 al, BYTE PTR [esi+100]
  00063	88 45 ff	 mov	 BYTE PTR _ct$[ebp], al

; 287  : 	file.write((const char*)&ct, 1);

  00066	6a 01		 push	 1
  00068	8d 45 ff	 lea	 eax, DWORD PTR _ct$[ebp]
  0006b	50		 push	 eax
  0006c	8b cf		 mov	 ecx, edi
  0006e	e8 00 00 00 00	 call	 ?write@?$basic_ostream@DV?$char_traits@D@_STL@@@_STL@@QAEAAV12@PBDH@Z ; _STL::basic_ostream<char,_STL::char_traits<char> >::write

; 288  : 	file.write((const char*)&MoveTimes, 1);

  00073	6a 01		 push	 1
  00075	8d 46 1d	 lea	 eax, DWORD PTR [esi+29]
  00078	50		 push	 eax
  00079	8b cf		 mov	 ecx, edi
  0007b	e8 00 00 00 00	 call	 ?write@?$basic_ostream@DV?$char_traits@D@_STL@@@_STL@@QAEAAV12@PBDH@Z ; _STL::basic_ostream<char,_STL::char_traits<char> >::write

; 289  : 	file.write((const char*)&MoveRatio, 1);

  00080	6a 01		 push	 1
  00082	8d 46 1e	 lea	 eax, DWORD PTR [esi+30]
  00085	50		 push	 eax
  00086	8b cf		 mov	 ecx, edi
  00088	e8 00 00 00 00	 call	 ?write@?$basic_ostream@DV?$char_traits@D@_STL@@@_STL@@QAEAAV12@PBDH@Z ; _STL::basic_ostream<char,_STL::char_traits<char> >::write

; 290  : 	file.write((const char*)&MoveTimesMotor, 1);

  0008d	6a 01		 push	 1
  0008f	8d 46 1f	 lea	 eax, DWORD PTR [esi+31]
  00092	50		 push	 eax
  00093	8b cf		 mov	 ecx, edi
  00095	e8 00 00 00 00	 call	 ?write@?$basic_ostream@DV?$char_traits@D@_STL@@@_STL@@QAEAAV12@PBDH@Z ; _STL::basic_ostream<char,_STL::char_traits<char> >::write

; 291  : 	file.write((const char*)&Height, 4);

  0009a	53		 push	 ebx
  0009b	8d 46 20	 lea	 eax, DWORD PTR [esi+32]
  0009e	50		 push	 eax
  0009f	8b cf		 mov	 ecx, edi
  000a1	e8 00 00 00 00	 call	 ?write@?$basic_ostream@DV?$char_traits@D@_STL@@@_STL@@QAEAAV12@PBDH@Z ; _STL::basic_ostream<char,_STL::char_traits<char> >::write

; 292  : 	file.write((const char*)&Width, 4);

  000a6	53		 push	 ebx
  000a7	8d 46 24	 lea	 eax, DWORD PTR [esi+36]
  000aa	50		 push	 eax
  000ab	8b cf		 mov	 ecx, edi
  000ad	e8 00 00 00 00	 call	 ?write@?$basic_ostream@DV?$char_traits@D@_STL@@@_STL@@QAEAAV12@PBDH@Z ; _STL::basic_ostream<char,_STL::char_traits<char> >::write

; 293  : 	file.write((const char*)&DeadHeight, 4);

  000b2	53		 push	 ebx
  000b3	8d 46 28	 lea	 eax, DWORD PTR [esi+40]
  000b6	50		 push	 eax
  000b7	8b cf		 mov	 ecx, edi
  000b9	e8 00 00 00 00	 call	 ?write@?$basic_ostream@DV?$char_traits@D@_STL@@@_STL@@QAEAAV12@PBDH@Z ; _STL::basic_ostream<char,_STL::char_traits<char> >::write

; 294  : 	file.write((const char*)&DeadActionInfo, SIZE_ACTIONINFO);

  000be	6a 02		 push	 2
  000c0	8d 46 2c	 lea	 eax, DWORD PTR [esi+44]
  000c3	50		 push	 eax
  000c4	8b cf		 mov	 ecx, edi
  000c6	e8 00 00 00 00	 call	 ?write@?$basic_ostream@DV?$char_traits@D@_STL@@@_STL@@QAEAAV12@PBDH@Z ; _STL::basic_ostream<char,_STL::char_traits<char> >::write

; 295  : 	//DeadActionInfo += 122;
; 296  : 	file.write((const char*)&ColorSet, 4);

  000cb	53		 push	 ebx
  000cc	8d 46 30	 lea	 eax, DWORD PTR [esi+48]
  000cf	50		 push	 eax
  000d0	8b cf		 mov	 ecx, edi
  000d2	e8 00 00 00 00	 call	 ?write@?$basic_ostream@DV?$char_traits@D@_STL@@@_STL@@QAEAAV12@PBDH@Z ; _STL::basic_ostream<char,_STL::char_traits<char> >::write

; 297  : 	file.write((const char*)&bFlyingCreature, 1);

  000d7	6a 01		 push	 1
  000d9	8d 46 34	 lea	 eax, DWORD PTR [esi+52]
  000dc	50		 push	 eax
  000dd	8b cf		 mov	 ecx, edi
  000df	e8 00 00 00 00	 call	 ?write@?$basic_ostream@DV?$char_traits@D@_STL@@@_STL@@QAEAAV12@PBDH@Z ; _STL::basic_ostream<char,_STL::char_traits<char> >::write

; 298  : 	file.write((const char*)&FlyingHeight, 4);

  000e4	53		 push	 ebx
  000e5	8d 46 38	 lea	 eax, DWORD PTR [esi+56]
  000e8	50		 push	 eax
  000e9	8b cf		 mov	 ecx, edi
  000eb	e8 00 00 00 00	 call	 ?write@?$basic_ostream@DV?$char_traits@D@_STL@@@_STL@@QAEAAV12@PBDH@Z ; _STL::basic_ostream<char,_STL::char_traits<char> >::write

; 299  : 	file.write((const char*)&bHeadCut, 4);

  000f0	53		 push	 ebx
  000f1	8d 46 3c	 lea	 eax, DWORD PTR [esi+60]
  000f4	50		 push	 eax
  000f5	8b cf		 mov	 ecx, edi
  000f7	e8 00 00 00 00	 call	 ?write@?$basic_ostream@DV?$char_traits@D@_STL@@@_STL@@QAEAAV12@PBDH@Z ; _STL::basic_ostream<char,_STL::char_traits<char> >::write

; 300  : 	file.write((const char*)&HPBarWidth, 4);

  000fc	53		 push	 ebx
  000fd	8d 46 40	 lea	 eax, DWORD PTR [esi+64]
  00100	50		 push	 eax
  00101	8b cf		 mov	 ecx, edi
  00103	e8 00 00 00 00	 call	 ?write@?$basic_ostream@DV?$char_traits@D@_STL@@@_STL@@QAEAAV12@PBDH@Z ; _STL::basic_ostream<char,_STL::char_traits<char> >::write

; 301  : 	file.write((const char*)&ChangeColorSet, 2);

  00108	6a 02		 push	 2
  0010a	8d 46 48	 lea	 eax, DWORD PTR [esi+72]
  0010d	50		 push	 eax
  0010e	8b cf		 mov	 ecx, edi
  00110	e8 00 00 00 00	 call	 ?write@?$basic_ostream@DV?$char_traits@D@_STL@@@_STL@@QAEAAV12@PBDH@Z ; _STL::basic_ostream<char,_STL::char_traits<char> >::write

; 302  : 	file.write((const char*)&ShadowCount, 2);

  00115	6a 02		 push	 2
  00117	8d 46 4c	 lea	 eax, DWORD PTR [esi+76]
  0011a	50		 push	 eax
  0011b	8b cf		 mov	 ecx, edi
  0011d	e8 00 00 00 00	 call	 ?write@?$basic_ostream@DV?$char_traits@D@_STL@@@_STL@@QAEAAV12@PBDH@Z ; _STL::basic_ostream<char,_STL::char_traits<char> >::write

; 303  : 	file.write((const char*)&EffectStatus, 4);

  00122	53		 push	 ebx
  00123	8d 46 50	 lea	 eax, DWORD PTR [esi+80]
  00126	50		 push	 eax
  00127	8b cf		 mov	 ecx, edi
  00129	e8 00 00 00 00	 call	 ?write@?$basic_ostream@DV?$char_traits@D@_STL@@@_STL@@QAEAAV12@PBDH@Z ; _STL::basic_ostream<char,_STL::char_traits<char> >::write

; 304  : 	//EffectStatus += 135;
; 305  : 	file.write((const char*)&Level, 4);

  0012e	53		 push	 ebx
  0012f	8d 46 54	 lea	 eax, DWORD PTR [esi+84]
  00132	50		 push	 eax
  00133	8b cf		 mov	 ecx, edi
  00135	e8 00 00 00 00	 call	 ?write@?$basic_ostream@DV?$char_traits@D@_STL@@@_STL@@QAEAAV12@PBDH@Z ; _STL::basic_ostream<char,_STL::char_traits<char> >::write

; 306  : 	
; 307  : 	//  soundID .
; 308  : 	int max = GetActionMax();

  0013a	8b ce		 mov	 ecx, esi
  0013c	e8 00 00 00 00	 call	 ?GetActionMax@CREATURETABLE_INFO@@QBEHXZ ; CREATURETABLE_INFO::GetActionMax

; 309  : 	for (int i=0; i<max; i++)

  00141	83 65 f8 00	 and	 DWORD PTR _i$108006[ebp], 0
  00145	85 c0		 test	 eax, eax
  00147	89 45 f0	 mov	 DWORD PTR _max$[ebp], eax
  0014a	7e 1e		 jle	 SHORT $L108009
$L112646:
  0014c	8b 46 68	 mov	 eax, DWORD PTR [esi+104]
  0014f	8b 4d f8	 mov	 ecx, DWORD PTR _i$108006[ebp]
  00152	8d 04 48	 lea	 eax, DWORD PTR [eax+ecx*2]

; 310  : 	{
; 311  : 		file.write((const char*)&m_pActionSound[i], SIZE_SOUNDID);

  00155	6a 02		 push	 2
  00157	50		 push	 eax
  00158	8b cf		 mov	 ecx, edi
  0015a	e8 00 00 00 00	 call	 ?write@?$basic_ostream@DV?$char_traits@D@_STL@@@_STL@@QAEAAV12@PBDH@Z ; _STL::basic_ostream<char,_STL::char_traits<char> >::write
  0015f	ff 45 f8	 inc	 DWORD PTR _i$108006[ebp]
  00162	8b 45 f8	 mov	 eax, DWORD PTR _i$108006[ebp]
  00165	3b 45 f0	 cmp	 eax, DWORD PTR _max$[ebp]
  00168	7c e2		 jl	 SHORT $L112646
$L108009:

; 312  : 	}
; 313  : 
; 314  : 	//  CountID .
; 315  : 	for (i=0; i<max; i++)

  0016a	83 65 f8 00	 and	 DWORD PTR _i$108006[ebp], 0
  0016e	83 7d f0 00	 cmp	 DWORD PTR _max$[ebp], 0
  00172	7e 1d		 jle	 SHORT $L108013
$L112647:
  00174	8b 46 6c	 mov	 eax, DWORD PTR [esi+108]
  00177	8b 4d f8	 mov	 ecx, DWORD PTR _i$108006[ebp]
  0017a	8d 04 88	 lea	 eax, DWORD PTR [eax+ecx*4]

; 316  : 	{
; 317  : 		file.write((const char*)&m_pActionCount[i], 4);

  0017d	53		 push	 ebx
  0017e	50		 push	 eax
  0017f	8b cf		 mov	 ecx, edi
  00181	e8 00 00 00 00	 call	 ?write@?$basic_ostream@DV?$char_traits@D@_STL@@@_STL@@QAEAAV12@PBDH@Z ; _STL::basic_ostream<char,_STL::char_traits<char> >::write
  00186	ff 45 f8	 inc	 DWORD PTR _i$108006[ebp]
  00189	8b 45 f8	 mov	 eax, DWORD PTR _i$108006[ebp]
  0018c	3b 45 f0	 cmp	 eax, DWORD PTR _max$[ebp]
  0018f	7c e3		 jl	 SHORT $L112647
$L108013:

; 318  : 	}
; 319  : 
; 320  : 	//---------------------------------------------------------------
; 321  : 	//  NPC  
; 322  : 	//---------------------------------------------------------------
; 323  : 	bool bExistItemWearInfo = (pItemWearInfo!=NULL);

  00191	83 7e 44 00	 cmp	 DWORD PTR [esi+68], 0

; 324  : 	
; 325  : 	file.write((const char*)&bExistItemWearInfo, 1);

  00195	6a 01		 push	 1
  00197	0f 95 c0	 setne	 al
  0019a	88 45 0b	 mov	 BYTE PTR _bExistItemWearInfo$[ebp], al
  0019d	8d 45 0b	 lea	 eax, DWORD PTR _bExistItemWearInfo$[ebp]
  001a0	50		 push	 eax
  001a1	8b cf		 mov	 ecx, edi
  001a3	e8 00 00 00 00	 call	 ?write@?$basic_ostream@DV?$char_traits@D@_STL@@@_STL@@QAEAAV12@PBDH@Z ; _STL::basic_ostream<char,_STL::char_traits<char> >::write

; 326  : 
; 327  : 	if (bExistItemWearInfo)

  001a8	80 7d 0b 00	 cmp	 BYTE PTR _bExistItemWearInfo$[ebp], 0
  001ac	74 09		 je	 SHORT $L108017

; 328  : 	{
; 329  : 		pItemWearInfo->SaveToFile( file );

  001ae	8b 4e 44	 mov	 ecx, DWORD PTR [esi+68]
  001b1	57		 push	 edi
  001b2	e8 00 00 00 00	 call	 ?SaveToFile@ITEM_WEARINFO@@QAEXAAV?$basic_ofstream@DV?$char_traits@D@_STL@@@_STL@@@Z ; ITEM_WEARINFO::SaveToFile
$L108017:

; 330  : 	}
; 331  : 	file.write((const char*)&bFade, 1);

  001b7	6a 01		 push	 1
  001b9	8d 46 58	 lea	 eax, DWORD PTR [esi+88]
  001bc	50		 push	 eax
  001bd	8b cf		 mov	 ecx, edi
  001bf	e8 00 00 00 00	 call	 ?write@?$basic_ostream@DV?$char_traits@D@_STL@@@_STL@@QAEAAV12@PBDH@Z ; _STL::basic_ostream<char,_STL::char_traits<char> >::write

; 332  : 	file.write((const char*)&bFadeShadow, 1);

  001c4	6a 01		 push	 1
  001c6	8d 46 59	 lea	 eax, DWORD PTR [esi+89]
  001c9	50		 push	 eax
  001ca	8b cf		 mov	 ecx, edi
  001cc	e8 00 00 00 00	 call	 ?write@?$basic_ostream@DV?$char_traits@D@_STL@@@_STL@@QAEAAV12@PBDH@Z ; _STL::basic_ostream<char,_STL::char_traits<char> >::write

; 333  : 
; 334  : 	file.write((const char*)&EffectSpriteType, 4);//     

  001d1	53		 push	 ebx
  001d2	8d 46 60	 lea	 eax, DWORD PTR [esi+96]
  001d5	50		 push	 eax
  001d6	8b cf		 mov	 ecx, edi
  001d8	e8 00 00 00 00	 call	 ?write@?$basic_ostream@DV?$char_traits@D@_STL@@@_STL@@QAEAAV12@PBDH@Z ; _STL::basic_ostream<char,_STL::char_traits<char> >::write

; 335  : 	//EffectSpriteType += 238;//238 +5
; 336  : 	file.write((const char*)&tmp, 4);

  001dd	53		 push	 ebx
  001de	83 c6 5c	 add	 esi, 92			; 0000005cH
  001e1	56		 push	 esi
  001e2	8b cf		 mov	 ecx, edi
  001e4	e8 00 00 00 00	 call	 ?write@?$basic_ostream@DV?$char_traits@D@_STL@@@_STL@@QAEAAV12@PBDH@Z ; _STL::basic_ostream<char,_STL::char_traits<char> >::write
  001e9	5f		 pop	 edi
  001ea	5e		 pop	 esi
  001eb	5b		 pop	 ebx

; 337  : }

  001ec	c9		 leave
  001ed	c2 04 00	 ret	 4
?SaveToFile@CREATURETABLE_INFO@@QAEXAAV?$basic_ofstream@DV?$char_traits@D@_STL@@@_STL@@@Z ENDP ; CREATURETABLE_INFO::SaveToFile
_TEXT	ENDS
PUBLIC	??0CreatureSpriteTypeMapper@@QAE@XZ		; CreatureSpriteTypeMapper::CreatureSpriteTypeMapper
; Function compile flags: /Ogsy
;	COMDAT ??0CreatureSpriteTypeMapper@@QAE@XZ
_TEXT	SEGMENT
$T112650 = -1						; size = 1
??0CreatureSpriteTypeMapper@@QAE@XZ PROC NEAR		; CreatureSpriteTypeMapper::CreatureSpriteTypeMapper, COMDAT
; _this$ = ecx

; 495  : {

  00000	51		 push	 ecx
  00001	56		 push	 esi
  00002	8d 44 24 07	 lea	 eax, DWORD PTR $T112650[esp+8]
  00006	50		 push	 eax
  00007	8b f1		 mov	 esi, ecx
  00009	e8 00 00 00 00	 call	 ??0?$_Vector_base@PAV?$vector@GV?$allocator@G@_STL@@@_STL@@V?$allocator@PAV?$vector@GV?$allocator@G@_STL@@@_STL@@@2@@_STL@@QAE@ABV?$allocator@PAV?$vector@GV?$allocator@G@_STL@@@_STL@@@1@@Z ; _STL::_Vector_base<_STL::vector<unsigned short,_STL::allocator<unsigned short> > *,_STL::allocator<_STL::vector<unsigned short,_STL::allocator<unsigned short> > *> >::_Vector_base<_STL::vector<unsigned short,_STL::allocator<unsigned short> > *,_STL::allocator<_STL::vector<unsigned short,_STL::allocator<unsigned short> > *> >

; 496  : }

  0000e	8b c6		 mov	 eax, esi
  00010	5e		 pop	 esi
  00011	59		 pop	 ecx
  00012	c3		 ret	 0
??0CreatureSpriteTypeMapper@@QAE@XZ ENDP		; CreatureSpriteTypeMapper::CreatureSpriteTypeMapper
_TEXT	ENDS
PUBLIC	??1CreatureSpriteTypeMapper@@QAE@XZ		; CreatureSpriteTypeMapper::~CreatureSpriteTypeMapper
; Function compile flags: /Ogsy
;	COMDAT ??1CreatureSpriteTypeMapper@@QAE@XZ
_TEXT	SEGMENT
??1CreatureSpriteTypeMapper@@QAE@XZ PROC NEAR		; CreatureSpriteTypeMapper::~CreatureSpriteTypeMapper, COMDAT
; _this$ = ecx

; 500  : }

  00000	e9 00 00 00 00	 jmp	 ??1?$_Vector_base@PAV?$vector@GV?$allocator@G@_STL@@@_STL@@V?$allocator@PAV?$vector@GV?$allocator@G@_STL@@@_STL@@@2@@_STL@@QAE@XZ ; _STL::_Vector_base<_STL::vector<unsigned short,_STL::allocator<unsigned short> > *,_STL::allocator<_STL::vector<unsigned short,_STL::allocator<unsigned short> > *> >::~_Vector_base<_STL::vector<unsigned short,_STL::allocator<unsigned short> > *,_STL::allocator<_STL::vector<unsigned short,_STL::allocator<unsigned short> > *> >
??1CreatureSpriteTypeMapper@@QAE@XZ ENDP		; CreatureSpriteTypeMapper::~CreatureSpriteTypeMapper
_TEXT	ENDS
PUBLIC	??_G?$vector@GV?$allocator@G@_STL@@@_STL@@QAEPAXI@Z ; _STL::vector<unsigned short,_STL::allocator<unsigned short> >::`scalar deleting destructor'
; Function compile flags: /Ogsy
;	COMDAT ??_G?$vector@GV?$allocator@G@_STL@@@_STL@@QAEPAXI@Z
_TEXT	SEGMENT
___flags$ = 8						; size = 4
??_G?$vector@GV?$allocator@G@_STL@@@_STL@@QAEPAXI@Z PROC NEAR ; _STL::vector<unsigned short,_STL::allocator<unsigned short> >::`scalar deleting destructor', COMDAT
; _this$ = ecx
  00000	56		 push	 esi
  00001	8b f1		 mov	 esi, ecx
  00003	e8 00 00 00 00	 call	 ??1?$vector@GV?$allocator@G@_STL@@@_STL@@QAE@XZ ; _STL::vector<unsigned short,_STL::allocator<unsigned short> >::~vector<unsigned short,_STL::allocator<unsigned short> >
  00008	f6 44 24 08 01	 test	 BYTE PTR ___flags$[esp], 1
  0000d	74 07		 je	 SHORT $L108356
  0000f	56		 push	 esi
  00010	e8 00 00 00 00	 call	 ??3@YAXPAX@Z		; operator delete
  00015	59		 pop	 ecx
$L108356:
  00016	8b c6		 mov	 eax, esi
  00018	5e		 pop	 esi
  00019	c2 04 00	 ret	 4
??_G?$vector@GV?$allocator@G@_STL@@@_STL@@QAEPAXI@Z ENDP ; _STL::vector<unsigned short,_STL::allocator<unsigned short> >::`scalar deleting destructor'
_TEXT	ENDS
PUBLIC	?SaveToFile@CreatureSpriteTypeMapper@@QAEXAAV?$basic_ofstream@DV?$char_traits@D@_STL@@@_STL@@@Z ; CreatureSpriteTypeMapper::SaveToFile
; Function compile flags: /Ogsy
;	COMDAT ?SaveToFile@CreatureSpriteTypeMapper@@QAEXAAV?$basic_ofstream@DV?$char_traits@D@_STL@@@_STL@@@Z
_TEXT	SEGMENT
_num$108402 = -16					; size = 2
_numSpriteTypes$ = -12					; size = 4
_numCreatureTypes$108396 = -8				; size = 4
_numCreatureTypes$108393 = -8				; size = 4
_i$108387 = -4						; size = 4
_file$ = 8						; size = 4
?SaveToFile@CreatureSpriteTypeMapper@@QAEXAAV?$basic_ofstream@DV?$char_traits@D@_STL@@@_STL@@@Z PROC NEAR ; CreatureSpriteTypeMapper::SaveToFile, COMDAT
; _this$ = ecx

; 589  : {

  00000	55		 push	 ebp
  00001	8b ec		 mov	 ebp, esp
  00003	83 ec 10	 sub	 esp, 16			; 00000010H
  00006	57		 push	 edi
  00007	8b f9		 mov	 edi, ecx

; 590  : 	int numSpriteTypes = m_CreatureSpriteTypes.capacity();

  00009	8b 47 08	 mov	 eax, DWORD PTR [edi+8]
  0000c	2b 07		 sub	 eax, DWORD PTR [edi]

; 591  : 
; 592  : 	file.write((const char*)&numSpriteTypes, 4);

  0000e	8b 4d 08	 mov	 ecx, DWORD PTR _file$[ebp]
  00011	c1 f8 02	 sar	 eax, 2
  00014	89 45 f4	 mov	 DWORD PTR _numSpriteTypes$[ebp], eax
  00017	6a 04		 push	 4
  00019	8d 45 f4	 lea	 eax, DWORD PTR _numSpriteTypes$[ebp]
  0001c	50		 push	 eax
  0001d	e8 00 00 00 00	 call	 ?write@?$basic_ostream@DV?$char_traits@D@_STL@@@_STL@@QAEAAV12@PBDH@Z ; _STL::basic_ostream<char,_STL::char_traits<char> >::write

; 593  : 
; 594  : 	for (int i=0; i<numSpriteTypes; i++)

  00022	83 65 fc 00	 and	 DWORD PTR _i$108387[ebp], 0
  00026	83 7d f4 00	 cmp	 DWORD PTR _numSpriteTypes$[ebp], 0
  0002a	7e 66		 jle	 SHORT $L108390
  0002c	53		 push	 ebx
  0002d	56		 push	 esi
$L112731:

; 595  : 	{
; 596  : 		CREATURE_TYPES* pCreatureTypes = m_CreatureSpriteTypes[i];

  0002e	8b 4d fc	 mov	 ecx, DWORD PTR _i$108387[ebp]
  00031	8b 07		 mov	 eax, DWORD PTR [edi]
  00033	8b 34 88	 mov	 esi, DWORD PTR [eax+ecx*4]

; 597  : 
; 598  : 		if (pCreatureTypes==NULL)
; 599  : 		{
; 600  : 			int numCreatureTypes = 0;
; 601  : 			file.write((const char*)&numCreatureTypes, 4);

  00036	8b 4d 08	 mov	 ecx, DWORD PTR _file$[ebp]
  00039	33 db		 xor	 ebx, ebx
  0003b	3b f3		 cmp	 esi, ebx
  0003d	6a 04		 push	 4
  0003f	75 0e		 jne	 SHORT $L108392
  00041	8d 45 f8	 lea	 eax, DWORD PTR _numCreatureTypes$108393[ebp]
  00044	50		 push	 eax
  00045	89 5d f8	 mov	 DWORD PTR _numCreatureTypes$108393[ebp], ebx
  00048	e8 00 00 00 00	 call	 ?write@?$basic_ostream@DV?$char_traits@D@_STL@@@_STL@@QAEAAV12@PBDH@Z ; _STL::basic_ostream<char,_STL::char_traits<char> >::write

; 602  : 		}
; 603  : 		else

  0004d	eb 36		 jmp	 SHORT $L108389
$L108392:

; 604  : 		{
; 605  : 			int numCreatureTypes = pCreatureTypes->size();

  0004f	8b 46 04	 mov	 eax, DWORD PTR [esi+4]
  00052	2b 06		 sub	 eax, DWORD PTR [esi]
  00054	d1 f8		 sar	 eax, 1
  00056	89 45 f8	 mov	 DWORD PTR _numCreatureTypes$108396[ebp], eax

; 606  : 
; 607  : 			file.write((const char*)&numCreatureTypes, 4);

  00059	8d 45 f8	 lea	 eax, DWORD PTR _numCreatureTypes$108396[ebp]
  0005c	50		 push	 eax
  0005d	e8 00 00 00 00	 call	 ?write@?$basic_ostream@DV?$char_traits@D@_STL@@@_STL@@QAEAAV12@PBDH@Z ; _STL::basic_ostream<char,_STL::char_traits<char> >::write

; 608  : 
; 609  : 			for (int j=0; j<numCreatureTypes; j++)

  00062	83 7d f8 00	 cmp	 DWORD PTR _numCreatureTypes$108396[ebp], 0
  00066	7e 1d		 jle	 SHORT $L108389
$L108399:

; 610  : 			{
; 611  : 				WORD num = (*pCreatureTypes)[j];

  00068	8b 06		 mov	 eax, DWORD PTR [esi]
  0006a	0f b7 04 58	 movzx	 eax, WORD PTR [eax+ebx*2]

; 612  : 				file.write((const char*)&num, 2);

  0006e	8b 4d 08	 mov	 ecx, DWORD PTR _file$[ebp]
  00071	89 45 f0	 mov	 DWORD PTR _num$108402[ebp], eax
  00074	6a 02		 push	 2
  00076	8d 45 f0	 lea	 eax, DWORD PTR _num$108402[ebp]
  00079	50		 push	 eax
  0007a	e8 00 00 00 00	 call	 ?write@?$basic_ostream@DV?$char_traits@D@_STL@@@_STL@@QAEAAV12@PBDH@Z ; _STL::basic_ostream<char,_STL::char_traits<char> >::write
  0007f	43		 inc	 ebx
  00080	3b 5d f8	 cmp	 ebx, DWORD PTR _numCreatureTypes$108396[ebp]
  00083	7c e3		 jl	 SHORT $L108399
$L108389:

; 593  : 
; 594  : 	for (int i=0; i<numSpriteTypes; i++)

  00085	ff 45 fc	 inc	 DWORD PTR _i$108387[ebp]
  00088	8b 45 fc	 mov	 eax, DWORD PTR _i$108387[ebp]
  0008b	3b 45 f4	 cmp	 eax, DWORD PTR _numSpriteTypes$[ebp]
  0008e	7c 9e		 jl	 SHORT $L112731
  00090	5e		 pop	 esi
  00091	5b		 pop	 ebx
$L108390:
  00092	5f		 pop	 edi

; 613  : 			}
; 614  : 		}
; 615  : 	}
; 616  : }

  00093	c9		 leave
  00094	c2 04 00	 ret	 4
?SaveToFile@CreatureSpriteTypeMapper@@QAEXAAV?$basic_ofstream@DV?$char_traits@D@_STL@@@_STL@@@Z ENDP ; CreatureSpriteTypeMapper::SaveToFile
_TEXT	ENDS
PUBLIC	?SaveStringToCSVFile@CREATURETABLE_INFO@@QAEXAAV?$basic_ofstream@DV?$char_traits@D@_STL@@@_STL@@ABVMString@@@Z ; CREATURETABLE_INFO::SaveStringToCSVFile
EXTRN	_strcpy:NEAR
; Function compile flags: /Ogsy
;	COMDAT ?SaveStringToCSVFile@CREATURETABLE_INFO@@QAEXAAV?$basic_ofstream@DV?$char_traits@D@_STL@@@_STL@@ABVMString@@@Z
_TEXT	SEGMENT
_file$ = 8						; size = 4
_value$ = 12						; size = 4
?SaveStringToCSVFile@CREATURETABLE_INFO@@QAEXAAV?$basic_ofstream@DV?$char_traits@D@_STL@@@_STL@@ABVMString@@@Z PROC NEAR ; CREATURETABLE_INFO::SaveStringToCSVFile, COMDAT
; _this$ = ecx

; 656  : {

  00000	55		 push	 ebp
  00001	8b ec		 mov	 ebp, esp
  00003	56		 push	 esi
  00004	57		 push	 edi

; 657  : 	int length = value.GetLength();

  00005	8b 7d 0c	 mov	 edi, DWORD PTR _value$[ebp]
  00008	8b 77 04	 mov	 esi, DWORD PTR [edi+4]

; 658  : 	if(length)

  0000b	85 f6		 test	 esi, esi
  0000d	74 45		 je	 SHORT $L108434

; 659  : 	{
; 660  : 		char* szCSVBuf = new char[length + 1];

  0000f	8d 46 01	 lea	 eax, DWORD PTR [esi+1]
  00012	53		 push	 ebx
  00013	50		 push	 eax
  00014	e8 00 00 00 00	 call	 ??_U@YAPAXI@Z		; operator new[]

; 661  : 		strcpy(szCSVBuf, value.GetString());

  00019	ff 77 08	 push	 DWORD PTR [edi+8]
  0001c	8b d8		 mov	 ebx, eax
  0001e	53		 push	 ebx
  0001f	e8 00 00 00 00	 call	 _strcpy
  00024	83 c4 0c	 add	 esp, 12			; 0000000cH

; 662  : 		for(int i = 0; i < length; ++i)

  00027	33 c9		 xor	 ecx, ecx
  00029	85 f6		 test	 esi, esi
  0002b	7e 14		 jle	 SHORT $L108441
$L108439:

; 663  : 			if(szCSVBuf[i] == ',' || szCSVBuf[i] == '\n') szCSVBuf[i] = ' ';		//   

  0002d	8a 04 19	 mov	 al, BYTE PTR [ecx+ebx]
  00030	3c 2c		 cmp	 al, 44			; 0000002cH
  00032	74 04		 je	 SHORT $L108443
  00034	3c 0a		 cmp	 al, 10			; 0000000aH
  00036	75 04		 jne	 SHORT $L108440
$L108443:
  00038	c6 04 19 20	 mov	 BYTE PTR [ecx+ebx], 32	; 00000020H
$L108440:

; 662  : 		for(int i = 0; i < length; ++i)

  0003c	41		 inc	 ecx
  0003d	3b ce		 cmp	 ecx, esi
  0003f	7c ec		 jl	 SHORT $L108439
$L108441:

; 664  : 		file << szCSVBuf;	

  00041	8b 4d 08	 mov	 ecx, DWORD PTR _file$[ebp]
  00044	53		 push	 ebx
  00045	e8 00 00 00 00	 call	 ?_M_put_nowiden@?$basic_ostream@DV?$char_traits@D@_STL@@@_STL@@QAEXPBD@Z ; _STL::basic_ostream<char,_STL::char_traits<char> >::_M_put_nowiden

; 665  : 		delete [] szCSVBuf;

  0004a	53		 push	 ebx
  0004b	e8 00 00 00 00	 call	 ??_V@YAXPAX@Z		; operator delete[]
  00050	59		 pop	 ecx
  00051	5b		 pop	 ebx

; 666  : 	}
; 667  : 	else

  00052	eb 0a		 jmp	 SHORT $L112749
$L108434:

; 668  : 	{
; 669  : 		file << CSV_NULL_VALUE;	

  00054	ff 31		 push	 DWORD PTR [ecx]
  00056	8b 4d 08	 mov	 ecx, DWORD PTR _file$[ebp]
  00059	e8 00 00 00 00	 call	 ?_M_put_nowiden@?$basic_ostream@DV?$char_traits@D@_STL@@@_STL@@QAEXPBD@Z ; _STL::basic_ostream<char,_STL::char_traits<char> >::_M_put_nowiden
$L112749:

; 670  : 	}
; 671  : 	file << ',';

  0005e	8b 4d 08	 mov	 ecx, DWORD PTR _file$[ebp]
  00061	6a 2c		 push	 44			; 0000002cH
  00063	e8 00 00 00 00	 call	 ?_M_put_char@?$basic_ostream@DV?$char_traits@D@_STL@@@_STL@@QAEXD@Z ; _STL::basic_ostream<char,_STL::char_traits<char> >::_M_put_char

; 672  : 	file << '\n';

  00068	8b 4d 08	 mov	 ecx, DWORD PTR _file$[ebp]
  0006b	6a 0a		 push	 10			; 0000000aH
  0006d	e8 00 00 00 00	 call	 ?_M_put_char@?$basic_ostream@DV?$char_traits@D@_STL@@@_STL@@QAEXD@Z ; _STL::basic_ostream<char,_STL::char_traits<char> >::_M_put_char
  00072	5f		 pop	 edi
  00073	5e		 pop	 esi

; 673  : }

  00074	5d		 pop	 ebp
  00075	c2 08 00	 ret	 8
?SaveStringToCSVFile@CREATURETABLE_INFO@@QAEXAAV?$basic_ofstream@DV?$char_traits@D@_STL@@@_STL@@ABVMString@@@Z ENDP ; CREATURETABLE_INFO::SaveStringToCSVFile
_TEXT	ENDS
PUBLIC	??6?$basic_ostream@DV?$char_traits@D@_STL@@@_STL@@QAEAAV01@H@Z ; _STL::basic_ostream<char,_STL::char_traits<char> >::operator<<
; Function compile flags: /Ogsy
; File c:\stlport-4.6.1\stlport\stl\_ostream.h
;	COMDAT ??6?$basic_ostream@DV?$char_traits@D@_STL@@@_STL@@QAEAAV01@H@Z
_TEXT	SEGMENT
___x$ = 8						; size = 4
??6?$basic_ostream@DV?$char_traits@D@_STL@@@_STL@@QAEAAV01@H@Z PROC NEAR ; _STL::basic_ostream<char,_STL::char_traits<char> >::operator<<, COMDAT
; _this$ = ecx

; 100  :   _Self& operator<<(int __x) { return _M_put_num(*this,  __STATIC_CAST(long,__x)); }

  00000	ff 74 24 04	 push	 DWORD PTR ___x$[esp-4]
  00004	51		 push	 ecx
  00005	e8 00 00 00 00	 call	 ??$_M_put_num@DV?$char_traits@D@_STL@@J@_STL@@YAAAV?$basic_ostream@DV?$char_traits@D@_STL@@@0@AAV10@J@Z ; _STL::_M_put_num<char,_STL::char_traits<char>,long>
  0000a	59		 pop	 ecx
  0000b	59		 pop	 ecx
  0000c	c2 04 00	 ret	 4
??6?$basic_ostream@DV?$char_traits@D@_STL@@@_STL@@QAEAAV01@H@Z ENDP ; _STL::basic_ostream<char,_STL::char_traits<char> >::operator<<
_TEXT	ENDS
PUBLIC	?push_back@?$vector@GV?$allocator@G@_STL@@@_STL@@QAEXABG@Z ; _STL::vector<unsigned short,_STL::allocator<unsigned short> >::push_back
; Function compile flags: /Ogsy
; File c:\stlport-4.6.1\stlport\stl\_vector.h
;	COMDAT ?push_back@?$vector@GV?$allocator@G@_STL@@@_STL@@QAEXABG@Z
_TEXT	SEGMENT
___x$ = 8						; size = 4
$T112764 = 11						; size = 1
?push_back@?$vector@GV?$allocator@G@_STL@@@_STL@@QAEXABG@Z PROC NEAR ; _STL::vector<unsigned short,_STL::allocator<unsigned short> >::push_back, COMDAT
; _this$ = ecx

; 331  :   void push_back(const _Tp& __x) {

  00000	55		 push	 ebp
  00001	8b ec		 mov	 ebp, esp

; 332  :     if (this->_M_finish != this->_M_end_of_storage._M_data) {

  00003	8b 41 04	 mov	 eax, DWORD PTR [ecx+4]
  00006	3b 41 08	 cmp	 eax, DWORD PTR [ecx+8]
  00009	74 13		 je	 SHORT $L108617

; 333  :       _Construct(this->_M_finish, __x);

  0000b	85 c0		 test	 eax, eax
  0000d	74 09		 je	 SHORT $L112774
  0000f	8b 55 08	 mov	 edx, DWORD PTR ___x$[ebp]
  00012	66 8b 12	 mov	 dx, WORD PTR [edx]
  00015	66 89 10	 mov	 WORD PTR [eax], dx
$L112774:

; 334  :       ++this->_M_finish;

  00018	83 41 04 02	 add	 DWORD PTR [ecx+4], 2

; 335  :     }
; 336  :     else

  0001c	eb 11		 jmp	 SHORT $L108624
$L108617:

; 337  :       _M_insert_overflow(this->_M_finish, __x, _IsPODType(), 1UL, true);

  0001e	6a 01		 push	 1
  00020	6a 01		 push	 1
  00022	8d 55 0b	 lea	 edx, DWORD PTR $T112764[ebp]
  00025	52		 push	 edx
  00026	ff 75 08	 push	 DWORD PTR ___x$[ebp]
  00029	50		 push	 eax
  0002a	e8 00 00 00 00	 call	 ?_M_insert_overflow@?$vector@GV?$allocator@G@_STL@@@_STL@@IAEXPAGABGABU__true_type@2@I_N@Z ; _STL::vector<unsigned short,_STL::allocator<unsigned short> >::_M_insert_overflow
$L108624:

; 338  :   }

  0002f	5d		 pop	 ebp
  00030	c2 04 00	 ret	 4
?push_back@?$vector@GV?$allocator@G@_STL@@@_STL@@QAEXABG@Z ENDP ; _STL::vector<unsigned short,_STL::allocator<unsigned short> >::push_back
_TEXT	ENDS
PUBLIC	?reserve@?$vector@PAV?$vector@GV?$allocator@G@_STL@@@_STL@@V?$allocator@PAV?$vector@GV?$allocator@G@_STL@@@_STL@@@2@@_STL@@QAEXI@Z ; _STL::vector<_STL::vector<unsigned short,_STL::allocator<unsigned short> > *,_STL::allocator<_STL::vector<unsigned short,_STL::allocator<unsigned short> > *> >::reserve
; Function compile flags: /Ogsy
; File c:\stlport-4.6.1\stlport\stl\_vector.c
;	COMDAT ?reserve@?$vector@PAV?$vector@GV?$allocator@G@_STL@@@_STL@@V?$allocator@PAV?$vector@GV?$allocator@G@_STL@@@_STL@@@2@@_STL@@QAEXI@Z
_TEXT	SEGMENT
___n$ = 8						; size = 4
?reserve@?$vector@PAV?$vector@GV?$allocator@G@_STL@@@_STL@@V?$allocator@PAV?$vector@GV?$allocator@G@_STL@@@_STL@@@2@@_STL@@QAEXI@Z PROC NEAR ; _STL::vector<_STL::vector<unsigned short,_STL::allocator<unsigned short> > *,_STL::allocator<_STL::vector<unsigned short,_STL::allocator<unsigned short> > *> >::reserve, COMDAT
; _this$ = ecx

; 45   : __vector__<_Tp, _Alloc>::reserve(size_type __n) {

  00000	55		 push	 ebp

; 46   :   if (capacity() < __n) {

  00001	8b 6c 24 08	 mov	 ebp, DWORD PTR ___n$[esp]
  00005	56		 push	 esi
  00006	8b f1		 mov	 esi, ecx
  00008	8b 06		 mov	 eax, DWORD PTR [esi]
  0000a	8b 4e 08	 mov	 ecx, DWORD PTR [esi+8]
  0000d	2b c8		 sub	 ecx, eax
  0000f	c1 f9 02	 sar	 ecx, 2
  00012	3b cd		 cmp	 ecx, ebp
  00014	73 4b		 jae	 SHORT $L112797

; 47   :     const size_type __old_size = size();

  00016	8b 4e 04	 mov	 ecx, DWORD PTR [esi+4]
  00019	53		 push	 ebx
  0001a	8b d9		 mov	 ebx, ecx
  0001c	2b d8		 sub	 ebx, eax
  0001e	c1 fb 02	 sar	 ebx, 2

; 48   :     pointer __tmp;
; 49   :     if (this->_M_start) {

  00021	85 c0		 test	 eax, eax
  00023	57		 push	 edi
  00024	74 15		 je	 SHORT $L108953

; 50   :       __tmp = _M_allocate_and_copy(__n, this->_M_start, this->_M_finish);

  00026	51		 push	 ecx
  00027	50		 push	 eax
  00028	55		 push	 ebp
  00029	8b ce		 mov	 ecx, esi
  0002b	e8 00 00 00 00	 call	 ??$_M_allocate_and_copy@PAPAV?$vector@GV?$allocator@G@_STL@@@_STL@@@?$vector@PAV?$vector@GV?$allocator@G@_STL@@@_STL@@V?$allocator@PAV?$vector@GV?$allocator@G@_STL@@@_STL@@@2@@_STL@@IAEPAPAV?$vector@GV?$allocator@G@_STL@@@1@IPAPAV21@0@Z ; _STL::vector<_STL::vector<unsigned short,_STL::allocator<unsigned short> > *,_STL::allocator<_STL::vector<unsigned short,_STL::allocator<unsigned short> > *> >::_M_allocate_and_copy<_STL::vector<unsigned short,_STL::allocator<unsigned short> > * *>

; 51   :       _M_clear();

  00030	8b ce		 mov	 ecx, esi
  00032	8b f8		 mov	 edi, eax
  00034	e8 00 00 00 00	 call	 ?_M_clear@?$vector@PAV?$vector@GV?$allocator@G@_STL@@@_STL@@V?$allocator@PAV?$vector@GV?$allocator@G@_STL@@@_STL@@@2@@_STL@@IAEXXZ ; _STL::vector<_STL::vector<unsigned short,_STL::allocator<unsigned short> > *,_STL::allocator<_STL::vector<unsigned short,_STL::allocator<unsigned short> > *> >::_M_clear

; 52   :     } else {

  00039	eb 16		 jmp	 SHORT $L112793
$L108953:

; 53   :       __tmp = this->_M_end_of_storage.allocate(__n);

  0003b	85 ed		 test	 ebp, ebp
  0003d	74 10		 je	 SHORT $L112792
  0003f	8b c5		 mov	 eax, ebp
  00041	c1 e0 02	 shl	 eax, 2
  00044	50		 push	 eax
  00045	e8 00 00 00 00	 call	 ?allocate@?$__node_alloc@$00$0A@@_STL@@SAPAXI@Z ; _STL::__node_alloc<1,0>::allocate
  0004a	59		 pop	 ecx
  0004b	8b f8		 mov	 edi, eax
  0004d	eb 02		 jmp	 SHORT $L112793
$L112792:
  0004f	33 ff		 xor	 edi, edi
$L112793:

; 54   :     }
; 55   :     _M_set(__tmp, __tmp + __old_size, __tmp + __n);

  00051	8d 04 9f	 lea	 eax, DWORD PTR [edi+ebx*4]
  00054	89 46 04	 mov	 DWORD PTR [esi+4], eax
  00057	8d 04 af	 lea	 eax, DWORD PTR [edi+ebp*4]
  0005a	89 3e		 mov	 DWORD PTR [esi], edi
  0005c	5f		 pop	 edi
  0005d	89 46 08	 mov	 DWORD PTR [esi+8], eax
  00060	5b		 pop	 ebx
$L112797:
  00061	5e		 pop	 esi
  00062	5d		 pop	 ebp

; 56   :   }
; 57   : }

  00063	c2 04 00	 ret	 4
?reserve@?$vector@PAV?$vector@GV?$allocator@G@_STL@@@_STL@@V?$allocator@PAV?$vector@GV?$allocator@G@_STL@@@_STL@@@2@@_STL@@QAEXI@Z ENDP ; _STL::vector<_STL::vector<unsigned short,_STL::allocator<unsigned short> > *,_STL::allocator<_STL::vector<unsigned short,_STL::allocator<unsigned short> > *> >::reserve
_TEXT	ENDS
PUBLIC	?reserve@?$vector@GV?$allocator@G@_STL@@@_STL@@QAEXI@Z ; _STL::vector<unsigned short,_STL::allocator<unsigned short> >::reserve
; Function compile flags: /Ogsy
;	COMDAT ?reserve@?$vector@GV?$allocator@G@_STL@@@_STL@@QAEXI@Z
_TEXT	SEGMENT
___n$ = 8						; size = 4
?reserve@?$vector@GV?$allocator@G@_STL@@@_STL@@QAEXI@Z PROC NEAR ; _STL::vector<unsigned short,_STL::allocator<unsigned short> >::reserve, COMDAT
; _this$ = ecx

; 45   : __vector__<_Tp, _Alloc>::reserve(size_type __n) {

  00000	55		 push	 ebp

; 46   :   if (capacity() < __n) {

  00001	8b 6c 24 08	 mov	 ebp, DWORD PTR ___n$[esp]
  00005	56		 push	 esi
  00006	8b f1		 mov	 esi, ecx
  00008	8b 06		 mov	 eax, DWORD PTR [esi]
  0000a	8b 4e 08	 mov	 ecx, DWORD PTR [esi+8]
  0000d	2b c8		 sub	 ecx, eax
  0000f	d1 f9		 sar	 ecx, 1
  00011	3b cd		 cmp	 ecx, ebp
  00013	73 49		 jae	 SHORT $L112816

; 47   :     const size_type __old_size = size();

  00015	8b 4e 04	 mov	 ecx, DWORD PTR [esi+4]
  00018	53		 push	 ebx
  00019	8b d9		 mov	 ebx, ecx
  0001b	2b d8		 sub	 ebx, eax
  0001d	d1 fb		 sar	 ebx, 1

; 48   :     pointer __tmp;
; 49   :     if (this->_M_start) {

  0001f	85 c0		 test	 eax, eax
  00021	57		 push	 edi
  00022	74 15		 je	 SHORT $L108969

; 50   :       __tmp = _M_allocate_and_copy(__n, this->_M_start, this->_M_finish);

  00024	51		 push	 ecx
  00025	50		 push	 eax
  00026	55		 push	 ebp
  00027	8b ce		 mov	 ecx, esi
  00029	e8 00 00 00 00	 call	 ??$_M_allocate_and_copy@PAG@?$vector@GV?$allocator@G@_STL@@@_STL@@IAEPAGIPAG0@Z ; _STL::vector<unsigned short,_STL::allocator<unsigned short> >::_M_allocate_and_copy<unsigned short *>

; 51   :       _M_clear();

  0002e	8b ce		 mov	 ecx, esi
  00030	8b f8		 mov	 edi, eax
  00032	e8 00 00 00 00	 call	 ?_M_clear@?$vector@GV?$allocator@G@_STL@@@_STL@@IAEXXZ ; _STL::vector<unsigned short,_STL::allocator<unsigned short> >::_M_clear

; 52   :     } else {

  00037	eb 15		 jmp	 SHORT $L112812
$L108969:

; 53   :       __tmp = this->_M_end_of_storage.allocate(__n);

  00039	85 ed		 test	 ebp, ebp
  0003b	74 0f		 je	 SHORT $L112811
  0003d	8d 44 2d 00	 lea	 eax, DWORD PTR [ebp+ebp]
  00041	50		 push	 eax
  00042	e8 00 00 00 00	 call	 ?allocate@?$__node_alloc@$00$0A@@_STL@@SAPAXI@Z ; _STL::__node_alloc<1,0>::allocate
  00047	59		 pop	 ecx
  00048	8b f8		 mov	 edi, eax
  0004a	eb 02		 jmp	 SHORT $L112812
$L112811:
  0004c	33 ff		 xor	 edi, edi
$L112812:

; 54   :     }
; 55   :     _M_set(__tmp, __tmp + __old_size, __tmp + __n);

  0004e	8d 04 5f	 lea	 eax, DWORD PTR [edi+ebx*2]
  00051	89 46 04	 mov	 DWORD PTR [esi+4], eax
  00054	8d 04 6f	 lea	 eax, DWORD PTR [edi+ebp*2]
  00057	89 3e		 mov	 DWORD PTR [esi], edi
  00059	5f		 pop	 edi
  0005a	89 46 08	 mov	 DWORD PTR [esi+8], eax
  0005d	5b		 pop	 ebx
$L112816:
  0005e	5e		 pop	 esi
  0005f	5d		 pop	 ebp

; 56   :   }
; 57   : }

  00060	c2 04 00	 ret	 4
?reserve@?$vector@GV?$allocator@G@_STL@@@_STL@@QAEXI@Z ENDP ; _STL::vector<unsigned short,_STL::allocator<unsigned short> >::reserve
_TEXT	ENDS
PUBLIC	?Release@CreatureSpriteTypeMapper@@QAEXXZ	; CreatureSpriteTypeMapper::Release
; Function compile flags: /Ogsy
; File c:\darkeden\designed_common\project\client\mcreaturetable.cpp
;	COMDAT ?Release@CreatureSpriteTypeMapper@@QAEXXZ
_TEXT	SEGMENT
?Release@CreatureSpriteTypeMapper@@QAEXXZ PROC NEAR	; CreatureSpriteTypeMapper::Release, COMDAT
; _this$ = ecx

; 523  : {

  00000	55		 push	 ebp
  00001	56		 push	 esi
  00002	57		 push	 edi
  00003	8b f9		 mov	 edi, ecx

; 524  : 	int numSpriteTypes = m_CreatureSpriteTypes.capacity();

  00005	8b 77 08	 mov	 esi, DWORD PTR [edi+8]
  00008	2b 37		 sub	 esi, DWORD PTR [edi]

; 525  : 
; 526  : 	for (int i=0; i<numSpriteTypes; i++)

  0000a	33 ed		 xor	 ebp, ebp
  0000c	c1 fe 02	 sar	 esi, 2
  0000f	85 f6		 test	 esi, esi
  00011	7e 24		 jle	 SHORT $L108127
  00013	53		 push	 ebx
$L112860:

; 527  : 	{
; 528  : 		if (m_CreatureSpriteTypes[i] != NULL)

  00014	8b 07		 mov	 eax, DWORD PTR [edi]
  00016	8b 1c a8	 mov	 ebx, DWORD PTR [eax+ebp*4]
  00019	85 db		 test	 ebx, ebx
  0001b	74 14		 je	 SHORT $L108126

; 529  : 		{
; 530  : 			delete m_CreatureSpriteTypes[i];

  0001d	8b cb		 mov	 ecx, ebx
  0001f	e8 00 00 00 00	 call	 ??1?$vector@GV?$allocator@G@_STL@@@_STL@@QAE@XZ ; _STL::vector<unsigned short,_STL::allocator<unsigned short> >::~vector<unsigned short,_STL::allocator<unsigned short> >
  00024	53		 push	 ebx
  00025	e8 00 00 00 00	 call	 ??3@YAXPAX@Z		; operator delete

; 531  : 			m_CreatureSpriteTypes[i] = NULL;

  0002a	8b 07		 mov	 eax, DWORD PTR [edi]
  0002c	83 24 a8 00	 and	 DWORD PTR [eax+ebp*4], 0
  00030	59		 pop	 ecx
$L108126:
  00031	45		 inc	 ebp
  00032	3b ee		 cmp	 ebp, esi
  00034	7c de		 jl	 SHORT $L112860
  00036	5b		 pop	 ebx
$L108127:
  00037	5f		 pop	 edi
  00038	5e		 pop	 esi
  00039	5d		 pop	 ebp

; 532  : 		}
; 533  : 	}
; 534  : }

  0003a	c3		 ret	 0
?Release@CreatureSpriteTypeMapper@@QAEXXZ ENDP		; CreatureSpriteTypeMapper::Release
_TEXT	ENDS
PUBLIC	?AddCreatureType@CreatureSpriteTypeMapper@@QAEXGG@Z ; CreatureSpriteTypeMapper::AddCreatureType
; Function compile flags: /Ogsy
;	COMDAT ?AddCreatureType@CreatureSpriteTypeMapper@@QAEXGG@Z
_TEXT	SEGMENT
$T112870 = -4						; size = 4
_spriteID$ = 8						; size = 2
_creatureType$ = 12					; size = 2
$T112866 = 15						; size = 1
?AddCreatureType@CreatureSpriteTypeMapper@@QAEXGG@Z PROC NEAR ; CreatureSpriteTypeMapper::AddCreatureType, COMDAT
; _this$ = ecx

; 542  : {

  00000	55		 push	 ebp
  00001	8b ec		 mov	 ebp, esp
  00003	51		 push	 ecx
  00004	83 65 fc 00	 and	 DWORD PTR $T112870[ebp], 0
  00008	56		 push	 esi

; 543  : 	if (m_CreatureSpriteTypes[spriteID]==NULL)

  00009	0f b7 75 08	 movzx	 esi, WORD PTR _spriteID$[ebp]
  0000d	57		 push	 edi
  0000e	8b f9		 mov	 edi, ecx
  00010	8b 07		 mov	 eax, DWORD PTR [edi]
  00012	c1 e6 02	 shl	 esi, 2
  00015	8b 0c 06	 mov	 ecx, DWORD PTR [esi+eax]
  00018	85 c9		 test	 ecx, ecx
  0001a	75 31		 jne	 SHORT $L108362
  0001c	53		 push	 ebx

; 544  : 	{
; 545  : 		CREATURE_TYPES* pCreatureTypes = new CREATURE_TYPES;

  0001d	6a 0c		 push	 12			; 0000000cH
  0001f	e8 00 00 00 00	 call	 ??2@YAPAXI@Z		; operator new
  00024	8b d8		 mov	 ebx, eax
  00026	85 db		 test	 ebx, ebx
  00028	59		 pop	 ecx
  00029	74 0d		 je	 SHORT $L112867
  0002b	8d 45 0f	 lea	 eax, DWORD PTR $T112866[ebp]
  0002e	50		 push	 eax
  0002f	8b cb		 mov	 ecx, ebx
  00031	e8 00 00 00 00	 call	 ??0?$_Vector_base@GV?$allocator@G@_STL@@@_STL@@QAE@ABV?$allocator@G@1@@Z ; _STL::_Vector_base<unsigned short,_STL::allocator<unsigned short> >::_Vector_base<unsigned short,_STL::allocator<unsigned short> >
  00036	eb 02		 jmp	 SHORT $L112868
$L112867:
  00038	33 db		 xor	 ebx, ebx
$L112868:

; 546  : 		pCreatureTypes->push_back( creatureType );

  0003a	8d 45 0c	 lea	 eax, DWORD PTR _creatureType$[ebp]
  0003d	50		 push	 eax
  0003e	8b cb		 mov	 ecx, ebx
  00040	e8 00 00 00 00	 call	 ?push_back@?$vector@GV?$allocator@G@_STL@@@_STL@@QAEXABG@Z ; _STL::vector<unsigned short,_STL::allocator<unsigned short> >::push_back

; 547  : 
; 548  : 		m_CreatureSpriteTypes[spriteID] = pCreatureTypes;

  00045	8b 07		 mov	 eax, DWORD PTR [edi]
  00047	89 1c 06	 mov	 DWORD PTR [esi+eax], ebx
  0004a	5b		 pop	 ebx

; 549  : 	}
; 550  : 	else

  0004b	eb 09		 jmp	 SHORT $L108370
$L108362:

; 551  : 	{
; 552  : 		m_CreatureSpriteTypes[spriteID]->push_back( creatureType );

  0004d	8d 45 0c	 lea	 eax, DWORD PTR _creatureType$[ebp]
  00050	50		 push	 eax
  00051	e8 00 00 00 00	 call	 ?push_back@?$vector@GV?$allocator@G@_STL@@@_STL@@QAEXABG@Z ; _STL::vector<unsigned short,_STL::allocator<unsigned short> >::push_back
$L108370:
  00056	5f		 pop	 edi
  00057	5e		 pop	 esi

; 553  : 	}
; 554  : }

  00058	c9		 leave
  00059	c2 08 00	 ret	 8
?AddCreatureType@CreatureSpriteTypeMapper@@QAEXGG@Z ENDP ; CreatureSpriteTypeMapper::AddCreatureType
_TEXT	ENDS
PUBLIC	?SaveNumberToCSVFile@CREATURETABLE_INFO@@QAEXAAV?$basic_ofstream@DV?$char_traits@D@_STL@@@_STL@@HH@Z ; CREATURETABLE_INFO::SaveNumberToCSVFile
; Function compile flags: /Ogsy
;	COMDAT ?SaveNumberToCSVFile@CREATURETABLE_INFO@@QAEXAAV?$basic_ofstream@DV?$char_traits@D@_STL@@@_STL@@HH@Z
_TEXT	SEGMENT
_file$ = 8						; size = 4
_value$ = 12						; size = 4
_null$ = 16						; size = 4
?SaveNumberToCSVFile@CREATURETABLE_INFO@@QAEXAAV?$basic_ofstream@DV?$char_traits@D@_STL@@@_STL@@HH@Z PROC NEAR ; CREATURETABLE_INFO::SaveNumberToCSVFile, COMDAT
; _this$ = ecx

; 679  : {

  00000	55		 push	 ebp
  00001	8b ec		 mov	 ebp, esp

; 680  : 	if(null == value)

  00003	8b 45 0c	 mov	 eax, DWORD PTR _value$[ebp]
  00006	39 45 10	 cmp	 DWORD PTR _null$[ebp], eax
  00009	75 0c		 jne	 SHORT $L108512

; 681  : 		file << CSV_NULL_VALUE;

  0000b	ff 31		 push	 DWORD PTR [ecx]
  0000d	8b 4d 08	 mov	 ecx, DWORD PTR _file$[ebp]
  00010	e8 00 00 00 00	 call	 ?_M_put_nowiden@?$basic_ostream@DV?$char_traits@D@_STL@@@_STL@@QAEXPBD@Z ; _STL::basic_ostream<char,_STL::char_traits<char> >::_M_put_nowiden

; 682  : 	else

  00015	eb 0b		 jmp	 SHORT $L112915
$L108512:

; 683  : 		file << (int)value;

  00017	50		 push	 eax
  00018	ff 75 08	 push	 DWORD PTR _file$[ebp]
  0001b	e8 00 00 00 00	 call	 ??$_M_put_num@DV?$char_traits@D@_STL@@J@_STL@@YAAAV?$basic_ostream@DV?$char_traits@D@_STL@@@0@AAV10@J@Z ; _STL::_M_put_num<char,_STL::char_traits<char>,long>
  00020	59		 pop	 ecx
  00021	59		 pop	 ecx
$L112915:

; 684  : 	file << ',';

  00022	8b 4d 08	 mov	 ecx, DWORD PTR _file$[ebp]
  00025	6a 2c		 push	 44			; 0000002cH
  00027	e8 00 00 00 00	 call	 ?_M_put_char@?$basic_ostream@DV?$char_traits@D@_STL@@@_STL@@QAEXD@Z ; _STL::basic_ostream<char,_STL::char_traits<char> >::_M_put_char

; 685  : }

  0002c	5d		 pop	 ebp
  0002d	c2 0c 00	 ret	 12			; 0000000cH
?SaveNumberToCSVFile@CREATURETABLE_INFO@@QAEXAAV?$basic_ofstream@DV?$char_traits@D@_STL@@@_STL@@HH@Z ENDP ; CREATURETABLE_INFO::SaveNumberToCSVFile
_TEXT	ENDS
PUBLIC	?SaveToCSVFile@CREATURETABLE_INFO@@QAEXAAV?$basic_ofstream@DV?$char_traits@D@_STL@@@_STL@@I@Z ; CREATURETABLE_INFO::SaveToCSVFile
; Function compile flags: /Ogsy
;	COMDAT ?SaveToCSVFile@CREATURETABLE_INFO@@QAEXAAV?$basic_ofstream@DV?$char_traits@D@_STL@@@_STL@@I@Z
_TEXT	SEGMENT
_file$ = 8						; size = 4
_CreatureID$ = 12					; size = 4
?SaveToCSVFile@CREATURETABLE_INFO@@QAEXAAV?$basic_ofstream@DV?$char_traits@D@_STL@@@_STL@@I@Z PROC NEAR ; CREATURETABLE_INFO::SaveToCSVFile, COMDAT
; _this$ = ecx

; 484  : {

  00000	56		 push	 esi

; 485  : 	SaveNumberToCSVFile(file, CreatureID);

  00001	68 00 00 01 00	 push	 65536			; 00010000H
  00006	ff 74 24 10	 push	 DWORD PTR _CreatureID$[esp+4]
  0000a	8b f1		 mov	 esi, ecx
  0000c	ff 74 24 10	 push	 DWORD PTR _file$[esp+8]
  00010	e8 00 00 00 00	 call	 ?SaveNumberToCSVFile@CREATURETABLE_INFO@@QAEXAAV?$basic_ofstream@DV?$char_traits@D@_STL@@@_STL@@HH@Z ; CREATURETABLE_INFO::SaveNumberToCSVFile

; 486  : 	SaveStringToCSVFile(file, Name);

  00015	8d 46 08	 lea	 eax, DWORD PTR [esi+8]
  00018	50		 push	 eax
  00019	ff 74 24 0c	 push	 DWORD PTR _file$[esp+4]
  0001d	8b ce		 mov	 ecx, esi
  0001f	e8 00 00 00 00	 call	 ?SaveStringToCSVFile@CREATURETABLE_INFO@@QAEXAAV?$basic_ofstream@DV?$char_traits@D@_STL@@@_STL@@ABVMString@@@Z ; CREATURETABLE_INFO::SaveStringToCSVFile
  00024	5e		 pop	 esi

; 487  : }

  00025	c2 08 00	 ret	 8
?SaveToCSVFile@CREATURETABLE_INFO@@QAEXAAV?$basic_ofstream@DV?$char_traits@D@_STL@@@_STL@@I@Z ENDP ; CREATURETABLE_INFO::SaveToCSVFile
_TEXT	ENDS
PUBLIC	?Init@CreatureSpriteTypeMapper@@QAEXH@Z		; CreatureSpriteTypeMapper::Init
; Function compile flags: /Ogsy
;	COMDAT ?Init@CreatureSpriteTypeMapper@@QAEXH@Z
_TEXT	SEGMENT
_numSpriteTypes$ = 8					; size = 4
?Init@CreatureSpriteTypeMapper@@QAEXH@Z PROC NEAR	; CreatureSpriteTypeMapper::Init, COMDAT
; _this$ = ecx

; 507  : {

  00000	56		 push	 esi
  00001	57		 push	 edi
  00002	8b f1		 mov	 esi, ecx

; 508  : 	Release();

  00004	e8 00 00 00 00	 call	 ?Release@CreatureSpriteTypeMapper@@QAEXXZ ; CreatureSpriteTypeMapper::Release

; 509  : 
; 510  : 	m_CreatureSpriteTypes.reserve( numSpriteTypes );

  00009	8b 7c 24 0c	 mov	 edi, DWORD PTR _numSpriteTypes$[esp+4]
  0000d	57		 push	 edi
  0000e	8b ce		 mov	 ecx, esi
  00010	e8 00 00 00 00	 call	 ?reserve@?$vector@PAV?$vector@GV?$allocator@G@_STL@@@_STL@@V?$allocator@PAV?$vector@GV?$allocator@G@_STL@@@_STL@@@2@@_STL@@QAEXI@Z ; _STL::vector<_STL::vector<unsigned short,_STL::allocator<unsigned short> > *,_STL::allocator<_STL::vector<unsigned short,_STL::allocator<unsigned short> > *> >::reserve

; 511  : 
; 512  : 	for (int i=0; i<numSpriteTypes; i++)

  00015	33 c0		 xor	 eax, eax
  00017	85 ff		 test	 edi, edi
  00019	7e 0b		 jle	 SHORT $L108119
$L108117:

; 513  : 	{
; 514  : 		m_CreatureSpriteTypes[i] = NULL;

  0001b	8b 0e		 mov	 ecx, DWORD PTR [esi]
  0001d	83 24 81 00	 and	 DWORD PTR [ecx+eax*4], 0
  00021	40		 inc	 eax
  00022	3b c7		 cmp	 eax, edi
  00024	7c f5		 jl	 SHORT $L108117
$L108119:
  00026	5f		 pop	 edi
  00027	5e		 pop	 esi

; 515  : 	}
; 516  : }

  00028	c2 04 00	 ret	 4
?Init@CreatureSpriteTypeMapper@@QAEXH@Z ENDP		; CreatureSpriteTypeMapper::Init
_TEXT	ENDS
PUBLIC	?LoadFromFile@CreatureSpriteTypeMapper@@QAEXAAVivfstream@@@Z ; CreatureSpriteTypeMapper::LoadFromFile
; Function compile flags: /Ogsy
;	COMDAT ?LoadFromFile@CreatureSpriteTypeMapper@@QAEXAAVivfstream@@@Z
_TEXT	SEGMENT
_this$ = -20						; size = 4
_numSpriteTypes$ = -16					; size = 4
_numCreatureTypes$108420 = -12				; size = 4
_i$108410 = -8						; size = 4
$T112945 = -4						; size = 4
_file$ = 8						; size = 4
_creatureType$108426 = 10				; size = 2
$T112941 = 11						; size = 1
?LoadFromFile@CreatureSpriteTypeMapper@@QAEXAAVivfstream@@@Z PROC NEAR ; CreatureSpriteTypeMapper::LoadFromFile, COMDAT
; _this$ = ecx

; 623  : {

  00000	55		 push	 ebp
  00001	8b ec		 mov	 ebp, esp
  00003	83 ec 14	 sub	 esp, 20			; 00000014H
  00006	53		 push	 ebx
  00007	56		 push	 esi

; 624  : 	int numSpriteTypes;
; 625  : 	
; 626  : 	file.read((char*)&numSpriteTypes, 4);

  00008	8b 75 08	 mov	 esi, DWORD PTR _file$[ebp]
  0000b	33 db		 xor	 ebx, ebx
  0000d	39 5e 04	 cmp	 DWORD PTR [esi+4], ebx
  00010	89 4d ec	 mov	 DWORD PTR _this$[ebp], ecx
  00013	89 5d fc	 mov	 DWORD PTR $T112945[ebp], ebx
  00016	74 0e		 je	 SHORT $L112993
  00018	8b 4e 04	 mov	 ecx, DWORD PTR [esi+4]
  0001b	8b 01		 mov	 eax, DWORD PTR [ecx]
  0001d	6a 04		 push	 4
  0001f	8d 55 f0	 lea	 edx, DWORD PTR _numSpriteTypes$[ebp]
  00022	52		 push	 edx
  00023	ff 50 10	 call	 DWORD PTR [eax+16]
$L112993:

; 627  : 	
; 628  : 	Init( numSpriteTypes );

  00026	ff 75 f0	 push	 DWORD PTR _numSpriteTypes$[ebp]
  00029	8b 4d ec	 mov	 ecx, DWORD PTR _this$[ebp]
  0002c	e8 00 00 00 00	 call	 ?Init@CreatureSpriteTypeMapper@@QAEXH@Z ; CreatureSpriteTypeMapper::Init

; 629  : 
; 630  : 	for (int i=0; i<numSpriteTypes; i++)

  00031	39 5d f0	 cmp	 DWORD PTR _numSpriteTypes$[ebp], ebx
  00034	89 5d f8	 mov	 DWORD PTR _i$108410[ebp], ebx
  00037	0f 8e 92 00 00
	00		 jle	 $L108413
  0003d	57		 push	 edi
  0003e	eb 02		 jmp	 SHORT $L108411
$L112994:
  00040	33 db		 xor	 ebx, ebx
$L108411:

; 631  : 	{
; 632  : 		CREATURE_TYPES* pCreatureTypes = new CREATURE_TYPES;

  00042	6a 0c		 push	 12			; 0000000cH
  00044	e8 00 00 00 00	 call	 ??2@YAPAXI@Z		; operator new
  00049	8b f8		 mov	 edi, eax
  0004b	3b fb		 cmp	 edi, ebx
  0004d	59		 pop	 ecx
  0004e	74 11		 je	 SHORT $L112942
  00050	83 4d fc 01	 or	 DWORD PTR $T112945[ebp], 1
  00054	8d 45 0b	 lea	 eax, DWORD PTR $T112941[ebp]
  00057	50		 push	 eax
  00058	8b cf		 mov	 ecx, edi
  0005a	e8 00 00 00 00	 call	 ??0?$_Vector_base@GV?$allocator@G@_STL@@@_STL@@QAE@ABV?$allocator@G@1@@Z ; _STL::_Vector_base<unsigned short,_STL::allocator<unsigned short> >::_Vector_base<unsigned short,_STL::allocator<unsigned short> >
  0005f	eb 02		 jmp	 SHORT $L112943
$L112942:
  00061	33 ff		 xor	 edi, edi
$L112943:
  00063	f6 45 fc 01	 test	 BYTE PTR $T112945[ebp], 1
  00067	74 04		 je	 SHORT $L112959
  00069	83 65 fc fe	 and	 DWORD PTR $T112945[ebp], -2 ; fffffffeH
$L112959:

; 633  : 		
; 634  : 		m_CreatureSpriteTypes[i] = pCreatureTypes;

  0006d	8b 45 ec	 mov	 eax, DWORD PTR _this$[ebp]
  00070	8b 00		 mov	 eax, DWORD PTR [eax]
  00072	8b 4d f8	 mov	 ecx, DWORD PTR _i$108410[ebp]
  00075	89 3c 88	 mov	 DWORD PTR [eax+ecx*4], edi

; 635  : 
; 636  : 		int numCreatureTypes;
; 637  : 		
; 638  : 		file.read((char*)&numCreatureTypes, 4);

  00078	39 5e 04	 cmp	 DWORD PTR [esi+4], ebx
  0007b	74 0e		 je	 SHORT $L112973
  0007d	8b 4e 04	 mov	 ecx, DWORD PTR [esi+4]
  00080	8b 01		 mov	 eax, DWORD PTR [ecx]
  00082	6a 04		 push	 4
  00084	8d 55 f4	 lea	 edx, DWORD PTR _numCreatureTypes$108420[ebp]
  00087	52		 push	 edx
  00088	ff 50 10	 call	 DWORD PTR [eax+16]
$L112973:

; 639  : 
; 640  : 		pCreatureTypes->reserve( numCreatureTypes );

  0008b	ff 75 f4	 push	 DWORD PTR _numCreatureTypes$108420[ebp]
  0008e	8b cf		 mov	 ecx, edi
  00090	e8 00 00 00 00	 call	 ?reserve@?$vector@GV?$allocator@G@_STL@@@_STL@@QAEXI@Z ; _STL::vector<unsigned short,_STL::allocator<unsigned short> >::reserve

; 641  : 
; 642  : 		for (int j=0; j<numCreatureTypes; j++)

  00095	83 7d f4 00	 cmp	 DWORD PTR _numCreatureTypes$108420[ebp], 0
  00099	7e 24		 jle	 SHORT $L108412
$L112995:

; 643  : 		{
; 644  : 			WORD creatureType;
; 645  : 			file.read((char*)&creatureType, 2);

  0009b	83 7e 04 00	 cmp	 DWORD PTR [esi+4], 0
  0009f	74 0e		 je	 SHORT $L112978
  000a1	8b 4e 04	 mov	 ecx, DWORD PTR [esi+4]
  000a4	8b 01		 mov	 eax, DWORD PTR [ecx]
  000a6	6a 02		 push	 2
  000a8	8d 55 0a	 lea	 edx, DWORD PTR _creatureType$108426[ebp]
  000ab	52		 push	 edx
  000ac	ff 50 10	 call	 DWORD PTR [eax+16]
$L112978:

; 646  : 
; 647  : 			(*pCreatureTypes)[j] = creatureType;

  000af	8b 07		 mov	 eax, DWORD PTR [edi]
  000b1	66 8b 4d 0a	 mov	 cx, WORD PTR _creatureType$108426[ebp]
  000b5	66 89 0c 58	 mov	 WORD PTR [eax+ebx*2], cx
  000b9	43		 inc	 ebx
  000ba	3b 5d f4	 cmp	 ebx, DWORD PTR _numCreatureTypes$108420[ebp]
  000bd	7c dc		 jl	 SHORT $L112995
$L108412:

; 629  : 
; 630  : 	for (int i=0; i<numSpriteTypes; i++)

  000bf	ff 45 f8	 inc	 DWORD PTR _i$108410[ebp]
  000c2	8b 45 f8	 mov	 eax, DWORD PTR _i$108410[ebp]
  000c5	3b 45 f0	 cmp	 eax, DWORD PTR _numSpriteTypes$[ebp]
  000c8	0f 8c 72 ff ff
	ff		 jl	 $L112994
  000ce	5f		 pop	 edi
$L108413:
  000cf	5e		 pop	 esi
  000d0	5b		 pop	 ebx

; 648  : 		}
; 649  : 	}
; 650  : }

  000d1	c9		 leave
  000d2	c2 04 00	 ret	 4
?LoadFromFile@CreatureSpriteTypeMapper@@QAEXAAVivfstream@@@Z ENDP ; CreatureSpriteTypeMapper::LoadFromFile
_TEXT	ENDS
END
