; Listing generated by Microsoft (R) Optimizing Compiler Version 13.10.3077 

	TITLE	\darkeden\Designed_Common\Project\Client\MItemTable.cpp
	.386P
include listing.inc
if @Version gt 510
.model FLAT
else
_TEXT	SEGMENT PARA USE32 PUBLIC 'CODE'
_TEXT	ENDS
_DATA	SEGMENT DWORD USE32 PUBLIC 'DATA'
_DATA	ENDS
CONST	SEGMENT DWORD USE32 PUBLIC 'CONST'
CONST	ENDS
_BSS	SEGMENT DWORD USE32 PUBLIC 'BSS'
_BSS	ENDS
$$SYMBOLS	SEGMENT BYTE USE32 'DEBSYM'
$$SYMBOLS	ENDS
$$TYPES	SEGMENT BYTE USE32 'DEBTYP'
$$TYPES	ENDS
_TLS	SEGMENT DWORD USE32 PUBLIC 'TLS'
_TLS	ENDS
;	COMDAT ??_C@_0BN@ODLNCKCA@Data?2?2Info?2?2ClientConfig?4inf?$AA@
CONST	SEGMENT DWORD USE32 PUBLIC 'CONST'
CONST	ENDS
;	COMDAT ??_C@_0BM@DFPLPGPC@Data?2?2Info?2?2GuildMapper?4inf?$AA@
CONST	SEGMENT DWORD USE32 PUBLIC 'CONST'
CONST	ENDS
;	COMDAT ??_C@_0BN@LHODHNBK@Data?2?2Info?2?2GuildVersion?4inf?$AA@
CONST	SEGMENT DWORD USE32 PUBLIC 'CONST'
CONST	ENDS
;	COMDAT ??_C@_0BH@DDPLNCOL@Data?2?2Info?2?2Player?4inf?$AA@
CONST	SEGMENT DWORD USE32 PUBLIC 'CONST'
CONST	ENDS
;	COMDAT ??_C@_0BL@ILLNAPHB@Data?2?2Info?2?2Resolution?4inf?$AA@
CONST	SEGMENT DWORD USE32 PUBLIC 'CONST'
CONST	ENDS
;	COMDAT ??_C@_0CA@HEIGFDLG@Data?2?2Info?2?2SelectedChannel?4inf?$AA@
CONST	SEGMENT DWORD USE32 PUBLIC 'CONST'
CONST	ENDS
;	COMDAT ??_C@_0BF@LGMBKJD@?$LP?$MA?E?d?$LJ?Y?$MA?L?$CIMotorcycle?$CJ?$AA@
CONST	SEGMENT DWORD USE32 PUBLIC 'CONST'
CONST	ENDS
;	COMDAT ??_C@_0N@MCEEAHBF@?F?w?$LM?G?$CIPotion?$CJ?$AA@
CONST	SEGMENT DWORD USE32 PUBLIC 'CONST'
CONST	ENDS
;	COMDAT ??_C@_0M@CIOIGDBO@?$LP?v?E?M?$CIWater?$CJ?$AA@
CONST	SEGMENT DWORD USE32 PUBLIC 'CONST'
CONST	ENDS
;	COMDAT ??_C@_0BA@OGGLPNNH@?$LM?$LK?$LM?v?$CIHolywater?$CJ?$AA@
CONST	SEGMENT DWORD USE32 PUBLIC 'CONST'
CONST	ENDS
;	COMDAT ??_C@_0N@JDGLKMJB@?C?Q?$CIMagazine?$CJ?$AA@
CONST	SEGMENT DWORD USE32 PUBLIC 'CONST'
CONST	ENDS
;	COMDAT ??_C@_0BI@PMGPIHGL@?F?x?E?$LK?A?$KG?A?$LG?$CIBomb?5Material?$CJ?$AA@
CONST	SEGMENT DWORD USE32 PUBLIC 'CONST'
CONST	ENDS
;	COMDAT ??_C@_09NJDLBLEM@?$LB?b?E?$LI?$CIEtc?$CJ?$AA@
CONST	SEGMENT DWORD USE32 PUBLIC 'CONST'
CONST	ENDS
;	COMDAT ??_C@_0BA@OCBGHLKD@?$LP?$MA?E?d?$LJ?Y?$MA?L?E?$LA?$CIKey?$CJ?$AA@
CONST	SEGMENT DWORD USE32 PUBLIC 'CONST'
CONST	ENDS
;	COMDAT ??_C@_0L@HHPIAJGP@?$LJ?$NN?A?v?$CIRing?$CJ?$AA@
CONST	SEGMENT DWORD USE32 PUBLIC 'CONST'
CONST	ENDS
;	COMDAT ??_C@_0BF@NKNDJDCL@?$LK?j?$LH?$LJ?$MA?L?$LN?$LN?$LI?$LE?$CIBracelet?$CJ?$AA@
CONST	SEGMENT DWORD USE32 PUBLIC 'CONST'
CONST	ENDS
;	COMDAT ??_C@_0BD@EEKDAEIF@?$LD?W?E?$KJ?$LI?$KO?$LN?$LK?$CINecklace?$CJ?$AA@
CONST	SEGMENT DWORD USE32 PUBLIC 'CONST'
CONST	ENDS
;	COMDAT ??_C@_0L@EDPJKBLJ@?D?Z?F?$KO?$CICoat?$CJ?$AA@
CONST	SEGMENT DWORD USE32 PUBLIC 'CONST'
CONST	ENDS
;	COMDAT ??_C@_0O@DGFMCIMG@?$LJ?Y?A?v?$CITrouser?$CJ?$AA@
CONST	SEGMENT DWORD USE32 PUBLIC 'CONST'
CONST	ENDS
;	COMDAT ??_C@_0M@NOKKGGAC@?$LN?E?$LJ?$NP?$CIShoes?$CJ?$AA@
CONST	SEGMENT DWORD USE32 PUBLIC 'CONST'
CONST	ENDS
;	COMDAT ??_C@_09FHFEECAJ@?$LA?K?$CISword?$CJ?$AA@
CONST	SEGMENT DWORD USE32 PUBLIC 'CONST'
CONST	ENDS
;	COMDAT ??_C@_09OKCECIDN@?$LF?$LF?$CIBlade?$CJ?$AA@
CONST	SEGMENT DWORD USE32 PUBLIC 'CONST'
CONST	ENDS
;	COMDAT ??_C@_0N@DPDAHAMA@?$LJ?f?F?P?$CIShield?$CJ?$AA@
CONST	SEGMENT DWORD USE32 PUBLIC 'CONST'
CONST	ENDS
;	COMDAT ??_C@_0O@MAMEHFBK@?E?$KJ?$LH?N?$LN?$LK?$CICross?$CJ?$AA@
CONST	SEGMENT DWORD USE32 PUBLIC 'CONST'
CONST	ENDS
;	COMDAT ??_C@_0O@KJNPLHE@?$LB?$NL?$LH?$KP?$LK?j?$CIGlove?$CJ?$AA@
CONST	SEGMENT DWORD USE32 PUBLIC 'CONST'
CONST	ENDS
;	COMDAT ??_C@_0L@BFBHOAOG@?G?o?$LI?d?$CIHelm?$CJ?$AA@
CONST	SEGMENT DWORD USE32 PUBLIC 'CONST'
CONST	ENDS
;	COMDAT ??_C@_0BA@PJIMNBHN@?$LN?$LN?$LH?$LJ?$MA?L?$LO?n?5?C?Q?$CISG?$CJ?$AA@
CONST	SEGMENT DWORD USE32 PUBLIC 'CONST'
CONST	ENDS
;	COMDAT ??_C@_0BB@EHPPBIPF@?$LN?$LN?$LH?$LJ?$MA?L?$LO?n?5?C?Q?$CISMG?$CJ?$AA@
CONST	SEGMENT DWORD USE32 PUBLIC 'CONST'
CONST	ENDS
;	COMDAT ??_C@_0BA@BJHBCPPC@?$LN?$LN?$LH?$LJ?$MA?L?$LO?n?5?C?Q?$CIAR?$CJ?$AA@
CONST	SEGMENT DWORD USE32 PUBLIC 'CONST'
CONST	ENDS
;	COMDAT ??_C@_0BA@ODGBLAOG@?$LN?$LN?$LH?$LJ?$MA?L?$LO?n?5?C?Q?$CISR?$CJ?$AA@
CONST	SEGMENT DWORD USE32 PUBLIC 'CONST'
CONST	ENDS
;	COMDAT ??_C@_0BE@EIPICMLP@?$LN?$LN?$LH?$LJ?$MA?L?$LO?n?5?F?x?E?$LK?$CIBOMB?$CJ?$AA@
CONST	SEGMENT DWORD USE32 PUBLIC 'CONST'
CONST	ENDS
;	COMDAT ??_C@_0L@JGDDEPOI@MINE?$CIMine?$CJ?$AA@
CONST	SEGMENT DWORD USE32 PUBLIC 'CONST'
CONST	ENDS
;	COMDAT ??_C@_0L@JPJMMFLN@?$LK?$KH?F?$KO?$CIBelt?$CJ?$AA@
CONST	SEGMENT DWORD USE32 PUBLIC 'CONST'
CONST	ENDS
;	COMDAT ??_C@_0BJ@JLHHGBEK@?G?P?$LN?$MA?$LO?F?$MA?L?E?$NL?$CILearningItem?$CJ?$AA@
CONST	SEGMENT DWORD USE32 PUBLIC 'CONST'
CONST	ENDS
;	COMDAT ??_C@_09JLNOKIFM@?$LF?$LH?$CIMoney?$CJ?$AA@
CONST	SEGMENT DWORD USE32 PUBLIC 'CONST'
CONST	ENDS
;	COMDAT ??_C@_0N@LECCDGPD@?$LN?C?C?$LM?$CICorpse?$CJ?$AA@
CONST	SEGMENT DWORD USE32 PUBLIC 'CONST'
CONST	ENDS
;	COMDAT ??_C@_0BK@OHHAJJJO@?$LJ?l?F?D?$MA?L?$LO?n?5?$LI?$LF?$CIVampire?5Ring?$CJ?$AA@
CONST	SEGMENT DWORD USE32 PUBLIC 'CONST'
CONST	ENDS
;	COMDAT ??_C@_0CG@IDFEMGDC@?$LJ?l?F?D?$MA?L?$LO?n?5?$LK?j?$LH?$LJ?$MA?L?$LN?$LN?$LI?$LE?$CIVampire?5Brac@
CONST	SEGMENT DWORD USE32 PUBLIC 'CONST'
CONST	ENDS
;	COMDAT ??_C@_0CE@JNIALBCG@?$LJ?l?F?D?$MA?L?$LO?n?5?$LD?W?E?$KJ?$LI?$KO?$LN?$LK?$CIVampire?5Neckla@
CONST	SEGMENT DWORD USE32 PUBLIC 'CONST'
CONST	ENDS
;	COMDAT ??_C@_0BM@CHKEGMDJ@?$LJ?l?F?D?$MA?L?$LO?n?5?D?Z?F?$KO?$CIVampire?5Coat?$CJ?$AA@
CONST	SEGMENT DWORD USE32 PUBLIC 'CONST'
CONST	ENDS
;	COMDAT ??_C@_0M@FCFKCOK@?G?X?$LA?q?$CISkull?$CJ?$AA@
CONST	SEGMENT DWORD USE32 PUBLIC 'CONST'
CONST	ENDS
;	COMDAT ??_C@_0N@ENCOJFFJ@?$LI?$NO?$MA?L?$LN?$LK?$CIMace?$CJ?$AA@
CONST	SEGMENT DWORD USE32 PUBLIC 'CONST'
CONST	ENDS
;	COMDAT ??_C@_0M@OCHKKBLL@?G?w?C?$LL?$CISerum?$CJ?$AA@
CONST	SEGMENT DWORD USE32 PUBLIC 'CONST'
CONST	ENDS
;	COMDAT ??_C@_0BL@FNHGDHKN@?$LJ?l?F?D?$MA?L?$LO?n?5?$LB?b?E?$LI?$CIVampire?5Etc?$CJ?$AA@
CONST	SEGMENT DWORD USE32 PUBLIC 'CONST'
CONST	ENDS
;	COMDAT ??_C@_0BN@BCKOECP@?$LN?$LN?$LH?$LJ?$MA?L?$LO?n?5?F?w?E?$LL?$CISlayer?5Portal?$CJ?$AA@
CONST	SEGMENT DWORD USE32 PUBLIC 'CONST'
CONST	ENDS
;	COMDAT ??_C@_0BO@EHLLPAGA@?$LJ?l?F?D?$MA?L?$LO?n?5?F?w?E?$LL?$CIVampire?5Portal?$CJ?$AA@
CONST	SEGMENT DWORD USE32 PUBLIC 'CONST'
CONST	ENDS
;	COMDAT ??_C@_0BM@EBOGENEK@?$MA?L?$LK?$KF?F?$KO?5?$LJ?Z?$LN?$LK?$CIEvent?5Gift?5Box?$CJ?$AA@
CONST	SEGMENT DWORD USE32 PUBLIC 'CONST'
CONST	ENDS
;	COMDAT ??_C@_0BI@CGDIOKMJ@?$MA?L?$LK?$KF?F?$KO?5?$LN?$LK?E?$LI?$CIEvent?5Star?$CJ?$AA@
CONST	SEGMENT DWORD USE32 PUBLIC 'CONST'
CONST	ENDS
;	COMDAT ??_C@_0CB@DDDPANMB@?$LJ?l?F?D?$MA?L?$LO?n?5?$LB?M?$LA?I?$MA?L?$CIVampire?5Earring?$CJ@
CONST	SEGMENT DWORD USE32 PUBLIC 'CONST'
CONST	ENDS
;	COMDAT ??_C@_0M@FOFHBIKD@?$MA?$KP?$LJ?$LA?$CIRelic?$CJ?$AA@
CONST	SEGMENT DWORD USE32 PUBLIC 'CONST'
CONST	ENDS
;	COMDAT ??_C@_0BO@OFMMIION@?$LJ?l?F?D?$MA?L?$LO?n?5?$LJ?$KL?$LB?b?$CIVampire?5Weapon?$CJ?$AA@
CONST	SEGMENT DWORD USE32 PUBLIC 'CONST'
CONST	ENDS
;	COMDAT ??_C@_0CA@CBFMIFJL@?$LJ?l?F?D?$MA?L?$LO?n?5?$LO?F?$LJ?D?$LH?$LP?$CIVampire?5Amulet?$CJ?$AA@
CONST	SEGMENT DWORD USE32 PUBLIC 'CONST'
CONST	ENDS
;	COMDAT ??_C@_0BK@KIPPCBIN@?D?y?$LN?$LK?F?$KO?5?$LO?F?$MA?L?E?$NL?$CIQuest?5Item?$CJ?$AA@
CONST	SEGMENT DWORD USE32 PUBLIC 'CONST'
CONST	ENDS
;	COMDAT ??_C@_0BI@NMAPKBIE@?$MA?L?$LK?$KF?F?$KO?5?$LD?$KK?$LJ?$KL?$CIEvent?5Tree?$CJ?$AA@
CONST	SEGMENT DWORD USE32 PUBLIC 'CONST'
CONST	ENDS
;	COMDAT ??_C@_0BH@PADBDEPC@?$MA?L?$LK?$KF?F?$KO?5?$LB?b?E?$LI?$CIEvent?5Etc?$CJ?$AA@
CONST	SEGMENT DWORD USE32 PUBLIC 'CONST'
CONST	ENDS
;	COMDAT ??_C@_0BH@HLENPLIP@?G?G?$MA?G?5?$LM?$LK?$LM?$KN?$CIBlood?5Bible?$CJ?$AA@
CONST	SEGMENT DWORD USE32 PUBLIC 'CONST'
CONST	ENDS
;	COMDAT ??_C@_0BJ@GFCLCGHO@?$LM?$LK?5?$LL?s?B?$KB?$LJ?$LA?$CICastle?5Symbol?$CJ?$AA@
CONST	SEGMENT DWORD USE32 PUBLIC 'CONST'
CONST	ENDS
;	COMDAT ??_C@_0BE@BFGNFFKD@?D?$LP?G?C?$LI?$LF?$CICouple?5Ring?$CJ?$AA@
CONST	SEGMENT DWORD USE32 PUBLIC 'CONST'
CONST	ENDS
;	COMDAT ??_C@_0BN@KFCDDFNO@?$LJ?l?F?D?$MA?L?$LO?n?5?D?$LP?G?C?$LI?$LF?$CICouple?5Ring?$CJ?$AA@
CONST	SEGMENT DWORD USE32 PUBLIC 'CONST'
CONST	ENDS
;	COMDAT ??_C@_0BK@LJHNHLAD@?$MA?L?$LK?$KF?F?$KO?5?$LO?F?$MA?L?E?$NL?$CIEvent?5Item?$CJ?$AA@
CONST	SEGMENT DWORD USE32 PUBLIC 'CONST'
CONST	ENDS
;	COMDAT ??_C@_0BB@PGMCBEGB@?$LP?$LA?$LH?a?$CIDye?5Potion?$CJ?$AA@
CONST	SEGMENT DWORD USE32 PUBLIC 'CONST'
CONST	ENDS
;	COMDAT ??_C@_0BM@PLIMEBKI@?$LK?N?H?$LA?5?$LO?F?$MA?L?E?$NL?$CIResurrect?5Item?$CJ?$AA@
CONST	SEGMENT DWORD USE32 PUBLIC 'CONST'
CONST	ENDS
;	COMDAT ??_C@_0BJ@CIPEIBLN@?$LJ?M?$LN?L?5?$LO?F?$MA?L?E?$NL?$CIMixing?5Item?$CJ?$AA@
CONST	SEGMENT DWORD USE32 PUBLIC 'CONST'
CONST	ENDS
;	COMDAT ??_C@_0CG@FFJBGKKJ@?$LO?F?$LP?l?$LN?$LK?E?M?A?n?5?$LO?O?$LN?$LK?$LJ?j?$LF?e?$CIOusters?5Arms@
CONST	SEGMENT DWORD USE32 PUBLIC 'CONST'
CONST	ENDS
;	COMDAT ??_C@_0BP@LFDHIKMD@?$LO?F?$LP?l?$LN?$LK?E?M?A?n?5?$LK?N?C?w?$CIOusters?5Boots?$CJ?$AA@
CONST	SEGMENT DWORD USE32 PUBLIC 'CONST'
CONST	ENDS
;	COMDAT ??_C@_0CD@EMDMEEEH@?$LO?F?$LP?l?$LN?$LK?E?M?A?n?5?C?$KN?E?$KJ?$LG?w?$CIOusters?5Chakra@
CONST	SEGMENT DWORD USE32 PUBLIC 'CONST'
CONST	ENDS
;	COMDAT ??_C@_0CD@EHEHLAFE@?$LO?F?$LP?l?$LN?$LK?E?M?A?n?5?$LM?$KN?E?$KM?$LI?$LE?$CIOusters?5Circle@
CONST	SEGMENT DWORD USE32 PUBLIC 'CONST'
CONST	ENDS
;	COMDAT ??_C@_0BO@OGBEGNBB@?$LO?F?$LP?l?$LN?$LK?E?M?A?n?5?D?Z?F?$KO?$CIOusters?5Coat?$CJ?$AA@
CONST	SEGMENT DWORD USE32 PUBLIC 'CONST'
CONST	ENDS
;	COMDAT ??_C@_0CD@NHFKMPPA@?$LO?F?$LP?l?$LN?$LK?E?M?A?n?5?F?R?$LE?x?F?$KO?$CIOusters?5Penden@
CONST	SEGMENT DWORD USE32 PUBLIC 'CONST'
CONST	ENDS
;	COMDAT ??_C@_0BO@NCMOFEPN@?$LO?F?$LP?l?$LN?$LK?E?M?A?n?5?$LJ?$NN?A?v?$CIOusters?5Ring?$CJ?$AA@
CONST	SEGMENT DWORD USE32 PUBLIC 'CONST'
CONST	ENDS
;	COMDAT ??_C@_0BP@NEOJGDCE@?$LO?F?$LP?l?$LN?$LK?E?M?A?n?5?$LN?$LK?E?f?$CIOusters?5Stone?$CJ?$AA@
CONST	SEGMENT DWORD USE32 PUBLIC 'CONST'
CONST	ENDS
;	COMDAT ??_C@_0CG@LPDHABLE@?$LO?F?$LP?l?$LN?$LK?E?M?A?n?5?$LI?$KO?$LN?$LK?F?$LC?$LI?$LE?$CIOusters?5Wris@
CONST	SEGMENT DWORD USE32 PUBLIC 'CONST'
CONST	ENDS
;	COMDAT ??_C@_0M@GPBKFLGK@?$LG?s?$LJ?Y?$CILarva?$CJ?$AA@
CONST	SEGMENT DWORD USE32 PUBLIC 'CONST'
CONST	ENDS
;	COMDAT ??_C@_0L@DACDFACE@?G?$KK?F?D?$CIPupa?$CJ?$AA@
CONST	SEGMENT DWORD USE32 PUBLIC 'CONST'
CONST	ENDS
;	COMDAT ??_C@_0BB@EODBKKBJ@?$LI?$NO?$MA?L?$CICompos?5Mei?$CJ?$AA@
CONST	SEGMENT DWORD USE32 PUBLIC 'CONST'
CONST	ENDS
;	COMDAT ??_C@_0CD@CAGAMFFG@?$LO?F?$LP?l?$LN?$LK?E?M?A?n?5?A?$KK?$CIOusters?5Summon?5Ite@
CONST	SEGMENT DWORD USE32 PUBLIC 'CONST'
CONST	ENDS
;	COMDAT ??_C@_0BJ@KFGOEMKG@?H?$LP?$LA?z?5?$LO?F?$MA?L?E?$NL?$CIEffect?5Item?$CJ?$AA@
CONST	SEGMENT DWORD USE32 PUBLIC 'CONST'
CONST	ENDS
;	COMDAT ??_C@_0BE@HJOJCNGC@?D?Z?$LF?e?5?G?$KF?$CICode?5Sheet?$CJ?$AA@
CONST	SEGMENT DWORD USE32 PUBLIC 'CONST'
CONST	ENDS
;	COMDAT ??_C@_0BF@FFHGJFI@?$LE?$NO?$MA?G?5?D?$KL?$LF?e?$CIMoon?5Card?$CJ?$AA@
CONST	SEGMENT DWORD USE32 PUBLIC 'CONST'
CONST	ENDS
;	COMDAT ??_C@_0BA@LLOAIPKA@?$LN?$LK?$MA?$KH?F?$NL?$CISweeper?$CJ?$AA@
CONST	SEGMENT DWORD USE32 PUBLIC 'CONST'
CONST	ENDS
;	COMDAT ??_C@_0BE@BIPNBNG@?F?j?5?$LO?F?$MA?L?E?$NL?$CIPet?5Item?$CJ?$AA@
CONST	SEGMENT DWORD USE32 PUBLIC 'CONST'
CONST	ENDS
;	COMDAT ??_C@_0BC@IJGKNNI@?F?j?5?$LI?T?$MA?L?$CIPet?5Food?$CJ?$AA@
CONST	SEGMENT DWORD USE32 PUBLIC 'CONST'
CONST	ENDS
;	COMDAT ??_C@_0BH@GJDAMLBE@?F?j?5?$MA?N?C?$LO?F?$KO?$CIPet?5Enchant?$CJ?$AA@
CONST	SEGMENT DWORD USE32 PUBLIC 'CONST'
CONST	ENDS
;	COMDAT ??_C@_0BF@JKPKDELO@?$LK?$LJ?5?A?V?$LI?S?$LE?O?$CILucky?5Bag?$CJ?$AA@
CONST	SEGMENT DWORD USE32 PUBLIC 'CONST'
CONST	ENDS
;	COMDAT ??_C@_0BG@COHMFFFK@?$MA?$PM?$LM?$NL?5?$LO?F?$MA?L?E?$NL?$CISms?5Item?$CJ?$AA@
CONST	SEGMENT DWORD USE32 PUBLIC 'CONST'
CONST	ENDS
;	COMDAT ??_C@_0BB@CCAKECMG@?D?Z?$LO?n?$MA?l?$CICore?5Zap?$CJ?$AA@
CONST	SEGMENT DWORD USE32 PUBLIC 'CONST'
CONST	ENDS
;	COMDAT ??_C@_0BH@NKBBFAOF@?G?T?A?$KE?5?$LO?F?$MA?L?E?$NL?$CITrap?5Item?$CJ?$AA@
CONST	SEGMENT DWORD USE32 PUBLIC 'CONST'
CONST	ENDS
;	COMDAT ??_C@_0BO@KIHEKAFG@?G?G?$MA?G?5?$LA?h?$LO?$OA?$LM?$KN?$CIBlood?5Bible?5Sign?$CJ?$AA@
CONST	SEGMENT DWORD USE32 PUBLIC 'CONST'
CONST	ENDS
;	COMDAT ??_C@_0BG@MNFDCAIF@?$MA?$PM?$MA?o?5?$LO?F?$MA?L?E?$NL?$CIWar?5Item?$CJ?$AA@
CONST	SEGMENT DWORD USE32 PUBLIC 'CONST'
CONST	ENDS
;	COMDAT ??_C@_0CD@NEBFGDOI@2?B?w?5?$MA?$PM?A?w?5?$LO?F?$MA?L?E?$NL?$CICarrying?5Receive@
CONST	SEGMENT DWORD USE32 PUBLIC 'CONST'
CONST	ENDS
;	COMDAT ??_C@_0BK@LFPPGHAG@?$LO?n?$LB?z?5?$LA?$KJ?$LP?J?$CIShoulder?5Armor?$CJ?$AA@
CONST	SEGMENT DWORD USE32 PUBLIC 'CONST'
CONST	ENDS
;	COMDAT ??_C@_0N@FBJGEDKA@?G?G?$LK?N?$CIDermis?$CJ?$AA@
CONST	SEGMENT DWORD USE32 PUBLIC 'CONST'
CONST	ENDS
;	COMDAT ??_C@_0BC@GHMCIKMF@?F?d?$LI?$KD?$LM?R?$LD?$KK?$CIPersona?$CJ?$AA@
CONST	SEGMENT DWORD USE32 PUBLIC 'CONST'
CONST	ENDS
;	COMDAT ??_C@_0P@EBINHADL@?F?d?$MA?L?$LL?$PO?$CIFascia?$CJ?$AA@
CONST	SEGMENT DWORD USE32 PUBLIC 'CONST'
CONST	ENDS
;	COMDAT ??_C@_0N@DEBFKPDI@?$MA?e?$LA?$KJ?$CIMitten?$CJ?$AA@
CONST	SEGMENT DWORD USE32 PUBLIC 'CONST'
CONST	ENDS
;	COMDAT ??_C@_0BN@ODEGHBGC@?$LM?$KN?$LK?j?5?$MA?N?$LK?$KF?E?d?$LI?$KO?$CISub?5Inventory?$CJ?$AA@
CONST	SEGMENT DWORD USE32 PUBLIC 'CONST'
CONST	ENDS
;	COMDAT ??_C@_0BP@CJPMIEBF@?D?$LP?$LI?s?5?D?y?$LN?$LK?F?$KO?$CICommon?5Quest?5Item?$CJ?$AA@
CONST	SEGMENT DWORD USE32 PUBLIC 'CONST'
CONST	ENDS
;	COMDAT ??_C@_0BO@NHDMHMBF@?$LP?$KB?E?W?$LI?$KO?$LO?s?5?C?$LM?$MA?N?$CIEthereal?5Chain?$CJ?$AA@
CONST	SEGMENT DWORD USE32 PUBLIC 'CONST'
CONST	ENDS
;	COMDAT ??_C@_0CA@JDGMJEMI@?$LA?a?$LM?S?$MA?G?5?F?f?$LE?x?F?$KO?$CIHarmonic?5Pendent?$CJ?$AA@
CONST	SEGMENT DWORD USE32 PUBLIC 'CONST'
CONST	ENDS
;	COMDAT ??_C@_0BC@FPPFLIBD@?$LM?v?G?$KF?$CICheck?5Money?$CJ?$AA@
CONST	SEGMENT DWORD USE32 PUBLIC 'CONST'
CONST	ENDS
;	COMDAT ??_C@_0BK@GMHLCFHP@?E?$KF?5?$LP?$MA?$LK?j?5?$LO?F?$LE?c?$CICue?5Of?5Adam?$CJ?$AA@
CONST	SEGMENT DWORD USE32 PUBLIC 'CONST'
CONST	ENDS
;	COMDAT ??_C@_0BP@PEIAKPEO@?G?G?$MA?G?5?$LA?h?$LO?$OA?$LM?$KN?$CIContract?5Of?5Blood?$CJ?$AA@
CONST	SEGMENT DWORD USE32 PUBLIC 'CONST'
CONST	ENDS
;	COMDAT ??_C@_0BD@KAHKONNF@?$LN?$LK?E?$LD?$LK?O?$CISkill?5Book?$CJ?$AA@
CONST	SEGMENT DWORD USE32 PUBLIC 'CONST'
CONST	ENDS
;	COMDAT ??_C@_0CI@FBPNNIJE@?$LJ?l?F?D?$MA?L?$LO?n?5?$LN?E?$LB?T?$MA?L?$LF?$LP?$LM?v?$LE?$NM?$CIVampirewin@
CONST	SEGMENT DWORD USE32 PUBLIC 'CONST'
CONST	ENDS
;	COMDAT ??_C@_0CK@LPDIDGDG@?$LO?F?$LP?l?$LN?$LK?E?M?A?n?5?$LN?E?$LB?T?$MA?L?$LF?$LP?$LM?v?$LE?$NM?$CIOustersw@
CONST	SEGMENT DWORD USE32 PUBLIC 'CONST'
CONST	ENDS
;	COMDAT ??_C@_0CD@JFCNBGKC@?F?$KJ?$LE?W?$LO?F?$MA?L?E?$NL?9?$LN?$LN?$LH?$LJ?$MA?L?$LO?n?$CITuning?5Slaye@
CONST	SEGMENT DWORD USE32 PUBLIC 'CONST'
CONST	ENDS
;	COMDAT ??_C@_0CE@FGKLHLFP@?F?$KJ?$LE?W?$LO?F?$MA?L?E?$NL?9?$LJ?l?F?D?$MA?L?$LO?n?$CITuning?5Vampi@
CONST	SEGMENT DWORD USE32 PUBLIC 'CONST'
CONST	ENDS
;	COMDAT ??_C@_0CG@CODFJBGO@?F?$KJ?$LE?W?$LO?F?$MA?L?E?$NL?9?$LO?F?$LP?l?$LN?$LK?E?M?A?n?$CITuning?5Ous@
CONST	SEGMENT DWORD USE32 PUBLIC 'CONST'
CONST	ENDS
;	COMDAT ??_C@_0BN@PKEMEDFK@?D?$NN?$LP?$KD?G?G?$LN?C?$LO?F?$MA?L?E?$NL?$CICallNPC?5item?$CJ?$AA@
CONST	SEGMENT DWORD USE32 PUBLIC 'CONST'
CONST	ENDS
;	COMDAT ??_C@_0BD@ENBONDBM@?$LN?W?$LM?$LG?$LB?$KG?J?$KP?$CIRank?5Gem?$CJ?$AA@
CONST	SEGMENT DWORD USE32 PUBLIC 'CONST'
CONST	ENDS
;	COMDAT ??_C@_0O@JKENFCBN@MinTrace?52003?$AA@
CONST	SEGMENT DWORD USE32 PUBLIC 'CONST'
CONST	ENDS
;	COMDAT ??_C@_0BE@MNEJIGLM@__MinTrace?5Window__?$AA@
CONST	SEGMENT DWORD USE32 PUBLIC 'CONST'
CONST	ENDS
;	COMDAT ??_C@_06KLPNNMEP@?$CF8d?0?$CFs?$AA@
CONST	SEGMENT DWORD USE32 PUBLIC 'CONST'
CONST	ENDS
;	COMDAT ??_C@_0N@GOPDCEEB@basic_string?$AA@
CONST	SEGMENT DWORD USE32 PUBLIC 'CONST'
CONST	ENDS
rdata$r	SEGMENT DWORD USE32 PUBLIC 'CONST'
rdata$r	ENDS
text$yc	SEGMENT PARA USE32 PUBLIC 'CODE'
text$yc	ENDS
CRT$XCA	SEGMENT DWORD USE32 PUBLIC 'DATA'
CRT$XCA	ENDS
CRT$XCU	SEGMENT DWORD USE32 PUBLIC 'DATA'
CRT$XCU	ENDS
CRT$XCL	SEGMENT DWORD USE32 PUBLIC 'DATA'
CRT$XCL	ENDS
CRT$XCC	SEGMENT DWORD USE32 PUBLIC 'DATA'
CRT$XCC	ENDS
CRT$XCZ	SEGMENT DWORD USE32 PUBLIC 'DATA'
CRT$XCZ	ENDS
text$yd	SEGMENT PARA USE32 PUBLIC 'CODE'
text$yd	ENDS
;	COMDAT ?start@CNFS@@QAE_NPADH@Z
_TEXT	SEGMENT PARA USE32 PUBLIC 'CODE'
_TEXT	ENDS
;	COMDAT ?end@CNFS@@QAEXXZ
_TEXT	SEGMENT PARA USE32 PUBLIC 'CODE'
_TEXT	ENDS
;	COMDAT ?Init@VirtualFileHeader@@QAEXXZ
_TEXT	SEGMENT PARA USE32 PUBLIC 'CODE'
_TEXT	ENDS
;	COMDAT ??1IFileIO@@UAE@XZ
_TEXT	SEGMENT PARA USE32 PUBLIC 'CODE'
_TEXT	ENDS
;	COMDAT ??_GIFileIO@@UAEPAXI@Z
_TEXT	SEGMENT PARA USE32 PUBLIC 'CODE'
_TEXT	ENDS
;	COMDAT ??0iovfs_base@@QAE@XZ
_TEXT	SEGMENT PARA USE32 PUBLIC 'CODE'
_TEXT	ENDS
;	COMDAT ??_Giovfs_base@@UAEPAXI@Z
_TEXT	SEGMENT PARA USE32 PUBLIC 'CODE'
_TEXT	ENDS
;	COMDAT ??1iovfs_base@@UAE@XZ
_TEXT	SEGMENT PARA USE32 PUBLIC 'CODE'
_TEXT	ENDS
;	COMDAT ?Init@iovfs_base@@QAEXXZ
_TEXT	SEGMENT PARA USE32 PUBLIC 'CODE'
_TEXT	ENDS
;	COMDAT ??_Givfstream@@UAEPAXI@Z
_TEXT	SEGMENT PARA USE32 PUBLIC 'CODE'
_TEXT	ENDS
;	COMDAT ??1ivfstream@@UAE@XZ
_TEXT	SEGMENT PARA USE32 PUBLIC 'CODE'
_TEXT	ENDS
;	COMDAT ?open@ivfstream@@UAEXPBDH@Z
_TEXT	SEGMENT PARA USE32 PUBLIC 'CODE'
_TEXT	ENDS
;	COMDAT ?read@ivfstream@@QAEXPADI@Z
_TEXT	SEGMENT PARA USE32 PUBLIC 'CODE'
_TEXT	ENDS
;	COMDAT ??_Govfstream@@UAEPAXI@Z
_TEXT	SEGMENT PARA USE32 PUBLIC 'CODE'
_TEXT	ENDS
;	COMDAT ??1ovfstream@@UAE@XZ
_TEXT	SEGMENT PARA USE32 PUBLIC 'CODE'
_TEXT	ENDS
;	COMDAT ?open@ovfstream@@UAEXPBDH@Z
_TEXT	SEGMENT PARA USE32 PUBLIC 'CODE'
_TEXT	ENDS
;	COMDAT ?GetItemClass@MItem@@UBE?AW4ITEM_CLASS@@XZ
_TEXT	SEGMENT PARA USE32 PUBLIC 'CODE'
_TEXT	ENDS
;	COMDAT ?SetItemType@MItem@@UAEXG@Z
_TEXT	SEGMENT PARA USE32 PUBLIC 'CODE'
_TEXT	ENDS
;	COMDAT ?GetItemType@MItem@@QBEGXZ
_TEXT	SEGMENT PARA USE32 PUBLIC 'CODE'
_TEXT	ENDS
;	COMDAT ?IsRepairableItem@MItem@@UBE_NXZ
_TEXT	SEGMENT PARA USE32 PUBLIC 'CODE'
_TEXT	ENDS
;	COMDAT ?IsAdvancementClassItem@MItem@@UBE_NXZ
_TEXT	SEGMENT PARA USE32 PUBLIC 'CODE'
_TEXT	ENDS
;	COMDAT ?IsContainerItem@MItem@@UBE_NXZ
_TEXT	SEGMENT PARA USE32 PUBLIC 'CODE'
_TEXT	ENDS
;	COMDAT ?IsPileItem@MItem@@UBE_NXZ
_TEXT	SEGMENT PARA USE32 PUBLIC 'CODE'
_TEXT	ENDS
;	COMDAT ?IsDetachableItem@MItem@@UBE_NXZ
_TEXT	SEGMENT PARA USE32 PUBLIC 'CODE'
_TEXT	ENDS
;	COMDAT ?IsChargeItem@MItem@@UBE_NXZ
_TEXT	SEGMENT PARA USE32 PUBLIC 'CODE'
_TEXT	ENDS
;	COMDAT ?IsGearItem@MItem@@UBE_NXZ
_TEXT	SEGMENT PARA USE32 PUBLIC 'CODE'
_TEXT	ENDS
;	COMDAT ?IsAddonItem@MItem@@UBE_NXZ
_TEXT	SEGMENT PARA USE32 PUBLIC 'CODE'
_TEXT	ENDS
;	COMDAT ?IsBasicWeapon@MItem@@UBE_NXZ
_TEXT	SEGMENT PARA USE32 PUBLIC 'CODE'
_TEXT	ENDS
;	COMDAT ?IsGunItem@MItem@@UBE_NXZ
_TEXT	SEGMENT PARA USE32 PUBLIC 'CODE'
_TEXT	ENDS
;	COMDAT ?IsMeleeWeapon@MItem@@UBE_NXZ
_TEXT	SEGMENT PARA USE32 PUBLIC 'CODE'
_TEXT	ENDS
;	COMDAT ?IsMagicWeapon@MItem@@UBE_NXZ
_TEXT	SEGMENT PARA USE32 PUBLIC 'CODE'
_TEXT	ENDS
;	COMDAT ?IsCanAddThirdOptionItem@MItem@@UBE_NXZ
_TEXT	SEGMENT PARA USE32 PUBLIC 'CODE'
_TEXT	ENDS
;	COMDAT ?IsInventoryItem@MItem@@UBE_NXZ
_TEXT	SEGMENT PARA USE32 PUBLIC 'CODE'
_TEXT	ENDS
;	COMDAT ?IsQuickItem@MItem@@UBE_NXZ
_TEXT	SEGMENT PARA USE32 PUBLIC 'CODE'
_TEXT	ENDS
;	COMDAT ?UseInventory@MItem@@UAEXI@Z
_TEXT	SEGMENT PARA USE32 PUBLIC 'CODE'
_TEXT	ENDS
;	COMDAT ?UseQuickItem@MItem@@UAEXXZ
_TEXT	SEGMENT PARA USE32 PUBLIC 'CODE'
_TEXT	ENDS
;	COMDAT ?UseGear@MItem@@UAEXXZ
_TEXT	SEGMENT PARA USE32 PUBLIC 'CODE'
_TEXT	ENDS
;	COMDAT ?HasMagicProtection@MItem@@UBE_NXZ
_TEXT	SEGMENT PARA USE32 PUBLIC 'CODE'
_TEXT	ENDS
;	COMDAT ?GetItemNameColorSet@MItem@@UBEHXZ
_TEXT	SEGMENT PARA USE32 PUBLIC 'CODE'
_TEXT	ENDS
;	COMDAT ?GetGearSlot@MItem@@UBE?AW4ITEM_GEAR_SLOT@1@XZ
_TEXT	SEGMENT PARA USE32 PUBLIC 'CODE'
_TEXT	ENDS
;	COMDAT ?IsGearSlotHelm@MItem@@UBE_NXZ
_TEXT	SEGMENT PARA USE32 PUBLIC 'CODE'
_TEXT	ENDS
;	COMDAT ?IsGearSlotNecklace@MItem@@UBE_NXZ
_TEXT	SEGMENT PARA USE32 PUBLIC 'CODE'
_TEXT	ENDS
;	COMDAT ?IsGearSlotCoat@MItem@@UBE_NXZ
_TEXT	SEGMENT PARA USE32 PUBLIC 'CODE'
_TEXT	ENDS
;	COMDAT ?IsGearSlotLeftHand@MItem@@UBE_NXZ
_TEXT	SEGMENT PARA USE32 PUBLIC 'CODE'
_TEXT	ENDS
;	COMDAT ?IsGearSlotRightHand@MItem@@UBE_NXZ
_TEXT	SEGMENT PARA USE32 PUBLIC 'CODE'
_TEXT	ENDS
;	COMDAT ?IsGearSlotTwoHand@MItem@@UBE_NXZ
_TEXT	SEGMENT PARA USE32 PUBLIC 'CODE'
_TEXT	ENDS
;	COMDAT ?IsGearSlotBelt@MItem@@UBE_NXZ
_TEXT	SEGMENT PARA USE32 PUBLIC 'CODE'
_TEXT	ENDS
;	COMDAT ?IsGearSlotBracelet@MItem@@UBE_NXZ
_TEXT	SEGMENT PARA USE32 PUBLIC 'CODE'
_TEXT	ENDS
;	COMDAT ?IsGearSlotTrouser@MItem@@UBE_NXZ
_TEXT	SEGMENT PARA USE32 PUBLIC 'CODE'
_TEXT	ENDS
;	COMDAT ?IsGearSlotRing@MItem@@UBE_NXZ
_TEXT	SEGMENT PARA USE32 PUBLIC 'CODE'
_TEXT	ENDS
;	COMDAT ?IsGearSlotShoes@MItem@@UBE_NXZ
_TEXT	SEGMENT PARA USE32 PUBLIC 'CODE'
_TEXT	ENDS
;	COMDAT ?IsGearSlotGlove@MItem@@UBE_NXZ
_TEXT	SEGMENT PARA USE32 PUBLIC 'CODE'
_TEXT	ENDS
;	COMDAT ?IsGearSlotCoreZap@MItem@@UBE_NXZ
_TEXT	SEGMENT PARA USE32 PUBLIC 'CODE'
_TEXT	ENDS
;	COMDAT ?IsGearSlotBloodBible@MItem@@UBE_NXZ
_TEXT	SEGMENT PARA USE32 PUBLIC 'CODE'
_TEXT	ENDS
;	COMDAT ?IsGearSlotPDA@MItem@@UBE_NXZ
_TEXT	SEGMENT PARA USE32 PUBLIC 'CODE'
_TEXT	ENDS
;	COMDAT ?IsGearSlotShoulder@MItem@@UBE_NXZ
_TEXT	SEGMENT PARA USE32 PUBLIC 'CODE'
_TEXT	ENDS
;	COMDAT ?IsGearSlotEtherealChain@MItem@@UBE_NXZ
_TEXT	SEGMENT PARA USE32 PUBLIC 'CODE'
_TEXT	ENDS
;	COMDAT ?IsGearSlotCue@MItem@@UBE_NXZ
_TEXT	SEGMENT PARA USE32 PUBLIC 'CODE'
_TEXT	ENDS
;	COMDAT ?IsGearSlotVampireEarRing@MItem@@UBE_NXZ
_TEXT	SEGMENT PARA USE32 PUBLIC 'CODE'
_TEXT	ENDS
;	COMDAT ?IsGearSlotVampireRing@MItem@@UBE_NXZ
_TEXT	SEGMENT PARA USE32 PUBLIC 'CODE'
_TEXT	ENDS
;	COMDAT ?IsGearSlotVampireBracelet@MItem@@UBE_NXZ
_TEXT	SEGMENT PARA USE32 PUBLIC 'CODE'
_TEXT	ENDS
;	COMDAT ?IsGearSlotVampireNecklace@MItem@@UBE_NXZ
_TEXT	SEGMENT PARA USE32 PUBLIC 'CODE'
_TEXT	ENDS
;	COMDAT ?IsGearSlotVampireCoat@MItem@@UBE_NXZ
_TEXT	SEGMENT PARA USE32 PUBLIC 'CODE'
_TEXT	ENDS
;	COMDAT ?IsGearSlotVampireLeftHand@MItem@@UBE_NXZ
_TEXT	SEGMENT PARA USE32 PUBLIC 'CODE'
_TEXT	ENDS
;	COMDAT ?IsGearSlotVampireRightHand@MItem@@UBE_NXZ
_TEXT	SEGMENT PARA USE32 PUBLIC 'CODE'
_TEXT	ENDS
;	COMDAT ?IsGearSlotVampireTwoHand@MItem@@UBE_NXZ
_TEXT	SEGMENT PARA USE32 PUBLIC 'CODE'
_TEXT	ENDS
;	COMDAT ?IsGearSlotVampireAmulet@MItem@@UBE_NXZ
_TEXT	SEGMENT PARA USE32 PUBLIC 'CODE'
_TEXT	ENDS
;	COMDAT ?IsGearSlotVampireCoreZap@MItem@@UBE_NXZ
_TEXT	SEGMENT PARA USE32 PUBLIC 'CODE'
_TEXT	ENDS
;	COMDAT ?IsGearSlotVampireBloodBible@MItem@@UBE_NXZ
_TEXT	SEGMENT PARA USE32 PUBLIC 'CODE'
_TEXT	ENDS
;	COMDAT ?IsGearSlotVampireDermis@MItem@@UBE_NXZ
_TEXT	SEGMENT PARA USE32 PUBLIC 'CODE'
_TEXT	ENDS
;	COMDAT ?IsGearSlotVampirePersona@MItem@@UBE_NXZ
_TEXT	SEGMENT PARA USE32 PUBLIC 'CODE'
_TEXT	ENDS
;	COMDAT ?IsGearSlotVampireEtherealChain@MItem@@UBE_NXZ
_TEXT	SEGMENT PARA USE32 PUBLIC 'CODE'
_TEXT	ENDS
;	COMDAT ?IsGearSlotVampireCue@MItem@@UBE_NXZ
_TEXT	SEGMENT PARA USE32 PUBLIC 'CODE'
_TEXT	ENDS
;	COMDAT ?IsGearSlotOustersCirclet@MItem@@UBE_NXZ
_TEXT	SEGMENT PARA USE32 PUBLIC 'CODE'
_TEXT	ENDS
;	COMDAT ?IsGearSlotOustersCoat@MItem@@UBE_NXZ
_TEXT	SEGMENT PARA USE32 PUBLIC 'CODE'
_TEXT	ENDS
;	COMDAT ?IsGearSlotOustersLeftHand@MItem@@UBE_NXZ
_TEXT	SEGMENT PARA USE32 PUBLIC 'CODE'
_TEXT	ENDS
;	COMDAT ?IsGearSlotOustersRightHand@MItem@@UBE_NXZ
_TEXT	SEGMENT PARA USE32 PUBLIC 'CODE'
_TEXT	ENDS
;	COMDAT ?IsGearSlotOustersTwoHand@MItem@@UBE_NXZ
_TEXT	SEGMENT PARA USE32 PUBLIC 'CODE'
_TEXT	ENDS
;	COMDAT ?IsGearSlotOustersBoots@MItem@@UBE_NXZ
_TEXT	SEGMENT PARA USE32 PUBLIC 'CODE'
_TEXT	ENDS
;	COMDAT ?IsGearSlotOustersArmsBand@MItem@@UBE_NXZ
_TEXT	SEGMENT PARA USE32 PUBLIC 'CODE'
_TEXT	ENDS
;	COMDAT ?IsGearSlotOustersRing@MItem@@UBE_NXZ
_TEXT	SEGMENT PARA USE32 PUBLIC 'CODE'
_TEXT	ENDS
;	COMDAT ?IsGearSlotOustersPendent@MItem@@UBE_NXZ
_TEXT	SEGMENT PARA USE32 PUBLIC 'CODE'
_TEXT	ENDS
;	COMDAT ?IsGearSlotOustersStone@MItem@@UBE_NXZ
_TEXT	SEGMENT PARA USE32 PUBLIC 'CODE'
_TEXT	ENDS
;	COMDAT ?IsGearSlotOustersCoreZap@MItem@@UBE_NXZ
_TEXT	SEGMENT PARA USE32 PUBLIC 'CODE'
_TEXT	ENDS
;	COMDAT ?IsGearSlotOustersBloodBible@MItem@@UBE_NXZ
_TEXT	SEGMENT PARA USE32 PUBLIC 'CODE'
_TEXT	ENDS
;	COMDAT ?IsGearSlotOustersFascia@MItem@@UBE_NXZ
_TEXT	SEGMENT PARA USE32 PUBLIC 'CODE'
_TEXT	ENDS
;	COMDAT ?IsGearSlotOustersMitten@MItem@@UBE_NXZ
_TEXT	SEGMENT PARA USE32 PUBLIC 'CODE'
_TEXT	ENDS
;	COMDAT ?IsGearSlotOustersEtherealChain@MItem@@UBE_NXZ
_TEXT	SEGMENT PARA USE32 PUBLIC 'CODE'
_TEXT	ENDS
;	COMDAT ?IsGearSlotOustersCue@MItem@@UBE_NXZ
_TEXT	SEGMENT PARA USE32 PUBLIC 'CODE'
_TEXT	ENDS
;	COMDAT ?IsDurationAlwaysOkay@MItem@@UBE_NXZ
_TEXT	SEGMENT PARA USE32 PUBLIC 'CODE'
_TEXT	ENDS
;	COMDAT ?GetAddonSlot@MItem@@UBE?AW4ADDON@@XZ
_TEXT	SEGMENT PARA USE32 PUBLIC 'CODE'
_TEXT	ENDS
;	COMDAT ?SetCurrentDurability@MItem@@UAEXI@Z
_TEXT	SEGMENT PARA USE32 PUBLIC 'CODE'
_TEXT	ENDS
;	COMDAT ?GetNumber@MItem@@UBEIXZ
_TEXT	SEGMENT PARA USE32 PUBLIC 'CODE'
_TEXT	ENDS
;	COMDAT ?SetNumber@MItem@@UAEXI@Z
_TEXT	SEGMENT PARA USE32 PUBLIC 'CODE'
_TEXT	ENDS
;	COMDAT ?GetMaxNumber@MItem@@UBEIXZ
_TEXT	SEGMENT PARA USE32 PUBLIC 'CODE'
_TEXT	ENDS
;	COMDAT ?GetMaxDurability@MItem@@UBEHXZ
_TEXT	SEGMENT PARA USE32 PUBLIC 'CODE'
_TEXT	ENDS
;	COMDAT ?GetCarryingCapacity@MItem@@UBEHXZ
_TEXT	SEGMENT PARA USE32 PUBLIC 'CODE'
_TEXT	ENDS
;	COMDAT ?GetProtectionValue@MItem@@UBEHXZ
_TEXT	SEGMENT PARA USE32 PUBLIC 'CODE'
_TEXT	ENDS
;	COMDAT ?GetDefenseValue@MItem@@UBEHXZ
_TEXT	SEGMENT PARA USE32 PUBLIC 'CODE'
_TEXT	ENDS
;	COMDAT ?GetPocketNumber@MItem@@UBEHXZ
_TEXT	SEGMENT PARA USE32 PUBLIC 'CODE'
_TEXT	ENDS
;	COMDAT ?GetMinDamage@MItem@@UBEHXZ
_TEXT	SEGMENT PARA USE32 PUBLIC 'CODE'
_TEXT	ENDS
;	COMDAT ?GetMaxDamage@MItem@@UBEHXZ
_TEXT	SEGMENT PARA USE32 PUBLIC 'CODE'
_TEXT	ENDS
;	COMDAT ?GetHealPoint@MItem@@UBEHXZ
_TEXT	SEGMENT PARA USE32 PUBLIC 'CODE'
_TEXT	ENDS
;	COMDAT ?GetManaPoint@MItem@@UBEHXZ
_TEXT	SEGMENT PARA USE32 PUBLIC 'CODE'
_TEXT	ENDS
;	COMDAT ?GetGunClass@MItem@@UBE?AW4ITEM_CLASS@@XZ
_TEXT	SEGMENT PARA USE32 PUBLIC 'CODE'
_TEXT	ENDS
;	COMDAT ?GetMagazineSize@MItem@@UBEHXZ
_TEXT	SEGMENT PARA USE32 PUBLIC 'CODE'
_TEXT	ENDS
;	COMDAT ?GetReach@MItem@@UBEHXZ
_TEXT	SEGMENT PARA USE32 PUBLIC 'CODE'
_TEXT	ENDS
;	COMDAT ?GetToHit@MItem@@UBEHXZ
_TEXT	SEGMENT PARA USE32 PUBLIC 'CODE'
_TEXT	ENDS
;	COMDAT ?GetCriticalHit@MItem@@UBEHXZ
_TEXT	SEGMENT PARA USE32 PUBLIC 'CODE'
_TEXT	ENDS
;	COMDAT ?GetLucky@MItem@@UBEHXZ
_TEXT	SEGMENT PARA USE32 PUBLIC 'CODE'
_TEXT	ENDS
;	COMDAT ?GetTargetClass@MItem@@UBEHXZ
_TEXT	SEGMENT PARA USE32 PUBLIC 'CODE'
_TEXT	ENDS
;	COMDAT ?GetTargetType@MItem@@UBEHXZ
_TEXT	SEGMENT PARA USE32 PUBLIC 'CODE'
_TEXT	ENDS
;	COMDAT ?GetMagicProtection@MItem@@UBEHXZ
_TEXT	SEGMENT PARA USE32 PUBLIC 'CODE'
_TEXT	ENDS
;	COMDAT ?GetRankGemOptionClass@MItem@@UBEHXZ
_TEXT	SEGMENT PARA USE32 PUBLIC 'CODE'
_TEXT	ENDS
;	COMDAT ?SetSilver@MItem@@UAEXH@Z
_TEXT	SEGMENT PARA USE32 PUBLIC 'CODE'
_TEXT	ENDS
;	COMDAT ?SetGrade@MItem@@UAEXH@Z
_TEXT	SEGMENT PARA USE32 PUBLIC 'CODE'
_TEXT	ENDS
;	COMDAT ?SetEnchantLevel@MItem@@UAEXG@Z
_TEXT	SEGMENT PARA USE32 PUBLIC 'CODE'
_TEXT	ENDS
;	COMDAT ??0MGearItem@@QAE@XZ
_TEXT	SEGMENT PARA USE32 PUBLIC 'CODE'
_TEXT	ENDS
;	COMDAT ??1MGearItem@@UAE@XZ
_TEXT	SEGMENT PARA USE32 PUBLIC 'CODE'
_TEXT	ENDS
;	COMDAT ?IsGearItem@MGearItem@@UBE_NXZ
_TEXT	SEGMENT PARA USE32 PUBLIC 'CODE'
_TEXT	ENDS
;	COMDAT ?IsCanAddThirdOptionItem@MGearItem@@UBE_NXZ
_TEXT	SEGMENT PARA USE32 PUBLIC 'CODE'
_TEXT	ENDS
;	COMDAT ?GetProtectionValue@MGearItem@@UBEHXZ
_TEXT	SEGMENT PARA USE32 PUBLIC 'CODE'
_TEXT	ENDS
;	COMDAT ?GetDefenseValue@MGearItem@@UBEHXZ
_TEXT	SEGMENT PARA USE32 PUBLIC 'CODE'
_TEXT	ENDS
;	COMDAT ??_GMGearItem@@UAEPAXI@Z
_TEXT	SEGMENT PARA USE32 PUBLIC 'CODE'
_TEXT	ENDS
;	COMDAT ??0MPileItem@@QAE@XZ
_TEXT	SEGMENT PARA USE32 PUBLIC 'CODE'
_TEXT	ENDS
;	COMDAT ??1MPileItem@@UAE@XZ
_TEXT	SEGMENT PARA USE32 PUBLIC 'CODE'
_TEXT	ENDS
;	COMDAT ?GetNumber@MPileItem@@UBEIXZ
_TEXT	SEGMENT PARA USE32 PUBLIC 'CODE'
_TEXT	ENDS
;	COMDAT ?SetNumber@MPileItem@@UAEXI@Z
_TEXT	SEGMENT PARA USE32 PUBLIC 'CODE'
_TEXT	ENDS
;	COMDAT ?IsRepairableItem@MPileItem@@UBE_NXZ
_TEXT	SEGMENT PARA USE32 PUBLIC 'CODE'
_TEXT	ENDS
;	COMDAT ?IsPileItem@MPileItem@@UBE_NXZ
_TEXT	SEGMENT PARA USE32 PUBLIC 'CODE'
_TEXT	ENDS
;	COMDAT ??_GMPileItem@@UAEPAXI@Z
_TEXT	SEGMENT PARA USE32 PUBLIC 'CODE'
_TEXT	ENDS
;	COMDAT ?IsRepairableItem@MUsePotionItem@@UBE_NXZ
_TEXT	SEGMENT PARA USE32 PUBLIC 'CODE'
_TEXT	ENDS
;	COMDAT ??0MArmorItem@@QAE@XZ
_TEXT	SEGMENT PARA USE32 PUBLIC 'CODE'
_TEXT	ENDS
;	COMDAT ??1MArmorItem@@UAE@XZ
_TEXT	SEGMENT PARA USE32 PUBLIC 'CODE'
_TEXT	ENDS
;	COMDAT ??_GMArmorItem@@UAEPAXI@Z
_TEXT	SEGMENT PARA USE32 PUBLIC 'CODE'
_TEXT	ENDS
;	COMDAT ??0MArmorItem2@@QAE@XZ
_TEXT	SEGMENT PARA USE32 PUBLIC 'CODE'
_TEXT	ENDS
;	COMDAT ??1MArmorItem2@@UAE@XZ
_TEXT	SEGMENT PARA USE32 PUBLIC 'CODE'
_TEXT	ENDS
;	COMDAT ??_GMArmorItem2@@UAEPAXI@Z
_TEXT	SEGMENT PARA USE32 PUBLIC 'CODE'
_TEXT	ENDS
;	COMDAT ??0MAccessoryItem@@QAE@XZ
_TEXT	SEGMENT PARA USE32 PUBLIC 'CODE'
_TEXT	ENDS
;	COMDAT ??1MAccessoryItem@@UAE@XZ
_TEXT	SEGMENT PARA USE32 PUBLIC 'CODE'
_TEXT	ENDS
;	COMDAT ?GetMagicProtection@MAccessoryItem@@UBEHXZ
_TEXT	SEGMENT PARA USE32 PUBLIC 'CODE'
_TEXT	ENDS
;	COMDAT ??_GMAccessoryItem@@UAEPAXI@Z
_TEXT	SEGMENT PARA USE32 PUBLIC 'CODE'
_TEXT	ENDS
;	COMDAT ??0MBelt@@QAE@XZ
_TEXT	SEGMENT PARA USE32 PUBLIC 'CODE'
_TEXT	ENDS
;	COMDAT ??1MBelt@@UAE@XZ
_TEXT	SEGMENT PARA USE32 PUBLIC 'CODE'
_TEXT	ENDS
;	COMDAT ?GetItemClass@MBelt@@UBE?AW4ITEM_CLASS@@XZ
_TEXT	SEGMENT PARA USE32 PUBLIC 'CODE'
_TEXT	ENDS
;	COMDAT ?GetGearSlot@MBelt@@UBE?AW4ITEM_GEAR_SLOT@MItem@@XZ
_TEXT	SEGMENT PARA USE32 PUBLIC 'CODE'
_TEXT	ENDS
;	COMDAT ?IsGearSlotBelt@MBelt@@UBE_NXZ
_TEXT	SEGMENT PARA USE32 PUBLIC 'CODE'
_TEXT	ENDS
;	COMDAT ?IsContainerItem@MBelt@@UBE_NXZ
_TEXT	SEGMENT PARA USE32 PUBLIC 'CODE'
_TEXT	ENDS
;	COMDAT ?GetPocketNumber@MBelt@@UBEHXZ
_TEXT	SEGMENT PARA USE32 PUBLIC 'CODE'
_TEXT	ENDS
;	COMDAT ??_GMBelt@@UAEPAXI@Z
_TEXT	SEGMENT PARA USE32 PUBLIC 'CODE'
_TEXT	ENDS
;	COMDAT ??0MPotion@@QAE@XZ
_TEXT	SEGMENT PARA USE32 PUBLIC 'CODE'
_TEXT	ENDS
;	COMDAT ??1MPotion@@UAE@XZ
_TEXT	SEGMENT PARA USE32 PUBLIC 'CODE'
_TEXT	ENDS
;	COMDAT ?GetItemClass@MPotion@@UBE?AW4ITEM_CLASS@@XZ
_TEXT	SEGMENT PARA USE32 PUBLIC 'CODE'
_TEXT	ENDS
;	COMDAT ?IsQuickItem@MPotion@@UBE_NXZ
_TEXT	SEGMENT PARA USE32 PUBLIC 'CODE'
_TEXT	ENDS
;	COMDAT ?GetHealPoint@MPotion@@UBEHXZ
_TEXT	SEGMENT PARA USE32 PUBLIC 'CODE'
_TEXT	ENDS
;	COMDAT ?GetManaPoint@MPotion@@UBEHXZ
_TEXT	SEGMENT PARA USE32 PUBLIC 'CODE'
_TEXT	ENDS
;	COMDAT ??_GMPotion@@UAEPAXI@Z
_TEXT	SEGMENT PARA USE32 PUBLIC 'CODE'
_TEXT	ENDS
;	COMDAT ??0MUsePotionItem@@QAE@XZ
_TEXT	SEGMENT PARA USE32 PUBLIC 'CODE'
_TEXT	ENDS
;	COMDAT ??1MUsePotionItem@@UAE@XZ
_TEXT	SEGMENT PARA USE32 PUBLIC 'CODE'
_TEXT	ENDS
;	COMDAT ??_GMUsePotionItem@@UAEPAXI@Z
_TEXT	SEGMENT PARA USE32 PUBLIC 'CODE'
_TEXT	ENDS
;	COMDAT ??0MWater@@QAE@XZ
_TEXT	SEGMENT PARA USE32 PUBLIC 'CODE'
_TEXT	ENDS
;	COMDAT ??1MWater@@UAE@XZ
_TEXT	SEGMENT PARA USE32 PUBLIC 'CODE'
_TEXT	ENDS
;	COMDAT ?GetItemClass@MWater@@UBE?AW4ITEM_CLASS@@XZ
_TEXT	SEGMENT PARA USE32 PUBLIC 'CODE'
_TEXT	ENDS
;	COMDAT ??_GMWater@@UAEPAXI@Z
_TEXT	SEGMENT PARA USE32 PUBLIC 'CODE'
_TEXT	ENDS
;	COMDAT ??0MHolyWater@@QAE@XZ
_TEXT	SEGMENT PARA USE32 PUBLIC 'CODE'
_TEXT	ENDS
;	COMDAT ??1MHolyWater@@UAE@XZ
_TEXT	SEGMENT PARA USE32 PUBLIC 'CODE'
_TEXT	ENDS
;	COMDAT ?GetItemClass@MHolyWater@@UBE?AW4ITEM_CLASS@@XZ
_TEXT	SEGMENT PARA USE32 PUBLIC 'CODE'
_TEXT	ENDS
;	COMDAT ?GetMinDamage@MHolyWater@@UBEHXZ
_TEXT	SEGMENT PARA USE32 PUBLIC 'CODE'
_TEXT	ENDS
;	COMDAT ?GetMaxDamage@MHolyWater@@UBEHXZ
_TEXT	SEGMENT PARA USE32 PUBLIC 'CODE'
_TEXT	ENDS
;	COMDAT ??_GMHolyWater@@UAEPAXI@Z
_TEXT	SEGMENT PARA USE32 PUBLIC 'CODE'
_TEXT	ENDS
;	COMDAT ??0MMagazine@@QAE@XZ
_TEXT	SEGMENT PARA USE32 PUBLIC 'CODE'
_TEXT	ENDS
;	COMDAT ??1MMagazine@@UAE@XZ
_TEXT	SEGMENT PARA USE32 PUBLIC 'CODE'
_TEXT	ENDS
;	COMDAT ?GetItemClass@MMagazine@@UBE?AW4ITEM_CLASS@@XZ
_TEXT	SEGMENT PARA USE32 PUBLIC 'CODE'
_TEXT	ENDS
;	COMDAT ?IsQuickItem@MMagazine@@UBE_NXZ
_TEXT	SEGMENT PARA USE32 PUBLIC 'CODE'
_TEXT	ENDS
;	COMDAT ?GetGunClass@MMagazine@@UBE?AW4ITEM_CLASS@@XZ
_TEXT	SEGMENT PARA USE32 PUBLIC 'CODE'
_TEXT	ENDS
;	COMDAT ?GetMagazineSize@MMagazine@@UBEHXZ
_TEXT	SEGMENT PARA USE32 PUBLIC 'CODE'
_TEXT	ENDS
;	COMDAT ??_GMMagazine@@UAEPAXI@Z
_TEXT	SEGMENT PARA USE32 PUBLIC 'CODE'
_TEXT	ENDS
;	COMDAT ??0MRing@@QAE@XZ
_TEXT	SEGMENT PARA USE32 PUBLIC 'CODE'
_TEXT	ENDS
;	COMDAT ??1MRing@@UAE@XZ
_TEXT	SEGMENT PARA USE32 PUBLIC 'CODE'
_TEXT	ENDS
;	COMDAT ?GetItemClass@MRing@@UBE?AW4ITEM_CLASS@@XZ
_TEXT	SEGMENT PARA USE32 PUBLIC 'CODE'
_TEXT	ENDS
;	COMDAT ?GetGearSlot@MRing@@UBE?AW4ITEM_GEAR_SLOT@MItem@@XZ
_TEXT	SEGMENT PARA USE32 PUBLIC 'CODE'
_TEXT	ENDS
;	COMDAT ?IsGearSlotRing@MRing@@UBE_NXZ
_TEXT	SEGMENT PARA USE32 PUBLIC 'CODE'
_TEXT	ENDS
;	COMDAT ?HasMagicProtection@MRing@@UBE_NXZ
_TEXT	SEGMENT PARA USE32 PUBLIC 'CODE'
_TEXT	ENDS
;	COMDAT ??_GMRing@@UAEPAXI@Z
_TEXT	SEGMENT PARA USE32 PUBLIC 'CODE'
_TEXT	ENDS
;	COMDAT ??0MBracelet@@QAE@XZ
_TEXT	SEGMENT PARA USE32 PUBLIC 'CODE'
_TEXT	ENDS
;	COMDAT ??1MBracelet@@UAE@XZ
_TEXT	SEGMENT PARA USE32 PUBLIC 'CODE'
_TEXT	ENDS
;	COMDAT ?GetItemClass@MBracelet@@UBE?AW4ITEM_CLASS@@XZ
_TEXT	SEGMENT PARA USE32 PUBLIC 'CODE'
_TEXT	ENDS
;	COMDAT ?GetGearSlot@MBracelet@@UBE?AW4ITEM_GEAR_SLOT@MItem@@XZ
_TEXT	SEGMENT PARA USE32 PUBLIC 'CODE'
_TEXT	ENDS
;	COMDAT ?IsGearSlotBracelet@MBracelet@@UBE_NXZ
_TEXT	SEGMENT PARA USE32 PUBLIC 'CODE'
_TEXT	ENDS
;	COMDAT ?HasMagicProtection@MBracelet@@UBE_NXZ
_TEXT	SEGMENT PARA USE32 PUBLIC 'CODE'
_TEXT	ENDS
;	COMDAT ??_GMBracelet@@UAEPAXI@Z
_TEXT	SEGMENT PARA USE32 PUBLIC 'CODE'
_TEXT	ENDS
;	COMDAT ??0MNecklace@@QAE@XZ
_TEXT	SEGMENT PARA USE32 PUBLIC 'CODE'
_TEXT	ENDS
;	COMDAT ??1MNecklace@@UAE@XZ
_TEXT	SEGMENT PARA USE32 PUBLIC 'CODE'
_TEXT	ENDS
;	COMDAT ?GetItemClass@MNecklace@@UBE?AW4ITEM_CLASS@@XZ
_TEXT	SEGMENT PARA USE32 PUBLIC 'CODE'
_TEXT	ENDS
;	COMDAT ?GetGearSlot@MNecklace@@UBE?AW4ITEM_GEAR_SLOT@MItem@@XZ
_TEXT	SEGMENT PARA USE32 PUBLIC 'CODE'
_TEXT	ENDS
;	COMDAT ?IsGearSlotNecklace@MNecklace@@UBE_NXZ
_TEXT	SEGMENT PARA USE32 PUBLIC 'CODE'
_TEXT	ENDS
;	COMDAT ?HasMagicProtection@MNecklace@@UBE_NXZ
_TEXT	SEGMENT PARA USE32 PUBLIC 'CODE'
_TEXT	ENDS
;	COMDAT ??_GMNecklace@@UAEPAXI@Z
_TEXT	SEGMENT PARA USE32 PUBLIC 'CODE'
_TEXT	ENDS
;	COMDAT ??0MCoat@@QAE@XZ
_TEXT	SEGMENT PARA USE32 PUBLIC 'CODE'
_TEXT	ENDS
;	COMDAT ??1MCoat@@UAE@XZ
_TEXT	SEGMENT PARA USE32 PUBLIC 'CODE'
_TEXT	ENDS
;	COMDAT ?GetItemClass@MCoat@@UBE?AW4ITEM_CLASS@@XZ
_TEXT	SEGMENT PARA USE32 PUBLIC 'CODE'
_TEXT	ENDS
;	COMDAT ?GetGearSlot@MCoat@@UBE?AW4ITEM_GEAR_SLOT@MItem@@XZ
_TEXT	SEGMENT PARA USE32 PUBLIC 'CODE'
_TEXT	ENDS
;	COMDAT ?IsGearSlotCoat@MCoat@@UBE_NXZ
_TEXT	SEGMENT PARA USE32 PUBLIC 'CODE'
_TEXT	ENDS
;	COMDAT ?IsAddonItem@MCoat@@UBE_NXZ
_TEXT	SEGMENT PARA USE32 PUBLIC 'CODE'
_TEXT	ENDS
;	COMDAT ?GetAddonSlot@MCoat@@UBE?AW4ADDON@@XZ
_TEXT	SEGMENT PARA USE32 PUBLIC 'CODE'
_TEXT	ENDS
;	COMDAT ??_GMCoat@@UAEPAXI@Z
_TEXT	SEGMENT PARA USE32 PUBLIC 'CODE'
_TEXT	ENDS
;	COMDAT ??0MTrouser@@QAE@XZ
_TEXT	SEGMENT PARA USE32 PUBLIC 'CODE'
_TEXT	ENDS
;	COMDAT ??1MTrouser@@UAE@XZ
_TEXT	SEGMENT PARA USE32 PUBLIC 'CODE'
_TEXT	ENDS
;	COMDAT ?GetItemClass@MTrouser@@UBE?AW4ITEM_CLASS@@XZ
_TEXT	SEGMENT PARA USE32 PUBLIC 'CODE'
_TEXT	ENDS
;	COMDAT ?GetGearSlot@MTrouser@@UBE?AW4ITEM_GEAR_SLOT@MItem@@XZ
_TEXT	SEGMENT PARA USE32 PUBLIC 'CODE'
_TEXT	ENDS
;	COMDAT ?IsGearSlotTrouser@MTrouser@@UBE_NXZ
_TEXT	SEGMENT PARA USE32 PUBLIC 'CODE'
_TEXT	ENDS
;	COMDAT ?IsAddonItem@MTrouser@@UBE_NXZ
_TEXT	SEGMENT PARA USE32 PUBLIC 'CODE'
_TEXT	ENDS
;	COMDAT ?GetAddonSlot@MTrouser@@UBE?AW4ADDON@@XZ
_TEXT	SEGMENT PARA USE32 PUBLIC 'CODE'
_TEXT	ENDS
;	COMDAT ??_GMTrouser@@UAEPAXI@Z
_TEXT	SEGMENT PARA USE32 PUBLIC 'CODE'
_TEXT	ENDS
;	COMDAT ??0MShoes@@QAE@XZ
_TEXT	SEGMENT PARA USE32 PUBLIC 'CODE'
_TEXT	ENDS
;	COMDAT ??1MShoes@@UAE@XZ
_TEXT	SEGMENT PARA USE32 PUBLIC 'CODE'
_TEXT	ENDS
;	COMDAT ?GetItemClass@MShoes@@UBE?AW4ITEM_CLASS@@XZ
_TEXT	SEGMENT PARA USE32 PUBLIC 'CODE'
_TEXT	ENDS
;	COMDAT ?GetGearSlot@MShoes@@UBE?AW4ITEM_GEAR_SLOT@MItem@@XZ
_TEXT	SEGMENT PARA USE32 PUBLIC 'CODE'
_TEXT	ENDS
;	COMDAT ?IsGearSlotShoes@MShoes@@UBE_NXZ
_TEXT	SEGMENT PARA USE32 PUBLIC 'CODE'
_TEXT	ENDS
;	COMDAT ??_GMShoes@@UAEPAXI@Z
_TEXT	SEGMENT PARA USE32 PUBLIC 'CODE'
_TEXT	ENDS
;	COMDAT ??0MWeaponItem@@QAE@XZ
_TEXT	SEGMENT PARA USE32 PUBLIC 'CODE'
_TEXT	ENDS
;	COMDAT ??1MWeaponItem@@UAE@XZ
_TEXT	SEGMENT PARA USE32 PUBLIC 'CODE'
_TEXT	ENDS
;	COMDAT ?IsBasicWeapon@MWeaponItem@@UBE_NXZ
_TEXT	SEGMENT PARA USE32 PUBLIC 'CODE'
_TEXT	ENDS
;	COMDAT ??_GMWeaponItem@@UAEPAXI@Z
_TEXT	SEGMENT PARA USE32 PUBLIC 'CODE'
_TEXT	ENDS
;	COMDAT ??0MSword@@QAE@XZ
_TEXT	SEGMENT PARA USE32 PUBLIC 'CODE'
_TEXT	ENDS
;	COMDAT ??1MSword@@UAE@XZ
_TEXT	SEGMENT PARA USE32 PUBLIC 'CODE'
_TEXT	ENDS
;	COMDAT ?GetItemClass@MSword@@UBE?AW4ITEM_CLASS@@XZ
_TEXT	SEGMENT PARA USE32 PUBLIC 'CODE'
_TEXT	ENDS
;	COMDAT ?GetGearSlot@MSword@@UBE?AW4ITEM_GEAR_SLOT@MItem@@XZ
_TEXT	SEGMENT PARA USE32 PUBLIC 'CODE'
_TEXT	ENDS
;	COMDAT ?IsGearSlotRightHand@MSword@@UBE_NXZ
_TEXT	SEGMENT PARA USE32 PUBLIC 'CODE'
_TEXT	ENDS
;	COMDAT ?IsAddonItem@MSword@@UBE_NXZ
_TEXT	SEGMENT PARA USE32 PUBLIC 'CODE'
_TEXT	ENDS
;	COMDAT ?GetAddonSlot@MSword@@UBE?AW4ADDON@@XZ
_TEXT	SEGMENT PARA USE32 PUBLIC 'CODE'
_TEXT	ENDS
;	COMDAT ?IsMeleeWeapon@MSword@@UBE_NXZ
_TEXT	SEGMENT PARA USE32 PUBLIC 'CODE'
_TEXT	ENDS
;	COMDAT ??_GMSword@@UAEPAXI@Z
_TEXT	SEGMENT PARA USE32 PUBLIC 'CODE'
_TEXT	ENDS
;	COMDAT ??0MBlade@@QAE@XZ
_TEXT	SEGMENT PARA USE32 PUBLIC 'CODE'
_TEXT	ENDS
;	COMDAT ??1MBlade@@UAE@XZ
_TEXT	SEGMENT PARA USE32 PUBLIC 'CODE'
_TEXT	ENDS
;	COMDAT ?GetItemClass@MBlade@@UBE?AW4ITEM_CLASS@@XZ
_TEXT	SEGMENT PARA USE32 PUBLIC 'CODE'
_TEXT	ENDS
;	COMDAT ?GetGearSlot@MBlade@@UBE?AW4ITEM_GEAR_SLOT@MItem@@XZ
_TEXT	SEGMENT PARA USE32 PUBLIC 'CODE'
_TEXT	ENDS
;	COMDAT ?IsGearSlotTwoHand@MBlade@@UBE_NXZ
_TEXT	SEGMENT PARA USE32 PUBLIC 'CODE'
_TEXT	ENDS
;	COMDAT ?IsAddonItem@MBlade@@UBE_NXZ
_TEXT	SEGMENT PARA USE32 PUBLIC 'CODE'
_TEXT	ENDS
;	COMDAT ?GetAddonSlot@MBlade@@UBE?AW4ADDON@@XZ
_TEXT	SEGMENT PARA USE32 PUBLIC 'CODE'
_TEXT	ENDS
;	COMDAT ?IsMeleeWeapon@MBlade@@UBE_NXZ
_TEXT	SEGMENT PARA USE32 PUBLIC 'CODE'
_TEXT	ENDS
;	COMDAT ??_GMBlade@@UAEPAXI@Z
_TEXT	SEGMENT PARA USE32 PUBLIC 'CODE'
_TEXT	ENDS
;	COMDAT ??0MShield@@QAE@XZ
_TEXT	SEGMENT PARA USE32 PUBLIC 'CODE'
_TEXT	ENDS
;	COMDAT ??1MShield@@UAE@XZ
_TEXT	SEGMENT PARA USE32 PUBLIC 'CODE'
_TEXT	ENDS
;	COMDAT ?GetItemClass@MShield@@UBE?AW4ITEM_CLASS@@XZ
_TEXT	SEGMENT PARA USE32 PUBLIC 'CODE'
_TEXT	ENDS
;	COMDAT ?GetGearSlot@MShield@@UBE?AW4ITEM_GEAR_SLOT@MItem@@XZ
_TEXT	SEGMENT PARA USE32 PUBLIC 'CODE'
_TEXT	ENDS
;	COMDAT ?IsGearSlotLeftHand@MShield@@UBE_NXZ
_TEXT	SEGMENT PARA USE32 PUBLIC 'CODE'
_TEXT	ENDS
;	COMDAT ?IsAddonItem@MShield@@UBE_NXZ
_TEXT	SEGMENT PARA USE32 PUBLIC 'CODE'
_TEXT	ENDS
;	COMDAT ?GetAddonSlot@MShield@@UBE?AW4ADDON@@XZ
_TEXT	SEGMENT PARA USE32 PUBLIC 'CODE'
_TEXT	ENDS
;	COMDAT ??_GMShield@@UAEPAXI@Z
_TEXT	SEGMENT PARA USE32 PUBLIC 'CODE'
_TEXT	ENDS
;	COMDAT ??0MCross@@QAE@XZ
_TEXT	SEGMENT PARA USE32 PUBLIC 'CODE'
_TEXT	ENDS
;	COMDAT ??1MCross@@UAE@XZ
_TEXT	SEGMENT PARA USE32 PUBLIC 'CODE'
_TEXT	ENDS
;	COMDAT ?GetItemClass@MCross@@UBE?AW4ITEM_CLASS@@XZ
_TEXT	SEGMENT PARA USE32 PUBLIC 'CODE'
_TEXT	ENDS
;	COMDAT ?GetGearSlot@MCross@@UBE?AW4ITEM_GEAR_SLOT@MItem@@XZ
_TEXT	SEGMENT PARA USE32 PUBLIC 'CODE'
_TEXT	ENDS
;	COMDAT ?IsGearSlotTwoHand@MCross@@UBE_NXZ
_TEXT	SEGMENT PARA USE32 PUBLIC 'CODE'
_TEXT	ENDS
;	COMDAT ?IsAddonItem@MCross@@UBE_NXZ
_TEXT	SEGMENT PARA USE32 PUBLIC 'CODE'
_TEXT	ENDS
;	COMDAT ?GetAddonSlot@MCross@@UBE?AW4ADDON@@XZ
_TEXT	SEGMENT PARA USE32 PUBLIC 'CODE'
_TEXT	ENDS
;	COMDAT ?GetManaPoint@MCross@@UBEHXZ
_TEXT	SEGMENT PARA USE32 PUBLIC 'CODE'
_TEXT	ENDS
;	COMDAT ?IsMagicWeapon@MCross@@UBE_NXZ
_TEXT	SEGMENT PARA USE32 PUBLIC 'CODE'
_TEXT	ENDS
;	COMDAT ??_GMCross@@UAEPAXI@Z
_TEXT	SEGMENT PARA USE32 PUBLIC 'CODE'
_TEXT	ENDS
;	COMDAT ??0MMace@@QAE@XZ
_TEXT	SEGMENT PARA USE32 PUBLIC 'CODE'
_TEXT	ENDS
;	COMDAT ??1MMace@@UAE@XZ
_TEXT	SEGMENT PARA USE32 PUBLIC 'CODE'
_TEXT	ENDS
;	COMDAT ?GetItemClass@MMace@@UBE?AW4ITEM_CLASS@@XZ
_TEXT	SEGMENT PARA USE32 PUBLIC 'CODE'
_TEXT	ENDS
;	COMDAT ?GetGearSlot@MMace@@UBE?AW4ITEM_GEAR_SLOT@MItem@@XZ
_TEXT	SEGMENT PARA USE32 PUBLIC 'CODE'
_TEXT	ENDS
;	COMDAT ?IsGearSlotTwoHand@MMace@@UBE_NXZ
_TEXT	SEGMENT PARA USE32 PUBLIC 'CODE'
_TEXT	ENDS
;	COMDAT ?IsAddonItem@MMace@@UBE_NXZ
_TEXT	SEGMENT PARA USE32 PUBLIC 'CODE'
_TEXT	ENDS
;	COMDAT ?GetAddonSlot@MMace@@UBE?AW4ADDON@@XZ
_TEXT	SEGMENT PARA USE32 PUBLIC 'CODE'
_TEXT	ENDS
;	COMDAT ?GetManaPoint@MMace@@UBEHXZ
_TEXT	SEGMENT PARA USE32 PUBLIC 'CODE'
_TEXT	ENDS
;	COMDAT ?IsMagicWeapon@MMace@@UBE_NXZ
_TEXT	SEGMENT PARA USE32 PUBLIC 'CODE'
_TEXT	ENDS
;	COMDAT ??_GMMace@@UAEPAXI@Z
_TEXT	SEGMENT PARA USE32 PUBLIC 'CODE'
_TEXT	ENDS
;	COMDAT ??0MGlove@@QAE@XZ
_TEXT	SEGMENT PARA USE32 PUBLIC 'CODE'
_TEXT	ENDS
;	COMDAT ??1MGlove@@UAE@XZ
_TEXT	SEGMENT PARA USE32 PUBLIC 'CODE'
_TEXT	ENDS
;	COMDAT ?GetItemClass@MGlove@@UBE?AW4ITEM_CLASS@@XZ
_TEXT	SEGMENT PARA USE32 PUBLIC 'CODE'
_TEXT	ENDS
;	COMDAT ?GetGearSlot@MGlove@@UBE?AW4ITEM_GEAR_SLOT@MItem@@XZ
_TEXT	SEGMENT PARA USE32 PUBLIC 'CODE'
_TEXT	ENDS
;	COMDAT ?IsGearSlotGlove@MGlove@@UBE_NXZ
_TEXT	SEGMENT PARA USE32 PUBLIC 'CODE'
_TEXT	ENDS
;	COMDAT ??_GMGlove@@UAEPAXI@Z
_TEXT	SEGMENT PARA USE32 PUBLIC 'CODE'
_TEXT	ENDS
;	COMDAT ??0MHelm@@QAE@XZ
_TEXT	SEGMENT PARA USE32 PUBLIC 'CODE'
_TEXT	ENDS
;	COMDAT ??1MHelm@@UAE@XZ
_TEXT	SEGMENT PARA USE32 PUBLIC 'CODE'
_TEXT	ENDS
;	COMDAT ?GetItemClass@MHelm@@UBE?AW4ITEM_CLASS@@XZ
_TEXT	SEGMENT PARA USE32 PUBLIC 'CODE'
_TEXT	ENDS
;	COMDAT ?GetGearSlot@MHelm@@UBE?AW4ITEM_GEAR_SLOT@MItem@@XZ
_TEXT	SEGMENT PARA USE32 PUBLIC 'CODE'
_TEXT	ENDS
;	COMDAT ?IsGearSlotHelm@MHelm@@UBE_NXZ
_TEXT	SEGMENT PARA USE32 PUBLIC 'CODE'
_TEXT	ENDS
;	COMDAT ?IsAddonItem@MHelm@@UBE_NXZ
_TEXT	SEGMENT PARA USE32 PUBLIC 'CODE'
_TEXT	ENDS
;	COMDAT ?GetAddonSlot@MHelm@@UBE?AW4ADDON@@XZ
_TEXT	SEGMENT PARA USE32 PUBLIC 'CODE'
_TEXT	ENDS
;	COMDAT ??_GMHelm@@UAEPAXI@Z
_TEXT	SEGMENT PARA USE32 PUBLIC 'CODE'
_TEXT	ENDS
;	COMDAT ??0MGunItem@@QAE@XZ
_TEXT	SEGMENT PARA USE32 PUBLIC 'CODE'
_TEXT	ENDS
;	COMDAT ??1MGunItem@@UAE@XZ
_TEXT	SEGMENT PARA USE32 PUBLIC 'CODE'
_TEXT	ENDS
;	COMDAT ?IsGunItem@MGunItem@@UBE_NXZ
_TEXT	SEGMENT PARA USE32 PUBLIC 'CODE'
_TEXT	ENDS
;	COMDAT ?IsAddonItem@MGunItem@@UBE_NXZ
_TEXT	SEGMENT PARA USE32 PUBLIC 'CODE'
_TEXT	ENDS
;	COMDAT ?GetAddonSlot@MGunItem@@UBE?AW4ADDON@@XZ
_TEXT	SEGMENT PARA USE32 PUBLIC 'CODE'
_TEXT	ENDS
;	COMDAT ?GetReach@MGunItem@@UBEHXZ
_TEXT	SEGMENT PARA USE32 PUBLIC 'CODE'
_TEXT	ENDS
;	COMDAT ?GetMagazineSize@MGunItem@@UBEHXZ
_TEXT	SEGMENT PARA USE32 PUBLIC 'CODE'
_TEXT	ENDS
;	COMDAT ?IsMeleeWeapon@MGunItem@@UBE_NXZ
_TEXT	SEGMENT PARA USE32 PUBLIC 'CODE'
_TEXT	ENDS
;	COMDAT ??_GMGunItem@@UAEPAXI@Z
_TEXT	SEGMENT PARA USE32 PUBLIC 'CODE'
_TEXT	ENDS
;	COMDAT ??0MGunSG@@QAE@XZ
_TEXT	SEGMENT PARA USE32 PUBLIC 'CODE'
_TEXT	ENDS
;	COMDAT ??1MGunSG@@UAE@XZ
_TEXT	SEGMENT PARA USE32 PUBLIC 'CODE'
_TEXT	ENDS
;	COMDAT ?GetItemClass@MGunSG@@UBE?AW4ITEM_CLASS@@XZ
_TEXT	SEGMENT PARA USE32 PUBLIC 'CODE'
_TEXT	ENDS
;	COMDAT ?GetGearSlot@MGunSG@@UBE?AW4ITEM_GEAR_SLOT@MItem@@XZ
_TEXT	SEGMENT PARA USE32 PUBLIC 'CODE'
_TEXT	ENDS
;	COMDAT ?IsGearSlotTwoHand@MGunSG@@UBE_NXZ
_TEXT	SEGMENT PARA USE32 PUBLIC 'CODE'
_TEXT	ENDS
;	COMDAT ??_GMGunSG@@UAEPAXI@Z
_TEXT	SEGMENT PARA USE32 PUBLIC 'CODE'
_TEXT	ENDS
;	COMDAT ??0MGunSMG@@QAE@XZ
_TEXT	SEGMENT PARA USE32 PUBLIC 'CODE'
_TEXT	ENDS
;	COMDAT ??1MGunSMG@@UAE@XZ
_TEXT	SEGMENT PARA USE32 PUBLIC 'CODE'
_TEXT	ENDS
;	COMDAT ?GetItemClass@MGunSMG@@UBE?AW4ITEM_CLASS@@XZ
_TEXT	SEGMENT PARA USE32 PUBLIC 'CODE'
_TEXT	ENDS
;	COMDAT ?GetGearSlot@MGunSMG@@UBE?AW4ITEM_GEAR_SLOT@MItem@@XZ
_TEXT	SEGMENT PARA USE32 PUBLIC 'CODE'
_TEXT	ENDS
;	COMDAT ?IsGearSlotTwoHand@MGunSMG@@UBE_NXZ
_TEXT	SEGMENT PARA USE32 PUBLIC 'CODE'
_TEXT	ENDS
;	COMDAT ??_GMGunSMG@@UAEPAXI@Z
_TEXT	SEGMENT PARA USE32 PUBLIC 'CODE'
_TEXT	ENDS
;	COMDAT ??0MGunAR@@QAE@XZ
_TEXT	SEGMENT PARA USE32 PUBLIC 'CODE'
_TEXT	ENDS
;	COMDAT ??1MGunAR@@UAE@XZ
_TEXT	SEGMENT PARA USE32 PUBLIC 'CODE'
_TEXT	ENDS
;	COMDAT ?GetItemClass@MGunAR@@UBE?AW4ITEM_CLASS@@XZ
_TEXT	SEGMENT PARA USE32 PUBLIC 'CODE'
_TEXT	ENDS
;	COMDAT ?GetGearSlot@MGunAR@@UBE?AW4ITEM_GEAR_SLOT@MItem@@XZ
_TEXT	SEGMENT PARA USE32 PUBLIC 'CODE'
_TEXT	ENDS
;	COMDAT ?IsGearSlotTwoHand@MGunAR@@UBE_NXZ
_TEXT	SEGMENT PARA USE32 PUBLIC 'CODE'
_TEXT	ENDS
;	COMDAT ??_GMGunAR@@UAEPAXI@Z
_TEXT	SEGMENT PARA USE32 PUBLIC 'CODE'
_TEXT	ENDS
;	COMDAT ??0MGunTR@@QAE@XZ
_TEXT	SEGMENT PARA USE32 PUBLIC 'CODE'
_TEXT	ENDS
;	COMDAT ??1MGunTR@@UAE@XZ
_TEXT	SEGMENT PARA USE32 PUBLIC 'CODE'
_TEXT	ENDS
;	COMDAT ?GetItemClass@MGunTR@@UBE?AW4ITEM_CLASS@@XZ
_TEXT	SEGMENT PARA USE32 PUBLIC 'CODE'
_TEXT	ENDS
;	COMDAT ?GetGearSlot@MGunTR@@UBE?AW4ITEM_GEAR_SLOT@MItem@@XZ
_TEXT	SEGMENT PARA USE32 PUBLIC 'CODE'
_TEXT	ENDS
;	COMDAT ?IsGearSlotTwoHand@MGunTR@@UBE_NXZ
_TEXT	SEGMENT PARA USE32 PUBLIC 'CODE'
_TEXT	ENDS
;	COMDAT ??_GMGunTR@@UAEPAXI@Z
_TEXT	SEGMENT PARA USE32 PUBLIC 'CODE'
_TEXT	ENDS
;	COMDAT ??0MItemETC@@QAE@XZ
_TEXT	SEGMENT PARA USE32 PUBLIC 'CODE'
_TEXT	ENDS
;	COMDAT ??1MItemETC@@UAE@XZ
_TEXT	SEGMENT PARA USE32 PUBLIC 'CODE'
_TEXT	ENDS
;	COMDAT ?GetItemClass@MItemETC@@UBE?AW4ITEM_CLASS@@XZ
_TEXT	SEGMENT PARA USE32 PUBLIC 'CODE'
_TEXT	ENDS
;	COMDAT ?IsRepairableItem@MItemETC@@UBE_NXZ
_TEXT	SEGMENT PARA USE32 PUBLIC 'CODE'
_TEXT	ENDS
;	COMDAT ??_GMItemETC@@UAEPAXI@Z
_TEXT	SEGMENT PARA USE32 PUBLIC 'CODE'
_TEXT	ENDS
;	COMDAT ??0MMotorcycle@@QAE@XZ
_TEXT	SEGMENT PARA USE32 PUBLIC 'CODE'
_TEXT	ENDS
;	COMDAT ??1MMotorcycle@@UAE@XZ
_TEXT	SEGMENT PARA USE32 PUBLIC 'CODE'
_TEXT	ENDS
;	COMDAT ?GetItemClass@MMotorcycle@@UBE?AW4ITEM_CLASS@@XZ
_TEXT	SEGMENT PARA USE32 PUBLIC 'CODE'
_TEXT	ENDS
;	COMDAT ?IsInventoryItem@MMotorcycle@@UBE_NXZ
_TEXT	SEGMENT PARA USE32 PUBLIC 'CODE'
_TEXT	ENDS
;	COMDAT ?IsContainerItem@MMotorcycle@@UBE_NXZ
_TEXT	SEGMENT PARA USE32 PUBLIC 'CODE'
_TEXT	ENDS
;	COMDAT ?IsAddonItem@MMotorcycle@@UBE_NXZ
_TEXT	SEGMENT PARA USE32 PUBLIC 'CODE'
_TEXT	ENDS
;	COMDAT ?GetAddonSlot@MMotorcycle@@UBE?AW4ADDON@@XZ
_TEXT	SEGMENT PARA USE32 PUBLIC 'CODE'
_TEXT	ENDS
;	COMDAT ?GetCarryingCapacity@MMotorcycle@@UBEHXZ
_TEXT	SEGMENT PARA USE32 PUBLIC 'CODE'
_TEXT	ENDS
;	COMDAT ??_GMMotorcycle@@UAEPAXI@Z
_TEXT	SEGMENT PARA USE32 PUBLIC 'CODE'
_TEXT	ENDS
;	COMDAT ??0MKey@@QAE@XZ
_TEXT	SEGMENT PARA USE32 PUBLIC 'CODE'
_TEXT	ENDS
;	COMDAT ??1MKey@@UAE@XZ
_TEXT	SEGMENT PARA USE32 PUBLIC 'CODE'
_TEXT	ENDS
;	COMDAT ?GetItemClass@MKey@@UBE?AW4ITEM_CLASS@@XZ
_TEXT	SEGMENT PARA USE32 PUBLIC 'CODE'
_TEXT	ENDS
;	COMDAT ?IsQuickItem@MKey@@UBE_NXZ
_TEXT	SEGMENT PARA USE32 PUBLIC 'CODE'
_TEXT	ENDS
;	COMDAT ?IsRepairableItem@MKey@@UBE_NXZ
_TEXT	SEGMENT PARA USE32 PUBLIC 'CODE'
_TEXT	ENDS
;	COMDAT ??_GMKey@@UAEPAXI@Z
_TEXT	SEGMENT PARA USE32 PUBLIC 'CODE'
_TEXT	ENDS
;	COMDAT ??0MRelic@@QAE@XZ
_TEXT	SEGMENT PARA USE32 PUBLIC 'CODE'
_TEXT	ENDS
;	COMDAT ??1MRelic@@UAE@XZ
_TEXT	SEGMENT PARA USE32 PUBLIC 'CODE'
_TEXT	ENDS
;	COMDAT ?GetItemClass@MRelic@@UBE?AW4ITEM_CLASS@@XZ
_TEXT	SEGMENT PARA USE32 PUBLIC 'CODE'
_TEXT	ENDS
;	COMDAT ??_GMRelic@@UAEPAXI@Z
_TEXT	SEGMENT PARA USE32 PUBLIC 'CODE'
_TEXT	ENDS
;	COMDAT ??0MBombMaterial@@QAE@XZ
_TEXT	SEGMENT PARA USE32 PUBLIC 'CODE'
_TEXT	ENDS
;	COMDAT ??1MBombMaterial@@UAE@XZ
_TEXT	SEGMENT PARA USE32 PUBLIC 'CODE'
_TEXT	ENDS
;	COMDAT ?GetItemClass@MBombMaterial@@UBE?AW4ITEM_CLASS@@XZ
_TEXT	SEGMENT PARA USE32 PUBLIC 'CODE'
_TEXT	ENDS
;	COMDAT ??_GMBombMaterial@@UAEPAXI@Z
_TEXT	SEGMENT PARA USE32 PUBLIC 'CODE'
_TEXT	ENDS
;	COMDAT ??0MLearningItem@@QAE@XZ
_TEXT	SEGMENT PARA USE32 PUBLIC 'CODE'
_TEXT	ENDS
;	COMDAT ??1MLearningItem@@UAE@XZ
_TEXT	SEGMENT PARA USE32 PUBLIC 'CODE'
_TEXT	ENDS
;	COMDAT ?GetItemClass@MLearningItem@@UBE?AW4ITEM_CLASS@@XZ
_TEXT	SEGMENT PARA USE32 PUBLIC 'CODE'
_TEXT	ENDS
;	COMDAT ?IsRepairableItem@MLearningItem@@UBE_NXZ
_TEXT	SEGMENT PARA USE32 PUBLIC 'CODE'
_TEXT	ENDS
;	COMDAT ??_GMLearningItem@@UAEPAXI@Z
_TEXT	SEGMENT PARA USE32 PUBLIC 'CODE'
_TEXT	ENDS
;	COMDAT ??0MMoney@@QAE@XZ
_TEXT	SEGMENT PARA USE32 PUBLIC 'CODE'
_TEXT	ENDS
;	COMDAT ??1MMoney@@UAE@XZ
_TEXT	SEGMENT PARA USE32 PUBLIC 'CODE'
_TEXT	ENDS
;	COMDAT ?GetItemClass@MMoney@@UBE?AW4ITEM_CLASS@@XZ
_TEXT	SEGMENT PARA USE32 PUBLIC 'CODE'
_TEXT	ENDS
;	COMDAT ??_GMMoney@@UAEPAXI@Z
_TEXT	SEGMENT PARA USE32 PUBLIC 'CODE'
_TEXT	ENDS
;	COMDAT ??0MBomb@@QAE@XZ
_TEXT	SEGMENT PARA USE32 PUBLIC 'CODE'
_TEXT	ENDS
;	COMDAT ??1MBomb@@UAE@XZ
_TEXT	SEGMENT PARA USE32 PUBLIC 'CODE'
_TEXT	ENDS
;	COMDAT ?GetItemClass@MBomb@@UBE?AW4ITEM_CLASS@@XZ
_TEXT	SEGMENT PARA USE32 PUBLIC 'CODE'
_TEXT	ENDS
;	COMDAT ?GetMinDamage@MBomb@@UBEHXZ
_TEXT	SEGMENT PARA USE32 PUBLIC 'CODE'
_TEXT	ENDS
;	COMDAT ?GetMaxDamage@MBomb@@UBEHXZ
_TEXT	SEGMENT PARA USE32 PUBLIC 'CODE'
_TEXT	ENDS
;	COMDAT ??_GMBomb@@UAEPAXI@Z
_TEXT	SEGMENT PARA USE32 PUBLIC 'CODE'
_TEXT	ENDS
;	COMDAT ??0MMine@@QAE@XZ
_TEXT	SEGMENT PARA USE32 PUBLIC 'CODE'
_TEXT	ENDS
;	COMDAT ??1MMine@@UAE@XZ
_TEXT	SEGMENT PARA USE32 PUBLIC 'CODE'
_TEXT	ENDS
;	COMDAT ?GetItemClass@MMine@@UBE?AW4ITEM_CLASS@@XZ
_TEXT	SEGMENT PARA USE32 PUBLIC 'CODE'
_TEXT	ENDS
;	COMDAT ?GetMinDamage@MMine@@UBEHXZ
_TEXT	SEGMENT PARA USE32 PUBLIC 'CODE'
_TEXT	ENDS
;	COMDAT ?GetMaxDamage@MMine@@UBEHXZ
_TEXT	SEGMENT PARA USE32 PUBLIC 'CODE'
_TEXT	ENDS
;	COMDAT ??_GMMine@@UAEPAXI@Z
_TEXT	SEGMENT PARA USE32 PUBLIC 'CODE'
_TEXT	ENDS
;	COMDAT ??0MVampireRing@@QAE@XZ
_TEXT	SEGMENT PARA USE32 PUBLIC 'CODE'
_TEXT	ENDS
;	COMDAT ??1MVampireRing@@UAE@XZ
_TEXT	SEGMENT PARA USE32 PUBLIC 'CODE'
_TEXT	ENDS
;	COMDAT ?GetItemClass@MVampireRing@@UBE?AW4ITEM_CLASS@@XZ
_TEXT	SEGMENT PARA USE32 PUBLIC 'CODE'
_TEXT	ENDS
;	COMDAT ?GetGearSlot@MVampireRing@@UBE?AW4ITEM_GEAR_SLOT@MItem@@XZ
_TEXT	SEGMENT PARA USE32 PUBLIC 'CODE'
_TEXT	ENDS
;	COMDAT ?IsGearSlotVampireRing@MVampireRing@@UBE_NXZ
_TEXT	SEGMENT PARA USE32 PUBLIC 'CODE'
_TEXT	ENDS
;	COMDAT ?HasMagicProtection@MVampireRing@@UBE_NXZ
_TEXT	SEGMENT PARA USE32 PUBLIC 'CODE'
_TEXT	ENDS
;	COMDAT ??_GMVampireRing@@UAEPAXI@Z
_TEXT	SEGMENT PARA USE32 PUBLIC 'CODE'
_TEXT	ENDS
;	COMDAT ??0MVampireEarRing@@QAE@XZ
_TEXT	SEGMENT PARA USE32 PUBLIC 'CODE'
_TEXT	ENDS
;	COMDAT ??1MVampireEarRing@@UAE@XZ
_TEXT	SEGMENT PARA USE32 PUBLIC 'CODE'
_TEXT	ENDS
;	COMDAT ?GetItemClass@MVampireEarRing@@UBE?AW4ITEM_CLASS@@XZ
_TEXT	SEGMENT PARA USE32 PUBLIC 'CODE'
_TEXT	ENDS
;	COMDAT ?GetGearSlot@MVampireEarRing@@UBE?AW4ITEM_GEAR_SLOT@MItem@@XZ
_TEXT	SEGMENT PARA USE32 PUBLIC 'CODE'
_TEXT	ENDS
;	COMDAT ?IsGearSlotVampireEarRing@MVampireEarRing@@UBE_NXZ
_TEXT	SEGMENT PARA USE32 PUBLIC 'CODE'
_TEXT	ENDS
;	COMDAT ?HasMagicProtection@MVampireEarRing@@UBE_NXZ
_TEXT	SEGMENT PARA USE32 PUBLIC 'CODE'
_TEXT	ENDS
;	COMDAT ??_GMVampireEarRing@@UAEPAXI@Z
_TEXT	SEGMENT PARA USE32 PUBLIC 'CODE'
_TEXT	ENDS
;	COMDAT ??0MVampireBracelet@@QAE@XZ
_TEXT	SEGMENT PARA USE32 PUBLIC 'CODE'
_TEXT	ENDS
;	COMDAT ??1MVampireBracelet@@UAE@XZ
_TEXT	SEGMENT PARA USE32 PUBLIC 'CODE'
_TEXT	ENDS
;	COMDAT ?GetItemClass@MVampireBracelet@@UBE?AW4ITEM_CLASS@@XZ
_TEXT	SEGMENT PARA USE32 PUBLIC 'CODE'
_TEXT	ENDS
;	COMDAT ?GetGearSlot@MVampireBracelet@@UBE?AW4ITEM_GEAR_SLOT@MItem@@XZ
_TEXT	SEGMENT PARA USE32 PUBLIC 'CODE'
_TEXT	ENDS
;	COMDAT ?IsGearSlotVampireBracelet@MVampireBracelet@@UBE_NXZ
_TEXT	SEGMENT PARA USE32 PUBLIC 'CODE'
_TEXT	ENDS
;	COMDAT ?HasMagicProtection@MVampireBracelet@@UBE_NXZ
_TEXT	SEGMENT PARA USE32 PUBLIC 'CODE'
_TEXT	ENDS
;	COMDAT ??_GMVampireBracelet@@UAEPAXI@Z
_TEXT	SEGMENT PARA USE32 PUBLIC 'CODE'
_TEXT	ENDS
;	COMDAT ??0MVampireNecklace@@QAE@XZ
_TEXT	SEGMENT PARA USE32 PUBLIC 'CODE'
_TEXT	ENDS
;	COMDAT ??1MVampireNecklace@@UAE@XZ
_TEXT	SEGMENT PARA USE32 PUBLIC 'CODE'
_TEXT	ENDS
;	COMDAT ?GetItemClass@MVampireNecklace@@UBE?AW4ITEM_CLASS@@XZ
_TEXT	SEGMENT PARA USE32 PUBLIC 'CODE'
_TEXT	ENDS
;	COMDAT ?GetGearSlot@MVampireNecklace@@UBE?AW4ITEM_GEAR_SLOT@MItem@@XZ
_TEXT	SEGMENT PARA USE32 PUBLIC 'CODE'
_TEXT	ENDS
;	COMDAT ?IsGearSlotVampireNecklace@MVampireNecklace@@UBE_NXZ
_TEXT	SEGMENT PARA USE32 PUBLIC 'CODE'
_TEXT	ENDS
;	COMDAT ?HasMagicProtection@MVampireNecklace@@UBE_NXZ
_TEXT	SEGMENT PARA USE32 PUBLIC 'CODE'
_TEXT	ENDS
;	COMDAT ??_GMVampireNecklace@@UAEPAXI@Z
_TEXT	SEGMENT PARA USE32 PUBLIC 'CODE'
_TEXT	ENDS
;	COMDAT ??0MVampireCoat@@QAE@XZ
_TEXT	SEGMENT PARA USE32 PUBLIC 'CODE'
_TEXT	ENDS
;	COMDAT ??1MVampireCoat@@UAE@XZ
_TEXT	SEGMENT PARA USE32 PUBLIC 'CODE'
_TEXT	ENDS
;	COMDAT ?GetItemClass@MVampireCoat@@UBE?AW4ITEM_CLASS@@XZ
_TEXT	SEGMENT PARA USE32 PUBLIC 'CODE'
_TEXT	ENDS
;	COMDAT ?GetGearSlot@MVampireCoat@@UBE?AW4ITEM_GEAR_SLOT@MItem@@XZ
_TEXT	SEGMENT PARA USE32 PUBLIC 'CODE'
_TEXT	ENDS
;	COMDAT ?IsGearSlotVampireCoat@MVampireCoat@@UBE_NXZ
_TEXT	SEGMENT PARA USE32 PUBLIC 'CODE'
_TEXT	ENDS
;	COMDAT ?IsAddonItem@MVampireCoat@@UBE_NXZ
_TEXT	SEGMENT PARA USE32 PUBLIC 'CODE'
_TEXT	ENDS
;	COMDAT ?GetAddonSlot@MVampireCoat@@UBE?AW4ADDON@@XZ
_TEXT	SEGMENT PARA USE32 PUBLIC 'CODE'
_TEXT	ENDS
;	COMDAT ??_GMVampireCoat@@UAEPAXI@Z
_TEXT	SEGMENT PARA USE32 PUBLIC 'CODE'
_TEXT	ENDS
;	COMDAT ??0MSkull@@QAE@XZ
_TEXT	SEGMENT PARA USE32 PUBLIC 'CODE'
_TEXT	ENDS
;	COMDAT ??1MSkull@@UAE@XZ
_TEXT	SEGMENT PARA USE32 PUBLIC 'CODE'
_TEXT	ENDS
;	COMDAT ?GetItemClass@MSkull@@UBE?AW4ITEM_CLASS@@XZ
_TEXT	SEGMENT PARA USE32 PUBLIC 'CODE'
_TEXT	ENDS
;	COMDAT ??_GMSkull@@UAEPAXI@Z
_TEXT	SEGMENT PARA USE32 PUBLIC 'CODE'
_TEXT	ENDS
;	COMDAT ??0MSerum@@QAE@XZ
_TEXT	SEGMENT PARA USE32 PUBLIC 'CODE'
_TEXT	ENDS
;	COMDAT ??1MSerum@@UAE@XZ
_TEXT	SEGMENT PARA USE32 PUBLIC 'CODE'
_TEXT	ENDS
;	COMDAT ?GetItemClass@MSerum@@UBE?AW4ITEM_CLASS@@XZ
_TEXT	SEGMENT PARA USE32 PUBLIC 'CODE'
_TEXT	ENDS
;	COMDAT ?GetHealPoint@MSerum@@UBEHXZ
_TEXT	SEGMENT PARA USE32 PUBLIC 'CODE'
_TEXT	ENDS
;	COMDAT ??_GMSerum@@UAEPAXI@Z
_TEXT	SEGMENT PARA USE32 PUBLIC 'CODE'
_TEXT	ENDS
;	COMDAT ??0MVampireETC@@QAE@XZ
_TEXT	SEGMENT PARA USE32 PUBLIC 'CODE'
_TEXT	ENDS
;	COMDAT ??1MVampireETC@@UAE@XZ
_TEXT	SEGMENT PARA USE32 PUBLIC 'CODE'
_TEXT	ENDS
;	COMDAT ?GetItemClass@MVampireETC@@UBE?AW4ITEM_CLASS@@XZ
_TEXT	SEGMENT PARA USE32 PUBLIC 'CODE'
_TEXT	ENDS
;	COMDAT ??_GMVampireETC@@UAEPAXI@Z
_TEXT	SEGMENT PARA USE32 PUBLIC 'CODE'
_TEXT	ENDS
;	COMDAT ??0MSlayerPortalItem@@QAE@XZ
_TEXT	SEGMENT PARA USE32 PUBLIC 'CODE'
_TEXT	ENDS
;	COMDAT ??1MSlayerPortalItem@@UAE@XZ
_TEXT	SEGMENT PARA USE32 PUBLIC 'CODE'
_TEXT	ENDS
;	COMDAT ?GetItemClass@MSlayerPortalItem@@UBE?AW4ITEM_CLASS@@XZ
_TEXT	SEGMENT PARA USE32 PUBLIC 'CODE'
_TEXT	ENDS
;	COMDAT ?GetNumber@MSlayerPortalItem@@UBEIXZ
_TEXT	SEGMENT PARA USE32 PUBLIC 'CODE'
_TEXT	ENDS
;	COMDAT ?SetNumber@MSlayerPortalItem@@UAEXI@Z
_TEXT	SEGMENT PARA USE32 PUBLIC 'CODE'
_TEXT	ENDS
;	COMDAT ?IsChargeItem@MSlayerPortalItem@@UBE_NXZ
_TEXT	SEGMENT PARA USE32 PUBLIC 'CODE'
_TEXT	ENDS
;	COMDAT ??_GMSlayerPortalItem@@UAEPAXI@Z
_TEXT	SEGMENT PARA USE32 PUBLIC 'CODE'
_TEXT	ENDS
;	COMDAT ??1MVampirePortalItem@@UAE@XZ
_TEXT	SEGMENT PARA USE32 PUBLIC 'CODE'
_TEXT	ENDS
;	COMDAT ?GetItemClass@MVampirePortalItem@@UBE?AW4ITEM_CLASS@@XZ
_TEXT	SEGMENT PARA USE32 PUBLIC 'CODE'
_TEXT	ENDS
;	COMDAT ?GetNumber@MVampirePortalItem@@UBEIXZ
_TEXT	SEGMENT PARA USE32 PUBLIC 'CODE'
_TEXT	ENDS
;	COMDAT ?SetNumber@MVampirePortalItem@@UAEXI@Z
_TEXT	SEGMENT PARA USE32 PUBLIC 'CODE'
_TEXT	ENDS
;	COMDAT ?IsChargeItem@MVampirePortalItem@@UBE_NXZ
_TEXT	SEGMENT PARA USE32 PUBLIC 'CODE'
_TEXT	ENDS
;	COMDAT ?IsRepairableItem@MVampirePortalItem@@UBE_NXZ
_TEXT	SEGMENT PARA USE32 PUBLIC 'CODE'
_TEXT	ENDS
;	COMDAT ??_GMVampirePortalItem@@UAEPAXI@Z
_TEXT	SEGMENT PARA USE32 PUBLIC 'CODE'
_TEXT	ENDS
;	COMDAT ??0MEventGiftBoxItem@@QAE@XZ
_TEXT	SEGMENT PARA USE32 PUBLIC 'CODE'
_TEXT	ENDS
;	COMDAT ??1MEventGiftBoxItem@@UAE@XZ
_TEXT	SEGMENT PARA USE32 PUBLIC 'CODE'
_TEXT	ENDS
;	COMDAT ?GetItemClass@MEventGiftBoxItem@@UBE?AW4ITEM_CLASS@@XZ
_TEXT	SEGMENT PARA USE32 PUBLIC 'CODE'
_TEXT	ENDS
;	COMDAT ?IsRepairableItem@MEventGiftBoxItem@@UBE_NXZ
_TEXT	SEGMENT PARA USE32 PUBLIC 'CODE'
_TEXT	ENDS
;	COMDAT ??_GMEventGiftBoxItem@@UAEPAXI@Z
_TEXT	SEGMENT PARA USE32 PUBLIC 'CODE'
_TEXT	ENDS
;	COMDAT ??0MEventStarItem@@QAE@XZ
_TEXT	SEGMENT PARA USE32 PUBLIC 'CODE'
_TEXT	ENDS
;	COMDAT ??1MEventStarItem@@UAE@XZ
_TEXT	SEGMENT PARA USE32 PUBLIC 'CODE'
_TEXT	ENDS
;	COMDAT ?GetItemClass@MEventStarItem@@UBE?AW4ITEM_CLASS@@XZ
_TEXT	SEGMENT PARA USE32 PUBLIC 'CODE'
_TEXT	ENDS
;	COMDAT ?IsRepairableItem@MEventStarItem@@UBE_NXZ
_TEXT	SEGMENT PARA USE32 PUBLIC 'CODE'
_TEXT	ENDS
;	COMDAT ?IsDetachableItem@MEventStarItem@@UBE_NXZ
_TEXT	SEGMENT PARA USE32 PUBLIC 'CODE'
_TEXT	ENDS
;	COMDAT ??_GMEventStarItem@@UAEPAXI@Z
_TEXT	SEGMENT PARA USE32 PUBLIC 'CODE'
_TEXT	ENDS
;	COMDAT ??0MVampireWeapon@@QAE@XZ
_TEXT	SEGMENT PARA USE32 PUBLIC 'CODE'
_TEXT	ENDS
;	COMDAT ??1MVampireWeapon@@UAE@XZ
_TEXT	SEGMENT PARA USE32 PUBLIC 'CODE'
_TEXT	ENDS
;	COMDAT ?GetItemClass@MVampireWeapon@@UBE?AW4ITEM_CLASS@@XZ
_TEXT	SEGMENT PARA USE32 PUBLIC 'CODE'
_TEXT	ENDS
;	COMDAT ?GetGearSlot@MVampireWeapon@@UBE?AW4ITEM_GEAR_SLOT@MItem@@XZ
_TEXT	SEGMENT PARA USE32 PUBLIC 'CODE'
_TEXT	ENDS
;	COMDAT ?IsGearSlotTwoHand@MVampireWeapon@@UBE_NXZ
_TEXT	SEGMENT PARA USE32 PUBLIC 'CODE'
_TEXT	ENDS
;	COMDAT ?IsAddonItem@MVampireWeapon@@UBE_NXZ
_TEXT	SEGMENT PARA USE32 PUBLIC 'CODE'
_TEXT	ENDS
;	COMDAT ?GetAddonSlot@MVampireWeapon@@UBE?AW4ADDON@@XZ
_TEXT	SEGMENT PARA USE32 PUBLIC 'CODE'
_TEXT	ENDS
;	COMDAT ?IsMeleeWeapon@MVampireWeapon@@UBE_NXZ
_TEXT	SEGMENT PARA USE32 PUBLIC 'CODE'
_TEXT	ENDS
;	COMDAT ?IsMagicWeapon@MVampireWeapon@@UBE_NXZ
_TEXT	SEGMENT PARA USE32 PUBLIC 'CODE'
_TEXT	ENDS
;	COMDAT ??_GMVampireWeapon@@UAEPAXI@Z
_TEXT	SEGMENT PARA USE32 PUBLIC 'CODE'
_TEXT	ENDS
;	COMDAT ??0MVampireAmulet@@QAE@XZ
_TEXT	SEGMENT PARA USE32 PUBLIC 'CODE'
_TEXT	ENDS
;	COMDAT ??1MVampireAmulet@@UAE@XZ
_TEXT	SEGMENT PARA USE32 PUBLIC 'CODE'
_TEXT	ENDS
;	COMDAT ?GetItemClass@MVampireAmulet@@UBE?AW4ITEM_CLASS@@XZ
_TEXT	SEGMENT PARA USE32 PUBLIC 'CODE'
_TEXT	ENDS
;	COMDAT ?GetGearSlot@MVampireAmulet@@UBE?AW4ITEM_GEAR_SLOT@MItem@@XZ
_TEXT	SEGMENT PARA USE32 PUBLIC 'CODE'
_TEXT	ENDS
;	COMDAT ?IsGearSlotVampireAmulet@MVampireAmulet@@UBE_NXZ
_TEXT	SEGMENT PARA USE32 PUBLIC 'CODE'
_TEXT	ENDS
;	COMDAT ?IsDurationAlwaysOkay@MVampireAmulet@@UBE_NXZ
_TEXT	SEGMENT PARA USE32 PUBLIC 'CODE'
_TEXT	ENDS
;	COMDAT ?HasMagicProtection@MVampireAmulet@@UBE_NXZ
_TEXT	SEGMENT PARA USE32 PUBLIC 'CODE'
_TEXT	ENDS
;	COMDAT ?IsRepairableItem@MVampireAmulet@@UBE_NXZ
_TEXT	SEGMENT PARA USE32 PUBLIC 'CODE'
_TEXT	ENDS
;	COMDAT ??_GMVampireAmulet@@UAEPAXI@Z
_TEXT	SEGMENT PARA USE32 PUBLIC 'CODE'
_TEXT	ENDS
;	COMDAT ??0MQuestItem@@QAE@XZ
_TEXT	SEGMENT PARA USE32 PUBLIC 'CODE'
_TEXT	ENDS
;	COMDAT ??1MQuestItem@@UAE@XZ
_TEXT	SEGMENT PARA USE32 PUBLIC 'CODE'
_TEXT	ENDS
;	COMDAT ?GetItemClass@MQuestItem@@UBE?AW4ITEM_CLASS@@XZ
_TEXT	SEGMENT PARA USE32 PUBLIC 'CODE'
_TEXT	ENDS
;	COMDAT ?IsRepairableItem@MQuestItem@@UBE_NXZ
_TEXT	SEGMENT PARA USE32 PUBLIC 'CODE'
_TEXT	ENDS
;	COMDAT ??_GMQuestItem@@UAEPAXI@Z
_TEXT	SEGMENT PARA USE32 PUBLIC 'CODE'
_TEXT	ENDS
;	COMDAT ??0MEventTreeItem@@QAE@XZ
_TEXT	SEGMENT PARA USE32 PUBLIC 'CODE'
_TEXT	ENDS
;	COMDAT ??1MEventTreeItem@@UAE@XZ
_TEXT	SEGMENT PARA USE32 PUBLIC 'CODE'
_TEXT	ENDS
;	COMDAT ?GetItemClass@MEventTreeItem@@UBE?AW4ITEM_CLASS@@XZ
_TEXT	SEGMENT PARA USE32 PUBLIC 'CODE'
_TEXT	ENDS
;	COMDAT ?IsRepairableItem@MEventTreeItem@@UBE_NXZ
_TEXT	SEGMENT PARA USE32 PUBLIC 'CODE'
_TEXT	ENDS
;	COMDAT ??_GMEventTreeItem@@UAEPAXI@Z
_TEXT	SEGMENT PARA USE32 PUBLIC 'CODE'
_TEXT	ENDS
;	COMDAT ??0MEventEtcItem@@QAE@XZ
_TEXT	SEGMENT PARA USE32 PUBLIC 'CODE'
_TEXT	ENDS
;	COMDAT ??1MEventEtcItem@@UAE@XZ
_TEXT	SEGMENT PARA USE32 PUBLIC 'CODE'
_TEXT	ENDS
;	COMDAT ?GetItemClass@MEventEtcItem@@UBE?AW4ITEM_CLASS@@XZ
_TEXT	SEGMENT PARA USE32 PUBLIC 'CODE'
_TEXT	ENDS
;	COMDAT ?IsQuickItem@MEventEtcItem@@UBE_NXZ
_TEXT	SEGMENT PARA USE32 PUBLIC 'CODE'
_TEXT	ENDS
;	COMDAT ?IsRepairableItem@MEventEtcItem@@UBE_NXZ
_TEXT	SEGMENT PARA USE32 PUBLIC 'CODE'
_TEXT	ENDS
;	COMDAT ??_GMEventEtcItem@@UAEPAXI@Z
_TEXT	SEGMENT PARA USE32 PUBLIC 'CODE'
_TEXT	ENDS
;	COMDAT ??0MBloodBible@@QAE@XZ
_TEXT	SEGMENT PARA USE32 PUBLIC 'CODE'
_TEXT	ENDS
;	COMDAT ??1MBloodBible@@UAE@XZ
_TEXT	SEGMENT PARA USE32 PUBLIC 'CODE'
_TEXT	ENDS
;	COMDAT ?GetItemClass@MBloodBible@@UBE?AW4ITEM_CLASS@@XZ
_TEXT	SEGMENT PARA USE32 PUBLIC 'CODE'
_TEXT	ENDS
;	COMDAT ??_GMBloodBible@@UAEPAXI@Z
_TEXT	SEGMENT PARA USE32 PUBLIC 'CODE'
_TEXT	ENDS
;	COMDAT ??0MCastleSymbol@@QAE@XZ
_TEXT	SEGMENT PARA USE32 PUBLIC 'CODE'
_TEXT	ENDS
;	COMDAT ??1MCastleSymbol@@UAE@XZ
_TEXT	SEGMENT PARA USE32 PUBLIC 'CODE'
_TEXT	ENDS
;	COMDAT ?GetItemClass@MCastleSymbol@@UBE?AW4ITEM_CLASS@@XZ
_TEXT	SEGMENT PARA USE32 PUBLIC 'CODE'
_TEXT	ENDS
;	COMDAT ??_GMCastleSymbol@@UAEPAXI@Z
_TEXT	SEGMENT PARA USE32 PUBLIC 'CODE'
_TEXT	ENDS
;	COMDAT ??0MCoupleRing@@QAE@XZ
_TEXT	SEGMENT PARA USE32 PUBLIC 'CODE'
_TEXT	ENDS
;	COMDAT ??1MCoupleRing@@UAE@XZ
_TEXT	SEGMENT PARA USE32 PUBLIC 'CODE'
_TEXT	ENDS
;	COMDAT ?GetItemClass@MCoupleRing@@UBE?AW4ITEM_CLASS@@XZ
_TEXT	SEGMENT PARA USE32 PUBLIC 'CODE'
_TEXT	ENDS
;	COMDAT ?IsDurationAlwaysOkay@MCoupleRing@@UBE_NXZ
_TEXT	SEGMENT PARA USE32 PUBLIC 'CODE'
_TEXT	ENDS
;	COMDAT ?IsRepairableItem@MCoupleRing@@UBE_NXZ
_TEXT	SEGMENT PARA USE32 PUBLIC 'CODE'
_TEXT	ENDS
;	COMDAT ??_GMCoupleRing@@UAEPAXI@Z
_TEXT	SEGMENT PARA USE32 PUBLIC 'CODE'
_TEXT	ENDS
;	COMDAT ??0MVampireCoupleRing@@QAE@XZ
_TEXT	SEGMENT PARA USE32 PUBLIC 'CODE'
_TEXT	ENDS
;	COMDAT ??1MVampireCoupleRing@@UAE@XZ
_TEXT	SEGMENT PARA USE32 PUBLIC 'CODE'
_TEXT	ENDS
;	COMDAT ?GetItemClass@MVampireCoupleRing@@UBE?AW4ITEM_CLASS@@XZ
_TEXT	SEGMENT PARA USE32 PUBLIC 'CODE'
_TEXT	ENDS
;	COMDAT ?IsDurationAlwaysOkay@MVampireCoupleRing@@UBE_NXZ
_TEXT	SEGMENT PARA USE32 PUBLIC 'CODE'
_TEXT	ENDS
;	COMDAT ?IsRepairableItem@MVampireCoupleRing@@UBE_NXZ
_TEXT	SEGMENT PARA USE32 PUBLIC 'CODE'
_TEXT	ENDS
;	COMDAT ??_GMVampireCoupleRing@@UAEPAXI@Z
_TEXT	SEGMENT PARA USE32 PUBLIC 'CODE'
_TEXT	ENDS
;	COMDAT ??0MEventItem@@QAE@XZ
_TEXT	SEGMENT PARA USE32 PUBLIC 'CODE'
_TEXT	ENDS
;	COMDAT ??1MEventItem@@UAE@XZ
_TEXT	SEGMENT PARA USE32 PUBLIC 'CODE'
_TEXT	ENDS
;	COMDAT ?GetItemClass@MEventItem@@UBE?AW4ITEM_CLASS@@XZ
_TEXT	SEGMENT PARA USE32 PUBLIC 'CODE'
_TEXT	ENDS
;	COMDAT ?IsRepairableItem@MEventItem@@UBE_NXZ
_TEXT	SEGMENT PARA USE32 PUBLIC 'CODE'
_TEXT	ENDS
;	COMDAT ??_GMEventItem@@UAEPAXI@Z
_TEXT	SEGMENT PARA USE32 PUBLIC 'CODE'
_TEXT	ENDS
;	COMDAT ??0MDyePotionItem@@QAE@XZ
_TEXT	SEGMENT PARA USE32 PUBLIC 'CODE'
_TEXT	ENDS
;	COMDAT ??1MDyePotionItem@@UAE@XZ
_TEXT	SEGMENT PARA USE32 PUBLIC 'CODE'
_TEXT	ENDS
;	COMDAT ?GetItemClass@MDyePotionItem@@UBE?AW4ITEM_CLASS@@XZ
_TEXT	SEGMENT PARA USE32 PUBLIC 'CODE'
_TEXT	ENDS
;	COMDAT ??_GMDyePotionItem@@UAEPAXI@Z
_TEXT	SEGMENT PARA USE32 PUBLIC 'CODE'
_TEXT	ENDS
;	COMDAT ??0MResurrectItem@@QAE@XZ
_TEXT	SEGMENT PARA USE32 PUBLIC 'CODE'
_TEXT	ENDS
;	COMDAT ??1MResurrectItem@@UAE@XZ
_TEXT	SEGMENT PARA USE32 PUBLIC 'CODE'
_TEXT	ENDS
;	COMDAT ?GetItemClass@MResurrectItem@@UBE?AW4ITEM_CLASS@@XZ
_TEXT	SEGMENT PARA USE32 PUBLIC 'CODE'
_TEXT	ENDS
;	COMDAT ??_GMResurrectItem@@UAEPAXI@Z
_TEXT	SEGMENT PARA USE32 PUBLIC 'CODE'
_TEXT	ENDS
;	COMDAT ??0MMixingItem@@QAE@XZ
_TEXT	SEGMENT PARA USE32 PUBLIC 'CODE'
_TEXT	ENDS
;	COMDAT ??1MMixingItem@@UAE@XZ
_TEXT	SEGMENT PARA USE32 PUBLIC 'CODE'
_TEXT	ENDS
;	COMDAT ?GetItemClass@MMixingItem@@UBE?AW4ITEM_CLASS@@XZ
_TEXT	SEGMENT PARA USE32 PUBLIC 'CODE'
_TEXT	ENDS
;	COMDAT ?IsDetachableItem@MMixingItem@@UBE_NXZ
_TEXT	SEGMENT PARA USE32 PUBLIC 'CODE'
_TEXT	ENDS
;	COMDAT ??_GMMixingItem@@UAEPAXI@Z
_TEXT	SEGMENT PARA USE32 PUBLIC 'CODE'
_TEXT	ENDS
;	COMDAT ??0MOustersArmsBand@@QAE@XZ
_TEXT	SEGMENT PARA USE32 PUBLIC 'CODE'
_TEXT	ENDS
;	COMDAT ??1MOustersArmsBand@@UAE@XZ
_TEXT	SEGMENT PARA USE32 PUBLIC 'CODE'
_TEXT	ENDS
;	COMDAT ?GetItemClass@MOustersArmsBand@@UBE?AW4ITEM_CLASS@@XZ
_TEXT	SEGMENT PARA USE32 PUBLIC 'CODE'
_TEXT	ENDS
;	COMDAT ?GetGearSlot@MOustersArmsBand@@UBE?AW4ITEM_GEAR_SLOT@MItem@@XZ
_TEXT	SEGMENT PARA USE32 PUBLIC 'CODE'
_TEXT	ENDS
;	COMDAT ?IsGearSlotOustersArmsBand@MOustersArmsBand@@UBE_NXZ
_TEXT	SEGMENT PARA USE32 PUBLIC 'CODE'
_TEXT	ENDS
;	COMDAT ?IsContainerItem@MOustersArmsBand@@UBE_NXZ
_TEXT	SEGMENT PARA USE32 PUBLIC 'CODE'
_TEXT	ENDS
;	COMDAT ?GetPocketNumber@MOustersArmsBand@@UBEHXZ
_TEXT	SEGMENT PARA USE32 PUBLIC 'CODE'
_TEXT	ENDS
;	COMDAT ??_GMOustersArmsBand@@UAEPAXI@Z
_TEXT	SEGMENT PARA USE32 PUBLIC 'CODE'
_TEXT	ENDS
;	COMDAT ??0MOustersBoots@@QAE@XZ
_TEXT	SEGMENT PARA USE32 PUBLIC 'CODE'
_TEXT	ENDS
;	COMDAT ??1MOustersBoots@@UAE@XZ
_TEXT	SEGMENT PARA USE32 PUBLIC 'CODE'
_TEXT	ENDS
;	COMDAT ?GetItemClass@MOustersBoots@@UBE?AW4ITEM_CLASS@@XZ
_TEXT	SEGMENT PARA USE32 PUBLIC 'CODE'
_TEXT	ENDS
;	COMDAT ?GetGearSlot@MOustersBoots@@UBE?AW4ITEM_GEAR_SLOT@MItem@@XZ
_TEXT	SEGMENT PARA USE32 PUBLIC 'CODE'
_TEXT	ENDS
;	COMDAT ?IsGearSlotOustersBoots@MOustersBoots@@UBE_NXZ
_TEXT	SEGMENT PARA USE32 PUBLIC 'CODE'
_TEXT	ENDS
;	COMDAT ?IsAddonItem@MOustersBoots@@UBE_NXZ
_TEXT	SEGMENT PARA USE32 PUBLIC 'CODE'
_TEXT	ENDS
;	COMDAT ?GetAddonSlot@MOustersBoots@@UBE?AW4ADDON@@XZ
_TEXT	SEGMENT PARA USE32 PUBLIC 'CODE'
_TEXT	ENDS
;	COMDAT ??_GMOustersBoots@@UAEPAXI@Z
_TEXT	SEGMENT PARA USE32 PUBLIC 'CODE'
_TEXT	ENDS
;	COMDAT ??0MOustersChakram@@QAE@XZ
_TEXT	SEGMENT PARA USE32 PUBLIC 'CODE'
_TEXT	ENDS
;	COMDAT ??1MOustersChakram@@UAE@XZ
_TEXT	SEGMENT PARA USE32 PUBLIC 'CODE'
_TEXT	ENDS
;	COMDAT ?GetItemClass@MOustersChakram@@UBE?AW4ITEM_CLASS@@XZ
_TEXT	SEGMENT PARA USE32 PUBLIC 'CODE'
_TEXT	ENDS
;	COMDAT ?GetGearSlot@MOustersChakram@@UBE?AW4ITEM_GEAR_SLOT@MItem@@XZ
_TEXT	SEGMENT PARA USE32 PUBLIC 'CODE'
_TEXT	ENDS
;	COMDAT ?IsGearSlotTwoHand@MOustersChakram@@UBE_NXZ
_TEXT	SEGMENT PARA USE32 PUBLIC 'CODE'
_TEXT	ENDS
;	COMDAT ?IsAddonItem@MOustersChakram@@UBE_NXZ
_TEXT	SEGMENT PARA USE32 PUBLIC 'CODE'
_TEXT	ENDS
;	COMDAT ?GetAddonSlot@MOustersChakram@@UBE?AW4ADDON@@XZ
_TEXT	SEGMENT PARA USE32 PUBLIC 'CODE'
_TEXT	ENDS
;	COMDAT ?IsMeleeWeapon@MOustersChakram@@UBE_NXZ
_TEXT	SEGMENT PARA USE32 PUBLIC 'CODE'
_TEXT	ENDS
;	COMDAT ??_GMOustersChakram@@UAEPAXI@Z
_TEXT	SEGMENT PARA USE32 PUBLIC 'CODE'
_TEXT	ENDS
;	COMDAT ??0MOustersCirclet@@QAE@XZ
_TEXT	SEGMENT PARA USE32 PUBLIC 'CODE'
_TEXT	ENDS
;	COMDAT ??1MOustersCirclet@@UAE@XZ
_TEXT	SEGMENT PARA USE32 PUBLIC 'CODE'
_TEXT	ENDS
;	COMDAT ?GetItemClass@MOustersCirclet@@UBE?AW4ITEM_CLASS@@XZ
_TEXT	SEGMENT PARA USE32 PUBLIC 'CODE'
_TEXT	ENDS
;	COMDAT ?GetGearSlot@MOustersCirclet@@UBE?AW4ITEM_GEAR_SLOT@MItem@@XZ
_TEXT	SEGMENT PARA USE32 PUBLIC 'CODE'
_TEXT	ENDS
;	COMDAT ?IsGearSlotOustersCirclet@MOustersCirclet@@UBE_NXZ
_TEXT	SEGMENT PARA USE32 PUBLIC 'CODE'
_TEXT	ENDS
;	COMDAT ??_GMOustersCirclet@@UAEPAXI@Z
_TEXT	SEGMENT PARA USE32 PUBLIC 'CODE'
_TEXT	ENDS
;	COMDAT ??0MOustersCoat@@QAE@XZ
_TEXT	SEGMENT PARA USE32 PUBLIC 'CODE'
_TEXT	ENDS
;	COMDAT ??1MOustersCoat@@UAE@XZ
_TEXT	SEGMENT PARA USE32 PUBLIC 'CODE'
_TEXT	ENDS
;	COMDAT ?GetItemClass@MOustersCoat@@UBE?AW4ITEM_CLASS@@XZ
_TEXT	SEGMENT PARA USE32 PUBLIC 'CODE'
_TEXT	ENDS
;	COMDAT ?GetGearSlot@MOustersCoat@@UBE?AW4ITEM_GEAR_SLOT@MItem@@XZ
_TEXT	SEGMENT PARA USE32 PUBLIC 'CODE'
_TEXT	ENDS
;	COMDAT ?IsGearSlotOustersCoat@MOustersCoat@@UBE_NXZ
_TEXT	SEGMENT PARA USE32 PUBLIC 'CODE'
_TEXT	ENDS
;	COMDAT ?IsAddonItem@MOustersCoat@@UBE_NXZ
_TEXT	SEGMENT PARA USE32 PUBLIC 'CODE'
_TEXT	ENDS
;	COMDAT ?GetAddonSlot@MOustersCoat@@UBE?AW4ADDON@@XZ
_TEXT	SEGMENT PARA USE32 PUBLIC 'CODE'
_TEXT	ENDS
;	COMDAT ??_GMOustersCoat@@UAEPAXI@Z
_TEXT	SEGMENT PARA USE32 PUBLIC 'CODE'
_TEXT	ENDS
;	COMDAT ??0MOustersPendent@@QAE@XZ
_TEXT	SEGMENT PARA USE32 PUBLIC 'CODE'
_TEXT	ENDS
;	COMDAT ??1MOustersPendent@@UAE@XZ
_TEXT	SEGMENT PARA USE32 PUBLIC 'CODE'
_TEXT	ENDS
;	COMDAT ?GetItemClass@MOustersPendent@@UBE?AW4ITEM_CLASS@@XZ
_TEXT	SEGMENT PARA USE32 PUBLIC 'CODE'
_TEXT	ENDS
;	COMDAT ?GetGearSlot@MOustersPendent@@UBE?AW4ITEM_GEAR_SLOT@MItem@@XZ
_TEXT	SEGMENT PARA USE32 PUBLIC 'CODE'
_TEXT	ENDS
;	COMDAT ?IsGearSlotOustersPendent@MOustersPendent@@UBE_NXZ
_TEXT	SEGMENT PARA USE32 PUBLIC 'CODE'
_TEXT	ENDS
;	COMDAT ?HasMagicProtection@MOustersPendent@@UBE_NXZ
_TEXT	SEGMENT PARA USE32 PUBLIC 'CODE'
_TEXT	ENDS
;	COMDAT ??_GMOustersPendent@@UAEPAXI@Z
_TEXT	SEGMENT PARA USE32 PUBLIC 'CODE'
_TEXT	ENDS
;	COMDAT ??0MOustersRing@@QAE@XZ
_TEXT	SEGMENT PARA USE32 PUBLIC 'CODE'
_TEXT	ENDS
;	COMDAT ??1MOustersRing@@UAE@XZ
_TEXT	SEGMENT PARA USE32 PUBLIC 'CODE'
_TEXT	ENDS
;	COMDAT ?GetItemClass@MOustersRing@@UBE?AW4ITEM_CLASS@@XZ
_TEXT	SEGMENT PARA USE32 PUBLIC 'CODE'
_TEXT	ENDS
;	COMDAT ?GetGearSlot@MOustersRing@@UBE?AW4ITEM_GEAR_SLOT@MItem@@XZ
_TEXT	SEGMENT PARA USE32 PUBLIC 'CODE'
_TEXT	ENDS
;	COMDAT ?IsGearSlotOustersRing@MOustersRing@@UBE_NXZ
_TEXT	SEGMENT PARA USE32 PUBLIC 'CODE'
_TEXT	ENDS
;	COMDAT ?HasMagicProtection@MOustersRing@@UBE_NXZ
_TEXT	SEGMENT PARA USE32 PUBLIC 'CODE'
_TEXT	ENDS
;	COMDAT ??_GMOustersRing@@UAEPAXI@Z
_TEXT	SEGMENT PARA USE32 PUBLIC 'CODE'
_TEXT	ENDS
;	COMDAT ??0MOustersStone@@QAE@XZ
_TEXT	SEGMENT PARA USE32 PUBLIC 'CODE'
_TEXT	ENDS
;	COMDAT ??1MOustersStone@@UAE@XZ
_TEXT	SEGMENT PARA USE32 PUBLIC 'CODE'
_TEXT	ENDS
;	COMDAT ?GetItemClass@MOustersStone@@UBE?AW4ITEM_CLASS@@XZ
_TEXT	SEGMENT PARA USE32 PUBLIC 'CODE'
_TEXT	ENDS
;	COMDAT ?GetGearSlot@MOustersStone@@UBE?AW4ITEM_GEAR_SLOT@MItem@@XZ
_TEXT	SEGMENT PARA USE32 PUBLIC 'CODE'
_TEXT	ENDS
;	COMDAT ?IsGearSlotOustersStone@MOustersStone@@UBE_NXZ
_TEXT	SEGMENT PARA USE32 PUBLIC 'CODE'
_TEXT	ENDS
;	COMDAT ?HasMagicProtection@MOustersStone@@UBE_NXZ
_TEXT	SEGMENT PARA USE32 PUBLIC 'CODE'
_TEXT	ENDS
;	COMDAT ??_GMOustersStone@@UAEPAXI@Z
_TEXT	SEGMENT PARA USE32 PUBLIC 'CODE'
_TEXT	ENDS
;	COMDAT ??0MOustersWristlet@@QAE@XZ
_TEXT	SEGMENT PARA USE32 PUBLIC 'CODE'
_TEXT	ENDS
;	COMDAT ??1MOustersWristlet@@UAE@XZ
_TEXT	SEGMENT PARA USE32 PUBLIC 'CODE'
_TEXT	ENDS
;	COMDAT ?GetItemClass@MOustersWristlet@@UBE?AW4ITEM_CLASS@@XZ
_TEXT	SEGMENT PARA USE32 PUBLIC 'CODE'
_TEXT	ENDS
;	COMDAT ?GetGearSlot@MOustersWristlet@@UBE?AW4ITEM_GEAR_SLOT@MItem@@XZ
_TEXT	SEGMENT PARA USE32 PUBLIC 'CODE'
_TEXT	ENDS
;	COMDAT ?IsGearSlotTwoHand@MOustersWristlet@@UBE_NXZ
_TEXT	SEGMENT PARA USE32 PUBLIC 'CODE'
_TEXT	ENDS
;	COMDAT ?IsAddonItem@MOustersWristlet@@UBE_NXZ
_TEXT	SEGMENT PARA USE32 PUBLIC 'CODE'
_TEXT	ENDS
;	COMDAT ?GetAddonSlot@MOustersWristlet@@UBE?AW4ADDON@@XZ
_TEXT	SEGMENT PARA USE32 PUBLIC 'CODE'
_TEXT	ENDS
;	COMDAT ?IsMagicWeapon@MOustersWristlet@@UBE_NXZ
_TEXT	SEGMENT PARA USE32 PUBLIC 'CODE'
_TEXT	ENDS
;	COMDAT ??_GMOustersWristlet@@UAEPAXI@Z
_TEXT	SEGMENT PARA USE32 PUBLIC 'CODE'
_TEXT	ENDS
;	COMDAT ??0MOustersLarva@@QAE@XZ
_TEXT	SEGMENT PARA USE32 PUBLIC 'CODE'
_TEXT	ENDS
;	COMDAT ??1MOustersLarva@@UAE@XZ
_TEXT	SEGMENT PARA USE32 PUBLIC 'CODE'
_TEXT	ENDS
;	COMDAT ?GetItemClass@MOustersLarva@@UBE?AW4ITEM_CLASS@@XZ
_TEXT	SEGMENT PARA USE32 PUBLIC 'CODE'
_TEXT	ENDS
;	COMDAT ??_GMOustersLarva@@UAEPAXI@Z
_TEXT	SEGMENT PARA USE32 PUBLIC 'CODE'
_TEXT	ENDS
;	COMDAT ??0MOustersPupa@@QAE@XZ
_TEXT	SEGMENT PARA USE32 PUBLIC 'CODE'
_TEXT	ENDS
;	COMDAT ??1MOustersPupa@@UAE@XZ
_TEXT	SEGMENT PARA USE32 PUBLIC 'CODE'
_TEXT	ENDS
;	COMDAT ?GetItemClass@MOustersPupa@@UBE?AW4ITEM_CLASS@@XZ
_TEXT	SEGMENT PARA USE32 PUBLIC 'CODE'
_TEXT	ENDS
;	COMDAT ?GetHealPoint@MOustersPupa@@UBEHXZ
_TEXT	SEGMENT PARA USE32 PUBLIC 'CODE'
_TEXT	ENDS
;	COMDAT ?GetManaPoint@MOustersPupa@@UBEHXZ
_TEXT	SEGMENT PARA USE32 PUBLIC 'CODE'
_TEXT	ENDS
;	COMDAT ?IsQuickItem@MOustersPupa@@UBE_NXZ
_TEXT	SEGMENT PARA USE32 PUBLIC 'CODE'
_TEXT	ENDS
;	COMDAT ??_GMOustersPupa@@UAEPAXI@Z
_TEXT	SEGMENT PARA USE32 PUBLIC 'CODE'
_TEXT	ENDS
;	COMDAT ??0MOustersComposMei@@QAE@XZ
_TEXT	SEGMENT PARA USE32 PUBLIC 'CODE'
_TEXT	ENDS
;	COMDAT ??1MOustersComposMei@@UAE@XZ
_TEXT	SEGMENT PARA USE32 PUBLIC 'CODE'
_TEXT	ENDS
;	COMDAT ?GetItemClass@MOustersComposMei@@UBE?AW4ITEM_CLASS@@XZ
_TEXT	SEGMENT PARA USE32 PUBLIC 'CODE'
_TEXT	ENDS
;	COMDAT ?GetHealPoint@MOustersComposMei@@UBEHXZ
_TEXT	SEGMENT PARA USE32 PUBLIC 'CODE'
_TEXT	ENDS
;	COMDAT ?GetManaPoint@MOustersComposMei@@UBEHXZ
_TEXT	SEGMENT PARA USE32 PUBLIC 'CODE'
_TEXT	ENDS
;	COMDAT ?IsQuickItem@MOustersComposMei@@UBE_NXZ
_TEXT	SEGMENT PARA USE32 PUBLIC 'CODE'
_TEXT	ENDS
;	COMDAT ??_GMOustersComposMei@@UAEPAXI@Z
_TEXT	SEGMENT PARA USE32 PUBLIC 'CODE'
_TEXT	ENDS
;	COMDAT ??0MOustersSummonGem@@QAE@XZ
_TEXT	SEGMENT PARA USE32 PUBLIC 'CODE'
_TEXT	ENDS
;	COMDAT ??1MOustersSummonGem@@UAE@XZ
_TEXT	SEGMENT PARA USE32 PUBLIC 'CODE'
_TEXT	ENDS
;	COMDAT ?GetItemClass@MOustersSummonGem@@UBE?AW4ITEM_CLASS@@XZ
_TEXT	SEGMENT PARA USE32 PUBLIC 'CODE'
_TEXT	ENDS
;	COMDAT ?GetNumber@MOustersSummonGem@@UBEIXZ
_TEXT	SEGMENT PARA USE32 PUBLIC 'CODE'
_TEXT	ENDS
;	COMDAT ?SetNumber@MOustersSummonGem@@UAEXI@Z
_TEXT	SEGMENT PARA USE32 PUBLIC 'CODE'
_TEXT	ENDS
;	COMDAT ?IsChargeItem@MOustersSummonGem@@UBE_NXZ
_TEXT	SEGMENT PARA USE32 PUBLIC 'CODE'
_TEXT	ENDS
;	COMDAT ??_GMOustersSummonGem@@UAEPAXI@Z
_TEXT	SEGMENT PARA USE32 PUBLIC 'CODE'
_TEXT	ENDS
;	COMDAT ??0MEffectItem@@QAE@XZ
_TEXT	SEGMENT PARA USE32 PUBLIC 'CODE'
_TEXT	ENDS
;	COMDAT ??1MEffectItem@@UAE@XZ
_TEXT	SEGMENT PARA USE32 PUBLIC 'CODE'
_TEXT	ENDS
;	COMDAT ?GetItemClass@MEffectItem@@UBE?AW4ITEM_CLASS@@XZ
_TEXT	SEGMENT PARA USE32 PUBLIC 'CODE'
_TEXT	ENDS
;	COMDAT ??_GMEffectItem@@UAEPAXI@Z
_TEXT	SEGMENT PARA USE32 PUBLIC 'CODE'
_TEXT	ENDS
;	COMDAT ??0MCodeSheetItem@@QAE@XZ
_TEXT	SEGMENT PARA USE32 PUBLIC 'CODE'
_TEXT	ENDS
;	COMDAT ??1MCodeSheetItem@@UAE@XZ
_TEXT	SEGMENT PARA USE32 PUBLIC 'CODE'
_TEXT	ENDS
;	COMDAT ?GetItemClass@MCodeSheetItem@@UBE?AW4ITEM_CLASS@@XZ
_TEXT	SEGMENT PARA USE32 PUBLIC 'CODE'
_TEXT	ENDS
;	COMDAT ?IsRepairableItem@MCodeSheetItem@@UBE_NXZ
_TEXT	SEGMENT PARA USE32 PUBLIC 'CODE'
_TEXT	ENDS
;	COMDAT ??_GMCodeSheetItem@@UAEPAXI@Z
_TEXT	SEGMENT PARA USE32 PUBLIC 'CODE'
_TEXT	ENDS
;	COMDAT ??0MMoonCardItem@@QAE@XZ
_TEXT	SEGMENT PARA USE32 PUBLIC 'CODE'
_TEXT	ENDS
;	COMDAT ??1MMoonCardItem@@UAE@XZ
_TEXT	SEGMENT PARA USE32 PUBLIC 'CODE'
_TEXT	ENDS
;	COMDAT ?GetItemClass@MMoonCardItem@@UBE?AW4ITEM_CLASS@@XZ
_TEXT	SEGMENT PARA USE32 PUBLIC 'CODE'
_TEXT	ENDS
;	COMDAT ?IsDetachableItem@MMoonCardItem@@UBE_NXZ
_TEXT	SEGMENT PARA USE32 PUBLIC 'CODE'
_TEXT	ENDS
;	COMDAT ??_GMMoonCardItem@@UAEPAXI@Z
_TEXT	SEGMENT PARA USE32 PUBLIC 'CODE'
_TEXT	ENDS
;	COMDAT ??0MSweeperItem@@QAE@XZ
_TEXT	SEGMENT PARA USE32 PUBLIC 'CODE'
_TEXT	ENDS
;	COMDAT ??1MSweeperItem@@UAE@XZ
_TEXT	SEGMENT PARA USE32 PUBLIC 'CODE'
_TEXT	ENDS
;	COMDAT ?GetItemClass@MSweeperItem@@UBE?AW4ITEM_CLASS@@XZ
_TEXT	SEGMENT PARA USE32 PUBLIC 'CODE'
_TEXT	ENDS
;	COMDAT ??_GMSweeperItem@@UAEPAXI@Z
_TEXT	SEGMENT PARA USE32 PUBLIC 'CODE'
_TEXT	ENDS
;	COMDAT ??1MPetItem@@UAE@XZ
_TEXT	SEGMENT PARA USE32 PUBLIC 'CODE'
_TEXT	ENDS
;	COMDAT ?GetItemClass@MPetItem@@UBE?AW4ITEM_CLASS@@XZ
_TEXT	SEGMENT PARA USE32 PUBLIC 'CODE'
_TEXT	ENDS
;	COMDAT ?SetUpdateTime@MPetItem@@QAEXK@Z
_TEXT	SEGMENT PARA USE32 PUBLIC 'CODE'
_TEXT	ENDS
;	COMDAT ?SetCurrentDurability@MPetItem@@UAEXI@Z
_TEXT	SEGMENT PARA USE32 PUBLIC 'CODE'
_TEXT	ENDS
;	COMDAT ?IsRepairableItem@MPetItem@@UBE_NXZ
_TEXT	SEGMENT PARA USE32 PUBLIC 'CODE'
_TEXT	ENDS
;	COMDAT ??_GMPetItem@@UAEPAXI@Z
_TEXT	SEGMENT PARA USE32 PUBLIC 'CODE'
_TEXT	ENDS
;	COMDAT ??0MPetFood@@QAE@XZ
_TEXT	SEGMENT PARA USE32 PUBLIC 'CODE'
_TEXT	ENDS
;	COMDAT ??1MPetFood@@UAE@XZ
_TEXT	SEGMENT PARA USE32 PUBLIC 'CODE'
_TEXT	ENDS
;	COMDAT ?GetItemClass@MPetFood@@UBE?AW4ITEM_CLASS@@XZ
_TEXT	SEGMENT PARA USE32 PUBLIC 'CODE'
_TEXT	ENDS
;	COMDAT ?IsDetachableItem@MPetFood@@UBE_NXZ
_TEXT	SEGMENT PARA USE32 PUBLIC 'CODE'
_TEXT	ENDS
;	COMDAT ??_GMPetFood@@UAEPAXI@Z
_TEXT	SEGMENT PARA USE32 PUBLIC 'CODE'
_TEXT	ENDS
;	COMDAT ??0MPetEnchantItem@@QAE@XZ
_TEXT	SEGMENT PARA USE32 PUBLIC 'CODE'
_TEXT	ENDS
;	COMDAT ??1MPetEnchantItem@@UAE@XZ
_TEXT	SEGMENT PARA USE32 PUBLIC 'CODE'
_TEXT	ENDS
;	COMDAT ?GetItemClass@MPetEnchantItem@@UBE?AW4ITEM_CLASS@@XZ
_TEXT	SEGMENT PARA USE32 PUBLIC 'CODE'
_TEXT	ENDS
;	COMDAT ?IsRepairableItem@MPetEnchantItem@@UBE_NXZ
_TEXT	SEGMENT PARA USE32 PUBLIC 'CODE'
_TEXT	ENDS
;	COMDAT ?IsDetachableItem@MPetEnchantItem@@UBE_NXZ
_TEXT	SEGMENT PARA USE32 PUBLIC 'CODE'
_TEXT	ENDS
;	COMDAT ??_GMPetEnchantItem@@UAEPAXI@Z
_TEXT	SEGMENT PARA USE32 PUBLIC 'CODE'
_TEXT	ENDS
;	COMDAT ??0MLuckyBag@@QAE@XZ
_TEXT	SEGMENT PARA USE32 PUBLIC 'CODE'
_TEXT	ENDS
;	COMDAT ??1MLuckyBag@@UAE@XZ
_TEXT	SEGMENT PARA USE32 PUBLIC 'CODE'
_TEXT	ENDS
;	COMDAT ?GetItemClass@MLuckyBag@@UBE?AW4ITEM_CLASS@@XZ
_TEXT	SEGMENT PARA USE32 PUBLIC 'CODE'
_TEXT	ENDS
;	COMDAT ??_GMLuckyBag@@UAEPAXI@Z
_TEXT	SEGMENT PARA USE32 PUBLIC 'CODE'
_TEXT	ENDS
;	COMDAT ??0MRankGem@@QAE@XZ
_TEXT	SEGMENT PARA USE32 PUBLIC 'CODE'
_TEXT	ENDS
;	COMDAT ??1MRankGem@@UAE@XZ
_TEXT	SEGMENT PARA USE32 PUBLIC 'CODE'
_TEXT	ENDS
;	COMDAT ?GetItemClass@MRankGem@@UBE?AW4ITEM_CLASS@@XZ
_TEXT	SEGMENT PARA USE32 PUBLIC 'CODE'
_TEXT	ENDS
;	COMDAT ?GetRankGemOptionClass@MRankGem@@UBEHXZ
_TEXT	SEGMENT PARA USE32 PUBLIC 'CODE'
_TEXT	ENDS
;	COMDAT ??_GMRankGem@@UAEPAXI@Z
_TEXT	SEGMENT PARA USE32 PUBLIC 'CODE'
_TEXT	ENDS
;	COMDAT ??0MSms_item@@QAE@XZ
_TEXT	SEGMENT PARA USE32 PUBLIC 'CODE'
_TEXT	ENDS
;	COMDAT ??1MSms_item@@UAE@XZ
_TEXT	SEGMENT PARA USE32 PUBLIC 'CODE'
_TEXT	ENDS
;	COMDAT ?GetItemClass@MSms_item@@UBE?AW4ITEM_CLASS@@XZ
_TEXT	SEGMENT PARA USE32 PUBLIC 'CODE'
_TEXT	ENDS
;	COMDAT ??_GMSms_item@@UAEPAXI@Z
_TEXT	SEGMENT PARA USE32 PUBLIC 'CODE'
_TEXT	ENDS
;	COMDAT ??0MCoreZap@@QAE@XZ
_TEXT	SEGMENT PARA USE32 PUBLIC 'CODE'
_TEXT	ENDS
;	COMDAT ??1MCoreZap@@UAE@XZ
_TEXT	SEGMENT PARA USE32 PUBLIC 'CODE'
_TEXT	ENDS
;	COMDAT ?GetItemClass@MCoreZap@@UBE?AW4ITEM_CLASS@@XZ
_TEXT	SEGMENT PARA USE32 PUBLIC 'CODE'
_TEXT	ENDS
;	COMDAT ?IsGearSlotCoreZap@MCoreZap@@UBE_NXZ
_TEXT	SEGMENT PARA USE32 PUBLIC 'CODE'
_TEXT	ENDS
;	COMDAT ?IsGearSlotVampireCoreZap@MCoreZap@@UBE_NXZ
_TEXT	SEGMENT PARA USE32 PUBLIC 'CODE'
_TEXT	ENDS
;	COMDAT ?IsGearSlotOustersCoreZap@MCoreZap@@UBE_NXZ
_TEXT	SEGMENT PARA USE32 PUBLIC 'CODE'
_TEXT	ENDS
;	COMDAT ?IsDurationAlwaysOkay@MCoreZap@@UBE_NXZ
_TEXT	SEGMENT PARA USE32 PUBLIC 'CODE'
_TEXT	ENDS
;	COMDAT ?IsCanAddThirdOptionItem@MCoreZap@@UBE_NXZ
_TEXT	SEGMENT PARA USE32 PUBLIC 'CODE'
_TEXT	ENDS
;	COMDAT ?IsRepairableItem@MCoreZap@@UBE_NXZ
_TEXT	SEGMENT PARA USE32 PUBLIC 'CODE'
_TEXT	ENDS
;	COMDAT ??_GMCoreZap@@UAEPAXI@Z
_TEXT	SEGMENT PARA USE32 PUBLIC 'CODE'
_TEXT	ENDS
;	COMDAT ??0MGQuestItem@@QAE@XZ
_TEXT	SEGMENT PARA USE32 PUBLIC 'CODE'
_TEXT	ENDS
;	COMDAT ??1MGQuestItem@@UAE@XZ
_TEXT	SEGMENT PARA USE32 PUBLIC 'CODE'
_TEXT	ENDS
;	COMDAT ?GetItemClass@MGQuestItem@@UBE?AW4ITEM_CLASS@@XZ
_TEXT	SEGMENT PARA USE32 PUBLIC 'CODE'
_TEXT	ENDS
;	COMDAT ??_GMGQuestItem@@UAEPAXI@Z
_TEXT	SEGMENT PARA USE32 PUBLIC 'CODE'
_TEXT	ENDS
;	COMDAT ??0MTrapItem@@QAE@XZ
_TEXT	SEGMENT PARA USE32 PUBLIC 'CODE'
_TEXT	ENDS
;	COMDAT ??1MTrapItem@@UAE@XZ
_TEXT	SEGMENT PARA USE32 PUBLIC 'CODE'
_TEXT	ENDS
;	COMDAT ?GetItemClass@MTrapItem@@UBE?AW4ITEM_CLASS@@XZ
_TEXT	SEGMENT PARA USE32 PUBLIC 'CODE'
_TEXT	ENDS
;	COMDAT ??_GMTrapItem@@UAEPAXI@Z
_TEXT	SEGMENT PARA USE32 PUBLIC 'CODE'
_TEXT	ENDS
;	COMDAT ??0MBloodBibleSign@@QAE@XZ
_TEXT	SEGMENT PARA USE32 PUBLIC 'CODE'
_TEXT	ENDS
;	COMDAT ??1MBloodBibleSign@@UAE@XZ
_TEXT	SEGMENT PARA USE32 PUBLIC 'CODE'
_TEXT	ENDS
;	COMDAT ?GetItemClass@MBloodBibleSign@@UBE?AW4ITEM_CLASS@@XZ
_TEXT	SEGMENT PARA USE32 PUBLIC 'CODE'
_TEXT	ENDS
;	COMDAT ?GetGearSlot@MBloodBibleSign@@UBE?AW4ITEM_GEAR_SLOT@MItem@@XZ
_TEXT	SEGMENT PARA USE32 PUBLIC 'CODE'
_TEXT	ENDS
;	COMDAT ?IsGearSlotBloodBible@MBloodBibleSign@@UBE_NXZ
_TEXT	SEGMENT PARA USE32 PUBLIC 'CODE'
_TEXT	ENDS
;	COMDAT ?IsGearSlotVampireBloodBible@MBloodBibleSign@@UBE_NXZ
_TEXT	SEGMENT PARA USE32 PUBLIC 'CODE'
_TEXT	ENDS
;	COMDAT ?IsGearSlotOustersBloodBible@MBloodBibleSign@@UBE_NXZ
_TEXT	SEGMENT PARA USE32 PUBLIC 'CODE'
_TEXT	ENDS
;	COMDAT ?IsDurationAlwaysOkay@MBloodBibleSign@@UBE_NXZ
_TEXT	SEGMENT PARA USE32 PUBLIC 'CODE'
_TEXT	ENDS
;	COMDAT ?IsRepairableItem@MBloodBibleSign@@UBE_NXZ
_TEXT	SEGMENT PARA USE32 PUBLIC 'CODE'
_TEXT	ENDS
;	COMDAT ??_GMBloodBibleSign@@UAEPAXI@Z
_TEXT	SEGMENT PARA USE32 PUBLIC 'CODE'
_TEXT	ENDS
;	COMDAT ??0MWarItem@@QAE@XZ
_TEXT	SEGMENT PARA USE32 PUBLIC 'CODE'
_TEXT	ENDS
;	COMDAT ??1MWarItem@@UAE@XZ
_TEXT	SEGMENT PARA USE32 PUBLIC 'CODE'
_TEXT	ENDS
;	COMDAT ?GetItemClass@MWarItem@@UBE?AW4ITEM_CLASS@@XZ
_TEXT	SEGMENT PARA USE32 PUBLIC 'CODE'
_TEXT	ENDS
;	COMDAT ??_GMWarItem@@UAEPAXI@Z
_TEXT	SEGMENT PARA USE32 PUBLIC 'CODE'
_TEXT	ENDS
;	COMDAT ??0MCarryingReceiver@@QAE@XZ
_TEXT	SEGMENT PARA USE32 PUBLIC 'CODE'
_TEXT	ENDS
;	COMDAT ??1MCarryingReceiver@@UAE@XZ
_TEXT	SEGMENT PARA USE32 PUBLIC 'CODE'
_TEXT	ENDS
;	COMDAT ?GetItemClass@MCarryingReceiver@@UBE?AW4ITEM_CLASS@@XZ
_TEXT	SEGMENT PARA USE32 PUBLIC 'CODE'
_TEXT	ENDS
;	COMDAT ?GetGearSlot@MCarryingReceiver@@UBE?AW4ITEM_GEAR_SLOT@MItem@@XZ
_TEXT	SEGMENT PARA USE32 PUBLIC 'CODE'
_TEXT	ENDS
;	COMDAT ?IsGearSlotPDA@MCarryingReceiver@@UBE_NXZ
_TEXT	SEGMENT PARA USE32 PUBLIC 'CODE'
_TEXT	ENDS
;	COMDAT ?IsAdvancementClassItem@MCarryingReceiver@@UBE_NXZ
_TEXT	SEGMENT PARA USE32 PUBLIC 'CODE'
_TEXT	ENDS
;	COMDAT ?IsDurationAlwaysOkay@MCarryingReceiver@@UBE_NXZ
_TEXT	SEGMENT PARA USE32 PUBLIC 'CODE'
_TEXT	ENDS
;	COMDAT ?IsRepairableItem@MCarryingReceiver@@UBE_NXZ
_TEXT	SEGMENT PARA USE32 PUBLIC 'CODE'
_TEXT	ENDS
;	COMDAT ??_GMCarryingReceiver@@UAEPAXI@Z
_TEXT	SEGMENT PARA USE32 PUBLIC 'CODE'
_TEXT	ENDS
;	COMDAT ??0MShoulderArmor@@QAE@XZ
_TEXT	SEGMENT PARA USE32 PUBLIC 'CODE'
_TEXT	ENDS
;	COMDAT ??1MShoulderArmor@@UAE@XZ
_TEXT	SEGMENT PARA USE32 PUBLIC 'CODE'
_TEXT	ENDS
;	COMDAT ?GetItemClass@MShoulderArmor@@UBE?AW4ITEM_CLASS@@XZ
_TEXT	SEGMENT PARA USE32 PUBLIC 'CODE'
_TEXT	ENDS
;	COMDAT ?GetGearSlot@MShoulderArmor@@UBE?AW4ITEM_GEAR_SLOT@MItem@@XZ
_TEXT	SEGMENT PARA USE32 PUBLIC 'CODE'
_TEXT	ENDS
;	COMDAT ?IsGearSlotShoulder@MShoulderArmor@@UBE_NXZ
_TEXT	SEGMENT PARA USE32 PUBLIC 'CODE'
_TEXT	ENDS
;	COMDAT ?IsAdvancementClassItem@MShoulderArmor@@UBE_NXZ
_TEXT	SEGMENT PARA USE32 PUBLIC 'CODE'
_TEXT	ENDS
;	COMDAT ?IsDurationAlwaysOkay@MShoulderArmor@@UBE_NXZ
_TEXT	SEGMENT PARA USE32 PUBLIC 'CODE'
_TEXT	ENDS
;	COMDAT ?IsAddonItem@MShoulderArmor@@UBE_NXZ
_TEXT	SEGMENT PARA USE32 PUBLIC 'CODE'
_TEXT	ENDS
;	COMDAT ??_GMShoulderArmor@@UAEPAXI@Z
_TEXT	SEGMENT PARA USE32 PUBLIC 'CODE'
_TEXT	ENDS
;	COMDAT ??0MDermis@@QAE@XZ
_TEXT	SEGMENT PARA USE32 PUBLIC 'CODE'
_TEXT	ENDS
;	COMDAT ??1MDermis@@UAE@XZ
_TEXT	SEGMENT PARA USE32 PUBLIC 'CODE'
_TEXT	ENDS
;	COMDAT ?GetItemClass@MDermis@@UBE?AW4ITEM_CLASS@@XZ
_TEXT	SEGMENT PARA USE32 PUBLIC 'CODE'
_TEXT	ENDS
;	COMDAT ?GetGearSlot@MDermis@@UBE?AW4ITEM_GEAR_SLOT@MItem@@XZ
_TEXT	SEGMENT PARA USE32 PUBLIC 'CODE'
_TEXT	ENDS
;	COMDAT ?IsGearSlotVampireDermis@MDermis@@UBE_NXZ
_TEXT	SEGMENT PARA USE32 PUBLIC 'CODE'
_TEXT	ENDS
;	COMDAT ?IsDurationAlwaysOkay@MDermis@@UBE_NXZ
_TEXT	SEGMENT PARA USE32 PUBLIC 'CODE'
_TEXT	ENDS
;	COMDAT ?IsAdvancementClassItem@MDermis@@UBE_NXZ
_TEXT	SEGMENT PARA USE32 PUBLIC 'CODE'
_TEXT	ENDS
;	COMDAT ?IsRepairableItem@MDermis@@UBE_NXZ
_TEXT	SEGMENT PARA USE32 PUBLIC 'CODE'
_TEXT	ENDS
;	COMDAT ??_GMDermis@@UAEPAXI@Z
_TEXT	SEGMENT PARA USE32 PUBLIC 'CODE'
_TEXT	ENDS
;	COMDAT ??0MPersona@@QAE@XZ
_TEXT	SEGMENT PARA USE32 PUBLIC 'CODE'
_TEXT	ENDS
;	COMDAT ??1MPersona@@UAE@XZ
_TEXT	SEGMENT PARA USE32 PUBLIC 'CODE'
_TEXT	ENDS
;	COMDAT ?GetItemClass@MPersona@@UBE?AW4ITEM_CLASS@@XZ
_TEXT	SEGMENT PARA USE32 PUBLIC 'CODE'
_TEXT	ENDS
;	COMDAT ?GetGearSlot@MPersona@@UBE?AW4ITEM_GEAR_SLOT@MItem@@XZ
_TEXT	SEGMENT PARA USE32 PUBLIC 'CODE'
_TEXT	ENDS
;	COMDAT ?IsGearSlotVampirePersona@MPersona@@UBE_NXZ
_TEXT	SEGMENT PARA USE32 PUBLIC 'CODE'
_TEXT	ENDS
;	COMDAT ?IsDurationAlwaysOkay@MPersona@@UBE_NXZ
_TEXT	SEGMENT PARA USE32 PUBLIC 'CODE'
_TEXT	ENDS
;	COMDAT ?IsAdvancementClassItem@MPersona@@UBE_NXZ
_TEXT	SEGMENT PARA USE32 PUBLIC 'CODE'
_TEXT	ENDS
;	COMDAT ??_GMPersona@@UAEPAXI@Z
_TEXT	SEGMENT PARA USE32 PUBLIC 'CODE'
_TEXT	ENDS
;	COMDAT ??0MFascia@@QAE@XZ
_TEXT	SEGMENT PARA USE32 PUBLIC 'CODE'
_TEXT	ENDS
;	COMDAT ??1MFascia@@UAE@XZ
_TEXT	SEGMENT PARA USE32 PUBLIC 'CODE'
_TEXT	ENDS
;	COMDAT ?GetItemClass@MFascia@@UBE?AW4ITEM_CLASS@@XZ
_TEXT	SEGMENT PARA USE32 PUBLIC 'CODE'
_TEXT	ENDS
;	COMDAT ?GetGearSlot@MFascia@@UBE?AW4ITEM_GEAR_SLOT@MItem@@XZ
_TEXT	SEGMENT PARA USE32 PUBLIC 'CODE'
_TEXT	ENDS
;	COMDAT ?IsGearSlotOustersFascia@MFascia@@UBE_NXZ
_TEXT	SEGMENT PARA USE32 PUBLIC 'CODE'
_TEXT	ENDS
;	COMDAT ?IsDurationAlwaysOkay@MFascia@@UBE_NXZ
_TEXT	SEGMENT PARA USE32 PUBLIC 'CODE'
_TEXT	ENDS
;	COMDAT ?IsAdvancementClassItem@MFascia@@UBE_NXZ
_TEXT	SEGMENT PARA USE32 PUBLIC 'CODE'
_TEXT	ENDS
;	COMDAT ?IsRepairableItem@MFascia@@UBE_NXZ
_TEXT	SEGMENT PARA USE32 PUBLIC 'CODE'
_TEXT	ENDS
;	COMDAT ??_GMFascia@@UAEPAXI@Z
_TEXT	SEGMENT PARA USE32 PUBLIC 'CODE'
_TEXT	ENDS
;	COMDAT ??0MMitten@@QAE@XZ
_TEXT	SEGMENT PARA USE32 PUBLIC 'CODE'
_TEXT	ENDS
;	COMDAT ??1MMitten@@UAE@XZ
_TEXT	SEGMENT PARA USE32 PUBLIC 'CODE'
_TEXT	ENDS
;	COMDAT ?GetItemClass@MMitten@@UBE?AW4ITEM_CLASS@@XZ
_TEXT	SEGMENT PARA USE32 PUBLIC 'CODE'
_TEXT	ENDS
;	COMDAT ?GetGearSlot@MMitten@@UBE?AW4ITEM_GEAR_SLOT@MItem@@XZ
_TEXT	SEGMENT PARA USE32 PUBLIC 'CODE'
_TEXT	ENDS
;	COMDAT ?IsGearSlotOustersMitten@MMitten@@UBE_NXZ
_TEXT	SEGMENT PARA USE32 PUBLIC 'CODE'
_TEXT	ENDS
;	COMDAT ?IsDurationAlwaysOkay@MMitten@@UBE_NXZ
_TEXT	SEGMENT PARA USE32 PUBLIC 'CODE'
_TEXT	ENDS
;	COMDAT ?IsAdvancementClassItem@MMitten@@UBE_NXZ
_TEXT	SEGMENT PARA USE32 PUBLIC 'CODE'
_TEXT	ENDS
;	COMDAT ??_GMMitten@@UAEPAXI@Z
_TEXT	SEGMENT PARA USE32 PUBLIC 'CODE'
_TEXT	ENDS
;	COMDAT ??0MSubInventory@@QAE@XZ
_TEXT	SEGMENT PARA USE32 PUBLIC 'CODE'
_TEXT	ENDS
;	COMDAT ??1MSubInventory@@UAE@XZ
_TEXT	SEGMENT PARA USE32 PUBLIC 'CODE'
_TEXT	ENDS
;	COMDAT ?GetItemClass@MSubInventory@@UBE?AW4ITEM_CLASS@@XZ
_TEXT	SEGMENT PARA USE32 PUBLIC 'CODE'
_TEXT	ENDS
;	COMDAT ?IsContainerItem@MSubInventory@@UBE_NXZ
_TEXT	SEGMENT PARA USE32 PUBLIC 'CODE'
_TEXT	ENDS
;	COMDAT ??_GMSubInventory@@UAEPAXI@Z
_TEXT	SEGMENT PARA USE32 PUBLIC 'CODE'
_TEXT	ENDS
;	COMDAT ??0MCommonQuestItem@@QAE@XZ
_TEXT	SEGMENT PARA USE32 PUBLIC 'CODE'
_TEXT	ENDS
;	COMDAT ??1MCommonQuestItem@@UAE@XZ
_TEXT	SEGMENT PARA USE32 PUBLIC 'CODE'
_TEXT	ENDS
;	COMDAT ?GetItemClass@MCommonQuestItem@@UBE?AW4ITEM_CLASS@@XZ
_TEXT	SEGMENT PARA USE32 PUBLIC 'CODE'
_TEXT	ENDS
;	COMDAT ??_GMCommonQuestItem@@UAEPAXI@Z
_TEXT	SEGMENT PARA USE32 PUBLIC 'CODE'
_TEXT	ENDS
;	COMDAT ??0MEtherealChain@@QAE@XZ
_TEXT	SEGMENT PARA USE32 PUBLIC 'CODE'
_TEXT	ENDS
;	COMDAT ??1MEtherealChain@@UAE@XZ
_TEXT	SEGMENT PARA USE32 PUBLIC 'CODE'
_TEXT	ENDS
;	COMDAT ?GetItemClass@MEtherealChain@@UBE?AW4ITEM_CLASS@@XZ
_TEXT	SEGMENT PARA USE32 PUBLIC 'CODE'
_TEXT	ENDS
;	COMDAT ?IsGearSlotEtherealChain@MEtherealChain@@UBE_NXZ
_TEXT	SEGMENT PARA USE32 PUBLIC 'CODE'
_TEXT	ENDS
;	COMDAT ?IsGearSlotVampireEtherealChain@MEtherealChain@@UBE_NXZ
_TEXT	SEGMENT PARA USE32 PUBLIC 'CODE'
_TEXT	ENDS
;	COMDAT ?IsGearSlotOustersEtherealChain@MEtherealChain@@UBE_NXZ
_TEXT	SEGMENT PARA USE32 PUBLIC 'CODE'
_TEXT	ENDS
;	COMDAT ?IsDurationAlwaysOkay@MEtherealChain@@UBE_NXZ
_TEXT	SEGMENT PARA USE32 PUBLIC 'CODE'
_TEXT	ENDS
;	COMDAT ?IsCanAddThirdOptionItem@MEtherealChain@@UBE_NXZ
_TEXT	SEGMENT PARA USE32 PUBLIC 'CODE'
_TEXT	ENDS
;	COMDAT ?IsRepairableItem@MEtherealChain@@UBE_NXZ
_TEXT	SEGMENT PARA USE32 PUBLIC 'CODE'
_TEXT	ENDS
;	COMDAT ??_GMEtherealChain@@UAEPAXI@Z
_TEXT	SEGMENT PARA USE32 PUBLIC 'CODE'
_TEXT	ENDS
;	COMDAT ??0MOustersHarmonicPendent@@QAE@XZ
_TEXT	SEGMENT PARA USE32 PUBLIC 'CODE'
_TEXT	ENDS
;	COMDAT ??1MOustersHarmonicPendent@@UAE@XZ
_TEXT	SEGMENT PARA USE32 PUBLIC 'CODE'
_TEXT	ENDS
;	COMDAT ?GetItemClass@MOustersHarmonicPendent@@UBE?AW4ITEM_CLASS@@XZ
_TEXT	SEGMENT PARA USE32 PUBLIC 'CODE'
_TEXT	ENDS
;	COMDAT ?IsDurationAlwaysOkay@MOustersHarmonicPendent@@UBE_NXZ
_TEXT	SEGMENT PARA USE32 PUBLIC 'CODE'
_TEXT	ENDS
;	COMDAT ?IsRepairableItem@MOustersHarmonicPendent@@UBE_NXZ
_TEXT	SEGMENT PARA USE32 PUBLIC 'CODE'
_TEXT	ENDS
;	COMDAT ??_GMOustersHarmonicPendent@@UAEPAXI@Z
_TEXT	SEGMENT PARA USE32 PUBLIC 'CODE'
_TEXT	ENDS
;	COMDAT ??0MCheckMoney@@QAE@XZ
_TEXT	SEGMENT PARA USE32 PUBLIC 'CODE'
_TEXT	ENDS
;	COMDAT ??1MCheckMoney@@UAE@XZ
_TEXT	SEGMENT PARA USE32 PUBLIC 'CODE'
_TEXT	ENDS
;	COMDAT ?GetItemClass@MCheckMoney@@UBE?AW4ITEM_CLASS@@XZ
_TEXT	SEGMENT PARA USE32 PUBLIC 'CODE'
_TEXT	ENDS
;	COMDAT ??_GMCheckMoney@@UAEPAXI@Z
_TEXT	SEGMENT PARA USE32 PUBLIC 'CODE'
_TEXT	ENDS
;	COMDAT ??0MCueOfAdam@@QAE@XZ
_TEXT	SEGMENT PARA USE32 PUBLIC 'CODE'
_TEXT	ENDS
;	COMDAT ??1MCueOfAdam@@UAE@XZ
_TEXT	SEGMENT PARA USE32 PUBLIC 'CODE'
_TEXT	ENDS
;	COMDAT ?GetItemClass@MCueOfAdam@@UBE?AW4ITEM_CLASS@@XZ
_TEXT	SEGMENT PARA USE32 PUBLIC 'CODE'
_TEXT	ENDS
;	COMDAT ?IsGearSlotCue@MCueOfAdam@@UBE_NXZ
_TEXT	SEGMENT PARA USE32 PUBLIC 'CODE'
_TEXT	ENDS
;	COMDAT ?IsGearSlotVampireCue@MCueOfAdam@@UBE_NXZ
_TEXT	SEGMENT PARA USE32 PUBLIC 'CODE'
_TEXT	ENDS
;	COMDAT ?IsGearSlotOustersCue@MCueOfAdam@@UBE_NXZ
_TEXT	SEGMENT PARA USE32 PUBLIC 'CODE'
_TEXT	ENDS
;	COMDAT ?IsDurationAlwaysOkay@MCueOfAdam@@UBE_NXZ
_TEXT	SEGMENT PARA USE32 PUBLIC 'CODE'
_TEXT	ENDS
;	COMDAT ?IsCanAddThirdOptionItem@MCueOfAdam@@UBE_NXZ
_TEXT	SEGMENT PARA USE32 PUBLIC 'CODE'
_TEXT	ENDS
;	COMDAT ?IsRepairableItem@MCueOfAdam@@UBE_NXZ
_TEXT	SEGMENT PARA USE32 PUBLIC 'CODE'
_TEXT	ENDS
;	COMDAT ??_GMCueOfAdam@@UAEPAXI@Z
_TEXT	SEGMENT PARA USE32 PUBLIC 'CODE'
_TEXT	ENDS
;	COMDAT ??0MContractOfBlood@@QAE@XZ
_TEXT	SEGMENT PARA USE32 PUBLIC 'CODE'
_TEXT	ENDS
;	COMDAT ??1MContractOfBlood@@UAE@XZ
_TEXT	SEGMENT PARA USE32 PUBLIC 'CODE'
_TEXT	ENDS
;	COMDAT ?GetItemClass@MContractOfBlood@@UBE?AW4ITEM_CLASS@@XZ
_TEXT	SEGMENT PARA USE32 PUBLIC 'CODE'
_TEXT	ENDS
;	COMDAT ??_GMContractOfBlood@@UAEPAXI@Z
_TEXT	SEGMENT PARA USE32 PUBLIC 'CODE'
_TEXT	ENDS
;	COMDAT ??0MSkillBook@@QAE@XZ
_TEXT	SEGMENT PARA USE32 PUBLIC 'CODE'
_TEXT	ENDS
;	COMDAT ??1MSkillBook@@UAE@XZ
_TEXT	SEGMENT PARA USE32 PUBLIC 'CODE'
_TEXT	ENDS
;	COMDAT ?GetItemClass@MSkillBook@@UBE?AW4ITEM_CLASS@@XZ
_TEXT	SEGMENT PARA USE32 PUBLIC 'CODE'
_TEXT	ENDS
;	COMDAT ??_GMSkillBook@@UAEPAXI@Z
_TEXT	SEGMENT PARA USE32 PUBLIC 'CODE'
_TEXT	ENDS
;	COMDAT ??0MVampireWingItem@@QAE@XZ
_TEXT	SEGMENT PARA USE32 PUBLIC 'CODE'
_TEXT	ENDS
;	COMDAT ??1MVampireWingItem@@UAE@XZ
_TEXT	SEGMENT PARA USE32 PUBLIC 'CODE'
_TEXT	ENDS
;	COMDAT ?GetItemClass@MVampireWingItem@@UBE?AW4ITEM_CLASS@@XZ
_TEXT	SEGMENT PARA USE32 PUBLIC 'CODE'
_TEXT	ENDS
;	COMDAT ??_GMVampireWingItem@@UAEPAXI@Z
_TEXT	SEGMENT PARA USE32 PUBLIC 'CODE'
_TEXT	ENDS
;	COMDAT ??0MOustersWingItem@@QAE@XZ
_TEXT	SEGMENT PARA USE32 PUBLIC 'CODE'
_TEXT	ENDS
;	COMDAT ??1MOustersWingItem@@UAE@XZ
_TEXT	SEGMENT PARA USE32 PUBLIC 'CODE'
_TEXT	ENDS
;	COMDAT ?GetItemClass@MOustersWingItem@@UBE?AW4ITEM_CLASS@@XZ
_TEXT	SEGMENT PARA USE32 PUBLIC 'CODE'
_TEXT	ENDS
;	COMDAT ??_GMOustersWingItem@@UAEPAXI@Z
_TEXT	SEGMENT PARA USE32 PUBLIC 'CODE'
_TEXT	ENDS
;	COMDAT ??0MTuningItemSlayer@@QAE@XZ
_TEXT	SEGMENT PARA USE32 PUBLIC 'CODE'
_TEXT	ENDS
;	COMDAT ??1MTuningItemSlayer@@UAE@XZ
_TEXT	SEGMENT PARA USE32 PUBLIC 'CODE'
_TEXT	ENDS
;	COMDAT ?GetItemClass@MTuningItemSlayer@@UBE?AW4ITEM_CLASS@@XZ
_TEXT	SEGMENT PARA USE32 PUBLIC 'CODE'
_TEXT	ENDS
;	COMDAT ?GetTargetClass@MTuningItemSlayer@@UBEHXZ
_TEXT	SEGMENT PARA USE32 PUBLIC 'CODE'
_TEXT	ENDS
;	COMDAT ?GetTargetType@MTuningItemSlayer@@UBEHXZ
_TEXT	SEGMENT PARA USE32 PUBLIC 'CODE'
_TEXT	ENDS
;	COMDAT ??_GMTuningItemSlayer@@UAEPAXI@Z
_TEXT	SEGMENT PARA USE32 PUBLIC 'CODE'
_TEXT	ENDS
;	COMDAT ??0MTuningItemVampire@@QAE@XZ
_TEXT	SEGMENT PARA USE32 PUBLIC 'CODE'
_TEXT	ENDS
;	COMDAT ??1MTuningItemVampire@@UAE@XZ
_TEXT	SEGMENT PARA USE32 PUBLIC 'CODE'
_TEXT	ENDS
;	COMDAT ?GetItemClass@MTuningItemVampire@@UBE?AW4ITEM_CLASS@@XZ
_TEXT	SEGMENT PARA USE32 PUBLIC 'CODE'
_TEXT	ENDS
;	COMDAT ?GetTargetClass@MTuningItemVampire@@UBEHXZ
_TEXT	SEGMENT PARA USE32 PUBLIC 'CODE'
_TEXT	ENDS
;	COMDAT ?GetTargetType@MTuningItemVampire@@UBEHXZ
_TEXT	SEGMENT PARA USE32 PUBLIC 'CODE'
_TEXT	ENDS
;	COMDAT ??_GMTuningItemVampire@@UAEPAXI@Z
_TEXT	SEGMENT PARA USE32 PUBLIC 'CODE'
_TEXT	ENDS
;	COMDAT ??0MTuningItemOusters@@QAE@XZ
_TEXT	SEGMENT PARA USE32 PUBLIC 'CODE'
_TEXT	ENDS
;	COMDAT ??1MTuningItemOusters@@UAE@XZ
_TEXT	SEGMENT PARA USE32 PUBLIC 'CODE'
_TEXT	ENDS
;	COMDAT ?GetItemClass@MTuningItemOusters@@UBE?AW4ITEM_CLASS@@XZ
_TEXT	SEGMENT PARA USE32 PUBLIC 'CODE'
_TEXT	ENDS
;	COMDAT ?GetTargetClass@MTuningItemOusters@@UBEHXZ
_TEXT	SEGMENT PARA USE32 PUBLIC 'CODE'
_TEXT	ENDS
;	COMDAT ?GetTargetType@MTuningItemOusters@@UBEHXZ
_TEXT	SEGMENT PARA USE32 PUBLIC 'CODE'
_TEXT	ENDS
;	COMDAT ??_GMTuningItemOusters@@UAEPAXI@Z
_TEXT	SEGMENT PARA USE32 PUBLIC 'CODE'
_TEXT	ENDS
;	COMDAT ??0MCallNPCNPCCard@@QAE@XZ
_TEXT	SEGMENT PARA USE32 PUBLIC 'CODE'
_TEXT	ENDS
;	COMDAT ??1MCallNPCNPCCard@@UAE@XZ
_TEXT	SEGMENT PARA USE32 PUBLIC 'CODE'
_TEXT	ENDS
;	COMDAT ?GetItemClass@MCallNPCNPCCard@@UBE?AW4ITEM_CLASS@@XZ
_TEXT	SEGMENT PARA USE32 PUBLIC 'CODE'
_TEXT	ENDS
;	COMDAT ?IsRepairableItem@MCallNPCNPCCard@@UBE_NXZ
_TEXT	SEGMENT PARA USE32 PUBLIC 'CODE'
_TEXT	ENDS
;	COMDAT ??_GMCallNPCNPCCard@@UAEPAXI@Z
_TEXT	SEGMENT PARA USE32 PUBLIC 'CODE'
_TEXT	ENDS
;	COMDAT ?_MinTraceA@@YAXPBD@Z
_TEXT	SEGMENT PARA USE32 PUBLIC 'CODE'
_TEXT	ENDS
;	COMDAT ?_MinTraceErrA@@YAXPBD@Z
_TEXT	SEGMENT PARA USE32 PUBLIC 'CODE'
_TEXT	ENDS
;	COMDAT ?_MinTraceWarA@@YAXPBD@Z
_TEXT	SEGMENT PARA USE32 PUBLIC 'CODE'
_TEXT	ENDS
;	COMDAT ?_ClMinTraceA@@YAXKPBD@Z
_TEXT	SEGMENT PARA USE32 PUBLIC 'CODE'
_TEXT	ENDS
;	COMDAT ?_CmdMinTraceA@@YAXHPBD@Z
_TEXT	SEGMENT PARA USE32 PUBLIC 'CODE'
_TEXT	ENDS
;	COMDAT ??0ITEMTABLE_INFO@@QAE@XZ
_TEXT	SEGMENT PARA USE32 PUBLIC 'CODE'
_TEXT	ENDS
;	COMDAT ??1ITEMTABLE_INFO@@QAE@XZ
_TEXT	SEGMENT PARA USE32 PUBLIC 'CODE'
_TEXT	ENDS
;	COMDAT ?SetSoundID@ITEMTABLE_INFO@@QAEXGGGG@Z
_TEXT	SEGMENT PARA USE32 PUBLIC 'CODE'
_TEXT	ENDS
;	COMDAT ?SetFrameID@ITEMTABLE_INFO@@QAEXGGGG@Z
_TEXT	SEGMENT PARA USE32 PUBLIC 'CODE'
_TEXT	ENDS
;	COMDAT ?SetDropFrameID@ITEMTABLE_INFO@@QAEXG@Z
_TEXT	SEGMENT PARA USE32 PUBLIC 'CODE'
_TEXT	ENDS
;	COMDAT ?SetAddonFrameID@ITEMTABLE_INFO@@QAEXGG@Z
_TEXT	SEGMENT PARA USE32 PUBLIC 'CODE'
_TEXT	ENDS
;	COMDAT ?SetGrid@ITEMTABLE_INFO@@QAEXEE@Z
_TEXT	SEGMENT PARA USE32 PUBLIC 'CODE'
_TEXT	ENDS
;	COMDAT ?SetValue@ITEMTABLE_INFO@@QAEXHHHHHHH@Z
_TEXT	SEGMENT PARA USE32 PUBLIC 'CODE'
_TEXT	ENDS
;	COMDAT ?SaveToFile@ITEMTABLE_INFO@@QAEXAAV?$basic_ofstream@DV?$char_traits@D@_STL@@@_STL@@@Z
_TEXT	SEGMENT PARA USE32 PUBLIC 'CODE'
_TEXT	ENDS
;	COMDAT ?LoadFromFile@ITEMTABLE_INFO@@QAEXAAVivfstream@@@Z
_TEXT	SEGMENT PARA USE32 PUBLIC 'CODE'
_TEXT	ENDS
;	COMDAT ?SaveToCSVFile@ITEMTABLE_INFO@@QAEXAAV?$basic_ofstream@DV?$char_traits@D@_STL@@@_STL@@HH@Z
_TEXT	SEGMENT PARA USE32 PUBLIC 'CODE'
_TEXT	ENDS
;	COMDAT ?LoadFromFile@ITEMTYPE_TABLE@@QAEXAAVivfstream@@@Z
_TEXT	SEGMENT PARA USE32 PUBLIC 'CODE'
_TEXT	ENDS
;	COMDAT ?SaveToCSVFile@ITEMTYPE_TABLE@@QAEXAAV?$basic_ofstream@DV?$char_traits@D@_STL@@@_STL@@H@Z
_TEXT	SEGMENT PARA USE32 PUBLIC 'CODE'
_TEXT	ENDS
;	COMDAT ??0ITEMCLASS_TABLE@@QAE@XZ
_TEXT	SEGMENT PARA USE32 PUBLIC 'CODE'
_TEXT	ENDS
;	COMDAT ??1ITEMCLASS_TABLE@@QAE@XZ
_TEXT	SEGMENT PARA USE32 PUBLIC 'CODE'
_TEXT	ENDS
;	COMDAT ?InitClass@ITEMCLASS_TABLE@@QAEXHH@Z
_TEXT	SEGMENT PARA USE32 PUBLIC 'CODE'
_TEXT	ENDS
;	COMDAT ?SaveToCSVFile@ITEMCLASS_TABLE@@QAEXAAV?$basic_ofstream@DV?$char_traits@D@_STL@@@_STL@@@Z
_TEXT	SEGMENT PARA USE32 PUBLIC 'CODE'
_TEXT	ENDS
;	COMDAT ?eq@?$__char_traits_base@DH@_STL@@SA_NABD0@Z
_TEXT	SEGMENT PARA USE32 PUBLIC 'CODE'
_TEXT	ENDS
;	COMDAT ?not_eof@?$__char_traits_base@DH@_STL@@SAHABH@Z
_TEXT	SEGMENT PARA USE32 PUBLIC 'CODE'
_TEXT	ENDS
;	COMDAT ?eq_int_type@?$__char_traits_base@DH@_STL@@SA_NABH0@Z
_TEXT	SEGMENT PARA USE32 PUBLIC 'CODE'
_TEXT	ENDS
;	COMDAT ?get_allocator@?$basic_string@DV?$char_traits@D@_STL@@V?$allocator@D@2@@_STL@@QBE?AV?$allocator@D@2@XZ
_TEXT	SEGMENT PARA USE32 PUBLIC 'CODE'
_TEXT	ENDS
;	COMDAT ??4?$basic_string@DV?$char_traits@D@_STL@@V?$allocator@D@2@@_STL@@QAEAAV01@PBD@Z
_TEXT	SEGMENT PARA USE32 PUBLIC 'CODE'
_TEXT	ENDS
;	COMDAT ?_M_terminate_string@?$basic_string@DV?$char_traits@D@_STL@@V?$allocator@D@2@@_STL@@AAEXXZ
_TEXT	SEGMENT PARA USE32 PUBLIC 'CODE'
_TEXT	ENDS
;	COMDAT ??0?$_String_base@DV?$allocator@D@_STL@@@_STL@@QAE@ABV?$allocator@D@1@@Z
_TEXT	SEGMENT PARA USE32 PUBLIC 'CODE'
_TEXT	ENDS
;	COMDAT ?allocate@?$allocator@D@_STL@@QAEPADIPBX@Z
_TEXT	SEGMENT PARA USE32 PUBLIC 'CODE'
_TEXT	ENDS
;	COMDAT ??0?$allocator@G@_STL@@QAE@XZ
_TEXT	SEGMENT PARA USE32 PUBLIC 'CODE'
_TEXT	ENDS
;	COMDAT ??0?$fpos@H@_STL@@QAE@J@Z
_TEXT	SEGMENT PARA USE32 PUBLIC 'CODE'
_TEXT	ENDS
;	COMDAT ??B?$fpos@H@_STL@@QBEJXZ
_TEXT	SEGMENT PARA USE32 PUBLIC 'CODE'
_TEXT	ENDS
;	COMDAT ?state@?$fpos@H@_STL@@QBEHXZ
_TEXT	SEGMENT PARA USE32 PUBLIC 'CODE'
_TEXT	ENDS
;	COMDAT ?is_open@?$basic_filebuf@DV?$char_traits@D@_STL@@@_STL@@QBE_NXZ
_TEXT	SEGMENT PARA USE32 PUBLIC 'CODE'
_TEXT	ENDS
;	COMDAT ?_M_seek_return@?$basic_filebuf@DV?$char_traits@D@_STL@@@_STL@@AAE?AV?$fpos@H@2@JH@Z
_TEXT	SEGMENT PARA USE32 PUBLIC 'CODE'
_TEXT	ENDS
;	COMDAT ??0?$_Filebuf_Tmp_Buf@D@_STL@@QAE@H@Z
_TEXT	SEGMENT PARA USE32 PUBLIC 'CODE'
_TEXT	ENDS
;	COMDAT ??1?$_Filebuf_Tmp_Buf@D@_STL@@QAE@XZ
_TEXT	SEGMENT PARA USE32 PUBLIC 'CODE'
_TEXT	ENDS
;	COMDAT ??0?$list@GV?$allocator@G@_STL@@@_STL@@QAE@ABV?$allocator@G@1@@Z
_TEXT	SEGMENT PARA USE32 PUBLIC 'CODE'
_TEXT	ENDS
;	COMDAT ?begin@?$list@GV?$allocator@G@_STL@@@_STL@@QAE?AU?$_List_iterator@GU?$_Nonconst_traits@G@_STL@@@2@XZ
_TEXT	SEGMENT PARA USE32 PUBLIC 'CODE'
_TEXT	ENDS
;	COMDAT ?end@?$list@GV?$allocator@G@_STL@@@_STL@@QAE?AU?$_List_iterator@GU?$_Nonconst_traits@G@_STL@@@2@XZ
_TEXT	SEGMENT PARA USE32 PUBLIC 'CODE'
_TEXT	ENDS
;	COMDAT ?empty@?$list@GV?$allocator@G@_STL@@@_STL@@QBE_NXZ
_TEXT	SEGMENT PARA USE32 PUBLIC 'CODE'
_TEXT	ENDS
;	COMDAT ?size@?$list@GV?$allocator@G@_STL@@@_STL@@QBEIXZ
_TEXT	SEGMENT PARA USE32 PUBLIC 'CODE'
_TEXT	ENDS
;	COMDAT ?push_back@?$list@GV?$allocator@G@_STL@@@_STL@@QAEXABG@Z
_TEXT	SEGMENT PARA USE32 PUBLIC 'CODE'
_TEXT	ENDS
;	COMDAT ??1?$list@GV?$allocator@G@_STL@@@_STL@@QAE@XZ
_TEXT	SEGMENT PARA USE32 PUBLIC 'CODE'
_TEXT	ENDS
;	COMDAT ??A?$CTypeTable@VITEMTABLE_INFO@@@@QAEAAVITEMTABLE_INFO@@H@Z
_TEXT	SEGMENT PARA USE32 PUBLIC 'CODE'
_TEXT	ENDS
;	COMDAT ??A?$CTypeTable@VITEMTYPE_TABLE@@@@QAEAAVITEMTYPE_TABLE@@H@Z
_TEXT	SEGMENT PARA USE32 PUBLIC 'CODE'
_TEXT	ENDS
;	COMDAT ?begin@?$map@IPAVMItem@@U?$less@I@_STL@@V?$allocator@U?$pair@$$CBIPAVMItem@@@_STL@@@3@@_STL@@QAE?AU?$_Rb_tree_iterator@U?$pair@$$CBIPAVMItem@@@_STL@@U?$_Nonconst_traits@U?$pair@$$CBIPAVMItem@@@_STL@@@2@@2@XZ
_TEXT	SEGMENT PARA USE32 PUBLIC 'CODE'
_TEXT	ENDS
;	COMDAT ?end@?$map@IPAVMItem@@U?$less@I@_STL@@V?$allocator@U?$pair@$$CBIPAVMItem@@@_STL@@@3@@_STL@@QBE?AU?$_Rb_tree_iterator@U?$pair@$$CBIPAVMItem@@@_STL@@U?$_Const_traits@U?$pair@$$CBIPAVMItem@@@_STL@@@2@@2@XZ
_TEXT	SEGMENT PARA USE32 PUBLIC 'CODE'
_TEXT	ENDS
;	COMDAT ?size@?$map@IPAVMItem@@U?$less@I@_STL@@V?$allocator@U?$pair@$$CBIPAVMItem@@@_STL@@@3@@_STL@@QBEIXZ
_TEXT	SEGMENT PARA USE32 PUBLIC 'CODE'
_TEXT	ENDS
;	COMDAT ??0?$_Rb_tree_iterator@U?$pair@$$CBIPAVMItem@@@_STL@@U?$_Const_traits@U?$pair@$$CBIPAVMItem@@@_STL@@@2@@_STL@@QAE@ABU?$_Rb_tree_iterator@U?$pair@$$CBIPAVMItem@@@_STL@@U?$_Nonconst_traits@U?$pair@$$CBIPAVMItem@@@_STL@@@2@@1@@Z
_TEXT	SEGMENT PARA USE32 PUBLIC 'CODE'
_TEXT	ENDS
;	COMDAT ??D?$_Rb_tree_iterator@U?$pair@$$CBIPAVMItem@@@_STL@@U?$_Const_traits@U?$pair@$$CBIPAVMItem@@@_STL@@@2@@_STL@@QBEABU?$pair@$$CBIPAVMItem@@@1@XZ
_TEXT	SEGMENT PARA USE32 PUBLIC 'CODE'
_TEXT	ENDS
;	COMDAT ??E?$_Rb_tree_iterator@U?$pair@$$CBIPAVMItem@@@_STL@@U?$_Const_traits@U?$pair@$$CBIPAVMItem@@@_STL@@@2@@_STL@@QAE?AU01@H@Z
_TEXT	SEGMENT PARA USE32 PUBLIC 'CODE'
_TEXT	ENDS
;	COMDAT ??1?$basic_ofstream@DV?$char_traits@D@_STL@@@_STL@@UAE@XZ
_TEXT	SEGMENT PARA USE32 PUBLIC 'CODE'
_TEXT	ENDS
;	COMDAT ??D?$_List_iterator@GU?$_Nonconst_traits@G@_STL@@@_STL@@QBEAAGXZ
_TEXT	SEGMENT PARA USE32 PUBLIC 'CODE'
_TEXT	ENDS
;	COMDAT ??E?$_List_iterator@GU?$_Nonconst_traits@G@_STL@@@_STL@@QAE?AU01@H@Z
_TEXT	SEGMENT PARA USE32 PUBLIC 'CODE'
_TEXT	ENDS
;	COMDAT ??_G?$basic_ofstream@DV?$char_traits@D@_STL@@@_STL@@UAEPAXI@Z
_TEXT	SEGMENT PARA USE32 PUBLIC 'CODE'
_TEXT	ENDS
;	COMDAT ??_D?$basic_ofstream@DV?$char_traits@D@_STL@@@_STL@@QAEXXZ
_TEXT	SEGMENT PARA USE32 PUBLIC 'CODE'
_TEXT	ENDS
;	COMDAT ?_M_terminate_string_aux@?$basic_string@DV?$char_traits@D@_STL@@V?$allocator@D@2@@_STL@@AAEXABU__true_type@2@@Z
_TEXT	SEGMENT PARA USE32 PUBLIC 'CODE'
_TEXT	ENDS
;	COMDAT ?assign@?$basic_string@DV?$char_traits@D@_STL@@V?$allocator@D@2@@_STL@@QAEAAV12@PBD0@Z
_TEXT	SEGMENT PARA USE32 PUBLIC 'CODE'
_TEXT	ENDS
;	COMDAT ??0?$allocator@D@_STL@@QAE@ABV01@@Z
_TEXT	SEGMENT PARA USE32 PUBLIC 'CODE'
_TEXT	ENDS
;	COMDAT ??0?$_STLP_alloc_proxy@PADDV?$allocator@D@_STL@@@_STL@@QAE@ABV?$allocator@D@1@PAD@Z
_TEXT	SEGMENT PARA USE32 PUBLIC 'CODE'
_TEXT	ENDS
;	COMDAT ?state@?$fpos@H@_STL@@QAEXH@Z
_TEXT	SEGMENT PARA USE32 PUBLIC 'CODE'
_TEXT	ENDS
;	COMDAT ?begin@?$list@GV?$allocator@G@_STL@@@_STL@@QBE?AU?$_List_iterator@GU?$_Const_traits@G@_STL@@@2@XZ
_TEXT	SEGMENT PARA USE32 PUBLIC 'CODE'
_TEXT	ENDS
;	COMDAT ?end@?$list@GV?$allocator@G@_STL@@@_STL@@QBE?AU?$_List_iterator@GU?$_Const_traits@G@_STL@@@2@XZ
_TEXT	SEGMENT PARA USE32 PUBLIC 'CODE'
_TEXT	ENDS
;	COMDAT ?insert@?$list@GV?$allocator@G@_STL@@@_STL@@QAE?AU?$_List_iterator@GU?$_Nonconst_traits@G@_STL@@@2@U32@ABG@Z
_TEXT	SEGMENT PARA USE32 PUBLIC 'CODE'
_TEXT	ENDS
;	COMDAT ??0?$_List_base@GV?$allocator@G@_STL@@@_STL@@QAE@ABV?$allocator@G@1@@Z
_TEXT	SEGMENT PARA USE32 PUBLIC 'CODE'
_TEXT	ENDS
;	COMDAT ??1?$_List_base@GV?$allocator@G@_STL@@@_STL@@QAE@XZ
_TEXT	SEGMENT PARA USE32 PUBLIC 'CODE'
_TEXT	ENDS
;	COMDAT ?begin@?$_Rb_tree@IU?$pair@$$CBIPAVMItem@@@_STL@@U?$_Select1st@U?$pair@$$CBIPAVMItem@@@_STL@@@2@U?$less@I@2@V?$allocator@U?$pair@$$CBIPAVMItem@@@_STL@@@2@@_STL@@QAE?AU?$_Rb_tree_iterator@U?$pair@$$CBIPAVMItem@@@_STL@@U?$_Nonconst_traits@U?$pair@$$CBIPAVMItem@@@_STL@@@2@@2@XZ
_TEXT	SEGMENT PARA USE32 PUBLIC 'CODE'
_TEXT	ENDS
;	COMDAT ?end@?$_Rb_tree@IU?$pair@$$CBIPAVMItem@@@_STL@@U?$_Select1st@U?$pair@$$CBIPAVMItem@@@_STL@@@2@U?$less@I@2@V?$allocator@U?$pair@$$CBIPAVMItem@@@_STL@@@2@@_STL@@QBE?AU?$_Rb_tree_iterator@U?$pair@$$CBIPAVMItem@@@_STL@@U?$_Const_traits@U?$pair@$$CBIPAVMItem@@@_STL@@@2@@2@XZ
_TEXT	SEGMENT PARA USE32 PUBLIC 'CODE'
_TEXT	ENDS
;	COMDAT ?size@?$_Rb_tree@IU?$pair@$$CBIPAVMItem@@@_STL@@U?$_Select1st@U?$pair@$$CBIPAVMItem@@@_STL@@@2@U?$less@I@2@V?$allocator@U?$pair@$$CBIPAVMItem@@@_STL@@@2@@_STL@@QBEIXZ
_TEXT	SEGMENT PARA USE32 PUBLIC 'CODE'
_TEXT	ENDS
;	COMDAT ??0?$_List_iterator@GU?$_Nonconst_traits@G@_STL@@@_STL@@QAE@PAU?$_List_node@G@1@@Z
_TEXT	SEGMENT PARA USE32 PUBLIC 'CODE'
_TEXT	ENDS
;	COMDAT ??0?$_List_iterator@GU?$_Nonconst_traits@G@_STL@@@_STL@@QAE@ABU01@@Z
_TEXT	SEGMENT PARA USE32 PUBLIC 'CODE'
_TEXT	ENDS
;	COMDAT ??1?$_STLP_alloc_proxy@PAU?$_List_node@G@_STL@@U12@V?$allocator@U?$_List_node@G@_STL@@@2@@_STL@@QAE@XZ
_TEXT	SEGMENT PARA USE32 PUBLIC 'CODE'
_TEXT	ENDS
;	COMDAT ?copy@?$__char_traits_base@DH@_STL@@SAPADPADPBDI@Z
_TEXT	SEGMENT PARA USE32 PUBLIC 'CODE'
_TEXT	ENDS
;	COMDAT ?begin@?$basic_string@DV?$char_traits@D@_STL@@V?$allocator@D@2@@_STL@@QAEPADXZ
_TEXT	SEGMENT PARA USE32 PUBLIC 'CODE'
_TEXT	ENDS
;	COMDAT ?end@?$basic_string@DV?$char_traits@D@_STL@@V?$allocator@D@2@@_STL@@QAEPADXZ
_TEXT	SEGMENT PARA USE32 PUBLIC 'CODE'
_TEXT	ENDS
;	COMDAT ?size@?$basic_string@DV?$char_traits@D@_STL@@V?$allocator@D@2@@_STL@@QBEIXZ
_TEXT	SEGMENT PARA USE32 PUBLIC 'CODE'
_TEXT	ENDS
;	COMDAT ?erase@?$basic_string@DV?$char_traits@D@_STL@@V?$allocator@D@2@@_STL@@QAEPADPAD0@Z
_TEXT	SEGMENT PARA USE32 PUBLIC 'CODE'
_TEXT	ENDS
;	COMDAT ?_M_create_node@?$list@GV?$allocator@G@_STL@@@_STL@@IAEPAU?$_List_node@G@2@ABG@Z
_TEXT	SEGMENT PARA USE32 PUBLIC 'CODE'
_TEXT	ENDS
;	COMDAT ??0?$_STLP_alloc_proxy@PAU?$_List_node@G@_STL@@U12@V?$allocator@U?$_List_node@G@_STL@@@2@@_STL@@QAE@ABV?$allocator@U?$_List_node@G@_STL@@@1@PAU?$_List_node@G@1@@Z
_TEXT	SEGMENT PARA USE32 PUBLIC 'CODE'
_TEXT	ENDS
;	COMDAT ??1?$allocator@U?$_List_node@G@_STL@@@_STL@@QAE@XZ
_TEXT	SEGMENT PARA USE32 PUBLIC 'CODE'
_TEXT	ENDS
;	COMDAT ?allocate@?$allocator@U?$_List_node@G@_STL@@@_STL@@QAEPAU?$_List_node@G@2@IPBX@Z
_TEXT	SEGMENT PARA USE32 PUBLIC 'CODE'
_TEXT	ENDS
;	COMDAT ?deallocate@?$allocator@U?$_List_node@G@_STL@@@_STL@@QAEXPAU?$_List_node@G@2@I@Z
_TEXT	SEGMENT PARA USE32 PUBLIC 'CODE'
_TEXT	ENDS
;	COMDAT ?_M_leftmost@?$_Rb_tree@IU?$pair@$$CBIPAVMItem@@@_STL@@U?$_Select1st@U?$pair@$$CBIPAVMItem@@@_STL@@@2@U?$less@I@2@V?$allocator@U?$pair@$$CBIPAVMItem@@@_STL@@@2@@_STL@@IBEAAPAU?$_Rb_tree_node@U?$pair@$$CBIPAVMItem@@@_STL@@@2@XZ
_TEXT	SEGMENT PARA USE32 PUBLIC 'CODE'
_TEXT	ENDS
;	COMDAT ??0?$_Rb_tree_iterator@U?$pair@$$CBIPAVMItem@@@_STL@@U?$_Const_traits@U?$pair@$$CBIPAVMItem@@@_STL@@@2@@_STL@@QAE@PAU?$_Rb_tree_node@U?$pair@$$CBIPAVMItem@@@_STL@@@1@@Z
_TEXT	SEGMENT PARA USE32 PUBLIC 'CODE'
_TEXT	ENDS
;	COMDAT ??0?$_Rb_tree_iterator@U?$pair@$$CBIPAVMItem@@@_STL@@U?$_Nonconst_traits@U?$pair@$$CBIPAVMItem@@@_STL@@@2@@_STL@@QAE@PAU?$_Rb_tree_node@U?$pair@$$CBIPAVMItem@@@_STL@@@1@@Z
_TEXT	SEGMENT PARA USE32 PUBLIC 'CODE'
_TEXT	ENDS
;	COMDAT ??0?$_List_iterator@GU?$_Const_traits@G@_STL@@@_STL@@QAE@PAU?$_List_node@G@1@@Z
_TEXT	SEGMENT PARA USE32 PUBLIC 'CODE'
_TEXT	ENDS
;	COMDAT ?move@?$__char_traits_base@DH@_STL@@SAPADPADPBDI@Z
_TEXT	SEGMENT PARA USE32 PUBLIC 'CODE'
_TEXT	ENDS
;	COMDAT ??0?$allocator@U?$_List_node@G@_STL@@@_STL@@QAE@ABV01@@Z
_TEXT	SEGMENT PARA USE32 PUBLIC 'CODE'
_TEXT	ENDS
;	COMDAT ??$_M_range_initialize@PBD@?$basic_string@DV?$char_traits@D@_STL@@V?$allocator@D@2@@_STL@@AAEXPBD0@Z
_TEXT	SEGMENT PARA USE32 PUBLIC 'CODE'
_TEXT	ENDS
;	COMDAT ??$_M_range_initialize@PAD@?$basic_string@DV?$char_traits@D@_STL@@V?$allocator@D@2@@_STL@@AAEXPAD0@Z
_TEXT	SEGMENT PARA USE32 PUBLIC 'CODE'
_TEXT	ENDS
;	COMDAT ?write@?$basic_ostream@DV?$char_traits@D@_STL@@@_STL@@QAEAAV12@PBDH@Z
_TEXT	SEGMENT PARA USE32 PUBLIC 'CODE'
_TEXT	ENDS
;	COMDAT ?close@?$basic_filebuf@DV?$char_traits@D@_STL@@@_STL@@QAEPAV12@XZ
_TEXT	SEGMENT PARA USE32 PUBLIC 'CODE'
_TEXT	ENDS
;	COMDAT ?_M_exit_input_mode@?$basic_filebuf@DV?$char_traits@D@_STL@@@_STL@@AAEXXZ
_TEXT	SEGMENT PARA USE32 PUBLIC 'CODE'
_TEXT	ENDS
;	COMDAT ?_M_switch_to_output_mode@?$basic_filebuf@DV?$char_traits@D@_STL@@@_STL@@AAE_NXZ
_TEXT	SEGMENT PARA USE32 PUBLIC 'CODE'
_TEXT	ENDS
;	COMDAT ?_M_output_error@?$basic_filebuf@DV?$char_traits@D@_STL@@@_STL@@AAEHXZ
_TEXT	SEGMENT PARA USE32 PUBLIC 'CODE'
_TEXT	ENDS
;	COMDAT ?_M_allocate_buffers@?$basic_filebuf@DV?$char_traits@D@_STL@@@_STL@@AAE_NPADH@Z
_TEXT	SEGMENT PARA USE32 PUBLIC 'CODE'
_TEXT	ENDS
;	COMDAT ?_M_deallocate_buffers@?$basic_filebuf@DV?$char_traits@D@_STL@@@_STL@@AAEXXZ
_TEXT	SEGMENT PARA USE32 PUBLIC 'CODE'
_TEXT	ENDS
;	COMDAT ?_M_seek_init@?$basic_filebuf@DV?$char_traits@D@_STL@@@_STL@@AAE_N_N@Z
_TEXT	SEGMENT PARA USE32 PUBLIC 'CODE'
_TEXT	ENDS
;	COMDAT ?_M_setup_codecvt@?$basic_filebuf@DV?$char_traits@D@_STL@@@_STL@@AAEXABVlocale@2@@Z
_TEXT	SEGMENT PARA USE32 PUBLIC 'CODE'
_TEXT	ENDS
;	COMDAT ??$equal@PADPADU?$_Eq_traits@V?$char_traits@D@_STL@@@_STL@@@_STL@@YA_NPAD00U?$_Eq_traits@V?$char_traits@D@_STL@@@0@@Z
_TEXT	SEGMENT PARA USE32 PUBLIC 'CODE'
_TEXT	ENDS
;	COMDAT ??$_Destroy@V?$basic_string@DV?$char_traits@D@_STL@@V?$allocator@D@2@@_STL@@@_STL@@YAXPAV?$basic_string@DV?$char_traits@D@_STL@@V?$allocator@D@2@@0@@Z
_TEXT	SEGMENT PARA USE32 PUBLIC 'CODE'
_TEXT	ENDS
;	COMDAT ??$_M_assign_dispatch@PAD@?$basic_string@DV?$char_traits@D@_STL@@V?$allocator@D@2@@_STL@@AAEAAV01@PAD0ABU__false_type@1@@Z
_TEXT	SEGMENT PARA USE32 PUBLIC 'CODE'
_TEXT	ENDS
;	COMDAT ?clear@?$_List_base@GV?$allocator@G@_STL@@@_STL@@QAEXXZ
_TEXT	SEGMENT PARA USE32 PUBLIC 'CODE'
_TEXT	ENDS
;	COMDAT ??4?$list@GV?$allocator@G@_STL@@@_STL@@QAEAAV01@ABV01@@Z
_TEXT	SEGMENT PARA USE32 PUBLIC 'CODE'
_TEXT	ENDS
;	COMDAT ??0?$CBitAttribute@EK@@QAE@XZ
_TEXT	SEGMENT PARA USE32 PUBLIC 'CODE'
_TEXT	ENDS
;	COMDAT ??1?$CBitAttribute@EK@@QAE@XZ
_TEXT	SEGMENT PARA USE32 PUBLIC 'CODE'
_TEXT	ENDS
;	COMDAT ?GetValueSize@?$CBitAttribute@EK@@QBEKXZ
_TEXT	SEGMENT PARA USE32 PUBLIC 'CODE'
_TEXT	ENDS
;	COMDAT ?Init@?$CTypeTable@VITEMTABLE_INFO@@@@QAEXH@Z
_TEXT	SEGMENT PARA USE32 PUBLIC 'CODE'
_TEXT	ENDS
;	COMDAT ?LoadFromFile@?$CTypeTable@VITEMTABLE_INFO@@@@QAEXAAVivfstream@@@Z
_TEXT	SEGMENT PARA USE32 PUBLIC 'CODE'
_TEXT	ENDS
;	COMDAT ??0?$CTypeTable@VITEMTYPE_TABLE@@@@QAE@XZ
_TEXT	SEGMENT PARA USE32 PUBLIC 'CODE'
_TEXT	ENDS
;	COMDAT ??1?$CTypeTable@VITEMTYPE_TABLE@@@@QAE@XZ
_TEXT	SEGMENT PARA USE32 PUBLIC 'CODE'
_TEXT	ENDS
;	COMDAT ??$distance@U?$_List_iterator@GU?$_Const_traits@G@_STL@@@_STL@@@_STL@@YAHABU?$_List_iterator@GU?$_Const_traits@G@_STL@@@0@0@Z
_TEXT	SEGMENT PARA USE32 PUBLIC 'CODE'
_TEXT	ENDS
;	COMDAT ??$append@PBD@?$basic_string@DV?$char_traits@D@_STL@@V?$allocator@D@2@@_STL@@QAEAAV01@PBD0@Z
_TEXT	SEGMENT PARA USE32 PUBLIC 'CODE'
_TEXT	ENDS
;	COMDAT ??$?0G@?$allocator@U?$_List_node@G@_STL@@@_STL@@QAE@ABV?$allocator@G@1@@Z
_TEXT	SEGMENT PARA USE32 PUBLIC 'CODE'
_TEXT	ENDS
;	COMDAT ??$_Construct@GG@_STL@@YAXPAGABG@Z
_TEXT	SEGMENT PARA USE32 PUBLIC 'CODE'
_TEXT	ENDS
;	COMDAT ??_G?$basic_string@DV?$char_traits@D@_STL@@V?$allocator@D@2@@_STL@@QAEPAXI@Z
_TEXT	SEGMENT PARA USE32 PUBLIC 'CODE'
_TEXT	ENDS
;	COMDAT ??_EITEMTABLE_INFO@@QAEPAXI@Z
_TEXT	SEGMENT PARA USE32 PUBLIC 'CODE'
_TEXT	ENDS
;	COMDAT ?rdbuf@?$basic_ios@DV?$char_traits@D@_STL@@@_STL@@QBEPAV?$basic_streambuf@DV?$char_traits@D@_STL@@@2@XZ
_TEXT	SEGMENT PARA USE32 PUBLIC 'CODE'
_TEXT	ENDS
;	COMDAT ?setstate@?$basic_ios@DV?$char_traits@D@_STL@@@_STL@@QAEXH@Z
_TEXT	SEGMENT PARA USE32 PUBLIC 'CODE'
_TEXT	ENDS
;	COMDAT ?_M_exit_putback_mode@?$basic_filebuf@DV?$char_traits@D@_STL@@@_STL@@AAEXXZ
_TEXT	SEGMENT PARA USE32 PUBLIC 'CODE'
_TEXT	ENDS
;	COMDAT ??R?$_Eq_traits@V?$char_traits@D@_STL@@@_STL@@QBE_NABD0@Z
_TEXT	SEGMENT PARA USE32 PUBLIC 'CODE'
_TEXT	ENDS
;	COMDAT ?erase@?$list@GV?$allocator@G@_STL@@@_STL@@QAE?AU?$_List_iterator@GU?$_Nonconst_traits@G@_STL@@@2@U32@0@Z
_TEXT	SEGMENT PARA USE32 PUBLIC 'CODE'
_TEXT	ENDS
;	COMDAT ??D?$_List_iterator@GU?$_Const_traits@G@_STL@@@_STL@@QBEABGXZ
_TEXT	SEGMENT PARA USE32 PUBLIC 'CODE'
_TEXT	ENDS
;	COMDAT ??E?$_List_iterator@GU?$_Const_traits@G@_STL@@@_STL@@QAE?AU01@H@Z
_TEXT	SEGMENT PARA USE32 PUBLIC 'CODE'
_TEXT	ENDS
;	COMDAT ??0sentry@?$basic_ostream@DV?$char_traits@D@_STL@@@_STL@@QAE@AAV12@@Z
_TEXT	SEGMENT PARA USE32 PUBLIC 'CODE'
_TEXT	ENDS
;	COMDAT ??1sentry@?$basic_ostream@DV?$char_traits@D@_STL@@@_STL@@QAE@XZ
_TEXT	SEGMENT PARA USE32 PUBLIC 'CODE'
_TEXT	ENDS
;	COMDAT ??Bsentry@?$basic_ostream@DV?$char_traits@D@_STL@@@_STL@@QBE_NXZ
_TEXT	SEGMENT PARA USE32 PUBLIC 'CODE'
_TEXT	ENDS
;	COMDAT ?clear@?$basic_ios@DV?$char_traits@D@_STL@@@_STL@@QAEXH@Z
_TEXT	SEGMENT PARA USE32 PUBLIC 'CODE'
_TEXT	ENDS
;	COMDAT ?flush@?$basic_ostream@DV?$char_traits@D@_STL@@@_STL@@QAEAAV12@XZ
_TEXT	SEGMENT PARA USE32 PUBLIC 'CODE'
_TEXT	ENDS
;	COMDAT ?erase@?$list@GV?$allocator@G@_STL@@@_STL@@QAE?AU?$_List_iterator@GU?$_Nonconst_traits@G@_STL@@@2@U32@@Z
_TEXT	SEGMENT PARA USE32 PUBLIC 'CODE'
_TEXT	ENDS
;	COMDAT ??$_M_range_initialize@PBD@?$basic_string@DV?$char_traits@D@_STL@@V?$allocator@D@2@@_STL@@AAEXPBD0ABUforward_iterator_tag@1@@Z
_TEXT	SEGMENT PARA USE32 PUBLIC 'CODE'
_TEXT	ENDS
;	COMDAT ??$_M_range_initialize@PAD@?$basic_string@DV?$char_traits@D@_STL@@V?$allocator@D@2@@_STL@@AAEXPAD0ABUforward_iterator_tag@1@@Z
_TEXT	SEGMENT PARA USE32 PUBLIC 'CODE'
_TEXT	ENDS
;	COMDAT ?_M_handle_exception@?$basic_ios@DV?$char_traits@D@_STL@@@_STL@@QAEXH@Z
_TEXT	SEGMENT PARA USE32 PUBLIC 'CODE'
_TEXT	ENDS
;	COMDAT ?_M_unshift@?$basic_filebuf@DV?$char_traits@D@_STL@@@_STL@@AAE_NXZ
_TEXT	SEGMENT PARA USE32 PUBLIC 'CODE'
_TEXT	ENDS
;	COMDAT ?_M_allocate_buffers@?$basic_filebuf@DV?$char_traits@D@_STL@@@_STL@@AAE_NXZ
_TEXT	SEGMENT PARA USE32 PUBLIC 'CODE'
_TEXT	ENDS
;	COMDAT ??$max@H@_STL@@YAABHABH0@Z
_TEXT	SEGMENT PARA USE32 PUBLIC 'CODE'
_TEXT	ENDS
;	COMDAT ??$use_facet@V?$codecvt@DDH@_STL@@@_STL@@YAABV?$codecvt@DDH@0@ABVlocale@0@@Z
_TEXT	SEGMENT PARA USE32 PUBLIC 'CODE'
_TEXT	ENDS
;	COMDAT ??$append@PAD@?$basic_string@DV?$char_traits@D@_STL@@V?$allocator@D@2@@_STL@@QAEAAV01@PAD0@Z
_TEXT	SEGMENT PARA USE32 PUBLIC 'CODE'
_TEXT	ENDS
;	COMDAT ??$_Destroy@G@_STL@@YAXPAG@Z
_TEXT	SEGMENT PARA USE32 PUBLIC 'CODE'
_TEXT	ENDS
;	COMDAT ??$insert@U?$_List_iterator@GU?$_Const_traits@G@_STL@@@_STL@@@?$list@GV?$allocator@G@_STL@@@_STL@@QAEXU?$_List_iterator@GU?$_Nonconst_traits@G@_STL@@@1@U?$_List_iterator@GU?$_Const_traits@G@_STL@@@1@1@Z
_TEXT	SEGMENT PARA USE32 PUBLIC 'CODE'
_TEXT	ENDS
;	COMDAT ?SetNULL@?$CBitAttribute@EK@@QAEXXZ
_TEXT	SEGMENT PARA USE32 PUBLIC 'CODE'
_TEXT	ENDS
;	COMDAT ?Release@?$CTypeTable@VITEMTABLE_INFO@@@@QAEXXZ
_TEXT	SEGMENT PARA USE32 PUBLIC 'CODE'
_TEXT	ENDS
;	COMDAT ?Release@?$CTypeTable@VITEMTYPE_TABLE@@@@QAEXXZ
_TEXT	SEGMENT PARA USE32 PUBLIC 'CODE'
_TEXT	ENDS
;	COMDAT ??$__distance@U?$_List_iterator@GU?$_Const_traits@G@_STL@@@_STL@@@_STL@@YAHABU?$_List_iterator@GU?$_Const_traits@G@_STL@@@0@0ABUinput_iterator_tag@0@@Z
_TEXT	SEGMENT PARA USE32 PUBLIC 'CODE'
_TEXT	ENDS
;	COMDAT ??$_M_append_dispatch@PBD@?$basic_string@DV?$char_traits@D@_STL@@V?$allocator@D@2@@_STL@@AAEAAV01@PBD0ABU__false_type@1@@Z
_TEXT	SEGMENT PARA USE32 PUBLIC 'CODE'
_TEXT	ENDS
;	COMDAT ??$_M_init@DV?$char_traits@D@_STL@@@_STL@@YA_NAAV?$basic_ostream@DV?$char_traits@D@_STL@@@0@@Z
_TEXT	SEGMENT PARA USE32 PUBLIC 'CODE'
_TEXT	ENDS
;	COMDAT ??_EITEMTYPE_TABLE@@QAEPAXI@Z
_TEXT	SEGMENT PARA USE32 PUBLIC 'CODE'
_TEXT	ENDS
;	COMDAT ??1ITEMTYPE_TABLE@@QAE@XZ
_TEXT	SEGMENT PARA USE32 PUBLIC 'CODE'
_TEXT	ENDS
;	COMDAT ?tie@?$basic_ios@DV?$char_traits@D@_STL@@@_STL@@QBEPAV?$basic_ostream@DV?$char_traits@D@_STL@@@2@XZ
_TEXT	SEGMENT PARA USE32 PUBLIC 'CODE'
_TEXT	ENDS
;	COMDAT ??E?$_List_iterator@GU?$_Const_traits@G@_STL@@@_STL@@QAEAAU01@XZ
_TEXT	SEGMENT PARA USE32 PUBLIC 'CODE'
_TEXT	ENDS
;	COMDAT ??$distance@PBD@_STL@@YAHABQBD0@Z
_TEXT	SEGMENT PARA USE32 PUBLIC 'CODE'
_TEXT	ENDS
;	COMDAT ?_M_allocate_block@?$_String_base@DV?$allocator@D@_STL@@@_STL@@QAEXI@Z
_TEXT	SEGMENT PARA USE32 PUBLIC 'CODE'
_TEXT	ENDS
;	COMDAT ??$distance@PAD@_STL@@YAHABQAD0@Z
_TEXT	SEGMENT PARA USE32 PUBLIC 'CODE'
_TEXT	ENDS
;	COMDAT ??$uninitialized_copy@PADPAD@_STL@@YAPADPAD00@Z
_TEXT	SEGMENT PARA USE32 PUBLIC 'CODE'
_TEXT	ENDS
;	COMDAT ??$_M_append_dispatch@PAD@?$basic_string@DV?$char_traits@D@_STL@@V?$allocator@D@2@@_STL@@AAEAAV01@PAD0ABU__false_type@1@@Z
_TEXT	SEGMENT PARA USE32 PUBLIC 'CODE'
_TEXT	ENDS
;	COMDAT ??$_M_insert_dispatch@U?$_List_iterator@GU?$_Const_traits@G@_STL@@@_STL@@@?$list@GV?$allocator@G@_STL@@@_STL@@QAEXU?$_List_iterator@GU?$_Nonconst_traits@G@_STL@@@1@U?$_List_iterator@GU?$_Const_traits@G@_STL@@@1@1ABU__false_type@1@@Z
_TEXT	SEGMENT PARA USE32 PUBLIC 'CODE'
_TEXT	ENDS
;	COMDAT ??1?$CTypeTable@VITEMTABLE_INFO@@@@QAE@XZ
_TEXT	SEGMENT PARA USE32 PUBLIC 'CODE'
_TEXT	ENDS
;	COMDAT ??$append@PBD@?$basic_string@DV?$char_traits@D@_STL@@V?$allocator@D@2@@_STL@@AAEAAV01@PBD0ABUforward_iterator_tag@1@@Z
_TEXT	SEGMENT PARA USE32 PUBLIC 'CODE'
_TEXT	ENDS
;	COMDAT ?_M_construct_null@?$basic_string@DV?$char_traits@D@_STL@@V?$allocator@D@2@@_STL@@AAEXPAD@Z
_TEXT	SEGMENT PARA USE32 PUBLIC 'CODE'
_TEXT	ENDS
;	COMDAT ?max_size@?$basic_string@DV?$char_traits@D@_STL@@V?$allocator@D@2@@_STL@@QBEIXZ
_TEXT	SEGMENT PARA USE32 PUBLIC 'CODE'
_TEXT	ENDS
;	COMDAT ?capacity@?$basic_string@DV?$char_traits@D@_STL@@V?$allocator@D@2@@_STL@@QBEIXZ
_TEXT	SEGMENT PARA USE32 PUBLIC 'CODE'
_TEXT	ENDS
;	COMDAT ?max_size@?$_String_base@DV?$allocator@D@_STL@@@_STL@@QBEIXZ
_TEXT	SEGMENT PARA USE32 PUBLIC 'CODE'
_TEXT	ENDS
;	COMDAT ?_M_construct_null_aux@?$basic_string@DV?$char_traits@D@_STL@@V?$allocator@D@2@@_STL@@AAEXPADABU__true_type@2@@Z
_TEXT	SEGMENT PARA USE32 PUBLIC 'CODE'
_TEXT	ENDS
;	COMDAT ??$__distance@PBD@_STL@@YAHABQBD0ABUrandom_access_iterator_tag@0@@Z
_TEXT	SEGMENT PARA USE32 PUBLIC 'CODE'
_TEXT	ENDS
;	COMDAT ?_M_throw_length_error@?$_String_base@DV?$allocator@D@_STL@@@_STL@@QBEXXZ
_TEXT	SEGMENT PARA USE32 PUBLIC 'CODE'
_TEXT	ENDS
;	COMDAT ??$__distance@PAD@_STL@@YAHABQAD0ABUrandom_access_iterator_tag@0@@Z
_TEXT	SEGMENT PARA USE32 PUBLIC 'CODE'
_TEXT	ENDS
;	COMDAT ??$__uninitialized_copy@PADPAD@_STL@@YAPADPAD00ABU__true_type@0@@Z
_TEXT	SEGMENT PARA USE32 PUBLIC 'CODE'
_TEXT	ENDS
;	COMDAT ??$append@PAD@?$basic_string@DV?$char_traits@D@_STL@@V?$allocator@D@2@@_STL@@AAEAAV01@PAD0ABUforward_iterator_tag@1@@Z
_TEXT	SEGMENT PARA USE32 PUBLIC 'CODE'
_TEXT	ENDS
;	COMDAT ??$max@I@_STL@@YAABIABI0@Z
_TEXT	SEGMENT PARA USE32 PUBLIC 'CODE'
_TEXT	ENDS
;	COMDAT ?_Ret@?$_BothPtrType@PADPAD@_STL@@SA?AU__true_type@2@XZ
_TEXT	SEGMENT PARA USE32 PUBLIC 'CODE'
_TEXT	ENDS
;	COMDAT ??$__copy_aux@PADPAD@_STL@@YAPADPAD00ABU__true_type@0@@Z
_TEXT	SEGMENT PARA USE32 PUBLIC 'CODE'
_TEXT	ENDS
;	COMDAT ?_Ret@?$_OKToMemCpy@DD@_STL@@SA?AU__true_type@2@XZ
_TEXT	SEGMENT PARA USE32 PUBLIC 'CODE'
_TEXT	ENDS
;	COMDAT ??$_IsOKToMemCpy@DD@_STL@@YA?AU?$_OKToMemCpy@DD@0@PAD0@Z
_TEXT	SEGMENT PARA USE32 PUBLIC 'CODE'
_TEXT	ENDS
;	COMDAT ??$__copy_ptrs@PADPAD@_STL@@YAPADPAD00ABU__true_type@0@@Z
_TEXT	SEGMENT PARA USE32 PUBLIC 'CODE'
_TEXT	ENDS
;	COMDAT ??_EMMotorcycle@@WJA@AEPAXI@Z
_TEXT	SEGMENT PARA USE32 PUBLIC 'CODE'
_TEXT	ENDS
;	COMDAT ??_EMBelt@@WJA@AEPAXI@Z
_TEXT	SEGMENT PARA USE32 PUBLIC 'CODE'
_TEXT	ENDS
;	COMDAT ??_EMOustersArmsBand@@WJA@AEPAXI@Z
_TEXT	SEGMENT PARA USE32 PUBLIC 'CODE'
_TEXT	ENDS
;	COMDAT ??_EMSubInventory@@WJA@AEPAXI@Z
_TEXT	SEGMENT PARA USE32 PUBLIC 'CODE'
_TEXT	ENDS
;	COMDAT ??_R3MBracelet@@8
rdata$r	SEGMENT DWORD USE32 PUBLIC 'CONST'
rdata$r	ENDS
;	COMDAT ??_R3MVampireBracelet@@8
rdata$r	SEGMENT DWORD USE32 PUBLIC 'CONST'
rdata$r	ENDS
;	COMDAT ??_R3MPileItem@@8
rdata$r	SEGMENT DWORD USE32 PUBLIC 'CONST'
rdata$r	ENDS
;	COMDAT ??_R3MOustersStone@@8
rdata$r	SEGMENT DWORD USE32 PUBLIC 'CONST'
rdata$r	ENDS
;	COMDAT ??_R3MMace@@8
rdata$r	SEGMENT DWORD USE32 PUBLIC 'CONST'
rdata$r	ENDS
;	COMDAT ??_R3MVampireWeapon@@8
rdata$r	SEGMENT DWORD USE32 PUBLIC 'CONST'
rdata$r	ENDS
;	COMDAT ??_R3MTrouser@@8
rdata$r	SEGMENT DWORD USE32 PUBLIC 'CONST'
rdata$r	ENDS
;	COMDAT ??_R3MLuckyBag@@8
rdata$r	SEGMENT DWORD USE32 PUBLIC 'CONST'
rdata$r	ENDS
;	COMDAT ??_R3MSkull@@8
rdata$r	SEGMENT DWORD USE32 PUBLIC 'CONST'
rdata$r	ENDS
;	COMDAT ??_R3MTuningItemVampire@@8
rdata$r	SEGMENT DWORD USE32 PUBLIC 'CONST'
rdata$r	ENDS
;	COMDAT ??_R3iovfs_base@@8
rdata$r	SEGMENT DWORD USE32 PUBLIC 'CONST'
rdata$r	ENDS
;	COMDAT ??_R3MPersona@@8
rdata$r	SEGMENT DWORD USE32 PUBLIC 'CONST'
rdata$r	ENDS
;	COMDAT ??_R3MGunItem@@8
rdata$r	SEGMENT DWORD USE32 PUBLIC 'CONST'
rdata$r	ENDS
;	COMDAT ??_R3MEventTreeItem@@8
rdata$r	SEGMENT DWORD USE32 PUBLIC 'CONST'
rdata$r	ENDS
;	COMDAT ??_R3MItemETC@@8
rdata$r	SEGMENT DWORD USE32 PUBLIC 'CONST'
rdata$r	ENDS
;	COMDAT ??_R3MOustersHarmonicPendent@@8
rdata$r	SEGMENT DWORD USE32 PUBLIC 'CONST'
rdata$r	ENDS
;	COMDAT ??_R3MSlayerPortalItem@@8
rdata$r	SEGMENT DWORD USE32 PUBLIC 'CONST'
rdata$r	ENDS
;	COMDAT ??_R3MSubInventory@@8
rdata$r	SEGMENT DWORD USE32 PUBLIC 'CONST'
rdata$r	ENDS
;	COMDAT ??_R3MRelic@@8
rdata$r	SEGMENT DWORD USE32 PUBLIC 'CONST'
rdata$r	ENDS
;	COMDAT ??_R3MSword@@8
rdata$r	SEGMENT DWORD USE32 PUBLIC 'CONST'
rdata$r	ENDS
;	COMDAT ??_R3MSms_item@@8
rdata$r	SEGMENT DWORD USE32 PUBLIC 'CONST'
rdata$r	ENDS
;	COMDAT ??_R3MMoonCardItem@@8
rdata$r	SEGMENT DWORD USE32 PUBLIC 'CONST'
rdata$r	ENDS
;	COMDAT ??_R3MCastleSymbol@@8
rdata$r	SEGMENT DWORD USE32 PUBLIC 'CONST'
rdata$r	ENDS
;	COMDAT ??_R3MArmorItem2@@8
rdata$r	SEGMENT DWORD USE32 PUBLIC 'CONST'
rdata$r	ENDS
;	COMDAT ??_R3MCueOfAdam@@8
rdata$r	SEGMENT DWORD USE32 PUBLIC 'CONST'
rdata$r	ENDS
;	COMDAT ??_R3MTrapItem@@8
rdata$r	SEGMENT DWORD USE32 PUBLIC 'CONST'
rdata$r	ENDS
;	COMDAT ??_R3MOustersCirclet@@8
rdata$r	SEGMENT DWORD USE32 PUBLIC 'CONST'
rdata$r	ENDS
;	COMDAT ??_R3MRing@@8
rdata$r	SEGMENT DWORD USE32 PUBLIC 'CONST'
rdata$r	ENDS
;	COMDAT ??_R3MVampireEarRing@@8
rdata$r	SEGMENT DWORD USE32 PUBLIC 'CONST'
rdata$r	ENDS
;	COMDAT ??_R3MOustersComposMei@@8
rdata$r	SEGMENT DWORD USE32 PUBLIC 'CONST'
rdata$r	ENDS
;	COMDAT ??_R3MGearItem@@8
rdata$r	SEGMENT DWORD USE32 PUBLIC 'CONST'
rdata$r	ENDS
;	COMDAT ??_R3MOustersRing@@8
rdata$r	SEGMENT DWORD USE32 PUBLIC 'CONST'
rdata$r	ENDS
;	COMDAT ??_R3MEventStarItem@@8
rdata$r	SEGMENT DWORD USE32 PUBLIC 'CONST'
rdata$r	ENDS
;	COMDAT ??_R3MCarryingReceiver@@8
rdata$r	SEGMENT DWORD USE32 PUBLIC 'CONST'
rdata$r	ENDS
;	COMDAT ??_R3MCoat@@8
rdata$r	SEGMENT DWORD USE32 PUBLIC 'CONST'
rdata$r	ENDS
;	COMDAT ??_R3MPetEnchantItem@@8
rdata$r	SEGMENT DWORD USE32 PUBLIC 'CONST'
rdata$r	ENDS
;	COMDAT ??_R3MOustersArmsBand@@8
rdata$r	SEGMENT DWORD USE32 PUBLIC 'CONST'
rdata$r	ENDS
;	COMDAT ??_R3MTuningItemSlayer@@8
rdata$r	SEGMENT DWORD USE32 PUBLIC 'CONST'
rdata$r	ENDS
;	COMDAT ??_R3MVampireCoat@@8
rdata$r	SEGMENT DWORD USE32 PUBLIC 'CONST'
rdata$r	ENDS
;	COMDAT ??_R3MQuestItem@@8
rdata$r	SEGMENT DWORD USE32 PUBLIC 'CONST'
rdata$r	ENDS
;	COMDAT ??_R3MDermis@@8
rdata$r	SEGMENT DWORD USE32 PUBLIC 'CONST'
rdata$r	ENDS
;	COMDAT ??_R3MHelm@@8
rdata$r	SEGMENT DWORD USE32 PUBLIC 'CONST'
rdata$r	ENDS
;	COMDAT ??_R3MCross@@8
rdata$r	SEGMENT DWORD USE32 PUBLIC 'CONST'
rdata$r	ENDS
;	COMDAT ??_R3MGunTR@@8
rdata$r	SEGMENT DWORD USE32 PUBLIC 'CONST'
rdata$r	ENDS
;	COMDAT ??_R3MVampireETC@@8
rdata$r	SEGMENT DWORD USE32 PUBLIC 'CONST'
rdata$r	ENDS
;	COMDAT ??_R3MWeaponItem@@8
rdata$r	SEGMENT DWORD USE32 PUBLIC 'CONST'
rdata$r	ENDS
;	COMDAT ??_R3MGunSMG@@8
rdata$r	SEGMENT DWORD USE32 PUBLIC 'CONST'
rdata$r	ENDS
;	COMDAT ??_R3MMitten@@8
rdata$r	SEGMENT DWORD USE32 PUBLIC 'CONST'
rdata$r	ENDS
;	COMDAT ??_R3MBlade@@8
rdata$r	SEGMENT DWORD USE32 PUBLIC 'CONST'
rdata$r	ENDS
;	COMDAT ??_R3MEtherealChain@@8
rdata$r	SEGMENT DWORD USE32 PUBLIC 'CONST'
rdata$r	ENDS
;	COMDAT ??_R3MRankGem@@8
rdata$r	SEGMENT DWORD USE32 PUBLIC 'CONST'
rdata$r	ENDS
;	COMDAT ??_R3MKey@@8
rdata$r	SEGMENT DWORD USE32 PUBLIC 'CONST'
rdata$r	ENDS
;	COMDAT ??_R3MCallNPCNPCCard@@8
rdata$r	SEGMENT DWORD USE32 PUBLIC 'CONST'
rdata$r	ENDS
;	COMDAT ??_R3MVampirePortalItem@@8
rdata$r	SEGMENT DWORD USE32 PUBLIC 'CONST'
rdata$r	ENDS
;	COMDAT ??_R3MBloodBible@@8
rdata$r	SEGMENT DWORD USE32 PUBLIC 'CONST'
rdata$r	ENDS
;	COMDAT ??_R3MCodeSheetItem@@8
rdata$r	SEGMENT DWORD USE32 PUBLIC 'CONST'
rdata$r	ENDS
;	COMDAT ??_R3MArmorItem@@8
rdata$r	SEGMENT DWORD USE32 PUBLIC 'CONST'
rdata$r	ENDS
;	COMDAT ??_R3MGQuestItem@@8
rdata$r	SEGMENT DWORD USE32 PUBLIC 'CONST'
rdata$r	ENDS
;	COMDAT ??_R3?$basic_ofstream@DV?$char_traits@D@_STL@@@_STL@@8
rdata$r	SEGMENT DWORD USE32 PUBLIC 'CONST'
rdata$r	ENDS
;	COMDAT ??_R3MWater@@8
rdata$r	SEGMENT DWORD USE32 PUBLIC 'CONST'
rdata$r	ENDS
;	COMDAT ??_R3MLearningItem@@8
rdata$r	SEGMENT DWORD USE32 PUBLIC 'CONST'
rdata$r	ENDS
;	COMDAT ??_R3MPetItem@@8
rdata$r	SEGMENT DWORD USE32 PUBLIC 'CONST'
rdata$r	ENDS
;	COMDAT ??_R3MOustersChakram@@8
rdata$r	SEGMENT DWORD USE32 PUBLIC 'CONST'
rdata$r	ENDS
;	COMDAT ??_R3MVampireCoupleRing@@8
rdata$r	SEGMENT DWORD USE32 PUBLIC 'CONST'
rdata$r	ENDS
;	COMDAT ??_R3MVampireRing@@8
rdata$r	SEGMENT DWORD USE32 PUBLIC 'CONST'
rdata$r	ENDS
;	COMDAT ??_R3MSkillBook@@8
rdata$r	SEGMENT DWORD USE32 PUBLIC 'CONST'
rdata$r	ENDS
;	COMDAT ??_R3IFileIO@@8
rdata$r	SEGMENT DWORD USE32 PUBLIC 'CONST'
rdata$r	ENDS
;	COMDAT ??_R3MEffectItem@@8
rdata$r	SEGMENT DWORD USE32 PUBLIC 'CONST'
rdata$r	ENDS
;	COMDAT ??_R3MWarItem@@8
rdata$r	SEGMENT DWORD USE32 PUBLIC 'CONST'
rdata$r	ENDS
;	COMDAT ??_R3MMagazine@@8
rdata$r	SEGMENT DWORD USE32 PUBLIC 'CONST'
rdata$r	ENDS
;	COMDAT ??_R3MOustersPupa@@8
rdata$r	SEGMENT DWORD USE32 PUBLIC 'CONST'
rdata$r	ENDS
;	COMDAT ??_R3MBelt@@8
rdata$r	SEGMENT DWORD USE32 PUBLIC 'CONST'
rdata$r	ENDS
;	COMDAT ??_R3MEventGiftBoxItem@@8
rdata$r	SEGMENT DWORD USE32 PUBLIC 'CONST'
rdata$r	ENDS
;	COMDAT ??_R3MOustersPendent@@8
rdata$r	SEGMENT DWORD USE32 PUBLIC 'CONST'
rdata$r	ENDS
;	COMDAT ??_R3MOustersWingItem@@8
rdata$r	SEGMENT DWORD USE32 PUBLIC 'CONST'
rdata$r	ENDS
;	COMDAT ??_R3MDyePotionItem@@8
rdata$r	SEGMENT DWORD USE32 PUBLIC 'CONST'
rdata$r	ENDS
;	COMDAT ??_R3MBomb@@8
rdata$r	SEGMENT DWORD USE32 PUBLIC 'CONST'
rdata$r	ENDS
;	COMDAT ??_R3MPetFood@@8
rdata$r	SEGMENT DWORD USE32 PUBLIC 'CONST'
rdata$r	ENDS
;	COMDAT ??_R3MMixingItem@@8
rdata$r	SEGMENT DWORD USE32 PUBLIC 'CONST'
rdata$r	ENDS
;	COMDAT ??_R3MNecklace@@8
rdata$r	SEGMENT DWORD USE32 PUBLIC 'CONST'
rdata$r	ENDS
;	COMDAT ??_R3MVampireNecklace@@8
rdata$r	SEGMENT DWORD USE32 PUBLIC 'CONST'
rdata$r	ENDS
;	COMDAT ??_R3MGlove@@8
rdata$r	SEGMENT DWORD USE32 PUBLIC 'CONST'
rdata$r	ENDS
;	COMDAT ??_R3MVampireAmulet@@8
rdata$r	SEGMENT DWORD USE32 PUBLIC 'CONST'
rdata$r	ENDS
;	COMDAT ??_R3MShoulderArmor@@8
rdata$r	SEGMENT DWORD USE32 PUBLIC 'CONST'
rdata$r	ENDS
;	COMDAT ??_R3MShield@@8
rdata$r	SEGMENT DWORD USE32 PUBLIC 'CONST'
rdata$r	ENDS
;	COMDAT ??_R3MGunAR@@8
rdata$r	SEGMENT DWORD USE32 PUBLIC 'CONST'
rdata$r	ENDS
;	COMDAT ??_R3MOustersWristlet@@8
rdata$r	SEGMENT DWORD USE32 PUBLIC 'CONST'
rdata$r	ENDS
;	COMDAT ??_R3MShoes@@8
rdata$r	SEGMENT DWORD USE32 PUBLIC 'CONST'
rdata$r	ENDS
;	COMDAT ??_R3MUsePotionItem@@8
rdata$r	SEGMENT DWORD USE32 PUBLIC 'CONST'
rdata$r	ENDS
;	COMDAT ??_R3MGunSG@@8
rdata$r	SEGMENT DWORD USE32 PUBLIC 'CONST'
rdata$r	ENDS
;	COMDAT ??_R3MCommonQuestItem@@8
rdata$r	SEGMENT DWORD USE32 PUBLIC 'CONST'
rdata$r	ENDS
;	COMDAT ??_R3MTuningItemOusters@@8
rdata$r	SEGMENT DWORD USE32 PUBLIC 'CONST'
rdata$r	ENDS
;	COMDAT ??_R3MSerum@@8
rdata$r	SEGMENT DWORD USE32 PUBLIC 'CONST'
rdata$r	ENDS
;	COMDAT ??_R3MFascia@@8
rdata$r	SEGMENT DWORD USE32 PUBLIC 'CONST'
rdata$r	ENDS
;	COMDAT ??_R3ovfstream@@8
rdata$r	SEGMENT DWORD USE32 PUBLIC 'CONST'
rdata$r	ENDS
;	COMDAT ??_R3MEventEtcItem@@8
rdata$r	SEGMENT DWORD USE32 PUBLIC 'CONST'
rdata$r	ENDS
;	COMDAT ??_R3MObject@@8
rdata$r	SEGMENT DWORD USE32 PUBLIC 'CONST'
rdata$r	ENDS
;	COMDAT ??_R3MMotorcycle@@8
rdata$r	SEGMENT DWORD USE32 PUBLIC 'CONST'
rdata$r	ENDS
;	COMDAT ??_R3MCheckMoney@@8
rdata$r	SEGMENT DWORD USE32 PUBLIC 'CONST'
rdata$r	ENDS
;	COMDAT ??_R3MCoreZap@@8
rdata$r	SEGMENT DWORD USE32 PUBLIC 'CONST'
rdata$r	ENDS
;	COMDAT ??_R3MBombMaterial@@8
rdata$r	SEGMENT DWORD USE32 PUBLIC 'CONST'
rdata$r	ENDS
;	COMDAT ??_R3MSweeperItem@@8
rdata$r	SEGMENT DWORD USE32 PUBLIC 'CONST'
rdata$r	ENDS
;	COMDAT ??_R3MPotion@@8
rdata$r	SEGMENT DWORD USE32 PUBLIC 'CONST'
rdata$r	ENDS
;	COMDAT ??_R3MContractOfBlood@@8
rdata$r	SEGMENT DWORD USE32 PUBLIC 'CONST'
rdata$r	ENDS
;	COMDAT ??_R3MCoupleRing@@8
rdata$r	SEGMENT DWORD USE32 PUBLIC 'CONST'
rdata$r	ENDS
;	COMDAT ??_R3ivfstream@@8
rdata$r	SEGMENT DWORD USE32 PUBLIC 'CONST'
rdata$r	ENDS
;	COMDAT ??_R3MOustersBoots@@8
rdata$r	SEGMENT DWORD USE32 PUBLIC 'CONST'
rdata$r	ENDS
;	COMDAT ??_R3MAccessoryItem@@8
rdata$r	SEGMENT DWORD USE32 PUBLIC 'CONST'
rdata$r	ENDS
;	COMDAT ??_R3MOustersLarva@@8
rdata$r	SEGMENT DWORD USE32 PUBLIC 'CONST'
rdata$r	ENDS
;	COMDAT ??_R3MHolyWater@@8
rdata$r	SEGMENT DWORD USE32 PUBLIC 'CONST'
rdata$r	ENDS
;	COMDAT ??_R3MOustersSummonGem@@8
rdata$r	SEGMENT DWORD USE32 PUBLIC 'CONST'
rdata$r	ENDS
;	COMDAT ??_R3MEventItem@@8
rdata$r	SEGMENT DWORD USE32 PUBLIC 'CONST'
rdata$r	ENDS
;	COMDAT ??_R3MMoney@@8
rdata$r	SEGMENT DWORD USE32 PUBLIC 'CONST'
rdata$r	ENDS
;	COMDAT ??_R3MResurrectItem@@8
rdata$r	SEGMENT DWORD USE32 PUBLIC 'CONST'
rdata$r	ENDS
;	COMDAT ??_R3MVampireWingItem@@8
rdata$r	SEGMENT DWORD USE32 PUBLIC 'CONST'
rdata$r	ENDS
;	COMDAT ??_R3MBloodBibleSign@@8
rdata$r	SEGMENT DWORD USE32 PUBLIC 'CONST'
rdata$r	ENDS
;	COMDAT ??_R3MMine@@8
rdata$r	SEGMENT DWORD USE32 PUBLIC 'CONST'
rdata$r	ENDS
;	COMDAT ??_R3MOustersCoat@@8
rdata$r	SEGMENT DWORD USE32 PUBLIC 'CONST'
rdata$r	ENDS
;	COMDAT ??_R2MBracelet@@8
rdata$r	SEGMENT DWORD USE32 PUBLIC 'CONST'
rdata$r	ENDS
;	COMDAT ??_R2MVampireBracelet@@8
rdata$r	SEGMENT DWORD USE32 PUBLIC 'CONST'
rdata$r	ENDS
;	COMDAT ??_R2MPileItem@@8
rdata$r	SEGMENT DWORD USE32 PUBLIC 'CONST'
rdata$r	ENDS
;	COMDAT ??_R2MOustersStone@@8
rdata$r	SEGMENT DWORD USE32 PUBLIC 'CONST'
rdata$r	ENDS
;	COMDAT ??_R2MMace@@8
rdata$r	SEGMENT DWORD USE32 PUBLIC 'CONST'
rdata$r	ENDS
;	COMDAT ??_R2MVampireWeapon@@8
rdata$r	SEGMENT DWORD USE32 PUBLIC 'CONST'
rdata$r	ENDS
;	COMDAT ??_R2MTrouser@@8
rdata$r	SEGMENT DWORD USE32 PUBLIC 'CONST'
rdata$r	ENDS
;	COMDAT ??_R2MLuckyBag@@8
rdata$r	SEGMENT DWORD USE32 PUBLIC 'CONST'
rdata$r	ENDS
;	COMDAT ??_R2MSkull@@8
rdata$r	SEGMENT DWORD USE32 PUBLIC 'CONST'
rdata$r	ENDS
;	COMDAT ??_R2MTuningItemVampire@@8
rdata$r	SEGMENT DWORD USE32 PUBLIC 'CONST'
rdata$r	ENDS
;	COMDAT ??_R2iovfs_base@@8
rdata$r	SEGMENT DWORD USE32 PUBLIC 'CONST'
rdata$r	ENDS
;	COMDAT ??_R2MPersona@@8
rdata$r	SEGMENT DWORD USE32 PUBLIC 'CONST'
rdata$r	ENDS
;	COMDAT ??_R2MGunItem@@8
rdata$r	SEGMENT DWORD USE32 PUBLIC 'CONST'
rdata$r	ENDS
;	COMDAT ??_R2MEventTreeItem@@8
rdata$r	SEGMENT DWORD USE32 PUBLIC 'CONST'
rdata$r	ENDS
;	COMDAT ??_R2MItemETC@@8
rdata$r	SEGMENT DWORD USE32 PUBLIC 'CONST'
rdata$r	ENDS
;	COMDAT ??_R2MOustersHarmonicPendent@@8
rdata$r	SEGMENT DWORD USE32 PUBLIC 'CONST'
rdata$r	ENDS
;	COMDAT ??_R2MSlayerPortalItem@@8
rdata$r	SEGMENT DWORD USE32 PUBLIC 'CONST'
rdata$r	ENDS
;	COMDAT ??_R2MSubInventory@@8
rdata$r	SEGMENT DWORD USE32 PUBLIC 'CONST'
rdata$r	ENDS
;	COMDAT ??_R2MRelic@@8
rdata$r	SEGMENT DWORD USE32 PUBLIC 'CONST'
rdata$r	ENDS
;	COMDAT ??_R2MSword@@8
rdata$r	SEGMENT DWORD USE32 PUBLIC 'CONST'
rdata$r	ENDS
;	COMDAT ??_R2MSms_item@@8
rdata$r	SEGMENT DWORD USE32 PUBLIC 'CONST'
rdata$r	ENDS
;	COMDAT ??_R2MMoonCardItem@@8
rdata$r	SEGMENT DWORD USE32 PUBLIC 'CONST'
rdata$r	ENDS
;	COMDAT ??_R2MCastleSymbol@@8
rdata$r	SEGMENT DWORD USE32 PUBLIC 'CONST'
rdata$r	ENDS
;	COMDAT ??_R2MArmorItem2@@8
rdata$r	SEGMENT DWORD USE32 PUBLIC 'CONST'
rdata$r	ENDS
;	COMDAT ??_R2MCueOfAdam@@8
rdata$r	SEGMENT DWORD USE32 PUBLIC 'CONST'
rdata$r	ENDS
;	COMDAT ??_R2MTrapItem@@8
rdata$r	SEGMENT DWORD USE32 PUBLIC 'CONST'
rdata$r	ENDS
;	COMDAT ??_R2MOustersCirclet@@8
rdata$r	SEGMENT DWORD USE32 PUBLIC 'CONST'
rdata$r	ENDS
;	COMDAT ??_R2MRing@@8
rdata$r	SEGMENT DWORD USE32 PUBLIC 'CONST'
rdata$r	ENDS
;	COMDAT ??_R2MVampireEarRing@@8
rdata$r	SEGMENT DWORD USE32 PUBLIC 'CONST'
rdata$r	ENDS
;	COMDAT ??_R2MOustersComposMei@@8
rdata$r	SEGMENT DWORD USE32 PUBLIC 'CONST'
rdata$r	ENDS
;	COMDAT ??_R2MGearItem@@8
rdata$r	SEGMENT DWORD USE32 PUBLIC 'CONST'
rdata$r	ENDS
;	COMDAT ??_R2MOustersRing@@8
rdata$r	SEGMENT DWORD USE32 PUBLIC 'CONST'
rdata$r	ENDS
;	COMDAT ??_R2MEventStarItem@@8
rdata$r	SEGMENT DWORD USE32 PUBLIC 'CONST'
rdata$r	ENDS
;	COMDAT ??_R2MCarryingReceiver@@8
rdata$r	SEGMENT DWORD USE32 PUBLIC 'CONST'
rdata$r	ENDS
;	COMDAT ??_R2MCoat@@8
rdata$r	SEGMENT DWORD USE32 PUBLIC 'CONST'
rdata$r	ENDS
;	COMDAT ??_R2MPetEnchantItem@@8
rdata$r	SEGMENT DWORD USE32 PUBLIC 'CONST'
rdata$r	ENDS
;	COMDAT ??_R2MOustersArmsBand@@8
rdata$r	SEGMENT DWORD USE32 PUBLIC 'CONST'
rdata$r	ENDS
;	COMDAT ??_R2MTuningItemSlayer@@8
rdata$r	SEGMENT DWORD USE32 PUBLIC 'CONST'
rdata$r	ENDS
;	COMDAT ??_R2MVampireCoat@@8
rdata$r	SEGMENT DWORD USE32 PUBLIC 'CONST'
rdata$r	ENDS
;	COMDAT ??_R2MQuestItem@@8
rdata$r	SEGMENT DWORD USE32 PUBLIC 'CONST'
rdata$r	ENDS
;	COMDAT ??_R2MDermis@@8
rdata$r	SEGMENT DWORD USE32 PUBLIC 'CONST'
rdata$r	ENDS
;	COMDAT ??_R2MHelm@@8
rdata$r	SEGMENT DWORD USE32 PUBLIC 'CONST'
rdata$r	ENDS
;	COMDAT ??_R2MCross@@8
rdata$r	SEGMENT DWORD USE32 PUBLIC 'CONST'
rdata$r	ENDS
;	COMDAT ??_R2MGunTR@@8
rdata$r	SEGMENT DWORD USE32 PUBLIC 'CONST'
rdata$r	ENDS
;	COMDAT ??_R2MVampireETC@@8
rdata$r	SEGMENT DWORD USE32 PUBLIC 'CONST'
rdata$r	ENDS
;	COMDAT ??_R2MWeaponItem@@8
rdata$r	SEGMENT DWORD USE32 PUBLIC 'CONST'
rdata$r	ENDS
;	COMDAT ??_R2MGunSMG@@8
rdata$r	SEGMENT DWORD USE32 PUBLIC 'CONST'
rdata$r	ENDS
;	COMDAT ??_R2MMitten@@8
rdata$r	SEGMENT DWORD USE32 PUBLIC 'CONST'
rdata$r	ENDS
;	COMDAT ??_R2MBlade@@8
rdata$r	SEGMENT DWORD USE32 PUBLIC 'CONST'
rdata$r	ENDS
;	COMDAT ??_R2MEtherealChain@@8
rdata$r	SEGMENT DWORD USE32 PUBLIC 'CONST'
rdata$r	ENDS
;	COMDAT ??_R2MRankGem@@8
rdata$r	SEGMENT DWORD USE32 PUBLIC 'CONST'
rdata$r	ENDS
;	COMDAT ??_R2MKey@@8
rdata$r	SEGMENT DWORD USE32 PUBLIC 'CONST'
rdata$r	ENDS
;	COMDAT ??_R2MCallNPCNPCCard@@8
rdata$r	SEGMENT DWORD USE32 PUBLIC 'CONST'
rdata$r	ENDS
;	COMDAT ??_R2MVampirePortalItem@@8
rdata$r	SEGMENT DWORD USE32 PUBLIC 'CONST'
rdata$r	ENDS
;	COMDAT ??_R2MBloodBible@@8
rdata$r	SEGMENT DWORD USE32 PUBLIC 'CONST'
rdata$r	ENDS
;	COMDAT ??_R2MCodeSheetItem@@8
rdata$r	SEGMENT DWORD USE32 PUBLIC 'CONST'
rdata$r	ENDS
;	COMDAT ??_R2MArmorItem@@8
rdata$r	SEGMENT DWORD USE32 PUBLIC 'CONST'
rdata$r	ENDS
;	COMDAT ??_R2MGQuestItem@@8
rdata$r	SEGMENT DWORD USE32 PUBLIC 'CONST'
rdata$r	ENDS
;	COMDAT ??_R2?$basic_ofstream@DV?$char_traits@D@_STL@@@_STL@@8
rdata$r	SEGMENT DWORD USE32 PUBLIC 'CONST'
rdata$r	ENDS
;	COMDAT ??_R2MWater@@8
rdata$r	SEGMENT DWORD USE32 PUBLIC 'CONST'
rdata$r	ENDS
;	COMDAT ??_R2MLearningItem@@8
rdata$r	SEGMENT DWORD USE32 PUBLIC 'CONST'
rdata$r	ENDS
;	COMDAT ??_R2MPetItem@@8
rdata$r	SEGMENT DWORD USE32 PUBLIC 'CONST'
rdata$r	ENDS
;	COMDAT ??_R2MOustersChakram@@8
rdata$r	SEGMENT DWORD USE32 PUBLIC 'CONST'
rdata$r	ENDS
;	COMDAT ??_R2MVampireCoupleRing@@8
rdata$r	SEGMENT DWORD USE32 PUBLIC 'CONST'
rdata$r	ENDS
;	COMDAT ??_R2MVampireRing@@8
rdata$r	SEGMENT DWORD USE32 PUBLIC 'CONST'
rdata$r	ENDS
;	COMDAT ??_R2MSkillBook@@8
rdata$r	SEGMENT DWORD USE32 PUBLIC 'CONST'
rdata$r	ENDS
;	COMDAT ??_R2IFileIO@@8
rdata$r	SEGMENT DWORD USE32 PUBLIC 'CONST'
rdata$r	ENDS
;	COMDAT ??_R2MEffectItem@@8
rdata$r	SEGMENT DWORD USE32 PUBLIC 'CONST'
rdata$r	ENDS
;	COMDAT ??_R2MWarItem@@8
rdata$r	SEGMENT DWORD USE32 PUBLIC 'CONST'
rdata$r	ENDS
;	COMDAT ??_R2MMagazine@@8
rdata$r	SEGMENT DWORD USE32 PUBLIC 'CONST'
rdata$r	ENDS
;	COMDAT ??_R2MOustersPupa@@8
rdata$r	SEGMENT DWORD USE32 PUBLIC 'CONST'
rdata$r	ENDS
;	COMDAT ??_R2MBelt@@8
rdata$r	SEGMENT DWORD USE32 PUBLIC 'CONST'
rdata$r	ENDS
;	COMDAT ??_R2MEventGiftBoxItem@@8
rdata$r	SEGMENT DWORD USE32 PUBLIC 'CONST'
rdata$r	ENDS
;	COMDAT ??_R2MOustersPendent@@8
rdata$r	SEGMENT DWORD USE32 PUBLIC 'CONST'
rdata$r	ENDS
;	COMDAT ??_R2MOustersWingItem@@8
rdata$r	SEGMENT DWORD USE32 PUBLIC 'CONST'
rdata$r	ENDS
;	COMDAT ??_R2MDyePotionItem@@8
rdata$r	SEGMENT DWORD USE32 PUBLIC 'CONST'
rdata$r	ENDS
;	COMDAT ??_R2MBomb@@8
rdata$r	SEGMENT DWORD USE32 PUBLIC 'CONST'
rdata$r	ENDS
;	COMDAT ??_R2MPetFood@@8
rdata$r	SEGMENT DWORD USE32 PUBLIC 'CONST'
rdata$r	ENDS
;	COMDAT ??_R2MMixingItem@@8
rdata$r	SEGMENT DWORD USE32 PUBLIC 'CONST'
rdata$r	ENDS
;	COMDAT ??_R2MNecklace@@8
rdata$r	SEGMENT DWORD USE32 PUBLIC 'CONST'
rdata$r	ENDS
;	COMDAT ??_R2MVampireNecklace@@8
rdata$r	SEGMENT DWORD USE32 PUBLIC 'CONST'
rdata$r	ENDS
;	COMDAT ??_R2MGlove@@8
rdata$r	SEGMENT DWORD USE32 PUBLIC 'CONST'
rdata$r	ENDS
;	COMDAT ??_R2MVampireAmulet@@8
rdata$r	SEGMENT DWORD USE32 PUBLIC 'CONST'
rdata$r	ENDS
;	COMDAT ??_R2MShoulderArmor@@8
rdata$r	SEGMENT DWORD USE32 PUBLIC 'CONST'
rdata$r	ENDS
;	COMDAT ??_R2MShield@@8
rdata$r	SEGMENT DWORD USE32 PUBLIC 'CONST'
rdata$r	ENDS
;	COMDAT ??_R2MGunAR@@8
rdata$r	SEGMENT DWORD USE32 PUBLIC 'CONST'
rdata$r	ENDS
;	COMDAT ??_R2MOustersWristlet@@8
rdata$r	SEGMENT DWORD USE32 PUBLIC 'CONST'
rdata$r	ENDS
;	COMDAT ??_R2MShoes@@8
rdata$r	SEGMENT DWORD USE32 PUBLIC 'CONST'
rdata$r	ENDS
;	COMDAT ??_R2MUsePotionItem@@8
rdata$r	SEGMENT DWORD USE32 PUBLIC 'CONST'
rdata$r	ENDS
;	COMDAT ??_R2MGunSG@@8
rdata$r	SEGMENT DWORD USE32 PUBLIC 'CONST'
rdata$r	ENDS
;	COMDAT ??_R2MCommonQuestItem@@8
rdata$r	SEGMENT DWORD USE32 PUBLIC 'CONST'
rdata$r	ENDS
;	COMDAT ??_R2MTuningItemOusters@@8
rdata$r	SEGMENT DWORD USE32 PUBLIC 'CONST'
rdata$r	ENDS
;	COMDAT ??_R2MSerum@@8
rdata$r	SEGMENT DWORD USE32 PUBLIC 'CONST'
rdata$r	ENDS
;	COMDAT ??_R2MFascia@@8
rdata$r	SEGMENT DWORD USE32 PUBLIC 'CONST'
rdata$r	ENDS
;	COMDAT ??_R2ovfstream@@8
rdata$r	SEGMENT DWORD USE32 PUBLIC 'CONST'
rdata$r	ENDS
;	COMDAT ??_R2MEventEtcItem@@8
rdata$r	SEGMENT DWORD USE32 PUBLIC 'CONST'
rdata$r	ENDS
;	COMDAT ??_R2MObject@@8
rdata$r	SEGMENT DWORD USE32 PUBLIC 'CONST'
rdata$r	ENDS
;	COMDAT ??_R2MMotorcycle@@8
rdata$r	SEGMENT DWORD USE32 PUBLIC 'CONST'
rdata$r	ENDS
;	COMDAT ??_R2MCheckMoney@@8
rdata$r	SEGMENT DWORD USE32 PUBLIC 'CONST'
rdata$r	ENDS
;	COMDAT ??_R2MCoreZap@@8
rdata$r	SEGMENT DWORD USE32 PUBLIC 'CONST'
rdata$r	ENDS
;	COMDAT ??_R2MBombMaterial@@8
rdata$r	SEGMENT DWORD USE32 PUBLIC 'CONST'
rdata$r	ENDS
;	COMDAT ??_R2MSweeperItem@@8
rdata$r	SEGMENT DWORD USE32 PUBLIC 'CONST'
rdata$r	ENDS
;	COMDAT ??_R2MPotion@@8
rdata$r	SEGMENT DWORD USE32 PUBLIC 'CONST'
rdata$r	ENDS
;	COMDAT ??_R2MContractOfBlood@@8
rdata$r	SEGMENT DWORD USE32 PUBLIC 'CONST'
rdata$r	ENDS
;	COMDAT ??_R2MCoupleRing@@8
rdata$r	SEGMENT DWORD USE32 PUBLIC 'CONST'
rdata$r	ENDS
;	COMDAT ??_R2ivfstream@@8
rdata$r	SEGMENT DWORD USE32 PUBLIC 'CONST'
rdata$r	ENDS
;	COMDAT ??_R2MOustersBoots@@8
rdata$r	SEGMENT DWORD USE32 PUBLIC 'CONST'
rdata$r	ENDS
;	COMDAT ??_R2MAccessoryItem@@8
rdata$r	SEGMENT DWORD USE32 PUBLIC 'CONST'
rdata$r	ENDS
;	COMDAT ??_R2MOustersLarva@@8
rdata$r	SEGMENT DWORD USE32 PUBLIC 'CONST'
rdata$r	ENDS
;	COMDAT ??_R2MHolyWater@@8
rdata$r	SEGMENT DWORD USE32 PUBLIC 'CONST'
rdata$r	ENDS
;	COMDAT ??_R2MOustersSummonGem@@8
rdata$r	SEGMENT DWORD USE32 PUBLIC 'CONST'
rdata$r	ENDS
;	COMDAT ??_R2MEventItem@@8
rdata$r	SEGMENT DWORD USE32 PUBLIC 'CONST'
rdata$r	ENDS
;	COMDAT ??_R2MMoney@@8
rdata$r	SEGMENT DWORD USE32 PUBLIC 'CONST'
rdata$r	ENDS
;	COMDAT ??_R2MResurrectItem@@8
rdata$r	SEGMENT DWORD USE32 PUBLIC 'CONST'
rdata$r	ENDS
;	COMDAT ??_R2MVampireWingItem@@8
rdata$r	SEGMENT DWORD USE32 PUBLIC 'CONST'
rdata$r	ENDS
;	COMDAT ??_R2MBloodBibleSign@@8
rdata$r	SEGMENT DWORD USE32 PUBLIC 'CONST'
rdata$r	ENDS
;	COMDAT ??_R2MMine@@8
rdata$r	SEGMENT DWORD USE32 PUBLIC 'CONST'
rdata$r	ENDS
;	COMDAT ??_R2MOustersCoat@@8
rdata$r	SEGMENT DWORD USE32 PUBLIC 'CONST'
rdata$r	ENDS
;	COMDAT ??_R1A@?0A@A@MBracelet@@8
rdata$r	SEGMENT DWORD USE32 PUBLIC 'CONST'
rdata$r	ENDS
;	COMDAT ??_R1A@?0A@A@MVampireBracelet@@8
rdata$r	SEGMENT DWORD USE32 PUBLIC 'CONST'
rdata$r	ENDS
;	COMDAT ??_R1A@?0A@A@MOustersStone@@8
rdata$r	SEGMENT DWORD USE32 PUBLIC 'CONST'
rdata$r	ENDS
;	COMDAT ??_R1A@?0A@A@MMace@@8
rdata$r	SEGMENT DWORD USE32 PUBLIC 'CONST'
rdata$r	ENDS
;	COMDAT ??_R1A@?0A@A@MVampireWeapon@@8
rdata$r	SEGMENT DWORD USE32 PUBLIC 'CONST'
rdata$r	ENDS
;	COMDAT ??_R1A@?0A@A@MTrouser@@8
rdata$r	SEGMENT DWORD USE32 PUBLIC 'CONST'
rdata$r	ENDS
;	COMDAT ??_R1A@?0A@A@MLuckyBag@@8
rdata$r	SEGMENT DWORD USE32 PUBLIC 'CONST'
rdata$r	ENDS
;	COMDAT ??_R1A@?0A@A@MSkull@@8
rdata$r	SEGMENT DWORD USE32 PUBLIC 'CONST'
rdata$r	ENDS
;	COMDAT ??_R1A@?0A@A@MTuningItemVampire@@8
rdata$r	SEGMENT DWORD USE32 PUBLIC 'CONST'
rdata$r	ENDS
;	COMDAT ??_R1A@?0A@A@MPersona@@8
rdata$r	SEGMENT DWORD USE32 PUBLIC 'CONST'
rdata$r	ENDS
;	COMDAT ??_R1A@?0A@A@MEventTreeItem@@8
rdata$r	SEGMENT DWORD USE32 PUBLIC 'CONST'
rdata$r	ENDS
;	COMDAT ??_R1A@?0A@A@MItemETC@@8
rdata$r	SEGMENT DWORD USE32 PUBLIC 'CONST'
rdata$r	ENDS
;	COMDAT ??_R1A@?0A@A@MOustersHarmonicPendent@@8
rdata$r	SEGMENT DWORD USE32 PUBLIC 'CONST'
rdata$r	ENDS
;	COMDAT ??_R1A@?0A@A@MSlayerPortalItem@@8
rdata$r	SEGMENT DWORD USE32 PUBLIC 'CONST'
rdata$r	ENDS
;	COMDAT ??_R1A@?0A@A@MSubInventory@@8
rdata$r	SEGMENT DWORD USE32 PUBLIC 'CONST'
rdata$r	ENDS
;	COMDAT ??_R1A@?0A@A@MRelic@@8
rdata$r	SEGMENT DWORD USE32 PUBLIC 'CONST'
rdata$r	ENDS
;	COMDAT ??_R1A@?0A@A@MSword@@8
rdata$r	SEGMENT DWORD USE32 PUBLIC 'CONST'
rdata$r	ENDS
;	COMDAT ??_R1A@?0A@A@MSms_item@@8
rdata$r	SEGMENT DWORD USE32 PUBLIC 'CONST'
rdata$r	ENDS
;	COMDAT ??_R1A@?0A@A@MMoonCardItem@@8
rdata$r	SEGMENT DWORD USE32 PUBLIC 'CONST'
rdata$r	ENDS
;	COMDAT ??_R1A@?0A@A@MCastleSymbol@@8
rdata$r	SEGMENT DWORD USE32 PUBLIC 'CONST'
rdata$r	ENDS
;	COMDAT ??_R1A@?0A@A@MCueOfAdam@@8
rdata$r	SEGMENT DWORD USE32 PUBLIC 'CONST'
rdata$r	ENDS
;	COMDAT ??_R1A@?0A@A@MTrapItem@@8
rdata$r	SEGMENT DWORD USE32 PUBLIC 'CONST'
rdata$r	ENDS
;	COMDAT ??_R1A@?0A@A@MOustersCirclet@@8
rdata$r	SEGMENT DWORD USE32 PUBLIC 'CONST'
rdata$r	ENDS
;	COMDAT ??_R1A@?0A@A@MVampireEarRing@@8
rdata$r	SEGMENT DWORD USE32 PUBLIC 'CONST'
rdata$r	ENDS
;	COMDAT ??_R1A@?0A@A@MOustersComposMei@@8
rdata$r	SEGMENT DWORD USE32 PUBLIC 'CONST'
rdata$r	ENDS
;	COMDAT ??_R1A@?0A@A@MOustersRing@@8
rdata$r	SEGMENT DWORD USE32 PUBLIC 'CONST'
rdata$r	ENDS
;	COMDAT ??_R1A@?0A@A@MEventStarItem@@8
rdata$r	SEGMENT DWORD USE32 PUBLIC 'CONST'
rdata$r	ENDS
;	COMDAT ??_R1A@?0A@A@MCarryingReceiver@@8
rdata$r	SEGMENT DWORD USE32 PUBLIC 'CONST'
rdata$r	ENDS
;	COMDAT ??_R1A@?0A@A@MCoat@@8
rdata$r	SEGMENT DWORD USE32 PUBLIC 'CONST'
rdata$r	ENDS
;	COMDAT ??_R1A@?0A@A@MPetEnchantItem@@8
rdata$r	SEGMENT DWORD USE32 PUBLIC 'CONST'
rdata$r	ENDS
;	COMDAT ??_R1A@?0A@A@MOustersArmsBand@@8
rdata$r	SEGMENT DWORD USE32 PUBLIC 'CONST'
rdata$r	ENDS
;	COMDAT ??_R1A@?0A@A@MTuningItemSlayer@@8
rdata$r	SEGMENT DWORD USE32 PUBLIC 'CONST'
rdata$r	ENDS
;	COMDAT ??_R1A@?0A@A@MVampireCoat@@8
rdata$r	SEGMENT DWORD USE32 PUBLIC 'CONST'
rdata$r	ENDS
;	COMDAT ??_R1A@?0A@A@MQuestItem@@8
rdata$r	SEGMENT DWORD USE32 PUBLIC 'CONST'
rdata$r	ENDS
;	COMDAT ??_R1A@?0A@A@MDermis@@8
rdata$r	SEGMENT DWORD USE32 PUBLIC 'CONST'
rdata$r	ENDS
;	COMDAT ??_R1A@?0A@A@MHelm@@8
rdata$r	SEGMENT DWORD USE32 PUBLIC 'CONST'
rdata$r	ENDS
;	COMDAT ??_R1A@?0A@A@MCross@@8
rdata$r	SEGMENT DWORD USE32 PUBLIC 'CONST'
rdata$r	ENDS
;	COMDAT ??_R1A@?0A@A@MGunTR@@8
rdata$r	SEGMENT DWORD USE32 PUBLIC 'CONST'
rdata$r	ENDS
;	COMDAT ??_R1A@?0A@A@MVampireETC@@8
rdata$r	SEGMENT DWORD USE32 PUBLIC 'CONST'
rdata$r	ENDS
;	COMDAT ??_R1A@?0A@A@MGunSMG@@8
rdata$r	SEGMENT DWORD USE32 PUBLIC 'CONST'
rdata$r	ENDS
;	COMDAT ??_R1A@?0A@A@MMitten@@8
rdata$r	SEGMENT DWORD USE32 PUBLIC 'CONST'
rdata$r	ENDS
;	COMDAT ??_R1A@?0A@A@MBlade@@8
rdata$r	SEGMENT DWORD USE32 PUBLIC 'CONST'
rdata$r	ENDS
;	COMDAT ??_R1A@?0A@A@MEtherealChain@@8
rdata$r	SEGMENT DWORD USE32 PUBLIC 'CONST'
rdata$r	ENDS
;	COMDAT ??_R1A@?0A@A@MRankGem@@8
rdata$r	SEGMENT DWORD USE32 PUBLIC 'CONST'
rdata$r	ENDS
;	COMDAT ??_R1A@?0A@A@MKey@@8
rdata$r	SEGMENT DWORD USE32 PUBLIC 'CONST'
rdata$r	ENDS
;	COMDAT ??_R1A@?0A@A@MCallNPCNPCCard@@8
rdata$r	SEGMENT DWORD USE32 PUBLIC 'CONST'
rdata$r	ENDS
;	COMDAT ??_R1A@?0A@A@MVampirePortalItem@@8
rdata$r	SEGMENT DWORD USE32 PUBLIC 'CONST'
rdata$r	ENDS
;	COMDAT ??_R1A@?0A@A@MBloodBible@@8
rdata$r	SEGMENT DWORD USE32 PUBLIC 'CONST'
rdata$r	ENDS
;	COMDAT ??_R1A@?0A@A@MCodeSheetItem@@8
rdata$r	SEGMENT DWORD USE32 PUBLIC 'CONST'
rdata$r	ENDS
;	COMDAT ??_R1A@?0A@A@MGQuestItem@@8
rdata$r	SEGMENT DWORD USE32 PUBLIC 'CONST'
rdata$r	ENDS
;	COMDAT ??_R1A@A@3A@ios_base@_STL@@8
rdata$r	SEGMENT DWORD USE32 PUBLIC 'CONST'
rdata$r	ENDS
;	COMDAT ??_R0?AVios_base@_STL@@@8
_DATA	SEGMENT DWORD USE32 PUBLIC 'DATA'
_DATA	ENDS
;	COMDAT ??_R1A@A@3BA@?$basic_ios@DV?$char_traits@D@_STL@@@_STL@@8
rdata$r	SEGMENT DWORD USE32 PUBLIC 'CONST'
rdata$r	ENDS
;	COMDAT ??_R0?AV?$basic_ios@DV?$char_traits@D@_STL@@@_STL@@@8
_DATA	SEGMENT DWORD USE32 PUBLIC 'DATA'
_DATA	ENDS
;	COMDAT ??_R1A@?0A@A@?$basic_ostream@DV?$char_traits@D@_STL@@@_STL@@8
rdata$r	SEGMENT DWORD USE32 PUBLIC 'CONST'
rdata$r	ENDS
;	COMDAT ??_R0?AV?$basic_ostream@DV?$char_traits@D@_STL@@@_STL@@@8
_DATA	SEGMENT DWORD USE32 PUBLIC 'DATA'
_DATA	ENDS
;	COMDAT ??_R1A@?0A@A@?$basic_ofstream@DV?$char_traits@D@_STL@@@_STL@@8
rdata$r	SEGMENT DWORD USE32 PUBLIC 'CONST'
rdata$r	ENDS
;	COMDAT ??_R1A@?0A@A@MWater@@8
rdata$r	SEGMENT DWORD USE32 PUBLIC 'CONST'
rdata$r	ENDS
;	COMDAT ??_R1A@?0A@A@MLearningItem@@8
rdata$r	SEGMENT DWORD USE32 PUBLIC 'CONST'
rdata$r	ENDS
;	COMDAT ??_R1A@?0A@A@MPetItem@@8
rdata$r	SEGMENT DWORD USE32 PUBLIC 'CONST'
rdata$r	ENDS
;	COMDAT ??_R1A@?0A@A@MOustersChakram@@8
rdata$r	SEGMENT DWORD USE32 PUBLIC 'CONST'
rdata$r	ENDS
;	COMDAT ??_R1A@?0A@A@MVampireCoupleRing@@8
rdata$r	SEGMENT DWORD USE32 PUBLIC 'CONST'
rdata$r	ENDS
;	COMDAT ??_R1A@?0A@A@MVampireRing@@8
rdata$r	SEGMENT DWORD USE32 PUBLIC 'CONST'
rdata$r	ENDS
;	COMDAT ??_R1A@?0A@A@MSkillBook@@8
rdata$r	SEGMENT DWORD USE32 PUBLIC 'CONST'
rdata$r	ENDS
;	COMDAT ??_R1A@?0A@A@IFileIO@@8
rdata$r	SEGMENT DWORD USE32 PUBLIC 'CONST'
rdata$r	ENDS
;	COMDAT ??_R1A@?0A@A@MEffectItem@@8
rdata$r	SEGMENT DWORD USE32 PUBLIC 'CONST'
rdata$r	ENDS
;	COMDAT ??_R1A@?0A@A@MWarItem@@8
rdata$r	SEGMENT DWORD USE32 PUBLIC 'CONST'
rdata$r	ENDS
;	COMDAT ??_R1A@?0A@A@MMagazine@@8
rdata$r	SEGMENT DWORD USE32 PUBLIC 'CONST'
rdata$r	ENDS
;	COMDAT ??_R1A@?0A@A@MOustersPupa@@8
rdata$r	SEGMENT DWORD USE32 PUBLIC 'CONST'
rdata$r	ENDS
;	COMDAT ??_R1JA@?0A@A@MSlotItemManager@@8
rdata$r	SEGMENT DWORD USE32 PUBLIC 'CONST'
rdata$r	ENDS
;	COMDAT ??_R1A@?0A@A@MBelt@@8
rdata$r	SEGMENT DWORD USE32 PUBLIC 'CONST'
rdata$r	ENDS
;	COMDAT ??_R1A@?0A@A@MEventGiftBoxItem@@8
rdata$r	SEGMENT DWORD USE32 PUBLIC 'CONST'
rdata$r	ENDS
;	COMDAT ??_R1A@?0A@A@MOustersPendent@@8
rdata$r	SEGMENT DWORD USE32 PUBLIC 'CONST'
rdata$r	ENDS
;	COMDAT ??_R1A@?0A@A@MOustersWingItem@@8
rdata$r	SEGMENT DWORD USE32 PUBLIC 'CONST'
rdata$r	ENDS
;	COMDAT ??_R1A@?0A@A@MDyePotionItem@@8
rdata$r	SEGMENT DWORD USE32 PUBLIC 'CONST'
rdata$r	ENDS
;	COMDAT ??_R1A@?0A@A@MBomb@@8
rdata$r	SEGMENT DWORD USE32 PUBLIC 'CONST'
rdata$r	ENDS
;	COMDAT ??_R1A@?0A@A@MPetFood@@8
rdata$r	SEGMENT DWORD USE32 PUBLIC 'CONST'
rdata$r	ENDS
;	COMDAT ??_R1A@?0A@A@MMixingItem@@8
rdata$r	SEGMENT DWORD USE32 PUBLIC 'CONST'
rdata$r	ENDS
;	COMDAT ??_R1A@?0A@A@MNecklace@@8
rdata$r	SEGMENT DWORD USE32 PUBLIC 'CONST'
rdata$r	ENDS
;	COMDAT ??_R1A@?0A@A@MVampireNecklace@@8
rdata$r	SEGMENT DWORD USE32 PUBLIC 'CONST'
rdata$r	ENDS
;	COMDAT ??_R1A@?0A@A@MGlove@@8
rdata$r	SEGMENT DWORD USE32 PUBLIC 'CONST'
rdata$r	ENDS
;	COMDAT ??_R1A@?0A@A@MVampireAmulet@@8
rdata$r	SEGMENT DWORD USE32 PUBLIC 'CONST'
rdata$r	ENDS
;	COMDAT ??_R1A@?0A@A@MShoulderArmor@@8
rdata$r	SEGMENT DWORD USE32 PUBLIC 'CONST'
rdata$r	ENDS
;	COMDAT ??_R1A@?0A@A@MShield@@8
rdata$r	SEGMENT DWORD USE32 PUBLIC 'CONST'
rdata$r	ENDS
;	COMDAT ??_R1A@?0A@A@MGunAR@@8
rdata$r	SEGMENT DWORD USE32 PUBLIC 'CONST'
rdata$r	ENDS
;	COMDAT ??_R1A@?0A@A@MOustersWristlet@@8
rdata$r	SEGMENT DWORD USE32 PUBLIC 'CONST'
rdata$r	ENDS
;	COMDAT ??_R1A@?0A@A@MArmorItem2@@8
rdata$r	SEGMENT DWORD USE32 PUBLIC 'CONST'
rdata$r	ENDS
;	COMDAT ??_R1A@?0A@A@MShoes@@8
rdata$r	SEGMENT DWORD USE32 PUBLIC 'CONST'
rdata$r	ENDS
;	COMDAT ??_R1A@?0A@A@MWeaponItem@@8
rdata$r	SEGMENT DWORD USE32 PUBLIC 'CONST'
rdata$r	ENDS
;	COMDAT ??_R1A@?0A@A@MGunItem@@8
rdata$r	SEGMENT DWORD USE32 PUBLIC 'CONST'
rdata$r	ENDS
;	COMDAT ??_R1A@?0A@A@MGunSG@@8
rdata$r	SEGMENT DWORD USE32 PUBLIC 'CONST'
rdata$r	ENDS
;	COMDAT ??_R1A@?0A@A@MCommonQuestItem@@8
rdata$r	SEGMENT DWORD USE32 PUBLIC 'CONST'
rdata$r	ENDS
;	COMDAT ??_R1A@?0A@A@MTuningItemOusters@@8
rdata$r	SEGMENT DWORD USE32 PUBLIC 'CONST'
rdata$r	ENDS
;	COMDAT ??_R1A@?0A@A@MSerum@@8
rdata$r	SEGMENT DWORD USE32 PUBLIC 'CONST'
rdata$r	ENDS
;	COMDAT ??_R1A@?0A@A@MFascia@@8
rdata$r	SEGMENT DWORD USE32 PUBLIC 'CONST'
rdata$r	ENDS
;	COMDAT ??_R1A@?0A@A@ovfstream@@8
rdata$r	SEGMENT DWORD USE32 PUBLIC 'CONST'
rdata$r	ENDS
;	COMDAT ??_R1A@?0A@A@MEventEtcItem@@8
rdata$r	SEGMENT DWORD USE32 PUBLIC 'CONST'
rdata$r	ENDS
;	COMDAT ??_R1JA@?0A@A@MItemManager@@8
rdata$r	SEGMENT DWORD USE32 PUBLIC 'CONST'
rdata$r	ENDS
;	COMDAT ??_R1JA@?0A@A@MGridItemManager@@8
rdata$r	SEGMENT DWORD USE32 PUBLIC 'CONST'
rdata$r	ENDS
;	COMDAT ??_R1A@?0A@A@MMotorcycle@@8
rdata$r	SEGMENT DWORD USE32 PUBLIC 'CONST'
rdata$r	ENDS
;	COMDAT ??_R1A@?0A@A@MCheckMoney@@8
rdata$r	SEGMENT DWORD USE32 PUBLIC 'CONST'
rdata$r	ENDS
;	COMDAT ??_R1A@?0A@A@MCoreZap@@8
rdata$r	SEGMENT DWORD USE32 PUBLIC 'CONST'
rdata$r	ENDS
;	COMDAT ??_R1A@?0A@A@MBombMaterial@@8
rdata$r	SEGMENT DWORD USE32 PUBLIC 'CONST'
rdata$r	ENDS
;	COMDAT ??_R1A@?0A@A@MSweeperItem@@8
rdata$r	SEGMENT DWORD USE32 PUBLIC 'CONST'
rdata$r	ENDS
;	COMDAT ??_R1A@?0A@A@MUsePotionItem@@8
rdata$r	SEGMENT DWORD USE32 PUBLIC 'CONST'
rdata$r	ENDS
;	COMDAT ??_R1A@?0A@A@MPotion@@8
rdata$r	SEGMENT DWORD USE32 PUBLIC 'CONST'
rdata$r	ENDS
;	COMDAT ??_R1A@?0A@A@MContractOfBlood@@8
rdata$r	SEGMENT DWORD USE32 PUBLIC 'CONST'
rdata$r	ENDS
;	COMDAT ??_R1A@?0A@A@MRing@@8
rdata$r	SEGMENT DWORD USE32 PUBLIC 'CONST'
rdata$r	ENDS
;	COMDAT ??_R1A@?0A@A@MCoupleRing@@8
rdata$r	SEGMENT DWORD USE32 PUBLIC 'CONST'
rdata$r	ENDS
;	COMDAT ??_R1A@?0A@A@iovfs_base@@8
rdata$r	SEGMENT DWORD USE32 PUBLIC 'CONST'
rdata$r	ENDS
;	COMDAT ??_R1A@?0A@A@ivfstream@@8
rdata$r	SEGMENT DWORD USE32 PUBLIC 'CONST'
rdata$r	ENDS
;	COMDAT ??_R1A@?0A@A@MOustersBoots@@8
rdata$r	SEGMENT DWORD USE32 PUBLIC 'CONST'
rdata$r	ENDS
;	COMDAT ??_R1A@?0A@A@MAccessoryItem@@8
rdata$r	SEGMENT DWORD USE32 PUBLIC 'CONST'
rdata$r	ENDS
;	COMDAT ??_R1A@?0A@A@MOustersLarva@@8
rdata$r	SEGMENT DWORD USE32 PUBLIC 'CONST'
rdata$r	ENDS
;	COMDAT ??_R1A@?0A@A@MHolyWater@@8
rdata$r	SEGMENT DWORD USE32 PUBLIC 'CONST'
rdata$r	ENDS
;	COMDAT ??_R1A@?0A@A@MOustersSummonGem@@8
rdata$r	SEGMENT DWORD USE32 PUBLIC 'CONST'
rdata$r	ENDS
;	COMDAT ??_R1A@?0A@A@MEventItem@@8
rdata$r	SEGMENT DWORD USE32 PUBLIC 'CONST'
rdata$r	ENDS
;	COMDAT ??_R1A@?0A@A@MMoney@@8
rdata$r	SEGMENT DWORD USE32 PUBLIC 'CONST'
rdata$r	ENDS
;	COMDAT ??_R1A@?0A@A@MResurrectItem@@8
rdata$r	SEGMENT DWORD USE32 PUBLIC 'CONST'
rdata$r	ENDS
;	COMDAT ??_R1A@?0A@A@MVampireWingItem@@8
rdata$r	SEGMENT DWORD USE32 PUBLIC 'CONST'
rdata$r	ENDS
;	COMDAT ??_R1A@?0A@A@MBloodBibleSign@@8
rdata$r	SEGMENT DWORD USE32 PUBLIC 'CONST'
rdata$r	ENDS
;	COMDAT ??_R1A@?0A@A@MPileItem@@8
rdata$r	SEGMENT DWORD USE32 PUBLIC 'CONST'
rdata$r	ENDS
;	COMDAT ??_R1A@?0A@A@MMine@@8
rdata$r	SEGMENT DWORD USE32 PUBLIC 'CONST'
rdata$r	ENDS
;	COMDAT ??_R1CA@?0A@A@CAnimationFrame@@8
rdata$r	SEGMENT DWORD USE32 PUBLIC 'CONST'
rdata$r	ENDS
;	COMDAT ??_R1A@?0A@A@MObject@@8
rdata$r	SEGMENT DWORD USE32 PUBLIC 'CONST'
rdata$r	ENDS
;	COMDAT ??_R1A@?0A@A@MItem@@8
rdata$r	SEGMENT DWORD USE32 PUBLIC 'CONST'
rdata$r	ENDS
;	COMDAT ??_R1A@?0A@A@MGearItem@@8
rdata$r	SEGMENT DWORD USE32 PUBLIC 'CONST'
rdata$r	ENDS
;	COMDAT ??_R1A@?0A@A@MArmorItem@@8
rdata$r	SEGMENT DWORD USE32 PUBLIC 'CONST'
rdata$r	ENDS
;	COMDAT ??_R1A@?0A@A@MOustersCoat@@8
rdata$r	SEGMENT DWORD USE32 PUBLIC 'CONST'
rdata$r	ENDS
;	COMDAT ??_R0?AVMBracelet@@@8
_DATA	SEGMENT DWORD USE32 PUBLIC 'DATA'
_DATA	ENDS
;	COMDAT ??_R0?AVMVampireBracelet@@@8
_DATA	SEGMENT DWORD USE32 PUBLIC 'DATA'
_DATA	ENDS
;	COMDAT ??_R0?AVMOustersStone@@@8
_DATA	SEGMENT DWORD USE32 PUBLIC 'DATA'
_DATA	ENDS
;	COMDAT ??_R0?AVMMace@@@8
_DATA	SEGMENT DWORD USE32 PUBLIC 'DATA'
_DATA	ENDS
;	COMDAT ??_R0?AVMVampireWeapon@@@8
_DATA	SEGMENT DWORD USE32 PUBLIC 'DATA'
_DATA	ENDS
;	COMDAT ??_R0?AVMTrouser@@@8
_DATA	SEGMENT DWORD USE32 PUBLIC 'DATA'
_DATA	ENDS
;	COMDAT ??_R0?AVMLuckyBag@@@8
_DATA	SEGMENT DWORD USE32 PUBLIC 'DATA'
_DATA	ENDS
;	COMDAT ??_R0?AVMSkull@@@8
_DATA	SEGMENT DWORD USE32 PUBLIC 'DATA'
_DATA	ENDS
;	COMDAT ??_R0?AVMTuningItemVampire@@@8
_DATA	SEGMENT DWORD USE32 PUBLIC 'DATA'
_DATA	ENDS
;	COMDAT ??_R0?AVMPersona@@@8
_DATA	SEGMENT DWORD USE32 PUBLIC 'DATA'
_DATA	ENDS
;	COMDAT ??_R0?AVMEventTreeItem@@@8
_DATA	SEGMENT DWORD USE32 PUBLIC 'DATA'
_DATA	ENDS
;	COMDAT ??_R0?AVMItemETC@@@8
_DATA	SEGMENT DWORD USE32 PUBLIC 'DATA'
_DATA	ENDS
;	COMDAT ??_R0?AVMOustersHarmonicPendent@@@8
_DATA	SEGMENT DWORD USE32 PUBLIC 'DATA'
_DATA	ENDS
;	COMDAT ??_R0?AVMSlayerPortalItem@@@8
_DATA	SEGMENT DWORD USE32 PUBLIC 'DATA'
_DATA	ENDS
;	COMDAT ??_R0?AVMSubInventory@@@8
_DATA	SEGMENT DWORD USE32 PUBLIC 'DATA'
_DATA	ENDS
;	COMDAT ??_R0?AVMRelic@@@8
_DATA	SEGMENT DWORD USE32 PUBLIC 'DATA'
_DATA	ENDS
;	COMDAT ??_R0?AVMSword@@@8
_DATA	SEGMENT DWORD USE32 PUBLIC 'DATA'
_DATA	ENDS
;	COMDAT ??_R0?AVMSms_item@@@8
_DATA	SEGMENT DWORD USE32 PUBLIC 'DATA'
_DATA	ENDS
;	COMDAT ??_R0?AVMMoonCardItem@@@8
_DATA	SEGMENT DWORD USE32 PUBLIC 'DATA'
_DATA	ENDS
;	COMDAT ??_R0?AVMCastleSymbol@@@8
_DATA	SEGMENT DWORD USE32 PUBLIC 'DATA'
_DATA	ENDS
;	COMDAT ??_R0?AVMCueOfAdam@@@8
_DATA	SEGMENT DWORD USE32 PUBLIC 'DATA'
_DATA	ENDS
;	COMDAT ??_R0?AVMTrapItem@@@8
_DATA	SEGMENT DWORD USE32 PUBLIC 'DATA'
_DATA	ENDS
;	COMDAT ??_R0?AVMOustersCirclet@@@8
_DATA	SEGMENT DWORD USE32 PUBLIC 'DATA'
_DATA	ENDS
;	COMDAT ??_R0?AVMVampireEarRing@@@8
_DATA	SEGMENT DWORD USE32 PUBLIC 'DATA'
_DATA	ENDS
;	COMDAT ??_R0?AVMOustersComposMei@@@8
_DATA	SEGMENT DWORD USE32 PUBLIC 'DATA'
_DATA	ENDS
;	COMDAT ??_R0?AVMOustersRing@@@8
_DATA	SEGMENT DWORD USE32 PUBLIC 'DATA'
_DATA	ENDS
;	COMDAT ??_R0?AVMEventStarItem@@@8
_DATA	SEGMENT DWORD USE32 PUBLIC 'DATA'
_DATA	ENDS
;	COMDAT ??_R0?AVMCarryingReceiver@@@8
_DATA	SEGMENT DWORD USE32 PUBLIC 'DATA'
_DATA	ENDS
;	COMDAT ??_R0?AVMCoat@@@8
_DATA	SEGMENT DWORD USE32 PUBLIC 'DATA'
_DATA	ENDS
;	COMDAT ??_R0?AVMPetEnchantItem@@@8
_DATA	SEGMENT DWORD USE32 PUBLIC 'DATA'
_DATA	ENDS
;	COMDAT ??_R0?AVMOustersArmsBand@@@8
_DATA	SEGMENT DWORD USE32 PUBLIC 'DATA'
_DATA	ENDS
;	COMDAT ??_R0?AVMTuningItemSlayer@@@8
_DATA	SEGMENT DWORD USE32 PUBLIC 'DATA'
_DATA	ENDS
;	COMDAT ??_R0?AVMVampireCoat@@@8
_DATA	SEGMENT DWORD USE32 PUBLIC 'DATA'
_DATA	ENDS
;	COMDAT ??_R0?AVMQuestItem@@@8
_DATA	SEGMENT DWORD USE32 PUBLIC 'DATA'
_DATA	ENDS
;	COMDAT ??_R0?AVMDermis@@@8
_DATA	SEGMENT DWORD USE32 PUBLIC 'DATA'
_DATA	ENDS
;	COMDAT ??_R0?AVMHelm@@@8
_DATA	SEGMENT DWORD USE32 PUBLIC 'DATA'
_DATA	ENDS
;	COMDAT ??_R0?AVMCross@@@8
_DATA	SEGMENT DWORD USE32 PUBLIC 'DATA'
_DATA	ENDS
;	COMDAT ??_R0?AVMGunTR@@@8
_DATA	SEGMENT DWORD USE32 PUBLIC 'DATA'
_DATA	ENDS
;	COMDAT ??_R0?AVMVampireETC@@@8
_DATA	SEGMENT DWORD USE32 PUBLIC 'DATA'
_DATA	ENDS
;	COMDAT ??_R0?AVMGunSMG@@@8
_DATA	SEGMENT DWORD USE32 PUBLIC 'DATA'
_DATA	ENDS
;	COMDAT ??_R0?AVMMitten@@@8
_DATA	SEGMENT DWORD USE32 PUBLIC 'DATA'
_DATA	ENDS
;	COMDAT ??_R0?AVMBlade@@@8
_DATA	SEGMENT DWORD USE32 PUBLIC 'DATA'
_DATA	ENDS
;	COMDAT ??_R0?AVMEtherealChain@@@8
_DATA	SEGMENT DWORD USE32 PUBLIC 'DATA'
_DATA	ENDS
;	COMDAT ??_R0?AVMRankGem@@@8
_DATA	SEGMENT DWORD USE32 PUBLIC 'DATA'
_DATA	ENDS
;	COMDAT ??_R0?AVMKey@@@8
_DATA	SEGMENT DWORD USE32 PUBLIC 'DATA'
_DATA	ENDS
;	COMDAT ??_R0?AVMCallNPCNPCCard@@@8
_DATA	SEGMENT DWORD USE32 PUBLIC 'DATA'
_DATA	ENDS
;	COMDAT ??_R0?AVMVampirePortalItem@@@8
_DATA	SEGMENT DWORD USE32 PUBLIC 'DATA'
_DATA	ENDS
;	COMDAT ??_R0?AVMBloodBible@@@8
_DATA	SEGMENT DWORD USE32 PUBLIC 'DATA'
_DATA	ENDS
;	COMDAT ??_R0?AVMCodeSheetItem@@@8
_DATA	SEGMENT DWORD USE32 PUBLIC 'DATA'
_DATA	ENDS
;	COMDAT ??_R0?AVMGQuestItem@@@8
_DATA	SEGMENT DWORD USE32 PUBLIC 'DATA'
_DATA	ENDS
;	COMDAT ??_R0?AV?$basic_ofstream@DV?$char_traits@D@_STL@@@_STL@@@8
_DATA	SEGMENT DWORD USE32 PUBLIC 'DATA'
_DATA	ENDS
;	COMDAT ??_R0?AVMWater@@@8
_DATA	SEGMENT DWORD USE32 PUBLIC 'DATA'
_DATA	ENDS
;	COMDAT ??_R0?AVMLearningItem@@@8
_DATA	SEGMENT DWORD USE32 PUBLIC 'DATA'
_DATA	ENDS
;	COMDAT ??_R0?AVMPetItem@@@8
_DATA	SEGMENT DWORD USE32 PUBLIC 'DATA'
_DATA	ENDS
;	COMDAT ??_R0?AVMOustersChakram@@@8
_DATA	SEGMENT DWORD USE32 PUBLIC 'DATA'
_DATA	ENDS
;	COMDAT ??_R0?AVMVampireCoupleRing@@@8
_DATA	SEGMENT DWORD USE32 PUBLIC 'DATA'
_DATA	ENDS
;	COMDAT ??_R0?AVMVampireRing@@@8
_DATA	SEGMENT DWORD USE32 PUBLIC 'DATA'
_DATA	ENDS
;	COMDAT ??_R0?AVMSkillBook@@@8
_DATA	SEGMENT DWORD USE32 PUBLIC 'DATA'
_DATA	ENDS
;	COMDAT ??_R0?AVIFileIO@@@8
_DATA	SEGMENT DWORD USE32 PUBLIC 'DATA'
_DATA	ENDS
;	COMDAT ??_R0?AVMEffectItem@@@8
_DATA	SEGMENT DWORD USE32 PUBLIC 'DATA'
_DATA	ENDS
;	COMDAT ??_R0?AVMWarItem@@@8
_DATA	SEGMENT DWORD USE32 PUBLIC 'DATA'
_DATA	ENDS
;	COMDAT ??_R0?AVMMagazine@@@8
_DATA	SEGMENT DWORD USE32 PUBLIC 'DATA'
_DATA	ENDS
;	COMDAT ??_R0?AVMOustersPupa@@@8
_DATA	SEGMENT DWORD USE32 PUBLIC 'DATA'
_DATA	ENDS
;	COMDAT ??_R0?AVMSlotItemManager@@@8
_DATA	SEGMENT DWORD USE32 PUBLIC 'DATA'
_DATA	ENDS
;	COMDAT ??_R0?AVMBelt@@@8
_DATA	SEGMENT DWORD USE32 PUBLIC 'DATA'
_DATA	ENDS
;	COMDAT ??_R0?AVMEventGiftBoxItem@@@8
_DATA	SEGMENT DWORD USE32 PUBLIC 'DATA'
_DATA	ENDS
;	COMDAT ??_R0?AVMOustersPendent@@@8
_DATA	SEGMENT DWORD USE32 PUBLIC 'DATA'
_DATA	ENDS
;	COMDAT ??_R0?AVMOustersWingItem@@@8
_DATA	SEGMENT DWORD USE32 PUBLIC 'DATA'
_DATA	ENDS
;	COMDAT ??_R0?AVMDyePotionItem@@@8
_DATA	SEGMENT DWORD USE32 PUBLIC 'DATA'
_DATA	ENDS
;	COMDAT ??_R0?AVMBomb@@@8
_DATA	SEGMENT DWORD USE32 PUBLIC 'DATA'
_DATA	ENDS
;	COMDAT ??_R0?AVMPetFood@@@8
_DATA	SEGMENT DWORD USE32 PUBLIC 'DATA'
_DATA	ENDS
;	COMDAT ??_R0?AVMMixingItem@@@8
_DATA	SEGMENT DWORD USE32 PUBLIC 'DATA'
_DATA	ENDS
;	COMDAT ??_R0?AVMNecklace@@@8
_DATA	SEGMENT DWORD USE32 PUBLIC 'DATA'
_DATA	ENDS
;	COMDAT ??_R0?AVMVampireNecklace@@@8
_DATA	SEGMENT DWORD USE32 PUBLIC 'DATA'
_DATA	ENDS
;	COMDAT ??_R0?AVMGlove@@@8
_DATA	SEGMENT DWORD USE32 PUBLIC 'DATA'
_DATA	ENDS
;	COMDAT ??_R0?AVMVampireAmulet@@@8
_DATA	SEGMENT DWORD USE32 PUBLIC 'DATA'
_DATA	ENDS
;	COMDAT ??_R0?AVMShoulderArmor@@@8
_DATA	SEGMENT DWORD USE32 PUBLIC 'DATA'
_DATA	ENDS
;	COMDAT ??_R0?AVMShield@@@8
_DATA	SEGMENT DWORD USE32 PUBLIC 'DATA'
_DATA	ENDS
;	COMDAT ??_R0?AVMGunAR@@@8
_DATA	SEGMENT DWORD USE32 PUBLIC 'DATA'
_DATA	ENDS
;	COMDAT ??_R0?AVMOustersWristlet@@@8
_DATA	SEGMENT DWORD USE32 PUBLIC 'DATA'
_DATA	ENDS
;	COMDAT ??_R0?AVMArmorItem2@@@8
_DATA	SEGMENT DWORD USE32 PUBLIC 'DATA'
_DATA	ENDS
;	COMDAT ??_R0?AVMShoes@@@8
_DATA	SEGMENT DWORD USE32 PUBLIC 'DATA'
_DATA	ENDS
;	COMDAT ??_R0?AVMWeaponItem@@@8
_DATA	SEGMENT DWORD USE32 PUBLIC 'DATA'
_DATA	ENDS
;	COMDAT ??_R0?AVMGunItem@@@8
_DATA	SEGMENT DWORD USE32 PUBLIC 'DATA'
_DATA	ENDS
;	COMDAT ??_R0?AVMGunSG@@@8
_DATA	SEGMENT DWORD USE32 PUBLIC 'DATA'
_DATA	ENDS
;	COMDAT ??_R0?AVMCommonQuestItem@@@8
_DATA	SEGMENT DWORD USE32 PUBLIC 'DATA'
_DATA	ENDS
;	COMDAT ??_R0?AVMTuningItemOusters@@@8
_DATA	SEGMENT DWORD USE32 PUBLIC 'DATA'
_DATA	ENDS
;	COMDAT ??_R0?AVMSerum@@@8
_DATA	SEGMENT DWORD USE32 PUBLIC 'DATA'
_DATA	ENDS
;	COMDAT ??_R0?AVMFascia@@@8
_DATA	SEGMENT DWORD USE32 PUBLIC 'DATA'
_DATA	ENDS
;	COMDAT ??_R0?AVovfstream@@@8
_DATA	SEGMENT DWORD USE32 PUBLIC 'DATA'
_DATA	ENDS
;	COMDAT ??_R0?AVMEventEtcItem@@@8
_DATA	SEGMENT DWORD USE32 PUBLIC 'DATA'
_DATA	ENDS
;	COMDAT ??_R0?AVMItemManager@@@8
_DATA	SEGMENT DWORD USE32 PUBLIC 'DATA'
_DATA	ENDS
;	COMDAT ??_R0?AVMGridItemManager@@@8
_DATA	SEGMENT DWORD USE32 PUBLIC 'DATA'
_DATA	ENDS
;	COMDAT ??_R0?AVMMotorcycle@@@8
_DATA	SEGMENT DWORD USE32 PUBLIC 'DATA'
_DATA	ENDS
;	COMDAT ??_R0?AVMCheckMoney@@@8
_DATA	SEGMENT DWORD USE32 PUBLIC 'DATA'
_DATA	ENDS
;	COMDAT ??_R0?AVMCoreZap@@@8
_DATA	SEGMENT DWORD USE32 PUBLIC 'DATA'
_DATA	ENDS
;	COMDAT ??_R0?AVMBombMaterial@@@8
_DATA	SEGMENT DWORD USE32 PUBLIC 'DATA'
_DATA	ENDS
;	COMDAT ??_R0?AVMSweeperItem@@@8
_DATA	SEGMENT DWORD USE32 PUBLIC 'DATA'
_DATA	ENDS
;	COMDAT ??_R0?AVMUsePotionItem@@@8
_DATA	SEGMENT DWORD USE32 PUBLIC 'DATA'
_DATA	ENDS
;	COMDAT ??_R0?AVMPotion@@@8
_DATA	SEGMENT DWORD USE32 PUBLIC 'DATA'
_DATA	ENDS
;	COMDAT ??_R0?AVMContractOfBlood@@@8
_DATA	SEGMENT DWORD USE32 PUBLIC 'DATA'
_DATA	ENDS
;	COMDAT ??_R0?AVMRing@@@8
_DATA	SEGMENT DWORD USE32 PUBLIC 'DATA'
_DATA	ENDS
;	COMDAT ??_R0?AVMCoupleRing@@@8
_DATA	SEGMENT DWORD USE32 PUBLIC 'DATA'
_DATA	ENDS
;	COMDAT ??_R0?AViovfs_base@@@8
_DATA	SEGMENT DWORD USE32 PUBLIC 'DATA'
_DATA	ENDS
;	COMDAT ??_R0?AVivfstream@@@8
_DATA	SEGMENT DWORD USE32 PUBLIC 'DATA'
_DATA	ENDS
;	COMDAT ??_R0?AVMOustersBoots@@@8
_DATA	SEGMENT DWORD USE32 PUBLIC 'DATA'
_DATA	ENDS
;	COMDAT ??_R0?AVMAccessoryItem@@@8
_DATA	SEGMENT DWORD USE32 PUBLIC 'DATA'
_DATA	ENDS
;	COMDAT ??_R0?AVMOustersLarva@@@8
_DATA	SEGMENT DWORD USE32 PUBLIC 'DATA'
_DATA	ENDS
;	COMDAT ??_R0?AVMHolyWater@@@8
_DATA	SEGMENT DWORD USE32 PUBLIC 'DATA'
_DATA	ENDS
;	COMDAT ??_R0?AVMOustersSummonGem@@@8
_DATA	SEGMENT DWORD USE32 PUBLIC 'DATA'
_DATA	ENDS
;	COMDAT ??_R0?AVMEventItem@@@8
_DATA	SEGMENT DWORD USE32 PUBLIC 'DATA'
_DATA	ENDS
;	COMDAT ??_R0?AVMMoney@@@8
_DATA	SEGMENT DWORD USE32 PUBLIC 'DATA'
_DATA	ENDS
;	COMDAT ??_R0?AVMResurrectItem@@@8
_DATA	SEGMENT DWORD USE32 PUBLIC 'DATA'
_DATA	ENDS
;	COMDAT ??_R0?AVMVampireWingItem@@@8
_DATA	SEGMENT DWORD USE32 PUBLIC 'DATA'
_DATA	ENDS
;	COMDAT ??_R0?AVMBloodBibleSign@@@8
_DATA	SEGMENT DWORD USE32 PUBLIC 'DATA'
_DATA	ENDS
;	COMDAT ??_R0?AVMPileItem@@@8
_DATA	SEGMENT DWORD USE32 PUBLIC 'DATA'
_DATA	ENDS
;	COMDAT ??_R0?AVMMine@@@8
_DATA	SEGMENT DWORD USE32 PUBLIC 'DATA'
_DATA	ENDS
;	COMDAT ??_R0?AVCAnimationFrame@@@8
_DATA	SEGMENT DWORD USE32 PUBLIC 'DATA'
_DATA	ENDS
;	COMDAT ??_R0?AVMObject@@@8
_DATA	SEGMENT DWORD USE32 PUBLIC 'DATA'
_DATA	ENDS
;	COMDAT ??_R0?AVMItem@@@8
_DATA	SEGMENT DWORD USE32 PUBLIC 'DATA'
_DATA	ENDS
;	COMDAT ??_R0?AVMGearItem@@@8
_DATA	SEGMENT DWORD USE32 PUBLIC 'DATA'
_DATA	ENDS
;	COMDAT ??_R0?AVMArmorItem@@@8
_DATA	SEGMENT DWORD USE32 PUBLIC 'DATA'
_DATA	ENDS
;	COMDAT ??_R0?AVMOustersCoat@@@8
_DATA	SEGMENT DWORD USE32 PUBLIC 'DATA'
_DATA	ENDS
;	COMDAT ??_R4MBracelet@@6B@
rdata$r	SEGMENT DWORD USE32 PUBLIC 'CONST'
rdata$r	ENDS
;	COMDAT ??_R4MVampireBracelet@@6B@
rdata$r	SEGMENT DWORD USE32 PUBLIC 'CONST'
rdata$r	ENDS
;	COMDAT ??_R4MPileItem@@6B@
rdata$r	SEGMENT DWORD USE32 PUBLIC 'CONST'
rdata$r	ENDS
;	COMDAT ??_R4MOustersStone@@6B@
rdata$r	SEGMENT DWORD USE32 PUBLIC 'CONST'
rdata$r	ENDS
;	COMDAT ??_R4MMace@@6B@
rdata$r	SEGMENT DWORD USE32 PUBLIC 'CONST'
rdata$r	ENDS
;	COMDAT ??_R4MVampireWeapon@@6B@
rdata$r	SEGMENT DWORD USE32 PUBLIC 'CONST'
rdata$r	ENDS
;	COMDAT ??_R4MTrouser@@6B@
rdata$r	SEGMENT DWORD USE32 PUBLIC 'CONST'
rdata$r	ENDS
;	COMDAT ??_R4MLuckyBag@@6B@
rdata$r	SEGMENT DWORD USE32 PUBLIC 'CONST'
rdata$r	ENDS
;	COMDAT ??_R4MSkull@@6B@
rdata$r	SEGMENT DWORD USE32 PUBLIC 'CONST'
rdata$r	ENDS
;	COMDAT ??_R4MTuningItemVampire@@6B@
rdata$r	SEGMENT DWORD USE32 PUBLIC 'CONST'
rdata$r	ENDS
;	COMDAT ??_R4iovfs_base@@6B@
rdata$r	SEGMENT DWORD USE32 PUBLIC 'CONST'
rdata$r	ENDS
;	COMDAT ??_R4MPersona@@6B@
rdata$r	SEGMENT DWORD USE32 PUBLIC 'CONST'
rdata$r	ENDS
;	COMDAT ??_R4MGunItem@@6B@
rdata$r	SEGMENT DWORD USE32 PUBLIC 'CONST'
rdata$r	ENDS
;	COMDAT ??_R4MEventTreeItem@@6B@
rdata$r	SEGMENT DWORD USE32 PUBLIC 'CONST'
rdata$r	ENDS
;	COMDAT ??_R4MItemETC@@6B@
rdata$r	SEGMENT DWORD USE32 PUBLIC 'CONST'
rdata$r	ENDS
;	COMDAT ??_R4MOustersHarmonicPendent@@6B@
rdata$r	SEGMENT DWORD USE32 PUBLIC 'CONST'
rdata$r	ENDS
;	COMDAT ??_R4MSlayerPortalItem@@6B@
rdata$r	SEGMENT DWORD USE32 PUBLIC 'CONST'
rdata$r	ENDS
;	COMDAT ??_R4MSubInventory@@6BMGridItemManager@@@
rdata$r	SEGMENT DWORD USE32 PUBLIC 'CONST'
rdata$r	ENDS
;	COMDAT ??_R4MSubInventory@@6BMItem@@@
rdata$r	SEGMENT DWORD USE32 PUBLIC 'CONST'
rdata$r	ENDS
;	COMDAT ??_R4MRelic@@6B@
rdata$r	SEGMENT DWORD USE32 PUBLIC 'CONST'
rdata$r	ENDS
;	COMDAT ??_R4MSword@@6B@
rdata$r	SEGMENT DWORD USE32 PUBLIC 'CONST'
rdata$r	ENDS
;	COMDAT ??_R4MSms_item@@6B@
rdata$r	SEGMENT DWORD USE32 PUBLIC 'CONST'
rdata$r	ENDS
;	COMDAT ??_R4MMoonCardItem@@6B@
rdata$r	SEGMENT DWORD USE32 PUBLIC 'CONST'
rdata$r	ENDS
;	COMDAT ??_R4MCastleSymbol@@6B@
rdata$r	SEGMENT DWORD USE32 PUBLIC 'CONST'
rdata$r	ENDS
;	COMDAT ??_R4MArmorItem2@@6B@
rdata$r	SEGMENT DWORD USE32 PUBLIC 'CONST'
rdata$r	ENDS
;	COMDAT ??_R4MCueOfAdam@@6B@
rdata$r	SEGMENT DWORD USE32 PUBLIC 'CONST'
rdata$r	ENDS
;	COMDAT ??_R4MTrapItem@@6B@
rdata$r	SEGMENT DWORD USE32 PUBLIC 'CONST'
rdata$r	ENDS
;	COMDAT ??_R4MOustersCirclet@@6B@
rdata$r	SEGMENT DWORD USE32 PUBLIC 'CONST'
rdata$r	ENDS
;	COMDAT ??_R4MRing@@6B@
rdata$r	SEGMENT DWORD USE32 PUBLIC 'CONST'
rdata$r	ENDS
;	COMDAT ??_R4MVampireEarRing@@6B@
rdata$r	SEGMENT DWORD USE32 PUBLIC 'CONST'
rdata$r	ENDS
;	COMDAT ??_R4MOustersComposMei@@6B@
rdata$r	SEGMENT DWORD USE32 PUBLIC 'CONST'
rdata$r	ENDS
;	COMDAT ??_R4MGearItem@@6B@
rdata$r	SEGMENT DWORD USE32 PUBLIC 'CONST'
rdata$r	ENDS
;	COMDAT ??_R4MOustersRing@@6B@
rdata$r	SEGMENT DWORD USE32 PUBLIC 'CONST'
rdata$r	ENDS
;	COMDAT ??_R4MEventStarItem@@6B@
rdata$r	SEGMENT DWORD USE32 PUBLIC 'CONST'
rdata$r	ENDS
;	COMDAT ??_R4MCarryingReceiver@@6B@
rdata$r	SEGMENT DWORD USE32 PUBLIC 'CONST'
rdata$r	ENDS
;	COMDAT ??_R4MCoat@@6B@
rdata$r	SEGMENT DWORD USE32 PUBLIC 'CONST'
rdata$r	ENDS
;	COMDAT ??_R4MPetEnchantItem@@6B@
rdata$r	SEGMENT DWORD USE32 PUBLIC 'CONST'
rdata$r	ENDS
;	COMDAT ??_R4MOustersArmsBand@@6BMSlotItemManager@@@
rdata$r	SEGMENT DWORD USE32 PUBLIC 'CONST'
rdata$r	ENDS
;	COMDAT ??_R4MOustersArmsBand@@6BMArmorItem2@@@
rdata$r	SEGMENT DWORD USE32 PUBLIC 'CONST'
rdata$r	ENDS
;	COMDAT ??_R4MTuningItemSlayer@@6B@
rdata$r	SEGMENT DWORD USE32 PUBLIC 'CONST'
rdata$r	ENDS
;	COMDAT ??_R4MVampireCoat@@6B@
rdata$r	SEGMENT DWORD USE32 PUBLIC 'CONST'
rdata$r	ENDS
;	COMDAT ??_R4MQuestItem@@6B@
rdata$r	SEGMENT DWORD USE32 PUBLIC 'CONST'
rdata$r	ENDS
;	COMDAT ??_R4MDermis@@6B@
rdata$r	SEGMENT DWORD USE32 PUBLIC 'CONST'
rdata$r	ENDS
;	COMDAT ??_R4MHelm@@6B@
rdata$r	SEGMENT DWORD USE32 PUBLIC 'CONST'
rdata$r	ENDS
;	COMDAT ??_R4MCross@@6B@
rdata$r	SEGMENT DWORD USE32 PUBLIC 'CONST'
rdata$r	ENDS
;	COMDAT ??_R4MGunTR@@6B@
rdata$r	SEGMENT DWORD USE32 PUBLIC 'CONST'
rdata$r	ENDS
;	COMDAT ??_R4MVampireETC@@6B@
rdata$r	SEGMENT DWORD USE32 PUBLIC 'CONST'
rdata$r	ENDS
;	COMDAT ??_R4MWeaponItem@@6B@
rdata$r	SEGMENT DWORD USE32 PUBLIC 'CONST'
rdata$r	ENDS
;	COMDAT ??_R4MGunSMG@@6B@
rdata$r	SEGMENT DWORD USE32 PUBLIC 'CONST'
rdata$r	ENDS
;	COMDAT ??_R4MMitten@@6B@
rdata$r	SEGMENT DWORD USE32 PUBLIC 'CONST'
rdata$r	ENDS
;	COMDAT ??_R4MBlade@@6B@
rdata$r	SEGMENT DWORD USE32 PUBLIC 'CONST'
rdata$r	ENDS
;	COMDAT ??_R4MEtherealChain@@6B@
rdata$r	SEGMENT DWORD USE32 PUBLIC 'CONST'
rdata$r	ENDS
;	COMDAT ??_R4MRankGem@@6B@
rdata$r	SEGMENT DWORD USE32 PUBLIC 'CONST'
rdata$r	ENDS
;	COMDAT ??_R4MKey@@6B@
rdata$r	SEGMENT DWORD USE32 PUBLIC 'CONST'
rdata$r	ENDS
;	COMDAT ??_R4MCallNPCNPCCard@@6B@
rdata$r	SEGMENT DWORD USE32 PUBLIC 'CONST'
rdata$r	ENDS
;	COMDAT ??_R4MVampirePortalItem@@6B@
rdata$r	SEGMENT DWORD USE32 PUBLIC 'CONST'
rdata$r	ENDS
;	COMDAT ??_R4MBloodBible@@6B@
rdata$r	SEGMENT DWORD USE32 PUBLIC 'CONST'
rdata$r	ENDS
;	COMDAT ??_R4MCodeSheetItem@@6B@
rdata$r	SEGMENT DWORD USE32 PUBLIC 'CONST'
rdata$r	ENDS
;	COMDAT ??_R4MArmorItem@@6B@
rdata$r	SEGMENT DWORD USE32 PUBLIC 'CONST'
rdata$r	ENDS
;	COMDAT ??_R4MGQuestItem@@6B@
rdata$r	SEGMENT DWORD USE32 PUBLIC 'CONST'
rdata$r	ENDS
;	COMDAT ??_R4?$basic_ofstream@DV?$char_traits@D@_STL@@@_STL@@6B@
rdata$r	SEGMENT DWORD USE32 PUBLIC 'CONST'
rdata$r	ENDS
;	COMDAT ??_R4MWater@@6B@
rdata$r	SEGMENT DWORD USE32 PUBLIC 'CONST'
rdata$r	ENDS
;	COMDAT ??_R4MLearningItem@@6B@
rdata$r	SEGMENT DWORD USE32 PUBLIC 'CONST'
rdata$r	ENDS
;	COMDAT ??_R4MPetItem@@6B@
rdata$r	SEGMENT DWORD USE32 PUBLIC 'CONST'
rdata$r	ENDS
;	COMDAT ??_R4MOustersChakram@@6B@
rdata$r	SEGMENT DWORD USE32 PUBLIC 'CONST'
rdata$r	ENDS
;	COMDAT ??_R4MVampireCoupleRing@@6B@
rdata$r	SEGMENT DWORD USE32 PUBLIC 'CONST'
rdata$r	ENDS
;	COMDAT ??_R4MVampireRing@@6B@
rdata$r	SEGMENT DWORD USE32 PUBLIC 'CONST'
rdata$r	ENDS
;	COMDAT ??_R4MSkillBook@@6B@
rdata$r	SEGMENT DWORD USE32 PUBLIC 'CONST'
rdata$r	ENDS
;	COMDAT ??_R4IFileIO@@6B@
rdata$r	SEGMENT DWORD USE32 PUBLIC 'CONST'
rdata$r	ENDS
;	COMDAT ??_R4MEffectItem@@6B@
rdata$r	SEGMENT DWORD USE32 PUBLIC 'CONST'
rdata$r	ENDS
;	COMDAT ??_R4MWarItem@@6B@
rdata$r	SEGMENT DWORD USE32 PUBLIC 'CONST'
rdata$r	ENDS
;	COMDAT ??_R4MMagazine@@6B@
rdata$r	SEGMENT DWORD USE32 PUBLIC 'CONST'
rdata$r	ENDS
;	COMDAT ??_R4MOustersPupa@@6B@
rdata$r	SEGMENT DWORD USE32 PUBLIC 'CONST'
rdata$r	ENDS
;	COMDAT ??_R4MBelt@@6BMSlotItemManager@@@
rdata$r	SEGMENT DWORD USE32 PUBLIC 'CONST'
rdata$r	ENDS
;	COMDAT ??_R4MBelt@@6BMArmorItem2@@@
rdata$r	SEGMENT DWORD USE32 PUBLIC 'CONST'
rdata$r	ENDS
;	COMDAT ??_R4MEventGiftBoxItem@@6B@
rdata$r	SEGMENT DWORD USE32 PUBLIC 'CONST'
rdata$r	ENDS
;	COMDAT ??_R4MOustersPendent@@6B@
rdata$r	SEGMENT DWORD USE32 PUBLIC 'CONST'
rdata$r	ENDS
;	COMDAT ??_R4MOustersWingItem@@6B@
rdata$r	SEGMENT DWORD USE32 PUBLIC 'CONST'
rdata$r	ENDS
;	COMDAT ??_R4MDyePotionItem@@6B@
rdata$r	SEGMENT DWORD USE32 PUBLIC 'CONST'
rdata$r	ENDS
;	COMDAT ??_R4MBomb@@6B@
rdata$r	SEGMENT DWORD USE32 PUBLIC 'CONST'
rdata$r	ENDS
;	COMDAT ??_R4MPetFood@@6B@
rdata$r	SEGMENT DWORD USE32 PUBLIC 'CONST'
rdata$r	ENDS
;	COMDAT ??_R4MMixingItem@@6B@
rdata$r	SEGMENT DWORD USE32 PUBLIC 'CONST'
rdata$r	ENDS
;	COMDAT ??_R4MNecklace@@6B@
rdata$r	SEGMENT DWORD USE32 PUBLIC 'CONST'
rdata$r	ENDS
;	COMDAT ??_R4MVampireNecklace@@6B@
rdata$r	SEGMENT DWORD USE32 PUBLIC 'CONST'
rdata$r	ENDS
;	COMDAT ??_R4MGlove@@6B@
rdata$r	SEGMENT DWORD USE32 PUBLIC 'CONST'
rdata$r	ENDS
;	COMDAT ??_R4MVampireAmulet@@6B@
rdata$r	SEGMENT DWORD USE32 PUBLIC 'CONST'
rdata$r	ENDS
;	COMDAT ??_R4MShoulderArmor@@6B@
rdata$r	SEGMENT DWORD USE32 PUBLIC 'CONST'
rdata$r	ENDS
;	COMDAT ??_R4MShield@@6B@
rdata$r	SEGMENT DWORD USE32 PUBLIC 'CONST'
rdata$r	ENDS
;	COMDAT ??_R4MGunAR@@6B@
rdata$r	SEGMENT DWORD USE32 PUBLIC 'CONST'
rdata$r	ENDS
;	COMDAT ??_R4MOustersWristlet@@6B@
rdata$r	SEGMENT DWORD USE32 PUBLIC 'CONST'
rdata$r	ENDS
;	COMDAT ??_R4MShoes@@6B@
rdata$r	SEGMENT DWORD USE32 PUBLIC 'CONST'
rdata$r	ENDS
;	COMDAT ??_R4MUsePotionItem@@6B@
rdata$r	SEGMENT DWORD USE32 PUBLIC 'CONST'
rdata$r	ENDS
;	COMDAT ??_R4MGunSG@@6B@
rdata$r	SEGMENT DWORD USE32 PUBLIC 'CONST'
rdata$r	ENDS
;	COMDAT ??_R4MCommonQuestItem@@6B@
rdata$r	SEGMENT DWORD USE32 PUBLIC 'CONST'
rdata$r	ENDS
;	COMDAT ??_R4MTuningItemOusters@@6B@
rdata$r	SEGMENT DWORD USE32 PUBLIC 'CONST'
rdata$r	ENDS
;	COMDAT ??_R4MSerum@@6B@
rdata$r	SEGMENT DWORD USE32 PUBLIC 'CONST'
rdata$r	ENDS
;	COMDAT ??_R4MFascia@@6B@
rdata$r	SEGMENT DWORD USE32 PUBLIC 'CONST'
rdata$r	ENDS
;	COMDAT ??_R4ovfstream@@6B@
rdata$r	SEGMENT DWORD USE32 PUBLIC 'CONST'
rdata$r	ENDS
;	COMDAT ??_R4MEventEtcItem@@6B@
rdata$r	SEGMENT DWORD USE32 PUBLIC 'CONST'
rdata$r	ENDS
;	COMDAT ??_R4MObject@@6B@
rdata$r	SEGMENT DWORD USE32 PUBLIC 'CONST'
rdata$r	ENDS
;	COMDAT ??_R4MMotorcycle@@6BMGridItemManager@@@
rdata$r	SEGMENT DWORD USE32 PUBLIC 'CONST'
rdata$r	ENDS
;	COMDAT ??_R4MMotorcycle@@6BMItem@@@
rdata$r	SEGMENT DWORD USE32 PUBLIC 'CONST'
rdata$r	ENDS
;	COMDAT ??_R4MCheckMoney@@6B@
rdata$r	SEGMENT DWORD USE32 PUBLIC 'CONST'
rdata$r	ENDS
;	COMDAT ??_R4MCoreZap@@6B@
rdata$r	SEGMENT DWORD USE32 PUBLIC 'CONST'
rdata$r	ENDS
;	COMDAT ??_R4MBombMaterial@@6B@
rdata$r	SEGMENT DWORD USE32 PUBLIC 'CONST'
rdata$r	ENDS
;	COMDAT ??_R4MSweeperItem@@6B@
rdata$r	SEGMENT DWORD USE32 PUBLIC 'CONST'
rdata$r	ENDS
;	COMDAT ??_R4MPotion@@6B@
rdata$r	SEGMENT DWORD USE32 PUBLIC 'CONST'
rdata$r	ENDS
;	COMDAT ??_R4MContractOfBlood@@6B@
rdata$r	SEGMENT DWORD USE32 PUBLIC 'CONST'
rdata$r	ENDS
;	COMDAT ??_R4MCoupleRing@@6B@
rdata$r	SEGMENT DWORD USE32 PUBLIC 'CONST'
rdata$r	ENDS
;	COMDAT ??_R4ivfstream@@6B@
rdata$r	SEGMENT DWORD USE32 PUBLIC 'CONST'
rdata$r	ENDS
;	COMDAT ??_R4MOustersBoots@@6B@
rdata$r	SEGMENT DWORD USE32 PUBLIC 'CONST'
rdata$r	ENDS
;	COMDAT ??_R4MAccessoryItem@@6B@
rdata$r	SEGMENT DWORD USE32 PUBLIC 'CONST'
rdata$r	ENDS
;	COMDAT ??_R4MOustersLarva@@6B@
rdata$r	SEGMENT DWORD USE32 PUBLIC 'CONST'
rdata$r	ENDS
;	COMDAT ??_R4MHolyWater@@6B@
rdata$r	SEGMENT DWORD USE32 PUBLIC 'CONST'
rdata$r	ENDS
;	COMDAT ??_R4MOustersSummonGem@@6B@
rdata$r	SEGMENT DWORD USE32 PUBLIC 'CONST'
rdata$r	ENDS
;	COMDAT ??_R4MEventItem@@6B@
rdata$r	SEGMENT DWORD USE32 PUBLIC 'CONST'
rdata$r	ENDS
;	COMDAT ??_R4MMoney@@6B@
rdata$r	SEGMENT DWORD USE32 PUBLIC 'CONST'
rdata$r	ENDS
;	COMDAT ??_R4MResurrectItem@@6B@
rdata$r	SEGMENT DWORD USE32 PUBLIC 'CONST'
rdata$r	ENDS
;	COMDAT ??_R4MVampireWingItem@@6B@
rdata$r	SEGMENT DWORD USE32 PUBLIC 'CONST'
rdata$r	ENDS
;	COMDAT ??_R4MBloodBibleSign@@6B@
rdata$r	SEGMENT DWORD USE32 PUBLIC 'CONST'
rdata$r	ENDS
;	COMDAT ??_R4MMine@@6B@
rdata$r	SEGMENT DWORD USE32 PUBLIC 'CONST'
rdata$r	ENDS
;	COMDAT ??_R4MOustersCoat@@6B@
rdata$r	SEGMENT DWORD USE32 PUBLIC 'CONST'
rdata$r	ENDS
;	COMDAT ?__copy_trivial@_STL@@YAPAXPBX0PAX@Z
_TEXT	SEGMENT PARA USE32 PUBLIC 'CODE'
_TEXT	ENDS
;	COMDAT ?_M_deallocate_block@?$_String_base@DV?$allocator@D@_STL@@@_STL@@QAEXXZ
_TEXT	SEGMENT PARA USE32 PUBLIC 'CODE'
_TEXT	ENDS
;	COMDAT ?deallocate@?$allocator@D@_STL@@QAEXPADI@Z
_TEXT	SEGMENT PARA USE32 PUBLIC 'CODE'
_TEXT	ENDS
;	COMDAT ?good@ios_base@_STL@@QBE_NXZ
_TEXT	SEGMENT PARA USE32 PUBLIC 'CODE'
_TEXT	ENDS
;	COMDAT ?__page_size@_Filebuf_base@_STL@@SAIXZ
_TEXT	SEGMENT PARA USE32 PUBLIC 'CODE'
_TEXT	ENDS
;	COMDAT ?_M_write@?$basic_filebuf@DV?$char_traits@D@_STL@@@_STL@@QAE_NPADH@Z
_TEXT	SEGMENT PARA USE32 PUBLIC 'CODE'
_TEXT	ENDS
;	COMDAT ?unshift@?$codecvt@DDH@_STL@@QBE?AW4result@codecvt_base@2@AAHPAD1AAPAD@Z
_TEXT	SEGMENT PARA USE32 PUBLIC 'CODE'
_TEXT	ENDS
;	COMDAT ?_M_get_exception_mask@ios_base@_STL@@IBEHXZ
_TEXT	SEGMENT PARA USE32 PUBLIC 'CODE'
_TEXT	ENDS
;	COMDAT ?_M_setstate_nothrow@ios_base@_STL@@IAEXH@Z
_TEXT	SEGMENT PARA USE32 PUBLIC 'CODE'
_TEXT	ENDS
;	COMDAT ?uninitialized_copy@_STL@@YAPADPBD0PAD@Z
_TEXT	SEGMENT PARA USE32 PUBLIC 'CODE'
_TEXT	ENDS
;	COMDAT ?pubsync@?$basic_streambuf@DV?$char_traits@D@_STL@@@_STL@@QAEHXZ
_TEXT	SEGMENT PARA USE32 PUBLIC 'CODE'
_TEXT	ENDS
;	COMDAT ?_M_check_exception_mask@ios_base@_STL@@IAEXXZ
_TEXT	SEGMENT PARA USE32 PUBLIC 'CODE'
_TEXT	ENDS
;	COMDAT ?_M_clear_nothrow@ios_base@_STL@@IAEXH@Z
_TEXT	SEGMENT PARA USE32 PUBLIC 'CODE'
_TEXT	ENDS
;	COMDAT ?flags@ios_base@_STL@@QBEHXZ
_TEXT	SEGMENT PARA USE32 PUBLIC 'CODE'
_TEXT	ENDS
;	COMDAT ?rdstate@ios_base@_STL@@QBEHXZ
_TEXT	SEGMENT PARA USE32 PUBLIC 'CODE'
_TEXT	ENDS
;	COMDAT ??2@YAPAXIPAX@Z
_TEXT	SEGMENT PARA USE32 PUBLIC 'CODE'
_TEXT	ENDS
;	COMDAT ??8_List_iterator_base@_STL@@QBE_NABU01@@Z
_TEXT	SEGMENT PARA USE32 PUBLIC 'CODE'
_TEXT	ENDS
;	COMDAT ?assign@?$char_traits@D@_STL@@SAXAADABD@Z
_TEXT	SEGMENT PARA USE32 PUBLIC 'CODE'
_TEXT	ENDS
;	COMDAT ?always_noconv@?$codecvt@DDH@_STL@@QBE_NXZ
_TEXT	SEGMENT PARA USE32 PUBLIC 'CODE'
_TEXT	ENDS
;	COMDAT ?encoding@?$codecvt@DDH@_STL@@QBEHXZ
_TEXT	SEGMENT PARA USE32 PUBLIC 'CODE'
_TEXT	ENDS
;	COMDAT ?max_length@?$codecvt@DDH@_STL@@QBEHXZ
_TEXT	SEGMENT PARA USE32 PUBLIC 'CODE'
_TEXT	ENDS
;	COMDAT ?__o_mode@_Filebuf_base@_STL@@QBEHXZ
_TEXT	SEGMENT PARA USE32 PUBLIC 'CODE'
_TEXT	ENDS
;	COMDAT ?sputn@?$basic_streambuf@DV?$char_traits@D@_STL@@@_STL@@QAEHPBDH@Z
_TEXT	SEGMENT PARA USE32 PUBLIC 'CODE'
_TEXT	ENDS
;	COMDAT ?deallocate@?$__node_alloc@$00$0A@@_STL@@SAXPAXI@Z
_TEXT	SEGMENT PARA USE32 PUBLIC 'CODE'
_TEXT	ENDS
;	COMDAT ?__stl_delete@_STL@@YAXPAX@Z
_TEXT	SEGMENT PARA USE32 PUBLIC 'CODE'
_TEXT	ENDS
;	COMDAT ?_Destroy@_STL@@YAXPAD0@Z
_TEXT	SEGMENT PARA USE32 PUBLIC 'CODE'
_TEXT	ENDS
;	COMDAT ??0_List_iterator_base@_STL@@QAE@PAU_List_node_base@1@@Z
_TEXT	SEGMENT PARA USE32 PUBLIC 'CODE'
_TEXT	ENDS
;	COMDAT ??1?$basic_ios@DV?$char_traits@D@_STL@@@_STL@@UAE@XZ
_TEXT	SEGMENT PARA USE32 PUBLIC 'CODE'
_TEXT	ENDS
;	COMDAT ??_7?$basic_ios@DV?$char_traits@D@_STL@@@_STL@@6B@
CONST	SEGMENT DWORD USE32 PUBLIC 'CONST'
CONST	ENDS
;	COMDAT ??_R4?$basic_ios@DV?$char_traits@D@_STL@@@_STL@@6B@
rdata$r	SEGMENT DWORD USE32 PUBLIC 'CONST'
rdata$r	ENDS
;	COMDAT ??_R3?$basic_ios@DV?$char_traits@D@_STL@@@_STL@@8
rdata$r	SEGMENT DWORD USE32 PUBLIC 'CONST'
rdata$r	ENDS
;	COMDAT ??_R2?$basic_ios@DV?$char_traits@D@_STL@@@_STL@@8
rdata$r	SEGMENT DWORD USE32 PUBLIC 'CONST'
rdata$r	ENDS
;	COMDAT ??_R1A@?0A@A@?$basic_ios@DV?$char_traits@D@_STL@@@_STL@@8
rdata$r	SEGMENT DWORD USE32 PUBLIC 'CONST'
rdata$r	ENDS
;	COMDAT ??_R1A@?0A@A@ios_base@_STL@@8
rdata$r	SEGMENT DWORD USE32 PUBLIC 'CONST'
rdata$r	ENDS
;	COMDAT ??_G?$basic_ios@DV?$char_traits@D@_STL@@@_STL@@UAEPAXI@Z
_TEXT	SEGMENT PARA USE32 PUBLIC 'CODE'
_TEXT	ENDS
;	COMDAT ?_M_incr@_List_iterator_base@_STL@@QAEXXZ
_TEXT	SEGMENT PARA USE32 PUBLIC 'CODE'
_TEXT	ENDS
;	COMDAT ??1?$basic_filebuf@DV?$char_traits@D@_STL@@@_STL@@UAE@XZ
_TEXT	SEGMENT PARA USE32 PUBLIC 'CODE'
_TEXT	ENDS
;	COMDAT ??_7?$basic_filebuf@DV?$char_traits@D@_STL@@@_STL@@6B@
CONST	SEGMENT DWORD USE32 PUBLIC 'CONST'
CONST	ENDS
;	COMDAT ??_R4?$basic_filebuf@DV?$char_traits@D@_STL@@@_STL@@6B@
rdata$r	SEGMENT DWORD USE32 PUBLIC 'CONST'
rdata$r	ENDS
;	COMDAT ??_R0?AV?$basic_filebuf@DV?$char_traits@D@_STL@@@_STL@@@8
_DATA	SEGMENT DWORD USE32 PUBLIC 'DATA'
_DATA	ENDS
;	COMDAT ??_R3?$basic_filebuf@DV?$char_traits@D@_STL@@@_STL@@8
rdata$r	SEGMENT DWORD USE32 PUBLIC 'CONST'
rdata$r	ENDS
;	COMDAT ??_R2?$basic_filebuf@DV?$char_traits@D@_STL@@@_STL@@8
rdata$r	SEGMENT DWORD USE32 PUBLIC 'CONST'
rdata$r	ENDS
;	COMDAT ??_R1A@?0A@A@?$basic_filebuf@DV?$char_traits@D@_STL@@@_STL@@8
rdata$r	SEGMENT DWORD USE32 PUBLIC 'CONST'
rdata$r	ENDS
;	COMDAT ??_R1A@?0A@A@?$basic_streambuf@DV?$char_traits@D@_STL@@@_STL@@8
rdata$r	SEGMENT DWORD USE32 PUBLIC 'CONST'
rdata$r	ENDS
;	COMDAT ??_R0?AV?$basic_streambuf@DV?$char_traits@D@_STL@@@_STL@@@8
_DATA	SEGMENT DWORD USE32 PUBLIC 'DATA'
_DATA	ENDS
;	COMDAT ??_G?$basic_filebuf@DV?$char_traits@D@_STL@@@_STL@@UAEPAXI@Z
_TEXT	SEGMENT PARA USE32 PUBLIC 'CODE'
_TEXT	ENDS
;	COMDAT ?setbuf@?$basic_filebuf@DV?$char_traits@D@_STL@@@_STL@@MAEPAV?$basic_streambuf@DV?$char_traits@D@_STL@@@2@PADH@Z
_TEXT	SEGMENT PARA USE32 PUBLIC 'CODE'
_TEXT	ENDS
;	COMDAT ?seekoff@?$basic_filebuf@DV?$char_traits@D@_STL@@@_STL@@MAE?AV?$fpos@H@2@JHH@Z
_TEXT	SEGMENT PARA USE32 PUBLIC 'CODE'
_TEXT	ENDS
;	COMDAT ?_M_in_binary_mode@_Filebuf_base@_STL@@QBE_NXZ
_TEXT	SEGMENT PARA USE32 PUBLIC 'CODE'
_TEXT	ENDS
;	COMDAT ?length@?$codecvt@DDH@_STL@@QBEHABHPBD1I@Z
_TEXT	SEGMENT PARA USE32 PUBLIC 'CODE'
_TEXT	ENDS
;	COMDAT ?in@?$codecvt@DDH@_STL@@QBE?AW4result@codecvt_base@2@AAHPBD1AAPBDPAD3AAPAD@Z
_TEXT	SEGMENT PARA USE32 PUBLIC 'CODE'
_TEXT	ENDS
;	COMDAT ?eback@?$basic_streambuf@DV?$char_traits@D@_STL@@@_STL@@IBEPADXZ
_TEXT	SEGMENT PARA USE32 PUBLIC 'CODE'
_TEXT	ENDS
;	COMDAT ?_FILE_I_begin@_STL@@YAPADPBU_iobuf@@@Z
_TEXT	SEGMENT PARA USE32 PUBLIC 'CODE'
_TEXT	ENDS
;	COMDAT ?gptr@?$basic_streambuf@DV?$char_traits@D@_STL@@@_STL@@IBEPADXZ
_TEXT	SEGMENT PARA USE32 PUBLIC 'CODE'
_TEXT	ENDS
;	COMDAT ?_FILE_I_next@_STL@@YAPADPBU_iobuf@@@Z
_TEXT	SEGMENT PARA USE32 PUBLIC 'CODE'
_TEXT	ENDS
;	COMDAT ?_M_get_offset@_Filebuf_base@_STL@@QAEJPAD0@Z
_TEXT	SEGMENT PARA USE32 PUBLIC 'CODE'
_TEXT	ENDS
;	COMDAT ??$count@PADD@_STL@@YAHPAD0ABD@Z
_TEXT	SEGMENT PARA USE32 PUBLIC 'CODE'
_TEXT	ENDS
;	COMDAT ?seekpos@?$basic_filebuf@DV?$char_traits@D@_STL@@@_STL@@MAE?AV?$fpos@H@2@V32@H@Z
_TEXT	SEGMENT PARA USE32 PUBLIC 'CODE'
_TEXT	ENDS
;	COMDAT ?sync@?$basic_filebuf@DV?$char_traits@D@_STL@@@_STL@@MAEHXZ
_TEXT	SEGMENT PARA USE32 PUBLIC 'CODE'
_TEXT	ENDS
;	COMDAT ?showmanyc@?$basic_filebuf@DV?$char_traits@D@_STL@@@_STL@@MAEHXZ
_TEXT	SEGMENT PARA USE32 PUBLIC 'CODE'
_TEXT	ENDS
;	COMDAT ?egptr@?$basic_streambuf@DV?$char_traits@D@_STL@@@_STL@@IBEPADXZ
_TEXT	SEGMENT PARA USE32 PUBLIC 'CODE'
_TEXT	ENDS
;	COMDAT ?_FILE_I_end@_STL@@YAPADPBU_iobuf@@@Z
_TEXT	SEGMENT PARA USE32 PUBLIC 'CODE'
_TEXT	ENDS
;	COMDAT ?underflow@?$basic_filebuf@DV?$char_traits@D@_STL@@@_STL@@MAEHXZ
_TEXT	SEGMENT PARA USE32 PUBLIC 'CODE'
_TEXT	ENDS
;	COMDAT ?pbackfail@?$basic_filebuf@DV?$char_traits@D@_STL@@@_STL@@MAEHH@Z
_TEXT	SEGMENT PARA USE32 PUBLIC 'CODE'
_TEXT	ENDS
;	COMDAT ?gbump@?$basic_streambuf@DV?$char_traits@D@_STL@@@_STL@@IAEXH@Z
_TEXT	SEGMENT PARA USE32 PUBLIC 'CODE'
_TEXT	ENDS
;	COMDAT ?_FILE_I_bump@_STL@@YAXPAU_iobuf@@H@Z
_TEXT	SEGMENT PARA USE32 PUBLIC 'CODE'
_TEXT	ENDS
;	COMDAT ?to_int_type@?$char_traits@D@_STL@@SAHABD@Z
_TEXT	SEGMENT PARA USE32 PUBLIC 'CODE'
_TEXT	ENDS
;	COMDAT ?to_char_type@?$char_traits@D@_STL@@SADABH@Z
_TEXT	SEGMENT PARA USE32 PUBLIC 'CODE'
_TEXT	ENDS
;	COMDAT ?overflow@?$basic_filebuf@DV?$char_traits@D@_STL@@@_STL@@MAEHH@Z
_TEXT	SEGMENT PARA USE32 PUBLIC 'CODE'
_TEXT	ENDS
;	COMDAT ?pptr@?$basic_streambuf@DV?$char_traits@D@_STL@@@_STL@@IBEPADXZ
_TEXT	SEGMENT PARA USE32 PUBLIC 'CODE'
_TEXT	ENDS
;	COMDAT ?_FILE_O_next@_STL@@YAPADPBU_iobuf@@@Z
_TEXT	SEGMENT PARA USE32 PUBLIC 'CODE'
_TEXT	ENDS
;	COMDAT ?out@?$codecvt@DDH@_STL@@QBE?AW4result@codecvt_base@2@AAHPBD1AAPBDPAD3AAPAD@Z
_TEXT	SEGMENT PARA USE32 PUBLIC 'CODE'
_TEXT	ENDS
;	COMDAT ?_M_doit@?$_Noconv_output@V?$char_traits@D@_STL@@@_STL@@SA_NPAV?$basic_filebuf@DV?$char_traits@D@_STL@@@2@PAD1@Z
_TEXT	SEGMENT PARA USE32 PUBLIC 'CODE'
_TEXT	ENDS
;	COMDAT ?imbue@?$basic_filebuf@DV?$char_traits@D@_STL@@@_STL@@MAEXABVlocale@2@@Z
_TEXT	SEGMENT PARA USE32 PUBLIC 'CODE'
_TEXT	ENDS
;	COMDAT ??1?$basic_ostream@DV?$char_traits@D@_STL@@@_STL@@UAE@XZ
_TEXT	SEGMENT PARA USE32 PUBLIC 'CODE'
_TEXT	ENDS
;	COMDAT ??_7?$basic_ostream@DV?$char_traits@D@_STL@@@_STL@@6B@
CONST	SEGMENT DWORD USE32 PUBLIC 'CONST'
CONST	ENDS
;	COMDAT ??_R4?$basic_ostream@DV?$char_traits@D@_STL@@@_STL@@6B@
rdata$r	SEGMENT DWORD USE32 PUBLIC 'CONST'
rdata$r	ENDS
;	COMDAT ??_R3?$basic_ostream@DV?$char_traits@D@_STL@@@_STL@@8
rdata$r	SEGMENT DWORD USE32 PUBLIC 'CONST'
rdata$r	ENDS
;	COMDAT ??_R2?$basic_ostream@DV?$char_traits@D@_STL@@@_STL@@8
rdata$r	SEGMENT DWORD USE32 PUBLIC 'CONST'
rdata$r	ENDS
;	COMDAT ??_G?$basic_ostream@DV?$char_traits@D@_STL@@@_STL@@UAEPAXI@Z
_TEXT	SEGMENT PARA USE32 PUBLIC 'CODE'
_TEXT	ENDS
;	COMDAT ??_D?$basic_ostream@DV?$char_traits@D@_STL@@@_STL@@QAEXXZ
_TEXT	SEGMENT PARA USE32 PUBLIC 'CODE'
_TEXT	ENDS
;	COMDAT ??_7?$basic_ofstream@DV?$char_traits@D@_STL@@@_STL@@6B@
CONST	SEGMENT DWORD USE32 PUBLIC 'CONST'
CONST	ENDS
;	COMDAT ?setp@?$basic_streambuf@DV?$char_traits@D@_STL@@@_STL@@IAEXPAD0@Z
_TEXT	SEGMENT PARA USE32 PUBLIC 'CODE'
_TEXT	ENDS
;	COMDAT ?_FILE_O_set@_STL@@YAXPAU_iobuf@@PAD11@Z
_TEXT	SEGMENT PARA USE32 PUBLIC 'CODE'
_TEXT	ENDS
;	COMDAT ?_FILE_I_set@_STL@@YAXPAU_iobuf@@PAD11@Z
_TEXT	SEGMENT PARA USE32 PUBLIC 'CODE'
_TEXT	ENDS
;	COMDAT ?setg@?$basic_streambuf@DV?$char_traits@D@_STL@@@_STL@@IAEXPAD00@Z
_TEXT	SEGMENT PARA USE32 PUBLIC 'CODE'
_TEXT	ENDS
;	COMDAT ?__is_open@_Filebuf_base@_STL@@QBE_NXZ
_TEXT	SEGMENT PARA USE32 PUBLIC 'CODE'
_TEXT	ENDS
;	COMDAT ?allocate@?$__node_alloc@$00$0A@@_STL@@SAPAXI@Z
_TEXT	SEGMENT PARA USE32 PUBLIC 'CODE'
_TEXT	ENDS
;	COMDAT ?__stl_new@_STL@@YAPAXI@Z
_TEXT	SEGMENT PARA USE32 PUBLIC 'CODE'
_TEXT	ENDS
;	COMDAT ??1?$_STLP_alloc_proxy@PADDV?$allocator@D@_STL@@@_STL@@QAE@XZ
_TEXT	SEGMENT PARA USE32 PUBLIC 'CODE'
_TEXT	ENDS
;	COMDAT ?length@?$char_traits@D@_STL@@SAIPBD@Z
_TEXT	SEGMENT PARA USE32 PUBLIC 'CODE'
_TEXT	ENDS
;	COMDAT ??1?$allocator@D@_STL@@QAE@XZ
_TEXT	SEGMENT PARA USE32 PUBLIC 'CODE'
_TEXT	ENDS
;	COMDAT ?eof@?$__char_traits_base@DH@_STL@@SAHXZ
_TEXT	SEGMENT PARA USE32 PUBLIC 'CODE'
_TEXT	ENDS
;	COMDAT ??9_List_iterator_base@_STL@@QBE_NABU01@@Z
_TEXT	SEGMENT PARA USE32 PUBLIC 'CODE'
_TEXT	ENDS
;	COMDAT ??1?$allocator@G@_STL@@QAE@XZ
_TEXT	SEGMENT PARA USE32 PUBLIC 'CODE'
_TEXT	ENDS
;	COMDAT ??_7MCallNPCNPCCard@@6B@
CONST	SEGMENT DWORD USE32 PUBLIC 'CONST'
CONST	ENDS
;	COMDAT ??_7MTuningItemOusters@@6B@
CONST	SEGMENT DWORD USE32 PUBLIC 'CONST'
CONST	ENDS
;	COMDAT ??_7MTuningItemVampire@@6B@
CONST	SEGMENT DWORD USE32 PUBLIC 'CONST'
CONST	ENDS
;	COMDAT ??_7MTuningItemSlayer@@6B@
CONST	SEGMENT DWORD USE32 PUBLIC 'CONST'
CONST	ENDS
;	COMDAT ??_7MOustersWingItem@@6B@
CONST	SEGMENT DWORD USE32 PUBLIC 'CONST'
CONST	ENDS
;	COMDAT ??_7MVampireWingItem@@6B@
CONST	SEGMENT DWORD USE32 PUBLIC 'CONST'
CONST	ENDS
;	COMDAT ??_7MSkillBook@@6B@
CONST	SEGMENT DWORD USE32 PUBLIC 'CONST'
CONST	ENDS
;	COMDAT ??_7MContractOfBlood@@6B@
CONST	SEGMENT DWORD USE32 PUBLIC 'CONST'
CONST	ENDS
;	COMDAT ??_7MCueOfAdam@@6B@
CONST	SEGMENT DWORD USE32 PUBLIC 'CONST'
CONST	ENDS
;	COMDAT ??_7MCheckMoney@@6B@
CONST	SEGMENT DWORD USE32 PUBLIC 'CONST'
CONST	ENDS
;	COMDAT ??_7MOustersHarmonicPendent@@6B@
CONST	SEGMENT DWORD USE32 PUBLIC 'CONST'
CONST	ENDS
;	COMDAT ??_7MEtherealChain@@6B@
CONST	SEGMENT DWORD USE32 PUBLIC 'CONST'
CONST	ENDS
;	COMDAT ??_7MCommonQuestItem@@6B@
CONST	SEGMENT DWORD USE32 PUBLIC 'CONST'
CONST	ENDS
;	COMDAT ??_7MSubInventory@@6BMGridItemManager@@@
CONST	SEGMENT DWORD USE32 PUBLIC 'CONST'
CONST	ENDS
;	COMDAT ??_7MSubInventory@@6BMItem@@@
CONST	SEGMENT DWORD USE32 PUBLIC 'CONST'
CONST	ENDS
;	COMDAT ??_7MMitten@@6B@
CONST	SEGMENT DWORD USE32 PUBLIC 'CONST'
CONST	ENDS
;	COMDAT ??_7MFascia@@6B@
CONST	SEGMENT DWORD USE32 PUBLIC 'CONST'
CONST	ENDS
;	COMDAT ??_7MPersona@@6B@
CONST	SEGMENT DWORD USE32 PUBLIC 'CONST'
CONST	ENDS
;	COMDAT ??_7MDermis@@6B@
CONST	SEGMENT DWORD USE32 PUBLIC 'CONST'
CONST	ENDS
;	COMDAT ??_7MShoulderArmor@@6B@
CONST	SEGMENT DWORD USE32 PUBLIC 'CONST'
CONST	ENDS
;	COMDAT ??_7MCarryingReceiver@@6B@
CONST	SEGMENT DWORD USE32 PUBLIC 'CONST'
CONST	ENDS
;	COMDAT ??_7MWarItem@@6B@
CONST	SEGMENT DWORD USE32 PUBLIC 'CONST'
CONST	ENDS
;	COMDAT ??_7MBloodBibleSign@@6B@
CONST	SEGMENT DWORD USE32 PUBLIC 'CONST'
CONST	ENDS
;	COMDAT ??_7MTrapItem@@6B@
CONST	SEGMENT DWORD USE32 PUBLIC 'CONST'
CONST	ENDS
;	COMDAT ??_7MGQuestItem@@6B@
CONST	SEGMENT DWORD USE32 PUBLIC 'CONST'
CONST	ENDS
;	COMDAT ??_7MCoreZap@@6B@
CONST	SEGMENT DWORD USE32 PUBLIC 'CONST'
CONST	ENDS
;	COMDAT ??_7MSms_item@@6B@
CONST	SEGMENT DWORD USE32 PUBLIC 'CONST'
CONST	ENDS
;	COMDAT ??_7MRankGem@@6B@
CONST	SEGMENT DWORD USE32 PUBLIC 'CONST'
CONST	ENDS
;	COMDAT ??_7MLuckyBag@@6B@
CONST	SEGMENT DWORD USE32 PUBLIC 'CONST'
CONST	ENDS
;	COMDAT ??_7MPetEnchantItem@@6B@
CONST	SEGMENT DWORD USE32 PUBLIC 'CONST'
CONST	ENDS
;	COMDAT ??_7MPetFood@@6B@
CONST	SEGMENT DWORD USE32 PUBLIC 'CONST'
CONST	ENDS
;	COMDAT ??_7MPetItem@@6B@
CONST	SEGMENT DWORD USE32 PUBLIC 'CONST'
CONST	ENDS
;	COMDAT ??_7MSweeperItem@@6B@
CONST	SEGMENT DWORD USE32 PUBLIC 'CONST'
CONST	ENDS
;	COMDAT ??_7MMoonCardItem@@6B@
CONST	SEGMENT DWORD USE32 PUBLIC 'CONST'
CONST	ENDS
;	COMDAT ??_7MCodeSheetItem@@6B@
CONST	SEGMENT DWORD USE32 PUBLIC 'CONST'
CONST	ENDS
;	COMDAT ??_7MEffectItem@@6B@
CONST	SEGMENT DWORD USE32 PUBLIC 'CONST'
CONST	ENDS
;	COMDAT ??_7MOustersSummonGem@@6B@
CONST	SEGMENT DWORD USE32 PUBLIC 'CONST'
CONST	ENDS
;	COMDAT ??_7MOustersComposMei@@6B@
CONST	SEGMENT DWORD USE32 PUBLIC 'CONST'
CONST	ENDS
;	COMDAT ??_7MOustersPupa@@6B@
CONST	SEGMENT DWORD USE32 PUBLIC 'CONST'
CONST	ENDS
;	COMDAT ??_7MOustersLarva@@6B@
CONST	SEGMENT DWORD USE32 PUBLIC 'CONST'
CONST	ENDS
;	COMDAT ??_7MOustersWristlet@@6B@
CONST	SEGMENT DWORD USE32 PUBLIC 'CONST'
CONST	ENDS
;	COMDAT ??_7MOustersStone@@6B@
CONST	SEGMENT DWORD USE32 PUBLIC 'CONST'
CONST	ENDS
;	COMDAT ??_7MOustersRing@@6B@
CONST	SEGMENT DWORD USE32 PUBLIC 'CONST'
CONST	ENDS
;	COMDAT ??_7MOustersPendent@@6B@
CONST	SEGMENT DWORD USE32 PUBLIC 'CONST'
CONST	ENDS
;	COMDAT ??_7MOustersCoat@@6B@
CONST	SEGMENT DWORD USE32 PUBLIC 'CONST'
CONST	ENDS
;	COMDAT ??_7MOustersCirclet@@6B@
CONST	SEGMENT DWORD USE32 PUBLIC 'CONST'
CONST	ENDS
;	COMDAT ??_7MOustersChakram@@6B@
CONST	SEGMENT DWORD USE32 PUBLIC 'CONST'
CONST	ENDS
;	COMDAT ??_7MOustersBoots@@6B@
CONST	SEGMENT DWORD USE32 PUBLIC 'CONST'
CONST	ENDS
;	COMDAT ??_7MOustersArmsBand@@6BMSlotItemManager@@@
CONST	SEGMENT DWORD USE32 PUBLIC 'CONST'
CONST	ENDS
;	COMDAT ??_7MOustersArmsBand@@6BMArmorItem2@@@
CONST	SEGMENT DWORD USE32 PUBLIC 'CONST'
CONST	ENDS
;	COMDAT ??_7MMixingItem@@6B@
CONST	SEGMENT DWORD USE32 PUBLIC 'CONST'
CONST	ENDS
;	COMDAT ??_7MResurrectItem@@6B@
CONST	SEGMENT DWORD USE32 PUBLIC 'CONST'
CONST	ENDS
;	COMDAT ??_7MDyePotionItem@@6B@
CONST	SEGMENT DWORD USE32 PUBLIC 'CONST'
CONST	ENDS
;	COMDAT ??_7MEventItem@@6B@
CONST	SEGMENT DWORD USE32 PUBLIC 'CONST'
CONST	ENDS
;	COMDAT ??_7MVampireCoupleRing@@6B@
CONST	SEGMENT DWORD USE32 PUBLIC 'CONST'
CONST	ENDS
;	COMDAT ??_7MCoupleRing@@6B@
CONST	SEGMENT DWORD USE32 PUBLIC 'CONST'
CONST	ENDS
;	COMDAT ??_7MCastleSymbol@@6B@
CONST	SEGMENT DWORD USE32 PUBLIC 'CONST'
CONST	ENDS
;	COMDAT ??_7MBloodBible@@6B@
CONST	SEGMENT DWORD USE32 PUBLIC 'CONST'
CONST	ENDS
;	COMDAT ??_7MEventEtcItem@@6B@
CONST	SEGMENT DWORD USE32 PUBLIC 'CONST'
CONST	ENDS
;	COMDAT ??_7MEventTreeItem@@6B@
CONST	SEGMENT DWORD USE32 PUBLIC 'CONST'
CONST	ENDS
;	COMDAT ??_7MQuestItem@@6B@
CONST	SEGMENT DWORD USE32 PUBLIC 'CONST'
CONST	ENDS
;	COMDAT ??_7MVampireAmulet@@6B@
CONST	SEGMENT DWORD USE32 PUBLIC 'CONST'
CONST	ENDS
;	COMDAT ??_7MVampireWeapon@@6B@
CONST	SEGMENT DWORD USE32 PUBLIC 'CONST'
CONST	ENDS
;	COMDAT ??_7MEventStarItem@@6B@
CONST	SEGMENT DWORD USE32 PUBLIC 'CONST'
CONST	ENDS
;	COMDAT ??_7MEventGiftBoxItem@@6B@
CONST	SEGMENT DWORD USE32 PUBLIC 'CONST'
CONST	ENDS
;	COMDAT ??_7MVampirePortalItem@@6B@
CONST	SEGMENT DWORD USE32 PUBLIC 'CONST'
CONST	ENDS
;	COMDAT ??_7MSlayerPortalItem@@6B@
CONST	SEGMENT DWORD USE32 PUBLIC 'CONST'
CONST	ENDS
;	COMDAT ??_7MVampireETC@@6B@
CONST	SEGMENT DWORD USE32 PUBLIC 'CONST'
CONST	ENDS
;	COMDAT ??_7MSerum@@6B@
CONST	SEGMENT DWORD USE32 PUBLIC 'CONST'
CONST	ENDS
;	COMDAT ??_7MSkull@@6B@
CONST	SEGMENT DWORD USE32 PUBLIC 'CONST'
CONST	ENDS
;	COMDAT ??_7MVampireCoat@@6B@
CONST	SEGMENT DWORD USE32 PUBLIC 'CONST'
CONST	ENDS
;	COMDAT ??_7MVampireNecklace@@6B@
CONST	SEGMENT DWORD USE32 PUBLIC 'CONST'
CONST	ENDS
;	COMDAT ??_7MVampireBracelet@@6B@
CONST	SEGMENT DWORD USE32 PUBLIC 'CONST'
CONST	ENDS
;	COMDAT ??_7MVampireEarRing@@6B@
CONST	SEGMENT DWORD USE32 PUBLIC 'CONST'
CONST	ENDS
;	COMDAT ??_7MVampireRing@@6B@
CONST	SEGMENT DWORD USE32 PUBLIC 'CONST'
CONST	ENDS
;	COMDAT ??_7MMine@@6B@
CONST	SEGMENT DWORD USE32 PUBLIC 'CONST'
CONST	ENDS
;	COMDAT ??_7MBomb@@6B@
CONST	SEGMENT DWORD USE32 PUBLIC 'CONST'
CONST	ENDS
;	COMDAT ??_7MMoney@@6B@
CONST	SEGMENT DWORD USE32 PUBLIC 'CONST'
CONST	ENDS
;	COMDAT ??_7MLearningItem@@6B@
CONST	SEGMENT DWORD USE32 PUBLIC 'CONST'
CONST	ENDS
;	COMDAT ??_7MBombMaterial@@6B@
CONST	SEGMENT DWORD USE32 PUBLIC 'CONST'
CONST	ENDS
;	COMDAT ??_7MRelic@@6B@
CONST	SEGMENT DWORD USE32 PUBLIC 'CONST'
CONST	ENDS
;	COMDAT ??_7MKey@@6B@
CONST	SEGMENT DWORD USE32 PUBLIC 'CONST'
CONST	ENDS
;	COMDAT ??_7MMotorcycle@@6BMGridItemManager@@@
CONST	SEGMENT DWORD USE32 PUBLIC 'CONST'
CONST	ENDS
;	COMDAT ??_7MMotorcycle@@6BMItem@@@
CONST	SEGMENT DWORD USE32 PUBLIC 'CONST'
CONST	ENDS
;	COMDAT ??_7MItemETC@@6B@
CONST	SEGMENT DWORD USE32 PUBLIC 'CONST'
CONST	ENDS
;	COMDAT ??_7MGunTR@@6B@
CONST	SEGMENT DWORD USE32 PUBLIC 'CONST'
CONST	ENDS
;	COMDAT ??_7MGunAR@@6B@
CONST	SEGMENT DWORD USE32 PUBLIC 'CONST'
CONST	ENDS
;	COMDAT ??_7MGunSMG@@6B@
CONST	SEGMENT DWORD USE32 PUBLIC 'CONST'
CONST	ENDS
;	COMDAT ??_7MGunSG@@6B@
CONST	SEGMENT DWORD USE32 PUBLIC 'CONST'
CONST	ENDS
;	COMDAT ??_7MGunItem@@6B@
CONST	SEGMENT DWORD USE32 PUBLIC 'CONST'
CONST	ENDS
;	COMDAT ??_7MHelm@@6B@
CONST	SEGMENT DWORD USE32 PUBLIC 'CONST'
CONST	ENDS
;	COMDAT ??_7MGlove@@6B@
CONST	SEGMENT DWORD USE32 PUBLIC 'CONST'
CONST	ENDS
;	COMDAT ??_7MMace@@6B@
CONST	SEGMENT DWORD USE32 PUBLIC 'CONST'
CONST	ENDS
;	COMDAT ??_7MCross@@6B@
CONST	SEGMENT DWORD USE32 PUBLIC 'CONST'
CONST	ENDS
;	COMDAT ??_7MShield@@6B@
CONST	SEGMENT DWORD USE32 PUBLIC 'CONST'
CONST	ENDS
;	COMDAT ??_7MBlade@@6B@
CONST	SEGMENT DWORD USE32 PUBLIC 'CONST'
CONST	ENDS
;	COMDAT ??_7MSword@@6B@
CONST	SEGMENT DWORD USE32 PUBLIC 'CONST'
CONST	ENDS
;	COMDAT ??_7MWeaponItem@@6B@
CONST	SEGMENT DWORD USE32 PUBLIC 'CONST'
CONST	ENDS
;	COMDAT ??_7MShoes@@6B@
CONST	SEGMENT DWORD USE32 PUBLIC 'CONST'
CONST	ENDS
;	COMDAT ??_7MTrouser@@6B@
CONST	SEGMENT DWORD USE32 PUBLIC 'CONST'
CONST	ENDS
;	COMDAT ??_7MCoat@@6B@
CONST	SEGMENT DWORD USE32 PUBLIC 'CONST'
CONST	ENDS
;	COMDAT ??_7MNecklace@@6B@
CONST	SEGMENT DWORD USE32 PUBLIC 'CONST'
CONST	ENDS
;	COMDAT ??_7MBracelet@@6B@
CONST	SEGMENT DWORD USE32 PUBLIC 'CONST'
CONST	ENDS
;	COMDAT ??_7MRing@@6B@
CONST	SEGMENT DWORD USE32 PUBLIC 'CONST'
CONST	ENDS
;	COMDAT ??_7MMagazine@@6B@
CONST	SEGMENT DWORD USE32 PUBLIC 'CONST'
CONST	ENDS
;	COMDAT ??_7MHolyWater@@6B@
CONST	SEGMENT DWORD USE32 PUBLIC 'CONST'
CONST	ENDS
;	COMDAT ??_7MWater@@6B@
CONST	SEGMENT DWORD USE32 PUBLIC 'CONST'
CONST	ENDS
;	COMDAT ??_7MUsePotionItem@@6B@
CONST	SEGMENT DWORD USE32 PUBLIC 'CONST'
CONST	ENDS
;	COMDAT ??_7MPotion@@6B@
CONST	SEGMENT DWORD USE32 PUBLIC 'CONST'
CONST	ENDS
;	COMDAT ??_7MBelt@@6BMSlotItemManager@@@
CONST	SEGMENT DWORD USE32 PUBLIC 'CONST'
CONST	ENDS
;	COMDAT ??_7MBelt@@6BMArmorItem2@@@
CONST	SEGMENT DWORD USE32 PUBLIC 'CONST'
CONST	ENDS
;	COMDAT ??_7MAccessoryItem@@6B@
CONST	SEGMENT DWORD USE32 PUBLIC 'CONST'
CONST	ENDS
;	COMDAT ??_7MArmorItem2@@6B@
CONST	SEGMENT DWORD USE32 PUBLIC 'CONST'
CONST	ENDS
;	COMDAT ??_7MArmorItem@@6B@
CONST	SEGMENT DWORD USE32 PUBLIC 'CONST'
CONST	ENDS
;	COMDAT ??_7MPileItem@@6B@
CONST	SEGMENT DWORD USE32 PUBLIC 'CONST'
CONST	ENDS
;	COMDAT ??_7MGearItem@@6B@
CONST	SEGMENT DWORD USE32 PUBLIC 'CONST'
CONST	ENDS
;	COMDAT ??9_Rb_tree_base_iterator@_STL@@QBE_NABU01@@Z
_TEXT	SEGMENT PARA USE32 PUBLIC 'CODE'
_TEXT	ENDS
;	COMDAT ??8_Rb_tree_base_iterator@_STL@@QBE_NABU01@@Z
_TEXT	SEGMENT PARA USE32 PUBLIC 'CODE'
_TEXT	ENDS
;	COMDAT ??_7MObject@@6B@
CONST	SEGMENT DWORD USE32 PUBLIC 'CONST'
CONST	ENDS
;	COMDAT ??_7ovfstream@@6B@
CONST	SEGMENT DWORD USE32 PUBLIC 'CONST'
CONST	ENDS
;	COMDAT ??_7ivfstream@@6B@
CONST	SEGMENT DWORD USE32 PUBLIC 'CONST'
CONST	ENDS
;	COMDAT ??0?$basic_string@DV?$char_traits@D@_STL@@V?$allocator@D@2@@_STL@@QAE@XZ
_TEXT	SEGMENT PARA USE32 PUBLIC 'CODE'
_TEXT	ENDS
;	COMDAT ??0?$allocator@D@_STL@@QAE@XZ
_TEXT	SEGMENT PARA USE32 PUBLIC 'CODE'
_TEXT	ENDS
;	COMDAT ??1?$_String_base@DV?$allocator@D@_STL@@@_STL@@QAE@XZ
_TEXT	SEGMENT PARA USE32 PUBLIC 'CODE'
_TEXT	ENDS
;	COMDAT ??1?$basic_string@DV?$char_traits@D@_STL@@V?$allocator@D@2@@_STL@@QAE@XZ
_TEXT	SEGMENT PARA USE32 PUBLIC 'CODE'
_TEXT	ENDS
;	COMDAT ??_7iovfs_base@@6B@
CONST	SEGMENT DWORD USE32 PUBLIC 'CONST'
CONST	ENDS
;	COMDAT ??_7IFileIO@@6B@
CONST	SEGMENT DWORD USE32 PUBLIC 'CONST'
CONST	ENDS
sxdata	SEGMENT DWORD USE32 'SXDATA'
sxdata	ENDS
FLAT	GROUP _DATA, CONST, _BSS
	ASSUME	CS: FLAT, DS: FLAT, SS: FLAT
endif

INCLUDELIB LIBCMT
INCLUDELIB OLDNAMES

PUBLIC	??_C@_0BF@LGMBKJD@?$LP?$MA?E?d?$LJ?Y?$MA?L?$CIMotorcycle?$CJ?$AA@ ; `string'
PUBLIC	??_C@_0N@MCEEAHBF@?F?w?$LM?G?$CIPotion?$CJ?$AA@	; `string'
PUBLIC	??_C@_0M@CIOIGDBO@?$LP?v?E?M?$CIWater?$CJ?$AA@	; `string'
PUBLIC	??_C@_0BA@OGGLPNNH@?$LM?$LK?$LM?v?$CIHolywater?$CJ?$AA@ ; `string'
PUBLIC	??_C@_0N@JDGLKMJB@?C?Q?$CIMagazine?$CJ?$AA@	; `string'
PUBLIC	??_C@_0BI@PMGPIHGL@?F?x?E?$LK?A?$KG?A?$LG?$CIBomb?5Material?$CJ?$AA@ ; `string'
PUBLIC	??_C@_09NJDLBLEM@?$LB?b?E?$LI?$CIEtc?$CJ?$AA@	; `string'
PUBLIC	??_C@_0BA@OCBGHLKD@?$LP?$MA?E?d?$LJ?Y?$MA?L?E?$LA?$CIKey?$CJ?$AA@ ; `string'
PUBLIC	??_C@_0L@HHPIAJGP@?$LJ?$NN?A?v?$CIRing?$CJ?$AA@	; `string'
PUBLIC	??_C@_0BF@NKNDJDCL@?$LK?j?$LH?$LJ?$MA?L?$LN?$LN?$LI?$LE?$CIBracelet?$CJ?$AA@ ; `string'
PUBLIC	??_C@_0BD@EEKDAEIF@?$LD?W?E?$KJ?$LI?$KO?$LN?$LK?$CINecklace?$CJ?$AA@ ; `string'
PUBLIC	??_C@_0L@EDPJKBLJ@?D?Z?F?$KO?$CICoat?$CJ?$AA@	; `string'
PUBLIC	??_C@_0O@DGFMCIMG@?$LJ?Y?A?v?$CITrouser?$CJ?$AA@ ; `string'
PUBLIC	??_C@_0M@NOKKGGAC@?$LN?E?$LJ?$NP?$CIShoes?$CJ?$AA@ ; `string'
PUBLIC	??_C@_09FHFEECAJ@?$LA?K?$CISword?$CJ?$AA@	; `string'
PUBLIC	??_C@_09OKCECIDN@?$LF?$LF?$CIBlade?$CJ?$AA@	; `string'
PUBLIC	??_C@_0N@DPDAHAMA@?$LJ?f?F?P?$CIShield?$CJ?$AA@	; `string'
PUBLIC	??_C@_0O@MAMEHFBK@?E?$KJ?$LH?N?$LN?$LK?$CICross?$CJ?$AA@ ; `string'
PUBLIC	??_C@_0O@KJNPLHE@?$LB?$NL?$LH?$KP?$LK?j?$CIGlove?$CJ?$AA@ ; `string'
PUBLIC	??_C@_0L@BFBHOAOG@?G?o?$LI?d?$CIHelm?$CJ?$AA@	; `string'
PUBLIC	??_C@_0BA@PJIMNBHN@?$LN?$LN?$LH?$LJ?$MA?L?$LO?n?5?C?Q?$CISG?$CJ?$AA@ ; `string'
PUBLIC	??_C@_0BB@EHPPBIPF@?$LN?$LN?$LH?$LJ?$MA?L?$LO?n?5?C?Q?$CISMG?$CJ?$AA@ ; `string'
PUBLIC	??_C@_0BA@BJHBCPPC@?$LN?$LN?$LH?$LJ?$MA?L?$LO?n?5?C?Q?$CIAR?$CJ?$AA@ ; `string'
PUBLIC	??_C@_0BA@ODGBLAOG@?$LN?$LN?$LH?$LJ?$MA?L?$LO?n?5?C?Q?$CISR?$CJ?$AA@ ; `string'
PUBLIC	??_C@_0BE@EIPICMLP@?$LN?$LN?$LH?$LJ?$MA?L?$LO?n?5?F?x?E?$LK?$CIBOMB?$CJ?$AA@ ; `string'
PUBLIC	??_C@_0L@JGDDEPOI@MINE?$CIMine?$CJ?$AA@		; `string'
PUBLIC	??_C@_0L@JPJMMFLN@?$LK?$KH?F?$KO?$CIBelt?$CJ?$AA@ ; `string'
PUBLIC	??_C@_0BJ@JLHHGBEK@?G?P?$LN?$MA?$LO?F?$MA?L?E?$NL?$CILearningItem?$CJ?$AA@ ; `string'
PUBLIC	??_C@_09JLNOKIFM@?$LF?$LH?$CIMoney?$CJ?$AA@	; `string'
PUBLIC	??_C@_0N@LECCDGPD@?$LN?C?C?$LM?$CICorpse?$CJ?$AA@ ; `string'
PUBLIC	??_C@_0BK@OHHAJJJO@?$LJ?l?F?D?$MA?L?$LO?n?5?$LI?$LF?$CIVampire?5Ring?$CJ?$AA@ ; `string'
PUBLIC	??_C@_0CG@IDFEMGDC@?$LJ?l?F?D?$MA?L?$LO?n?5?$LK?j?$LH?$LJ?$MA?L?$LN?$LN?$LI?$LE?$CIVampire?5Brac@ ; `string'
PUBLIC	??_C@_0CE@JNIALBCG@?$LJ?l?F?D?$MA?L?$LO?n?5?$LD?W?E?$KJ?$LI?$KO?$LN?$LK?$CIVampire?5Neckla@ ; `string'
PUBLIC	??_C@_0BM@CHKEGMDJ@?$LJ?l?F?D?$MA?L?$LO?n?5?D?Z?F?$KO?$CIVampire?5Coat?$CJ?$AA@ ; `string'
PUBLIC	??_C@_0M@FCFKCOK@?G?X?$LA?q?$CISkull?$CJ?$AA@	; `string'
PUBLIC	??_C@_0N@ENCOJFFJ@?$LI?$NO?$MA?L?$LN?$LK?$CIMace?$CJ?$AA@ ; `string'
PUBLIC	??_C@_0M@OCHKKBLL@?G?w?C?$LL?$CISerum?$CJ?$AA@	; `string'
PUBLIC	??_C@_0BL@FNHGDHKN@?$LJ?l?F?D?$MA?L?$LO?n?5?$LB?b?E?$LI?$CIVampire?5Etc?$CJ?$AA@ ; `string'
PUBLIC	??_C@_0BN@BCKOECP@?$LN?$LN?$LH?$LJ?$MA?L?$LO?n?5?F?w?E?$LL?$CISlayer?5Portal?$CJ?$AA@ ; `string'
PUBLIC	??_C@_0BO@EHLLPAGA@?$LJ?l?F?D?$MA?L?$LO?n?5?F?w?E?$LL?$CIVampire?5Portal?$CJ?$AA@ ; `string'
PUBLIC	??_C@_0BM@EBOGENEK@?$MA?L?$LK?$KF?F?$KO?5?$LJ?Z?$LN?$LK?$CIEvent?5Gift?5Box?$CJ?$AA@ ; `string'
PUBLIC	??_C@_0BI@CGDIOKMJ@?$MA?L?$LK?$KF?F?$KO?5?$LN?$LK?E?$LI?$CIEvent?5Star?$CJ?$AA@ ; `string'
PUBLIC	??_C@_0CB@DDDPANMB@?$LJ?l?F?D?$MA?L?$LO?n?5?$LB?M?$LA?I?$MA?L?$CIVampire?5Earring?$CJ@ ; `string'
PUBLIC	??_C@_0M@FOFHBIKD@?$MA?$KP?$LJ?$LA?$CIRelic?$CJ?$AA@ ; `string'
PUBLIC	??_C@_0BO@OFMMIION@?$LJ?l?F?D?$MA?L?$LO?n?5?$LJ?$KL?$LB?b?$CIVampire?5Weapon?$CJ?$AA@ ; `string'
PUBLIC	??_C@_0CA@CBFMIFJL@?$LJ?l?F?D?$MA?L?$LO?n?5?$LO?F?$LJ?D?$LH?$LP?$CIVampire?5Amulet?$CJ?$AA@ ; `string'
PUBLIC	??_C@_0BK@KIPPCBIN@?D?y?$LN?$LK?F?$KO?5?$LO?F?$MA?L?E?$NL?$CIQuest?5Item?$CJ?$AA@ ; `string'
PUBLIC	??_C@_0BI@NMAPKBIE@?$MA?L?$LK?$KF?F?$KO?5?$LD?$KK?$LJ?$KL?$CIEvent?5Tree?$CJ?$AA@ ; `string'
PUBLIC	??_C@_0BH@PADBDEPC@?$MA?L?$LK?$KF?F?$KO?5?$LB?b?E?$LI?$CIEvent?5Etc?$CJ?$AA@ ; `string'
PUBLIC	??_C@_0BH@HLENPLIP@?G?G?$MA?G?5?$LM?$LK?$LM?$KN?$CIBlood?5Bible?$CJ?$AA@ ; `string'
PUBLIC	??_C@_0BJ@GFCLCGHO@?$LM?$LK?5?$LL?s?B?$KB?$LJ?$LA?$CICastle?5Symbol?$CJ?$AA@ ; `string'
PUBLIC	??_C@_0BE@BFGNFFKD@?D?$LP?G?C?$LI?$LF?$CICouple?5Ring?$CJ?$AA@ ; `string'
PUBLIC	??_C@_0BN@KFCDDFNO@?$LJ?l?F?D?$MA?L?$LO?n?5?D?$LP?G?C?$LI?$LF?$CICouple?5Ring?$CJ?$AA@ ; `string'
PUBLIC	??_C@_0BK@LJHNHLAD@?$MA?L?$LK?$KF?F?$KO?5?$LO?F?$MA?L?E?$NL?$CIEvent?5Item?$CJ?$AA@ ; `string'
PUBLIC	??_C@_0BB@PGMCBEGB@?$LP?$LA?$LH?a?$CIDye?5Potion?$CJ?$AA@ ; `string'
PUBLIC	??_C@_0BM@PLIMEBKI@?$LK?N?H?$LA?5?$LO?F?$MA?L?E?$NL?$CIResurrect?5Item?$CJ?$AA@ ; `string'
PUBLIC	??_C@_0BJ@CIPEIBLN@?$LJ?M?$LN?L?5?$LO?F?$MA?L?E?$NL?$CIMixing?5Item?$CJ?$AA@ ; `string'
PUBLIC	??_C@_0CG@FFJBGKKJ@?$LO?F?$LP?l?$LN?$LK?E?M?A?n?5?$LO?O?$LN?$LK?$LJ?j?$LF?e?$CIOusters?5Arms@ ; `string'
PUBLIC	??_C@_0BP@LFDHIKMD@?$LO?F?$LP?l?$LN?$LK?E?M?A?n?5?$LK?N?C?w?$CIOusters?5Boots?$CJ?$AA@ ; `string'
PUBLIC	??_C@_0CD@EMDMEEEH@?$LO?F?$LP?l?$LN?$LK?E?M?A?n?5?C?$KN?E?$KJ?$LG?w?$CIOusters?5Chakra@ ; `string'
PUBLIC	??_C@_0CD@EHEHLAFE@?$LO?F?$LP?l?$LN?$LK?E?M?A?n?5?$LM?$KN?E?$KM?$LI?$LE?$CIOusters?5Circle@ ; `string'
PUBLIC	??_C@_0BO@OGBEGNBB@?$LO?F?$LP?l?$LN?$LK?E?M?A?n?5?D?Z?F?$KO?$CIOusters?5Coat?$CJ?$AA@ ; `string'
PUBLIC	??_C@_0CD@NHFKMPPA@?$LO?F?$LP?l?$LN?$LK?E?M?A?n?5?F?R?$LE?x?F?$KO?$CIOusters?5Penden@ ; `string'
PUBLIC	??_C@_0BO@NCMOFEPN@?$LO?F?$LP?l?$LN?$LK?E?M?A?n?5?$LJ?$NN?A?v?$CIOusters?5Ring?$CJ?$AA@ ; `string'
PUBLIC	??_C@_0BP@NEOJGDCE@?$LO?F?$LP?l?$LN?$LK?E?M?A?n?5?$LN?$LK?E?f?$CIOusters?5Stone?$CJ?$AA@ ; `string'
PUBLIC	??_C@_0CG@LPDHABLE@?$LO?F?$LP?l?$LN?$LK?E?M?A?n?5?$LI?$KO?$LN?$LK?F?$LC?$LI?$LE?$CIOusters?5Wris@ ; `string'
PUBLIC	??_C@_0M@GPBKFLGK@?$LG?s?$LJ?Y?$CILarva?$CJ?$AA@ ; `string'
PUBLIC	??_C@_0L@DACDFACE@?G?$KK?F?D?$CIPupa?$CJ?$AA@	; `string'
PUBLIC	??_C@_0BB@EODBKKBJ@?$LI?$NO?$MA?L?$CICompos?5Mei?$CJ?$AA@ ; `string'
PUBLIC	??_C@_0CD@CAGAMFFG@?$LO?F?$LP?l?$LN?$LK?E?M?A?n?5?A?$KK?$CIOusters?5Summon?5Ite@ ; `string'
PUBLIC	??_C@_0BJ@KFGOEMKG@?H?$LP?$LA?z?5?$LO?F?$MA?L?E?$NL?$CIEffect?5Item?$CJ?$AA@ ; `string'
PUBLIC	??_C@_0BE@HJOJCNGC@?D?Z?$LF?e?5?G?$KF?$CICode?5Sheet?$CJ?$AA@ ; `string'
PUBLIC	??_C@_0BF@FFHGJFI@?$LE?$NO?$MA?G?5?D?$KL?$LF?e?$CIMoon?5Card?$CJ?$AA@ ; `string'
PUBLIC	??_C@_0BA@LLOAIPKA@?$LN?$LK?$MA?$KH?F?$NL?$CISweeper?$CJ?$AA@ ; `string'
PUBLIC	??_C@_0BE@BIPNBNG@?F?j?5?$LO?F?$MA?L?E?$NL?$CIPet?5Item?$CJ?$AA@ ; `string'
PUBLIC	??_C@_0BC@IJGKNNI@?F?j?5?$LI?T?$MA?L?$CIPet?5Food?$CJ?$AA@ ; `string'
PUBLIC	??_C@_0BH@GJDAMLBE@?F?j?5?$MA?N?C?$LO?F?$KO?$CIPet?5Enchant?$CJ?$AA@ ; `string'
PUBLIC	??_C@_0BF@JKPKDELO@?$LK?$LJ?5?A?V?$LI?S?$LE?O?$CILucky?5Bag?$CJ?$AA@ ; `string'
PUBLIC	??_C@_0BG@COHMFFFK@?$MA?$PM?$LM?$NL?5?$LO?F?$MA?L?E?$NL?$CISms?5Item?$CJ?$AA@ ; `string'
PUBLIC	??_C@_0BB@CCAKECMG@?D?Z?$LO?n?$MA?l?$CICore?5Zap?$CJ?$AA@ ; `string'
PUBLIC	??_C@_0BH@NKBBFAOF@?G?T?A?$KE?5?$LO?F?$MA?L?E?$NL?$CITrap?5Item?$CJ?$AA@ ; `string'
PUBLIC	??_C@_0BO@KIHEKAFG@?G?G?$MA?G?5?$LA?h?$LO?$OA?$LM?$KN?$CIBlood?5Bible?5Sign?$CJ?$AA@ ; `string'
PUBLIC	??_C@_0BG@MNFDCAIF@?$MA?$PM?$MA?o?5?$LO?F?$MA?L?E?$NL?$CIWar?5Item?$CJ?$AA@ ; `string'
PUBLIC	??_C@_0CD@NEBFGDOI@2?B?w?5?$MA?$PM?A?w?5?$LO?F?$MA?L?E?$NL?$CICarrying?5Receive@ ; `string'
PUBLIC	??_C@_0BK@LFPPGHAG@?$LO?n?$LB?z?5?$LA?$KJ?$LP?J?$CIShoulder?5Armor?$CJ?$AA@ ; `string'
PUBLIC	??_C@_0N@FBJGEDKA@?G?G?$LK?N?$CIDermis?$CJ?$AA@	; `string'
PUBLIC	??_C@_0BC@GHMCIKMF@?F?d?$LI?$KD?$LM?R?$LD?$KK?$CIPersona?$CJ?$AA@ ; `string'
PUBLIC	??_C@_0P@EBINHADL@?F?d?$MA?L?$LL?$PO?$CIFascia?$CJ?$AA@ ; `string'
PUBLIC	??_C@_0N@DEBFKPDI@?$MA?e?$LA?$KJ?$CIMitten?$CJ?$AA@ ; `string'
PUBLIC	??_C@_0BN@ODEGHBGC@?$LM?$KN?$LK?j?5?$MA?N?$LK?$KF?E?d?$LI?$KO?$CISub?5Inventory?$CJ?$AA@ ; `string'
PUBLIC	??_C@_0BP@CJPMIEBF@?D?$LP?$LI?s?5?D?y?$LN?$LK?F?$KO?$CICommon?5Quest?5Item?$CJ?$AA@ ; `string'
PUBLIC	??_C@_0BO@NHDMHMBF@?$LP?$KB?E?W?$LI?$KO?$LO?s?5?C?$LM?$MA?N?$CIEthereal?5Chain?$CJ?$AA@ ; `string'
PUBLIC	??_C@_0CA@JDGMJEMI@?$LA?a?$LM?S?$MA?G?5?F?f?$LE?x?F?$KO?$CIHarmonic?5Pendent?$CJ?$AA@ ; `string'
PUBLIC	??_C@_0BC@FPPFLIBD@?$LM?v?G?$KF?$CICheck?5Money?$CJ?$AA@ ; `string'
PUBLIC	??_C@_0BK@GMHLCFHP@?E?$KF?5?$LP?$MA?$LK?j?5?$LO?F?$LE?c?$CICue?5Of?5Adam?$CJ?$AA@ ; `string'
PUBLIC	??_C@_0BP@PEIAKPEO@?G?G?$MA?G?5?$LA?h?$LO?$OA?$LM?$KN?$CIContract?5Of?5Blood?$CJ?$AA@ ; `string'
PUBLIC	??_C@_0BD@KAHKONNF@?$LN?$LK?E?$LD?$LK?O?$CISkill?5Book?$CJ?$AA@ ; `string'
PUBLIC	??_C@_0CI@FBPNNIJE@?$LJ?l?F?D?$MA?L?$LO?n?5?$LN?E?$LB?T?$MA?L?$LF?$LP?$LM?v?$LE?$NM?$CIVampirewin@ ; `string'
PUBLIC	??_C@_0CK@LPDIDGDG@?$LO?F?$LP?l?$LN?$LK?E?M?A?n?5?$LN?E?$LB?T?$MA?L?$LF?$LP?$LM?v?$LE?$NM?$CIOustersw@ ; `string'
PUBLIC	??_C@_0CD@JFCNBGKC@?F?$KJ?$LE?W?$LO?F?$MA?L?E?$NL?9?$LN?$LN?$LH?$LJ?$MA?L?$LO?n?$CITuning?5Slaye@ ; `string'
PUBLIC	??_C@_0CE@FGKLHLFP@?F?$KJ?$LE?W?$LO?F?$MA?L?E?$NL?9?$LJ?l?F?D?$MA?L?$LO?n?$CITuning?5Vampi@ ; `string'
PUBLIC	??_C@_0CG@CODFJBGO@?F?$KJ?$LE?W?$LO?F?$MA?L?E?$NL?9?$LO?F?$LP?l?$LN?$LK?E?M?A?n?$CITuning?5Ous@ ; `string'
PUBLIC	??_C@_0BN@PKEMEDFK@?D?$NN?$LP?$KD?G?G?$LN?C?$LO?F?$MA?L?E?$NL?$CICallNPC?5item?$CJ?$AA@ ; `string'
PUBLIC	??_C@_0BD@ENBONDBM@?$LN?W?$LM?$LG?$LB?$KG?J?$KP?$CIRank?5Gem?$CJ?$AA@ ; `string'
PUBLIC	?g_pItemTable@@3PAVITEMCLASS_TABLE@@A		; g_pItemTable
PUBLIC	??_C@_0O@JKENFCBN@MinTrace?52003?$AA@		; `string'
PUBLIC	??_C@_0BE@MNEJIGLM@__MinTrace?5Window__?$AA@	; `string'
PUBLIC	?g_ELEMENTAL_COLOR@@3PAKA			; g_ELEMENTAL_COLOR
PUBLIC	?g_ELEMENTAL_STRING_ID@@3PAHA			; g_ELEMENTAL_STRING_ID
_BSS	SEGMENT
?g_pItemTable@@3PAVITEMCLASS_TABLE@@A DD 01H DUP (?)	; g_pItemTable
_BSS	ENDS
;	COMDAT ??_C@_0BF@LGMBKJD@?$LP?$MA?E?d?$LJ?Y?$MA?L?$CIMotorcycle?$CJ?$AA@
CONST	SEGMENT
??_C@_0BF@LGMBKJD@?$LP?$MA?E?d?$LJ?Y?$MA?L?$CIMotorcycle?$CJ?$AA@ DB 0bfH
	DB	0c0H, 0c5H, 0e4H, 0b9H, 0d9H, 0c0H, 0ccH, '(Motorcycle)', 00H ; `string'
CONST	ENDS
;	COMDAT ??_C@_0N@MCEEAHBF@?F?w?$LM?G?$CIPotion?$CJ?$AA@
CONST	SEGMENT
??_C@_0N@MCEEAHBF@?F?w?$LM?G?$CIPotion?$CJ?$AA@ DB 0c6H, 0f7H, 0bcH, 0c7H
	DB	'(Potion)', 00H				; `string'
CONST	ENDS
;	COMDAT ??_C@_0M@CIOIGDBO@?$LP?v?E?M?$CIWater?$CJ?$AA@
CONST	SEGMENT
??_C@_0M@CIOIGDBO@?$LP?v?E?M?$CIWater?$CJ?$AA@ DB 0bfH, 0f6H, 0c5H, 0cdH, '('
	DB	'Water)', 00H				; `string'
CONST	ENDS
;	COMDAT ??_C@_0BA@OGGLPNNH@?$LM?$LK?$LM?v?$CIHolywater?$CJ?$AA@
CONST	SEGMENT
??_C@_0BA@OGGLPNNH@?$LM?$LK?$LM?v?$CIHolywater?$CJ?$AA@ DB 0bcH, 0baH, 0bcH
	DB	0f6H, '(Holywater)', 00H			; `string'
CONST	ENDS
;	COMDAT ??_C@_0N@JDGLKMJB@?C?Q?$CIMagazine?$CJ?$AA@
CONST	SEGMENT
??_C@_0N@JDGLKMJB@?C?Q?$CIMagazine?$CJ?$AA@ DB 0c3H, 0d1H, '(Magazine)', 00H ; `string'
CONST	ENDS
;	COMDAT ??_C@_0BI@PMGPIHGL@?F?x?E?$LK?A?$KG?A?$LG?$CIBomb?5Material?$CJ?$AA@
CONST	SEGMENT
??_C@_0BI@PMGPIHGL@?F?x?E?$LK?A?$KG?A?$LG?$CIBomb?5Material?$CJ?$AA@ DB 0c6H
	DB	0f8H, 0c5H, 0baH, 0c1H, 0a6H, 0c1H, 0b6H, '(Bomb Material)', 00H ; `string'
CONST	ENDS
;	COMDAT ??_C@_09NJDLBLEM@?$LB?b?E?$LI?$CIEtc?$CJ?$AA@
CONST	SEGMENT
??_C@_09NJDLBLEM@?$LB?b?E?$LI?$CIEtc?$CJ?$AA@ DB 0b1H, 0e2H, 0c5H, 0b8H, '('
	DB	'Etc)', 00H					; `string'
CONST	ENDS
;	COMDAT ??_C@_0BA@OCBGHLKD@?$LP?$MA?E?d?$LJ?Y?$MA?L?E?$LA?$CIKey?$CJ?$AA@
CONST	SEGMENT
??_C@_0BA@OCBGHLKD@?$LP?$MA?E?d?$LJ?Y?$MA?L?E?$LA?$CIKey?$CJ?$AA@ DB 0bfH
	DB	0c0H, 0c5H, 0e4H, 0b9H, 0d9H, 0c0H, 0ccH, 0c5H, 0b0H, '(Key)', 00H ; `string'
CONST	ENDS
;	COMDAT ??_C@_0L@HHPIAJGP@?$LJ?$NN?A?v?$CIRing?$CJ?$AA@
CONST	SEGMENT
??_C@_0L@HHPIAJGP@?$LJ?$NN?A?v?$CIRing?$CJ?$AA@ DB 0b9H, 0ddH, 0c1H, 0f6H
	DB	'(Ring)', 00H				; `string'
CONST	ENDS
;	COMDAT ??_C@_0BF@NKNDJDCL@?$LK?j?$LH?$LJ?$MA?L?$LN?$LN?$LI?$LE?$CIBracelet?$CJ?$AA@
CONST	SEGMENT
??_C@_0BF@NKNDJDCL@?$LK?j?$LH?$LJ?$MA?L?$LN?$LN?$LI?$LE?$CIBracelet?$CJ?$AA@ DB 0baH
	DB	0eaH, 0b7H, 0b9H, 0c0H, 0ccH, 0bdH, 0bdH, 0b8H, 0b4H, '(Bracel'
	DB	'et)', 00H					; `string'
CONST	ENDS
;	COMDAT ??_C@_0BD@EEKDAEIF@?$LD?W?E?$KJ?$LI?$KO?$LN?$LK?$CINecklace?$CJ?$AA@
CONST	SEGMENT
??_C@_0BD@EEKDAEIF@?$LD?W?E?$KJ?$LI?$KO?$LN?$LK?$CINecklace?$CJ?$AA@ DB 0b3H
	DB	0d7H, 0c5H, 0a9H, 0b8H, 0aeH, 0bdH, 0baH, '(Necklace)', 00H ; `string'
CONST	ENDS
;	COMDAT ??_C@_0L@EDPJKBLJ@?D?Z?F?$KO?$CICoat?$CJ?$AA@
CONST	SEGMENT
??_C@_0L@EDPJKBLJ@?D?Z?F?$KO?$CICoat?$CJ?$AA@ DB 0c4H, 0daH, 0c6H, 0aeH, '('
	DB	'Coat)', 00H					; `string'
CONST	ENDS
;	COMDAT ??_C@_0O@DGFMCIMG@?$LJ?Y?A?v?$CITrouser?$CJ?$AA@
CONST	SEGMENT
??_C@_0O@DGFMCIMG@?$LJ?Y?A?v?$CITrouser?$CJ?$AA@ DB 0b9H, 0d9H, 0c1H, 0f6H
	DB	'(Trouser)', 00H				; `string'
CONST	ENDS
;	COMDAT ??_C@_0M@NOKKGGAC@?$LN?E?$LJ?$NP?$CIShoes?$CJ?$AA@
CONST	SEGMENT
??_C@_0M@NOKKGGAC@?$LN?E?$LJ?$NP?$CIShoes?$CJ?$AA@ DB 0bdH, 0c5H, 0b9H, 0dfH
	DB	'(Shoes)', 00H				; `string'
CONST	ENDS
;	COMDAT ??_C@_09FHFEECAJ@?$LA?K?$CISword?$CJ?$AA@
CONST	SEGMENT
??_C@_09FHFEECAJ@?$LA?K?$CISword?$CJ?$AA@ DB 0b0H, 0cbH, '(Sword)', 00H ; `string'
CONST	ENDS
;	COMDAT ??_C@_09OKCECIDN@?$LF?$LF?$CIBlade?$CJ?$AA@
CONST	SEGMENT
??_C@_09OKCECIDN@?$LF?$LF?$CIBlade?$CJ?$AA@ DB 0b5H, 0b5H, '(Blade)', 00H ; `string'
CONST	ENDS
;	COMDAT ??_C@_0N@DPDAHAMA@?$LJ?f?F?P?$CIShield?$CJ?$AA@
CONST	SEGMENT
??_C@_0N@DPDAHAMA@?$LJ?f?F?P?$CIShield?$CJ?$AA@ DB 0b9H, 0e6H, 0c6H, 0d0H
	DB	'(Shield)', 00H				; `string'
CONST	ENDS
;	COMDAT ??_C@_0O@MAMEHFBK@?E?$KJ?$LH?N?$LN?$LK?$CICross?$CJ?$AA@
CONST	SEGMENT
??_C@_0O@MAMEHFBK@?E?$KJ?$LH?N?$LN?$LK?$CICross?$CJ?$AA@ DB 0c5H, 0a9H, 0b7H
	DB	0ceH, 0bdH, 0baH, '(Cross)', 00H		; `string'
CONST	ENDS
;	COMDAT ??_C@_0O@KJNPLHE@?$LB?$NL?$LH?$KP?$LK?j?$CIGlove?$CJ?$AA@
CONST	SEGMENT
??_C@_0O@KJNPLHE@?$LB?$NL?$LH?$KP?$LK?j?$CIGlove?$CJ?$AA@ DB 0b1H, 0dbH, 0b7H
	DB	0afH, 0baH, 0eaH, '(Glove)', 00H		; `string'
CONST	ENDS
;	COMDAT ??_C@_0L@BFBHOAOG@?G?o?$LI?d?$CIHelm?$CJ?$AA@
CONST	SEGMENT
??_C@_0L@BFBHOAOG@?G?o?$LI?d?$CIHelm?$CJ?$AA@ DB 0c7H, 0efH, 0b8H, 0e4H, '('
	DB	'Helm)', 00H					; `string'
CONST	ENDS
;	COMDAT ??_C@_0BA@PJIMNBHN@?$LN?$LN?$LH?$LJ?$MA?L?$LO?n?5?C?Q?$CISG?$CJ?$AA@
CONST	SEGMENT
??_C@_0BA@PJIMNBHN@?$LN?$LN?$LH?$LJ?$MA?L?$LO?n?5?C?Q?$CISG?$CJ?$AA@ DB 0bdH
	DB	0bdH, 0b7H, 0b9H, 0c0H, 0ccH, 0beH, 0eeH, ' ', 0c3H, 0d1H, '(S'
	DB	'G)', 00H					; `string'
CONST	ENDS
;	COMDAT ??_C@_0BB@EHPPBIPF@?$LN?$LN?$LH?$LJ?$MA?L?$LO?n?5?C?Q?$CISMG?$CJ?$AA@
CONST	SEGMENT
??_C@_0BB@EHPPBIPF@?$LN?$LN?$LH?$LJ?$MA?L?$LO?n?5?C?Q?$CISMG?$CJ?$AA@ DB 0bdH
	DB	0bdH, 0b7H, 0b9H, 0c0H, 0ccH, 0beH, 0eeH, ' ', 0c3H, 0d1H, '(S'
	DB	'MG)', 00H					; `string'
CONST	ENDS
;	COMDAT ??_C@_0BA@BJHBCPPC@?$LN?$LN?$LH?$LJ?$MA?L?$LO?n?5?C?Q?$CIAR?$CJ?$AA@
CONST	SEGMENT
??_C@_0BA@BJHBCPPC@?$LN?$LN?$LH?$LJ?$MA?L?$LO?n?5?C?Q?$CIAR?$CJ?$AA@ DB 0bdH
	DB	0bdH, 0b7H, 0b9H, 0c0H, 0ccH, 0beH, 0eeH, ' ', 0c3H, 0d1H, '(A'
	DB	'R)', 00H					; `string'
CONST	ENDS
;	COMDAT ??_C@_0BA@ODGBLAOG@?$LN?$LN?$LH?$LJ?$MA?L?$LO?n?5?C?Q?$CISR?$CJ?$AA@
CONST	SEGMENT
??_C@_0BA@ODGBLAOG@?$LN?$LN?$LH?$LJ?$MA?L?$LO?n?5?C?Q?$CISR?$CJ?$AA@ DB 0bdH
	DB	0bdH, 0b7H, 0b9H, 0c0H, 0ccH, 0beH, 0eeH, ' ', 0c3H, 0d1H, '(S'
	DB	'R)', 00H					; `string'
CONST	ENDS
;	COMDAT ??_C@_0BE@EIPICMLP@?$LN?$LN?$LH?$LJ?$MA?L?$LO?n?5?F?x?E?$LK?$CIBOMB?$CJ?$AA@
CONST	SEGMENT
??_C@_0BE@EIPICMLP@?$LN?$LN?$LH?$LJ?$MA?L?$LO?n?5?F?x?E?$LK?$CIBOMB?$CJ?$AA@ DB 0bdH
	DB	0bdH, 0b7H, 0b9H, 0c0H, 0ccH, 0beH, 0eeH, ' ', 0c6H, 0f8H, 0c5H
	DB	0baH, '(BOMB)', 00H				; `string'
CONST	ENDS
;	COMDAT ??_C@_0L@JGDDEPOI@MINE?$CIMine?$CJ?$AA@
CONST	SEGMENT
??_C@_0L@JGDDEPOI@MINE?$CIMine?$CJ?$AA@ DB 'MINE(Mine)', 00H ; `string'
CONST	ENDS
;	COMDAT ??_C@_0L@JPJMMFLN@?$LK?$KH?F?$KO?$CIBelt?$CJ?$AA@
CONST	SEGMENT
??_C@_0L@JPJMMFLN@?$LK?$KH?F?$KO?$CIBelt?$CJ?$AA@ DB 0baH, 0a7H, 0c6H, 0aeH
	DB	'(Belt)', 00H				; `string'
CONST	ENDS
;	COMDAT ??_C@_0BJ@JLHHGBEK@?G?P?$LN?$MA?$LO?F?$MA?L?E?$NL?$CILearningItem?$CJ?$AA@
CONST	SEGMENT
??_C@_0BJ@JLHHGBEK@?G?P?$LN?$MA?$LO?F?$MA?L?E?$NL?$CILearningItem?$CJ?$AA@ DB 0c7H
	DB	0d0H, 0bdH, 0c0H, 0beH, 0c6H, 0c0H, 0ccH, 0c5H, 0dbH, '(Learni'
	DB	'ngItem)', 00H				; `string'
CONST	ENDS
;	COMDAT ??_C@_09JLNOKIFM@?$LF?$LH?$CIMoney?$CJ?$AA@
CONST	SEGMENT
??_C@_09JLNOKIFM@?$LF?$LH?$CIMoney?$CJ?$AA@ DB 0b5H, 0b7H, '(Money)', 00H ; `string'
CONST	ENDS
;	COMDAT ??_C@_0N@LECCDGPD@?$LN?C?C?$LM?$CICorpse?$CJ?$AA@
CONST	SEGMENT
??_C@_0N@LECCDGPD@?$LN?C?C?$LM?$CICorpse?$CJ?$AA@ DB 0bdH, 0c3H, 0c3H, 0bcH
	DB	'(Corpse)', 00H				; `string'
CONST	ENDS
;	COMDAT ??_C@_0BK@OHHAJJJO@?$LJ?l?F?D?$MA?L?$LO?n?5?$LI?$LF?$CIVampire?5Ring?$CJ?$AA@
CONST	SEGMENT
??_C@_0BK@OHHAJJJO@?$LJ?l?F?D?$MA?L?$LO?n?5?$LI?$LF?$CIVampire?5Ring?$CJ?$AA@ DB 0b9H
	DB	0ecH, 0c6H, 0c4H, 0c0H, 0ccH, 0beH, 0eeH, ' ', 0b8H, 0b5H, '(V'
	DB	'ampire Ring)', 00H				; `string'
CONST	ENDS
;	COMDAT ??_C@_0CG@IDFEMGDC@?$LJ?l?F?D?$MA?L?$LO?n?5?$LK?j?$LH?$LJ?$MA?L?$LN?$LN?$LI?$LE?$CIVampire?5Brac@
CONST	SEGMENT
??_C@_0CG@IDFEMGDC@?$LJ?l?F?D?$MA?L?$LO?n?5?$LK?j?$LH?$LJ?$MA?L?$LN?$LN?$LI?$LE?$CIVampire?5Brac@ DB 0b9H
	DB	0ecH, 0c6H, 0c4H, 0c0H, 0ccH, 0beH, 0eeH, ' ', 0baH, 0eaH, 0b7H
	DB	0b9H, 0c0H, 0ccH, 0bdH, 0bdH, 0b8H, 0b4H, '(Vampire Bracelet)', 00H ; `string'
CONST	ENDS
;	COMDAT ??_C@_0CE@JNIALBCG@?$LJ?l?F?D?$MA?L?$LO?n?5?$LD?W?E?$KJ?$LI?$KO?$LN?$LK?$CIVampire?5Neckla@
CONST	SEGMENT
??_C@_0CE@JNIALBCG@?$LJ?l?F?D?$MA?L?$LO?n?5?$LD?W?E?$KJ?$LI?$KO?$LN?$LK?$CIVampire?5Neckla@ DB 0b9H
	DB	0ecH, 0c6H, 0c4H, 0c0H, 0ccH, 0beH, 0eeH, ' ', 0b3H, 0d7H, 0c5H
	DB	0a9H, 0b8H, 0aeH, 0bdH, 0baH, '(Vampire Necklace)', 00H ; `string'
CONST	ENDS
;	COMDAT ??_C@_0BM@CHKEGMDJ@?$LJ?l?F?D?$MA?L?$LO?n?5?D?Z?F?$KO?$CIVampire?5Coat?$CJ?$AA@
CONST	SEGMENT
??_C@_0BM@CHKEGMDJ@?$LJ?l?F?D?$MA?L?$LO?n?5?D?Z?F?$KO?$CIVampire?5Coat?$CJ?$AA@ DB 0b9H
	DB	0ecH, 0c6H, 0c4H, 0c0H, 0ccH, 0beH, 0eeH, ' ', 0c4H, 0daH, 0c6H
	DB	0aeH, '(Vampire Coat)', 00H			; `string'
CONST	ENDS
;	COMDAT ??_C@_0M@FCFKCOK@?G?X?$LA?q?$CISkull?$CJ?$AA@
CONST	SEGMENT
??_C@_0M@FCFKCOK@?G?X?$LA?q?$CISkull?$CJ?$AA@ DB 0c7H, 0d8H, 0b0H, 0f1H, '('
	DB	'Skull)', 00H				; `string'
CONST	ENDS
;	COMDAT ??_C@_0N@ENCOJFFJ@?$LI?$NO?$MA?L?$LN?$LK?$CIMace?$CJ?$AA@
CONST	SEGMENT
??_C@_0N@ENCOJFFJ@?$LI?$NO?$MA?L?$LN?$LK?$CIMace?$CJ?$AA@ DB 0b8H, 0deH, 0c0H
	DB	0ccH, 0bdH, 0baH, '(Mace)', 00H		; `string'
CONST	ENDS
;	COMDAT ??_C@_0M@OCHKKBLL@?G?w?C?$LL?$CISerum?$CJ?$AA@
CONST	SEGMENT
??_C@_0M@OCHKKBLL@?G?w?C?$LL?$CISerum?$CJ?$AA@ DB 0c7H, 0f7H, 0c3H, 0bbH, '('
	DB	'Serum)', 00H				; `string'
CONST	ENDS
;	COMDAT ??_C@_0BL@FNHGDHKN@?$LJ?l?F?D?$MA?L?$LO?n?5?$LB?b?E?$LI?$CIVampire?5Etc?$CJ?$AA@
CONST	SEGMENT
??_C@_0BL@FNHGDHKN@?$LJ?l?F?D?$MA?L?$LO?n?5?$LB?b?E?$LI?$CIVampire?5Etc?$CJ?$AA@ DB 0b9H
	DB	0ecH, 0c6H, 0c4H, 0c0H, 0ccH, 0beH, 0eeH, ' ', 0b1H, 0e2H, 0c5H
	DB	0b8H, '(Vampire Etc)', 00H			; `string'
CONST	ENDS
;	COMDAT ??_C@_0BN@BCKOECP@?$LN?$LN?$LH?$LJ?$MA?L?$LO?n?5?F?w?E?$LL?$CISlayer?5Portal?$CJ?$AA@
CONST	SEGMENT
??_C@_0BN@BCKOECP@?$LN?$LN?$LH?$LJ?$MA?L?$LO?n?5?F?w?E?$LL?$CISlayer?5Portal?$CJ?$AA@ DB 0bdH
	DB	0bdH, 0b7H, 0b9H, 0c0H, 0ccH, 0beH, 0eeH, ' ', 0c6H, 0f7H, 0c5H
	DB	0bbH, '(Slayer Portal)', 00H			; `string'
CONST	ENDS
;	COMDAT ??_C@_0BO@EHLLPAGA@?$LJ?l?F?D?$MA?L?$LO?n?5?F?w?E?$LL?$CIVampire?5Portal?$CJ?$AA@
CONST	SEGMENT
??_C@_0BO@EHLLPAGA@?$LJ?l?F?D?$MA?L?$LO?n?5?F?w?E?$LL?$CIVampire?5Portal?$CJ?$AA@ DB 0b9H
	DB	0ecH, 0c6H, 0c4H, 0c0H, 0ccH, 0beH, 0eeH, ' ', 0c6H, 0f7H, 0c5H
	DB	0bbH, '(Vampire Portal)', 00H		; `string'
CONST	ENDS
;	COMDAT ??_C@_0BM@EBOGENEK@?$MA?L?$LK?$KF?F?$KO?5?$LJ?Z?$LN?$LK?$CIEvent?5Gift?5Box?$CJ?$AA@
CONST	SEGMENT
??_C@_0BM@EBOGENEK@?$MA?L?$LK?$KF?F?$KO?5?$LJ?Z?$LN?$LK?$CIEvent?5Gift?5Box?$CJ?$AA@ DB 0c0H
	DB	0ccH, 0baH, 0a5H, 0c6H, 0aeH, ' ', 0b9H, 0daH, 0bdH, 0baH, '(E'
	DB	'vent Gift Box)', 00H			; `string'
CONST	ENDS
;	COMDAT ??_C@_0BI@CGDIOKMJ@?$MA?L?$LK?$KF?F?$KO?5?$LN?$LK?E?$LI?$CIEvent?5Star?$CJ?$AA@
CONST	SEGMENT
??_C@_0BI@CGDIOKMJ@?$MA?L?$LK?$KF?F?$KO?5?$LN?$LK?E?$LI?$CIEvent?5Star?$CJ?$AA@ DB 0c0H
	DB	0ccH, 0baH, 0a5H, 0c6H, 0aeH, ' ', 0bdH, 0baH, 0c5H, 0b8H, '(E'
	DB	'vent Star)', 00H				; `string'
CONST	ENDS
;	COMDAT ??_C@_0CB@DDDPANMB@?$LJ?l?F?D?$MA?L?$LO?n?5?$LB?M?$LA?I?$MA?L?$CIVampire?5Earring?$CJ@
CONST	SEGMENT
??_C@_0CB@DDDPANMB@?$LJ?l?F?D?$MA?L?$LO?n?5?$LB?M?$LA?I?$MA?L?$CIVampire?5Earring?$CJ@ DB 0b9H
	DB	0ecH, 0c6H, 0c4H, 0c0H, 0ccH, 0beH, 0eeH, ' ', 0b1H, 0cdH, 0b0H
	DB	0c9H, 0c0H, 0ccH, '(Vampire Earring)', 00H	; `string'
CONST	ENDS
;	COMDAT ??_C@_0M@FOFHBIKD@?$MA?$KP?$LJ?$LA?$CIRelic?$CJ?$AA@
CONST	SEGMENT
??_C@_0M@FOFHBIKD@?$MA?$KP?$LJ?$LA?$CIRelic?$CJ?$AA@ DB 0c0H, 0afH, 0b9H, 0b0H
	DB	'(Relic)', 00H				; `string'
CONST	ENDS
;	COMDAT ??_C@_0BO@OFMMIION@?$LJ?l?F?D?$MA?L?$LO?n?5?$LJ?$KL?$LB?b?$CIVampire?5Weapon?$CJ?$AA@
CONST	SEGMENT
??_C@_0BO@OFMMIION@?$LJ?l?F?D?$MA?L?$LO?n?5?$LJ?$KL?$LB?b?$CIVampire?5Weapon?$CJ?$AA@ DB 0b9H
	DB	0ecH, 0c6H, 0c4H, 0c0H, 0ccH, 0beH, 0eeH, ' ', 0b9H, 0abH, 0b1H
	DB	0e2H, '(Vampire Weapon)', 00H		; `string'
CONST	ENDS
;	COMDAT ??_C@_0CA@CBFMIFJL@?$LJ?l?F?D?$MA?L?$LO?n?5?$LO?F?$LJ?D?$LH?$LP?$CIVampire?5Amulet?$CJ?$AA@
CONST	SEGMENT
??_C@_0CA@CBFMIFJL@?$LJ?l?F?D?$MA?L?$LO?n?5?$LO?F?$LJ?D?$LH?$LP?$CIVampire?5Amulet?$CJ?$AA@ DB 0b9H
	DB	0ecH, 0c6H, 0c4H, 0c0H, 0ccH, 0beH, 0eeH, ' ', 0beH, 0c6H, 0b9H
	DB	0c4H, 0b7H, 0bfH, '(Vampire Amulet)', 00H	; `string'
CONST	ENDS
;	COMDAT ??_C@_0BK@KIPPCBIN@?D?y?$LN?$LK?F?$KO?5?$LO?F?$MA?L?E?$NL?$CIQuest?5Item?$CJ?$AA@
CONST	SEGMENT
??_C@_0BK@KIPPCBIN@?D?y?$LN?$LK?F?$KO?5?$LO?F?$MA?L?E?$NL?$CIQuest?5Item?$CJ?$AA@ DB 0c4H
	DB	0f9H, 0bdH, 0baH, 0c6H, 0aeH, ' ', 0beH, 0c6H, 0c0H, 0ccH, 0c5H
	DB	0dbH, '(Quest Item)', 00H			; `string'
CONST	ENDS
;	COMDAT ??_C@_0BI@NMAPKBIE@?$MA?L?$LK?$KF?F?$KO?5?$LD?$KK?$LJ?$KL?$CIEvent?5Tree?$CJ?$AA@
CONST	SEGMENT
??_C@_0BI@NMAPKBIE@?$MA?L?$LK?$KF?F?$KO?5?$LD?$KK?$LJ?$KL?$CIEvent?5Tree?$CJ?$AA@ DB 0c0H
	DB	0ccH, 0baH, 0a5H, 0c6H, 0aeH, ' ', 0b3H, 0aaH, 0b9H, 0abH, '(E'
	DB	'vent Tree)', 00H				; `string'
CONST	ENDS
;	COMDAT ??_C@_0BH@PADBDEPC@?$MA?L?$LK?$KF?F?$KO?5?$LB?b?E?$LI?$CIEvent?5Etc?$CJ?$AA@
CONST	SEGMENT
??_C@_0BH@PADBDEPC@?$MA?L?$LK?$KF?F?$KO?5?$LB?b?E?$LI?$CIEvent?5Etc?$CJ?$AA@ DB 0c0H
	DB	0ccH, 0baH, 0a5H, 0c6H, 0aeH, ' ', 0b1H, 0e2H, 0c5H, 0b8H, '(E'
	DB	'vent Etc)', 00H				; `string'
CONST	ENDS
;	COMDAT ??_C@_0BH@HLENPLIP@?G?G?$MA?G?5?$LM?$LK?$LM?$KN?$CIBlood?5Bible?$CJ?$AA@
CONST	SEGMENT
??_C@_0BH@HLENPLIP@?G?G?$MA?G?5?$LM?$LK?$LM?$KN?$CIBlood?5Bible?$CJ?$AA@ DB 0c7H
	DB	0c7H, 0c0H, 0c7H, ' ', 0bcH, 0baH, 0bcH, 0adH, '(Blood Bible)', 00H ; `string'
CONST	ENDS
;	COMDAT ??_C@_0BJ@GFCLCGHO@?$LM?$LK?5?$LL?s?B?$KB?$LJ?$LA?$CICastle?5Symbol?$CJ?$AA@
CONST	SEGMENT
??_C@_0BJ@GFCLCGHO@?$LM?$LK?5?$LL?s?B?$KB?$LJ?$LA?$CICastle?5Symbol?$CJ?$AA@ DB 0bcH
	DB	0baH, ' ', 0bbH, 0f3H, 0c2H, 0a1H, 0b9H, 0b0H, '(Castle Symbol'
	DB	')', 00H					; `string'
CONST	ENDS
;	COMDAT ??_C@_0BE@BFGNFFKD@?D?$LP?G?C?$LI?$LF?$CICouple?5Ring?$CJ?$AA@
CONST	SEGMENT
??_C@_0BE@BFGNFFKD@?D?$LP?G?C?$LI?$LF?$CICouple?5Ring?$CJ?$AA@ DB 0c4H, 0bfH
	DB	0c7H, 0c3H, 0b8H, 0b5H, '(Couple Ring)', 00H	; `string'
CONST	ENDS
;	COMDAT ??_C@_0BN@KFCDDFNO@?$LJ?l?F?D?$MA?L?$LO?n?5?D?$LP?G?C?$LI?$LF?$CICouple?5Ring?$CJ?$AA@
CONST	SEGMENT
??_C@_0BN@KFCDDFNO@?$LJ?l?F?D?$MA?L?$LO?n?5?D?$LP?G?C?$LI?$LF?$CICouple?5Ring?$CJ?$AA@ DB 0b9H
	DB	0ecH, 0c6H, 0c4H, 0c0H, 0ccH, 0beH, 0eeH, ' ', 0c4H, 0bfH, 0c7H
	DB	0c3H, 0b8H, 0b5H, '(Couple Ring)', 00H	; `string'
CONST	ENDS
;	COMDAT ??_C@_0BK@LJHNHLAD@?$MA?L?$LK?$KF?F?$KO?5?$LO?F?$MA?L?E?$NL?$CIEvent?5Item?$CJ?$AA@
CONST	SEGMENT
??_C@_0BK@LJHNHLAD@?$MA?L?$LK?$KF?F?$KO?5?$LO?F?$MA?L?E?$NL?$CIEvent?5Item?$CJ?$AA@ DB 0c0H
	DB	0ccH, 0baH, 0a5H, 0c6H, 0aeH, ' ', 0beH, 0c6H, 0c0H, 0ccH, 0c5H
	DB	0dbH, '(Event Item)', 00H			; `string'
CONST	ENDS
;	COMDAT ??_C@_0BB@PGMCBEGB@?$LP?$LA?$LH?a?$CIDye?5Potion?$CJ?$AA@
CONST	SEGMENT
??_C@_0BB@PGMCBEGB@?$LP?$LA?$LH?a?$CIDye?5Potion?$CJ?$AA@ DB 0bfH, 0b0H, 0b7H
	DB	0e1H, '(Dye Potion)', 00H			; `string'
CONST	ENDS
;	COMDAT ??_C@_0BM@PLIMEBKI@?$LK?N?H?$LA?5?$LO?F?$MA?L?E?$NL?$CIResurrect?5Item?$CJ?$AA@
CONST	SEGMENT
??_C@_0BM@PLIMEBKI@?$LK?N?H?$LA?5?$LO?F?$MA?L?E?$NL?$CIResurrect?5Item?$CJ?$AA@ DB 0baH
	DB	0ceH, 0c8H, 0b0H, ' ', 0beH, 0c6H, 0c0H, 0ccH, 0c5H, 0dbH, '(R'
	DB	'esurrect Item)', 00H			; `string'
CONST	ENDS
;	COMDAT ??_C@_0BJ@CIPEIBLN@?$LJ?M?$LN?L?5?$LO?F?$MA?L?E?$NL?$CIMixing?5Item?$CJ?$AA@
CONST	SEGMENT
??_C@_0BJ@CIPEIBLN@?$LJ?M?$LN?L?5?$LO?F?$MA?L?E?$NL?$CIMixing?5Item?$CJ?$AA@ DB 0b9H
	DB	0cdH, 0bdH, 0ccH, ' ', 0beH, 0c6H, 0c0H, 0ccH, 0c5H, 0dbH, '(M'
	DB	'ixing Item)', 00H				; `string'
CONST	ENDS
;	COMDAT ??_C@_0CG@FFJBGKKJ@?$LO?F?$LP?l?$LN?$LK?E?M?A?n?5?$LO?O?$LN?$LK?$LJ?j?$LF?e?$CIOusters?5Arms@
CONST	SEGMENT
??_C@_0CG@FFJBGKKJ@?$LO?F?$LP?l?$LN?$LK?E?M?A?n?5?$LO?O?$LN?$LK?$LJ?j?$LF?e?$CIOusters?5Arms@ DB 0beH
	DB	0c6H, 0bfH, 0ecH, 0bdH, 0baH, 0c5H, 0cdH, 0c1H, 0eeH, ' ', 0beH
	DB	0cfH, 0bdH, 0baH, 0b9H, 0eaH, 0b5H, 0e5H, '(Ousters Armsband)', 00H ; `string'
CONST	ENDS
;	COMDAT ??_C@_0BP@LFDHIKMD@?$LO?F?$LP?l?$LN?$LK?E?M?A?n?5?$LK?N?C?w?$CIOusters?5Boots?$CJ?$AA@
CONST	SEGMENT
??_C@_0BP@LFDHIKMD@?$LO?F?$LP?l?$LN?$LK?E?M?A?n?5?$LK?N?C?w?$CIOusters?5Boots?$CJ?$AA@ DB 0beH
	DB	0c6H, 0bfH, 0ecH, 0bdH, 0baH, 0c5H, 0cdH, 0c1H, 0eeH, ' ', 0baH
	DB	0ceH, 0c3H, 0f7H, '(Ousters Boots)', 00H	; `string'
CONST	ENDS
;	COMDAT ??_C@_0CD@EMDMEEEH@?$LO?F?$LP?l?$LN?$LK?E?M?A?n?5?C?$KN?E?$KJ?$LG?w?$CIOusters?5Chakra@
CONST	SEGMENT
??_C@_0CD@EMDMEEEH@?$LO?F?$LP?l?$LN?$LK?E?M?A?n?5?C?$KN?E?$KJ?$LG?w?$CIOusters?5Chakra@ DB 0beH
	DB	0c6H, 0bfH, 0ecH, 0bdH, 0baH, 0c5H, 0cdH, 0c1H, 0eeH, ' ', 0c3H
	DB	0adH, 0c5H, 0a9H, 0b6H, 0f7H, '(Ousters Chakram)', 00H ; `string'
CONST	ENDS
;	COMDAT ??_C@_0CD@EHEHLAFE@?$LO?F?$LP?l?$LN?$LK?E?M?A?n?5?$LM?$KN?E?$KM?$LI?$LE?$CIOusters?5Circle@
CONST	SEGMENT
??_C@_0CD@EHEHLAFE@?$LO?F?$LP?l?$LN?$LK?E?M?A?n?5?$LM?$KN?E?$KM?$LI?$LE?$CIOusters?5Circle@ DB 0beH
	DB	0c6H, 0bfH, 0ecH, 0bdH, 0baH, 0c5H, 0cdH, 0c1H, 0eeH, ' ', 0bcH
	DB	0adH, 0c5H, 0acH, 0b8H, 0b4H, '(Ousters Circlet)', 00H ; `string'
CONST	ENDS
;	COMDAT ??_C@_0BO@OGBEGNBB@?$LO?F?$LP?l?$LN?$LK?E?M?A?n?5?D?Z?F?$KO?$CIOusters?5Coat?$CJ?$AA@
CONST	SEGMENT
??_C@_0BO@OGBEGNBB@?$LO?F?$LP?l?$LN?$LK?E?M?A?n?5?D?Z?F?$KO?$CIOusters?5Coat?$CJ?$AA@ DB 0beH
	DB	0c6H, 0bfH, 0ecH, 0bdH, 0baH, 0c5H, 0cdH, 0c1H, 0eeH, ' ', 0c4H
	DB	0daH, 0c6H, 0aeH, '(Ousters Coat)', 00H	; `string'
CONST	ENDS
;	COMDAT ??_C@_0CD@NHFKMPPA@?$LO?F?$LP?l?$LN?$LK?E?M?A?n?5?F?R?$LE?x?F?$KO?$CIOusters?5Penden@
CONST	SEGMENT
??_C@_0CD@NHFKMPPA@?$LO?F?$LP?l?$LN?$LK?E?M?A?n?5?F?R?$LE?x?F?$KO?$CIOusters?5Penden@ DB 0beH
	DB	0c6H, 0bfH, 0ecH, 0bdH, 0baH, 0c5H, 0cdH, 0c1H, 0eeH, ' ', 0c6H
	DB	0d2H, 0b4H, 0f8H, 0c6H, 0aeH, '(Ousters Pendent)', 00H ; `string'
CONST	ENDS
;	COMDAT ??_C@_0BO@NCMOFEPN@?$LO?F?$LP?l?$LN?$LK?E?M?A?n?5?$LJ?$NN?A?v?$CIOusters?5Ring?$CJ?$AA@
CONST	SEGMENT
??_C@_0BO@NCMOFEPN@?$LO?F?$LP?l?$LN?$LK?E?M?A?n?5?$LJ?$NN?A?v?$CIOusters?5Ring?$CJ?$AA@ DB 0beH
	DB	0c6H, 0bfH, 0ecH, 0bdH, 0baH, 0c5H, 0cdH, 0c1H, 0eeH, ' ', 0b9H
	DB	0ddH, 0c1H, 0f6H, '(Ousters Ring)', 00H	; `string'
CONST	ENDS
;	COMDAT ??_C@_0BP@NEOJGDCE@?$LO?F?$LP?l?$LN?$LK?E?M?A?n?5?$LN?$LK?E?f?$CIOusters?5Stone?$CJ?$AA@
CONST	SEGMENT
??_C@_0BP@NEOJGDCE@?$LO?F?$LP?l?$LN?$LK?E?M?A?n?5?$LN?$LK?E?f?$CIOusters?5Stone?$CJ?$AA@ DB 0beH
	DB	0c6H, 0bfH, 0ecH, 0bdH, 0baH, 0c5H, 0cdH, 0c1H, 0eeH, ' ', 0bdH
	DB	0baH, 0c5H, 0e6H, '(Ousters Stone)', 00H	; `string'
CONST	ENDS
;	COMDAT ??_C@_0CG@LPDHABLE@?$LO?F?$LP?l?$LN?$LK?E?M?A?n?5?$LI?$KO?$LN?$LK?F?$LC?$LI?$LE?$CIOusters?5Wris@
CONST	SEGMENT
??_C@_0CG@LPDHABLE@?$LO?F?$LP?l?$LN?$LK?E?M?A?n?5?$LI?$KO?$LN?$LK?F?$LC?$LI?$LE?$CIOusters?5Wris@ DB 0beH
	DB	0c6H, 0bfH, 0ecH, 0bdH, 0baH, 0c5H, 0cdH, 0c1H, 0eeH, ' ', 0b8H
	DB	0aeH, 0bdH, 0baH, 0c6H, 0b2H, 0b8H, 0b4H, '(Ousters Wristlet)', 00H ; `string'
CONST	ENDS
;	COMDAT ??_C@_0M@GPBKFLGK@?$LG?s?$LJ?Y?$CILarva?$CJ?$AA@
CONST	SEGMENT
??_C@_0M@GPBKFLGK@?$LG?s?$LJ?Y?$CILarva?$CJ?$AA@ DB 0b6H, 0f3H, 0b9H, 0d9H
	DB	'(Larva)', 00H				; `string'
CONST	ENDS
;	COMDAT ??_C@_0L@DACDFACE@?G?$KK?F?D?$CIPupa?$CJ?$AA@
CONST	SEGMENT
??_C@_0L@DACDFACE@?G?$KK?F?D?$CIPupa?$CJ?$AA@ DB 0c7H, 0aaH, 0c6H, 0c4H, '('
	DB	'Pupa)', 00H					; `string'
CONST	ENDS
;	COMDAT ??_C@_0BB@EODBKKBJ@?$LI?$NO?$MA?L?$CICompos?5Mei?$CJ?$AA@
CONST	SEGMENT
??_C@_0BB@EODBKKBJ@?$LI?$NO?$MA?L?$CICompos?5Mei?$CJ?$AA@ DB 0b8H, 0deH, 0c0H
	DB	0ccH, '(Compos Mei)', 00H			; `string'
CONST	ENDS
;	COMDAT ??_C@_0CD@CAGAMFFG@?$LO?F?$LP?l?$LN?$LK?E?M?A?n?5?A?$KK?$CIOusters?5Summon?5Ite@
CONST	SEGMENT
??_C@_0CD@CAGAMFFG@?$LO?F?$LP?l?$LN?$LK?E?M?A?n?5?A?$KK?$CIOusters?5Summon?5Ite@ DB 0beH
	DB	0c6H, 0bfH, 0ecH, 0bdH, 0baH, 0c5H, 0cdH, 0c1H, 0eeH, ' ', 0c1H
	DB	0aaH, '(Ousters Summon Item)', 00H		; `string'
CONST	ENDS
;	COMDAT ??_C@_0BJ@KFGOEMKG@?H?$LP?$LA?z?5?$LO?F?$MA?L?E?$NL?$CIEffect?5Item?$CJ?$AA@
CONST	SEGMENT
??_C@_0BJ@KFGOEMKG@?H?$LP?$LA?z?5?$LO?F?$MA?L?E?$NL?$CIEffect?5Item?$CJ?$AA@ DB 0c8H
	DB	0bfH, 0b0H, 0faH, ' ', 0beH, 0c6H, 0c0H, 0ccH, 0c5H, 0dbH, '(E'
	DB	'ffect Item)', 00H				; `string'
CONST	ENDS
;	COMDAT ??_C@_0BE@HJOJCNGC@?D?Z?$LF?e?5?G?$KF?$CICode?5Sheet?$CJ?$AA@
CONST	SEGMENT
??_C@_0BE@HJOJCNGC@?D?Z?$LF?e?5?G?$KF?$CICode?5Sheet?$CJ?$AA@ DB 0c4H, 0daH
	DB	0b5H, 0e5H, ' ', 0c7H, 0a5H, '(Code Sheet)', 00H ; `string'
CONST	ENDS
;	COMDAT ??_C@_0BF@FFHGJFI@?$LE?$NO?$MA?G?5?D?$KL?$LF?e?$CIMoon?5Card?$CJ?$AA@
CONST	SEGMENT
??_C@_0BF@FFHGJFI@?$LE?$NO?$MA?G?5?D?$KL?$LF?e?$CIMoon?5Card?$CJ?$AA@ DB 0b4H
	DB	0deH, 0c0H, 0c7H, ' ', 0c4H, 0abH, 0b5H, 0e5H, '(Moon Card)', 00H ; `string'
CONST	ENDS
;	COMDAT ??_C@_0BA@LLOAIPKA@?$LN?$LK?$MA?$KH?F?$NL?$CISweeper?$CJ?$AA@
CONST	SEGMENT
??_C@_0BA@LLOAIPKA@?$LN?$LK?$MA?$KH?F?$NL?$CISweeper?$CJ?$AA@ DB 0bdH, 0baH
	DB	0c0H, 0a7H, 0c6H, 0dbH, '(Sweeper)', 00H	; `string'
CONST	ENDS
;	COMDAT ??_C@_0BE@BIPNBNG@?F?j?5?$LO?F?$MA?L?E?$NL?$CIPet?5Item?$CJ?$AA@
CONST	SEGMENT
??_C@_0BE@BIPNBNG@?F?j?5?$LO?F?$MA?L?E?$NL?$CIPet?5Item?$CJ?$AA@ DB 0c6H, 0eaH
	DB	' ', 0beH, 0c6H, 0c0H, 0ccH, 0c5H, 0dbH, '(Pet Item)', 00H ; `string'
CONST	ENDS
;	COMDAT ??_C@_0BC@IJGKNNI@?F?j?5?$LI?T?$MA?L?$CIPet?5Food?$CJ?$AA@
CONST	SEGMENT
??_C@_0BC@IJGKNNI@?F?j?5?$LI?T?$MA?L?$CIPet?5Food?$CJ?$AA@ DB 0c6H, 0eaH, ' '
	DB	0b8H, 0d4H, 0c0H, 0ccH, '(Pet Food)', 00H	; `string'
CONST	ENDS
;	COMDAT ??_C@_0BH@GJDAMLBE@?F?j?5?$MA?N?C?$LO?F?$KO?$CIPet?5Enchant?$CJ?$AA@
CONST	SEGMENT
??_C@_0BH@GJDAMLBE@?F?j?5?$MA?N?C?$LO?F?$KO?$CIPet?5Enchant?$CJ?$AA@ DB 0c6H
	DB	0eaH, ' ', 0c0H, 0ceH, 0c3H, 0beH, 0c6H, 0aeH, '(Pet Enchant)', 00H ; `string'
CONST	ENDS
;	COMDAT ??_C@_0BF@JKPKDELO@?$LK?$LJ?5?A?V?$LI?S?$LE?O?$CILucky?5Bag?$CJ?$AA@
CONST	SEGMENT
??_C@_0BF@JKPKDELO@?$LK?$LJ?5?A?V?$LI?S?$LE?O?$CILucky?5Bag?$CJ?$AA@ DB 0baH
	DB	0b9H, ' ', 0c1H, 0d6H, 0b8H, 0d3H, 0b4H, 0cfH, '(Lucky Bag)', 00H ; `string'
CONST	ENDS
;	COMDAT ??_C@_0BG@COHMFFFK@?$MA?$PM?$LM?$NL?5?$LO?F?$MA?L?E?$NL?$CISms?5Item?$CJ?$AA@
CONST	SEGMENT
??_C@_0BG@COHMFFFK@?$MA?$PM?$LM?$NL?5?$LO?F?$MA?L?E?$NL?$CISms?5Item?$CJ?$AA@ DB 0c0H
	DB	0fcH, 0bcH, 0dbH, ' ', 0beH, 0c6H, 0c0H, 0ccH, 0c5H, 0dbH, '(S'
	DB	'ms Item)', 00H				; `string'
CONST	ENDS
;	COMDAT ??_C@_0BB@CCAKECMG@?D?Z?$LO?n?$MA?l?$CICore?5Zap?$CJ?$AA@
CONST	SEGMENT
??_C@_0BB@CCAKECMG@?D?Z?$LO?n?$MA?l?$CICore?5Zap?$CJ?$AA@ DB 0c4H, 0daH, 0beH
	DB	0eeH, 0c0H, 0ecH, '(Core Zap)', 00H		; `string'
CONST	ENDS
;	COMDAT ??_C@_0BH@NKBBFAOF@?G?T?A?$KE?5?$LO?F?$MA?L?E?$NL?$CITrap?5Item?$CJ?$AA@
CONST	SEGMENT
??_C@_0BH@NKBBFAOF@?G?T?A?$KE?5?$LO?F?$MA?L?E?$NL?$CITrap?5Item?$CJ?$AA@ DB 0c7H
	DB	0d4H, 0c1H, 0a4H, ' ', 0beH, 0c6H, 0c0H, 0ccH, 0c5H, 0dbH, '(T'
	DB	'rap Item)', 00H				; `string'
CONST	ENDS
;	COMDAT ??_C@_0BO@KIHEKAFG@?G?G?$MA?G?5?$LA?h?$LO?$OA?$LM?$KN?$CIBlood?5Bible?5Sign?$CJ?$AA@
CONST	SEGMENT
??_C@_0BO@KIHEKAFG@?G?G?$MA?G?5?$LA?h?$LO?$OA?$LM?$KN?$CIBlood?5Bible?5Sign?$CJ?$AA@ DB 0c7H
	DB	0c7H, 0c0H, 0c7H, ' ', 0b0H, 0e8H, 0beH, 0e0H, 0bcH, 0adH, '(B'
	DB	'lood Bible Sign)', 00H			; `string'
CONST	ENDS
;	COMDAT ??_C@_0BG@MNFDCAIF@?$MA?$PM?$MA?o?5?$LO?F?$MA?L?E?$NL?$CIWar?5Item?$CJ?$AA@
CONST	SEGMENT
??_C@_0BG@MNFDCAIF@?$MA?$PM?$MA?o?5?$LO?F?$MA?L?E?$NL?$CIWar?5Item?$CJ?$AA@ DB 0c0H
	DB	0fcH, 0c0H, 0efH, ' ', 0beH, 0c6H, 0c0H, 0ccH, 0c5H, 0dbH, '(W'
	DB	'ar Item)', 00H				; `string'
CONST	ENDS
;	COMDAT ??_C@_0CD@NEBFGDOI@2?B?w?5?$MA?$PM?A?w?5?$LO?F?$MA?L?E?$NL?$CICarrying?5Receive@
CONST	SEGMENT
??_C@_0CD@NEBFGDOI@2?B?w?5?$MA?$PM?A?w?5?$LO?F?$MA?L?E?$NL?$CICarrying?5Receive@ DB '2'
	DB	0c2H, 0f7H, ' ', 0c0H, 0fcH, 0c1H, 0f7H, ' ', 0beH, 0c6H, 0c0H
	DB	0ccH, 0c5H, 0dbH, '(Carrying Receiver)', 00H	; `string'
CONST	ENDS
;	COMDAT ??_C@_0BK@LFPPGHAG@?$LO?n?$LB?z?5?$LA?$KJ?$LP?J?$CIShoulder?5Armor?$CJ?$AA@
CONST	SEGMENT
??_C@_0BK@LFPPGHAG@?$LO?n?$LB?z?5?$LA?$KJ?$LP?J?$CIShoulder?5Armor?$CJ?$AA@ DB 0beH
	DB	0eeH, 0b1H, 0faH, ' ', 0b0H, 0a9H, 0bfH, 0caH, '(Shoulder Armo'
	DB	'r)', 00H					; `string'
CONST	ENDS
;	COMDAT ??_C@_0N@FBJGEDKA@?G?G?$LK?N?$CIDermis?$CJ?$AA@
CONST	SEGMENT
??_C@_0N@FBJGEDKA@?G?G?$LK?N?$CIDermis?$CJ?$AA@ DB 0c7H, 0c7H, 0baH, 0ceH
	DB	'(Dermis)', 00H				; `string'
CONST	ENDS
;	COMDAT ??_C@_0BC@GHMCIKMF@?F?d?$LI?$KD?$LM?R?$LD?$KK?$CIPersona?$CJ?$AA@
CONST	SEGMENT
??_C@_0BC@GHMCIKMF@?F?d?$LI?$KD?$LM?R?$LD?$KK?$CIPersona?$CJ?$AA@ DB 0c6H
	DB	0e4H, 0b8H, 0a3H, 0bcH, 0d2H, 0b3H, 0aaH, '(Persona)', 00H ; `string'
CONST	ENDS
;	COMDAT ??_C@_0P@EBINHADL@?F?d?$MA?L?$LL?$PO?$CIFascia?$CJ?$AA@
CONST	SEGMENT
??_C@_0P@EBINHADL@?F?d?$MA?L?$LL?$PO?$CIFascia?$CJ?$AA@ DB 0c6H, 0e4H, 0c0H
	DB	0ccH, 0bbH, 0feH, '(Fascia)', 00H		; `string'
CONST	ENDS
;	COMDAT ??_C@_0N@DEBFKPDI@?$MA?e?$LA?$KJ?$CIMitten?$CJ?$AA@
CONST	SEGMENT
??_C@_0N@DEBFKPDI@?$MA?e?$LA?$KJ?$CIMitten?$CJ?$AA@ DB 0c0H, 0e5H, 0b0H, 0a9H
	DB	'(Mitten)', 00H				; `string'
CONST	ENDS
;	COMDAT ??_C@_0BN@ODEGHBGC@?$LM?$KN?$LK?j?5?$MA?N?$LK?$KF?E?d?$LI?$KO?$CISub?5Inventory?$CJ?$AA@
CONST	SEGMENT
??_C@_0BN@ODEGHBGC@?$LM?$KN?$LK?j?5?$MA?N?$LK?$KF?E?d?$LI?$KO?$CISub?5Inventory?$CJ?$AA@ DB 0bcH
	DB	0adH, 0baH, 0eaH, ' ', 0c0H, 0ceH, 0baH, 0a5H, 0c5H, 0e4H, 0b8H
	DB	0aeH, '(Sub Inventory)', 00H			; `string'
CONST	ENDS
;	COMDAT ??_C@_0BP@CJPMIEBF@?D?$LP?$LI?s?5?D?y?$LN?$LK?F?$KO?$CICommon?5Quest?5Item?$CJ?$AA@
CONST	SEGMENT
??_C@_0BP@CJPMIEBF@?D?$LP?$LI?s?5?D?y?$LN?$LK?F?$KO?$CICommon?5Quest?5Item?$CJ?$AA@ DB 0c4H
	DB	0bfH, 0b8H, 0f3H, ' ', 0c4H, 0f9H, 0bdH, 0baH, 0c6H, 0aeH, '(C'
	DB	'ommon Quest Item)', 00H			; `string'
CONST	ENDS
;	COMDAT ??_C@_0BO@NHDMHMBF@?$LP?$KB?E?W?$LI?$KO?$LO?s?5?C?$LM?$MA?N?$CIEthereal?5Chain?$CJ?$AA@
CONST	SEGMENT
??_C@_0BO@NHDMHMBF@?$LP?$KB?E?W?$LI?$KO?$LO?s?5?C?$LM?$MA?N?$CIEthereal?5Chain?$CJ?$AA@ DB 0bfH
	DB	0a1H, 0c5H, 0d7H, 0b8H, 0aeH, 0beH, 0f3H, ' ', 0c3H, 0bcH, 0c0H
	DB	0ceH, '(Ethereal Chain)', 00H		; `string'
CONST	ENDS
;	COMDAT ??_C@_0CA@JDGMJEMI@?$LA?a?$LM?S?$MA?G?5?F?f?$LE?x?F?$KO?$CIHarmonic?5Pendent?$CJ?$AA@
CONST	SEGMENT
??_C@_0CA@JDGMJEMI@?$LA?a?$LM?S?$MA?G?5?F?f?$LE?x?F?$KO?$CIHarmonic?5Pendent?$CJ?$AA@ DB 0b0H
	DB	0e1H, 0bcH, 0d3H, 0c0H, 0c7H, ' ', 0c6H, 0e6H, 0b4H, 0f8H, 0c6H
	DB	0aeH, '(Harmonic Pendent)', 00H		; `string'
CONST	ENDS
;	COMDAT ??_C@_0BC@FPPFLIBD@?$LM?v?G?$KF?$CICheck?5Money?$CJ?$AA@
CONST	SEGMENT
??_C@_0BC@FPPFLIBD@?$LM?v?G?$KF?$CICheck?5Money?$CJ?$AA@ DB 0bcH, 0f6H, 0c7H
	DB	0a5H, '(Check Money)', 00H			; `string'
CONST	ENDS
;	COMDAT ??_C@_0BK@GMHLCFHP@?E?$KF?5?$LP?$MA?$LK?j?5?$LO?F?$LE?c?$CICue?5Of?5Adam?$CJ?$AA@
CONST	SEGMENT
??_C@_0BK@GMHLCFHP@?E?$KF?5?$LP?$MA?$LK?j?5?$LO?F?$LE?c?$CICue?5Of?5Adam?$CJ?$AA@ DB 0c5H
	DB	0a5H, ' ', 0bfH, 0c0H, 0baH, 0eaH, ' ', 0beH, 0c6H, 0b4H, 0e3H
	DB	'(Cue Of Adam)', 00H				; `string'
CONST	ENDS
;	COMDAT ??_C@_0BP@PEIAKPEO@?G?G?$MA?G?5?$LA?h?$LO?$OA?$LM?$KN?$CIContract?5Of?5Blood?$CJ?$AA@
CONST	SEGMENT
??_C@_0BP@PEIAKPEO@?G?G?$MA?G?5?$LA?h?$LO?$OA?$LM?$KN?$CIContract?5Of?5Blood?$CJ?$AA@ DB 0c7H
	DB	0c7H, 0c0H, 0c7H, ' ', 0b0H, 0e8H, 0beH, 0e0H, 0bcH, 0adH, '(C'
	DB	'ontract Of Blood)', 00H			; `string'
CONST	ENDS
;	COMDAT ??_C@_0BD@KAHKONNF@?$LN?$LK?E?$LD?$LK?O?$CISkill?5Book?$CJ?$AA@
CONST	SEGMENT
??_C@_0BD@KAHKONNF@?$LN?$LK?E?$LD?$LK?O?$CISkill?5Book?$CJ?$AA@ DB 0bdH, 0baH
	DB	0c5H, 0b3H, 0baH, 0cfH, '(Skill Book)', 00H	; `string'
CONST	ENDS
;	COMDAT ??_C@_0CI@FBPNNIJE@?$LJ?l?F?D?$MA?L?$LO?n?5?$LN?E?$LB?T?$MA?L?$LF?$LP?$LM?v?$LE?$NM?$CIVampirewin@
CONST	SEGMENT
??_C@_0CI@FBPNNIJE@?$LJ?l?F?D?$MA?L?$LO?n?5?$LN?E?$LB?T?$MA?L?$LF?$LP?$LM?v?$LE?$NM?$CIVampirewin@ DB 0b9H
	DB	0ecH, 0c6H, 0c4H, 0c0H, 0ccH, 0beH, 0eeH, ' ', 0bdH, 0c5H, 0b1H
	DB	0d4H, 0c0H, 0ccH, 0b5H, 0bfH, 0bcH, 0f6H, 0b4H, 0dcH, '(Vampir'
	DB	'ewing Item)', 00H				; `string'
CONST	ENDS
;	COMDAT ??_C@_0CK@LPDIDGDG@?$LO?F?$LP?l?$LN?$LK?E?M?A?n?5?$LN?E?$LB?T?$MA?L?$LF?$LP?$LM?v?$LE?$NM?$CIOustersw@
CONST	SEGMENT
??_C@_0CK@LPDIDGDG@?$LO?F?$LP?l?$LN?$LK?E?M?A?n?5?$LN?E?$LB?T?$MA?L?$LF?$LP?$LM?v?$LE?$NM?$CIOustersw@ DB 0beH
	DB	0c6H, 0bfH, 0ecH, 0bdH, 0baH, 0c5H, 0cdH, 0c1H, 0eeH, ' ', 0bdH
	DB	0c5H, 0b1H, 0d4H, 0c0H, 0ccH, 0b5H, 0bfH, 0bcH, 0f6H, 0b4H, 0dcH
	DB	'(Ousterswing Item)', 00H			; `string'
CONST	ENDS
;	COMDAT ??_C@_0CD@JFCNBGKC@?F?$KJ?$LE?W?$LO?F?$MA?L?E?$NL?9?$LN?$LN?$LH?$LJ?$MA?L?$LO?n?$CITuning?5Slaye@
CONST	SEGMENT
??_C@_0CD@JFCNBGKC@?F?$KJ?$LE?W?$LO?F?$MA?L?E?$NL?9?$LN?$LN?$LH?$LJ?$MA?L?$LO?n?$CITuning?5Slaye@ DB 0c6H
	DB	0a9H, 0b4H, 0d7H, 0beH, 0c6H, 0c0H, 0ccH, 0c5H, 0dbH, '-', 0bdH
	DB	0bdH, 0b7H, 0b9H, 0c0H, 0ccH, 0beH, 0eeH, '(Tuning Slayer)', 00H ; `string'
CONST	ENDS
;	COMDAT ??_C@_0CE@FGKLHLFP@?F?$KJ?$LE?W?$LO?F?$MA?L?E?$NL?9?$LJ?l?F?D?$MA?L?$LO?n?$CITuning?5Vampi@
CONST	SEGMENT
??_C@_0CE@FGKLHLFP@?F?$KJ?$LE?W?$LO?F?$MA?L?E?$NL?9?$LJ?l?F?D?$MA?L?$LO?n?$CITuning?5Vampi@ DB 0c6H
	DB	0a9H, 0b4H, 0d7H, 0beH, 0c6H, 0c0H, 0ccH, 0c5H, 0dbH, '-', 0b9H
	DB	0ecH, 0c6H, 0c4H, 0c0H, 0ccH, 0beH, 0eeH, '(Tuning Vampire)', 00H ; `string'
CONST	ENDS
;	COMDAT ??_C@_0CG@CODFJBGO@?F?$KJ?$LE?W?$LO?F?$MA?L?E?$NL?9?$LO?F?$LP?l?$LN?$LK?E?M?A?n?$CITuning?5Ous@
CONST	SEGMENT
??_C@_0CG@CODFJBGO@?F?$KJ?$LE?W?$LO?F?$MA?L?E?$NL?9?$LO?F?$LP?l?$LN?$LK?E?M?A?n?$CITuning?5Ous@ DB 0c6H
	DB	0a9H, 0b4H, 0d7H, 0beH, 0c6H, 0c0H, 0ccH, 0c5H, 0dbH, '-', 0beH
	DB	0c6H, 0bfH, 0ecH, 0bdH, 0baH, 0c5H, 0cdH, 0c1H, 0eeH, '(Tuning'
	DB	' Ousters)', 00H				; `string'
CONST	ENDS
;	COMDAT ??_C@_0BN@PKEMEDFK@?D?$NN?$LP?$KD?G?G?$LN?C?$LO?F?$MA?L?E?$NL?$CICallNPC?5item?$CJ?$AA@
CONST	SEGMENT
??_C@_0BN@PKEMEDFK@?D?$NN?$LP?$KD?G?G?$LN?C?$LO?F?$MA?L?E?$NL?$CICallNPC?5item?$CJ?$AA@ DB 0c4H
	DB	0ddH, 0bfH, 0a3H, 0c7H, 0c7H, 0bdH, 0c3H, 0beH, 0c6H, 0c0H, 0ccH
	DB	0c5H, 0dbH, '(CallNPC item)', 00H		; `string'
CONST	ENDS
;	COMDAT ??_C@_0BD@ENBONDBM@?$LN?W?$LM?$LG?$LB?$KG?J?$KP?$CIRank?5Gem?$CJ?$AA@
CONST	SEGMENT
??_C@_0BD@ENBONDBM@?$LN?W?$LM?$LG?$LB?$KG?J?$KP?$CIRank?5Gem?$CJ?$AA@ DB 0bdH
	DB	0d7H, 0bcH, 0b6H, 0b1H, 0a6H, 0caH, 0afH, '(Rank Gem)', 00H ; `string'
CONST	ENDS
_DATA	SEGMENT
_ITEM_SHOW_NAME DD FLAT:??_C@_0BF@LGMBKJD@?$LP?$MA?E?d?$LJ?Y?$MA?L?$CIMotorcycle?$CJ?$AA@
	DD	FLAT:??_C@_0N@MCEEAHBF@?F?w?$LM?G?$CIPotion?$CJ?$AA@
	DD	FLAT:??_C@_0M@CIOIGDBO@?$LP?v?E?M?$CIWater?$CJ?$AA@
	DD	FLAT:??_C@_0BA@OGGLPNNH@?$LM?$LK?$LM?v?$CIHolywater?$CJ?$AA@
	DD	FLAT:??_C@_0N@JDGLKMJB@?C?Q?$CIMagazine?$CJ?$AA@
	DD	FLAT:??_C@_0BI@PMGPIHGL@?F?x?E?$LK?A?$KG?A?$LG?$CIBomb?5Material?$CJ?$AA@
	DD	FLAT:??_C@_09NJDLBLEM@?$LB?b?E?$LI?$CIEtc?$CJ?$AA@
	DD	FLAT:??_C@_0BA@OCBGHLKD@?$LP?$MA?E?d?$LJ?Y?$MA?L?E?$LA?$CIKey?$CJ?$AA@
	DD	FLAT:??_C@_0L@HHPIAJGP@?$LJ?$NN?A?v?$CIRing?$CJ?$AA@
	DD	FLAT:??_C@_0BF@NKNDJDCL@?$LK?j?$LH?$LJ?$MA?L?$LN?$LN?$LI?$LE?$CIBracelet?$CJ?$AA@
	DD	FLAT:??_C@_0BD@EEKDAEIF@?$LD?W?E?$KJ?$LI?$KO?$LN?$LK?$CINecklace?$CJ?$AA@
	DD	FLAT:??_C@_0L@EDPJKBLJ@?D?Z?F?$KO?$CICoat?$CJ?$AA@
	DD	FLAT:??_C@_0O@DGFMCIMG@?$LJ?Y?A?v?$CITrouser?$CJ?$AA@
	DD	FLAT:??_C@_0M@NOKKGGAC@?$LN?E?$LJ?$NP?$CIShoes?$CJ?$AA@
	DD	FLAT:??_C@_09FHFEECAJ@?$LA?K?$CISword?$CJ?$AA@
	DD	FLAT:??_C@_09OKCECIDN@?$LF?$LF?$CIBlade?$CJ?$AA@
	DD	FLAT:??_C@_0N@DPDAHAMA@?$LJ?f?F?P?$CIShield?$CJ?$AA@
	DD	FLAT:??_C@_0O@MAMEHFBK@?E?$KJ?$LH?N?$LN?$LK?$CICross?$CJ?$AA@
	DD	FLAT:??_C@_0O@KJNPLHE@?$LB?$NL?$LH?$KP?$LK?j?$CIGlove?$CJ?$AA@
	DD	FLAT:??_C@_0L@BFBHOAOG@?G?o?$LI?d?$CIHelm?$CJ?$AA@
	DD	FLAT:??_C@_0BA@PJIMNBHN@?$LN?$LN?$LH?$LJ?$MA?L?$LO?n?5?C?Q?$CISG?$CJ?$AA@
	DD	FLAT:??_C@_0BB@EHPPBIPF@?$LN?$LN?$LH?$LJ?$MA?L?$LO?n?5?C?Q?$CISMG?$CJ?$AA@
	DD	FLAT:??_C@_0BA@BJHBCPPC@?$LN?$LN?$LH?$LJ?$MA?L?$LO?n?5?C?Q?$CIAR?$CJ?$AA@
	DD	FLAT:??_C@_0BA@ODGBLAOG@?$LN?$LN?$LH?$LJ?$MA?L?$LO?n?5?C?Q?$CISR?$CJ?$AA@
	DD	FLAT:??_C@_0BE@EIPICMLP@?$LN?$LN?$LH?$LJ?$MA?L?$LO?n?5?F?x?E?$LK?$CIBOMB?$CJ?$AA@
	DD	FLAT:??_C@_0L@JGDDEPOI@MINE?$CIMine?$CJ?$AA@
	DD	FLAT:??_C@_0L@JPJMMFLN@?$LK?$KH?F?$KO?$CIBelt?$CJ?$AA@
	DD	FLAT:??_C@_0BJ@JLHHGBEK@?G?P?$LN?$MA?$LO?F?$MA?L?E?$NL?$CILearningItem?$CJ?$AA@
	DD	FLAT:??_C@_09JLNOKIFM@?$LF?$LH?$CIMoney?$CJ?$AA@
	DD	FLAT:??_C@_0N@LECCDGPD@?$LN?C?C?$LM?$CICorpse?$CJ?$AA@
	DD	FLAT:??_C@_0BK@OHHAJJJO@?$LJ?l?F?D?$MA?L?$LO?n?5?$LI?$LF?$CIVampire?5Ring?$CJ?$AA@
	DD	FLAT:??_C@_0CG@IDFEMGDC@?$LJ?l?F?D?$MA?L?$LO?n?5?$LK?j?$LH?$LJ?$MA?L?$LN?$LN?$LI?$LE?$CIVampire?5Brac@
	DD	FLAT:??_C@_0CE@JNIALBCG@?$LJ?l?F?D?$MA?L?$LO?n?5?$LD?W?E?$KJ?$LI?$KO?$LN?$LK?$CIVampire?5Neckla@
	DD	FLAT:??_C@_0BM@CHKEGMDJ@?$LJ?l?F?D?$MA?L?$LO?n?5?D?Z?F?$KO?$CIVampire?5Coat?$CJ?$AA@
	DD	FLAT:??_C@_0M@FCFKCOK@?G?X?$LA?q?$CISkull?$CJ?$AA@
	DD	FLAT:??_C@_0N@ENCOJFFJ@?$LI?$NO?$MA?L?$LN?$LK?$CIMace?$CJ?$AA@
	DD	FLAT:??_C@_0M@OCHKKBLL@?G?w?C?$LL?$CISerum?$CJ?$AA@
	DD	FLAT:??_C@_0BL@FNHGDHKN@?$LJ?l?F?D?$MA?L?$LO?n?5?$LB?b?E?$LI?$CIVampire?5Etc?$CJ?$AA@
	DD	FLAT:??_C@_0BN@BCKOECP@?$LN?$LN?$LH?$LJ?$MA?L?$LO?n?5?F?w?E?$LL?$CISlayer?5Portal?$CJ?$AA@
	DD	FLAT:??_C@_0BO@EHLLPAGA@?$LJ?l?F?D?$MA?L?$LO?n?5?F?w?E?$LL?$CIVampire?5Portal?$CJ?$AA@
	DD	FLAT:??_C@_0BM@EBOGENEK@?$MA?L?$LK?$KF?F?$KO?5?$LJ?Z?$LN?$LK?$CIEvent?5Gift?5Box?$CJ?$AA@
	DD	FLAT:??_C@_0BI@CGDIOKMJ@?$MA?L?$LK?$KF?F?$KO?5?$LN?$LK?E?$LI?$CIEvent?5Star?$CJ?$AA@
	DD	FLAT:??_C@_0CB@DDDPANMB@?$LJ?l?F?D?$MA?L?$LO?n?5?$LB?M?$LA?I?$MA?L?$CIVampire?5Earring?$CJ@
	DD	FLAT:??_C@_0M@FOFHBIKD@?$MA?$KP?$LJ?$LA?$CIRelic?$CJ?$AA@
	DD	FLAT:??_C@_0BO@OFMMIION@?$LJ?l?F?D?$MA?L?$LO?n?5?$LJ?$KL?$LB?b?$CIVampire?5Weapon?$CJ?$AA@
	DD	FLAT:??_C@_0CA@CBFMIFJL@?$LJ?l?F?D?$MA?L?$LO?n?5?$LO?F?$LJ?D?$LH?$LP?$CIVampire?5Amulet?$CJ?$AA@
	DD	FLAT:??_C@_0BK@KIPPCBIN@?D?y?$LN?$LK?F?$KO?5?$LO?F?$MA?L?E?$NL?$CIQuest?5Item?$CJ?$AA@
	DD	FLAT:??_C@_0BI@NMAPKBIE@?$MA?L?$LK?$KF?F?$KO?5?$LD?$KK?$LJ?$KL?$CIEvent?5Tree?$CJ?$AA@
	DD	FLAT:??_C@_0BH@PADBDEPC@?$MA?L?$LK?$KF?F?$KO?5?$LB?b?E?$LI?$CIEvent?5Etc?$CJ?$AA@
	DD	FLAT:??_C@_0BH@HLENPLIP@?G?G?$MA?G?5?$LM?$LK?$LM?$KN?$CIBlood?5Bible?$CJ?$AA@
	DD	FLAT:??_C@_0BJ@GFCLCGHO@?$LM?$LK?5?$LL?s?B?$KB?$LJ?$LA?$CICastle?5Symbol?$CJ?$AA@
	DD	FLAT:??_C@_0BE@BFGNFFKD@?D?$LP?G?C?$LI?$LF?$CICouple?5Ring?$CJ?$AA@
	DD	FLAT:??_C@_0BN@KFCDDFNO@?$LJ?l?F?D?$MA?L?$LO?n?5?D?$LP?G?C?$LI?$LF?$CICouple?5Ring?$CJ?$AA@
	DD	FLAT:??_C@_0BK@LJHNHLAD@?$MA?L?$LK?$KF?F?$KO?5?$LO?F?$MA?L?E?$NL?$CIEvent?5Item?$CJ?$AA@
	DD	FLAT:??_C@_0BB@PGMCBEGB@?$LP?$LA?$LH?a?$CIDye?5Potion?$CJ?$AA@
	DD	FLAT:??_C@_0BM@PLIMEBKI@?$LK?N?H?$LA?5?$LO?F?$MA?L?E?$NL?$CIResurrect?5Item?$CJ?$AA@
	DD	FLAT:??_C@_0BJ@CIPEIBLN@?$LJ?M?$LN?L?5?$LO?F?$MA?L?E?$NL?$CIMixing?5Item?$CJ?$AA@
	DD	FLAT:??_C@_0CG@FFJBGKKJ@?$LO?F?$LP?l?$LN?$LK?E?M?A?n?5?$LO?O?$LN?$LK?$LJ?j?$LF?e?$CIOusters?5Arms@
	DD	FLAT:??_C@_0BP@LFDHIKMD@?$LO?F?$LP?l?$LN?$LK?E?M?A?n?5?$LK?N?C?w?$CIOusters?5Boots?$CJ?$AA@
	DD	FLAT:??_C@_0CD@EMDMEEEH@?$LO?F?$LP?l?$LN?$LK?E?M?A?n?5?C?$KN?E?$KJ?$LG?w?$CIOusters?5Chakra@
	DD	FLAT:??_C@_0CD@EHEHLAFE@?$LO?F?$LP?l?$LN?$LK?E?M?A?n?5?$LM?$KN?E?$KM?$LI?$LE?$CIOusters?5Circle@
	DD	FLAT:??_C@_0BO@OGBEGNBB@?$LO?F?$LP?l?$LN?$LK?E?M?A?n?5?D?Z?F?$KO?$CIOusters?5Coat?$CJ?$AA@
	DD	FLAT:??_C@_0CD@NHFKMPPA@?$LO?F?$LP?l?$LN?$LK?E?M?A?n?5?F?R?$LE?x?F?$KO?$CIOusters?5Penden@
	DD	FLAT:??_C@_0BO@NCMOFEPN@?$LO?F?$LP?l?$LN?$LK?E?M?A?n?5?$LJ?$NN?A?v?$CIOusters?5Ring?$CJ?$AA@
	DD	FLAT:??_C@_0BP@NEOJGDCE@?$LO?F?$LP?l?$LN?$LK?E?M?A?n?5?$LN?$LK?E?f?$CIOusters?5Stone?$CJ?$AA@
	DD	FLAT:??_C@_0CG@LPDHABLE@?$LO?F?$LP?l?$LN?$LK?E?M?A?n?5?$LI?$KO?$LN?$LK?F?$LC?$LI?$LE?$CIOusters?5Wris@
	DD	FLAT:??_C@_0M@GPBKFLGK@?$LG?s?$LJ?Y?$CILarva?$CJ?$AA@
	DD	FLAT:??_C@_0L@DACDFACE@?G?$KK?F?D?$CIPupa?$CJ?$AA@
	DD	FLAT:??_C@_0BB@EODBKKBJ@?$LI?$NO?$MA?L?$CICompos?5Mei?$CJ?$AA@
	DD	FLAT:??_C@_0CD@CAGAMFFG@?$LO?F?$LP?l?$LN?$LK?E?M?A?n?5?A?$KK?$CIOusters?5Summon?5Ite@
	DD	FLAT:??_C@_0BJ@KFGOEMKG@?H?$LP?$LA?z?5?$LO?F?$MA?L?E?$NL?$CIEffect?5Item?$CJ?$AA@
	DD	FLAT:??_C@_0BE@HJOJCNGC@?D?Z?$LF?e?5?G?$KF?$CICode?5Sheet?$CJ?$AA@
	DD	FLAT:??_C@_0BF@FFHGJFI@?$LE?$NO?$MA?G?5?D?$KL?$LF?e?$CIMoon?5Card?$CJ?$AA@
	DD	FLAT:??_C@_0BA@LLOAIPKA@?$LN?$LK?$MA?$KH?F?$NL?$CISweeper?$CJ?$AA@
	DD	FLAT:??_C@_0BE@BIPNBNG@?F?j?5?$LO?F?$MA?L?E?$NL?$CIPet?5Item?$CJ?$AA@
	DD	FLAT:??_C@_0BC@IJGKNNI@?F?j?5?$LI?T?$MA?L?$CIPet?5Food?$CJ?$AA@
	DD	FLAT:??_C@_0BH@GJDAMLBE@?F?j?5?$MA?N?C?$LO?F?$KO?$CIPet?5Enchant?$CJ?$AA@
	DD	FLAT:??_C@_0BF@JKPKDELO@?$LK?$LJ?5?A?V?$LI?S?$LE?O?$CILucky?5Bag?$CJ?$AA@
	DD	FLAT:??_C@_0BG@COHMFFFK@?$MA?$PM?$LM?$NL?5?$LO?F?$MA?L?E?$NL?$CISms?5Item?$CJ?$AA@
	DD	FLAT:??_C@_0BB@CCAKECMG@?D?Z?$LO?n?$MA?l?$CICore?5Zap?$CJ?$AA@
	DD	FLAT:??_C@_0BK@KIPPCBIN@?D?y?$LN?$LK?F?$KO?5?$LO?F?$MA?L?E?$NL?$CIQuest?5Item?$CJ?$AA@
	DD	FLAT:??_C@_0BH@NKBBFAOF@?G?T?A?$KE?5?$LO?F?$MA?L?E?$NL?$CITrap?5Item?$CJ?$AA@
	DD	FLAT:??_C@_0BO@KIHEKAFG@?G?G?$MA?G?5?$LA?h?$LO?$OA?$LM?$KN?$CIBlood?5Bible?5Sign?$CJ?$AA@
	DD	FLAT:??_C@_0BG@MNFDCAIF@?$MA?$PM?$MA?o?5?$LO?F?$MA?L?E?$NL?$CIWar?5Item?$CJ?$AA@
	DD	FLAT:??_C@_0CD@NEBFGDOI@2?B?w?5?$MA?$PM?A?w?5?$LO?F?$MA?L?E?$NL?$CICarrying?5Receive@
	DD	FLAT:??_C@_0BK@LFPPGHAG@?$LO?n?$LB?z?5?$LA?$KJ?$LP?J?$CIShoulder?5Armor?$CJ?$AA@
	DD	FLAT:??_C@_0N@FBJGEDKA@?G?G?$LK?N?$CIDermis?$CJ?$AA@
	DD	FLAT:??_C@_0BC@GHMCIKMF@?F?d?$LI?$KD?$LM?R?$LD?$KK?$CIPersona?$CJ?$AA@
	DD	FLAT:??_C@_0P@EBINHADL@?F?d?$MA?L?$LL?$PO?$CIFascia?$CJ?$AA@
	DD	FLAT:??_C@_0N@DEBFKPDI@?$MA?e?$LA?$KJ?$CIMitten?$CJ?$AA@
	DD	FLAT:??_C@_0BN@ODEGHBGC@?$LM?$KN?$LK?j?5?$MA?N?$LK?$KF?E?d?$LI?$KO?$CISub?5Inventory?$CJ?$AA@
	DD	FLAT:??_C@_0BP@CJPMIEBF@?D?$LP?$LI?s?5?D?y?$LN?$LK?F?$KO?$CICommon?5Quest?5Item?$CJ?$AA@
	DD	FLAT:??_C@_0BO@NHDMHMBF@?$LP?$KB?E?W?$LI?$KO?$LO?s?5?C?$LM?$MA?N?$CIEthereal?5Chain?$CJ?$AA@
	DD	FLAT:??_C@_0CA@JDGMJEMI@?$LA?a?$LM?S?$MA?G?5?F?f?$LE?x?F?$KO?$CIHarmonic?5Pendent?$CJ?$AA@
	DD	FLAT:??_C@_0BC@FPPFLIBD@?$LM?v?G?$KF?$CICheck?5Money?$CJ?$AA@
	DD	FLAT:??_C@_0BK@GMHLCFHP@?E?$KF?5?$LP?$MA?$LK?j?5?$LO?F?$LE?c?$CICue?5Of?5Adam?$CJ?$AA@
	DD	FLAT:??_C@_0BP@PEIAKPEO@?G?G?$MA?G?5?$LA?h?$LO?$OA?$LM?$KN?$CIContract?5Of?5Blood?$CJ?$AA@
	DD	FLAT:??_C@_0BD@KAHKONNF@?$LN?$LK?E?$LD?$LK?O?$CISkill?5Book?$CJ?$AA@
	DD	FLAT:??_C@_0CI@FBPNNIJE@?$LJ?l?F?D?$MA?L?$LO?n?5?$LN?E?$LB?T?$MA?L?$LF?$LP?$LM?v?$LE?$NM?$CIVampirewin@
	DD	FLAT:??_C@_0CK@LPDIDGDG@?$LO?F?$LP?l?$LN?$LK?E?M?A?n?5?$LN?E?$LB?T?$MA?L?$LF?$LP?$LM?v?$LE?$NM?$CIOustersw@
	DD	FLAT:??_C@_0CD@JFCNBGKC@?F?$KJ?$LE?W?$LO?F?$MA?L?E?$NL?9?$LN?$LN?$LH?$LJ?$MA?L?$LO?n?$CITuning?5Slaye@
	DD	FLAT:??_C@_0CE@FGKLHLFP@?F?$KJ?$LE?W?$LO?F?$MA?L?E?$NL?9?$LJ?l?F?D?$MA?L?$LO?n?$CITuning?5Vampi@
	DD	FLAT:??_C@_0CG@CODFJBGO@?F?$KJ?$LE?W?$LO?F?$MA?L?E?$NL?9?$LO?F?$LP?l?$LN?$LK?E?M?A?n?$CITuning?5Ous@
	DD	FLAT:??_C@_0BN@PKEMEDFK@?D?$NN?$LP?$KD?G?G?$LN?C?$LO?F?$MA?L?E?$NL?$CICallNPC?5item?$CJ?$AA@
	DD	FLAT:??_C@_0BD@ENBONDBM@?$LN?W?$LM?$LG?$LB?$KG?J?$KP?$CIRank?5Gem?$CJ?$AA@
_DATA	ENDS
;	COMDAT ??_C@_0O@JKENFCBN@MinTrace?52003?$AA@
CONST	SEGMENT
??_C@_0O@JKENFCBN@MinTrace?52003?$AA@ DB 'MinTrace 2003', 00H ; `string'
CONST	ENDS
_DATA	SEGMENT
_g_pszMinTraceTitle DD FLAT:??_C@_0O@JKENFCBN@MinTrace?52003?$AA@
_DATA	ENDS
;	COMDAT ??_C@_0BE@MNEJIGLM@__MinTrace?5Window__?$AA@
CONST	SEGMENT
??_C@_0BE@MNEJIGLM@__MinTrace?5Window__?$AA@ DB '__MinTrace Window__', 00H ; `string'
CONST	ENDS
_DATA	SEGMENT
_g_pszMinTraceClassName DD FLAT:??_C@_0BE@MNEJIGLM@__MinTrace?5Window__?$AA@
?g_ELEMENTAL_COLOR@@3PAKA DD 06464ffH			; g_ELEMENTAL_COLOR
	DD	0ff6464H
	DD	064b4ffH
	DD	0ff6464H
	DD	0ffc0c0H
?g_ELEMENTAL_STRING_ID@@3PAHA DD 03fdH			; g_ELEMENTAL_STRING_ID
	DD	03feH
	DD	03ffH
	DD	0400H
	DD	0401H
_DATA	ENDS
PUBLIC	??2@YAPAXIPAX@Z					; operator new
; Function compile flags: /Ogsy
; File c:\program files\microsoft visual studio .net 2003\vc7\include\new
;	COMDAT ??2@YAPAXIPAX@Z
_TEXT	SEGMENT
___formal$ = 8						; size = 4
__Where$ = 12						; size = 4
??2@YAPAXIPAX@Z PROC NEAR				; operator new, COMDAT

; 64   : 	return (_Where);

  00000	8b 44 24 08	 mov	 eax, DWORD PTR __Where$[esp-4]

; 65   : 	}

  00004	c3		 ret	 0
??2@YAPAXIPAX@Z ENDP					; operator new
_TEXT	ENDS
PUBLIC	?__stl_new@_STL@@YAPAXI@Z			; _STL::__stl_new
EXTRN	??2@YAPAXI@Z:NEAR				; operator new
; Function compile flags: /Ogsy
; File c:\stlport-4.6.1\stlport\stl\_new.h
;	COMDAT ?__stl_new@_STL@@YAPAXI@Z
_TEXT	SEGMENT
___n$ = 8						; size = 4
?__stl_new@_STL@@YAPAXI@Z PROC NEAR			; _STL::__stl_new, COMDAT

; 86   : inline void*  _STLP_CALL __stl_new(size_t __n)   { _STLP_CHECK_NULL_ALLOC(::operator _STLP_NEW(__n)); }

  00000	e9 00 00 00 00	 jmp	 ??2@YAPAXI@Z		; operator new
?__stl_new@_STL@@YAPAXI@Z ENDP				; _STL::__stl_new
_TEXT	ENDS
PUBLIC	?__stl_delete@_STL@@YAXPAX@Z			; _STL::__stl_delete
EXTRN	??3@YAXPAX@Z:NEAR				; operator delete
; Function compile flags: /Ogsy
;	COMDAT ?__stl_delete@_STL@@YAXPAX@Z
_TEXT	SEGMENT
___p$ = 8						; size = 4
?__stl_delete@_STL@@YAXPAX@Z PROC NEAR			; _STL::__stl_delete, COMDAT

; 87   : inline void   _STLP_CALL __stl_delete(void* __p) { ::operator delete(__p); }

  00000	e9 00 00 00 00	 jmp	 ??3@YAXPAX@Z		; operator delete
?__stl_delete@_STL@@YAXPAX@Z ENDP			; _STL::__stl_delete
_TEXT	ENDS
PUBLIC	?read@ivfstream@@QAEXPADI@Z			; ivfstream::read
; Function compile flags: /Ogsy
; File c:\darkeden\designed_common\project\client\virtualfilesystem\vfstream.inl
;	COMDAT ?read@ivfstream@@QAEXPADI@Z
_TEXT	SEGMENT
_buf$ = 8						; size = 4
_len$ = 12						; size = 4
?read@ivfstream@@QAEXPADI@Z PROC NEAR			; ivfstream::read, COMDAT
; _this$ = ecx

; 81   : 	if(m_pFileIO) m_pFileIO->read(buf, len);

  00000	83 79 04 00	 cmp	 DWORD PTR [ecx+4], 0
  00004	74 08		 je	 SHORT $L100689
  00006	8b 49 04	 mov	 ecx, DWORD PTR [ecx+4]
  00009	8b 01		 mov	 eax, DWORD PTR [ecx]
  0000b	ff 60 10	 jmp	 DWORD PTR [eax+16]
$L100689:

; 82   : }

  0000e	c2 08 00	 ret	 8
?read@ivfstream@@QAEXPADI@Z ENDP			; ivfstream::read
_TEXT	ENDS
PUBLIC	?flags@ios_base@_STL@@QBEHXZ			; _STL::ios_base::flags
; Function compile flags: /Ogsy
; File c:\stlport-4.6.1\stlport\stl\_ios_base.h
;	COMDAT ?flags@ios_base@_STL@@QBEHXZ
_TEXT	SEGMENT
?flags@ios_base@_STL@@QBEHXZ PROC NEAR			; _STL::ios_base::flags, COMDAT
; _this$ = ecx

; 115  :   fmtflags flags() const { return _M_fmtflags; }

  00000	8b 41 04	 mov	 eax, DWORD PTR [ecx+4]
  00003	c3		 ret	 0
?flags@ios_base@_STL@@QBEHXZ ENDP			; _STL::ios_base::flags
_TEXT	ENDS
PUBLIC	?rdstate@ios_base@_STL@@QBEHXZ			; _STL::ios_base::rdstate
; Function compile flags: /Ogsy
;	COMDAT ?rdstate@ios_base@_STL@@QBEHXZ
_TEXT	SEGMENT
?rdstate@ios_base@_STL@@QBEHXZ PROC NEAR		; _STL::ios_base::rdstate, COMDAT
; _this$ = ecx

; 178  :   iostate rdstate() const { return _M_iostate; }

  00000	8b 41 08	 mov	 eax, DWORD PTR [ecx+8]
  00003	c3		 ret	 0
?rdstate@ios_base@_STL@@QBEHXZ ENDP			; _STL::ios_base::rdstate
_TEXT	ENDS
PUBLIC	?good@ios_base@_STL@@QBE_NXZ			; _STL::ios_base::good
; Function compile flags: /Ogsy
;	COMDAT ?good@ios_base@_STL@@QBE_NXZ
_TEXT	SEGMENT
?good@ios_base@_STL@@QBE_NXZ PROC NEAR			; _STL::ios_base::good, COMDAT
; _this$ = ecx

; 180  :   bool good() const { return _M_iostate == 0; }

  00000	33 c0		 xor	 eax, eax
  00002	39 41 08	 cmp	 DWORD PTR [ecx+8], eax
  00005	0f 94 c0	 sete	 al
  00008	c3		 ret	 0
?good@ios_base@_STL@@QBE_NXZ ENDP			; _STL::ios_base::good
_TEXT	ENDS
PUBLIC	?_M_setstate_nothrow@ios_base@_STL@@IAEXH@Z	; _STL::ios_base::_M_setstate_nothrow
; Function compile flags: /Ogsy
;	COMDAT ?_M_setstate_nothrow@ios_base@_STL@@IAEXH@Z
_TEXT	SEGMENT
___state$ = 8						; size = 4
?_M_setstate_nothrow@ios_base@_STL@@IAEXH@Z PROC NEAR	; _STL::ios_base::_M_setstate_nothrow, COMDAT
; _this$ = ecx

; 193  :   void _M_setstate_nothrow(iostate __state) { _M_iostate |= __state; }

  00000	8b 44 24 04	 mov	 eax, DWORD PTR ___state$[esp-4]
  00004	09 41 08	 or	 DWORD PTR [ecx+8], eax
  00007	c2 04 00	 ret	 4
?_M_setstate_nothrow@ios_base@_STL@@IAEXH@Z ENDP	; _STL::ios_base::_M_setstate_nothrow
_TEXT	ENDS
PUBLIC	?_M_clear_nothrow@ios_base@_STL@@IAEXH@Z	; _STL::ios_base::_M_clear_nothrow
; Function compile flags: /Ogsy
;	COMDAT ?_M_clear_nothrow@ios_base@_STL@@IAEXH@Z
_TEXT	SEGMENT
___state$ = 8						; size = 4
?_M_clear_nothrow@ios_base@_STL@@IAEXH@Z PROC NEAR	; _STL::ios_base::_M_clear_nothrow, COMDAT
; _this$ = ecx

; 194  :   void _M_clear_nothrow(iostate __state) { _M_iostate = __state; }

  00000	8b 44 24 04	 mov	 eax, DWORD PTR ___state$[esp-4]
  00004	89 41 08	 mov	 DWORD PTR [ecx+8], eax
  00007	c2 04 00	 ret	 4
?_M_clear_nothrow@ios_base@_STL@@IAEXH@Z ENDP		; _STL::ios_base::_M_clear_nothrow
_TEXT	ENDS
PUBLIC	?_M_get_exception_mask@ios_base@_STL@@IBEHXZ	; _STL::ios_base::_M_get_exception_mask
; Function compile flags: /Ogsy
;	COMDAT ?_M_get_exception_mask@ios_base@_STL@@IBEHXZ
_TEXT	SEGMENT
?_M_get_exception_mask@ios_base@_STL@@IBEHXZ PROC NEAR	; _STL::ios_base::_M_get_exception_mask, COMDAT
; _this$ = ecx

; 195  :   iostate _M_get_exception_mask() const { return _M_exception_mask; }

  00000	8b 41 14	 mov	 eax, DWORD PTR [ecx+20]
  00003	c3		 ret	 0
?_M_get_exception_mask@ios_base@_STL@@IBEHXZ ENDP	; _STL::ios_base::_M_get_exception_mask
_TEXT	ENDS
PUBLIC	?_M_check_exception_mask@ios_base@_STL@@IAEXXZ	; _STL::ios_base::_M_check_exception_mask
EXTRN	?_M_throw_failure@ios_base@_STL@@IAEXXZ:NEAR	; _STL::ios_base::_M_throw_failure
; Function compile flags: /Ogsy
;	COMDAT ?_M_check_exception_mask@ios_base@_STL@@IAEXXZ
_TEXT	SEGMENT
?_M_check_exception_mask@ios_base@_STL@@IAEXXZ PROC NEAR ; _STL::ios_base::_M_check_exception_mask, COMDAT
; _this$ = ecx

; 198  :     if (_M_iostate & _M_exception_mask)

  00000	8b 41 14	 mov	 eax, DWORD PTR [ecx+20]
  00003	85 41 08	 test	 eax, DWORD PTR [ecx+8]
  00006	74 05		 je	 SHORT $L79498

; 199  :       _M_throw_failure(); 

  00008	e9 00 00 00 00	 jmp	 ?_M_throw_failure@ios_base@_STL@@IAEXXZ ; _STL::ios_base::_M_throw_failure
$L79498:

; 200  :   }

  0000d	c3		 ret	 0
?_M_check_exception_mask@ios_base@_STL@@IAEXXZ ENDP	; _STL::ios_base::_M_check_exception_mask
_TEXT	ENDS
PUBLIC	?pubsync@?$basic_streambuf@DV?$char_traits@D@_STL@@@_STL@@QAEHXZ ; _STL::basic_streambuf<char,_STL::char_traits<char> >::pubsync
; Function compile flags: /Ogsy
; File c:\stlport-4.6.1\stlport\stl\_streambuf.h
;	COMDAT ?pubsync@?$basic_streambuf@DV?$char_traits@D@_STL@@@_STL@@QAEHXZ
_TEXT	SEGMENT
?pubsync@?$basic_streambuf@DV?$char_traits@D@_STL@@@_STL@@QAEHXZ PROC NEAR ; _STL::basic_streambuf<char,_STL::char_traits<char> >::pubsync, COMDAT
; _this$ = ecx

; 411  :   int pubsync() { return this->sync(); }

  00000	8b 01		 mov	 eax, DWORD PTR [ecx]
  00002	ff 60 10	 jmp	 DWORD PTR [eax+16]
?pubsync@?$basic_streambuf@DV?$char_traits@D@_STL@@@_STL@@QAEHXZ ENDP ; _STL::basic_streambuf<char,_STL::char_traits<char> >::pubsync
_TEXT	ENDS
PUBLIC	?sputn@?$basic_streambuf@DV?$char_traits@D@_STL@@@_STL@@QAEHPBDH@Z ; _STL::basic_streambuf<char,_STL::char_traits<char> >::sputn
; Function compile flags: /Ogsy
;	COMDAT ?sputn@?$basic_streambuf@DV?$char_traits@D@_STL@@@_STL@@QAEHPBDH@Z
_TEXT	SEGMENT
___s$ = 8						; size = 4
___n$ = 12						; size = 4
?sputn@?$basic_streambuf@DV?$char_traits@D@_STL@@@_STL@@QAEHPBDH@Z PROC NEAR ; _STL::basic_streambuf<char,_STL::char_traits<char> >::sputn, COMDAT
; _this$ = ecx

; 441  :     { return this->xsputn(__s, __n); }

  00000	8b 01		 mov	 eax, DWORD PTR [ecx]
  00002	ff 60 28	 jmp	 DWORD PTR [eax+40]
?sputn@?$basic_streambuf@DV?$char_traits@D@_STL@@@_STL@@QAEHPBDH@Z ENDP ; _STL::basic_streambuf<char,_STL::char_traits<char> >::sputn
_TEXT	ENDS
PUBLIC	??0_List_iterator_base@_STL@@QAE@PAU_List_node_base@1@@Z ; _STL::_List_iterator_base::_List_iterator_base
; Function compile flags: /Ogsy
; File c:\stlport-4.6.1\stlport\stl\_list.h
;	COMDAT ??0_List_iterator_base@_STL@@QAE@PAU_List_node_base@1@@Z
_TEXT	SEGMENT
___x$ = 8						; size = 4
??0_List_iterator_base@_STL@@QAE@PAU_List_node_base@1@@Z PROC NEAR ; _STL::_List_iterator_base::_List_iterator_base, COMDAT
; _this$ = ecx

; 95   :   _List_iterator_base(_List_node_base* __x) : _M_node(__x) {}

  00000	8b c1		 mov	 eax, ecx
  00002	8b 4c 24 04	 mov	 ecx, DWORD PTR ___x$[esp-4]
  00006	89 08		 mov	 DWORD PTR [eax], ecx
  00008	c2 04 00	 ret	 4
??0_List_iterator_base@_STL@@QAE@PAU_List_node_base@1@@Z ENDP ; _STL::_List_iterator_base::_List_iterator_base
_TEXT	ENDS
PUBLIC	?_M_incr@_List_iterator_base@_STL@@QAEXXZ	; _STL::_List_iterator_base::_M_incr
; Function compile flags: /Ogsy
;	COMDAT ?_M_incr@_List_iterator_base@_STL@@QAEXXZ
_TEXT	SEGMENT
?_M_incr@_List_iterator_base@_STL@@QAEXXZ PROC NEAR	; _STL::_List_iterator_base::_M_incr, COMDAT
; _this$ = ecx

; 98   :   void _M_incr() { _M_node = _M_node->_M_next; }

  00000	8b 01		 mov	 eax, DWORD PTR [ecx]
  00002	8b 00		 mov	 eax, DWORD PTR [eax]
  00004	89 01		 mov	 DWORD PTR [ecx], eax
  00006	c3		 ret	 0
?_M_incr@_List_iterator_base@_STL@@QAEXXZ ENDP		; _STL::_List_iterator_base::_M_incr
_TEXT	ENDS
PUBLIC	??9_List_iterator_base@_STL@@QBE_NABU01@@Z	; _STL::_List_iterator_base::operator!=
; Function compile flags: /Ogsy
;	COMDAT ??9_List_iterator_base@_STL@@QBE_NABU01@@Z
_TEXT	SEGMENT
___y$ = 8						; size = 4
??9_List_iterator_base@_STL@@QBE_NABU01@@Z PROC NEAR	; _STL::_List_iterator_base::operator!=, COMDAT
; _this$ = ecx

; 104  :     return _M_node != __y._M_node; 

  00000	8b 01		 mov	 eax, DWORD PTR [ecx]
  00002	8b 54 24 04	 mov	 edx, DWORD PTR ___y$[esp-4]
  00006	33 c9		 xor	 ecx, ecx
  00008	3b 02		 cmp	 eax, DWORD PTR [edx]
  0000a	0f 95 c1	 setne	 cl
  0000d	8a c1		 mov	 al, cl

; 105  :   }

  0000f	c2 04 00	 ret	 4
??9_List_iterator_base@_STL@@QBE_NABU01@@Z ENDP		; _STL::_List_iterator_base::operator!=
_TEXT	ENDS
PUBLIC	??1?$allocator@G@_STL@@QAE@XZ			; _STL::allocator<unsigned short>::~allocator<unsigned short>
; Function compile flags: /Ogsy
; File c:\stlport-4.6.1\stlport\stl\_alloc.h
;	COMDAT ??1?$allocator@G@_STL@@QAE@XZ
_TEXT	SEGMENT
??1?$allocator@G@_STL@@QAE@XZ PROC NEAR			; _STL::allocator<unsigned short>::~allocator<unsigned short>, COMDAT
; _this$ = ecx

; 350  :   ~allocator() _STLP_NOTHROW {}

  00000	c3		 ret	 0
??1?$allocator@G@_STL@@QAE@XZ ENDP			; _STL::allocator<unsigned short>::~allocator<unsigned short>
_TEXT	ENDS
PUBLIC	?allocate@?$__node_alloc@$00$0A@@_STL@@SAPAXI@Z	; _STL::__node_alloc<1,0>::allocate
EXTRN	?_M_allocate@?$__node_alloc@$00$0A@@_STL@@CAPAXI@Z:NEAR ; _STL::__node_alloc<1,0>::_M_allocate
; Function compile flags: /Ogsy
;	COMDAT ?allocate@?$__node_alloc@$00$0A@@_STL@@SAPAXI@Z
_TEXT	SEGMENT
___n$ = 8						; size = 4
?allocate@?$__node_alloc@$00$0A@@_STL@@SAPAXI@Z PROC NEAR ; _STL::__node_alloc<1,0>::allocate, COMDAT

; 251  :   static void * _STLP_CALL allocate(size_t __n) { return (__n > (size_t)_MAX_BYTES) ?  __stl_new(__n) : _M_allocate(__n); }

  00000	8b 44 24 04	 mov	 eax, DWORD PTR ___n$[esp-4]
