; Listing generated by Microsoft (R) Optimizing Compiler Version 13.10.3077 

	TITLE	\darkeden\Designed_Common\Project\Client\MLoadingSPKWorkNode.cpp
	.386P
include listing.inc
if @Version gt 510
.model FLAT
else
_TEXT	SEGMENT PARA USE32 PUBLIC 'CODE'
_TEXT	ENDS
_DATA	SEGMENT DWORD USE32 PUBLIC 'DATA'
_DATA	ENDS
CONST	SEGMENT DWORD USE32 PUBLIC 'CONST'
CONST	ENDS
_BSS	SEGMENT DWORD USE32 PUBLIC 'BSS'
_BSS	ENDS
$$SYMBOLS	SEGMENT BYTE USE32 'DEBSYM'
$$SYMBOLS	ENDS
$$TYPES	SEGMENT BYTE USE32 'DEBTYP'
$$TYPES	ENDS
_TLS	SEGMENT DWORD USE32 PUBLIC 'TLS'
_TLS	ENDS
;	COMDAT ??_C@_0BN@ODLNCKCA@Data?2?2Info?2?2ClientConfig?4inf?$AA@
CONST	SEGMENT DWORD USE32 PUBLIC 'CONST'
CONST	ENDS
;	COMDAT ??_C@_0BM@DFPLPGPC@Data?2?2Info?2?2GuildMapper?4inf?$AA@
CONST	SEGMENT DWORD USE32 PUBLIC 'CONST'
CONST	ENDS
;	COMDAT ??_C@_0BN@LHODHNBK@Data?2?2Info?2?2GuildVersion?4inf?$AA@
CONST	SEGMENT DWORD USE32 PUBLIC 'CONST'
CONST	ENDS
;	COMDAT ??_C@_0BH@DDPLNCOL@Data?2?2Info?2?2Player?4inf?$AA@
CONST	SEGMENT DWORD USE32 PUBLIC 'CONST'
CONST	ENDS
;	COMDAT ??_C@_0BL@ILLNAPHB@Data?2?2Info?2?2Resolution?4inf?$AA@
CONST	SEGMENT DWORD USE32 PUBLIC 'CONST'
CONST	ENDS
;	COMDAT ??_C@_0CA@HEIGFDLG@Data?2?2Info?2?2SelectedChannel?4inf?$AA@
CONST	SEGMENT DWORD USE32 PUBLIC 'CONST'
CONST	ENDS
;	COMDAT ??_C@_03KLNPHJAI@?$CFsi?$AA@
CONST	SEGMENT DWORD USE32 PUBLIC 'CONST'
CONST	ENDS
;	COMDAT ??_C@_0BJ@MIBMMHPK@real?5size?5?3?5?$CFd?5size?5?3?5?$CFd?$AA@
CONST	SEGMENT DWORD USE32 PUBLIC 'CONST'
CONST	ENDS
;	COMDAT ??_C@_0L@GKEOOOME@CTypePack2?$AA@
CONST	SEGMENT DWORD USE32 PUBLIC 'CONST'
CONST	ENDS
;	COMDAT ??_C@_0M@KJGOGBJN@?2header?4inf?$AA@
CONST	SEGMENT DWORD USE32 PUBLIC 'CONST'
CONST	ENDS
;	COMDAT ??_C@_09EIKOIO@?$CFs?2?$CF05d?$CFs?$AA@
CONST	SEGMENT DWORD USE32 PUBLIC 'CONST'
CONST	ENDS
;	COMDAT ??_C@_0N@GOPDCEEB@basic_string?$AA@
CONST	SEGMENT DWORD USE32 PUBLIC 'CONST'
CONST	ENDS
rdata$r	SEGMENT DWORD USE32 PUBLIC 'CONST'
rdata$r	ENDS
text$yc	SEGMENT PARA USE32 PUBLIC 'CODE'
text$yc	ENDS
CRT$XCA	SEGMENT DWORD USE32 PUBLIC 'DATA'
CRT$XCA	ENDS
CRT$XCU	SEGMENT DWORD USE32 PUBLIC 'DATA'
CRT$XCU	ENDS
CRT$XCL	SEGMENT DWORD USE32 PUBLIC 'DATA'
CRT$XCL	ENDS
CRT$XCC	SEGMENT DWORD USE32 PUBLIC 'DATA'
CRT$XCC	ENDS
CRT$XCZ	SEGMENT DWORD USE32 PUBLIC 'DATA'
CRT$XCZ	ENDS
text$yd	SEGMENT PARA USE32 PUBLIC 'CODE'
text$yd	ENDS
;	COMDAT ?SetType@MWorkNode@@QAEXH@Z
_TEXT	SEGMENT PARA USE32 PUBLIC 'CODE'
_TEXT	ENDS
;	COMDAT ?start@CNFS@@QAE_NPADH@Z
_TEXT	SEGMENT PARA USE32 PUBLIC 'CODE'
_TEXT	ENDS
;	COMDAT ?end@CNFS@@QAEXXZ
_TEXT	SEGMENT PARA USE32 PUBLIC 'CODE'
_TEXT	ENDS
;	COMDAT ?Init@VirtualFileHeader@@QAEXXZ
_TEXT	SEGMENT PARA USE32 PUBLIC 'CODE'
_TEXT	ENDS
;	COMDAT ??1IFileIO@@UAE@XZ
_TEXT	SEGMENT PARA USE32 PUBLIC 'CODE'
_TEXT	ENDS
;	COMDAT ??_GIFileIO@@UAEPAXI@Z
_TEXT	SEGMENT PARA USE32 PUBLIC 'CODE'
_TEXT	ENDS
;	COMDAT ?get_vfs@iovfs_base@@SAPAVVirtualFileSystem@@XZ
_TEXT	SEGMENT PARA USE32 PUBLIC 'CODE'
_TEXT	ENDS
;	COMDAT ??0iovfs_base@@QAE@XZ
_TEXT	SEGMENT PARA USE32 PUBLIC 'CODE'
_TEXT	ENDS
;	COMDAT ??_Giovfs_base@@UAEPAXI@Z
_TEXT	SEGMENT PARA USE32 PUBLIC 'CODE'
_TEXT	ENDS
;	COMDAT ??1iovfs_base@@UAE@XZ
_TEXT	SEGMENT PARA USE32 PUBLIC 'CODE'
_TEXT	ENDS
;	COMDAT ?Init@iovfs_base@@QAEXXZ
_TEXT	SEGMENT PARA USE32 PUBLIC 'CODE'
_TEXT	ENDS
;	COMDAT ?is_open@iovfs_base@@QBE_NXZ
_TEXT	SEGMENT PARA USE32 PUBLIC 'CODE'
_TEXT	ENDS
;	COMDAT ??0ivfstream@@QAE@XZ
_TEXT	SEGMENT PARA USE32 PUBLIC 'CODE'
_TEXT	ENDS
;	COMDAT ??_Givfstream@@UAEPAXI@Z
_TEXT	SEGMENT PARA USE32 PUBLIC 'CODE'
_TEXT	ENDS
;	COMDAT ??0ivfstream@@QAE@PBDH@Z
_TEXT	SEGMENT PARA USE32 PUBLIC 'CODE'
_TEXT	ENDS
;	COMDAT ??1ivfstream@@UAE@XZ
_TEXT	SEGMENT PARA USE32 PUBLIC 'CODE'
_TEXT	ENDS
;	COMDAT ?open@ivfstream@@UAEXPBDH@Z
_TEXT	SEGMENT PARA USE32 PUBLIC 'CODE'
_TEXT	ENDS
;	COMDAT ?read@ivfstream@@QAEXPADI@Z
_TEXT	SEGMENT PARA USE32 PUBLIC 'CODE'
_TEXT	ENDS
;	COMDAT ?seekg@ivfstream@@QAEXJH@Z
_TEXT	SEGMENT PARA USE32 PUBLIC 'CODE'
_TEXT	ENDS
;	COMDAT ?tellg@ivfstream@@QAEHXZ
_TEXT	SEGMENT PARA USE32 PUBLIC 'CODE'
_TEXT	ENDS
;	COMDAT ?getline@ivfstream@@QAEPAXPADHD@Z
_TEXT	SEGMENT PARA USE32 PUBLIC 'CODE'
_TEXT	ENDS
;	COMDAT ??_Govfstream@@UAEPAXI@Z
_TEXT	SEGMENT PARA USE32 PUBLIC 'CODE'
_TEXT	ENDS
;	COMDAT ??1ovfstream@@UAE@XZ
_TEXT	SEGMENT PARA USE32 PUBLIC 'CODE'
_TEXT	ENDS
;	COMDAT ?open@ovfstream@@UAEXPBDH@Z
_TEXT	SEGMENT PARA USE32 PUBLIC 'CODE'
_TEXT	ENDS
;	COMDAT ?Is565@CDirectDraw@@SA_NXZ
_TEXT	SEGMENT PARA USE32 PUBLIC 'CODE'
_TEXT	ENDS
;	COMDAT ?Red@CDirectDraw@@SAEABG@Z
_TEXT	SEGMENT PARA USE32 PUBLIC 'CODE'
_TEXT	ENDS
;	COMDAT ?Green@CDirectDraw@@SAEABG@Z
_TEXT	SEGMENT PARA USE32 PUBLIC 'CODE'
_TEXT	ENDS
;	COMDAT ?Blue@CDirectDraw@@SAEABG@Z
_TEXT	SEGMENT PARA USE32 PUBLIC 'CODE'
_TEXT	ENDS
;	COMDAT ??1ITypePackBase@@UAE@XZ
_TEXT	SEGMENT PARA USE32 PUBLIC 'CODE'
_TEXT	ENDS
;	COMDAT ??_GITypePackBase@@UAEPAXI@Z
_TEXT	SEGMENT PARA USE32 PUBLIC 'CODE'
_TEXT	ENDS
;	COMDAT ?SetClipLeftTop@CDirectDrawSurface@@QAEXHH@Z
_TEXT	SEGMENT PARA USE32 PUBLIC 'CODE'
_TEXT	ENDS
;	COMDAT ?SetClipRightBottom@CDirectDrawSurface@@QAEXHH@Z
_TEXT	SEGMENT PARA USE32 PUBLIC 'CODE'
_TEXT	ENDS
;	COMDAT ?IsInit@CSpritePalBase@@QBE_NXZ
_TEXT	SEGMENT PARA USE32 PUBLIC 'CODE'
_TEXT	ENDS
;	COMDAT ?IsNotInit@CSprite@@QBE_NXZ
_TEXT	SEGMENT PARA USE32 PUBLIC 'CODE'
_TEXT	ENDS
;	COMDAT ?IsInit@CSprite@@QBE_NXZ
_TEXT	SEGMENT PARA USE32 PUBLIC 'CODE'
_TEXT	ENDS
;	COMDAT ??0MLoadingSPKWorkNode@@QAE@XZ
_TEXT	SEGMENT PARA USE32 PUBLIC 'CODE'
_TEXT	ENDS
;	COMDAT ??1MLoadingSPKWorkNode@@UAE@XZ
_TEXT	SEGMENT PARA USE32 PUBLIC 'CODE'
_TEXT	ENDS
;	COMDAT ?SetSPK@MLoadingSPKWorkNode@@QAEXPAV?$CTypePack2@VCSprite@@VCSprite555@@VCSprite565@@@@PBD@Z
_TEXT	SEGMENT PARA USE32 PUBLIC 'CODE'
_TEXT	ENDS
;	COMDAT ??_GMLoadingSPKWorkNode@@UAEPAXI@Z
_TEXT	SEGMENT PARA USE32 PUBLIC 'CODE'
_TEXT	ENDS
;	COMDAT ??1MLoadingSPKWorkNode1@@UAE@XZ
_TEXT	SEGMENT PARA USE32 PUBLIC 'CODE'
_TEXT	ENDS
;	COMDAT ??_GMLoadingSPKWorkNode1@@UAEPAXI@Z
_TEXT	SEGMENT PARA USE32 PUBLIC 'CODE'
_TEXT	ENDS
;	COMDAT ??0MLoadingSPKWorkNode2@@QAE@PAV?$TArray@VSPRITE_FILEPOSITION_NODE@@G@@@Z
_TEXT	SEGMENT PARA USE32 PUBLIC 'CODE'
_TEXT	ENDS
;	COMDAT ??1MLoadingSPKWorkNode2@@UAE@XZ
_TEXT	SEGMENT PARA USE32 PUBLIC 'CODE'
_TEXT	ENDS
;	COMDAT ??_GMLoadingSPKWorkNode2@@UAEPAXI@Z
_TEXT	SEGMENT PARA USE32 PUBLIC 'CODE'
_TEXT	ENDS
;	COMDAT ??_G?$TArray@VSPRITE_FILEPOSITION_NODE@@G@@QAEPAXI@Z
_TEXT	SEGMENT PARA USE32 PUBLIC 'CODE'
_TEXT	ENDS
;	COMDAT ??1MLoadingSPKWorkNode3@@UAE@XZ
_TEXT	SEGMENT PARA USE32 PUBLIC 'CODE'
_TEXT	ENDS
;	COMDAT ??_GMLoadingSPKWorkNode3@@UAEPAXI@Z
_TEXT	SEGMENT PARA USE32 PUBLIC 'CODE'
_TEXT	ENDS
;	COMDAT ??0MLoadingSPKWorkNode4@@QAE@GGJ@Z
_TEXT	SEGMENT PARA USE32 PUBLIC 'CODE'
_TEXT	ENDS
;	COMDAT ??1MLoadingSPKWorkNode4@@UAE@XZ
_TEXT	SEGMENT PARA USE32 PUBLIC 'CODE'
_TEXT	ENDS
;	COMDAT ??_GMLoadingSPKWorkNode4@@UAEPAXI@Z
_TEXT	SEGMENT PARA USE32 PUBLIC 'CODE'
_TEXT	ENDS
;	COMDAT ?Execute@MLoadingSPKWorkNode1@@UAEHAAPAVMWorkNode@@@Z
_TEXT	SEGMENT PARA USE32 PUBLIC 'CODE'
_TEXT	ENDS
;	COMDAT ?Execute@MLoadingSPKWorkNode2@@UAEHAAPAVMWorkNode@@@Z
_TEXT	SEGMENT PARA USE32 PUBLIC 'CODE'
_TEXT	ENDS
;	COMDAT ?Execute@MLoadingSPKWorkNode3@@UAEHAAPAVMWorkNode@@@Z
_TEXT	SEGMENT PARA USE32 PUBLIC 'CODE'
_TEXT	ENDS
;	COMDAT ?Execute@MLoadingSPKWorkNode4@@UAEHAAPAVMWorkNode@@@Z
_TEXT	SEGMENT PARA USE32 PUBLIC 'CODE'
_TEXT	ENDS
;	COMDAT ?eq@?$__char_traits_base@DH@_STL@@SA_NABD0@Z
_TEXT	SEGMENT PARA USE32 PUBLIC 'CODE'
_TEXT	ENDS
;	COMDAT ?not_eof@?$__char_traits_base@DH@_STL@@SAHABH@Z
_TEXT	SEGMENT PARA USE32 PUBLIC 'CODE'
_TEXT	ENDS
;	COMDAT ?eq_int_type@?$__char_traits_base@DH@_STL@@SA_NABH0@Z
_TEXT	SEGMENT PARA USE32 PUBLIC 'CODE'
_TEXT	ENDS
;	COMDAT ?get_allocator@?$basic_string@DV?$char_traits@D@_STL@@V?$allocator@D@2@@_STL@@QBE?AV?$allocator@D@2@XZ
_TEXT	SEGMENT PARA USE32 PUBLIC 'CODE'
_TEXT	ENDS
;	COMDAT ??4?$basic_string@DV?$char_traits@D@_STL@@V?$allocator@D@2@@_STL@@QAEAAV01@PBD@Z
_TEXT	SEGMENT PARA USE32 PUBLIC 'CODE'
_TEXT	ENDS
;	COMDAT ?_M_terminate_string@?$basic_string@DV?$char_traits@D@_STL@@V?$allocator@D@2@@_STL@@AAEXXZ
_TEXT	SEGMENT PARA USE32 PUBLIC 'CODE'
_TEXT	ENDS
;	COMDAT ??0?$_String_base@DV?$allocator@D@_STL@@@_STL@@QAE@ABV?$allocator@D@1@@Z
_TEXT	SEGMENT PARA USE32 PUBLIC 'CODE'
_TEXT	ENDS
;	COMDAT ?allocate@?$allocator@D@_STL@@QAEPADIPBX@Z
_TEXT	SEGMENT PARA USE32 PUBLIC 'CODE'
_TEXT	ENDS
;	COMDAT ??0?$fpos@H@_STL@@QAE@J@Z
_TEXT	SEGMENT PARA USE32 PUBLIC 'CODE'
_TEXT	ENDS
;	COMDAT ??B?$fpos@H@_STL@@QBEJXZ
_TEXT	SEGMENT PARA USE32 PUBLIC 'CODE'
_TEXT	ENDS
;	COMDAT ?state@?$fpos@H@_STL@@QBEHXZ
_TEXT	SEGMENT PARA USE32 PUBLIC 'CODE'
_TEXT	ENDS
;	COMDAT ?is_open@?$basic_filebuf@DV?$char_traits@D@_STL@@@_STL@@QBE_NXZ
_TEXT	SEGMENT PARA USE32 PUBLIC 'CODE'
_TEXT	ENDS
;	COMDAT ?_M_seek_return@?$basic_filebuf@DV?$char_traits@D@_STL@@@_STL@@AAE?AV?$fpos@H@2@JH@Z
_TEXT	SEGMENT PARA USE32 PUBLIC 'CODE'
_TEXT	ENDS
;	COMDAT ??0?$_Filebuf_Tmp_Buf@D@_STL@@QAE@H@Z
_TEXT	SEGMENT PARA USE32 PUBLIC 'CODE'
_TEXT	ENDS
;	COMDAT ??1?$_Filebuf_Tmp_Buf@D@_STL@@QAE@XZ
_TEXT	SEGMENT PARA USE32 PUBLIC 'CODE'
_TEXT	ENDS
;	COMDAT ?GetSize@?$TArray@VSPRITE_FILEPOSITION_NODE@@G@@QBEGXZ
_TEXT	SEGMENT PARA USE32 PUBLIC 'CODE'
_TEXT	ENDS
;	COMDAT ??A?$TArray@VSPRITE_FILEPOSITION_NODE@@G@@QAEAAVSPRITE_FILEPOSITION_NODE@@G@Z
_TEXT	SEGMENT PARA USE32 PUBLIC 'CODE'
_TEXT	ENDS
;	COMDAT ?GetSize@?$CTypePack2@VCSprite@@VCSprite555@@VCSprite565@@@@UBEKXZ
_TEXT	SEGMENT PARA USE32 PUBLIC 'CODE'
_TEXT	ENDS
;	COMDAT ?Is565@?$CTypePack2@VCSprite@@VCSprite555@@VCSprite565@@@@UAE_NXZ
_TEXT	SEGMENT PARA USE32 PUBLIC 'CODE'
_TEXT	ENDS
;	COMDAT ?_M_terminate_string_aux@?$basic_string@DV?$char_traits@D@_STL@@V?$allocator@D@2@@_STL@@AAEXABU__true_type@2@@Z
_TEXT	SEGMENT PARA USE32 PUBLIC 'CODE'
_TEXT	ENDS
;	COMDAT ?assign@?$basic_string@DV?$char_traits@D@_STL@@V?$allocator@D@2@@_STL@@QAEAAV12@PBD0@Z
_TEXT	SEGMENT PARA USE32 PUBLIC 'CODE'
_TEXT	ENDS
;	COMDAT ??0?$allocator@D@_STL@@QAE@ABV01@@Z
_TEXT	SEGMENT PARA USE32 PUBLIC 'CODE'
_TEXT	ENDS
;	COMDAT ??0?$_STLP_alloc_proxy@PADDV?$allocator@D@_STL@@@_STL@@QAE@ABV?$allocator@D@1@PAD@Z
_TEXT	SEGMENT PARA USE32 PUBLIC 'CODE'
_TEXT	ENDS
;	COMDAT ?state@?$fpos@H@_STL@@QAEXH@Z
_TEXT	SEGMENT PARA USE32 PUBLIC 'CODE'
_TEXT	ENDS
;	COMDAT ?copy@?$__char_traits_base@DH@_STL@@SAPADPADPBDI@Z
_TEXT	SEGMENT PARA USE32 PUBLIC 'CODE'
_TEXT	ENDS
;	COMDAT ?begin@?$basic_string@DV?$char_traits@D@_STL@@V?$allocator@D@2@@_STL@@QAEPADXZ
_TEXT	SEGMENT PARA USE32 PUBLIC 'CODE'
_TEXT	ENDS
;	COMDAT ?end@?$basic_string@DV?$char_traits@D@_STL@@V?$allocator@D@2@@_STL@@QAEPADXZ
_TEXT	SEGMENT PARA USE32 PUBLIC 'CODE'
_TEXT	ENDS
;	COMDAT ?size@?$basic_string@DV?$char_traits@D@_STL@@V?$allocator@D@2@@_STL@@QBEIXZ
_TEXT	SEGMENT PARA USE32 PUBLIC 'CODE'
_TEXT	ENDS
;	COMDAT ?erase@?$basic_string@DV?$char_traits@D@_STL@@V?$allocator@D@2@@_STL@@QAEPADPAD0@Z
_TEXT	SEGMENT PARA USE32 PUBLIC 'CODE'
_TEXT	ENDS
;	COMDAT ?move@?$__char_traits_base@DH@_STL@@SAPADPADPBDI@Z
_TEXT	SEGMENT PARA USE32 PUBLIC 'CODE'
_TEXT	ENDS
;	COMDAT ??$_M_range_initialize@PBD@?$basic_string@DV?$char_traits@D@_STL@@V?$allocator@D@2@@_STL@@AAEXPBD0@Z
_TEXT	SEGMENT PARA USE32 PUBLIC 'CODE'
_TEXT	ENDS
;	COMDAT ??$_M_range_initialize@PAD@?$basic_string@DV?$char_traits@D@_STL@@V?$allocator@D@2@@_STL@@AAEXPAD0@Z
_TEXT	SEGMENT PARA USE32 PUBLIC 'CODE'
_TEXT	ENDS
;	COMDAT ?close@?$basic_filebuf@DV?$char_traits@D@_STL@@@_STL@@QAEPAV12@XZ
_TEXT	SEGMENT PARA USE32 PUBLIC 'CODE'
_TEXT	ENDS
;	COMDAT ?_M_exit_input_mode@?$basic_filebuf@DV?$char_traits@D@_STL@@@_STL@@AAEXXZ
_TEXT	SEGMENT PARA USE32 PUBLIC 'CODE'
_TEXT	ENDS
;	COMDAT ?_M_switch_to_output_mode@?$basic_filebuf@DV?$char_traits@D@_STL@@@_STL@@AAE_NXZ
_TEXT	SEGMENT PARA USE32 PUBLIC 'CODE'
_TEXT	ENDS
;	COMDAT ?_M_output_error@?$basic_filebuf@DV?$char_traits@D@_STL@@@_STL@@AAEHXZ
_TEXT	SEGMENT PARA USE32 PUBLIC 'CODE'
_TEXT	ENDS
;	COMDAT ?_M_allocate_buffers@?$basic_filebuf@DV?$char_traits@D@_STL@@@_STL@@AAE_NPADH@Z
_TEXT	SEGMENT PARA USE32 PUBLIC 'CODE'
_TEXT	ENDS
;	COMDAT ?_M_deallocate_buffers@?$basic_filebuf@DV?$char_traits@D@_STL@@@_STL@@AAEXXZ
_TEXT	SEGMENT PARA USE32 PUBLIC 'CODE'
_TEXT	ENDS
;	COMDAT ?_M_seek_init@?$basic_filebuf@DV?$char_traits@D@_STL@@@_STL@@AAE_N_N@Z
_TEXT	SEGMENT PARA USE32 PUBLIC 'CODE'
_TEXT	ENDS
;	COMDAT ?_M_setup_codecvt@?$basic_filebuf@DV?$char_traits@D@_STL@@@_STL@@AAEXABVlocale@2@@Z
_TEXT	SEGMENT PARA USE32 PUBLIC 'CODE'
_TEXT	ENDS
;	COMDAT ??$equal@PADPADU?$_Eq_traits@V?$char_traits@D@_STL@@@_STL@@@_STL@@YA_NPAD00U?$_Eq_traits@V?$char_traits@D@_STL@@@0@@Z
_TEXT	SEGMENT PARA USE32 PUBLIC 'CODE'
_TEXT	ENDS
;	COMDAT ??$_Destroy@V?$basic_string@DV?$char_traits@D@_STL@@V?$allocator@D@2@@_STL@@@_STL@@YAXPAV?$basic_string@DV?$char_traits@D@_STL@@V?$allocator@D@2@@0@@Z
_TEXT	SEGMENT PARA USE32 PUBLIC 'CODE'
_TEXT	ENDS
;	COMDAT ??$_M_assign_dispatch@PAD@?$basic_string@DV?$char_traits@D@_STL@@V?$allocator@D@2@@_STL@@AAEAAV01@PAD0ABU__false_type@1@@Z
_TEXT	SEGMENT PARA USE32 PUBLIC 'CODE'
_TEXT	ENDS
;	COMDAT ??0?$TArray@VSPRITE_FILEPOSITION_NODE@@G@@QAE@G@Z
_TEXT	SEGMENT PARA USE32 PUBLIC 'CODE'
_TEXT	ENDS
;	COMDAT ??1?$TArray@VSPRITE_FILEPOSITION_NODE@@G@@QAE@XZ
_TEXT	SEGMENT PARA USE32 PUBLIC 'CODE'
_TEXT	ENDS
;	COMDAT ?Init@?$TArray@VSPRITE_FILEPOSITION_NODE@@G@@QAEXG@Z
_TEXT	SEGMENT PARA USE32 PUBLIC 'CODE'
_TEXT	ENDS
;	COMDAT ?LoadFromFile@?$TArray@VSPRITE_FILEPOSITION_NODE@@G@@QAE_NAAVivfstream@@@Z
_TEXT	SEGMENT PARA USE32 PUBLIC 'CODE'
_TEXT	ENDS
;	COMDAT ??1?$CTypePack2@VCSprite@@VCSprite555@@VCSprite565@@@@UAE@XZ
_TEXT	SEGMENT PARA USE32 PUBLIC 'CODE'
_TEXT	ENDS
;	COMDAT ?Init@?$CTypePack2@VCSprite@@VCSprite555@@VCSprite565@@@@UAEXG@Z
_TEXT	SEGMENT PARA USE32 PUBLIC 'CODE'
_TEXT	ENDS
;	COMDAT ?Release@?$CTypePack2@VCSprite@@VCSprite555@@VCSprite565@@@@UAEXXZ
_TEXT	SEGMENT PARA USE32 PUBLIC 'CODE'
_TEXT	ENDS
;	COMDAT ??A?$CTypePack2@VCSprite@@VCSprite555@@VCSprite565@@@@UAEAAVCSprite@@G@Z
_TEXT	SEGMENT PARA USE32 PUBLIC 'CODE'
_TEXT	ENDS
;	COMDAT ?Get@?$CTypePack2@VCSprite@@VCSprite555@@VCSprite565@@@@UAEAAVCSprite@@G@Z
_TEXT	SEGMENT PARA USE32 PUBLIC 'CODE'
_TEXT	ENDS
;	COMDAT ?SaveToFile@?$CTypePack2@VCSprite@@VCSprite555@@VCSprite565@@@@UAE_NPBD@Z
_TEXT	SEGMENT PARA USE32 PUBLIC 'CODE'
_TEXT	ENDS
;	COMDAT ?SaveToFile@?$CTypePack2@VCSprite@@VCSprite555@@VCSprite565@@@@UAE_NAAV?$basic_ofstream@DV?$char_traits@D@_STL@@@_STL@@0@Z
_TEXT	SEGMENT PARA USE32 PUBLIC 'CODE'
_TEXT	ENDS
;	COMDAT ?LoadFromFileRunning@?$CTypePack2@VCSprite@@VCSprite555@@VCSprite565@@@@UAE_NPBD@Z
_TEXT	SEGMENT PARA USE32 PUBLIC 'CODE'
_TEXT	ENDS
;	COMDAT ?LoadFromFile@?$CTypePack2@VCSprite@@VCSprite555@@VCSprite565@@@@UAE_NPBD@Z
_TEXT	SEGMENT PARA USE32 PUBLIC 'CODE'
_TEXT	ENDS
;	COMDAT ?LoadFromFilePart@?$CTypePack2@VCSprite@@VCSprite555@@VCSprite565@@@@UAE_NAAVCSpriteSetManager@@@Z
_TEXT	SEGMENT PARA USE32 PUBLIC 'CODE'
_TEXT	ENDS
;	COMDAT ?LoadFromFilePart@?$CTypePack2@VCSprite@@VCSprite555@@VCSprite565@@@@UAE_NHH@Z
_TEXT	SEGMENT PARA USE32 PUBLIC 'CODE'
_TEXT	ENDS
;	COMDAT ?LoadFromFileData@?$CTypePack2@VCSprite@@VCSprite555@@VCSprite565@@@@UAE_NHHPBD0@Z
_TEXT	SEGMENT PARA USE32 PUBLIC 'CODE'
_TEXT	ENDS
;	COMDAT ?ReleasePart@?$CTypePack2@VCSprite@@VCSprite555@@VCSprite565@@@@UAE_NV?$COrderedList@G@@@Z
_TEXT	SEGMENT PARA USE32 PUBLIC 'CODE'
_TEXT	ENDS
;	COMDAT ?ReleasePart@?$CTypePack2@VCSprite@@VCSprite555@@VCSprite565@@@@UAE_NHH@Z
_TEXT	SEGMENT PARA USE32 PUBLIC 'CODE'
_TEXT	ENDS
;	COMDAT ?FinishRunningLoad@?$CTypePack2@VCSprite@@VCSprite555@@VCSprite565@@@@UAEXXZ
_TEXT	SEGMENT PARA USE32 PUBLIC 'CODE'
_TEXT	ENDS
;	COMDAT ??$append@PBD@?$basic_string@DV?$char_traits@D@_STL@@V?$allocator@D@2@@_STL@@QAEAAV01@PBD0@Z
_TEXT	SEGMENT PARA USE32 PUBLIC 'CODE'
_TEXT	ENDS
;	COMDAT ??_G?$basic_string@DV?$char_traits@D@_STL@@V?$allocator@D@2@@_STL@@QAEPAXI@Z
_TEXT	SEGMENT PARA USE32 PUBLIC 'CODE'
_TEXT	ENDS
;	COMDAT ??_G?$CTypePack2@VCSprite@@VCSprite555@@VCSprite565@@@@UAEPAXI@Z
_TEXT	SEGMENT PARA USE32 PUBLIC 'CODE'
_TEXT	ENDS
;	COMDAT ??1?$map@GPAVivfstream@@U?$less@G@_STL@@V?$allocator@U?$pair@$$CBGPAVivfstream@@@_STL@@@3@@_STL@@QAE@XZ
_TEXT	SEGMENT PARA USE32 PUBLIC 'CODE'
_TEXT	ENDS
;	COMDAT ??_ECSprite565@@QAEPAXI@Z
_TEXT	SEGMENT PARA USE32 PUBLIC 'CODE'
_TEXT	ENDS
;	COMDAT ??0CSprite565@@QAE@XZ
_TEXT	SEGMENT PARA USE32 PUBLIC 'CODE'
_TEXT	ENDS
;	COMDAT ??1CSprite565@@QAE@XZ
_TEXT	SEGMENT PARA USE32 PUBLIC 'CODE'
_TEXT	ENDS
;	COMDAT ??_ECSprite555@@QAEPAXI@Z
_TEXT	SEGMENT PARA USE32 PUBLIC 'CODE'
_TEXT	ENDS
;	COMDAT ??0CSprite555@@QAE@XZ
_TEXT	SEGMENT PARA USE32 PUBLIC 'CODE'
_TEXT	ENDS
;	COMDAT ??1CSprite555@@QAE@XZ
_TEXT	SEGMENT PARA USE32 PUBLIC 'CODE'
_TEXT	ENDS
;	COMDAT ??_ECSprite@@QAEPAXI@Z
_TEXT	SEGMENT PARA USE32 PUBLIC 'CODE'
_TEXT	ENDS
;	COMDAT ??_D?$basic_ofstream@DV?$char_traits@D@_STL@@@_STL@@QAEXXZ
_TEXT	SEGMENT PARA USE32 PUBLIC 'CODE'
_TEXT	ENDS
;	COMDAT ??Y?$basic_string@DV?$char_traits@D@_STL@@V?$allocator@D@2@@_STL@@QAEAAV01@D@Z
_TEXT	SEGMENT PARA USE32 PUBLIC 'CODE'
_TEXT	ENDS
;	COMDAT ?c_str@?$basic_string@DV?$char_traits@D@_STL@@V?$allocator@D@2@@_STL@@QBEPBDXZ
_TEXT	SEGMENT PARA USE32 PUBLIC 'CODE'
_TEXT	ENDS
;	COMDAT ?tellp@?$basic_ostream@DV?$char_traits@D@_STL@@@_STL@@QAE?AV?$fpos@H@2@XZ
_TEXT	SEGMENT PARA USE32 PUBLIC 'CODE'
_TEXT	ENDS
;	COMDAT ?seekp@?$basic_ostream@DV?$char_traits@D@_STL@@@_STL@@QAEAAV12@V?$fpos@H@2@@Z
_TEXT	SEGMENT PARA USE32 PUBLIC 'CODE'
_TEXT	ENDS
;	COMDAT ?_M_exit_putback_mode@?$basic_filebuf@DV?$char_traits@D@_STL@@@_STL@@AAEXXZ
_TEXT	SEGMENT PARA USE32 PUBLIC 'CODE'
_TEXT	ENDS
;	COMDAT ??R?$_Eq_traits@V?$char_traits@D@_STL@@@_STL@@QBE_NABD0@Z
_TEXT	SEGMENT PARA USE32 PUBLIC 'CODE'
_TEXT	ENDS
;	COMDAT ?GetSize@?$CSetManager@GG@@QBEGXZ
_TEXT	SEGMENT PARA USE32 PUBLIC 'CODE'
_TEXT	ENDS
;	COMDAT ?GetIterator@?$CSetManager@GG@@QBE?AU?$_List_iterator@GU?$_Const_traits@G@_STL@@@_STL@@XZ
_TEXT	SEGMENT PARA USE32 PUBLIC 'CODE'
_TEXT	ENDS
;	COMDAT ?begin@?$map@GPAVivfstream@@U?$less@G@_STL@@V?$allocator@U?$pair@$$CBGPAVivfstream@@@_STL@@@3@@_STL@@QAE?AU?$_Rb_tree_iterator@U?$pair@$$CBGPAVivfstream@@@_STL@@U?$_Nonconst_traits@U?$pair@$$CBGPAVivfstream@@@_STL@@@2@@2@XZ
_TEXT	SEGMENT PARA USE32 PUBLIC 'CODE'
_TEXT	ENDS
;	COMDAT ?end@?$map@GPAVivfstream@@U?$less@G@_STL@@V?$allocator@U?$pair@$$CBGPAVivfstream@@@_STL@@@3@@_STL@@QAE?AU?$_Rb_tree_iterator@U?$pair@$$CBGPAVivfstream@@@_STL@@U?$_Nonconst_traits@U?$pair@$$CBGPAVivfstream@@@_STL@@@2@@2@XZ
_TEXT	SEGMENT PARA USE32 PUBLIC 'CODE'
_TEXT	ENDS
;	COMDAT ?insert@?$map@GPAVivfstream@@U?$less@G@_STL@@V?$allocator@U?$pair@$$CBGPAVivfstream@@@_STL@@@3@@_STL@@QAE?AU?$pair@U?$_Rb_tree_iterator@U?$pair@$$CBGPAVivfstream@@@_STL@@U?$_Nonconst_traits@U?$pair@$$CBGPAVivfstream@@@_STL@@@2@@_STL@@_N@2@ABU?$pair@$$CBGPAVivfstream@@@2@@Z
_TEXT	SEGMENT PARA USE32 PUBLIC 'CODE'
_TEXT	ENDS
;	COMDAT ?erase@?$map@GPAVivfstream@@U?$less@G@_STL@@V?$allocator@U?$pair@$$CBGPAVivfstream@@@_STL@@@3@@_STL@@QAEXU?$_Rb_tree_iterator@U?$pair@$$CBGPAVivfstream@@@_STL@@U?$_Nonconst_traits@U?$pair@$$CBGPAVivfstream@@@_STL@@@2@@2@@Z
_TEXT	SEGMENT PARA USE32 PUBLIC 'CODE'
_TEXT	ENDS
;	COMDAT ?clear@?$map@GPAVivfstream@@U?$less@G@_STL@@V?$allocator@U?$pair@$$CBGPAVivfstream@@@_STL@@@3@@_STL@@QAEXXZ
_TEXT	SEGMENT PARA USE32 PUBLIC 'CODE'
_TEXT	ENDS
;	COMDAT ?find@?$map@GPAVivfstream@@U?$less@G@_STL@@V?$allocator@U?$pair@$$CBGPAVivfstream@@@_STL@@@3@@_STL@@QAE?AU?$_Rb_tree_iterator@U?$pair@$$CBGPAVivfstream@@@_STL@@U?$_Nonconst_traits@U?$pair@$$CBGPAVivfstream@@@_STL@@@2@@2@ABG@Z
_TEXT	SEGMENT PARA USE32 PUBLIC 'CODE'
_TEXT	ENDS
;	COMDAT ??1?$_Rb_tree@GU?$pair@$$CBGPAVivfstream@@@_STL@@U?$_Select1st@U?$pair@$$CBGPAVivfstream@@@_STL@@@2@U?$less@G@2@V?$allocator@U?$pair@$$CBGPAVivfstream@@@_STL@@@2@@_STL@@QAE@XZ
_TEXT	SEGMENT PARA USE32 PUBLIC 'CODE'
_TEXT	ENDS
;	COMDAT ??0?$_Rb_tree_iterator@U?$pair@$$CBGPAVivfstream@@@_STL@@U?$_Nonconst_traits@U?$pair@$$CBGPAVivfstream@@@_STL@@@2@@_STL@@QAE@ABU01@@Z
_TEXT	SEGMENT PARA USE32 PUBLIC 'CODE'
_TEXT	ENDS
;	COMDAT ??C?$_Rb_tree_iterator@U?$pair@$$CBGPAVivfstream@@@_STL@@U?$_Nonconst_traits@U?$pair@$$CBGPAVivfstream@@@_STL@@@2@@_STL@@QBEPAU?$pair@$$CBGPAVivfstream@@@1@XZ
_TEXT	SEGMENT PARA USE32 PUBLIC 'CODE'
_TEXT	ENDS
;	COMDAT ??E?$_Rb_tree_iterator@U?$pair@$$CBGPAVivfstream@@@_STL@@U?$_Nonconst_traits@U?$pair@$$CBGPAVivfstream@@@_STL@@@2@@_STL@@QAEAAU01@XZ
_TEXT	SEGMENT PARA USE32 PUBLIC 'CODE'
_TEXT	ENDS
;	COMDAT ??0?$pair@$$CBGPAVivfstream@@@_STL@@QAE@ABGABQAVivfstream@@@Z
_TEXT	SEGMENT PARA USE32 PUBLIC 'CODE'
_TEXT	ENDS
;	COMDAT ??0?$basic_ofstream@DV?$char_traits@D@_STL@@@_STL@@QAE@PBDH@Z
_TEXT	SEGMENT PARA USE32 PUBLIC 'CODE'
_TEXT	ENDS
;	COMDAT ??1?$basic_ofstream@DV?$char_traits@D@_STL@@@_STL@@UAE@XZ
_TEXT	SEGMENT PARA USE32 PUBLIC 'CODE'
_TEXT	ENDS
;	COMDAT ?close@?$basic_ofstream@DV?$char_traits@D@_STL@@@_STL@@QAEXXZ
_TEXT	SEGMENT PARA USE32 PUBLIC 'CODE'
_TEXT	ENDS
;	COMDAT ?size@?$vector@KV?$allocator@K@_STL@@@_STL@@QBEIXZ
_TEXT	SEGMENT PARA USE32 PUBLIC 'CODE'
_TEXT	ENDS
;	COMDAT ??A?$vector@KV?$allocator@K@_STL@@@_STL@@QAEAAKI@Z
_TEXT	SEGMENT PARA USE32 PUBLIC 'CODE'
_TEXT	ENDS
;	COMDAT ??0?$vector@KV?$allocator@K@_STL@@@_STL@@QAE@ABV?$allocator@K@1@@Z
_TEXT	SEGMENT PARA USE32 PUBLIC 'CODE'
_TEXT	ENDS
;	COMDAT ??1?$vector@KV?$allocator@K@_STL@@@_STL@@QAE@XZ
_TEXT	SEGMENT PARA USE32 PUBLIC 'CODE'
_TEXT	ENDS
;	COMDAT ?push_back@?$vector@KV?$allocator@K@_STL@@@_STL@@QAEXABK@Z
_TEXT	SEGMENT PARA USE32 PUBLIC 'CODE'
_TEXT	ENDS
;	COMDAT ??0?$allocator@K@_STL@@QAE@XZ
_TEXT	SEGMENT PARA USE32 PUBLIC 'CODE'
_TEXT	ENDS
;	COMDAT ??1?$allocator@K@_STL@@QAE@XZ
_TEXT	SEGMENT PARA USE32 PUBLIC 'CODE'
_TEXT	ENDS
;	COMDAT ??D?$_List_iterator@GU?$_Const_traits@G@_STL@@@_STL@@QBEABGXZ
_TEXT	SEGMENT PARA USE32 PUBLIC 'CODE'
_TEXT	ENDS
;	COMDAT ??E?$_List_iterator@GU?$_Const_traits@G@_STL@@@_STL@@QAEAAU01@XZ
_TEXT	SEGMENT PARA USE32 PUBLIC 'CODE'
_TEXT	ENDS
;	COMDAT ?GetSize@?$COrderedList@G@@QBEHXZ
_TEXT	SEGMENT PARA USE32 PUBLIC 'CODE'
_TEXT	ENDS
;	COMDAT ?GetIterator@?$COrderedList@G@@QBE?AU?$_List_iterator@GU?$_Const_traits@G@_STL@@@_STL@@XZ
_TEXT	SEGMENT PARA USE32 PUBLIC 'CODE'
_TEXT	ENDS
;	COMDAT ??_G?$basic_ofstream@DV?$char_traits@D@_STL@@@_STL@@UAEPAXI@Z
_TEXT	SEGMENT PARA USE32 PUBLIC 'CODE'
_TEXT	ENDS
;	COMDAT ?push_back@?$basic_string@DV?$char_traits@D@_STL@@V?$allocator@D@2@@_STL@@QAEXD@Z
_TEXT	SEGMENT PARA USE32 PUBLIC 'CODE'
_TEXT	ENDS
;	COMDAT ?rdbuf@?$basic_ios@DV?$char_traits@D@_STL@@@_STL@@QBEPAV?$basic_streambuf@DV?$char_traits@D@_STL@@@2@XZ
_TEXT	SEGMENT PARA USE32 PUBLIC 'CODE'
_TEXT	ENDS
;	COMDAT ?setstate@?$basic_ios@DV?$char_traits@D@_STL@@@_STL@@QAEXH@Z
_TEXT	SEGMENT PARA USE32 PUBLIC 'CODE'
_TEXT	ENDS
;	COMDAT ?open@?$basic_filebuf@DV?$char_traits@D@_STL@@@_STL@@QAEPAV12@PBDH@Z
_TEXT	SEGMENT PARA USE32 PUBLIC 'CODE'
_TEXT	ENDS
;	COMDAT ?begin@?$list@GV?$allocator@G@_STL@@@_STL@@QBE?AU?$_List_iterator@GU?$_Const_traits@G@_STL@@@2@XZ
_TEXT	SEGMENT PARA USE32 PUBLIC 'CODE'
_TEXT	ENDS
;	COMDAT ?size@?$list@GV?$allocator@G@_STL@@@_STL@@QBEIXZ
_TEXT	SEGMENT PARA USE32 PUBLIC 'CODE'
_TEXT	ENDS
;	COMDAT ?begin@?$_Rb_tree@GU?$pair@$$CBGPAVivfstream@@@_STL@@U?$_Select1st@U?$pair@$$CBGPAVivfstream@@@_STL@@@2@U?$less@G@2@V?$allocator@U?$pair@$$CBGPAVivfstream@@@_STL@@@2@@_STL@@QAE?AU?$_Rb_tree_iterator@U?$pair@$$CBGPAVivfstream@@@_STL@@U?$_Nonconst_traits@U?$pair@$$CBGPAVivfstream@@@_STL@@@2@@2@XZ
_TEXT	SEGMENT PARA USE32 PUBLIC 'CODE'
_TEXT	ENDS
;	COMDAT ?end@?$_Rb_tree@GU?$pair@$$CBGPAVivfstream@@@_STL@@U?$_Select1st@U?$pair@$$CBGPAVivfstream@@@_STL@@@2@U?$less@G@2@V?$allocator@U?$pair@$$CBGPAVivfstream@@@_STL@@@2@@_STL@@QAE?AU?$_Rb_tree_iterator@U?$pair@$$CBGPAVivfstream@@@_STL@@U?$_Nonconst_traits@U?$pair@$$CBGPAVivfstream@@@_STL@@@2@@2@XZ
_TEXT	SEGMENT PARA USE32 PUBLIC 'CODE'
_TEXT	ENDS
;	COMDAT ?erase@?$_Rb_tree@GU?$pair@$$CBGPAVivfstream@@@_STL@@U?$_Select1st@U?$pair@$$CBGPAVivfstream@@@_STL@@@2@U?$less@G@2@V?$allocator@U?$pair@$$CBGPAVivfstream@@@_STL@@@2@@_STL@@QAEXU?$_Rb_tree_iterator@U?$pair@$$CBGPAVivfstream@@@_STL@@U?$_Nonconst_traits@U?$pair@$$CBGPAVivfstream@@@_STL@@@2@@2@@Z
_TEXT	SEGMENT PARA USE32 PUBLIC 'CODE'
_TEXT	ENDS
;	COMDAT ?clear@?$_Rb_tree@GU?$pair@$$CBGPAVivfstream@@@_STL@@U?$_Select1st@U?$pair@$$CBGPAVivfstream@@@_STL@@@2@U?$less@G@2@V?$allocator@U?$pair@$$CBGPAVivfstream@@@_STL@@@2@@_STL@@QAEXXZ
_TEXT	SEGMENT PARA USE32 PUBLIC 'CODE'
_TEXT	ENDS
;	COMDAT ??1?$_Rb_tree_base@U?$pair@$$CBGPAVivfstream@@@_STL@@V?$allocator@U?$pair@$$CBGPAVivfstream@@@_STL@@@2@@_STL@@QAE@XZ
_TEXT	SEGMENT PARA USE32 PUBLIC 'CODE'
_TEXT	ENDS
;	COMDAT ??D?$_Rb_tree_iterator@U?$pair@$$CBGPAVivfstream@@@_STL@@U?$_Nonconst_traits@U?$pair@$$CBGPAVivfstream@@@_STL@@@2@@_STL@@QBEAAU?$pair@$$CBGPAVivfstream@@@1@XZ
_TEXT	SEGMENT PARA USE32 PUBLIC 'CODE'
_TEXT	ENDS
;	COMDAT ?rdbuf@?$basic_ofstream@DV?$char_traits@D@_STL@@@_STL@@QBEPAV?$basic_filebuf@DV?$char_traits@D@_STL@@@2@XZ
_TEXT	SEGMENT PARA USE32 PUBLIC 'CODE'
_TEXT	ENDS
;	COMDAT ?_M_insert_overflow@?$vector@KV?$allocator@K@_STL@@@_STL@@IAEXPAKABKABU__true_type@2@I_N@Z
_TEXT	SEGMENT PARA USE32 PUBLIC 'CODE'
_TEXT	ENDS
;	COMDAT ?begin@?$vector@KV?$allocator@K@_STL@@@_STL@@QAEPAKXZ
_TEXT	SEGMENT PARA USE32 PUBLIC 'CODE'
_TEXT	ENDS
;	COMDAT ??0?$_Vector_base@KV?$allocator@K@_STL@@@_STL@@QAE@ABV?$allocator@K@1@@Z
_TEXT	SEGMENT PARA USE32 PUBLIC 'CODE'
_TEXT	ENDS
;	COMDAT ??1?$_Vector_base@KV?$allocator@K@_STL@@@_STL@@QAE@XZ
_TEXT	SEGMENT PARA USE32 PUBLIC 'CODE'
_TEXT	ENDS
;	COMDAT ??1?$_STLP_alloc_proxy@PAU?$_Rb_tree_node@U?$pair@$$CBGPAVivfstream@@@_STL@@@_STL@@U12@V?$allocator@U?$_Rb_tree_node@U?$pair@$$CBGPAVivfstream@@@_STL@@@_STL@@@2@@_STL@@QAE@XZ
_TEXT	SEGMENT PARA USE32 PUBLIC 'CODE'
_TEXT	ENDS
;	COMDAT ??1?$_STLP_alloc_proxy@PAKKV?$allocator@K@_STL@@@_STL@@QAE@XZ
_TEXT	SEGMENT PARA USE32 PUBLIC 'CODE'
_TEXT	ENDS
;	COMDAT ?_M_construct_null@?$basic_string@DV?$char_traits@D@_STL@@V?$allocator@D@2@@_STL@@AAEXPAD@Z
_TEXT	SEGMENT PARA USE32 PUBLIC 'CODE'
_TEXT	ENDS
;	COMDAT ?clear@?$basic_ios@DV?$char_traits@D@_STL@@@_STL@@QAEXH@Z
_TEXT	SEGMENT PARA USE32 PUBLIC 'CODE'
_TEXT	ENDS
;	COMDAT ?end@?$list@GV?$allocator@G@_STL@@@_STL@@QBE?AU?$_List_iterator@GU?$_Const_traits@G@_STL@@@2@XZ
_TEXT	SEGMENT PARA USE32 PUBLIC 'CODE'
_TEXT	ENDS
;	COMDAT ?_M_root@?$_Rb_tree@GU?$pair@$$CBGPAVivfstream@@@_STL@@U?$_Select1st@U?$pair@$$CBGPAVivfstream@@@_STL@@@2@U?$less@G@2@V?$allocator@U?$pair@$$CBGPAVivfstream@@@_STL@@@2@@_STL@@IBEAAPAU?$_Rb_tree_node@U?$pair@$$CBGPAVivfstream@@@_STL@@@2@XZ
_TEXT	SEGMENT PARA USE32 PUBLIC 'CODE'
_TEXT	ENDS
;	COMDAT ?_M_leftmost@?$_Rb_tree@GU?$pair@$$CBGPAVivfstream@@@_STL@@U?$_Select1st@U?$pair@$$CBGPAVivfstream@@@_STL@@@2@U?$less@G@2@V?$allocator@U?$pair@$$CBGPAVivfstream@@@_STL@@@2@@_STL@@IBEAAPAU?$_Rb_tree_node@U?$pair@$$CBGPAVivfstream@@@_STL@@@2@XZ
_TEXT	SEGMENT PARA USE32 PUBLIC 'CODE'
_TEXT	ENDS
;	COMDAT ?_M_rightmost@?$_Rb_tree@GU?$pair@$$CBGPAVivfstream@@@_STL@@U?$_Select1st@U?$pair@$$CBGPAVivfstream@@@_STL@@@2@U?$less@G@2@V?$allocator@U?$pair@$$CBGPAVivfstream@@@_STL@@@2@@_STL@@IBEAAPAU?$_Rb_tree_node@U?$pair@$$CBGPAVivfstream@@@_STL@@@2@XZ
_TEXT	SEGMENT PARA USE32 PUBLIC 'CODE'
_TEXT	ENDS
;	COMDAT ??1?$allocator@U?$_Rb_tree_node@U?$pair@$$CBGPAVivfstream@@@_STL@@@_STL@@@_STL@@QAE@XZ
_TEXT	SEGMENT PARA USE32 PUBLIC 'CODE'
_TEXT	ENDS
;	COMDAT ?deallocate@?$allocator@U?$_Rb_tree_node@U?$pair@$$CBGPAVivfstream@@@_STL@@@_STL@@@_STL@@QAEXPAU?$_Rb_tree_node@U?$pair@$$CBGPAVivfstream@@@_STL@@@2@I@Z
_TEXT	SEGMENT PARA USE32 PUBLIC 'CODE'
_TEXT	ENDS
;	COMDAT ??0?$_Rb_tree_iterator@U?$pair@$$CBGPAVivfstream@@@_STL@@U?$_Nonconst_traits@U?$pair@$$CBGPAVivfstream@@@_STL@@@2@@_STL@@QAE@PAU?$_Rb_tree_node@U?$pair@$$CBGPAVivfstream@@@_STL@@@1@@Z
_TEXT	SEGMENT PARA USE32 PUBLIC 'CODE'
_TEXT	ENDS
;	COMDAT ?_M_clear@?$vector@KV?$allocator@K@_STL@@@_STL@@IAEXXZ
_TEXT	SEGMENT PARA USE32 PUBLIC 'CODE'
_TEXT	ENDS
;	COMDAT ?_M_set@?$vector@KV?$allocator@K@_STL@@@_STL@@IAEXPAK00@Z
_TEXT	SEGMENT PARA USE32 PUBLIC 'CODE'
_TEXT	ENDS
;	COMDAT ?allocate@?$allocator@K@_STL@@QAEPAKIPBX@Z
_TEXT	SEGMENT PARA USE32 PUBLIC 'CODE'
_TEXT	ENDS
;	COMDAT ?deallocate@?$allocator@K@_STL@@QAEXPAKI@Z
_TEXT	SEGMENT PARA USE32 PUBLIC 'CODE'
_TEXT	ENDS
;	COMDAT ??0?$_STLP_alloc_proxy@PAKKV?$allocator@K@_STL@@@_STL@@QAE@ABV?$allocator@K@1@PAK@Z
_TEXT	SEGMENT PARA USE32 PUBLIC 'CODE'
_TEXT	ENDS
;	COMDAT ??0?$_List_iterator@GU?$_Const_traits@G@_STL@@@_STL@@QAE@PAU?$_List_node@G@1@@Z
_TEXT	SEGMENT PARA USE32 PUBLIC 'CODE'
_TEXT	ENDS
;	COMDAT ?_M_construct_null_aux@?$basic_string@DV?$char_traits@D@_STL@@V?$allocator@D@2@@_STL@@AAEXPADABU__true_type@2@@Z
_TEXT	SEGMENT PARA USE32 PUBLIC 'CODE'
_TEXT	ENDS
;	COMDAT ??0?$allocator@K@_STL@@QAE@ABV01@@Z
_TEXT	SEGMENT PARA USE32 PUBLIC 'CODE'
_TEXT	ENDS
;	COMDAT ?reserve@?$basic_string@DV?$char_traits@D@_STL@@V?$allocator@D@2@@_STL@@QAEXI@Z
_TEXT	SEGMENT PARA USE32 PUBLIC 'CODE'
_TEXT	ENDS
;	COMDAT ??$_M_range_initialize@PBD@?$basic_string@DV?$char_traits@D@_STL@@V?$allocator@D@2@@_STL@@AAEXPBD0ABUforward_iterator_tag@1@@Z
_TEXT	SEGMENT PARA USE32 PUBLIC 'CODE'
_TEXT	ENDS
;	COMDAT ??$_M_range_initialize@PAD@?$basic_string@DV?$char_traits@D@_STL@@V?$allocator@D@2@@_STL@@AAEXPAD0ABUforward_iterator_tag@1@@Z
_TEXT	SEGMENT PARA USE32 PUBLIC 'CODE'
_TEXT	ENDS
;	COMDAT ??0?$basic_filebuf@DV?$char_traits@D@_STL@@@_STL@@QAE@XZ
_TEXT	SEGMENT PARA USE32 PUBLIC 'CODE'
_TEXT	ENDS
;	COMDAT ?_M_unshift@?$basic_filebuf@DV?$char_traits@D@_STL@@@_STL@@AAE_NXZ
_TEXT	SEGMENT PARA USE32 PUBLIC 'CODE'
_TEXT	ENDS
;	COMDAT ?_M_allocate_buffers@?$basic_filebuf@DV?$char_traits@D@_STL@@@_STL@@AAE_NXZ
_TEXT	SEGMENT PARA USE32 PUBLIC 'CODE'
_TEXT	ENDS
;	COMDAT ??$max@H@_STL@@YAABHABH0@Z
_TEXT	SEGMENT PARA USE32 PUBLIC 'CODE'
_TEXT	ENDS
;	COMDAT ??$use_facet@V?$codecvt@DDH@_STL@@@_STL@@YAABV?$codecvt@DDH@0@ABVlocale@0@@Z
_TEXT	SEGMENT PARA USE32 PUBLIC 'CODE'
_TEXT	ENDS
;	COMDAT ??$append@PAD@?$basic_string@DV?$char_traits@D@_STL@@V?$allocator@D@2@@_STL@@QAEAAV01@PAD0@Z
_TEXT	SEGMENT PARA USE32 PUBLIC 'CODE'
_TEXT	ENDS
;	COMDAT ?Release@?$TArray@VSPRITE_FILEPOSITION_NODE@@G@@QAEXXZ
_TEXT	SEGMENT PARA USE32 PUBLIC 'CODE'
_TEXT	ENDS
;	COMDAT ?LogTwoMultiplier@?$CTypePack2@VCSprite@@VCSprite555@@VCSprite565@@@@KAHH@Z
_TEXT	SEGMENT PARA USE32 PUBLIC 'CODE'
_TEXT	ENDS
;	COMDAT ?GetSplitFile@?$CTypePack2@VCSprite@@VCSprite555@@VCSprite565@@@@IAEHHPAD@Z
_TEXT	SEGMENT PARA USE32 PUBLIC 'CODE'
_TEXT	ENDS
;	COMDAT ??0?$basic_ostream@DV?$char_traits@D@_STL@@@_STL@@QAE@PAV?$basic_streambuf@DV?$char_traits@D@_STL@@@1@@Z
_TEXT	SEGMENT PARA USE32 PUBLIC 'CODE'
_TEXT	ENDS
;	COMDAT ?write@?$basic_ostream@DV?$char_traits@D@_STL@@@_STL@@QAEAAV12@PBDH@Z
_TEXT	SEGMENT PARA USE32 PUBLIC 'CODE'
_TEXT	ENDS
;	COMDAT ??$?HDV?$char_traits@D@_STL@@V?$allocator@D@1@@_STL@@YA?AV?$basic_string@DV?$char_traits@D@_STL@@V?$allocator@D@2@@0@ABV10@PBD@Z
_TEXT	SEGMENT PARA USE32 PUBLIC 'CODE'
_TEXT	ENDS
;	COMDAT ??1?$COrderedList@G@@QAE@XZ
_TEXT	SEGMENT PARA USE32 PUBLIC 'CODE'
_TEXT	ENDS
;	COMDAT ??$_M_append_dispatch@PBD@?$basic_string@DV?$char_traits@D@_STL@@V?$allocator@D@2@@_STL@@AAEAAV01@PBD0ABU__false_type@1@@Z
_TEXT	SEGMENT PARA USE32 PUBLIC 'CODE'
_TEXT	ENDS
;	COMDAT ?_M_erase@?$_Rb_tree@GU?$pair@$$CBGPAVivfstream@@@_STL@@U?$_Select1st@U?$pair@$$CBGPAVivfstream@@@_STL@@@2@U?$less@G@2@V?$allocator@U?$pair@$$CBGPAVivfstream@@@_STL@@@2@@_STL@@AAEXPAU?$_Rb_tree_node@U?$pair@$$CBGPAVivfstream@@@_STL@@@2@@Z
_TEXT	SEGMENT PARA USE32 PUBLIC 'CODE'
_TEXT	ENDS
;	COMDAT ?insert_unique@?$_Rb_tree@GU?$pair@$$CBGPAVivfstream@@@_STL@@U?$_Select1st@U?$pair@$$CBGPAVivfstream@@@_STL@@@2@U?$less@G@2@V?$allocator@U?$pair@$$CBGPAVivfstream@@@_STL@@@2@@_STL@@QAE?AU?$pair@U?$_Rb_tree_iterator@U?$pair@$$CBGPAVivfstream@@@_STL@@U?$_Nonconst_traits@U?$pair@$$CBGPAVivfstream@@@_STL@@@2@@_STL@@_N@2@ABU?$pair@$$CBGPAVivfstream@@@2@@Z
_TEXT	SEGMENT PARA USE32 PUBLIC 'CODE'
_TEXT	ENDS
;	COMDAT ??0?$basic_ios@DV?$char_traits@D@_STL@@@_STL@@IAE@XZ
_TEXT	SEGMENT PARA USE32 PUBLIC 'CODE'
_TEXT	ENDS
;	COMDAT ?init@?$basic_ios@DV?$char_traits@D@_STL@@@_STL@@IAEXPAV?$basic_streambuf@DV?$char_traits@D@_STL@@@2@@Z
_TEXT	SEGMENT PARA USE32 PUBLIC 'CODE'
_TEXT	ENDS
;	COMDAT ??$find@G@?$_Rb_tree@GU?$pair@$$CBGPAVivfstream@@@_STL@@U?$_Select1st@U?$pair@$$CBGPAVivfstream@@@_STL@@@2@U?$less@G@2@V?$allocator@U?$pair@$$CBGPAVivfstream@@@_STL@@@2@@_STL@@QAE?AU?$_Rb_tree_iterator@U?$pair@$$CBGPAVivfstream@@@_STL@@U?$_Nonconst_traits@U?$pair@$$CBGPAVivfstream@@@_STL@@@2@@1@ABG@Z
_TEXT	SEGMENT PARA USE32 PUBLIC 'CODE'
_TEXT	ENDS
;	COMDAT ??$_Destroy@PAK@_STL@@YAXPAK0@Z
_TEXT	SEGMENT PARA USE32 PUBLIC 'CODE'
_TEXT	ENDS
;	COMDAT ??$_Construct@KK@_STL@@YAXPAKABK@Z
_TEXT	SEGMENT PARA USE32 PUBLIC 'CODE'
_TEXT	ENDS
;	COMDAT ??$max@I@_STL@@YAABIABI0@Z
_TEXT	SEGMENT PARA USE32 PUBLIC 'CODE'
_TEXT	ENDS
;	COMDAT ??$distance@U?$_List_iterator@GU?$_Const_traits@G@_STL@@@_STL@@@_STL@@YAHABU?$_List_iterator@GU?$_Const_traits@G@_STL@@@0@0@Z
_TEXT	SEGMENT PARA USE32 PUBLIC 'CODE'
_TEXT	ENDS
;	COMDAT ??$_Destroy@U?$pair@$$CBGPAVivfstream@@@_STL@@@_STL@@YAXPAU?$pair@$$CBGPAVivfstream@@@0@@Z
_TEXT	SEGMENT PARA USE32 PUBLIC 'CODE'
_TEXT	ENDS
;	COMDAT ??$fill_n@PAKIK@_STL@@YAPAKPAKIABK@Z
_TEXT	SEGMENT PARA USE32 PUBLIC 'CODE'
_TEXT	ENDS
;	COMDAT ??0?$basic_string@DV?$char_traits@D@_STL@@V?$allocator@D@2@@_STL@@QAE@U_String_reserve_t@1@IABV?$allocator@D@1@@Z
_TEXT	SEGMENT PARA USE32 PUBLIC 'CODE'
_TEXT	ENDS
;	COMDAT ?max_size@?$basic_string@DV?$char_traits@D@_STL@@V?$allocator@D@2@@_STL@@QBEIXZ
_TEXT	SEGMENT PARA USE32 PUBLIC 'CODE'
_TEXT	ENDS
;	COMDAT ?capacity@?$basic_string@DV?$char_traits@D@_STL@@V?$allocator@D@2@@_STL@@QBEIXZ
_TEXT	SEGMENT PARA USE32 PUBLIC 'CODE'
_TEXT	ENDS
;	COMDAT ?append@?$basic_string@DV?$char_traits@D@_STL@@V?$allocator@D@2@@_STL@@QAEAAV12@ABV12@@Z
_TEXT	SEGMENT PARA USE32 PUBLIC 'CODE'
_TEXT	ENDS
;	COMDAT ?tie@?$basic_ios@DV?$char_traits@D@_STL@@@_STL@@QAEPAV?$basic_ostream@DV?$char_traits@D@_STL@@@2@PAV32@@Z
_TEXT	SEGMENT PARA USE32 PUBLIC 'CODE'
_TEXT	ENDS
;	COMDAT ?fill@?$basic_ios@DV?$char_traits@D@_STL@@@_STL@@QAEDD@Z
_TEXT	SEGMENT PARA USE32 PUBLIC 'CODE'
_TEXT	ENDS
;	COMDAT ??1?$list@GV?$allocator@G@_STL@@@_STL@@QAE@XZ
_TEXT	SEGMENT PARA USE32 PUBLIC 'CODE'
_TEXT	ENDS
;	COMDAT ?_S_left@?$_Rb_tree@GU?$pair@$$CBGPAVivfstream@@@_STL@@U?$_Select1st@U?$pair@$$CBGPAVivfstream@@@_STL@@@2@U?$less@G@2@V?$allocator@U?$pair@$$CBGPAVivfstream@@@_STL@@@2@@_STL@@KAAAPAU?$_Rb_tree_node@U?$pair@$$CBGPAVivfstream@@@_STL@@@2@PAU32@@Z
_TEXT	SEGMENT PARA USE32 PUBLIC 'CODE'
_TEXT	ENDS
;	COMDAT ?_S_right@?$_Rb_tree@GU?$pair@$$CBGPAVivfstream@@@_STL@@U?$_Select1st@U?$pair@$$CBGPAVivfstream@@@_STL@@@2@U?$less@G@2@V?$allocator@U?$pair@$$CBGPAVivfstream@@@_STL@@@2@@_STL@@KAAAPAU?$_Rb_tree_node@U?$pair@$$CBGPAVivfstream@@@_STL@@@2@PAU32@@Z
_TEXT	SEGMENT PARA USE32 PUBLIC 'CODE'
_TEXT	ENDS
;	COMDAT ?_S_key@?$_Rb_tree@GU?$pair@$$CBGPAVivfstream@@@_STL@@U?$_Select1st@U?$pair@$$CBGPAVivfstream@@@_STL@@@2@U?$less@G@2@V?$allocator@U?$pair@$$CBGPAVivfstream@@@_STL@@@2@@_STL@@KAABGPAU?$_Rb_tree_node@U?$pair@$$CBGPAVivfstream@@@_STL@@@2@@Z
_TEXT	SEGMENT PARA USE32 PUBLIC 'CODE'
_TEXT	ENDS
;	COMDAT ?_S_key@?$_Rb_tree@GU?$pair@$$CBGPAVivfstream@@@_STL@@U?$_Select1st@U?$pair@$$CBGPAVivfstream@@@_STL@@@2@U?$less@G@2@V?$allocator@U?$pair@$$CBGPAVivfstream@@@_STL@@@2@@_STL@@KAABGPAU_Rb_tree_node_base@2@@Z
_TEXT	SEGMENT PARA USE32 PUBLIC 'CODE'
_TEXT	ENDS
;	COMDAT ??R?$less@G@_STL@@QBE_NABG0@Z
_TEXT	SEGMENT PARA USE32 PUBLIC 'CODE'
_TEXT	ENDS
;	COMDAT ??F?$_Rb_tree_iterator@U?$pair@$$CBGPAVivfstream@@@_STL@@U?$_Nonconst_traits@U?$pair@$$CBGPAVivfstream@@@_STL@@@2@@_STL@@QAEAAU01@XZ
_TEXT	SEGMENT PARA USE32 PUBLIC 'CODE'
_TEXT	ENDS
;	COMDAT ??0?$pair@U?$_Rb_tree_iterator@U?$pair@$$CBGPAVivfstream@@@_STL@@U?$_Nonconst_traits@U?$pair@$$CBGPAVivfstream@@@_STL@@@2@@_STL@@_N@_STL@@QAE@ABU?$_Rb_tree_iterator@U?$pair@$$CBGPAVivfstream@@@_STL@@U?$_Nonconst_traits@U?$pair@$$CBGPAVivfstream@@@_STL@@@2@@1@AB_N@Z
_TEXT	SEGMENT PARA USE32 PUBLIC 'CODE'
_TEXT	ENDS
;	COMDAT ??0sentry@?$basic_ostream@DV?$char_traits@D@_STL@@@_STL@@QAE@AAV12@@Z
_TEXT	SEGMENT PARA USE32 PUBLIC 'CODE'
_TEXT	ENDS
;	COMDAT ??1sentry@?$basic_ostream@DV?$char_traits@D@_STL@@@_STL@@QAE@XZ
_TEXT	SEGMENT PARA USE32 PUBLIC 'CODE'
_TEXT	ENDS
;	COMDAT ??Bsentry@?$basic_ostream@DV?$char_traits@D@_STL@@@_STL@@QBE_NXZ
_TEXT	SEGMENT PARA USE32 PUBLIC 'CODE'
_TEXT	ENDS
;	COMDAT ??R?$_Select1st@U?$pair@$$CBGPAVivfstream@@@_STL@@@_STL@@QBEABGABU?$pair@$$CBGPAVivfstream@@@1@@Z
_TEXT	SEGMENT PARA USE32 PUBLIC 'CODE'
_TEXT	ENDS
;	COMDAT ?max_size@?$_String_base@DV?$allocator@D@_STL@@@_STL@@QBEIXZ
_TEXT	SEGMENT PARA USE32 PUBLIC 'CODE'
_TEXT	ENDS
;	COMDAT ??0?$_String_base@DV?$allocator@D@_STL@@@_STL@@QAE@ABV?$allocator@D@1@I@Z
_TEXT	SEGMENT PARA USE32 PUBLIC 'CODE'
_TEXT	ENDS
;	COMDAT ?flush@?$basic_ostream@DV?$char_traits@D@_STL@@@_STL@@QAEAAV12@XZ
_TEXT	SEGMENT PARA USE32 PUBLIC 'CODE'
_TEXT	ENDS
;	COMDAT ??1?$_List_base@GV?$allocator@G@_STL@@@_STL@@QAE@XZ
_TEXT	SEGMENT PARA USE32 PUBLIC 'CODE'
_TEXT	ENDS
;	COMDAT ?_S_value@?$_Rb_tree@GU?$pair@$$CBGPAVivfstream@@@_STL@@U?$_Select1st@U?$pair@$$CBGPAVivfstream@@@_STL@@@2@U?$less@G@2@V?$allocator@U?$pair@$$CBGPAVivfstream@@@_STL@@@2@@_STL@@KAAAU?$pair@$$CBGPAVivfstream@@@2@PAU?$_Rb_tree_node@U?$pair@$$CBGPAVivfstream@@@_STL@@@2@@Z
_TEXT	SEGMENT PARA USE32 PUBLIC 'CODE'
_TEXT	ENDS
;	COMDAT ??1?$_STLP_alloc_proxy@PAU?$_List_node@G@_STL@@U12@V?$allocator@U?$_List_node@G@_STL@@@2@@_STL@@QAE@XZ
_TEXT	SEGMENT PARA USE32 PUBLIC 'CODE'
_TEXT	ENDS
;	COMDAT ??1?$allocator@U?$_List_node@G@_STL@@@_STL@@QAE@XZ
_TEXT	SEGMENT PARA USE32 PUBLIC 'CODE'
_TEXT	ENDS
;	COMDAT ?deallocate@?$allocator@U?$_List_node@G@_STL@@@_STL@@QAEXPAU?$_List_node@G@2@I@Z
_TEXT	SEGMENT PARA USE32 PUBLIC 'CODE'
_TEXT	ENDS
;	COMDAT ?_M_allocate_block@?$_String_base@DV?$allocator@D@_STL@@@_STL@@QAEXI@Z
_TEXT	SEGMENT PARA USE32 PUBLIC 'CODE'
_TEXT	ENDS
;	COMDAT ?_M_throw_length_error@?$_String_base@DV?$allocator@D@_STL@@@_STL@@QBEXXZ
_TEXT	SEGMENT PARA USE32 PUBLIC 'CODE'
_TEXT	ENDS
;	COMDAT ??$uninitialized_copy@PADPAD@_STL@@YAPADPAD00@Z
_TEXT	SEGMENT PARA USE32 PUBLIC 'CODE'
_TEXT	ENDS
;	COMDAT ??$distance@PBD@_STL@@YAHABQBD0@Z
_TEXT	SEGMENT PARA USE32 PUBLIC 'CODE'
_TEXT	ENDS
;	COMDAT ??$distance@PAD@_STL@@YAHABQAD0@Z
_TEXT	SEGMENT PARA USE32 PUBLIC 'CODE'
_TEXT	ENDS
;	COMDAT ??$_M_append_dispatch@PAD@?$basic_string@DV?$char_traits@D@_STL@@V?$allocator@D@2@@_STL@@AAEAAV01@PAD0ABU__false_type@1@@Z
_TEXT	SEGMENT PARA USE32 PUBLIC 'CODE'
_TEXT	ENDS
;	COMDAT ?rdbuf@?$basic_ios@DV?$char_traits@D@_STL@@@_STL@@QAEPAV?$basic_streambuf@DV?$char_traits@D@_STL@@@2@PAV32@@Z
_TEXT	SEGMENT PARA USE32 PUBLIC 'CODE'
_TEXT	ENDS
;	COMDAT ?imbue@?$basic_ios@DV?$char_traits@D@_STL@@@_STL@@QAE?AVlocale@2@ABV32@@Z
_TEXT	SEGMENT PARA USE32 PUBLIC 'CODE'
_TEXT	ENDS
;	COMDAT ?widen@?$basic_ios@DV?$char_traits@D@_STL@@@_STL@@QBEDD@Z
_TEXT	SEGMENT PARA USE32 PUBLIC 'CODE'
_TEXT	ENDS
;	COMDAT ?_M_handle_exception@?$basic_ios@DV?$char_traits@D@_STL@@@_STL@@QAEXH@Z
_TEXT	SEGMENT PARA USE32 PUBLIC 'CODE'
_TEXT	ENDS
;	COMDAT ?Release@?$COrderedList@G@@QAEXXZ
_TEXT	SEGMENT PARA USE32 PUBLIC 'CODE'
_TEXT	ENDS
;	COMDAT ??$append@PBD@?$basic_string@DV?$char_traits@D@_STL@@V?$allocator@D@2@@_STL@@AAEAAV01@PBD0ABUforward_iterator_tag@1@@Z
_TEXT	SEGMENT PARA USE32 PUBLIC 'CODE'
_TEXT	ENDS
;	COMDAT ?_M_insert@?$_Rb_tree@GU?$pair@$$CBGPAVivfstream@@@_STL@@U?$_Select1st@U?$pair@$$CBGPAVivfstream@@@_STL@@@2@U?$less@G@2@V?$allocator@U?$pair@$$CBGPAVivfstream@@@_STL@@@2@@_STL@@AAE?AU?$_Rb_tree_iterator@U?$pair@$$CBGPAVivfstream@@@_STL@@U?$_Nonconst_traits@U?$pair@$$CBGPAVivfstream@@@_STL@@@2@@2@PAU_Rb_tree_node_base@2@0ABU?$pair@$$CBGPAVivfstream@@@2@0@Z
_TEXT	SEGMENT PARA USE32 PUBLIC 'CODE'
_TEXT	ENDS
;	COMDAT ??$_M_find@G@?$_Rb_tree@GU?$pair@$$CBGPAVivfstream@@@_STL@@U?$_Select1st@U?$pair@$$CBGPAVivfstream@@@_STL@@@2@U?$less@G@2@V?$allocator@U?$pair@$$CBGPAVivfstream@@@_STL@@@2@@_STL@@ABEPAU?$_Rb_tree_node@U?$pair@$$CBGPAVivfstream@@@_STL@@@1@ABG@Z
_TEXT	SEGMENT PARA USE32 PUBLIC 'CODE'
_TEXT	ENDS
;	COMDAT ??$__destroy@PAKK@_STL@@YAXPAK00@Z
_TEXT	SEGMENT PARA USE32 PUBLIC 'CODE'
_TEXT	ENDS
;	COMDAT ??$__distance@U?$_List_iterator@GU?$_Const_traits@G@_STL@@@_STL@@@_STL@@YAHABU?$_List_iterator@GU?$_Const_traits@G@_STL@@@0@0ABUinput_iterator_tag@0@@Z
_TEXT	SEGMENT PARA USE32 PUBLIC 'CODE'
_TEXT	ENDS
;	COMDAT ?clear@?$_List_base@GV?$allocator@G@_STL@@@_STL@@QAEXXZ
_TEXT	SEGMENT PARA USE32 PUBLIC 'CODE'
_TEXT	ENDS
;	COMDAT ??$_M_init@DV?$char_traits@D@_STL@@@_STL@@YA_NAAV?$basic_ostream@DV?$char_traits@D@_STL@@@0@@Z
_TEXT	SEGMENT PARA USE32 PUBLIC 'CODE'
_TEXT	ENDS
;	COMDAT ?tie@?$basic_ios@DV?$char_traits@D@_STL@@@_STL@@QBEPAV?$basic_ostream@DV?$char_traits@D@_STL@@@2@XZ
_TEXT	SEGMENT PARA USE32 PUBLIC 'CODE'
_TEXT	ENDS
;	COMDAT ?_M_create_node@?$_Rb_tree@GU?$pair@$$CBGPAVivfstream@@@_STL@@U?$_Select1st@U?$pair@$$CBGPAVivfstream@@@_STL@@@2@U?$less@G@2@V?$allocator@U?$pair@$$CBGPAVivfstream@@@_STL@@@2@@_STL@@IAEPAU?$_Rb_tree_node@U?$pair@$$CBGPAVivfstream@@@_STL@@@2@ABU?$pair@$$CBGPAVivfstream@@@2@@Z
_TEXT	SEGMENT PARA USE32 PUBLIC 'CODE'
_TEXT	ENDS
;	COMDAT ?_S_parent@?$_Rb_tree@GU?$pair@$$CBGPAVivfstream@@@_STL@@U?$_Select1st@U?$pair@$$CBGPAVivfstream@@@_STL@@@2@U?$less@G@2@V?$allocator@U?$pair@$$CBGPAVivfstream@@@_STL@@@2@@_STL@@KAAAPAU?$_Rb_tree_node@U?$pair@$$CBGPAVivfstream@@@_STL@@@2@PAU32@@Z
_TEXT	SEGMENT PARA USE32 PUBLIC 'CODE'
_TEXT	ENDS
;	COMDAT ?allocate@?$allocator@U?$_Rb_tree_node@U?$pair@$$CBGPAVivfstream@@@_STL@@@_STL@@@_STL@@QAEPAU?$_Rb_tree_node@U?$pair@$$CBGPAVivfstream@@@_STL@@@2@IPBX@Z
_TEXT	SEGMENT PARA USE32 PUBLIC 'CODE'
_TEXT	ENDS
;	COMDAT ??$__uninitialized_copy@PADPAD@_STL@@YAPADPAD00ABU__true_type@0@@Z
_TEXT	SEGMENT PARA USE32 PUBLIC 'CODE'
_TEXT	ENDS
;	COMDAT ??$__distance@PBD@_STL@@YAHABQBD0ABUrandom_access_iterator_tag@0@@Z
_TEXT	SEGMENT PARA USE32 PUBLIC 'CODE'
_TEXT	ENDS
;	COMDAT ??$__distance@PAD@_STL@@YAHABQAD0ABUrandom_access_iterator_tag@0@@Z
_TEXT	SEGMENT PARA USE32 PUBLIC 'CODE'
_TEXT	ENDS
;	COMDAT ??$append@PAD@?$basic_string@DV?$char_traits@D@_STL@@V?$allocator@D@2@@_STL@@AAEAAV01@PAD0ABUforward_iterator_tag@1@@Z
_TEXT	SEGMENT PARA USE32 PUBLIC 'CODE'
_TEXT	ENDS
;	COMDAT ??$__destroy_aux@PAK@_STL@@YAXPAK0ABU__true_type@0@@Z
_TEXT	SEGMENT PARA USE32 PUBLIC 'CODE'
_TEXT	ENDS
;	COMDAT ??$_Destroy@G@_STL@@YAXPAG@Z
_TEXT	SEGMENT PARA USE32 PUBLIC 'CODE'
_TEXT	ENDS
;	COMDAT ??$_Construct@U?$pair@$$CBGPAVivfstream@@@_STL@@U12@@_STL@@YAXPAU?$pair@$$CBGPAVivfstream@@@0@ABU10@@Z
_TEXT	SEGMENT PARA USE32 PUBLIC 'CODE'
_TEXT	ENDS
;	COMDAT ??0?$pair@$$CBGPAVivfstream@@@_STL@@QAE@ABU01@@Z
_TEXT	SEGMENT PARA USE32 PUBLIC 'CODE'
_TEXT	ENDS
;	COMDAT ?_Ret@?$_BothPtrType@PADPAD@_STL@@SA?AU__true_type@2@XZ
_TEXT	SEGMENT PARA USE32 PUBLIC 'CODE'
_TEXT	ENDS
;	COMDAT ??$__copy_aux@PADPAD@_STL@@YAPADPAD00ABU__true_type@0@@Z
_TEXT	SEGMENT PARA USE32 PUBLIC 'CODE'
_TEXT	ENDS
;	COMDAT ?_Ret@?$_OKToMemCpy@DD@_STL@@SA?AU__true_type@2@XZ
_TEXT	SEGMENT PARA USE32 PUBLIC 'CODE'
_TEXT	ENDS
;	COMDAT ??$_IsOKToMemCpy@DD@_STL@@YA?AU?$_OKToMemCpy@DD@0@PAD0@Z
_TEXT	SEGMENT PARA USE32 PUBLIC 'CODE'
_TEXT	ENDS
;	COMDAT ??$__copy_ptrs@PADPAD@_STL@@YAPADPAD00ABU__true_type@0@@Z
_TEXT	SEGMENT PARA USE32 PUBLIC 'CODE'
_TEXT	ENDS
;	COMDAT ??_R3IFileIO@@8
rdata$r	SEGMENT DWORD USE32 PUBLIC 'CONST'
rdata$r	ENDS
;	COMDAT ??_R3MLoadingSPKWorkNode2@@8
rdata$r	SEGMENT DWORD USE32 PUBLIC 'CONST'
rdata$r	ENDS
;	COMDAT ??_R3CSprite565@@8
rdata$r	SEGMENT DWORD USE32 PUBLIC 'CONST'
rdata$r	ENDS
;	COMDAT ??_R3ovfstream@@8
rdata$r	SEGMENT DWORD USE32 PUBLIC 'CONST'
rdata$r	ENDS
;	COMDAT ??_R3CSprite555@@8
rdata$r	SEGMENT DWORD USE32 PUBLIC 'CONST'
rdata$r	ENDS
;	COMDAT ??_R3ITypePackBase@@8
rdata$r	SEGMENT DWORD USE32 PUBLIC 'CONST'
rdata$r	ENDS
;	COMDAT ??_R3ivfstream@@8
rdata$r	SEGMENT DWORD USE32 PUBLIC 'CONST'
rdata$r	ENDS
;	COMDAT ??_R3?$basic_ofstream@DV?$char_traits@D@_STL@@@_STL@@8
rdata$r	SEGMENT DWORD USE32 PUBLIC 'CONST'
rdata$r	ENDS
;	COMDAT ??_R3MLoadingSPKWorkNode1@@8
rdata$r	SEGMENT DWORD USE32 PUBLIC 'CONST'
rdata$r	ENDS
;	COMDAT ??_R3iovfs_base@@8
rdata$r	SEGMENT DWORD USE32 PUBLIC 'CONST'
rdata$r	ENDS
;	COMDAT ??_R3MLoadingSPKWorkNode@@8
rdata$r	SEGMENT DWORD USE32 PUBLIC 'CONST'
rdata$r	ENDS
;	COMDAT ??_R3MLoadingSPKWorkNode4@@8
rdata$r	SEGMENT DWORD USE32 PUBLIC 'CONST'
rdata$r	ENDS
;	COMDAT ??_R3?$CTypePack2@VCSprite@@VCSprite555@@VCSprite565@@@@8
rdata$r	SEGMENT DWORD USE32 PUBLIC 'CONST'
rdata$r	ENDS
;	COMDAT ??_R3MLoadingSPKWorkNode3@@8
rdata$r	SEGMENT DWORD USE32 PUBLIC 'CONST'
rdata$r	ENDS
;	COMDAT ??_R2IFileIO@@8
rdata$r	SEGMENT DWORD USE32 PUBLIC 'CONST'
rdata$r	ENDS
;	COMDAT ??_R2MLoadingSPKWorkNode2@@8
rdata$r	SEGMENT DWORD USE32 PUBLIC 'CONST'
rdata$r	ENDS
;	COMDAT ??_R2CSprite565@@8
rdata$r	SEGMENT DWORD USE32 PUBLIC 'CONST'
rdata$r	ENDS
;	COMDAT ??_R2ovfstream@@8
rdata$r	SEGMENT DWORD USE32 PUBLIC 'CONST'
rdata$r	ENDS
;	COMDAT ??_R2CSprite555@@8
rdata$r	SEGMENT DWORD USE32 PUBLIC 'CONST'
rdata$r	ENDS
;	COMDAT ??_R2ITypePackBase@@8
rdata$r	SEGMENT DWORD USE32 PUBLIC 'CONST'
rdata$r	ENDS
;	COMDAT ??_R2ivfstream@@8
rdata$r	SEGMENT DWORD USE32 PUBLIC 'CONST'
rdata$r	ENDS
;	COMDAT ??_R2?$basic_ofstream@DV?$char_traits@D@_STL@@@_STL@@8
rdata$r	SEGMENT DWORD USE32 PUBLIC 'CONST'
rdata$r	ENDS
;	COMDAT ??_R2MLoadingSPKWorkNode1@@8
rdata$r	SEGMENT DWORD USE32 PUBLIC 'CONST'
rdata$r	ENDS
;	COMDAT ??_R2iovfs_base@@8
rdata$r	SEGMENT DWORD USE32 PUBLIC 'CONST'
rdata$r	ENDS
;	COMDAT ??_R2MLoadingSPKWorkNode@@8
rdata$r	SEGMENT DWORD USE32 PUBLIC 'CONST'
rdata$r	ENDS
;	COMDAT ??_R2MLoadingSPKWorkNode4@@8
rdata$r	SEGMENT DWORD USE32 PUBLIC 'CONST'
rdata$r	ENDS
;	COMDAT ??_R2?$CTypePack2@VCSprite@@VCSprite555@@VCSprite565@@@@8
rdata$r	SEGMENT DWORD USE32 PUBLIC 'CONST'
rdata$r	ENDS
;	COMDAT ??_R2MLoadingSPKWorkNode3@@8
rdata$r	SEGMENT DWORD USE32 PUBLIC 'CONST'
rdata$r	ENDS
;	COMDAT ??_R1A@?0A@A@IFileIO@@8
rdata$r	SEGMENT DWORD USE32 PUBLIC 'CONST'
rdata$r	ENDS
;	COMDAT ??_R1A@?0A@A@MLoadingSPKWorkNode2@@8
rdata$r	SEGMENT DWORD USE32 PUBLIC 'CONST'
rdata$r	ENDS
;	COMDAT ??_R1A@?0A@A@CSprite565@@8
rdata$r	SEGMENT DWORD USE32 PUBLIC 'CONST'
rdata$r	ENDS
;	COMDAT ??_R1A@?0A@A@ovfstream@@8
rdata$r	SEGMENT DWORD USE32 PUBLIC 'CONST'
rdata$r	ENDS
;	COMDAT ??_R1A@?0A@A@CSprite@@8
rdata$r	SEGMENT DWORD USE32 PUBLIC 'CONST'
rdata$r	ENDS
;	COMDAT ??_R1A@?0A@A@CSprite555@@8
rdata$r	SEGMENT DWORD USE32 PUBLIC 'CONST'
rdata$r	ENDS
;	COMDAT ??_R1A@?0A@A@ivfstream@@8
rdata$r	SEGMENT DWORD USE32 PUBLIC 'CONST'
rdata$r	ENDS
;	COMDAT ??_R1A@A@3A@ios_base@_STL@@8
rdata$r	SEGMENT DWORD USE32 PUBLIC 'CONST'
rdata$r	ENDS
;	COMDAT ??_R0?AVios_base@_STL@@@8
_DATA	SEGMENT DWORD USE32 PUBLIC 'DATA'
_DATA	ENDS
;	COMDAT ??_R1A@A@3BA@?$basic_ios@DV?$char_traits@D@_STL@@@_STL@@8
rdata$r	SEGMENT DWORD USE32 PUBLIC 'CONST'
rdata$r	ENDS
;	COMDAT ??_R0?AV?$basic_ios@DV?$char_traits@D@_STL@@@_STL@@@8
_DATA	SEGMENT DWORD USE32 PUBLIC 'DATA'
_DATA	ENDS
;	COMDAT ??_R1A@?0A@A@?$basic_ostream@DV?$char_traits@D@_STL@@@_STL@@8
rdata$r	SEGMENT DWORD USE32 PUBLIC 'CONST'
rdata$r	ENDS
;	COMDAT ??_R0?AV?$basic_ostream@DV?$char_traits@D@_STL@@@_STL@@@8
_DATA	SEGMENT DWORD USE32 PUBLIC 'DATA'
_DATA	ENDS
;	COMDAT ??_R1A@?0A@A@?$basic_ofstream@DV?$char_traits@D@_STL@@@_STL@@8
rdata$r	SEGMENT DWORD USE32 PUBLIC 'CONST'
rdata$r	ENDS
;	COMDAT ??_R1A@?0A@A@MLoadingSPKWorkNode1@@8
rdata$r	SEGMENT DWORD USE32 PUBLIC 'CONST'
rdata$r	ENDS
;	COMDAT ??_R1A@?0A@A@iovfs_base@@8
rdata$r	SEGMENT DWORD USE32 PUBLIC 'CONST'
rdata$r	ENDS
;	COMDAT ??_R1A@?0A@A@MLoadingSPKWorkNode4@@8
rdata$r	SEGMENT DWORD USE32 PUBLIC 'CONST'
rdata$r	ENDS
;	COMDAT ??_R1A@?0A@A@ITypePackBase@@8
rdata$r	SEGMENT DWORD USE32 PUBLIC 'CONST'
rdata$r	ENDS
;	COMDAT ??_R1A@?0A@A@?$CTypePack2@VCSprite@@VCSprite555@@VCSprite565@@@@8
rdata$r	SEGMENT DWORD USE32 PUBLIC 'CONST'
rdata$r	ENDS
;	COMDAT ??_R1A@?0A@A@MWorkNode@@8
rdata$r	SEGMENT DWORD USE32 PUBLIC 'CONST'
rdata$r	ENDS
;	COMDAT ??_R1A@?0A@A@MLoadingSPKWorkNode@@8
rdata$r	SEGMENT DWORD USE32 PUBLIC 'CONST'
rdata$r	ENDS
;	COMDAT ??_R1A@?0A@A@MLoadingSPKWorkNode3@@8
rdata$r	SEGMENT DWORD USE32 PUBLIC 'CONST'
rdata$r	ENDS
;	COMDAT ??_R0?AVIFileIO@@@8
_DATA	SEGMENT DWORD USE32 PUBLIC 'DATA'
_DATA	ENDS
;	COMDAT ??_R0?AVMLoadingSPKWorkNode2@@@8
_DATA	SEGMENT DWORD USE32 PUBLIC 'DATA'
_DATA	ENDS
;	COMDAT ??_R0?AVCSprite565@@@8
_DATA	SEGMENT DWORD USE32 PUBLIC 'DATA'
_DATA	ENDS
;	COMDAT ??_R0?AVovfstream@@@8
_DATA	SEGMENT DWORD USE32 PUBLIC 'DATA'
_DATA	ENDS
;	COMDAT ??_R0?AVCSprite@@@8
_DATA	SEGMENT DWORD USE32 PUBLIC 'DATA'
_DATA	ENDS
;	COMDAT ??_R0?AVCSprite555@@@8
_DATA	SEGMENT DWORD USE32 PUBLIC 'DATA'
_DATA	ENDS
;	COMDAT ??_R0?AVivfstream@@@8
_DATA	SEGMENT DWORD USE32 PUBLIC 'DATA'
_DATA	ENDS
;	COMDAT ??_R0?AV?$basic_ofstream@DV?$char_traits@D@_STL@@@_STL@@@8
_DATA	SEGMENT DWORD USE32 PUBLIC 'DATA'
_DATA	ENDS
;	COMDAT ??_R0?AVMLoadingSPKWorkNode1@@@8
_DATA	SEGMENT DWORD USE32 PUBLIC 'DATA'
_DATA	ENDS
;	COMDAT ??_R0?AViovfs_base@@@8
_DATA	SEGMENT DWORD USE32 PUBLIC 'DATA'
_DATA	ENDS
;	COMDAT ??_R0?AVMLoadingSPKWorkNode4@@@8
_DATA	SEGMENT DWORD USE32 PUBLIC 'DATA'
_DATA	ENDS
;	COMDAT ??_R0?AVITypePackBase@@@8
_DATA	SEGMENT DWORD USE32 PUBLIC 'DATA'
_DATA	ENDS
;	COMDAT ??_R0?AV?$CTypePack2@VCSprite@@VCSprite555@@VCSprite565@@@@@8
_DATA	SEGMENT DWORD USE32 PUBLIC 'DATA'
_DATA	ENDS
;	COMDAT ??_R0?AVMWorkNode@@@8
_DATA	SEGMENT DWORD USE32 PUBLIC 'DATA'
_DATA	ENDS
;	COMDAT ??_R0?AVMLoadingSPKWorkNode@@@8
_DATA	SEGMENT DWORD USE32 PUBLIC 'DATA'
_DATA	ENDS
;	COMDAT ??_R0?AVMLoadingSPKWorkNode3@@@8
_DATA	SEGMENT DWORD USE32 PUBLIC 'DATA'
_DATA	ENDS
;	COMDAT ??_R4IFileIO@@6B@
rdata$r	SEGMENT DWORD USE32 PUBLIC 'CONST'
rdata$r	ENDS
;	COMDAT ??_R4MLoadingSPKWorkNode2@@6B@
rdata$r	SEGMENT DWORD USE32 PUBLIC 'CONST'
rdata$r	ENDS
;	COMDAT ??_R4CSprite565@@6B@
rdata$r	SEGMENT DWORD USE32 PUBLIC 'CONST'
rdata$r	ENDS
;	COMDAT ??_R4ovfstream@@6B@
rdata$r	SEGMENT DWORD USE32 PUBLIC 'CONST'
rdata$r	ENDS
;	COMDAT ??_R4CSprite555@@6B@
rdata$r	SEGMENT DWORD USE32 PUBLIC 'CONST'
rdata$r	ENDS
;	COMDAT ??_R4ITypePackBase@@6B@
rdata$r	SEGMENT DWORD USE32 PUBLIC 'CONST'
rdata$r	ENDS
;	COMDAT ??_R4ivfstream@@6B@
rdata$r	SEGMENT DWORD USE32 PUBLIC 'CONST'
rdata$r	ENDS
;	COMDAT ??_R4?$basic_ofstream@DV?$char_traits@D@_STL@@@_STL@@6B@
rdata$r	SEGMENT DWORD USE32 PUBLIC 'CONST'
rdata$r	ENDS
;	COMDAT ??_R4MLoadingSPKWorkNode1@@6B@
rdata$r	SEGMENT DWORD USE32 PUBLIC 'CONST'
rdata$r	ENDS
;	COMDAT ??_R4iovfs_base@@6B@
rdata$r	SEGMENT DWORD USE32 PUBLIC 'CONST'
rdata$r	ENDS
;	COMDAT ??_R4MLoadingSPKWorkNode@@6B@
rdata$r	SEGMENT DWORD USE32 PUBLIC 'CONST'
rdata$r	ENDS
;	COMDAT ??_R4MLoadingSPKWorkNode4@@6B@
rdata$r	SEGMENT DWORD USE32 PUBLIC 'CONST'
rdata$r	ENDS
;	COMDAT ??_R4?$CTypePack2@VCSprite@@VCSprite555@@VCSprite565@@@@6B@
rdata$r	SEGMENT DWORD USE32 PUBLIC 'CONST'
rdata$r	ENDS
;	COMDAT ??_R4MLoadingSPKWorkNode3@@6B@
rdata$r	SEGMENT DWORD USE32 PUBLIC 'CONST'
rdata$r	ENDS
;	COMDAT ??3@YAXPAX0@Z
_TEXT	SEGMENT PARA USE32 PUBLIC 'CODE'
_TEXT	ENDS
;	COMDAT ?good@ios_base@_STL@@QBE_NXZ
_TEXT	SEGMENT PARA USE32 PUBLIC 'CODE'
_TEXT	ENDS
;	COMDAT ??9_List_iterator_base@_STL@@QBE_NABU01@@Z
_TEXT	SEGMENT PARA USE32 PUBLIC 'CODE'
_TEXT	ENDS
;	COMDAT ?_M_get_exception_mask@ios_base@_STL@@IBEHXZ
_TEXT	SEGMENT PARA USE32 PUBLIC 'CODE'
_TEXT	ENDS
;	COMDAT ?_M_setstate_nothrow@ios_base@_STL@@IAEXH@Z
_TEXT	SEGMENT PARA USE32 PUBLIC 'CODE'
_TEXT	ENDS
;	COMDAT ?_M_ctype_facet@ios_base@_STL@@QBEPBVfacet@locale@2@XZ
_TEXT	SEGMENT PARA USE32 PUBLIC 'CODE'
_TEXT	ENDS
;	COMDAT ?widen@?$ctype@D@_STL@@QBEDD@Z
_TEXT	SEGMENT PARA USE32 PUBLIC 'CODE'
_TEXT	ENDS
;	COMDAT ?grouping@?$numpunct@D@_STL@@QBE?AV?$basic_string@DV?$char_traits@D@_STL@@V?$allocator@D@2@@2@XZ
_TEXT	SEGMENT PARA USE32 PUBLIC 'CODE'
_TEXT	ENDS
;	COMDAT ??4?$basic_string@DV?$char_traits@D@_STL@@V?$allocator@D@2@@_STL@@QAEAAV01@ABV01@@Z
_TEXT	SEGMENT PARA USE32 PUBLIC 'CODE'
_TEXT	ENDS
;	COMDAT ??$assign@PAD@?$basic_string@DV?$char_traits@D@_STL@@V?$allocator@D@2@@_STL@@QAEAAV01@PAD0@Z
_TEXT	SEGMENT PARA USE32 PUBLIC 'CODE'
_TEXT	ENDS
;	COMDAT ?pubsync@?$basic_streambuf@DV?$char_traits@D@_STL@@@_STL@@QAEHXZ
_TEXT	SEGMENT PARA USE32 PUBLIC 'CODE'
_TEXT	ENDS
;	COMDAT ?flags@ios_base@_STL@@QBEHXZ
_TEXT	SEGMENT PARA USE32 PUBLIC 'CODE'
_TEXT	ENDS
;	COMDAT ??1?$_String_base@DV?$allocator@D@_STL@@@_STL@@QAE@XZ
_TEXT	SEGMENT PARA USE32 PUBLIC 'CODE'
_TEXT	ENDS
;	COMDAT ??2@YAPAXIPAX@Z
_TEXT	SEGMENT PARA USE32 PUBLIC 'CODE'
_TEXT	ENDS
;	COMDAT ?precision@ios_base@_STL@@QAEHH@Z
_TEXT	SEGMENT PARA USE32 PUBLIC 'CODE'
_TEXT	ENDS
;	COMDAT ?width@ios_base@_STL@@QAEHH@Z
_TEXT	SEGMENT PARA USE32 PUBLIC 'CODE'
_TEXT	ENDS
;	COMDAT ?flags@ios_base@_STL@@QAEHH@Z
_TEXT	SEGMENT PARA USE32 PUBLIC 'CODE'
_TEXT	ENDS
;	COMDAT ?_M_set_exception_mask@ios_base@_STL@@IAEXH@Z
_TEXT	SEGMENT PARA USE32 PUBLIC 'CODE'
_TEXT	ENDS
;	COMDAT ??_7?$basic_ios@DV?$char_traits@D@_STL@@@_STL@@6B@
CONST	SEGMENT DWORD USE32 PUBLIC 'CONST'
CONST	ENDS
;	COMDAT ??_R4?$basic_ios@DV?$char_traits@D@_STL@@@_STL@@6B@
rdata$r	SEGMENT DWORD USE32 PUBLIC 'CONST'
rdata$r	ENDS
;	COMDAT ??_R3?$basic_ios@DV?$char_traits@D@_STL@@@_STL@@8
rdata$r	SEGMENT DWORD USE32 PUBLIC 'CONST'
rdata$r	ENDS
;	COMDAT ??_R2?$basic_ios@DV?$char_traits@D@_STL@@@_STL@@8
rdata$r	SEGMENT DWORD USE32 PUBLIC 'CONST'
rdata$r	ENDS
;	COMDAT ??_R1A@?0A@A@?$basic_ios@DV?$char_traits@D@_STL@@@_STL@@8
rdata$r	SEGMENT DWORD USE32 PUBLIC 'CONST'
rdata$r	ENDS
;	COMDAT ??_R1A@?0A@A@ios_base@_STL@@8
rdata$r	SEGMENT DWORD USE32 PUBLIC 'CONST'
rdata$r	ENDS
;	COMDAT ??_G?$basic_ios@DV?$char_traits@D@_STL@@@_STL@@UAEPAXI@Z
_TEXT	SEGMENT PARA USE32 PUBLIC 'CODE'
_TEXT	ENDS
;	COMDAT ??0?$basic_string@DV?$char_traits@D@_STL@@V?$allocator@D@2@@_STL@@QAE@ABV01@@Z
_TEXT	SEGMENT PARA USE32 PUBLIC 'CODE'
_TEXT	ENDS
;	COMDAT ?sputn@?$basic_streambuf@DV?$char_traits@D@_STL@@@_STL@@QAEHPBDH@Z
_TEXT	SEGMENT PARA USE32 PUBLIC 'CODE'
_TEXT	ENDS
;	COMDAT ??_7?$basic_ostream@DV?$char_traits@D@_STL@@@_STL@@6B@
CONST	SEGMENT DWORD USE32 PUBLIC 'CONST'
CONST	ENDS
;	COMDAT ??_R4?$basic_ostream@DV?$char_traits@D@_STL@@@_STL@@6B@
rdata$r	SEGMENT DWORD USE32 PUBLIC 'CONST'
rdata$r	ENDS
;	COMDAT ??_R3?$basic_ostream@DV?$char_traits@D@_STL@@@_STL@@8
rdata$r	SEGMENT DWORD USE32 PUBLIC 'CONST'
rdata$r	ENDS
;	COMDAT ??_R2?$basic_ostream@DV?$char_traits@D@_STL@@@_STL@@8
rdata$r	SEGMENT DWORD USE32 PUBLIC 'CONST'
rdata$r	ENDS
;	COMDAT ??_G?$basic_ostream@DV?$char_traits@D@_STL@@@_STL@@UAEPAXI@Z
_TEXT	SEGMENT PARA USE32 PUBLIC 'CODE'
_TEXT	ENDS
;	COMDAT ??_D?$basic_ostream@DV?$char_traits@D@_STL@@@_STL@@QAEXXZ
_TEXT	SEGMENT PARA USE32 PUBLIC 'CODE'
_TEXT	ENDS
;	COMDAT ??_8?$basic_ostream@DV?$char_traits@D@_STL@@@_STL@@7B@
CONST	SEGMENT DWORD USE32 PUBLIC 'CONST'
CONST	ENDS
;	COMDAT ?__page_size@_Filebuf_base@_STL@@SAIXZ
_TEXT	SEGMENT PARA USE32 PUBLIC 'CODE'
_TEXT	ENDS
;	COMDAT ?_M_write@?$basic_filebuf@DV?$char_traits@D@_STL@@@_STL@@QAE_NPADH@Z
_TEXT	SEGMENT PARA USE32 PUBLIC 'CODE'
_TEXT	ENDS
;	COMDAT ?unshift@?$codecvt@DDH@_STL@@QBE?AW4result@codecvt_base@2@AAHPAD1AAPAD@Z
_TEXT	SEGMENT PARA USE32 PUBLIC 'CODE'
_TEXT	ENDS
;	COMDAT ??_7?$basic_filebuf@DV?$char_traits@D@_STL@@@_STL@@6B@
CONST	SEGMENT DWORD USE32 PUBLIC 'CONST'
CONST	ENDS
;	COMDAT ??_R4?$basic_filebuf@DV?$char_traits@D@_STL@@@_STL@@6B@
rdata$r	SEGMENT DWORD USE32 PUBLIC 'CONST'
rdata$r	ENDS
;	COMDAT ??_R0?AV?$basic_filebuf@DV?$char_traits@D@_STL@@@_STL@@@8
_DATA	SEGMENT DWORD USE32 PUBLIC 'DATA'
_DATA	ENDS
;	COMDAT ??_R3?$basic_filebuf@DV?$char_traits@D@_STL@@@_STL@@8
rdata$r	SEGMENT DWORD USE32 PUBLIC 'CONST'
rdata$r	ENDS
;	COMDAT ??_R2?$basic_filebuf@DV?$char_traits@D@_STL@@@_STL@@8
rdata$r	SEGMENT DWORD USE32 PUBLIC 'CONST'
rdata$r	ENDS
;	COMDAT ??_R1A@?0A@A@?$basic_filebuf@DV?$char_traits@D@_STL@@@_STL@@8
rdata$r	SEGMENT DWORD USE32 PUBLIC 'CONST'
rdata$r	ENDS
;	COMDAT ??_R1A@?0A@A@?$basic_streambuf@DV?$char_traits@D@_STL@@@_STL@@8
rdata$r	SEGMENT DWORD USE32 PUBLIC 'CONST'
rdata$r	ENDS
;	COMDAT ??_R0?AV?$basic_streambuf@DV?$char_traits@D@_STL@@@_STL@@@8
_DATA	SEGMENT DWORD USE32 PUBLIC 'DATA'
_DATA	ENDS
;	COMDAT ??_G?$basic_filebuf@DV?$char_traits@D@_STL@@@_STL@@UAEPAXI@Z
_TEXT	SEGMENT PARA USE32 PUBLIC 'CODE'
_TEXT	ENDS
;	COMDAT ?setbuf@?$basic_filebuf@DV?$char_traits@D@_STL@@@_STL@@MAEPAV?$basic_streambuf@DV?$char_traits@D@_STL@@@2@PADH@Z
_TEXT	SEGMENT PARA USE32 PUBLIC 'CODE'
_TEXT	ENDS
;	COMDAT ?seekoff@?$basic_filebuf@DV?$char_traits@D@_STL@@@_STL@@MAE?AV?$fpos@H@2@JHH@Z
_TEXT	SEGMENT PARA USE32 PUBLIC 'CODE'
_TEXT	ENDS
;	COMDAT ?_M_in_binary_mode@_Filebuf_base@_STL@@QBE_NXZ
_TEXT	SEGMENT PARA USE32 PUBLIC 'CODE'
_TEXT	ENDS
;	COMDAT ?length@?$codecvt@DDH@_STL@@QBEHABHPBD1I@Z
_TEXT	SEGMENT PARA USE32 PUBLIC 'CODE'
_TEXT	ENDS
;	COMDAT ?in@?$codecvt@DDH@_STL@@QBE?AW4result@codecvt_base@2@AAHPBD1AAPBDPAD3AAPAD@Z
_TEXT	SEGMENT PARA USE32 PUBLIC 'CODE'
_TEXT	ENDS
;	COMDAT ?eback@?$basic_streambuf@DV?$char_traits@D@_STL@@@_STL@@IBEPADXZ
_TEXT	SEGMENT PARA USE32 PUBLIC 'CODE'
_TEXT	ENDS
;	COMDAT ?_FILE_I_begin@_STL@@YAPADPBU_iobuf@@@Z
_TEXT	SEGMENT PARA USE32 PUBLIC 'CODE'
_TEXT	ENDS
;	COMDAT ?gptr@?$basic_streambuf@DV?$char_traits@D@_STL@@@_STL@@IBEPADXZ
_TEXT	SEGMENT PARA USE32 PUBLIC 'CODE'
_TEXT	ENDS
;	COMDAT ?_FILE_I_next@_STL@@YAPADPBU_iobuf@@@Z
_TEXT	SEGMENT PARA USE32 PUBLIC 'CODE'
_TEXT	ENDS
;	COMDAT ?_M_get_offset@_Filebuf_base@_STL@@QAEJPAD0@Z
_TEXT	SEGMENT PARA USE32 PUBLIC 'CODE'
_TEXT	ENDS
;	COMDAT ??$count@PADD@_STL@@YAHPAD0ABD@Z
_TEXT	SEGMENT PARA USE32 PUBLIC 'CODE'
_TEXT	ENDS
;	COMDAT ?seekpos@?$basic_filebuf@DV?$char_traits@D@_STL@@@_STL@@MAE?AV?$fpos@H@2@V32@H@Z
_TEXT	SEGMENT PARA USE32 PUBLIC 'CODE'
_TEXT	ENDS
;	COMDAT ?sync@?$basic_filebuf@DV?$char_traits@D@_STL@@@_STL@@MAEHXZ
_TEXT	SEGMENT PARA USE32 PUBLIC 'CODE'
_TEXT	ENDS
;	COMDAT ?showmanyc@?$basic_filebuf@DV?$char_traits@D@_STL@@@_STL@@MAEHXZ
_TEXT	SEGMENT PARA USE32 PUBLIC 'CODE'
_TEXT	ENDS
;	COMDAT ?egptr@?$basic_streambuf@DV?$char_traits@D@_STL@@@_STL@@IBEPADXZ
_TEXT	SEGMENT PARA USE32 PUBLIC 'CODE'
_TEXT	ENDS
;	COMDAT ?_FILE_I_end@_STL@@YAPADPBU_iobuf@@@Z
_TEXT	SEGMENT PARA USE32 PUBLIC 'CODE'
_TEXT	ENDS
;	COMDAT ?underflow@?$basic_filebuf@DV?$char_traits@D@_STL@@@_STL@@MAEHXZ
_TEXT	SEGMENT PARA USE32 PUBLIC 'CODE'
_TEXT	ENDS
;	COMDAT ?pbackfail@?$basic_filebuf@DV?$char_traits@D@_STL@@@_STL@@MAEHH@Z
_TEXT	SEGMENT PARA USE32 PUBLIC 'CODE'
_TEXT	ENDS
;	COMDAT ?gbump@?$basic_streambuf@DV?$char_traits@D@_STL@@@_STL@@IAEXH@Z
_TEXT	SEGMENT PARA USE32 PUBLIC 'CODE'
_TEXT	ENDS
;	COMDAT ?_FILE_I_bump@_STL@@YAXPAU_iobuf@@H@Z
_TEXT	SEGMENT PARA USE32 PUBLIC 'CODE'
_TEXT	ENDS
;	COMDAT ?to_int_type@?$char_traits@D@_STL@@SAHABD@Z
_TEXT	SEGMENT PARA USE32 PUBLIC 'CODE'
_TEXT	ENDS
;	COMDAT ?to_char_type@?$char_traits@D@_STL@@SADABH@Z
_TEXT	SEGMENT PARA USE32 PUBLIC 'CODE'
_TEXT	ENDS
;	COMDAT ?overflow@?$basic_filebuf@DV?$char_traits@D@_STL@@@_STL@@MAEHH@Z
_TEXT	SEGMENT PARA USE32 PUBLIC 'CODE'
_TEXT	ENDS
;	COMDAT ?pptr@?$basic_streambuf@DV?$char_traits@D@_STL@@@_STL@@IBEPADXZ
_TEXT	SEGMENT PARA USE32 PUBLIC 'CODE'
_TEXT	ENDS
;	COMDAT ?_FILE_O_next@_STL@@YAPADPBU_iobuf@@@Z
_TEXT	SEGMENT PARA USE32 PUBLIC 'CODE'
_TEXT	ENDS
;	COMDAT ?out@?$codecvt@DDH@_STL@@QBE?AW4result@codecvt_base@2@AAHPBD1AAPBDPAD3AAPAD@Z
_TEXT	SEGMENT PARA USE32 PUBLIC 'CODE'
_TEXT	ENDS
;	COMDAT ?_M_doit@?$_Noconv_output@V?$char_traits@D@_STL@@@_STL@@SA_NPAV?$basic_filebuf@DV?$char_traits@D@_STL@@@2@PAD1@Z
_TEXT	SEGMENT PARA USE32 PUBLIC 'CODE'
_TEXT	ENDS
;	COMDAT ?imbue@?$basic_filebuf@DV?$char_traits@D@_STL@@@_STL@@MAEXABVlocale@2@@Z
_TEXT	SEGMENT PARA USE32 PUBLIC 'CODE'
_TEXT	ENDS
;	COMDAT ??0?$basic_streambuf@DV?$char_traits@D@_STL@@@_STL@@IAE@XZ
_TEXT	SEGMENT PARA USE32 PUBLIC 'CODE'
_TEXT	ENDS
;	COMDAT ??_7?$basic_streambuf@DV?$char_traits@D@_STL@@@_STL@@6B@
CONST	SEGMENT DWORD USE32 PUBLIC 'CONST'
CONST	ENDS
;	COMDAT ??_R4?$basic_streambuf@DV?$char_traits@D@_STL@@@_STL@@6B@
rdata$r	SEGMENT DWORD USE32 PUBLIC 'CONST'
rdata$r	ENDS
;	COMDAT ??_R3?$basic_streambuf@DV?$char_traits@D@_STL@@@_STL@@8
rdata$r	SEGMENT DWORD USE32 PUBLIC 'CONST'
rdata$r	ENDS
;	COMDAT ??_R2?$basic_streambuf@DV?$char_traits@D@_STL@@@_STL@@8
rdata$r	SEGMENT DWORD USE32 PUBLIC 'CONST'
rdata$r	ENDS
;	COMDAT ??_G?$basic_streambuf@DV?$char_traits@D@_STL@@@_STL@@UAEPAXI@Z
_TEXT	SEGMENT PARA USE32 PUBLIC 'CODE'
_TEXT	ENDS
;	COMDAT ??0_STLP_mutex@_STL@@QAE@XZ
_TEXT	SEGMENT PARA USE32 PUBLIC 'CODE'
_TEXT	ENDS
;	COMDAT ?_M_initialize@_STLP_mutex_base@_STL@@QAEXXZ
_TEXT	SEGMENT PARA USE32 PUBLIC 'CODE'
_TEXT	ENDS
;	COMDAT ??1_STLP_mutex@_STL@@QAE@XZ
_TEXT	SEGMENT PARA USE32 PUBLIC 'CODE'
_TEXT	ENDS
;	COMDAT ?_M_destroy@_STLP_mutex_base@_STL@@QAEXXZ
_TEXT	SEGMENT PARA USE32 PUBLIC 'CODE'
_TEXT	ENDS
;	COMDAT ?_FILE_I_set@_STL@@YAXPAU_iobuf@@PAD11@Z
_TEXT	SEGMENT PARA USE32 PUBLIC 'CODE'
_TEXT	ENDS
;	COMDAT ?_FILE_O_set@_STL@@YAXPAU_iobuf@@PAD11@Z
_TEXT	SEGMENT PARA USE32 PUBLIC 'CODE'
_TEXT	ENDS
;	COMDAT ?uninitialized_copy@_STL@@YAPADPBD0PAD@Z
_TEXT	SEGMENT PARA USE32 PUBLIC 'CODE'
_TEXT	ENDS
;	COMDAT ?_M_deallocate_block@?$_String_base@DV?$allocator@D@_STL@@@_STL@@QAEXXZ
_TEXT	SEGMENT PARA USE32 PUBLIC 'CODE'
_TEXT	ENDS
;	COMDAT ?deallocate@?$allocator@D@_STL@@QAEXPADI@Z
_TEXT	SEGMENT PARA USE32 PUBLIC 'CODE'
_TEXT	ENDS
;	COMDAT ??0_List_iterator_base@_STL@@QAE@PAU_List_node_base@1@@Z
_TEXT	SEGMENT PARA USE32 PUBLIC 'CODE'
_TEXT	ENDS
;	COMDAT ?deallocate@?$__node_alloc@$00$0A@@_STL@@SAXPAXI@Z
_TEXT	SEGMENT PARA USE32 PUBLIC 'CODE'
_TEXT	ENDS
;	COMDAT ?__stl_delete@_STL@@YAXPAX@Z
_TEXT	SEGMENT PARA USE32 PUBLIC 'CODE'
_TEXT	ENDS
;	COMDAT ?_M_check_exception_mask@ios_base@_STL@@IAEXXZ
_TEXT	SEGMENT PARA USE32 PUBLIC 'CODE'
_TEXT	ENDS
;	COMDAT ?_M_clear_nothrow@ios_base@_STL@@IAEXH@Z
_TEXT	SEGMENT PARA USE32 PUBLIC 'CODE'
_TEXT	ENDS
;	COMDAT ?__copy_trivial@_STL@@YAPAXPBX0PAX@Z
_TEXT	SEGMENT PARA USE32 PUBLIC 'CODE'
_TEXT	ENDS
;	COMDAT ?rdstate@ios_base@_STL@@QBEHXZ
_TEXT	SEGMENT PARA USE32 PUBLIC 'CODE'
_TEXT	ENDS
;	COMDAT ?_M_incr@_List_iterator_base@_STL@@QAEXXZ
_TEXT	SEGMENT PARA USE32 PUBLIC 'CODE'
_TEXT	ENDS
;	COMDAT ??1?$basic_filebuf@DV?$char_traits@D@_STL@@@_STL@@UAE@XZ
_TEXT	SEGMENT PARA USE32 PUBLIC 'CODE'
_TEXT	ENDS
;	COMDAT ??_7?$basic_ofstream@DV?$char_traits@D@_STL@@@_STL@@6B@
CONST	SEGMENT DWORD USE32 PUBLIC 'CONST'
CONST	ENDS
;	COMDAT ??1?$basic_ostream@DV?$char_traits@D@_STL@@@_STL@@UAE@XZ
_TEXT	SEGMENT PARA USE32 PUBLIC 'CODE'
_TEXT	ENDS
;	COMDAT ??_8?$basic_ofstream@DV?$char_traits@D@_STL@@@_STL@@7B@
CONST	SEGMENT DWORD USE32 PUBLIC 'CONST'
CONST	ENDS
;	COMDAT ?pubseekpos@?$basic_streambuf@DV?$char_traits@D@_STL@@@_STL@@QAE?AV?$fpos@H@2@V32@H@Z
_TEXT	SEGMENT PARA USE32 PUBLIC 'CODE'
_TEXT	ENDS
;	COMDAT ?pubseekoff@?$basic_streambuf@DV?$char_traits@D@_STL@@@_STL@@QAE?AV?$fpos@H@2@JHH@Z
_TEXT	SEGMENT PARA USE32 PUBLIC 'CODE'
_TEXT	ENDS
;	COMDAT ?fail@ios_base@_STL@@QBE_NXZ
_TEXT	SEGMENT PARA USE32 PUBLIC 'CODE'
_TEXT	ENDS
;	COMDAT ??1?$basic_ios@DV?$char_traits@D@_STL@@@_STL@@UAE@XZ
_TEXT	SEGMENT PARA USE32 PUBLIC 'CODE'
_TEXT	ENDS
;	COMDAT ??_7CSprite555@@6B@
CONST	SEGMENT DWORD USE32 PUBLIC 'CONST'
CONST	ENDS
;	COMDAT ??_7CSprite565@@6B@
CONST	SEGMENT DWORD USE32 PUBLIC 'CONST'
CONST	ENDS
;	COMDAT ??0?$allocator@D@_STL@@QAE@XZ
_TEXT	SEGMENT PARA USE32 PUBLIC 'CODE'
_TEXT	ENDS
;	COMDAT ??0?$basic_string@DV?$char_traits@D@_STL@@V?$allocator@D@2@@_STL@@QAE@PBDABV?$allocator@D@1@@Z
_TEXT	SEGMENT PARA USE32 PUBLIC 'CODE'
_TEXT	ENDS
;	COMDAT ??8_Rb_tree_base_iterator@_STL@@QBE_NABU01@@Z
_TEXT	SEGMENT PARA USE32 PUBLIC 'CODE'
_TEXT	ENDS
;	COMDAT ??9_Rb_tree_base_iterator@_STL@@QBE_NABU01@@Z
_TEXT	SEGMENT PARA USE32 PUBLIC 'CODE'
_TEXT	ENDS
;	COMDAT ??_7?$CTypePack2@VCSprite@@VCSprite555@@VCSprite565@@@@6B@
CONST	SEGMENT DWORD USE32 PUBLIC 'CONST'
CONST	ENDS
;	COMDAT ?s_SIZEOF_SizeType@?$TArray@VSPRITE_FILEPOSITION_NODE@@G@@1EA
_DATA	SEGMENT DWORD USE32 PUBLIC 'DATA'
_DATA	ENDS
;	COMDAT ?assign@?$char_traits@D@_STL@@SAXAADABD@Z
_TEXT	SEGMENT PARA USE32 PUBLIC 'CODE'
_TEXT	ENDS
;	COMDAT ?always_noconv@?$codecvt@DDH@_STL@@QBE_NXZ
_TEXT	SEGMENT PARA USE32 PUBLIC 'CODE'
_TEXT	ENDS
;	COMDAT ?encoding@?$codecvt@DDH@_STL@@QBEHXZ
_TEXT	SEGMENT PARA USE32 PUBLIC 'CODE'
_TEXT	ENDS
;	COMDAT ?max_length@?$codecvt@DDH@_STL@@QBEHXZ
_TEXT	SEGMENT PARA USE32 PUBLIC 'CODE'
_TEXT	ENDS
;	COMDAT ?__o_mode@_Filebuf_base@_STL@@QBEHXZ
_TEXT	SEGMENT PARA USE32 PUBLIC 'CODE'
_TEXT	ENDS
;	COMDAT ?_Destroy@_STL@@YAXPAD0@Z
_TEXT	SEGMENT PARA USE32 PUBLIC 'CODE'
_TEXT	ENDS
;	COMDAT ?setp@?$basic_streambuf@DV?$char_traits@D@_STL@@@_STL@@IAEXPAD0@Z
_TEXT	SEGMENT PARA USE32 PUBLIC 'CODE'
_TEXT	ENDS
;	COMDAT ?setg@?$basic_streambuf@DV?$char_traits@D@_STL@@@_STL@@IAEXPAD00@Z
_TEXT	SEGMENT PARA USE32 PUBLIC 'CODE'
_TEXT	ENDS
;	COMDAT ?__is_open@_Filebuf_base@_STL@@QBE_NXZ
_TEXT	SEGMENT PARA USE32 PUBLIC 'CODE'
_TEXT	ENDS
;	COMDAT ?allocate@?$__node_alloc@$00$0A@@_STL@@SAPAXI@Z
_TEXT	SEGMENT PARA USE32 PUBLIC 'CODE'
_TEXT	ENDS
;	COMDAT ?__stl_new@_STL@@YAPAXI@Z
_TEXT	SEGMENT PARA USE32 PUBLIC 'CODE'
_TEXT	ENDS
;	COMDAT ??1?$_STLP_alloc_proxy@PADDV?$allocator@D@_STL@@@_STL@@QAE@XZ
_TEXT	SEGMENT PARA USE32 PUBLIC 'CODE'
_TEXT	ENDS
;	COMDAT ?length@?$char_traits@D@_STL@@SAIPBD@Z
_TEXT	SEGMENT PARA USE32 PUBLIC 'CODE'
_TEXT	ENDS
;	COMDAT ??1?$allocator@D@_STL@@QAE@XZ
_TEXT	SEGMENT PARA USE32 PUBLIC 'CODE'
_TEXT	ENDS
;	COMDAT ?eof@?$__char_traits_base@DH@_STL@@SAHXZ
_TEXT	SEGMENT PARA USE32 PUBLIC 'CODE'
_TEXT	ENDS
;	COMDAT ??_7MLoadingSPKWorkNode4@@6B@
CONST	SEGMENT DWORD USE32 PUBLIC 'CONST'
CONST	ENDS
;	COMDAT ??_7MLoadingSPKWorkNode3@@6B@
CONST	SEGMENT DWORD USE32 PUBLIC 'CONST'
CONST	ENDS
;	COMDAT ??_7MLoadingSPKWorkNode2@@6B@
CONST	SEGMENT DWORD USE32 PUBLIC 'CONST'
CONST	ENDS
;	COMDAT ??_7MLoadingSPKWorkNode1@@6B@
CONST	SEGMENT DWORD USE32 PUBLIC 'CONST'
CONST	ENDS
;	COMDAT ??_7MLoadingSPKWorkNode@@6B@
CONST	SEGMENT DWORD USE32 PUBLIC 'CONST'
CONST	ENDS
;	COMDAT ??_7ITypePackBase@@6B@
CONST	SEGMENT DWORD USE32 PUBLIC 'CONST'
CONST	ENDS
;	COMDAT ??_7ovfstream@@6B@
CONST	SEGMENT DWORD USE32 PUBLIC 'CONST'
CONST	ENDS
;	COMDAT ??_7ivfstream@@6B@
CONST	SEGMENT DWORD USE32 PUBLIC 'CONST'
CONST	ENDS
;	COMDAT ??0?$basic_string@DV?$char_traits@D@_STL@@V?$allocator@D@2@@_STL@@QAE@XZ
_TEXT	SEGMENT PARA USE32 PUBLIC 'CODE'
_TEXT	ENDS
;	COMDAT ??1?$basic_string@DV?$char_traits@D@_STL@@V?$allocator@D@2@@_STL@@QAE@XZ
_TEXT	SEGMENT PARA USE32 PUBLIC 'CODE'
_TEXT	ENDS
;	COMDAT ??_7iovfs_base@@6B@
CONST	SEGMENT DWORD USE32 PUBLIC 'CONST'
CONST	ENDS
;	COMDAT ??_7IFileIO@@6B@
CONST	SEGMENT DWORD USE32 PUBLIC 'CONST'
CONST	ENDS
sxdata	SEGMENT DWORD USE32 'SXDATA'
sxdata	ENDS
FLAT	GROUP _DATA, CONST, _BSS
	ASSUME	CS: FLAT, DS: FLAT, SS: FLAT
endif

INCLUDELIB LIBCMT
INCLUDELIB OLDNAMES

PUBLIC	?SetType@MWorkNode@@QAEXH@Z			; MWorkNode::SetType
; Function compile flags: /Ogsy
; File c:\darkeden\designed_common\project\client\mworknode.h
;	COMDAT ?SetType@MWorkNode@@QAEXH@Z
_TEXT	SEGMENT
_type$ = 8						; size = 4
?SetType@MWorkNode@@QAEXH@Z PROC NEAR			; MWorkNode::SetType, COMDAT
; _this$ = ecx

; 41   : 		void				SetType(int type)	{ m_Type = type; }

  00000	8b 44 24 04	 mov	 eax, DWORD PTR _type$[esp-4]
  00004	89 41 04	 mov	 DWORD PTR [ecx+4], eax
  00007	c2 04 00	 ret	 4
?SetType@MWorkNode@@QAEXH@Z ENDP			; MWorkNode::SetType
_TEXT	ENDS
PUBLIC	?__stl_new@_STL@@YAPAXI@Z			; _STL::__stl_new
EXTRN	??2@YAPAXI@Z:NEAR				; operator new
; Function compile flags: /Ogsy
; File c:\stlport-4.6.1\stlport\stl\_new.h
;	COMDAT ?__stl_new@_STL@@YAPAXI@Z
_TEXT	SEGMENT
___n$ = 8						; size = 4
?__stl_new@_STL@@YAPAXI@Z PROC NEAR			; _STL::__stl_new, COMDAT

; 86   : inline void*  _STLP_CALL __stl_new(size_t __n)   { _STLP_CHECK_NULL_ALLOC(::operator _STLP_NEW(__n)); }

  00000	e9 00 00 00 00	 jmp	 ??2@YAPAXI@Z		; operator new
?__stl_new@_STL@@YAPAXI@Z ENDP				; _STL::__stl_new
_TEXT	ENDS
PUBLIC	?__stl_delete@_STL@@YAXPAX@Z			; _STL::__stl_delete
EXTRN	??3@YAXPAX@Z:NEAR				; operator delete
; Function compile flags: /Ogsy
;	COMDAT ?__stl_delete@_STL@@YAXPAX@Z
_TEXT	SEGMENT
___p$ = 8						; size = 4
?__stl_delete@_STL@@YAXPAX@Z PROC NEAR			; _STL::__stl_delete, COMDAT

; 87   : inline void   _STLP_CALL __stl_delete(void* __p) { ::operator delete(__p); }

  00000	e9 00 00 00 00	 jmp	 ??3@YAXPAX@Z		; operator delete
?__stl_delete@_STL@@YAXPAX@Z ENDP			; _STL::__stl_delete
_TEXT	ENDS
PUBLIC	?_Destroy@_STL@@YAXPAD0@Z			; _STL::_Destroy
; Function compile flags: /Ogsy
; File c:\stlport-4.6.1\stlport\stl\_construct.h
;	COMDAT ?_Destroy@_STL@@YAXPAD0@Z
_TEXT	SEGMENT
___formal$ = 8						; size = 4
___formal$ = 12						; size = 4
?_Destroy@_STL@@YAXPAD0@Z PROC NEAR			; _STL::_Destroy, COMDAT

; 142  : inline void _Destroy(char*, char*) {}

  00000	c3		 ret	 0
?_Destroy@_STL@@YAXPAD0@Z ENDP				; _STL::_Destroy
_TEXT	ENDS
PUBLIC	?__copy_trivial@_STL@@YAPAXPBX0PAX@Z		; _STL::__copy_trivial
EXTRN	_memmove:NEAR
; Function compile flags: /Ogsy
; File c:\stlport-4.6.1\stlport\stl\_algobase.h
;	COMDAT ?__copy_trivial@_STL@@YAPAXPBX0PAX@Z
_TEXT	SEGMENT
___first$ = 8						; size = 4
___last$ = 12						; size = 4
___result$ = 16						; size = 4
?__copy_trivial@_STL@@YAPAXPBX0PAX@Z PROC NEAR		; _STL::__copy_trivial, COMDAT

; 147  : __copy_trivial(const void* __first, const void* __last, void* __result) {

  00000	55		 push	 ebp
  00001	8b ec		 mov	 ebp, esp
  00003	56		 push	 esi

; 148  :   return (__last == __first) ? __result : 
; 149  :     ((char*)memmove(__result, __first, ((const char*)__last - (const char*)__first))) + 
; 150  :     ((const char*)__last - (const char*)__first);

  00004	8b 75 0c	 mov	 esi, DWORD PTR ___last$[ebp]
  00007	3b 75 08	 cmp	 esi, DWORD PTR ___first$[ebp]
  0000a	75 05		 jne	 SHORT $L106717
  0000c	8b 45 10	 mov	 eax, DWORD PTR ___result$[ebp]
  0000f	eb 14		 jmp	 SHORT $L106718
$L106717:
  00011	2b 75 08	 sub	 esi, DWORD PTR ___first$[ebp]
  00014	56		 push	 esi
  00015	ff 75 08	 push	 DWORD PTR ___first$[ebp]
  00018	ff 75 10	 push	 DWORD PTR ___result$[ebp]
  0001b	e8 00 00 00 00	 call	 _memmove
  00020	83 c4 0c	 add	 esp, 12			; 0000000cH
  00023	03 c6		 add	 eax, esi
$L106718:
  00025	5e		 pop	 esi

; 151  : }

  00026	5d		 pop	 ebp
  00027	c3		 ret	 0
?__copy_trivial@_STL@@YAPAXPBX0PAX@Z ENDP		; _STL::__copy_trivial
_TEXT	ENDS
PUBLIC	?uninitialized_copy@_STL@@YAPADPBD0PAD@Z	; _STL::uninitialized_copy
; Function compile flags: /Ogsy
; File c:\stlport-4.6.1\stlport\stl\_uninitialized.h
;	COMDAT ?uninitialized_copy@_STL@@YAPADPBD0PAD@Z
_TEXT	SEGMENT
___first$ = 8						; size = 4
___last$ = 12						; size = 4
___result$ = 16						; size = 4
?uninitialized_copy@_STL@@YAPADPBD0PAD@Z PROC NEAR	; _STL::uninitialized_copy, COMDAT

; 84   :   return  (char*)__copy_trivial (__first, __last, __result);

  00000	e9 00 00 00 00	 jmp	 ?__copy_trivial@_STL@@YAPAXPBX0PAX@Z ; _STL::__copy_trivial
?uninitialized_copy@_STL@@YAPADPBD0PAD@Z ENDP		; _STL::uninitialized_copy
_TEXT	ENDS
PUBLIC	?is_open@iovfs_base@@QBE_NXZ			; iovfs_base::is_open
; Function compile flags: /Ogsy
; File c:\darkeden\designed_common\project\client\virtualfilesystem\vfstream.inl
;	COMDAT ?is_open@iovfs_base@@QBE_NXZ
_TEXT	SEGMENT
?is_open@iovfs_base@@QBE_NXZ PROC NEAR			; iovfs_base::is_open, COMDAT
; _this$ = ecx

; 47   : 	return m_pFileIO && m_pFileIO->is_open();

  00000	83 79 04 00	 cmp	 DWORD PTR [ecx+4], 0
  00004	74 10		 je	 SHORT $L106725
  00006	8b 49 04	 mov	 ecx, DWORD PTR [ecx+4]
  00009	8b 01		 mov	 eax, DWORD PTR [ecx]
  0000b	ff 50 0c	 call	 DWORD PTR [eax+12]
  0000e	84 c0		 test	 al, al
  00010	74 04		 je	 SHORT $L106725
  00012	33 c0		 xor	 eax, eax
  00014	40		 inc	 eax

; 48   : }

  00015	c3		 ret	 0
$L106725:

; 47   : 	return m_pFileIO && m_pFileIO->is_open();

  00016	33 c0		 xor	 eax, eax

; 48   : }

  00018	c3		 ret	 0
?is_open@iovfs_base@@QBE_NXZ ENDP			; iovfs_base::is_open
_TEXT	ENDS
PUBLIC	?open@ivfstream@@UAEXPBDH@Z			; ivfstream::open
EXTRN	?open@iovfs_base@@UAEXPBDH@Z:NEAR		; iovfs_base::open
; Function compile flags: /Ogsy
;	COMDAT ?open@ivfstream@@UAEXPBDH@Z
_TEXT	SEGMENT
_szName$ = 8						; size = 4
_nMode$ = 12						; size = 4
?open@ivfstream@@UAEXPBDH@Z PROC NEAR			; ivfstream::open, COMDAT
; _this$ = ecx

; 76   : 	iovfs_base::open(szName, nMode | std::ios_base::in);

  00000	8b 44 24 08	 mov	 eax, DWORD PTR _nMode$[esp-4]
  00004	83 c8 08	 or	 eax, 8
  00007	50		 push	 eax
  00008	ff 74 24 08	 push	 DWORD PTR _szName$[esp]
  0000c	e8 00 00 00 00	 call	 ?open@iovfs_base@@UAEXPBDH@Z ; iovfs_base::open

; 77   : }

  00011	c2 08 00	 ret	 8
?open@ivfstream@@UAEXPBDH@Z ENDP			; ivfstream::open
_TEXT	ENDS
PUBLIC	?read@ivfstream@@QAEXPADI@Z			; ivfstream::read
; Function compile flags: /Ogsy
;	COMDAT ?read@ivfstream@@QAEXPADI@Z
_TEXT	SEGMENT
_buf$ = 8						; size = 4
_len$ = 12						; size = 4
?read@ivfstream@@QAEXPADI@Z PROC NEAR			; ivfstream::read, COMDAT
; _this$ = ecx

; 81   : 	if(m_pFileIO) m_pFileIO->read(buf, len);

  00000	83 79 04 00	 cmp	 DWORD PTR [ecx+4], 0
  00004	74 08		 je	 SHORT $L100421
  00006	8b 49 04	 mov	 ecx, DWORD PTR [ecx+4]
  00009	8b 01		 mov	 eax, DWORD PTR [ecx]
  0000b	ff 60 10	 jmp	 DWORD PTR [eax+16]
$L100421:

; 82   : }

  0000e	c2 08 00	 ret	 8
?read@ivfstream@@QAEXPADI@Z ENDP			; ivfstream::read
_TEXT	ENDS
PUBLIC	?seekg@ivfstream@@QAEXJH@Z			; ivfstream::seekg
; Function compile flags: /Ogsy
;	COMDAT ?seekg@ivfstream@@QAEXJH@Z
_TEXT	SEGMENT
_off$ = 8						; size = 4
_dir$ = 12						; size = 4
?seekg@ivfstream@@QAEXJH@Z PROC NEAR			; ivfstream::seekg, COMDAT
; _this$ = ecx

; 86   : 	if(m_pFileIO) m_pFileIO->seekg(off, dir);

  00000	83 79 04 00	 cmp	 DWORD PTR [ecx+4], 0
  00004	74 08		 je	 SHORT $L100427
  00006	8b 49 04	 mov	 ecx, DWORD PTR [ecx+4]
  00009	8b 01		 mov	 eax, DWORD PTR [ecx]
  0000b	ff 60 18	 jmp	 DWORD PTR [eax+24]
$L100427:

; 87   : }

  0000e	c2 08 00	 ret	 8
?seekg@ivfstream@@QAEXJH@Z ENDP				; ivfstream::seekg
_TEXT	ENDS
PUBLIC	?tellg@ivfstream@@QAEHXZ			; ivfstream::tellg
; Function compile flags: /Ogsy
;	COMDAT ?tellg@ivfstream@@QAEHXZ
_TEXT	SEGMENT
?tellg@ivfstream@@QAEHXZ PROC NEAR			; ivfstream::tellg, COMDAT
; _this$ = ecx

; 91   : 	if(m_pFileIO) return m_pFileIO->tellg(); return 0;

  00000	83 79 04 00	 cmp	 DWORD PTR [ecx+4], 0
  00004	74 08		 je	 SHORT $L100431
  00006	8b 49 04	 mov	 ecx, DWORD PTR [ecx+4]
  00009	8b 01		 mov	 eax, DWORD PTR [ecx]
  0000b	ff 60 1c	 jmp	 DWORD PTR [eax+28]
$L100431:
  0000e	33 c0		 xor	 eax, eax

; 92   : }	

  00010	c3		 ret	 0
?tellg@ivfstream@@QAEHXZ ENDP				; ivfstream::tellg
_TEXT	ENDS
PUBLIC	?length@?$char_traits@D@_STL@@SAIPBD@Z		; _STL::char_traits<char>::length
EXTRN	_strlen:NEAR
; Function compile flags: /Ogsy
; File c:\stlport-4.6.1\stlport\stl\char_traits.h
;	COMDAT ?length@?$char_traits@D@_STL@@SAIPBD@Z
_TEXT	SEGMENT
___s$ = 8						; size = 4
?length@?$char_traits@D@_STL@@SAIPBD@Z PROC NEAR	; _STL::char_traits<char>::length, COMDAT

; 238  :   static size_t _STLP_CALL length(const char* __s) { return strlen(__s); }

  00000	e9 00 00 00 00	 jmp	 _strlen
?length@?$char_traits@D@_STL@@SAIPBD@Z ENDP		; _STL::char_traits<char>::length
_TEXT	ENDS
PUBLIC	?assign@?$char_traits@D@_STL@@SAXAADABD@Z	; _STL::char_traits<char>::assign
; Function compile flags: /Ogsy
;	COMDAT ?assign@?$char_traits@D@_STL@@SAXAADABD@Z
_TEXT	SEGMENT
___c1$ = 8						; size = 4
___c2$ = 12						; size = 4
?assign@?$char_traits@D@_STL@@SAXAADABD@Z PROC NEAR	; _STL::char_traits<char>::assign, COMDAT

; 240  :   static void _STLP_CALL assign(char& __c1, const char& __c2) { __c1 = __c2; }

  00000	8b 44 24 08	 mov	 eax, DWORD PTR ___c2$[esp-4]
  00004	8a 00		 mov	 al, BYTE PTR [eax]
  00006	8b 4c 24 04	 mov	 ecx, DWORD PTR ___c1$[esp-4]
  0000a	88 01		 mov	 BYTE PTR [ecx], al
  0000c	c3		 ret	 0
?assign@?$char_traits@D@_STL@@SAXAADABD@Z ENDP		; _STL::char_traits<char>::assign
_TEXT	ENDS
PUBLIC	?IsNotInit@CSprite@@QBE_NXZ			; CSprite::IsNotInit
; Function compile flags: /Ogsy
; File c:\darkeden\designed_common\project\client\spritelib\csprite.h
;	COMDAT ?IsNotInit@CSprite@@QBE_NXZ
_TEXT	SEGMENT
?IsNotInit@CSprite@@QBE_NXZ PROC NEAR			; CSprite::IsNotInit, COMDAT
; _this$ = ecx

; 48   : 		bool		IsNotInit() const	{ return !m_bInit; }

  00000	33 c0		 xor	 eax, eax
  00002	38 41 0c	 cmp	 BYTE PTR [ecx+12], al
  00005	0f 94 c0	 sete	 al
  00008	c3		 ret	 0
?IsNotInit@CSprite@@QBE_NXZ ENDP			; CSprite::IsNotInit
_TEXT	ENDS
PUBLIC	?IsInit@CSprite@@QBE_NXZ			; CSprite::IsInit
; Function compile flags: /Ogsy
;	COMDAT ?IsInit@CSprite@@QBE_NXZ
_TEXT	SEGMENT
?IsInit@CSprite@@QBE_NXZ PROC NEAR			; CSprite::IsInit, COMDAT
; _this$ = ecx

; 49   : 		bool		IsInit() const		{ return m_bInit; }

  00000	8a 41 0c	 mov	 al, BYTE PTR [ecx+12]
  00003	c3		 ret	 0
?IsInit@CSprite@@QBE_NXZ ENDP				; CSprite::IsInit
_TEXT	ENDS
PUBLIC	??0MLoadingSPKWorkNode@@QAE@XZ			; MLoadingSPKWorkNode::MLoadingSPKWorkNode
PUBLIC	??_7MLoadingSPKWorkNode@@6B@			; MLoadingSPKWorkNode::`vftable'
PUBLIC	??_GMLoadingSPKWorkNode@@UAEPAXI@Z		; MLoadingSPKWorkNode::`scalar deleting destructor'
PUBLIC	??_R1A@?0A@A@MLoadingSPKWorkNode@@8		; MLoadingSPKWorkNode::`RTTI Base Class Descriptor at (0,-1,0,0)'
PUBLIC	??_R0?AVMLoadingSPKWorkNode@@@8			; MLoadingSPKWorkNode `RTTI Type Descriptor'
PUBLIC	??_R1A@?0A@A@MWorkNode@@8			; MWorkNode::`RTTI Base Class Descriptor at (0,-1,0,0)'
PUBLIC	??_R0?AVMWorkNode@@@8				; MWorkNode `RTTI Type Descriptor'
PUBLIC	??_R4MLoadingSPKWorkNode@@6B@			; MLoadingSPKWorkNode::`RTTI Complete Object Locator'
PUBLIC	??_R3MLoadingSPKWorkNode@@8			; MLoadingSPKWorkNode::`RTTI Class Hierarchy Descriptor'
PUBLIC	??_R2MLoadingSPKWorkNode@@8			; MLoadingSPKWorkNode::`RTTI Base Class Array'
EXTRN	??_EMLoadingSPKWorkNode@@UAEPAXI@Z:NEAR		; MLoadingSPKWorkNode::`vector deleting destructor'
EXTRN	??_7type_info@@6B@:QWORD			; type_info::`vftable'
EXTRN	??0MWorkNode@@QAE@XZ:NEAR			; MWorkNode::MWorkNode
EXTRN	__purecall:NEAR
;	COMDAT ??_7MLoadingSPKWorkNode@@6B@
; File c:\darkeden\designed_common\project\client\mloadingspkworknode.h
CONST	SEGMENT
??_7MLoadingSPKWorkNode@@6B@ DD FLAT:??_R4MLoadingSPKWorkNode@@6B@ ; MLoadingSPKWorkNode::`vftable'
	DD	FLAT:??_EMLoadingSPKWorkNode@@UAEPAXI@Z
	DD	FLAT:__purecall
CONST	ENDS
;	COMDAT ??_R4MLoadingSPKWorkNode@@6B@
rdata$r	SEGMENT
??_R4MLoadingSPKWorkNode@@6B@ DD 00H			; MLoadingSPKWorkNode::`RTTI Complete Object Locator'
	DD	00H
	DD	00H
	DD	FLAT:??_R0?AVMLoadingSPKWorkNode@@@8
	DD	FLAT:??_R3MLoadingSPKWorkNode@@8
rdata$r	ENDS
;	COMDAT ??_R0?AVMLoadingSPKWorkNode@@@8
_DATA	SEGMENT
??_R0?AVMLoadingSPKWorkNode@@@8 DD FLAT:??_7type_info@@6B@ ; MLoadingSPKWorkNode `RTTI Type Descriptor'
	DD	00H
	DB	'.?AVMLoadingSPKWorkNode@@', 00H
_DATA	ENDS
;	COMDAT ??_R3MLoadingSPKWorkNode@@8
rdata$r	SEGMENT
??_R3MLoadingSPKWorkNode@@8 DD 00H			; MLoadingSPKWorkNode::`RTTI Class Hierarchy Descriptor'
	DD	00H
	DD	02H
	DD	FLAT:??_R2MLoadingSPKWorkNode@@8
rdata$r	ENDS
;	COMDAT ??_R2MLoadingSPKWorkNode@@8
rdata$r	SEGMENT
??_R2MLoadingSPKWorkNode@@8 DD FLAT:??_R1A@?0A@A@MLoadingSPKWorkNode@@8 ; MLoadingSPKWorkNode::`RTTI Base Class Array'
	DD	FLAT:??_R1A@?0A@A@MWorkNode@@8
rdata$r	ENDS
;	COMDAT ??_R1A@?0A@A@MLoadingSPKWorkNode@@8
rdata$r	SEGMENT
??_R1A@?0A@A@MLoadingSPKWorkNode@@8 DD FLAT:??_R0?AVMLoadingSPKWorkNode@@@8 ; MLoadingSPKWorkNode::`RTTI Base Class Descriptor at (0,-1,0,0)'
	DD	01H
	DD	00H
	DD	0ffffffffH
	DD	00H
	DD	00H
rdata$r	ENDS
;	COMDAT ??_R1A@?0A@A@MWorkNode@@8
rdata$r	SEGMENT
??_R1A@?0A@A@MWorkNode@@8 DD FLAT:??_R0?AVMWorkNode@@@8	; MWorkNode::`RTTI Base Class Descriptor at (0,-1,0,0)'
	DD	00H
	DD	00H
	DD	0ffffffffH
	DD	00H
	DD	00H
rdata$r	ENDS
;	COMDAT ??_R0?AVMWorkNode@@@8
_DATA	SEGMENT
??_R0?AVMWorkNode@@@8 DD FLAT:??_7type_info@@6B@	; MWorkNode `RTTI Type Descriptor'
	DD	00H
	DB	'.?AVMWorkNode@@', 00H
; Function compile flags: /Ogsy
_DATA	ENDS
;	COMDAT ??0MLoadingSPKWorkNode@@QAE@XZ
_TEXT	SEGMENT
??0MLoadingSPKWorkNode@@QAE@XZ PROC NEAR		; MLoadingSPKWorkNode::MLoadingSPKWorkNode, COMDAT
; _this$ = ecx

; 74   : 		MLoadingSPKWorkNode()	{ m_pSPK = NULL; m_bExecute = TRUE; }

  00000	56		 push	 esi
  00001	8b f1		 mov	 esi, ecx
  00003	e8 00 00 00 00	 call	 ??0MWorkNode@@QAE@XZ	; MWorkNode::MWorkNode
  00008	83 66 10 00	 and	 DWORD PTR [esi+16], 0
  0000c	c7 06 00 00 00
	00		 mov	 DWORD PTR [esi], OFFSET FLAT:??_7MLoadingSPKWorkNode@@6B@
  00012	c7 46 08 01 00
	00 00		 mov	 DWORD PTR [esi+8], 1
  00019	8b c6		 mov	 eax, esi
  0001b	5e		 pop	 esi
  0001c	c3		 ret	 0
??0MLoadingSPKWorkNode@@QAE@XZ ENDP			; MLoadingSPKWorkNode::MLoadingSPKWorkNode
_TEXT	ENDS
PUBLIC	??1MLoadingSPKWorkNode@@UAE@XZ			; MLoadingSPKWorkNode::~MLoadingSPKWorkNode
EXTRN	??1MWorkNode@@UAE@XZ:NEAR			; MWorkNode::~MWorkNode
; Function compile flags: /Ogsy
;	COMDAT ??1MLoadingSPKWorkNode@@UAE@XZ
_TEXT	SEGMENT
??1MLoadingSPKWorkNode@@UAE@XZ PROC NEAR		; MLoadingSPKWorkNode::~MLoadingSPKWorkNode, COMDAT
; _this$ = ecx

; 75   : 		~MLoadingSPKWorkNode() {}

  00000	c7 01 00 00 00
	00		 mov	 DWORD PTR [ecx], OFFSET FLAT:??_7MLoadingSPKWorkNode@@6B@
  00006	e9 00 00 00 00	 jmp	 ??1MWorkNode@@UAE@XZ	; MWorkNode::~MWorkNode
??1MLoadingSPKWorkNode@@UAE@XZ ENDP			; MLoadingSPKWorkNode::~MLoadingSPKWorkNode
_TEXT	ENDS
PUBLIC	?SetSPK@MLoadingSPKWorkNode@@QAEXPAV?$CTypePack2@VCSprite@@VCSprite555@@VCSprite565@@@@PBD@Z ; MLoadingSPKWorkNode::SetSPK
EXTRN	_strcpy:NEAR
; Function compile flags: /Ogsy
;	COMDAT ?SetSPK@MLoadingSPKWorkNode@@QAEXPAV?$CTypePack2@VCSprite@@VCSprite555@@VCSprite565@@@@PBD@Z
_TEXT	SEGMENT
_pSPK$ = 8						; size = 4
_filename$ = 12						; size = 4
?SetSPK@MLoadingSPKWorkNode@@QAEXPAV?$CTypePack2@VCSprite@@VCSprite555@@VCSprite565@@@@PBD@Z PROC NEAR ; MLoadingSPKWorkNode::SetSPK, COMDAT
; _this$ = ecx

; 82   : 			m_pSPK = pSPK;

  00000	8b 44 24 04	 mov	 eax, DWORD PTR _pSPK$[esp-4]

; 83   : 			strcpy(m_SPKFilename, filename);

  00004	ff 74 24 08	 push	 DWORD PTR _filename$[esp-4]
  00008	89 41 10	 mov	 DWORD PTR [ecx+16], eax
  0000b	83 c1 14	 add	 ecx, 20			; 00000014H
  0000e	51		 push	 ecx
  0000f	e8 00 00 00 00	 call	 _strcpy
  00014	59		 pop	 ecx
  00015	59		 pop	 ecx

; 84   : 		}

  00016	c2 08 00	 ret	 8
?SetSPK@MLoadingSPKWorkNode@@QAEXPAV?$CTypePack2@VCSprite@@VCSprite555@@VCSprite565@@@@PBD@Z ENDP ; MLoadingSPKWorkNode::SetSPK
; Function compile flags: /Ogsy
_TEXT	ENDS
;	COMDAT ??_GMLoadingSPKWorkNode@@UAEPAXI@Z
_TEXT	SEGMENT
___flags$ = 8						; size = 4
??_GMLoadingSPKWorkNode@@UAEPAXI@Z PROC NEAR		; MLoadingSPKWorkNode::`scalar deleting destructor', COMDAT
; _this$ = ecx
  00000	56		 push	 esi
  00001	8b f1		 mov	 esi, ecx
  00003	e8 00 00 00 00	 call	 ??1MLoadingSPKWorkNode@@UAE@XZ ; MLoadingSPKWorkNode::~MLoadingSPKWorkNode
  00008	f6 44 24 08 01	 test	 BYTE PTR ___flags$[esp], 1
  0000d	74 07		 je	 SHORT $L103464
  0000f	56		 push	 esi
  00010	e8 00 00 00 00	 call	 ??3@YAXPAX@Z		; operator delete
  00015	59		 pop	 ecx
$L103464:
  00016	8b c6		 mov	 eax, esi
  00018	5e		 pop	 esi
  00019	c2 04 00	 ret	 4
??_GMLoadingSPKWorkNode@@UAEPAXI@Z ENDP			; MLoadingSPKWorkNode::`scalar deleting destructor'
_TEXT	ENDS
PUBLIC	??0MLoadingSPKWorkNode2@@QAE@PAV?$TArray@VSPRITE_FILEPOSITION_NODE@@G@@@Z ; MLoadingSPKWorkNode2::MLoadingSPKWorkNode2
PUBLIC	?Execute@MLoadingSPKWorkNode2@@UAEHAAPAVMWorkNode@@@Z ; MLoadingSPKWorkNode2::Execute
PUBLIC	??_7MLoadingSPKWorkNode2@@6B@			; MLoadingSPKWorkNode2::`vftable'
PUBLIC	??_GMLoadingSPKWorkNode2@@UAEPAXI@Z		; MLoadingSPKWorkNode2::`scalar deleting destructor'
PUBLIC	??_R4MLoadingSPKWorkNode2@@6B@			; MLoadingSPKWorkNode2::`RTTI Complete Object Locator'
PUBLIC	??_R0?AVMLoadingSPKWorkNode2@@@8		; MLoadingSPKWorkNode2 `RTTI Type Descriptor'
PUBLIC	??_R3MLoadingSPKWorkNode2@@8			; MLoadingSPKWorkNode2::`RTTI Class Hierarchy Descriptor'
PUBLIC	??_R2MLoadingSPKWorkNode2@@8			; MLoadingSPKWorkNode2::`RTTI Base Class Array'
PUBLIC	??_R1A@?0A@A@MLoadingSPKWorkNode2@@8		; MLoadingSPKWorkNode2::`RTTI Base Class Descriptor at (0,-1,0,0)'
EXTRN	??_EMLoadingSPKWorkNode2@@UAEPAXI@Z:NEAR	; MLoadingSPKWorkNode2::`vector deleting destructor'
;	COMDAT ??_7MLoadingSPKWorkNode2@@6B@
CONST	SEGMENT
??_7MLoadingSPKWorkNode2@@6B@ DD FLAT:??_R4MLoadingSPKWorkNode2@@6B@ ; MLoadingSPKWorkNode2::`vftable'
	DD	FLAT:??_EMLoadingSPKWorkNode2@@UAEPAXI@Z
	DD	FLAT:?Execute@MLoadingSPKWorkNode2@@UAEHAAPAVMWorkNode@@@Z
CONST	ENDS
;	COMDAT ??_R4MLoadingSPKWorkNode2@@6B@
rdata$r	SEGMENT
??_R4MLoadingSPKWorkNode2@@6B@ DD 00H			; MLoadingSPKWorkNode2::`RTTI Complete Object Locator'
	DD	00H
	DD	00H
	DD	FLAT:??_R0?AVMLoadingSPKWorkNode2@@@8
	DD	FLAT:??_R3MLoadingSPKWorkNode2@@8
rdata$r	ENDS
;	COMDAT ??_R0?AVMLoadingSPKWorkNode2@@@8
_DATA	SEGMENT
??_R0?AVMLoadingSPKWorkNode2@@@8 DD FLAT:??_7type_info@@6B@ ; MLoadingSPKWorkNode2 `RTTI Type Descriptor'
	DD	00H
	DB	'.?AVMLoadingSPKWorkNode2@@', 00H
_DATA	ENDS
;	COMDAT ??_R3MLoadingSPKWorkNode2@@8
rdata$r	SEGMENT
??_R3MLoadingSPKWorkNode2@@8 DD 00H			; MLoadingSPKWorkNode2::`RTTI Class Hierarchy Descriptor'
	DD	00H
	DD	03H
	DD	FLAT:??_R2MLoadingSPKWorkNode2@@8
rdata$r	ENDS
;	COMDAT ??_R2MLoadingSPKWorkNode2@@8
rdata$r	SEGMENT
??_R2MLoadingSPKWorkNode2@@8 DD FLAT:??_R1A@?0A@A@MLoadingSPKWorkNode2@@8 ; MLoadingSPKWorkNode2::`RTTI Base Class Array'
	DD	FLAT:??_R1A@?0A@A@MLoadingSPKWorkNode@@8
	DD	FLAT:??_R1A@?0A@A@MWorkNode@@8
rdata$r	ENDS
;	COMDAT ??_R1A@?0A@A@MLoadingSPKWorkNode2@@8
rdata$r	SEGMENT
??_R1A@?0A@A@MLoadingSPKWorkNode2@@8 DD FLAT:??_R0?AVMLoadingSPKWorkNode2@@@8 ; MLoadingSPKWorkNode2::`RTTI Base Class Descriptor at (0,-1,0,0)'
	DD	02H
	DD	00H
	DD	0ffffffffH
	DD	00H
	DD	00H
; Function compile flags: /Ogsy
rdata$r	ENDS
;	COMDAT ??0MLoadingSPKWorkNode2@@QAE@PAV?$TArray@VSPRITE_FILEPOSITION_NODE@@G@@@Z
_TEXT	SEGMENT
_pSFPA$ = 8						; size = 4
??0MLoadingSPKWorkNode2@@QAE@PAV?$TArray@VSPRITE_FILEPOSITION_NODE@@G@@@Z PROC NEAR ; MLoadingSPKWorkNode2::MLoadingSPKWorkNode2, COMDAT
; _this$ = ecx

; 113  : 		MLoadingSPKWorkNode2(CSpriteFilePositionArray* pSFPA) { m_pSFPA = pSFPA; }

  00000	56		 push	 esi
  00001	8b f1		 mov	 esi, ecx
  00003	e8 00 00 00 00	 call	 ??0MLoadingSPKWorkNode@@QAE@XZ ; MLoadingSPKWorkNode::MLoadingSPKWorkNode
  00008	8b 44 24 08	 mov	 eax, DWORD PTR _pSFPA$[esp]
  0000c	89 86 14 01 00
	00		 mov	 DWORD PTR [esi+276], eax
  00012	c7 06 00 00 00
	00		 mov	 DWORD PTR [esi], OFFSET FLAT:??_7MLoadingSPKWorkNode2@@6B@
  00018	8b c6		 mov	 eax, esi
  0001a	5e		 pop	 esi
  0001b	c2 04 00	 ret	 4
??0MLoadingSPKWorkNode2@@QAE@PAV?$TArray@VSPRITE_FILEPOSITION_NODE@@G@@@Z ENDP ; MLoadingSPKWorkNode2::MLoadingSPKWorkNode2
_TEXT	ENDS
PUBLIC	??0MLoadingSPKWorkNode4@@QAE@GGJ@Z		; MLoadingSPKWorkNode4::MLoadingSPKWorkNode4
PUBLIC	?Execute@MLoadingSPKWorkNode4@@UAEHAAPAVMWorkNode@@@Z ; MLoadingSPKWorkNode4::Execute
PUBLIC	??_7MLoadingSPKWorkNode4@@6B@			; MLoadingSPKWorkNode4::`vftable'
PUBLIC	??_GMLoadingSPKWorkNode4@@UAEPAXI@Z		; MLoadingSPKWorkNode4::`scalar deleting destructor'
PUBLIC	??_R4MLoadingSPKWorkNode4@@6B@			; MLoadingSPKWorkNode4::`RTTI Complete Object Locator'
PUBLIC	??_R0?AVMLoadingSPKWorkNode4@@@8		; MLoadingSPKWorkNode4 `RTTI Type Descriptor'
PUBLIC	??_R3MLoadingSPKWorkNode4@@8			; MLoadingSPKWorkNode4::`RTTI Class Hierarchy Descriptor'
PUBLIC	??_R2MLoadingSPKWorkNode4@@8			; MLoadingSPKWorkNode4::`RTTI Base Class Array'
PUBLIC	??_R1A@?0A@A@MLoadingSPKWorkNode4@@8		; MLoadingSPKWorkNode4::`RTTI Base Class Descriptor at (0,-1,0,0)'
EXTRN	??_EMLoadingSPKWorkNode4@@UAEPAXI@Z:NEAR	; MLoadingSPKWorkNode4::`vector deleting destructor'
;	COMDAT ??_7MLoadingSPKWorkNode4@@6B@
CONST	SEGMENT
??_7MLoadingSPKWorkNode4@@6B@ DD FLAT:??_R4MLoadingSPKWorkNode4@@6B@ ; MLoadingSPKWorkNode4::`vftable'
	DD	FLAT:??_EMLoadingSPKWorkNode4@@UAEPAXI@Z
	DD	FLAT:?Execute@MLoadingSPKWorkNode4@@UAEHAAPAVMWorkNode@@@Z
CONST	ENDS
;	COMDAT ??_R4MLoadingSPKWorkNode4@@6B@
rdata$r	SEGMENT
??_R4MLoadingSPKWorkNode4@@6B@ DD 00H			; MLoadingSPKWorkNode4::`RTTI Complete Object Locator'
	DD	00H
	DD	00H
	DD	FLAT:??_R0?AVMLoadingSPKWorkNode4@@@8
	DD	FLAT:??_R3MLoadingSPKWorkNode4@@8
rdata$r	ENDS
;	COMDAT ??_R0?AVMLoadingSPKWorkNode4@@@8
_DATA	SEGMENT
??_R0?AVMLoadingSPKWorkNode4@@@8 DD FLAT:??_7type_info@@6B@ ; MLoadingSPKWorkNode4 `RTTI Type Descriptor'
	DD	00H
	DB	'.?AVMLoadingSPKWorkNode4@@', 00H
_DATA	ENDS
;	COMDAT ??_R3MLoadingSPKWorkNode4@@8
rdata$r	SEGMENT
??_R3MLoadingSPKWorkNode4@@8 DD 00H			; MLoadingSPKWorkNode4::`RTTI Class Hierarchy Descriptor'
	DD	00H
	DD	03H
	DD	FLAT:??_R2MLoadingSPKWorkNode4@@8
rdata$r	ENDS
;	COMDAT ??_R2MLoadingSPKWorkNode4@@8
rdata$r	SEGMENT
??_R2MLoadingSPKWorkNode4@@8 DD FLAT:??_R1A@?0A@A@MLoadingSPKWorkNode4@@8 ; MLoadingSPKWorkNode4::`RTTI Base Class Array'
	DD	FLAT:??_R1A@?0A@A@MLoadingSPKWorkNode@@8
	DD	FLAT:??_R1A@?0A@A@MWorkNode@@8
rdata$r	ENDS
;	COMDAT ??_R1A@?0A@A@MLoadingSPKWorkNode4@@8
rdata$r	SEGMENT
??_R1A@?0A@A@MLoadingSPKWorkNode4@@8 DD FLAT:??_R0?AVMLoadingSPKWorkNode4@@@8 ; MLoadingSPKWorkNode4::`RTTI Base Class Descriptor at (0,-1,0,0)'
	DD	02H
	DD	00H
	DD	0ffffffffH
	DD	00H
	DD	00H
; Function compile flags: /Ogsy
rdata$r	ENDS
;	COMDAT ??0MLoadingSPKWorkNode4@@QAE@GGJ@Z
_TEXT	SEGMENT
_fID$ = 8						; size = 2
_lID$ = 12						; size = 2
_fp$ = 16						; size = 4
??0MLoadingSPKWorkNode4@@QAE@GGJ@Z PROC NEAR		; MLoadingSPKWorkNode4::MLoadingSPKWorkNode4, COMDAT
; _this$ = ecx

; 142  : 		MLoadingSPKWorkNode4(TYPE_SPRITEID fID, TYPE_SPRITEID lID, long fp) { m_FirstSpriteID = fID; m_LastSpriteID = lID; m_FilePosition = fp; }

  00000	56		 push	 esi
  00001	8b f1		 mov	 esi, ecx
  00003	e8 00 00 00 00	 call	 ??0MLoadingSPKWorkNode@@QAE@XZ ; MLoadingSPKWorkNode::MLoadingSPKWorkNode
  00008	66 8b 44 24 08	 mov	 ax, WORD PTR _fID$[esp]
  0000d	66 89 86 14 01
	00 00		 mov	 WORD PTR [esi+276], ax
  00014	66 8b 44 24 0c	 mov	 ax, WORD PTR _lID$[esp]
  00019	66 89 86 16 01
	00 00		 mov	 WORD PTR [esi+278], ax
  00020	8b 44 24 10	 mov	 eax, DWORD PTR _fp$[esp]
  00024	89 86 18 01 00
	00		 mov	 DWORD PTR [esi+280], eax
  0002a	c7 06 00 00 00
	00		 mov	 DWORD PTR [esi], OFFSET FLAT:??_7MLoadingSPKWorkNode4@@6B@
  00030	8b c6		 mov	 eax, esi
  00032	5e		 pop	 esi
  00033	c2 0c 00	 ret	 12			; 0000000cH
??0MLoadingSPKWorkNode4@@QAE@GGJ@Z ENDP			; MLoadingSPKWorkNode4::MLoadingSPKWorkNode4
_TEXT	ENDS
PUBLIC	??1MLoadingSPKWorkNode4@@UAE@XZ			; MLoadingSPKWorkNode4::~MLoadingSPKWorkNode4
; Function compile flags: /Ogsy
;	COMDAT ??_GMLoadingSPKWorkNode4@@UAEPAXI@Z
_TEXT	SEGMENT
___flags$ = 8						; size = 4
??_GMLoadingSPKWorkNode4@@UAEPAXI@Z PROC NEAR		; MLoadingSPKWorkNode4::`scalar deleting destructor', COMDAT
; _this$ = ecx
  00000	56		 push	 esi
  00001	8b f1		 mov	 esi, ecx
  00003	e8 00 00 00 00	 call	 ??1MLoadingSPKWorkNode4@@UAE@XZ ; MLoadingSPKWorkNode4::~MLoadingSPKWorkNode4
  00008	f6 44 24 08 01	 test	 BYTE PTR ___flags$[esp], 1
  0000d	74 07		 je	 SHORT $L103611
  0000f	56		 push	 esi
  00010	e8 00 00 00 00	 call	 ??3@YAXPAX@Z		; operator delete
  00015	59		 pop	 ecx
$L103611:
  00016	8b c6		 mov	 eax, esi
  00018	5e		 pop	 esi
  00019	c2 04 00	 ret	 4
??_GMLoadingSPKWorkNode4@@UAEPAXI@Z ENDP		; MLoadingSPKWorkNode4::`scalar deleting destructor'
; Function compile flags: /Ogsy
_TEXT	ENDS
;	COMDAT ??1MLoadingSPKWorkNode4@@UAE@XZ
_TEXT	SEGMENT
??1MLoadingSPKWorkNode4@@UAE@XZ PROC NEAR		; MLoadingSPKWorkNode4::~MLoadingSPKWorkNode4, COMDAT
; _this$ = ecx

; 143  : 		~MLoadingSPKWorkNode4() {}

  00000	c7 01 00 00 00
	00		 mov	 DWORD PTR [ecx], OFFSET FLAT:??_7MLoadingSPKWorkNode@@6B@
  00006	e9 00 00 00 00	 jmp	 ??1MWorkNode@@UAE@XZ	; MWorkNode::~MWorkNode
??1MLoadingSPKWorkNode4@@UAE@XZ ENDP			; MLoadingSPKWorkNode4::~MLoadingSPKWorkNode4
_TEXT	ENDS
PUBLIC	?GetSize@?$TArray@VSPRITE_FILEPOSITION_NODE@@G@@QBEGXZ ; TArray<SPRITE_FILEPOSITION_NODE,unsigned short>::GetSize
; Function compile flags: /Ogsy
; File c:\darkeden\designed_common\project\client\spritelib\tarray.h
;	COMDAT ?GetSize@?$TArray@VSPRITE_FILEPOSITION_NODE@@G@@QBEGXZ
_TEXT	SEGMENT
?GetSize@?$TArray@VSPRITE_FILEPOSITION_NODE@@G@@QBEGXZ PROC NEAR ; TArray<SPRITE_FILEPOSITION_NODE,unsigned short>::GetSize, COMDAT
; _this$ = ecx

; 41   : 		SizeType	GetSize() const				{ return m_Size; }

  00000	66 8b 01	 mov	 ax, WORD PTR [ecx]
  00003	c3		 ret	 0
?GetSize@?$TArray@VSPRITE_FILEPOSITION_NODE@@G@@QBEGXZ ENDP ; TArray<SPRITE_FILEPOSITION_NODE,unsigned short>::GetSize
_TEXT	ENDS
PUBLIC	??A?$TArray@VSPRITE_FILEPOSITION_NODE@@G@@QAEAAVSPRITE_FILEPOSITION_NODE@@G@Z ; TArray<SPRITE_FILEPOSITION_NODE,unsigned short>::operator[]
; Function compile flags: /Ogsy
;	COMDAT ??A?$TArray@VSPRITE_FILEPOSITION_NODE@@G@@QAEAAVSPRITE_FILEPOSITION_NODE@@G@Z
_TEXT	SEGMENT
_n$ = 8							; size = 2
??A?$TArray@VSPRITE_FILEPOSITION_NODE@@G@@QAEAAVSPRITE_FILEPOSITION_NODE@@G@Z PROC NEAR ; TArray<SPRITE_FILEPOSITION_NODE,unsigned short>::operator[], COMDAT
; _this$ = ecx

; 52   : 		DataType&	operator [] (SizeType n)		{ return m_pData[n]; }

  00000	0f b7 44 24 04	 movzx	 eax, WORD PTR _n$[esp-4]
  00005	8b 49 04	 mov	 ecx, DWORD PTR [ecx+4]
  00008	8d 04 c1	 lea	 eax, DWORD PTR [ecx+eax*8]
  0000b	c2 04 00	 ret	 4
??A?$TArray@VSPRITE_FILEPOSITION_NODE@@G@@QAEAAVSPRITE_FILEPOSITION_NODE@@G@Z ENDP ; TArray<SPRITE_FILEPOSITION_NODE,unsigned short>::operator[]
_TEXT	ENDS
PUBLIC	?_M_terminate_string_aux@?$basic_string@DV?$char_traits@D@_STL@@V?$allocator@D@2@@_STL@@AAEXABU__true_type@2@@Z ; _STL::basic_string<char,_STL::char_traits<char>,_STL::allocator<char> >::_M_terminate_string_aux
; Function compile flags: /Ogsy
; File c:\stlport-4.6.1\stlport\stl\_string.h
;	COMDAT ?_M_terminate_string_aux@?$basic_string@DV?$char_traits@D@_STL@@V?$allocator@D@2@@_STL@@AAEXABU__true_type@2@@Z
_TEXT	SEGMENT
___formal$ = 8						; size = 4
?_M_terminate_string_aux@?$basic_string@DV?$char_traits@D@_STL@@V?$allocator@D@2@@_STL@@AAEXABU__true_type@2@@Z PROC NEAR ; _STL::basic_string<char,_STL::char_traits<char>,_STL::allocator<char> >::_M_terminate_string_aux, COMDAT
; _this$ = ecx

; 351  :     *(this->_M_finish)=0;

  00000	8b 41 04	 mov	 eax, DWORD PTR [ecx+4]
  00003	c6 00 00	 mov	 BYTE PTR [eax], 0

; 352  :   }

  00006	c2 04 00	 ret	 4
?_M_terminate_string_aux@?$basic_string@DV?$char_traits@D@_STL@@V?$allocator@D@2@@_STL@@AAEXABU__true_type@2@@Z ENDP ; _STL::basic_string<char,_STL::char_traits<char>,_STL::allocator<char> >::_M_terminate_string_aux
_TEXT	ENDS
PUBLIC	??0?$allocator@D@_STL@@QAE@ABV01@@Z		; _STL::allocator<char>::allocator<char>
; Function compile flags: /Ogsy
; File c:\stlport-4.6.1\stlport\stl\_alloc.h
;	COMDAT ??0?$allocator@D@_STL@@QAE@ABV01@@Z
_TEXT	SEGMENT
___formal$ = 8						; size = 4
??0?$allocator@D@_STL@@QAE@ABV01@@Z PROC NEAR		; _STL::allocator<char>::allocator<char>, COMDAT
; _this$ = ecx

; 349  :   allocator(const allocator<_Tp>&) _STLP_NOTHROW {}

  00000	8b c1		 mov	 eax, ecx
  00002	c2 04 00	 ret	 4
??0?$allocator@D@_STL@@QAE@ABV01@@Z ENDP		; _STL::allocator<char>::allocator<char>
_TEXT	ENDS
PUBLIC	?copy@?$__char_traits_base@DH@_STL@@SAPADPADPBDI@Z ; _STL::__char_traits_base<char,int>::copy
EXTRN	_memcpy:NEAR
; Function compile flags: /Ogsy
; File c:\stlport-4.6.1\stlport\stl\char_traits.h
;	COMDAT ?copy@?$__char_traits_base@DH@_STL@@SAPADPADPBDI@Z
_TEXT	SEGMENT
___s1$ = 8						; size = 4
___s2$ = 12						; size = 4
___n$ = 16						; size = 4
?copy@?$__char_traits_base@DH@_STL@@SAPADPADPBDI@Z PROC NEAR ; _STL::__char_traits_base<char,int>::copy, COMDAT

; 169  :   static _CharT* _STLP_CALL copy(_CharT* __s1, const _CharT* __s2, size_t __n) {

  00000	55		 push	 ebp
  00001	8b ec		 mov	 ebp, esp

; 170  :     return (__n == 0 ? __s1 :
; 171  : 	    (_CharT*)memcpy(__s1, __s2, __n * sizeof(_CharT)));

  00003	83 7d 10 00	 cmp	 DWORD PTR ___n$[ebp], 0
  00007	75 05		 jne	 SHORT $L106800
  00009	8b 45 08	 mov	 eax, DWORD PTR ___s1$[ebp]

; 172  :     } 

  0000c	5d		 pop	 ebp
  0000d	c3		 ret	 0
$L106800:
  0000e	5d		 pop	 ebp

; 170  :     return (__n == 0 ? __s1 :
; 171  : 	    (_CharT*)memcpy(__s1, __s2, __n * sizeof(_CharT)));

  0000f	e9 00 00 00 00	 jmp	 _memcpy
?copy@?$__char_traits_base@DH@_STL@@SAPADPADPBDI@Z ENDP	; _STL::__char_traits_base<char,int>::copy
_TEXT	ENDS
PUBLIC	?begin@?$basic_string@DV?$char_traits@D@_STL@@V?$allocator@D@2@@_STL@@QAEPADXZ ; _STL::basic_string<char,_STL::char_traits<char>,_STL::allocator<char> >::begin
; Function compile flags: /Ogsy
; File c:\stlport-4.6.1\stlport\stl\_string.h
;	COMDAT ?begin@?$basic_string@DV?$char_traits@D@_STL@@V?$allocator@D@2@@_STL@@QAEPADXZ
_TEXT	SEGMENT
?begin@?$basic_string@DV?$char_traits@D@_STL@@V?$allocator@D@2@@_STL@@QAEPADXZ PROC NEAR ; _STL::basic_string<char,_STL::char_traits<char>,_STL::allocator<char> >::begin, COMDAT
; _this$ = ecx

; 416  :   iterator begin()             { return this->_M_start; }

  00000	8b 01		 mov	 eax, DWORD PTR [ecx]
  00002	c3		 ret	 0
?begin@?$basic_string@DV?$char_traits@D@_STL@@V?$allocator@D@2@@_STL@@QAEPADXZ ENDP ; _STL::basic_string<char,_STL::char_traits<char>,_STL::allocator<char> >::begin
_TEXT	ENDS
PUBLIC	?end@?$basic_string@DV?$char_traits@D@_STL@@V?$allocator@D@2@@_STL@@QAEPADXZ ; _STL::basic_string<char,_STL::char_traits<char>,_STL::allocator<char> >::end
; Function compile flags: /Ogsy
;	COMDAT ?end@?$basic_string@DV?$char_traits@D@_STL@@V?$allocator@D@2@@_STL@@QAEPADXZ
_TEXT	SEGMENT
?end@?$basic_string@DV?$char_traits@D@_STL@@V?$allocator@D@2@@_STL@@QAEPADXZ PROC NEAR ; _STL::basic_string<char,_STL::char_traits<char>,_STL::allocator<char> >::end, COMDAT
; _this$ = ecx

; 417  :   iterator end()               { return this->_M_finish; }

  00000	8b 41 04	 mov	 eax, DWORD PTR [ecx+4]
  00003	c3		 ret	 0
?end@?$basic_string@DV?$char_traits@D@_STL@@V?$allocator@D@2@@_STL@@QAEPADXZ ENDP ; _STL::basic_string<char,_STL::char_traits<char>,_STL::allocator<char> >::end
_TEXT	ENDS
PUBLIC	?size@?$basic_string@DV?$char_traits@D@_STL@@V?$allocator@D@2@@_STL@@QBEIXZ ; _STL::basic_string<char,_STL::char_traits<char>,_STL::allocator<char> >::size
; Function compile flags: /Ogsy
;	COMDAT ?size@?$basic_string@DV?$char_traits@D@_STL@@V?$allocator@D@2@@_STL@@QBEIXZ
_TEXT	SEGMENT
?size@?$basic_string@DV?$char_traits@D@_STL@@V?$allocator@D@2@@_STL@@QBEIXZ PROC NEAR ; _STL::basic_string<char,_STL::char_traits<char>,_STL::allocator<char> >::size, COMDAT
; _this$ = ecx

; 431  :   size_type size() const { return this->_M_finish - this->_M_start; }

  00000	8b 41 04	 mov	 eax, DWORD PTR [ecx+4]
  00003	2b 01		 sub	 eax, DWORD PTR [ecx]
  00005	c3		 ret	 0
?size@?$basic_string@DV?$char_traits@D@_STL@@V?$allocator@D@2@@_STL@@QBEIXZ ENDP ; _STL::basic_string<char,_STL::char_traits<char>,_STL::allocator<char> >::size
_TEXT	ENDS
PUBLIC	?move@?$__char_traits_base@DH@_STL@@SAPADPADPBDI@Z ; _STL::__char_traits_base<char,int>::move
; Function compile flags: /Ogsy
; File c:\stlport-4.6.1\stlport\stl\char_traits.h
;	COMDAT ?move@?$__char_traits_base@DH@_STL@@SAPADPADPBDI@Z
_TEXT	SEGMENT
___s1$ = 8						; size = 4
___s2$ = 12						; size = 4
__Sz$ = 16						; size = 4
?move@?$__char_traits_base@DH@_STL@@SAPADPADPBDI@Z PROC NEAR ; _STL::__char_traits_base<char,int>::move, COMDAT

; 165  :   static _CharT* _STLP_CALL move(_CharT* __s1, const _CharT* __s2, size_t _Sz) {    

  00000	55		 push	 ebp
  00001	8b ec		 mov	 ebp, esp

; 166  :     return (_Sz == 0 ? __s1 : (_CharT*)memmove(__s1, __s2, _Sz * sizeof(_CharT)));

  00003	83 7d 10 00	 cmp	 DWORD PTR __Sz$[ebp], 0
  00007	75 05		 jne	 SHORT $L106814
  00009	8b 45 08	 mov	 eax, DWORD PTR ___s1$[ebp]

; 167  :   }

  0000c	5d		 pop	 ebp
  0000d	c3		 ret	 0
$L106814:
  0000e	5d		 pop	 ebp

; 166  :     return (_Sz == 0 ? __s1 : (_CharT*)memmove(__s1, __s2, _Sz * sizeof(_CharT)));

  0000f	e9 00 00 00 00	 jmp	 _memmove
?move@?$__char_traits_base@DH@_STL@@SAPADPADPBDI@Z ENDP	; _STL::__char_traits_base<char,int>::move
_TEXT	ENDS
PUBLIC	??1CSprite565@@QAE@XZ				; CSprite565::~CSprite565
EXTRN	??1CSprite@@QAE@XZ:NEAR				; CSprite::~CSprite
; Function compile flags: /Ogsy
;	COMDAT ??1CSprite565@@QAE@XZ
_TEXT	SEGMENT
??1CSprite565@@QAE@XZ PROC NEAR				; CSprite565::~CSprite565, COMDAT
; _this$ = ecx
  00000	e9 00 00 00 00	 jmp	 ??1CSprite@@QAE@XZ	; CSprite::~CSprite
??1CSprite565@@QAE@XZ ENDP				; CSprite565::~CSprite565
_TEXT	ENDS
PUBLIC	??1CSprite555@@QAE@XZ				; CSprite555::~CSprite555
; Function compile flags: /Ogsy
;	COMDAT ??1CSprite555@@QAE@XZ
_TEXT	SEGMENT
??1CSprite555@@QAE@XZ PROC NEAR				; CSprite555::~CSprite555, COMDAT
; _this$ = ecx
  00000	e9 00 00 00 00	 jmp	 ??1CSprite@@QAE@XZ	; CSprite::~CSprite
??1CSprite555@@QAE@XZ ENDP				; CSprite555::~CSprite555
_TEXT	ENDS
PUBLIC	?_M_construct_null_aux@?$basic_string@DV?$char_traits@D@_STL@@V?$allocator@D@2@@_STL@@AAEXPADABU__true_type@2@@Z ; _STL::basic_string<char,_STL::char_traits<char>,_STL::allocator<char> >::_M_construct_null_aux
; Function compile flags: /Ogsy
; File c:\stlport-4.6.1\stlport\stl\_string.h
;	COMDAT ?_M_construct_null_aux@?$basic_string@DV?$char_traits@D@_STL@@V?$allocator@D@2@@_STL@@AAEXPADABU__true_type@2@@Z
_TEXT	SEGMENT
___p$ = 8						; size = 4
___formal$ = 12						; size = 4
?_M_construct_null_aux@?$basic_string@DV?$char_traits@D@_STL@@V?$allocator@D@2@@_STL@@AAEXPADABU__true_type@2@@Z PROC NEAR ; _STL::basic_string<char,_STL::char_traits<char>,_STL::allocator<char> >::_M_construct_null_aux, COMDAT
; _this$ = ecx

; 332  :     *__p = 0;

  00000	8b 44 24 04	 mov	 eax, DWORD PTR ___p$[esp-4]
  00004	c6 00 00	 mov	 BYTE PTR [eax], 0

; 333  :   }

  00007	c2 08 00	 ret	 8
?_M_construct_null_aux@?$basic_string@DV?$char_traits@D@_STL@@V?$allocator@D@2@@_STL@@AAEXPADABU__true_type@2@@Z ENDP ; _STL::basic_string<char,_STL::char_traits<char>,_STL::allocator<char> >::_M_construct_null_aux
_TEXT	ENDS
PUBLIC	?Release@?$TArray@VSPRITE_FILEPOSITION_NODE@@G@@QAEXXZ ; TArray<SPRITE_FILEPOSITION_NODE,unsigned short>::Release
EXTRN	??_V@YAXPAX@Z:NEAR				; operator delete[]
; Function compile flags: /Ogsy
; File c:\darkeden\designed_common\project\client\spritelib\tarray.h
;	COMDAT ?Release@?$TArray@VSPRITE_FILEPOSITION_NODE@@G@@QAEXXZ
_TEXT	SEGMENT
?Release@?$TArray@VSPRITE_FILEPOSITION_NODE@@G@@QAEXXZ PROC NEAR ; TArray<SPRITE_FILEPOSITION_NODE,unsigned short>::Release, COMDAT
; _this$ = ecx

; 128  : {

  00000	56		 push	 esi
  00001	8b f1		 mov	 esi, ecx

; 129  : 	if (m_pData!=NULL)

  00003	8b 46 04	 mov	 eax, DWORD PTR [esi+4]
  00006	85 c0		 test	 eax, eax
  00008	74 0f		 je	 SHORT $L105458

; 130  : 	{
; 131  : 		delete [] m_pData;

  0000a	50		 push	 eax
  0000b	e8 00 00 00 00	 call	 ??_V@YAXPAX@Z		; operator delete[]

; 132  : 		m_pData = NULL;

  00010	83 66 04 00	 and	 DWORD PTR [esi+4], 0

; 133  : 		
; 134  : 		m_Size = 0;

  00014	66 83 26 00	 and	 WORD PTR [esi], 0
  00018	59		 pop	 ecx
$L105458:
  00019	5e		 pop	 esi

; 135  : 	}
; 136  : }

  0001a	c3		 ret	 0
?Release@?$TArray@VSPRITE_FILEPOSITION_NODE@@G@@QAEXXZ ENDP ; TArray<SPRITE_FILEPOSITION_NODE,unsigned short>::Release
_TEXT	ENDS
PUBLIC	??$max@I@_STL@@YAABIABI0@Z			; _STL::max<unsigned int>
; Function compile flags: /Ogsy
; File c:\stlport-4.6.1\stlport\stl\_algobase.h
;	COMDAT ??$max@I@_STL@@YAABIABI0@Z
_TEXT	SEGMENT
___a$ = 8						; size = 4
___b$ = 12						; size = 4
??$max@I@_STL@@YAABIABI0@Z PROC NEAR			; _STL::max<unsigned int>, COMDAT

; 79   : inline const _Tp& (max)(const _Tp& __a, const _Tp& __b) {  return  __a < __b ? __b : __a; }

  00000	8b 44 24 04	 mov	 eax, DWORD PTR ___a$[esp-4]
  00004	8b 10		 mov	 edx, DWORD PTR [eax]
  00006	8b 4c 24 08	 mov	 ecx, DWORD PTR ___b$[esp-4]
  0000a	3b 11		 cmp	 edx, DWORD PTR [ecx]
  0000c	73 02		 jae	 SHORT $L106836
  0000e	8b c1		 mov	 eax, ecx
$L106836:
  00010	c3		 ret	 0
??$max@I@_STL@@YAABIABI0@Z ENDP				; _STL::max<unsigned int>
_TEXT	ENDS
PUBLIC	?capacity@?$basic_string@DV?$char_traits@D@_STL@@V?$allocator@D@2@@_STL@@QBEIXZ ; _STL::basic_string<char,_STL::char_traits<char>,_STL::allocator<char> >::capacity
; Function compile flags: /Ogsy
; File c:\stlport-4.6.1\stlport\stl\_string.h
;	COMDAT ?capacity@?$basic_string@DV?$char_traits@D@_STL@@V?$allocator@D@2@@_STL@@QBEIXZ
_TEXT	SEGMENT
?capacity@?$basic_string@DV?$char_traits@D@_STL@@V?$allocator@D@2@@_STL@@QBEIXZ PROC NEAR ; _STL::basic_string<char,_STL::char_traits<char>,_STL::allocator<char> >::capacity, COMDAT
; _this$ = ecx

; 447  :   size_type capacity() const { return (this->_M_end_of_storage._M_data - this->_M_start) - 1; }

  00000	8b 41 08	 mov	 eax, DWORD PTR [ecx+8]
  00003	2b 01		 sub	 eax, DWORD PTR [ecx]
  00005	48		 dec	 eax
  00006	c3		 ret	 0
?capacity@?$basic_string@DV?$char_traits@D@_STL@@V?$allocator@D@2@@_STL@@QBEIXZ ENDP ; _STL::basic_string<char,_STL::char_traits<char>,_STL::allocator<char> >::capacity
_TEXT	ENDS
PUBLIC	?max_size@?$_String_base@DV?$allocator@D@_STL@@@_STL@@QBEIXZ ; _STL::_String_base<char,_STL::allocator<char> >::max_size
; Function compile flags: /Ogsy
;	COMDAT ?max_size@?$_String_base@DV?$allocator@D@_STL@@@_STL@@QBEIXZ
_TEXT	SEGMENT
?max_size@?$_String_base@DV?$allocator@D@_STL@@@_STL@@QBEIXZ PROC NEAR ; _STL::_String_base<char,_STL::allocator<char> >::max_size, COMDAT
; _this$ = ecx

; 126  :   size_t max_size() const { return (size_t(-1) / sizeof(_Tp)) - 1; }

  00000	6a fe		 push	 -2			; fffffffeH
  00002	58		 pop	 eax
  00003	c3		 ret	 0
?max_size@?$_String_base@DV?$allocator@D@_STL@@@_STL@@QBEIXZ ENDP ; _STL::_String_base<char,_STL::allocator<char> >::max_size
_TEXT	ENDS
PUBLIC	??_C@_0N@GOPDCEEB@basic_string?$AA@		; `string'
PUBLIC	?_M_throw_length_error@?$_String_base@DV?$allocator@D@_STL@@@_STL@@QBEXXZ ; _STL::_String_base<char,_STL::allocator<char> >::_M_throw_length_error
EXTRN	?__stl_throw_length_error@_STL@@YAXPBD@Z:NEAR	; _STL::__stl_throw_length_error
;	COMDAT ??_C@_0N@GOPDCEEB@basic_string?$AA@
; File c:\stlport-4.6.1\stlport\stl\_string.c
CONST	SEGMENT
??_C@_0N@GOPDCEEB@basic_string?$AA@ DB 'basic_string', 00H ; `string'
; Function compile flags: /Ogsy
CONST	ENDS
;	COMDAT ?_M_throw_length_error@?$_String_base@DV?$allocator@D@_STL@@@_STL@@QBEXXZ
_TEXT	SEGMENT
?_M_throw_length_error@?$_String_base@DV?$allocator@D@_STL@@@_STL@@QBEXXZ PROC NEAR ; _STL::_String_base<char,_STL::allocator<char> >::_M_throw_length_error, COMDAT
; _this$ = ecx

; 523  :     __stl_throw_length_error("basic_string");

  00000	68 00 00 00 00	 push	 OFFSET FLAT:??_C@_0N@GOPDCEEB@basic_string?$AA@
  00005	e8 00 00 00 00	 call	 ?__stl_throw_length_error@_STL@@YAXPBD@Z ; _STL::__stl_throw_length_error
  0000a	59		 pop	 ecx

; 524  : }

  0000b	c3		 ret	 0
?_M_throw_length_error@?$_String_base@DV?$allocator@D@_STL@@@_STL@@QBEXXZ ENDP ; _STL::_String_base<char,_STL::allocator<char> >::_M_throw_length_error
_TEXT	ENDS
PUBLIC	??$__distance@PBD@_STL@@YAHABQBD0ABUrandom_access_iterator_tag@0@@Z ; _STL::__distance<char const *>
; Function compile flags: /Ogsy
; File c:\stlport-4.6.1\stlport\stl\_iterator_base.h
;	COMDAT ??$__distance@PBD@_STL@@YAHABQBD0ABUrandom_access_iterator_tag@0@@Z
_TEXT	SEGMENT
___first$ = 8						; size = 4
___last$ = 12						; size = 4
___formal$ = 16						; size = 4
??$__distance@PBD@_STL@@YAHABQBD0ABUrandom_access_iterator_tag@0@@Z PROC NEAR ; _STL::__distance<char const *>, COMDAT

; 363  :   return __last - __first;

  00000	8b 44 24 08	 mov	 eax, DWORD PTR ___last$[esp-4]
  00004	8b 00		 mov	 eax, DWORD PTR [eax]
  00006	8b 4c 24 04	 mov	 ecx, DWORD PTR ___first$[esp-4]
  0000a	2b 01		 sub	 eax, DWORD PTR [ecx]

; 364  : }

  0000c	c3		 ret	 0
??$__distance@PBD@_STL@@YAHABQBD0ABUrandom_access_iterator_tag@0@@Z ENDP ; _STL::__distance<char const *>
_TEXT	ENDS
PUBLIC	?_Ret@?$_BothPtrType@PADPAD@_STL@@SA?AU__true_type@2@XZ ; _STL::_BothPtrType<char *,char *>::_Ret
; Function compile flags: /Ogsy
; File c:\stlport-4.6.1\stlport\stl\type_traits.h
;	COMDAT ?_Ret@?$_BothPtrType@PADPAD@_STL@@SA?AU__true_type@2@XZ
_TEXT	SEGMENT
$T106852 = -1						; size = 1
?_Ret@?$_BothPtrType@PADPAD@_STL@@SA?AU__true_type@2@XZ PROC NEAR ; _STL::_BothPtrType<char *,char *>::_Ret, COMDAT

; 234  :   static __true_type _Ret() { return __true_type();} 

  00000	55		 push	 ebp
  00001	8b ec		 mov	 ebp, esp
  00003	51		 push	 ecx
  00004	57		 push	 edi
  00005	33 c0		 xor	 eax, eax
  00007	8d 7d ff	 lea	 edi, DWORD PTR $T106852[ebp]
  0000a	aa		 stosb
  0000b	8a 45 ff	 mov	 al, BYTE PTR $T106852[ebp]
  0000e	5f		 pop	 edi
  0000f	c9		 leave
  00010	c3		 ret	 0
?_Ret@?$_BothPtrType@PADPAD@_STL@@SA?AU__true_type@2@XZ ENDP ; _STL::_BothPtrType<char *,char *>::_Ret
_TEXT	ENDS
PUBLIC	?_Ret@?$_OKToMemCpy@DD@_STL@@SA?AU__true_type@2@XZ ; _STL::_OKToMemCpy<char,char>::_Ret
; Function compile flags: /Ogsy
;	COMDAT ?_Ret@?$_OKToMemCpy@DD@_STL@@SA?AU__true_type@2@XZ
_TEXT	SEGMENT
$T106855 = -1						; size = 1
?_Ret@?$_OKToMemCpy@DD@_STL@@SA?AU__true_type@2@XZ PROC NEAR ; _STL::_OKToMemCpy<char,char>::_Ret, COMDAT

; 361  :   static _Type _Ret() { return _Type(); }

  00000	55		 push	 ebp
  00001	8b ec		 mov	 ebp, esp
  00003	51		 push	 ecx
  00004	57		 push	 edi
  00005	33 c0		 xor	 eax, eax
  00007	8d 7d ff	 lea	 edi, DWORD PTR $T106855[ebp]
  0000a	aa		 stosb
  0000b	8a 45 ff	 mov	 al, BYTE PTR $T106855[ebp]
  0000e	5f		 pop	 edi
  0000f	c9		 leave
  00010	c3		 ret	 0
?_Ret@?$_OKToMemCpy@DD@_STL@@SA?AU__true_type@2@XZ ENDP	; _STL::_OKToMemCpy<char,char>::_Ret
_TEXT	ENDS
PUBLIC	??$_IsOKToMemCpy@DD@_STL@@YA?AU?$_OKToMemCpy@DD@0@PAD0@Z ; _STL::_IsOKToMemCpy<char,char>
; Function compile flags: /Ogsy
;	COMDAT ??$_IsOKToMemCpy@DD@_STL@@YA?AU?$_OKToMemCpy@DD@0@PAD0@Z
_TEXT	SEGMENT
$T106858 = -1						; size = 1
___formal$ = 8						; size = 4
___formal$ = 12						; size = 4
??$_IsOKToMemCpy@DD@_STL@@YA?AU?$_OKToMemCpy@DD@0@PAD0@Z PROC NEAR ; _STL::_IsOKToMemCpy<char,char>, COMDAT

; 365  : inline _OKToMemCpy<_Tp1, _Tp2> _IsOKToMemCpy(_Tp1*, _Tp2*)  {

  00000	55		 push	 ebp
  00001	8b ec		 mov	 ebp, esp
  00003	51		 push	 ecx
  00004	57		 push	 edi

; 366  :   return _OKToMemCpy<_Tp1, _Tp2>();

  00005	33 c0		 xor	 eax, eax
  00007	8d 7d ff	 lea	 edi, DWORD PTR $T106858[ebp]
  0000a	aa		 stosb
  0000b	8a 45 ff	 mov	 al, BYTE PTR $T106858[ebp]
  0000e	5f		 pop	 edi

; 367  : }

  0000f	c9		 leave
  00010	c3		 ret	 0
??$_IsOKToMemCpy@DD@_STL@@YA?AU?$_OKToMemCpy@DD@0@PAD0@Z ENDP ; _STL::_IsOKToMemCpy<char,char>
_TEXT	ENDS
PUBLIC	??$__copy_ptrs@PADPAD@_STL@@YAPADPAD00ABU__true_type@0@@Z ; _STL::__copy_ptrs<char *,char *>
; Function compile flags: /Ogsy
; File c:\stlport-4.6.1\stlport\stl\_algobase.h
;	COMDAT ??$__copy_ptrs@PADPAD@_STL@@YAPADPAD00ABU__true_type@0@@Z
_TEXT	SEGMENT
___first$ = 8						; size = 4
___last$ = 12						; size = 4
___result$ = 16						; size = 4
___formal$ = 20						; size = 4
??$__copy_ptrs@PADPAD@_STL@@YAPADPAD00ABU__true_type@0@@Z PROC NEAR ; _STL::__copy_ptrs<char *,char *>, COMDAT

; 195  : // we know they all pointers, so this cast is OK 
; 196  :   //  return (_OutputIter)__copy_trivial(&(*__first), &(*__last), &(*__result));
; 197  :   return (_OutputIter)__copy_trivial(__first, __last, __result);

  00000	ff 74 24 0c	 push	 DWORD PTR ___result$[esp-4]
  00004	ff 74 24 0c	 push	 DWORD PTR ___last$[esp]
  00008	ff 74 24 0c	 push	 DWORD PTR ___first$[esp+4]
  0000c	e8 00 00 00 00	 call	 ?__copy_trivial@_STL@@YAPAXPBX0PAX@Z ; _STL::__copy_trivial
  00011	83 c4 0c	 add	 esp, 12			; 0000000cH

; 198  : }

  00014	c3		 ret	 0
??$__copy_ptrs@PADPAD@_STL@@YAPADPAD00ABU__true_type@0@@Z ENDP ; _STL::__copy_ptrs<char *,char *>
_TEXT	ENDS
PUBLIC	??0?$allocator@D@_STL@@QAE@XZ			; _STL::allocator<char>::allocator<char>
; Function compile flags: /Ogsy
; File c:\stlport-4.6.1\stlport\stl\_alloc.h
;	COMDAT ??0?$allocator@D@_STL@@QAE@XZ
_TEXT	SEGMENT
??0?$allocator@D@_STL@@QAE@XZ PROC NEAR			; _STL::allocator<char>::allocator<char>, COMDAT
; _this$ = ecx

; 345  :   allocator() _STLP_NOTHROW {}

  00000	8b c1		 mov	 eax, ecx
  00002	c3		 ret	 0
??0?$allocator@D@_STL@@QAE@XZ ENDP			; _STL::allocator<char>::allocator<char>
_TEXT	ENDS
PUBLIC	??1?$allocator@D@_STL@@QAE@XZ			; _STL::allocator<char>::~allocator<char>
; Function compile flags: /Ogsy
;	COMDAT ??1?$allocator@D@_STL@@QAE@XZ
_TEXT	SEGMENT
??1?$allocator@D@_STL@@QAE@XZ PROC NEAR			; _STL::allocator<char>::~allocator<char>, COMDAT
; _this$ = ecx

; 350  :   ~allocator() _STLP_NOTHROW {}

  00000	c3		 ret	 0
??1?$allocator@D@_STL@@QAE@XZ ENDP			; _STL::allocator<char>::~allocator<char>
_TEXT	ENDS
PUBLIC	??1?$_STLP_alloc_proxy@PADDV?$allocator@D@_STL@@@_STL@@QAE@XZ ; _STL::_STLP_alloc_proxy<char *,char,_STL::allocator<char> >::~_STLP_alloc_proxy<char *,char,_STL::allocator<char> >
; Function compile flags: /Ogsy
;	COMDAT ??1?$_STLP_alloc_proxy@PADDV?$allocator@D@_STL@@@_STL@@QAE@XZ
_TEXT	SEGMENT
??1?$_STLP_alloc_proxy@PADDV?$allocator@D@_STL@@@_STL@@QAE@XZ PROC NEAR ; _STL::_STLP_alloc_proxy<char *,char,_STL::allocator<char> >::~_STLP_alloc_proxy<char *,char,_STL::allocator<char> >, COMDAT
; _this$ = ecx
  00000	c3		 ret	 0
??1?$_STLP_alloc_proxy@PADDV?$allocator@D@_STL@@@_STL@@QAE@XZ ENDP ; _STL::_STLP_alloc_proxy<char *,char,_STL::allocator<char> >::~_STLP_alloc_proxy<char *,char,_STL::allocator<char> >
_TEXT	ENDS
PUBLIC	?allocate@?$__node_alloc@$00$0A@@_STL@@SAPAXI@Z	; _STL::__node_alloc<1,0>::allocate
EXTRN	?_M_allocate@?$__node_alloc@$00$0A@@_STL@@CAPAXI@Z:NEAR ; _STL::__node_alloc<1,0>::_M_allocate
; Function compile flags: /Ogsy
;	COMDAT ?allocate@?$__node_alloc@$00$0A@@_STL@@SAPAXI@Z
_TEXT	SEGMENT
___n$ = 8						; size = 4
?allocate@?$__node_alloc@$00$0A@@_STL@@SAPAXI@Z PROC NEAR ; _STL::__node_alloc<1,0>::allocate, COMDAT

; 251  :   static void * _STLP_CALL allocate(size_t __n) { return (__n > (size_t)_MAX_BYTES) ?  __stl_new(__n) : _M_allocate(__n); }

  00000	8b 44 24 04	 mov	 eax, DWORD PTR ___n$[esp-4]
  00004	3d 80 00 00 00	 cmp	 eax, 128		; 00000080H
  00009	50		 push	 eax
  0000a	76 07		 jbe	 SHORT $L106876
  0000c	e8 00 00 00 00	 call	 ??2@YAPAXI@Z		; operator new
  00011	59		 pop	 ecx
  00012	c3		 ret	 0
$L106876:
  00013	e8 00 00 00 00	 call	 ?_M_allocate@?$__node_alloc@$00$0A@@_STL@@CAPAXI@Z ; _STL::__node_alloc<1,0>::_M_allocate
  00018	59		 pop	 ecx
  00019	c3		 ret	 0
?allocate@?$__node_alloc@$00$0A@@_STL@@SAPAXI@Z ENDP	; _STL::__node_alloc<1,0>::allocate
_TEXT	ENDS
PUBLIC	?deallocate@?$__node_alloc@$00$0A@@_STL@@SAXPAXI@Z ; _STL::__node_alloc<1,0>::deallocate
EXTRN	?_M_deallocate@?$__node_alloc@$00$0A@@_STL@@CAXPAXI@Z:NEAR ; _STL::__node_alloc<1,0>::_M_deallocate
; Function compile flags: /Ogsy
;	COMDAT ?deallocate@?$__node_alloc@$00$0A@@_STL@@SAXPAXI@Z
_TEXT	SEGMENT
___p$ = 8						; size = 4
___n$ = 12						; size = 4
?deallocate@?$__node_alloc@$00$0A@@_STL@@SAXPAXI@Z PROC NEAR ; _STL::__node_alloc<1,0>::deallocate, COMDAT

; 253  :   static void _STLP_CALL deallocate(void *__p, size_t __n) { if (__n > (size_t)_MAX_BYTES) __stl_delete(__p); else _M_deallocate(__p, __n); }

  00000	81 7c 24 08 80
	00 00 00	 cmp	 DWORD PTR ___n$[esp-4], 128 ; 00000080H
  00008	76 0b		 jbe	 SHORT $L98677
  0000a	ff 74 24 04	 push	 DWORD PTR ___p$[esp-4]
  0000e	e8 00 00 00 00	 call	 ??3@YAXPAX@Z		; operator delete
  00013	59		 pop	 ecx
  00014	c3		 ret	 0
$L98677:
  00015	e9 00 00 00 00	 jmp	 ?_M_deallocate@?$__node_alloc@$00$0A@@_STL@@CAXPAXI@Z ; _STL::__node_alloc<1,0>::_M_deallocate
?deallocate@?$__node_alloc@$00$0A@@_STL@@SAXPAXI@Z ENDP	; _STL::__node_alloc<1,0>::deallocate
_TEXT	ENDS
PUBLIC	?_M_terminate_string@?$basic_string@DV?$char_traits@D@_STL@@V?$allocator@D@2@@_STL@@AAEXXZ ; _STL::basic_string<char,_STL::char_traits<char>,_STL::allocator<char> >::_M_terminate_string
; Function compile flags: /Ogsy
; File c:\stlport-4.6.1\stlport\stl\_string.h
;	COMDAT ?_M_terminate_string@?$basic_string@DV?$char_traits@D@_STL@@V?$allocator@D@2@@_STL@@AAEXXZ
_TEXT	SEGMENT
?_M_terminate_string@?$basic_string@DV?$char_traits@D@_STL@@V?$allocator@D@2@@_STL@@AAEXXZ PROC NEAR ; _STL::basic_string<char,_STL::char_traits<char>,_STL::allocator<char> >::_M_terminate_string, COMDAT
; _this$ = ecx

; 355  :     _M_terminate_string_aux(_Char_Is_Integral());

  00000	8b 41 04	 mov	 eax, DWORD PTR [ecx+4]
  00003	c6 00 00	 mov	 BYTE PTR [eax], 0

; 356  :   }

  00006	c3		 ret	 0
?_M_terminate_string@?$basic_string@DV?$char_traits@D@_STL@@V?$allocator@D@2@@_STL@@AAEXXZ ENDP ; _STL::basic_string<char,_STL::char_traits<char>,_STL::allocator<char> >::_M_terminate_string
_TEXT	ENDS
PUBLIC	?allocate@?$allocator@D@_STL@@QAEPADIPBX@Z	; _STL::allocator<char>::allocate
; Function compile flags: /Ogsy
; File c:\stlport-4.6.1\stlport\stl\_alloc.h
;	COMDAT ?allocate@?$allocator@D@_STL@@QAEPADIPBX@Z
_TEXT	SEGMENT
___n$ = 8						; size = 4
___formal$ = 12						; size = 4
?allocate@?$allocator@D@_STL@@QAEPADIPBX@Z PROC NEAR	; _STL::allocator<char>::allocate, COMDAT
; _this$ = ecx

; 355  :     return __n != 0 ? __REINTERPRET_CAST(value_type*,__sgi_alloc::allocate(__n * sizeof(value_type))) : 0;

  00000	33 c0		 xor	 eax, eax
  00002	39 44 24 04	 cmp	 DWORD PTR ___n$[esp-4], eax
  00006	74 0a		 je	 SHORT $L106899
  00008	ff 74 24 04	 push	 DWORD PTR ___n$[esp-4]
  0000c	e8 00 00 00 00	 call	 ?allocate@?$__node_alloc@$00$0A@@_STL@@SAPAXI@Z ; _STL::__node_alloc<1,0>::allocate
  00011	59		 pop	 ecx
$L106899:

; 356  :   }

  00012	c2 08 00	 ret	 8
?allocate@?$allocator@D@_STL@@QAEPADIPBX@Z ENDP		; _STL::allocator<char>::allocate
_TEXT	ENDS
PUBLIC	??0?$_STLP_alloc_proxy@PADDV?$allocator@D@_STL@@@_STL@@QAE@ABV?$allocator@D@1@PAD@Z ; _STL::_STLP_alloc_proxy<char *,char,_STL::allocator<char> >::_STLP_alloc_proxy<char *,char,_STL::allocator<char> >
; Function compile flags: /Ogsy
;	COMDAT ??0?$_STLP_alloc_proxy@PADDV?$allocator@D@_STL@@@_STL@@QAE@ABV?$allocator@D@1@PAD@Z
_TEXT	SEGMENT
___a$ = 8						; size = 4
___p$ = 12						; size = 4
??0?$_STLP_alloc_proxy@PADDV?$allocator@D@_STL@@@_STL@@QAE@ABV?$allocator@D@1@PAD@Z PROC NEAR ; _STL::_STLP_alloc_proxy<char *,char,_STL::allocator<char> >::_STLP_alloc_proxy<char *,char,_STL::allocator<char> >, COMDAT
; _this$ = ecx

; 487  :   inline _STLP_alloc_proxy(const _MaybeReboundAlloc& __a, _Value __p) : _MaybeReboundAlloc(__a), _M_data(__p) {}

  00000	8b c1		 mov	 eax, ecx
  00002	8b 4c 24 08	 mov	 ecx, DWORD PTR ___p$[esp-4]
  00006	89 08		 mov	 DWORD PTR [eax], ecx
  00008	c2 08 00	 ret	 8
??0?$_STLP_alloc_proxy@PADDV?$allocator@D@_STL@@@_STL@@QAE@ABV?$allocator@D@1@PAD@Z ENDP ; _STL::_STLP_alloc_proxy<char *,char,_STL::allocator<char> >::_STLP_alloc_proxy<char *,char,_STL::allocator<char> >
_TEXT	ENDS
PUBLIC	?erase@?$basic_string@DV?$char_traits@D@_STL@@V?$allocator@D@2@@_STL@@QAEPADPAD0@Z ; _STL::basic_string<char,_STL::char_traits<char>,_STL::allocator<char> >::erase
; Function compile flags: /Ogsy
; File c:\stlport-4.6.1\stlport\stl\_string.h
;	COMDAT ?erase@?$basic_string@DV?$char_traits@D@_STL@@V?$allocator@D@2@@_STL@@QAEPADPAD0@Z
_TEXT	SEGMENT
___first$ = 8						; size = 4
___last$ = 12						; size = 4
?erase@?$basic_string@DV?$char_traits@D@_STL@@V?$allocator@D@2@@_STL@@QAEPADPAD0@Z PROC NEAR ; _STL::basic_string<char,_STL::char_traits<char>,_STL::allocator<char> >::erase, COMDAT
; _this$ = ecx

; 862  :   iterator erase(iterator __first, iterator __last) {

  00000	53		 push	 ebx

; 863  :     if (__first != __last) {

  00001	8b 5c 24 08	 mov	 ebx, DWORD PTR ___first$[esp]
  00005	56		 push	 esi
  00006	57		 push	 edi
  00007	8b 7c 24 14	 mov	 edi, DWORD PTR ___last$[esp+8]
  0000b	3b df		 cmp	 ebx, edi
  0000d	8b f1		 mov	 esi, ecx
  0000f	74 1a		 je	 SHORT $L103880

; 864  :                                 // The move includes the terminating _CharT().
; 865  :       traits_type::move(__first, __last, (this->_M_finish - __last) + 1);

  00011	8b 46 04	 mov	 eax, DWORD PTR [esi+4]
  00014	2b c7		 sub	 eax, edi
  00016	40		 inc	 eax
  00017	74 0b		 je	 SHORT $L106911
  00019	50		 push	 eax
  0001a	57		 push	 edi
  0001b	53		 push	 ebx
  0001c	e8 00 00 00 00	 call	 _memmove
  00021	83 c4 0c	 add	 esp, 12			; 0000000cH
$L106911:

; 866  :       pointer __new_finish = this->_M_finish - (__last - __first);

  00024	8b c3		 mov	 eax, ebx
  00026	2b c7		 sub	 eax, edi

; 867  :       _STLP_STD::_Destroy(__new_finish + 1, this->_M_finish + 1);
; 868  :       this->_M_finish = __new_finish;

  00028	01 46 04	 add	 DWORD PTR [esi+4], eax
$L103880:
  0002b	5f		 pop	 edi
  0002c	5e		 pop	 esi

; 869  :     }
; 870  :     return __first;

  0002d	8b c3		 mov	 eax, ebx
  0002f	5b		 pop	 ebx

; 871  :   }

  00030	c2 08 00	 ret	 8
?erase@?$basic_string@DV?$char_traits@D@_STL@@V?$allocator@D@2@@_STL@@QAEPADPAD0@Z ENDP ; _STL::basic_string<char,_STL::char_traits<char>,_STL::allocator<char> >::erase
_TEXT	ENDS
PUBLIC	??1?$TArray@VSPRITE_FILEPOSITION_NODE@@G@@QAE@XZ ; TArray<SPRITE_FILEPOSITION_NODE,unsigned short>::~TArray<SPRITE_FILEPOSITION_NODE,unsigned short>
; Function compile flags: /Ogsy
; File c:\darkeden\designed_common\project\client\spritelib\tarray.h
;	COMDAT ??1?$TArray@VSPRITE_FILEPOSITION_NODE@@G@@QAE@XZ
_TEXT	SEGMENT
??1?$TArray@VSPRITE_FILEPOSITION_NODE@@G@@QAE@XZ PROC NEAR ; TArray<SPRITE_FILEPOSITION_NODE,unsigned short>::~TArray<SPRITE_FILEPOSITION_NODE,unsigned short>, COMDAT
; _this$ = ecx

; 97   : 	Release();

  00000	e9 00 00 00 00	 jmp	 ?Release@?$TArray@VSPRITE_FILEPOSITION_NODE@@G@@QAEXXZ ; TArray<SPRITE_FILEPOSITION_NODE,unsigned short>::Release
??1?$TArray@VSPRITE_FILEPOSITION_NODE@@G@@QAE@XZ ENDP	; TArray<SPRITE_FILEPOSITION_NODE,unsigned short>::~TArray<SPRITE_FILEPOSITION_NODE,unsigned short>
_TEXT	ENDS
PUBLIC	?Init@?$TArray@VSPRITE_FILEPOSITION_NODE@@G@@QAEXG@Z ; TArray<SPRITE_FILEPOSITION_NODE,unsigned short>::Init
EXTRN	??_U@YAPAXI@Z:NEAR				; operator new[]
; Function compile flags: /Ogsy
;	COMDAT ?Init@?$TArray@VSPRITE_FILEPOSITION_NODE@@G@@QAEXG@Z
_TEXT	SEGMENT
_size$ = 8						; size = 2
?Init@?$TArray@VSPRITE_FILEPOSITION_NODE@@G@@QAEXG@Z PROC NEAR ; TArray<SPRITE_FILEPOSITION_NODE,unsigned short>::Init, COMDAT
; _this$ = ecx

; 112  : {

  00000	56		 push	 esi
  00001	8b f1		 mov	 esi, ecx

; 113  : 	//  
; 114  : 	Release();

  00003	e8 00 00 00 00	 call	 ?Release@?$TArray@VSPRITE_FILEPOSITION_NODE@@G@@QAEXXZ ; TArray<SPRITE_FILEPOSITION_NODE,unsigned short>::Release

; 115  : 
; 116  : 	if (size==0) return;

  00008	66 8b 44 24 08	 mov	 ax, WORD PTR _size$[esp]
  0000d	66 85 c0	 test	 ax, ax
  00010	74 13		 je	 SHORT $L104048

; 117  : 
; 118  : 	m_Size = size;

  00012	66 89 06	 mov	 WORD PTR [esi], ax

; 119  : 	m_pData = new DataType [m_Size];

  00015	0f b7 c0	 movzx	 eax, ax
  00018	c1 e0 03	 shl	 eax, 3
  0001b	50		 push	 eax
  0001c	e8 00 00 00 00	 call	 ??_U@YAPAXI@Z		; operator new[]
  00021	59		 pop	 ecx
  00022	89 46 04	 mov	 DWORD PTR [esi+4], eax
$L104048:
  00025	5e		 pop	 esi

; 120  : }

  00026	c2 04 00	 ret	 4
?Init@?$TArray@VSPRITE_FILEPOSITION_NODE@@G@@QAEXG@Z ENDP ; TArray<SPRITE_FILEPOSITION_NODE,unsigned short>::Init
_TEXT	ENDS
PUBLIC	?LoadFromFile@?$TArray@VSPRITE_FILEPOSITION_NODE@@G@@QAE_NAAVivfstream@@@Z ; TArray<SPRITE_FILEPOSITION_NODE,unsigned short>::LoadFromFile
PUBLIC	?s_SIZEOF_SizeType@?$TArray@VSPRITE_FILEPOSITION_NODE@@G@@1EA ; TArray<SPRITE_FILEPOSITION_NODE,unsigned short>::s_SIZEOF_SizeType
EXTRN	?LoadFromFile@SPRITE_FILEPOSITION_NODE@@QAEXAAVivfstream@@@Z:NEAR ; SPRITE_FILEPOSITION_NODE::LoadFromFile
;	COMDAT ?s_SIZEOF_SizeType@?$TArray@VSPRITE_FILEPOSITION_NODE@@G@@1EA
; File c:\darkeden\designed_common\project\client\virtualfilesystem\vfstream.inl
_DATA	SEGMENT
?s_SIZEOF_SizeType@?$TArray@VSPRITE_FILEPOSITION_NODE@@G@@1EA DB 02H ; TArray<SPRITE_FILEPOSITION_NODE,unsigned short>::s_SIZEOF_SizeType
; Function compile flags: /Ogsy
; File c:\darkeden\designed_common\project\client\spritelib\tarray.h
_DATA	ENDS
;	COMDAT ?LoadFromFile@?$TArray@VSPRITE_FILEPOSITION_NODE@@G@@QAE_NAAVivfstream@@@Z
_TEXT	SEGMENT
_file$ = 8						; size = 4
?LoadFromFile@?$TArray@VSPRITE_FILEPOSITION_NODE@@G@@QAE_NAAVivfstream@@@Z PROC NEAR ; TArray<SPRITE_FILEPOSITION_NODE,unsigned short>::LoadFromFile, COMDAT
; _this$ = ecx

; 215  : {

  00000	53		 push	 ebx

; 216  : 	// frame 
; 217  : 	file.read((char*)&m_Size, s_SIZEOF_SizeType);

  00001	8b 5c 24 08	 mov	 ebx, DWORD PTR _file$[esp]
  00005	56		 push	 esi
  00006	57		 push	 edi
  00007	33 ff		 xor	 edi, edi
  00009	39 7b 04	 cmp	 DWORD PTR [ebx+4], edi
  0000c	8b f1		 mov	 esi, ecx
  0000e	74 11		 je	 SHORT $L106929
  00010	0f b6 15 00 00
	00 00		 movzx	 edx, BYTE PTR ?s_SIZEOF_SizeType@?$TArray@VSPRITE_FILEPOSITION_NODE@@G@@1EA ; TArray<SPRITE_FILEPOSITION_NODE,unsigned short>::s_SIZEOF_SizeType
  00017	8b 4b 04	 mov	 ecx, DWORD PTR [ebx+4]
  0001a	8b 01		 mov	 eax, DWORD PTR [ecx]
  0001c	52		 push	 edx
  0001d	56		 push	 esi
  0001e	ff 50 10	 call	 DWORD PTR [eax+16]
$L106929:

; 218  : 
; 219  : 	if (m_Size==0) return false;

  00021	66 8b 06	 mov	 ax, WORD PTR [esi]
  00024	66 3b c7	 cmp	 ax, di
  00027	75 04		 jne	 SHORT $L104059
  00029	32 c0		 xor	 al, al
  0002b	eb 24		 jmp	 SHORT $L104057
$L104059:

; 220  : 	
; 221  : 	// memory
; 222  : 	Init(m_Size);

  0002d	50		 push	 eax
  0002e	8b ce		 mov	 ecx, esi
  00030	e8 00 00 00 00	 call	 ?Init@?$TArray@VSPRITE_FILEPOSITION_NODE@@G@@QAEXG@Z ; TArray<SPRITE_FILEPOSITION_NODE,unsigned short>::Init

; 223  : 
; 224  : 	for (SizeType i=0; i<m_Size; i++)

  00035	66 39 3e	 cmp	 WORD PTR [esi], di
  00038	76 15		 jbe	 SHORT $L104063
$L104061:

; 225  : 		m_pData[i].LoadFromFile(file);

  0003a	8b 4e 04	 mov	 ecx, DWORD PTR [esi+4]
  0003d	0f b7 c7	 movzx	 eax, di
  00040	53		 push	 ebx
  00041	8d 0c c1	 lea	 ecx, DWORD PTR [ecx+eax*8]
  00044	e8 00 00 00 00	 call	 ?LoadFromFile@SPRITE_FILEPOSITION_NODE@@QAEXAAVivfstream@@@Z ; SPRITE_FILEPOSITION_NODE::LoadFromFile
  00049	47		 inc	 edi
  0004a	66 3b 3e	 cmp	 di, WORD PTR [esi]
  0004d	72 eb		 jb	 SHORT $L104061
$L104063:

; 226  : 
; 227  : 	return true;

  0004f	b0 01		 mov	 al, 1
$L104057:
  00051	5f		 pop	 edi
  00052	5e		 pop	 esi
  00053	5b		 pop	 ebx

; 228  : }

  00054	c2 04 00	 ret	 4
?LoadFromFile@?$TArray@VSPRITE_FILEPOSITION_NODE@@G@@QAE_NAAVivfstream@@@Z ENDP ; TArray<SPRITE_FILEPOSITION_NODE,unsigned short>::LoadFromFile
_TEXT	ENDS
PUBLIC	??_ECSprite565@@QAEPAXI@Z			; CSprite565::`vector deleting destructor'
EXTRN	??_M@YGXPAXIHP6EX0@Z@Z:NEAR			; `eh vector destructor iterator'
; Function compile flags: /Ogsy
;	COMDAT ??_ECSprite565@@QAEPAXI@Z
_TEXT	SEGMENT
___flags$ = 8						; size = 4
??_ECSprite565@@QAEPAXI@Z PROC NEAR			; CSprite565::`vector deleting destructor', COMDAT
; _this$ = ecx
  00000	53		 push	 ebx
  00001	8a 5c 24 08	 mov	 bl, BYTE PTR ___flags$[esp]
  00005	f6 c3 02	 test	 bl, 2
  00008	56		 push	 esi
  00009	8b f1		 mov	 esi, ecx
  0000b	74 24		 je	 SHORT $L105011
  0000d	57		 push	 edi
  0000e	68 00 00 00 00	 push	 OFFSET FLAT:??1CSprite565@@QAE@XZ
  00013	8d 7e fc	 lea	 edi, DWORD PTR [esi-4]
  00016	ff 37		 push	 DWORD PTR [edi]
  00018	6a 10		 push	 16			; 00000010H
  0001a	56		 push	 esi
  0001b	e8 00 00 00 00	 call	 ??_M@YGXPAXIHP6EX0@Z@Z
  00020	f6 c3 01	 test	 bl, 1
  00023	74 07		 je	 SHORT $L105012
  00025	57		 push	 edi
  00026	e8 00 00 00 00	 call	 ??_V@YAXPAX@Z		; operator delete[]
  0002b	59		 pop	 ecx
$L105012:
  0002c	8b c7		 mov	 eax, edi
  0002e	5f		 pop	 edi
  0002f	eb 15		 jmp	 SHORT $L105010
$L105011:
  00031	8b ce		 mov	 ecx, esi
  00033	e8 00 00 00 00	 call	 ??1CSprite565@@QAE@XZ
  00038	f6 c3 01	 test	 bl, 1
  0003b	74 07		 je	 SHORT $L105014
  0003d	56		 push	 esi
  0003e	e8 00 00 00 00	 call	 ??3@YAXPAX@Z		; operator delete
  00043	59		 pop	 ecx
$L105014:
  00044	8b c6		 mov	 eax, esi
$L105010:
  00046	5e		 pop	 esi
  00047	5b		 pop	 ebx
  00048	c2 04 00	 ret	 4
??_ECSprite565@@QAEPAXI@Z ENDP				; CSprite565::`vector deleting destructor'
_TEXT	ENDS
PUBLIC	??_ECSprite555@@QAEPAXI@Z			; CSprite555::`vector deleting destructor'
; Function compile flags: /Ogsy
;	COMDAT ??_ECSprite555@@QAEPAXI@Z
_TEXT	SEGMENT
___flags$ = 8						; size = 4
??_ECSprite555@@QAEPAXI@Z PROC NEAR			; CSprite555::`vector deleting destructor', COMDAT
; _this$ = ecx
  00000	53		 push	 ebx
  00001	8a 5c 24 08	 mov	 bl, BYTE PTR ___flags$[esp]
  00005	f6 c3 02	 test	 bl, 2
  00008	56		 push	 esi
  00009	8b f1		 mov	 esi, ecx
  0000b	74 24		 je	 SHORT $L105021
  0000d	57		 push	 edi
  0000e	68 00 00 00 00	 push	 OFFSET FLAT:??1CSprite555@@QAE@XZ
  00013	8d 7e fc	 lea	 edi, DWORD PTR [esi-4]
  00016	ff 37		 push	 DWORD PTR [edi]
  00018	6a 10		 push	 16			; 00000010H
  0001a	56		 push	 esi
  0001b	e8 00 00 00 00	 call	 ??_M@YGXPAXIHP6EX0@Z@Z
  00020	f6 c3 01	 test	 bl, 1
  00023	74 07		 je	 SHORT $L105022
  00025	57		 push	 edi
  00026	e8 00 00 00 00	 call	 ??_V@YAXPAX@Z		; operator delete[]
  0002b	59		 pop	 ecx
$L105022:
  0002c	8b c7		 mov	 eax, edi
  0002e	5f		 pop	 edi
  0002f	eb 15		 jmp	 SHORT $L105020
$L105021:
  00031	8b ce		 mov	 ecx, esi
  00033	e8 00 00 00 00	 call	 ??1CSprite555@@QAE@XZ
  00038	f6 c3 01	 test	 bl, 1
  0003b	74 07		 je	 SHORT $L105024
  0003d	56		 push	 esi
  0003e	e8 00 00 00 00	 call	 ??3@YAXPAX@Z		; operator delete
  00043	59		 pop	 ecx
$L105024:
  00044	8b c6		 mov	 eax, esi
$L105020:
  00046	5e		 pop	 esi
  00047	5b		 pop	 ebx
  00048	c2 04 00	 ret	 4
??_ECSprite555@@QAEPAXI@Z ENDP				; CSprite555::`vector deleting destructor'
_TEXT	ENDS
PUBLIC	?_M_construct_null@?$basic_string@DV?$char_traits@D@_STL@@V?$allocator@D@2@@_STL@@AAEXPAD@Z ; _STL::basic_string<char,_STL::char_traits<char>,_STL::allocator<char> >::_M_construct_null
; Function compile flags: /Ogsy
; File c:\stlport-4.6.1\stlport\stl\_string.h
;	COMDAT ?_M_construct_null@?$basic_string@DV?$char_traits@D@_STL@@V?$allocator@D@2@@_STL@@AAEXPAD@Z
_TEXT	SEGMENT
___p$ = 8						; size = 4
?_M_construct_null@?$basic_string@DV?$char_traits@D@_STL@@V?$allocator@D@2@@_STL@@AAEXPAD@Z PROC NEAR ; _STL::basic_string<char,_STL::char_traits<char>,_STL::allocator<char> >::_M_construct_null, COMDAT
; _this$ = ecx

; 336  :     _M_construct_null_aux(__p, _Char_Is_Integral());

  00000	8b 44 24 04	 mov	 eax, DWORD PTR ___p$[esp-4]
  00004	c6 00 00	 mov	 BYTE PTR [eax], 0

; 337  :   }

  00007	c2 04 00	 ret	 4
?_M_construct_null@?$basic_string@DV?$char_traits@D@_STL@@V?$allocator@D@2@@_STL@@AAEXPAD@Z ENDP ; _STL::basic_string<char,_STL::char_traits<char>,_STL::allocator<char> >::_M_construct_null
_TEXT	ENDS
PUBLIC	?max_size@?$basic_string@DV?$char_traits@D@_STL@@V?$allocator@D@2@@_STL@@QBEIXZ ; _STL::basic_string<char,_STL::char_traits<char>,_STL::allocator<char> >::max_size
; Function compile flags: /Ogsy
;	COMDAT ?max_size@?$basic_string@DV?$char_traits@D@_STL@@V?$allocator@D@2@@_STL@@QBEIXZ
_TEXT	SEGMENT
?max_size@?$basic_string@DV?$char_traits@D@_STL@@V?$allocator@D@2@@_STL@@QBEIXZ PROC NEAR ; _STL::basic_string<char,_STL::char_traits<char>,_STL::allocator<char> >::max_size, COMDAT
; _this$ = ecx

; 434  :   size_t max_size() const { return _Base::max_size(); }

  00000	6a fe		 push	 -2			; fffffffeH
  00002	58		 pop	 eax
  00003	c3		 ret	 0
?max_size@?$basic_string@DV?$char_traits@D@_STL@@V?$allocator@D@2@@_STL@@QBEIXZ ENDP ; _STL::basic_string<char,_STL::char_traits<char>,_STL::allocator<char> >::max_size
_TEXT	ENDS
PUBLIC	??$distance@PBD@_STL@@YAHABQBD0@Z		; _STL::distance<char const *>
; Function compile flags: /Ogsy
; File c:\stlport-4.6.1\stlport\stl\_iterator_base.h
;	COMDAT ??$distance@PBD@_STL@@YAHABQBD0@Z
_TEXT	SEGMENT
___first$ = 8						; size = 4
___last$ = 12						; size = 4
??$distance@PBD@_STL@@YAHABQBD0@Z PROC NEAR		; _STL::distance<char const *>, COMDAT

; 369  :   return __distance(__first, __last, _STLP_ITERATOR_CATEGORY(__first, _InputIterator));  

  00000	8b 44 24 08	 mov	 eax, DWORD PTR ___last$[esp-4]
  00004	8b 00		 mov	 eax, DWORD PTR [eax]
  00006	8b 4c 24 04	 mov	 ecx, DWORD PTR ___first$[esp-4]
  0000a	2b 01		 sub	 eax, DWORD PTR [ecx]

; 370  : }

  0000c	c3		 ret	 0
??$distance@PBD@_STL@@YAHABQBD0@Z ENDP			; _STL::distance<char const *>
_TEXT	ENDS
PUBLIC	??$__copy_aux@PADPAD@_STL@@YAPADPAD00ABU__true_type@0@@Z ; _STL::__copy_aux<char *,char *>
; Function compile flags: /Ogsy
; File c:\stlport-4.6.1\stlport\stl\_algobase.h
;	COMDAT ??$__copy_aux@PADPAD@_STL@@YAPADPAD00ABU__true_type@0@@Z
_TEXT	SEGMENT
___first$ = 8						; size = 4
___last$ = 12						; size = 4
___result$ = 16						; size = 4
___formal$ = 20						; size = 4
??$__copy_aux@PADPAD@_STL@@YAPADPAD00ABU__true_type@0@@Z PROC NEAR ; _STL::__copy_aux<char *,char *>, COMDAT

; 202  :   return __copy_ptrs(__first, __last, __result, 
; 203  :                      _IsOKToMemCpy(_STLP_VALUE_TYPE(__first, _InputIter), 
; 204  :                                    _STLP_VALUE_TYPE(__result, _OutputIter))._Ret());

  00000	ff 74 24 0c	 push	 DWORD PTR ___result$[esp-4]
  00004	ff 74 24 0c	 push	 DWORD PTR ___last$[esp]
  00008	ff 74 24 0c	 push	 DWORD PTR ___first$[esp+4]
  0000c	e8 00 00 00 00	 call	 ?__copy_trivial@_STL@@YAPAXPBX0PAX@Z ; _STL::__copy_trivial
  00011	83 c4 0c	 add	 esp, 12			; 0000000cH

; 205  : }

  00014	c3		 ret	 0
??$__copy_aux@PADPAD@_STL@@YAPADPAD00ABU__true_type@0@@Z ENDP ; _STL::__copy_aux<char *,char *>
_TEXT	ENDS
PUBLIC	?deallocate@?$allocator@D@_STL@@QAEXPADI@Z	; _STL::allocator<char>::deallocate
; Function compile flags: /Ogsy
; File c:\stlport-4.6.1\stlport\stl\_alloc.h
;	COMDAT ?deallocate@?$allocator@D@_STL@@QAEXPADI@Z
_TEXT	SEGMENT
___p$ = 8						; size = 4
___n$ = 12						; size = 4
?deallocate@?$allocator@D@_STL@@QAEXPADI@Z PROC NEAR	; _STL::allocator<char>::deallocate, COMDAT
; _this$ = ecx

; 359  :     _STLP_ASSERT( (__p == 0) == (__n == 0) )
; 360  :       if (__p != 0) __sgi_alloc::deallocate((void*)__p, __n * sizeof(value_type));

  00000	83 7c 24 04 00	 cmp	 DWORD PTR ___p$[esp-4], 0
  00005	74 0f		 je	 SHORT $L98663
  00007	ff 74 24 08	 push	 DWORD PTR ___n$[esp-4]
  0000b	ff 74 24 08	 push	 DWORD PTR ___p$[esp]
  0000f	e8 00 00 00 00	 call	 ?deallocate@?$__node_alloc@$00$0A@@_STL@@SAXPAXI@Z ; _STL::__node_alloc<1,0>::deallocate
  00014	59		 pop	 ecx
  00015	59		 pop	 ecx
$L98663:

; 361  :   }

  00016	c2 08 00	 ret	 8
?deallocate@?$allocator@D@_STL@@QAEXPADI@Z ENDP		; _STL::allocator<char>::deallocate
_TEXT	ENDS
PUBLIC	??0?$_String_base@DV?$allocator@D@_STL@@@_STL@@QAE@ABV?$allocator@D@1@@Z ; _STL::_String_base<char,_STL::allocator<char> >::_String_base<char,_STL::allocator<char> >
; Function compile flags: /Ogsy
; File c:\stlport-4.6.1\stlport\stl\_string.h
;	COMDAT ??0?$_String_base@DV?$allocator@D@_STL@@@_STL@@QAE@ABV?$allocator@D@1@@Z
_TEXT	SEGMENT
___a$ = 8						; size = 4
??0?$_String_base@DV?$allocator@D@_STL@@@_STL@@QAE@ABV?$allocator@D@1@@Z PROC NEAR ; _STL::_String_base<char,_STL::allocator<char> >::_String_base<char,_STL::allocator<char> >, COMDAT
; _this$ = ecx

; 129  :     : _M_start(0), _M_finish(0), _M_end_of_storage(__a, (_Tp*)0) {}

  00000	56		 push	 esi
  00001	33 c0		 xor	 eax, eax
  00003	8b f1		 mov	 esi, ecx
  00005	50		 push	 eax
  00006	ff 74 24 0c	 push	 DWORD PTR ___a$[esp+4]
  0000a	8d 4e 08	 lea	 ecx, DWORD PTR [esi+8]
  0000d	89 06		 mov	 DWORD PTR [esi], eax
  0000f	89 46 04	 mov	 DWORD PTR [esi+4], eax
  00012	e8 00 00 00 00	 call	 ??0?$_STLP_alloc_proxy@PADDV?$allocator@D@_STL@@@_STL@@QAE@ABV?$allocator@D@1@PAD@Z ; _STL::_STLP_alloc_proxy<char *,char,_STL::allocator<char> >::_STLP_alloc_proxy<char *,char,_STL::allocator<char> >
  00017	8b c6		 mov	 eax, esi
  00019	5e		 pop	 esi
  0001a	c2 04 00	 ret	 4
??0?$_String_base@DV?$allocator@D@_STL@@@_STL@@QAE@ABV?$allocator@D@1@@Z ENDP ; _STL::_String_base<char,_STL::allocator<char> >::_String_base<char,_STL::allocator<char> >
_TEXT	ENDS
PUBLIC	??0?$TArray@VSPRITE_FILEPOSITION_NODE@@G@@QAE@G@Z ; TArray<SPRITE_FILEPOSITION_NODE,unsigned short>::TArray<SPRITE_FILEPOSITION_NODE,unsigned short>
; Function compile flags: /Ogsy
; File c:\darkeden\designed_common\project\client\spritelib\tarray.h
;	COMDAT ??0?$TArray@VSPRITE_FILEPOSITION_NODE@@G@@QAE@G@Z
_TEXT	SEGMENT
_size$ = 8						; size = 2
??0?$TArray@VSPRITE_FILEPOSITION_NODE@@G@@QAE@G@Z PROC NEAR ; TArray<SPRITE_FILEPOSITION_NODE,unsigned short>::TArray<SPRITE_FILEPOSITION_NODE,unsigned short>, COMDAT
; _this$ = ecx

; 87   : {

  00000	56		 push	 esi

; 88   : 	m_Size	= 0;
; 89   : 	m_pData = NULL;	
; 90   : 
; 91   : 	Init(size);

  00001	ff 74 24 08	 push	 DWORD PTR _size$[esp]
  00005	8b f1		 mov	 esi, ecx
  00007	66 83 26 00	 and	 WORD PTR [esi], 0
  0000b	83 66 04 00	 and	 DWORD PTR [esi+4], 0
  0000f	e8 00 00 00 00	 call	 ?Init@?$TArray@VSPRITE_FILEPOSITION_NODE@@G@@QAEXG@Z ; TArray<SPRITE_FILEPOSITION_NODE,unsigned short>::Init

; 92   : }

  00014	8b c6		 mov	 eax, esi
  00016	5e		 pop	 esi
  00017	c2 04 00	 ret	 4
??0?$TArray@VSPRITE_FILEPOSITION_NODE@@G@@QAE@G@Z ENDP	; TArray<SPRITE_FILEPOSITION_NODE,unsigned short>::TArray<SPRITE_FILEPOSITION_NODE,unsigned short>
_TEXT	ENDS
PUBLIC	??$__uninitialized_copy@PADPAD@_STL@@YAPADPAD00ABU__true_type@0@@Z ; _STL::__uninitialized_copy<char *,char *>
; Function compile flags: /Ogsy
; File c:\stlport-4.6.1\stlport\stl\_uninitialized.h
;	COMDAT ??$__uninitialized_copy@PADPAD@_STL@@YAPADPAD00ABU__true_type@0@@Z
_TEXT	SEGMENT
___first$ = 8						; size = 4
___last$ = 12						; size = 4
___result$ = 16						; size = 4
___formal$ = 20						; size = 4
??$__uninitialized_copy@PADPAD@_STL@@YAPADPAD00ABU__true_type@0@@Z PROC NEAR ; _STL::__uninitialized_copy<char *,char *>, COMDAT

; 55   :   return __copy_aux(__first, __last, __result, _BothPtrType< _InputIter, _ForwardIter> :: _Ret());

  00000	ff 74 24 0c	 push	 DWORD PTR ___result$[esp-4]
  00004	ff 74 24 0c	 push	 DWORD PTR ___last$[esp]
  00008	ff 74 24 0c	 push	 DWORD PTR ___first$[esp+4]
  0000c	e8 00 00 00 00	 call	 ?__copy_trivial@_STL@@YAPAXPBX0PAX@Z ; _STL::__copy_trivial
  00011	83 c4 0c	 add	 esp, 12			; 0000000cH

; 56   : }

  00014	c3		 ret	 0
??$__uninitialized_copy@PADPAD@_STL@@YAPADPAD00ABU__true_type@0@@Z ENDP ; _STL::__uninitialized_copy<char *,char *>
_TEXT	ENDS
PUBLIC	?_M_deallocate_block@?$_String_base@DV?$allocator@D@_STL@@@_STL@@QAEXXZ ; _STL::_String_base<char,_STL::allocator<char> >::_M_deallocate_block
; Function compile flags: /Ogsy
; File c:\stlport-4.6.1\stlport\stl\_string.h
;	COMDAT ?_M_deallocate_block@?$_String_base@DV?$allocator@D@_STL@@@_STL@@QAEXXZ
_TEXT	SEGMENT
?_M_deallocate_block@?$_String_base@DV?$allocator@D@_STL@@@_STL@@QAEXXZ PROC NEAR ; _STL::_String_base<char,_STL::allocator<char> >::_M_deallocate_block, COMDAT
; _this$ = ecx

; 124  :     { _M_end_of_storage.deallocate(_M_start, _M_end_of_storage._M_data - _M_start); }

  00000	8b c1		 mov	 eax, ecx
  00002	8d 48 08	 lea	 ecx, DWORD PTR [eax+8]
  00005	8b 00		 mov	 eax, DWORD PTR [eax]
  00007	8b 11		 mov	 edx, DWORD PTR [ecx]
  00009	2b d0		 sub	 edx, eax
  0000b	52		 push	 edx
  0000c	50		 push	 eax
  0000d	e8 00 00 00 00	 call	 ?deallocate@?$allocator@D@_STL@@QAEXPADI@Z ; _STL::allocator<char>::deallocate
  00012	c3		 ret	 0
?_M_deallocate_block@?$_String_base@DV?$allocator@D@_STL@@@_STL@@QAEXXZ ENDP ; _STL::_String_base<char,_STL::allocator<char> >::_M_deallocate_block
_TEXT	ENDS
PUBLIC	??1MLoadingSPKWorkNode2@@UAE@XZ			; MLoadingSPKWorkNode2::~MLoadingSPKWorkNode2
; Function compile flags: /Ogsy
;	COMDAT ??_GMLoadingSPKWorkNode2@@UAEPAXI@Z
_TEXT	SEGMENT
___flags$ = 8						; size = 4
??_GMLoadingSPKWorkNode2@@UAEPAXI@Z PROC NEAR		; MLoadingSPKWorkNode2::`scalar deleting destructor', COMDAT
; _this$ = ecx
  00000	56		 push	 esi
  00001	8b f1		 mov	 esi, ecx
  00003	e8 00 00 00 00	 call	 ??1MLoadingSPKWorkNode2@@UAE@XZ ; MLoadingSPKWorkNode2::~MLoadingSPKWorkNode2
  00008	f6 44 24 08 01	 test	 BYTE PTR ___flags$[esp], 1
  0000d	74 07		 je	 SHORT $L103552
  0000f	56		 push	 esi
  00010	e8 00 00 00 00	 call	 ??3@YAXPAX@Z		; operator delete
  00015	59		 pop	 ecx
$L103552:
  00016	8b c6		 mov	 eax, esi
  00018	5e		 pop	 esi
  00019	c2 04 00	 ret	 4
??_GMLoadingSPKWorkNode2@@UAEPAXI@Z ENDP		; MLoadingSPKWorkNode2::`scalar deleting destructor'
; Function compile flags: /Ogsy
; File c:\darkeden\designed_common\project\client\mloadingspkworknode.h
_TEXT	ENDS
;	COMDAT ??1MLoadingSPKWorkNode2@@UAE@XZ
_TEXT	SEGMENT
??1MLoadingSPKWorkNode2@@UAE@XZ PROC NEAR		; MLoadingSPKWorkNode2::~MLoadingSPKWorkNode2, COMDAT
; _this$ = ecx

; 114  : 		~MLoadingSPKWorkNode2() { if (m_pSFPA!=NULL) delete m_pSFPA; }

  00000	56		 push	 esi
  00001	8b f1		 mov	 esi, ecx
  00003	57		 push	 edi
  00004	8b be 14 01 00
	00		 mov	 edi, DWORD PTR [esi+276]
  0000a	85 ff		 test	 edi, edi
  0000c	c7 06 00 00 00
	00		 mov	 DWORD PTR [esi], OFFSET FLAT:??_7MLoadingSPKWorkNode2@@6B@
  00012	74 0e		 je	 SHORT $L107035
  00014	8b cf		 mov	 ecx, edi
  00016	e8 00 00 00 00	 call	 ?Release@?$TArray@VSPRITE_FILEPOSITION_NODE@@G@@QAEXXZ ; TArray<SPRITE_FILEPOSITION_NODE,unsigned short>::Release
  0001b	57		 push	 edi
  0001c	e8 00 00 00 00	 call	 ??3@YAXPAX@Z		; operator delete
  00021	59		 pop	 ecx
$L107035:
  00022	5f		 pop	 edi
  00023	c7 06 00 00 00
	00		 mov	 DWORD PTR [esi], OFFSET FLAT:??_7MLoadingSPKWorkNode@@6B@
  00029	8b ce		 mov	 ecx, esi
  0002b	5e		 pop	 esi
  0002c	e9 00 00 00 00	 jmp	 ??1MWorkNode@@UAE@XZ	; MWorkNode::~MWorkNode
??1MLoadingSPKWorkNode2@@UAE@XZ ENDP			; MLoadingSPKWorkNode2::~MLoadingSPKWorkNode2
_TEXT	ENDS
PUBLIC	??$uninitialized_copy@PADPAD@_STL@@YAPADPAD00@Z	; _STL::uninitialized_copy<char *,char *>
; Function compile flags: /Ogsy
; File c:\stlport-4.6.1\stlport\stl\_uninitialized.h
;	COMDAT ??$uninitialized_copy@PADPAD@_STL@@YAPADPAD00@Z
_TEXT	SEGMENT
___first$ = 8						; size = 4
___last$ = 12						; size = 4
___result$ = 16						; size = 4
??$uninitialized_copy@PADPAD@_STL@@YAPADPAD00@Z PROC NEAR ; _STL::uninitialized_copy<char *,char *>, COMDAT

; 79   :   return __uninitialized_copy(__first, __last, __result,  _IS_POD_ITER(__result, _ForwardIter));

  00000	e9 00 00 00 00	 jmp	 ?__copy_trivial@_STL@@YAPAXPBX0PAX@Z ; _STL::__copy_trivial
??$uninitialized_copy@PADPAD@_STL@@YAPADPAD00@Z ENDP	; _STL::uninitialized_copy<char *,char *>
_TEXT	ENDS
PUBLIC	??$append@PBD@?$basic_string@DV?$char_traits@D@_STL@@V?$allocator@D@2@@_STL@@AAEAAV01@PBD0ABUforward_iterator_tag@1@@Z ; _STL::basic_string<char,_STL::char_traits<char>,_STL::allocator<char> >::append<char const *>
EXTRN	__CxxThrowException@8:NEAR
; Function compile flags: /Ogsy
; File c:\stlport-4.6.1\stlport\stl\_string.h
;	COMDAT ??$append@PBD@?$basic_string@DV?$char_traits@D@_STL@@V?$allocator@D@2@@_STL@@AAEAAV01@PBD0ABUforward_iterator_tag@1@@Z
_TEXT	SEGMENT
___len$105868 = -8					; size = 4
___old_size$105861 = -8					; size = 4
$T107113 = -4						; size = 4
___first$ = 8						; size = 4
___last$ = 12						; size = 4
___formal$ = 16						; size = 4
??$append@PBD@?$basic_string@DV?$char_traits@D@_STL@@V?$allocator@D@2@@_STL@@AAEAAV01@PBD0ABUforward_iterator_tag@1@@Z PROC NEAR ; _STL::basic_string<char,_STL::char_traits<char>,_STL::allocator<char> >::append<char const *>, COMDAT
; _this$ = ecx

; 542  :   template <class _ForwardIter> _Self& append(_ForwardIter __first, _ForwardIter __last, 

  00000	55		 push	 ebp
  00001	8b ec		 mov	 ebp, esp
  00003	51		 push	 ecx
  00004	51		 push	 ecx
  00005	56		 push	 esi
  00006	57		 push	 edi

; 543  :                        const forward_iterator_tag &)  {
; 544  :     if (__first != __last) {

  00007	8b 7d 0c	 mov	 edi, DWORD PTR ___last$[ebp]
  0000a	39 7d 08	 cmp	 DWORD PTR ___first$[ebp], edi
  0000d	8b f1		 mov	 esi, ecx
  0000f	0f 84 b6 00 00
	00		 je	 $L105874

; 545  : 	    const size_type __old_size = size();
; 546  : 	    difference_type __n = distance(__first, __last);

  00015	2b 7d 08	 sub	 edi, DWORD PTR ___first$[ebp]
  00018	53		 push	 ebx
  00019	8b 5e 04	 mov	 ebx, DWORD PTR [esi+4]
  0001c	2b 1e		 sub	 ebx, DWORD PTR [esi]

; 547  : 	    if (__STATIC_CAST(size_type,__n) > max_size() || __old_size > max_size() - __STATIC_CAST(size_type,__n))

  0001e	83 ff fe	 cmp	 edi, -2			; fffffffeH
  00021	89 5d f8	 mov	 DWORD PTR ___old_size$105861[ebp], ebx
  00024	77 09		 ja	 SHORT $L105866
  00026	6a fe		 push	 -2			; fffffffeH
  00028	58		 pop	 eax
  00029	2b c7		 sub	 eax, edi
  0002b	3b d8		 cmp	 ebx, eax
  0002d	76 07		 jbe	 SHORT $L105865
$L105866:

; 548  : 	      this->_M_throw_length_error();

  0002f	8b ce		 mov	 ecx, esi
  00031	e8 00 00 00 00	 call	 ?_M_throw_length_error@?$_String_base@DV?$allocator@D@_STL@@@_STL@@QBEXXZ ; _STL::_String_base<char,_STL::allocator<char> >::_M_throw_length_error
$L105865:

; 549  : 	    if (__old_size + __n > capacity()) {

  00036	8b 46 08	 mov	 eax, DWORD PTR [esi+8]
  00039	2b 06		 sub	 eax, DWORD PTR [esi]
  0003b	8d 0c 1f	 lea	 ecx, DWORD PTR [edi+ebx]
  0003e	48		 dec	 eax
  0003f	3b c8		 cmp	 ecx, eax
  00041	76 5e		 jbe	 SHORT $L105867

; 550  : 	      const size_type __len = __old_size +
; 551  : 	                            (max)(__old_size, __STATIC_CAST(size_type,__n)) + 1;

  00043	3b df		 cmp	 ebx, edi
  00045	89 7d fc	 mov	 DWORD PTR $T107113[ebp], edi
  00048	8d 45 fc	 lea	 eax, DWORD PTR $T107113[ebp]
  0004b	72 03		 jb	 SHORT $L107159
  0004d	8d 45 f8	 lea	 eax, DWORD PTR ___old_size$105861[ebp]
$L107159:
  00050	8b 00		 mov	 eax, DWORD PTR [eax]
  00052	8d 5c 18 01	 lea	 ebx, DWORD PTR [eax+ebx+1]

; 552  : 	      pointer __new_start = this->_M_end_of_storage.allocate(__len);

  00056	85 db		 test	 ebx, ebx
  00058	89 5d f8	 mov	 DWORD PTR ___len$105868[ebp], ebx
  0005b	74 0b		 je	 SHORT $L107165
  0005d	53		 push	 ebx
  0005e	e8 00 00 00 00	 call	 ?allocate@?$__node_alloc@$00$0A@@_STL@@SAPAXI@Z ; _STL::__node_alloc<1,0>::allocate
  00063	59		 pop	 ecx
  00064	8b f8		 mov	 edi, eax
  00066	eb 02		 jmp	 SHORT $L107166
$L107165:
  00068	33 ff		 xor	 edi, edi
$L107166:

; 553  : 	      pointer __new_finish = __new_start;
; 554  : 	      _STLP_TRY {
; 555  : 	        __new_finish = uninitialized_copy(this->_M_start, this->_M_finish, __new_start);

  0006a	8b 46 04	 mov	 eax, DWORD PTR [esi+4]
  0006d	8b 0e		 mov	 ecx, DWORD PTR [esi]
  0006f	57		 push	 edi
  00070	50		 push	 eax
  00071	51		 push	 ecx
  00072	e8 00 00 00 00	 call	 ?__copy_trivial@_STL@@YAPAXPBX0PAX@Z ; _STL::__copy_trivial

; 556  : 	        __new_finish = uninitialized_copy(__first, __last, __new_finish);

  00077	50		 push	 eax
  00078	ff 75 0c	 push	 DWORD PTR ___last$[ebp]
  0007b	ff 75 08	 push	 DWORD PTR ___first$[ebp]
  0007e	e8 00 00 00 00	 call	 ?__copy_trivial@_STL@@YAPAXPBX0PAX@Z ; _STL::__copy_trivial
  00083	8b d8		 mov	 ebx, eax
  00085	83 c4 18	 add	 esp, 24			; 00000018H

; 557  : 	        _M_construct_null(__new_finish);
; 558  : 	      }
; 559  : 	      _STLP_UNWIND((_STLP_STD::_Destroy(__new_start,__new_finish),
; 560  : 	                    this->_M_end_of_storage.deallocate(__new_start,__len)));
; 561  : 	      _STLP_STD::_Destroy(this->_M_start, this->_M_finish + 1);
; 562  : 	      this->_M_deallocate_block();

  00088	8b ce		 mov	 ecx, esi
  0008a	c6 03 00	 mov	 BYTE PTR [ebx], 0
  0008d	e8 00 00 00 00	 call	 ?_M_deallocate_block@?$_String_base@DV?$allocator@D@_STL@@@_STL@@QAEXXZ ; _STL::_String_base<char,_STL::allocator<char> >::_M_deallocate_block

; 563  : 	      this->_M_start = __new_start;
; 564  : 	      this->_M_finish = __new_finish;
; 565  : 	      this->_M_end_of_storage._M_data = __new_start + __len; 

  00092	8b 45 f8	 mov	 eax, DWORD PTR ___len$105868[ebp]
  00095	89 3e		 mov	 DWORD PTR [esi], edi
  00097	03 f8		 add	 edi, eax
  00099	89 5e 04	 mov	 DWORD PTR [esi+4], ebx
  0009c	89 7e 08	 mov	 DWORD PTR [esi+8], edi

; 566  : 	    }
; 567  : 	    else {

  0009f	eb 29		 jmp	 SHORT $L107297
$L105867:

; 568  : 	      _ForwardIter __f1 = __first;
; 569  : 	      ++__f1;
; 570  : 	      uninitialized_copy(__f1, __last, this->_M_finish + 1);

  000a1	8b 46 04	 mov	 eax, DWORD PTR [esi+4]
  000a4	40		 inc	 eax
  000a5	50		 push	 eax
  000a6	8b 45 08	 mov	 eax, DWORD PTR ___first$[ebp]
  000a9	ff 75 0c	 push	 DWORD PTR ___last$[ebp]
  000ac	40		 inc	 eax
  000ad	50		 push	 eax
  000ae	e8 00 00 00 00	 call	 ?__copy_trivial@_STL@@YAPAXPBX0PAX@Z ; _STL::__copy_trivial

; 571  : 	      _STLP_TRY {
; 572  : 	        _M_construct_null(this->_M_finish + __n);

  000b3	8b 46 04	 mov	 eax, DWORD PTR [esi+4]

; 573  : 	      }
; 574  : 	      _STLP_UNWIND(_STLP_STD::_Destroy(this->_M_finish + 1, this->_M_finish + __n));
; 575  : 	      _Traits::assign(*end(), *__first);

  000b6	8b 4d 08	 mov	 ecx, DWORD PTR ___first$[ebp]
  000b9	c6 04 07 00	 mov	 BYTE PTR [edi+eax], 0
  000bd	8b 46 04	 mov	 eax, DWORD PTR [esi+4]
  000c0	8a 09		 mov	 cl, BYTE PTR [ecx]
  000c2	83 c4 0c	 add	 esp, 12			; 0000000cH
  000c5	88 08		 mov	 BYTE PTR [eax], cl

; 576  : 	      this->_M_finish += __n;

  000c7	01 7e 04	 add	 DWORD PTR [esi+4], edi
$L107297:
  000ca	5b		 pop	 ebx
$L105874:
  000cb	5f		 pop	 edi

; 577  : 	    }
; 578  : 	  }
; 579  : 	  return *this;  

  000cc	8b c6		 mov	 eax, esi
  000ce	5e		 pop	 esi

; 580  : 	}

  000cf	c9		 leave
  000d0	c2 0c 00	 ret	 12			; 0000000cH
??$append@PBD@?$basic_string@DV?$char_traits@D@_STL@@V?$allocator@D@2@@_STL@@AAEAAV01@PBD0ABUforward_iterator_tag@1@@Z ENDP ; _STL::basic_string<char,_STL::char_traits<char>,_STL::allocator<char> >::append<char const *>
_TEXT	ENDS
PUBLIC	??1?$_String_base@DV?$allocator@D@_STL@@@_STL@@QAE@XZ ; _STL::_String_base<char,_STL::allocator<char> >::~_String_base<char,_STL::allocator<char> >
; Function compile flags: /Ogsy
;	COMDAT ??1?$_String_base@DV?$allocator@D@_STL@@@_STL@@QAE@XZ
_TEXT	SEGMENT
??1?$_String_base@DV?$allocator@D@_STL@@@_STL@@QAE@XZ PROC NEAR ; _STL::_String_base<char,_STL::allocator<char> >::~_String_base<char,_STL::allocator<char> >, COMDAT
; _this$ = ecx

; 135  :   ~_String_base() { _M_deallocate_block(); }

  00000	e9 00 00 00 00	 jmp	 ?_M_deallocate_block@?$_String_base@DV?$allocator@D@_STL@@@_STL@@QAEXXZ ; _STL::_String_base<char,_STL::allocator<char> >::_M_deallocate_block
??1?$_String_base@DV?$allocator@D@_STL@@@_STL@@QAE@XZ ENDP ; _STL::_String_base<char,_STL::allocator<char> >::~_String_base<char,_STL::allocator<char> >
_TEXT	ENDS
PUBLIC	??0?$basic_string@DV?$char_traits@D@_STL@@V?$allocator@D@2@@_STL@@QAE@XZ ; _STL::basic_string<char,_STL::char_traits<char>,_STL::allocator<char> >::basic_string<char,_STL::char_traits<char>,_STL::allocator<char> >
EXTRN	__EH_prolog:NEAR
EXTRN	__except_list:DWORD
EXTRN	___CxxFrameHandler:NEAR
;	COMDAT xdata$x
xdata$x	SEGMENT
$T107351 DD	0ffffffffH
	DD	FLAT:$L107304
$T107347 DD	019930520H
	DD	01H
	DD	FLAT:$T107351
	DD	2 DUP(00H)
	DD	2 DUP(00H)
; Function compile flags: /Ogsy
; File c:\stlport-4.6.1\stlport\stl\_string.c
xdata$x	ENDS
;	COMDAT ??0?$basic_string@DV?$char_traits@D@_STL@@V?$allocator@D@2@@_STL@@QAE@XZ
_TEXT	SEGMENT
_this$ = -20						; size = 4
$T107303 = -13						; size = 1
__$EHRec$ = -12						; size = 12
??0?$basic_string@DV?$char_traits@D@_STL@@V?$allocator@D@2@@_STL@@QAE@XZ PROC NEAR ; _STL::basic_string<char,_STL::char_traits<char>,_STL::allocator<char> >::basic_string<char,_STL::char_traits<char>,_STL::allocator<char> >, COMDAT
; _this$ = ecx

; 541  :   : _String_base<_CharT,_Alloc>(allocator_type()) {  

  00000	b8 00 00 00 00	 mov	 eax, __ehhandler$??0?$basic_string@DV?$char_traits@D@_STL@@V?$allocator@D@2@@_STL@@QAE@XZ
  00005	e8 00 00 00 00	 call	 __EH_prolog
  0000a	51		 push	 ecx
  0000b	51		 push	 ecx
  0000c	56		 push	 esi
  0000d	8d 45 f3	 lea	 eax, DWORD PTR $T107303[ebp]
  00010	8b f1		 mov	 esi, ecx
  00012	50		 push	 eax
  00013	89 75 ec	 mov	 DWORD PTR _this$[ebp], esi
  00016	e8 00 00 00 00	 call	 ??0?$_String_base@DV?$allocator@D@_STL@@@_STL@@QAE@ABV?$allocator@D@1@@Z ; _STL::_String_base<char,_STL::allocator<char> >::_String_base<char,_STL::allocator<char> >
  0001b	83 65 fc 00	 and	 DWORD PTR __$EHRec$[ebp+8], 0

; 542  :   this->_M_start = this->_M_end_of_storage.allocate(8); 

  0001f	6a 08		 push	 8
  00021	e8 00 00 00 00	 call	 ?_M_allocate@?$__node_alloc@$00$0A@@_STL@@CAPAXI@Z ; _STL::__node_alloc<1,0>::_M_allocate
  00026	59		 pop	 ecx

; 543  :   this->_M_finish = this->_M_start; 
; 544  :   this->_M_end_of_storage._M_data = this->_M_start + 8; 

  00027	8d 48 08	 lea	 ecx, DWORD PTR [eax+8]
  0002a	89 06		 mov	 DWORD PTR [esi], eax
  0002c	89 46 04	 mov	 DWORD PTR [esi+4], eax
  0002f	89 4e 08	 mov	 DWORD PTR [esi+8], ecx

; 545  :   _M_terminate_string();  
; 546  : } 

  00032	8b 4d f4	 mov	 ecx, DWORD PTR __$EHRec$[ebp]
  00035	c6 00 00	 mov	 BYTE PTR [eax], 0
  00038	8b c6		 mov	 eax, esi
  0003a	5e		 pop	 esi
  0003b	64 89 0d 00 00
	00 00		 mov	 DWORD PTR fs:__except_list, ecx
  00042	c9		 leave
  00043	c3		 ret	 0
_TEXT	ENDS
;	COMDAT text$x
text$x	SEGMENT
$L107304:
  00000	8b 4d ec	 mov	 ecx, DWORD PTR _this$[ebp]
  00003	e9 00 00 00 00	 jmp	 ??1?$_String_base@DV?$allocator@D@_STL@@@_STL@@QAE@XZ ; _STL::_String_base<char,_STL::allocator<char> >::~_String_base<char,_STL::allocator<char> >
__ehhandler$??0?$basic_string@DV?$char_traits@D@_STL@@V?$allocator@D@2@@_STL@@QAE@XZ:
  00008	b8 00 00 00 00	 mov	 eax, OFFSET FLAT:$T107347
  0000d	e9 00 00 00 00	 jmp	 ___CxxFrameHandler
text$x	ENDS
??0?$basic_string@DV?$char_traits@D@_STL@@V?$allocator@D@2@@_STL@@QAE@XZ ENDP ; _STL::basic_string<char,_STL::char_traits<char>,_STL::allocator<char> >::basic_string<char,_STL::char_traits<char>,_STL::allocator<char> >
PUBLIC	??$_M_append_dispatch@PBD@?$basic_string@DV?$char_traits@D@_STL@@V?$allocator@D@2@@_STL@@AAEAAV01@PBD0ABU__false_type@1@@Z ; _STL::basic_string<char,_STL::char_traits<char>,_STL::allocator<char> >::_M_append_dispatch<char const *>
; Function compile flags: /Ogsy
; File c:\stlport-4.6.1\stlport\stl\_string.h
;	COMDAT ??$_M_append_dispatch@PBD@?$basic_string@DV?$char_traits@D@_STL@@V?$allocator@D@2@@_STL@@AAEAAV01@PBD0ABU__false_type@1@@Z
_TEXT	SEGMENT
___f$ = 8						; size = 4
___l$ = 12						; size = 4
$T107357 = 15						; size = 1
___formal$ = 16						; size = 4
??$_M_append_dispatch@PBD@?$basic_string@DV?$char_traits@D@_STL@@V?$allocator@D@2@@_STL@@AAEAAV01@PBD0ABU__false_type@1@@Z PROC NEAR ; _STL::basic_string<char,_STL::char_traits<char>,_STL::allocator<char> >::_M_append_dispatch<char const *>, COMDAT
; _this$ = ecx

; 586  :   template <class _InputIter> _Self& _M_append_dispatch(_InputIter __f, _InputIter __l,

  00000	55		 push	 ebp
  00001	8b ec		 mov	 ebp, esp

; 587  :                                    const __false_type&) {
; 588  :     return append(__f, __l, _STLP_ITERATOR_CATEGORY(__f, _InputIter));

  00003	8d 45 0f	 lea	 eax, DWORD PTR $T107357[ebp]
  00006	50		 push	 eax
  00007	ff 75 0c	 push	 DWORD PTR ___l$[ebp]
  0000a	ff 75 08	 push	 DWORD PTR ___f$[ebp]
  0000d	e8 00 00 00 00	 call	 ??$append@PBD@?$basic_string@DV?$char_traits@D@_STL@@V?$allocator@D@2@@_STL@@AAEAAV01@PBD0ABUforward_iterator_tag@1@@Z ; _STL::basic_string<char,_STL::char_traits<char>,_STL::allocator<char> >::append<char const *>

; 589  :   }

  00012	5d		 pop	 ebp
  00013	c2 0c 00	 ret	 12			; 0000000cH
??$_M_append_dispatch@PBD@?$basic_string@DV?$char_traits@D@_STL@@V?$allocator@D@2@@_STL@@AAEAAV01@PBD0ABU__false_type@1@@Z ENDP ; _STL::basic_string<char,_STL::char_traits<char>,_STL::allocator<char> >::_M_append_dispatch<char const *>
_TEXT	ENDS
PUBLIC	??1?$basic_string@DV?$char_traits@D@_STL@@V?$allocator@D@2@@_STL@@QAE@XZ ; _STL::basic_string<char,_STL::char_traits<char>,_STL::allocator<char> >::~basic_string<char,_STL::char_traits<char>,_STL::allocator<char> >
; Function compile flags: /Ogsy
;	COMDAT ??1?$basic_string@DV?$char_traits@D@_STL@@V?$allocator@D@2@@_STL@@QAE@XZ
_TEXT	SEGMENT
??1?$basic_string@DV?$char_traits@D@_STL@@V?$allocator@D@2@@_STL@@QAE@XZ PROC NEAR ; _STL::basic_string<char,_STL::char_traits<char>,_STL::allocator<char> >::~basic_string<char,_STL::char_traits<char>,_STL::allocator<char> >, COMDAT
; _this$ = ecx

; 305  :   ~basic_string() { _STLP_STD::_Destroy(this->_M_start, this->_M_finish + 1); }

  00000	e9 00 00 00 00	 jmp	 ?_M_deallocate_block@?$_String_base@DV?$allocator@D@_STL@@@_STL@@QAEXXZ ; _STL::_String_base<char,_STL::allocator<char> >::_M_deallocate_block
??1?$basic_string@DV?$char_traits@D@_STL@@V?$allocator@D@2@@_STL@@QAE@XZ ENDP ; _STL::basic_string<char,_STL::char_traits<char>,_STL::allocator<char> >::~basic_string<char,_STL::char_traits<char>,_STL::allocator<char> >
_TEXT	ENDS
PUBLIC	??_R4iovfs_base@@6B@				; iovfs_base::`RTTI Complete Object Locator'
PUBLIC	??_R0?AViovfs_base@@@8				; iovfs_base `RTTI Type Descriptor'
PUBLIC	??_R3iovfs_base@@8				; iovfs_base::`RTTI Class Hierarchy Descriptor'
PUBLIC	??_R2iovfs_base@@8				; iovfs_base::`RTTI Base Class Array'
PUBLIC	??_R1A@?0A@A@iovfs_base@@8			; iovfs_base::`RTTI Base Class Descriptor at (0,-1,0,0)'
PUBLIC	??1iovfs_base@@UAE@XZ				; iovfs_base::~iovfs_base
PUBLIC	??_7iovfs_base@@6B@				; iovfs_base::`vftable'
PUBLIC	??_Giovfs_base@@UAEPAXI@Z			; iovfs_base::`scalar deleting destructor'
EXTRN	?close@iovfs_base@@QAEXXZ:NEAR			; iovfs_base::close
EXTRN	??_Eiovfs_base@@UAEPAXI@Z:NEAR			; iovfs_base::`vector deleting destructor'
;	COMDAT xdata$x
; File c:\darkeden\designed_common\project\client\virtualfilesystem\vfstream.inl
xdata$x	SEGMENT
$T107386 DD	0ffffffffH
	DD	FLAT:$L107382
$T107384 DD	019930520H
	DD	01H
	DD	FLAT:$T107386
	DD	2 DUP(00H)
	DD	2 DUP(00H)
xdata$x	ENDS
;	COMDAT ??_7iovfs_base@@6B@
CONST	SEGMENT
??_7iovfs_base@@6B@ DD FLAT:??_R4iovfs_base@@6B@	; iovfs_base::`vftable'
	DD	FLAT:??_Eiovfs_base@@UAEPAXI@Z
	DD	FLAT:?open@iovfs_base@@UAEXPBDH@Z
CONST	ENDS
;	COMDAT ??_R4iovfs_base@@6B@
rdata$r	SEGMENT
??_R4iovfs_base@@6B@ DD 00H				; iovfs_base::`RTTI Complete Object Locator'
	DD	00H
	DD	00H
	DD	FLAT:??_R0?AViovfs_base@@@8
	DD	FLAT:??_R3iovfs_base@@8
rdata$r	ENDS
;	COMDAT ??_R0?AViovfs_base@@@8
_DATA	SEGMENT
??_R0?AViovfs_base@@@8 DD FLAT:??_7type_info@@6B@	; iovfs_base `RTTI Type Descriptor'
	DD	00H
	DB	'.?AViovfs_base@@', 00H
_DATA	ENDS
;	COMDAT ??_R3iovfs_base@@8
rdata$r	SEGMENT
??_R3iovfs_base@@8 DD 00H				; iovfs_base::`RTTI Class Hierarchy Descriptor'
	DD	00H
	DD	01H
	DD	FLAT:??_R2iovfs_base@@8
rdata$r	ENDS
;	COMDAT ??_R2iovfs_base@@8
rdata$r	SEGMENT
??_R2iovfs_base@@8 DD FLAT:??_R1A@?0A@A@iovfs_base@@8	; iovfs_base::`RTTI Base Class Array'
rdata$r	ENDS
;	COMDAT ??_R1A@?0A@A@iovfs_base@@8
rdata$r	SEGMENT
??_R1A@?0A@A@iovfs_base@@8 DD FLAT:??_R0?AViovfs_base@@@8 ; iovfs_base::`RTTI Base Class Descriptor at (0,-1,0,0)'
	DD	00H
	DD	00H
	DD	0ffffffffH
	DD	00H
	DD	00H
; Function compile flags: /Ogsy
rdata$r	ENDS
;	COMDAT ??1iovfs_base@@UAE@XZ
_TEXT	SEGMENT
_this$ = -16						; size = 4
__$EHRec$ = -12						; size = 12
??1iovfs_base@@UAE@XZ PROC NEAR				; iovfs_base::~iovfs_base, COMDAT
; _this$ = ecx

; 22   : {

  00000	b8 00 00 00 00	 mov	 eax, __ehhandler$??1iovfs_base@@UAE@XZ
  00005	e8 00 00 00 00	 call	 __EH_prolog
  0000a	51		 push	 ecx
  0000b	56		 push	 esi
  0000c	8b f1		 mov	 esi, ecx
  0000e	89 75 f0	 mov	 DWORD PTR _this$[ebp], esi
  00011	c7 06 00 00 00
	00		 mov	 DWORD PTR [esi], OFFSET FLAT:??_7iovfs_base@@6B@
  00017	83 65 fc 00	 and	 DWORD PTR __$EHRec$[ebp+8], 0

; 23   : 	close();

  0001b	e8 00 00 00 00	 call	 ?close@iovfs_base@@QAEXXZ ; iovfs_base::close

; 24   : }

  00020	83 4d fc ff	 or	 DWORD PTR __$EHRec$[ebp+8], -1
  00024	68 00 00 00 00	 push	 OFFSET FLAT:??1?$basic_string@DV?$char_traits@D@_STL@@V?$allocator@D@2@@_STL@@QAE@XZ ; _STL::basic_string<char,_STL::char_traits<char>,_STL::allocator<char> >::~basic_string<char,_STL::char_traits<char>,_STL::allocator<char> >
  00029	6a 06		 push	 6
  0002b	6a 0c		 push	 12			; 0000000cH
  0002d	83 c6 08	 add	 esi, 8
  00030	56		 push	 esi
  00031	e8 00 00 00 00	 call	 ??_M@YGXPAXIHP6EX0@Z@Z
  00036	8b 4d f4	 mov	 ecx, DWORD PTR __$EHRec$[ebp]
  00039	5e		 pop	 esi
  0003a	64 89 0d 00 00
	00 00		 mov	 DWORD PTR fs:__except_list, ecx
  00041	c9		 leave
  00042	c3		 ret	 0
_TEXT	ENDS
;	COMDAT text$x
text$x	SEGMENT
$L107382:
  00000	68 00 00 00 00	 push	 OFFSET FLAT:??1?$basic_string@DV?$char_traits@D@_STL@@V?$allocator@D@2@@_STL@@QAE@XZ ; _STL::basic_string<char,_STL::char_traits<char>,_STL::allocator<char> >::~basic_string<char,_STL::char_traits<char>,_STL::allocator<char> >
  00005	6a 06		 push	 6
  00007	6a 0c		 push	 12			; 0000000cH
  00009	8b 45 f0	 mov	 eax, DWORD PTR _this$[ebp]
  0000c	83 c0 08	 add	 eax, 8
  0000f	50		 push	 eax
  00010	e8 00 00 00 00	 call	 ??_M@YGXPAXIHP6EX0@Z@Z
  00015	c3		 ret	 0
__ehhandler$??1iovfs_base@@UAE@XZ:
  00016	b8 00 00 00 00	 mov	 eax, OFFSET FLAT:$T107384
  0001b	e9 00 00 00 00	 jmp	 ___CxxFrameHandler
text$x	ENDS
??1iovfs_base@@UAE@XZ ENDP				; iovfs_base::~iovfs_base
PUBLIC	??_R4ivfstream@@6B@				; ivfstream::`RTTI Complete Object Locator'
PUBLIC	??_R0?AVivfstream@@@8				; ivfstream `RTTI Type Descriptor'
PUBLIC	??_R3ivfstream@@8				; ivfstream::`RTTI Class Hierarchy Descriptor'
PUBLIC	??_R2ivfstream@@8				; ivfstream::`RTTI Base Class Array'
PUBLIC	??_R1A@?0A@A@ivfstream@@8			; ivfstream::`RTTI Base Class Descriptor at (0,-1,0,0)'
PUBLIC	??1ivfstream@@UAE@XZ				; ivfstream::~ivfstream
PUBLIC	??_7ivfstream@@6B@				; ivfstream::`vftable'
PUBLIC	??_Givfstream@@UAEPAXI@Z			; ivfstream::`scalar deleting destructor'
EXTRN	??_Eivfstream@@UAEPAXI@Z:NEAR			; ivfstream::`vector deleting destructor'
;	COMDAT ??_7ivfstream@@6B@
CONST	SEGMENT
??_7ivfstream@@6B@ DD FLAT:??_R4ivfstream@@6B@		; ivfstream::`vftable'
	DD	FLAT:??_Eivfstream@@UAEPAXI@Z
	DD	FLAT:?open@ivfstream@@UAEXPBDH@Z
CONST	ENDS
;	COMDAT ??_R4ivfstream@@6B@
rdata$r	SEGMENT
??_R4ivfstream@@6B@ DD 00H				; ivfstream::`RTTI Complete Object Locator'
	DD	00H
	DD	00H
	DD	FLAT:??_R0?AVivfstream@@@8
	DD	FLAT:??_R3ivfstream@@8
rdata$r	ENDS
;	COMDAT ??_R0?AVivfstream@@@8
_DATA	SEGMENT
??_R0?AVivfstream@@@8 DD FLAT:??_7type_info@@6B@	; ivfstream `RTTI Type Descriptor'
	DD	00H
	DB	'.?AVivfstream@@', 00H
_DATA	ENDS
;	COMDAT ??_R3ivfstream@@8
rdata$r	SEGMENT
??_R3ivfstream@@8 DD 00H				; ivfstream::`RTTI Class Hierarchy Descriptor'
	DD	00H
	DD	02H
	DD	FLAT:??_R2ivfstream@@8
rdata$r	ENDS
;	COMDAT ??_R2ivfstream@@8
rdata$r	SEGMENT
??_R2ivfstream@@8 DD FLAT:??_R1A@?0A@A@ivfstream@@8	; ivfstream::`RTTI Base Class Array'
	DD	FLAT:??_R1A@?0A@A@iovfs_base@@8
rdata$r	ENDS
;	COMDAT ??_R1A@?0A@A@ivfstream@@8
rdata$r	SEGMENT
??_R1A@?0A@A@ivfstream@@8 DD FLAT:??_R0?AVivfstream@@@8	; ivfstream::`RTTI Base Class Descriptor at (0,-1,0,0)'
	DD	01H
	DD	00H
	DD	0ffffffffH
	DD	00H
	DD	00H
; Function compile flags: /Ogsy
rdata$r	ENDS
;	COMDAT ??1ivfstream@@UAE@XZ
_TEXT	SEGMENT
??1ivfstream@@UAE@XZ PROC NEAR				; ivfstream::~ivfstream, COMDAT
; _this$ = ecx

; 70   : {

  00000	c7 01 00 00 00
	00		 mov	 DWORD PTR [ecx], OFFSET FLAT:??_7ivfstream@@6B@

; 71   : 
; 72   : }

  00006	e9 00 00 00 00	 jmp	 ??1iovfs_base@@UAE@XZ	; iovfs_base::~iovfs_base
??1ivfstream@@UAE@XZ ENDP				; ivfstream::~ivfstream
_TEXT	ENDS
PUBLIC	??$append@PBD@?$basic_string@DV?$char_traits@D@_STL@@V?$allocator@D@2@@_STL@@QAEAAV01@PBD0@Z ; _STL::basic_string<char,_STL::char_traits<char>,_STL::allocator<char> >::append<char const *>
; Function compile flags: /Ogsy
; File c:\stlport-4.6.1\stlport\stl\_string.h
;	COMDAT ??$append@PBD@?$basic_string@DV?$char_traits@D@_STL@@V?$allocator@D@2@@_STL@@QAEAAV01@PBD0@Z
_TEXT	SEGMENT
___first$ = 8						; size = 4
___last$ = 12						; size = 4
$T107400 = 15						; size = 1
??$append@PBD@?$basic_string@DV?$char_traits@D@_STL@@V?$allocator@D@2@@_STL@@QAEAAV01@PBD0@Z PROC NEAR ; _STL::basic_string<char,_STL::char_traits<char>,_STL::allocator<char> >::append<char const *>, COMDAT
; _this$ = ecx

; 506  :   template <class _InputIter> _Self& append(_InputIter __first, _InputIter __last) {

  00000	55		 push	 ebp
  00001	8b ec		 mov	 ebp, esp

; 507  :     typedef typename _Is_integer<_InputIter>::_Integral _Integral;
; 508  :     return _M_append_dispatch(__first, __last, _Integral());

  00003	8d 45 0f	 lea	 eax, DWORD PTR $T107400[ebp]
  00006	50		 push	 eax
  00007	ff 75 0c	 push	 DWORD PTR ___last$[ebp]
  0000a	ff 75 08	 push	 DWORD PTR ___first$[ebp]
  0000d	e8 00 00 00 00	 call	 ??$append@PBD@?$basic_string@DV?$char_traits@D@_STL@@V?$allocator@D@2@@_STL@@AAEAAV01@PBD0ABUforward_iterator_tag@1@@Z ; _STL::basic_string<char,_STL::char_traits<char>,_STL::allocator<char> >::append<char const *>

; 509  :   }

  00012	5d		 pop	 ebp
  00013	c2 08 00	 ret	 8
??$append@PBD@?$basic_string@DV?$char_traits@D@_STL@@V?$allocator@D@2@@_STL@@QAEAAV01@PBD0@Z ENDP ; _STL::basic_string<char,_STL::char_traits<char>,_STL::allocator<char> >::append<char const *>
; Function compile flags: /Ogsy
_TEXT	ENDS
;	COMDAT ??_Giovfs_base@@UAEPAXI@Z
_TEXT	SEGMENT
___flags$ = 8						; size = 4
??_Giovfs_base@@UAEPAXI@Z PROC NEAR			; iovfs_base::`scalar deleting destructor', COMDAT
; _this$ = ecx
  00000	56		 push	 esi
  00001	8b f1		 mov	 esi, ecx
  00003	e8 00 00 00 00	 call	 ??1iovfs_base@@UAE@XZ	; iovfs_base::~iovfs_base
  00008	f6 44 24 08 01	 test	 BYTE PTR ___flags$[esp], 1
  0000d	74 07		 je	 SHORT $L100362
  0000f	56		 push	 esi
  00010	e8 00 00 00 00	 call	 ??3@YAXPAX@Z		; operator delete
  00015	59		 pop	 ecx
$L100362:
  00016	8b c6		 mov	 eax, esi
  00018	5e		 pop	 esi
  00019	c2 04 00	 ret	 4
??_Giovfs_base@@UAEPAXI@Z ENDP				; iovfs_base::`scalar deleting destructor'
; Function compile flags: /Ogsy
_TEXT	ENDS
;	COMDAT ??_Givfstream@@UAEPAXI@Z
_TEXT	SEGMENT
___flags$ = 8						; size = 4
??_Givfstream@@UAEPAXI@Z PROC NEAR			; ivfstream::`scalar deleting destructor', COMDAT
; _this$ = ecx
  00000	56		 push	 esi
  00001	8b f1		 mov	 esi, ecx
  00003	e8 00 00 00 00	 call	 ??1ivfstream@@UAE@XZ	; ivfstream::~ivfstream
  00008	f6 44 24 08 01	 test	 BYTE PTR ___flags$[esp], 1
  0000d	74 07		 je	 SHORT $L100402
  0000f	56		 push	 esi
  00010	e8 00 00 00 00	 call	 ??3@YAXPAX@Z		; operator delete
  00015	59		 pop	 ecx
$L100402:
  00016	8b c6		 mov	 eax, esi
  00018	5e		 pop	 esi
  00019	c2 04 00	 ret	 4
??_Givfstream@@UAEPAXI@Z ENDP				; ivfstream::`scalar deleting destructor'
_TEXT	ENDS
PUBLIC	?assign@?$basic_string@DV?$char_traits@D@_STL@@V?$allocator@D@2@@_STL@@QAEAAV12@PBD0@Z ; _STL::basic_string<char,_STL::char_traits<char>,_STL::allocator<char> >::assign
; Function compile flags: /Ogsy
;	COMDAT ?assign@?$basic_string@DV?$char_traits@D@_STL@@V?$allocator@D@2@@_STL@@QAEAAV12@PBD0@Z
_TEXT	SEGMENT
___f$ = 8						; size = 4
___l$ = 12						; size = 4
$T107455 = 15						; size = 1
?assign@?$basic_string@DV?$char_traits@D@_STL@@V?$allocator@D@2@@_STL@@QAEAAV12@PBD0@Z PROC NEAR ; _STL::basic_string<char,_STL::char_traits<char>,_STL::allocator<char> >::assign, COMDAT
; _this$ = ecx

; 650  :   {

  00000	55		 push	 ebp
  00001	8b ec		 mov	 ebp, esp
  00003	53		 push	 ebx

; 651  :     ptrdiff_t __n = __l - __f;

  00004	8b 5d 08	 mov	 ebx, DWORD PTR ___f$[ebp]
  00007	56		 push	 esi
  00008	8b f1		 mov	 esi, ecx

; 652  :     if (__STATIC_CAST(size_type,__n) <= size()) {

  0000a	8b 0e		 mov	 ecx, DWORD PTR [esi]
  0000c	8b 46 04	 mov	 eax, DWORD PTR [esi+4]
  0000f	57		 push	 edi
  00010	8b 7d 0c	 mov	 edi, DWORD PTR ___l$[ebp]
  00013	2b fb		 sub	 edi, ebx
  00015	2b c1		 sub	 eax, ecx
  00017	3b f8		 cmp	 edi, eax
  00019	77 20		 ja	 SHORT $L103857

; 653  :       _Traits::copy(this->_M_start, __f, __n);

  0001b	85 ff		 test	 edi, edi
  0001d	74 0b		 je	 SHORT $L107418
  0001f	57		 push	 edi
  00020	53		 push	 ebx
  00021	51		 push	 ecx
  00022	e8 00 00 00 00	 call	 _memcpy
  00027	83 c4 0c	 add	 esp, 12			; 0000000cH
$L107418:

; 654  :       erase(begin() + __n, end());

  0002a	8b 06		 mov	 eax, DWORD PTR [esi]
  0002c	ff 76 04	 push	 DWORD PTR [esi+4]
  0002f	03 c7		 add	 eax, edi
  00031	50		 push	 eax
  00032	8b ce		 mov	 ecx, esi
  00034	e8 00 00 00 00	 call	 ?erase@?$basic_string@DV?$char_traits@D@_STL@@V?$allocator@D@2@@_STL@@QAEPADPAD0@Z ; _STL::basic_string<char,_STL::char_traits<char>,_STL::allocator<char> >::erase

; 655  :     }
; 656  :     else {

  00039	eb 25		 jmp	 SHORT $L107450
$L103857:

; 657  :       _Traits::copy(this->_M_start, __f, size());

  0003b	85 c0		 test	 eax, eax
  0003d	74 0b		 je	 SHORT $L107437
  0003f	50		 push	 eax
  00040	53		 push	 ebx
  00041	51		 push	 ecx
  00042	e8 00 00 00 00	 call	 _memcpy
  00047	83 c4 0c	 add	 esp, 12			; 0000000cH
$L107437:

; 658  :       append(__f + size(), __l);

  0004a	8d 45 0f	 lea	 eax, DWORD PTR $T107455[ebp]
  0004d	50		 push	 eax
  0004e	8b 46 04	 mov	 eax, DWORD PTR [esi+4]
  00051	2b 06		 sub	 eax, DWORD PTR [esi]
  00053	ff 75 0c	 push	 DWORD PTR ___l$[ebp]
  00056	03 c3		 add	 eax, ebx
  00058	50		 push	 eax
  00059	8b ce		 mov	 ecx, esi
  0005b	e8 00 00 00 00	 call	 ??$append@PBD@?$basic_string@DV?$char_traits@D@_STL@@V?$allocator@D@2@@_STL@@AAEAAV01@PBD0ABUforward_iterator_tag@1@@Z ; _STL::basic_string<char,_STL::char_traits<char>,_STL::allocator<char> >::append<char const *>
$L107450:
  00060	5f		 pop	 edi

; 659  :     }
; 660  :     return *this;

  00061	8b c6		 mov	 eax, esi
  00063	5e		 pop	 esi
  00064	5b		 pop	 ebx

; 661  :   }

  00065	5d		 pop	 ebp
  00066	c2 08 00	 ret	 8
?assign@?$basic_string@DV?$char_traits@D@_STL@@V?$allocator@D@2@@_STL@@QAEAAV12@PBD0@Z ENDP ; _STL::basic_string<char,_STL::char_traits<char>,_STL::allocator<char> >::assign
_TEXT	ENDS
PUBLIC	??4?$basic_string@DV?$char_traits@D@_STL@@V?$allocator@D@2@@_STL@@QAEAAV01@PBD@Z ; _STL::basic_string<char,_STL::char_traits<char>,_STL::allocator<char> >::operator=
; Function compile flags: /Ogsy
;	COMDAT ??4?$basic_string@DV?$char_traits@D@_STL@@V?$allocator@D@2@@_STL@@QAEAAV01@PBD@Z
_TEXT	SEGMENT
___s$ = 8						; size = 4
??4?$basic_string@DV?$char_traits@D@_STL@@V?$allocator@D@2@@_STL@@QAEAAV01@PBD@Z PROC NEAR ; _STL::basic_string<char,_STL::char_traits<char>,_STL::allocator<char> >::operator=, COMDAT
; _this$ = ecx

; 313  :   _Self& operator=(const _CharT* __s) { 

  00000	56		 push	 esi

; 314  :     _STLP_FIX_LITERAL_BUG(__s)
; 315  :     return assign(__s, __s + traits_type::length(__s)); 

  00001	8b 74 24 08	 mov	 esi, DWORD PTR ___s$[esp]
  00005	57		 push	 edi
  00006	56		 push	 esi
  00007	8b f9		 mov	 edi, ecx
  00009	e8 00 00 00 00	 call	 _strlen
  0000e	59		 pop	 ecx
  0000f	03 c6		 add	 eax, esi
  00011	50		 push	 eax
  00012	56		 push	 esi
  00013	8b cf		 mov	 ecx, edi
  00015	e8 00 00 00 00	 call	 ?assign@?$basic_string@DV?$char_traits@D@_STL@@V?$allocator@D@2@@_STL@@QAEAAV12@PBD0@Z ; _STL::basic_string<char,_STL::char_traits<char>,_STL::allocator<char> >::assign
  0001a	5f		 pop	 edi
  0001b	5e		 pop	 esi

; 316  :   }

  0001c	c2 04 00	 ret	 4
??4?$basic_string@DV?$char_traits@D@_STL@@V?$allocator@D@2@@_STL@@QAEAAV01@PBD@Z ENDP ; _STL::basic_string<char,_STL::char_traits<char>,_STL::allocator<char> >::operator=
_TEXT	ENDS
PUBLIC	??_C@_0BN@ODLNCKCA@Data?2?2Info?2?2ClientConfig?4inf?$AA@ ; `string'
PUBLIC	??_C@_0BM@DFPLPGPC@Data?2?2Info?2?2GuildMapper?4inf?$AA@ ; `string'
PUBLIC	??_C@_0BN@LHODHNBK@Data?2?2Info?2?2GuildVersion?4inf?$AA@ ; `string'
PUBLIC	??_C@_0BH@DDPLNCOL@Data?2?2Info?2?2Player?4inf?$AA@ ; `string'
PUBLIC	??_C@_0BL@ILLNAPHB@Data?2?2Info?2?2Resolution?4inf?$AA@ ; `string'
PUBLIC	??_C@_0CA@HEIGFDLG@Data?2?2Info?2?2SelectedChannel?4inf?$AA@ ; `string'
PUBLIC	?Init@iovfs_base@@QAEXXZ			; iovfs_base::Init
;	COMDAT ??_C@_0BN@ODLNCKCA@Data?2?2Info?2?2ClientConfig?4inf?$AA@
; File c:\darkeden\designed_common\project\client\virtualfilesystem\vfstream.inl
CONST	SEGMENT
??_C@_0BN@ODLNCKCA@Data?2?2Info?2?2ClientConfig?4inf?$AA@ DB 'Data\\Info\'
	DB	'\ClientConfig.inf', 00H			; `string'
CONST	ENDS
;	COMDAT ??_C@_0BM@DFPLPGPC@Data?2?2Info?2?2GuildMapper?4inf?$AA@
CONST	SEGMENT
??_C@_0BM@DFPLPGPC@Data?2?2Info?2?2GuildMapper?4inf?$AA@ DB 'Data\\Info\\'
	DB	'GuildMapper.inf', 00H			; `string'
CONST	ENDS
;	COMDAT ??_C@_0BN@LHODHNBK@Data?2?2Info?2?2GuildVersion?4inf?$AA@
CONST	SEGMENT
??_C@_0BN@LHODHNBK@Data?2?2Info?2?2GuildVersion?4inf?$AA@ DB 'Data\\Info\'
	DB	'\GuildVersion.inf', 00H			; `string'
CONST	ENDS
;	COMDAT ??_C@_0BH@DDPLNCOL@Data?2?2Info?2?2Player?4inf?$AA@
CONST	SEGMENT
??_C@_0BH@DDPLNCOL@Data?2?2Info?2?2Player?4inf?$AA@ DB 'Data\\Info\\Playe'
	DB	'r.inf', 00H					; `string'
CONST	ENDS
;	COMDAT ??_C@_0BL@ILLNAPHB@Data?2?2Info?2?2Resolution?4inf?$AA@
CONST	SEGMENT
??_C@_0BL@ILLNAPHB@Data?2?2Info?2?2Resolution?4inf?$AA@ DB 'Data\\Info\\R'
	DB	'esolution.inf', 00H				; `string'
CONST	ENDS
;	COMDAT ??_C@_0CA@HEIGFDLG@Data?2?2Info?2?2SelectedChannel?4inf?$AA@
CONST	SEGMENT
??_C@_0CA@HEIGFDLG@Data?2?2Info?2?2SelectedChannel?4inf?$AA@ DB 'Data\\In'
	DB	'fo\\SelectedChannel.inf', 00H		; `string'
; Function compile flags: /Ogsy
CONST	ENDS
;	COMDAT ?Init@iovfs_base@@QAEXXZ
_TEXT	SEGMENT
?Init@iovfs_base@@QAEXXZ PROC NEAR			; iovfs_base::Init, COMDAT
; _this$ = ecx

; 27   : {

  00000	56		 push	 esi
  00001	8b f1		 mov	 esi, ecx

; 28   : 	m_pFileIO = NULL;

  00003	83 66 04 00	 and	 DWORD PTR [esi+4], 0

; 29   : 
; 30   : 	m_strExceptList[0] = "Data\\\\Info\\\\ClientConfig.inf";

  00007	68 00 00 00 00	 push	 OFFSET FLAT:??_C@_0BN@ODLNCKCA@Data?2?2Info?2?2ClientConfig?4inf?$AA@
  0000c	8d 4e 08	 lea	 ecx, DWORD PTR [esi+8]
  0000f	e8 00 00 00 00	 call	 ??4?$basic_string@DV?$char_traits@D@_STL@@V?$allocator@D@2@@_STL@@QAEAAV01@PBD@Z ; _STL::basic_string<char,_STL::char_traits<char>,_STL::allocator<char> >::operator=

; 31   : 	m_strExceptList[1] = "Data\\\\Info\\\\GuildMapper.inf";

  00014	68 00 00 00 00	 push	 OFFSET FLAT:??_C@_0BM@DFPLPGPC@Data?2?2Info?2?2GuildMapper?4inf?$AA@
  00019	8d 4e 14	 lea	 ecx, DWORD PTR [esi+20]
  0001c	e8 00 00 00 00	 call	 ??4?$basic_string@DV?$char_traits@D@_STL@@V?$allocator@D@2@@_STL@@QAEAAV01@PBD@Z ; _STL::basic_string<char,_STL::char_traits<char>,_STL::allocator<char> >::operator=

; 32   : 	m_strExceptList[2] = "Data\\\\Info\\\\GuildVersion.inf";

  00021	68 00 00 00 00	 push	 OFFSET FLAT:??_C@_0BN@LHODHNBK@Data?2?2Info?2?2GuildVersion?4inf?$AA@
  00026	8d 4e 20	 lea	 ecx, DWORD PTR [esi+32]
  00029	e8 00 00 00 00	 call	 ??4?$basic_string@DV?$char_traits@D@_STL@@V?$allocator@D@2@@_STL@@QAEAAV01@PBD@Z ; _STL::basic_string<char,_STL::char_traits<char>,_STL::allocator<char> >::operator=

; 33   : 	m_strExceptList[3] = "Data\\\\Info\\\\Player.inf";

  0002e	68 00 00 00 00	 push	 OFFSET FLAT:??_C@_0BH@DDPLNCOL@Data?2?2Info?2?2Player?4inf?$AA@
  00033	8d 4e 2c	 lea	 ecx, DWORD PTR [esi+44]
  00036	e8 00 00 00 00	 call	 ??4?$basic_string@DV?$char_traits@D@_STL@@V?$allocator@D@2@@_STL@@QAEAAV01@PBD@Z ; _STL::basic_string<char,_STL::char_traits<char>,_STL::allocator<char> >::operator=

; 34   : 	m_strExceptList[4] = "Data\\\\Info\\\\Resolution.inf";

  0003b	68 00 00 00 00	 push	 OFFSET FLAT:??_C@_0BL@ILLNAPHB@Data?2?2Info?2?2Resolution?4inf?$AA@
  00040	8d 4e 38	 lea	 ecx, DWORD PTR [esi+56]
  00043	e8 00 00 00 00	 call	 ??4?$basic_string@DV?$char_traits@D@_STL@@V?$allocator@D@2@@_STL@@QAEAAV01@PBD@Z ; _STL::basic_string<char,_STL::char_traits<char>,_STL::allocator<char> >::operator=

; 35   : 	m_strExceptList[5] = "Data\\\\Info\\\\SelectedChannel.inf";

  00048	68 00 00 00 00	 push	 OFFSET FLAT:??_C@_0CA@HEIGFDLG@Data?2?2Info?2?2SelectedChannel?4inf?$AA@
  0004d	8d 4e 44	 lea	 ecx, DWORD PTR [esi+68]
  00050	e8 00 00 00 00	 call	 ??4?$basic_string@DV?$char_traits@D@_STL@@V?$allocator@D@2@@_STL@@QAEAAV01@PBD@Z ; _STL::basic_string<char,_STL::char_traits<char>,_STL::allocator<char> >::operator=
  00055	5e		 pop	 esi

; 36   : 	
; 37   : }

  00056	c3		 ret	 0
?Init@iovfs_base@@QAEXXZ ENDP				; iovfs_base::Init
_TEXT	ENDS
PUBLIC	??0iovfs_base@@QAE@XZ				; iovfs_base::iovfs_base
EXTRN	??_L@YGXPAXIHP6EX0@Z1@Z:NEAR			; `eh vector constructor iterator'
;	COMDAT xdata$x
xdata$x	SEGMENT
$T107472 DD	0ffffffffH
	DD	FLAT:$L107468
$T107470 DD	019930520H
	DD	01H
	DD	FLAT:$T107472
	DD	2 DUP(00H)
	DD	2 DUP(00H)
; Function compile flags: /Ogsy
xdata$x	ENDS
;	COMDAT ??0iovfs_base@@QAE@XZ
_TEXT	SEGMENT
_this$ = -16						; size = 4
__$EHRec$ = -12						; size = 12
??0iovfs_base@@QAE@XZ PROC NEAR				; iovfs_base::iovfs_base, COMDAT
; _this$ = ecx

; 11   : {

  00000	b8 00 00 00 00	 mov	 eax, __ehhandler$??0iovfs_base@@QAE@XZ
  00005	e8 00 00 00 00	 call	 __EH_prolog
  0000a	51		 push	 ecx
  0000b	56		 push	 esi
  0000c	68 00 00 00 00	 push	 OFFSET FLAT:??1?$basic_string@DV?$char_traits@D@_STL@@V?$allocator@D@2@@_STL@@QAE@XZ ; _STL::basic_string<char,_STL::char_traits<char>,_STL::allocator<char> >::~basic_string<char,_STL::char_traits<char>,_STL::allocator<char> >
  00011	68 00 00 00 00	 push	 OFFSET FLAT:??0?$basic_string@DV?$char_traits@D@_STL@@V?$allocator@D@2@@_STL@@QAE@XZ ; _STL::basic_string<char,_STL::char_traits<char>,_STL::allocator<char> >::basic_string<char,_STL::char_traits<char>,_STL::allocator<char> >
  00016	8b f1		 mov	 esi, ecx
  00018	6a 06		 push	 6
  0001a	6a 0c		 push	 12			; 0000000cH
  0001c	8d 46 08	 lea	 eax, DWORD PTR [esi+8]
  0001f	50		 push	 eax
  00020	89 75 f0	 mov	 DWORD PTR _this$[ebp], esi
  00023	c7 06 00 00 00
	00		 mov	 DWORD PTR [esi], OFFSET FLAT:??_7iovfs_base@@6B@
  00029	e8 00 00 00 00	 call	 ??_L@YGXPAXIHP6EX0@Z1@Z
  0002e	83 65 fc 00	 and	 DWORD PTR __$EHRec$[ebp+8], 0

; 12   : 	Init();

  00032	8b ce		 mov	 ecx, esi
  00034	e8 00 00 00 00	 call	 ?Init@iovfs_base@@QAEXXZ ; iovfs_base::Init

; 13   : }

  00039	8b 4d f4	 mov	 ecx, DWORD PTR __$EHRec$[ebp]
  0003c	8b c6		 mov	 eax, esi
  0003e	5e		 pop	 esi
  0003f	64 89 0d 00 00
	00 00		 mov	 DWORD PTR fs:__except_list, ecx
  00046	c9		 leave
  00047	c3		 ret	 0
_TEXT	ENDS
;	COMDAT text$x
text$x	SEGMENT
$L107468:
  00000	68 00 00 00 00	 push	 OFFSET FLAT:??1?$basic_string@DV?$char_traits@D@_STL@@V?$allocator@D@2@@_STL@@QAE@XZ ; _STL::basic_string<char,_STL::char_traits<char>,_STL::allocator<char> >::~basic_string<char,_STL::char_traits<char>,_STL::allocator<char> >
  00005	6a 06		 push	 6
  00007	6a 0c		 push	 12			; 0000000cH
  00009	8b 45 f0	 mov	 eax, DWORD PTR _this$[ebp]
  0000c	83 c0 08	 add	 eax, 8
  0000f	50		 push	 eax
  00010	e8 00 00 00 00	 call	 ??_M@YGXPAXIHP6EX0@Z@Z
  00015	c3		 ret	 0
__ehhandler$??0iovfs_base@@QAE@XZ:
  00016	b8 00 00 00 00	 mov	 eax, OFFSET FLAT:$T107470
  0001b	e9 00 00 00 00	 jmp	 ___CxxFrameHandler
text$x	ENDS
??0iovfs_base@@QAE@XZ ENDP				; iovfs_base::iovfs_base
PUBLIC	??0ivfstream@@QAE@XZ				; ivfstream::ivfstream
; Function compile flags: /Ogsy
;	COMDAT ??0ivfstream@@QAE@XZ
_TEXT	SEGMENT
??0ivfstream@@QAE@XZ PROC NEAR				; ivfstream::ivfstream, COMDAT
; _this$ = ecx

; 60   : {

  00000	56		 push	 esi
  00001	8b f1		 mov	 esi, ecx
  00003	e8 00 00 00 00	 call	 ??0iovfs_base@@QAE@XZ	; iovfs_base::iovfs_base
  00008	c7 06 00 00 00
	00		 mov	 DWORD PTR [esi], OFFSET FLAT:??_7ivfstream@@6B@

; 61   : 
; 62   : }

  0000e	8b c6		 mov	 eax, esi
  00010	5e		 pop	 esi
  00011	c3		 ret	 0
??0ivfstream@@QAE@XZ ENDP				; ivfstream::ivfstream
_TEXT	ENDS
PUBLIC	??0ivfstream@@QAE@PBDH@Z			; ivfstream::ivfstream
;	COMDAT xdata$x
xdata$x	SEGMENT
$T107488 DD	0ffffffffH
	DD	FLAT:$L107481
$T107486 DD	019930520H
	DD	01H
	DD	FLAT:$T107488
	DD	2 DUP(00H)
	DD	2 DUP(00H)
; Function compile flags: /Ogsy
xdata$x	ENDS
;	COMDAT ??0ivfstream@@QAE@PBDH@Z
_TEXT	SEGMENT
_this$ = -16						; size = 4
__$EHRec$ = -12						; size = 12
_szName$ = 8						; size = 4
_nMode$ = 12						; size = 4
??0ivfstream@@QAE@PBDH@Z PROC NEAR			; ivfstream::ivfstream, COMDAT
; _this$ = ecx

; 65   : {

  00000	b8 00 00 00 00	 mov	 eax, __ehhandler$??0ivfstream@@QAE@PBDH@Z
  00005	e8 00 00 00 00	 call	 __EH_prolog
  0000a	51		 push	 ecx
  0000b	56		 push	 esi
  0000c	8b f1		 mov	 esi, ecx
  0000e	89 75 f0	 mov	 DWORD PTR _this$[ebp], esi
  00011	e8 00 00 00 00	 call	 ??0iovfs_base@@QAE@XZ	; iovfs_base::iovfs_base

; 66   : 	open(szName, nMode);

  00016	8b 45 0c	 mov	 eax, DWORD PTR _nMode$[ebp]
  00019	83 65 fc 00	 and	 DWORD PTR __$EHRec$[ebp+8], 0
  0001d	83 c8 08	 or	 eax, 8
  00020	50		 push	 eax
  00021	ff 75 08	 push	 DWORD PTR _szName$[ebp]
  00024	8b ce		 mov	 ecx, esi
  00026	c7 06 00 00 00
	00		 mov	 DWORD PTR [esi], OFFSET FLAT:??_7ivfstream@@6B@
  0002c	e8 00 00 00 00	 call	 ?open@iovfs_base@@UAEXPBDH@Z ; iovfs_base::open

; 67   : }

  00031	8b 4d f4	 mov	 ecx, DWORD PTR __$EHRec$[ebp]
  00034	8b c6		 mov	 eax, esi
  00036	5e		 pop	 esi
  00037	64 89 0d 00 00
	00 00		 mov	 DWORD PTR fs:__except_list, ecx
  0003e	c9		 leave
  0003f	c2 08 00	 ret	 8
_TEXT	ENDS
;	COMDAT text$x
text$x	SEGMENT
$L107481:
  00000	8b 4d f0	 mov	 ecx, DWORD PTR _this$[ebp]
  00003	e9 00 00 00 00	 jmp	 ??1iovfs_base@@UAE@XZ	; iovfs_base::~iovfs_base
__ehhandler$??0ivfstream@@QAE@PBDH@Z:
  00008	b8 00 00 00 00	 mov	 eax, OFFSET FLAT:$T107486
  0000d	e9 00 00 00 00	 jmp	 ___CxxFrameHandler
text$x	ENDS
??0ivfstream@@QAE@PBDH@Z ENDP				; ivfstream::ivfstream
PUBLIC	?Execute@MLoadingSPKWorkNode1@@UAEHAAPAVMWorkNode@@@Z ; MLoadingSPKWorkNode1::Execute
;	COMDAT xdata$x
xdata$x	SEGMENT
$T107587 DD	0ffffffffH
	DD	FLAT:$L107505
	DD	00H
	DD	FLAT:$L107506
	DD	01H
	DD	FLAT:$L107507
	DD	02H
	DD	FLAT:$L107508
	DD	02H
	DD	FLAT:$L107509
$T107576 DD	019930520H
	DD	05H
	DD	FLAT:$T107587
	DD	2 DUP(00H)
	DD	2 DUP(00H)
; Function compile flags: /Ogsy
; File c:\darkeden\designed_common\project\client\mloadingspkworknode.cpp
xdata$x	ENDS
;	COMDAT ?Execute@MLoadingSPKWorkNode1@@UAEHAAPAVMWorkNode@@@Z
_TEXT	SEGMENT
_file$ = -196						; size = 80
_spkFile$ = -116					; size = 80
_j$103716 = -36						; size = 4
_SFPA$ = -32						; size = 8
$T107500 = -24						; size = 4
_remainSize$103715 = -24				; size = 4
$T107496 = -24						; size = 4
$T107495 = -20						; size = 4
_i$103627 = -16						; size = 4
__$EHRec$ = -12						; size = 12
_pRemainNode$ = 8					; size = 4
?Execute@MLoadingSPKWorkNode1@@UAEHAAPAVMWorkNode@@@Z PROC NEAR ; MLoadingSPKWorkNode1::Execute, COMDAT
; _this$ = ecx

; 20   : {

  00000	b8 00 00 00 00	 mov	 eax, __ehhandler$?Execute@MLoadingSPKWorkNode1@@UAEHAAPAVMWorkNode@@@Z
  00005	e8 00 00 00 00	 call	 __EH_prolog
  0000a	81 ec b8 00 00
	00		 sub	 esp, 184		; 000000b8H
  00010	53		 push	 ebx
  00011	56		 push	 esi
  00012	57		 push	 edi
  00013	8b f9		 mov	 edi, ecx

; 21   : 	// 
; 22   : 	//m_bExecute = TRUE;
; 23   : 
; 24   : 	//---------------------------------------------------
; 25   : 	//
; 26   : 	// Load SpriteFilePositionArray 
; 27   : 	//
; 28   : 	//---------------------------------------------------
; 29   : 	ivfstream file(m_SFPAFilename, std::ios_base::binary);

  00015	6a 04		 push	 4
  00017	8d 87 14 01 00
	00		 lea	 eax, DWORD PTR [edi+276]
  0001d	50		 push	 eax
  0001e	8d 8d 3c ff ff
	ff		 lea	 ecx, DWORD PTR _file$[ebp]
  00024	e8 00 00 00 00	 call	 ??0ivfstream@@QAE@PBDH@Z ; ivfstream::ivfstream
  00029	33 db		 xor	 ebx, ebx

; 30   : //	if (!FileOpenBinary(m_SFPAFilename, file))
; 31   : 	if(!file.is_open())

  0002b	8d 8d 3c ff ff
	ff		 lea	 ecx, DWORD PTR _file$[ebp]
  00031	89 5d fc	 mov	 DWORD PTR __$EHRec$[ebp+8], ebx
  00034	e8 00 00 00 00	 call	 ?is_open@iovfs_base@@QBE_NXZ ; iovfs_base::is_open
  00039	84 c0		 test	 al, al
  0003b	75 0f		 jne	 SHORT $L103620

; 32   : 	{
; 33   : 		// -_-;;
; 34   : 		m_bExecute = FALSE;
; 35   : 		pRemainNode = NULL;

  0003d	8b 45 08	 mov	 eax, DWORD PTR _pRemainNode$[ebp]
  00040	89 5f 08	 mov	 DWORD PTR [edi+8], ebx
  00043	89 18		 mov	 DWORD PTR [eax], ebx
  00045	33 f6		 xor	 esi, esi
  00047	e9 d6 00 00 00	 jmp	 $L107583
$L103620:

; 36   : 		return FALSE;
; 37   : 	}
; 38   : 	CSpriteFilePositionArray SFPA;

  0004c	53		 push	 ebx
  0004d	8d 4d e0	 lea	 ecx, DWORD PTR _SFPA$[ebp]
  00050	e8 00 00 00 00	 call	 ??0?$TArray@VSPRITE_FILEPOSITION_NODE@@G@@QAE@G@Z ; TArray<SPRITE_FILEPOSITION_NODE,unsigned short>::TArray<SPRITE_FILEPOSITION_NODE,unsigned short>

; 39   : 	SFPA.LoadFromFile( file );

  00055	8d 85 3c ff ff
	ff		 lea	 eax, DWORD PTR _file$[ebp]
  0005b	50		 push	 eax
  0005c	8d 4d e0	 lea	 ecx, DWORD PTR _SFPA$[ebp]
  0005f	c6 45 fc 01	 mov	 BYTE PTR __$EHRec$[ebp+8], 1
  00063	e8 00 00 00 00	 call	 ?LoadFromFile@?$TArray@VSPRITE_FILEPOSITION_NODE@@G@@QAE_NAAVivfstream@@@Z ; TArray<SPRITE_FILEPOSITION_NODE,unsigned short>::LoadFromFile

; 40   : 	file.close();

  00068	8d 8d 3c ff ff
	ff		 lea	 ecx, DWORD PTR _file$[ebp]
  0006e	e8 00 00 00 00	 call	 ?close@iovfs_base@@QAEXXZ ; iovfs_base::close

; 41   : 
; 42   : 	//---------------------------------------------------
; 43   : 	//
; 44   : 	// SPK Load
; 45   : 	//
; 46   : 	//---------------------------------------------------
; 47   : 	ivfstream spkFile(m_SPKFilename, std::ios_base::binary);

  00073	8d 47 14	 lea	 eax, DWORD PTR [edi+20]
  00076	6a 04		 push	 4
  00078	50		 push	 eax
  00079	8d 4d 8c	 lea	 ecx, DWORD PTR _spkFile$[ebp]
  0007c	e8 00 00 00 00	 call	 ??0ivfstream@@QAE@PBDH@Z ; ivfstream::ivfstream

; 48   : //	if (!FileOpenBinary(m_SPKFilename, spkFile))
; 49   : 	if(!spkFile.is_open())

  00081	8d 4d 8c	 lea	 ecx, DWORD PTR _spkFile$[ebp]
  00084	c6 45 fc 02	 mov	 BYTE PTR __$EHRec$[ebp+8], 2
  00088	e8 00 00 00 00	 call	 ?is_open@iovfs_base@@QBE_NXZ ; iovfs_base::is_open
  0008d	84 c0		 test	 al, al
  0008f	75 04		 jne	 SHORT $L103624

; 108  : 			pRemainNode = pNode;

  00091	33 f6		 xor	 esi, esi
  00093	eb 6a		 jmp	 SHORT $L107582
$L103624:

; 50   : 	{
; 51   : 		// -_-;;
; 52   : 		m_bExecute = FALSE;
; 53   : 		pRemainNode = NULL;
; 54   : 		return FALSE;
; 55   : 	}
; 56   : 
; 57   : 	int size = SFPA.GetSize();

  00095	0f b7 5d e0	 movzx	 ebx, WORD PTR _SFPA$[ebp]

; 58   : 	for (int i=0; i<size; i++)

  00099	83 65 f0 00	 and	 DWORD PTR _i$103627[ebp], 0
  0009d	85 db		 test	 ebx, ebx
  0009f	7e 51		 jle	 SHORT $L103630
$L107585:

; 59   : 	{
; 60   : 		//---------------------------------------------------
; 61   : 		//  load ..
; 62   : 		//---------------------------------------------------
; 63   : 		if (m_bExecute)

  000a1	33 f6		 xor	 esi, esi
  000a3	39 77 08	 cmp	 DWORD PTR [edi+8], esi
  000a6	0f 84 a2 00 00
	00		 je	 $L103631

; 64   : 		{
; 65   : 			// Load  FilePosition .
; 66   : 			spkFile.seekg( SFPA[i].FilePosition, std::ios::beg );

  000ac	0f b7 75 f0	 movzx	 esi, WORD PTR _i$103627[ebp]
  000b0	8b 4d 90	 mov	 ecx, DWORD PTR _spkFile$[ebp+4]
  000b3	8b 45 e4	 mov	 eax, DWORD PTR _SFPA$[ebp+4]
  000b6	c1 e6 03	 shl	 esi, 3
  000b9	85 c9		 test	 ecx, ecx
  000bb	8b 44 06 04	 mov	 eax, DWORD PTR [esi+eax+4]
  000bf	74 08		 je	 SHORT $L107534
  000c1	8b 11		 mov	 edx, DWORD PTR [ecx]
  000c3	6a 01		 push	 1
  000c5	50		 push	 eax
  000c6	ff 52 18	 call	 DWORD PTR [edx+24]
$L107534:

; 67   : 
; 68   : 			CSprite& sprite = (*m_pSPK)[SFPA[i].SpriteID];

  000c9	8b 55 e4	 mov	 edx, DWORD PTR _SFPA$[ebp+4]
  000cc	0f b7 14 16	 movzx	 edx, WORD PTR [esi+edx]
  000d0	8b 4f 10	 mov	 ecx, DWORD PTR [edi+16]
  000d3	8b 01		 mov	 eax, DWORD PTR [ecx]
  000d5	52		 push	 edx
  000d6	ff 50 38	 call	 DWORD PTR [eax+56]

; 69   : 
; 70   : 			//---------------------------------------------------
; 71   : 			// Sprite Load.
; 72   : 			//---------------------------------------------------
; 73   : 			//  Load   Load.
; 74   : 			if (sprite.IsInit())

  000d9	80 78 0c 00	 cmp	 BYTE PTR [eax+12], 0
  000dd	75 0b		 jne	 SHORT $L103629

; 75   : 				continue;
; 76   : 
; 77   : 			sprite.LoadFromFile( spkFile );

  000df	8b 10		 mov	 edx, DWORD PTR [eax]
  000e1	8d 4d 8c	 lea	 ecx, DWORD PTR _spkFile$[ebp]
  000e4	51		 push	 ecx
  000e5	8b c8		 mov	 ecx, eax
  000e7	ff 52 04	 call	 DWORD PTR [edx+4]
$L103629:
  000ea	ff 45 f0	 inc	 DWORD PTR _i$103627[ebp]
  000ed	39 5d f0	 cmp	 DWORD PTR _i$103627[ebp], ebx
  000f0	7c af		 jl	 SHORT $L107585
$L103630:

; 109  : 			return FALSE;
; 110  : 		}
; 111  : 	}
; 112  : 	spkFile.close();

  000f2	8d 4d 8c	 lea	 ecx, DWORD PTR _spkFile$[ebp]
  000f5	e8 00 00 00 00	 call	 ?close@iovfs_base@@QAEXXZ ; iovfs_base::close
  000fa	33 f6		 xor	 esi, esi
  000fc	46		 inc	 esi
  000fd	33 db		 xor	 ebx, ebx
$L107582:

; 113  : 
; 114  : 	//  
; 115  : 	m_bExecute = FALSE;
; 116  : 
; 117  : 	//  ..
; 118  : 	pRemainNode = NULL;

  000ff	8b 45 08	 mov	 eax, DWORD PTR _pRemainNode$[ebp]
  00102	89 5f 08	 mov	 DWORD PTR [edi+8], ebx
  00105	89 18		 mov	 DWORD PTR [eax], ebx
$L107581:

; 119  : 	return TRUE;

  00107	8d 4d 8c	 lea	 ecx, DWORD PTR _spkFile$[ebp]
  0010a	c6 45 fc 01	 mov	 BYTE PTR __$EHRec$[ebp+8], 1
  0010e	c7 45 8c 00 00
	00 00		 mov	 DWORD PTR _spkFile$[ebp], OFFSET FLAT:??_7ivfstream@@6B@
  00115	e8 00 00 00 00	 call	 ??1iovfs_base@@UAE@XZ	; iovfs_base::~iovfs_base
  0011a	8d 4d e0	 lea	 ecx, DWORD PTR _SFPA$[ebp]
  0011d	e8 00 00 00 00	 call	 ?Release@?$TArray@VSPRITE_FILEPOSITION_NODE@@G@@QAEXXZ ; TArray<SPRITE_FILEPOSITION_NODE,unsigned short>::Release
$L107583:
  00122	83 4d fc ff	 or	 DWORD PTR __$EHRec$[ebp+8], -1
  00126	8d 8d 3c ff ff
	ff		 lea	 ecx, DWORD PTR _file$[ebp]
  0012c	c7 85 3c ff ff
	ff 00 00 00 00	 mov	 DWORD PTR _file$[ebp], OFFSET FLAT:??_7ivfstream@@6B@
  00136	e8 00 00 00 00	 call	 ??1iovfs_base@@UAE@XZ	; iovfs_base::~iovfs_base

; 120  : }

  0013b	8b 4d f4	 mov	 ecx, DWORD PTR __$EHRec$[ebp]
  0013e	5f		 pop	 edi
  0013f	8b c6		 mov	 eax, esi
  00141	5e		 pop	 esi
  00142	5b		 pop	 ebx
  00143	64 89 0d 00 00
	00 00		 mov	 DWORD PTR fs:__except_list, ecx
  0014a	c9		 leave
  0014b	c2 04 00	 ret	 4
$L103631:

; 78   : 		}
; 79   : 		//---------------------------------------------------
; 80   : 		// Stop  ..
; 81   : 		//---------------------------------------------------
; 82   : 		else
; 83   : 		{
; 84   : 			//---------------------------------------------------
; 85   : 			//  .
; 86   : 			//---------------------------------------------------
; 87   : 			//  SFPA  SFPA .
; 88   : 			// --> Node2	
; 89   : 			CSpriteFilePositionArray* pRemainSFPA = new CSpriteFilePositionArray;

  0014e	6a 08		 push	 8
  00150	e8 00 00 00 00	 call	 ??2@YAPAXI@Z		; operator new
  00155	59		 pop	 ecx
  00156	89 45 e8	 mov	 DWORD PTR $T107496[ebp], eax
  00159	3b c6		 cmp	 eax, esi
  0015b	c6 45 fc 03	 mov	 BYTE PTR __$EHRec$[ebp+8], 3
  0015f	74 0d		 je	 SHORT $L107497
  00161	56		 push	 esi
  00162	8b c8		 mov	 ecx, eax
  00164	e8 00 00 00 00	 call	 ??0?$TArray@VSPRITE_FILEPOSITION_NODE@@G@@QAE@G@Z ; TArray<SPRITE_FILEPOSITION_NODE,unsigned short>::TArray<SPRITE_FILEPOSITION_NODE,unsigned short>
  00169	89 45 ec	 mov	 DWORD PTR $T107495[ebp], eax
  0016c	eb 03		 jmp	 SHORT $L107498
$L107497:
  0016e	89 75 ec	 mov	 DWORD PTR $T107495[ebp], esi
$L107498:

; 90   : 
; 91   : 			int remainSize = size - i;

  00171	2b 5d f0	 sub	 ebx, DWORD PTR _i$103627[ebp]

; 92   : 
; 93   : 			pRemainSFPA->Init( remainSize );			

  00174	8b 4d ec	 mov	 ecx, DWORD PTR $T107495[ebp]
  00177	53		 push	 ebx
  00178	c6 45 fc 02	 mov	 BYTE PTR __$EHRec$[ebp+8], 2
  0017c	89 5d e8	 mov	 DWORD PTR _remainSize$103715[ebp], ebx
  0017f	e8 00 00 00 00	 call	 ?Init@?$TArray@VSPRITE_FILEPOSITION_NODE@@G@@QAEXG@Z ; TArray<SPRITE_FILEPOSITION_NODE,unsigned short>::Init

; 94   : 
; 95   : 			// m_SFPA   .
; 96   : 			for (int j=0; j<remainSize; j++)

  00184	33 c0		 xor	 eax, eax
  00186	3b de		 cmp	 ebx, esi
  00188	89 45 dc	 mov	 DWORD PTR _j$103716[ebp], eax
  0018b	7e 2e		 jle	 SHORT $L103719
$L107584:

; 97   : 			{
; 98   : 				(*pRemainSFPA)[j] = SFPA[i + j];

  0018d	8b 4d f0	 mov	 ecx, DWORD PTR _i$103627[ebp]
  00190	8b 75 e4	 mov	 esi, DWORD PTR _SFPA$[ebp+4]
  00193	8b 55 ec	 mov	 edx, DWORD PTR $T107495[ebp]
  00196	8b 52 04	 mov	 edx, DWORD PTR [edx+4]
  00199	03 c8		 add	 ecx, eax
  0019b	0f b7 c9	 movzx	 ecx, cx
  0019e	8b 1c ce	 mov	 ebx, DWORD PTR [esi+ecx*8]
  001a1	0f b7 c0	 movzx	 eax, ax
  001a4	89 1c c2	 mov	 DWORD PTR [edx+eax*8], ebx
  001a7	8b 4c ce 04	 mov	 ecx, DWORD PTR [esi+ecx*8+4]
  001ab	89 4c c2 04	 mov	 DWORD PTR [edx+eax*8+4], ecx
  001af	8b 45 dc	 mov	 eax, DWORD PTR _j$103716[ebp]
  001b2	40		 inc	 eax
  001b3	3b 45 e8	 cmp	 eax, DWORD PTR _remainSize$103715[ebp]
  001b6	89 45 dc	 mov	 DWORD PTR _j$103716[ebp], eax
  001b9	7c d2		 jl	 SHORT $L107584
$L103719:

; 99   : 			}
; 100  : 
; 101  : 			MLoadingSPKWorkNode2* pNode = new MLoadingSPKWorkNode2( pRemainSFPA );

  001bb	68 18 01 00 00	 push	 280			; 00000118H
  001c0	e8 00 00 00 00	 call	 ??2@YAPAXI@Z		; operator new
  001c5	59		 pop	 ecx
  001c6	89 45 e8	 mov	 DWORD PTR $T107500[ebp], eax
  001c9	85 c0		 test	 eax, eax
  001cb	c6 45 fc 04	 mov	 BYTE PTR __$EHRec$[ebp+8], 4
  001cf	74 0e		 je	 SHORT $L107501
  001d1	ff 75 ec	 push	 DWORD PTR $T107495[ebp]
  001d4	8b c8		 mov	 ecx, eax
  001d6	e8 00 00 00 00	 call	 ??0MLoadingSPKWorkNode2@@QAE@PAV?$TArray@VSPRITE_FILEPOSITION_NODE@@G@@@Z ; MLoadingSPKWorkNode2::MLoadingSPKWorkNode2
  001db	8b f0		 mov	 esi, eax
  001dd	eb 02		 jmp	 SHORT $L107502
$L107501:
  001df	33 f6		 xor	 esi, esi
$L107502:

; 102  : 
; 103  : 			pNode->SetSPK( m_pSPK, m_SPKFilename );

  001e1	8d 47 14	 lea	 eax, DWORD PTR [edi+20]
  001e4	50		 push	 eax
  001e5	ff 77 10	 push	 DWORD PTR [edi+16]
  001e8	8b ce		 mov	 ecx, esi
  001ea	c6 45 fc 02	 mov	 BYTE PTR __$EHRec$[ebp+8], 2
  001ee	e8 00 00 00 00	 call	 ?SetSPK@MLoadingSPKWorkNode@@QAEXPAV?$CTypePack2@VCSprite@@VCSprite555@@VCSprite565@@@@PBD@Z ; MLoadingSPKWorkNode::SetSPK

; 104  : 			pNode->SetType( m_Type );

  001f3	8b 7f 04	 mov	 edi, DWORD PTR [edi+4]

; 105  : 
; 106  : 			//   .
; 107  : 			spkFile.close();

  001f6	8d 4d 8c	 lea	 ecx, DWORD PTR _spkFile$[ebp]
  001f9	89 7e 04	 mov	 DWORD PTR [esi+4], edi
  001fc	e8 00 00 00 00	 call	 ?close@iovfs_base@@QAEXXZ ; iovfs_base::close

; 108  : 			pRemainNode = pNode;

  00201	8b 45 08	 mov	 eax, DWORD PTR _pRemainNode$[ebp]
  00204	89 30		 mov	 DWORD PTR [eax], esi
  00206	33 f6		 xor	 esi, esi
  00208	e9 fa fe ff ff	 jmp	 $L107581
_TEXT	ENDS
;	COMDAT text$x
text$x	SEGMENT
$L107505:
  00000	8d 8d 3c ff ff
	ff		 lea	 ecx, DWORD PTR _file$[ebp]
  00006	e9 00 00 00 00	 jmp	 ??1ivfstream@@UAE@XZ	; ivfstream::~ivfstream
$L107506:
  0000b	8d 4d e0	 lea	 ecx, DWORD PTR _SFPA$[ebp]
  0000e	e9 00 00 00 00	 jmp	 ??1?$TArray@VSPRITE_FILEPOSITION_NODE@@G@@QAE@XZ ; TArray<SPRITE_FILEPOSITION_NODE,unsigned short>::~TArray<SPRITE_FILEPOSITION_NODE,unsigned short>
$L107507:
  00013	8d 4d 8c	 lea	 ecx, DWORD PTR _spkFile$[ebp]
  00016	e9 00 00 00 00	 jmp	 ??1ivfstream@@UAE@XZ	; ivfstream::~ivfstream
$L107508:
  0001b	ff 75 e8	 push	 DWORD PTR $T107496[ebp]
  0001e	e8 00 00 00 00	 call	 ??3@YAXPAX@Z		; operator delete
  00023	59		 pop	 ecx
  00024	c3		 ret	 0
$L107509:
  00025	ff 75 e8	 push	 DWORD PTR $T107500[ebp]
  00028	e8 00 00 00 00	 call	 ??3@YAXPAX@Z		; operator delete
  0002d	59		 pop	 ecx
  0002e	c3		 ret	 0
__ehhandler$?Execute@MLoadingSPKWorkNode1@@UAEHAAPAVMWorkNode@@@Z:
  0002f	b8 00 00 00 00	 mov	 eax, OFFSET FLAT:$T107576
  00034	e9 00 00 00 00	 jmp	 ___CxxFrameHandler
text$x	ENDS
?Execute@MLoadingSPKWorkNode1@@UAEHAAPAVMWorkNode@@@Z ENDP ; MLoadingSPKWorkNode1::Execute
EXTRN	?FileOpenBinary@@YA_NPBDAAVivfstream@@@Z:NEAR	; FileOpenBinary
;	COMDAT xdata$x
; File c:\darkeden\designed_common\project\client\virtualfilesystem\vfstream.inl
xdata$x	SEGMENT
$T107659 DD	0ffffffffH
	DD	FLAT:$L107603
	DD	00H
	DD	FLAT:$L107604
	DD	00H
	DD	FLAT:$L107605
$T107649 DD	019930520H
	DD	03H
	DD	FLAT:$T107659
	DD	2 DUP(00H)
	DD	2 DUP(00H)
; Function compile flags: /Ogsy
; File c:\darkeden\designed_common\project\client\mloadingspkworknode.cpp
xdata$x	ENDS
;	COMDAT ?Execute@MLoadingSPKWorkNode2@@UAEHAAPAVMWorkNode@@@Z
_TEXT	SEGMENT
_spkFile$ = -108					; size = 80
$T107598 = -28						; size = 4
_remainSize$103749 = -28				; size = 4
$T107594 = -28						; size = 4
_j$103750 = -24						; size = 4
$T107593 = -20						; size = 4
_i$103735 = -16						; size = 4
__$EHRec$ = -12						; size = 12
_pRemainNode$ = 8					; size = 4
?Execute@MLoadingSPKWorkNode2@@UAEHAAPAVMWorkNode@@@Z PROC NEAR ; MLoadingSPKWorkNode2::Execute, COMDAT
; _this$ = ecx

; 134  : {

  00000	b8 00 00 00 00	 mov	 eax, __ehhandler$?Execute@MLoadingSPKWorkNode2@@UAEHAAPAVMWorkNode@@@Z
  00005	e8 00 00 00 00	 call	 __EH_prolog
  0000a	83 ec 60	 sub	 esp, 96			; 00000060H
  0000d	53		 push	 ebx
  0000e	56		 push	 esi
  0000f	8b f1		 mov	 esi, ecx
  00011	57		 push	 edi

; 135  : 	//m_bExecute = TRUE;
; 136  : 
; 137  : 	//---------------------------------------------------
; 138  : 	//
; 139  : 	// SPK Load
; 140  : 	//
; 141  : 	//---------------------------------------------------
; 142  : 	ivfstream spkFile;

  00012	8d 4d 94	 lea	 ecx, DWORD PTR _spkFile$[ebp]
  00015	e8 00 00 00 00	 call	 ??0iovfs_base@@QAE@XZ	; iovfs_base::iovfs_base
  0001a	c7 45 94 00 00
	00 00		 mov	 DWORD PTR _spkFile$[ebp], OFFSET FLAT:??_7ivfstream@@6B@
  00021	83 65 fc 00	 and	 DWORD PTR __$EHRec$[ebp+8], 0

; 143  : 	if (!FileOpenBinary(m_SPKFilename, spkFile))

  00025	8d 4d 94	 lea	 ecx, DWORD PTR _spkFile$[ebp]
  00028	8d 46 14	 lea	 eax, DWORD PTR [esi+20]
  0002b	51		 push	 ecx
  0002c	50		 push	 eax
  0002d	e8 00 00 00 00	 call	 ?FileOpenBinary@@YA_NPBDAAVivfstream@@@Z ; FileOpenBinary
  00032	84 c0		 test	 al, al
  00034	59		 pop	 ecx
  00035	59		 pop	 ecx
  00036	75 04		 jne	 SHORT $L103732

; 199  : 			pRemainNode = pNode;

  00038	33 ff		 xor	 edi, edi
  0003a	eb 6b		 jmp	 SHORT $L107655
$L103732:

; 144  : 	{
; 145  : 		// -_-;;
; 146  : 		m_bExecute = FALSE;
; 147  : 		pRemainNode = NULL;
; 148  : 		return FALSE;
; 149  : 	}
; 150  : 
; 151  : 	int size = m_pSFPA->GetSize();

  0003c	8b 86 14 01 00
	00		 mov	 eax, DWORD PTR [esi+276]
  00042	0f b7 38	 movzx	 edi, WORD PTR [eax]

; 152  : 	for (int i=0; i<size; i++)

  00045	83 65 f0 00	 and	 DWORD PTR _i$103735[ebp], 0
  00049	85 ff		 test	 edi, edi
  0004b	7e 4f		 jle	 SHORT $L103738
$L107657:

; 153  : 	{
; 154  : 		SPRITE_FILEPOSITION_NODE& node = (*m_pSFPA)[i];
; 155  : 
; 156  : 		//---------------------------------------------------
; 157  : 		//  load ..
; 158  : 		//---------------------------------------------------
; 159  : 		if (m_bExecute)

  0004d	83 7e 08 00	 cmp	 DWORD PTR [esi+8], 0
  00051	0f b7 45 f0	 movzx	 eax, WORD PTR _i$103735[ebp]
  00055	8b 8e 14 01 00
	00		 mov	 ecx, DWORD PTR [esi+276]
  0005b	8b 49 04	 mov	 ecx, DWORD PTR [ecx+4]
  0005e	8d 1c c1	 lea	 ebx, DWORD PTR [ecx+eax*8]
  00061	74 74		 je	 SHORT $L103740

; 160  : 		{
; 161  : 			// Load  FilePosition .
; 162  : 			spkFile.seekg( node.FilePosition, std::ios::beg );

  00063	8b 4d 98	 mov	 ecx, DWORD PTR _spkFile$[ebp+4]
  00066	85 c9		 test	 ecx, ecx
  00068	8b 43 04	 mov	 eax, DWORD PTR [ebx+4]
  0006b	74 08		 je	 SHORT $L107623
  0006d	8b 11		 mov	 edx, DWORD PTR [ecx]
  0006f	6a 01		 push	 1
  00071	50		 push	 eax
  00072	ff 52 18	 call	 DWORD PTR [edx+24]
$L107623:

; 163  : 
; 164  : 			CSprite& sprite = (*m_pSPK)[node.SpriteID];

  00075	8b 4e 10	 mov	 ecx, DWORD PTR [esi+16]
  00078	8b 01		 mov	 eax, DWORD PTR [ecx]
  0007a	33 d2		 xor	 edx, edx
  0007c	66 8b 13	 mov	 dx, WORD PTR [ebx]
  0007f	52		 push	 edx
  00080	ff 50 38	 call	 DWORD PTR [eax+56]

; 165  : 
; 166  : 			//---------------------------------------------------
; 167  : 			// Sprite Load.
; 168  : 			//---------------------------------------------------
; 169  : 			//  Load   Load.
; 170  : 			if (sprite.IsInit())

  00083	80 78 0c 00	 cmp	 BYTE PTR [eax+12], 0
  00087	75 0b		 jne	 SHORT $L103737

; 171  : 				continue;
; 172  : 
; 173  : 			sprite.LoadFromFile( spkFile );

  00089	8b 10		 mov	 edx, DWORD PTR [eax]
  0008b	8d 4d 94	 lea	 ecx, DWORD PTR _spkFile$[ebp]
  0008e	51		 push	 ecx
  0008f	8b c8		 mov	 ecx, eax
  00091	ff 52 04	 call	 DWORD PTR [edx+4]
$L103737:
  00094	ff 45 f0	 inc	 DWORD PTR _i$103735[ebp]
  00097	39 7d f0	 cmp	 DWORD PTR _i$103735[ebp], edi
  0009a	7c b1		 jl	 SHORT $L107657
$L103738:

; 200  : 			return FALSE;
; 201  : 		}
; 202  : 	}
; 203  : 	spkFile.close();

  0009c	8d 4d 94	 lea	 ecx, DWORD PTR _spkFile$[ebp]
  0009f	e8 00 00 00 00	 call	 ?close@iovfs_base@@QAEXXZ ; iovfs_base::close
  000a4	33 ff		 xor	 edi, edi
  000a6	47		 inc	 edi
$L107655:

; 204  : 
; 205  : 	//  
; 206  : 	m_bExecute = FALSE;
; 207  : 
; 208  : 	//   
; 209  : 	pRemainNode = NULL;

  000a7	8b 45 08	 mov	 eax, DWORD PTR _pRemainNode$[ebp]
  000aa	83 66 08 00	 and	 DWORD PTR [esi+8], 0
  000ae	83 20 00	 and	 DWORD PTR [eax], 0
$L107654:

; 210  : 	return TRUE;

  000b1	83 4d fc ff	 or	 DWORD PTR __$EHRec$[ebp+8], -1
  000b5	8d 4d 94	 lea	 ecx, DWORD PTR _spkFile$[ebp]
  000b8	c7 45 94 00 00
	00 00		 mov	 DWORD PTR _spkFile$[ebp], OFFSET FLAT:??_7ivfstream@@6B@
  000bf	e8 00 00 00 00	 call	 ??1iovfs_base@@UAE@XZ	; iovfs_base::~iovfs_base

; 211  : }

  000c4	8b 4d f4	 mov	 ecx, DWORD PTR __$EHRec$[ebp]
  000c7	8b c7		 mov	 eax, edi
  000c9	5f		 pop	 edi
  000ca	5e		 pop	 esi
  000cb	5b		 pop	 ebx
  000cc	64 89 0d 00 00
	00 00		 mov	 DWORD PTR fs:__except_list, ecx
  000d3	c9		 leave
  000d4	c2 04 00	 ret	 4
$L103740:

; 174  : 		}
; 175  : 		//---------------------------------------------------
; 176  : 		// Stop  ..
; 177  : 		//---------------------------------------------------
; 178  : 		else
; 179  : 		{
; 180  : 			CSpriteFilePositionArray* pRemainSFPA = new CSpriteFilePositionArray;

  000d7	6a 08		 push	 8
  000d9	e8 00 00 00 00	 call	 ??2@YAPAXI@Z		; operator new
  000de	59		 pop	 ecx
  000df	89 45 e4	 mov	 DWORD PTR $T107594[ebp], eax
  000e2	85 c0		 test	 eax, eax
  000e4	c6 45 fc 01	 mov	 BYTE PTR __$EHRec$[ebp+8], 1
  000e8	74 0e		 je	 SHORT $L107595
  000ea	6a 00		 push	 0
  000ec	8b c8		 mov	 ecx, eax
  000ee	e8 00 00 00 00	 call	 ??0?$TArray@VSPRITE_FILEPOSITION_NODE@@G@@QAE@G@Z ; TArray<SPRITE_FILEPOSITION_NODE,unsigned short>::TArray<SPRITE_FILEPOSITION_NODE,unsigned short>
  000f3	89 45 ec	 mov	 DWORD PTR $T107593[ebp], eax
  000f6	eb 04		 jmp	 SHORT $L107596
$L107595:
  000f8	83 65 ec 00	 and	 DWORD PTR $T107593[ebp], 0
$L107596:

; 181  : 
; 182  : 			int remainSize = size - i;

  000fc	2b 7d f0	 sub	 edi, DWORD PTR _i$103735[ebp]

; 183  : 
; 184  : 			pRemainSFPA->Init( remainSize );			

  000ff	8b 4d ec	 mov	 ecx, DWORD PTR $T107593[ebp]
  00102	57		 push	 edi
  00103	c6 45 fc 00	 mov	 BYTE PTR __$EHRec$[ebp+8], 0
  00107	89 7d e4	 mov	 DWORD PTR _remainSize$103749[ebp], edi
  0010a	e8 00 00 00 00	 call	 ?Init@?$TArray@VSPRITE_FILEPOSITION_NODE@@G@@QAEXG@Z ; TArray<SPRITE_FILEPOSITION_NODE,unsigned short>::Init

; 185  : 
; 186  : 			// m_SFPA   .
; 187  : 			for (int j=0; j<remainSize; j++)

  0010f	33 c0		 xor	 eax, eax
  00111	85 ff		 test	 edi, edi
  00113	89 45 e8	 mov	 DWORD PTR _j$103750[ebp], eax
  00116	7e 34		 jle	 SHORT $L103753
$L107656:

; 188  : 			{
; 189  : 				(*pRemainSFPA)[j] = (*m_pSFPA)[i + j];

  00118	8b 4d f0	 mov	 ecx, DWORD PTR _i$103735[ebp]
  0011b	8b 96 14 01 00
	00		 mov	 edx, DWORD PTR [esi+276]
  00121	8b 52 04	 mov	 edx, DWORD PTR [edx+4]
  00124	8b 7d ec	 mov	 edi, DWORD PTR $T107593[ebp]
  00127	8b 7f 04	 mov	 edi, DWORD PTR [edi+4]
  0012a	03 c8		 add	 ecx, eax
  0012c	0f b7 c9	 movzx	 ecx, cx
  0012f	8b 1c ca	 mov	 ebx, DWORD PTR [edx+ecx*8]
  00132	0f b7 c0	 movzx	 eax, ax
  00135	89 1c c7	 mov	 DWORD PTR [edi+eax*8], ebx
  00138	8b 4c ca 04	 mov	 ecx, DWORD PTR [edx+ecx*8+4]
  0013c	89 4c c7 04	 mov	 DWORD PTR [edi+eax*8+4], ecx
  00140	8b 45 e8	 mov	 eax, DWORD PTR _j$103750[ebp]
  00143	40		 inc	 eax
  00144	3b 45 e4	 cmp	 eax, DWORD PTR _remainSize$103749[ebp]
  00147	89 45 e8	 mov	 DWORD PTR _j$103750[ebp], eax
  0014a	7c cc		 jl	 SHORT $L107656
$L103753:

; 190  : 			}
; 191  : 
; 192  : 			MLoadingSPKWorkNode2* pNode = new MLoadingSPKWorkNode2( pRemainSFPA );

  0014c	68 18 01 00 00	 push	 280			; 00000118H
  00151	e8 00 00 00 00	 call	 ??2@YAPAXI@Z		; operator new
  00156	59		 pop	 ecx
  00157	89 45 e4	 mov	 DWORD PTR $T107598[ebp], eax
  0015a	85 c0		 test	 eax, eax
  0015c	c6 45 fc 02	 mov	 BYTE PTR __$EHRec$[ebp+8], 2
  00160	74 0e		 je	 SHORT $L107599
  00162	ff 75 ec	 push	 DWORD PTR $T107593[ebp]
  00165	8b c8		 mov	 ecx, eax
  00167	e8 00 00 00 00	 call	 ??0MLoadingSPKWorkNode2@@QAE@PAV?$TArray@VSPRITE_FILEPOSITION_NODE@@G@@@Z ; MLoadingSPKWorkNode2::MLoadingSPKWorkNode2
  0016c	8b f8		 mov	 edi, eax
  0016e	eb 02		 jmp	 SHORT $L107600
$L107599:
  00170	33 ff		 xor	 edi, edi
$L107600:

; 193  : 
; 194  : 			pNode->SetSPK( m_pSPK, m_SPKFilename );

  00172	8d 46 14	 lea	 eax, DWORD PTR [esi+20]
  00175	50		 push	 eax
  00176	ff 76 10	 push	 DWORD PTR [esi+16]
  00179	8b cf		 mov	 ecx, edi
  0017b	c6 45 fc 00	 mov	 BYTE PTR __$EHRec$[ebp+8], 0
  0017f	e8 00 00 00 00	 call	 ?SetSPK@MLoadingSPKWorkNode@@QAEXPAV?$CTypePack2@VCSprite@@VCSprite555@@VCSprite565@@@@PBD@Z ; MLoadingSPKWorkNode::SetSPK

; 195  : 			pNode->SetType( m_Type );

  00184	8b 76 04	 mov	 esi, DWORD PTR [esi+4]

; 196  : 
; 197  : 			//   .
; 198  : 			spkFile.close();

  00187	8d 4d 94	 lea	 ecx, DWORD PTR _spkFile$[ebp]
  0018a	89 77 04	 mov	 DWORD PTR [edi+4], esi
  0018d	e8 00 00 00 00	 call	 ?close@iovfs_base@@QAEXXZ ; iovfs_base::close

; 199  : 			pRemainNode = pNode;

  00192	8b 45 08	 mov	 eax, DWORD PTR _pRemainNode$[ebp]
  00195	89 38		 mov	 DWORD PTR [eax], edi
  00197	33 ff		 xor	 edi, edi
  00199	e9 13 ff ff ff	 jmp	 $L107654
_TEXT	ENDS
;	COMDAT text$x
text$x	SEGMENT
$L107603:
  00000	8d 4d 94	 lea	 ecx, DWORD PTR _spkFile$[ebp]
  00003	e9 00 00 00 00	 jmp	 ??1ivfstream@@UAE@XZ	; ivfstream::~ivfstream
$L107604:
  00008	ff 75 e4	 push	 DWORD PTR $T107594[ebp]
  0000b	e8 00 00 00 00	 call	 ??3@YAXPAX@Z		; operator delete
  00010	59		 pop	 ecx
  00011	c3		 ret	 0
$L107605:
  00012	ff 75 e4	 push	 DWORD PTR $T107598[ebp]
  00015	e8 00 00 00 00	 call	 ??3@YAXPAX@Z		; operator delete
  0001a	59		 pop	 ecx
  0001b	c3		 ret	 0
__ehhandler$?Execute@MLoadingSPKWorkNode2@@UAEHAAPAVMWorkNode@@@Z:
  0001c	b8 00 00 00 00	 mov	 eax, OFFSET FLAT:$T107649
  00021	e9 00 00 00 00	 jmp	 ___CxxFrameHandler
text$x	ENDS
?Execute@MLoadingSPKWorkNode2@@UAEHAAPAVMWorkNode@@@Z ENDP ; MLoadingSPKWorkNode2::Execute
PUBLIC	?Execute@MLoadingSPKWorkNode3@@UAEHAAPAVMWorkNode@@@Z ; MLoadingSPKWorkNode3::Execute
;	COMDAT xdata$x
; File c:\darkeden\designed_common\project\client\virtualfilesystem\vfstream.inl
xdata$x	SEGMENT
$T107689 DD	0ffffffffH
	DD	FLAT:$L107665
$T107687 DD	019930520H
	DD	01H
	DD	FLAT:$T107689
	DD	2 DUP(00H)
	DD	2 DUP(00H)
; Function compile flags: /Ogsy
; File c:\darkeden\designed_common\project\client\mloadingspkworknode.cpp
xdata$x	ENDS
;	COMDAT ?Execute@MLoadingSPKWorkNode3@@UAEHAAPAVMWorkNode@@@Z
_TEXT	SEGMENT
_spkFile$103767 = -92					; size = 80
__$EHRec$ = -12						; size = 12
_pRemainNode$ = 8					; size = 4
?Execute@MLoadingSPKWorkNode3@@UAEHAAPAVMWorkNode@@@Z PROC NEAR ; MLoadingSPKWorkNode3::Execute, COMDAT
; _this$ = ecx

; 223  : {

  00000	b8 00 00 00 00	 mov	 eax, __ehhandler$?Execute@MLoadingSPKWorkNode3@@UAEHAAPAVMWorkNode@@@Z
  00005	e8 00 00 00 00	 call	 __EH_prolog
  0000a	83 ec 50	 sub	 esp, 80			; 00000050H
  0000d	53		 push	 ebx
  0000e	56		 push	 esi
  0000f	8b f1		 mov	 esi, ecx

; 224  : 	//m_bExecute = TRUE;
; 225  : 
; 226  : 	CSprite& sprite = (*m_pSPK)[m_SpriteID];

  00011	8b 4e 10	 mov	 ecx, DWORD PTR [esi+16]
  00014	8b 01		 mov	 eax, DWORD PTR [ecx]
  00016	33 d2		 xor	 edx, edx
  00018	66 8b 96 14 01
	00 00		 mov	 dx, WORD PTR [esi+276]
  0001f	57		 push	 edi
  00020	52		 push	 edx
  00021	ff 50 38	 call	 DWORD PTR [eax+56]
  00024	8b d8		 mov	 ebx, eax

; 227  : 
; 228  : 	//-------------------------------------------------------------
; 229  : 	//  Loading   loading.
; 230  : 	//-------------------------------------------------------------
; 231  : 	if (sprite.IsNotInit())

  00026	80 7b 0c 00	 cmp	 BYTE PTR [ebx+12], 0
  0002a	75 7b		 jne	 SHORT $L103766

; 232  : 	{	
; 233  : 		ivfstream spkFile;

  0002c	8d 4d a4	 lea	 ecx, DWORD PTR _spkFile$103767[ebp]
  0002f	e8 00 00 00 00	 call	 ??0iovfs_base@@QAE@XZ	; iovfs_base::iovfs_base
  00034	bf 00 00 00 00	 mov	 edi, OFFSET FLAT:??_7ivfstream@@6B@
  00039	89 7d a4	 mov	 DWORD PTR _spkFile$103767[ebp], edi
  0003c	83 65 fc 00	 and	 DWORD PTR __$EHRec$[ebp+8], 0

; 234  : 		if (!FileOpenBinary(m_SPKFilename, spkFile))

  00040	8d 45 a4	 lea	 eax, DWORD PTR _spkFile$103767[ebp]
  00043	50		 push	 eax
  00044	8d 46 14	 lea	 eax, DWORD PTR [esi+20]
  00047	50		 push	 eax
  00048	e8 00 00 00 00	 call	 ?FileOpenBinary@@YA_NPBDAAVivfstream@@@Z ; FileOpenBinary
  0004d	84 c0		 test	 al, al
  0004f	59		 pop	 ecx
  00050	59		 pop	 ecx
  00051	75 1d		 jne	 SHORT $L103768

; 235  : 		{
; 236  : 			// -_-;;
; 237  : 			m_bExecute = FALSE;
; 238  : 			pRemainNode = NULL;

  00053	8b 45 08	 mov	 eax, DWORD PTR _pRemainNode$[ebp]
  00056	83 66 08 00	 and	 DWORD PTR [esi+8], 0
  0005a	83 20 00	 and	 DWORD PTR [eax], 0

; 239  : 			return FALSE;

  0005d	83 4d fc ff	 or	 DWORD PTR __$EHRec$[ebp+8], -1
  00061	8d 4d a4	 lea	 ecx, DWORD PTR _spkFile$103767[ebp]
  00064	89 7d a4	 mov	 DWORD PTR _spkFile$103767[ebp], edi
  00067	e8 00 00 00 00	 call	 ??1iovfs_base@@UAE@XZ	; iovfs_base::~iovfs_base
  0006c	33 c0		 xor	 eax, eax
  0006e	eb 44		 jmp	 SHORT $L103764
$L103768:

; 240  : 		}
; 241  : 
; 242  : 		// loading sprite .
; 243  : 		spkFile.seekg(m_FilePosition, std::ios::beg);

  00070	8b 4d a8	 mov	 ecx, DWORD PTR _spkFile$103767[ebp+4]
  00073	85 c9		 test	 ecx, ecx
  00075	8b 86 18 01 00
	00		 mov	 eax, DWORD PTR [esi+280]
  0007b	74 08		 je	 SHORT $L107679
  0007d	8b 11		 mov	 edx, DWORD PTR [ecx]
  0007f	6a 01		 push	 1
  00081	50		 push	 eax
  00082	ff 52 18	 call	 DWORD PTR [edx+24]
$L107679:

; 244  : 		
; 245  : 		//--------------------------------------------------
; 246  : 		// Sprite  Loading
; 247  : 		//--------------------------------------------------
; 248  : 		if (sprite.LoadFromFile( spkFile ))

  00085	8b 03		 mov	 eax, DWORD PTR [ebx]
  00087	8d 4d a4	 lea	 ecx, DWORD PTR _spkFile$103767[ebp]
  0008a	51		 push	 ecx
  0008b	8b cb		 mov	 ecx, ebx
  0008d	ff 50 04	 call	 DWORD PTR [eax+4]

; 249  : 		{
; 250  : 		}
; 251  : 		else
; 252  : 		{
; 253  : 			// -_-;;
; 254  : 			// ..   ..
; 255  : 			int a =0;
; 256  : 		}
; 257  : 		spkFile.close();

  00090	8d 4d a4	 lea	 ecx, DWORD PTR _spkFile$103767[ebp]
  00093	e8 00 00 00 00	 call	 ?close@iovfs_base@@QAEXXZ ; iovfs_base::close

; 258  : 	}

  00098	83 4d fc ff	 or	 DWORD PTR __$EHRec$[ebp+8], -1
  0009c	8d 4d a4	 lea	 ecx, DWORD PTR _spkFile$103767[ebp]
  0009f	89 7d a4	 mov	 DWORD PTR _spkFile$103767[ebp], edi
  000a2	e8 00 00 00 00	 call	 ??1iovfs_base@@UAE@XZ	; iovfs_base::~iovfs_base
$L103766:

; 259  : 
; 260  : 	m_bExecute = FALSE;	
; 261  : 
; 262  : 	pRemainNode = NULL;

  000a7	8b 45 08	 mov	 eax, DWORD PTR _pRemainNode$[ebp]
  000aa	83 66 08 00	 and	 DWORD PTR [esi+8], 0
  000ae	83 20 00	 and	 DWORD PTR [eax], 0

; 263  : 	return TRUE;

  000b1	33 c0		 xor	 eax, eax
  000b3	40		 inc	 eax
$L103764:

; 264  : }

  000b4	8b 4d f4	 mov	 ecx, DWORD PTR __$EHRec$[ebp]
  000b7	5f		 pop	 edi
  000b8	5e		 pop	 esi
  000b9	5b		 pop	 ebx
  000ba	64 89 0d 00 00
	00 00		 mov	 DWORD PTR fs:__except_list, ecx
  000c1	c9		 leave
  000c2	c2 04 00	 ret	 4
_TEXT	ENDS
;	COMDAT text$x
text$x	SEGMENT
$L107665:
  00000	8d 4d a4	 lea	 ecx, DWORD PTR _spkFile$103767[ebp]
  00003	e9 00 00 00 00	 jmp	 ??1ivfstream@@UAE@XZ	; ivfstream::~ivfstream
__ehhandler$?Execute@MLoadingSPKWorkNode3@@UAEHAAPAVMWorkNode@@@Z:
  00008	b8 00 00 00 00	 mov	 eax, OFFSET FLAT:$T107687
  0000d	e9 00 00 00 00	 jmp	 ___CxxFrameHandler
text$x	ENDS
?Execute@MLoadingSPKWorkNode3@@UAEHAAPAVMWorkNode@@@Z ENDP ; MLoadingSPKWorkNode3::Execute
;	COMDAT xdata$x
; File c:\darkeden\designed_common\project\client\virtualfilesystem\vfstream.inl
xdata$x	SEGMENT
$T107741 DD	0ffffffffH
	DD	FLAT:$L107701
	DD	00H
	DD	FLAT:$L107702
$T107734 DD	019930520H
	DD	02H
	DD	FLAT:$T107741
	DD	2 DUP(00H)
	DD	2 DUP(00H)
; Function compile flags: /Ogsy
; File c:\darkeden\designed_common\project\client\mloadingspkworknode.cpp
xdata$x	ENDS
;	COMDAT ?Execute@MLoadingSPKWorkNode4@@UAEHAAPAVMWorkNode@@@Z
_TEXT	SEGMENT
_spkFile$ = -96						; size = 80
$T107696 = -16						; size = 4
__$EHRec$ = -12						; size = 12
_pRemainNode$ = 8					; size = 4
?Execute@MLoadingSPKWorkNode4@@UAEHAAPAVMWorkNode@@@Z PROC NEAR ; MLoadingSPKWorkNode4::Execute, COMDAT
; _this$ = ecx

; 278  : {

  00000	b8 00 00 00 00	 mov	 eax, __ehhandler$?Execute@MLoadingSPKWorkNode4@@UAEHAAPAVMWorkNode@@@Z
  00005	e8 00 00 00 00	 call	 __EH_prolog
  0000a	83 ec 54	 sub	 esp, 84			; 00000054H
  0000d	53		 push	 ebx
  0000e	56		 push	 esi
  0000f	8b f1		 mov	 esi, ecx
  00011	57		 push	 edi

; 279  : 	//m_bExecute = TRUE;
; 280  : 
; 281  : 	ivfstream spkFile;

  00012	8d 4d a0	 lea	 ecx, DWORD PTR _spkFile$[ebp]
  00015	e8 00 00 00 00	 call	 ??0iovfs_base@@QAE@XZ	; iovfs_base::iovfs_base
  0001a	c7 45 a0 00 00
	00 00		 mov	 DWORD PTR _spkFile$[ebp], OFFSET FLAT:??_7ivfstream@@6B@

; 282  : 	if (!FileOpenBinary(m_SPKFilename, spkFile))

  00021	8d 4d a0	 lea	 ecx, DWORD PTR _spkFile$[ebp]
  00024	8d 46 14	 lea	 eax, DWORD PTR [esi+20]
  00027	51		 push	 ecx
  00028	33 db		 xor	 ebx, ebx
  0002a	50		 push	 eax
  0002b	89 5d fc	 mov	 DWORD PTR __$EHRec$[ebp+8], ebx
  0002e	e8 00 00 00 00	 call	 ?FileOpenBinary@@YA_NPBDAAVivfstream@@@Z ; FileOpenBinary
  00033	84 c0		 test	 al, al
  00035	59		 pop	 ecx
  00036	59		 pop	 ecx
  00037	75 07		 jne	 SHORT $L103778

; 283  : 	{
; 284  : 		// -_-;;
; 285  : 		m_bExecute = FALSE;

  00039	89 5e 08	 mov	 DWORD PTR [esi+8], ebx
  0003c	33 f6		 xor	 esi, esi
  0003e	eb 51		 jmp	 SHORT $L107738
$L103778:

; 286  : 		pRemainNode = NULL;
; 287  : 		return FALSE;
; 288  : 	}
; 289  : 
; 290  : 	//-------------------------------------------------------
; 291  : 	// FirstSprite ..
; 292  : 	//-------------------------------------------------------
; 293  : 	spkFile.seekg(m_FilePosition, std::ios::beg);

  00040	8b 4d a4	 mov	 ecx, DWORD PTR _spkFile$[ebp+4]
  00043	3b cb		 cmp	 ecx, ebx
  00045	8b 86 18 01 00
	00		 mov	 eax, DWORD PTR [esi+280]
  0004b	74 08		 je	 SHORT $L107713
  0004d	8b 11		 mov	 edx, DWORD PTR [ecx]
  0004f	6a 01		 push	 1
  00051	50		 push	 eax
  00052	ff 52 18	 call	 DWORD PTR [edx+24]
$L107713:

; 304  : 		{
; 305  : 			CSprite& sprite = (*m_pSPK)[i];

  00055	33 ff		 xor	 edi, edi
  00057	66 8b be 14 01
	00 00		 mov	 di, WORD PTR [esi+276]
  0005e	eb 1a		 jmp	 SHORT $L107740
$L103781:

; 299  : 	{
; 300  : 		//---------------------------------------------------
; 301  : 		//  load ..
; 302  : 		//---------------------------------------------------
; 303  : 		if (m_bExecute)

  00060	39 5e 08	 cmp	 DWORD PTR [esi+8], ebx
  00063	74 57		 je	 SHORT $L103784

; 304  : 		{
; 305  : 			CSprite& sprite = (*m_pSPK)[i];

  00065	8b 4e 10	 mov	 ecx, DWORD PTR [esi+16]
  00068	8b 01		 mov	 eax, DWORD PTR [ecx]
  0006a	57		 push	 edi
  0006b	ff 50 38	 call	 DWORD PTR [eax+56]

; 306  : 
; 307  : 			//---------------------------------------------------
; 308  : 			//  loading   loading.
; 309  : 			// (!) .. file position   ..
; 310  : 			//  loading!
; 311  : 			//---------------------------------------------------
; 312  : 			//if (sprite.IsNotInit())
; 313  : 			{
; 314  : 				sprite.LoadFromFile( spkFile );

  0006e	8b 10		 mov	 edx, DWORD PTR [eax]
  00070	8d 4d a0	 lea	 ecx, DWORD PTR _spkFile$[ebp]
  00073	51		 push	 ecx
  00074	8b c8		 mov	 ecx, eax
  00076	ff 52 04	 call	 DWORD PTR [edx+4]
  00079	47		 inc	 edi
$L107740:

; 294  : 
; 295  : 	//-------------------------------------------------------
; 296  : 	// FirstSpriteID ~ LastSpriteID Loading.
; 297  : 	//-------------------------------------------------------
; 298  : 	for (TYPE_SPRITEID i=m_FirstSpriteID; i<m_LastSpriteID; i++)

  0007a	66 3b be 16 01
	00 00		 cmp	 di, WORD PTR [esi+278]
  00081	72 dd		 jb	 SHORT $L103781

; 336  : 			return FALSE;
; 337  : 		}
; 338  : 	}
; 339  : 
; 340  : 	m_bExecute = FALSE;
; 341  : 
; 342  : 	spkFile.close();

  00083	8d 4d a0	 lea	 ecx, DWORD PTR _spkFile$[ebp]
  00086	89 5e 08	 mov	 DWORD PTR [esi+8], ebx
  00089	e8 00 00 00 00	 call	 ?close@iovfs_base@@QAEXXZ ; iovfs_base::close
  0008e	33 f6		 xor	 esi, esi
  00090	46		 inc	 esi
$L107738:

; 343  : 	pRemainNode = NULL;

  00091	8b 45 08	 mov	 eax, DWORD PTR _pRemainNode$[ebp]
  00094	89 18		 mov	 DWORD PTR [eax], ebx
$L107737:

; 344  : 	return TRUE;

  00096	83 4d fc ff	 or	 DWORD PTR __$EHRec$[ebp+8], -1
  0009a	8d 4d a0	 lea	 ecx, DWORD PTR _spkFile$[ebp]
  0009d	c7 45 a0 00 00
	00 00		 mov	 DWORD PTR _spkFile$[ebp], OFFSET FLAT:??_7ivfstream@@6B@
  000a4	e8 00 00 00 00	 call	 ??1iovfs_base@@UAE@XZ	; iovfs_base::~iovfs_base

; 345  : }

  000a9	8b 4d f4	 mov	 ecx, DWORD PTR __$EHRec$[ebp]
  000ac	5f		 pop	 edi
  000ad	8b c6		 mov	 eax, esi
  000af	5e		 pop	 esi
  000b0	5b		 pop	 ebx
  000b1	64 89 0d 00 00
	00 00		 mov	 DWORD PTR fs:__except_list, ecx
  000b8	c9		 leave
  000b9	c2 04 00	 ret	 4
$L103784:

; 315  : 			}
; 316  : 		}
; 317  : 		//---------------------------------------------------
; 318  : 		// Stop 
; 319  : 		//---------------------------------------------------
; 320  : 		else
; 321  : 		{
; 322  : 			//---------------------------------------------------
; 323  : 			// firstSpriteID  i  node .
; 324  : 			//---------------------------------------------------
; 325  : 			MLoadingSPKWorkNode4* pNode = new MLoadingSPKWorkNode4( 

  000bc	68 1c 01 00 00	 push	 284			; 0000011cH
  000c1	e8 00 00 00 00	 call	 ??2@YAPAXI@Z		; operator new
  000c6	59		 pop	 ecx
  000c7	89 45 f0	 mov	 DWORD PTR $T107696[ebp], eax
  000ca	3b c3		 cmp	 eax, ebx
  000cc	c6 45 fc 01	 mov	 BYTE PTR __$EHRec$[ebp+8], 1
  000d0	74 28		 je	 SHORT $L107697
  000d2	8b 4d a4	 mov	 ecx, DWORD PTR _spkFile$[ebp+4]
  000d5	3b cb		 cmp	 ecx, ebx
  000d7	74 07		 je	 SHORT $L107718
  000d9	8b 01		 mov	 eax, DWORD PTR [ecx]
  000db	ff 50 1c	 call	 DWORD PTR [eax+28]
  000de	eb 02		 jmp	 SHORT $L107717
$L107718:
  000e0	33 c0		 xor	 eax, eax
$L107717:
  000e2	8b 4d f0	 mov	 ecx, DWORD PTR $T107696[ebp]
  000e5	50		 push	 eax
  000e6	33 c0		 xor	 eax, eax
  000e8	66 8b 86 16 01
	00 00		 mov	 ax, WORD PTR [esi+278]
  000ef	50		 push	 eax
  000f0	57		 push	 edi
  000f1	e8 00 00 00 00	 call	 ??0MLoadingSPKWorkNode4@@QAE@GGJ@Z ; MLoadingSPKWorkNode4::MLoadingSPKWorkNode4
  000f6	8b f8		 mov	 edi, eax
  000f8	eb 02		 jmp	 SHORT $L107698
$L107697:
  000fa	33 ff		 xor	 edi, edi
$L107698:

; 326  : 													i,					// first SpriteID
; 327  : 													m_LastSpriteID,		// last SpriteID
; 328  : 													spkFile.tellg()		// file position
; 329  : 												);
; 330  : 			pNode->SetSPK( m_pSPK, m_SPKFilename );

  000fc	8d 46 14	 lea	 eax, DWORD PTR [esi+20]
  000ff	50		 push	 eax
  00100	ff 76 10	 push	 DWORD PTR [esi+16]
  00103	8b cf		 mov	 ecx, edi
  00105	88 5d fc	 mov	 BYTE PTR __$EHRec$[ebp+8], bl
  00108	e8 00 00 00 00	 call	 ?SetSPK@MLoadingSPKWorkNode@@QAEXPAV?$CTypePack2@VCSprite@@VCSprite555@@VCSprite565@@@@PBD@Z ; MLoadingSPKWorkNode::SetSPK

; 331  : 			pNode->SetType( m_Type );

  0010d	8b 76 04	 mov	 esi, DWORD PTR [esi+4]

; 332  : 
; 333  : 			spkFile.close();

  00110	8d 4d a0	 lea	 ecx, DWORD PTR _spkFile$[ebp]
  00113	89 77 04	 mov	 DWORD PTR [edi+4], esi
  00116	e8 00 00 00 00	 call	 ?close@iovfs_base@@QAEXXZ ; iovfs_base::close

; 334  : 			
; 335  : 			pRemainNode = pNode;

  0011b	8b 45 08	 mov	 eax, DWORD PTR _pRemainNode$[ebp]
  0011e	89 38		 mov	 DWORD PTR [eax], edi
  00120	33 f6		 xor	 esi, esi
  00122	e9 6f ff ff ff	 jmp	 $L107737
_TEXT	ENDS
;	COMDAT text$x
text$x	SEGMENT
$L107701:
  00000	8d 4d a0	 lea	 ecx, DWORD PTR _spkFile$[ebp]
  00003	e9 00 00 00 00	 jmp	 ??1ivfstream@@UAE@XZ	; ivfstream::~ivfstream
$L107702:
  00008	ff 75 f0	 push	 DWORD PTR $T107696[ebp]
  0000b	e8 00 00 00 00	 call	 ??3@YAXPAX@Z		; operator delete
  00010	59		 pop	 ecx
  00011	c3		 ret	 0
__ehhandler$?Execute@MLoadingSPKWorkNode4@@UAEHAAPAVMWorkNode@@@Z:
  00012	b8 00 00 00 00	 mov	 eax, OFFSET FLAT:$T107734
  00017	e9 00 00 00 00	 jmp	 ___CxxFrameHandler
text$x	ENDS
?Execute@MLoadingSPKWorkNode4@@UAEHAAPAVMWorkNode@@@Z ENDP ; MLoadingSPKWorkNode4::Execute
END
