; Listing generated by Microsoft (R) Optimizing Compiler Version 13.10.3077 

	TITLE	\darkeden\Designed_Common\Project\Client\MNPCTable.cpp
	.386P
include listing.inc
if @Version gt 510
.model FLAT
else
_TEXT	SEGMENT PARA USE32 PUBLIC 'CODE'
_TEXT	ENDS
_DATA	SEGMENT DWORD USE32 PUBLIC 'DATA'
_DATA	ENDS
CONST	SEGMENT DWORD USE32 PUBLIC 'CONST'
CONST	ENDS
_BSS	SEGMENT DWORD USE32 PUBLIC 'BSS'
_BSS	ENDS
$$SYMBOLS	SEGMENT BYTE USE32 'DEBSYM'
$$SYMBOLS	ENDS
$$TYPES	SEGMENT BYTE USE32 'DEBTYP'
$$TYPES	ENDS
_TLS	SEGMENT DWORD USE32 PUBLIC 'TLS'
_TLS	ENDS
;	COMDAT ??_C@_0BN@ODLNCKCA@Data?2?2Info?2?2ClientConfig?4inf?$AA@
CONST	SEGMENT DWORD USE32 PUBLIC 'CONST'
CONST	ENDS
;	COMDAT ??_C@_0BM@DFPLPGPC@Data?2?2Info?2?2GuildMapper?4inf?$AA@
CONST	SEGMENT DWORD USE32 PUBLIC 'CONST'
CONST	ENDS
;	COMDAT ??_C@_0BN@LHODHNBK@Data?2?2Info?2?2GuildVersion?4inf?$AA@
CONST	SEGMENT DWORD USE32 PUBLIC 'CONST'
CONST	ENDS
;	COMDAT ??_C@_0BH@DDPLNCOL@Data?2?2Info?2?2Player?4inf?$AA@
CONST	SEGMENT DWORD USE32 PUBLIC 'CONST'
CONST	ENDS
;	COMDAT ??_C@_0BL@ILLNAPHB@Data?2?2Info?2?2Resolution?4inf?$AA@
CONST	SEGMENT DWORD USE32 PUBLIC 'CONST'
CONST	ENDS
;	COMDAT ??_C@_0CA@HEIGFDLG@Data?2?2Info?2?2SelectedChannel?4inf?$AA@
CONST	SEGMENT DWORD USE32 PUBLIC 'CONST'
CONST	ENDS
;	COMDAT ??_C@_0N@GOPDCEEB@basic_string?$AA@
CONST	SEGMENT DWORD USE32 PUBLIC 'CONST'
CONST	ENDS
rdata$r	SEGMENT DWORD USE32 PUBLIC 'CONST'
rdata$r	ENDS
text$yc	SEGMENT PARA USE32 PUBLIC 'CODE'
text$yc	ENDS
CRT$XCA	SEGMENT DWORD USE32 PUBLIC 'DATA'
CRT$XCA	ENDS
CRT$XCU	SEGMENT DWORD USE32 PUBLIC 'DATA'
CRT$XCU	ENDS
CRT$XCL	SEGMENT DWORD USE32 PUBLIC 'DATA'
CRT$XCL	ENDS
CRT$XCC	SEGMENT DWORD USE32 PUBLIC 'DATA'
CRT$XCC	ENDS
CRT$XCZ	SEGMENT DWORD USE32 PUBLIC 'DATA'
CRT$XCZ	ENDS
text$yd	SEGMENT PARA USE32 PUBLIC 'CODE'
text$yd	ENDS
;	COMDAT ?start@CNFS@@QAE_NPADH@Z
_TEXT	SEGMENT PARA USE32 PUBLIC 'CODE'
_TEXT	ENDS
;	COMDAT ?end@CNFS@@QAEXXZ
_TEXT	SEGMENT PARA USE32 PUBLIC 'CODE'
_TEXT	ENDS
;	COMDAT ?Init@VirtualFileHeader@@QAEXXZ
_TEXT	SEGMENT PARA USE32 PUBLIC 'CODE'
_TEXT	ENDS
;	COMDAT ??1IFileIO@@UAE@XZ
_TEXT	SEGMENT PARA USE32 PUBLIC 'CODE'
_TEXT	ENDS
;	COMDAT ??_GIFileIO@@UAEPAXI@Z
_TEXT	SEGMENT PARA USE32 PUBLIC 'CODE'
_TEXT	ENDS
;	COMDAT ??0iovfs_base@@QAE@XZ
_TEXT	SEGMENT PARA USE32 PUBLIC 'CODE'
_TEXT	ENDS
;	COMDAT ??_Giovfs_base@@UAEPAXI@Z
_TEXT	SEGMENT PARA USE32 PUBLIC 'CODE'
_TEXT	ENDS
;	COMDAT ??1iovfs_base@@UAE@XZ
_TEXT	SEGMENT PARA USE32 PUBLIC 'CODE'
_TEXT	ENDS
;	COMDAT ?Init@iovfs_base@@QAEXXZ
_TEXT	SEGMENT PARA USE32 PUBLIC 'CODE'
_TEXT	ENDS
;	COMDAT ??_Givfstream@@UAEPAXI@Z
_TEXT	SEGMENT PARA USE32 PUBLIC 'CODE'
_TEXT	ENDS
;	COMDAT ??1ivfstream@@UAE@XZ
_TEXT	SEGMENT PARA USE32 PUBLIC 'CODE'
_TEXT	ENDS
;	COMDAT ?open@ivfstream@@UAEXPBDH@Z
_TEXT	SEGMENT PARA USE32 PUBLIC 'CODE'
_TEXT	ENDS
;	COMDAT ?read@ivfstream@@QAEXPADI@Z
_TEXT	SEGMENT PARA USE32 PUBLIC 'CODE'
_TEXT	ENDS
;	COMDAT ??_Govfstream@@UAEPAXI@Z
_TEXT	SEGMENT PARA USE32 PUBLIC 'CODE'
_TEXT	ENDS
;	COMDAT ??1ovfstream@@UAE@XZ
_TEXT	SEGMENT PARA USE32 PUBLIC 'CODE'
_TEXT	ENDS
;	COMDAT ?open@ovfstream@@UAEXPBDH@Z
_TEXT	SEGMENT PARA USE32 PUBLIC 'CODE'
_TEXT	ENDS
;	COMDAT ?Release@NPC_INFO@@QAEXXZ
_TEXT	SEGMENT PARA USE32 PUBLIC 'CODE'
_TEXT	ENDS
;	COMDAT ?SaveToFile@NPC_INFO@@QAEXAAV?$basic_ofstream@DV?$char_traits@D@_STL@@@_STL@@@Z
_TEXT	SEGMENT PARA USE32 PUBLIC 'CODE'
_TEXT	ENDS
;	COMDAT ?LoadFromFile@NPC_INFO@@QAEXAAVivfstream@@@Z
_TEXT	SEGMENT PARA USE32 PUBLIC 'CODE'
_TEXT	ENDS
;	COMDAT ??0MNPCTable@@QAE@XZ
_TEXT	SEGMENT PARA USE32 PUBLIC 'CODE'
_TEXT	ENDS
;	COMDAT ??_GMNPCTable@@UAEPAXI@Z
_TEXT	SEGMENT PARA USE32 PUBLIC 'CODE'
_TEXT	ENDS
;	COMDAT ??1MNPCTable@@UAE@XZ
_TEXT	SEGMENT PARA USE32 PUBLIC 'CODE'
_TEXT	ENDS
;	COMDAT ?Release@SERVERNPC_INFO@@QAEXXZ
_TEXT	SEGMENT PARA USE32 PUBLIC 'CODE'
_TEXT	ENDS
;	COMDAT ?SaveToFile@SERVERNPC_INFO@@QAEXAAV?$basic_ofstream@DV?$char_traits@D@_STL@@@_STL@@@Z
_TEXT	SEGMENT PARA USE32 PUBLIC 'CODE'
_TEXT	ENDS
;	COMDAT ?LoadFromFile@SERVERNPC_INFO@@QAEXAAVivfstream@@@Z
_TEXT	SEGMENT PARA USE32 PUBLIC 'CODE'
_TEXT	ENDS
;	COMDAT ??0MServerNPCTable@@QAE@XZ
_TEXT	SEGMENT PARA USE32 PUBLIC 'CODE'
_TEXT	ENDS
;	COMDAT ??_GMServerNPCTable@@UAEPAXI@Z
_TEXT	SEGMENT PARA USE32 PUBLIC 'CODE'
_TEXT	ENDS
;	COMDAT ??1?$map@HHU?$less@H@_STL@@V?$allocator@U?$pair@$$CBHH@_STL@@@2@@_STL@@QAE@XZ
_TEXT	SEGMENT PARA USE32 PUBLIC 'CODE'
_TEXT	ENDS
;	COMDAT ??1MServerNPCTable@@UAE@XZ
_TEXT	SEGMENT PARA USE32 PUBLIC 'CODE'
_TEXT	ENDS
;	COMDAT ?AffectToNPCTable@MServerNPCTable@@QAEHPAVMNPCTable@@@Z
_TEXT	SEGMENT PARA USE32 PUBLIC 'CODE'
_TEXT	ENDS
;	COMDAT ??0NPC_INFO@@QAE@XZ
_TEXT	SEGMENT PARA USE32 PUBLIC 'CODE'
_TEXT	ENDS
;	COMDAT ?eq@?$__char_traits_base@DH@_STL@@SA_NABD0@Z
_TEXT	SEGMENT PARA USE32 PUBLIC 'CODE'
_TEXT	ENDS
;	COMDAT ?not_eof@?$__char_traits_base@DH@_STL@@SAHABH@Z
_TEXT	SEGMENT PARA USE32 PUBLIC 'CODE'
_TEXT	ENDS
;	COMDAT ?eq_int_type@?$__char_traits_base@DH@_STL@@SA_NABH0@Z
_TEXT	SEGMENT PARA USE32 PUBLIC 'CODE'
_TEXT	ENDS
;	COMDAT ?get_allocator@?$basic_string@DV?$char_traits@D@_STL@@V?$allocator@D@2@@_STL@@QBE?AV?$allocator@D@2@XZ
_TEXT	SEGMENT PARA USE32 PUBLIC 'CODE'
_TEXT	ENDS
;	COMDAT ??4?$basic_string@DV?$char_traits@D@_STL@@V?$allocator@D@2@@_STL@@QAEAAV01@PBD@Z
_TEXT	SEGMENT PARA USE32 PUBLIC 'CODE'
_TEXT	ENDS
;	COMDAT ?_M_terminate_string@?$basic_string@DV?$char_traits@D@_STL@@V?$allocator@D@2@@_STL@@AAEXXZ
_TEXT	SEGMENT PARA USE32 PUBLIC 'CODE'
_TEXT	ENDS
;	COMDAT ??0?$_String_base@DV?$allocator@D@_STL@@@_STL@@QAE@ABV?$allocator@D@1@@Z
_TEXT	SEGMENT PARA USE32 PUBLIC 'CODE'
_TEXT	ENDS
;	COMDAT ?allocate@?$allocator@D@_STL@@QAEPADIPBX@Z
_TEXT	SEGMENT PARA USE32 PUBLIC 'CODE'
_TEXT	ENDS
;	COMDAT ??0?$fpos@H@_STL@@QAE@J@Z
_TEXT	SEGMENT PARA USE32 PUBLIC 'CODE'
_TEXT	ENDS
;	COMDAT ??B?$fpos@H@_STL@@QBEJXZ
_TEXT	SEGMENT PARA USE32 PUBLIC 'CODE'
_TEXT	ENDS
;	COMDAT ?state@?$fpos@H@_STL@@QBEHXZ
_TEXT	SEGMENT PARA USE32 PUBLIC 'CODE'
_TEXT	ENDS
;	COMDAT ?is_open@?$basic_filebuf@DV?$char_traits@D@_STL@@@_STL@@QBE_NXZ
_TEXT	SEGMENT PARA USE32 PUBLIC 'CODE'
_TEXT	ENDS
;	COMDAT ?_M_seek_return@?$basic_filebuf@DV?$char_traits@D@_STL@@@_STL@@AAE?AV?$fpos@H@2@JH@Z
_TEXT	SEGMENT PARA USE32 PUBLIC 'CODE'
_TEXT	ENDS
;	COMDAT ??0?$_Filebuf_Tmp_Buf@D@_STL@@QAE@H@Z
_TEXT	SEGMENT PARA USE32 PUBLIC 'CODE'
_TEXT	ENDS
;	COMDAT ??1?$_Filebuf_Tmp_Buf@D@_STL@@QAE@XZ
_TEXT	SEGMENT PARA USE32 PUBLIC 'CODE'
_TEXT	ENDS
;	COMDAT ??0?$list@IV?$allocator@I@_STL@@@_STL@@QAE@ABV?$allocator@I@1@@Z
_TEXT	SEGMENT PARA USE32 PUBLIC 'CODE'
_TEXT	ENDS
;	COMDAT ?begin@?$list@IV?$allocator@I@_STL@@@_STL@@QAE?AU?$_List_iterator@IU?$_Nonconst_traits@I@_STL@@@2@XZ
_TEXT	SEGMENT PARA USE32 PUBLIC 'CODE'
_TEXT	ENDS
;	COMDAT ?end@?$list@IV?$allocator@I@_STL@@@_STL@@QAE?AU?$_List_iterator@IU?$_Nonconst_traits@I@_STL@@@2@XZ
_TEXT	SEGMENT PARA USE32 PUBLIC 'CODE'
_TEXT	ENDS
;	COMDAT ?size@?$list@IV?$allocator@I@_STL@@@_STL@@QBEIXZ
_TEXT	SEGMENT PARA USE32 PUBLIC 'CODE'
_TEXT	ENDS
;	COMDAT ?push_back@?$list@IV?$allocator@I@_STL@@@_STL@@QAEXABI@Z
_TEXT	SEGMENT PARA USE32 PUBLIC 'CODE'
_TEXT	ENDS
;	COMDAT ??1?$list@IV?$allocator@I@_STL@@@_STL@@QAE@XZ
_TEXT	SEGMENT PARA USE32 PUBLIC 'CODE'
_TEXT	ENDS
;	COMDAT ??0?$allocator@I@_STL@@QAE@XZ
_TEXT	SEGMENT PARA USE32 PUBLIC 'CODE'
_TEXT	ENDS
;	COMDAT ??1?$allocator@I@_STL@@QAE@XZ
_TEXT	SEGMENT PARA USE32 PUBLIC 'CODE'
_TEXT	ENDS
;	COMDAT ?begin@?$map@IPAVSERVERNPC_INFO@@U?$less@I@_STL@@V?$allocator@U?$pair@$$CBIPAVSERVERNPC_INFO@@@_STL@@@3@@_STL@@QAE?AU?$_Rb_tree_iterator@U?$pair@$$CBIPAVSERVERNPC_INFO@@@_STL@@U?$_Nonconst_traits@U?$pair@$$CBIPAVSERVERNPC_INFO@@@_STL@@@2@@2@XZ
_TEXT	SEGMENT PARA USE32 PUBLIC 'CODE'
_TEXT	ENDS
;	COMDAT ?end@?$map@IPAVSERVERNPC_INFO@@U?$less@I@_STL@@V?$allocator@U?$pair@$$CBIPAVSERVERNPC_INFO@@@_STL@@@3@@_STL@@QAE?AU?$_Rb_tree_iterator@U?$pair@$$CBIPAVSERVERNPC_INFO@@@_STL@@U?$_Nonconst_traits@U?$pair@$$CBIPAVSERVERNPC_INFO@@@_STL@@@2@@2@XZ
_TEXT	SEGMENT PARA USE32 PUBLIC 'CODE'
_TEXT	ENDS
;	COMDAT ?size@?$map@IPAVSERVERNPC_INFO@@U?$less@I@_STL@@V?$allocator@U?$pair@$$CBIPAVSERVERNPC_INFO@@@_STL@@@3@@_STL@@QBEIXZ
_TEXT	SEGMENT PARA USE32 PUBLIC 'CODE'
_TEXT	ENDS
;	COMDAT ??0?$map@HHU?$less@H@_STL@@V?$allocator@U?$pair@$$CBHH@_STL@@@2@@_STL@@QAE@XZ
_TEXT	SEGMENT PARA USE32 PUBLIC 'CODE'
_TEXT	ENDS
;	COMDAT ?end@?$map@HHU?$less@H@_STL@@V?$allocator@U?$pair@$$CBHH@_STL@@@2@@_STL@@QAE?AU?$_Rb_tree_iterator@U?$pair@$$CBHH@_STL@@U?$_Nonconst_traits@U?$pair@$$CBHH@_STL@@@2@@2@XZ
_TEXT	SEGMENT PARA USE32 PUBLIC 'CODE'
_TEXT	ENDS
;	COMDAT ??A?$map@HHU?$less@H@_STL@@V?$allocator@U?$pair@$$CBHH@_STL@@@2@@_STL@@QAEAAHABH@Z
_TEXT	SEGMENT PARA USE32 PUBLIC 'CODE'
_TEXT	ENDS
;	COMDAT ?clear@?$map@HHU?$less@H@_STL@@V?$allocator@U?$pair@$$CBHH@_STL@@@2@@_STL@@QAEXXZ
_TEXT	SEGMENT PARA USE32 PUBLIC 'CODE'
_TEXT	ENDS
;	COMDAT ?find@?$map@HHU?$less@H@_STL@@V?$allocator@U?$pair@$$CBHH@_STL@@@2@@_STL@@QAE?AU?$_Rb_tree_iterator@U?$pair@$$CBHH@_STL@@U?$_Nonconst_traits@U?$pair@$$CBHH@_STL@@@2@@2@ABH@Z
_TEXT	SEGMENT PARA USE32 PUBLIC 'CODE'
_TEXT	ENDS
;	COMDAT ??1?$_Rb_tree@HU?$pair@$$CBHH@_STL@@U?$_Select1st@U?$pair@$$CBHH@_STL@@@2@U?$less@H@2@V?$allocator@U?$pair@$$CBHH@_STL@@@2@@_STL@@QAE@XZ
_TEXT	SEGMENT PARA USE32 PUBLIC 'CODE'
_TEXT	ENDS
;	COMDAT ??1?$basic_ofstream@DV?$char_traits@D@_STL@@@_STL@@UAE@XZ
_TEXT	SEGMENT PARA USE32 PUBLIC 'CODE'
_TEXT	ENDS
;	COMDAT ??D?$_List_iterator@IU?$_Nonconst_traits@I@_STL@@@_STL@@QBEAAIXZ
_TEXT	SEGMENT PARA USE32 PUBLIC 'CODE'
_TEXT	ENDS
;	COMDAT ??E?$_List_iterator@IU?$_Nonconst_traits@I@_STL@@@_STL@@QAE?AU01@H@Z
_TEXT	SEGMENT PARA USE32 PUBLIC 'CODE'
_TEXT	ENDS
;	COMDAT ??D?$_Rb_tree_iterator@U?$pair@$$CBIPAVSERVERNPC_INFO@@@_STL@@U?$_Nonconst_traits@U?$pair@$$CBIPAVSERVERNPC_INFO@@@_STL@@@2@@_STL@@QBEAAU?$pair@$$CBIPAVSERVERNPC_INFO@@@1@XZ
_TEXT	SEGMENT PARA USE32 PUBLIC 'CODE'
_TEXT	ENDS
;	COMDAT ??E?$_Rb_tree_iterator@U?$pair@$$CBIPAVSERVERNPC_INFO@@@_STL@@U?$_Nonconst_traits@U?$pair@$$CBIPAVSERVERNPC_INFO@@@_STL@@@2@@_STL@@QAE?AU01@H@Z
_TEXT	SEGMENT PARA USE32 PUBLIC 'CODE'
_TEXT	ENDS
;	COMDAT ??A?$CTypeTable@VCREATURETABLE_INFO@@@@QAEAAVCREATURETABLE_INFO@@H@Z
_TEXT	SEGMENT PARA USE32 PUBLIC 'CODE'
_TEXT	ENDS
;	COMDAT ??_G?$basic_ofstream@DV?$char_traits@D@_STL@@@_STL@@UAEPAXI@Z
_TEXT	SEGMENT PARA USE32 PUBLIC 'CODE'
_TEXT	ENDS
;	COMDAT ??_D?$basic_ofstream@DV?$char_traits@D@_STL@@@_STL@@QAEXXZ
_TEXT	SEGMENT PARA USE32 PUBLIC 'CODE'
_TEXT	ENDS
;	COMDAT ?_M_terminate_string_aux@?$basic_string@DV?$char_traits@D@_STL@@V?$allocator@D@2@@_STL@@AAEXABU__true_type@2@@Z
_TEXT	SEGMENT PARA USE32 PUBLIC 'CODE'
_TEXT	ENDS
;	COMDAT ?assign@?$basic_string@DV?$char_traits@D@_STL@@V?$allocator@D@2@@_STL@@QAEAAV12@PBD0@Z
_TEXT	SEGMENT PARA USE32 PUBLIC 'CODE'
_TEXT	ENDS
;	COMDAT ??0?$allocator@D@_STL@@QAE@ABV01@@Z
_TEXT	SEGMENT PARA USE32 PUBLIC 'CODE'
_TEXT	ENDS
;	COMDAT ??0?$_STLP_alloc_proxy@PADDV?$allocator@D@_STL@@@_STL@@QAE@ABV?$allocator@D@1@PAD@Z
_TEXT	SEGMENT PARA USE32 PUBLIC 'CODE'
_TEXT	ENDS
;	COMDAT ?state@?$fpos@H@_STL@@QAEXH@Z
_TEXT	SEGMENT PARA USE32 PUBLIC 'CODE'
_TEXT	ENDS
;	COMDAT ?begin@?$list@IV?$allocator@I@_STL@@@_STL@@QBE?AU?$_List_iterator@IU?$_Const_traits@I@_STL@@@2@XZ
_TEXT	SEGMENT PARA USE32 PUBLIC 'CODE'
_TEXT	ENDS
;	COMDAT ?end@?$list@IV?$allocator@I@_STL@@@_STL@@QBE?AU?$_List_iterator@IU?$_Const_traits@I@_STL@@@2@XZ
_TEXT	SEGMENT PARA USE32 PUBLIC 'CODE'
_TEXT	ENDS
;	COMDAT ?insert@?$list@IV?$allocator@I@_STL@@@_STL@@QAE?AU?$_List_iterator@IU?$_Nonconst_traits@I@_STL@@@2@U32@ABI@Z
_TEXT	SEGMENT PARA USE32 PUBLIC 'CODE'
_TEXT	ENDS
;	COMDAT ??0?$_List_base@IV?$allocator@I@_STL@@@_STL@@QAE@ABV?$allocator@I@1@@Z
_TEXT	SEGMENT PARA USE32 PUBLIC 'CODE'
_TEXT	ENDS
;	COMDAT ??1?$_List_base@IV?$allocator@I@_STL@@@_STL@@QAE@XZ
_TEXT	SEGMENT PARA USE32 PUBLIC 'CODE'
_TEXT	ENDS
;	COMDAT ?begin@?$_Rb_tree@IU?$pair@$$CBIPAVSERVERNPC_INFO@@@_STL@@U?$_Select1st@U?$pair@$$CBIPAVSERVERNPC_INFO@@@_STL@@@2@U?$less@I@2@V?$allocator@U?$pair@$$CBIPAVSERVERNPC_INFO@@@_STL@@@2@@_STL@@QAE?AU?$_Rb_tree_iterator@U?$pair@$$CBIPAVSERVERNPC_INFO@@@_STL@@U?$_Nonconst_traits@U?$pair@$$CBIPAVSERVERNPC_INFO@@@_STL@@@2@@2@XZ
_TEXT	SEGMENT PARA USE32 PUBLIC 'CODE'
_TEXT	ENDS
;	COMDAT ?end@?$_Rb_tree@IU?$pair@$$CBIPAVSERVERNPC_INFO@@@_STL@@U?$_Select1st@U?$pair@$$CBIPAVSERVERNPC_INFO@@@_STL@@@2@U?$less@I@2@V?$allocator@U?$pair@$$CBIPAVSERVERNPC_INFO@@@_STL@@@2@@_STL@@QAE?AU?$_Rb_tree_iterator@U?$pair@$$CBIPAVSERVERNPC_INFO@@@_STL@@U?$_Nonconst_traits@U?$pair@$$CBIPAVSERVERNPC_INFO@@@_STL@@@2@@2@XZ
_TEXT	SEGMENT PARA USE32 PUBLIC 'CODE'
_TEXT	ENDS
;	COMDAT ?size@?$_Rb_tree@IU?$pair@$$CBIPAVSERVERNPC_INFO@@@_STL@@U?$_Select1st@U?$pair@$$CBIPAVSERVERNPC_INFO@@@_STL@@@2@U?$less@I@2@V?$allocator@U?$pair@$$CBIPAVSERVERNPC_INFO@@@_STL@@@2@@_STL@@QBEIXZ
_TEXT	SEGMENT PARA USE32 PUBLIC 'CODE'
_TEXT	ENDS
;	COMDAT ?key_comp@?$map@HHU?$less@H@_STL@@V?$allocator@U?$pair@$$CBHH@_STL@@@2@@_STL@@QBE?AU?$less@H@2@XZ
_TEXT	SEGMENT PARA USE32 PUBLIC 'CODE'
_TEXT	ENDS
;	COMDAT ?insert@?$map@HHU?$less@H@_STL@@V?$allocator@U?$pair@$$CBHH@_STL@@@2@@_STL@@QAE?AU?$_Rb_tree_iterator@U?$pair@$$CBHH@_STL@@U?$_Nonconst_traits@U?$pair@$$CBHH@_STL@@@2@@2@U32@ABU?$pair@$$CBHH@2@@Z
_TEXT	SEGMENT PARA USE32 PUBLIC 'CODE'
_TEXT	ENDS
;	COMDAT ?lower_bound@?$map@HHU?$less@H@_STL@@V?$allocator@U?$pair@$$CBHH@_STL@@@2@@_STL@@QAE?AU?$_Rb_tree_iterator@U?$pair@$$CBHH@_STL@@U?$_Nonconst_traits@U?$pair@$$CBHH@_STL@@@2@@2@ABH@Z
_TEXT	SEGMENT PARA USE32 PUBLIC 'CODE'
_TEXT	ENDS
;	COMDAT ??0?$_Rb_tree@HU?$pair@$$CBHH@_STL@@U?$_Select1st@U?$pair@$$CBHH@_STL@@@2@U?$less@H@2@V?$allocator@U?$pair@$$CBHH@_STL@@@2@@_STL@@QAE@ABU?$less@H@1@ABV?$allocator@U?$pair@$$CBHH@_STL@@@1@@Z
_TEXT	SEGMENT PARA USE32 PUBLIC 'CODE'
_TEXT	ENDS
;	COMDAT ?end@?$_Rb_tree@HU?$pair@$$CBHH@_STL@@U?$_Select1st@U?$pair@$$CBHH@_STL@@@2@U?$less@H@2@V?$allocator@U?$pair@$$CBHH@_STL@@@2@@_STL@@QAE?AU?$_Rb_tree_iterator@U?$pair@$$CBHH@_STL@@U?$_Nonconst_traits@U?$pair@$$CBHH@_STL@@@2@@2@XZ
_TEXT	SEGMENT PARA USE32 PUBLIC 'CODE'
_TEXT	ENDS
;	COMDAT ?clear@?$_Rb_tree@HU?$pair@$$CBHH@_STL@@U?$_Select1st@U?$pair@$$CBHH@_STL@@@2@U?$less@H@2@V?$allocator@U?$pair@$$CBHH@_STL@@@2@@_STL@@QAEXXZ
_TEXT	SEGMENT PARA USE32 PUBLIC 'CODE'
_TEXT	ENDS
;	COMDAT ??1?$_Rb_tree_base@U?$pair@$$CBHH@_STL@@V?$allocator@U?$pair@$$CBHH@_STL@@@2@@_STL@@QAE@XZ
_TEXT	SEGMENT PARA USE32 PUBLIC 'CODE'
_TEXT	ENDS
;	COMDAT ??0?$allocator@U?$pair@$$CBHH@_STL@@@_STL@@QAE@XZ
_TEXT	SEGMENT PARA USE32 PUBLIC 'CODE'
_TEXT	ENDS
;	COMDAT ??1?$allocator@U?$pair@$$CBHH@_STL@@@_STL@@QAE@XZ
_TEXT	SEGMENT PARA USE32 PUBLIC 'CODE'
_TEXT	ENDS
;	COMDAT ??R?$less@H@_STL@@QBE_NABH0@Z
_TEXT	SEGMENT PARA USE32 PUBLIC 'CODE'
_TEXT	ENDS
;	COMDAT ??0?$_List_iterator@IU?$_Nonconst_traits@I@_STL@@@_STL@@QAE@PAU?$_List_node@I@1@@Z
_TEXT	SEGMENT PARA USE32 PUBLIC 'CODE'
_TEXT	ENDS
;	COMDAT ??0?$_List_iterator@IU?$_Nonconst_traits@I@_STL@@@_STL@@QAE@ABU01@@Z
_TEXT	SEGMENT PARA USE32 PUBLIC 'CODE'
_TEXT	ENDS
;	COMDAT ??0?$_Rb_tree_iterator@U?$pair@$$CBIPAVSERVERNPC_INFO@@@_STL@@U?$_Nonconst_traits@U?$pair@$$CBIPAVSERVERNPC_INFO@@@_STL@@@2@@_STL@@QAE@ABU01@@Z
_TEXT	SEGMENT PARA USE32 PUBLIC 'CODE'
_TEXT	ENDS
;	COMDAT ??0?$_Rb_tree_iterator@U?$pair@$$CBHH@_STL@@U?$_Nonconst_traits@U?$pair@$$CBHH@_STL@@@2@@_STL@@QAE@ABU01@@Z
_TEXT	SEGMENT PARA USE32 PUBLIC 'CODE'
_TEXT	ENDS
;	COMDAT ??D?$_Rb_tree_iterator@U?$pair@$$CBHH@_STL@@U?$_Nonconst_traits@U?$pair@$$CBHH@_STL@@@2@@_STL@@QBEAAU?$pair@$$CBHH@1@XZ
_TEXT	SEGMENT PARA USE32 PUBLIC 'CODE'
_TEXT	ENDS
;	COMDAT ??0?$pair@$$CBHH@_STL@@QAE@ABH0@Z
_TEXT	SEGMENT PARA USE32 PUBLIC 'CODE'
_TEXT	ENDS
;	COMDAT ??1?$_STLP_alloc_proxy@PAU?$_List_node@I@_STL@@U12@V?$allocator@U?$_List_node@I@_STL@@@2@@_STL@@QAE@XZ
_TEXT	SEGMENT PARA USE32 PUBLIC 'CODE'
_TEXT	ENDS
;	COMDAT ??1?$_STLP_alloc_proxy@PAU?$_Rb_tree_node@U?$pair@$$CBHH@_STL@@@_STL@@U12@V?$allocator@U?$_Rb_tree_node@U?$pair@$$CBHH@_STL@@@_STL@@@2@@_STL@@QAE@XZ
_TEXT	SEGMENT PARA USE32 PUBLIC 'CODE'
_TEXT	ENDS
;	COMDAT ?copy@?$__char_traits_base@DH@_STL@@SAPADPADPBDI@Z
_TEXT	SEGMENT PARA USE32 PUBLIC 'CODE'
_TEXT	ENDS
;	COMDAT ?begin@?$basic_string@DV?$char_traits@D@_STL@@V?$allocator@D@2@@_STL@@QAEPADXZ
_TEXT	SEGMENT PARA USE32 PUBLIC 'CODE'
_TEXT	ENDS
;	COMDAT ?end@?$basic_string@DV?$char_traits@D@_STL@@V?$allocator@D@2@@_STL@@QAEPADXZ
_TEXT	SEGMENT PARA USE32 PUBLIC 'CODE'
_TEXT	ENDS
;	COMDAT ?size@?$basic_string@DV?$char_traits@D@_STL@@V?$allocator@D@2@@_STL@@QBEIXZ
_TEXT	SEGMENT PARA USE32 PUBLIC 'CODE'
_TEXT	ENDS
;	COMDAT ?erase@?$basic_string@DV?$char_traits@D@_STL@@V?$allocator@D@2@@_STL@@QAEPADPAD0@Z
_TEXT	SEGMENT PARA USE32 PUBLIC 'CODE'
_TEXT	ENDS
;	COMDAT ?_M_create_node@?$list@IV?$allocator@I@_STL@@@_STL@@IAEPAU?$_List_node@I@2@ABI@Z
_TEXT	SEGMENT PARA USE32 PUBLIC 'CODE'
_TEXT	ENDS
;	COMDAT ??0?$_STLP_alloc_proxy@PAU?$_List_node@I@_STL@@U12@V?$allocator@U?$_List_node@I@_STL@@@2@@_STL@@QAE@ABV?$allocator@U?$_List_node@I@_STL@@@1@PAU?$_List_node@I@1@@Z
_TEXT	SEGMENT PARA USE32 PUBLIC 'CODE'
_TEXT	ENDS
;	COMDAT ??1?$allocator@U?$_List_node@I@_STL@@@_STL@@QAE@XZ
_TEXT	SEGMENT PARA USE32 PUBLIC 'CODE'
_TEXT	ENDS
;	COMDAT ?allocate@?$allocator@U?$_List_node@I@_STL@@@_STL@@QAEPAU?$_List_node@I@2@IPBX@Z
_TEXT	SEGMENT PARA USE32 PUBLIC 'CODE'
_TEXT	ENDS
;	COMDAT ?deallocate@?$allocator@U?$_List_node@I@_STL@@@_STL@@QAEXPAU?$_List_node@I@2@I@Z
_TEXT	SEGMENT PARA USE32 PUBLIC 'CODE'
_TEXT	ENDS
;	COMDAT ?_M_leftmost@?$_Rb_tree@IU?$pair@$$CBIPAVSERVERNPC_INFO@@@_STL@@U?$_Select1st@U?$pair@$$CBIPAVSERVERNPC_INFO@@@_STL@@@2@U?$less@I@2@V?$allocator@U?$pair@$$CBIPAVSERVERNPC_INFO@@@_STL@@@2@@_STL@@IBEAAPAU?$_Rb_tree_node@U?$pair@$$CBIPAVSERVERNPC_INFO@@@_STL@@@2@XZ
_TEXT	SEGMENT PARA USE32 PUBLIC 'CODE'
_TEXT	ENDS
;	COMDAT ?_M_root@?$_Rb_tree@HU?$pair@$$CBHH@_STL@@U?$_Select1st@U?$pair@$$CBHH@_STL@@@2@U?$less@H@2@V?$allocator@U?$pair@$$CBHH@_STL@@@2@@_STL@@IBEAAPAU?$_Rb_tree_node@U?$pair@$$CBHH@_STL@@@2@XZ
_TEXT	SEGMENT PARA USE32 PUBLIC 'CODE'
_TEXT	ENDS
;	COMDAT ?_M_leftmost@?$_Rb_tree@HU?$pair@$$CBHH@_STL@@U?$_Select1st@U?$pair@$$CBHH@_STL@@@2@U?$less@H@2@V?$allocator@U?$pair@$$CBHH@_STL@@@2@@_STL@@IBEAAPAU?$_Rb_tree_node@U?$pair@$$CBHH@_STL@@@2@XZ
_TEXT	SEGMENT PARA USE32 PUBLIC 'CODE'
_TEXT	ENDS
;	COMDAT ?_M_rightmost@?$_Rb_tree@HU?$pair@$$CBHH@_STL@@U?$_Select1st@U?$pair@$$CBHH@_STL@@@2@U?$less@H@2@V?$allocator@U?$pair@$$CBHH@_STL@@@2@@_STL@@IBEAAPAU?$_Rb_tree_node@U?$pair@$$CBHH@_STL@@@2@XZ
_TEXT	SEGMENT PARA USE32 PUBLIC 'CODE'
_TEXT	ENDS
;	COMDAT ?_M_empty_initialize@?$_Rb_tree@HU?$pair@$$CBHH@_STL@@U?$_Select1st@U?$pair@$$CBHH@_STL@@@2@U?$less@H@2@V?$allocator@U?$pair@$$CBHH@_STL@@@2@@_STL@@AAEXXZ
_TEXT	SEGMENT PARA USE32 PUBLIC 'CODE'
_TEXT	ENDS
;	COMDAT ?key_comp@?$_Rb_tree@HU?$pair@$$CBHH@_STL@@U?$_Select1st@U?$pair@$$CBHH@_STL@@@2@U?$less@H@2@V?$allocator@U?$pair@$$CBHH@_STL@@@2@@_STL@@QBE?AU?$less@H@2@XZ
_TEXT	SEGMENT PARA USE32 PUBLIC 'CODE'
_TEXT	ENDS
;	COMDAT ?lower_bound@?$_Rb_tree@HU?$pair@$$CBHH@_STL@@U?$_Select1st@U?$pair@$$CBHH@_STL@@@2@U?$less@H@2@V?$allocator@U?$pair@$$CBHH@_STL@@@2@@_STL@@QAE?AU?$_Rb_tree_iterator@U?$pair@$$CBHH@_STL@@U?$_Nonconst_traits@U?$pair@$$CBHH@_STL@@@2@@2@ABH@Z
_TEXT	SEGMENT PARA USE32 PUBLIC 'CODE'
_TEXT	ENDS
;	COMDAT ??0?$_Rb_tree_base@U?$pair@$$CBHH@_STL@@V?$allocator@U?$pair@$$CBHH@_STL@@@2@@_STL@@QAE@ABV?$allocator@U?$pair@$$CBHH@_STL@@@1@@Z
_TEXT	SEGMENT PARA USE32 PUBLIC 'CODE'
_TEXT	ENDS
;	COMDAT ??1?$allocator@U?$_Rb_tree_node@U?$pair@$$CBHH@_STL@@@_STL@@@_STL@@QAE@XZ
_TEXT	SEGMENT PARA USE32 PUBLIC 'CODE'
_TEXT	ENDS
;	COMDAT ?deallocate@?$allocator@U?$_Rb_tree_node@U?$pair@$$CBHH@_STL@@@_STL@@@_STL@@QAEXPAU?$_Rb_tree_node@U?$pair@$$CBHH@_STL@@@2@I@Z
_TEXT	SEGMENT PARA USE32 PUBLIC 'CODE'
_TEXT	ENDS
;	COMDAT ??0?$_Rb_tree_iterator@U?$pair@$$CBIPAVSERVERNPC_INFO@@@_STL@@U?$_Nonconst_traits@U?$pair@$$CBIPAVSERVERNPC_INFO@@@_STL@@@2@@_STL@@QAE@PAU?$_Rb_tree_node@U?$pair@$$CBIPAVSERVERNPC_INFO@@@_STL@@@1@@Z
_TEXT	SEGMENT PARA USE32 PUBLIC 'CODE'
_TEXT	ENDS
;	COMDAT ??0?$_Rb_tree_iterator@U?$pair@$$CBHH@_STL@@U?$_Nonconst_traits@U?$pair@$$CBHH@_STL@@@2@@_STL@@QAE@PAU?$_Rb_tree_node@U?$pair@$$CBHH@_STL@@@1@@Z
_TEXT	SEGMENT PARA USE32 PUBLIC 'CODE'
_TEXT	ENDS
;	COMDAT ??0?$_List_iterator@IU?$_Const_traits@I@_STL@@@_STL@@QAE@PAU?$_List_node@I@1@@Z
_TEXT	SEGMENT PARA USE32 PUBLIC 'CODE'
_TEXT	ENDS
;	COMDAT ?move@?$__char_traits_base@DH@_STL@@SAPADPADPBDI@Z
_TEXT	SEGMENT PARA USE32 PUBLIC 'CODE'
_TEXT	ENDS
;	COMDAT ??0?$allocator@U?$_List_node@I@_STL@@@_STL@@QAE@ABV01@@Z
_TEXT	SEGMENT PARA USE32 PUBLIC 'CODE'
_TEXT	ENDS
;	COMDAT ?_S_color@?$_Rb_tree@HU?$pair@$$CBHH@_STL@@U?$_Select1st@U?$pair@$$CBHH@_STL@@@2@U?$less@H@2@V?$allocator@U?$pair@$$CBHH@_STL@@@2@@_STL@@KAAA_NPAU?$_Rb_tree_node@U?$pair@$$CBHH@_STL@@@2@@Z
_TEXT	SEGMENT PARA USE32 PUBLIC 'CODE'
_TEXT	ENDS
;	COMDAT ?_M_lower_bound@?$_Rb_tree@HU?$pair@$$CBHH@_STL@@U?$_Select1st@U?$pair@$$CBHH@_STL@@@2@U?$less@H@2@V?$allocator@U?$pair@$$CBHH@_STL@@@2@@_STL@@ABEPAU?$_Rb_tree_node@U?$pair@$$CBHH@_STL@@@2@ABH@Z
_TEXT	SEGMENT PARA USE32 PUBLIC 'CODE'
_TEXT	ENDS
;	COMDAT ??0?$_STLP_alloc_proxy@PAU?$_Rb_tree_node@U?$pair@$$CBHH@_STL@@@_STL@@U12@V?$allocator@U?$_Rb_tree_node@U?$pair@$$CBHH@_STL@@@_STL@@@2@@_STL@@QAE@ABV?$allocator@U?$_Rb_tree_node@U?$pair@$$CBHH@_STL@@@_STL@@@1@PAU?$_Rb_tree_node@U?$pair@$$CBHH@_STL@@@1@@Z
_TEXT	SEGMENT PARA USE32 PUBLIC 'CODE'
_TEXT	ENDS
;	COMDAT ?allocate@?$allocator@U?$_Rb_tree_node@U?$pair@$$CBHH@_STL@@@_STL@@@_STL@@QAEPAU?$_Rb_tree_node@U?$pair@$$CBHH@_STL@@@2@IPBX@Z
_TEXT	SEGMENT PARA USE32 PUBLIC 'CODE'
_TEXT	ENDS
;	COMDAT ?_S_left@?$_Rb_tree@HU?$pair@$$CBHH@_STL@@U?$_Select1st@U?$pair@$$CBHH@_STL@@@2@U?$less@H@2@V?$allocator@U?$pair@$$CBHH@_STL@@@2@@_STL@@KAAAPAU?$_Rb_tree_node@U?$pair@$$CBHH@_STL@@@2@PAU32@@Z
_TEXT	SEGMENT PARA USE32 PUBLIC 'CODE'
_TEXT	ENDS
;	COMDAT ?_S_right@?$_Rb_tree@HU?$pair@$$CBHH@_STL@@U?$_Select1st@U?$pair@$$CBHH@_STL@@@2@U?$less@H@2@V?$allocator@U?$pair@$$CBHH@_STL@@@2@@_STL@@KAAAPAU?$_Rb_tree_node@U?$pair@$$CBHH@_STL@@@2@PAU32@@Z
_TEXT	SEGMENT PARA USE32 PUBLIC 'CODE'
_TEXT	ENDS
;	COMDAT ?_S_key@?$_Rb_tree@HU?$pair@$$CBHH@_STL@@U?$_Select1st@U?$pair@$$CBHH@_STL@@@2@U?$less@H@2@V?$allocator@U?$pair@$$CBHH@_STL@@@2@@_STL@@KAABHPAU?$_Rb_tree_node@U?$pair@$$CBHH@_STL@@@2@@Z
_TEXT	SEGMENT PARA USE32 PUBLIC 'CODE'
_TEXT	ENDS
;	COMDAT ??0?$allocator@U?$_Rb_tree_node@U?$pair@$$CBHH@_STL@@@_STL@@@_STL@@QAE@ABV01@@Z
_TEXT	SEGMENT PARA USE32 PUBLIC 'CODE'
_TEXT	ENDS
;	COMDAT ?_S_value@?$_Rb_tree@HU?$pair@$$CBHH@_STL@@U?$_Select1st@U?$pair@$$CBHH@_STL@@@2@U?$less@H@2@V?$allocator@U?$pair@$$CBHH@_STL@@@2@@_STL@@KAAAU?$pair@$$CBHH@2@PAU?$_Rb_tree_node@U?$pair@$$CBHH@_STL@@@2@@Z
_TEXT	SEGMENT PARA USE32 PUBLIC 'CODE'
_TEXT	ENDS
;	COMDAT ??R?$_Select1st@U?$pair@$$CBHH@_STL@@@_STL@@QBEABHABU?$pair@$$CBHH@1@@Z
_TEXT	SEGMENT PARA USE32 PUBLIC 'CODE'
_TEXT	ENDS
;	COMDAT ??$_M_range_initialize@PBD@?$basic_string@DV?$char_traits@D@_STL@@V?$allocator@D@2@@_STL@@AAEXPBD0@Z
_TEXT	SEGMENT PARA USE32 PUBLIC 'CODE'
_TEXT	ENDS
;	COMDAT ??$_M_range_initialize@PAD@?$basic_string@DV?$char_traits@D@_STL@@V?$allocator@D@2@@_STL@@AAEXPAD0@Z
_TEXT	SEGMENT PARA USE32 PUBLIC 'CODE'
_TEXT	ENDS
;	COMDAT ?write@?$basic_ostream@DV?$char_traits@D@_STL@@@_STL@@QAEAAV12@PBDH@Z
_TEXT	SEGMENT PARA USE32 PUBLIC 'CODE'
_TEXT	ENDS
;	COMDAT ?close@?$basic_filebuf@DV?$char_traits@D@_STL@@@_STL@@QAEPAV12@XZ
_TEXT	SEGMENT PARA USE32 PUBLIC 'CODE'
_TEXT	ENDS
;	COMDAT ?_M_exit_input_mode@?$basic_filebuf@DV?$char_traits@D@_STL@@@_STL@@AAEXXZ
_TEXT	SEGMENT PARA USE32 PUBLIC 'CODE'
_TEXT	ENDS
;	COMDAT ?_M_switch_to_output_mode@?$basic_filebuf@DV?$char_traits@D@_STL@@@_STL@@AAE_NXZ
_TEXT	SEGMENT PARA USE32 PUBLIC 'CODE'
_TEXT	ENDS
;	COMDAT ?_M_output_error@?$basic_filebuf@DV?$char_traits@D@_STL@@@_STL@@AAEHXZ
_TEXT	SEGMENT PARA USE32 PUBLIC 'CODE'
_TEXT	ENDS
;	COMDAT ?_M_allocate_buffers@?$basic_filebuf@DV?$char_traits@D@_STL@@@_STL@@AAE_NPADH@Z
_TEXT	SEGMENT PARA USE32 PUBLIC 'CODE'
_TEXT	ENDS
;	COMDAT ?_M_deallocate_buffers@?$basic_filebuf@DV?$char_traits@D@_STL@@@_STL@@AAEXXZ
_TEXT	SEGMENT PARA USE32 PUBLIC 'CODE'
_TEXT	ENDS
;	COMDAT ?_M_seek_init@?$basic_filebuf@DV?$char_traits@D@_STL@@@_STL@@AAE_N_N@Z
_TEXT	SEGMENT PARA USE32 PUBLIC 'CODE'
_TEXT	ENDS
;	COMDAT ?_M_setup_codecvt@?$basic_filebuf@DV?$char_traits@D@_STL@@@_STL@@AAEXABVlocale@2@@Z
_TEXT	SEGMENT PARA USE32 PUBLIC 'CODE'
_TEXT	ENDS
;	COMDAT ??$equal@PADPADU?$_Eq_traits@V?$char_traits@D@_STL@@@_STL@@@_STL@@YA_NPAD00U?$_Eq_traits@V?$char_traits@D@_STL@@@0@@Z
_TEXT	SEGMENT PARA USE32 PUBLIC 'CODE'
_TEXT	ENDS
;	COMDAT ??$_Destroy@V?$basic_string@DV?$char_traits@D@_STL@@V?$allocator@D@2@@_STL@@@_STL@@YAXPAV?$basic_string@DV?$char_traits@D@_STL@@V?$allocator@D@2@@0@@Z
_TEXT	SEGMENT PARA USE32 PUBLIC 'CODE'
_TEXT	ENDS
;	COMDAT ??$_M_assign_dispatch@PAD@?$basic_string@DV?$char_traits@D@_STL@@V?$allocator@D@2@@_STL@@AAEAAV01@PAD0ABU__false_type@1@@Z
_TEXT	SEGMENT PARA USE32 PUBLIC 'CODE'
_TEXT	ENDS
;	COMDAT ?clear@?$_List_base@IV?$allocator@I@_STL@@@_STL@@QAEXXZ
_TEXT	SEGMENT PARA USE32 PUBLIC 'CODE'
_TEXT	ENDS
;	COMDAT ??0?$CTypeMap@VNPC_INFO@@@@QAE@XZ
_TEXT	SEGMENT PARA USE32 PUBLIC 'CODE'
_TEXT	ENDS
;	COMDAT ??1?$CTypeMap@VNPC_INFO@@@@UAE@XZ
_TEXT	SEGMENT PARA USE32 PUBLIC 'CODE'
_TEXT	ENDS
;	COMDAT ?Release@?$CTypeMap@VNPC_INFO@@@@UAEXXZ
_TEXT	SEGMENT PARA USE32 PUBLIC 'CODE'
_TEXT	ENDS
;	COMDAT ?AddData@?$CTypeMap@VNPC_INFO@@@@UAE_NIPAVNPC_INFO@@@Z
_TEXT	SEGMENT PARA USE32 PUBLIC 'CODE'
_TEXT	ENDS
;	COMDAT ?GetData@?$CTypeMap@VNPC_INFO@@@@UAEPAVNPC_INFO@@I@Z
_TEXT	SEGMENT PARA USE32 PUBLIC 'CODE'
_TEXT	ENDS
;	COMDAT ?RemoveData@?$CTypeMap@VNPC_INFO@@@@UAE_NI@Z
_TEXT	SEGMENT PARA USE32 PUBLIC 'CODE'
_TEXT	ENDS
;	COMDAT ?SaveToFile@?$CTypeMap@VNPC_INFO@@@@UAEXAAV?$basic_ofstream@DV?$char_traits@D@_STL@@@_STL@@@Z
_TEXT	SEGMENT PARA USE32 PUBLIC 'CODE'
_TEXT	ENDS
;	COMDAT ?LoadFromFile@?$CTypeMap@VNPC_INFO@@@@UAEXAAVivfstream@@@Z
_TEXT	SEGMENT PARA USE32 PUBLIC 'CODE'
_TEXT	ENDS
;	COMDAT ??0?$CTypeMap@VSERVERNPC_INFO@@@@QAE@XZ
_TEXT	SEGMENT PARA USE32 PUBLIC 'CODE'
_TEXT	ENDS
;	COMDAT ??1?$CTypeMap@VSERVERNPC_INFO@@@@UAE@XZ
_TEXT	SEGMENT PARA USE32 PUBLIC 'CODE'
_TEXT	ENDS
;	COMDAT ?Release@?$CTypeMap@VSERVERNPC_INFO@@@@UAEXXZ
_TEXT	SEGMENT PARA USE32 PUBLIC 'CODE'
_TEXT	ENDS
;	COMDAT ?AddData@?$CTypeMap@VSERVERNPC_INFO@@@@UAE_NIPAVSERVERNPC_INFO@@@Z
_TEXT	SEGMENT PARA USE32 PUBLIC 'CODE'
_TEXT	ENDS
;	COMDAT ?GetData@?$CTypeMap@VSERVERNPC_INFO@@@@UAEPAVSERVERNPC_INFO@@I@Z
_TEXT	SEGMENT PARA USE32 PUBLIC 'CODE'
_TEXT	ENDS
;	COMDAT ?RemoveData@?$CTypeMap@VSERVERNPC_INFO@@@@UAE_NI@Z
_TEXT	SEGMENT PARA USE32 PUBLIC 'CODE'
_TEXT	ENDS
;	COMDAT ?SaveToFile@?$CTypeMap@VSERVERNPC_INFO@@@@UAEXAAV?$basic_ofstream@DV?$char_traits@D@_STL@@@_STL@@@Z
_TEXT	SEGMENT PARA USE32 PUBLIC 'CODE'
_TEXT	ENDS
;	COMDAT ?LoadFromFile@?$CTypeMap@VSERVERNPC_INFO@@@@UAEXAAVivfstream@@@Z
_TEXT	SEGMENT PARA USE32 PUBLIC 'CODE'
_TEXT	ENDS
;	COMDAT ?_M_erase@?$_Rb_tree@HU?$pair@$$CBHH@_STL@@U?$_Select1st@U?$pair@$$CBHH@_STL@@@2@U?$less@H@2@V?$allocator@U?$pair@$$CBHH@_STL@@@2@@_STL@@AAEXPAU?$_Rb_tree_node@U?$pair@$$CBHH@_STL@@@2@@Z
_TEXT	SEGMENT PARA USE32 PUBLIC 'CODE'
_TEXT	ENDS
;	COMDAT ?insert_unique@?$_Rb_tree@HU?$pair@$$CBHH@_STL@@U?$_Select1st@U?$pair@$$CBHH@_STL@@@2@U?$less@H@2@V?$allocator@U?$pair@$$CBHH@_STL@@@2@@_STL@@QAE?AU?$_Rb_tree_iterator@U?$pair@$$CBHH@_STL@@U?$_Nonconst_traits@U?$pair@$$CBHH@_STL@@@2@@2@U32@ABU?$pair@$$CBHH@2@@Z
_TEXT	SEGMENT PARA USE32 PUBLIC 'CODE'
_TEXT	ENDS
;	COMDAT ??$distance@U?$_List_iterator@IU?$_Const_traits@I@_STL@@@_STL@@@_STL@@YAHABU?$_List_iterator@IU?$_Const_traits@I@_STL@@@0@0@Z
_TEXT	SEGMENT PARA USE32 PUBLIC 'CODE'
_TEXT	ENDS
;	COMDAT ??$find@H@?$_Rb_tree@HU?$pair@$$CBHH@_STL@@U?$_Select1st@U?$pair@$$CBHH@_STL@@@2@U?$less@H@2@V?$allocator@U?$pair@$$CBHH@_STL@@@2@@_STL@@QAE?AU?$_Rb_tree_iterator@U?$pair@$$CBHH@_STL@@U?$_Nonconst_traits@U?$pair@$$CBHH@_STL@@@2@@1@ABH@Z
_TEXT	SEGMENT PARA USE32 PUBLIC 'CODE'
_TEXT	ENDS
;	COMDAT ??$append@PBD@?$basic_string@DV?$char_traits@D@_STL@@V?$allocator@D@2@@_STL@@QAEAAV01@PBD0@Z
_TEXT	SEGMENT PARA USE32 PUBLIC 'CODE'
_TEXT	ENDS
;	COMDAT ??$?0I@?$allocator@U?$_List_node@I@_STL@@@_STL@@QAE@ABV?$allocator@I@1@@Z
_TEXT	SEGMENT PARA USE32 PUBLIC 'CODE'
_TEXT	ENDS
;	COMDAT ??$_Construct@II@_STL@@YAXPAIABI@Z
_TEXT	SEGMENT PARA USE32 PUBLIC 'CODE'
_TEXT	ENDS
;	COMDAT ??$?0U?$pair@$$CBHH@_STL@@@?$allocator@U?$_Rb_tree_node@U?$pair@$$CBHH@_STL@@@_STL@@@_STL@@QAE@ABV?$allocator@U?$pair@$$CBHH@_STL@@@1@@Z
_TEXT	SEGMENT PARA USE32 PUBLIC 'CODE'
_TEXT	ENDS
;	COMDAT ??_G?$basic_string@DV?$char_traits@D@_STL@@V?$allocator@D@2@@_STL@@QAEPAXI@Z
_TEXT	SEGMENT PARA USE32 PUBLIC 'CODE'
_TEXT	ENDS
;	COMDAT ??_G?$CTypeMap@VNPC_INFO@@@@UAEPAXI@Z
_TEXT	SEGMENT PARA USE32 PUBLIC 'CODE'
_TEXT	ENDS
;	COMDAT ??1?$map@IPAVNPC_INFO@@U?$less@I@_STL@@V?$allocator@U?$pair@$$CBIPAVNPC_INFO@@@_STL@@@3@@_STL@@QAE@XZ
_TEXT	SEGMENT PARA USE32 PUBLIC 'CODE'
_TEXT	ENDS
;	COMDAT ??_GNPC_INFO@@QAEPAXI@Z
_TEXT	SEGMENT PARA USE32 PUBLIC 'CODE'
_TEXT	ENDS
;	COMDAT ??_G?$CTypeMap@VSERVERNPC_INFO@@@@UAEPAXI@Z
_TEXT	SEGMENT PARA USE32 PUBLIC 'CODE'
_TEXT	ENDS
;	COMDAT ??1?$map@IPAVSERVERNPC_INFO@@U?$less@I@_STL@@V?$allocator@U?$pair@$$CBIPAVSERVERNPC_INFO@@@_STL@@@3@@_STL@@QAE@XZ
_TEXT	SEGMENT PARA USE32 PUBLIC 'CODE'
_TEXT	ENDS
;	COMDAT ??_GSERVERNPC_INFO@@QAEPAXI@Z
_TEXT	SEGMENT PARA USE32 PUBLIC 'CODE'
_TEXT	ENDS
;	COMDAT ??0SERVERNPC_INFO@@QAE@XZ
_TEXT	SEGMENT PARA USE32 PUBLIC 'CODE'
_TEXT	ENDS
;	COMDAT ??1NPC_INFO@@QAE@XZ
_TEXT	SEGMENT PARA USE32 PUBLIC 'CODE'
_TEXT	ENDS
;	COMDAT ??1SERVERNPC_INFO@@QAE@XZ
_TEXT	SEGMENT PARA USE32 PUBLIC 'CODE'
_TEXT	ENDS
;	COMDAT ?rdbuf@?$basic_ios@DV?$char_traits@D@_STL@@@_STL@@QBEPAV?$basic_streambuf@DV?$char_traits@D@_STL@@@2@XZ
_TEXT	SEGMENT PARA USE32 PUBLIC 'CODE'
_TEXT	ENDS
;	COMDAT ?setstate@?$basic_ios@DV?$char_traits@D@_STL@@@_STL@@QAEXH@Z
_TEXT	SEGMENT PARA USE32 PUBLIC 'CODE'
_TEXT	ENDS
;	COMDAT ?_M_exit_putback_mode@?$basic_filebuf@DV?$char_traits@D@_STL@@@_STL@@AAEXXZ
_TEXT	SEGMENT PARA USE32 PUBLIC 'CODE'
_TEXT	ENDS
;	COMDAT ??R?$_Eq_traits@V?$char_traits@D@_STL@@@_STL@@QBE_NABD0@Z
_TEXT	SEGMENT PARA USE32 PUBLIC 'CODE'
_TEXT	ENDS
;	COMDAT ??0?$map@IPAVNPC_INFO@@U?$less@I@_STL@@V?$allocator@U?$pair@$$CBIPAVNPC_INFO@@@_STL@@@3@@_STL@@QAE@XZ
_TEXT	SEGMENT PARA USE32 PUBLIC 'CODE'
_TEXT	ENDS
;	COMDAT ?begin@?$map@IPAVNPC_INFO@@U?$less@I@_STL@@V?$allocator@U?$pair@$$CBIPAVNPC_INFO@@@_STL@@@3@@_STL@@QAE?AU?$_Rb_tree_iterator@U?$pair@$$CBIPAVNPC_INFO@@@_STL@@U?$_Nonconst_traits@U?$pair@$$CBIPAVNPC_INFO@@@_STL@@@2@@2@XZ
_TEXT	SEGMENT PARA USE32 PUBLIC 'CODE'
_TEXT	ENDS
;	COMDAT ?end@?$map@IPAVNPC_INFO@@U?$less@I@_STL@@V?$allocator@U?$pair@$$CBIPAVNPC_INFO@@@_STL@@@3@@_STL@@QAE?AU?$_Rb_tree_iterator@U?$pair@$$CBIPAVNPC_INFO@@@_STL@@U?$_Nonconst_traits@U?$pair@$$CBIPAVNPC_INFO@@@_STL@@@2@@2@XZ
_TEXT	SEGMENT PARA USE32 PUBLIC 'CODE'
_TEXT	ENDS
;	COMDAT ?size@?$map@IPAVNPC_INFO@@U?$less@I@_STL@@V?$allocator@U?$pair@$$CBIPAVNPC_INFO@@@_STL@@@3@@_STL@@QBEIXZ
_TEXT	SEGMENT PARA USE32 PUBLIC 'CODE'
_TEXT	ENDS
;	COMDAT ?insert@?$map@IPAVNPC_INFO@@U?$less@I@_STL@@V?$allocator@U?$pair@$$CBIPAVNPC_INFO@@@_STL@@@3@@_STL@@QAE?AU?$pair@U?$_Rb_tree_iterator@U?$pair@$$CBIPAVNPC_INFO@@@_STL@@U?$_Nonconst_traits@U?$pair@$$CBIPAVNPC_INFO@@@_STL@@@2@@_STL@@_N@2@ABU?$pair@$$CBIPAVNPC_INFO@@@2@@Z
_TEXT	SEGMENT PARA USE32 PUBLIC 'CODE'
_TEXT	ENDS
;	COMDAT ?erase@?$map@IPAVNPC_INFO@@U?$less@I@_STL@@V?$allocator@U?$pair@$$CBIPAVNPC_INFO@@@_STL@@@3@@_STL@@QAEXU?$_Rb_tree_iterator@U?$pair@$$CBIPAVNPC_INFO@@@_STL@@U?$_Nonconst_traits@U?$pair@$$CBIPAVNPC_INFO@@@_STL@@@2@@2@@Z
_TEXT	SEGMENT PARA USE32 PUBLIC 'CODE'
_TEXT	ENDS
;	COMDAT ?clear@?$map@IPAVNPC_INFO@@U?$less@I@_STL@@V?$allocator@U?$pair@$$CBIPAVNPC_INFO@@@_STL@@@3@@_STL@@QAEXXZ
_TEXT	SEGMENT PARA USE32 PUBLIC 'CODE'
_TEXT	ENDS
;	COMDAT ?find@?$map@IPAVNPC_INFO@@U?$less@I@_STL@@V?$allocator@U?$pair@$$CBIPAVNPC_INFO@@@_STL@@@3@@_STL@@QAE?AU?$_Rb_tree_iterator@U?$pair@$$CBIPAVNPC_INFO@@@_STL@@U?$_Nonconst_traits@U?$pair@$$CBIPAVNPC_INFO@@@_STL@@@2@@2@ABI@Z
_TEXT	SEGMENT PARA USE32 PUBLIC 'CODE'
_TEXT	ENDS
;	COMDAT ??1?$_Rb_tree@IU?$pair@$$CBIPAVNPC_INFO@@@_STL@@U?$_Select1st@U?$pair@$$CBIPAVNPC_INFO@@@_STL@@@2@U?$less@I@2@V?$allocator@U?$pair@$$CBIPAVNPC_INFO@@@_STL@@@2@@_STL@@QAE@XZ
_TEXT	SEGMENT PARA USE32 PUBLIC 'CODE'
_TEXT	ENDS
;	COMDAT ??0?$map@IPAVSERVERNPC_INFO@@U?$less@I@_STL@@V?$allocator@U?$pair@$$CBIPAVSERVERNPC_INFO@@@_STL@@@3@@_STL@@QAE@XZ
_TEXT	SEGMENT PARA USE32 PUBLIC 'CODE'
_TEXT	ENDS
;	COMDAT ?insert@?$map@IPAVSERVERNPC_INFO@@U?$less@I@_STL@@V?$allocator@U?$pair@$$CBIPAVSERVERNPC_INFO@@@_STL@@@3@@_STL@@QAE?AU?$pair@U?$_Rb_tree_iterator@U?$pair@$$CBIPAVSERVERNPC_INFO@@@_STL@@U?$_Nonconst_traits@U?$pair@$$CBIPAVSERVERNPC_INFO@@@_STL@@@2@@_STL@@_N@2@ABU?$pair@$$CBIPAVSERVERNPC_INFO@@@2@@Z
_TEXT	SEGMENT PARA USE32 PUBLIC 'CODE'
_TEXT	ENDS
;	COMDAT ?erase@?$map@IPAVSERVERNPC_INFO@@U?$less@I@_STL@@V?$allocator@U?$pair@$$CBIPAVSERVERNPC_INFO@@@_STL@@@3@@_STL@@QAEXU?$_Rb_tree_iterator@U?$pair@$$CBIPAVSERVERNPC_INFO@@@_STL@@U?$_Nonconst_traits@U?$pair@$$CBIPAVSERVERNPC_INFO@@@_STL@@@2@@2@@Z
_TEXT	SEGMENT PARA USE32 PUBLIC 'CODE'
_TEXT	ENDS
;	COMDAT ?clear@?$map@IPAVSERVERNPC_INFO@@U?$less@I@_STL@@V?$allocator@U?$pair@$$CBIPAVSERVERNPC_INFO@@@_STL@@@3@@_STL@@QAEXXZ
_TEXT	SEGMENT PARA USE32 PUBLIC 'CODE'
_TEXT	ENDS
;	COMDAT ?find@?$map@IPAVSERVERNPC_INFO@@U?$less@I@_STL@@V?$allocator@U?$pair@$$CBIPAVSERVERNPC_INFO@@@_STL@@@3@@_STL@@QAE?AU?$_Rb_tree_iterator@U?$pair@$$CBIPAVSERVERNPC_INFO@@@_STL@@U?$_Nonconst_traits@U?$pair@$$CBIPAVSERVERNPC_INFO@@@_STL@@@2@@2@ABI@Z
_TEXT	SEGMENT PARA USE32 PUBLIC 'CODE'
_TEXT	ENDS
;	COMDAT ??1?$_Rb_tree@IU?$pair@$$CBIPAVSERVERNPC_INFO@@@_STL@@U?$_Select1st@U?$pair@$$CBIPAVSERVERNPC_INFO@@@_STL@@@2@U?$less@I@2@V?$allocator@U?$pair@$$CBIPAVSERVERNPC_INFO@@@_STL@@@2@@_STL@@QAE@XZ
_TEXT	SEGMENT PARA USE32 PUBLIC 'CODE'
_TEXT	ENDS
;	COMDAT ?_S_right@?$_Rb_tree@HU?$pair@$$CBHH@_STL@@U?$_Select1st@U?$pair@$$CBHH@_STL@@@2@U?$less@H@2@V?$allocator@U?$pair@$$CBHH@_STL@@@2@@_STL@@KAAAPAU?$_Rb_tree_node@U?$pair@$$CBHH@_STL@@@2@PAU_Rb_tree_node_base@2@@Z
_TEXT	SEGMENT PARA USE32 PUBLIC 'CODE'
_TEXT	ENDS
;	COMDAT ?_S_key@?$_Rb_tree@HU?$pair@$$CBHH@_STL@@U?$_Select1st@U?$pair@$$CBHH@_STL@@@2@U?$less@H@2@V?$allocator@U?$pair@$$CBHH@_STL@@@2@@_STL@@KAABHPAU_Rb_tree_node_base@2@@Z
_TEXT	SEGMENT PARA USE32 PUBLIC 'CODE'
_TEXT	ENDS
;	COMDAT ?size@?$_Rb_tree@HU?$pair@$$CBHH@_STL@@U?$_Select1st@U?$pair@$$CBHH@_STL@@@2@U?$less@H@2@V?$allocator@U?$pair@$$CBHH@_STL@@@2@@_STL@@QBEIXZ
_TEXT	SEGMENT PARA USE32 PUBLIC 'CODE'
_TEXT	ENDS
;	COMDAT ??0?$pair@$$CBIPAVSERVERNPC_INFO@@@_STL@@QAE@ABIABQAVSERVERNPC_INFO@@@Z
_TEXT	SEGMENT PARA USE32 PUBLIC 'CODE'
_TEXT	ENDS
;	COMDAT ??E?$_Rb_tree_iterator@U?$pair@$$CBHH@_STL@@U?$_Nonconst_traits@U?$pair@$$CBHH@_STL@@@2@@_STL@@QAEAAU01@XZ
_TEXT	SEGMENT PARA USE32 PUBLIC 'CODE'
_TEXT	ENDS
;	COMDAT ??F?$_Rb_tree_iterator@U?$pair@$$CBHH@_STL@@U?$_Nonconst_traits@U?$pair@$$CBHH@_STL@@@2@@_STL@@QAEAAU01@XZ
_TEXT	SEGMENT PARA USE32 PUBLIC 'CODE'
_TEXT	ENDS
;	COMDAT ??0sentry@?$basic_ostream@DV?$char_traits@D@_STL@@@_STL@@QAE@AAV12@@Z
_TEXT	SEGMENT PARA USE32 PUBLIC 'CODE'
_TEXT	ENDS
;	COMDAT ??1sentry@?$basic_ostream@DV?$char_traits@D@_STL@@@_STL@@QAE@XZ
_TEXT	SEGMENT PARA USE32 PUBLIC 'CODE'
_TEXT	ENDS
;	COMDAT ??Bsentry@?$basic_ostream@DV?$char_traits@D@_STL@@@_STL@@QBE_NXZ
_TEXT	SEGMENT PARA USE32 PUBLIC 'CODE'
_TEXT	ENDS
;	COMDAT ??0?$_Rb_tree_iterator@U?$pair@$$CBIPAVNPC_INFO@@@_STL@@U?$_Nonconst_traits@U?$pair@$$CBIPAVNPC_INFO@@@_STL@@@2@@_STL@@QAE@ABU01@@Z
_TEXT	SEGMENT PARA USE32 PUBLIC 'CODE'
_TEXT	ENDS
;	COMDAT ??D?$_Rb_tree_iterator@U?$pair@$$CBIPAVNPC_INFO@@@_STL@@U?$_Nonconst_traits@U?$pair@$$CBIPAVNPC_INFO@@@_STL@@@2@@_STL@@QBEAAU?$pair@$$CBIPAVNPC_INFO@@@1@XZ
_TEXT	SEGMENT PARA USE32 PUBLIC 'CODE'
_TEXT	ENDS
;	COMDAT ??E?$_Rb_tree_iterator@U?$pair@$$CBIPAVNPC_INFO@@@_STL@@U?$_Nonconst_traits@U?$pair@$$CBIPAVNPC_INFO@@@_STL@@@2@@_STL@@QAE?AU01@H@Z
_TEXT	SEGMENT PARA USE32 PUBLIC 'CODE'
_TEXT	ENDS
;	COMDAT ??0?$pair@$$CBIPAVNPC_INFO@@@_STL@@QAE@ABIABQAVNPC_INFO@@@Z
_TEXT	SEGMENT PARA USE32 PUBLIC 'CODE'
_TEXT	ENDS
;	COMDAT ?clear@?$basic_ios@DV?$char_traits@D@_STL@@@_STL@@QAEXH@Z
_TEXT	SEGMENT PARA USE32 PUBLIC 'CODE'
_TEXT	ENDS
;	COMDAT ?flush@?$basic_ostream@DV?$char_traits@D@_STL@@@_STL@@QAEAAV12@XZ
_TEXT	SEGMENT PARA USE32 PUBLIC 'CODE'
_TEXT	ENDS
;	COMDAT ??0?$_Rb_tree@IU?$pair@$$CBIPAVNPC_INFO@@@_STL@@U?$_Select1st@U?$pair@$$CBIPAVNPC_INFO@@@_STL@@@2@U?$less@I@2@V?$allocator@U?$pair@$$CBIPAVNPC_INFO@@@_STL@@@2@@_STL@@QAE@ABU?$less@I@1@ABV?$allocator@U?$pair@$$CBIPAVNPC_INFO@@@_STL@@@1@@Z
_TEXT	SEGMENT PARA USE32 PUBLIC 'CODE'
_TEXT	ENDS
;	COMDAT ?begin@?$_Rb_tree@IU?$pair@$$CBIPAVNPC_INFO@@@_STL@@U?$_Select1st@U?$pair@$$CBIPAVNPC_INFO@@@_STL@@@2@U?$less@I@2@V?$allocator@U?$pair@$$CBIPAVNPC_INFO@@@_STL@@@2@@_STL@@QAE?AU?$_Rb_tree_iterator@U?$pair@$$CBIPAVNPC_INFO@@@_STL@@U?$_Nonconst_traits@U?$pair@$$CBIPAVNPC_INFO@@@_STL@@@2@@2@XZ
_TEXT	SEGMENT PARA USE32 PUBLIC 'CODE'
_TEXT	ENDS
;	COMDAT ?end@?$_Rb_tree@IU?$pair@$$CBIPAVNPC_INFO@@@_STL@@U?$_Select1st@U?$pair@$$CBIPAVNPC_INFO@@@_STL@@@2@U?$less@I@2@V?$allocator@U?$pair@$$CBIPAVNPC_INFO@@@_STL@@@2@@_STL@@QAE?AU?$_Rb_tree_iterator@U?$pair@$$CBIPAVNPC_INFO@@@_STL@@U?$_Nonconst_traits@U?$pair@$$CBIPAVNPC_INFO@@@_STL@@@2@@2@XZ
_TEXT	SEGMENT PARA USE32 PUBLIC 'CODE'
_TEXT	ENDS
;	COMDAT ?size@?$_Rb_tree@IU?$pair@$$CBIPAVNPC_INFO@@@_STL@@U?$_Select1st@U?$pair@$$CBIPAVNPC_INFO@@@_STL@@@2@U?$less@I@2@V?$allocator@U?$pair@$$CBIPAVNPC_INFO@@@_STL@@@2@@_STL@@QBEIXZ
_TEXT	SEGMENT PARA USE32 PUBLIC 'CODE'
_TEXT	ENDS
;	COMDAT ?erase@?$_Rb_tree@IU?$pair@$$CBIPAVNPC_INFO@@@_STL@@U?$_Select1st@U?$pair@$$CBIPAVNPC_INFO@@@_STL@@@2@U?$less@I@2@V?$allocator@U?$pair@$$CBIPAVNPC_INFO@@@_STL@@@2@@_STL@@QAEXU?$_Rb_tree_iterator@U?$pair@$$CBIPAVNPC_INFO@@@_STL@@U?$_Nonconst_traits@U?$pair@$$CBIPAVNPC_INFO@@@_STL@@@2@@2@@Z
_TEXT	SEGMENT PARA USE32 PUBLIC 'CODE'
_TEXT	ENDS
;	COMDAT ?clear@?$_Rb_tree@IU?$pair@$$CBIPAVNPC_INFO@@@_STL@@U?$_Select1st@U?$pair@$$CBIPAVNPC_INFO@@@_STL@@@2@U?$less@I@2@V?$allocator@U?$pair@$$CBIPAVNPC_INFO@@@_STL@@@2@@_STL@@QAEXXZ
_TEXT	SEGMENT PARA USE32 PUBLIC 'CODE'
_TEXT	ENDS
;	COMDAT ??1?$_Rb_tree_base@U?$pair@$$CBIPAVNPC_INFO@@@_STL@@V?$allocator@U?$pair@$$CBIPAVNPC_INFO@@@_STL@@@2@@_STL@@QAE@XZ
_TEXT	SEGMENT PARA USE32 PUBLIC 'CODE'
_TEXT	ENDS
;	COMDAT ??0?$allocator@U?$pair@$$CBIPAVNPC_INFO@@@_STL@@@_STL@@QAE@XZ
_TEXT	SEGMENT PARA USE32 PUBLIC 'CODE'
_TEXT	ENDS
;	COMDAT ??1?$allocator@U?$pair@$$CBIPAVNPC_INFO@@@_STL@@@_STL@@QAE@XZ
_TEXT	SEGMENT PARA USE32 PUBLIC 'CODE'
_TEXT	ENDS
;	COMDAT ??0?$_Rb_tree@IU?$pair@$$CBIPAVSERVERNPC_INFO@@@_STL@@U?$_Select1st@U?$pair@$$CBIPAVSERVERNPC_INFO@@@_STL@@@2@U?$less@I@2@V?$allocator@U?$pair@$$CBIPAVSERVERNPC_INFO@@@_STL@@@2@@_STL@@QAE@ABU?$less@I@1@ABV?$allocator@U?$pair@$$CBIPAVSERVERNPC_INFO@@@_STL@@@1@@Z
_TEXT	SEGMENT PARA USE32 PUBLIC 'CODE'
_TEXT	ENDS
;	COMDAT ?erase@?$_Rb_tree@IU?$pair@$$CBIPAVSERVERNPC_INFO@@@_STL@@U?$_Select1st@U?$pair@$$CBIPAVSERVERNPC_INFO@@@_STL@@@2@U?$less@I@2@V?$allocator@U?$pair@$$CBIPAVSERVERNPC_INFO@@@_STL@@@2@@_STL@@QAEXU?$_Rb_tree_iterator@U?$pair@$$CBIPAVSERVERNPC_INFO@@@_STL@@U?$_Nonconst_traits@U?$pair@$$CBIPAVSERVERNPC_INFO@@@_STL@@@2@@2@@Z
_TEXT	SEGMENT PARA USE32 PUBLIC 'CODE'
_TEXT	ENDS
;	COMDAT ?clear@?$_Rb_tree@IU?$pair@$$CBIPAVSERVERNPC_INFO@@@_STL@@U?$_Select1st@U?$pair@$$CBIPAVSERVERNPC_INFO@@@_STL@@@2@U?$less@I@2@V?$allocator@U?$pair@$$CBIPAVSERVERNPC_INFO@@@_STL@@@2@@_STL@@QAEXXZ
_TEXT	SEGMENT PARA USE32 PUBLIC 'CODE'
_TEXT	ENDS
;	COMDAT ??1?$_Rb_tree_base@U?$pair@$$CBIPAVSERVERNPC_INFO@@@_STL@@V?$allocator@U?$pair@$$CBIPAVSERVERNPC_INFO@@@_STL@@@2@@_STL@@QAE@XZ
_TEXT	SEGMENT PARA USE32 PUBLIC 'CODE'
_TEXT	ENDS
;	COMDAT ??0?$allocator@U?$pair@$$CBIPAVSERVERNPC_INFO@@@_STL@@@_STL@@QAE@XZ
_TEXT	SEGMENT PARA USE32 PUBLIC 'CODE'
_TEXT	ENDS
;	COMDAT ??1?$allocator@U?$pair@$$CBIPAVSERVERNPC_INFO@@@_STL@@@_STL@@QAE@XZ
_TEXT	SEGMENT PARA USE32 PUBLIC 'CODE'
_TEXT	ENDS
;	COMDAT ??1?$_STLP_alloc_proxy@PAU?$_Rb_tree_node@U?$pair@$$CBIPAVNPC_INFO@@@_STL@@@_STL@@U12@V?$allocator@U?$_Rb_tree_node@U?$pair@$$CBIPAVNPC_INFO@@@_STL@@@_STL@@@2@@_STL@@QAE@XZ
_TEXT	SEGMENT PARA USE32 PUBLIC 'CODE'
_TEXT	ENDS
;	COMDAT ??1?$_STLP_alloc_proxy@PAU?$_Rb_tree_node@U?$pair@$$CBIPAVSERVERNPC_INFO@@@_STL@@@_STL@@U12@V?$allocator@U?$_Rb_tree_node@U?$pair@$$CBIPAVSERVERNPC_INFO@@@_STL@@@_STL@@@2@@_STL@@QAE@XZ
_TEXT	SEGMENT PARA USE32 PUBLIC 'CODE'
_TEXT	ENDS
;	COMDAT ?_M_root@?$_Rb_tree@IU?$pair@$$CBIPAVNPC_INFO@@@_STL@@U?$_Select1st@U?$pair@$$CBIPAVNPC_INFO@@@_STL@@@2@U?$less@I@2@V?$allocator@U?$pair@$$CBIPAVNPC_INFO@@@_STL@@@2@@_STL@@IBEAAPAU?$_Rb_tree_node@U?$pair@$$CBIPAVNPC_INFO@@@_STL@@@2@XZ
_TEXT	SEGMENT PARA USE32 PUBLIC 'CODE'
_TEXT	ENDS
;	COMDAT ?_M_leftmost@?$_Rb_tree@IU?$pair@$$CBIPAVNPC_INFO@@@_STL@@U?$_Select1st@U?$pair@$$CBIPAVNPC_INFO@@@_STL@@@2@U?$less@I@2@V?$allocator@U?$pair@$$CBIPAVNPC_INFO@@@_STL@@@2@@_STL@@IBEAAPAU?$_Rb_tree_node@U?$pair@$$CBIPAVNPC_INFO@@@_STL@@@2@XZ
_TEXT	SEGMENT PARA USE32 PUBLIC 'CODE'
_TEXT	ENDS
;	COMDAT ?_M_rightmost@?$_Rb_tree@IU?$pair@$$CBIPAVNPC_INFO@@@_STL@@U?$_Select1st@U?$pair@$$CBIPAVNPC_INFO@@@_STL@@@2@U?$less@I@2@V?$allocator@U?$pair@$$CBIPAVNPC_INFO@@@_STL@@@2@@_STL@@IBEAAPAU?$_Rb_tree_node@U?$pair@$$CBIPAVNPC_INFO@@@_STL@@@2@XZ
_TEXT	SEGMENT PARA USE32 PUBLIC 'CODE'
_TEXT	ENDS
;	COMDAT ?_M_empty_initialize@?$_Rb_tree@IU?$pair@$$CBIPAVNPC_INFO@@@_STL@@U?$_Select1st@U?$pair@$$CBIPAVNPC_INFO@@@_STL@@@2@U?$less@I@2@V?$allocator@U?$pair@$$CBIPAVNPC_INFO@@@_STL@@@2@@_STL@@AAEXXZ
_TEXT	SEGMENT PARA USE32 PUBLIC 'CODE'
_TEXT	ENDS
;	COMDAT ??0?$_Rb_tree_base@U?$pair@$$CBIPAVNPC_INFO@@@_STL@@V?$allocator@U?$pair@$$CBIPAVNPC_INFO@@@_STL@@@2@@_STL@@QAE@ABV?$allocator@U?$pair@$$CBIPAVNPC_INFO@@@_STL@@@1@@Z
_TEXT	SEGMENT PARA USE32 PUBLIC 'CODE'
_TEXT	ENDS
;	COMDAT ??1?$allocator@U?$_Rb_tree_node@U?$pair@$$CBIPAVNPC_INFO@@@_STL@@@_STL@@@_STL@@QAE@XZ
_TEXT	SEGMENT PARA USE32 PUBLIC 'CODE'
_TEXT	ENDS
;	COMDAT ?deallocate@?$allocator@U?$_Rb_tree_node@U?$pair@$$CBIPAVNPC_INFO@@@_STL@@@_STL@@@_STL@@QAEXPAU?$_Rb_tree_node@U?$pair@$$CBIPAVNPC_INFO@@@_STL@@@2@I@Z
_TEXT	SEGMENT PARA USE32 PUBLIC 'CODE'
_TEXT	ENDS
;	COMDAT ?_M_root@?$_Rb_tree@IU?$pair@$$CBIPAVSERVERNPC_INFO@@@_STL@@U?$_Select1st@U?$pair@$$CBIPAVSERVERNPC_INFO@@@_STL@@@2@U?$less@I@2@V?$allocator@U?$pair@$$CBIPAVSERVERNPC_INFO@@@_STL@@@2@@_STL@@IBEAAPAU?$_Rb_tree_node@U?$pair@$$CBIPAVSERVERNPC_INFO@@@_STL@@@2@XZ
_TEXT	SEGMENT PARA USE32 PUBLIC 'CODE'
_TEXT	ENDS
;	COMDAT ?_M_rightmost@?$_Rb_tree@IU?$pair@$$CBIPAVSERVERNPC_INFO@@@_STL@@U?$_Select1st@U?$pair@$$CBIPAVSERVERNPC_INFO@@@_STL@@@2@U?$less@I@2@V?$allocator@U?$pair@$$CBIPAVSERVERNPC_INFO@@@_STL@@@2@@_STL@@IBEAAPAU?$_Rb_tree_node@U?$pair@$$CBIPAVSERVERNPC_INFO@@@_STL@@@2@XZ
_TEXT	SEGMENT PARA USE32 PUBLIC 'CODE'
_TEXT	ENDS
;	COMDAT ?_M_empty_initialize@?$_Rb_tree@IU?$pair@$$CBIPAVSERVERNPC_INFO@@@_STL@@U?$_Select1st@U?$pair@$$CBIPAVSERVERNPC_INFO@@@_STL@@@2@U?$less@I@2@V?$allocator@U?$pair@$$CBIPAVSERVERNPC_INFO@@@_STL@@@2@@_STL@@AAEXXZ
_TEXT	SEGMENT PARA USE32 PUBLIC 'CODE'
_TEXT	ENDS
;	COMDAT ??0?$_Rb_tree_base@U?$pair@$$CBIPAVSERVERNPC_INFO@@@_STL@@V?$allocator@U?$pair@$$CBIPAVSERVERNPC_INFO@@@_STL@@@2@@_STL@@QAE@ABV?$allocator@U?$pair@$$CBIPAVSERVERNPC_INFO@@@_STL@@@1@@Z
_TEXT	SEGMENT PARA USE32 PUBLIC 'CODE'
_TEXT	ENDS
;	COMDAT ??1?$allocator@U?$_Rb_tree_node@U?$pair@$$CBIPAVSERVERNPC_INFO@@@_STL@@@_STL@@@_STL@@QAE@XZ
_TEXT	SEGMENT PARA USE32 PUBLIC 'CODE'
_TEXT	ENDS
;	COMDAT ?deallocate@?$allocator@U?$_Rb_tree_node@U?$pair@$$CBIPAVSERVERNPC_INFO@@@_STL@@@_STL@@@_STL@@QAEXPAU?$_Rb_tree_node@U?$pair@$$CBIPAVSERVERNPC_INFO@@@_STL@@@2@I@Z
_TEXT	SEGMENT PARA USE32 PUBLIC 'CODE'
_TEXT	ENDS
;	COMDAT ??0?$_Rb_tree_iterator@U?$pair@$$CBIPAVNPC_INFO@@@_STL@@U?$_Nonconst_traits@U?$pair@$$CBIPAVNPC_INFO@@@_STL@@@2@@_STL@@QAE@PAU?$_Rb_tree_node@U?$pair@$$CBIPAVNPC_INFO@@@_STL@@@1@@Z
_TEXT	SEGMENT PARA USE32 PUBLIC 'CODE'
_TEXT	ENDS
;	COMDAT ?_S_color@?$_Rb_tree@IU?$pair@$$CBIPAVNPC_INFO@@@_STL@@U?$_Select1st@U?$pair@$$CBIPAVNPC_INFO@@@_STL@@@2@U?$less@I@2@V?$allocator@U?$pair@$$CBIPAVNPC_INFO@@@_STL@@@2@@_STL@@KAAA_NPAU?$_Rb_tree_node@U?$pair@$$CBIPAVNPC_INFO@@@_STL@@@2@@Z
_TEXT	SEGMENT PARA USE32 PUBLIC 'CODE'
_TEXT	ENDS
;	COMDAT ??0?$_STLP_alloc_proxy@PAU?$_Rb_tree_node@U?$pair@$$CBIPAVNPC_INFO@@@_STL@@@_STL@@U12@V?$allocator@U?$_Rb_tree_node@U?$pair@$$CBIPAVNPC_INFO@@@_STL@@@_STL@@@2@@_STL@@QAE@ABV?$allocator@U?$_Rb_tree_node@U?$pair@$$CBIPAVNPC_INFO@@@_STL@@@_STL@@@1@PAU?$_Rb_tree_node@U?$pair@$$CBIPAVNPC_INFO@@@_STL@@@1@@Z
_TEXT	SEGMENT PARA USE32 PUBLIC 'CODE'
_TEXT	ENDS
;	COMDAT ?allocate@?$allocator@U?$_Rb_tree_node@U?$pair@$$CBIPAVNPC_INFO@@@_STL@@@_STL@@@_STL@@QAEPAU?$_Rb_tree_node@U?$pair@$$CBIPAVNPC_INFO@@@_STL@@@2@IPBX@Z
_TEXT	SEGMENT PARA USE32 PUBLIC 'CODE'
_TEXT	ENDS
;	COMDAT ?_S_color@?$_Rb_tree@IU?$pair@$$CBIPAVSERVERNPC_INFO@@@_STL@@U?$_Select1st@U?$pair@$$CBIPAVSERVERNPC_INFO@@@_STL@@@2@U?$less@I@2@V?$allocator@U?$pair@$$CBIPAVSERVERNPC_INFO@@@_STL@@@2@@_STL@@KAAA_NPAU?$_Rb_tree_node@U?$pair@$$CBIPAVSERVERNPC_INFO@@@_STL@@@2@@Z
_TEXT	SEGMENT PARA USE32 PUBLIC 'CODE'
_TEXT	ENDS
;	COMDAT ??0?$_STLP_alloc_proxy@PAU?$_Rb_tree_node@U?$pair@$$CBIPAVSERVERNPC_INFO@@@_STL@@@_STL@@U12@V?$allocator@U?$_Rb_tree_node@U?$pair@$$CBIPAVSERVERNPC_INFO@@@_STL@@@_STL@@@2@@_STL@@QAE@ABV?$allocator@U?$_Rb_tree_node@U?$pair@$$CBIPAVSERVERNPC_INFO@@@_STL@@@_STL@@@1@PAU?$_Rb_tree_node@U?$pair@$$CBIPAVSERVERNPC_INFO@@@_STL@@@1@@Z
_TEXT	SEGMENT PARA USE32 PUBLIC 'CODE'
_TEXT	ENDS
;	COMDAT ?allocate@?$allocator@U?$_Rb_tree_node@U?$pair@$$CBIPAVSERVERNPC_INFO@@@_STL@@@_STL@@@_STL@@QAEPAU?$_Rb_tree_node@U?$pair@$$CBIPAVSERVERNPC_INFO@@@_STL@@@2@IPBX@Z
_TEXT	SEGMENT PARA USE32 PUBLIC 'CODE'
_TEXT	ENDS
;	COMDAT ??0?$allocator@U?$_Rb_tree_node@U?$pair@$$CBIPAVNPC_INFO@@@_STL@@@_STL@@@_STL@@QAE@ABV01@@Z
_TEXT	SEGMENT PARA USE32 PUBLIC 'CODE'
_TEXT	ENDS
;	COMDAT ??0?$allocator@U?$_Rb_tree_node@U?$pair@$$CBIPAVSERVERNPC_INFO@@@_STL@@@_STL@@@_STL@@QAE@ABV01@@Z
_TEXT	SEGMENT PARA USE32 PUBLIC 'CODE'
_TEXT	ENDS
;	COMDAT ??$_M_range_initialize@PBD@?$basic_string@DV?$char_traits@D@_STL@@V?$allocator@D@2@@_STL@@AAEXPBD0ABUforward_iterator_tag@1@@Z
_TEXT	SEGMENT PARA USE32 PUBLIC 'CODE'
_TEXT	ENDS
;	COMDAT ??$_M_range_initialize@PAD@?$basic_string@DV?$char_traits@D@_STL@@V?$allocator@D@2@@_STL@@AAEXPAD0ABUforward_iterator_tag@1@@Z
_TEXT	SEGMENT PARA USE32 PUBLIC 'CODE'
_TEXT	ENDS
;	COMDAT ?_M_handle_exception@?$basic_ios@DV?$char_traits@D@_STL@@@_STL@@QAEXH@Z
_TEXT	SEGMENT PARA USE32 PUBLIC 'CODE'
_TEXT	ENDS
;	COMDAT ?_M_unshift@?$basic_filebuf@DV?$char_traits@D@_STL@@@_STL@@AAE_NXZ
_TEXT	SEGMENT PARA USE32 PUBLIC 'CODE'
_TEXT	ENDS
;	COMDAT ?_M_allocate_buffers@?$basic_filebuf@DV?$char_traits@D@_STL@@@_STL@@AAE_NXZ
_TEXT	SEGMENT PARA USE32 PUBLIC 'CODE'
_TEXT	ENDS
;	COMDAT ??$max@H@_STL@@YAABHABH0@Z
_TEXT	SEGMENT PARA USE32 PUBLIC 'CODE'
_TEXT	ENDS
;	COMDAT ??$use_facet@V?$codecvt@DDH@_STL@@@_STL@@YAABV?$codecvt@DDH@0@ABVlocale@0@@Z
_TEXT	SEGMENT PARA USE32 PUBLIC 'CODE'
_TEXT	ENDS
;	COMDAT ??$append@PAD@?$basic_string@DV?$char_traits@D@_STL@@V?$allocator@D@2@@_STL@@QAEAAV01@PAD0@Z
_TEXT	SEGMENT PARA USE32 PUBLIC 'CODE'
_TEXT	ENDS
;	COMDAT ??$_Destroy@I@_STL@@YAXPAI@Z
_TEXT	SEGMENT PARA USE32 PUBLIC 'CODE'
_TEXT	ENDS
;	COMDAT ?_M_insert@?$_Rb_tree@HU?$pair@$$CBHH@_STL@@U?$_Select1st@U?$pair@$$CBHH@_STL@@@2@U?$less@H@2@V?$allocator@U?$pair@$$CBHH@_STL@@@2@@_STL@@AAE?AU?$_Rb_tree_iterator@U?$pair@$$CBHH@_STL@@U?$_Nonconst_traits@U?$pair@$$CBHH@_STL@@@2@@2@PAU_Rb_tree_node_base@2@0ABU?$pair@$$CBHH@2@0@Z
_TEXT	SEGMENT PARA USE32 PUBLIC 'CODE'
_TEXT	ENDS
;	COMDAT ?insert_unique@?$_Rb_tree@HU?$pair@$$CBHH@_STL@@U?$_Select1st@U?$pair@$$CBHH@_STL@@@2@U?$less@H@2@V?$allocator@U?$pair@$$CBHH@_STL@@@2@@_STL@@QAE?AU?$pair@U?$_Rb_tree_iterator@U?$pair@$$CBHH@_STL@@U?$_Nonconst_traits@U?$pair@$$CBHH@_STL@@@2@@_STL@@_N@2@ABU?$pair@$$CBHH@2@@Z
_TEXT	SEGMENT PARA USE32 PUBLIC 'CODE'
_TEXT	ENDS
;	COMDAT ??$_Destroy@U?$pair@$$CBHH@_STL@@@_STL@@YAXPAU?$pair@$$CBHH@0@@Z
_TEXT	SEGMENT PARA USE32 PUBLIC 'CODE'
_TEXT	ENDS
;	COMDAT ??$__distance@U?$_List_iterator@IU?$_Const_traits@I@_STL@@@_STL@@@_STL@@YAHABU?$_List_iterator@IU?$_Const_traits@I@_STL@@@0@0ABUinput_iterator_tag@0@@Z
_TEXT	SEGMENT PARA USE32 PUBLIC 'CODE'
_TEXT	ENDS
;	COMDAT ??$_M_find@H@?$_Rb_tree@HU?$pair@$$CBHH@_STL@@U?$_Select1st@U?$pair@$$CBHH@_STL@@@2@U?$less@H@2@V?$allocator@U?$pair@$$CBHH@_STL@@@2@@_STL@@ABEPAU?$_Rb_tree_node@U?$pair@$$CBHH@_STL@@@1@ABH@Z
_TEXT	SEGMENT PARA USE32 PUBLIC 'CODE'
_TEXT	ENDS
;	COMDAT ??$_M_append_dispatch@PBD@?$basic_string@DV?$char_traits@D@_STL@@V?$allocator@D@2@@_STL@@AAEAAV01@PBD0ABU__false_type@1@@Z
_TEXT	SEGMENT PARA USE32 PUBLIC 'CODE'
_TEXT	ENDS
;	COMDAT ?_M_erase@?$_Rb_tree@IU?$pair@$$CBIPAVNPC_INFO@@@_STL@@U?$_Select1st@U?$pair@$$CBIPAVNPC_INFO@@@_STL@@@2@U?$less@I@2@V?$allocator@U?$pair@$$CBIPAVNPC_INFO@@@_STL@@@2@@_STL@@AAEXPAU?$_Rb_tree_node@U?$pair@$$CBIPAVNPC_INFO@@@_STL@@@2@@Z
_TEXT	SEGMENT PARA USE32 PUBLIC 'CODE'
_TEXT	ENDS
;	COMDAT ?insert_unique@?$_Rb_tree@IU?$pair@$$CBIPAVNPC_INFO@@@_STL@@U?$_Select1st@U?$pair@$$CBIPAVNPC_INFO@@@_STL@@@2@U?$less@I@2@V?$allocator@U?$pair@$$CBIPAVNPC_INFO@@@_STL@@@2@@_STL@@QAE?AU?$pair@U?$_Rb_tree_iterator@U?$pair@$$CBIPAVNPC_INFO@@@_STL@@U?$_Nonconst_traits@U?$pair@$$CBIPAVNPC_INFO@@@_STL@@@2@@_STL@@_N@2@ABU?$pair@$$CBIPAVNPC_INFO@@@2@@Z
_TEXT	SEGMENT PARA USE32 PUBLIC 'CODE'
_TEXT	ENDS
;	COMDAT ?_M_erase@?$_Rb_tree@IU?$pair@$$CBIPAVSERVERNPC_INFO@@@_STL@@U?$_Select1st@U?$pair@$$CBIPAVSERVERNPC_INFO@@@_STL@@@2@U?$less@I@2@V?$allocator@U?$pair@$$CBIPAVSERVERNPC_INFO@@@_STL@@@2@@_STL@@AAEXPAU?$_Rb_tree_node@U?$pair@$$CBIPAVSERVERNPC_INFO@@@_STL@@@2@@Z
_TEXT	SEGMENT PARA USE32 PUBLIC 'CODE'
_TEXT	ENDS
;	COMDAT ?insert_unique@?$_Rb_tree@IU?$pair@$$CBIPAVSERVERNPC_INFO@@@_STL@@U?$_Select1st@U?$pair@$$CBIPAVSERVERNPC_INFO@@@_STL@@@2@U?$less@I@2@V?$allocator@U?$pair@$$CBIPAVSERVERNPC_INFO@@@_STL@@@2@@_STL@@QAE?AU?$pair@U?$_Rb_tree_iterator@U?$pair@$$CBIPAVSERVERNPC_INFO@@@_STL@@U?$_Nonconst_traits@U?$pair@$$CBIPAVSERVERNPC_INFO@@@_STL@@@2@@_STL@@_N@2@ABU?$pair@$$CBIPAVSERVERNPC_INFO@@@2@@Z
_TEXT	SEGMENT PARA USE32 PUBLIC 'CODE'
_TEXT	ENDS
;	COMDAT ??$find@I@?$_Rb_tree@IU?$pair@$$CBIPAVNPC_INFO@@@_STL@@U?$_Select1st@U?$pair@$$CBIPAVNPC_INFO@@@_STL@@@2@U?$less@I@2@V?$allocator@U?$pair@$$CBIPAVNPC_INFO@@@_STL@@@2@@_STL@@QAE?AU?$_Rb_tree_iterator@U?$pair@$$CBIPAVNPC_INFO@@@_STL@@U?$_Nonconst_traits@U?$pair@$$CBIPAVNPC_INFO@@@_STL@@@2@@1@ABI@Z
_TEXT	SEGMENT PARA USE32 PUBLIC 'CODE'
_TEXT	ENDS
;	COMDAT ??$find@I@?$_Rb_tree@IU?$pair@$$CBIPAVSERVERNPC_INFO@@@_STL@@U?$_Select1st@U?$pair@$$CBIPAVSERVERNPC_INFO@@@_STL@@@2@U?$less@I@2@V?$allocator@U?$pair@$$CBIPAVSERVERNPC_INFO@@@_STL@@@2@@_STL@@QAE?AU?$_Rb_tree_iterator@U?$pair@$$CBIPAVSERVERNPC_INFO@@@_STL@@U?$_Nonconst_traits@U?$pair@$$CBIPAVSERVERNPC_INFO@@@_STL@@@2@@1@ABI@Z
_TEXT	SEGMENT PARA USE32 PUBLIC 'CODE'
_TEXT	ENDS
;	COMDAT ??$_M_init@DV?$char_traits@D@_STL@@@_STL@@YA_NAAV?$basic_ostream@DV?$char_traits@D@_STL@@@0@@Z
_TEXT	SEGMENT PARA USE32 PUBLIC 'CODE'
_TEXT	ENDS
;	COMDAT ??$_Destroy@U?$pair@$$CBIPAVNPC_INFO@@@_STL@@@_STL@@YAXPAU?$pair@$$CBIPAVNPC_INFO@@@0@@Z
_TEXT	SEGMENT PARA USE32 PUBLIC 'CODE'
_TEXT	ENDS
;	COMDAT ??$_Destroy@U?$pair@$$CBIPAVSERVERNPC_INFO@@@_STL@@@_STL@@YAXPAU?$pair@$$CBIPAVSERVERNPC_INFO@@@0@@Z
_TEXT	SEGMENT PARA USE32 PUBLIC 'CODE'
_TEXT	ENDS
;	COMDAT ??$?0U?$pair@$$CBIPAVNPC_INFO@@@_STL@@@?$allocator@U?$_Rb_tree_node@U?$pair@$$CBIPAVNPC_INFO@@@_STL@@@_STL@@@_STL@@QAE@ABV?$allocator@U?$pair@$$CBIPAVNPC_INFO@@@_STL@@@1@@Z
_TEXT	SEGMENT PARA USE32 PUBLIC 'CODE'
_TEXT	ENDS
;	COMDAT ??$?0U?$pair@$$CBIPAVSERVERNPC_INFO@@@_STL@@@?$allocator@U?$_Rb_tree_node@U?$pair@$$CBIPAVSERVERNPC_INFO@@@_STL@@@_STL@@@_STL@@QAE@ABV?$allocator@U?$pair@$$CBIPAVSERVERNPC_INFO@@@_STL@@@1@@Z
_TEXT	SEGMENT PARA USE32 PUBLIC 'CODE'
_TEXT	ENDS
;	COMDAT ?tie@?$basic_ios@DV?$char_traits@D@_STL@@@_STL@@QBEPAV?$basic_ostream@DV?$char_traits@D@_STL@@@2@XZ
_TEXT	SEGMENT PARA USE32 PUBLIC 'CODE'
_TEXT	ENDS
;	COMDAT ?_S_left@?$_Rb_tree@IU?$pair@$$CBIPAVNPC_INFO@@@_STL@@U?$_Select1st@U?$pair@$$CBIPAVNPC_INFO@@@_STL@@@2@U?$less@I@2@V?$allocator@U?$pair@$$CBIPAVNPC_INFO@@@_STL@@@2@@_STL@@KAAAPAU?$_Rb_tree_node@U?$pair@$$CBIPAVNPC_INFO@@@_STL@@@2@PAU32@@Z
_TEXT	SEGMENT PARA USE32 PUBLIC 'CODE'
_TEXT	ENDS
;	COMDAT ?_S_right@?$_Rb_tree@IU?$pair@$$CBIPAVNPC_INFO@@@_STL@@U?$_Select1st@U?$pair@$$CBIPAVNPC_INFO@@@_STL@@@2@U?$less@I@2@V?$allocator@U?$pair@$$CBIPAVNPC_INFO@@@_STL@@@2@@_STL@@KAAAPAU?$_Rb_tree_node@U?$pair@$$CBIPAVNPC_INFO@@@_STL@@@2@PAU32@@Z
_TEXT	SEGMENT PARA USE32 PUBLIC 'CODE'
_TEXT	ENDS
;	COMDAT ?_S_key@?$_Rb_tree@IU?$pair@$$CBIPAVNPC_INFO@@@_STL@@U?$_Select1st@U?$pair@$$CBIPAVNPC_INFO@@@_STL@@@2@U?$less@I@2@V?$allocator@U?$pair@$$CBIPAVNPC_INFO@@@_STL@@@2@@_STL@@KAABIPAU?$_Rb_tree_node@U?$pair@$$CBIPAVNPC_INFO@@@_STL@@@2@@Z
_TEXT	SEGMENT PARA USE32 PUBLIC 'CODE'
_TEXT	ENDS
;	COMDAT ?_S_key@?$_Rb_tree@IU?$pair@$$CBIPAVNPC_INFO@@@_STL@@U?$_Select1st@U?$pair@$$CBIPAVNPC_INFO@@@_STL@@@2@U?$less@I@2@V?$allocator@U?$pair@$$CBIPAVNPC_INFO@@@_STL@@@2@@_STL@@KAABIPAU_Rb_tree_node_base@2@@Z
_TEXT	SEGMENT PARA USE32 PUBLIC 'CODE'
_TEXT	ENDS
;	COMDAT ??R?$less@I@_STL@@QBE_NABI0@Z
_TEXT	SEGMENT PARA USE32 PUBLIC 'CODE'
_TEXT	ENDS
;	COMDAT ?_S_left@?$_Rb_tree@IU?$pair@$$CBIPAVSERVERNPC_INFO@@@_STL@@U?$_Select1st@U?$pair@$$CBIPAVSERVERNPC_INFO@@@_STL@@@2@U?$less@I@2@V?$allocator@U?$pair@$$CBIPAVSERVERNPC_INFO@@@_STL@@@2@@_STL@@KAAAPAU?$_Rb_tree_node@U?$pair@$$CBIPAVSERVERNPC_INFO@@@_STL@@@2@PAU32@@Z
_TEXT	SEGMENT PARA USE32 PUBLIC 'CODE'
_TEXT	ENDS
;	COMDAT ?_S_right@?$_Rb_tree@IU?$pair@$$CBIPAVSERVERNPC_INFO@@@_STL@@U?$_Select1st@U?$pair@$$CBIPAVSERVERNPC_INFO@@@_STL@@@2@U?$less@I@2@V?$allocator@U?$pair@$$CBIPAVSERVERNPC_INFO@@@_STL@@@2@@_STL@@KAAAPAU?$_Rb_tree_node@U?$pair@$$CBIPAVSERVERNPC_INFO@@@_STL@@@2@PAU32@@Z
_TEXT	SEGMENT PARA USE32 PUBLIC 'CODE'
_TEXT	ENDS
;	COMDAT ?_S_key@?$_Rb_tree@IU?$pair@$$CBIPAVSERVERNPC_INFO@@@_STL@@U?$_Select1st@U?$pair@$$CBIPAVSERVERNPC_INFO@@@_STL@@@2@U?$less@I@2@V?$allocator@U?$pair@$$CBIPAVSERVERNPC_INFO@@@_STL@@@2@@_STL@@KAABIPAU?$_Rb_tree_node@U?$pair@$$CBIPAVSERVERNPC_INFO@@@_STL@@@2@@Z
_TEXT	SEGMENT PARA USE32 PUBLIC 'CODE'
_TEXT	ENDS
;	COMDAT ?_S_key@?$_Rb_tree@IU?$pair@$$CBIPAVSERVERNPC_INFO@@@_STL@@U?$_Select1st@U?$pair@$$CBIPAVSERVERNPC_INFO@@@_STL@@@2@U?$less@I@2@V?$allocator@U?$pair@$$CBIPAVSERVERNPC_INFO@@@_STL@@@2@@_STL@@KAABIPAU_Rb_tree_node_base@2@@Z
_TEXT	SEGMENT PARA USE32 PUBLIC 'CODE'
_TEXT	ENDS
;	COMDAT ?_M_create_node@?$_Rb_tree@HU?$pair@$$CBHH@_STL@@U?$_Select1st@U?$pair@$$CBHH@_STL@@@2@U?$less@H@2@V?$allocator@U?$pair@$$CBHH@_STL@@@2@@_STL@@IAEPAU?$_Rb_tree_node@U?$pair@$$CBHH@_STL@@@2@ABU?$pair@$$CBHH@2@@Z
_TEXT	SEGMENT PARA USE32 PUBLIC 'CODE'
_TEXT	ENDS
;	COMDAT ?_S_parent@?$_Rb_tree@HU?$pair@$$CBHH@_STL@@U?$_Select1st@U?$pair@$$CBHH@_STL@@@2@U?$less@H@2@V?$allocator@U?$pair@$$CBHH@_STL@@@2@@_STL@@KAAAPAU?$_Rb_tree_node@U?$pair@$$CBHH@_STL@@@2@PAU32@@Z
_TEXT	SEGMENT PARA USE32 PUBLIC 'CODE'
_TEXT	ENDS
;	COMDAT ?begin@?$_Rb_tree@HU?$pair@$$CBHH@_STL@@U?$_Select1st@U?$pair@$$CBHH@_STL@@@2@U?$less@H@2@V?$allocator@U?$pair@$$CBHH@_STL@@@2@@_STL@@QAE?AU?$_Rb_tree_iterator@U?$pair@$$CBHH@_STL@@U?$_Nonconst_traits@U?$pair@$$CBHH@_STL@@@2@@2@XZ
_TEXT	SEGMENT PARA USE32 PUBLIC 'CODE'
_TEXT	ENDS
;	COMDAT ??F?$_Rb_tree_iterator@U?$pair@$$CBIPAVSERVERNPC_INFO@@@_STL@@U?$_Nonconst_traits@U?$pair@$$CBIPAVSERVERNPC_INFO@@@_STL@@@2@@_STL@@QAEAAU01@XZ
_TEXT	SEGMENT PARA USE32 PUBLIC 'CODE'
_TEXT	ENDS
;	COMDAT ??E?$_List_iterator@IU?$_Const_traits@I@_STL@@@_STL@@QAEAAU01@XZ
_TEXT	SEGMENT PARA USE32 PUBLIC 'CODE'
_TEXT	ENDS
;	COMDAT ??F?$_Rb_tree_iterator@U?$pair@$$CBIPAVNPC_INFO@@@_STL@@U?$_Nonconst_traits@U?$pair@$$CBIPAVNPC_INFO@@@_STL@@@2@@_STL@@QAEAAU01@XZ
_TEXT	SEGMENT PARA USE32 PUBLIC 'CODE'
_TEXT	ENDS
;	COMDAT ??0?$pair@U?$_Rb_tree_iterator@U?$pair@$$CBIPAVNPC_INFO@@@_STL@@U?$_Nonconst_traits@U?$pair@$$CBIPAVNPC_INFO@@@_STL@@@2@@_STL@@_N@_STL@@QAE@ABU?$_Rb_tree_iterator@U?$pair@$$CBIPAVNPC_INFO@@@_STL@@U?$_Nonconst_traits@U?$pair@$$CBIPAVNPC_INFO@@@_STL@@@2@@1@AB_N@Z
_TEXT	SEGMENT PARA USE32 PUBLIC 'CODE'
_TEXT	ENDS
;	COMDAT ??0?$pair@U?$_Rb_tree_iterator@U?$pair@$$CBIPAVSERVERNPC_INFO@@@_STL@@U?$_Nonconst_traits@U?$pair@$$CBIPAVSERVERNPC_INFO@@@_STL@@@2@@_STL@@_N@_STL@@QAE@ABU?$_Rb_tree_iterator@U?$pair@$$CBIPAVSERVERNPC_INFO@@@_STL@@U?$_Nonconst_traits@U?$pair@$$CBIPAVSERVERNPC_INFO@@@_STL@@@2@@1@AB_N@Z
_TEXT	SEGMENT PARA USE32 PUBLIC 'CODE'
_TEXT	ENDS
;	COMDAT ??0?$pair@U?$_Rb_tree_iterator@U?$pair@$$CBHH@_STL@@U?$_Nonconst_traits@U?$pair@$$CBHH@_STL@@@2@@_STL@@_N@_STL@@QAE@ABU?$_Rb_tree_iterator@U?$pair@$$CBHH@_STL@@U?$_Nonconst_traits@U?$pair@$$CBHH@_STL@@@2@@1@AB_N@Z
_TEXT	SEGMENT PARA USE32 PUBLIC 'CODE'
_TEXT	ENDS
;	COMDAT ??R?$_Select1st@U?$pair@$$CBIPAVNPC_INFO@@@_STL@@@_STL@@QBEABIABU?$pair@$$CBIPAVNPC_INFO@@@1@@Z
_TEXT	SEGMENT PARA USE32 PUBLIC 'CODE'
_TEXT	ENDS
;	COMDAT ??R?$_Select1st@U?$pair@$$CBIPAVSERVERNPC_INFO@@@_STL@@@_STL@@QBEABIABU?$pair@$$CBIPAVSERVERNPC_INFO@@@1@@Z
_TEXT	SEGMENT PARA USE32 PUBLIC 'CODE'
_TEXT	ENDS
;	COMDAT ?_S_value@?$_Rb_tree@IU?$pair@$$CBIPAVNPC_INFO@@@_STL@@U?$_Select1st@U?$pair@$$CBIPAVNPC_INFO@@@_STL@@@2@U?$less@I@2@V?$allocator@U?$pair@$$CBIPAVNPC_INFO@@@_STL@@@2@@_STL@@KAAAU?$pair@$$CBIPAVNPC_INFO@@@2@PAU?$_Rb_tree_node@U?$pair@$$CBIPAVNPC_INFO@@@_STL@@@2@@Z
_TEXT	SEGMENT PARA USE32 PUBLIC 'CODE'
_TEXT	ENDS
;	COMDAT ?_S_value@?$_Rb_tree@IU?$pair@$$CBIPAVSERVERNPC_INFO@@@_STL@@U?$_Select1st@U?$pair@$$CBIPAVSERVERNPC_INFO@@@_STL@@@2@U?$less@I@2@V?$allocator@U?$pair@$$CBIPAVSERVERNPC_INFO@@@_STL@@@2@@_STL@@KAAAU?$pair@$$CBIPAVSERVERNPC_INFO@@@2@PAU?$_Rb_tree_node@U?$pair@$$CBIPAVSERVERNPC_INFO@@@_STL@@@2@@Z
_TEXT	SEGMENT PARA USE32 PUBLIC 'CODE'
_TEXT	ENDS
;	COMDAT ??$distance@PBD@_STL@@YAHABQBD0@Z
_TEXT	SEGMENT PARA USE32 PUBLIC 'CODE'
_TEXT	ENDS
;	COMDAT ?_M_allocate_block@?$_String_base@DV?$allocator@D@_STL@@@_STL@@QAEXI@Z
_TEXT	SEGMENT PARA USE32 PUBLIC 'CODE'
_TEXT	ENDS
;	COMDAT ??$distance@PAD@_STL@@YAHABQAD0@Z
_TEXT	SEGMENT PARA USE32 PUBLIC 'CODE'
_TEXT	ENDS
;	COMDAT ??$uninitialized_copy@PADPAD@_STL@@YAPADPAD00@Z
_TEXT	SEGMENT PARA USE32 PUBLIC 'CODE'
_TEXT	ENDS
;	COMDAT ??$_M_append_dispatch@PAD@?$basic_string@DV?$char_traits@D@_STL@@V?$allocator@D@2@@_STL@@AAEAAV01@PAD0ABU__false_type@1@@Z
_TEXT	SEGMENT PARA USE32 PUBLIC 'CODE'
_TEXT	ENDS
;	COMDAT ??$append@PBD@?$basic_string@DV?$char_traits@D@_STL@@V?$allocator@D@2@@_STL@@AAEAAV01@PBD0ABUforward_iterator_tag@1@@Z
_TEXT	SEGMENT PARA USE32 PUBLIC 'CODE'
_TEXT	ENDS
;	COMDAT ?_M_insert@?$_Rb_tree@IU?$pair@$$CBIPAVNPC_INFO@@@_STL@@U?$_Select1st@U?$pair@$$CBIPAVNPC_INFO@@@_STL@@@2@U?$less@I@2@V?$allocator@U?$pair@$$CBIPAVNPC_INFO@@@_STL@@@2@@_STL@@AAE?AU?$_Rb_tree_iterator@U?$pair@$$CBIPAVNPC_INFO@@@_STL@@U?$_Nonconst_traits@U?$pair@$$CBIPAVNPC_INFO@@@_STL@@@2@@2@PAU_Rb_tree_node_base@2@0ABU?$pair@$$CBIPAVNPC_INFO@@@2@0@Z
_TEXT	SEGMENT PARA USE32 PUBLIC 'CODE'
_TEXT	ENDS
;	COMDAT ?_M_insert@?$_Rb_tree@IU?$pair@$$CBIPAVSERVERNPC_INFO@@@_STL@@U?$_Select1st@U?$pair@$$CBIPAVSERVERNPC_INFO@@@_STL@@@2@U?$less@I@2@V?$allocator@U?$pair@$$CBIPAVSERVERNPC_INFO@@@_STL@@@2@@_STL@@AAE?AU?$_Rb_tree_iterator@U?$pair@$$CBIPAVSERVERNPC_INFO@@@_STL@@U?$_Nonconst_traits@U?$pair@$$CBIPAVSERVERNPC_INFO@@@_STL@@@2@@2@PAU_Rb_tree_node_base@2@0ABU?$pair@$$CBIPAVSERVERNPC_INFO@@@2@0@Z
_TEXT	SEGMENT PARA USE32 PUBLIC 'CODE'
_TEXT	ENDS
;	COMDAT ??$_M_find@I@?$_Rb_tree@IU?$pair@$$CBIPAVNPC_INFO@@@_STL@@U?$_Select1st@U?$pair@$$CBIPAVNPC_INFO@@@_STL@@@2@U?$less@I@2@V?$allocator@U?$pair@$$CBIPAVNPC_INFO@@@_STL@@@2@@_STL@@ABEPAU?$_Rb_tree_node@U?$pair@$$CBIPAVNPC_INFO@@@_STL@@@1@ABI@Z
_TEXT	SEGMENT PARA USE32 PUBLIC 'CODE'
_TEXT	ENDS
;	COMDAT ??$_M_find@I@?$_Rb_tree@IU?$pair@$$CBIPAVSERVERNPC_INFO@@@_STL@@U?$_Select1st@U?$pair@$$CBIPAVSERVERNPC_INFO@@@_STL@@@2@U?$less@I@2@V?$allocator@U?$pair@$$CBIPAVSERVERNPC_INFO@@@_STL@@@2@@_STL@@ABEPAU?$_Rb_tree_node@U?$pair@$$CBIPAVSERVERNPC_INFO@@@_STL@@@1@ABI@Z
_TEXT	SEGMENT PARA USE32 PUBLIC 'CODE'
_TEXT	ENDS
;	COMDAT ??$_Construct@U?$pair@$$CBHH@_STL@@U12@@_STL@@YAXPAU?$pair@$$CBHH@0@ABU10@@Z
_TEXT	SEGMENT PARA USE32 PUBLIC 'CODE'
_TEXT	ENDS
;	COMDAT ?_M_construct_null@?$basic_string@DV?$char_traits@D@_STL@@V?$allocator@D@2@@_STL@@AAEXPAD@Z
_TEXT	SEGMENT PARA USE32 PUBLIC 'CODE'
_TEXT	ENDS
;	COMDAT ?max_size@?$basic_string@DV?$char_traits@D@_STL@@V?$allocator@D@2@@_STL@@QBEIXZ
_TEXT	SEGMENT PARA USE32 PUBLIC 'CODE'
_TEXT	ENDS
;	COMDAT ?capacity@?$basic_string@DV?$char_traits@D@_STL@@V?$allocator@D@2@@_STL@@QBEIXZ
_TEXT	SEGMENT PARA USE32 PUBLIC 'CODE'
_TEXT	ENDS
;	COMDAT ?max_size@?$_String_base@DV?$allocator@D@_STL@@@_STL@@QBEIXZ
_TEXT	SEGMENT PARA USE32 PUBLIC 'CODE'
_TEXT	ENDS
;	COMDAT ?_M_create_node@?$_Rb_tree@IU?$pair@$$CBIPAVNPC_INFO@@@_STL@@U?$_Select1st@U?$pair@$$CBIPAVNPC_INFO@@@_STL@@@2@U?$less@I@2@V?$allocator@U?$pair@$$CBIPAVNPC_INFO@@@_STL@@@2@@_STL@@IAEPAU?$_Rb_tree_node@U?$pair@$$CBIPAVNPC_INFO@@@_STL@@@2@ABU?$pair@$$CBIPAVNPC_INFO@@@2@@Z
_TEXT	SEGMENT PARA USE32 PUBLIC 'CODE'
_TEXT	ENDS
;	COMDAT ?_S_parent@?$_Rb_tree@IU?$pair@$$CBIPAVNPC_INFO@@@_STL@@U?$_Select1st@U?$pair@$$CBIPAVNPC_INFO@@@_STL@@@2@U?$less@I@2@V?$allocator@U?$pair@$$CBIPAVNPC_INFO@@@_STL@@@2@@_STL@@KAAAPAU?$_Rb_tree_node@U?$pair@$$CBIPAVNPC_INFO@@@_STL@@@2@PAU32@@Z
_TEXT	SEGMENT PARA USE32 PUBLIC 'CODE'
_TEXT	ENDS
;	COMDAT ?_M_create_node@?$_Rb_tree@IU?$pair@$$CBIPAVSERVERNPC_INFO@@@_STL@@U?$_Select1st@U?$pair@$$CBIPAVSERVERNPC_INFO@@@_STL@@@2@U?$less@I@2@V?$allocator@U?$pair@$$CBIPAVSERVERNPC_INFO@@@_STL@@@2@@_STL@@IAEPAU?$_Rb_tree_node@U?$pair@$$CBIPAVSERVERNPC_INFO@@@_STL@@@2@ABU?$pair@$$CBIPAVSERVERNPC_INFO@@@2@@Z
_TEXT	SEGMENT PARA USE32 PUBLIC 'CODE'
_TEXT	ENDS
;	COMDAT ?_S_parent@?$_Rb_tree@IU?$pair@$$CBIPAVSERVERNPC_INFO@@@_STL@@U?$_Select1st@U?$pair@$$CBIPAVSERVERNPC_INFO@@@_STL@@@2@U?$less@I@2@V?$allocator@U?$pair@$$CBIPAVSERVERNPC_INFO@@@_STL@@@2@@_STL@@KAAAPAU?$_Rb_tree_node@U?$pair@$$CBIPAVSERVERNPC_INFO@@@_STL@@@2@PAU32@@Z
_TEXT	SEGMENT PARA USE32 PUBLIC 'CODE'
_TEXT	ENDS
;	COMDAT ??0?$pair@$$CBHH@_STL@@QAE@ABU01@@Z
_TEXT	SEGMENT PARA USE32 PUBLIC 'CODE'
_TEXT	ENDS
;	COMDAT ?_M_construct_null_aux@?$basic_string@DV?$char_traits@D@_STL@@V?$allocator@D@2@@_STL@@AAEXPADABU__true_type@2@@Z
_TEXT	SEGMENT PARA USE32 PUBLIC 'CODE'
_TEXT	ENDS
;	COMDAT ??$__distance@PBD@_STL@@YAHABQBD0ABUrandom_access_iterator_tag@0@@Z
_TEXT	SEGMENT PARA USE32 PUBLIC 'CODE'
_TEXT	ENDS
;	COMDAT ?_M_throw_length_error@?$_String_base@DV?$allocator@D@_STL@@@_STL@@QBEXXZ
_TEXT	SEGMENT PARA USE32 PUBLIC 'CODE'
_TEXT	ENDS
;	COMDAT ??$__distance@PAD@_STL@@YAHABQAD0ABUrandom_access_iterator_tag@0@@Z
_TEXT	SEGMENT PARA USE32 PUBLIC 'CODE'
_TEXT	ENDS
;	COMDAT ??$__uninitialized_copy@PADPAD@_STL@@YAPADPAD00ABU__true_type@0@@Z
_TEXT	SEGMENT PARA USE32 PUBLIC 'CODE'
_TEXT	ENDS
;	COMDAT ??$append@PAD@?$basic_string@DV?$char_traits@D@_STL@@V?$allocator@D@2@@_STL@@AAEAAV01@PAD0ABUforward_iterator_tag@1@@Z
_TEXT	SEGMENT PARA USE32 PUBLIC 'CODE'
_TEXT	ENDS
;	COMDAT ??$max@I@_STL@@YAABIABI0@Z
_TEXT	SEGMENT PARA USE32 PUBLIC 'CODE'
_TEXT	ENDS
;	COMDAT ??$_Construct@U?$pair@$$CBIPAVNPC_INFO@@@_STL@@U12@@_STL@@YAXPAU?$pair@$$CBIPAVNPC_INFO@@@0@ABU10@@Z
_TEXT	SEGMENT PARA USE32 PUBLIC 'CODE'
_TEXT	ENDS
;	COMDAT ??$_Construct@U?$pair@$$CBIPAVSERVERNPC_INFO@@@_STL@@U12@@_STL@@YAXPAU?$pair@$$CBIPAVSERVERNPC_INFO@@@0@ABU10@@Z
_TEXT	SEGMENT PARA USE32 PUBLIC 'CODE'
_TEXT	ENDS
;	COMDAT ??0?$pair@$$CBIPAVSERVERNPC_INFO@@@_STL@@QAE@ABU01@@Z
_TEXT	SEGMENT PARA USE32 PUBLIC 'CODE'
_TEXT	ENDS
;	COMDAT ??0?$pair@$$CBIPAVNPC_INFO@@@_STL@@QAE@ABU01@@Z
_TEXT	SEGMENT PARA USE32 PUBLIC 'CODE'
_TEXT	ENDS
;	COMDAT ?_Ret@?$_BothPtrType@PADPAD@_STL@@SA?AU__true_type@2@XZ
_TEXT	SEGMENT PARA USE32 PUBLIC 'CODE'
_TEXT	ENDS
;	COMDAT ??$__copy_aux@PADPAD@_STL@@YAPADPAD00ABU__true_type@0@@Z
_TEXT	SEGMENT PARA USE32 PUBLIC 'CODE'
_TEXT	ENDS
;	COMDAT ?_Ret@?$_OKToMemCpy@DD@_STL@@SA?AU__true_type@2@XZ
_TEXT	SEGMENT PARA USE32 PUBLIC 'CODE'
_TEXT	ENDS
;	COMDAT ??$_IsOKToMemCpy@DD@_STL@@YA?AU?$_OKToMemCpy@DD@0@PAD0@Z
_TEXT	SEGMENT PARA USE32 PUBLIC 'CODE'
_TEXT	ENDS
;	COMDAT ??$__copy_ptrs@PADPAD@_STL@@YAPADPAD00ABU__true_type@0@@Z
_TEXT	SEGMENT PARA USE32 PUBLIC 'CODE'
_TEXT	ENDS
;	COMDAT ??_R3MObject@@8
rdata$r	SEGMENT DWORD USE32 PUBLIC 'CONST'
rdata$r	ENDS
;	COMDAT ??_R3?$CTypeMap@VNPC_INFO@@@@8
rdata$r	SEGMENT DWORD USE32 PUBLIC 'CONST'
rdata$r	ENDS
;	COMDAT ??_R3MNPCTable@@8
rdata$r	SEGMENT DWORD USE32 PUBLIC 'CONST'
rdata$r	ENDS
;	COMDAT ??_R3IFileIO@@8
rdata$r	SEGMENT DWORD USE32 PUBLIC 'CONST'
rdata$r	ENDS
;	COMDAT ??_R3?$basic_ofstream@DV?$char_traits@D@_STL@@@_STL@@8
rdata$r	SEGMENT DWORD USE32 PUBLIC 'CONST'
rdata$r	ENDS
;	COMDAT ??_R3ovfstream@@8
rdata$r	SEGMENT DWORD USE32 PUBLIC 'CONST'
rdata$r	ENDS
;	COMDAT ??_R3ivfstream@@8
rdata$r	SEGMENT DWORD USE32 PUBLIC 'CONST'
rdata$r	ENDS
;	COMDAT ??_R3?$CTypeMap@VSERVERNPC_INFO@@@@8
rdata$r	SEGMENT DWORD USE32 PUBLIC 'CONST'
rdata$r	ENDS
;	COMDAT ??_R3MServerNPCTable@@8
rdata$r	SEGMENT DWORD USE32 PUBLIC 'CONST'
rdata$r	ENDS
;	COMDAT ??_R3iovfs_base@@8
rdata$r	SEGMENT DWORD USE32 PUBLIC 'CONST'
rdata$r	ENDS
;	COMDAT ??_R2MObject@@8
rdata$r	SEGMENT DWORD USE32 PUBLIC 'CONST'
rdata$r	ENDS
;	COMDAT ??_R2?$CTypeMap@VNPC_INFO@@@@8
rdata$r	SEGMENT DWORD USE32 PUBLIC 'CONST'
rdata$r	ENDS
;	COMDAT ??_R2MNPCTable@@8
rdata$r	SEGMENT DWORD USE32 PUBLIC 'CONST'
rdata$r	ENDS
;	COMDAT ??_R2IFileIO@@8
rdata$r	SEGMENT DWORD USE32 PUBLIC 'CONST'
rdata$r	ENDS
;	COMDAT ??_R2?$basic_ofstream@DV?$char_traits@D@_STL@@@_STL@@8
rdata$r	SEGMENT DWORD USE32 PUBLIC 'CONST'
rdata$r	ENDS
;	COMDAT ??_R2ovfstream@@8
rdata$r	SEGMENT DWORD USE32 PUBLIC 'CONST'
rdata$r	ENDS
;	COMDAT ??_R2ivfstream@@8
rdata$r	SEGMENT DWORD USE32 PUBLIC 'CONST'
rdata$r	ENDS
;	COMDAT ??_R2?$CTypeMap@VSERVERNPC_INFO@@@@8
rdata$r	SEGMENT DWORD USE32 PUBLIC 'CONST'
rdata$r	ENDS
;	COMDAT ??_R2MServerNPCTable@@8
rdata$r	SEGMENT DWORD USE32 PUBLIC 'CONST'
rdata$r	ENDS
;	COMDAT ??_R2iovfs_base@@8
rdata$r	SEGMENT DWORD USE32 PUBLIC 'CONST'
rdata$r	ENDS
;	COMDAT ??_R1A@?0A@A@MObject@@8
rdata$r	SEGMENT DWORD USE32 PUBLIC 'CONST'
rdata$r	ENDS
;	COMDAT ??_R13?0A@A@?$map@IPAVNPC_INFO@@U?$less@I@_STL@@V?$allocator@U?$pair@$$CBIPAVNPC_INFO@@@_STL@@@3@@_STL@@8
rdata$r	SEGMENT DWORD USE32 PUBLIC 'CONST'
rdata$r	ENDS
;	COMDAT ??_R1A@?0A@A@?$CTypeMap@VNPC_INFO@@@@8
rdata$r	SEGMENT DWORD USE32 PUBLIC 'CONST'
rdata$r	ENDS
;	COMDAT ??_R1A@?0A@A@MNPCTable@@8
rdata$r	SEGMENT DWORD USE32 PUBLIC 'CONST'
rdata$r	ENDS
;	COMDAT ??_R1A@?0A@A@IFileIO@@8
rdata$r	SEGMENT DWORD USE32 PUBLIC 'CONST'
rdata$r	ENDS
;	COMDAT ??_R1A@A@3A@ios_base@_STL@@8
rdata$r	SEGMENT DWORD USE32 PUBLIC 'CONST'
rdata$r	ENDS
;	COMDAT ??_R0?AVios_base@_STL@@@8
_DATA	SEGMENT DWORD USE32 PUBLIC 'DATA'
_DATA	ENDS
;	COMDAT ??_R1A@A@3BA@?$basic_ios@DV?$char_traits@D@_STL@@@_STL@@8
rdata$r	SEGMENT DWORD USE32 PUBLIC 'CONST'
rdata$r	ENDS
;	COMDAT ??_R0?AV?$basic_ios@DV?$char_traits@D@_STL@@@_STL@@@8
_DATA	SEGMENT DWORD USE32 PUBLIC 'DATA'
_DATA	ENDS
;	COMDAT ??_R1A@?0A@A@?$basic_ostream@DV?$char_traits@D@_STL@@@_STL@@8
rdata$r	SEGMENT DWORD USE32 PUBLIC 'CONST'
rdata$r	ENDS
;	COMDAT ??_R0?AV?$basic_ostream@DV?$char_traits@D@_STL@@@_STL@@@8
_DATA	SEGMENT DWORD USE32 PUBLIC 'DATA'
_DATA	ENDS
;	COMDAT ??_R1A@?0A@A@?$basic_ofstream@DV?$char_traits@D@_STL@@@_STL@@8
rdata$r	SEGMENT DWORD USE32 PUBLIC 'CONST'
rdata$r	ENDS
;	COMDAT ??_R1A@?0A@A@ovfstream@@8
rdata$r	SEGMENT DWORD USE32 PUBLIC 'CONST'
rdata$r	ENDS
;	COMDAT ??_R1A@?0A@A@ivfstream@@8
rdata$r	SEGMENT DWORD USE32 PUBLIC 'CONST'
rdata$r	ENDS
;	COMDAT ??_R13?0A@A@?$map@IPAVSERVERNPC_INFO@@U?$less@I@_STL@@V?$allocator@U?$pair@$$CBIPAVSERVERNPC_INFO@@@_STL@@@3@@_STL@@8
rdata$r	SEGMENT DWORD USE32 PUBLIC 'CONST'
rdata$r	ENDS
;	COMDAT ??_R1A@?0A@A@?$CTypeMap@VSERVERNPC_INFO@@@@8
rdata$r	SEGMENT DWORD USE32 PUBLIC 'CONST'
rdata$r	ENDS
;	COMDAT ??_R1A@?0A@A@MServerNPCTable@@8
rdata$r	SEGMENT DWORD USE32 PUBLIC 'CONST'
rdata$r	ENDS
;	COMDAT ??_R1A@?0A@A@iovfs_base@@8
rdata$r	SEGMENT DWORD USE32 PUBLIC 'CONST'
rdata$r	ENDS
;	COMDAT ??_R0?AVMObject@@@8
_DATA	SEGMENT DWORD USE32 PUBLIC 'DATA'
_DATA	ENDS
;	COMDAT ??_R0?AV?$map@IPAVNPC_INFO@@U?$less@I@_STL@@V?$allocator@U?$pair@$$CBIPAVNPC_INFO@@@_STL@@@3@@_STL@@@8
_DATA	SEGMENT DWORD USE32 PUBLIC 'DATA'
_DATA	ENDS
;	COMDAT ??_R0?AV?$CTypeMap@VNPC_INFO@@@@@8
_DATA	SEGMENT DWORD USE32 PUBLIC 'DATA'
_DATA	ENDS
;	COMDAT ??_R0?AVMNPCTable@@@8
_DATA	SEGMENT DWORD USE32 PUBLIC 'DATA'
_DATA	ENDS
;	COMDAT ??_R0?AVIFileIO@@@8
_DATA	SEGMENT DWORD USE32 PUBLIC 'DATA'
_DATA	ENDS
;	COMDAT ??_R0?AV?$basic_ofstream@DV?$char_traits@D@_STL@@@_STL@@@8
_DATA	SEGMENT DWORD USE32 PUBLIC 'DATA'
_DATA	ENDS
;	COMDAT ??_R0?AVovfstream@@@8
_DATA	SEGMENT DWORD USE32 PUBLIC 'DATA'
_DATA	ENDS
;	COMDAT ??_R0?AVivfstream@@@8
_DATA	SEGMENT DWORD USE32 PUBLIC 'DATA'
_DATA	ENDS
;	COMDAT ??_R0?AV?$map@IPAVSERVERNPC_INFO@@U?$less@I@_STL@@V?$allocator@U?$pair@$$CBIPAVSERVERNPC_INFO@@@_STL@@@3@@_STL@@@8
_DATA	SEGMENT DWORD USE32 PUBLIC 'DATA'
_DATA	ENDS
;	COMDAT ??_R0?AV?$CTypeMap@VSERVERNPC_INFO@@@@@8
_DATA	SEGMENT DWORD USE32 PUBLIC 'DATA'
_DATA	ENDS
;	COMDAT ??_R0?AVMServerNPCTable@@@8
_DATA	SEGMENT DWORD USE32 PUBLIC 'DATA'
_DATA	ENDS
;	COMDAT ??_R0?AViovfs_base@@@8
_DATA	SEGMENT DWORD USE32 PUBLIC 'DATA'
_DATA	ENDS
;	COMDAT ??_R4MObject@@6B@
rdata$r	SEGMENT DWORD USE32 PUBLIC 'CONST'
rdata$r	ENDS
;	COMDAT ??_R4?$CTypeMap@VNPC_INFO@@@@6B@
rdata$r	SEGMENT DWORD USE32 PUBLIC 'CONST'
rdata$r	ENDS
;	COMDAT ??_R4MNPCTable@@6B@
rdata$r	SEGMENT DWORD USE32 PUBLIC 'CONST'
rdata$r	ENDS
;	COMDAT ??_R4IFileIO@@6B@
rdata$r	SEGMENT DWORD USE32 PUBLIC 'CONST'
rdata$r	ENDS
;	COMDAT ??_R4?$basic_ofstream@DV?$char_traits@D@_STL@@@_STL@@6B@
rdata$r	SEGMENT DWORD USE32 PUBLIC 'CONST'
rdata$r	ENDS
;	COMDAT ??_R4ovfstream@@6B@
rdata$r	SEGMENT DWORD USE32 PUBLIC 'CONST'
rdata$r	ENDS
;	COMDAT ??_R4ivfstream@@6B@
rdata$r	SEGMENT DWORD USE32 PUBLIC 'CONST'
rdata$r	ENDS
;	COMDAT ??_R4?$CTypeMap@VSERVERNPC_INFO@@@@6B@
rdata$r	SEGMENT DWORD USE32 PUBLIC 'CONST'
rdata$r	ENDS
;	COMDAT ??_R4MServerNPCTable@@6B@
rdata$r	SEGMENT DWORD USE32 PUBLIC 'CONST'
rdata$r	ENDS
;	COMDAT ??_R4iovfs_base@@6B@
rdata$r	SEGMENT DWORD USE32 PUBLIC 'CONST'
rdata$r	ENDS
;	COMDAT ?__copy_trivial@_STL@@YAPAXPBX0PAX@Z
_TEXT	SEGMENT PARA USE32 PUBLIC 'CODE'
_TEXT	ENDS
;	COMDAT ??3@YAXPAX0@Z
_TEXT	SEGMENT PARA USE32 PUBLIC 'CODE'
_TEXT	ENDS
;	COMDAT ?_M_deallocate_block@?$_String_base@DV?$allocator@D@_STL@@@_STL@@QAEXXZ
_TEXT	SEGMENT PARA USE32 PUBLIC 'CODE'
_TEXT	ENDS
;	COMDAT ?deallocate@?$allocator@D@_STL@@QAEXPADI@Z
_TEXT	SEGMENT PARA USE32 PUBLIC 'CODE'
_TEXT	ENDS
;	COMDAT ?good@ios_base@_STL@@QBE_NXZ
_TEXT	SEGMENT PARA USE32 PUBLIC 'CODE'
_TEXT	ENDS
;	COMDAT ?__page_size@_Filebuf_base@_STL@@SAIXZ
_TEXT	SEGMENT PARA USE32 PUBLIC 'CODE'
_TEXT	ENDS
;	COMDAT ?_M_write@?$basic_filebuf@DV?$char_traits@D@_STL@@@_STL@@QAE_NPADH@Z
_TEXT	SEGMENT PARA USE32 PUBLIC 'CODE'
_TEXT	ENDS
;	COMDAT ?unshift@?$codecvt@DDH@_STL@@QBE?AW4result@codecvt_base@2@AAHPAD1AAPAD@Z
_TEXT	SEGMENT PARA USE32 PUBLIC 'CODE'
_TEXT	ENDS
;	COMDAT ?_M_get_exception_mask@ios_base@_STL@@IBEHXZ
_TEXT	SEGMENT PARA USE32 PUBLIC 'CODE'
_TEXT	ENDS
;	COMDAT ?_M_setstate_nothrow@ios_base@_STL@@IAEXH@Z
_TEXT	SEGMENT PARA USE32 PUBLIC 'CODE'
_TEXT	ENDS
;	COMDAT ?uninitialized_copy@_STL@@YAPADPBD0PAD@Z
_TEXT	SEGMENT PARA USE32 PUBLIC 'CODE'
_TEXT	ENDS
;	COMDAT ?pubsync@?$basic_streambuf@DV?$char_traits@D@_STL@@@_STL@@QAEHXZ
_TEXT	SEGMENT PARA USE32 PUBLIC 'CODE'
_TEXT	ENDS
;	COMDAT ?_M_check_exception_mask@ios_base@_STL@@IAEXXZ
_TEXT	SEGMENT PARA USE32 PUBLIC 'CODE'
_TEXT	ENDS
;	COMDAT ?_M_clear_nothrow@ios_base@_STL@@IAEXH@Z
_TEXT	SEGMENT PARA USE32 PUBLIC 'CODE'
_TEXT	ENDS
;	COMDAT ?flags@ios_base@_STL@@QBEHXZ
_TEXT	SEGMENT PARA USE32 PUBLIC 'CODE'
_TEXT	ENDS
;	COMDAT ?rdstate@ios_base@_STL@@QBEHXZ
_TEXT	SEGMENT PARA USE32 PUBLIC 'CODE'
_TEXT	ENDS
;	COMDAT ??2@YAPAXIPAX@Z
_TEXT	SEGMENT PARA USE32 PUBLIC 'CODE'
_TEXT	ENDS
;	COMDAT ??_7?$CTypeMap@VSERVERNPC_INFO@@@@6B@
CONST	SEGMENT DWORD USE32 PUBLIC 'CONST'
CONST	ENDS
;	COMDAT ??_7?$CTypeMap@VNPC_INFO@@@@6B@
CONST	SEGMENT DWORD USE32 PUBLIC 'CONST'
CONST	ENDS
;	COMDAT ?assign@?$char_traits@D@_STL@@SAXAADABD@Z
_TEXT	SEGMENT PARA USE32 PUBLIC 'CODE'
_TEXT	ENDS
;	COMDAT ?always_noconv@?$codecvt@DDH@_STL@@QBE_NXZ
_TEXT	SEGMENT PARA USE32 PUBLIC 'CODE'
_TEXT	ENDS
;	COMDAT ?encoding@?$codecvt@DDH@_STL@@QBEHXZ
_TEXT	SEGMENT PARA USE32 PUBLIC 'CODE'
_TEXT	ENDS
;	COMDAT ?max_length@?$codecvt@DDH@_STL@@QBEHXZ
_TEXT	SEGMENT PARA USE32 PUBLIC 'CODE'
_TEXT	ENDS
;	COMDAT ?__o_mode@_Filebuf_base@_STL@@QBEHXZ
_TEXT	SEGMENT PARA USE32 PUBLIC 'CODE'
_TEXT	ENDS
;	COMDAT ?sputn@?$basic_streambuf@DV?$char_traits@D@_STL@@@_STL@@QAEHPBDH@Z
_TEXT	SEGMENT PARA USE32 PUBLIC 'CODE'
_TEXT	ENDS
;	COMDAT ?deallocate@?$__node_alloc@$00$0A@@_STL@@SAXPAXI@Z
_TEXT	SEGMENT PARA USE32 PUBLIC 'CODE'
_TEXT	ENDS
;	COMDAT ?__stl_delete@_STL@@YAXPAX@Z
_TEXT	SEGMENT PARA USE32 PUBLIC 'CODE'
_TEXT	ENDS
;	COMDAT ?_Destroy@_STL@@YAXPAD0@Z
_TEXT	SEGMENT PARA USE32 PUBLIC 'CODE'
_TEXT	ENDS
;	COMDAT ??0_List_iterator_base@_STL@@QAE@PAU_List_node_base@1@@Z
_TEXT	SEGMENT PARA USE32 PUBLIC 'CODE'
_TEXT	ENDS
;	COMDAT ??1?$basic_ios@DV?$char_traits@D@_STL@@@_STL@@UAE@XZ
_TEXT	SEGMENT PARA USE32 PUBLIC 'CODE'
_TEXT	ENDS
;	COMDAT ??_7?$basic_ios@DV?$char_traits@D@_STL@@@_STL@@6B@
CONST	SEGMENT DWORD USE32 PUBLIC 'CONST'
CONST	ENDS
;	COMDAT ??_R4?$basic_ios@DV?$char_traits@D@_STL@@@_STL@@6B@
rdata$r	SEGMENT DWORD USE32 PUBLIC 'CONST'
rdata$r	ENDS
;	COMDAT ??_R3?$basic_ios@DV?$char_traits@D@_STL@@@_STL@@8
rdata$r	SEGMENT DWORD USE32 PUBLIC 'CONST'
rdata$r	ENDS
;	COMDAT ??_R2?$basic_ios@DV?$char_traits@D@_STL@@@_STL@@8
rdata$r	SEGMENT DWORD USE32 PUBLIC 'CONST'
rdata$r	ENDS
;	COMDAT ??_R1A@?0A@A@?$basic_ios@DV?$char_traits@D@_STL@@@_STL@@8
rdata$r	SEGMENT DWORD USE32 PUBLIC 'CONST'
rdata$r	ENDS
;	COMDAT ??_R1A@?0A@A@ios_base@_STL@@8
rdata$r	SEGMENT DWORD USE32 PUBLIC 'CONST'
rdata$r	ENDS
;	COMDAT ??_G?$basic_ios@DV?$char_traits@D@_STL@@@_STL@@UAEPAXI@Z
_TEXT	SEGMENT PARA USE32 PUBLIC 'CODE'
_TEXT	ENDS
;	COMDAT ?_M_incr@_List_iterator_base@_STL@@QAEXXZ
_TEXT	SEGMENT PARA USE32 PUBLIC 'CODE'
_TEXT	ENDS
;	COMDAT ??1?$basic_filebuf@DV?$char_traits@D@_STL@@@_STL@@UAE@XZ
_TEXT	SEGMENT PARA USE32 PUBLIC 'CODE'
_TEXT	ENDS
;	COMDAT ??_7?$basic_filebuf@DV?$char_traits@D@_STL@@@_STL@@6B@
CONST	SEGMENT DWORD USE32 PUBLIC 'CONST'
CONST	ENDS
;	COMDAT ??_R4?$basic_filebuf@DV?$char_traits@D@_STL@@@_STL@@6B@
rdata$r	SEGMENT DWORD USE32 PUBLIC 'CONST'
rdata$r	ENDS
;	COMDAT ??_R0?AV?$basic_filebuf@DV?$char_traits@D@_STL@@@_STL@@@8
_DATA	SEGMENT DWORD USE32 PUBLIC 'DATA'
_DATA	ENDS
;	COMDAT ??_R3?$basic_filebuf@DV?$char_traits@D@_STL@@@_STL@@8
rdata$r	SEGMENT DWORD USE32 PUBLIC 'CONST'
rdata$r	ENDS
;	COMDAT ??_R2?$basic_filebuf@DV?$char_traits@D@_STL@@@_STL@@8
rdata$r	SEGMENT DWORD USE32 PUBLIC 'CONST'
rdata$r	ENDS
;	COMDAT ??_R1A@?0A@A@?$basic_filebuf@DV?$char_traits@D@_STL@@@_STL@@8
rdata$r	SEGMENT DWORD USE32 PUBLIC 'CONST'
rdata$r	ENDS
;	COMDAT ??_R1A@?0A@A@?$basic_streambuf@DV?$char_traits@D@_STL@@@_STL@@8
rdata$r	SEGMENT DWORD USE32 PUBLIC 'CONST'
rdata$r	ENDS
;	COMDAT ??_R0?AV?$basic_streambuf@DV?$char_traits@D@_STL@@@_STL@@@8
_DATA	SEGMENT DWORD USE32 PUBLIC 'DATA'
_DATA	ENDS
;	COMDAT ??_G?$basic_filebuf@DV?$char_traits@D@_STL@@@_STL@@UAEPAXI@Z
_TEXT	SEGMENT PARA USE32 PUBLIC 'CODE'
_TEXT	ENDS
;	COMDAT ?setbuf@?$basic_filebuf@DV?$char_traits@D@_STL@@@_STL@@MAEPAV?$basic_streambuf@DV?$char_traits@D@_STL@@@2@PADH@Z
_TEXT	SEGMENT PARA USE32 PUBLIC 'CODE'
_TEXT	ENDS
;	COMDAT ?seekoff@?$basic_filebuf@DV?$char_traits@D@_STL@@@_STL@@MAE?AV?$fpos@H@2@JHH@Z
_TEXT	SEGMENT PARA USE32 PUBLIC 'CODE'
_TEXT	ENDS
;	COMDAT ?_M_in_binary_mode@_Filebuf_base@_STL@@QBE_NXZ
_TEXT	SEGMENT PARA USE32 PUBLIC 'CODE'
_TEXT	ENDS
;	COMDAT ?length@?$codecvt@DDH@_STL@@QBEHABHPBD1I@Z
_TEXT	SEGMENT PARA USE32 PUBLIC 'CODE'
_TEXT	ENDS
;	COMDAT ?in@?$codecvt@DDH@_STL@@QBE?AW4result@codecvt_base@2@AAHPBD1AAPBDPAD3AAPAD@Z
_TEXT	SEGMENT PARA USE32 PUBLIC 'CODE'
_TEXT	ENDS
;	COMDAT ?eback@?$basic_streambuf@DV?$char_traits@D@_STL@@@_STL@@IBEPADXZ
_TEXT	SEGMENT PARA USE32 PUBLIC 'CODE'
_TEXT	ENDS
;	COMDAT ?_FILE_I_begin@_STL@@YAPADPBU_iobuf@@@Z
_TEXT	SEGMENT PARA USE32 PUBLIC 'CODE'
_TEXT	ENDS
;	COMDAT ?gptr@?$basic_streambuf@DV?$char_traits@D@_STL@@@_STL@@IBEPADXZ
_TEXT	SEGMENT PARA USE32 PUBLIC 'CODE'
_TEXT	ENDS
;	COMDAT ?_FILE_I_next@_STL@@YAPADPBU_iobuf@@@Z
_TEXT	SEGMENT PARA USE32 PUBLIC 'CODE'
_TEXT	ENDS
;	COMDAT ?_M_get_offset@_Filebuf_base@_STL@@QAEJPAD0@Z
_TEXT	SEGMENT PARA USE32 PUBLIC 'CODE'
_TEXT	ENDS
;	COMDAT ??$count@PADD@_STL@@YAHPAD0ABD@Z
_TEXT	SEGMENT PARA USE32 PUBLIC 'CODE'
_TEXT	ENDS
;	COMDAT ?seekpos@?$basic_filebuf@DV?$char_traits@D@_STL@@@_STL@@MAE?AV?$fpos@H@2@V32@H@Z
_TEXT	SEGMENT PARA USE32 PUBLIC 'CODE'
_TEXT	ENDS
;	COMDAT ?sync@?$basic_filebuf@DV?$char_traits@D@_STL@@@_STL@@MAEHXZ
_TEXT	SEGMENT PARA USE32 PUBLIC 'CODE'
_TEXT	ENDS
;	COMDAT ?showmanyc@?$basic_filebuf@DV?$char_traits@D@_STL@@@_STL@@MAEHXZ
_TEXT	SEGMENT PARA USE32 PUBLIC 'CODE'
_TEXT	ENDS
;	COMDAT ?egptr@?$basic_streambuf@DV?$char_traits@D@_STL@@@_STL@@IBEPADXZ
_TEXT	SEGMENT PARA USE32 PUBLIC 'CODE'
_TEXT	ENDS
;	COMDAT ?_FILE_I_end@_STL@@YAPADPBU_iobuf@@@Z
_TEXT	SEGMENT PARA USE32 PUBLIC 'CODE'
_TEXT	ENDS
;	COMDAT ?underflow@?$basic_filebuf@DV?$char_traits@D@_STL@@@_STL@@MAEHXZ
_TEXT	SEGMENT PARA USE32 PUBLIC 'CODE'
_TEXT	ENDS
;	COMDAT ?pbackfail@?$basic_filebuf@DV?$char_traits@D@_STL@@@_STL@@MAEHH@Z
_TEXT	SEGMENT PARA USE32 PUBLIC 'CODE'
_TEXT	ENDS
;	COMDAT ?gbump@?$basic_streambuf@DV?$char_traits@D@_STL@@@_STL@@IAEXH@Z
_TEXT	SEGMENT PARA USE32 PUBLIC 'CODE'
_TEXT	ENDS
;	COMDAT ?_FILE_I_bump@_STL@@YAXPAU_iobuf@@H@Z
_TEXT	SEGMENT PARA USE32 PUBLIC 'CODE'
_TEXT	ENDS
;	COMDAT ?to_int_type@?$char_traits@D@_STL@@SAHABD@Z
_TEXT	SEGMENT PARA USE32 PUBLIC 'CODE'
_TEXT	ENDS
;	COMDAT ?to_char_type@?$char_traits@D@_STL@@SADABH@Z
_TEXT	SEGMENT PARA USE32 PUBLIC 'CODE'
_TEXT	ENDS
;	COMDAT ?overflow@?$basic_filebuf@DV?$char_traits@D@_STL@@@_STL@@MAEHH@Z
_TEXT	SEGMENT PARA USE32 PUBLIC 'CODE'
_TEXT	ENDS
;	COMDAT ?pptr@?$basic_streambuf@DV?$char_traits@D@_STL@@@_STL@@IBEPADXZ
_TEXT	SEGMENT PARA USE32 PUBLIC 'CODE'
_TEXT	ENDS
;	COMDAT ?_FILE_O_next@_STL@@YAPADPBU_iobuf@@@Z
_TEXT	SEGMENT PARA USE32 PUBLIC 'CODE'
_TEXT	ENDS
;	COMDAT ?out@?$codecvt@DDH@_STL@@QBE?AW4result@codecvt_base@2@AAHPBD1AAPBDPAD3AAPAD@Z
_TEXT	SEGMENT PARA USE32 PUBLIC 'CODE'
_TEXT	ENDS
;	COMDAT ?_M_doit@?$_Noconv_output@V?$char_traits@D@_STL@@@_STL@@SA_NPAV?$basic_filebuf@DV?$char_traits@D@_STL@@@2@PAD1@Z
_TEXT	SEGMENT PARA USE32 PUBLIC 'CODE'
_TEXT	ENDS
;	COMDAT ?imbue@?$basic_filebuf@DV?$char_traits@D@_STL@@@_STL@@MAEXABVlocale@2@@Z
_TEXT	SEGMENT PARA USE32 PUBLIC 'CODE'
_TEXT	ENDS
;	COMDAT ??1?$basic_ostream@DV?$char_traits@D@_STL@@@_STL@@UAE@XZ
_TEXT	SEGMENT PARA USE32 PUBLIC 'CODE'
_TEXT	ENDS
;	COMDAT ??_7?$basic_ostream@DV?$char_traits@D@_STL@@@_STL@@6B@
CONST	SEGMENT DWORD USE32 PUBLIC 'CONST'
CONST	ENDS
;	COMDAT ??_R4?$basic_ostream@DV?$char_traits@D@_STL@@@_STL@@6B@
rdata$r	SEGMENT DWORD USE32 PUBLIC 'CONST'
rdata$r	ENDS
;	COMDAT ??_R3?$basic_ostream@DV?$char_traits@D@_STL@@@_STL@@8
rdata$r	SEGMENT DWORD USE32 PUBLIC 'CONST'
rdata$r	ENDS
;	COMDAT ??_R2?$basic_ostream@DV?$char_traits@D@_STL@@@_STL@@8
rdata$r	SEGMENT DWORD USE32 PUBLIC 'CONST'
rdata$r	ENDS
;	COMDAT ??_G?$basic_ostream@DV?$char_traits@D@_STL@@@_STL@@UAEPAXI@Z
_TEXT	SEGMENT PARA USE32 PUBLIC 'CODE'
_TEXT	ENDS
;	COMDAT ??_D?$basic_ostream@DV?$char_traits@D@_STL@@@_STL@@QAEXXZ
_TEXT	SEGMENT PARA USE32 PUBLIC 'CODE'
_TEXT	ENDS
;	COMDAT ??_7?$basic_ofstream@DV?$char_traits@D@_STL@@@_STL@@6B@
CONST	SEGMENT DWORD USE32 PUBLIC 'CONST'
CONST	ENDS
;	COMDAT ?setp@?$basic_streambuf@DV?$char_traits@D@_STL@@@_STL@@IAEXPAD0@Z
_TEXT	SEGMENT PARA USE32 PUBLIC 'CODE'
_TEXT	ENDS
;	COMDAT ?_FILE_O_set@_STL@@YAXPAU_iobuf@@PAD11@Z
_TEXT	SEGMENT PARA USE32 PUBLIC 'CODE'
_TEXT	ENDS
;	COMDAT ?_FILE_I_set@_STL@@YAXPAU_iobuf@@PAD11@Z
_TEXT	SEGMENT PARA USE32 PUBLIC 'CODE'
_TEXT	ENDS
;	COMDAT ?setg@?$basic_streambuf@DV?$char_traits@D@_STL@@@_STL@@IAEXPAD00@Z
_TEXT	SEGMENT PARA USE32 PUBLIC 'CODE'
_TEXT	ENDS
;	COMDAT ?__is_open@_Filebuf_base@_STL@@QBE_NXZ
_TEXT	SEGMENT PARA USE32 PUBLIC 'CODE'
_TEXT	ENDS
;	COMDAT ?allocate@?$__node_alloc@$00$0A@@_STL@@SAPAXI@Z
_TEXT	SEGMENT PARA USE32 PUBLIC 'CODE'
_TEXT	ENDS
;	COMDAT ?__stl_new@_STL@@YAPAXI@Z
_TEXT	SEGMENT PARA USE32 PUBLIC 'CODE'
_TEXT	ENDS
;	COMDAT ??1?$_STLP_alloc_proxy@PADDV?$allocator@D@_STL@@@_STL@@QAE@XZ
_TEXT	SEGMENT PARA USE32 PUBLIC 'CODE'
_TEXT	ENDS
;	COMDAT ?length@?$char_traits@D@_STL@@SAIPBD@Z
_TEXT	SEGMENT PARA USE32 PUBLIC 'CODE'
_TEXT	ENDS
;	COMDAT ??1?$allocator@D@_STL@@QAE@XZ
_TEXT	SEGMENT PARA USE32 PUBLIC 'CODE'
_TEXT	ENDS
;	COMDAT ?eof@?$__char_traits_base@DH@_STL@@SAHXZ
_TEXT	SEGMENT PARA USE32 PUBLIC 'CODE'
_TEXT	ENDS
;	COMDAT ??8_Rb_tree_base_iterator@_STL@@QBE_NABU01@@Z
_TEXT	SEGMENT PARA USE32 PUBLIC 'CODE'
_TEXT	ENDS
;	COMDAT ??9_Rb_tree_base_iterator@_STL@@QBE_NABU01@@Z
_TEXT	SEGMENT PARA USE32 PUBLIC 'CODE'
_TEXT	ENDS
;	COMDAT ??_7MServerNPCTable@@6B@
CONST	SEGMENT DWORD USE32 PUBLIC 'CONST'
CONST	ENDS
;	COMDAT ??_7MNPCTable@@6B@
CONST	SEGMENT DWORD USE32 PUBLIC 'CONST'
CONST	ENDS
;	COMDAT ??9_List_iterator_base@_STL@@QBE_NABU01@@Z
_TEXT	SEGMENT PARA USE32 PUBLIC 'CODE'
_TEXT	ENDS
;	COMDAT ??_7MObject@@6B@
CONST	SEGMENT DWORD USE32 PUBLIC 'CONST'
CONST	ENDS
;	COMDAT ??_7ovfstream@@6B@
CONST	SEGMENT DWORD USE32 PUBLIC 'CONST'
CONST	ENDS
;	COMDAT ??_7ivfstream@@6B@
CONST	SEGMENT DWORD USE32 PUBLIC 'CONST'
CONST	ENDS
;	COMDAT ??0?$basic_string@DV?$char_traits@D@_STL@@V?$allocator@D@2@@_STL@@QAE@XZ
_TEXT	SEGMENT PARA USE32 PUBLIC 'CODE'
_TEXT	ENDS
;	COMDAT ??0?$allocator@D@_STL@@QAE@XZ
_TEXT	SEGMENT PARA USE32 PUBLIC 'CODE'
_TEXT	ENDS
;	COMDAT ??1?$_String_base@DV?$allocator@D@_STL@@@_STL@@QAE@XZ
_TEXT	SEGMENT PARA USE32 PUBLIC 'CODE'
_TEXT	ENDS
;	COMDAT ??1?$basic_string@DV?$char_traits@D@_STL@@V?$allocator@D@2@@_STL@@QAE@XZ
_TEXT	SEGMENT PARA USE32 PUBLIC 'CODE'
_TEXT	ENDS
;	COMDAT ??_7iovfs_base@@6B@
CONST	SEGMENT DWORD USE32 PUBLIC 'CONST'
CONST	ENDS
;	COMDAT ??_7IFileIO@@6B@
CONST	SEGMENT DWORD USE32 PUBLIC 'CONST'
CONST	ENDS
sxdata	SEGMENT DWORD USE32 'SXDATA'
sxdata	ENDS
FLAT	GROUP _DATA, CONST, _BSS
	ASSUME	CS: FLAT, DS: FLAT, SS: FLAT
endif

INCLUDELIB LIBCMT
INCLUDELIB OLDNAMES

PUBLIC	?g_pNPCTable@@3PAVMNPCTable@@A			; g_pNPCTable
_BSS	SEGMENT
?g_pNPCTable@@3PAVMNPCTable@@A DD 01H DUP (?)		; g_pNPCTable
_BSS	ENDS
PUBLIC	??2@YAPAXIPAX@Z					; operator new
; Function compile flags: /Ogsy
; File c:\program files\microsoft visual studio .net 2003\vc7\include\new
;	COMDAT ??2@YAPAXIPAX@Z
_TEXT	SEGMENT
___formal$ = 8						; size = 4
__Where$ = 12						; size = 4
??2@YAPAXIPAX@Z PROC NEAR				; operator new, COMDAT

; 64   : 	return (_Where);

  00000	8b 44 24 08	 mov	 eax, DWORD PTR __Where$[esp-4]

; 65   : 	}

  00004	c3		 ret	 0
??2@YAPAXIPAX@Z ENDP					; operator new
_TEXT	ENDS
PUBLIC	??3@YAXPAX0@Z					; operator delete
; Function compile flags: /Ogsy
;	COMDAT ??3@YAXPAX0@Z
_TEXT	SEGMENT
___formal$ = 8						; size = 4
___formal$ = 12						; size = 4
??3@YAXPAX0@Z PROC NEAR					; operator delete, COMDAT

; 69   : 	}

  00000	c3		 ret	 0
??3@YAXPAX0@Z ENDP					; operator delete
_TEXT	ENDS
PUBLIC	?__stl_new@_STL@@YAPAXI@Z			; _STL::__stl_new
EXTRN	??2@YAPAXI@Z:NEAR				; operator new
; Function compile flags: /Ogsy
; File c:\stlport-4.6.1\stlport\stl\_new.h
;	COMDAT ?__stl_new@_STL@@YAPAXI@Z
_TEXT	SEGMENT
___n$ = 8						; size = 4
?__stl_new@_STL@@YAPAXI@Z PROC NEAR			; _STL::__stl_new, COMDAT

; 86   : inline void*  _STLP_CALL __stl_new(size_t __n)   { _STLP_CHECK_NULL_ALLOC(::operator _STLP_NEW(__n)); }

  00000	e9 00 00 00 00	 jmp	 ??2@YAPAXI@Z		; operator new
?__stl_new@_STL@@YAPAXI@Z ENDP				; _STL::__stl_new
_TEXT	ENDS
PUBLIC	?__stl_delete@_STL@@YAXPAX@Z			; _STL::__stl_delete
EXTRN	??3@YAXPAX@Z:NEAR				; operator delete
; Function compile flags: /Ogsy
;	COMDAT ?__stl_delete@_STL@@YAXPAX@Z
_TEXT	SEGMENT
___p$ = 8						; size = 4
?__stl_delete@_STL@@YAXPAX@Z PROC NEAR			; _STL::__stl_delete, COMDAT

; 87   : inline void   _STLP_CALL __stl_delete(void* __p) { ::operator delete(__p); }

  00000	e9 00 00 00 00	 jmp	 ??3@YAXPAX@Z		; operator delete
?__stl_delete@_STL@@YAXPAX@Z ENDP			; _STL::__stl_delete
_TEXT	ENDS
PUBLIC	?read@ivfstream@@QAEXPADI@Z			; ivfstream::read
; Function compile flags: /Ogsy
; File c:\darkeden\designed_common\project\client\virtualfilesystem\vfstream.inl
;	COMDAT ?read@ivfstream@@QAEXPADI@Z
_TEXT	SEGMENT
_buf$ = 8						; size = 4
_len$ = 12						; size = 4
?read@ivfstream@@QAEXPADI@Z PROC NEAR			; ivfstream::read, COMDAT
; _this$ = ecx

; 81   : 	if(m_pFileIO) m_pFileIO->read(buf, len);

  00000	83 79 04 00	 cmp	 DWORD PTR [ecx+4], 0
  00004	74 08		 je	 SHORT $L100361
  00006	8b 49 04	 mov	 ecx, DWORD PTR [ecx+4]
  00009	8b 01		 mov	 eax, DWORD PTR [ecx]
  0000b	ff 60 10	 jmp	 DWORD PTR [eax+16]
$L100361:

; 82   : }

  0000e	c2 08 00	 ret	 8
?read@ivfstream@@QAEXPADI@Z ENDP			; ivfstream::read
_TEXT	ENDS
PUBLIC	?flags@ios_base@_STL@@QBEHXZ			; _STL::ios_base::flags
; Function compile flags: /Ogsy
; File c:\stlport-4.6.1\stlport\stl\_ios_base.h
;	COMDAT ?flags@ios_base@_STL@@QBEHXZ
_TEXT	SEGMENT
?flags@ios_base@_STL@@QBEHXZ PROC NEAR			; _STL::ios_base::flags, COMDAT
; _this$ = ecx

; 115  :   fmtflags flags() const { return _M_fmtflags; }

  00000	8b 41 04	 mov	 eax, DWORD PTR [ecx+4]
  00003	c3		 ret	 0
?flags@ios_base@_STL@@QBEHXZ ENDP			; _STL::ios_base::flags
_TEXT	ENDS
PUBLIC	?rdstate@ios_base@_STL@@QBEHXZ			; _STL::ios_base::rdstate
; Function compile flags: /Ogsy
;	COMDAT ?rdstate@ios_base@_STL@@QBEHXZ
_TEXT	SEGMENT
?rdstate@ios_base@_STL@@QBEHXZ PROC NEAR		; _STL::ios_base::rdstate, COMDAT
; _this$ = ecx

; 178  :   iostate rdstate() const { return _M_iostate; }

  00000	8b 41 08	 mov	 eax, DWORD PTR [ecx+8]
  00003	c3		 ret	 0
?rdstate@ios_base@_STL@@QBEHXZ ENDP			; _STL::ios_base::rdstate
_TEXT	ENDS
PUBLIC	?good@ios_base@_STL@@QBE_NXZ			; _STL::ios_base::good
; Function compile flags: /Ogsy
;	COMDAT ?good@ios_base@_STL@@QBE_NXZ
_TEXT	SEGMENT
?good@ios_base@_STL@@QBE_NXZ PROC NEAR			; _STL::ios_base::good, COMDAT
; _this$ = ecx

; 180  :   bool good() const { return _M_iostate == 0; }

  00000	33 c0		 xor	 eax, eax
  00002	39 41 08	 cmp	 DWORD PTR [ecx+8], eax
  00005	0f 94 c0	 sete	 al
  00008	c3		 ret	 0
?good@ios_base@_STL@@QBE_NXZ ENDP			; _STL::ios_base::good
_TEXT	ENDS
PUBLIC	?_M_setstate_nothrow@ios_base@_STL@@IAEXH@Z	; _STL::ios_base::_M_setstate_nothrow
; Function compile flags: /Ogsy
;	COMDAT ?_M_setstate_nothrow@ios_base@_STL@@IAEXH@Z
_TEXT	SEGMENT
___state$ = 8						; size = 4
?_M_setstate_nothrow@ios_base@_STL@@IAEXH@Z PROC NEAR	; _STL::ios_base::_M_setstate_nothrow, COMDAT
; _this$ = ecx

; 193  :   void _M_setstate_nothrow(iostate __state) { _M_iostate |= __state; }

  00000	8b 44 24 04	 mov	 eax, DWORD PTR ___state$[esp-4]
  00004	09 41 08	 or	 DWORD PTR [ecx+8], eax
  00007	c2 04 00	 ret	 4
?_M_setstate_nothrow@ios_base@_STL@@IAEXH@Z ENDP	; _STL::ios_base::_M_setstate_nothrow
_TEXT	ENDS
PUBLIC	?_M_clear_nothrow@ios_base@_STL@@IAEXH@Z	; _STL::ios_base::_M_clear_nothrow
; Function compile flags: /Ogsy
;	COMDAT ?_M_clear_nothrow@ios_base@_STL@@IAEXH@Z
_TEXT	SEGMENT
___state$ = 8						; size = 4
?_M_clear_nothrow@ios_base@_STL@@IAEXH@Z PROC NEAR	; _STL::ios_base::_M_clear_nothrow, COMDAT
; _this$ = ecx

; 194  :   void _M_clear_nothrow(iostate __state) { _M_iostate = __state; }

  00000	8b 44 24 04	 mov	 eax, DWORD PTR ___state$[esp-4]
  00004	89 41 08	 mov	 DWORD PTR [ecx+8], eax
  00007	c2 04 00	 ret	 4
?_M_clear_nothrow@ios_base@_STL@@IAEXH@Z ENDP		; _STL::ios_base::_M_clear_nothrow
_TEXT	ENDS
PUBLIC	?_M_get_exception_mask@ios_base@_STL@@IBEHXZ	; _STL::ios_base::_M_get_exception_mask
; Function compile flags: /Ogsy
;	COMDAT ?_M_get_exception_mask@ios_base@_STL@@IBEHXZ
_TEXT	SEGMENT
?_M_get_exception_mask@ios_base@_STL@@IBEHXZ PROC NEAR	; _STL::ios_base::_M_get_exception_mask, COMDAT
; _this$ = ecx

; 195  :   iostate _M_get_exception_mask() const { return _M_exception_mask; }

  00000	8b 41 14	 mov	 eax, DWORD PTR [ecx+20]
  00003	c3		 ret	 0
?_M_get_exception_mask@ios_base@_STL@@IBEHXZ ENDP	; _STL::ios_base::_M_get_exception_mask
_TEXT	ENDS
PUBLIC	?_M_check_exception_mask@ios_base@_STL@@IAEXXZ	; _STL::ios_base::_M_check_exception_mask
EXTRN	?_M_throw_failure@ios_base@_STL@@IAEXXZ:NEAR	; _STL::ios_base::_M_throw_failure
; Function compile flags: /Ogsy
;	COMDAT ?_M_check_exception_mask@ios_base@_STL@@IAEXXZ
_TEXT	SEGMENT
?_M_check_exception_mask@ios_base@_STL@@IAEXXZ PROC NEAR ; _STL::ios_base::_M_check_exception_mask, COMDAT
; _this$ = ecx

; 198  :     if (_M_iostate & _M_exception_mask)

  00000	8b 41 14	 mov	 eax, DWORD PTR [ecx+20]
  00003	85 41 08	 test	 eax, DWORD PTR [ecx+8]
  00006	74 05		 je	 SHORT $L79498

; 199  :       _M_throw_failure(); 

  00008	e9 00 00 00 00	 jmp	 ?_M_throw_failure@ios_base@_STL@@IAEXXZ ; _STL::ios_base::_M_throw_failure
$L79498:

; 200  :   }

  0000d	c3		 ret	 0
?_M_check_exception_mask@ios_base@_STL@@IAEXXZ ENDP	; _STL::ios_base::_M_check_exception_mask
_TEXT	ENDS
PUBLIC	??0?$allocator@I@_STL@@QAE@XZ			; _STL::allocator<unsigned int>::allocator<unsigned int>
; Function compile flags: /Ogsy
; File c:\stlport-4.6.1\stlport\stl\_alloc.h
;	COMDAT ??0?$allocator@I@_STL@@QAE@XZ
_TEXT	SEGMENT
??0?$allocator@I@_STL@@QAE@XZ PROC NEAR			; _STL::allocator<unsigned int>::allocator<unsigned int>, COMDAT
; _this$ = ecx

; 345  :   allocator() _STLP_NOTHROW {}

  00000	8b c1		 mov	 eax, ecx
  00002	c3		 ret	 0
??0?$allocator@I@_STL@@QAE@XZ ENDP			; _STL::allocator<unsigned int>::allocator<unsigned int>
_TEXT	ENDS
PUBLIC	??1?$allocator@I@_STL@@QAE@XZ			; _STL::allocator<unsigned int>::~allocator<unsigned int>
; Function compile flags: /Ogsy
;	COMDAT ??1?$allocator@I@_STL@@QAE@XZ
_TEXT	SEGMENT
??1?$allocator@I@_STL@@QAE@XZ PROC NEAR			; _STL::allocator<unsigned int>::~allocator<unsigned int>, COMDAT
; _this$ = ecx

; 350  :   ~allocator() _STLP_NOTHROW {}

  00000	c3		 ret	 0
??1?$allocator@I@_STL@@QAE@XZ ENDP			; _STL::allocator<unsigned int>::~allocator<unsigned int>
_TEXT	ENDS
PUBLIC	?pubsync@?$basic_streambuf@DV?$char_traits@D@_STL@@@_STL@@QAEHXZ ; _STL::basic_streambuf<char,_STL::char_traits<char> >::pubsync
; Function compile flags: /Ogsy
; File c:\stlport-4.6.1\stlport\stl\_streambuf.h
;	COMDAT ?pubsync@?$basic_streambuf@DV?$char_traits@D@_STL@@@_STL@@QAEHXZ
_TEXT	SEGMENT
?pubsync@?$basic_streambuf@DV?$char_traits@D@_STL@@@_STL@@QAEHXZ PROC NEAR ; _STL::basic_streambuf<char,_STL::char_traits<char> >::pubsync, COMDAT
; _this$ = ecx

; 411  :   int pubsync() { return this->sync(); }

  00000	8b 01		 mov	 eax, DWORD PTR [ecx]
  00002	ff 60 10	 jmp	 DWORD PTR [eax+16]
?pubsync@?$basic_streambuf@DV?$char_traits@D@_STL@@@_STL@@QAEHXZ ENDP ; _STL::basic_streambuf<char,_STL::char_traits<char> >::pubsync
_TEXT	ENDS
PUBLIC	?sputn@?$basic_streambuf@DV?$char_traits@D@_STL@@@_STL@@QAEHPBDH@Z ; _STL::basic_streambuf<char,_STL::char_traits<char> >::sputn
; Function compile flags: /Ogsy
;	COMDAT ?sputn@?$basic_streambuf@DV?$char_traits@D@_STL@@@_STL@@QAEHPBDH@Z
_TEXT	SEGMENT
___s$ = 8						; size = 4
___n$ = 12						; size = 4
?sputn@?$basic_streambuf@DV?$char_traits@D@_STL@@@_STL@@QAEHPBDH@Z PROC NEAR ; _STL::basic_streambuf<char,_STL::char_traits<char> >::sputn, COMDAT
; _this$ = ecx

; 441  :     { return this->xsputn(__s, __n); }

  00000	8b 01		 mov	 eax, DWORD PTR [ecx]
  00002	ff 60 28	 jmp	 DWORD PTR [eax+40]
?sputn@?$basic_streambuf@DV?$char_traits@D@_STL@@@_STL@@QAEHPBDH@Z ENDP ; _STL::basic_streambuf<char,_STL::char_traits<char> >::sputn
_TEXT	ENDS
PUBLIC	??D?$_List_iterator@IU?$_Nonconst_traits@I@_STL@@@_STL@@QBEAAIXZ ; _STL::_List_iterator<unsigned int,_STL::_Nonconst_traits<unsigned int> >::operator*
; Function compile flags: /Ogsy
; File c:\stlport-4.6.1\stlport\stl\_list.h
;	COMDAT ??D?$_List_iterator@IU?$_Nonconst_traits@I@_STL@@@_STL@@QBEAAIXZ
_TEXT	SEGMENT
??D?$_List_iterator@IU?$_Nonconst_traits@I@_STL@@@_STL@@QBEAAIXZ PROC NEAR ; _STL::_List_iterator<unsigned int,_STL::_Nonconst_traits<unsigned int> >::operator*, COMDAT
; _this$ = ecx

; 130  :   reference operator*() const { return ((_Node*)_M_node)->_M_data; }

  00000	8b 01		 mov	 eax, DWORD PTR [ecx]
  00002	83 c0 08	 add	 eax, 8
  00005	c3		 ret	 0
??D?$_List_iterator@IU?$_Nonconst_traits@I@_STL@@@_STL@@QBEAAIXZ ENDP ; _STL::_List_iterator<unsigned int,_STL::_Nonconst_traits<unsigned int> >::operator*
_TEXT	ENDS
PUBLIC	??D?$_Rb_tree_iterator@U?$pair@$$CBIPAVSERVERNPC_INFO@@@_STL@@U?$_Nonconst_traits@U?$pair@$$CBIPAVSERVERNPC_INFO@@@_STL@@@2@@_STL@@QBEAAU?$pair@$$CBIPAVSERVERNPC_INFO@@@1@XZ ; _STL::_Rb_tree_iterator<_STL::pair<unsigned int const ,SERVERNPC_INFO *>,_STL::_Nonconst_traits<_STL::pair<unsigned int const ,SERVERNPC_INFO *> > >::operator*
; Function compile flags: /Ogsy
; File c:\stlport-4.6.1\stlport\stl\_tree.h
;	COMDAT ??D?$_Rb_tree_iterator@U?$pair@$$CBIPAVSERVERNPC_INFO@@@_STL@@U?$_Nonconst_traits@U?$pair@$$CBIPAVSERVERNPC_INFO@@@_STL@@@2@@_STL@@QBEAAU?$pair@$$CBIPAVSERVERNPC_INFO@@@1@XZ
_TEXT	SEGMENT
??D?$_Rb_tree_iterator@U?$pair@$$CBIPAVSERVERNPC_INFO@@@_STL@@U?$_Nonconst_traits@U?$pair@$$CBIPAVSERVERNPC_INFO@@@_STL@@@2@@_STL@@QBEAAU?$pair@$$CBIPAVSERVERNPC_INFO@@@1@XZ PROC NEAR ; _STL::_Rb_tree_iterator<_STL::pair<unsigned int const ,SERVERNPC_INFO *>,_STL::_Nonconst_traits<_STL::pair<unsigned int const ,SERVERNPC_INFO *> > >::operator*, COMDAT
; _this$ = ecx

; 169  :     return _Link_type(_M_node)->_M_value_field; 

  00000	8b 01		 mov	 eax, DWORD PTR [ecx]
  00002	83 c0 10	 add	 eax, 16			; 00000010H

; 170  :   }

  00005	c3		 ret	 0
??D?$_Rb_tree_iterator@U?$pair@$$CBIPAVSERVERNPC_INFO@@@_STL@@U?$_Nonconst_traits@U?$pair@$$CBIPAVSERVERNPC_INFO@@@_STL@@@2@@_STL@@QBEAAU?$pair@$$CBIPAVSERVERNPC_INFO@@@1@XZ ENDP ; _STL::_Rb_tree_iterator<_STL::pair<unsigned int const ,SERVERNPC_INFO *>,_STL::_Nonconst_traits<_STL::pair<unsigned int const ,SERVERNPC_INFO *> > >::operator*
_TEXT	ENDS
PUBLIC	??A?$CTypeTable@VCREATURETABLE_INFO@@@@QAEAAVCREATURETABLE_INFO@@H@Z ; CTypeTable<CREATURETABLE_INFO>::operator[]
; Function compile flags: /Ogsy
; File c:\darkeden\designed_common\project\client\ctypetable.h
;	COMDAT ??A?$CTypeTable@VCREATURETABLE_INFO@@@@QAEAAVCREATURETABLE_INFO@@H@Z
_TEXT	SEGMENT
_type$ = 8						; size = 4
??A?$CTypeTable@VCREATURETABLE_INFO@@@@QAEAAVCREATURETABLE_INFO@@H@Z PROC NEAR ; CTypeTable<CREATURETABLE_INFO>::operator[], COMDAT
; _this$ = ecx

; 38   : 		Type&	operator [] (int type)				{ return m_pTypeInfo[type]; }

  00000	8b 44 24 04	 mov	 eax, DWORD PTR _type$[esp-4]
  00004	6b c0 70	 imul	 eax, 112		; 00000070H
  00007	03 41 04	 add	 eax, DWORD PTR [ecx+4]
  0000a	c2 04 00	 ret	 4
??A?$CTypeTable@VCREATURETABLE_INFO@@@@QAEAAVCREATURETABLE_INFO@@H@Z ENDP ; CTypeTable<CREATURETABLE_INFO>::operator[]
_TEXT	ENDS
PUBLIC	?size@?$_Rb_tree@IU?$pair@$$CBIPAVSERVERNPC_INFO@@@_STL@@U?$_Select1st@U?$pair@$$CBIPAVSERVERNPC_INFO@@@_STL@@@2@U?$less@I@2@V?$allocator@U?$pair@$$CBIPAVSERVERNPC_INFO@@@_STL@@@2@@_STL@@QBEIXZ ; _STL::_Rb_tree<unsigned int,_STL::pair<unsigned int const ,SERVERNPC_INFO *>,_STL::_Select1st<_STL::pair<unsigned int const ,SERVERNPC_INFO *> >,_STL::less<unsigned int>,_STL::allocator<_STL::pair<unsigned int const ,SERVERNPC_INFO *> > >::size
; Function compile flags: /Ogsy
; File c:\stlport-4.6.1\stlport\stl\_tree.h
;	COMDAT ?size@?$_Rb_tree@IU?$pair@$$CBIPAVSERVERNPC_INFO@@@_STL@@U?$_Select1st@U?$pair@$$CBIPAVSERVERNPC_INFO@@@_STL@@@2@U?$less@I@2@V?$allocator@U?$pair@$$CBIPAVSERVERNPC_INFO@@@_STL@@@2@@_STL@@QBEIXZ
_TEXT	SEGMENT
?size@?$_Rb_tree@IU?$pair@$$CBIPAVSERVERNPC_INFO@@@_STL@@U?$_Select1st@U?$pair@$$CBIPAVSERVERNPC_INFO@@@_STL@@@2@U?$less@I@2@V?$allocator@U?$pair@$$CBIPAVSERVERNPC_INFO@@@_STL@@@2@@_STL@@QBEIXZ PROC NEAR ; _STL::_Rb_tree<unsigned int,_STL::pair<unsigned int const ,SERVERNPC_INFO *>,_STL::_Select1st<_STL::pair<unsigned int const ,SERVERNPC_INFO *> >,_STL::less<unsigned int>,_STL::allocator<_STL::pair<unsigned int const ,SERVERNPC_INFO *> > >::size, COMDAT
; _this$ = ecx

; 371  :   size_type size() const { return _M_node_count; }

  00000	8b 41 04	 mov	 eax, DWORD PTR [ecx+4]
  00003	c3		 ret	 0
?size@?$_Rb_tree@IU?$pair@$$CBIPAVSERVERNPC_INFO@@@_STL@@U?$_Select1st@U?$pair@$$CBIPAVSERVERNPC_INFO@@@_STL@@@2@U?$less@I@2@V?$allocator@U?$pair@$$CBIPAVSERVERNPC_INFO@@@_STL@@@2@@_STL@@QBEIXZ ENDP ; _STL::_Rb_tree<unsigned int,_STL::pair<unsigned int const ,SERVERNPC_INFO *>,_STL::_Select1st<_STL::pair<unsigned int const ,SERVERNPC_INFO *> >,_STL::less<unsigned int>,_STL::allocator<_STL::pair<unsigned int const ,SERVERNPC_INFO *> > >::size
_TEXT	ENDS
PUBLIC	??0?$allocator@U?$pair@$$CBHH@_STL@@@_STL@@QAE@XZ ; _STL::allocator<_STL::pair<int const ,int> >::allocator<_STL::pair<int const ,int> >
; Function compile flags: /Ogsy
; File c:\stlport-4.6.1\stlport\stl\_alloc.h
;	COMDAT ??0?$allocator@U?$pair@$$CBHH@_STL@@@_STL@@QAE@XZ
_TEXT	SEGMENT
??0?$allocator@U?$pair@$$CBHH@_STL@@@_STL@@QAE@XZ PROC NEAR ; _STL::allocator<_STL::pair<int const ,int> >::allocator<_STL::pair<int const ,int> >, COMDAT
; _this$ = ecx

; 345  :   allocator() _STLP_NOTHROW {}

  00000	8b c1		 mov	 eax, ecx
  00002	c3		 ret	 0
??0?$allocator@U?$pair@$$CBHH@_STL@@@_STL@@QAE@XZ ENDP	; _STL::allocator<_STL::pair<int const ,int> >::allocator<_STL::pair<int const ,int> >
_TEXT	ENDS
PUBLIC	??1?$allocator@U?$pair@$$CBHH@_STL@@@_STL@@QAE@XZ ; _STL::allocator<_STL::pair<int const ,int> >::~allocator<_STL::pair<int const ,int> >
; Function compile flags: /Ogsy
;	COMDAT ??1?$allocator@U?$pair@$$CBHH@_STL@@@_STL@@QAE@XZ
_TEXT	SEGMENT
??1?$allocator@U?$pair@$$CBHH@_STL@@@_STL@@QAE@XZ PROC NEAR ; _STL::allocator<_STL::pair<int const ,int> >::~allocator<_STL::pair<int const ,int> >, COMDAT
; _this$ = ecx

; 350  :   ~allocator() _STLP_NOTHROW {}

  00000	c3		 ret	 0
??1?$allocator@U?$pair@$$CBHH@_STL@@@_STL@@QAE@XZ ENDP	; _STL::allocator<_STL::pair<int const ,int> >::~allocator<_STL::pair<int const ,int> >
_TEXT	ENDS
PUBLIC	??R?$less@H@_STL@@QBE_NABH0@Z			; _STL::less<int>::operator()
; Function compile flags: /Ogsy
; File c:\stlport-4.6.1\stlport\stl\_function_base.h
;	COMDAT ??R?$less@H@_STL@@QBE_NABH0@Z
_TEXT	SEGMENT
___x$ = 8						; size = 4
___y$ = 12						; size = 4
??R?$less@H@_STL@@QBE_NABH0@Z PROC NEAR			; _STL::less<int>::operator(), COMDAT
; _this$ = ecx

; 73   :   bool operator()(const _Tp& __x, const _Tp& __y) const { return __x < __y; }

  00000	8b 44 24 04	 mov	 eax, DWORD PTR ___x$[esp-4]
  00004	8b 00		 mov	 eax, DWORD PTR [eax]
  00006	8b 54 24 08	 mov	 edx, DWORD PTR ___y$[esp-4]
  0000a	33 c9		 xor	 ecx, ecx
  0000c	3b 02		 cmp	 eax, DWORD PTR [edx]
  0000e	0f 9c c1	 setl	 cl
  00011	8a c1		 mov	 al, cl
  00013	c2 08 00	 ret	 8
??R?$less@H@_STL@@QBE_NABH0@Z ENDP			; _STL::less<int>::operator()
_TEXT	ENDS
PUBLIC	??0?$_Rb_tree_iterator@U?$pair@$$CBIPAVSERVERNPC_INFO@@@_STL@@U?$_Nonconst_traits@U?$pair@$$CBIPAVSERVERNPC_INFO@@@_STL@@@2@@_STL@@QAE@ABU01@@Z ; _STL::_Rb_tree_iterator<_STL::pair<unsigned int const ,SERVERNPC_INFO *>,_STL::_Nonconst_traits<_STL::pair<unsigned int const ,SERVERNPC_INFO *> > >::_Rb_tree_iterator<_STL::pair<unsigned int const ,SERVERNPC_INFO *>,_STL::_Nonconst_traits<_STL::pair<unsigned int const ,SERVERNPC_INFO *> > >
; Function compile flags: /Ogsy
; File c:\stlport-4.6.1\stlport\stl\_tree.h
;	COMDAT ??0?$_Rb_tree_iterator@U?$pair@$$CBIPAVSERVERNPC_INFO@@@_STL@@U?$_Nonconst_traits@U?$pair@$$CBIPAVSERVERNPC_INFO@@@_STL@@@2@@_STL@@QAE@ABU01@@Z
_TEXT	SEGMENT
___it$ = 8						; size = 4
??0?$_Rb_tree_iterator@U?$pair@$$CBIPAVSERVERNPC_INFO@@@_STL@@U?$_Nonconst_traits@U?$pair@$$CBIPAVSERVERNPC_INFO@@@_STL@@@2@@_STL@@QAE@ABU01@@Z PROC NEAR ; _STL::_Rb_tree_iterator<_STL::pair<unsigned int const ,SERVERNPC_INFO *>,_STL::_Nonconst_traits<_STL::pair<unsigned int const ,SERVERNPC_INFO *> > >::_Rb_tree_iterator<_STL::pair<unsigned int const ,SERVERNPC_INFO *>,_STL::_Nonconst_traits<_STL::pair<unsigned int const ,SERVERNPC_INFO *> > >, COMDAT
; _this$ = ecx

; 165  :   _Rb_tree_iterator(const _Rb_tree_iterator<_Value, 

  00000	8b c1		 mov	 eax, ecx
  00002	8b 4c 24 04	 mov	 ecx, DWORD PTR ___it$[esp-4]
  00006	8b 09		 mov	 ecx, DWORD PTR [ecx]
  00008	89 08		 mov	 DWORD PTR [eax], ecx

; 166  :                     _Nonconst_traits<_Value> >& __it) { _M_node = __it._M_node; }

  0000a	c2 04 00	 ret	 4
??0?$_Rb_tree_iterator@U?$pair@$$CBIPAVSERVERNPC_INFO@@@_STL@@U?$_Nonconst_traits@U?$pair@$$CBIPAVSERVERNPC_INFO@@@_STL@@@2@@_STL@@QAE@ABU01@@Z ENDP ; _STL::_Rb_tree_iterator<_STL::pair<unsigned int const ,SERVERNPC_INFO *>,_STL::_Nonconst_traits<_STL::pair<unsigned int const ,SERVERNPC_INFO *> > >::_Rb_tree_iterator<_STL::pair<unsigned int const ,SERVERNPC_INFO *>,_STL::_Nonconst_traits<_STL::pair<unsigned int const ,SERVERNPC_INFO *> > >
_TEXT	ENDS
PUBLIC	??0?$_Rb_tree_iterator@U?$pair@$$CBHH@_STL@@U?$_Nonconst_traits@U?$pair@$$CBHH@_STL@@@2@@_STL@@QAE@ABU01@@Z ; _STL::_Rb_tree_iterator<_STL::pair<int const ,int>,_STL::_Nonconst_traits<_STL::pair<int const ,int> > >::_Rb_tree_iterator<_STL::pair<int const ,int>,_STL::_Nonconst_traits<_STL::pair<int const ,int> > >
; Function compile flags: /Ogsy
;	COMDAT ??0?$_Rb_tree_iterator@U?$pair@$$CBHH@_STL@@U?$_Nonconst_traits@U?$pair@$$CBHH@_STL@@@2@@_STL@@QAE@ABU01@@Z
_TEXT	SEGMENT
___it$ = 8						; size = 4
??0?$_Rb_tree_iterator@U?$pair@$$CBHH@_STL@@U?$_Nonconst_traits@U?$pair@$$CBHH@_STL@@@2@@_STL@@QAE@ABU01@@Z PROC NEAR ; _STL::_Rb_tree_iterator<_STL::pair<int const ,int>,_STL::_Nonconst_traits<_STL::pair<int const ,int> > >::_Rb_tree_iterator<_STL::pair<int const ,int>,_STL::_Nonconst_traits<_STL::pair<int const ,int> > >, COMDAT
; _this$ = ecx

; 165  :   _Rb_tree_iterator(const _Rb_tree_iterator<_Value, 

  00000	8b c1		 mov	 eax, ecx
  00002	8b 4c 24 04	 mov	 ecx, DWORD PTR ___it$[esp-4]
  00006	8b 09		 mov	 ecx, DWORD PTR [ecx]
  00008	89 08		 mov	 DWORD PTR [eax], ecx

; 166  :                     _Nonconst_traits<_Value> >& __it) { _M_node = __it._M_node; }

  0000a	c2 04 00	 ret	 4
??0?$_Rb_tree_iterator@U?$pair@$$CBHH@_STL@@U?$_Nonconst_traits@U?$pair@$$CBHH@_STL@@@2@@_STL@@QAE@ABU01@@Z ENDP ; _STL::_Rb_tree_iterator<_STL::pair<int const ,int>,_STL::_Nonconst_traits<_STL::pair<int const ,int> > >::_Rb_tree_iterator<_STL::pair<int const ,int>,_STL::_Nonconst_traits<_STL::pair<int const ,int> > >
_TEXT	ENDS
PUBLIC	??D?$_Rb_tree_iterator@U?$pair@$$CBHH@_STL@@U?$_Nonconst_traits@U?$pair@$$CBHH@_STL@@@2@@_STL@@QBEAAU?$pair@$$CBHH@1@XZ ; _STL::_Rb_tree_iterator<_STL::pair<int const ,int>,_STL::_Nonconst_traits<_STL::pair<int const ,int> > >::operator*
; Function compile flags: /Ogsy
;	COMDAT ??D?$_Rb_tree_iterator@U?$pair@$$CBHH@_STL@@U?$_Nonconst_traits@U?$pair@$$CBHH@_STL@@@2@@_STL@@QBEAAU?$pair@$$CBHH@1@XZ
_TEXT	SEGMENT
??D?$_Rb_tree_iterator@U?$pair@$$CBHH@_STL@@U?$_Nonconst_traits@U?$pair@$$CBHH@_STL@@@2@@_STL@@QBEAAU?$pair@$$CBHH@1@XZ PROC NEAR ; _STL::_Rb_tree_iterator<_STL::pair<int const ,int>,_STL::_Nonconst_traits<_STL::pair<int const ,int> > >::operator*, COMDAT
; _this$ = ecx

; 169  :     return _Link_type(_M_node)->_M_value_field; 

  00000	8b 01		 mov	 eax, DWORD PTR [ecx]
  00002	83 c0 10	 add	 eax, 16			; 00000010H

; 170  :   }

  00005	c3		 ret	 0
??D?$_Rb_tree_iterator@U?$pair@$$CBHH@_STL@@U?$_Nonconst_traits@U?$pair@$$CBHH@_STL@@@2@@_STL@@QBEAAU?$pair@$$CBHH@1@XZ ENDP ; _STL::_Rb_tree_iterator<_STL::pair<int const ,int>,_STL::_Nonconst_traits<_STL::pair<int const ,int> > >::operator*
_TEXT	ENDS
PUBLIC	??0?$pair@$$CBHH@_STL@@QAE@ABH0@Z		; _STL::pair<int const ,int>::pair<int const ,int>
; Function compile flags: /Ogsy
; File c:\stlport-4.6.1\stlport\stl\_pair.h
;	COMDAT ??0?$pair@$$CBHH@_STL@@QAE@ABH0@Z
_TEXT	SEGMENT
___a$ = 8						; size = 4
___b$ = 12						; size = 4
??0?$pair@$$CBHH@_STL@@QAE@ABH0@Z PROC NEAR		; _STL::pair<int const ,int>::pair<int const ,int>, COMDAT
; _this$ = ecx

; 48   :   pair(const _T1& __a, const _T2& __b) : first(__a), second(__b) {}

  00000	8b c1		 mov	 eax, ecx
  00002	8b 4c 24 04	 mov	 ecx, DWORD PTR ___a$[esp-4]
  00006	8b 09		 mov	 ecx, DWORD PTR [ecx]
  00008	89 08		 mov	 DWORD PTR [eax], ecx
  0000a	8b 4c 24 08	 mov	 ecx, DWORD PTR ___b$[esp-4]
  0000e	8b 09		 mov	 ecx, DWORD PTR [ecx]
  00010	89 48 04	 mov	 DWORD PTR [eax+4], ecx
  00013	c2 08 00	 ret	 8
??0?$pair@$$CBHH@_STL@@QAE@ABH0@Z ENDP			; _STL::pair<int const ,int>::pair<int const ,int>
_TEXT	ENDS
PUBLIC	??1?$allocator@U?$_List_node@I@_STL@@@_STL@@QAE@XZ ; _STL::allocator<_STL::_List_node<unsigned int> >::~allocator<_STL::_List_node<unsigned int> >
; Function compile flags: /Ogsy
; File c:\stlport-4.6.1\stlport\stl\_alloc.h
;	COMDAT ??1?$allocator@U?$_List_node@I@_STL@@@_STL@@QAE@XZ
_TEXT	SEGMENT
??1?$allocator@U?$_List_node@I@_STL@@@_STL@@QAE@XZ PROC NEAR ; _STL::allocator<_STL::_List_node<unsigned int> >::~allocator<_STL::_List_node<unsigned int> >, COMDAT
; _this$ = ecx

; 350  :   ~allocator() _STLP_NOTHROW {}

  00000	c3		 ret	 0
??1?$allocator@U?$_List_node@I@_STL@@@_STL@@QAE@XZ ENDP	; _STL::allocator<_STL::_List_node<unsigned int> >::~allocator<_STL::_List_node<unsigned int> >
_TEXT	ENDS
PUBLIC	?_M_leftmost@?$_Rb_tree@IU?$pair@$$CBIPAVSERVERNPC_INFO@@@_STL@@U?$_Select1st@U?$pair@$$CBIPAVSERVERNPC_INFO@@@_STL@@@2@U?$less@I@2@V?$allocator@U?$pair@$$CBIPAVSERVERNPC_INFO@@@_STL@@@2@@_STL@@IBEAAPAU?$_Rb_tree_node@U?$pair@$$CBIPAVSERVERNPC_INFO@@@_STL@@@2@XZ ; _STL::_Rb_tree<unsigned int,_STL::pair<unsigned int const ,SERVERNPC_INFO *>,_STL::_Select1st<_STL::pair<unsigned int const ,SERVERNPC_INFO *> >,_STL::less<unsigned int>,_STL::allocator<_STL::pair<unsigned int const ,SERVERNPC_INFO *> > >::_M_leftmost
; Function compile flags: /Ogsy
; File c:\stlport-4.6.1\stlport\stl\_tree.h
;	COMDAT ?_M_leftmost@?$_Rb_tree@IU?$pair@$$CBIPAVSERVERNPC_INFO@@@_STL@@U?$_Select1st@U?$pair@$$CBIPAVSERVERNPC_INFO@@@_STL@@@2@U?$less@I@2@V?$allocator@U?$pair@$$CBIPAVSERVERNPC_INFO@@@_STL@@@2@@_STL@@IBEAAPAU?$_Rb_tree_node@U?$pair@$$CBIPAVSERVERNPC_INFO@@@_STL@@@2@XZ
_TEXT	SEGMENT
?_M_leftmost@?$_Rb_tree@IU?$pair@$$CBIPAVSERVERNPC_INFO@@@_STL@@U?$_Select1st@U?$pair@$$CBIPAVSERVERNPC_INFO@@@_STL@@@2@U?$less@I@2@V?$allocator@U?$pair@$$CBIPAVSERVERNPC_INFO@@@_STL@@@2@@_STL@@IBEAAPAU?$_Rb_tree_node@U?$pair@$$CBIPAVSERVERNPC_INFO@@@_STL@@@2@XZ PROC NEAR ; _STL::_Rb_tree<unsigned int,_STL::pair<unsigned int const ,SERVERNPC_INFO *>,_STL::_Select1st<_STL::pair<unsigned int const ,SERVERNPC_INFO *> >,_STL::less<unsigned int>,_STL::allocator<_STL::pair<unsigned int const ,SERVERNPC_INFO *> > >::_M_leftmost, COMDAT
; _this$ = ecx

; 267  :     { return (_Link_type&) this->_M_header._M_data->_M_left; }

  00000	8b 01		 mov	 eax, DWORD PTR [ecx]
  00002	83 c0 08	 add	 eax, 8
  00005	c3		 ret	 0
?_M_leftmost@?$_Rb_tree@IU?$pair@$$CBIPAVSERVERNPC_INFO@@@_STL@@U?$_Select1st@U?$pair@$$CBIPAVSERVERNPC_INFO@@@_STL@@@2@U?$less@I@2@V?$allocator@U?$pair@$$CBIPAVSERVERNPC_INFO@@@_STL@@@2@@_STL@@IBEAAPAU?$_Rb_tree_node@U?$pair@$$CBIPAVSERVERNPC_INFO@@@_STL@@@2@XZ ENDP ; _STL::_Rb_tree<unsigned int,_STL::pair<unsigned int const ,SERVERNPC_INFO *>,_STL::_Select1st<_STL::pair<unsigned int const ,SERVERNPC_INFO *> >,_STL::less<unsigned int>,_STL::allocator<_STL::pair<unsigned int const ,SERVERNPC_INFO *> > >::_M_leftmost
_TEXT	ENDS
PUBLIC	?_M_root@?$_Rb_tree@HU?$pair@$$CBHH@_STL@@U?$_Select1st@U?$pair@$$CBHH@_STL@@@2@U?$less@H@2@V?$allocator@U?$pair@$$CBHH@_STL@@@2@@_STL@@IBEAAPAU?$_Rb_tree_node@U?$pair@$$CBHH@_STL@@@2@XZ ; _STL::_Rb_tree<int,_STL::pair<int const ,int>,_STL::_Select1st<_STL::pair<int const ,int> >,_STL::less<int>,_STL::allocator<_STL::pair<int const ,int> > >::_M_root
; Function compile flags: /Ogsy
;	COMDAT ?_M_root@?$_Rb_tree@HU?$pair@$$CBHH@_STL@@U?$_Select1st@U?$pair@$$CBHH@_STL@@@2@U?$less@H@2@V?$allocator@U?$pair@$$CBHH@_STL@@@2@@_STL@@IBEAAPAU?$_Rb_tree_node@U?$pair@$$CBHH@_STL@@@2@XZ
_TEXT	SEGMENT
?_M_root@?$_Rb_tree@HU?$pair@$$CBHH@_STL@@U?$_Select1st@U?$pair@$$CBHH@_STL@@@2@U?$less@H@2@V?$allocator@U?$pair@$$CBHH@_STL@@@2@@_STL@@IBEAAPAU?$_Rb_tree_node@U?$pair@$$CBHH@_STL@@@2@XZ PROC NEAR ; _STL::_Rb_tree<int,_STL::pair<int const ,int>,_STL::_Select1st<_STL::pair<int const ,int> >,_STL::less<int>,_STL::allocator<_STL::pair<int const ,int> > >::_M_root, COMDAT
; _this$ = ecx

; 265  :     { return (_Link_type&) this->_M_header._M_data->_M_parent; }

  00000	8b 01		 mov	 eax, DWORD PTR [ecx]
  00002	83 c0 04	 add	 eax, 4
  00005	c3		 ret	 0
?_M_root@?$_Rb_tree@HU?$pair@$$CBHH@_STL@@U?$_Select1st@U?$pair@$$CBHH@_STL@@@2@U?$less@H@2@V?$allocator@U?$pair@$$CBHH@_STL@@@2@@_STL@@IBEAAPAU?$_Rb_tree_node@U?$pair@$$CBHH@_STL@@@2@XZ ENDP ; _STL::_Rb_tree<int,_STL::pair<int const ,int>,_STL::_Select1st<_STL::pair<int const ,int> >,_STL::less<int>,_STL::allocator<_STL::pair<int const ,int> > >::_M_root
_TEXT	ENDS
PUBLIC	?_M_leftmost@?$_Rb_tree@HU?$pair@$$CBHH@_STL@@U?$_Select1st@U?$pair@$$CBHH@_STL@@@2@U?$less@H@2@V?$allocator@U?$pair@$$CBHH@_STL@@@2@@_STL@@IBEAAPAU?$_Rb_tree_node@U?$pair@$$CBHH@_STL@@@2@XZ ; _STL::_Rb_tree<int,_STL::pair<int const ,int>,_STL::_Select1st<_STL::pair<int const ,int> >,_STL::less<int>,_STL::allocator<_STL::pair<int const ,int> > >::_M_leftmost
; Function compile flags: /Ogsy
;	COMDAT ?_M_leftmost@?$_Rb_tree@HU?$pair@$$CBHH@_STL@@U?$_Select1st@U?$pair@$$CBHH@_STL@@@2@U?$less@H@2@V?$allocator@U?$pair@$$CBHH@_STL@@@2@@_STL@@IBEAAPAU?$_Rb_tree_node@U?$pair@$$CBHH@_STL@@@2@XZ
_TEXT	SEGMENT
?_M_leftmost@?$_Rb_tree@HU?$pair@$$CBHH@_STL@@U?$_Select1st@U?$pair@$$CBHH@_STL@@@2@U?$less@H@2@V?$allocator@U?$pair@$$CBHH@_STL@@@2@@_STL@@IBEAAPAU?$_Rb_tree_node@U?$pair@$$CBHH@_STL@@@2@XZ PROC NEAR ; _STL::_Rb_tree<int,_STL::pair<int const ,int>,_STL::_Select1st<_STL::pair<int const ,int> >,_STL::less<int>,_STL::allocator<_STL::pair<int const ,int> > >::_M_leftmost, COMDAT
; _this$ = ecx

; 267  :     { return (_Link_type&) this->_M_header._M_data->_M_left; }

  00000	8b 01		 mov	 eax, DWORD PTR [ecx]
  00002	83 c0 08	 add	 eax, 8
  00005	c3		 ret	 0
?_M_leftmost@?$_Rb_tree@HU?$pair@$$CBHH@_STL@@U?$_Select1st@U?$pair@$$CBHH@_STL@@@2@U?$less@H@2@V?$allocator@U?$pair@$$CBHH@_STL@@@2@@_STL@@IBEAAPAU?$_Rb_tree_node@U?$pair@$$CBHH@_STL@@@2@XZ ENDP ; _STL::_Rb_tree<int,_STL::pair<int const ,int>,_STL::_Select1st<_STL::pair<int const ,int> >,_STL::less<int>,_STL::allocator<_STL::pair<int const ,int> > >::_M_leftmost
_TEXT	ENDS
PUBLIC	?_M_rightmost@?$_Rb_tree@HU?$pair@$$CBHH@_STL@@U?$_Select1st@U?$pair@$$CBHH@_STL@@@2@U?$less@H@2@V?$allocator@U?$pair@$$CBHH@_STL@@@2@@_STL@@IBEAAPAU?$_Rb_tree_node@U?$pair@$$CBHH@_STL@@@2@XZ ; _STL::_Rb_tree<int,_STL::pair<int const ,int>,_STL::_Select1st<_STL::pair<int const ,int> >,_STL::less<int>,_STL::allocator<_STL::pair<int const ,int> > >::_M_rightmost
; Function compile flags: /Ogsy
;	COMDAT ?_M_rightmost@?$_Rb_tree@HU?$pair@$$CBHH@_STL@@U?$_Select1st@U?$pair@$$CBHH@_STL@@@2@U?$less@H@2@V?$allocator@U?$pair@$$CBHH@_STL@@@2@@_STL@@IBEAAPAU?$_Rb_tree_node@U?$pair@$$CBHH@_STL@@@2@XZ
_TEXT	SEGMENT
?_M_rightmost@?$_Rb_tree@HU?$pair@$$CBHH@_STL@@U?$_Select1st@U?$pair@$$CBHH@_STL@@@2@U?$less@H@2@V?$allocator@U?$pair@$$CBHH@_STL@@@2@@_STL@@IBEAAPAU?$_Rb_tree_node@U?$pair@$$CBHH@_STL@@@2@XZ PROC NEAR ; _STL::_Rb_tree<int,_STL::pair<int const ,int>,_STL::_Select1st<_STL::pair<int const ,int> >,_STL::less<int>,_STL::allocator<_STL::pair<int const ,int> > >::_M_rightmost, COMDAT
; _this$ = ecx

; 269  :     { return (_Link_type&) this->_M_header._M_data->_M_right; }

  00000	8b 01		 mov	 eax, DWORD PTR [ecx]
  00002	83 c0 0c	 add	 eax, 12			; 0000000cH
  00005	c3		 ret	 0
?_M_rightmost@?$_Rb_tree@HU?$pair@$$CBHH@_STL@@U?$_Select1st@U?$pair@$$CBHH@_STL@@@2@U?$less@H@2@V?$allocator@U?$pair@$$CBHH@_STL@@@2@@_STL@@IBEAAPAU?$_Rb_tree_node@U?$pair@$$CBHH@_STL@@@2@XZ ENDP ; _STL::_Rb_tree<int,_STL::pair<int const ,int>,_STL::_Select1st<_STL::pair<int const ,int> >,_STL::less<int>,_STL::allocator<_STL::pair<int const ,int> > >::_M_rightmost
_TEXT	ENDS
PUBLIC	?key_comp@?$_Rb_tree@HU?$pair@$$CBHH@_STL@@U?$_Select1st@U?$pair@$$CBHH@_STL@@@2@U?$less@H@2@V?$allocator@U?$pair@$$CBHH@_STL@@@2@@_STL@@QBE?AU?$less@H@2@XZ ; _STL::_Rb_tree<int,_STL::pair<int const ,int>,_STL::_Select1st<_STL::pair<int const ,int> >,_STL::less<int>,_STL::allocator<_STL::pair<int const ,int> > >::key_comp
; Function compile flags: /Ogsy
;	COMDAT ?key_comp@?$_Rb_tree@HU?$pair@$$CBHH@_STL@@U?$_Select1st@U?$pair@$$CBHH@_STL@@@2@U?$less@H@2@V?$allocator@U?$pair@$$CBHH@_STL@@@2@@_STL@@QBE?AU?$less@H@2@XZ
_TEXT	SEGMENT
___$ReturnUdt$ = 8					; size = 4
?key_comp@?$_Rb_tree@HU?$pair@$$CBHH@_STL@@U?$_Select1st@U?$pair@$$CBHH@_STL@@@2@U?$less@H@2@V?$allocator@U?$pair@$$CBHH@_STL@@@2@@_STL@@QBE?AU?$less@H@2@XZ PROC NEAR ; _STL::_Rb_tree<int,_STL::pair<int const ,int>,_STL::_Select1st<_STL::pair<int const ,int> >,_STL::less<int>,_STL::allocator<_STL::pair<int const ,int> > >::key_comp, COMDAT
; _this$ = ecx

; 355  :   _Compare key_comp() const { return _M_key_compare; }

  00000	8b 44 24 04	 mov	 eax, DWORD PTR ___$ReturnUdt$[esp-4]
  00004	c2 04 00	 ret	 4
?key_comp@?$_Rb_tree@HU?$pair@$$CBHH@_STL@@U?$_Select1st@U?$pair@$$CBHH@_STL@@@2@U?$less@H@2@V?$allocator@U?$pair@$$CBHH@_STL@@@2@@_STL@@QBE?AU?$less@H@2@XZ ENDP ; _STL::_Rb_tree<int,_STL::pair<int const ,int>,_STL::_Select1st<_STL::pair<int const ,int> >,_STL::less<int>,_STL::allocator<_STL::pair<int const ,int> > >::key_comp
_TEXT	ENDS
PUBLIC	??1?$allocator@U?$_Rb_tree_node@U?$pair@$$CBHH@_STL@@@_STL@@@_STL@@QAE@XZ ; _STL::allocator<_STL::_Rb_tree_node<_STL::pair<int const ,int> > >::~allocator<_STL::_Rb_tree_node<_STL::pair<int const ,int> > >
; Function compile flags: /Ogsy
; File c:\stlport-4.6.1\stlport\stl\_alloc.h
;	COMDAT ??1?$allocator@U?$_Rb_tree_node@U?$pair@$$CBHH@_STL@@@_STL@@@_STL@@QAE@XZ
_TEXT	SEGMENT
??1?$allocator@U?$_Rb_tree_node@U?$pair@$$CBHH@_STL@@@_STL@@@_STL@@QAE@XZ PROC NEAR ; _STL::allocator<_STL::_Rb_tree_node<_STL::pair<int const ,int> > >::~allocator<_STL::_Rb_tree_node<_STL::pair<int const ,int> > >, COMDAT
; _this$ = ecx

; 350  :   ~allocator() _STLP_NOTHROW {}

  00000	c3		 ret	 0
??1?$allocator@U?$_Rb_tree_node@U?$pair@$$CBHH@_STL@@@_STL@@@_STL@@QAE@XZ ENDP ; _STL::allocator<_STL::_Rb_tree_node<_STL::pair<int const ,int> > >::~allocator<_STL::_Rb_tree_node<_STL::pair<int const ,int> > >
_TEXT	ENDS
PUBLIC	??0?$_Rb_tree_iterator@U?$pair@$$CBIPAVSERVERNPC_INFO@@@_STL@@U?$_Nonconst_traits@U?$pair@$$CBIPAVSERVERNPC_INFO@@@_STL@@@2@@_STL@@QAE@PAU?$_Rb_tree_node@U?$pair@$$CBIPAVSERVERNPC_INFO@@@_STL@@@1@@Z ; _STL::_Rb_tree_iterator<_STL::pair<unsigned int const ,SERVERNPC_INFO *>,_STL::_Nonconst_traits<_STL::pair<unsigned int const ,SERVERNPC_INFO *> > >::_Rb_tree_iterator<_STL::pair<unsigned int const ,SERVERNPC_INFO *>,_STL::_Nonconst_traits<_STL::pair<unsigned int const ,SERVERNPC_INFO *> > >
; Function compile flags: /Ogsy
; File c:\stlport-4.6.1\stlport\stl\_tree.h
;	COMDAT ??0?$_Rb_tree_iterator@U?$pair@$$CBIPAVSERVERNPC_INFO@@@_STL@@U?$_Nonconst_traits@U?$pair@$$CBIPAVSERVERNPC_INFO@@@_STL@@@2@@_STL@@QAE@PAU?$_Rb_tree_node@U?$pair@$$CBIPAVSERVERNPC_INFO@@@_STL@@@1@@Z
_TEXT	SEGMENT
___x$ = 8						; size = 4
??0?$_Rb_tree_iterator@U?$pair@$$CBIPAVSERVERNPC_INFO@@@_STL@@U?$_Nonconst_traits@U?$pair@$$CBIPAVSERVERNPC_INFO@@@_STL@@@2@@_STL@@QAE@PAU?$_Rb_tree_node@U?$pair@$$CBIPAVSERVERNPC_INFO@@@_STL@@@1@@Z PROC NEAR ; _STL::_Rb_tree_iterator<_STL::pair<unsigned int const ,SERVERNPC_INFO *>,_STL::_Nonconst_traits<_STL::pair<unsigned int const ,SERVERNPC_INFO *> > >::_Rb_tree_iterator<_STL::pair<unsigned int const ,SERVERNPC_INFO *>,_STL::_Nonconst_traits<_STL::pair<unsigned int const ,SERVERNPC_INFO *> > >, COMDAT
; _this$ = ecx

; 164  :   _Rb_tree_iterator(_Link_type __x) { _M_node = __x; }

  00000	8b c1		 mov	 eax, ecx
  00002	8b 4c 24 04	 mov	 ecx, DWORD PTR ___x$[esp-4]
  00006	89 08		 mov	 DWORD PTR [eax], ecx
  00008	c2 04 00	 ret	 4
??0?$_Rb_tree_iterator@U?$pair@$$CBIPAVSERVERNPC_INFO@@@_STL@@U?$_Nonconst_traits@U?$pair@$$CBIPAVSERVERNPC_INFO@@@_STL@@@2@@_STL@@QAE@PAU?$_Rb_tree_node@U?$pair@$$CBIPAVSERVERNPC_INFO@@@_STL@@@1@@Z ENDP ; _STL::_Rb_tree_iterator<_STL::pair<unsigned int const ,SERVERNPC_INFO *>,_STL::_Nonconst_traits<_STL::pair<unsigned int const ,SERVERNPC_INFO *> > >::_Rb_tree_iterator<_STL::pair<unsigned int const ,SERVERNPC_INFO *>,_STL::_Nonconst_traits<_STL::pair<unsigned int const ,SERVERNPC_INFO *> > >
_TEXT	ENDS
PUBLIC	??0?$_Rb_tree_iterator@U?$pair@$$CBHH@_STL@@U?$_Nonconst_traits@U?$pair@$$CBHH@_STL@@@2@@_STL@@QAE@PAU?$_Rb_tree_node@U?$pair@$$CBHH@_STL@@@1@@Z ; _STL::_Rb_tree_iterator<_STL::pair<int const ,int>,_STL::_Nonconst_traits<_STL::pair<int const ,int> > >::_Rb_tree_iterator<_STL::pair<int const ,int>,_STL::_Nonconst_traits<_STL::pair<int const ,int> > >
; Function compile flags: /Ogsy
;	COMDAT ??0?$_Rb_tree_iterator@U?$pair@$$CBHH@_STL@@U?$_Nonconst_traits@U?$pair@$$CBHH@_STL@@@2@@_STL@@QAE@PAU?$_Rb_tree_node@U?$pair@$$CBHH@_STL@@@1@@Z
_TEXT	SEGMENT
___x$ = 8						; size = 4
??0?$_Rb_tree_iterator@U?$pair@$$CBHH@_STL@@U?$_Nonconst_traits@U?$pair@$$CBHH@_STL@@@2@@_STL@@QAE@PAU?$_Rb_tree_node@U?$pair@$$CBHH@_STL@@@1@@Z PROC NEAR ; _STL::_Rb_tree_iterator<_STL::pair<int const ,int>,_STL::_Nonconst_traits<_STL::pair<int const ,int> > >::_Rb_tree_iterator<_STL::pair<int const ,int>,_STL::_Nonconst_traits<_STL::pair<int const ,int> > >, COMDAT
; _this$ = ecx

; 164  :   _Rb_tree_iterator(_Link_type __x) { _M_node = __x; }

  00000	8b c1		 mov	 eax, ecx
  00002	8b 4c 24 04	 mov	 ecx, DWORD PTR ___x$[esp-4]
  00006	89 08		 mov	 DWORD PTR [eax], ecx
  00008	c2 04 00	 ret	 4
??0?$_Rb_tree_iterator@U?$pair@$$CBHH@_STL@@U?$_Nonconst_traits@U?$pair@$$CBHH@_STL@@@2@@_STL@@QAE@PAU?$_Rb_tree_node@U?$pair@$$CBHH@_STL@@@1@@Z ENDP ; _STL::_Rb_tree_iterator<_STL::pair<int const ,int>,_STL::_Nonconst_traits<_STL::pair<int const ,int> > >::_Rb_tree_iterator<_STL::pair<int const ,int>,_STL::_Nonconst_traits<_STL::pair<int const ,int> > >
_TEXT	ENDS
PUBLIC	??0?$allocator@U?$_List_node@I@_STL@@@_STL@@QAE@ABV01@@Z ; _STL::allocator<_STL::_List_node<unsigned int> >::allocator<_STL::_List_node<unsigned int> >
; Function compile flags: /Ogsy
; File c:\stlport-4.6.1\stlport\stl\_alloc.h
;	COMDAT ??0?$allocator@U?$_List_node@I@_STL@@@_STL@@QAE@ABV01@@Z
_TEXT	SEGMENT
___formal$ = 8						; size = 4
??0?$allocator@U?$_List_node@I@_STL@@@_STL@@QAE@ABV01@@Z PROC NEAR ; _STL::allocator<_STL::_List_node<unsigned int> >::allocator<_STL::_List_node<unsigned int> >, COMDAT
; _this$ = ecx

; 349  :   allocator(const allocator<_Tp>&) _STLP_NOTHROW {}

  00000	8b c1		 mov	 eax, ecx
  00002	c2 04 00	 ret	 4
??0?$allocator@U?$_List_node@I@_STL@@@_STL@@QAE@ABV01@@Z ENDP ; _STL::allocator<_STL::_List_node<unsigned int> >::allocator<_STL::_List_node<unsigned int> >
_TEXT	ENDS
PUBLIC	?_S_color@?$_Rb_tree@HU?$pair@$$CBHH@_STL@@U?$_Select1st@U?$pair@$$CBHH@_STL@@@2@U?$less@H@2@V?$allocator@U?$pair@$$CBHH@_STL@@@2@@_STL@@KAAA_NPAU?$_Rb_tree_node@U?$pair@$$CBHH@_STL@@@2@@Z ; _STL::_Rb_tree<int,_STL::pair<int const ,int>,_STL::_Select1st<_STL::pair<int const ,int> >,_STL::less<int>,_STL::allocator<_STL::pair<int const ,int> > >::_S_color
; Function compile flags: /Ogsy
; File c:\stlport-4.6.1\stlport\stl\_tree.h
;	COMDAT ?_S_color@?$_Rb_tree@HU?$pair@$$CBHH@_STL@@U?$_Select1st@U?$pair@$$CBHH@_STL@@@2@U?$less@H@2@V?$allocator@U?$pair@$$CBHH@_STL@@@2@@_STL@@KAAA_NPAU?$_Rb_tree_node@U?$pair@$$CBHH@_STL@@@2@@Z
_TEXT	SEGMENT
___x$ = 8						; size = 4
?_S_color@?$_Rb_tree@HU?$pair@$$CBHH@_STL@@U?$_Select1st@U?$pair@$$CBHH@_STL@@@2@U?$less@H@2@V?$allocator@U?$pair@$$CBHH@_STL@@@2@@_STL@@KAAA_NPAU?$_Rb_tree_node@U?$pair@$$CBHH@_STL@@@2@@Z PROC NEAR ; _STL::_Rb_tree<int,_STL::pair<int const ,int>,_STL::_Select1st<_STL::pair<int const ,int> >,_STL::less<int>,_STL::allocator<_STL::pair<int const ,int> > >::_S_color, COMDAT

; 282  :     { return (_Color_type&)(__x->_M_color); }

  00000	8b 44 24 04	 mov	 eax, DWORD PTR ___x$[esp-4]
  00004	c3		 ret	 0
?_S_color@?$_Rb_tree@HU?$pair@$$CBHH@_STL@@U?$_Select1st@U?$pair@$$CBHH@_STL@@@2@U?$less@H@2@V?$allocator@U?$pair@$$CBHH@_STL@@@2@@_STL@@KAAA_NPAU?$_Rb_tree_node@U?$pair@$$CBHH@_STL@@@2@@Z ENDP ; _STL::_Rb_tree<int,_STL::pair<int const ,int>,_STL::_Select1st<_STL::pair<int const ,int> >,_STL::less<int>,_STL::allocator<_STL::pair<int const ,int> > >::_S_color
_TEXT	ENDS
PUBLIC	?_S_left@?$_Rb_tree@HU?$pair@$$CBHH@_STL@@U?$_Select1st@U?$pair@$$CBHH@_STL@@@2@U?$less@H@2@V?$allocator@U?$pair@$$CBHH@_STL@@@2@@_STL@@KAAAPAU?$_Rb_tree_node@U?$pair@$$CBHH@_STL@@@2@PAU32@@Z ; _STL::_Rb_tree<int,_STL::pair<int const ,int>,_STL::_Select1st<_STL::pair<int const ,int> >,_STL::less<int>,_STL::allocator<_STL::pair<int const ,int> > >::_S_left
; Function compile flags: /Ogsy
;	COMDAT ?_S_left@?$_Rb_tree@HU?$pair@$$CBHH@_STL@@U?$_Select1st@U?$pair@$$CBHH@_STL@@@2@U?$less@H@2@V?$allocator@U?$pair@$$CBHH@_STL@@@2@@_STL@@KAAAPAU?$_Rb_tree_node@U?$pair@$$CBHH@_STL@@@2@PAU32@@Z
_TEXT	SEGMENT
___x$ = 8						; size = 4
?_S_left@?$_Rb_tree@HU?$pair@$$CBHH@_STL@@U?$_Select1st@U?$pair@$$CBHH@_STL@@@2@U?$less@H@2@V?$allocator@U?$pair@$$CBHH@_STL@@@2@@_STL@@KAAAPAU?$_Rb_tree_node@U?$pair@$$CBHH@_STL@@@2@PAU32@@Z PROC NEAR ; _STL::_Rb_tree<int,_STL::pair<int const ,int>,_STL::_Select1st<_STL::pair<int const ,int> >,_STL::less<int>,_STL::allocator<_STL::pair<int const ,int> > >::_S_left, COMDAT

; 272  :     { return (_Link_type&)(__x->_M_left); }

  00000	8b 44 24 04	 mov	 eax, DWORD PTR ___x$[esp-4]
  00004	83 c0 08	 add	 eax, 8
  00007	c3		 ret	 0
?_S_left@?$_Rb_tree@HU?$pair@$$CBHH@_STL@@U?$_Select1st@U?$pair@$$CBHH@_STL@@@2@U?$less@H@2@V?$allocator@U?$pair@$$CBHH@_STL@@@2@@_STL@@KAAAPAU?$_Rb_tree_node@U?$pair@$$CBHH@_STL@@@2@PAU32@@Z ENDP ; _STL::_Rb_tree<int,_STL::pair<int const ,int>,_STL::_Select1st<_STL::pair<int const ,int> >,_STL::less<int>,_STL::allocator<_STL::pair<int const ,int> > >::_S_left
_TEXT	ENDS
PUBLIC	?_S_right@?$_Rb_tree@HU?$pair@$$CBHH@_STL@@U?$_Select1st@U?$pair@$$CBHH@_STL@@@2@U?$less@H@2@V?$allocator@U?$pair@$$CBHH@_STL@@@2@@_STL@@KAAAPAU?$_Rb_tree_node@U?$pair@$$CBHH@_STL@@@2@PAU32@@Z ; _STL::_Rb_tree<int,_STL::pair<int const ,int>,_STL::_Select1st<_STL::pair<int const ,int> >,_STL::less<int>,_STL::allocator<_STL::pair<int const ,int> > >::_S_right
; Function compile flags: /Ogsy
;	COMDAT ?_S_right@?$_Rb_tree@HU?$pair@$$CBHH@_STL@@U?$_Select1st@U?$pair@$$CBHH@_STL@@@2@U?$less@H@2@V?$allocator@U?$pair@$$CBHH@_STL@@@2@@_STL@@KAAAPAU?$_Rb_tree_node@U?$pair@$$CBHH@_STL@@@2@PAU32@@Z
_TEXT	SEGMENT
___x$ = 8						; size = 4
?_S_right@?$_Rb_tree@HU?$pair@$$CBHH@_STL@@U?$_Select1st@U?$pair@$$CBHH@_STL@@@2@U?$less@H@2@V?$allocator@U?$pair@$$CBHH@_STL@@@2@@_STL@@KAAAPAU?$_Rb_tree_node@U?$pair@$$CBHH@_STL@@@2@PAU32@@Z PROC NEAR ; _STL::_Rb_tree<int,_STL::pair<int const ,int>,_STL::_Select1st<_STL::pair<int const ,int> >,_STL::less<int>,_STL::allocator<_STL::pair<int const ,int> > >::_S_right, COMDAT

; 274  :     { return (_Link_type&)(__x->_M_right); }

  00000	8b 44 24 04	 mov	 eax, DWORD PTR ___x$[esp-4]
  00004	83 c0 0c	 add	 eax, 12			; 0000000cH
  00007	c3		 ret	 0
?_S_right@?$_Rb_tree@HU?$pair@$$CBHH@_STL@@U?$_Select1st@U?$pair@$$CBHH@_STL@@@2@U?$less@H@2@V?$allocator@U?$pair@$$CBHH@_STL@@@2@@_STL@@KAAAPAU?$_Rb_tree_node@U?$pair@$$CBHH@_STL@@@2@PAU32@@Z ENDP ; _STL::_Rb_tree<int,_STL::pair<int const ,int>,_STL::_Select1st<_STL::pair<int const ,int> >,_STL::less<int>,_STL::allocator<_STL::pair<int const ,int> > >::_S_right
_TEXT	ENDS
PUBLIC	??0?$allocator@U?$_Rb_tree_node@U?$pair@$$CBHH@_STL@@@_STL@@@_STL@@QAE@ABV01@@Z ; _STL::allocator<_STL::_Rb_tree_node<_STL::pair<int const ,int> > >::allocator<_STL::_Rb_tree_node<_STL::pair<int const ,int> > >
; Function compile flags: /Ogsy
; File c:\stlport-4.6.1\stlport\stl\_alloc.h
;	COMDAT ??0?$allocator@U?$_Rb_tree_node@U?$pair@$$CBHH@_STL@@@_STL@@@_STL@@QAE@ABV01@@Z
_TEXT	SEGMENT
___formal$ = 8						; size = 4
??0?$allocator@U?$_Rb_tree_node@U?$pair@$$CBHH@_STL@@@_STL@@@_STL@@QAE@ABV01@@Z PROC NEAR ; _STL::allocator<_STL::_Rb_tree_node<_STL::pair<int const ,int> > >::allocator<_STL::_Rb_tree_node<_STL::pair<int const ,int> > >, COMDAT
; _this$ = ecx

; 349  :   allocator(const allocator<_Tp>&) _STLP_NOTHROW {}

  00000	8b c1		 mov	 eax, ecx
  00002	c2 04 00	 ret	 4
??0?$allocator@U?$_Rb_tree_node@U?$pair@$$CBHH@_STL@@@_STL@@@_STL@@QAE@ABV01@@Z ENDP ; _STL::allocator<_STL::_Rb_tree_node<_STL::pair<int const ,int> > >::allocator<_STL::_Rb_tree_node<_STL::pair<int const ,int> > >
_TEXT	ENDS
PUBLIC	?_S_value@?$_Rb_tree@HU?$pair@$$CBHH@_STL@@U?$_Select1st@U?$pair@$$CBHH@_STL@@@2@U?$less@H@2@V?$allocator@U?$pair@$$CBHH@_STL@@@2@@_STL@@KAAAU?$pair@$$CBHH@2@PAU?$_Rb_tree_node@U?$pair@$$CBHH@_STL@@@2@@Z ; _STL::_Rb_tree<int,_STL::pair<int const ,int>,_STL::_Select1st<_STL::pair<int const ,int> >,_STL::less<int>,_STL::allocator<_STL::pair<int const ,int> > >::_S_value
; Function compile flags: /Ogsy
; File c:\stlport-4.6.1\stlport\stl\_tree.h
;	COMDAT ?_S_value@?$_Rb_tree@HU?$pair@$$CBHH@_STL@@U?$_Select1st@U?$pair@$$CBHH@_STL@@@2@U?$less@H@2@V?$allocator@U?$pair@$$CBHH@_STL@@@2@@_STL@@KAAAU?$pair@$$CBHH@2@PAU?$_Rb_tree_node@U?$pair@$$CBHH@_STL@@@2@@Z
_TEXT	SEGMENT
___x$ = 8						; size = 4
?_S_value@?$_Rb_tree@HU?$pair@$$CBHH@_STL@@U?$_Select1st@U?$pair@$$CBHH@_STL@@@2@U?$less@H@2@V?$allocator@U?$pair@$$CBHH@_STL@@@2@@_STL@@KAAAU?$pair@$$CBHH@2@PAU?$_Rb_tree_node@U?$pair@$$CBHH@_STL@@@2@@Z PROC NEAR ; _STL::_Rb_tree<int,_STL::pair<int const ,int>,_STL::_Select1st<_STL::pair<int const ,int> >,_STL::less<int>,_STL::allocator<_STL::pair<int const ,int> > >::_S_value, COMDAT

; 278  :     { return __x->_M_value_field; }

  00000	8b 44 24 04	 mov	 eax, DWORD PTR ___x$[esp-4]
  00004	83 c0 10	 add	 eax, 16			; 00000010H
  00007	c3		 ret	 0
?_S_value@?$_Rb_tree@HU?$pair@$$CBHH@_STL@@U?$_Select1st@U?$pair@$$CBHH@_STL@@@2@U?$less@H@2@V?$allocator@U?$pair@$$CBHH@_STL@@@2@@_STL@@KAAAU?$pair@$$CBHH@2@PAU?$_Rb_tree_node@U?$pair@$$CBHH@_STL@@@2@@Z ENDP ; _STL::_Rb_tree<int,_STL::pair<int const ,int>,_STL::_Select1st<_STL::pair<int const ,int> >,_STL::less<int>,_STL::allocator<_STL::pair<int const ,int> > >::_S_value
_TEXT	ENDS
PUBLIC	??R?$_Select1st@U?$pair@$$CBHH@_STL@@@_STL@@QBEABHABU?$pair@$$CBHH@1@@Z ; _STL::_Select1st<_STL::pair<int const ,int> >::operator()
; Function compile flags: /Ogsy
; File c:\stlport-4.6.1\stlport\stl\_function_base.h
;	COMDAT ??R?$_Select1st@U?$pair@$$CBHH@_STL@@@_STL@@QBEABHABU?$pair@$$CBHH@1@@Z
_TEXT	SEGMENT
___x$ = 8						; size = 4
??R?$_Select1st@U?$pair@$$CBHH@_STL@@@_STL@@QBEABHABU?$pair@$$CBHH@1@@Z PROC NEAR ; _STL::_Select1st<_STL::pair<int const ,int> >::operator(), COMDAT
; _this$ = ecx

; 153  :     return __x.first;

  00000	8b 44 24 04	 mov	 eax, DWORD PTR ___x$[esp-4]

; 154  :   }

  00004	c2 04 00	 ret	 4
??R?$_Select1st@U?$pair@$$CBHH@_STL@@@_STL@@QBEABHABU?$pair@$$CBHH@1@@Z ENDP ; _STL::_Select1st<_STL::pair<int const ,int> >::operator()
_TEXT	ENDS
PUBLIC	??$?0I@?$allocator@U?$_List_node@I@_STL@@@_STL@@QAE@ABV?$allocator@I@1@@Z ; _STL::allocator<_STL::_List_node<unsigned int> >::allocator<_STL::_List_node<unsigned int> ><unsigned int>
; Function compile flags: /Ogsy
; File c:\stlport-4.6.1\stlport\stl\_alloc.h
;	COMDAT ??$?0I@?$allocator@U?$_List_node@I@_STL@@@_STL@@QAE@ABV?$allocator@I@1@@Z
_TEXT	SEGMENT
___formal$ = 8						; size = 4
??$?0I@?$allocator@U?$_List_node@I@_STL@@@_STL@@QAE@ABV?$allocator@I@1@@Z PROC NEAR ; _STL::allocator<_STL::_List_node<unsigned int> >::allocator<_STL::_List_node<unsigned int> ><unsigned int>, COMDAT
; _this$ = ecx

; 347  :   template <class _Tp1> allocator(const allocator<_Tp1>&) _STLP_NOTHROW {}

  00000	8b c1		 mov	 eax, ecx
  00002	c2 04 00	 ret	 4
??$?0I@?$allocator@U?$_List_node@I@_STL@@@_STL@@QAE@ABV?$allocator@I@1@@Z ENDP ; _STL::allocator<_STL::_List_node<unsigned int> >::allocator<_STL::_List_node<unsigned int> ><unsigned int>
_TEXT	ENDS
PUBLIC	??$_Construct@II@_STL@@YAXPAIABI@Z		; _STL::_Construct<unsigned int,unsigned int>
; Function compile flags: /Ogsy
; File c:\stlport-4.6.1\stlport\stl\_construct.h
;	COMDAT ??$_Construct@II@_STL@@YAXPAIABI@Z
_TEXT	SEGMENT
___p$ = 8						; size = 4
___val$ = 12						; size = 4
??$_Construct@II@_STL@@YAXPAIABI@Z PROC NEAR		; _STL::_Construct<unsigned int,unsigned int>, COMDAT

; 94   : # ifdef _STLP_DEBUG_UNINITIALIZED
; 95   : 	memset((char*)__p, _STLP_SHRED_BYTE, sizeof(_T1));
; 96   : # endif
; 97   :     _STLP_PLACEMENT_NEW (__p) _T1(__val);

  00000	8b 44 24 04	 mov	 eax, DWORD PTR ___p$[esp-4]
  00004	85 c0		 test	 eax, eax
  00006	74 08		 je	 SHORT $L107370
  00008	8b 4c 24 08	 mov	 ecx, DWORD PTR ___val$[esp-4]
  0000c	8b 09		 mov	 ecx, DWORD PTR [ecx]
  0000e	89 08		 mov	 DWORD PTR [eax], ecx
$L107370:

; 98   : }

  00010	c3		 ret	 0
??$_Construct@II@_STL@@YAXPAIABI@Z ENDP			; _STL::_Construct<unsigned int,unsigned int>
_TEXT	ENDS
PUBLIC	??$?0U?$pair@$$CBHH@_STL@@@?$allocator@U?$_Rb_tree_node@U?$pair@$$CBHH@_STL@@@_STL@@@_STL@@QAE@ABV?$allocator@U?$pair@$$CBHH@_STL@@@1@@Z ; _STL::allocator<_STL::_Rb_tree_node<_STL::pair<int const ,int> > >::allocator<_STL::_Rb_tree_node<_STL::pair<int const ,int> > ><_STL::pair<int const ,int> >
; Function compile flags: /Ogsy
; File c:\stlport-4.6.1\stlport\stl\_alloc.h
;	COMDAT ??$?0U?$pair@$$CBHH@_STL@@@?$allocator@U?$_Rb_tree_node@U?$pair@$$CBHH@_STL@@@_STL@@@_STL@@QAE@ABV?$allocator@U?$pair@$$CBHH@_STL@@@1@@Z
_TEXT	SEGMENT
___formal$ = 8						; size = 4
??$?0U?$pair@$$CBHH@_STL@@@?$allocator@U?$_Rb_tree_node@U?$pair@$$CBHH@_STL@@@_STL@@@_STL@@QAE@ABV?$allocator@U?$pair@$$CBHH@_STL@@@1@@Z PROC NEAR ; _STL::allocator<_STL::_Rb_tree_node<_STL::pair<int const ,int> > >::allocator<_STL::_Rb_tree_node<_STL::pair<int const ,int> > ><_STL::pair<int const ,int> >, COMDAT
; _this$ = ecx

; 347  :   template <class _Tp1> allocator(const allocator<_Tp1>&) _STLP_NOTHROW {}

  00000	8b c1		 mov	 eax, ecx
  00002	c2 04 00	 ret	 4
??$?0U?$pair@$$CBHH@_STL@@@?$allocator@U?$_Rb_tree_node@U?$pair@$$CBHH@_STL@@@_STL@@@_STL@@QAE@ABV?$allocator@U?$pair@$$CBHH@_STL@@@1@@Z ENDP ; _STL::allocator<_STL::_Rb_tree_node<_STL::pair<int const ,int> > >::allocator<_STL::_Rb_tree_node<_STL::pair<int const ,int> > ><_STL::pair<int const ,int> >
_TEXT	ENDS
PUBLIC	?rdbuf@?$basic_ios@DV?$char_traits@D@_STL@@@_STL@@QBEPAV?$basic_streambuf@DV?$char_traits@D@_STL@@@2@XZ ; _STL::basic_ios<char,_STL::char_traits<char> >::rdbuf
; Function compile flags: /Ogsy
; File c:\stlport-4.6.1\stlport\stl\_ios.h
;	COMDAT ?rdbuf@?$basic_ios@DV?$char_traits@D@_STL@@@_STL@@QBEPAV?$basic_streambuf@DV?$char_traits@D@_STL@@@2@XZ
_TEXT	SEGMENT
?rdbuf@?$basic_ios@DV?$char_traits@D@_STL@@@_STL@@QBEPAV?$basic_streambuf@DV?$char_traits@D@_STL@@@2@XZ PROC NEAR ; _STL::basic_ios<char,_STL::char_traits<char> >::rdbuf, COMDAT
; _this$ = ecx

; 72   :     { return _M_streambuf; }

  00000	8b 41 58	 mov	 eax, DWORD PTR [ecx+88]
  00003	c3		 ret	 0
?rdbuf@?$basic_ios@DV?$char_traits@D@_STL@@@_STL@@QBEPAV?$basic_streambuf@DV?$char_traits@D@_STL@@@2@XZ ENDP ; _STL::basic_ios<char,_STL::char_traits<char> >::rdbuf
_TEXT	ENDS
PUBLIC	?_S_right@?$_Rb_tree@HU?$pair@$$CBHH@_STL@@U?$_Select1st@U?$pair@$$CBHH@_STL@@@2@U?$less@H@2@V?$allocator@U?$pair@$$CBHH@_STL@@@2@@_STL@@KAAAPAU?$_Rb_tree_node@U?$pair@$$CBHH@_STL@@@2@PAU_Rb_tree_node_base@2@@Z ; _STL::_Rb_tree<int,_STL::pair<int const ,int>,_STL::_Select1st<_STL::pair<int const ,int> >,_STL::less<int>,_STL::allocator<_STL::pair<int const ,int> > >::_S_right
; Function compile flags: /Ogsy
; File c:\stlport-4.6.1\stlport\stl\_tree.h
;	COMDAT ?_S_right@?$_Rb_tree@HU?$pair@$$CBHH@_STL@@U?$_Select1st@U?$pair@$$CBHH@_STL@@@2@U?$less@H@2@V?$allocator@U?$pair@$$CBHH@_STL@@@2@@_STL@@KAAAPAU?$_Rb_tree_node@U?$pair@$$CBHH@_STL@@@2@PAU_Rb_tree_node_base@2@@Z
_TEXT	SEGMENT
___x$ = 8						; size = 4
?_S_right@?$_Rb_tree@HU?$pair@$$CBHH@_STL@@U?$_Select1st@U?$pair@$$CBHH@_STL@@@2@U?$less@H@2@V?$allocator@U?$pair@$$CBHH@_STL@@@2@@_STL@@KAAAPAU?$_Rb_tree_node@U?$pair@$$CBHH@_STL@@@2@PAU_Rb_tree_node_base@2@@Z PROC NEAR ; _STL::_Rb_tree<int,_STL::pair<int const ,int>,_STL::_Select1st<_STL::pair<int const ,int> >,_STL::less<int>,_STL::allocator<_STL::pair<int const ,int> > >::_S_right, COMDAT

; 287  :     { return (_Link_type&)(__x->_M_right); }

  00000	8b 44 24 04	 mov	 eax, DWORD PTR ___x$[esp-4]
  00004	83 c0 0c	 add	 eax, 12			; 0000000cH
  00007	c3		 ret	 0
?_S_right@?$_Rb_tree@HU?$pair@$$CBHH@_STL@@U?$_Select1st@U?$pair@$$CBHH@_STL@@@2@U?$less@H@2@V?$allocator@U?$pair@$$CBHH@_STL@@@2@@_STL@@KAAAPAU?$_Rb_tree_node@U?$pair@$$CBHH@_STL@@@2@PAU_Rb_tree_node_base@2@@Z ENDP ; _STL::_Rb_tree<int,_STL::pair<int const ,int>,_STL::_Select1st<_STL::pair<int const ,int> >,_STL::less<int>,_STL::allocator<_STL::pair<int const ,int> > >::_S_right
_TEXT	ENDS
PUBLIC	?_S_key@?$_Rb_tree@HU?$pair@$$CBHH@_STL@@U?$_Select1st@U?$pair@$$CBHH@_STL@@@2@U?$less@H@2@V?$allocator@U?$pair@$$CBHH@_STL@@@2@@_STL@@KAABHPAU_Rb_tree_node_base@2@@Z ; _STL::_Rb_tree<int,_STL::pair<int const ,int>,_STL::_Select1st<_STL::pair<int const ,int> >,_STL::less<int>,_STL::allocator<_STL::pair<int const ,int> > >::_S_key
; Function compile flags: /Ogsy
;	COMDAT ?_S_key@?$_Rb_tree@HU?$pair@$$CBHH@_STL@@U?$_Select1st@U?$pair@$$CBHH@_STL@@@2@U?$less@H@2@V?$allocator@U?$pair@$$CBHH@_STL@@@2@@_STL@@KAABHPAU_Rb_tree_node_base@2@@Z
_TEXT	SEGMENT
___x$ = 8						; size = 4
?_S_key@?$_Rb_tree@HU?$pair@$$CBHH@_STL@@U?$_Select1st@U?$pair@$$CBHH@_STL@@@2@U?$less@H@2@V?$allocator@U?$pair@$$CBHH@_STL@@@2@@_STL@@KAABHPAU_Rb_tree_node_base@2@@Z PROC NEAR ; _STL::_Rb_tree<int,_STL::pair<int const ,int>,_STL::_Select1st<_STL::pair<int const ,int> >,_STL::less<int>,_STL::allocator<_STL::pair<int const ,int> > >::_S_key, COMDAT

; 293  :     { return _KeyOfValue()(_S_value(_Link_type(__x)));} 

  00000	8b 44 24 04	 mov	 eax, DWORD PTR ___x$[esp-4]
  00004	83 c0 10	 add	 eax, 16			; 00000010H
  00007	c3		 ret	 0
?_S_key@?$_Rb_tree@HU?$pair@$$CBHH@_STL@@U?$_Select1st@U?$pair@$$CBHH@_STL@@@2@U?$less@H@2@V?$allocator@U?$pair@$$CBHH@_STL@@@2@@_STL@@KAABHPAU_Rb_tree_node_base@2@@Z ENDP ; _STL::_Rb_tree<int,_STL::pair<int const ,int>,_STL::_Select1st<_STL::pair<int const ,int> >,_STL::less<int>,_STL::allocator<_STL::pair<int const ,int> > >::_S_key
_TEXT	ENDS
PUBLIC	?size@?$_Rb_tree@HU?$pair@$$CBHH@_STL@@U?$_Select1st@U?$pair@$$CBHH@_STL@@@2@U?$less@H@2@V?$allocator@U?$pair@$$CBHH@_STL@@@2@@_STL@@QBEIXZ ; _STL::_Rb_tree<int,_STL::pair<int const ,int>,_STL::_Select1st<_STL::pair<int const ,int> >,_STL::less<int>,_STL::allocator<_STL::pair<int const ,int> > >::size
; Function compile flags: /Ogsy
;	COMDAT ?size@?$_Rb_tree@HU?$pair@$$CBHH@_STL@@U?$_Select1st@U?$pair@$$CBHH@_STL@@@2@U?$less@H@2@V?$allocator@U?$pair@$$CBHH@_STL@@@2@@_STL@@QBEIXZ
_TEXT	SEGMENT
?size@?$_Rb_tree@HU?$pair@$$CBHH@_STL@@U?$_Select1st@U?$pair@$$CBHH@_STL@@@2@U?$less@H@2@V?$allocator@U?$pair@$$CBHH@_STL@@@2@@_STL@@QBEIXZ PROC NEAR ; _STL::_Rb_tree<int,_STL::pair<int const ,int>,_STL::_Select1st<_STL::pair<int const ,int> >,_STL::less<int>,_STL::allocator<_STL::pair<int const ,int> > >::size, COMDAT
; _this$ = ecx

; 371  :   size_type size() const { return _M_node_count; }

  00000	8b 41 04	 mov	 eax, DWORD PTR [ecx+4]
  00003	c3		 ret	 0
?size@?$_Rb_tree@HU?$pair@$$CBHH@_STL@@U?$_Select1st@U?$pair@$$CBHH@_STL@@@2@U?$less@H@2@V?$allocator@U?$pair@$$CBHH@_STL@@@2@@_STL@@QBEIXZ ENDP ; _STL::_Rb_tree<int,_STL::pair<int const ,int>,_STL::_Select1st<_STL::pair<int const ,int> >,_STL::less<int>,_STL::allocator<_STL::pair<int const ,int> > >::size
_TEXT	ENDS
PUBLIC	??E?$_Rb_tree_iterator@U?$pair@$$CBHH@_STL@@U?$_Nonconst_traits@U?$pair@$$CBHH@_STL@@@2@@_STL@@QAEAAU01@XZ ; _STL::_Rb_tree_iterator<_STL::pair<int const ,int>,_STL::_Nonconst_traits<_STL::pair<int const ,int> > >::operator++
EXTRN	?_M_increment@?$_Rb_global@_N@_STL@@SAPAU_Rb_tree_node_base@2@PAU32@@Z:NEAR ; _STL::_Rb_global<bool>::_M_increment
; Function compile flags: /Ogsy
;	COMDAT ??E?$_Rb_tree_iterator@U?$pair@$$CBHH@_STL@@U?$_Nonconst_traits@U?$pair@$$CBHH@_STL@@@2@@_STL@@QAEAAU01@XZ
_TEXT	SEGMENT
??E?$_Rb_tree_iterator@U?$pair@$$CBHH@_STL@@U?$_Nonconst_traits@U?$pair@$$CBHH@_STL@@@2@@_STL@@QAEAAU01@XZ PROC NEAR ; _STL::_Rb_tree_iterator<_STL::pair<int const ,int>,_STL::_Nonconst_traits<_STL::pair<int const ,int> > >::operator++, COMDAT
; _this$ = ecx

; 174  :   _Self& operator++() { _M_node = _Rb_global_inst::_M_increment(_M_node); return *this; }

  00000	56		 push	 esi
  00001	8b f1		 mov	 esi, ecx
  00003	ff 36		 push	 DWORD PTR [esi]
  00005	e8 00 00 00 00	 call	 ?_M_increment@?$_Rb_global@_N@_STL@@SAPAU_Rb_tree_node_base@2@PAU32@@Z ; _STL::_Rb_global<bool>::_M_increment
  0000a	89 06		 mov	 DWORD PTR [esi], eax
  0000c	59		 pop	 ecx
  0000d	8b c6		 mov	 eax, esi
  0000f	5e		 pop	 esi
  00010	c3		 ret	 0
??E?$_Rb_tree_iterator@U?$pair@$$CBHH@_STL@@U?$_Nonconst_traits@U?$pair@$$CBHH@_STL@@@2@@_STL@@QAEAAU01@XZ ENDP ; _STL::_Rb_tree_iterator<_STL::pair<int const ,int>,_STL::_Nonconst_traits<_STL::pair<int const ,int> > >::operator++
_TEXT	ENDS
PUBLIC	??F?$_Rb_tree_iterator@U?$pair@$$CBHH@_STL@@U?$_Nonconst_traits@U?$pair@$$CBHH@_STL@@@2@@_STL@@QAEAAU01@XZ ; _STL::_Rb_tree_iterator<_STL::pair<int const ,int>,_STL::_Nonconst_traits<_STL::pair<int const ,int> > >::operator--
EXTRN	?_M_decrement@?$_Rb_global@_N@_STL@@SAPAU_Rb_tree_node_base@2@PAU32@@Z:NEAR ; _STL::_Rb_global<bool>::_M_decrement
; Function compile flags: /Ogsy
;	COMDAT ??F?$_Rb_tree_iterator@U?$pair@$$CBHH@_STL@@U?$_Nonconst_traits@U?$pair@$$CBHH@_STL@@@2@@_STL@@QAEAAU01@XZ
_TEXT	SEGMENT
??F?$_Rb_tree_iterator@U?$pair@$$CBHH@_STL@@U?$_Nonconst_traits@U?$pair@$$CBHH@_STL@@@2@@_STL@@QAEAAU01@XZ PROC NEAR ; _STL::_Rb_tree_iterator<_STL::pair<int const ,int>,_STL::_Nonconst_traits<_STL::pair<int const ,int> > >::operator--, COMDAT
; _this$ = ecx

; 181  :   _Self& operator--() { _M_node = _Rb_global_inst::_M_decrement(_M_node); return *this; }

  00000	56		 push	 esi
  00001	8b f1		 mov	 esi, ecx
  00003	ff 36		 push	 DWORD PTR [esi]
  00005	e8 00 00 00 00	 call	 ?_M_decrement@?$_Rb_global@_N@_STL@@SAPAU_Rb_tree_node_base@2@PAU32@@Z ; _STL::_Rb_global<bool>::_M_decrement
  0000a	89 06		 mov	 DWORD PTR [esi], eax
  0000c	59		 pop	 ecx
  0000d	8b c6		 mov	 eax, esi
  0000f	5e		 pop	 esi
  00010	c3		 ret	 0
??F?$_Rb_tree_iterator@U?$pair@$$CBHH@_STL@@U?$_Nonconst_traits@U?$pair@$$CBHH@_STL@@@2@@_STL@@QAEAAU01@XZ ENDP ; _STL::_Rb_tree_iterator<_STL::pair<int const ,int>,_STL::_Nonconst_traits<_STL::pair<int const ,int> > >::operator--
_TEXT	ENDS
PUBLIC	??0_List_iterator_base@_STL@@QAE@PAU_List_node_base@1@@Z ; _STL::_List_iterator_base::_List_iterator_base
; Function compile flags: /Ogsy
; File c:\stlport-4.6.1\stlport\stl\_list.h
;	COMDAT ??0_List_iterator_base@_STL@@QAE@PAU_List_node_base@1@@Z
_TEXT	SEGMENT
___x$ = 8						; size = 4
??0_List_iterator_base@_STL@@QAE@PAU_List_node_base@1@@Z PROC NEAR ; _STL::_List_iterator_base::_List_iterator_base, COMDAT
; _this$ = ecx

; 95   :   _List_iterator_base(_List_node_base* __x) : _M_node(__x) {}

  00000	8b c1		 mov	 eax, ecx
  00002	8b 4c 24 04	 mov	 ecx, DWORD PTR ___x$[esp-4]
  00006	89 08		 mov	 DWORD PTR [eax], ecx
  00008	c2 04 00	 ret	 4
??0_List_iterator_base@_STL@@QAE@PAU_List_node_base@1@@Z ENDP ; _STL::_List_iterator_base::_List_iterator_base
_TEXT	ENDS
PUBLIC	?_M_incr@_List_iterator_base@_STL@@QAEXXZ	; _STL::_List_iterator_base::_M_incr
; Function compile flags: /Ogsy
;	COMDAT ?_M_incr@_List_iterator_base@_STL@@QAEXXZ
_TEXT	SEGMENT
?_M_incr@_List_iterator_base@_STL@@QAEXXZ PROC NEAR	; _STL::_List_iterator_base::_M_incr, COMDAT
; _this$ = ecx

; 98   :   void _M_incr() { _M_node = _M_node->_M_next; }

  00000	8b 01		 mov	 eax, DWORD PTR [ecx]
  00002	8b 00		 mov	 eax, DWORD PTR [eax]
  00004	89 01		 mov	 DWORD PTR [ecx], eax
  00006	c3		 ret	 0
?_M_incr@_List_iterator_base@_STL@@QAEXXZ ENDP		; _STL::_List_iterator_base::_M_incr
_TEXT	ENDS
PUBLIC	??Bsentry@?$basic_ostream@DV?$char_traits@D@_STL@@@_STL@@QBE_NXZ ; _STL::basic_ostream<char,_STL::char_traits<char> >::sentry::operator bool
; Function compile flags: /Ogsy
; File c:\stlport-4.6.1\stlport\stl\_ostream.h
;	COMDAT ??Bsentry@?$basic_ostream@DV?$char_traits@D@_STL@@@_STL@@QBE_NXZ
_TEXT	SEGMENT
??Bsentry@?$basic_ostream@DV?$char_traits@D@_STL@@@_STL@@QBE_NXZ PROC NEAR ; _STL::basic_ostream<char,_STL::char_traits<char> >::sentry::operator bool, COMDAT
; _this$ = ecx

; 176  :       operator bool() const { return _M_ok; }

  00000	8a 41 04	 mov	 al, BYTE PTR [ecx+4]
  00003	c3		 ret	 0
??Bsentry@?$basic_ostream@DV?$char_traits@D@_STL@@@_STL@@QBE_NXZ ENDP ; _STL::basic_ostream<char,_STL::char_traits<char> >::sentry::operator bool
_TEXT	ENDS
PUBLIC	??0?$_Rb_tree_iterator@U?$pair@$$CBIPAVNPC_INFO@@@_STL@@U?$_Nonconst_traits@U?$pair@$$CBIPAVNPC_INFO@@@_STL@@@2@@_STL@@QAE@ABU01@@Z ; _STL::_Rb_tree_iterator<_STL::pair<unsigned int const ,NPC_INFO *>,_STL::_Nonconst_traits<_STL::pair<unsigned int const ,NPC_INFO *> > >::_Rb_tree_iterator<_STL::pair<unsigned int const ,NPC_INFO *>,_STL::_Nonconst_traits<_STL::pair<unsigned int const ,NPC_INFO *> > >
; Function compile flags: /Ogsy
; File c:\stlport-4.6.1\stlport\stl\_tree.h
;	COMDAT ??0?$_Rb_tree_iterator@U?$pair@$$CBIPAVNPC_INFO@@@_STL@@U?$_Nonconst_traits@U?$pair@$$CBIPAVNPC_INFO@@@_STL@@@2@@_STL@@QAE@ABU01@@Z
_TEXT	SEGMENT
___it$ = 8						; size = 4
??0?$_Rb_tree_iterator@U?$pair@$$CBIPAVNPC_INFO@@@_STL@@U?$_Nonconst_traits@U?$pair@$$CBIPAVNPC_INFO@@@_STL@@@2@@_STL@@QAE@ABU01@@Z PROC NEAR ; _STL::_Rb_tree_iterator<_STL::pair<unsigned int const ,NPC_INFO *>,_STL::_Nonconst_traits<_STL::pair<unsigned int const ,NPC_INFO *> > >::_Rb_tree_iterator<_STL::pair<unsigned int const ,NPC_INFO *>,_STL::_Nonconst_traits<_STL::pair<unsigned int const ,NPC_INFO *> > >, COMDAT
; _this$ = ecx

; 165  :   _Rb_tree_iterator(const _Rb_tree_iterator<_Value, 

  00000	8b c1		 mov	 eax, ecx
  00002	8b 4c 24 04	 mov	 ecx, DWORD PTR ___it$[esp-4]
  00006	8b 09		 mov	 ecx, DWORD PTR [ecx]
  00008	89 08		 mov	 DWORD PTR [eax], ecx

; 166  :                     _Nonconst_traits<_Value> >& __it) { _M_node = __it._M_node; }

  0000a	c2 04 00	 ret	 4
??0?$_Rb_tree_iterator@U?$pair@$$CBIPAVNPC_INFO@@@_STL@@U?$_Nonconst_traits@U?$pair@$$CBIPAVNPC_INFO@@@_STL@@@2@@_STL@@QAE@ABU01@@Z ENDP ; _STL::_Rb_tree_iterator<_STL::pair<unsigned int const ,NPC_INFO *>,_STL::_Nonconst_traits<_STL::pair<unsigned int const ,NPC_INFO *> > >::_Rb_tree_iterator<_STL::pair<unsigned int const ,NPC_INFO *>,_STL::_Nonconst_traits<_STL::pair<unsigned int const ,NPC_INFO *> > >
_TEXT	ENDS
PUBLIC	??D?$_Rb_tree_iterator@U?$pair@$$CBIPAVNPC_INFO@@@_STL@@U?$_Nonconst_traits@U?$pair@$$CBIPAVNPC_INFO@@@_STL@@@2@@_STL@@QBEAAU?$pair@$$CBIPAVNPC_INFO@@@1@XZ ; _STL::_Rb_tree_iterator<_STL::pair<unsigned int const ,NPC_INFO *>,_STL::_Nonconst_traits<_STL::pair<unsigned int const ,NPC_INFO *> > >::operator*
; Function compile flags: /Ogsy
;	COMDAT ??D?$_Rb_tree_iterator@U?$pair@$$CBIPAVNPC_INFO@@@_STL@@U?$_Nonconst_traits@U?$pair@$$CBIPAVNPC_INFO@@@_STL@@@2@@_STL@@QBEAAU?$pair@$$CBIPAVNPC_INFO@@@1@XZ
_TEXT	SEGMENT
??D?$_Rb_tree_iterator@U?$pair@$$CBIPAVNPC_INFO@@@_STL@@U?$_Nonconst_traits@U?$pair@$$CBIPAVNPC_INFO@@@_STL@@@2@@_STL@@QBEAAU?$pair@$$CBIPAVNPC_INFO@@@1@XZ PROC NEAR ; _STL::_Rb_tree_iterator<_STL::pair<unsigned int const ,NPC_INFO *>,_STL::_Nonconst_traits<_STL::pair<unsigned int const ,NPC_INFO *> > >::operator*, COMDAT
; _this$ = ecx

; 169  :     return _Link_type(_M_node)->_M_value_field; 

  00000	8b 01		 mov	 eax, DWORD PTR [ecx]
  00002	83 c0 10	 add	 eax, 16			; 00000010H

; 170  :   }

  00005	c3		 ret	 0
??D?$_Rb_tree_iterator@U?$pair@$$CBIPAVNPC_INFO@@@_STL@@U?$_Nonconst_traits@U?$pair@$$CBIPAVNPC_INFO@@@_STL@@@2@@_STL@@QBEAAU?$pair@$$CBIPAVNPC_INFO@@@1@XZ ENDP ; _STL::_Rb_tree_iterator<_STL::pair<unsigned int const ,NPC_INFO *>,_STL::_Nonconst_traits<_STL::pair<unsigned int const ,NPC_INFO *> > >::operator*
_TEXT	ENDS
PUBLIC	??9_List_iterator_base@_STL@@QBE_NABU01@@Z	; _STL::_List_iterator_base::operator!=
; Function compile flags: /Ogsy
; File c:\stlport-4.6.1\stlport\stl\_list.h
;	COMDAT ??9_List_iterator_base@_STL@@QBE_NABU01@@Z
_TEXT	SEGMENT
___y$ = 8						; size = 4
??9_List_iterator_base@_STL@@QBE_NABU01@@Z PROC NEAR	; _STL::_List_iterator_base::operator!=, COMDAT
; _this$ = ecx

; 104  :     return _M_node != __y._M_node; 

  00000	8b 01		 mov	 eax, DWORD PTR [ecx]
  00002	8b 54 24 04	 mov	 edx, DWORD PTR ___y$[esp-4]
  00006	33 c9		 xor	 ecx, ecx
  00008	3b 02		 cmp	 eax, DWORD PTR [edx]
  0000a	0f 95 c1	 setne	 cl
  0000d	8a c1		 mov	 al, cl

; 105  :   }

  0000f	c2 04 00	 ret	 4
??9_List_iterator_base@_STL@@QBE_NABU01@@Z ENDP		; _STL::_List_iterator_base::operator!=
_TEXT	ENDS
PUBLIC	??E?$_Rb_tree_iterator@U?$pair@$$CBIPAVNPC_INFO@@@_STL@@U?$_Nonconst_traits@U?$pair@$$CBIPAVNPC_INFO@@@_STL@@@2@@_STL@@QAE?AU01@H@Z ; _STL::_Rb_tree_iterator<_STL::pair<unsigned int const ,NPC_INFO *>,_STL::_Nonconst_traits<_STL::pair<unsigned int const ,NPC_INFO *> > >::operator++
; Function compile flags: /Ogsy
; File c:\stlport-4.6.1\stlport\stl\_tree.h
;	COMDAT ??E?$_Rb_tree_iterator@U?$pair@$$CBIPAVNPC_INFO@@@_STL@@U?$_Nonconst_traits@U?$pair@$$CBIPAVNPC_INFO@@@_STL@@@2@@_STL@@QAE?AU01@H@Z
_TEXT	SEGMENT
___$ReturnUdt$ = 8					; size = 4
___formal$ = 12						; size = 4
??E?$_Rb_tree_iterator@U?$pair@$$CBIPAVNPC_INFO@@@_STL@@U?$_Nonconst_traits@U?$pair@$$CBIPAVNPC_INFO@@@_STL@@@2@@_STL@@QAE?AU01@H@Z PROC NEAR ; _STL::_Rb_tree_iterator<_STL::pair<unsigned int const ,NPC_INFO *>,_STL::_Nonconst_traits<_STL::pair<unsigned int const ,NPC_INFO *> > >::operator++, COMDAT
; _this$ = ecx

; 175  :   _Self operator++(int) {

  00000	56		 push	 esi
  00001	8b f1		 mov	 esi, ecx
  00003	57		 push	 edi

; 176  :     _Self __tmp = *this;

  00004	8b 3e		 mov	 edi, DWORD PTR [esi]

; 177  :     _M_node = _Rb_global_inst::_M_increment(_M_node);

  00006	57		 push	 edi
  00007	e8 00 00 00 00	 call	 ?_M_increment@?$_Rb_global@_N@_STL@@SAPAU_Rb_tree_node_base@2@PAU32@@Z ; _STL::_Rb_global<bool>::_M_increment
  0000c	89 06		 mov	 DWORD PTR [esi], eax

; 178  :     return __tmp;

  0000e	8b 44 24 10	 mov	 eax, DWORD PTR ___$ReturnUdt$[esp+8]
  00012	59		 pop	 ecx
  00013	89 38		 mov	 DWORD PTR [eax], edi
  00015	5f		 pop	 edi
  00016	5e		 pop	 esi

; 179  :   }

  00017	c2 08 00	 ret	 8
??E?$_Rb_tree_iterator@U?$pair@$$CBIPAVNPC_INFO@@@_STL@@U?$_Nonconst_traits@U?$pair@$$CBIPAVNPC_INFO@@@_STL@@@2@@_STL@@QAE?AU01@H@Z ENDP ; _STL::_Rb_tree_iterator<_STL::pair<unsigned int const ,NPC_INFO *>,_STL::_Nonconst_traits<_STL::pair<unsigned int const ,NPC_INFO *> > >::operator++
_TEXT	ENDS
PUBLIC	?clear@?$basic_ios@DV?$char_traits@D@_STL@@@_STL@@QAEXH@Z ; _STL::basic_ios<char,_STL::char_traits<char> >::clear
; Function compile flags: /Ogsy
; File c:\stlport-4.6.1\stlport\stl\_ios.h
;	COMDAT ?clear@?$basic_ios@DV?$char_traits@D@_STL@@@_STL@@QAEXH@Z
_TEXT	SEGMENT
___state$ = 8						; size = 4
?clear@?$basic_ios@DV?$char_traits@D@_STL@@@_STL@@QAEXH@Z PROC NEAR ; _STL::basic_ios<char,_STL::char_traits<char> >::clear, COMDAT
; _this$ = ecx

; 91   :     _M_clear_nothrow(this->rdbuf() ? __state : iostate(__state|ios_base::badbit));

  00000	83 79 58 00	 cmp	 DWORD PTR [ecx+88], 0
  00004	8b 44 24 04	 mov	 eax, DWORD PTR ___state$[esp-4]
  00008	75 03		 jne	 SHORT $L107434
  0000a	83 c8 01	 or	 eax, 1
$L107434:

; 92   :     _M_check_exception_mask();

  0000d	85 41 14	 test	 DWORD PTR [ecx+20], eax
  00010	89 41 08	 mov	 DWORD PTR [ecx+8], eax
  00013	74 05		 je	 SHORT $L107445
  00015	e8 00 00 00 00	 call	 ?_M_throw_failure@ios_base@_STL@@IAEXXZ ; _STL::ios_base::_M_throw_failure
$L107445:

; 93   :   }

  0001a	c2 04 00	 ret	 4
?clear@?$basic_ios@DV?$char_traits@D@_STL@@@_STL@@QAEXH@Z ENDP ; _STL::basic_ios<char,_STL::char_traits<char> >::clear
_TEXT	ENDS
PUBLIC	??0?$allocator@U?$pair@$$CBIPAVNPC_INFO@@@_STL@@@_STL@@QAE@XZ ; _STL::allocator<_STL::pair<unsigned int const ,NPC_INFO *> >::allocator<_STL::pair<unsigned int const ,NPC_INFO *> >
; Function compile flags: /Ogsy
; File c:\stlport-4.6.1\stlport\stl\_alloc.h
;	COMDAT ??0?$allocator@U?$pair@$$CBIPAVNPC_INFO@@@_STL@@@_STL@@QAE@XZ
_TEXT	SEGMENT
??0?$allocator@U?$pair@$$CBIPAVNPC_INFO@@@_STL@@@_STL@@QAE@XZ PROC NEAR ; _STL::allocator<_STL::pair<unsigned int const ,NPC_INFO *> >::allocator<_STL::pair<unsigned int const ,NPC_INFO *> >, COMDAT
; _this$ = ecx

; 345  :   allocator() _STLP_NOTHROW {}

  00000	8b c1		 mov	 eax, ecx
  00002	c3		 ret	 0
??0?$allocator@U?$pair@$$CBIPAVNPC_INFO@@@_STL@@@_STL@@QAE@XZ ENDP ; _STL::allocator<_STL::pair<unsigned int const ,NPC_INFO *> >::allocator<_STL::pair<unsigned int const ,NPC_INFO *> >
_TEXT	ENDS
PUBLIC	??1?$allocator@U?$pair@$$CBIPAVNPC_INFO@@@_STL@@@_STL@@QAE@XZ ; _STL::allocator<_STL::pair<unsigned int const ,NPC_INFO *> >::~allocator<_STL::pair<unsigned int const ,NPC_INFO *> >
; Function compile flags: /Ogsy
;	COMDAT ??1?$allocator@U?$pair@$$CBIPAVNPC_INFO@@@_STL@@@_STL@@QAE@XZ
_TEXT	SEGMENT
??1?$allocator@U?$pair@$$CBIPAVNPC_INFO@@@_STL@@@_STL@@QAE@XZ PROC NEAR ; _STL::allocator<_STL::pair<unsigned int const ,NPC_INFO *> >::~allocator<_STL::pair<unsigned int const ,NPC_INFO *> >, COMDAT
; _this$ = ecx

; 350  :   ~allocator() _STLP_NOTHROW {}

  00000	c3		 ret	 0
??1?$allocator@U?$pair@$$CBIPAVNPC_INFO@@@_STL@@@_STL@@QAE@XZ ENDP ; _STL::allocator<_STL::pair<unsigned int const ,NPC_INFO *> >::~allocator<_STL::pair<unsigned int const ,NPC_INFO *> >
_TEXT	ENDS
PUBLIC	??0?$allocator@U?$pair@$$CBIPAVSERVERNPC_INFO@@@_STL@@@_STL@@QAE@XZ ; _STL::allocator<_STL::pair<unsigned int const ,SERVERNPC_INFO *> >::allocator<_STL::pair<unsigned int const ,SERVERNPC_INFO *> >
; Function compile flags: /Ogsy
;	COMDAT ??0?$allocator@U?$pair@$$CBIPAVSERVERNPC_INFO@@@_STL@@@_STL@@QAE@XZ
_TEXT	SEGMENT
??0?$allocator@U?$pair@$$CBIPAVSERVERNPC_INFO@@@_STL@@@_STL@@QAE@XZ PROC NEAR ; _STL::allocator<_STL::pair<unsigned int const ,SERVERNPC_INFO *> >::allocator<_STL::pair<unsigned int const ,SERVERNPC_INFO *> >, COMDAT
; _this$ = ecx

; 345  :   allocator() _STLP_NOTHROW {}

  00000	8b c1		 mov	 eax, ecx
  00002	c3		 ret	 0
??0?$allocator@U?$pair@$$CBIPAVSERVERNPC_INFO@@@_STL@@@_STL@@QAE@XZ ENDP ; _STL::allocator<_STL::pair<unsigned int const ,SERVERNPC_INFO *> >::allocator<_STL::pair<unsigned int const ,SERVERNPC_INFO *> >
_TEXT	ENDS
PUBLIC	??1?$allocator@U?$pair@$$CBIPAVSERVERNPC_INFO@@@_STL@@@_STL@@QAE@XZ ; _STL::allocator<_STL::pair<unsigned int const ,SERVERNPC_INFO *> >::~allocator<_STL::pair<unsigned int const ,SERVERNPC_INFO *> >
; Function compile flags: /Ogsy
;	COMDAT ??1?$allocator@U?$pair@$$CBIPAVSERVERNPC_INFO@@@_STL@@@_STL@@QAE@XZ
_TEXT	SEGMENT
??1?$allocator@U?$pair@$$CBIPAVSERVERNPC_INFO@@@_STL@@@_STL@@QAE@XZ PROC NEAR ; _STL::allocator<_STL::pair<unsigned int const ,SERVERNPC_INFO *> >::~allocator<_STL::pair<unsigned int const ,SERVERNPC_INFO *> >, COMDAT
; _this$ = ecx

; 350  :   ~allocator() _STLP_NOTHROW {}

  00000	c3		 ret	 0
??1?$allocator@U?$pair@$$CBIPAVSERVERNPC_INFO@@@_STL@@@_STL@@QAE@XZ ENDP ; _STL::allocator<_STL::pair<unsigned int const ,SERVERNPC_INFO *> >::~allocator<_STL::pair<unsigned int const ,SERVERNPC_INFO *> >
_TEXT	ENDS
PUBLIC	?_M_root@?$_Rb_tree@IU?$pair@$$CBIPAVNPC_INFO@@@_STL@@U?$_Select1st@U?$pair@$$CBIPAVNPC_INFO@@@_STL@@@2@U?$less@I@2@V?$allocator@U?$pair@$$CBIPAVNPC_INFO@@@_STL@@@2@@_STL@@IBEAAPAU?$_Rb_tree_node@U?$pair@$$CBIPAVNPC_INFO@@@_STL@@@2@XZ ; _STL::_Rb_tree<unsigned int,_STL::pair<unsigned int const ,NPC_INFO *>,_STL::_Select1st<_STL::pair<unsigned int const ,NPC_INFO *> >,_STL::less<unsigned int>,_STL::allocator<_STL::pair<unsigned int const ,NPC_INFO *> > >::_M_root
; Function compile flags: /Ogsy
; File c:\stlport-4.6.1\stlport\stl\_tree.h
;	COMDAT ?_M_root@?$_Rb_tree@IU?$pair@$$CBIPAVNPC_INFO@@@_STL@@U?$_Select1st@U?$pair@$$CBIPAVNPC_INFO@@@_STL@@@2@U?$less@I@2@V?$allocator@U?$pair@$$CBIPAVNPC_INFO@@@_STL@@@2@@_STL@@IBEAAPAU?$_Rb_tree_node@U?$pair@$$CBIPAVNPC_INFO@@@_STL@@@2@XZ
_TEXT	SEGMENT
?_M_root@?$_Rb_tree@IU?$pair@$$CBIPAVNPC_INFO@@@_STL@@U?$_Select1st@U?$pair@$$CBIPAVNPC_INFO@@@_STL@@@2@U?$less@I@2@V?$allocator@U?$pair@$$CBIPAVNPC_INFO@@@_STL@@@2@@_STL@@IBEAAPAU?$_Rb_tree_node@U?$pair@$$CBIPAVNPC_INFO@@@_STL@@@2@XZ PROC NEAR ; _STL::_Rb_tree<unsigned int,_STL::pair<unsigned int const ,NPC_INFO *>,_STL::_Select1st<_STL::pair<unsigned int const ,NPC_INFO *> >,_STL::less<unsigned int>,_STL::allocator<_STL::pair<unsigned int const ,NPC_INFO *> > >::_M_root, COMDAT
; _this$ = ecx

; 265  :     { return (_Link_type&) this->_M_header._M_data->_M_parent; }

  00000	8b 01		 mov	 eax, DWORD PTR [ecx]
  00002	83 c0 04	 add	 eax, 4
  00005	c3		 ret	 0
?_M_root@?$_Rb_tree@IU?$pair@$$CBIPAVNPC_INFO@@@_STL@@U?$_Select1st@U?$pair@$$CBIPAVNPC_INFO@@@_STL@@@2@U?$less@I@2@V?$allocator@U?$pair@$$CBIPAVNPC_INFO@@@_STL@@@2@@_STL@@IBEAAPAU?$_Rb_tree_node@U?$pair@$$CBIPAVNPC_INFO@@@_STL@@@2@XZ ENDP ; _STL::_Rb_tree<unsigned int,_STL::pair<unsigned int const ,NPC_INFO *>,_STL::_Select1st<_STL::pair<unsigned int const ,NPC_INFO *> >,_STL::less<unsigned int>,_STL::allocator<_STL::pair<unsigned int const ,NPC_INFO *> > >::_M_root
_TEXT	ENDS
PUBLIC	?_M_leftmost@?$_Rb_tree@IU?$pair@$$CBIPAVNPC_INFO@@@_STL@@U?$_Select1st@U?$pair@$$CBIPAVNPC_INFO@@@_STL@@@2@U?$less@I@2@V?$allocator@U?$pair@$$CBIPAVNPC_INFO@@@_STL@@@2@@_STL@@IBEAAPAU?$_Rb_tree_node@U?$pair@$$CBIPAVNPC_INFO@@@_STL@@@2@XZ ; _STL::_Rb_tree<unsigned int,_STL::pair<unsigned int const ,NPC_INFO *>,_STL::_Select1st<_STL::pair<unsigned int const ,NPC_INFO *> >,_STL::less<unsigned int>,_STL::allocator<_STL::pair<unsigned int const ,NPC_INFO *> > >::_M_leftmost
; Function compile flags: /Ogsy
;	COMDAT ?_M_leftmost@?$_Rb_tree@IU?$pair@$$CBIPAVNPC_INFO@@@_STL@@U?$_Select1st@U?$pair@$$CBIPAVNPC_INFO@@@_STL@@@2@U?$less@I@2@V?$allocator@U?$pair@$$CBIPAVNPC_INFO@@@_STL@@@2@@_STL@@IBEAAPAU?$_Rb_tree_node@U?$pair@$$CBIPAVNPC_INFO@@@_STL@@@2@XZ
_TEXT	SEGMENT
?_M_leftmost@?$_Rb_tree@IU?$pair@$$CBIPAVNPC_INFO@@@_STL@@U?$_Select1st@U?$pair@$$CBIPAVNPC_INFO@@@_STL@@@2@U?$less@I@2@V?$allocator@U?$pair@$$CBIPAVNPC_INFO@@@_STL@@@2@@_STL@@IBEAAPAU?$_Rb_tree_node@U?$pair@$$CBIPAVNPC_INFO@@@_STL@@@2@XZ PROC NEAR ; _STL::_Rb_tree<unsigned int,_STL::pair<unsigned int const ,NPC_INFO *>,_STL::_Select1st<_STL::pair<unsigned int const ,NPC_INFO *> >,_STL::less<unsigned int>,_STL::allocator<_STL::pair<unsigned int const ,NPC_INFO *> > >::_M_leftmost, COMDAT
; _this$ = ecx

; 267  :     { return (_Link_type&) this->_M_header._M_data->_M_left; }

  00000	8b 01		 mov	 eax, DWORD PTR [ecx]
  00002	83 c0 08	 add	 eax, 8
  00005	c3		 ret	 0
?_M_leftmost@?$_Rb_tree@IU?$pair@$$CBIPAVNPC_INFO@@@_STL@@U?$_Select1st@U?$pair@$$CBIPAVNPC_INFO@@@_STL@@@2@U?$less@I@2@V?$allocator@U?$pair@$$CBIPAVNPC_INFO@@@_STL@@@2@@_STL@@IBEAAPAU?$_Rb_tree_node@U?$pair@$$CBIPAVNPC_INFO@@@_STL@@@2@XZ ENDP ; _STL::_Rb_tree<unsigned int,_STL::pair<unsigned int const ,NPC_INFO *>,_STL::_Select1st<_STL::pair<unsigned int const ,NPC_INFO *> >,_STL::less<unsigned int>,_STL::allocator<_STL::pair<unsigned int const ,NPC_INFO *> > >::_M_leftmost
_TEXT	ENDS
PUBLIC	?_M_rightmost@?$_Rb_tree@IU?$pair@$$CBIPAVNPC_INFO@@@_STL@@U?$_Select1st@U?$pair@$$CBIPAVNPC_INFO@@@_STL@@@2@U?$less@I@2@V?$allocator@U?$pair@$$CBIPAVNPC_INFO@@@_STL@@@2@@_STL@@IBEAAPAU?$_Rb_tree_node@U?$pair@$$CBIPAVNPC_INFO@@@_STL@@@2@XZ ; _STL::_Rb_tree<unsigned int,_STL::pair<unsigned int const ,NPC_INFO *>,_STL::_Select1st<_STL::pair<unsigned int const ,NPC_INFO *> >,_STL::less<unsigned int>,_STL::allocator<_STL::pair<unsigned int const ,NPC_INFO *> > >::_M_rightmost
; Function compile flags: /Ogsy
;	COMDAT ?_M_rightmost@?$_Rb_tree@IU?$pair@$$CBIPAVNPC_INFO@@@_STL@@U?$_Select1st@U?$pair@$$CBIPAVNPC_INFO@@@_STL@@@2@U?$less@I@2@V?$allocator@U?$pair@$$CBIPAVNPC_INFO@@@_STL@@@2@@_STL@@IBEAAPAU?$_Rb_tree_node@U?$pair@$$CBIPAVNPC_INFO@@@_STL@@@2@XZ
_TEXT	SEGMENT
?_M_rightmost@?$_Rb_tree@IU?$pair@$$CBIPAVNPC_INFO@@@_STL@@U?$_Select1st@U?$pair@$$CBIPAVNPC_INFO@@@_STL@@@2@U?$less@I@2@V?$allocator@U?$pair@$$CBIPAVNPC_INFO@@@_STL@@@2@@_STL@@IBEAAPAU?$_Rb_tree_node@U?$pair@$$CBIPAVNPC_INFO@@@_STL@@@2@XZ PROC NEAR ; _STL::_Rb_tree<unsigned int,_STL::pair<unsigned int const ,NPC_INFO *>,_STL::_Select1st<_STL::pair<unsigned int const ,NPC_INFO *> >,_STL::less<unsigned int>,_STL::allocator<_STL::pair<unsigned int const ,NPC_INFO *> > >::_M_rightmost, COMDAT
; _this$ = ecx

; 269  :     { return (_Link_type&) this->_M_header._M_data->_M_right; }

  00000	8b 01		 mov	 eax, DWORD PTR [ecx]
  00002	83 c0 0c	 add	 eax, 12			; 0000000cH
  00005	c3		 ret	 0
?_M_rightmost@?$_Rb_tree@IU?$pair@$$CBIPAVNPC_INFO@@@_STL@@U?$_Select1st@U?$pair@$$CBIPAVNPC_INFO@@@_STL@@@2@U?$less@I@2@V?$allocator@U?$pair@$$CBIPAVNPC_INFO@@@_STL@@@2@@_STL@@IBEAAPAU?$_Rb_tree_node@U?$pair@$$CBIPAVNPC_INFO@@@_STL@@@2@XZ ENDP ; _STL::_Rb_tree<unsigned int,_STL::pair<unsigned int const ,NPC_INFO *>,_STL::_Select1st<_STL::pair<unsigned int const ,NPC_INFO *> >,_STL::less<unsigned int>,_STL::allocator<_STL::pair<unsigned int const ,NPC_INFO *> > >::_M_rightmost
_TEXT	ENDS
PUBLIC	??1?$allocator@U?$_Rb_tree_node@U?$pair@$$CBIPAVNPC_INFO@@@_STL@@@_STL@@@_STL@@QAE@XZ ; _STL::allocator<_STL::_Rb_tree_node<_STL::pair<unsigned int const ,NPC_INFO *> > >::~allocator<_STL::_Rb_tree_node<_STL::pair<unsigned int const ,NPC_INFO *> > >
; Function compile flags: /Ogsy
; File c:\stlport-4.6.1\stlport\stl\_alloc.h
;	COMDAT ??1?$allocator@U?$_Rb_tree_node@U?$pair@$$CBIPAVNPC_INFO@@@_STL@@@_STL@@@_STL@@QAE@XZ
_TEXT	SEGMENT
??1?$allocator@U?$_Rb_tree_node@U?$pair@$$CBIPAVNPC_INFO@@@_STL@@@_STL@@@_STL@@QAE@XZ PROC NEAR ; _STL::allocator<_STL::_Rb_tree_node<_STL::pair<unsigned int const ,NPC_INFO *> > >::~allocator<_STL::_Rb_tree_node<_STL::pair<unsigned int const ,NPC_INFO *> > >, COMDAT
; _this$ = ecx

; 350  :   ~allocator() _STLP_NOTHROW {}

  00000	c3		 ret	 0
??1?$allocator@U?$_Rb_tree_node@U?$pair@$$CBIPAVNPC_INFO@@@_STL@@@_STL@@@_STL@@QAE@XZ ENDP ; _STL::allocator<_STL::_Rb_tree_node<_STL::pair<unsigned int const ,NPC_INFO *> > >::~allocator<_STL::_Rb_tree_node<_STL::pair<unsigned int const ,NPC_INFO *> > >
_TEXT	ENDS
PUBLIC	?_M_root@?$_Rb_tree@IU?$pair@$$CBIPAVSERVERNPC_INFO@@@_STL@@U?$_Select1st@U?$pair@$$CBIPAVSERVERNPC_INFO@@@_STL@@@2@U?$less@I@2@V?$allocator@U?$pair@$$CBIPAVSERVERNPC_INFO@@@_STL@@@2@@_STL@@IBEAAPAU?$_Rb_tree_node@U?$pair@$$CBIPAVSERVERNPC_INFO@@@_STL@@@2@XZ ; _STL::_Rb_tree<unsigned int,_STL::pair<unsigned int const ,SERVERNPC_INFO *>,_STL::_Select1st<_STL::pair<unsigned int const ,SERVERNPC_INFO *> >,_STL::less<unsigned int>,_STL::allocator<_STL::pair<unsigned int const ,SERVERNPC_INFO *> > >::_M_root
; Function compile flags: /Ogsy
; File c:\stlport-4.6.1\stlport\stl\_tree.h
;	COMDAT ?_M_root@?$_Rb_tree@IU?$pair@$$CBIPAVSERVERNPC_INFO@@@_STL@@U?$_Select1st@U?$pair@$$CBIPAVSERVERNPC_INFO@@@_STL@@@2@U?$less@I@2@V?$allocator@U?$pair@$$CBIPAVSERVERNPC_INFO@@@_STL@@@2@@_STL@@IBEAAPAU?$_Rb_tree_node@U?$pair@$$CBIPAVSERVERNPC_INFO@@@_STL@@@2@XZ
_TEXT	SEGMENT
?_M_root@?$_Rb_tree@IU?$pair@$$CBIPAVSERVERNPC_INFO@@@_STL@@U?$_Select1st@U?$pair@$$CBIPAVSERVERNPC_INFO@@@_STL@@@2@U?$less@I@2@V?$allocator@U?$pair@$$CBIPAVSERVERNPC_INFO@@@_STL@@@2@@_STL@@IBEAAPAU?$_Rb_tree_node@U?$pair@$$CBIPAVSERVERNPC_INFO@@@_STL@@@2@XZ PROC NEAR ; _STL::_Rb_tree<unsigned int,_STL::pair<unsigned int const ,SERVERNPC_INFO *>,_STL::_Select1st<_STL::pair<unsigned int const ,SERVERNPC_INFO *> >,_STL::less<unsigned int>,_STL::allocator<_STL::pair<unsigned int const ,SERVERNPC_INFO *> > >::_M_root, COMDAT
; _this$ = ecx

; 265  :     { return (_Link_type&) this->_M_header._M_data->_M_parent; }

  00000	8b 01		 mov	 eax, DWORD PTR [ecx]
  00002	83 c0 04	 add	 eax, 4
  00005	c3		 ret	 0
?_M_root@?$_Rb_tree@IU?$pair@$$CBIPAVSERVERNPC_INFO@@@_STL@@U?$_Select1st@U?$pair@$$CBIPAVSERVERNPC_INFO@@@_STL@@@2@U?$less@I@2@V?$allocator@U?$pair@$$CBIPAVSERVERNPC_INFO@@@_STL@@@2@@_STL@@IBEAAPAU?$_Rb_tree_node@U?$pair@$$CBIPAVSERVERNPC_INFO@@@_STL@@@2@XZ ENDP ; _STL::_Rb_tree<unsigned int,_STL::pair<unsigned int const ,SERVERNPC_INFO *>,_STL::_Select1st<_STL::pair<unsigned int const ,SERVERNPC_INFO *> >,_STL::less<unsigned int>,_STL::allocator<_STL::pair<unsigned int const ,SERVERNPC_INFO *> > >::_M_root
_TEXT	ENDS
PUBLIC	?_M_rightmost@?$_Rb_tree@IU?$pair@$$CBIPAVSERVERNPC_INFO@@@_STL@@U?$_Select1st@U?$pair@$$CBIPAVSERVERNPC_INFO@@@_STL@@@2@U?$less@I@2@V?$allocator@U?$pair@$$CBIPAVSERVERNPC_INFO@@@_STL@@@2@@_STL@@IBEAAPAU?$_Rb_tree_node@U?$pair@$$CBIPAVSERVERNPC_INFO@@@_STL@@@2@XZ ; _STL::_Rb_tree<unsigned int,_STL::pair<unsigned int const ,SERVERNPC_INFO *>,_STL::_Select1st<_STL::pair<unsigned int const ,SERVERNPC_INFO *> >,_STL::less<unsigned int>,_STL::allocator<_STL::pair<unsigned int const ,SERVERNPC_INFO *> > >::_M_rightmost
; Function compile flags: /Ogsy
;	COMDAT ?_M_rightmost@?$_Rb_tree@IU?$pair@$$CBIPAVSERVERNPC_INFO@@@_STL@@U?$_Select1st@U?$pair@$$CBIPAVSERVERNPC_INFO@@@_STL@@@2@U?$less@I@2@V?$allocator@U?$pair@$$CBIPAVSERVERNPC_INFO@@@_STL@@@2@@_STL@@IBEAAPAU?$_Rb_tree_node@U?$pair@$$CBIPAVSERVERNPC_INFO@@@_STL@@@2@XZ
_TEXT	SEGMENT
?_M_rightmost@?$_Rb_tree@IU?$pair@$$CBIPAVSERVERNPC_INFO@@@_STL@@U?$_Select1st@U?$pair@$$CBIPAVSERVERNPC_INFO@@@_STL@@@2@U?$less@I@2@V?$allocator@U?$pair@$$CBIPAVSERVERNPC_INFO@@@_STL@@@2@@_STL@@IBEAAPAU?$_Rb_tree_node@U?$pair@$$CBIPAVSERVERNPC_INFO@@@_STL@@@2@XZ PROC NEAR ; _STL::_Rb_tree<unsigned int,_STL::pair<unsigned int const ,SERVERNPC_INFO *>,_STL::_Select1st<_STL::pair<unsigned int const ,SERVERNPC_INFO *> >,_STL::less<unsigned int>,_STL::allocator<_STL::pair<unsigned int const ,SERVERNPC_INFO *> > >::_M_rightmost, COMDAT
; _this$ = ecx

; 269  :     { return (_Link_type&) this->_M_header._M_data->_M_right; }

  00000	8b 01		 mov	 eax, DWORD PTR [ecx]
  00002	83 c0 0c	 add	 eax, 12			; 0000000cH
  00005	c3		 ret	 0
?_M_rightmost@?$_Rb_tree@IU?$pair@$$CBIPAVSERVERNPC_INFO@@@_STL@@U?$_Select1st@U?$pair@$$CBIPAVSERVERNPC_INFO@@@_STL@@@2@U?$less@I@2@V?$allocator@U?$pair@$$CBIPAVSERVERNPC_INFO@@@_STL@@@2@@_STL@@IBEAAPAU?$_Rb_tree_node@U?$pair@$$CBIPAVSERVERNPC_INFO@@@_STL@@@2@XZ ENDP ; _STL::_Rb_tree<unsigned int,_STL::pair<unsigned int const ,SERVERNPC_INFO *>,_STL::_Select1st<_STL::pair<unsigned int const ,SERVERNPC_INFO *> >,_STL::less<unsigned int>,_STL::allocator<_STL::pair<unsigned int const ,SERVERNPC_INFO *> > >::_M_rightmost
_TEXT	ENDS
PUBLIC	??1?$allocator@U?$_Rb_tree_node@U?$pair@$$CBIPAVSERVERNPC_INFO@@@_STL@@@_STL@@@_STL@@QAE@XZ ; _STL::allocator<_STL::_Rb_tree_node<_STL::pair<unsigned int const ,SERVERNPC_INFO *> > >::~allocator<_STL::_Rb_tree_node<_STL::pair<unsigned int const ,SERVERNPC_INFO *> > >
; Function compile flags: /Ogsy
; File c:\stlport-4.6.1\stlport\stl\_alloc.h
;	COMDAT ??1?$allocator@U?$_Rb_tree_node@U?$pair@$$CBIPAVSERVERNPC_INFO@@@_STL@@@_STL@@@_STL@@QAE@XZ
_TEXT	SEGMENT
??1?$allocator@U?$_Rb_tree_node@U?$pair@$$CBIPAVSERVERNPC_INFO@@@_STL@@@_STL@@@_STL@@QAE@XZ PROC NEAR ; _STL::allocator<_STL::_Rb_tree_node<_STL::pair<unsigned int const ,SERVERNPC_INFO *> > >::~allocator<_STL::_Rb_tree_node<_STL::pair<unsigned int const ,SERVERNPC_INFO *> > >, COMDAT
; _this$ = ecx

; 350  :   ~allocator() _STLP_NOTHROW {}

  00000	c3		 ret	 0
??1?$allocator@U?$_Rb_tree_node@U?$pair@$$CBIPAVSERVERNPC_INFO@@@_STL@@@_STL@@@_STL@@QAE@XZ ENDP ; _STL::allocator<_STL::_Rb_tree_node<_STL::pair<unsigned int const ,SERVERNPC_INFO *> > >::~allocator<_STL::_Rb_tree_node<_STL::pair<unsigned int const ,SERVERNPC_INFO *> > >
_TEXT	ENDS
PUBLIC	??0?$_Rb_tree_iterator@U?$pair@$$CBIPAVNPC_INFO@@@_STL@@U?$_Nonconst_traits@U?$pair@$$CBIPAVNPC_INFO@@@_STL@@@2@@_STL@@QAE@PAU?$_Rb_tree_node@U?$pair@$$CBIPAVNPC_INFO@@@_STL@@@1@@Z ; _STL::_Rb_tree_iterator<_STL::pair<unsigned int const ,NPC_INFO *>,_STL::_Nonconst_traits<_STL::pair<unsigned int const ,NPC_INFO *> > >::_Rb_tree_iterator<_STL::pair<unsigned int const ,NPC_INFO *>,_STL::_Nonconst_traits<_STL::pair<unsigned int const ,NPC_INFO *> > >
; Function compile flags: /Ogsy
; File c:\stlport-4.6.1\stlport\stl\_tree.h
;	COMDAT ??0?$_Rb_tree_iterator@U?$pair@$$CBIPAVNPC_INFO@@@_STL@@U?$_Nonconst_traits@U?$pair@$$CBIPAVNPC_INFO@@@_STL@@@2@@_STL@@QAE@PAU?$_Rb_tree_node@U?$pair@$$CBIPAVNPC_INFO@@@_STL@@@1@@Z
_TEXT	SEGMENT
___x$ = 8						; size = 4
??0?$_Rb_tree_iterator@U?$pair@$$CBIPAVNPC_INFO@@@_STL@@U?$_Nonconst_traits@U?$pair@$$CBIPAVNPC_INFO@@@_STL@@@2@@_STL@@QAE@PAU?$_Rb_tree_node@U?$pair@$$CBIPAVNPC_INFO@@@_STL@@@1@@Z PROC NEAR ; _STL::_Rb_tree_iterator<_STL::pair<unsigned int const ,NPC_INFO *>,_STL::_Nonconst_traits<_STL::pair<unsigned int const ,NPC_INFO *> > >::_Rb_tree_iterator<_STL::pair<unsigned int const ,NPC_INFO *>,_STL::_Nonconst_traits<_STL::pair<unsigned int const ,NPC_INFO *> > >, COMDAT
; _this$ = ecx

; 164  :   _Rb_tree_iterator(_Link_type __x) { _M_node = __x; }

  00000	8b c1		 mov	 eax, ecx
  00002	8b 4c 24 04	 mov	 ecx, DWORD PTR ___x$[esp-4]
  00006	89 08		 mov	 DWORD PTR [eax], ecx
  00008	c2 04 00	 ret	 4
??0?$_Rb_tree_iterator@U?$pair@$$CBIPAVNPC_INFO@@@_STL@@U?$_Nonconst_traits@U?$pair@$$CBIPAVNPC_INFO@@@_STL@@@2@@_STL@@QAE@PAU?$_Rb_tree_node@U?$pair@$$CBIPAVNPC_INFO@@@_STL@@@1@@Z ENDP ; _STL::_Rb_tree_iterator<_STL::pair<unsigned int const ,NPC_INFO *>,_STL::_Nonconst_traits<_STL::pair<unsigned int const ,NPC_INFO *> > >::_Rb_tree_iterator<_STL::pair<unsigned int const ,NPC_INFO *>,_STL::_Nonconst_traits<_STL::pair<unsigned int const ,NPC_INFO *> > >
_TEXT	ENDS
PUBLIC	?_S_color@?$_Rb_tree@IU?$pair@$$CBIPAVNPC_INFO@@@_STL@@U?$_Select1st@U?$pair@$$CBIPAVNPC_INFO@@@_STL@@@2@U?$less@I@2@V?$allocator@U?$pair@$$CBIPAVNPC_INFO@@@_STL@@@2@@_STL@@KAAA_NPAU?$_Rb_tree_node@U?$pair@$$CBIPAVNPC_INFO@@@_STL@@@2@@Z ; _STL::_Rb_tree<unsigned int,_STL::pair<unsigned int const ,NPC_INFO *>,_STL::_Select1st<_STL::pair<unsigned int const ,NPC_INFO *> >,_STL::less<unsigned int>,_STL::allocator<_STL::pair<unsigned int const ,NPC_INFO *> > >::_S_color
; Function compile flags: /Ogsy
;	COMDAT ?_S_color@?$_Rb_tree@IU?$pair@$$CBIPAVNPC_INFO@@@_STL@@U?$_Select1st@U?$pair@$$CBIPAVNPC_INFO@@@_STL@@@2@U?$less@I@2@V?$allocator@U?$pair@$$CBIPAVNPC_INFO@@@_STL@@@2@@_STL@@KAAA_NPAU?$_Rb_tree_node@U?$pair@$$CBIPAVNPC_INFO@@@_STL@@@2@@Z
_TEXT	SEGMENT
___x$ = 8						; size = 4
?_S_color@?$_Rb_tree@IU?$pair@$$CBIPAVNPC_INFO@@@_STL@@U?$_Select1st@U?$pair@$$CBIPAVNPC_INFO@@@_STL@@@2@U?$less@I@2@V?$allocator@U?$pair@$$CBIPAVNPC_INFO@@@_STL@@@2@@_STL@@KAAA_NPAU?$_Rb_tree_node@U?$pair@$$CBIPAVNPC_INFO@@@_STL@@@2@@Z PROC NEAR ; _STL::_Rb_tree<unsigned int,_STL::pair<unsigned int const ,NPC_INFO *>,_STL::_Select1st<_STL::pair<unsigned int const ,NPC_INFO *> >,_STL::less<unsigned int>,_STL::allocator<_STL::pair<unsigned int const ,NPC_INFO *> > >::_S_color, COMDAT

; 282  :     { return (_Color_type&)(__x->_M_color); }

  00000	8b 44 24 04	 mov	 eax, DWORD PTR ___x$[esp-4]
  00004	c3		 ret	 0
?_S_color@?$_Rb_tree@IU?$pair@$$CBIPAVNPC_INFO@@@_STL@@U?$_Select1st@U?$pair@$$CBIPAVNPC_INFO@@@_STL@@@2@U?$less@I@2@V?$allocator@U?$pair@$$CBIPAVNPC_INFO@@@_STL@@@2@@_STL@@KAAA_NPAU?$_Rb_tree_node@U?$pair@$$CBIPAVNPC_INFO@@@_STL@@@2@@Z ENDP ; _STL::_Rb_tree<unsigned int,_STL::pair<unsigned int const ,NPC_INFO *>,_STL::_Select1st<_STL::pair<unsigned int const ,NPC_INFO *> >,_STL::less<unsigned int>,_STL::allocator<_STL::pair<unsigned int const ,NPC_INFO *> > >::_S_color
_TEXT	ENDS
PUBLIC	?_S_color@?$_Rb_tree@IU?$pair@$$CBIPAVSERVERNPC_INFO@@@_STL@@U?$_Select1st@U?$pair@$$CBIPAVSERVERNPC_INFO@@@_STL@@@2@U?$less@I@2@V?$allocator@U?$pair@$$CBIPAVSERVERNPC_INFO@@@_STL@@@2@@_STL@@KAAA_NPAU?$_Rb_tree_node@U?$pair@$$CBIPAVSERVERNPC_INFO@@@_STL@@@2@@Z ; _STL::_Rb_tree<unsigned int,_STL::pair<unsigned int const ,SERVERNPC_INFO *>,_STL::_Select1st<_STL::pair<unsigned int const ,SERVERNPC_INFO *> >,_STL::less<unsigned int>,_STL::allocator<_STL::pair<unsigned int const ,SERVERNPC_INFO *> > >::_S_color
; Function compile flags: /Ogsy
;	COMDAT ?_S_color@?$_Rb_tree@IU?$pair@$$CBIPAVSERVERNPC_INFO@@@_STL@@U?$_Select1st@U?$pair@$$CBIPAVSERVERNPC_INFO@@@_STL@@@2@U?$less@I@2@V?$allocator@U?$pair@$$CBIPAVSERVERNPC_INFO@@@_STL@@@2@@_STL@@KAAA_NPAU?$_Rb_tree_node@U?$pair@$$CBIPAVSERVERNPC_INFO@@@_STL@@@2@@Z
_TEXT	SEGMENT
___x$ = 8						; size = 4
?_S_color@?$_Rb_tree@IU?$pair@$$CBIPAVSERVERNPC_INFO@@@_STL@@U?$_Select1st@U?$pair@$$CBIPAVSERVERNPC_INFO@@@_STL@@@2@U?$less@I@2@V?$allocator@U?$pair@$$CBIPAVSERVERNPC_INFO@@@_STL@@@2@@_STL@@KAAA_NPAU?$_Rb_tree_node@U?$pair@$$CBIPAVSERVERNPC_INFO@@@_STL@@@2@@Z PROC NEAR ; _STL::_Rb_tree<unsigned int,_STL::pair<unsigned int const ,SERVERNPC_INFO *>,_STL::_Select1st<_STL::pair<unsigned int const ,SERVERNPC_INFO *> >,_STL::less<unsigned int>,_STL::allocator<_STL::pair<unsigned int const ,SERVERNPC_INFO *> > >::_S_color, COMDAT

; 282  :     { return (_Color_type&)(__x->_M_color); }

  00000	8b 44 24 04	 mov	 eax, DWORD PTR ___x$[esp-4]
  00004	c3		 ret	 0
?_S_color@?$_Rb_tree@IU?$pair@$$CBIPAVSERVERNPC_INFO@@@_STL@@U?$_Select1st@U?$pair@$$CBIPAVSERVERNPC_INFO@@@_STL@@@2@U?$less@I@2@V?$allocator@U?$pair@$$CBIPAVSERVERNPC_INFO@@@_STL@@@2@@_STL@@KAAA_NPAU?$_Rb_tree_node@U?$pair@$$CBIPAVSERVERNPC_INFO@@@_STL@@@2@@Z ENDP ; _STL::_Rb_tree<unsigned int,_STL::pair<unsigned int const ,SERVERNPC_INFO *>,_STL::_Select1st<_STL::pair<unsigned int const ,SERVERNPC_INFO *> >,_STL::less<unsigned int>,_STL::allocator<_STL::pair<unsigned int const ,SERVERNPC_INFO *> > >::_S_color
_TEXT	ENDS
PUBLIC	??0?$allocator@U?$_Rb_tree_node@U?$pair@$$CBIPAVNPC_INFO@@@_STL@@@_STL@@@_STL@@QAE@ABV01@@Z ; _STL::allocator<_STL::_Rb_tree_node<_STL::pair<unsigned int const ,NPC_INFO *> > >::allocator<_STL::_Rb_tree_node<_STL::pair<unsigned int const ,NPC_INFO *> > >
; Function compile flags: /Ogsy
; File c:\stlport-4.6.1\stlport\stl\_alloc.h
;	COMDAT ??0?$allocator@U?$_Rb_tree_node@U?$pair@$$CBIPAVNPC_INFO@@@_STL@@@_STL@@@_STL@@QAE@ABV01@@Z
_TEXT	SEGMENT
___formal$ = 8						; size = 4
??0?$allocator@U?$_Rb_tree_node@U?$pair@$$CBIPAVNPC_INFO@@@_STL@@@_STL@@@_STL@@QAE@ABV01@@Z PROC NEAR ; _STL::allocator<_STL::_Rb_tree_node<_STL::pair<unsigned int const ,NPC_INFO *> > >::allocator<_STL::_Rb_tree_node<_STL::pair<unsigned int const ,NPC_INFO *> > >, COMDAT
; _this$ = ecx

; 349  :   allocator(const allocator<_Tp>&) _STLP_NOTHROW {}

  00000	8b c1		 mov	 eax, ecx
  00002	c2 04 00	 ret	 4
??0?$allocator@U?$_Rb_tree_node@U?$pair@$$CBIPAVNPC_INFO@@@_STL@@@_STL@@@_STL@@QAE@ABV01@@Z ENDP ; _STL::allocator<_STL::_Rb_tree_node<_STL::pair<unsigned int const ,NPC_INFO *> > >::allocator<_STL::_Rb_tree_node<_STL::pair<unsigned int const ,NPC_INFO *> > >
_TEXT	ENDS
PUBLIC	??0?$allocator@U?$_Rb_tree_node@U?$pair@$$CBIPAVSERVERNPC_INFO@@@_STL@@@_STL@@@_STL@@QAE@ABV01@@Z ; _STL::allocator<_STL::_Rb_tree_node<_STL::pair<unsigned int const ,SERVERNPC_INFO *> > >::allocator<_STL::_Rb_tree_node<_STL::pair<unsigned int const ,SERVERNPC_INFO *> > >
; Function compile flags: /Ogsy
;	COMDAT ??0?$allocator@U?$_Rb_tree_node@U?$pair@$$CBIPAVSERVERNPC_INFO@@@_STL@@@_STL@@@_STL@@QAE@ABV01@@Z
_TEXT	SEGMENT
___formal$ = 8						; size = 4
??0?$allocator@U?$_Rb_tree_node@U?$pair@$$CBIPAVSERVERNPC_INFO@@@_STL@@@_STL@@@_STL@@QAE@ABV01@@Z PROC NEAR ; _STL::allocator<_STL::_Rb_tree_node<_STL::pair<unsigned int const ,SERVERNPC_INFO *> > >::allocator<_STL::_Rb_tree_node<_STL::pair<unsigned int const ,SERVERNPC_INFO *> > >, COMDAT
; _this$ = ecx

; 349  :   allocator(const allocator<_Tp>&) _STLP_NOTHROW {}

  00000	8b c1		 mov	 eax, ecx
  00002	c2 04 00	 ret	 4
??0?$allocator@U?$_Rb_tree_node@U?$pair@$$CBIPAVSERVERNPC_INFO@@@_STL@@@_STL@@@_STL@@QAE@ABV01@@Z ENDP ; _STL::allocator<_STL::_Rb_tree_node<_STL::pair<unsigned int const ,SERVERNPC_INFO *> > >::allocator<_STL::_Rb_tree_node<_STL::pair<unsigned int const ,SERVERNPC_INFO *> > >
_TEXT	ENDS
PUBLIC	?_M_handle_exception@?$basic_ios@DV?$char_traits@D@_STL@@@_STL@@QAEXH@Z ; _STL::basic_ios<char,_STL::char_traits<char> >::_M_handle_exception
EXTRN	__CxxThrowException@8:NEAR
; Function compile flags: /Ogsy
; File c:\stlport-4.6.1\stlport\stl\_ios.c
;	COMDAT ?_M_handle_exception@?$basic_ios@DV?$char_traits@D@_STL@@@_STL@@QAEXH@Z
_TEXT	SEGMENT
___flag$ = 8						; size = 4
?_M_handle_exception@?$basic_ios@DV?$char_traits@D@_STL@@@_STL@@QAEXH@Z PROC NEAR ; _STL::basic_ios<char,_STL::char_traits<char> >::_M_handle_exception, COMDAT
; _this$ = ecx

; 118  :   this->_M_setstate_nothrow(__flag);

  00000	8b 44 24 04	 mov	 eax, DWORD PTR ___flag$[esp-4]
  00004	09 41 08	 or	 DWORD PTR [ecx+8], eax

; 119  :   if (this->_M_get_exception_mask() & __flag)

  00007	85 41 14	 test	 DWORD PTR [ecx+20], eax
  0000a	74 09		 je	 SHORT $L105932

; 120  :     _STLP_RETHROW;

  0000c	6a 00		 push	 0
  0000e	6a 00		 push	 0
  00010	e8 00 00 00 00	 call	 __CxxThrowException@8
$L107507:
$L105932:

; 121  : }

  00015	c2 04 00	 ret	 4
$L107506:
?_M_handle_exception@?$basic_ios@DV?$char_traits@D@_STL@@@_STL@@QAEXH@Z ENDP ; _STL::basic_ios<char,_STL::char_traits<char> >::_M_handle_exception
_TEXT	ENDS
PUBLIC	??$_Destroy@I@_STL@@YAXPAI@Z			; _STL::_Destroy<unsigned int>
; Function compile flags: /Ogsy
; File c:\stlport-4.6.1\stlport\stl\_construct.h
;	COMDAT ??$_Destroy@I@_STL@@YAXPAI@Z
_TEXT	SEGMENT
___pointer$ = 8						; size = 4
??$_Destroy@I@_STL@@YAXPAI@Z PROC NEAR			; _STL::_Destroy<unsigned int>, COMDAT

; 57   : # if _MSC_VER >= 1010
; 58   :   __pointer;
; 59   : # endif	// _MSC_VER >= 1000
; 60   : # ifdef _STLP_TRIVIAL_DESTRUCTOR_BUG
; 61   :   typedef typename __type_traits<_Tp>::has_trivial_destructor _Trivial_destructor;
; 62   :   __destroy_aux(__pointer, _Trivial_destructor());
; 63   : # else
; 64   : #  if ( defined (__BORLANDC__) && ( __BORLANDC__ < 0x500 ) )
; 65   :     __pointer->_Tp::~_Tp();
; 66   : #  else
; 67   :     __pointer->~_Tp();
; 68   : #  endif
; 69   : # endif
; 70   : # ifdef _STLP_DEBUG_UNINITIALIZED
; 71   : 	memset((char*)__pointer, _STLP_SHRED_BYTE, sizeof(_Tp));
; 72   : # endif
; 73   : }

  00000	c3		 ret	 0
??$_Destroy@I@_STL@@YAXPAI@Z ENDP			; _STL::_Destroy<unsigned int>
_TEXT	ENDS
PUBLIC	??$_Destroy@U?$pair@$$CBHH@_STL@@@_STL@@YAXPAU?$pair@$$CBHH@0@@Z ; _STL::_Destroy<_STL::pair<int const ,int> >
; Function compile flags: /Ogsy
;	COMDAT ??$_Destroy@U?$pair@$$CBHH@_STL@@@_STL@@YAXPAU?$pair@$$CBHH@0@@Z
_TEXT	SEGMENT
___pointer$ = 8						; size = 4
??$_Destroy@U?$pair@$$CBHH@_STL@@@_STL@@YAXPAU?$pair@$$CBHH@0@@Z PROC NEAR ; _STL::_Destroy<_STL::pair<int const ,int> >, COMDAT

; 57   : # if _MSC_VER >= 1010
; 58   :   __pointer;
; 59   : # endif	// _MSC_VER >= 1000
; 60   : # ifdef _STLP_TRIVIAL_DESTRUCTOR_BUG
; 61   :   typedef typename __type_traits<_Tp>::has_trivial_destructor _Trivial_destructor;
; 62   :   __destroy_aux(__pointer, _Trivial_destructor());
; 63   : # else
; 64   : #  if ( defined (__BORLANDC__) && ( __BORLANDC__ < 0x500 ) )
; 65   :     __pointer->_Tp::~_Tp();
; 66   : #  else
; 67   :     __pointer->~_Tp();
; 68   : #  endif
; 69   : # endif
; 70   : # ifdef _STLP_DEBUG_UNINITIALIZED
; 71   : 	memset((char*)__pointer, _STLP_SHRED_BYTE, sizeof(_Tp));
; 72   : # endif
; 73   : }

  00000	c3		 ret	 0
??$_Destroy@U?$pair@$$CBHH@_STL@@@_STL@@YAXPAU?$pair@$$CBHH@0@@Z ENDP ; _STL::_Destroy<_STL::pair<int const ,int> >
_TEXT	ENDS
PUBLIC	??$_Destroy@U?$pair@$$CBIPAVNPC_INFO@@@_STL@@@_STL@@YAXPAU?$pair@$$CBIPAVNPC_INFO@@@0@@Z ; _STL::_Destroy<_STL::pair<unsigned int const ,NPC_INFO *> >
; Function compile flags: /Ogsy
;	COMDAT ??$_Destroy@U?$pair@$$CBIPAVNPC_INFO@@@_STL@@@_STL@@YAXPAU?$pair@$$CBIPAVNPC_INFO@@@0@@Z
_TEXT	SEGMENT
___pointer$ = 8						; size = 4
??$_Destroy@U?$pair@$$CBIPAVNPC_INFO@@@_STL@@@_STL@@YAXPAU?$pair@$$CBIPAVNPC_INFO@@@0@@Z PROC NEAR ; _STL::_Destroy<_STL::pair<unsigned int const ,NPC_INFO *> >, COMDAT

; 57   : # if _MSC_VER >= 1010
; 58   :   __pointer;
; 59   : # endif	// _MSC_VER >= 1000
; 60   : # ifdef _STLP_TRIVIAL_DESTRUCTOR_BUG
; 61   :   typedef typename __type_traits<_Tp>::has_trivial_destructor _Trivial_destructor;
; 62   :   __destroy_aux(__pointer, _Trivial_destructor());
; 63   : # else
; 64   : #  if ( defined (__BORLANDC__) && ( __BORLANDC__ < 0x500 ) )
; 65   :     __pointer->_Tp::~_Tp();
; 66   : #  else
; 67   :     __pointer->~_Tp();
; 68   : #  endif
; 69   : # endif
; 70   : # ifdef _STLP_DEBUG_UNINITIALIZED
; 71   : 	memset((char*)__pointer, _STLP_SHRED_BYTE, sizeof(_Tp));
; 72   : # endif
; 73   : }

  00000	c3		 ret	 0
??$_Destroy@U?$pair@$$CBIPAVNPC_INFO@@@_STL@@@_STL@@YAXPAU?$pair@$$CBIPAVNPC_INFO@@@0@@Z ENDP ; _STL::_Destroy<_STL::pair<unsigned int const ,NPC_INFO *> >
_TEXT	ENDS
PUBLIC	??$_Destroy@U?$pair@$$CBIPAVSERVERNPC_INFO@@@_STL@@@_STL@@YAXPAU?$pair@$$CBIPAVSERVERNPC_INFO@@@0@@Z ; _STL::_Destroy<_STL::pair<unsigned int const ,SERVERNPC_INFO *> >
; Function compile flags: /Ogsy
;	COMDAT ??$_Destroy@U?$pair@$$CBIPAVSERVERNPC_INFO@@@_STL@@@_STL@@YAXPAU?$pair@$$CBIPAVSERVERNPC_INFO@@@0@@Z
_TEXT	SEGMENT
___pointer$ = 8						; size = 4
??$_Destroy@U?$pair@$$CBIPAVSERVERNPC_INFO@@@_STL@@@_STL@@YAXPAU?$pair@$$CBIPAVSERVERNPC_INFO@@@0@@Z PROC NEAR ; _STL::_Destroy<_STL::pair<unsigned int const ,SERVERNPC_INFO *> >, COMDAT

; 57   : # if _MSC_VER >= 1010
; 58   :   __pointer;
; 59   : # endif	// _MSC_VER >= 1000
; 60   : # ifdef _STLP_TRIVIAL_DESTRUCTOR_BUG
; 61   :   typedef typename __type_traits<_Tp>::has_trivial_destructor _Trivial_destructor;
; 62   :   __destroy_aux(__pointer, _Trivial_destructor());
; 63   : # else
; 64   : #  if ( defined (__BORLANDC__) && ( __BORLANDC__ < 0x500 ) )
; 65   :     __pointer->_Tp::~_Tp();
; 66   : #  else
; 67   :     __pointer->~_Tp();
; 68   : #  endif
; 69   : # endif
; 70   : # ifdef _STLP_DEBUG_UNINITIALIZED
; 71   : 	memset((char*)__pointer, _STLP_SHRED_BYTE, sizeof(_Tp));
; 72   : # endif
; 73   : }

  00000	c3		 ret	 0
??$_Destroy@U?$pair@$$CBIPAVSERVERNPC_INFO@@@_STL@@@_STL@@YAXPAU?$pair@$$CBIPAVSERVERNPC_INFO@@@0@@Z ENDP ; _STL::_Destroy<_STL::pair<unsigned int const ,SERVERNPC_INFO *> >
_TEXT	ENDS
PUBLIC	??$?0U?$pair@$$CBIPAVNPC_INFO@@@_STL@@@?$allocator@U?$_Rb_tree_node@U?$pair@$$CBIPAVNPC_INFO@@@_STL@@@_STL@@@_STL@@QAE@ABV?$allocator@U?$pair@$$CBIPAVNPC_INFO@@@_STL@@@1@@Z ; _STL::allocator<_STL::_Rb_tree_node<_STL::pair<unsigned int const ,NPC_INFO *> > >::allocator<_STL::_Rb_tree_node<_STL::pair<unsigned int const ,NPC_INFO *> > ><_STL::pair<unsigned int const ,NPC_INFO *> >
; Function compile flags: /Ogsy
; File c:\stlport-4.6.1\stlport\stl\_alloc.h
;	COMDAT ??$?0U?$pair@$$CBIPAVNPC_INFO@@@_STL@@@?$allocator@U?$_Rb_tree_node@U?$pair@$$CBIPAVNPC_INFO@@@_STL@@@_STL@@@_STL@@QAE@ABV?$allocator@U?$pair@$$CBIPAVNPC_INFO@@@_STL@@@1@@Z
_TEXT	SEGMENT
___formal$ = 8						; size = 4
??$?0U?$pair@$$CBIPAVNPC_INFO@@@_STL@@@?$allocator@U?$_Rb_tree_node@U?$pair@$$CBIPAVNPC_INFO@@@_STL@@@_STL@@@_STL@@QAE@ABV?$allocator@U?$pair@$$CBIPAVNPC_INFO@@@_STL@@@1@@Z PROC NEAR ; _STL::allocator<_STL::_Rb_tree_node<_STL::pair<unsigned int const ,NPC_INFO *> > >::allocator<_STL::_Rb_tree_node<_STL::pair<unsigned int const ,NPC_INFO *> > ><_STL::pair<unsigned int const ,NPC_INFO *> >, COMDAT
; _this$ = ecx

; 347  :   template <class _Tp1> allocator(const allocator<_Tp1>&) _STLP_NOTHROW {}

  00000	8b c1		 mov	 eax, ecx
  00002	c2 04 00	 ret	 4
??$?0U?$pair@$$CBIPAVNPC_INFO@@@_STL@@@?$allocator@U?$_Rb_tree_node@U?$pair@$$CBIPAVNPC_INFO@@@_STL@@@_STL@@@_STL@@QAE@ABV?$allocator@U?$pair@$$CBIPAVNPC_INFO@@@_STL@@@1@@Z ENDP ; _STL::allocator<_STL::_Rb_tree_node<_STL::pair<unsigned int const ,NPC_INFO *> > >::allocator<_STL::_Rb_tree_node<_STL::pair<unsigned int const ,NPC_INFO *> > ><_STL::pair<unsigned int const ,NPC_INFO *> >
_TEXT	ENDS
PUBLIC	??$?0U?$pair@$$CBIPAVSERVERNPC_INFO@@@_STL@@@?$allocator@U?$_Rb_tree_node@U?$pair@$$CBIPAVSERVERNPC_INFO@@@_STL@@@_STL@@@_STL@@QAE@ABV?$allocator@U?$pair@$$CBIPAVSERVERNPC_INFO@@@_STL@@@1@@Z ; _STL::allocator<_STL::_Rb_tree_node<_STL::pair<unsigned int const ,SERVERNPC_INFO *> > >::allocator<_STL::_Rb_tree_node<_STL::pair<unsigned int const ,SERVERNPC_INFO *> > ><_STL::pair<unsigned int const ,SERVERNPC_INFO *> >
; Function compile flags: /Ogsy
;	COMDAT ??$?0U?$pair@$$CBIPAVSERVERNPC_INFO@@@_STL@@@?$allocator@U?$_Rb_tree_node@U?$pair@$$CBIPAVSERVERNPC_INFO@@@_STL@@@_STL@@@_STL@@QAE@ABV?$allocator@U?$pair@$$CBIPAVSERVERNPC_INFO@@@_STL@@@1@@Z
_TEXT	SEGMENT
___formal$ = 8						; size = 4
??$?0U?$pair@$$CBIPAVSERVERNPC_INFO@@@_STL@@@?$allocator@U?$_Rb_tree_node@U?$pair@$$CBIPAVSERVERNPC_INFO@@@_STL@@@_STL@@@_STL@@QAE@ABV?$allocator@U?$pair@$$CBIPAVSERVERNPC_INFO@@@_STL@@@1@@Z PROC NEAR ; _STL::allocator<_STL::_Rb_tree_node<_STL::pair<unsigned int const ,SERVERNPC_INFO *> > >::allocator<_STL::_Rb_tree_node<_STL::pair<unsigned int const ,SERVERNPC_INFO *> > ><_STL::pair<unsigned int const ,SERVERNPC_INFO *> >, COMDAT
; _this$ = ecx

; 347  :   template <class _Tp1> allocator(const allocator<_Tp1>&) _STLP_NOTHROW {}

  00000	8b c1		 mov	 eax, ecx
  00002	c2 04 00	 ret	 4
??$?0U?$pair@$$CBIPAVSERVERNPC_INFO@@@_STL@@@?$allocator@U?$_Rb_tree_node@U?$pair@$$CBIPAVSERVERNPC_INFO@@@_STL@@@_STL@@@_STL@@QAE@ABV?$allocator@U?$pair@$$CBIPAVSERVERNPC_INFO@@@_STL@@@1@@Z ENDP ; _STL::allocator<_STL::_Rb_tree_node<_STL::pair<unsigned int const ,SERVERNPC_INFO *> > >::allocator<_STL::_Rb_tree_node<_STL::pair<unsigned int const ,SERVERNPC_INFO *> > ><_STL::pair<unsigned int const ,SERVERNPC_INFO *> >
_TEXT	ENDS
PUBLIC	?tie@?$basic_ios@DV?$char_traits@D@_STL@@@_STL@@QBEPAV?$basic_ostream@DV?$char_traits@D@_STL@@@2@XZ ; _STL::basic_ios<char,_STL::char_traits<char> >::tie
; Function compile flags: /Ogsy
; File c:\stlport-4.6.1\stlport\stl\_ios.h
;	COMDAT ?tie@?$basic_ios@DV?$char_traits@D@_STL@@@_STL@@QBEPAV?$basic_ostream@DV?$char_traits@D@_STL@@@2@XZ
_TEXT	SEGMENT
?tie@?$basic_ios@DV?$char_traits@D@_STL@@@_STL@@QBEPAV?$basic_ostream@DV?$char_traits@D@_STL@@@2@XZ PROC NEAR ; _STL::basic_ios<char,_STL::char_traits<char> >::tie, COMDAT
; _this$ = ecx

; 62   :     return _M_tied_ostream;

  00000	8b 41 5c	 mov	 eax, DWORD PTR [ecx+92]

; 63   :   }

  00003	c3		 ret	 0
?tie@?$basic_ios@DV?$char_traits@D@_STL@@@_STL@@QBEPAV?$basic_ostream@DV?$char_traits@D@_STL@@@2@XZ ENDP ; _STL::basic_ios<char,_STL::char_traits<char> >::tie
_TEXT	ENDS
PUBLIC	?_S_left@?$_Rb_tree@IU?$pair@$$CBIPAVNPC_INFO@@@_STL@@U?$_Select1st@U?$pair@$$CBIPAVNPC_INFO@@@_STL@@@2@U?$less@I@2@V?$allocator@U?$pair@$$CBIPAVNPC_INFO@@@_STL@@@2@@_STL@@KAAAPAU?$_Rb_tree_node@U?$pair@$$CBIPAVNPC_INFO@@@_STL@@@2@PAU32@@Z ; _STL::_Rb_tree<unsigned int,_STL::pair<unsigned int const ,NPC_INFO *>,_STL::_Select1st<_STL::pair<unsigned int const ,NPC_INFO *> >,_STL::less<unsigned int>,_STL::allocator<_STL::pair<unsigned int const ,NPC_INFO *> > >::_S_left
; Function compile flags: /Ogsy
; File c:\stlport-4.6.1\stlport\stl\_tree.h
;	COMDAT ?_S_left@?$_Rb_tree@IU?$pair@$$CBIPAVNPC_INFO@@@_STL@@U?$_Select1st@U?$pair@$$CBIPAVNPC_INFO@@@_STL@@@2@U?$less@I@2@V?$allocator@U?$pair@$$CBIPAVNPC_INFO@@@_STL@@@2@@_STL@@KAAAPAU?$_Rb_tree_node@U?$pair@$$CBIPAVNPC_INFO@@@_STL@@@2@PAU32@@Z
_TEXT	SEGMENT
___x$ = 8						; size = 4
?_S_left@?$_Rb_tree@IU?$pair@$$CBIPAVNPC_INFO@@@_STL@@U?$_Select1st@U?$pair@$$CBIPAVNPC_INFO@@@_STL@@@2@U?$less@I@2@V?$allocator@U?$pair@$$CBIPAVNPC_INFO@@@_STL@@@2@@_STL@@KAAAPAU?$_Rb_tree_node@U?$pair@$$CBIPAVNPC_INFO@@@_STL@@@2@PAU32@@Z PROC NEAR ; _STL::_Rb_tree<unsigned int,_STL::pair<unsigned int const ,NPC_INFO *>,_STL::_Select1st<_STL::pair<unsigned int const ,NPC_INFO *> >,_STL::less<unsigned int>,_STL::allocator<_STL::pair<unsigned int const ,NPC_INFO *> > >::_S_left, COMDAT

; 272  :     { return (_Link_type&)(__x->_M_left); }

  00000	8b 44 24 04	 mov	 eax, DWORD PTR ___x$[esp-4]
  00004	83 c0 08	 add	 eax, 8
  00007	c3		 ret	 0
?_S_left@?$_Rb_tree@IU?$pair@$$CBIPAVNPC_INFO@@@_STL@@U?$_Select1st@U?$pair@$$CBIPAVNPC_INFO@@@_STL@@@2@U?$less@I@2@V?$allocator@U?$pair@$$CBIPAVNPC_INFO@@@_STL@@@2@@_STL@@KAAAPAU?$_Rb_tree_node@U?$pair@$$CBIPAVNPC_INFO@@@_STL@@@2@PAU32@@Z ENDP ; _STL::_Rb_tree<unsigned int,_STL::pair<unsigned int const ,NPC_INFO *>,_STL::_Select1st<_STL::pair<unsigned int const ,NPC_INFO *> >,_STL::less<unsigned int>,_STL::allocator<_STL::pair<unsigned int const ,NPC_INFO *> > >::_S_left
_TEXT	ENDS
PUBLIC	?_S_right@?$_Rb_tree@IU?$pair@$$CBIPAVNPC_INFO@@@_STL@@U?$_Select1st@U?$pair@$$CBIPAVNPC_INFO@@@_STL@@@2@U?$less@I@2@V?$allocator@U?$pair@$$CBIPAVNPC_INFO@@@_STL@@@2@@_STL@@KAAAPAU?$_Rb_tree_node@U?$pair@$$CBIPAVNPC_INFO@@@_STL@@@2@PAU32@@Z ; _STL::_Rb_tree<unsigned int,_STL::pair<unsigned int const ,NPC_INFO *>,_STL::_Select1st<_STL::pair<unsigned int const ,NPC_INFO *> >,_STL::less<unsigned int>,_STL::allocator<_STL::pair<unsigned int const ,NPC_INFO *> > >::_S_right
; Function compile flags: /Ogsy
;	COMDAT ?_S_right@?$_Rb_tree@IU?$pair@$$CBIPAVNPC_INFO@@@_STL@@U?$_Select1st@U?$pair@$$CBIPAVNPC_INFO@@@_STL@@@2@U?$less@I@2@V?$allocator@U?$pair@$$CBIPAVNPC_INFO@@@_STL@@@2@@_STL@@KAAAPAU?$_Rb_tree_node@U?$pair@$$CBIPAVNPC_INFO@@@_STL@@@2@PAU32@@Z
_TEXT	SEGMENT
___x$ = 8						; size = 4
?_S_right@?$_Rb_tree@IU?$pair@$$CBIPAVNPC_INFO@@@_STL@@U?$_Select1st@U?$pair@$$CBIPAVNPC_INFO@@@_STL@@@2@U?$less@I@2@V?$allocator@U?$pair@$$CBIPAVNPC_INFO@@@_STL@@@2@@_STL@@KAAAPAU?$_Rb_tree_node@U?$pair@$$CBIPAVNPC_INFO@@@_STL@@@2@PAU32@@Z PROC NEAR ; _STL::_Rb_tree<unsigned int,_STL::pair<unsigned int const ,NPC_INFO *>,_STL::_Select1st<_STL::pair<unsigned int const ,NPC_INFO *> >,_STL::less<unsigned int>,_STL::allocator<_STL::pair<unsigned int const ,NPC_INFO *> > >::_S_right, COMDAT

; 274  :     { return (_Link_type&)(__x->_M_right); }

  00000	8b 44 24 04	 mov	 eax, DWORD PTR ___x$[esp-4]
  00004	83 c0 0c	 add	 eax, 12			; 0000000cH
  00007	c3		 ret	 0
?_S_right@?$_Rb_tree@IU?$pair@$$CBIPAVNPC_INFO@@@_STL@@U?$_Select1st@U?$pair@$$CBIPAVNPC_INFO@@@_STL@@@2@U?$less@I@2@V?$allocator@U?$pair@$$CBIPAVNPC_INFO@@@_STL@@@2@@_STL@@KAAAPAU?$_Rb_tree_node@U?$pair@$$CBIPAVNPC_INFO@@@_STL@@@2@PAU32@@Z ENDP ; _STL::_Rb_tree<unsigned int,_STL::pair<unsigned int const ,NPC_INFO *>,_STL::_Select1st<_STL::pair<unsigned int const ,NPC_INFO *> >,_STL::less<unsigned int>,_STL::allocator<_STL::pair<unsigned int const ,NPC_INFO *> > >::_S_right
_TEXT	ENDS
PUBLIC	?_S_left@?$_Rb_tree@IU?$pair@$$CBIPAVSERVERNPC_INFO@@@_STL@@U?$_Select1st@U?$pair@$$CBIPAVSERVERNPC_INFO@@@_STL@@@2@U?$less@I@2@V?$allocator@U?$pair@$$CBIPAVSERVERNPC_INFO@@@_STL@@@2@@_STL@@KAAAPAU?$_Rb_tree_node@U?$pair@$$CBIPAVSERVERNPC_INFO@@@_STL@@@2@PAU32@@Z ; _STL::_Rb_tree<unsigned int,_STL::pair<unsigned int const ,SERVERNPC_INFO *>,_STL::_Select1st<_STL::pair<unsigned int const ,SERVERNPC_INFO *> >,_STL::less<unsigned int>,_STL::allocator<_STL::pair<unsigned int const ,SERVERNPC_INFO *> > >::_S_left
; Function compile flags: /Ogsy
;	COMDAT ?_S_left@?$_Rb_tree@IU?$pair@$$CBIPAVSERVERNPC_INFO@@@_STL@@U?$_Select1st@U?$pair@$$CBIPAVSERVERNPC_INFO@@@_STL@@@2@U?$less@I@2@V?$allocator@U?$pair@$$CBIPAVSERVERNPC_INFO@@@_STL@@@2@@_STL@@KAAAPAU?$_Rb_tree_node@U?$pair@$$CBIPAVSERVERNPC_INFO@@@_STL@@@2@PAU32@@Z
_TEXT	SEGMENT
___x$ = 8						; size = 4
?_S_left@?$_Rb_tree@IU?$pair@$$CBIPAVSERVERNPC_INFO@@@_STL@@U?$_Select1st@U?$pair@$$CBIPAVSERVERNPC_INFO@@@_STL@@@2@U?$less@I@2@V?$allocator@U?$pair@$$CBIPAVSERVERNPC_INFO@@@_STL@@@2@@_STL@@KAAAPAU?$_Rb_tree_node@U?$pair@$$CBIPAVSERVERNPC_INFO@@@_STL@@@2@PAU32@@Z PROC NEAR ; _STL::_Rb_tree<unsigned int,_STL::pair<unsigned int const ,SERVERNPC_INFO *>,_STL::_Select1st<_STL::pair<unsigned int const ,SERVERNPC_INFO *> >,_STL::less<unsigned int>,_STL::allocator<_STL::pair<unsigned int const ,SERVERNPC_INFO *> > >::_S_left, COMDAT

; 272  :     { return (_Link_type&)(__x->_M_left); }

  00000	8b 44 24 04	 mov	 eax, DWORD PTR ___x$[esp-4]
  00004	83 c0 08	 add	 eax, 8
  00007	c3		 ret	 0
?_S_left@?$_Rb_tree@IU?$pair@$$CBIPAVSERVERNPC_INFO@@@_STL@@U?$_Select1st@U?$pair@$$CBIPAVSERVERNPC_INFO@@@_STL@@@2@U?$less@I@2@V?$allocator@U?$pair@$$CBIPAVSERVERNPC_INFO@@@_STL@@@2@@_STL@@KAAAPAU?$_Rb_tree_node@U?$pair@$$CBIPAVSERVERNPC_INFO@@@_STL@@@2@PAU32@@Z ENDP ; _STL::_Rb_tree<unsigned int,_STL::pair<unsigned int const ,SERVERNPC_INFO *>,_STL::_Select1st<_STL::pair<unsigned int const ,SERVERNPC_INFO *> >,_STL::less<unsigned int>,_STL::allocator<_STL::pair<unsigned int const ,SERVERNPC_INFO *> > >::_S_left
_TEXT	ENDS
PUBLIC	?_S_right@?$_Rb_tree@IU?$pair@$$CBIPAVSERVERNPC_INFO@@@_STL@@U?$_Select1st@U?$pair@$$CBIPAVSERVERNPC_INFO@@@_STL@@@2@U?$less@I@2@V?$allocator@U?$pair@$$CBIPAVSERVERNPC_INFO@@@_STL@@@2@@_STL@@KAAAPAU?$_Rb_tree_node@U?$pair@$$CBIPAVSERVERNPC_INFO@@@_STL@@@2@PAU32@@Z ; _STL::_Rb_tree<unsigned int,_STL::pair<unsigned int const ,SERVERNPC_INFO *>,_STL::_Select1st<_STL::pair<unsigned int const ,SERVERNPC_INFO *> >,_STL::less<unsigned int>,_STL::allocator<_STL::pair<unsigned int const ,SERVERNPC_INFO *> > >::_S_right
; Function compile flags: /Ogsy
;	COMDAT ?_S_right@?$_Rb_tree@IU?$pair@$$CBIPAVSERVERNPC_INFO@@@_STL@@U?$_Select1st@U?$pair@$$CBIPAVSERVERNPC_INFO@@@_STL@@@2@U?$less@I@2@V?$allocator@U?$pair@$$CBIPAVSERVERNPC_INFO@@@_STL@@@2@@_STL@@KAAAPAU?$_Rb_tree_node@U?$pair@$$CBIPAVSERVERNPC_INFO@@@_STL@@@2@PAU32@@Z
_TEXT	SEGMENT
___x$ = 8						; size = 4
?_S_right@?$_Rb_tree@IU?$pair@$$CBIPAVSERVERNPC_INFO@@@_STL@@U?$_Select1st@U?$pair@$$CBIPAVSERVERNPC_INFO@@@_STL@@@2@U?$less@I@2@V?$allocator@U?$pair@$$CBIPAVSERVERNPC_INFO@@@_STL@@@2@@_STL@@KAAAPAU?$_Rb_tree_node@U?$pair@$$CBIPAVSERVERNPC_INFO@@@_STL@@@2@PAU32@@Z PROC NEAR ; _STL::_Rb_tree<unsigned int,_STL::pair<unsigned int const ,SERVERNPC_INFO *>,_STL::_Select1st<_STL::pair<unsigned int const ,SERVERNPC_INFO *> >,_STL::less<unsigned int>,_STL::allocator<_STL::pair<unsigned int const ,SERVERNPC_INFO *> > >::_S_right, COMDAT

; 274  :     { return (_Link_type&)(__x->_M_right); }

  00000	8b 44 24 04	 mov	 eax, DWORD PTR ___x$[esp-4]
  00004	83 c0 0c	 add	 eax, 12			; 0000000cH
  00007	c3		 ret	 0
?_S_right@?$_Rb_tree@IU?$pair@$$CBIPAVSERVERNPC_INFO@@@_STL@@U?$_Select1st@U?$pair@$$CBIPAVSERVERNPC_INFO@@@_STL@@@2@U?$less@I@2@V?$allocator@U?$pair@$$CBIPAVSERVERNPC_INFO@@@_STL@@@2@@_STL@@KAAAPAU?$_Rb_tree_node@U?$pair@$$CBIPAVSERVERNPC_INFO@@@_STL@@@2@PAU32@@Z ENDP ; _STL::_Rb_tree<unsigned int,_STL::pair<unsigned int const ,SERVERNPC_INFO *>,_STL::_Select1st<_STL::pair<unsigned int const ,SERVERNPC_INFO *> >,_STL::less<unsigned int>,_STL::allocator<_STL::pair<unsigned int const ,SERVERNPC_INFO *> > >::_S_right
_TEXT	ENDS
PUBLIC	?_S_parent@?$_Rb_tree@HU?$pair@$$CBHH@_STL@@U?$_Select1st@U?$pair@$$CBHH@_STL@@@2@U?$less@H@2@V?$allocator@U?$pair@$$CBHH@_STL@@@2@@_STL@@KAAAPAU?$_Rb_tree_node@U?$pair@$$CBHH@_STL@@@2@PAU32@@Z ; _STL::_Rb_tree<int,_STL::pair<int const ,int>,_STL::_Select1st<_STL::pair<int const ,int> >,_STL::less<int>,_STL::allocator<_STL::pair<int const ,int> > >::_S_parent
; Function compile flags: /Ogsy
;	COMDAT ?_S_parent@?$_Rb_tree@HU?$pair@$$CBHH@_STL@@U?$_Select1st@U?$pair@$$CBHH@_STL@@@2@U?$less@H@2@V?$allocator@U?$pair@$$CBHH@_STL@@@2@@_STL@@KAAAPAU?$_Rb_tree_node@U?$pair@$$CBHH@_STL@@@2@PAU32@@Z
_TEXT	SEGMENT
___x$ = 8						; size = 4
?_S_parent@?$_Rb_tree@HU?$pair@$$CBHH@_STL@@U?$_Select1st@U?$pair@$$CBHH@_STL@@@2@U?$less@H@2@V?$allocator@U?$pair@$$CBHH@_STL@@@2@@_STL@@KAAAPAU?$_Rb_tree_node@U?$pair@$$CBHH@_STL@@@2@PAU32@@Z PROC NEAR ; _STL::_Rb_tree<int,_STL::pair<int const ,int>,_STL::_Select1st<_STL::pair<int const ,int> >,_STL::less<int>,_STL::allocator<_STL::pair<int const ,int> > >::_S_parent, COMDAT

; 276  :     { return (_Link_type&)(__x->_M_parent); }

  00000	8b 44 24 04	 mov	 eax, DWORD PTR ___x$[esp-4]
  00004	83 c0 04	 add	 eax, 4
  00007	c3		 ret	 0
?_S_parent@?$_Rb_tree@HU?$pair@$$CBHH@_STL@@U?$_Select1st@U?$pair@$$CBHH@_STL@@@2@U?$less@H@2@V?$allocator@U?$pair@$$CBHH@_STL@@@2@@_STL@@KAAAPAU?$_Rb_tree_node@U?$pair@$$CBHH@_STL@@@2@PAU32@@Z ENDP ; _STL::_Rb_tree<int,_STL::pair<int const ,int>,_STL::_Select1st<_STL::pair<int const ,int> >,_STL::less<int>,_STL::allocator<_STL::pair<int const ,int> > >::_S_parent
_TEXT	ENDS
PUBLIC	?begin@?$_Rb_tree@HU?$pair@$$CBHH@_STL@@U?$_Select1st@U?$pair@$$CBHH@_STL@@@2@U?$less@H@2@V?$allocator@U?$pair@$$CBHH@_STL@@@2@@_STL@@QAE?AU?$_Rb_tree_iterator@U?$pair@$$CBHH@_STL@@U?$_Nonconst_traits@U?$pair@$$CBHH@_STL@@@2@@2@XZ ; _STL::_Rb_tree<int,_STL::pair<int const ,int>,_STL::_Select1st<_STL::pair<int const ,int> >,_STL::less<int>,_STL::allocator<_STL::pair<int const ,int> > >::begin
; Function compile flags: /Ogsy
;	COMDAT ?begin@?$_Rb_tree@HU?$pair@$$CBHH@_STL@@U?$_Select1st@U?$pair@$$CBHH@_STL@@@2@U?$less@H@2@V?$allocator@U?$pair@$$CBHH@_STL@@@2@@_STL@@QAE?AU?$_Rb_tree_iterator@U?$pair@$$CBHH@_STL@@U?$_Nonconst_traits@U?$pair@$$CBHH@_STL@@@2@@2@XZ
_TEXT	SEGMENT
___$ReturnUdt$ = 8					; size = 4
?begin@?$_Rb_tree@HU?$pair@$$CBHH@_STL@@U?$_Select1st@U?$pair@$$CBHH@_STL@@@2@U?$less@H@2@V?$allocator@U?$pair@$$CBHH@_STL@@@2@@_STL@@QAE?AU?$_Rb_tree_iterator@U?$pair@$$CBHH@_STL@@U?$_Nonconst_traits@U?$pair@$$CBHH@_STL@@@2@@2@XZ PROC NEAR ; _STL::_Rb_tree<int,_STL::pair<int const ,int>,_STL::_Select1st<_STL::pair<int const ,int> >,_STL::less<int>,_STL::allocator<_STL::pair<int const ,int> > >::begin, COMDAT
; _this$ = ecx

; 357  :   iterator begin() { return iterator(_M_leftmost()); }

  00000	8b 01		 mov	 eax, DWORD PTR [ecx]
  00002	8b 48 08	 mov	 ecx, DWORD PTR [eax+8]
  00005	8b 44 24 04	 mov	 eax, DWORD PTR ___$ReturnUdt$[esp-4]
  00009	89 08		 mov	 DWORD PTR [eax], ecx
  0000b	c2 04 00	 ret	 4
?begin@?$_Rb_tree@HU?$pair@$$CBHH@_STL@@U?$_Select1st@U?$pair@$$CBHH@_STL@@@2@U?$less@H@2@V?$allocator@U?$pair@$$CBHH@_STL@@@2@@_STL@@QAE?AU?$_Rb_tree_iterator@U?$pair@$$CBHH@_STL@@U?$_Nonconst_traits@U?$pair@$$CBHH@_STL@@@2@@2@XZ ENDP ; _STL::_Rb_tree<int,_STL::pair<int const ,int>,_STL::_Select1st<_STL::pair<int const ,int> >,_STL::less<int>,_STL::allocator<_STL::pair<int const ,int> > >::begin
_TEXT	ENDS
PUBLIC	??E?$_List_iterator@IU?$_Const_traits@I@_STL@@@_STL@@QAEAAU01@XZ ; _STL::_List_iterator<unsigned int,_STL::_Const_traits<unsigned int> >::operator++
; Function compile flags: /Ogsy
; File c:\stlport-4.6.1\stlport\stl\_list.h
;	COMDAT ??E?$_List_iterator@IU?$_Const_traits@I@_STL@@@_STL@@QAEAAU01@XZ
_TEXT	SEGMENT
??E?$_List_iterator@IU?$_Const_traits@I@_STL@@@_STL@@QAEAAU01@XZ PROC NEAR ; _STL::_List_iterator<unsigned int,_STL::_Const_traits<unsigned int> >::operator++, COMDAT
; _this$ = ecx

; 134  :   _Self& operator++() { 

  00000	8b c1		 mov	 eax, ecx

; 135  :     this->_M_incr();

  00002	8b 08		 mov	 ecx, DWORD PTR [eax]
  00004	8b 09		 mov	 ecx, DWORD PTR [ecx]
  00006	89 08		 mov	 DWORD PTR [eax], ecx

; 136  :     return *this;
; 137  :   }

  00008	c3		 ret	 0
??E?$_List_iterator@IU?$_Const_traits@I@_STL@@@_STL@@QAEAAU01@XZ ENDP ; _STL::_List_iterator<unsigned int,_STL::_Const_traits<unsigned int> >::operator++
_TEXT	ENDS
PUBLIC	??0?$pair@U?$_Rb_tree_iterator@U?$pair@$$CBHH@_STL@@U?$_Nonconst_traits@U?$pair@$$CBHH@_STL@@@2@@_STL@@_N@_STL@@QAE@ABU?$_Rb_tree_iterator@U?$pair@$$CBHH@_STL@@U?$_Nonconst_traits@U?$pair@$$CBHH@_STL@@@2@@1@AB_N@Z ; _STL::pair<_STL::_Rb_tree_iterator<_STL::pair<int const ,int>,_STL::_Nonconst_traits<_STL::pair<int const ,int> > >,bool>::pair<_STL::_Rb_tree_iterator<_STL::pair<int const ,int>,_STL::_Nonconst_traits<_STL::pair<int const ,int> > >,bool>
; Function compile flags: /Ogsy
; File c:\stlport-4.6.1\stlport\stl\_pair.h
;	COMDAT ??0?$pair@U?$_Rb_tree_iterator@U?$pair@$$CBHH@_STL@@U?$_Nonconst_traits@U?$pair@$$CBHH@_STL@@@2@@_STL@@_N@_STL@@QAE@ABU?$_Rb_tree_iterator@U?$pair@$$CBHH@_STL@@U?$_Nonconst_traits@U?$pair@$$CBHH@_STL@@@2@@1@AB_N@Z
_TEXT	SEGMENT
___a$ = 8						; size = 4
___b$ = 12						; size = 4
??0?$pair@U?$_Rb_tree_iterator@U?$pair@$$CBHH@_STL@@U?$_Nonconst_traits@U?$pair@$$CBHH@_STL@@@2@@_STL@@_N@_STL@@QAE@ABU?$_Rb_tree_iterator@U?$pair@$$CBHH@_STL@@U?$_Nonconst_traits@U?$pair@$$CBHH@_STL@@@2@@1@AB_N@Z PROC NEAR ; _STL::pair<_STL::_Rb_tree_iterator<_STL::pair<int const ,int>,_STL::_Nonconst_traits<_STL::pair<int const ,int> > >,bool>::pair<_STL::_Rb_tree_iterator<_STL::pair<int const ,int>,_STL::_Nonconst_traits<_STL::pair<int const ,int> > >,bool>, COMDAT
; _this$ = ecx

; 48   :   pair(const _T1& __a, const _T2& __b) : first(__a), second(__b) {}

  00000	8b c1		 mov	 eax, ecx
  00002	8b 4c 24 04	 mov	 ecx, DWORD PTR ___a$[esp-4]
  00006	8b 09		 mov	 ecx, DWORD PTR [ecx]
  00008	89 08		 mov	 DWORD PTR [eax], ecx
  0000a	8b 4c 24 08	 mov	 ecx, DWORD PTR ___b$[esp-4]
  0000e	8a 09		 mov	 cl, BYTE PTR [ecx]
  00010	88 48 04	 mov	 BYTE PTR [eax+4], cl
  00013	c2 08 00	 ret	 8
??0?$pair@U?$_Rb_tree_iterator@U?$pair@$$CBHH@_STL@@U?$_Nonconst_traits@U?$pair@$$CBHH@_STL@@@2@@_STL@@_N@_STL@@QAE@ABU?$_Rb_tree_iterator@U?$pair@$$CBHH@_STL@@U?$_Nonconst_traits@U?$pair@$$CBHH@_STL@@@2@@1@AB_N@Z ENDP ; _STL::pair<_STL::_Rb_tree_iterator<_STL::pair<int const ,int>,_STL::_Nonconst_traits<_STL::pair<int const ,int> > >,bool>::pair<_STL::_Rb_tree_iterator<_STL::pair<int const ,int>,_STL::_Nonconst_traits<_STL::pair<int const ,int> > >,bool>
_TEXT	ENDS
PUBLIC	??0?$pair@$$CBHH@_STL@@QAE@ABU01@@Z		; _STL::pair<int const ,int>::pair<int const ,int>
; Function compile flags: /Ogsy
;	COMDAT ??0?$pair@$$CBHH@_STL@@QAE@ABU01@@Z
_TEXT	SEGMENT
___o$ = 8						; size = 4
??0?$pair@$$CBHH@_STL@@QAE@ABU01@@Z PROC NEAR		; _STL::pair<int const ,int>::pair<int const ,int>, COMDAT
; _this$ = ecx

; 54   :   pair(const pair<_T1,_T2>& __o) : first(__o.first), second(__o.second) {}

  00000	8b c1		 mov	 eax, ecx
  00002	8b 4c 24 04	 mov	 ecx, DWORD PTR ___o$[esp-4]
  00006	8b 11		 mov	 edx, DWORD PTR [ecx]
  00008	89 10		 mov	 DWORD PTR [eax], edx
  0000a	8b 49 04	 mov	 ecx, DWORD PTR [ecx+4]
  0000d	89 48 04	 mov	 DWORD PTR [eax+4], ecx
  00010	c2 04 00	 ret	 4
??0?$pair@$$CBHH@_STL@@QAE@ABU01@@Z ENDP		; _STL::pair<int const ,int>::pair<int const ,int>
_TEXT	ENDS
PUBLIC	??8_Rb_tree_base_iterator@_STL@@QBE_NABU01@@Z	; _STL::_Rb_tree_base_iterator::operator==
; Function compile flags: /Ogsy
; File c:\stlport-4.6.1\stlport\stl\_tree.h
;	COMDAT ??8_Rb_tree_base_iterator@_STL@@QBE_NABU01@@Z
_TEXT	SEGMENT
___y$ = 8						; size = 4
??8_Rb_tree_base_iterator@_STL@@QBE_NABU01@@Z PROC NEAR	; _STL::_Rb_tree_base_iterator::operator==, COMDAT
; _this$ = ecx

; 147  :     return _M_node == __y._M_node;

  00000	8b 01		 mov	 eax, DWORD PTR [ecx]
  00002	8b 4c 24 04	 mov	 ecx, DWORD PTR ___y$[esp-4]
  00006	2b 01		 sub	 eax, DWORD PTR [ecx]
  00008	f7 d8		 neg	 eax
  0000a	1b c0		 sbb	 eax, eax
  0000c	40		 inc	 eax

; 148  :   }

  0000d	c2 04 00	 ret	 4
??8_Rb_tree_base_iterator@_STL@@QBE_NABU01@@Z ENDP	; _STL::_Rb_tree_base_iterator::operator==
_TEXT	ENDS
PUBLIC	??9_Rb_tree_base_iterator@_STL@@QBE_NABU01@@Z	; _STL::_Rb_tree_base_iterator::operator!=
; Function compile flags: /Ogsy
;	COMDAT ??9_Rb_tree_base_iterator@_STL@@QBE_NABU01@@Z
_TEXT	SEGMENT
___y$ = 8						; size = 4
??9_Rb_tree_base_iterator@_STL@@QBE_NABU01@@Z PROC NEAR	; _STL::_Rb_tree_base_iterator::operator!=, COMDAT
; _this$ = ecx

; 150  :     return _M_node != __y._M_node;

  00000	8b 01		 mov	 eax, DWORD PTR [ecx]
  00002	8b 54 24 04	 mov	 edx, DWORD PTR ___y$[esp-4]
  00006	33 c9		 xor	 ecx, ecx
  00008	3b 02		 cmp	 eax, DWORD PTR [edx]
  0000a	0f 95 c1	 setne	 cl
  0000d	8a c1		 mov	 al, cl

; 151  :   }

  0000f	c2 04 00	 ret	 4
??9_Rb_tree_base_iterator@_STL@@QBE_NABU01@@Z ENDP	; _STL::_Rb_tree_base_iterator::operator!=
_TEXT	ENDS
PUBLIC	?allocate@?$__node_alloc@$00$0A@@_STL@@SAPAXI@Z	; _STL::__node_alloc<1,0>::allocate
EXTRN	?_M_allocate@?$__node_alloc@$00$0A@@_STL@@CAPAXI@Z:NEAR ; _STL::__node_alloc<1,0>::_M_allocate
; Function compile flags: /Ogsy
; File c:\stlport-4.6.1\stlport\stl\_alloc.h
;	COMDAT ?allocate@?$__node_alloc@$00$0A@@_STL@@SAPAXI@Z
_TEXT	SEGMENT
___n$ = 8						; size = 4
?allocate@?$__node_alloc@$00$0A@@_STL@@SAPAXI@Z PROC NEAR ; _STL::__node_alloc<1,0>::allocate, COMDAT

; 251  :   static void * _STLP_CALL allocate(size_t __n) { return (__n > (size_t)_MAX_BYTES) ?  __stl_new(__n) : _M_allocate(__n); }

  00000	8b 44 24 04	 mov	 eax, DWORD PTR ___n$[esp-4]
  00004	3d 80 00 00 00	 cmp	 eax, 128		; 00000080H
  00009	50		 push	 eax
  0000a	76 07		 jbe	 SHORT $L107578
  0000c	e8 00 00 00 00	 call	 ??2@YAPAXI@Z		; operator new
  00011	59		 pop	 ecx
  00012	c3		 ret	 0
$L107578:
  00013	e8 00 00 00 00	 call	 ?_M_allocate@?$__node_alloc@$00$0A@@_STL@@CAPAXI@Z ; _STL::__node_alloc<1,0>::_M_allocate
  00018	59		 pop	 ecx
  00019	c3		 ret	 0
?allocate@?$__node_alloc@$00$0A@@_STL@@SAPAXI@Z ENDP	; _STL::__node_alloc<1,0>::allocate
_TEXT	ENDS
PUBLIC	?deallocate@?$__node_alloc@$00$0A@@_STL@@SAXPAXI@Z ; _STL::__node_alloc<1,0>::deallocate
EXTRN	?_M_deallocate@?$__node_alloc@$00$0A@@_STL@@CAXPAXI@Z:NEAR ; _STL::__node_alloc<1,0>::_M_deallocate
; Function compile flags: /Ogsy
;	COMDAT ?deallocate@?$__node_alloc@$00$0A@@_STL@@SAXPAXI@Z
_TEXT	SEGMENT
___p$ = 8						; size = 4
___n$ = 12						; size = 4
?deallocate@?$__node_alloc@$00$0A@@_STL@@SAXPAXI@Z PROC NEAR ; _STL::__node_alloc<1,0>::deallocate, COMDAT

; 253  :   static void _STLP_CALL deallocate(void *__p, size_t __n) { if (__n > (size_t)_MAX_BYTES) __stl_delete(__p); else _M_deallocate(__p, __n); }

  00000	81 7c 24 08 80
	00 00 00	 cmp	 DWORD PTR ___n$[esp-4], 128 ; 00000080H
  00008	76 0b		 jbe	 SHORT $L98677
  0000a	ff 74 24 04	 push	 DWORD PTR ___p$[esp-4]
  0000e	e8 00 00 00 00	 call	 ??3@YAXPAX@Z		; operator delete
  00013	59		 pop	 ecx
  00014	c3		 ret	 0
$L98677:
  00015	e9 00 00 00 00	 jmp	 ?_M_deallocate@?$__node_alloc@$00$0A@@_STL@@CAXPAXI@Z ; _STL::__node_alloc<1,0>::_M_deallocate
?deallocate@?$__node_alloc@$00$0A@@_STL@@SAXPAXI@Z ENDP	; _STL::__node_alloc<1,0>::deallocate
_TEXT	ENDS
PUBLIC	?size@?$map@IPAVSERVERNPC_INFO@@U?$less@I@_STL@@V?$allocator@U?$pair@$$CBIPAVSERVERNPC_INFO@@@_STL@@@3@@_STL@@QBEIXZ ; _STL::map<unsigned int,SERVERNPC_INFO *,_STL::less<unsigned int>,_STL::allocator<_STL::pair<unsigned int const ,SERVERNPC_INFO *> > >::size
; Function compile flags: /Ogsy
; File c:\stlport-4.6.1\stlport\stl\_map.h
;	COMDAT ?size@?$map@IPAVSERVERNPC_INFO@@U?$less@I@_STL@@V?$allocator@U?$pair@$$CBIPAVSERVERNPC_INFO@@@_STL@@@3@@_STL@@QBEIXZ
_TEXT	SEGMENT
?size@?$map@IPAVSERVERNPC_INFO@@U?$less@I@_STL@@V?$allocator@U?$pair@$$CBIPAVSERVERNPC_INFO@@@_STL@@@3@@_STL@@QBEIXZ PROC NEAR ; _STL::map<unsigned int,SERVERNPC_INFO *,_STL::less<unsigned int>,_STL::allocator<_STL::pair<unsigned int const ,SERVERNPC_INFO *> > >::size, COMDAT
; _this$ = ecx

; 156  :   size_type size() const { return _M_t.size(); }

  00000	8b 41 04	 mov	 eax, DWORD PTR [ecx+4]
  00003	c3		 ret	 0
?size@?$map@IPAVSERVERNPC_INFO@@U?$less@I@_STL@@V?$allocator@U?$pair@$$CBIPAVSERVERNPC_INFO@@@_STL@@@3@@_STL@@QBEIXZ ENDP ; _STL::map<unsigned int,SERVERNPC_INFO *,_STL::less<unsigned int>,_STL::allocator<_STL::pair<unsigned int const ,SERVERNPC_INFO *> > >::size
_TEXT	ENDS
PUBLIC	??E?$_Rb_tree_iterator@U?$pair@$$CBIPAVSERVERNPC_INFO@@@_STL@@U?$_Nonconst_traits@U?$pair@$$CBIPAVSERVERNPC_INFO@@@_STL@@@2@@_STL@@QAE?AU01@H@Z ; _STL::_Rb_tree_iterator<_STL::pair<unsigned int const ,SERVERNPC_INFO *>,_STL::_Nonconst_traits<_STL::pair<unsigned int const ,SERVERNPC_INFO *> > >::operator++
; Function compile flags: /Ogsy
; File c:\stlport-4.6.1\stlport\stl\_tree.h
;	COMDAT ??E?$_Rb_tree_iterator@U?$pair@$$CBIPAVSERVERNPC_INFO@@@_STL@@U?$_Nonconst_traits@U?$pair@$$CBIPAVSERVERNPC_INFO@@@_STL@@@2@@_STL@@QAE?AU01@H@Z
_TEXT	SEGMENT
___$ReturnUdt$ = 8					; size = 4
___formal$ = 12						; size = 4
??E?$_Rb_tree_iterator@U?$pair@$$CBIPAVSERVERNPC_INFO@@@_STL@@U?$_Nonconst_traits@U?$pair@$$CBIPAVSERVERNPC_INFO@@@_STL@@@2@@_STL@@QAE?AU01@H@Z PROC NEAR ; _STL::_Rb_tree_iterator<_STL::pair<unsigned int const ,SERVERNPC_INFO *>,_STL::_Nonconst_traits<_STL::pair<unsigned int const ,SERVERNPC_INFO *> > >::operator++, COMDAT
; _this$ = ecx

; 175  :   _Self operator++(int) {

  00000	56		 push	 esi
  00001	8b f1		 mov	 esi, ecx
  00003	57		 push	 edi

; 176  :     _Self __tmp = *this;

  00004	8b 3e		 mov	 edi, DWORD PTR [esi]

; 177  :     _M_node = _Rb_global_inst::_M_increment(_M_node);

  00006	57		 push	 edi
  00007	e8 00 00 00 00	 call	 ?_M_increment@?$_Rb_global@_N@_STL@@SAPAU_Rb_tree_node_base@2@PAU32@@Z ; _STL::_Rb_global<bool>::_M_increment
  0000c	89 06		 mov	 DWORD PTR [esi], eax

; 178  :     return __tmp;

  0000e	8b 44 24 10	 mov	 eax, DWORD PTR ___$ReturnUdt$[esp+8]
  00012	59		 pop	 ecx
  00013	89 38		 mov	 DWORD PTR [eax], edi
  00015	5f		 pop	 edi
  00016	5e		 pop	 esi

; 179  :   }

  00017	c2 08 00	 ret	 8
??E?$_Rb_tree_iterator@U?$pair@$$CBIPAVSERVERNPC_INFO@@@_STL@@U?$_Nonconst_traits@U?$pair@$$CBIPAVSERVERNPC_INFO@@@_STL@@@2@@_STL@@QAE?AU01@H@Z ENDP ; _STL::_Rb_tree_iterator<_STL::pair<unsigned int const ,SERVERNPC_INFO *>,_STL::_Nonconst_traits<_STL::pair<unsigned int const ,SERVERNPC_INFO *> > >::operator++
_TEXT	ENDS
PUBLIC	?begin@?$_Rb_tree@IU?$pair@$$CBIPAVSERVERNPC_INFO@@@_STL@@U?$_Select1st@U?$pair@$$CBIPAVSERVERNPC_INFO@@@_STL@@@2@U?$less@I@2@V?$allocator@U?$pair@$$CBIPAVSERVERNPC_INFO@@@_STL@@@2@@_STL@@QAE?AU?$_Rb_tree_iterator@U?$pair@$$CBIPAVSERVERNPC_INFO@@@_STL@@U?$_Nonconst_traits@U?$pair@$$CBIPAVSERVERNPC_INFO@@@_STL@@@2@@2@XZ ; _STL::_Rb_tree<unsigned int,_STL::pair<unsigned int const ,SERVERNPC_INFO *>,_STL::_Select1st<_STL::pair<unsigned int const ,SERVERNPC_INFO *> >,_STL::less<unsigned int>,_STL::allocator<_STL::pair<unsigned int const ,SERVERNPC_INFO *> > >::begin
; Function compile flags: /Ogsy
;	COMDAT ?begin@?$_Rb_tree@IU?$pair@$$CBIPAVSERVERNPC_INFO@@@_STL@@U?$_Select1st@U?$pair@$$CBIPAVSERVERNPC_INFO@@@_STL@@@2@U?$less@I@2@V?$allocator@U?$pair@$$CBIPAVSERVERNPC_INFO@@@_STL@@@2@@_STL@@QAE?AU?$_Rb_tree_iterator@U?$pair@$$CBIPAVSERVERNPC_INFO@@@_STL@@U?$_Nonconst_traits@U?$pair@$$CBIPAVSERVERNPC_INFO@@@_STL@@@2@@2@XZ
_TEXT	SEGMENT
___$ReturnUdt$ = 8					; size = 4
?begin@?$_Rb_tree@IU?$pair@$$CBIPAVSERVERNPC_INFO@@@_STL@@U?$_Select1st@U?$pair@$$CBIPAVSERVERNPC_INFO@@@_STL@@@2@U?$less@I@2@V?$allocator@U?$pair@$$CBIPAVSERVERNPC_INFO@@@_STL@@@2@@_STL@@QAE?AU?$_Rb_tree_iterator@U?$pair@$$CBIPAVSERVERNPC_INFO@@@_STL@@U?$_Nonconst_traits@U?$pair@$$CBIPAVSERVERNPC_INFO@@@_STL@@@2@@2@XZ PROC NEAR ; _STL::_Rb_tree<unsigned int,_STL::pair<unsigned int const ,SERVERNPC_INFO *>,_STL::_Select1st<_STL::pair<unsigned int const ,SERVERNPC_INFO *> >,_STL::less<unsigned int>,_STL::allocator<_STL::pair<unsigned int const ,SERVERNPC_INFO *> > >::begin, COMDAT
; _this$ = ecx

; 357  :   iterator begin() { return iterator(_M_leftmost()); }

  00000	8b 01		 mov	 eax, DWORD PTR [ecx]
  00002	8b 48 08	 mov	 ecx, DWORD PTR [eax+8]
  00005	8b 44 24 04	 mov	 eax, DWORD PTR ___$ReturnUdt$[esp-4]
  00009	89 08		 mov	 DWORD PTR [eax], ecx
  0000b	c2 04 00	 ret	 4
?begin@?$_Rb_tree@IU?$pair@$$CBIPAVSERVERNPC_INFO@@@_STL@@U?$_Select1st@U?$pair@$$CBIPAVSERVERNPC_INFO@@@_STL@@@2@U?$less@I@2@V?$allocator@U?$pair@$$CBIPAVSERVERNPC_INFO@@@_STL@@@2@@_STL@@QAE?AU?$_Rb_tree_iterator@U?$pair@$$CBIPAVSERVERNPC_INFO@@@_STL@@U?$_Nonconst_traits@U?$pair@$$CBIPAVSERVERNPC_INFO@@@_STL@@@2@@2@XZ ENDP ; _STL::_Rb_tree<unsigned int,_STL::pair<unsigned int const ,SERVERNPC_INFO *>,_STL::_Select1st<_STL::pair<unsigned int const ,SERVERNPC_INFO *> >,_STL::less<unsigned int>,_STL::allocator<_STL::pair<unsigned int const ,SERVERNPC_INFO *> > >::begin
_TEXT	ENDS
PUBLIC	?end@?$_Rb_tree@IU?$pair@$$CBIPAVSERVERNPC_INFO@@@_STL@@U?$_Select1st@U?$pair@$$CBIPAVSERVERNPC_INFO@@@_STL@@@2@U?$less@I@2@V?$allocator@U?$pair@$$CBIPAVSERVERNPC_INFO@@@_STL@@@2@@_STL@@QAE?AU?$_Rb_tree_iterator@U?$pair@$$CBIPAVSERVERNPC_INFO@@@_STL@@U?$_Nonconst_traits@U?$pair@$$CBIPAVSERVERNPC_INFO@@@_STL@@@2@@2@XZ ; _STL::_Rb_tree<unsigned int,_STL::pair<unsigned int const ,SERVERNPC_INFO *>,_STL::_Select1st<_STL::pair<unsigned int const ,SERVERNPC_INFO *> >,_STL::less<unsigned int>,_STL::allocator<_STL::pair<unsigned int const ,SERVERNPC_INFO *> > >::end
; Function compile flags: /Ogsy
;	COMDAT ?end@?$_Rb_tree@IU?$pair@$$CBIPAVSERVERNPC_INFO@@@_STL@@U?$_Select1st@U?$pair@$$CBIPAVSERVERNPC_INFO@@@_STL@@@2@U?$less@I@2@V?$allocator@U?$pair@$$CBIPAVSERVERNPC_INFO@@@_STL@@@2@@_STL@@QAE?AU?$_Rb_tree_iterator@U?$pair@$$CBIPAVSERVERNPC_INFO@@@_STL@@U?$_Nonconst_traits@U?$pair@$$CBIPAVSERVERNPC_INFO@@@_STL@@@2@@2@XZ
_TEXT	SEGMENT
___$ReturnUdt$ = 8					; size = 4
?end@?$_Rb_tree@IU?$pair@$$CBIPAVSERVERNPC_INFO@@@_STL@@U?$_Select1st@U?$pair@$$CBIPAVSERVERNPC_INFO@@@_STL@@@2@U?$less@I@2@V?$allocator@U?$pair@$$CBIPAVSERVERNPC_INFO@@@_STL@@@2@@_STL@@QAE?AU?$_Rb_tree_iterator@U?$pair@$$CBIPAVSERVERNPC_INFO@@@_STL@@U?$_Nonconst_traits@U?$pair@$$CBIPAVSERVERNPC_INFO@@@_STL@@@2@@2@XZ PROC NEAR ; _STL::_Rb_tree<unsigned int,_STL::pair<unsigned int const ,SERVERNPC_INFO *>,_STL::_Select1st<_STL::pair<unsigned int const ,SERVERNPC_INFO *> >,_STL::less<unsigned int>,_STL::allocator<_STL::pair<unsigned int const ,SERVERNPC_INFO *> > >::end, COMDAT
; _this$ = ecx

; 359  :   iterator end() { return iterator(this->_M_header._M_data); }

  00000	8b 09		 mov	 ecx, DWORD PTR [ecx]
  00002	8b 44 24 04	 mov	 eax, DWORD PTR ___$ReturnUdt$[esp-4]
  00006	89 08		 mov	 DWORD PTR [eax], ecx
  00008	c2 04 00	 ret	 4
?end@?$_Rb_tree@IU?$pair@$$CBIPAVSERVERNPC_INFO@@@_STL@@U?$_Select1st@U?$pair@$$CBIPAVSERVERNPC_INFO@@@_STL@@@2@U?$less@I@2@V?$allocator@U?$pair@$$CBIPAVSERVERNPC_INFO@@@_STL@@@2@@_STL@@QAE?AU?$_Rb_tree_iterator@U?$pair@$$CBIPAVSERVERNPC_INFO@@@_STL@@U?$_Nonconst_traits@U?$pair@$$CBIPAVSERVERNPC_INFO@@@_STL@@@2@@2@XZ ENDP ; _STL::_Rb_tree<unsigned int,_STL::pair<unsigned int const ,SERVERNPC_INFO *>,_STL::_Select1st<_STL::pair<unsigned int const ,SERVERNPC_INFO *> >,_STL::less<unsigned int>,_STL::allocator<_STL::pair<unsigned int const ,SERVERNPC_INFO *> > >::end
_TEXT	ENDS
PUBLIC	?key_comp@?$map@HHU?$less@H@_STL@@V?$allocator@U?$pair@$$CBHH@_STL@@@2@@_STL@@QBE?AU?$less@H@2@XZ ; _STL::map<int,int,_STL::less<int>,_STL::allocator<_STL::pair<int const ,int> > >::key_comp
; Function compile flags: /Ogsy
; File c:\stlport-4.6.1\stlport\stl\_map.h
;	COMDAT ?key_comp@?$map@HHU?$less@H@_STL@@V?$allocator@U?$pair@$$CBHH@_STL@@@2@@_STL@@QBE?AU?$less@H@2@XZ
_TEXT	SEGMENT
___$ReturnUdt$ = 8					; size = 4
?key_comp@?$map@HHU?$less@H@_STL@@V?$allocator@U?$pair@$$CBHH@_STL@@@2@@_STL@@QBE?AU?$less@H@2@XZ PROC NEAR ; _STL::map<int,int,_STL::less<int>,_STL::allocator<_STL::pair<int const ,int> > >::key_comp, COMDAT
; _this$ = ecx

; 143  :   key_compare key_comp() const { return _M_t.key_comp(); }

  00000	8b 44 24 04	 mov	 eax, DWORD PTR ___$ReturnUdt$[esp-4]
  00004	c2 04 00	 ret	 4
?key_comp@?$map@HHU?$less@H@_STL@@V?$allocator@U?$pair@$$CBHH@_STL@@@2@@_STL@@QBE?AU?$less@H@2@XZ ENDP ; _STL::map<int,int,_STL::less<int>,_STL::allocator<_STL::pair<int const ,int> > >::key_comp
_TEXT	ENDS
PUBLIC	?end@?$_Rb_tree@HU?$pair@$$CBHH@_STL@@U?$_Select1st@U?$pair@$$CBHH@_STL@@@2@U?$less@H@2@V?$allocator@U?$pair@$$CBHH@_STL@@@2@@_STL@@QAE?AU?$_Rb_tree_iterator@U?$pair@$$CBHH@_STL@@U?$_Nonconst_traits@U?$pair@$$CBHH@_STL@@@2@@2@XZ ; _STL::_Rb_tree<int,_STL::pair<int const ,int>,_STL::_Select1st<_STL::pair<int const ,int> >,_STL::less<int>,_STL::allocator<_STL::pair<int const ,int> > >::end
; Function compile flags: /Ogsy
; File c:\stlport-4.6.1\stlport\stl\_tree.h
;	COMDAT ?end@?$_Rb_tree@HU?$pair@$$CBHH@_STL@@U?$_Select1st@U?$pair@$$CBHH@_STL@@@2@U?$less@H@2@V?$allocator@U?$pair@$$CBHH@_STL@@@2@@_STL@@QAE?AU?$_Rb_tree_iterator@U?$pair@$$CBHH@_STL@@U?$_Nonconst_traits@U?$pair@$$CBHH@_STL@@@2@@2@XZ
_TEXT	SEGMENT
___$ReturnUdt$ = 8					; size = 4
?end@?$_Rb_tree@HU?$pair@$$CBHH@_STL@@U?$_Select1st@U?$pair@$$CBHH@_STL@@@2@U?$less@H@2@V?$allocator@U?$pair@$$CBHH@_STL@@@2@@_STL@@QAE?AU?$_Rb_tree_iterator@U?$pair@$$CBHH@_STL@@U?$_Nonconst_traits@U?$pair@$$CBHH@_STL@@@2@@2@XZ PROC NEAR ; _STL::_Rb_tree<int,_STL::pair<int const ,int>,_STL::_Select1st<_STL::pair<int const ,int> >,_STL::less<int>,_STL::allocator<_STL::pair<int const ,int> > >::end, COMDAT
; _this$ = ecx

; 359  :   iterator end() { return iterator(this->_M_header._M_data); }

  00000	8b 09		 mov	 ecx, DWORD PTR [ecx]
  00002	8b 44 24 04	 mov	 eax, DWORD PTR ___$ReturnUdt$[esp-4]
  00006	89 08		 mov	 DWORD PTR [eax], ecx
  00008	c2 04 00	 ret	 4
?end@?$_Rb_tree@HU?$pair@$$CBHH@_STL@@U?$_Select1st@U?$pair@$$CBHH@_STL@@@2@U?$less@H@2@V?$allocator@U?$pair@$$CBHH@_STL@@@2@@_STL@@QAE?AU?$_Rb_tree_iterator@U?$pair@$$CBHH@_STL@@U?$_Nonconst_traits@U?$pair@$$CBHH@_STL@@@2@@2@XZ ENDP ; _STL::_Rb_tree<int,_STL::pair<int const ,int>,_STL::_Select1st<_STL::pair<int const ,int> >,_STL::less<int>,_STL::allocator<_STL::pair<int const ,int> > >::end
_TEXT	ENDS
PUBLIC	??0?$_List_iterator@IU?$_Nonconst_traits@I@_STL@@@_STL@@QAE@PAU?$_List_node@I@1@@Z ; _STL::_List_iterator<unsigned int,_STL::_Nonconst_traits<unsigned int> >::_List_iterator<unsigned int,_STL::_Nonconst_traits<unsigned int> >
; Function compile flags: /Ogsy
; File c:\stlport-4.6.1\stlport\stl\_list.h
;	COMDAT ??0?$_List_iterator@IU?$_Nonconst_traits@I@_STL@@@_STL@@QAE@PAU?$_List_node@I@1@@Z
_TEXT	SEGMENT
___x$ = 8						; size = 4
??0?$_List_iterator@IU?$_Nonconst_traits@I@_STL@@@_STL@@QAE@PAU?$_List_node@I@1@@Z PROC NEAR ; _STL::_List_iterator<unsigned int,_STL::_Nonconst_traits<unsigned int> >::_List_iterator<unsigned int,_STL::_Nonconst_traits<unsigned int> >, COMDAT
; _this$ = ecx

; 126  :   _List_iterator(_Node* __x) : _List_iterator_base(__x) {}

  00000	8b c1		 mov	 eax, ecx
  00002	8b 4c 24 04	 mov	 ecx, DWORD PTR ___x$[esp-4]
  00006	89 08		 mov	 DWORD PTR [eax], ecx
  00008	c2 04 00	 ret	 4
??0?$_List_iterator@IU?$_Nonconst_traits@I@_STL@@@_STL@@QAE@PAU?$_List_node@I@1@@Z ENDP ; _STL::_List_iterator<unsigned int,_STL::_Nonconst_traits<unsigned int> >::_List_iterator<unsigned int,_STL::_Nonconst_traits<unsigned int> >
_TEXT	ENDS
PUBLIC	??0?$_List_iterator@IU?$_Nonconst_traits@I@_STL@@@_STL@@QAE@ABU01@@Z ; _STL::_List_iterator<unsigned int,_STL::_Nonconst_traits<unsigned int> >::_List_iterator<unsigned int,_STL::_Nonconst_traits<unsigned int> >
; Function compile flags: /Ogsy
;	COMDAT ??0?$_List_iterator@IU?$_Nonconst_traits@I@_STL@@@_STL@@QAE@ABU01@@Z
_TEXT	SEGMENT
___x$ = 8						; size = 4
??0?$_List_iterator@IU?$_Nonconst_traits@I@_STL@@@_STL@@QAE@ABU01@@Z PROC NEAR ; _STL::_List_iterator<unsigned int,_STL::_Nonconst_traits<unsigned int> >::_List_iterator<unsigned int,_STL::_Nonconst_traits<unsigned int> >, COMDAT
; _this$ = ecx

; 128  :   _List_iterator(const iterator& __x) :  _List_iterator_base(__x._M_node) {}

  00000	8b c1		 mov	 eax, ecx
  00002	8b 4c 24 04	 mov	 ecx, DWORD PTR ___x$[esp-4]
  00006	8b 09		 mov	 ecx, DWORD PTR [ecx]
  00008	89 08		 mov	 DWORD PTR [eax], ecx
  0000a	c2 04 00	 ret	 4
??0?$_List_iterator@IU?$_Nonconst_traits@I@_STL@@@_STL@@QAE@ABU01@@Z ENDP ; _STL::_List_iterator<unsigned int,_STL::_Nonconst_traits<unsigned int> >::_List_iterator<unsigned int,_STL::_Nonconst_traits<unsigned int> >
_TEXT	ENDS
PUBLIC	??1?$_STLP_alloc_proxy@PAU?$_List_node@I@_STL@@U12@V?$allocator@U?$_List_node@I@_STL@@@2@@_STL@@QAE@XZ ; _STL::_STLP_alloc_proxy<_STL::_List_node<unsigned int> *,_STL::_List_node<unsigned int>,_STL::allocator<_STL::_List_node<unsigned int> > >::~_STLP_alloc_proxy<_STL::_List_node<unsigned int> *,_STL::_List_node<unsigned int>,_STL::allocator<_STL::_List_node<unsigned int> > >
; Function compile flags: /Ogsy
;	COMDAT ??1?$_STLP_alloc_proxy@PAU?$_List_node@I@_STL@@U12@V?$allocator@U?$_List_node@I@_STL@@@2@@_STL@@QAE@XZ
_TEXT	SEGMENT
??1?$_STLP_alloc_proxy@PAU?$_List_node@I@_STL@@U12@V?$allocator@U?$_List_node@I@_STL@@@2@@_STL@@QAE@XZ PROC NEAR ; _STL::_STLP_alloc_proxy<_STL::_List_node<unsigned int> *,_STL::_List_node<unsigned int>,_STL::allocator<_STL::_List_node<unsigned int> > >::~_STLP_alloc_proxy<_STL::_List_node<unsigned int> *,_STL::_List_node<unsigned int>,_STL::allocator<_STL::_List_node<unsigned int> > >, COMDAT
; _this$ = ecx
  00000	c3		 ret	 0
??1?$_STLP_alloc_proxy@PAU?$_List_node@I@_STL@@U12@V?$allocator@U?$_List_node@I@_STL@@@2@@_STL@@QAE@XZ ENDP ; _STL::_STLP_alloc_proxy<_STL::_List_node<unsigned int> *,_STL::_List_node<unsigned int>,_STL::allocator<_STL::_List_node<unsigned int> > >::~_STLP_alloc_proxy<_STL::_List_node<unsigned int> *,_STL::_List_node<unsigned int>,_STL::allocator<_STL::_List_node<unsigned int> > >
_TEXT	ENDS
PUBLIC	??1?$_STLP_alloc_proxy@PAU?$_Rb_tree_node@U?$pair@$$CBHH@_STL@@@_STL@@U12@V?$allocator@U?$_Rb_tree_node@U?$pair@$$CBHH@_STL@@@_STL@@@2@@_STL@@QAE@XZ ; _STL::_STLP_alloc_proxy<_STL::_Rb_tree_node<_STL::pair<int const ,int> > *,_STL::_Rb_tree_node<_STL::pair<int const ,int> >,_STL::allocator<_STL::_Rb_tree_node<_STL::pair<int const ,int> > > >::~_STLP_alloc_proxy<_STL::_Rb_tree_node<_STL::pair<int const ,int> > *,_STL::_Rb_tree_node<_STL::pair<int const ,int> >,_STL::allocator<_STL::_Rb_tree_node<_STL::pair<int const ,int> > > >
; Function compile flags: /Ogsy
;	COMDAT ??1?$_STLP_alloc_proxy@PAU?$_Rb_tree_node@U?$pair@$$CBHH@_STL@@@_STL@@U12@V?$allocator@U?$_Rb_tree_node@U?$pair@$$CBHH@_STL@@@_STL@@@2@@_STL@@QAE@XZ
_TEXT	SEGMENT
??1?$_STLP_alloc_proxy@PAU?$_Rb_tree_node@U?$pair@$$CBHH@_STL@@@_STL@@U12@V?$allocator@U?$_Rb_tree_node@U?$pair@$$CBHH@_STL@@@_STL@@@2@@_STL@@QAE@XZ PROC NEAR ; _STL::_STLP_alloc_proxy<_STL::_Rb_tree_node<_STL::pair<int const ,int> > *,_STL::_Rb_tree_node<_STL::pair<int const ,int> >,_STL::allocator<_STL::_Rb_tree_node<_STL::pair<int const ,int> > > >::~_STLP_alloc_proxy<_STL::_Rb_tree_node<_STL::pair<int const ,int> > *,_STL::_Rb_tree_node<_STL::pair<int const ,int> >,_STL::allocator<_STL::_Rb_tree_node<_STL::pair<int const ,int> > > >, COMDAT
; _this$ = ecx
  00000	c3		 ret	 0
??1?$_STLP_alloc_proxy@PAU?$_Rb_tree_node@U?$pair@$$CBHH@_STL@@@_STL@@U12@V?$allocator@U?$_Rb_tree_node@U?$pair@$$CBHH@_STL@@@_STL@@@2@@_STL@@QAE@XZ ENDP ; _STL::_STLP_alloc_proxy<_STL::_Rb_tree_node<_STL::pair<int const ,int> > *,_STL::_Rb_tree_node<_STL::pair<int const ,int> >,_STL::allocator<_STL::_Rb_tree_node<_STL::pair<int const ,int> > > >::~_STLP_alloc_proxy<_STL::_Rb_tree_node<_STL::pair<int const ,int> > *,_STL::_Rb_tree_node<_STL::pair<int const ,int> >,_STL::allocator<_STL::_Rb_tree_node<_STL::pair<int const ,int> > > >
_TEXT	ENDS
PUBLIC	??0?$_STLP_alloc_proxy@PAU?$_List_node@I@_STL@@U12@V?$allocator@U?$_List_node@I@_STL@@@2@@_STL@@QAE@ABV?$allocator@U?$_List_node@I@_STL@@@1@PAU?$_List_node@I@1@@Z ; _STL::_STLP_alloc_proxy<_STL::_List_node<unsigned int> *,_STL::_List_node<unsigned int>,_STL::allocator<_STL::_List_node<unsigned int> > >::_STLP_alloc_proxy<_STL::_List_node<unsigned int> *,_STL::_List_node<unsigned int>,_STL::allocator<_STL::_List_node<unsigned int> > >
; Function compile flags: /Ogsy
; File c:\stlport-4.6.1\stlport\stl\_alloc.h
;	COMDAT ??0?$_STLP_alloc_proxy@PAU?$_List_node@I@_STL@@U12@V?$allocator@U?$_List_node@I@_STL@@@2@@_STL@@QAE@ABV?$allocator@U?$_List_node@I@_STL@@@1@PAU?$_List_node@I@1@@Z
_TEXT	SEGMENT
___a$ = 8						; size = 4
___p$ = 12						; size = 4
??0?$_STLP_alloc_proxy@PAU?$_List_node@I@_STL@@U12@V?$allocator@U?$_List_node@I@_STL@@@2@@_STL@@QAE@ABV?$allocator@U?$_List_node@I@_STL@@@1@PAU?$_List_node@I@1@@Z PROC NEAR ; _STL::_STLP_alloc_proxy<_STL::_List_node<unsigned int> *,_STL::_List_node<unsigned int>,_STL::allocator<_STL::_List_node<unsigned int> > >::_STLP_alloc_proxy<_STL::_List_node<unsigned int> *,_STL::_List_node<unsigned int>,_STL::allocator<_STL::_List_node<unsigned int> > >, COMDAT
; _this$ = ecx

; 487  :   inline _STLP_alloc_proxy(const _MaybeReboundAlloc& __a, _Value __p) : _MaybeReboundAlloc(__a), _M_data(__p) {}

  00000	8b c1		 mov	 eax, ecx
  00002	8b 4c 24 08	 mov	 ecx, DWORD PTR ___p$[esp-4]
  00006	89 08		 mov	 DWORD PTR [eax], ecx
  00008	c2 08 00	 ret	 8
??0?$_STLP_alloc_proxy@PAU?$_List_node@I@_STL@@U12@V?$allocator@U?$_List_node@I@_STL@@@2@@_STL@@QAE@ABV?$allocator@U?$_List_node@I@_STL@@@1@PAU?$_List_node@I@1@@Z ENDP ; _STL::_STLP_alloc_proxy<_STL::_List_node<unsigned int> *,_STL::_List_node<unsigned int>,_STL::allocator<_STL::_List_node<unsigned int> > >::_STLP_alloc_proxy<_STL::_List_node<unsigned int> *,_STL::_List_node<unsigned int>,_STL::allocator<_STL::_List_node<unsigned int> > >
_TEXT	ENDS
PUBLIC	?allocate@?$allocator@U?$_List_node@I@_STL@@@_STL@@QAEPAU?$_List_node@I@2@IPBX@Z ; _STL::allocator<_STL::_List_node<unsigned int> >::allocate
; Function compile flags: /Ogsy
;	COMDAT ?allocate@?$allocator@U?$_List_node@I@_STL@@@_STL@@QAEPAU?$_List_node@I@2@IPBX@Z
_TEXT	SEGMENT
___n$ = 8						; size = 4
___formal$ = 12						; size = 4
?allocate@?$allocator@U?$_List_node@I@_STL@@@_STL@@QAEPAU?$_List_node@I@2@IPBX@Z PROC NEAR ; _STL::allocator<_STL::_List_node<unsigned int> >::allocate, COMDAT
; _this$ = ecx

; 355  :     return __n != 0 ? __REINTERPRET_CAST(value_type*,__sgi_alloc::allocate(__n * sizeof(value_type))) : 0;

  00000	8b 44 24 04	 mov	 eax, DWORD PTR ___n$[esp-4]
  00004	85 c0		 test	 eax, eax
  00006	74 0f		 je	 SHORT $L107667
  00008	8d 04 40	 lea	 eax, DWORD PTR [eax+eax*2]
  0000b	c1 e0 02	 shl	 eax, 2
  0000e	50		 push	 eax
  0000f	e8 00 00 00 00	 call	 ?allocate@?$__node_alloc@$00$0A@@_STL@@SAPAXI@Z ; _STL::__node_alloc<1,0>::allocate
  00014	59		 pop	 ecx
  00015	eb 02		 jmp	 SHORT $L107668
$L107667:
  00017	33 c0		 xor	 eax, eax
$L107668:

; 356  :   }

  00019	c2 08 00	 ret	 8
?allocate@?$allocator@U?$_List_node@I@_STL@@@_STL@@QAEPAU?$_List_node@I@2@IPBX@Z ENDP ; _STL::allocator<_STL::_List_node<unsigned int> >::allocate
_TEXT	ENDS
PUBLIC	?deallocate@?$allocator@U?$_List_node@I@_STL@@@_STL@@QAEXPAU?$_List_node@I@2@I@Z ; _STL::allocator<_STL::_List_node<unsigned int> >::deallocate
; Function compile flags: /Ogsy
;	COMDAT ?deallocate@?$allocator@U?$_List_node@I@_STL@@@_STL@@QAEXPAU?$_List_node@I@2@I@Z
_TEXT	SEGMENT
___p$ = 8						; size = 4
___n$ = 12						; size = 4
?deallocate@?$allocator@U?$_List_node@I@_STL@@@_STL@@QAEXPAU?$_List_node@I@2@I@Z PROC NEAR ; _STL::allocator<_STL::_List_node<unsigned int> >::deallocate, COMDAT
; _this$ = ecx

; 359  :     _STLP_ASSERT( (__p == 0) == (__n == 0) )
; 360  :       if (__p != 0) __sgi_alloc::deallocate((void*)__p, __n * sizeof(value_type));

  00000	83 7c 24 04 00	 cmp	 DWORD PTR ___p$[esp-4], 0
  00005	74 16		 je	 SHORT $L104897
  00007	8b 44 24 08	 mov	 eax, DWORD PTR ___n$[esp-4]
  0000b	8d 04 40	 lea	 eax, DWORD PTR [eax+eax*2]
  0000e	c1 e0 02	 shl	 eax, 2
  00011	50		 push	 eax
  00012	ff 74 24 08	 push	 DWORD PTR ___p$[esp]
  00016	e8 00 00 00 00	 call	 ?deallocate@?$__node_alloc@$00$0A@@_STL@@SAXPAXI@Z ; _STL::__node_alloc<1,0>::deallocate
  0001b	59		 pop	 ecx
  0001c	59		 pop	 ecx
$L104897:

; 361  :   }

  0001d	c2 08 00	 ret	 8
?deallocate@?$allocator@U?$_List_node@I@_STL@@@_STL@@QAEXPAU?$_List_node@I@2@I@Z ENDP ; _STL::allocator<_STL::_List_node<unsigned int> >::deallocate
_TEXT	ENDS
PUBLIC	?_M_empty_initialize@?$_Rb_tree@HU?$pair@$$CBHH@_STL@@U?$_Select1st@U?$pair@$$CBHH@_STL@@@2@U?$less@H@2@V?$allocator@U?$pair@$$CBHH@_STL@@@2@@_STL@@AAEXXZ ; _STL::_Rb_tree<int,_STL::pair<int const ,int>,_STL::_Select1st<_STL::pair<int const ,int> >,_STL::less<int>,_STL::allocator<_STL::pair<int const ,int> > >::_M_empty_initialize
; Function compile flags: /Ogsy
; File c:\stlport-4.6.1\stlport\stl\_tree.h
;	COMDAT ?_M_empty_initialize@?$_Rb_tree@HU?$pair@$$CBHH@_STL@@U?$_Select1st@U?$pair@$$CBHH@_STL@@@2@U?$less@H@2@V?$allocator@U?$pair@$$CBHH@_STL@@@2@@_STL@@AAEXXZ
_TEXT	SEGMENT
?_M_empty_initialize@?$_Rb_tree@HU?$pair@$$CBHH@_STL@@U?$_Select1st@U?$pair@$$CBHH@_STL@@@2@U?$less@H@2@V?$allocator@U?$pair@$$CBHH@_STL@@@2@@_STL@@AAEXXZ PROC NEAR ; _STL::_Rb_tree<int,_STL::pair<int const ,int>,_STL::_Select1st<_STL::pair<int const ,int> >,_STL::less<int>,_STL::allocator<_STL::pair<int const ,int> > >::_M_empty_initialize, COMDAT
; _this$ = ecx

; 346  :     _S_color(this->_M_header._M_data) = _S_rb_tree_red; // used to distinguish header from 

  00000	8b 01		 mov	 eax, DWORD PTR [ecx]
  00002	c6 00 00	 mov	 BYTE PTR [eax], 0

; 347  :                                           // __root, in iterator.operator++
; 348  :     _M_root() = 0;

  00005	8b 01		 mov	 eax, DWORD PTR [ecx]
  00007	83 60 04 00	 and	 DWORD PTR [eax+4], 0

; 349  :     _M_leftmost() = this->_M_header._M_data;

  0000b	8b 01		 mov	 eax, DWORD PTR [ecx]
  0000d	89 40 08	 mov	 DWORD PTR [eax+8], eax

; 350  :     _M_rightmost() = this->_M_header._M_data;

  00010	8b 09		 mov	 ecx, DWORD PTR [ecx]
  00012	89 49 0c	 mov	 DWORD PTR [ecx+12], ecx

; 351  :   }

  00015	c3		 ret	 0
?_M_empty_initialize@?$_Rb_tree@HU?$pair@$$CBHH@_STL@@U?$_Select1st@U?$pair@$$CBHH@_STL@@@2@U?$less@H@2@V?$allocator@U?$pair@$$CBHH@_STL@@@2@@_STL@@AAEXXZ ENDP ; _STL::_Rb_tree<int,_STL::pair<int const ,int>,_STL::_Select1st<_STL::pair<int const ,int> >,_STL::less<int>,_STL::allocator<_STL::pair<int const ,int> > >::_M_empty_initialize
_TEXT	ENDS
PUBLIC	?deallocate@?$allocator@U?$_Rb_tree_node@U?$pair@$$CBHH@_STL@@@_STL@@@_STL@@QAEXPAU?$_Rb_tree_node@U?$pair@$$CBHH@_STL@@@2@I@Z ; _STL::allocator<_STL::_Rb_tree_node<_STL::pair<int const ,int> > >::deallocate
; Function compile flags: /Ogsy
; File c:\stlport-4.6.1\stlport\stl\_alloc.h
;	COMDAT ?deallocate@?$allocator@U?$_Rb_tree_node@U?$pair@$$CBHH@_STL@@@_STL@@@_STL@@QAEXPAU?$_Rb_tree_node@U?$pair@$$CBHH@_STL@@@2@I@Z
_TEXT	SEGMENT
___p$ = 8						; size = 4
___n$ = 12						; size = 4
?deallocate@?$allocator@U?$_Rb_tree_node@U?$pair@$$CBHH@_STL@@@_STL@@@_STL@@QAEXPAU?$_Rb_tree_node@U?$pair@$$CBHH@_STL@@@2@I@Z PROC NEAR ; _STL::allocator<_STL::_Rb_tree_node<_STL::pair<int const ,int> > >::deallocate, COMDAT
; _this$ = ecx

; 359  :     _STLP_ASSERT( (__p == 0) == (__n == 0) )
; 360  :       if (__p != 0) __sgi_alloc::deallocate((void*)__p, __n * sizeof(value_type));

  00000	83 7c 24 04 00	 cmp	 DWORD PTR ___p$[esp-4], 0
  00005	74 16		 je	 SHORT $L104932
  00007	8b 44 24 08	 mov	 eax, DWORD PTR ___n$[esp-4]
  0000b	8d 04 40	 lea	 eax, DWORD PTR [eax+eax*2]
  0000e	c1 e0 03	 shl	 eax, 3
  00011	50		 push	 eax
  00012	ff 74 24 08	 push	 DWORD PTR ___p$[esp]
  00016	e8 00 00 00 00	 call	 ?deallocate@?$__node_alloc@$00$0A@@_STL@@SAXPAXI@Z ; _STL::__node_alloc<1,0>::deallocate
  0001b	59		 pop	 ecx
  0001c	59		 pop	 ecx
$L104932:

; 361  :   }

  0001d	c2 08 00	 ret	 8
?deallocate@?$allocator@U?$_Rb_tree_node@U?$pair@$$CBHH@_STL@@@_STL@@@_STL@@QAEXPAU?$_Rb_tree_node@U?$pair@$$CBHH@_STL@@@2@I@Z ENDP ; _STL::allocator<_STL::_Rb_tree_node<_STL::pair<int const ,int> > >::deallocate
_TEXT	ENDS
PUBLIC	??0?$_List_iterator@IU?$_Const_traits@I@_STL@@@_STL@@QAE@PAU?$_List_node@I@1@@Z ; _STL::_List_iterator<unsigned int,_STL::_Const_traits<unsigned int> >::_List_iterator<unsigned int,_STL::_Const_traits<unsigned int> >
; Function compile flags: /Ogsy
; File c:\stlport-4.6.1\stlport\stl\_list.h
;	COMDAT ??0?$_List_iterator@IU?$_Const_traits@I@_STL@@@_STL@@QAE@PAU?$_List_node@I@1@@Z
_TEXT	SEGMENT
___x$ = 8						; size = 4
??0?$_List_iterator@IU?$_Const_traits@I@_STL@@@_STL@@QAE@PAU?$_List_node@I@1@@Z PROC NEAR ; _STL::_List_iterator<unsigned int,_STL::_Const_traits<unsigned int> >::_List_iterator<unsigned int,_STL::_Const_traits<unsigned int> >, COMDAT
; _this$ = ecx

; 126  :   _List_iterator(_Node* __x) : _List_iterator_base(__x) {}

  00000	8b c1		 mov	 eax, ecx
  00002	8b 4c 24 04	 mov	 ecx, DWORD PTR ___x$[esp-4]
  00006	89 08		 mov	 DWORD PTR [eax], ecx
  00008	c2 04 00	 ret	 4
??0?$_List_iterator@IU?$_Const_traits@I@_STL@@@_STL@@QAE@PAU?$_List_node@I@1@@Z ENDP ; _STL::_List_iterator<unsigned int,_STL::_Const_traits<unsigned int> >::_List_iterator<unsigned int,_STL::_Const_traits<unsigned int> >
_TEXT	ENDS
PUBLIC	??0?$_STLP_alloc_proxy@PAU?$_Rb_tree_node@U?$pair@$$CBHH@_STL@@@_STL@@U12@V?$allocator@U?$_Rb_tree_node@U?$pair@$$CBHH@_STL@@@_STL@@@2@@_STL@@QAE@ABV?$allocator@U?$_Rb_tree_node@U?$pair@$$CBHH@_STL@@@_STL@@@1@PAU?$_Rb_tree_node@U?$pair@$$CBHH@_STL@@@1@@Z ; _STL::_STLP_alloc_proxy<_STL::_Rb_tree_node<_STL::pair<int const ,int> > *,_STL::_Rb_tree_node<_STL::pair<int const ,int> >,_STL::allocator<_STL::_Rb_tree_node<_STL::pair<int const ,int> > > >::_STLP_alloc_proxy<_STL::_Rb_tree_node<_STL::pair<int const ,int> > *,_STL::_Rb_tree_node<_STL::pair<int const ,int> >,_STL::allocator<_STL::_Rb_tree_node<_STL::pair<int const ,int> > > >
; Function compile flags: /Ogsy
; File c:\stlport-4.6.1\stlport\stl\_alloc.h
;	COMDAT ??0?$_STLP_alloc_proxy@PAU?$_Rb_tree_node@U?$pair@$$CBHH@_STL@@@_STL@@U12@V?$allocator@U?$_Rb_tree_node@U?$pair@$$CBHH@_STL@@@_STL@@@2@@_STL@@QAE@ABV?$allocator@U?$_Rb_tree_node@U?$pair@$$CBHH@_STL@@@_STL@@@1@PAU?$_Rb_tree_node@U?$pair@$$CBHH@_STL@@@1@@Z
_TEXT	SEGMENT
___a$ = 8						; size = 4
___p$ = 12						; size = 4
??0?$_STLP_alloc_proxy@PAU?$_Rb_tree_node@U?$pair@$$CBHH@_STL@@@_STL@@U12@V?$allocator@U?$_Rb_tree_node@U?$pair@$$CBHH@_STL@@@_STL@@@2@@_STL@@QAE@ABV?$allocator@U?$_Rb_tree_node@U?$pair@$$CBHH@_STL@@@_STL@@@1@PAU?$_Rb_tree_node@U?$pair@$$CBHH@_STL@@@1@@Z PROC NEAR ; _STL::_STLP_alloc_proxy<_STL::_Rb_tree_node<_STL::pair<int const ,int> > *,_STL::_Rb_tree_node<_STL::pair<int const ,int> >,_STL::allocator<_STL::_Rb_tree_node<_STL::pair<int const ,int> > > >::_STLP_alloc_proxy<_STL::_Rb_tree_node<_STL::pair<int const ,int> > *,_STL::_Rb_tree_node<_STL::pair<int const ,int> >,_STL::allocator<_STL::_Rb_tree_node<_STL::pair<int const ,int> > > >, COMDAT
; _this$ = ecx

; 487  :   inline _STLP_alloc_proxy(const _MaybeReboundAlloc& __a, _Value __p) : _MaybeReboundAlloc(__a), _M_data(__p) {}

  00000	8b c1		 mov	 eax, ecx
  00002	8b 4c 24 08	 mov	 ecx, DWORD PTR ___p$[esp-4]
  00006	89 08		 mov	 DWORD PTR [eax], ecx
  00008	c2 08 00	 ret	 8
??0?$_STLP_alloc_proxy@PAU?$_Rb_tree_node@U?$pair@$$CBHH@_STL@@@_STL@@U12@V?$allocator@U?$_Rb_tree_node@U?$pair@$$CBHH@_STL@@@_STL@@@2@@_STL@@QAE@ABV?$allocator@U?$_Rb_tree_node@U?$pair@$$CBHH@_STL@@@_STL@@@1@PAU?$_Rb_tree_node@U?$pair@$$CBHH@_STL@@@1@@Z ENDP ; _STL::_STLP_alloc_proxy<_STL::_Rb_tree_node<_STL::pair<int const ,int> > *,_STL::_Rb_tree_node<_STL::pair<int const ,int> >,_STL::allocator<_STL::_Rb_tree_node<_STL::pair<int const ,int> > > >::_STLP_alloc_proxy<_STL::_Rb_tree_node<_STL::pair<int const ,int> > *,_STL::_Rb_tree_node<_STL::pair<int const ,int> >,_STL::allocator<_STL::_Rb_tree_node<_STL::pair<int const ,int> > > >
_TEXT	ENDS
PUBLIC	?allocate@?$allocator@U?$_Rb_tree_node@U?$pair@$$CBHH@_STL@@@_STL@@@_STL@@QAEPAU?$_Rb_tree_node@U?$pair@$$CBHH@_STL@@@2@IPBX@Z ; _STL::allocator<_STL::_Rb_tree_node<_STL::pair<int const ,int> > >::allocate
; Function compile flags: /Ogsy
;	COMDAT ?allocate@?$allocator@U?$_Rb_tree_node@U?$pair@$$CBHH@_STL@@@_STL@@@_STL@@QAEPAU?$_Rb_tree_node@U?$pair@$$CBHH@_STL@@@2@IPBX@Z
_TEXT	SEGMENT
___n$ = 8						; size = 4
___formal$ = 12						; size = 4
?allocate@?$allocator@U?$_Rb_tree_node@U?$pair@$$CBHH@_STL@@@_STL@@@_STL@@QAEPAU?$_Rb_tree_node@U?$pair@$$CBHH@_STL@@@2@IPBX@Z PROC NEAR ; _STL::allocator<_STL::_Rb_tree_node<_STL::pair<int const ,int> > >::allocate, COMDAT
; _this$ = ecx

; 355  :     return __n != 0 ? __REINTERPRET_CAST(value_type*,__sgi_alloc::allocate(__n * sizeof(value_type))) : 0;

  00000	8b 44 24 04	 mov	 eax, DWORD PTR ___n$[esp-4]
  00004	85 c0		 test	 eax, eax
  00006	74 0f		 je	 SHORT $L107703
  00008	8d 04 40	 lea	 eax, DWORD PTR [eax+eax*2]
  0000b	c1 e0 03	 shl	 eax, 3
  0000e	50		 push	 eax
  0000f	e8 00 00 00 00	 call	 ?allocate@?$__node_alloc@$00$0A@@_STL@@SAPAXI@Z ; _STL::__node_alloc<1,0>::allocate
  00014	59		 pop	 ecx
  00015	eb 02		 jmp	 SHORT $L107704
$L107703:
  00017	33 c0		 xor	 eax, eax
$L107704:

; 356  :   }

  00019	c2 08 00	 ret	 8
?allocate@?$allocator@U?$_Rb_tree_node@U?$pair@$$CBHH@_STL@@@_STL@@@_STL@@QAEPAU?$_Rb_tree_node@U?$pair@$$CBHH@_STL@@@2@IPBX@Z ENDP ; _STL::allocator<_STL::_Rb_tree_node<_STL::pair<int const ,int> > >::allocate
_TEXT	ENDS
PUBLIC	?_S_key@?$_Rb_tree@HU?$pair@$$CBHH@_STL@@U?$_Select1st@U?$pair@$$CBHH@_STL@@@2@U?$less@H@2@V?$allocator@U?$pair@$$CBHH@_STL@@@2@@_STL@@KAABHPAU?$_Rb_tree_node@U?$pair@$$CBHH@_STL@@@2@@Z ; _STL::_Rb_tree<int,_STL::pair<int const ,int>,_STL::_Select1st<_STL::pair<int const ,int> >,_STL::less<int>,_STL::allocator<_STL::pair<int const ,int> > >::_S_key
; Function compile flags: /Ogsy
; File c:\stlport-4.6.1\stlport\stl\_tree.h
;	COMDAT ?_S_key@?$_Rb_tree@HU?$pair@$$CBHH@_STL@@U?$_Select1st@U?$pair@$$CBHH@_STL@@@2@U?$less@H@2@V?$allocator@U?$pair@$$CBHH@_STL@@@2@@_STL@@KAABHPAU?$_Rb_tree_node@U?$pair@$$CBHH@_STL@@@2@@Z
_TEXT	SEGMENT
___x$ = 8						; size = 4
?_S_key@?$_Rb_tree@HU?$pair@$$CBHH@_STL@@U?$_Select1st@U?$pair@$$CBHH@_STL@@@2@U?$less@H@2@V?$allocator@U?$pair@$$CBHH@_STL@@@2@@_STL@@KAABHPAU?$_Rb_tree_node@U?$pair@$$CBHH@_STL@@@2@@Z PROC NEAR ; _STL::_Rb_tree<int,_STL::pair<int const ,int>,_STL::_Select1st<_STL::pair<int const ,int> >,_STL::less<int>,_STL::allocator<_STL::pair<int const ,int> > >::_S_key, COMDAT

; 280  :     { return _KeyOfValue()(_S_value(__x)); }

  00000	8b 44 24 04	 mov	 eax, DWORD PTR ___x$[esp-4]
  00004	83 c0 10	 add	 eax, 16			; 00000010H
  00007	c3		 ret	 0
?_S_key@?$_Rb_tree@HU?$pair@$$CBHH@_STL@@U?$_Select1st@U?$pair@$$CBHH@_STL@@@2@U?$less@H@2@V?$allocator@U?$pair@$$CBHH@_STL@@@2@@_STL@@KAABHPAU?$_Rb_tree_node@U?$pair@$$CBHH@_STL@@@2@@Z ENDP ; _STL::_Rb_tree<int,_STL::pair<int const ,int>,_STL::_Select1st<_STL::pair<int const ,int> >,_STL::less<int>,_STL::allocator<_STL::pair<int const ,int> > >::_S_key
_TEXT	ENDS
PUBLIC	?clear@?$_List_base@IV?$allocator@I@_STL@@@_STL@@QAEXXZ ; _STL::_List_base<unsigned int,_STL::allocator<unsigned int> >::clear
; Function compile flags: /Ogsy
; File c:\stlport-4.6.1\stlport\stl\_list.c
;	COMDAT ?clear@?$_List_base@IV?$allocator@I@_STL@@@_STL@@QAEXXZ
_TEXT	SEGMENT
?clear@?$_List_base@IV?$allocator@I@_STL@@@_STL@@QAEXXZ PROC NEAR ; _STL::_List_base<unsigned int,_STL::allocator<unsigned int> >::clear, COMDAT
; _this$ = ecx

; 68   : {

  00000	56		 push	 esi
  00001	57		 push	 edi
  00002	8b f9		 mov	 edi, ecx

; 69   :   _List_node<_Tp>* __cur = (_List_node<_Tp>*) this->_M_node._M_data->_M_next;

  00004	8b 07		 mov	 eax, DWORD PTR [edi]
  00006	8b 30		 mov	 esi, DWORD PTR [eax]

; 70   :   while (__cur != this->_M_node._M_data) {

  00008	3b f0		 cmp	 esi, eax
  0000a	74 12		 je	 SHORT $L105182
$L105181:

; 71   :     _List_node<_Tp>* __tmp = __cur;

  0000c	8b c6		 mov	 eax, esi

; 72   :     __cur = (_List_node<_Tp>*) __cur->_M_next;

  0000e	8b 36		 mov	 esi, DWORD PTR [esi]

; 73   :     _STLP_STD::_Destroy(&__tmp->_M_data);
; 74   :     this->_M_node.deallocate(__tmp, 1);

  00010	6a 01		 push	 1
  00012	50		 push	 eax
  00013	8b cf		 mov	 ecx, edi
  00015	e8 00 00 00 00	 call	 ?deallocate@?$allocator@U?$_List_node@I@_STL@@@_STL@@QAEXPAU?$_List_node@I@2@I@Z ; _STL::allocator<_STL::_List_node<unsigned int> >::deallocate
  0001a	3b 37		 cmp	 esi, DWORD PTR [edi]
  0001c	75 ee		 jne	 SHORT $L105181
$L105182:

; 75   :   }
; 76   :   this->_M_node._M_data->_M_next = this->_M_node._M_data;

  0001e	8b 07		 mov	 eax, DWORD PTR [edi]
  00020	89 00		 mov	 DWORD PTR [eax], eax

; 77   :   this->_M_node._M_data->_M_prev = this->_M_node._M_data;

  00022	8b 3f		 mov	 edi, DWORD PTR [edi]
  00024	89 7f 04	 mov	 DWORD PTR [edi+4], edi
  00027	5f		 pop	 edi
  00028	5e		 pop	 esi

; 78   : }

  00029	c3		 ret	 0
?clear@?$_List_base@IV?$allocator@I@_STL@@@_STL@@QAEXXZ ENDP ; _STL::_List_base<unsigned int,_STL::allocator<unsigned int> >::clear
_TEXT	ENDS
PUBLIC	?_M_erase@?$_Rb_tree@HU?$pair@$$CBHH@_STL@@U?$_Select1st@U?$pair@$$CBHH@_STL@@@2@U?$less@H@2@V?$allocator@U?$pair@$$CBHH@_STL@@@2@@_STL@@AAEXPAU?$_Rb_tree_node@U?$pair@$$CBHH@_STL@@@2@@Z ; _STL::_Rb_tree<int,_STL::pair<int const ,int>,_STL::_Select1st<_STL::pair<int const ,int> >,_STL::less<int>,_STL::allocator<_STL::pair<int const ,int> > >::_M_erase
; Function compile flags: /Ogsy
; File c:\stlport-4.6.1\stlport\stl\_tree.c
;	COMDAT ?_M_erase@?$_Rb_tree@HU?$pair@$$CBHH@_STL@@U?$_Select1st@U?$pair@$$CBHH@_STL@@@2@U?$less@H@2@V?$allocator@U?$pair@$$CBHH@_STL@@@2@@_STL@@AAEXPAU?$_Rb_tree_node@U?$pair@$$CBHH@_STL@@@2@@Z
_TEXT	SEGMENT
___x$ = 8						; size = 4
?_M_erase@?$_Rb_tree@HU?$pair@$$CBHH@_STL@@U?$_Select1st@U?$pair@$$CBHH@_STL@@@2@U?$less@H@2@V?$allocator@U?$pair@$$CBHH@_STL@@@2@@_STL@@AAEXPAU?$_Rb_tree_node@U?$pair@$$CBHH@_STL@@@2@@Z PROC NEAR ; _STL::_Rb_tree<int,_STL::pair<int const ,int>,_STL::_Select1st<_STL::pair<int const ,int> >,_STL::less<int>,_STL::allocator<_STL::pair<int const ,int> > >::_M_erase, COMDAT
; _this$ = ecx

; 637  : {

  00000	53		 push	 ebx
  00001	56		 push	 esi

; 638  :                                 // erase without rebalancing
; 639  :   while (__x != 0) {

  00002	8b 74 24 0c	 mov	 esi, DWORD PTR ___x$[esp+4]
  00006	85 f6		 test	 esi, esi
  00008	8b d9		 mov	 ebx, ecx
  0000a	74 1f		 je	 SHORT $L105475
  0000c	57		 push	 edi
$L105474:

; 640  :     _M_erase(_S_right(__x));

  0000d	ff 76 0c	 push	 DWORD PTR [esi+12]
  00010	8b cb		 mov	 ecx, ebx
  00012	e8 00 00 00 00	 call	 ?_M_erase@?$_Rb_tree@HU?$pair@$$CBHH@_STL@@U?$_Select1st@U?$pair@$$CBHH@_STL@@@2@U?$less@H@2@V?$allocator@U?$pair@$$CBHH@_STL@@@2@@_STL@@AAEXPAU?$_Rb_tree_node@U?$pair@$$CBHH@_STL@@@2@@Z ; _STL::_Rb_tree<int,_STL::pair<int const ,int>,_STL::_Select1st<_STL::pair<int const ,int> >,_STL::less<int>,_STL::allocator<_STL::pair<int const ,int> > >::_M_erase

; 641  :     _Link_type __y = _S_left(__x);

  00017	8b 7e 08	 mov	 edi, DWORD PTR [esi+8]

; 642  :     _STLP_STD::_Destroy(&__x->_M_value_field);
; 643  :     this->_M_header.deallocate(__x,1);

  0001a	6a 01		 push	 1
  0001c	56		 push	 esi
  0001d	8b cb		 mov	 ecx, ebx
  0001f	e8 00 00 00 00	 call	 ?deallocate@?$allocator@U?$_Rb_tree_node@U?$pair@$$CBHH@_STL@@@_STL@@@_STL@@QAEXPAU?$_Rb_tree_node@U?$pair@$$CBHH@_STL@@@2@I@Z ; _STL::allocator<_STL::_Rb_tree_node<_STL::pair<int const ,int> > >::deallocate
  00024	85 ff		 test	 edi, edi

; 644  :     __x = __y;

  00026	8b f7		 mov	 esi, edi
  00028	75 e3		 jne	 SHORT $L105474
  0002a	5f		 pop	 edi
$L105475:
  0002b	5e		 pop	 esi
  0002c	5b		 pop	 ebx

; 645  :   }
; 646  : }

  0002d	c2 04 00	 ret	 4
?_M_erase@?$_Rb_tree@HU?$pair@$$CBHH@_STL@@U?$_Select1st@U?$pair@$$CBHH@_STL@@@2@U?$less@H@2@V?$allocator@U?$pair@$$CBHH@_STL@@@2@@_STL@@AAEXPAU?$_Rb_tree_node@U?$pair@$$CBHH@_STL@@@2@@Z ENDP ; _STL::_Rb_tree<int,_STL::pair<int const ,int>,_STL::_Select1st<_STL::pair<int const ,int> >,_STL::less<int>,_STL::allocator<_STL::pair<int const ,int> > >::_M_erase
_TEXT	ENDS
PUBLIC	?setstate@?$basic_ios@DV?$char_traits@D@_STL@@@_STL@@QAEXH@Z ; _STL::basic_ios<char,_STL::char_traits<char> >::setstate
; Function compile flags: /Ogsy
; File c:\stlport-4.6.1\stlport\stl\_ios.h
;	COMDAT ?setstate@?$basic_ios@DV?$char_traits@D@_STL@@@_STL@@QAEXH@Z
_TEXT	SEGMENT
___state$ = 8						; size = 4
?setstate@?$basic_ios@DV?$char_traits@D@_STL@@@_STL@@QAEXH@Z PROC NEAR ; _STL::basic_ios<char,_STL::char_traits<char> >::setstate, COMDAT
; _this$ = ecx

; 94   :   void setstate(iostate __state) { this->clear(rdstate() | __state); }

  00000	8b 41 08	 mov	 eax, DWORD PTR [ecx+8]
  00003	0b 44 24 04	 or	 eax, DWORD PTR ___state$[esp-4]
  00007	50		 push	 eax
  00008	e8 00 00 00 00	 call	 ?clear@?$basic_ios@DV?$char_traits@D@_STL@@@_STL@@QAEXH@Z ; _STL::basic_ios<char,_STL::char_traits<char> >::clear
  0000d	c2 04 00	 ret	 4
?setstate@?$basic_ios@DV?$char_traits@D@_STL@@@_STL@@QAEXH@Z ENDP ; _STL::basic_ios<char,_STL::char_traits<char> >::setstate
_TEXT	ENDS
PUBLIC	?flush@?$basic_ostream@DV?$char_traits@D@_STL@@@_STL@@QAEAAV12@XZ ; _STL::basic_ostream<char,_STL::char_traits<char> >::flush
; Function compile flags: /Ogsy
; File c:\stlport-4.6.1\stlport\stl\_ostream.h
;	COMDAT ?flush@?$basic_ostream@DV?$char_traits@D@_STL@@@_STL@@QAEAAV12@XZ
_TEXT	SEGMENT
?flush@?$basic_ostream@DV?$char_traits@D@_STL@@@_STL@@QAEAAV12@XZ PROC NEAR ; _STL::basic_ostream<char,_STL::char_traits<char> >::flush, COMDAT
; _this$ = ecx

; 120  :   _Self& flush() {

  00000	56		 push	 esi
  00001	8b f1		 mov	 esi, ecx

; 121  :     if (this->rdbuf())

  00003	8b 06		 mov	 eax, DWORD PTR [esi]
  00005	8b 40 04	 mov	 eax, DWORD PTR [eax+4]
  00008	8b 4c 30 58	 mov	 ecx, DWORD PTR [eax+esi+88]
  0000c	85 c9		 test	 ecx, ecx
  0000e	74 1d		 je	 SHORT $L107763

; 122  :       if (this->rdbuf()->pubsync() == -1)

  00010	8b 01		 mov	 eax, DWORD PTR [ecx]
  00012	ff 50 10	 call	 DWORD PTR [eax+16]
  00015	83 f8 ff	 cmp	 eax, -1
  00018	75 13		 jne	 SHORT $L107763

; 123  :         this->setstate(ios_base::badbit);

  0001a	8b 06		 mov	 eax, DWORD PTR [esi]
  0001c	8b 48 04	 mov	 ecx, DWORD PTR [eax+4]
  0001f	03 ce		 add	 ecx, esi
  00021	8b 41 08	 mov	 eax, DWORD PTR [ecx+8]
  00024	83 c8 01	 or	 eax, 1
  00027	50		 push	 eax
  00028	e8 00 00 00 00	 call	 ?clear@?$basic_ios@DV?$char_traits@D@_STL@@@_STL@@QAEXH@Z ; _STL::basic_ios<char,_STL::char_traits<char> >::clear
$L107763:

; 124  :     return *this;

  0002d	8b c6		 mov	 eax, esi
  0002f	5e		 pop	 esi

; 125  :   }

  00030	c3		 ret	 0
?flush@?$basic_ostream@DV?$char_traits@D@_STL@@@_STL@@QAEAAV12@XZ ENDP ; _STL::basic_ostream<char,_STL::char_traits<char> >::flush
_TEXT	ENDS
PUBLIC	?begin@?$_Rb_tree@IU?$pair@$$CBIPAVNPC_INFO@@@_STL@@U?$_Select1st@U?$pair@$$CBIPAVNPC_INFO@@@_STL@@@2@U?$less@I@2@V?$allocator@U?$pair@$$CBIPAVNPC_INFO@@@_STL@@@2@@_STL@@QAE?AU?$_Rb_tree_iterator@U?$pair@$$CBIPAVNPC_INFO@@@_STL@@U?$_Nonconst_traits@U?$pair@$$CBIPAVNPC_INFO@@@_STL@@@2@@2@XZ ; _STL::_Rb_tree<unsigned int,_STL::pair<unsigned int const ,NPC_INFO *>,_STL::_Select1st<_STL::pair<unsigned int const ,NPC_INFO *> >,_STL::less<unsigned int>,_STL::allocator<_STL::pair<unsigned int const ,NPC_INFO *> > >::begin
; Function compile flags: /Ogsy
; File c:\stlport-4.6.1\stlport\stl\_tree.h
;	COMDAT ?begin@?$_Rb_tree@IU?$pair@$$CBIPAVNPC_INFO@@@_STL@@U?$_Select1st@U?$pair@$$CBIPAVNPC_INFO@@@_STL@@@2@U?$less@I@2@V?$allocator@U?$pair@$$CBIPAVNPC_INFO@@@_STL@@@2@@_STL@@QAE?AU?$_Rb_tree_iterator@U?$pair@$$CBIPAVNPC_INFO@@@_STL@@U?$_Nonconst_traits@U?$pair@$$CBIPAVNPC_INFO@@@_STL@@@2@@2@XZ
_TEXT	SEGMENT
___$ReturnUdt$ = 8					; size = 4
?begin@?$_Rb_tree@IU?$pair@$$CBIPAVNPC_INFO@@@_STL@@U?$_Select1st@U?$pair@$$CBIPAVNPC_INFO@@@_STL@@@2@U?$less@I@2@V?$allocator@U?$pair@$$CBIPAVNPC_INFO@@@_STL@@@2@@_STL@@QAE?AU?$_Rb_tree_iterator@U?$pair@$$CBIPAVNPC_INFO@@@_STL@@U?$_Nonconst_traits@U?$pair@$$CBIPAVNPC_INFO@@@_STL@@@2@@2@XZ PROC NEAR ; _STL::_Rb_tree<unsigned int,_STL::pair<unsigned int const ,NPC_INFO *>,_STL::_Select1st<_STL::pair<unsigned int const ,NPC_INFO *> >,_STL::less<unsigned int>,_STL::allocator<_STL::pair<unsigned int const ,NPC_INFO *> > >::begin, COMDAT
; _this$ = ecx

; 357  :   iterator begin() { return iterator(_M_leftmost()); }

  00000	8b 01		 mov	 eax, DWORD PTR [ecx]
  00002	8b 48 08	 mov	 ecx, DWORD PTR [eax+8]
  00005	8b 44 24 04	 mov	 eax, DWORD PTR ___$ReturnUdt$[esp-4]
  00009	89 08		 mov	 DWORD PTR [eax], ecx
  0000b	c2 04 00	 ret	 4
?begin@?$_Rb_tree@IU?$pair@$$CBIPAVNPC_INFO@@@_STL@@U?$_Select1st@U?$pair@$$CBIPAVNPC_INFO@@@_STL@@@2@U?$less@I@2@V?$allocator@U?$pair@$$CBIPAVNPC_INFO@@@_STL@@@2@@_STL@@QAE?AU?$_Rb_tree_iterator@U?$pair@$$CBIPAVNPC_INFO@@@_STL@@U?$_Nonconst_traits@U?$pair@$$CBIPAVNPC_INFO@@@_STL@@@2@@2@XZ ENDP ; _STL::_Rb_tree<unsigned int,_STL::pair<unsigned int const ,NPC_INFO *>,_STL::_Select1st<_STL::pair<unsigned int const ,NPC_INFO *> >,_STL::less<unsigned int>,_STL::allocator<_STL::pair<unsigned int const ,NPC_INFO *> > >::begin
_TEXT	ENDS
PUBLIC	?end@?$_Rb_tree@IU?$pair@$$CBIPAVNPC_INFO@@@_STL@@U?$_Select1st@U?$pair@$$CBIPAVNPC_INFO@@@_STL@@@2@U?$less@I@2@V?$allocator@U?$pair@$$CBIPAVNPC_INFO@@@_STL@@@2@@_STL@@QAE?AU?$_Rb_tree_iterator@U?$pair@$$CBIPAVNPC_INFO@@@_STL@@U?$_Nonconst_traits@U?$pair@$$CBIPAVNPC_INFO@@@_STL@@@2@@2@XZ ; _STL::_Rb_tree<unsigned int,_STL::pair<unsigned int const ,NPC_INFO *>,_STL::_Select1st<_STL::pair<unsigned int const ,NPC_INFO *> >,_STL::less<unsigned int>,_STL::allocator<_STL::pair<unsigned int const ,NPC_INFO *> > >::end
; Function compile flags: /Ogsy
;	COMDAT ?end@?$_Rb_tree@IU?$pair@$$CBIPAVNPC_INFO@@@_STL@@U?$_Select1st@U?$pair@$$CBIPAVNPC_INFO@@@_STL@@@2@U?$less@I@2@V?$allocator@U?$pair@$$CBIPAVNPC_INFO@@@_STL@@@2@@_STL@@QAE?AU?$_Rb_tree_iterator@U?$pair@$$CBIPAVNPC_INFO@@@_STL@@U?$_Nonconst_traits@U?$pair@$$CBIPAVNPC_INFO@@@_STL@@@2@@2@XZ
_TEXT	SEGMENT
___$ReturnUdt$ = 8					; size = 4
?end@?$_Rb_tree@IU?$pair@$$CBIPAVNPC_INFO@@@_STL@@U?$_Select1st@U?$pair@$$CBIPAVNPC_INFO@@@_STL@@@2@U?$less@I@2@V?$allocator@U?$pair@$$CBIPAVNPC_INFO@@@_STL@@@2@@_STL@@QAE?AU?$_Rb_tree_iterator@U?$pair@$$CBIPAVNPC_INFO@@@_STL@@U?$_Nonconst_traits@U?$pair@$$CBIPAVNPC_INFO@@@_STL@@@2@@2@XZ PROC NEAR ; _STL::_Rb_tree<unsigned int,_STL::pair<unsigned int const ,NPC_INFO *>,_STL::_Select1st<_STL::pair<unsigned int const ,NPC_INFO *> >,_STL::less<unsigned int>,_STL::allocator<_STL::pair<unsigned int const ,NPC_INFO *> > >::end, COMDAT
; _this$ = ecx

; 359  :   iterator end() { return iterator(this->_M_header._M_data); }

  00000	8b 09		 mov	 ecx, DWORD PTR [ecx]
  00002	8b 44 24 04	 mov	 eax, DWORD PTR ___$ReturnUdt$[esp-4]
  00006	89 08		 mov	 DWORD PTR [eax], ecx
  00008	c2 04 00	 ret	 4
?end@?$_Rb_tree@IU?$pair@$$CBIPAVNPC_INFO@@@_STL@@U?$_Select1st@U?$pair@$$CBIPAVNPC_INFO@@@_STL@@@2@U?$less@I@2@V?$allocator@U?$pair@$$CBIPAVNPC_INFO@@@_STL@@@2@@_STL@@QAE?AU?$_Rb_tree_iterator@U?$pair@$$CBIPAVNPC_INFO@@@_STL@@U?$_Nonconst_traits@U?$pair@$$CBIPAVNPC_INFO@@@_STL@@@2@@2@XZ ENDP ; _STL::_Rb_tree<unsigned int,_STL::pair<unsigned int const ,NPC_INFO *>,_STL::_Select1st<_STL::pair<unsigned int const ,NPC_INFO *> >,_STL::less<unsigned int>,_STL::allocator<_STL::pair<unsigned int const ,NPC_INFO *> > >::end
_TEXT	ENDS
PUBLIC	??1?$_STLP_alloc_proxy@PAU?$_Rb_tree_node@U?$pair@$$CBIPAVNPC_INFO@@@_STL@@@_STL@@U12@V?$allocator@U?$_Rb_tree_node@U?$pair@$$CBIPAVNPC_INFO@@@_STL@@@_STL@@@2@@_STL@@QAE@XZ ; _STL::_STLP_alloc_proxy<_STL::_Rb_tree_node<_STL::pair<unsigned int const ,NPC_INFO *> > *,_STL::_Rb_tree_node<_STL::pair<unsigned int const ,NPC_INFO *> >,_STL::allocator<_STL::_Rb_tree_node<_STL::pair<unsigned int const ,NPC_INFO *> > > >::~_STLP_alloc_proxy<_STL::_Rb_tree_node<_STL::pair<unsigned int const ,NPC_INFO *> > *,_STL::_Rb_tree_node<_STL::pair<unsigned int const ,NPC_INFO *> >,_STL::allocator<_STL::_Rb_tree_node<_STL::pair<unsigned int const ,NPC_INFO *> > > >
; Function compile flags: /Ogsy
;	COMDAT ??1?$_STLP_alloc_proxy@PAU?$_Rb_tree_node@U?$pair@$$CBIPAVNPC_INFO@@@_STL@@@_STL@@U12@V?$allocator@U?$_Rb_tree_node@U?$pair@$$CBIPAVNPC_INFO@@@_STL@@@_STL@@@2@@_STL@@QAE@XZ
_TEXT	SEGMENT
??1?$_STLP_alloc_proxy@PAU?$_Rb_tree_node@U?$pair@$$CBIPAVNPC_INFO@@@_STL@@@_STL@@U12@V?$allocator@U?$_Rb_tree_node@U?$pair@$$CBIPAVNPC_INFO@@@_STL@@@_STL@@@2@@_STL@@QAE@XZ PROC NEAR ; _STL::_STLP_alloc_proxy<_STL::_Rb_tree_node<_STL::pair<unsigned int const ,NPC_INFO *> > *,_STL::_Rb_tree_node<_STL::pair<unsigned int const ,NPC_INFO *> >,_STL::allocator<_STL::_Rb_tree_node<_STL::pair<unsigned int const ,NPC_INFO *> > > >::~_STLP_alloc_proxy<_STL::_Rb_tree_node<_STL::pair<unsigned int const ,NPC_INFO *> > *,_STL::_Rb_tree_node<_STL::pair<unsigned int const ,NPC_INFO *> >,_STL::allocator<_STL::_Rb_tree_node<_STL::pair<unsigned int const ,NPC_INFO *> > > >, COMDAT
; _this$ = ecx
  00000	c3		 ret	 0
??1?$_STLP_alloc_proxy@PAU?$_Rb_tree_node@U?$pair@$$CBIPAVNPC_INFO@@@_STL@@@_STL@@U12@V?$allocator@U?$_Rb_tree_node@U?$pair@$$CBIPAVNPC_INFO@@@_STL@@@_STL@@@2@@_STL@@QAE@XZ ENDP ; _STL::_STLP_alloc_proxy<_STL::_Rb_tree_node<_STL::pair<unsigned int const ,NPC_INFO *> > *,_STL::_Rb_tree_node<_STL::pair<unsigned int const ,NPC_INFO *> >,_STL::allocator<_STL::_Rb_tree_node<_STL::pair<unsigned int const ,NPC_INFO *> > > >::~_STLP_alloc_proxy<_STL::_Rb_tree_node<_STL::pair<unsigned int const ,NPC_INFO *> > *,_STL::_Rb_tree_node<_STL::pair<unsigned int const ,NPC_INFO *> >,_STL::allocator<_STL::_Rb_tree_node<_STL::pair<unsigned int const ,NPC_INFO *> > > >
_TEXT	ENDS
PUBLIC	??1?$_STLP_alloc_proxy@PAU?$_Rb_tree_node@U?$pair@$$CBIPAVSERVERNPC_INFO@@@_STL@@@_STL@@U12@V?$allocator@U?$_Rb_tree_node@U?$pair@$$CBIPAVSERVERNPC_INFO@@@_STL@@@_STL@@@2@@_STL@@QAE@XZ ; _STL::_STLP_alloc_proxy<_STL::_Rb_tree_node<_STL::pair<unsigned int const ,SERVERNPC_INFO *> > *,_STL::_Rb_tree_node<_STL::pair<unsigned int const ,SERVERNPC_INFO *> >,_STL::allocator<_STL::_Rb_tree_node<_STL::pair<unsigned int const ,SERVERNPC_INFO *> > > >::~_STLP_alloc_proxy<_STL::_Rb_tree_node<_STL::pair<unsigned int const ,SERVERNPC_INFO *> > *,_STL::_Rb_tree_node<_STL::pair<unsigned int const ,SERVERNPC_INFO *> >,_STL::allocator<_STL::_Rb_tree_node<_STL::pair<unsigned int const ,SERVERNPC_INFO *> > > >
; Function compile flags: /Ogsy
;	COMDAT ??1?$_STLP_alloc_proxy@PAU?$_Rb_tree_node@U?$pair@$$CBIPAVSERVERNPC_INFO@@@_STL@@@_STL@@U12@V?$allocator@U?$_Rb_tree_node@U?$pair@$$CBIPAVSERVERNPC_INFO@@@_STL@@@_STL@@@2@@_STL@@QAE@XZ
_TEXT	SEGMENT
??1?$_STLP_alloc_proxy@PAU?$_Rb_tree_node@U?$pair@$$CBIPAVSERVERNPC_INFO@@@_STL@@@_STL@@U12@V?$allocator@U?$_Rb_tree_node@U?$pair@$$CBIPAVSERVERNPC_INFO@@@_STL@@@_STL@@@2@@_STL@@QAE@XZ PROC NEAR ; _STL::_STLP_alloc_proxy<_STL::_Rb_tree_node<_STL::pair<unsigned int const ,SERVERNPC_INFO *> > *,_STL::_Rb_tree_node<_STL::pair<unsigned int const ,SERVERNPC_INFO *> >,_STL::allocator<_STL::_Rb_tree_node<_STL::pair<unsigned int const ,SERVERNPC_INFO *> > > >::~_STLP_alloc_proxy<_STL::_Rb_tree_node<_STL::pair<unsigned int const ,SERVERNPC_INFO *> > *,_STL::_Rb_tree_node<_STL::pair<unsigned int const ,SERVERNPC_INFO *> >,_STL::allocator<_STL::_Rb_tree_node<_STL::pair<unsigned int const ,SERVERNPC_INFO *> > > >, COMDAT
; _this$ = ecx
  00000	c3		 ret	 0
??1?$_STLP_alloc_proxy@PAU?$_Rb_tree_node@U?$pair@$$CBIPAVSERVERNPC_INFO@@@_STL@@@_STL@@U12@V?$allocator@U?$_Rb_tree_node@U?$pair@$$CBIPAVSERVERNPC_INFO@@@_STL@@@_STL@@@2@@_STL@@QAE@XZ ENDP ; _STL::_STLP_alloc_proxy<_STL::_Rb_tree_node<_STL::pair<unsigned int const ,SERVERNPC_INFO *> > *,_STL::_Rb_tree_node<_STL::pair<unsigned int const ,SERVERNPC_INFO *> >,_STL::allocator<_STL::_Rb_tree_node<_STL::pair<unsigned int const ,SERVERNPC_INFO *> > > >::~_STLP_alloc_proxy<_STL::_Rb_tree_node<_STL::pair<unsigned int const ,SERVERNPC_INFO *> > *,_STL::_Rb_tree_node<_STL::pair<unsigned int const ,SERVERNPC_INFO *> >,_STL::allocator<_STL::_Rb_tree_node<_STL::pair<unsigned int const ,SERVERNPC_INFO *> > > >
_TEXT	ENDS
PUBLIC	?_M_empty_initialize@?$_Rb_tree@IU?$pair@$$CBIPAVNPC_INFO@@@_STL@@U?$_Select1st@U?$pair@$$CBIPAVNPC_INFO@@@_STL@@@2@U?$less@I@2@V?$allocator@U?$pair@$$CBIPAVNPC_INFO@@@_STL@@@2@@_STL@@AAEXXZ ; _STL::_Rb_tree<unsigned int,_STL::pair<unsigned int const ,NPC_INFO *>,_STL::_Select1st<_STL::pair<unsigned int const ,NPC_INFO *> >,_STL::less<unsigned int>,_STL::allocator<_STL::pair<unsigned int const ,NPC_INFO *> > >::_M_empty_initialize
; Function compile flags: /Ogsy
;	COMDAT ?_M_empty_initialize@?$_Rb_tree@IU?$pair@$$CBIPAVNPC_INFO@@@_STL@@U?$_Select1st@U?$pair@$$CBIPAVNPC_INFO@@@_STL@@@2@U?$less@I@2@V?$allocator@U?$pair@$$CBIPAVNPC_INFO@@@_STL@@@2@@_STL@@AAEXXZ
_TEXT	SEGMENT
?_M_empty_initialize@?$_Rb_tree@IU?$pair@$$CBIPAVNPC_INFO@@@_STL@@U?$_Select1st@U?$pair@$$CBIPAVNPC_INFO@@@_STL@@@2@U?$less@I@2@V?$allocator@U?$pair@$$CBIPAVNPC_INFO@@@_STL@@@2@@_STL@@AAEXXZ PROC NEAR ; _STL::_Rb_tree<unsigned int,_STL::pair<unsigned int const ,NPC_INFO *>,_STL::_Select1st<_STL::pair<unsigned int const ,NPC_INFO *> >,_STL::less<unsigned int>,_STL::allocator<_STL::pair<unsigned int const ,NPC_INFO *> > >::_M_empty_initialize, COMDAT
; _this$ = ecx

; 346  :     _S_color(this->_M_header._M_data) = _S_rb_tree_red; // used to distinguish header from 

  00000	8b 01		 mov	 eax, DWORD PTR [ecx]
  00002	c6 00 00	 mov	 BYTE PTR [eax], 0

; 347  :                                           // __root, in iterator.operator++
; 348  :     _M_root() = 0;

  00005	8b 01		 mov	 eax, DWORD PTR [ecx]
  00007	83 60 04 00	 and	 DWORD PTR [eax+4], 0

; 349  :     _M_leftmost() = this->_M_header._M_data;

  0000b	8b 01		 mov	 eax, DWORD PTR [ecx]
  0000d	89 40 08	 mov	 DWORD PTR [eax+8], eax

; 350  :     _M_rightmost() = this->_M_header._M_data;

  00010	8b 09		 mov	 ecx, DWORD PTR [ecx]
  00012	89 49 0c	 mov	 DWORD PTR [ecx+12], ecx

; 351  :   }

  00015	c3		 ret	 0
?_M_empty_initialize@?$_Rb_tree@IU?$pair@$$CBIPAVNPC_INFO@@@_STL@@U?$_Select1st@U?$pair@$$CBIPAVNPC_INFO@@@_STL@@@2@U?$less@I@2@V?$allocator@U?$pair@$$CBIPAVNPC_INFO@@@_STL@@@2@@_STL@@AAEXXZ ENDP ; _STL::_Rb_tree<unsigned int,_STL::pair<unsigned int const ,NPC_INFO *>,_STL::_Select1st<_STL::pair<unsigned int const ,NPC_INFO *> >,_STL::less<unsigned int>,_STL::allocator<_STL::pair<unsigned int const ,NPC_INFO *> > >::_M_empty_initialize
_TEXT	ENDS
PUBLIC	?deallocate@?$allocator@U?$_Rb_tree_node@U?$pair@$$CBIPAVNPC_INFO@@@_STL@@@_STL@@@_STL@@QAEXPAU?$_Rb_tree_node@U?$pair@$$CBIPAVNPC_INFO@@@_STL@@@2@I@Z ; _STL::allocator<_STL::_Rb_tree_node<_STL::pair<unsigned int const ,NPC_INFO *> > >::deallocate
; Function compile flags: /Ogsy
; File c:\stlport-4.6.1\stlport\stl\_alloc.h
;	COMDAT ?deallocate@?$allocator@U?$_Rb_tree_node@U?$pair@$$CBIPAVNPC_INFO@@@_STL@@@_STL@@@_STL@@QAEXPAU?$_Rb_tree_node@U?$pair@$$CBIPAVNPC_INFO@@@_STL@@@2@I@Z
_TEXT	SEGMENT
___p$ = 8						; size = 4
___n$ = 12						; size = 4
?deallocate@?$allocator@U?$_Rb_tree_node@U?$pair@$$CBIPAVNPC_INFO@@@_STL@@@_STL@@@_STL@@QAEXPAU?$_Rb_tree_node@U?$pair@$$CBIPAVNPC_INFO@@@_STL@@@2@I@Z PROC NEAR ; _STL::allocator<_STL::_Rb_tree_node<_STL::pair<unsigned int const ,NPC_INFO *> > >::deallocate, COMDAT
; _this$ = ecx

; 359  :     _STLP_ASSERT( (__p == 0) == (__n == 0) )
; 360  :       if (__p != 0) __sgi_alloc::deallocate((void*)__p, __n * sizeof(value_type));

  00000	83 7c 24 04 00	 cmp	 DWORD PTR ___p$[esp-4], 0
  00005	74 16		 je	 SHORT $L105843
  00007	8b 44 24 08	 mov	 eax, DWORD PTR ___n$[esp-4]
  0000b	8d 04 40	 lea	 eax, DWORD PTR [eax+eax*2]
  0000e	c1 e0 03	 shl	 eax, 3
  00011	50		 push	 eax
  00012	ff 74 24 08	 push	 DWORD PTR ___p$[esp]
  00016	e8 00 00 00 00	 call	 ?deallocate@?$__node_alloc@$00$0A@@_STL@@SAXPAXI@Z ; _STL::__node_alloc<1,0>::deallocate
  0001b	59		 pop	 ecx
  0001c	59		 pop	 ecx
$L105843:

; 361  :   }

  0001d	c2 08 00	 ret	 8
?deallocate@?$allocator@U?$_Rb_tree_node@U?$pair@$$CBIPAVNPC_INFO@@@_STL@@@_STL@@@_STL@@QAEXPAU?$_Rb_tree_node@U?$pair@$$CBIPAVNPC_INFO@@@_STL@@@2@I@Z ENDP ; _STL::allocator<_STL::_Rb_tree_node<_STL::pair<unsigned int const ,NPC_INFO *> > >::deallocate
_TEXT	ENDS
PUBLIC	?_M_empty_initialize@?$_Rb_tree@IU?$pair@$$CBIPAVSERVERNPC_INFO@@@_STL@@U?$_Select1st@U?$pair@$$CBIPAVSERVERNPC_INFO@@@_STL@@@2@U?$less@I@2@V?$allocator@U?$pair@$$CBIPAVSERVERNPC_INFO@@@_STL@@@2@@_STL@@AAEXXZ ; _STL::_Rb_tree<unsigned int,_STL::pair<unsigned int const ,SERVERNPC_INFO *>,_STL::_Select1st<_STL::pair<unsigned int const ,SERVERNPC_INFO *> >,_STL::less<unsigned int>,_STL::allocator<_STL::pair<unsigned int const ,SERVERNPC_INFO *> > >::_M_empty_initialize
; Function compile flags: /Ogsy
; File c:\stlport-4.6.1\stlport\stl\_tree.h
;	COMDAT ?_M_empty_initialize@?$_Rb_tree@IU?$pair@$$CBIPAVSERVERNPC_INFO@@@_STL@@U?$_Select1st@U?$pair@$$CBIPAVSERVERNPC_INFO@@@_STL@@@2@U?$less@I@2@V?$allocator@U?$pair@$$CBIPAVSERVERNPC_INFO@@@_STL@@@2@@_STL@@AAEXXZ
_TEXT	SEGMENT
?_M_empty_initialize@?$_Rb_tree@IU?$pair@$$CBIPAVSERVERNPC_INFO@@@_STL@@U?$_Select1st@U?$pair@$$CBIPAVSERVERNPC_INFO@@@_STL@@@2@U?$less@I@2@V?$allocator@U?$pair@$$CBIPAVSERVERNPC_INFO@@@_STL@@@2@@_STL@@AAEXXZ PROC NEAR ; _STL::_Rb_tree<unsigned int,_STL::pair<unsigned int const ,SERVERNPC_INFO *>,_STL::_Select1st<_STL::pair<unsigned int const ,SERVERNPC_INFO *> >,_STL::less<unsigned int>,_STL::allocator<_STL::pair<unsigned int const ,SERVERNPC_INFO *> > >::_M_empty_initialize, COMDAT
; _this$ = ecx

; 346  :     _S_color(this->_M_header._M_data) = _S_rb_tree_red; // used to distinguish header from 

  00000	8b 01		 mov	 eax, DWORD PTR [ecx]
  00002	c6 00 00	 mov	 BYTE PTR [eax], 0

; 347  :                                           // __root, in iterator.operator++
; 348  :     _M_root() = 0;

  00005	8b 01		 mov	 eax, DWORD PTR [ecx]
  00007	83 60 04 00	 and	 DWORD PTR [eax+4], 0

; 349  :     _M_leftmost() = this->_M_header._M_data;

  0000b	8b 01		 mov	 eax, DWORD PTR [ecx]
  0000d	89 40 08	 mov	 DWORD PTR [eax+8], eax

; 350  :     _M_rightmost() = this->_M_header._M_data;

  00010	8b 09		 mov	 ecx, DWORD PTR [ecx]
  00012	89 49 0c	 mov	 DWORD PTR [ecx+12], ecx

; 351  :   }

  00015	c3		 ret	 0
?_M_empty_initialize@?$_Rb_tree@IU?$pair@$$CBIPAVSERVERNPC_INFO@@@_STL@@U?$_Select1st@U?$pair@$$CBIPAVSERVERNPC_INFO@@@_STL@@@2@U?$less@I@2@V?$allocator@U?$pair@$$CBIPAVSERVERNPC_INFO@@@_STL@@@2@@_STL@@AAEXXZ ENDP ; _STL::_Rb_tree<unsigned int,_STL::pair<unsigned int const ,SERVERNPC_INFO *>,_STL::_Select1st<_STL::pair<unsigned int const ,SERVERNPC_INFO *> >,_STL::less<unsigned int>,_STL::allocator<_STL::pair<unsigned int const ,SERVERNPC_INFO *> > >::_M_empty_initialize
_TEXT	ENDS
PUBLIC	?deallocate@?$allocator@U?$_Rb_tree_node@U?$pair@$$CBIPAVSERVERNPC_INFO@@@_STL@@@_STL@@@_STL@@QAEXPAU?$_Rb_tree_node@U?$pair@$$CBIPAVSERVERNPC_INFO@@@_STL@@@2@I@Z ; _STL::allocator<_STL::_Rb_tree_node<_STL::pair<unsigned int const ,SERVERNPC_INFO *> > >::deallocate
; Function compile flags: /Ogsy
; File c:\stlport-4.6.1\stlport\stl\_alloc.h
;	COMDAT ?deallocate@?$allocator@U?$_Rb_tree_node@U?$pair@$$CBIPAVSERVERNPC_INFO@@@_STL@@@_STL@@@_STL@@QAEXPAU?$_Rb_tree_node@U?$pair@$$CBIPAVSERVERNPC_INFO@@@_STL@@@2@I@Z
_TEXT	SEGMENT
___p$ = 8						; size = 4
___n$ = 12						; size = 4
?deallocate@?$allocator@U?$_Rb_tree_node@U?$pair@$$CBIPAVSERVERNPC_INFO@@@_STL@@@_STL@@@_STL@@QAEXPAU?$_Rb_tree_node@U?$pair@$$CBIPAVSERVERNPC_INFO@@@_STL@@@2@I@Z PROC NEAR ; _STL::allocator<_STL::_Rb_tree_node<_STL::pair<unsigned int const ,SERVERNPC_INFO *> > >::deallocate, COMDAT
; _this$ = ecx

; 359  :     _STLP_ASSERT( (__p == 0) == (__n == 0) )
; 360  :       if (__p != 0) __sgi_alloc::deallocate((void*)__p, __n * sizeof(value_type));

  00000	83 7c 24 04 00	 cmp	 DWORD PTR ___p$[esp-4], 0
  00005	74 16		 je	 SHORT $L105865
  00007	8b 44 24 08	 mov	 eax, DWORD PTR ___n$[esp-4]
  0000b	8d 04 40	 lea	 eax, DWORD PTR [eax+eax*2]
  0000e	c1 e0 03	 shl	 eax, 3
  00011	50		 push	 eax
  00012	ff 74 24 08	 push	 DWORD PTR ___p$[esp]
  00016	e8 00 00 00 00	 call	 ?deallocate@?$__node_alloc@$00$0A@@_STL@@SAXPAXI@Z ; _STL::__node_alloc<1,0>::deallocate
  0001b	59		 pop	 ecx
  0001c	59		 pop	 ecx
$L105865:

; 361  :   }

  0001d	c2 08 00	 ret	 8
?deallocate@?$allocator@U?$_Rb_tree_node@U?$pair@$$CBIPAVSERVERNPC_INFO@@@_STL@@@_STL@@@_STL@@QAEXPAU?$_Rb_tree_node@U?$pair@$$CBIPAVSERVERNPC_INFO@@@_STL@@@2@I@Z ENDP ; _STL::allocator<_STL::_Rb_tree_node<_STL::pair<unsigned int const ,SERVERNPC_INFO *> > >::deallocate
_TEXT	ENDS
PUBLIC	??0?$_STLP_alloc_proxy@PAU?$_Rb_tree_node@U?$pair@$$CBIPAVNPC_INFO@@@_STL@@@_STL@@U12@V?$allocator@U?$_Rb_tree_node@U?$pair@$$CBIPAVNPC_INFO@@@_STL@@@_STL@@@2@@_STL@@QAE@ABV?$allocator@U?$_Rb_tree_node@U?$pair@$$CBIPAVNPC_INFO@@@_STL@@@_STL@@@1@PAU?$_Rb_tree_node@U?$pair@$$CBIPAVNPC_INFO@@@_STL@@@1@@Z ; _STL::_STLP_alloc_proxy<_STL::_Rb_tree_node<_STL::pair<unsigned int const ,NPC_INFO *> > *,_STL::_Rb_tree_node<_STL::pair<unsigned int const ,NPC_INFO *> >,_STL::allocator<_STL::_Rb_tree_node<_STL::pair<unsigned int const ,NPC_INFO *> > > >::_STLP_alloc_proxy<_STL::_Rb_tree_node<_STL::pair<unsigned int const ,NPC_INFO *> > *,_STL::_Rb_tree_node<_STL::pair<unsigned int const ,NPC_INFO *> >,_STL::allocator<_STL::_Rb_tree_node<_STL::pair<unsigned int const ,NPC_INFO *> > > >
; Function compile flags: /Ogsy
;	COMDAT ??0?$_STLP_alloc_proxy@PAU?$_Rb_tree_node@U?$pair@$$CBIPAVNPC_INFO@@@_STL@@@_STL@@U12@V?$allocator@U?$_Rb_tree_node@U?$pair@$$CBIPAVNPC_INFO@@@_STL@@@_STL@@@2@@_STL@@QAE@ABV?$allocator@U?$_Rb_tree_node@U?$pair@$$CBIPAVNPC_INFO@@@_STL@@@_STL@@@1@PAU?$_Rb_tree_node@U?$pair@$$CBIPAVNPC_INFO@@@_STL@@@1@@Z
_TEXT	SEGMENT
___a$ = 8						; size = 4
___p$ = 12						; size = 4
??0?$_STLP_alloc_proxy@PAU?$_Rb_tree_node@U?$pair@$$CBIPAVNPC_INFO@@@_STL@@@_STL@@U12@V?$allocator@U?$_Rb_tree_node@U?$pair@$$CBIPAVNPC_INFO@@@_STL@@@_STL@@@2@@_STL@@QAE@ABV?$allocator@U?$_Rb_tree_node@U?$pair@$$CBIPAVNPC_INFO@@@_STL@@@_STL@@@1@PAU?$_Rb_tree_node@U?$pair@$$CBIPAVNPC_INFO@@@_STL@@@1@@Z PROC NEAR ; _STL::_STLP_alloc_proxy<_STL::_Rb_tree_node<_STL::pair<unsigned int const ,NPC_INFO *> > *,_STL::_Rb_tree_node<_STL::pair<unsigned int const ,NPC_INFO *> >,_STL::allocator<_STL::_Rb_tree_node<_STL::pair<unsigned int const ,NPC_INFO *> > > >::_STLP_alloc_proxy<_STL::_Rb_tree_node<_STL::pair<unsigned int const ,NPC_INFO *> > *,_STL::_Rb_tree_node<_STL::pair<unsigned int const ,NPC_INFO *> >,_STL::allocator<_STL::_Rb_tree_node<_STL::pair<unsigned int const ,NPC_INFO *> > > >, COMDAT
; _this$ = ecx

; 487  :   inline _STLP_alloc_proxy(const _MaybeReboundAlloc& __a, _Value __p) : _MaybeReboundAlloc(__a), _M_data(__p) {}

  00000	8b c1		 mov	 eax, ecx
  00002	8b 4c 24 08	 mov	 ecx, DWORD PTR ___p$[esp-4]
  00006	89 08		 mov	 DWORD PTR [eax], ecx
  00008	c2 08 00	 ret	 8
??0?$_STLP_alloc_proxy@PAU?$_Rb_tree_node@U?$pair@$$CBIPAVNPC_INFO@@@_STL@@@_STL@@U12@V?$allocator@U?$_Rb_tree_node@U?$pair@$$CBIPAVNPC_INFO@@@_STL@@@_STL@@@2@@_STL@@QAE@ABV?$allocator@U?$_Rb_tree_node@U?$pair@$$CBIPAVNPC_INFO@@@_STL@@@_STL@@@1@PAU?$_Rb_tree_node@U?$pair@$$CBIPAVNPC_INFO@@@_STL@@@1@@Z ENDP ; _STL::_STLP_alloc_proxy<_STL::_Rb_tree_node<_STL::pair<unsigned int const ,NPC_INFO *> > *,_STL::_Rb_tree_node<_STL::pair<unsigned int const ,NPC_INFO *> >,_STL::allocator<_STL::_Rb_tree_node<_STL::pair<unsigned int const ,NPC_INFO *> > > >::_STLP_alloc_proxy<_STL::_Rb_tree_node<_STL::pair<unsigned int const ,NPC_INFO *> > *,_STL::_Rb_tree_node<_STL::pair<unsigned int const ,NPC_INFO *> >,_STL::allocator<_STL::_Rb_tree_node<_STL::pair<unsigned int const ,NPC_INFO *> > > >
_TEXT	ENDS
PUBLIC	?allocate@?$allocator@U?$_Rb_tree_node@U?$pair@$$CBIPAVNPC_INFO@@@_STL@@@_STL@@@_STL@@QAEPAU?$_Rb_tree_node@U?$pair@$$CBIPAVNPC_INFO@@@_STL@@@2@IPBX@Z ; _STL::allocator<_STL::_Rb_tree_node<_STL::pair<unsigned int const ,NPC_INFO *> > >::allocate
; Function compile flags: /Ogsy
;	COMDAT ?allocate@?$allocator@U?$_Rb_tree_node@U?$pair@$$CBIPAVNPC_INFO@@@_STL@@@_STL@@@_STL@@QAEPAU?$_Rb_tree_node@U?$pair@$$CBIPAVNPC_INFO@@@_STL@@@2@IPBX@Z
_TEXT	SEGMENT
___n$ = 8						; size = 4
___formal$ = 12						; size = 4
?allocate@?$allocator@U?$_Rb_tree_node@U?$pair@$$CBIPAVNPC_INFO@@@_STL@@@_STL@@@_STL@@QAEPAU?$_Rb_tree_node@U?$pair@$$CBIPAVNPC_INFO@@@_STL@@@2@IPBX@Z PROC NEAR ; _STL::allocator<_STL::_Rb_tree_node<_STL::pair<unsigned int const ,NPC_INFO *> > >::allocate, COMDAT
; _this$ = ecx

; 355  :     return __n != 0 ? __REINTERPRET_CAST(value_type*,__sgi_alloc::allocate(__n * sizeof(value_type))) : 0;

  00000	8b 44 24 04	 mov	 eax, DWORD PTR ___n$[esp-4]
  00004	85 c0		 test	 eax, eax
  00006	74 0f		 je	 SHORT $L107841
  00008	8d 04 40	 lea	 eax, DWORD PTR [eax+eax*2]
  0000b	c1 e0 03	 shl	 eax, 3
  0000e	50		 push	 eax
  0000f	e8 00 00 00 00	 call	 ?allocate@?$__node_alloc@$00$0A@@_STL@@SAPAXI@Z ; _STL::__node_alloc<1,0>::allocate
  00014	59		 pop	 ecx
  00015	eb 02		 jmp	 SHORT $L107842
$L107841:
  00017	33 c0		 xor	 eax, eax
$L107842:

; 356  :   }

  00019	c2 08 00	 ret	 8
?allocate@?$allocator@U?$_Rb_tree_node@U?$pair@$$CBIPAVNPC_INFO@@@_STL@@@_STL@@@_STL@@QAEPAU?$_Rb_tree_node@U?$pair@$$CBIPAVNPC_INFO@@@_STL@@@2@IPBX@Z ENDP ; _STL::allocator<_STL::_Rb_tree_node<_STL::pair<unsigned int const ,NPC_INFO *> > >::allocate
_TEXT	ENDS
PUBLIC	??0?$_STLP_alloc_proxy@PAU?$_Rb_tree_node@U?$pair@$$CBIPAVSERVERNPC_INFO@@@_STL@@@_STL@@U12@V?$allocator@U?$_Rb_tree_node@U?$pair@$$CBIPAVSERVERNPC_INFO@@@_STL@@@_STL@@@2@@_STL@@QAE@ABV?$allocator@U?$_Rb_tree_node@U?$pair@$$CBIPAVSERVERNPC_INFO@@@_STL@@@_STL@@@1@PAU?$_Rb_tree_node@U?$pair@$$CBIPAVSERVERNPC_INFO@@@_STL@@@1@@Z ; _STL::_STLP_alloc_proxy<_STL::_Rb_tree_node<_STL::pair<unsigned int const ,SERVERNPC_INFO *> > *,_STL::_Rb_tree_node<_STL::pair<unsigned int const ,SERVERNPC_INFO *> >,_STL::allocator<_STL::_Rb_tree_node<_STL::pair<unsigned int const ,SERVERNPC_INFO *> > > >::_STLP_alloc_proxy<_STL::_Rb_tree_node<_STL::pair<unsigned int const ,SERVERNPC_INFO *> > *,_STL::_Rb_tree_node<_STL::pair<unsigned int const ,SERVERNPC_INFO *> >,_STL::allocator<_STL::_Rb_tree_node<_STL::pair<unsigned int const ,SERVERNPC_INFO *> > > >
; Function compile flags: /Ogsy
;	COMDAT ??0?$_STLP_alloc_proxy@PAU?$_Rb_tree_node@U?$pair@$$CBIPAVSERVERNPC_INFO@@@_STL@@@_STL@@U12@V?$allocator@U?$_Rb_tree_node@U?$pair@$$CBIPAVSERVERNPC_INFO@@@_STL@@@_STL@@@2@@_STL@@QAE@ABV?$allocator@U?$_Rb_tree_node@U?$pair@$$CBIPAVSERVERNPC_INFO@@@_STL@@@_STL@@@1@PAU?$_Rb_tree_node@U?$pair@$$CBIPAVSERVERNPC_INFO@@@_STL@@@1@@Z
_TEXT	SEGMENT
___a$ = 8						; size = 4
___p$ = 12						; size = 4
??0?$_STLP_alloc_proxy@PAU?$_Rb_tree_node@U?$pair@$$CBIPAVSERVERNPC_INFO@@@_STL@@@_STL@@U12@V?$allocator@U?$_Rb_tree_node@U?$pair@$$CBIPAVSERVERNPC_INFO@@@_STL@@@_STL@@@2@@_STL@@QAE@ABV?$allocator@U?$_Rb_tree_node@U?$pair@$$CBIPAVSERVERNPC_INFO@@@_STL@@@_STL@@@1@PAU?$_Rb_tree_node@U?$pair@$$CBIPAVSERVERNPC_INFO@@@_STL@@@1@@Z PROC NEAR ; _STL::_STLP_alloc_proxy<_STL::_Rb_tree_node<_STL::pair<unsigned int const ,SERVERNPC_INFO *> > *,_STL::_Rb_tree_node<_STL::pair<unsigned int const ,SERVERNPC_INFO *> >,_STL::allocator<_STL::_Rb_tree_node<_STL::pair<unsigned int const ,SERVERNPC_INFO *> > > >::_STLP_alloc_proxy<_STL::_Rb_tree_node<_STL::pair<unsigned int const ,SERVERNPC_INFO *> > *,_STL::_Rb_tree_node<_STL::pair<unsigned int const ,SERVERNPC_INFO *> >,_STL::allocator<_STL::_Rb_tree_node<_STL::pair<unsigned int const ,SERVERNPC_INFO *> > > >, COMDAT
; _this$ = ecx

; 487  :   inline _STLP_alloc_proxy(const _MaybeReboundAlloc& __a, _Value __p) : _MaybeReboundAlloc(__a), _M_data(__p) {}

  00000	8b c1		 mov	 eax, ecx
  00002	8b 4c 24 08	 mov	 ecx, DWORD PTR ___p$[esp-4]
  00006	89 08		 mov	 DWORD PTR [eax], ecx
  00008	c2 08 00	 ret	 8
??0?$_STLP_alloc_proxy@PAU?$_Rb_tree_node@U?$pair@$$CBIPAVSERVERNPC_INFO@@@_STL@@@_STL@@U12@V?$allocator@U?$_Rb_tree_node@U?$pair@$$CBIPAVSERVERNPC_INFO@@@_STL@@@_STL@@@2@@_STL@@QAE@ABV?$allocator@U?$_Rb_tree_node@U?$pair@$$CBIPAVSERVERNPC_INFO@@@_STL@@@_STL@@@1@PAU?$_Rb_tree_node@U?$pair@$$CBIPAVSERVERNPC_INFO@@@_STL@@@1@@Z ENDP ; _STL::_STLP_alloc_proxy<_STL::_Rb_tree_node<_STL::pair<unsigned int const ,SERVERNPC_INFO *> > *,_STL::_Rb_tree_node<_STL::pair<unsigned int const ,SERVERNPC_INFO *> >,_STL::allocator<_STL::_Rb_tree_node<_STL::pair<unsigned int const ,SERVERNPC_INFO *> > > >::_STLP_alloc_proxy<_STL::_Rb_tree_node<_STL::pair<unsigned int const ,SERVERNPC_INFO *> > *,_STL::_Rb_tree_node<_STL::pair<unsigned int const ,SERVERNPC_INFO *> >,_STL::allocator<_STL::_Rb_tree_node<_STL::pair<unsigned int const ,SERVERNPC_INFO *> > > >
_TEXT	ENDS
PUBLIC	?allocate@?$allocator@U?$_Rb_tree_node@U?$pair@$$CBIPAVSERVERNPC_INFO@@@_STL@@@_STL@@@_STL@@QAEPAU?$_Rb_tree_node@U?$pair@$$CBIPAVSERVERNPC_INFO@@@_STL@@@2@IPBX@Z ; _STL::allocator<_STL::_Rb_tree_node<_STL::pair<unsigned int const ,SERVERNPC_INFO *> > >::allocate
; Function compile flags: /Ogsy
;	COMDAT ?allocate@?$allocator@U?$_Rb_tree_node@U?$pair@$$CBIPAVSERVERNPC_INFO@@@_STL@@@_STL@@@_STL@@QAEPAU?$_Rb_tree_node@U?$pair@$$CBIPAVSERVERNPC_INFO@@@_STL@@@2@IPBX@Z
_TEXT	SEGMENT
___n$ = 8						; size = 4
___formal$ = 12						; size = 4
?allocate@?$allocator@U?$_Rb_tree_node@U?$pair@$$CBIPAVSERVERNPC_INFO@@@_STL@@@_STL@@@_STL@@QAEPAU?$_Rb_tree_node@U?$pair@$$CBIPAVSERVERNPC_INFO@@@_STL@@@2@IPBX@Z PROC NEAR ; _STL::allocator<_STL::_Rb_tree_node<_STL::pair<unsigned int const ,SERVERNPC_INFO *> > >::allocate, COMDAT
; _this$ = ecx

; 355  :     return __n != 0 ? __REINTERPRET_CAST(value_type*,__sgi_alloc::allocate(__n * sizeof(value_type))) : 0;

  00000	8b 44 24 04	 mov	 eax, DWORD PTR ___n$[esp-4]
  00004	85 c0		 test	 eax, eax
  00006	74 0f		 je	 SHORT $L107849
  00008	8d 04 40	 lea	 eax, DWORD PTR [eax+eax*2]
  0000b	c1 e0 03	 shl	 eax, 3
  0000e	50		 push	 eax
  0000f	e8 00 00 00 00	 call	 ?allocate@?$__node_alloc@$00$0A@@_STL@@SAPAXI@Z ; _STL::__node_alloc<1,0>::allocate
  00014	59		 pop	 ecx
  00015	eb 02		 jmp	 SHORT $L107850
$L107849:
  00017	33 c0		 xor	 eax, eax
$L107850:

; 356  :   }

  00019	c2 08 00	 ret	 8
?allocate@?$allocator@U?$_Rb_tree_node@U?$pair@$$CBIPAVSERVERNPC_INFO@@@_STL@@@_STL@@@_STL@@QAEPAU?$_Rb_tree_node@U?$pair@$$CBIPAVSERVERNPC_INFO@@@_STL@@@2@IPBX@Z ENDP ; _STL::allocator<_STL::_Rb_tree_node<_STL::pair<unsigned int const ,SERVERNPC_INFO *> > >::allocate
_TEXT	ENDS
PUBLIC	??$__distance@U?$_List_iterator@IU?$_Const_traits@I@_STL@@@_STL@@@_STL@@YAHABU?$_List_iterator@IU?$_Const_traits@I@_STL@@@0@0ABUinput_iterator_tag@0@@Z ; _STL::__distance<_STL::_List_iterator<unsigned int,_STL::_Const_traits<unsigned int> > >
; Function compile flags: /Ogsy
; File c:\stlport-4.6.1\stlport\stl\_iterator_base.h
;	COMDAT ??$__distance@U?$_List_iterator@IU?$_Const_traits@I@_STL@@@_STL@@@_STL@@YAHABU?$_List_iterator@IU?$_Const_traits@I@_STL@@@0@0ABUinput_iterator_tag@0@@Z
_TEXT	SEGMENT
___first$ = 8						; size = 4
___last$ = 12						; size = 4
___formal$ = 16						; size = 4
??$__distance@U?$_List_iterator@IU?$_Const_traits@I@_STL@@@_STL@@@_STL@@YAHABU?$_List_iterator@IU?$_Const_traits@I@_STL@@@0@0ABUinput_iterator_tag@0@@Z PROC NEAR ; _STL::__distance<_STL::_List_iterator<unsigned int,_STL::_Const_traits<unsigned int> > >, COMDAT

; 323  :   _STLP_DIFFERENCE_TYPE(_InputIterator) __n = 0;
; 324  :   _InputIterator __it(__first);  
; 325  :   while (__it != __last) {

  00000	8b 54 24 08	 mov	 edx, DWORD PTR ___last$[esp-4]
  00004	8b 4c 24 04	 mov	 ecx, DWORD PTR ___first$[esp-4]
  00008	8b 12		 mov	 edx, DWORD PTR [edx]
  0000a	33 c0		 xor	 eax, eax
  0000c	eb 01		 jmp	 SHORT $L107868
$L106048:

; 326  :     ++__it; ++__n;

  0000e	40		 inc	 eax
$L107868:
  0000f	8b 09		 mov	 ecx, DWORD PTR [ecx]
  00011	3b ca		 cmp	 ecx, edx
  00013	75 f9		 jne	 SHORT $L106048

; 327  :   }
; 328  :   return __n;
; 329  : }

  00015	c3		 ret	 0
??$__distance@U?$_List_iterator@IU?$_Const_traits@I@_STL@@@_STL@@@_STL@@YAHABU?$_List_iterator@IU?$_Const_traits@I@_STL@@@0@0ABUinput_iterator_tag@0@@Z ENDP ; _STL::__distance<_STL::_List_iterator<unsigned int,_STL::_Const_traits<unsigned int> > >
_TEXT	ENDS
PUBLIC	??$_M_find@H@?$_Rb_tree@HU?$pair@$$CBHH@_STL@@U?$_Select1st@U?$pair@$$CBHH@_STL@@@2@U?$less@H@2@V?$allocator@U?$pair@$$CBHH@_STL@@@2@@_STL@@ABEPAU?$_Rb_tree_node@U?$pair@$$CBHH@_STL@@@1@ABH@Z ; _STL::_Rb_tree<int,_STL::pair<int const ,int>,_STL::_Select1st<_STL::pair<int const ,int> >,_STL::less<int>,_STL::allocator<_STL::pair<int const ,int> > >::_M_find<int>
; Function compile flags: /Ogsy
; File c:\stlport-4.6.1\stlport\stl\_tree.h
;	COMDAT ??$_M_find@H@?$_Rb_tree@HU?$pair@$$CBHH@_STL@@U?$_Select1st@U?$pair@$$CBHH@_STL@@@2@U?$less@H@2@V?$allocator@U?$pair@$$CBHH@_STL@@@2@@_STL@@ABEPAU?$_Rb_tree_node@U?$pair@$$CBHH@_STL@@@1@ABH@Z
_TEXT	SEGMENT
___k$ = 8						; size = 4
??$_M_find@H@?$_Rb_tree@HU?$pair@$$CBHH@_STL@@U?$_Select1st@U?$pair@$$CBHH@_STL@@@2@U?$less@H@2@V?$allocator@U?$pair@$$CBHH@_STL@@@2@@_STL@@ABEPAU?$_Rb_tree_node@U?$pair@$$CBHH@_STL@@@1@ABH@Z PROC NEAR ; _STL::_Rb_tree<int,_STL::pair<int const ,int>,_STL::_Select1st<_STL::pair<int const ,int> >,_STL::less<int>,_STL::allocator<_STL::pair<int const ,int> > >::_M_find<int>, COMDAT
; _this$ = ecx

; 462  : # else
; 463  :   iterator find(const key_type& __x) { return iterator(_M_find(__x)); }
; 464  :   const_iterator find(const key_type& __x) const { return const_iterator(_M_find(__x)); }
; 465  : private:
; 466  :   _Rb_tree_node<_Value>* _M_find(const key_type& __k) const
; 467  : # endif
; 468  :   {
; 469  :     _Link_type __y = this->_M_header._M_data;      // Last node which is not less than __k. 

  00000	8b 11		 mov	 edx, DWORD PTR [ecx]

; 470  :     _Link_type __x = _M_root();      // Current node. 

  00002	8b 4a 04	 mov	 ecx, DWORD PTR [edx+4]

; 471  :     
; 472  :     while (__x != 0) 

  00005	85 c9		 test	 ecx, ecx
  00007	57		 push	 edi
  00008	8b 7c 24 08	 mov	 edi, DWORD PTR ___k$[esp]
  0000c	8b c2		 mov	 eax, edx
  0000e	74 17		 je	 SHORT $L106056
  00010	56		 push	 esi
  00011	8b 37		 mov	 esi, DWORD PTR [edi]
$L106055:

; 473  :       if (!_M_key_compare(_S_key(__x), __k))

  00013	39 71 10	 cmp	 DWORD PTR [ecx+16], esi
  00016	7c 07		 jl	 SHORT $L106057

; 474  : 	__y = __x, __x = _S_left(__x);

  00018	8b c1		 mov	 eax, ecx
  0001a	8b 49 08	 mov	 ecx, DWORD PTR [ecx+8]

; 475  :       else

  0001d	eb 03		 jmp	 SHORT $L106058
$L106057:

; 476  : 	__x = _S_right(__x);

  0001f	8b 49 0c	 mov	 ecx, DWORD PTR [ecx+12]
$L106058:

; 471  :     
; 472  :     while (__x != 0) 

  00022	85 c9		 test	 ecx, ecx
  00024	75 ed		 jne	 SHORT $L106055
  00026	5e		 pop	 esi
$L106056:

; 477  :     if (__y == this->_M_header._M_data || _M_key_compare(__k, _S_key(__y)))

  00027	3b c2		 cmp	 eax, edx
  00029	74 07		 je	 SHORT $L106060
  0002b	8b 0f		 mov	 ecx, DWORD PTR [edi]
  0002d	3b 48 10	 cmp	 ecx, DWORD PTR [eax+16]
  00030	7d 02		 jge	 SHORT $L106059
$L106060:

; 478  :       __y = this->_M_header._M_data;

  00032	8b c2		 mov	 eax, edx
$L106059:
  00034	5f		 pop	 edi

; 479  :     return __y;
; 480  :   }

  00035	c2 04 00	 ret	 4
??$_M_find@H@?$_Rb_tree@HU?$pair@$$CBHH@_STL@@U?$_Select1st@U?$pair@$$CBHH@_STL@@@2@U?$less@H@2@V?$allocator@U?$pair@$$CBHH@_STL@@@2@@_STL@@ABEPAU?$_Rb_tree_node@U?$pair@$$CBHH@_STL@@@1@ABH@Z ENDP ; _STL::_Rb_tree<int,_STL::pair<int const ,int>,_STL::_Select1st<_STL::pair<int const ,int> >,_STL::less<int>,_STL::allocator<_STL::pair<int const ,int> > >::_M_find<int>
_TEXT	ENDS
PUBLIC	?_M_erase@?$_Rb_tree@IU?$pair@$$CBIPAVNPC_INFO@@@_STL@@U?$_Select1st@U?$pair@$$CBIPAVNPC_INFO@@@_STL@@@2@U?$less@I@2@V?$allocator@U?$pair@$$CBIPAVNPC_INFO@@@_STL@@@2@@_STL@@AAEXPAU?$_Rb_tree_node@U?$pair@$$CBIPAVNPC_INFO@@@_STL@@@2@@Z ; _STL::_Rb_tree<unsigned int,_STL::pair<unsigned int const ,NPC_INFO *>,_STL::_Select1st<_STL::pair<unsigned int const ,NPC_INFO *> >,_STL::less<unsigned int>,_STL::allocator<_STL::pair<unsigned int const ,NPC_INFO *> > >::_M_erase
; Function compile flags: /Ogsy
; File c:\stlport-4.6.1\stlport\stl\_tree.c
;	COMDAT ?_M_erase@?$_Rb_tree@IU?$pair@$$CBIPAVNPC_INFO@@@_STL@@U?$_Select1st@U?$pair@$$CBIPAVNPC_INFO@@@_STL@@@2@U?$less@I@2@V?$allocator@U?$pair@$$CBIPAVNPC_INFO@@@_STL@@@2@@_STL@@AAEXPAU?$_Rb_tree_node@U?$pair@$$CBIPAVNPC_INFO@@@_STL@@@2@@Z
_TEXT	SEGMENT
___x$ = 8						; size = 4
?_M_erase@?$_Rb_tree@IU?$pair@$$CBIPAVNPC_INFO@@@_STL@@U?$_Select1st@U?$pair@$$CBIPAVNPC_INFO@@@_STL@@@2@U?$less@I@2@V?$allocator@U?$pair@$$CBIPAVNPC_INFO@@@_STL@@@2@@_STL@@AAEXPAU?$_Rb_tree_node@U?$pair@$$CBIPAVNPC_INFO@@@_STL@@@2@@Z PROC NEAR ; _STL::_Rb_tree<unsigned int,_STL::pair<unsigned int const ,NPC_INFO *>,_STL::_Select1st<_STL::pair<unsigned int const ,NPC_INFO *> >,_STL::less<unsigned int>,_STL::allocator<_STL::pair<unsigned int const ,NPC_INFO *> > >::_M_erase, COMDAT
; _this$ = ecx

; 637  : {

  00000	53		 push	 ebx
  00001	56		 push	 esi

; 638  :                                 // erase without rebalancing
; 639  :   while (__x != 0) {

  00002	8b 74 24 0c	 mov	 esi, DWORD PTR ___x$[esp+4]
  00006	85 f6		 test	 esi, esi
  00008	8b d9		 mov	 ebx, ecx
  0000a	74 1f		 je	 SHORT $L106085
  0000c	57		 push	 edi
$L106084:

; 640  :     _M_erase(_S_right(__x));

  0000d	ff 76 0c	 push	 DWORD PTR [esi+12]
  00010	8b cb		 mov	 ecx, ebx
  00012	e8 00 00 00 00	 call	 ?_M_erase@?$_Rb_tree@IU?$pair@$$CBIPAVNPC_INFO@@@_STL@@U?$_Select1st@U?$pair@$$CBIPAVNPC_INFO@@@_STL@@@2@U?$less@I@2@V?$allocator@U?$pair@$$CBIPAVNPC_INFO@@@_STL@@@2@@_STL@@AAEXPAU?$_Rb_tree_node@U?$pair@$$CBIPAVNPC_INFO@@@_STL@@@2@@Z ; _STL::_Rb_tree<unsigned int,_STL::pair<unsigned int const ,NPC_INFO *>,_STL::_Select1st<_STL::pair<unsigned int const ,NPC_INFO *> >,_STL::less<unsigned int>,_STL::allocator<_STL::pair<unsigned int const ,NPC_INFO *> > >::_M_erase

; 641  :     _Link_type __y = _S_left(__x);

  00017	8b 7e 08	 mov	 edi, DWORD PTR [esi+8]

; 642  :     _STLP_STD::_Destroy(&__x->_M_value_field);
; 643  :     this->_M_header.deallocate(__x,1);

  0001a	6a 01		 push	 1
  0001c	56		 push	 esi
  0001d	8b cb		 mov	 ecx, ebx
  0001f	e8 00 00 00 00	 call	 ?deallocate@?$allocator@U?$_Rb_tree_node@U?$pair@$$CBIPAVNPC_INFO@@@_STL@@@_STL@@@_STL@@QAEXPAU?$_Rb_tree_node@U?$pair@$$CBIPAVNPC_INFO@@@_STL@@@2@I@Z ; _STL::allocator<_STL::_Rb_tree_node<_STL::pair<unsigned int const ,NPC_INFO *> > >::deallocate
  00024	85 ff		 test	 edi, edi

; 644  :     __x = __y;

  00026	8b f7		 mov	 esi, edi
  00028	75 e3		 jne	 SHORT $L106084
  0002a	5f		 pop	 edi
$L106085:
  0002b	5e		 pop	 esi
  0002c	5b		 pop	 ebx

; 645  :   }
; 646  : }

  0002d	c2 04 00	 ret	 4
?_M_erase@?$_Rb_tree@IU?$pair@$$CBIPAVNPC_INFO@@@_STL@@U?$_Select1st@U?$pair@$$CBIPAVNPC_INFO@@@_STL@@@2@U?$less@I@2@V?$allocator@U?$pair@$$CBIPAVNPC_INFO@@@_STL@@@2@@_STL@@AAEXPAU?$_Rb_tree_node@U?$pair@$$CBIPAVNPC_INFO@@@_STL@@@2@@Z ENDP ; _STL::_Rb_tree<unsigned int,_STL::pair<unsigned int const ,NPC_INFO *>,_STL::_Select1st<_STL::pair<unsigned int const ,NPC_INFO *> >,_STL::less<unsigned int>,_STL::allocator<_STL::pair<unsigned int const ,NPC_INFO *> > >::_M_erase
_TEXT	ENDS
PUBLIC	?_M_erase@?$_Rb_tree@IU?$pair@$$CBIPAVSERVERNPC_INFO@@@_STL@@U?$_Select1st@U?$pair@$$CBIPAVSERVERNPC_INFO@@@_STL@@@2@U?$less@I@2@V?$allocator@U?$pair@$$CBIPAVSERVERNPC_INFO@@@_STL@@@2@@_STL@@AAEXPAU?$_Rb_tree_node@U?$pair@$$CBIPAVSERVERNPC_INFO@@@_STL@@@2@@Z ; _STL::_Rb_tree<unsigned int,_STL::pair<unsigned int const ,SERVERNPC_INFO *>,_STL::_Select1st<_STL::pair<unsigned int const ,SERVERNPC_INFO *> >,_STL::less<unsigned int>,_STL::allocator<_STL::pair<unsigned int const ,SERVERNPC_INFO *> > >::_M_erase
; Function compile flags: /Ogsy
;	COMDAT ?_M_erase@?$_Rb_tree@IU?$pair@$$CBIPAVSERVERNPC_INFO@@@_STL@@U?$_Select1st@U?$pair@$$CBIPAVSERVERNPC_INFO@@@_STL@@@2@U?$less@I@2@V?$allocator@U?$pair@$$CBIPAVSERVERNPC_INFO@@@_STL@@@2@@_STL@@AAEXPAU?$_Rb_tree_node@U?$pair@$$CBIPAVSERVERNPC_INFO@@@_STL@@@2@@Z
_TEXT	SEGMENT
___x$ = 8						; size = 4
?_M_erase@?$_Rb_tree@IU?$pair@$$CBIPAVSERVERNPC_INFO@@@_STL@@U?$_Select1st@U?$pair@$$CBIPAVSERVERNPC_INFO@@@_STL@@@2@U?$less@I@2@V?$allocator@U?$pair@$$CBIPAVSERVERNPC_INFO@@@_STL@@@2@@_STL@@AAEXPAU?$_Rb_tree_node@U?$pair@$$CBIPAVSERVERNPC_INFO@@@_STL@@@2@@Z PROC NEAR ; _STL::_Rb_tree<unsigned int,_STL::pair<unsigned int const ,SERVERNPC_INFO *>,_STL::_Select1st<_STL::pair<unsigned int const ,SERVERNPC_INFO *> >,_STL::less<unsigned int>,_STL::allocator<_STL::pair<unsigned int const ,SERVERNPC_INFO *> > >::_M_erase, COMDAT
; _this$ = ecx

; 637  : {

  00000	53		 push	 ebx
  00001	56		 push	 esi

; 638  :                                 // erase without rebalancing
; 639  :   while (__x != 0) {

  00002	8b 74 24 0c	 mov	 esi, DWORD PTR ___x$[esp+4]
  00006	85 f6		 test	 esi, esi
  00008	8b d9		 mov	 ebx, ecx
  0000a	74 1f		 je	 SHORT $L106153
  0000c	57		 push	 edi
$L106152:

; 640  :     _M_erase(_S_right(__x));

  0000d	ff 76 0c	 push	 DWORD PTR [esi+12]
  00010	8b cb		 mov	 ecx, ebx
  00012	e8 00 00 00 00	 call	 ?_M_erase@?$_Rb_tree@IU?$pair@$$CBIPAVSERVERNPC_INFO@@@_STL@@U?$_Select1st@U?$pair@$$CBIPAVSERVERNPC_INFO@@@_STL@@@2@U?$less@I@2@V?$allocator@U?$pair@$$CBIPAVSERVERNPC_INFO@@@_STL@@@2@@_STL@@AAEXPAU?$_Rb_tree_node@U?$pair@$$CBIPAVSERVERNPC_INFO@@@_STL@@@2@@Z ; _STL::_Rb_tree<unsigned int,_STL::pair<unsigned int const ,SERVERNPC_INFO *>,_STL::_Select1st<_STL::pair<unsigned int const ,SERVERNPC_INFO *> >,_STL::less<unsigned int>,_STL::allocator<_STL::pair<unsigned int const ,SERVERNPC_INFO *> > >::_M_erase

; 641  :     _Link_type __y = _S_left(__x);

  00017	8b 7e 08	 mov	 edi, DWORD PTR [esi+8]

; 642  :     _STLP_STD::_Destroy(&__x->_M_value_field);
; 643  :     this->_M_header.deallocate(__x,1);

  0001a	6a 01		 push	 1
  0001c	56		 push	 esi
  0001d	8b cb		 mov	 ecx, ebx
  0001f	e8 00 00 00 00	 call	 ?deallocate@?$allocator@U?$_Rb_tree_node@U?$pair@$$CBIPAVSERVERNPC_INFO@@@_STL@@@_STL@@@_STL@@QAEXPAU?$_Rb_tree_node@U?$pair@$$CBIPAVSERVERNPC_INFO@@@_STL@@@2@I@Z ; _STL::allocator<_STL::_Rb_tree_node<_STL::pair<unsigned int const ,SERVERNPC_INFO *> > >::deallocate
  00024	85 ff		 test	 edi, edi

; 644  :     __x = __y;

  00026	8b f7		 mov	 esi, edi
  00028	75 e3		 jne	 SHORT $L106152
  0002a	5f		 pop	 edi
$L106153:
  0002b	5e		 pop	 esi
  0002c	5b		 pop	 ebx

; 645  :   }
; 646  : }

  0002d	c2 04 00	 ret	 4
?_M_erase@?$_Rb_tree@IU?$pair@$$CBIPAVSERVERNPC_INFO@@@_STL@@U?$_Select1st@U?$pair@$$CBIPAVSERVERNPC_INFO@@@_STL@@@2@U?$less@I@2@V?$allocator@U?$pair@$$CBIPAVSERVERNPC_INFO@@@_STL@@@2@@_STL@@AAEXPAU?$_Rb_tree_node@U?$pair@$$CBIPAVSERVERNPC_INFO@@@_STL@@@2@@Z ENDP ; _STL::_Rb_tree<unsigned int,_STL::pair<unsigned int const ,SERVERNPC_INFO *>,_STL::_Select1st<_STL::pair<unsigned int const ,SERVERNPC_INFO *> >,_STL::less<unsigned int>,_STL::allocator<_STL::pair<unsigned int const ,SERVERNPC_INFO *> > >::_M_erase
_TEXT	ENDS
PUBLIC	??$_M_init@DV?$char_traits@D@_STL@@@_STL@@YA_NAAV?$basic_ostream@DV?$char_traits@D@_STL@@@0@@Z ; _STL::_M_init<char,_STL::char_traits<char> >
; Function compile flags: /Ogsy
; File c:\stlport-4.6.1\stlport\stl\_ostream.c
;	COMDAT ??$_M_init@DV?$char_traits@D@_STL@@@_STL@@YA_NAAV?$basic_ostream@DV?$char_traits@D@_STL@@@0@@Z
_TEXT	SEGMENT
___str$ = 8						; size = 4
??$_M_init@DV?$char_traits@D@_STL@@@_STL@@YA_NAAV?$basic_ostream@DV?$char_traits@D@_STL@@@0@@Z PROC NEAR ; _STL::_M_init<char,_STL::char_traits<char> >, COMDAT

; 37   : _M_init(basic_ostream<_CharT, _Traits>& __str) {

  00000	56		 push	 esi

; 38   :   if (__str.good()) {

  00001	8b 74 24 08	 mov	 esi, DWORD PTR ___str$[esp]
  00005	8b 06		 mov	 eax, DWORD PTR [esi]
  00007	8b 40 04	 mov	 eax, DWORD PTR [eax+4]
  0000a	8d 0c 30	 lea	 ecx, DWORD PTR [eax+esi]
  0000d	83 79 08 00	 cmp	 DWORD PTR [ecx+8], 0
  00011	75 36		 jne	 SHORT $L106224

; 39   :     // boris : check if this is needed !
; 40   :     if (!__str.rdbuf())

  00013	83 79 58 00	 cmp	 DWORD PTR [ecx+88], 0
  00017	75 0c		 jne	 SHORT $L107961

; 41   :       __str.setstate(ios_base::badbit);

  00019	8b 41 08	 mov	 eax, DWORD PTR [ecx+8]
  0001c	83 c8 01	 or	 eax, 1
  0001f	50		 push	 eax
  00020	e8 00 00 00 00	 call	 ?clear@?$basic_ios@DV?$char_traits@D@_STL@@@_STL@@QAEXH@Z ; _STL::basic_ios<char,_STL::char_traits<char> >::clear
$L107961:

; 42   :     if (__str.tie())

  00025	8b 06		 mov	 eax, DWORD PTR [esi]
  00027	8b 40 04	 mov	 eax, DWORD PTR [eax+4]
  0002a	8b 4c 30 5c	 mov	 ecx, DWORD PTR [eax+esi+92]
  0002e	85 c9		 test	 ecx, ecx
  00030	74 05		 je	 SHORT $L106226

; 43   :       __str.tie()->flush();

  00032	e8 00 00 00 00	 call	 ?flush@?$basic_ostream@DV?$char_traits@D@_STL@@@_STL@@QAEAAV12@XZ ; _STL::basic_ostream<char,_STL::char_traits<char> >::flush
$L106226:

; 44   :     return __str.good();

  00037	8b 06		 mov	 eax, DWORD PTR [esi]
  00039	8b 40 04	 mov	 eax, DWORD PTR [eax+4]
  0003c	33 c9		 xor	 ecx, ecx
  0003e	39 4c 30 08	 cmp	 DWORD PTR [eax+esi+8], ecx
  00042	5e		 pop	 esi
  00043	0f 94 c1	 sete	 cl
  00046	8a c1		 mov	 al, cl

; 47   : }

  00048	c3		 ret	 0
$L106224:

; 45   :   } else
; 46   :     return false;

  00049	32 c0		 xor	 al, al
  0004b	5e		 pop	 esi

; 47   : }

  0004c	c3		 ret	 0
??$_M_init@DV?$char_traits@D@_STL@@@_STL@@YA_NAAV?$basic_ostream@DV?$char_traits@D@_STL@@@0@@Z ENDP ; _STL::_M_init<char,_STL::char_traits<char> >
_TEXT	ENDS
PUBLIC	??$_Construct@U?$pair@$$CBHH@_STL@@U12@@_STL@@YAXPAU?$pair@$$CBHH@0@ABU10@@Z ; _STL::_Construct<_STL::pair<int const ,int>,_STL::pair<int const ,int> >
; Function compile flags: /Ogsy
; File c:\stlport-4.6.1\stlport\stl\_construct.h
;	COMDAT ??$_Construct@U?$pair@$$CBHH@_STL@@U12@@_STL@@YAXPAU?$pair@$$CBHH@0@ABU10@@Z
_TEXT	SEGMENT
___p$ = 8						; size = 4
___val$ = 12						; size = 4
??$_Construct@U?$pair@$$CBHH@_STL@@U12@@_STL@@YAXPAU?$pair@$$CBHH@0@ABU10@@Z PROC NEAR ; _STL::_Construct<_STL::pair<int const ,int>,_STL::pair<int const ,int> >, COMDAT

; 94   : # ifdef _STLP_DEBUG_UNINITIALIZED
; 95   : 	memset((char*)__p, _STLP_SHRED_BYTE, sizeof(_T1));
; 96   : # endif
; 97   :     _STLP_PLACEMENT_NEW (__p) _T1(__val);

  00000	8b 44 24 04	 mov	 eax, DWORD PTR ___p$[esp-4]
  00004	85 c0		 test	 eax, eax
  00006	74 0e		 je	 SHORT $L107982
  00008	8b 4c 24 08	 mov	 ecx, DWORD PTR ___val$[esp-4]
  0000c	8b 11		 mov	 edx, DWORD PTR [ecx]
  0000e	89 10		 mov	 DWORD PTR [eax], edx
  00010	8b 49 04	 mov	 ecx, DWORD PTR [ecx+4]
  00013	89 48 04	 mov	 DWORD PTR [eax+4], ecx
$L107982:

; 98   : }

  00016	c3		 ret	 0
??$_Construct@U?$pair@$$CBHH@_STL@@U12@@_STL@@YAXPAU?$pair@$$CBHH@0@ABU10@@Z ENDP ; _STL::_Construct<_STL::pair<int const ,int>,_STL::pair<int const ,int> >
_TEXT	ENDS
PUBLIC	?Release@NPC_INFO@@QAEXXZ			; NPC_INFO::Release
; Function compile flags: /Ogsy
; File c:\darkeden\designed_common\project\client\mnpctable.cpp
;	COMDAT ?Release@NPC_INFO@@QAEXXZ
_TEXT	SEGMENT
?Release@NPC_INFO@@QAEXXZ PROC NEAR			; NPC_INFO::Release, COMDAT
; _this$ = ecx

; 25   : 	ListShopTemplateID.clear();

  00000	83 c1 0c	 add	 ecx, 12			; 0000000cH
  00003	e9 00 00 00 00	 jmp	 ?clear@?$_List_base@IV?$allocator@I@_STL@@@_STL@@QAEXXZ ; _STL::_List_base<unsigned int,_STL::allocator<unsigned int> >::clear
?Release@NPC_INFO@@QAEXXZ ENDP				; NPC_INFO::Release
_TEXT	ENDS
PUBLIC	?Release@SERVERNPC_INFO@@QAEXXZ			; SERVERNPC_INFO::Release
; Function compile flags: /Ogsy
;	COMDAT ?Release@SERVERNPC_INFO@@QAEXXZ
_TEXT	SEGMENT
?Release@SERVERNPC_INFO@@QAEXXZ PROC NEAR		; SERVERNPC_INFO::Release, COMDAT
; _this$ = ecx

; 120  : 	ListShopTemplateID.clear();

  00000	e9 00 00 00 00	 jmp	 ?clear@?$_List_base@IV?$allocator@I@_STL@@@_STL@@QAEXXZ ; _STL::_List_base<unsigned int,_STL::allocator<unsigned int> >::clear
?Release@SERVERNPC_INFO@@QAEXXZ ENDP			; SERVERNPC_INFO::Release
_TEXT	ENDS
PUBLIC	?begin@?$list@IV?$allocator@I@_STL@@@_STL@@QAE?AU?$_List_iterator@IU?$_Nonconst_traits@I@_STL@@@2@XZ ; _STL::list<unsigned int,_STL::allocator<unsigned int> >::begin
; Function compile flags: /Ogsy
; File c:\stlport-4.6.1\stlport\stl\_list.h
;	COMDAT ?begin@?$list@IV?$allocator@I@_STL@@@_STL@@QAE?AU?$_List_iterator@IU?$_Nonconst_traits@I@_STL@@@2@XZ
_TEXT	SEGMENT
___$ReturnUdt$ = 8					; size = 4
?begin@?$list@IV?$allocator@I@_STL@@@_STL@@QAE?AU?$_List_iterator@IU?$_Nonconst_traits@I@_STL@@@2@XZ PROC NEAR ; _STL::list<unsigned int,_STL::allocator<unsigned int> >::begin, COMDAT
; _this$ = ecx

; 266  :   iterator begin()             { return iterator((_Node*)(this->_M_node._M_data->_M_next)); }

  00000	8b 01		 mov	 eax, DWORD PTR [ecx]
  00002	8b 08		 mov	 ecx, DWORD PTR [eax]
  00004	8b 44 24 04	 mov	 eax, DWORD PTR ___$ReturnUdt$[esp-4]
  00008	89 08		 mov	 DWORD PTR [eax], ecx
  0000a	c2 04 00	 ret	 4
?begin@?$list@IV?$allocator@I@_STL@@@_STL@@QAE?AU?$_List_iterator@IU?$_Nonconst_traits@I@_STL@@@2@XZ ENDP ; _STL::list<unsigned int,_STL::allocator<unsigned int> >::begin
_TEXT	ENDS
PUBLIC	?end@?$list@IV?$allocator@I@_STL@@@_STL@@QAE?AU?$_List_iterator@IU?$_Nonconst_traits@I@_STL@@@2@XZ ; _STL::list<unsigned int,_STL::allocator<unsigned int> >::end
; Function compile flags: /Ogsy
;	COMDAT ?end@?$list@IV?$allocator@I@_STL@@@_STL@@QAE?AU?$_List_iterator@IU?$_Nonconst_traits@I@_STL@@@2@XZ
_TEXT	SEGMENT
___$ReturnUdt$ = 8					; size = 4
?end@?$list@IV?$allocator@I@_STL@@@_STL@@QAE?AU?$_List_iterator@IU?$_Nonconst_traits@I@_STL@@@2@XZ PROC NEAR ; _STL::list<unsigned int,_STL::allocator<unsigned int> >::end, COMDAT
; _this$ = ecx

; 269  :   iterator end()             { return this->_M_node._M_data; }

  00000	8b 09		 mov	 ecx, DWORD PTR [ecx]
  00002	8b 44 24 04	 mov	 eax, DWORD PTR ___$ReturnUdt$[esp-4]
  00006	89 08		 mov	 DWORD PTR [eax], ecx
  00008	c2 04 00	 ret	 4
?end@?$list@IV?$allocator@I@_STL@@@_STL@@QAE?AU?$_List_iterator@IU?$_Nonconst_traits@I@_STL@@@2@XZ ENDP ; _STL::list<unsigned int,_STL::allocator<unsigned int> >::end
_TEXT	ENDS
PUBLIC	?begin@?$map@IPAVSERVERNPC_INFO@@U?$less@I@_STL@@V?$allocator@U?$pair@$$CBIPAVSERVERNPC_INFO@@@_STL@@@3@@_STL@@QAE?AU?$_Rb_tree_iterator@U?$pair@$$CBIPAVSERVERNPC_INFO@@@_STL@@U?$_Nonconst_traits@U?$pair@$$CBIPAVSERVERNPC_INFO@@@_STL@@@2@@2@XZ ; _STL::map<unsigned int,SERVERNPC_INFO *,_STL::less<unsigned int>,_STL::allocator<_STL::pair<unsigned int const ,SERVERNPC_INFO *> > >::begin
; Function compile flags: /Ogsy
; File c:\stlport-4.6.1\stlport\stl\_map.h
;	COMDAT ?begin@?$map@IPAVSERVERNPC_INFO@@U?$less@I@_STL@@V?$allocator@U?$pair@$$CBIPAVSERVERNPC_INFO@@@_STL@@@3@@_STL@@QAE?AU?$_Rb_tree_iterator@U?$pair@$$CBIPAVSERVERNPC_INFO@@@_STL@@U?$_Nonconst_traits@U?$pair@$$CBIPAVSERVERNPC_INFO@@@_STL@@@2@@2@XZ
_TEXT	SEGMENT
___$ReturnUdt$ = 8					; size = 4
?begin@?$map@IPAVSERVERNPC_INFO@@U?$less@I@_STL@@V?$allocator@U?$pair@$$CBIPAVSERVERNPC_INFO@@@_STL@@@3@@_STL@@QAE?AU?$_Rb_tree_iterator@U?$pair@$$CBIPAVSERVERNPC_INFO@@@_STL@@U?$_Nonconst_traits@U?$pair@$$CBIPAVSERVERNPC_INFO@@@_STL@@@2@@2@XZ PROC NEAR ; _STL::map<unsigned int,SERVERNPC_INFO *,_STL::less<unsigned int>,_STL::allocator<_STL::pair<unsigned int const ,SERVERNPC_INFO *> > >::begin, COMDAT
; _this$ = ecx

; 147  :   iterator begin() { return _M_t.begin(); }

  00000	8b 01		 mov	 eax, DWORD PTR [ecx]
  00002	8b 48 08	 mov	 ecx, DWORD PTR [eax+8]
  00005	8b 44 24 04	 mov	 eax, DWORD PTR ___$ReturnUdt$[esp-4]
  00009	89 08		 mov	 DWORD PTR [eax], ecx
  0000b	c2 04 00	 ret	 4
?begin@?$map@IPAVSERVERNPC_INFO@@U?$less@I@_STL@@V?$allocator@U?$pair@$$CBIPAVSERVERNPC_INFO@@@_STL@@@3@@_STL@@QAE?AU?$_Rb_tree_iterator@U?$pair@$$CBIPAVSERVERNPC_INFO@@@_STL@@U?$_Nonconst_traits@U?$pair@$$CBIPAVSERVERNPC_INFO@@@_STL@@@2@@2@XZ ENDP ; _STL::map<unsigned int,SERVERNPC_INFO *,_STL::less<unsigned int>,_STL::allocator<_STL::pair<unsigned int const ,SERVERNPC_INFO *> > >::begin
_TEXT	ENDS
PUBLIC	?end@?$map@IPAVSERVERNPC_INFO@@U?$less@I@_STL@@V?$allocator@U?$pair@$$CBIPAVSERVERNPC_INFO@@@_STL@@@3@@_STL@@QAE?AU?$_Rb_tree_iterator@U?$pair@$$CBIPAVSERVERNPC_INFO@@@_STL@@U?$_Nonconst_traits@U?$pair@$$CBIPAVSERVERNPC_INFO@@@_STL@@@2@@2@XZ ; _STL::map<unsigned int,SERVERNPC_INFO *,_STL::less<unsigned int>,_STL::allocator<_STL::pair<unsigned int const ,SERVERNPC_INFO *> > >::end
; Function compile flags: /Ogsy
;	COMDAT ?end@?$map@IPAVSERVERNPC_INFO@@U?$less@I@_STL@@V?$allocator@U?$pair@$$CBIPAVSERVERNPC_INFO@@@_STL@@@3@@_STL@@QAE?AU?$_Rb_tree_iterator@U?$pair@$$CBIPAVSERVERNPC_INFO@@@_STL@@U?$_Nonconst_traits@U?$pair@$$CBIPAVSERVERNPC_INFO@@@_STL@@@2@@2@XZ
_TEXT	SEGMENT
___$ReturnUdt$ = 8					; size = 4
?end@?$map@IPAVSERVERNPC_INFO@@U?$less@I@_STL@@V?$allocator@U?$pair@$$CBIPAVSERVERNPC_INFO@@@_STL@@@3@@_STL@@QAE?AU?$_Rb_tree_iterator@U?$pair@$$CBIPAVSERVERNPC_INFO@@@_STL@@U?$_Nonconst_traits@U?$pair@$$CBIPAVSERVERNPC_INFO@@@_STL@@@2@@2@XZ PROC NEAR ; _STL::map<unsigned int,SERVERNPC_INFO *,_STL::less<unsigned int>,_STL::allocator<_STL::pair<unsigned int const ,SERVERNPC_INFO *> > >::end, COMDAT
; _this$ = ecx

; 149  :   iterator end() { return _M_t.end(); }

  00000	8b 09		 mov	 ecx, DWORD PTR [ecx]
  00002	8b 44 24 04	 mov	 eax, DWORD PTR ___$ReturnUdt$[esp-4]
  00006	89 08		 mov	 DWORD PTR [eax], ecx
  00008	c2 04 00	 ret	 4
?end@?$map@IPAVSERVERNPC_INFO@@U?$less@I@_STL@@V?$allocator@U?$pair@$$CBIPAVSERVERNPC_INFO@@@_STL@@@3@@_STL@@QAE?AU?$_Rb_tree_iterator@U?$pair@$$CBIPAVSERVERNPC_INFO@@@_STL@@U?$_Nonconst_traits@U?$pair@$$CBIPAVSERVERNPC_INFO@@@_STL@@@2@@2@XZ ENDP ; _STL::map<unsigned int,SERVERNPC_INFO *,_STL::less<unsigned int>,_STL::allocator<_STL::pair<unsigned int const ,SERVERNPC_INFO *> > >::end
_TEXT	ENDS
PUBLIC	?end@?$map@HHU?$less@H@_STL@@V?$allocator@U?$pair@$$CBHH@_STL@@@2@@_STL@@QAE?AU?$_Rb_tree_iterator@U?$pair@$$CBHH@_STL@@U?$_Nonconst_traits@U?$pair@$$CBHH@_STL@@@2@@2@XZ ; _STL::map<int,int,_STL::less<int>,_STL::allocator<_STL::pair<int const ,int> > >::end
; Function compile flags: /Ogsy
;	COMDAT ?end@?$map@HHU?$less@H@_STL@@V?$allocator@U?$pair@$$CBHH@_STL@@@2@@_STL@@QAE?AU?$_Rb_tree_iterator@U?$pair@$$CBHH@_STL@@U?$_Nonconst_traits@U?$pair@$$CBHH@_STL@@@2@@2@XZ
_TEXT	SEGMENT
___$ReturnUdt$ = 8					; size = 4
?end@?$map@HHU?$less@H@_STL@@V?$allocator@U?$pair@$$CBHH@_STL@@@2@@_STL@@QAE?AU?$_Rb_tree_iterator@U?$pair@$$CBHH@_STL@@U?$_Nonconst_traits@U?$pair@$$CBHH@_STL@@@2@@2@XZ PROC NEAR ; _STL::map<int,int,_STL::less<int>,_STL::allocator<_STL::pair<int const ,int> > >::end, COMDAT
; _this$ = ecx

; 149  :   iterator end() { return _M_t.end(); }

  00000	8b 09		 mov	 ecx, DWORD PTR [ecx]
  00002	8b 44 24 04	 mov	 eax, DWORD PTR ___$ReturnUdt$[esp-4]
  00006	89 08		 mov	 DWORD PTR [eax], ecx
  00008	c2 04 00	 ret	 4
?end@?$map@HHU?$less@H@_STL@@V?$allocator@U?$pair@$$CBHH@_STL@@@2@@_STL@@QAE?AU?$_Rb_tree_iterator@U?$pair@$$CBHH@_STL@@U?$_Nonconst_traits@U?$pair@$$CBHH@_STL@@@2@@2@XZ ENDP ; _STL::map<int,int,_STL::less<int>,_STL::allocator<_STL::pair<int const ,int> > >::end
_TEXT	ENDS
PUBLIC	??E?$_List_iterator@IU?$_Nonconst_traits@I@_STL@@@_STL@@QAE?AU01@H@Z ; _STL::_List_iterator<unsigned int,_STL::_Nonconst_traits<unsigned int> >::operator++
; Function compile flags: /Ogsy
; File c:\stlport-4.6.1\stlport\stl\_list.h
;	COMDAT ??E?$_List_iterator@IU?$_Nonconst_traits@I@_STL@@@_STL@@QAE?AU01@H@Z
_TEXT	SEGMENT
___$ReturnUdt$ = 8					; size = 4
___formal$ = 12						; size = 4
??E?$_List_iterator@IU?$_Nonconst_traits@I@_STL@@@_STL@@QAE?AU01@H@Z PROC NEAR ; _STL::_List_iterator<unsigned int,_STL::_Nonconst_traits<unsigned int> >::operator++, COMDAT
; _this$ = ecx

; 139  :     _Self __tmp = *this;

  00000	8b 11		 mov	 edx, DWORD PTR [ecx]

; 140  :     this->_M_incr();

  00002	8b 02		 mov	 eax, DWORD PTR [edx]
  00004	89 01		 mov	 DWORD PTR [ecx], eax

; 141  :     return __tmp;

  00006	8b 44 24 04	 mov	 eax, DWORD PTR ___$ReturnUdt$[esp-4]
  0000a	89 10		 mov	 DWORD PTR [eax], edx

; 142  :   }

  0000c	c2 08 00	 ret	 8
??E?$_List_iterator@IU?$_Nonconst_traits@I@_STL@@@_STL@@QAE?AU01@H@Z ENDP ; _STL::_List_iterator<unsigned int,_STL::_Nonconst_traits<unsigned int> >::operator++
_TEXT	ENDS
PUBLIC	?begin@?$list@IV?$allocator@I@_STL@@@_STL@@QBE?AU?$_List_iterator@IU?$_Const_traits@I@_STL@@@2@XZ ; _STL::list<unsigned int,_STL::allocator<unsigned int> >::begin
; Function compile flags: /Ogsy
;	COMDAT ?begin@?$list@IV?$allocator@I@_STL@@@_STL@@QBE?AU?$_List_iterator@IU?$_Const_traits@I@_STL@@@2@XZ
_TEXT	SEGMENT
___$ReturnUdt$ = 8					; size = 4
?begin@?$list@IV?$allocator@I@_STL@@@_STL@@QBE?AU?$_List_iterator@IU?$_Const_traits@I@_STL@@@2@XZ PROC NEAR ; _STL::list<unsigned int,_STL::allocator<unsigned int> >::begin, COMDAT
; _this$ = ecx

; 267  :   const_iterator begin() const { return const_iterator((_Node*)(this->_M_node._M_data->_M_next)); }

  00000	8b 01		 mov	 eax, DWORD PTR [ecx]
  00002	8b 08		 mov	 ecx, DWORD PTR [eax]
  00004	8b 44 24 04	 mov	 eax, DWORD PTR ___$ReturnUdt$[esp-4]
  00008	89 08		 mov	 DWORD PTR [eax], ecx
  0000a	c2 04 00	 ret	 4
?begin@?$list@IV?$allocator@I@_STL@@@_STL@@QBE?AU?$_List_iterator@IU?$_Const_traits@I@_STL@@@2@XZ ENDP ; _STL::list<unsigned int,_STL::allocator<unsigned int> >::begin
_TEXT	ENDS
PUBLIC	?end@?$list@IV?$allocator@I@_STL@@@_STL@@QBE?AU?$_List_iterator@IU?$_Const_traits@I@_STL@@@2@XZ ; _STL::list<unsigned int,_STL::allocator<unsigned int> >::end
; Function compile flags: /Ogsy
;	COMDAT ?end@?$list@IV?$allocator@I@_STL@@@_STL@@QBE?AU?$_List_iterator@IU?$_Const_traits@I@_STL@@@2@XZ
_TEXT	SEGMENT
___$ReturnUdt$ = 8					; size = 4
?end@?$list@IV?$allocator@I@_STL@@@_STL@@QBE?AU?$_List_iterator@IU?$_Const_traits@I@_STL@@@2@XZ PROC NEAR ; _STL::list<unsigned int,_STL::allocator<unsigned int> >::end, COMDAT
; _this$ = ecx

; 270  :   const_iterator end() const { return this->_M_node._M_data; }

  00000	8b 09		 mov	 ecx, DWORD PTR [ecx]
  00002	8b 44 24 04	 mov	 eax, DWORD PTR ___$ReturnUdt$[esp-4]
  00006	89 08		 mov	 DWORD PTR [eax], ecx
  00008	c2 04 00	 ret	 4
?end@?$list@IV?$allocator@I@_STL@@@_STL@@QBE?AU?$_List_iterator@IU?$_Const_traits@I@_STL@@@2@XZ ENDP ; _STL::list<unsigned int,_STL::allocator<unsigned int> >::end
_TEXT	ENDS
PUBLIC	??0?$_List_base@IV?$allocator@I@_STL@@@_STL@@QAE@ABV?$allocator@I@1@@Z ; _STL::_List_base<unsigned int,_STL::allocator<unsigned int> >::_List_base<unsigned int,_STL::allocator<unsigned int> >
; Function compile flags: /Ogsy
;	COMDAT ??0?$_List_base@IV?$allocator@I@_STL@@@_STL@@QAE@ABV?$allocator@I@1@@Z
_TEXT	SEGMENT
$T108113 = -1						; size = 1
___a$ = 8						; size = 4
??0?$_List_base@IV?$allocator@I@_STL@@@_STL@@QAE@ABV?$allocator@I@1@@Z PROC NEAR ; _STL::_List_base<unsigned int,_STL::allocator<unsigned int> >::_List_base<unsigned int,_STL::allocator<unsigned int> >, COMDAT
; _this$ = ecx

; 182  :   _List_base(const allocator_type& __a) : _M_node(_STLP_CONVERT_ALLOCATOR(__a, _Node), (_Node*)0) {

  00000	51		 push	 ecx
  00001	56		 push	 esi
  00002	6a 00		 push	 0
  00004	8d 44 24 0b	 lea	 eax, DWORD PTR $T108113[esp+12]
  00008	50		 push	 eax
  00009	8b f1		 mov	 esi, ecx
  0000b	e8 00 00 00 00	 call	 ??0?$_STLP_alloc_proxy@PAU?$_List_node@I@_STL@@U12@V?$allocator@U?$_List_node@I@_STL@@@2@@_STL@@QAE@ABV?$allocator@U?$_List_node@I@_STL@@@1@PAU?$_List_node@I@1@@Z ; _STL::_STLP_alloc_proxy<_STL::_List_node<unsigned int> *,_STL::_List_node<unsigned int>,_STL::allocator<_STL::_List_node<unsigned int> > >::_STLP_alloc_proxy<_STL::_List_node<unsigned int> *,_STL::_List_node<unsigned int>,_STL::allocator<_STL::_List_node<unsigned int> > >

; 183  :     _Node* __n = _M_node.allocate(1);

  00010	6a 0c		 push	 12			; 0000000cH
  00012	e8 00 00 00 00	 call	 ?allocate@?$__node_alloc@$00$0A@@_STL@@SAPAXI@Z ; _STL::__node_alloc<1,0>::allocate

; 184  :     __n->_M_next = __n;

  00017	89 00		 mov	 DWORD PTR [eax], eax

; 185  :     __n->_M_prev = __n;

  00019	89 40 04	 mov	 DWORD PTR [eax+4], eax

; 186  :     _M_node._M_data = __n;

  0001c	89 06		 mov	 DWORD PTR [esi], eax
  0001e	59		 pop	 ecx

; 187  :   }

  0001f	8b c6		 mov	 eax, esi
  00021	5e		 pop	 esi
  00022	59		 pop	 ecx
  00023	c2 04 00	 ret	 4
??0?$_List_base@IV?$allocator@I@_STL@@@_STL@@QAE@ABV?$allocator@I@1@@Z ENDP ; _STL::_List_base<unsigned int,_STL::allocator<unsigned int> >::_List_base<unsigned int,_STL::allocator<unsigned int> >
_TEXT	ENDS
PUBLIC	??1?$_List_base@IV?$allocator@I@_STL@@@_STL@@QAE@XZ ; _STL::_List_base<unsigned int,_STL::allocator<unsigned int> >::~_List_base<unsigned int,_STL::allocator<unsigned int> >
; Function compile flags: /Ogsy
;	COMDAT ??1?$_List_base@IV?$allocator@I@_STL@@@_STL@@QAE@XZ
_TEXT	SEGMENT
??1?$_List_base@IV?$allocator@I@_STL@@@_STL@@QAE@XZ PROC NEAR ; _STL::_List_base<unsigned int,_STL::allocator<unsigned int> >::~_List_base<unsigned int,_STL::allocator<unsigned int> >, COMDAT
; _this$ = ecx

; 188  :   ~_List_base() {

  00000	56		 push	 esi
  00001	8b f1		 mov	 esi, ecx

; 189  :     clear();

  00003	e8 00 00 00 00	 call	 ?clear@?$_List_base@IV?$allocator@I@_STL@@@_STL@@QAEXXZ ; _STL::_List_base<unsigned int,_STL::allocator<unsigned int> >::clear

; 190  :     _M_node.deallocate(_M_node._M_data, 1);

  00008	6a 01		 push	 1
  0000a	ff 36		 push	 DWORD PTR [esi]
  0000c	8b ce		 mov	 ecx, esi
  0000e	e8 00 00 00 00	 call	 ?deallocate@?$allocator@U?$_List_node@I@_STL@@@_STL@@QAEXPAU?$_List_node@I@2@I@Z ; _STL::allocator<_STL::_List_node<unsigned int> >::deallocate
  00013	5e		 pop	 esi

; 191  :   }

  00014	c3		 ret	 0
??1?$_List_base@IV?$allocator@I@_STL@@@_STL@@QAE@XZ ENDP ; _STL::_List_base<unsigned int,_STL::allocator<unsigned int> >::~_List_base<unsigned int,_STL::allocator<unsigned int> >
_TEXT	ENDS
PUBLIC	?clear@?$_Rb_tree@HU?$pair@$$CBHH@_STL@@U?$_Select1st@U?$pair@$$CBHH@_STL@@@2@U?$less@H@2@V?$allocator@U?$pair@$$CBHH@_STL@@@2@@_STL@@QAEXXZ ; _STL::_Rb_tree<int,_STL::pair<int const ,int>,_STL::_Select1st<_STL::pair<int const ,int> >,_STL::less<int>,_STL::allocator<_STL::pair<int const ,int> > >::clear
; Function compile flags: /Ogsy
; File c:\stlport-4.6.1\stlport\stl\_tree.h
;	COMDAT ?clear@?$_Rb_tree@HU?$pair@$$CBHH@_STL@@U?$_Select1st@U?$pair@$$CBHH@_STL@@@2@U?$less@H@2@V?$allocator@U?$pair@$$CBHH@_STL@@@2@@_STL@@QAEXXZ
_TEXT	SEGMENT
?clear@?$_Rb_tree@HU?$pair@$$CBHH@_STL@@U?$_Select1st@U?$pair@$$CBHH@_STL@@@2@U?$less@H@2@V?$allocator@U?$pair@$$CBHH@_STL@@@2@@_STL@@QAEXXZ PROC NEAR ; _STL::_Rb_tree<int,_STL::pair<int const ,int>,_STL::_Select1st<_STL::pair<int const ,int> >,_STL::less<int>,_STL::allocator<_STL::pair<int const ,int> > >::clear, COMDAT
; _this$ = ecx

; 445  :   void clear() {

  00000	56		 push	 esi
  00001	8b f1		 mov	 esi, ecx

; 446  :     if (_M_node_count != 0) {

  00003	83 7e 04 00	 cmp	 DWORD PTR [esi+4], 0
  00007	74 1e		 je	 SHORT $L104830

; 447  :       _M_erase(_M_root());

  00009	8b 06		 mov	 eax, DWORD PTR [esi]
  0000b	ff 70 04	 push	 DWORD PTR [eax+4]
  0000e	e8 00 00 00 00	 call	 ?_M_erase@?$_Rb_tree@HU?$pair@$$CBHH@_STL@@U?$_Select1st@U?$pair@$$CBHH@_STL@@@2@U?$less@H@2@V?$allocator@U?$pair@$$CBHH@_STL@@@2@@_STL@@AAEXPAU?$_Rb_tree_node@U?$pair@$$CBHH@_STL@@@2@@Z ; _STL::_Rb_tree<int,_STL::pair<int const ,int>,_STL::_Select1st<_STL::pair<int const ,int> >,_STL::less<int>,_STL::allocator<_STL::pair<int const ,int> > >::_M_erase

; 448  :       _M_leftmost() = this->_M_header._M_data;

  00013	8b 06		 mov	 eax, DWORD PTR [esi]
  00015	89 40 08	 mov	 DWORD PTR [eax+8], eax

; 449  :       _M_root() = 0;

  00018	8b 06		 mov	 eax, DWORD PTR [esi]
  0001a	83 60 04 00	 and	 DWORD PTR [eax+4], 0

; 450  :       _M_rightmost() = this->_M_header._M_data;

  0001e	8b 06		 mov	 eax, DWORD PTR [esi]
  00020	89 40 0c	 mov	 DWORD PTR [eax+12], eax

; 451  :       _M_node_count = 0;

  00023	83 66 04 00	 and	 DWORD PTR [esi+4], 0
$L104830:
  00027	5e		 pop	 esi

; 452  :     }
; 453  :   }      

  00028	c3		 ret	 0
?clear@?$_Rb_tree@HU?$pair@$$CBHH@_STL@@U?$_Select1st@U?$pair@$$CBHH@_STL@@@2@U?$less@H@2@V?$allocator@U?$pair@$$CBHH@_STL@@@2@@_STL@@QAEXXZ ENDP ; _STL::_Rb_tree<int,_STL::pair<int const ,int>,_STL::_Select1st<_STL::pair<int const ,int> >,_STL::less<int>,_STL::allocator<_STL::pair<int const ,int> > >::clear
_TEXT	ENDS
PUBLIC	??1?$_Rb_tree_base@U?$pair@$$CBHH@_STL@@V?$allocator@U?$pair@$$CBHH@_STL@@@2@@_STL@@QAE@XZ ; _STL::_Rb_tree_base<_STL::pair<int const ,int>,_STL::allocator<_STL::pair<int const ,int> > >::~_Rb_tree_base<_STL::pair<int const ,int>,_STL::allocator<_STL::pair<int const ,int> > >
; Function compile flags: /Ogsy
;	COMDAT ??1?$_Rb_tree_base@U?$pair@$$CBHH@_STL@@V?$allocator@U?$pair@$$CBHH@_STL@@@2@@_STL@@QAE@XZ
_TEXT	SEGMENT
??1?$_Rb_tree_base@U?$pair@$$CBHH@_STL@@V?$allocator@U?$pair@$$CBHH@_STL@@@2@@_STL@@QAE@XZ PROC NEAR ; _STL::_Rb_tree_base<_STL::pair<int const ,int>,_STL::allocator<_STL::pair<int const ,int> > >::~_Rb_tree_base<_STL::pair<int const ,int>,_STL::allocator<_STL::pair<int const ,int> > >, COMDAT
; _this$ = ecx

; 208  :     _M_header.deallocate(_M_header._M_data,1); 

  00000	6a 01		 push	 1
  00002	ff 31		 push	 DWORD PTR [ecx]
  00004	e8 00 00 00 00	 call	 ?deallocate@?$allocator@U?$_Rb_tree_node@U?$pair@$$CBHH@_STL@@@_STL@@@_STL@@QAEXPAU?$_Rb_tree_node@U?$pair@$$CBHH@_STL@@@2@I@Z ; _STL::allocator<_STL::_Rb_tree_node<_STL::pair<int const ,int> > >::deallocate

; 209  :   }

  00009	c3		 ret	 0
??1?$_Rb_tree_base@U?$pair@$$CBHH@_STL@@V?$allocator@U?$pair@$$CBHH@_STL@@@2@@_STL@@QAE@XZ ENDP ; _STL::_Rb_tree_base<_STL::pair<int const ,int>,_STL::allocator<_STL::pair<int const ,int> > >::~_Rb_tree_base<_STL::pair<int const ,int>,_STL::allocator<_STL::pair<int const ,int> > >
_TEXT	ENDS
PUBLIC	?_M_create_node@?$list@IV?$allocator@I@_STL@@@_STL@@IAEPAU?$_List_node@I@2@ABI@Z ; _STL::list<unsigned int,_STL::allocator<unsigned int> >::_M_create_node
; Function compile flags: /Ogsy
; File c:\stlport-4.6.1\stlport\stl\_list.h
;	COMDAT ?_M_create_node@?$list@IV?$allocator@I@_STL@@@_STL@@IAEPAU?$_List_node@I@2@ABI@Z
_TEXT	SEGMENT
___x$ = 8						; size = 4
?_M_create_node@?$list@IV?$allocator@I@_STL@@@_STL@@IAEPAU?$_List_node@I@2@ABI@Z PROC NEAR ; _STL::list<unsigned int,_STL::allocator<unsigned int> >::_M_create_node, COMDAT
; _this$ = ecx

; 241  :     _Node* __p = this->_M_node.allocate(1);

  00000	6a 0c		 push	 12			; 0000000cH
  00002	e8 00 00 00 00	 call	 ?allocate@?$__node_alloc@$00$0A@@_STL@@SAPAXI@Z ; _STL::__node_alloc<1,0>::allocate
  00007	59		 pop	 ecx

; 242  :     _STLP_TRY {
; 243  :       _Construct(&__p->_M_data, __x);

  00008	8d 48 08	 lea	 ecx, DWORD PTR [eax+8]
  0000b	85 c9		 test	 ecx, ecx
  0000d	74 08		 je	 SHORT $L108167
  0000f	8b 54 24 04	 mov	 edx, DWORD PTR ___x$[esp-4]
  00013	8b 12		 mov	 edx, DWORD PTR [edx]
  00015	89 11		 mov	 DWORD PTR [ecx], edx
$L108167:

; 244  :     }
; 245  :     _STLP_UNWIND(this->_M_node.deallocate(__p, 1));
; 246  :     return __p;
; 247  :   }

  00017	c2 04 00	 ret	 4
?_M_create_node@?$list@IV?$allocator@I@_STL@@@_STL@@IAEPAU?$_List_node@I@2@ABI@Z ENDP ; _STL::list<unsigned int,_STL::allocator<unsigned int> >::_M_create_node
_TEXT	ENDS
PUBLIC	??0?$_Rb_tree_base@U?$pair@$$CBHH@_STL@@V?$allocator@U?$pair@$$CBHH@_STL@@@2@@_STL@@QAE@ABV?$allocator@U?$pair@$$CBHH@_STL@@@1@@Z ; _STL::_Rb_tree_base<_STL::pair<int const ,int>,_STL::allocator<_STL::pair<int const ,int> > >::_Rb_tree_base<_STL::pair<int const ,int>,_STL::allocator<_STL::pair<int const ,int> > >
; Function compile flags: /Ogsy
; File c:\stlport-4.6.1\stlport\stl\_tree.h
;	COMDAT ??0?$_Rb_tree_base@U?$pair@$$CBHH@_STL@@V?$allocator@U?$pair@$$CBHH@_STL@@@2@@_STL@@QAE@ABV?$allocator@U?$pair@$$CBHH@_STL@@@1@@Z
_TEXT	SEGMENT
$T108178 = -1						; size = 1
___a$ = 8						; size = 4
??0?$_Rb_tree_base@U?$pair@$$CBHH@_STL@@V?$allocator@U?$pair@$$CBHH@_STL@@@2@@_STL@@QAE@ABV?$allocator@U?$pair@$$CBHH@_STL@@@1@@Z PROC NEAR ; _STL::_Rb_tree_base<_STL::pair<int const ,int>,_STL::allocator<_STL::pair<int const ,int> > >::_Rb_tree_base<_STL::pair<int const ,int>,_STL::allocator<_STL::pair<int const ,int> > >, COMDAT
; _this$ = ecx

; 204  :     _M_header(_STLP_CONVERT_ALLOCATOR(__a, _Node), (_Node*)0) { 

  00000	51		 push	 ecx
  00001	56		 push	 esi
  00002	6a 00		 push	 0
  00004	8d 44 24 0b	 lea	 eax, DWORD PTR $T108178[esp+12]
  00008	50		 push	 eax
  00009	8b f1		 mov	 esi, ecx
  0000b	e8 00 00 00 00	 call	 ??0?$_STLP_alloc_proxy@PAU?$_Rb_tree_node@U?$pair@$$CBHH@_STL@@@_STL@@U12@V?$allocator@U?$_Rb_tree_node@U?$pair@$$CBHH@_STL@@@_STL@@@2@@_STL@@QAE@ABV?$allocator@U?$_Rb_tree_node@U?$pair@$$CBHH@_STL@@@_STL@@@1@PAU?$_Rb_tree_node@U?$pair@$$CBHH@_STL@@@1@@Z ; _STL::_STLP_alloc_proxy<_STL::_Rb_tree_node<_STL::pair<int const ,int> > *,_STL::_Rb_tree_node<_STL::pair<int const ,int> >,_STL::allocator<_STL::_Rb_tree_node<_STL::pair<int const ,int> > > >::_STLP_alloc_proxy<_STL::_Rb_tree_node<_STL::pair<int const ,int> > *,_STL::_Rb_tree_node<_STL::pair<int const ,int> >,_STL::allocator<_STL::_Rb_tree_node<_STL::pair<int const ,int> > > >

; 205  :       _M_header._M_data = _M_header.allocate(1); 

  00010	6a 18		 push	 24			; 00000018H
  00012	e8 00 00 00 00	 call	 ?allocate@?$__node_alloc@$00$0A@@_STL@@SAPAXI@Z ; _STL::__node_alloc<1,0>::allocate
  00017	89 06		 mov	 DWORD PTR [esi], eax
  00019	59		 pop	 ecx

; 206  :   }

  0001a	8b c6		 mov	 eax, esi
  0001c	5e		 pop	 esi
  0001d	59		 pop	 ecx
  0001e	c2 04 00	 ret	 4
??0?$_Rb_tree_base@U?$pair@$$CBHH@_STL@@V?$allocator@U?$pair@$$CBHH@_STL@@@2@@_STL@@QAE@ABV?$allocator@U?$pair@$$CBHH@_STL@@@1@@Z ENDP ; _STL::_Rb_tree_base<_STL::pair<int const ,int>,_STL::allocator<_STL::pair<int const ,int> > >::_Rb_tree_base<_STL::pair<int const ,int>,_STL::allocator<_STL::pair<int const ,int> > >
_TEXT	ENDS
PUBLIC	?_M_lower_bound@?$_Rb_tree@HU?$pair@$$CBHH@_STL@@U?$_Select1st@U?$pair@$$CBHH@_STL@@@2@U?$less@H@2@V?$allocator@U?$pair@$$CBHH@_STL@@@2@@_STL@@ABEPAU?$_Rb_tree_node@U?$pair@$$CBHH@_STL@@@2@ABH@Z ; _STL::_Rb_tree<int,_STL::pair<int const ,int>,_STL::_Select1st<_STL::pair<int const ,int> >,_STL::less<int>,_STL::allocator<_STL::pair<int const ,int> > >::_M_lower_bound
; Function compile flags: /Ogsy
;	COMDAT ?_M_lower_bound@?$_Rb_tree@HU?$pair@$$CBHH@_STL@@U?$_Select1st@U?$pair@$$CBHH@_STL@@@2@U?$less@H@2@V?$allocator@U?$pair@$$CBHH@_STL@@@2@@_STL@@ABEPAU?$_Rb_tree_node@U?$pair@$$CBHH@_STL@@@2@ABH@Z
_TEXT	SEGMENT
___k$ = 8						; size = 4
?_M_lower_bound@?$_Rb_tree@HU?$pair@$$CBHH@_STL@@U?$_Select1st@U?$pair@$$CBHH@_STL@@@2@U?$less@H@2@V?$allocator@U?$pair@$$CBHH@_STL@@@2@@_STL@@ABEPAU?$_Rb_tree_node@U?$pair@$$CBHH@_STL@@@2@ABH@Z PROC NEAR ; _STL::_Rb_tree<int,_STL::pair<int const ,int>,_STL::_Select1st<_STL::pair<int const ,int> >,_STL::less<int>,_STL::allocator<_STL::pair<int const ,int> > >::_M_lower_bound, COMDAT
; _this$ = ecx

; 483  :     _Link_type __y = this->_M_header._M_data; /* Last node which is not less than __k. */

  00000	8b 01		 mov	 eax, DWORD PTR [ecx]

; 484  :     _Link_type __x = _M_root(); /* Current node. */

  00002	8b 48 04	 mov	 ecx, DWORD PTR [eax+4]

; 485  :     
; 486  :     while (__x != 0) 

  00005	85 c9		 test	 ecx, ecx
  00007	74 19		 je	 SHORT $L104954
  00009	8b 54 24 04	 mov	 edx, DWORD PTR ___k$[esp-4]
  0000d	8b 12		 mov	 edx, DWORD PTR [edx]
$L104953:

; 487  :       if (!_M_key_compare(_S_key(__x), __k))

  0000f	39 51 10	 cmp	 DWORD PTR [ecx+16], edx
  00012	7c 07		 jl	 SHORT $L104955

; 488  : 	__y = __x, __x = _S_left(__x);

  00014	8b c1		 mov	 eax, ecx
  00016	8b 49 08	 mov	 ecx, DWORD PTR [ecx+8]

; 489  :       else

  00019	eb 03		 jmp	 SHORT $L104956
$L104955:

; 490  : 	__x = _S_right(__x);

  0001b	8b 49 0c	 mov	 ecx, DWORD PTR [ecx+12]
$L104956:

; 485  :     
; 486  :     while (__x != 0) 

  0001e	85 c9		 test	 ecx, ecx
  00020	75 ed		 jne	 SHORT $L104953
$L104954:

; 491  :     
; 492  :     return __y;
; 493  :   }

  00022	c2 04 00	 ret	 4
?_M_lower_bound@?$_Rb_tree@HU?$pair@$$CBHH@_STL@@U?$_Select1st@U?$pair@$$CBHH@_STL@@@2@U?$less@H@2@V?$allocator@U?$pair@$$CBHH@_STL@@@2@@_STL@@ABEPAU?$_Rb_tree_node@U?$pair@$$CBHH@_STL@@@2@ABH@Z ENDP ; _STL::_Rb_tree<int,_STL::pair<int const ,int>,_STL::_Select1st<_STL::pair<int const ,int> >,_STL::less<int>,_STL::allocator<_STL::pair<int const ,int> > >::_M_lower_bound
_TEXT	ENDS
PUBLIC	??$distance@U?$_List_iterator@IU?$_Const_traits@I@_STL@@@_STL@@@_STL@@YAHABU?$_List_iterator@IU?$_Const_traits@I@_STL@@@0@0@Z ; _STL::distance<_STL::_List_iterator<unsigned int,_STL::_Const_traits<unsigned int> > >
; Function compile flags: /Ogsy
; File c:\stlport-4.6.1\stlport\stl\_iterator_base.h
;	COMDAT ??$distance@U?$_List_iterator@IU?$_Const_traits@I@_STL@@@_STL@@@_STL@@YAHABU?$_List_iterator@IU?$_Const_traits@I@_STL@@@0@0@Z
_TEXT	SEGMENT
___first$ = 8						; size = 4
___last$ = 12						; size = 4
??$distance@U?$_List_iterator@IU?$_Const_traits@I@_STL@@@_STL@@@_STL@@YAHABU?$_List_iterator@IU?$_Const_traits@I@_STL@@@0@0@Z PROC NEAR ; _STL::distance<_STL::_List_iterator<unsigned int,_STL::_Const_traits<unsigned int> > >, COMDAT

; 369  :   return __distance(__first, __last, _STLP_ITERATOR_CATEGORY(__first, _InputIterator));  

  00000	8b 54 24 08	 mov	 edx, DWORD PTR ___last$[esp-4]
  00004	8b 4c 24 04	 mov	 ecx, DWORD PTR ___first$[esp-4]
  00008	8b 12		 mov	 edx, DWORD PTR [edx]
  0000a	33 c0		 xor	 eax, eax
  0000c	eb 01		 jmp	 SHORT $L108251
$L108239:
  0000e	40		 inc	 eax
$L108251:
  0000f	8b 09		 mov	 ecx, DWORD PTR [ecx]
  00011	3b ca		 cmp	 ecx, edx
  00013	75 f9		 jne	 SHORT $L108239

; 370  : }

  00015	c3		 ret	 0
??$distance@U?$_List_iterator@IU?$_Const_traits@I@_STL@@@_STL@@@_STL@@YAHABU?$_List_iterator@IU?$_Const_traits@I@_STL@@@0@0@Z ENDP ; _STL::distance<_STL::_List_iterator<unsigned int,_STL::_Const_traits<unsigned int> > >
_TEXT	ENDS
PUBLIC	??$find@H@?$_Rb_tree@HU?$pair@$$CBHH@_STL@@U?$_Select1st@U?$pair@$$CBHH@_STL@@@2@U?$less@H@2@V?$allocator@U?$pair@$$CBHH@_STL@@@2@@_STL@@QAE?AU?$_Rb_tree_iterator@U?$pair@$$CBHH@_STL@@U?$_Nonconst_traits@U?$pair@$$CBHH@_STL@@@2@@1@ABH@Z ; _STL::_Rb_tree<int,_STL::pair<int const ,int>,_STL::_Select1st<_STL::pair<int const ,int> >,_STL::less<int>,_STL::allocator<_STL::pair<int const ,int> > >::find<int>
; Function compile flags: /Ogsy
; File c:\stlport-4.6.1\stlport\stl\_tree.h
;	COMDAT ??$find@H@?$_Rb_tree@HU?$pair@$$CBHH@_STL@@U?$_Select1st@U?$pair@$$CBHH@_STL@@@2@U?$less@H@2@V?$allocator@U?$pair@$$CBHH@_STL@@@2@@_STL@@QAE?AU?$_Rb_tree_iterator@U?$pair@$$CBHH@_STL@@U?$_Nonconst_traits@U?$pair@$$CBHH@_STL@@@2@@1@ABH@Z
_TEXT	SEGMENT
___$ReturnUdt$ = 8					; size = 4
___x$ = 12						; size = 4
??$find@H@?$_Rb_tree@HU?$pair@$$CBHH@_STL@@U?$_Select1st@U?$pair@$$CBHH@_STL@@@2@U?$less@H@2@V?$allocator@U?$pair@$$CBHH@_STL@@@2@@_STL@@QAE?AU?$_Rb_tree_iterator@U?$pair@$$CBHH@_STL@@U?$_Nonconst_traits@U?$pair@$$CBHH@_STL@@@2@@1@ABH@Z PROC NEAR ; _STL::_Rb_tree<int,_STL::pair<int const ,int>,_STL::_Select1st<_STL::pair<int const ,int> >,_STL::less<int>,_STL::allocator<_STL::pair<int const ,int> > >::find<int>, COMDAT
; _this$ = ecx

; 458  :   template <class _KT> iterator find(const _KT& __x) { return iterator(_M_find(__x)); }

  00000	ff 74 24 08	 push	 DWORD PTR ___x$[esp-4]
  00004	e8 00 00 00 00	 call	 ??$_M_find@H@?$_Rb_tree@HU?$pair@$$CBHH@_STL@@U?$_Select1st@U?$pair@$$CBHH@_STL@@@2@U?$less@H@2@V?$allocator@U?$pair@$$CBHH@_STL@@@2@@_STL@@ABEPAU?$_Rb_tree_node@U?$pair@$$CBHH@_STL@@@1@ABH@Z ; _STL::_Rb_tree<int,_STL::pair<int const ,int>,_STL::_Select1st<_STL::pair<int const ,int> >,_STL::less<int>,_STL::allocator<_STL::pair<int const ,int> > >::_M_find<int>
  00009	8b 4c 24 04	 mov	 ecx, DWORD PTR ___$ReturnUdt$[esp-4]
  0000d	89 01		 mov	 DWORD PTR [ecx], eax
  0000f	8b c1		 mov	 eax, ecx
  00011	c2 08 00	 ret	 8
??$find@H@?$_Rb_tree@HU?$pair@$$CBHH@_STL@@U?$_Select1st@U?$pair@$$CBHH@_STL@@@2@U?$less@H@2@V?$allocator@U?$pair@$$CBHH@_STL@@@2@@_STL@@QAE?AU?$_Rb_tree_iterator@U?$pair@$$CBHH@_STL@@U?$_Nonconst_traits@U?$pair@$$CBHH@_STL@@@2@@1@ABH@Z ENDP ; _STL::_Rb_tree<int,_STL::pair<int const ,int>,_STL::_Select1st<_STL::pair<int const ,int> >,_STL::less<int>,_STL::allocator<_STL::pair<int const ,int> > >::find<int>
_TEXT	ENDS
PUBLIC	?begin@?$map@IPAVNPC_INFO@@U?$less@I@_STL@@V?$allocator@U?$pair@$$CBIPAVNPC_INFO@@@_STL@@@3@@_STL@@QAE?AU?$_Rb_tree_iterator@U?$pair@$$CBIPAVNPC_INFO@@@_STL@@U?$_Nonconst_traits@U?$pair@$$CBIPAVNPC_INFO@@@_STL@@@2@@2@XZ ; _STL::map<unsigned int,NPC_INFO *,_STL::less<unsigned int>,_STL::allocator<_STL::pair<unsigned int const ,NPC_INFO *> > >::begin
; Function compile flags: /Ogsy
; File c:\stlport-4.6.1\stlport\stl\_map.h
;	COMDAT ?begin@?$map@IPAVNPC_INFO@@U?$less@I@_STL@@V?$allocator@U?$pair@$$CBIPAVNPC_INFO@@@_STL@@@3@@_STL@@QAE?AU?$_Rb_tree_iterator@U?$pair@$$CBIPAVNPC_INFO@@@_STL@@U?$_Nonconst_traits@U?$pair@$$CBIPAVNPC_INFO@@@_STL@@@2@@2@XZ
_TEXT	SEGMENT
___$ReturnUdt$ = 8					; size = 4
?begin@?$map@IPAVNPC_INFO@@U?$less@I@_STL@@V?$allocator@U?$pair@$$CBIPAVNPC_INFO@@@_STL@@@3@@_STL@@QAE?AU?$_Rb_tree_iterator@U?$pair@$$CBIPAVNPC_INFO@@@_STL@@U?$_Nonconst_traits@U?$pair@$$CBIPAVNPC_INFO@@@_STL@@@2@@2@XZ PROC NEAR ; _STL::map<unsigned int,NPC_INFO *,_STL::less<unsigned int>,_STL::allocator<_STL::pair<unsigned int const ,NPC_INFO *> > >::begin, COMDAT
; _this$ = ecx

; 147  :   iterator begin() { return _M_t.begin(); }

  00000	8b 01		 mov	 eax, DWORD PTR [ecx]
  00002	8b 48 08	 mov	 ecx, DWORD PTR [eax+8]
  00005	8b 44 24 04	 mov	 eax, DWORD PTR ___$ReturnUdt$[esp-4]
  00009	89 08		 mov	 DWORD PTR [eax], ecx
  0000b	c2 04 00	 ret	 4
?begin@?$map@IPAVNPC_INFO@@U?$less@I@_STL@@V?$allocator@U?$pair@$$CBIPAVNPC_INFO@@@_STL@@@3@@_STL@@QAE?AU?$_Rb_tree_iterator@U?$pair@$$CBIPAVNPC_INFO@@@_STL@@U?$_Nonconst_traits@U?$pair@$$CBIPAVNPC_INFO@@@_STL@@@2@@2@XZ ENDP ; _STL::map<unsigned int,NPC_INFO *,_STL::less<unsigned int>,_STL::allocator<_STL::pair<unsigned int const ,NPC_INFO *> > >::begin
_TEXT	ENDS
PUBLIC	?end@?$map@IPAVNPC_INFO@@U?$less@I@_STL@@V?$allocator@U?$pair@$$CBIPAVNPC_INFO@@@_STL@@@3@@_STL@@QAE?AU?$_Rb_tree_iterator@U?$pair@$$CBIPAVNPC_INFO@@@_STL@@U?$_Nonconst_traits@U?$pair@$$CBIPAVNPC_INFO@@@_STL@@@2@@2@XZ ; _STL::map<unsigned int,NPC_INFO *,_STL::less<unsigned int>,_STL::allocator<_STL::pair<unsigned int const ,NPC_INFO *> > >::end
; Function compile flags: /Ogsy
;	COMDAT ?end@?$map@IPAVNPC_INFO@@U?$less@I@_STL@@V?$allocator@U?$pair@$$CBIPAVNPC_INFO@@@_STL@@@3@@_STL@@QAE?AU?$_Rb_tree_iterator@U?$pair@$$CBIPAVNPC_INFO@@@_STL@@U?$_Nonconst_traits@U?$pair@$$CBIPAVNPC_INFO@@@_STL@@@2@@2@XZ
_TEXT	SEGMENT
___$ReturnUdt$ = 8					; size = 4
?end@?$map@IPAVNPC_INFO@@U?$less@I@_STL@@V?$allocator@U?$pair@$$CBIPAVNPC_INFO@@@_STL@@@3@@_STL@@QAE?AU?$_Rb_tree_iterator@U?$pair@$$CBIPAVNPC_INFO@@@_STL@@U?$_Nonconst_traits@U?$pair@$$CBIPAVNPC_INFO@@@_STL@@@2@@2@XZ PROC NEAR ; _STL::map<unsigned int,NPC_INFO *,_STL::less<unsigned int>,_STL::allocator<_STL::pair<unsigned int const ,NPC_INFO *> > >::end, COMDAT
; _this$ = ecx

; 149  :   iterator end() { return _M_t.end(); }

  00000	8b 09		 mov	 ecx, DWORD PTR [ecx]
  00002	8b 44 24 04	 mov	 eax, DWORD PTR ___$ReturnUdt$[esp-4]
  00006	89 08		 mov	 DWORD PTR [eax], ecx
  00008	c2 04 00	 ret	 4
?end@?$map@IPAVNPC_INFO@@U?$less@I@_STL@@V?$allocator@U?$pair@$$CBIPAVNPC_INFO@@@_STL@@@3@@_STL@@QAE?AU?$_Rb_tree_iterator@U?$pair@$$CBIPAVNPC_INFO@@@_STL@@U?$_Nonconst_traits@U?$pair@$$CBIPAVNPC_INFO@@@_STL@@@2@@2@XZ ENDP ; _STL::map<unsigned int,NPC_INFO *,_STL::less<unsigned int>,_STL::allocator<_STL::pair<unsigned int const ,NPC_INFO *> > >::end
_TEXT	ENDS
PUBLIC	??0sentry@?$basic_ostream@DV?$char_traits@D@_STL@@@_STL@@QAE@AAV12@@Z ; _STL::basic_ostream<char,_STL::char_traits<char> >::sentry::sentry
; Function compile flags: /Ogsy
; File c:\stlport-4.6.1\stlport\stl\_ostream.h
;	COMDAT ??0sentry@?$basic_ostream@DV?$char_traits@D@_STL@@@_STL@@QAE@AAV12@@Z
_TEXT	SEGMENT
___str$ = 8						; size = 4
??0sentry@?$basic_ostream@DV?$char_traits@D@_STL@@@_STL@@QAE@AAV12@@Z PROC NEAR ; _STL::basic_ostream<char,_STL::char_traits<char> >::sentry::sentry, COMDAT
; _this$ = ecx

; 165  :       {

  00000	8b 44 24 04	 mov	 eax, DWORD PTR ___str$[esp-4]
  00004	56		 push	 esi
  00005	8b f1		 mov	 esi, ecx
  00007	50		 push	 eax
  00008	89 06		 mov	 DWORD PTR [esi], eax
  0000a	e8 00 00 00 00	 call	 ??$_M_init@DV?$char_traits@D@_STL@@@_STL@@YA_NAAV?$basic_ostream@DV?$char_traits@D@_STL@@@0@@Z ; _STL::_M_init<char,_STL::char_traits<char> >
  0000f	88 46 04	 mov	 BYTE PTR [esi+4], al
  00012	59		 pop	 ecx

; 166  :       }

  00013	8b c6		 mov	 eax, esi
  00015	5e		 pop	 esi
  00016	c2 04 00	 ret	 4
??0sentry@?$basic_ostream@DV?$char_traits@D@_STL@@@_STL@@QAE@AAV12@@Z ENDP ; _STL::basic_ostream<char,_STL::char_traits<char> >::sentry::sentry
_TEXT	ENDS
PUBLIC	??1sentry@?$basic_ostream@DV?$char_traits@D@_STL@@@_STL@@QAE@XZ ; _STL::basic_ostream<char,_STL::char_traits<char> >::sentry::~sentry
; Function compile flags: /Ogsy
;	COMDAT ??1sentry@?$basic_ostream@DV?$char_traits@D@_STL@@@_STL@@QAE@XZ
_TEXT	SEGMENT
??1sentry@?$basic_ostream@DV?$char_traits@D@_STL@@@_STL@@QAE@XZ PROC NEAR ; _STL::basic_ostream<char,_STL::char_traits<char> >::sentry::~sentry, COMDAT
; _this$ = ecx

; 169  :         if (_M_str.flags() & ios_base::unitbuf)

  00000	8b 09		 mov	 ecx, DWORD PTR [ecx]
  00002	8b 01		 mov	 eax, DWORD PTR [ecx]
  00004	8b 40 04	 mov	 eax, DWORD PTR [eax+4]
  00007	f6 44 08 05 20	 test	 BYTE PTR [eax+ecx+5], 32 ; 00000020H
  0000c	74 05		 je	 SHORT $L105744

; 170  : # ifndef _STLP_INCOMPLETE_EXCEPTION_HEADER 
; 171  :           if (!_STLP_VENDOR_EXCEPT_STD::uncaught_exception())
; 172  : # endif
; 173  :             _M_str.flush();

  0000e	e9 00 00 00 00	 jmp	 ?flush@?$basic_ostream@DV?$char_traits@D@_STL@@@_STL@@QAEAAV12@XZ ; _STL::basic_ostream<char,_STL::char_traits<char> >::flush
$L105744:

; 174  :       }

  00013	c3		 ret	 0
??1sentry@?$basic_ostream@DV?$char_traits@D@_STL@@@_STL@@QAE@XZ ENDP ; _STL::basic_ostream<char,_STL::char_traits<char> >::sentry::~sentry
_TEXT	ENDS
PUBLIC	?clear@?$_Rb_tree@IU?$pair@$$CBIPAVNPC_INFO@@@_STL@@U?$_Select1st@U?$pair@$$CBIPAVNPC_INFO@@@_STL@@@2@U?$less@I@2@V?$allocator@U?$pair@$$CBIPAVNPC_INFO@@@_STL@@@2@@_STL@@QAEXXZ ; _STL::_Rb_tree<unsigned int,_STL::pair<unsigned int const ,NPC_INFO *>,_STL::_Select1st<_STL::pair<unsigned int const ,NPC_INFO *> >,_STL::less<unsigned int>,_STL::allocator<_STL::pair<unsigned int const ,NPC_INFO *> > >::clear
; Function compile flags: /Ogsy
; File c:\stlport-4.6.1\stlport\stl\_tree.h
;	COMDAT ?clear@?$_Rb_tree@IU?$pair@$$CBIPAVNPC_INFO@@@_STL@@U?$_Select1st@U?$pair@$$CBIPAVNPC_INFO@@@_STL@@@2@U?$less@I@2@V?$allocator@U?$pair@$$CBIPAVNPC_INFO@@@_STL@@@2@@_STL@@QAEXXZ
_TEXT	SEGMENT
?clear@?$_Rb_tree@IU?$pair@$$CBIPAVNPC_INFO@@@_STL@@U?$_Select1st@U?$pair@$$CBIPAVNPC_INFO@@@_STL@@@2@U?$less@I@2@V?$allocator@U?$pair@$$CBIPAVNPC_INFO@@@_STL@@@2@@_STL@@QAEXXZ PROC NEAR ; _STL::_Rb_tree<unsigned int,_STL::pair<unsigned int const ,NPC_INFO *>,_STL::_Select1st<_STL::pair<unsigned int const ,NPC_INFO *> >,_STL::less<unsigned int>,_STL::allocator<_STL::pair<unsigned int const ,NPC_INFO *> > >::clear, COMDAT
; _this$ = ecx

; 445  :   void clear() {

  00000	56		 push	 esi
  00001	8b f1		 mov	 esi, ecx

; 446  :     if (_M_node_count != 0) {

  00003	83 7e 04 00	 cmp	 DWORD PTR [esi+4], 0
  00007	74 1e		 je	 SHORT $L105791

; 447  :       _M_erase(_M_root());

  00009	8b 06		 mov	 eax, DWORD PTR [esi]
  0000b	ff 70 04	 push	 DWORD PTR [eax+4]
  0000e	e8 00 00 00 00	 call	 ?_M_erase@?$_Rb_tree@IU?$pair@$$CBIPAVNPC_INFO@@@_STL@@U?$_Select1st@U?$pair@$$CBIPAVNPC_INFO@@@_STL@@@2@U?$less@I@2@V?$allocator@U?$pair@$$CBIPAVNPC_INFO@@@_STL@@@2@@_STL@@AAEXPAU?$_Rb_tree_node@U?$pair@$$CBIPAVNPC_INFO@@@_STL@@@2@@Z ; _STL::_Rb_tree<unsigned int,_STL::pair<unsigned int const ,NPC_INFO *>,_STL::_Select1st<_STL::pair<unsigned int const ,NPC_INFO *> >,_STL::less<unsigned int>,_STL::allocator<_STL::pair<unsigned int const ,NPC_INFO *> > >::_M_erase

; 448  :       _M_leftmost() = this->_M_header._M_data;

  00013	8b 06		 mov	 eax, DWORD PTR [esi]
  00015	89 40 08	 mov	 DWORD PTR [eax+8], eax

; 449  :       _M_root() = 0;

  00018	8b 06		 mov	 eax, DWORD PTR [esi]
  0001a	83 60 04 00	 and	 DWORD PTR [eax+4], 0

; 450  :       _M_rightmost() = this->_M_header._M_data;

  0001e	8b 06		 mov	 eax, DWORD PTR [esi]
  00020	89 40 0c	 mov	 DWORD PTR [eax+12], eax

; 451  :       _M_node_count = 0;

  00023	83 66 04 00	 and	 DWORD PTR [esi+4], 0
$L105791:
  00027	5e		 pop	 esi

; 452  :     }
; 453  :   }      

  00028	c3		 ret	 0
?clear@?$_Rb_tree@IU?$pair@$$CBIPAVNPC_INFO@@@_STL@@U?$_Select1st@U?$pair@$$CBIPAVNPC_INFO@@@_STL@@@2@U?$less@I@2@V?$allocator@U?$pair@$$CBIPAVNPC_INFO@@@_STL@@@2@@_STL@@QAEXXZ ENDP ; _STL::_Rb_tree<unsigned int,_STL::pair<unsigned int const ,NPC_INFO *>,_STL::_Select1st<_STL::pair<unsigned int const ,NPC_INFO *> >,_STL::less<unsigned int>,_STL::allocator<_STL::pair<unsigned int const ,NPC_INFO *> > >::clear
_TEXT	ENDS
PUBLIC	??1?$_Rb_tree_base@U?$pair@$$CBIPAVNPC_INFO@@@_STL@@V?$allocator@U?$pair@$$CBIPAVNPC_INFO@@@_STL@@@2@@_STL@@QAE@XZ ; _STL::_Rb_tree_base<_STL::pair<unsigned int const ,NPC_INFO *>,_STL::allocator<_STL::pair<unsigned int const ,NPC_INFO *> > >::~_Rb_tree_base<_STL::pair<unsigned int const ,NPC_INFO *>,_STL::allocator<_STL::pair<unsigned int const ,NPC_INFO *> > >
; Function compile flags: /Ogsy
;	COMDAT ??1?$_Rb_tree_base@U?$pair@$$CBIPAVNPC_INFO@@@_STL@@V?$allocator@U?$pair@$$CBIPAVNPC_INFO@@@_STL@@@2@@_STL@@QAE@XZ
_TEXT	SEGMENT
??1?$_Rb_tree_base@U?$pair@$$CBIPAVNPC_INFO@@@_STL@@V?$allocator@U?$pair@$$CBIPAVNPC_INFO@@@_STL@@@2@@_STL@@QAE@XZ PROC NEAR ; _STL::_Rb_tree_base<_STL::pair<unsigned int const ,NPC_INFO *>,_STL::allocator<_STL::pair<unsigned int const ,NPC_INFO *> > >::~_Rb_tree_base<_STL::pair<unsigned int const ,NPC_INFO *>,_STL::allocator<_STL::pair<unsigned int const ,NPC_INFO *> > >, COMDAT
; _this$ = ecx

; 208  :     _M_header.deallocate(_M_header._M_data,1); 

  00000	6a 01		 push	 1
  00002	ff 31		 push	 DWORD PTR [ecx]
  00004	e8 00 00 00 00	 call	 ?deallocate@?$allocator@U?$_Rb_tree_node@U?$pair@$$CBIPAVNPC_INFO@@@_STL@@@_STL@@@_STL@@QAEXPAU?$_Rb_tree_node@U?$pair@$$CBIPAVNPC_INFO@@@_STL@@@2@I@Z ; _STL::allocator<_STL::_Rb_tree_node<_STL::pair<unsigned int const ,NPC_INFO *> > >::deallocate

; 209  :   }

  00009	c3		 ret	 0
??1?$_Rb_tree_base@U?$pair@$$CBIPAVNPC_INFO@@@_STL@@V?$allocator@U?$pair@$$CBIPAVNPC_INFO@@@_STL@@@2@@_STL@@QAE@XZ ENDP ; _STL::_Rb_tree_base<_STL::pair<unsigned int const ,NPC_INFO *>,_STL::allocator<_STL::pair<unsigned int const ,NPC_INFO *> > >::~_Rb_tree_base<_STL::pair<unsigned int const ,NPC_INFO *>,_STL::allocator<_STL::pair<unsigned int const ,NPC_INFO *> > >
_TEXT	ENDS
PUBLIC	?clear@?$_Rb_tree@IU?$pair@$$CBIPAVSERVERNPC_INFO@@@_STL@@U?$_Select1st@U?$pair@$$CBIPAVSERVERNPC_INFO@@@_STL@@@2@U?$less@I@2@V?$allocator@U?$pair@$$CBIPAVSERVERNPC_INFO@@@_STL@@@2@@_STL@@QAEXXZ ; _STL::_Rb_tree<unsigned int,_STL::pair<unsigned int const ,SERVERNPC_INFO *>,_STL::_Select1st<_STL::pair<unsigned int const ,SERVERNPC_INFO *> >,_STL::less<unsigned int>,_STL::allocator<_STL::pair<unsigned int const ,SERVERNPC_INFO *> > >::clear
; Function compile flags: /Ogsy
;	COMDAT ?clear@?$_Rb_tree@IU?$pair@$$CBIPAVSERVERNPC_INFO@@@_STL@@U?$_Select1st@U?$pair@$$CBIPAVSERVERNPC_INFO@@@_STL@@@2@U?$less@I@2@V?$allocator@U?$pair@$$CBIPAVSERVERNPC_INFO@@@_STL@@@2@@_STL@@QAEXXZ
_TEXT	SEGMENT
?clear@?$_Rb_tree@IU?$pair@$$CBIPAVSERVERNPC_INFO@@@_STL@@U?$_Select1st@U?$pair@$$CBIPAVSERVERNPC_INFO@@@_STL@@@2@U?$less@I@2@V?$allocator@U?$pair@$$CBIPAVSERVERNPC_INFO@@@_STL@@@2@@_STL@@QAEXXZ PROC NEAR ; _STL::_Rb_tree<unsigned int,_STL::pair<unsigned int const ,SERVERNPC_INFO *>,_STL::_Select1st<_STL::pair<unsigned int const ,SERVERNPC_INFO *> >,_STL::less<unsigned int>,_STL::allocator<_STL::pair<unsigned int const ,SERVERNPC_INFO *> > >::clear, COMDAT
; _this$ = ecx

; 445  :   void clear() {

  00000	56		 push	 esi
  00001	8b f1		 mov	 esi, ecx

; 446  :     if (_M_node_count != 0) {

  00003	83 7e 04 00	 cmp	 DWORD PTR [esi+4], 0
  00007	74 1e		 je	 SHORT $L105810

; 447  :       _M_erase(_M_root());

  00009	8b 06		 mov	 eax, DWORD PTR [esi]
  0000b	ff 70 04	 push	 DWORD PTR [eax+4]
  0000e	e8 00 00 00 00	 call	 ?_M_erase@?$_Rb_tree@IU?$pair@$$CBIPAVSERVERNPC_INFO@@@_STL@@U?$_Select1st@U?$pair@$$CBIPAVSERVERNPC_INFO@@@_STL@@@2@U?$less@I@2@V?$allocator@U?$pair@$$CBIPAVSERVERNPC_INFO@@@_STL@@@2@@_STL@@AAEXPAU?$_Rb_tree_node@U?$pair@$$CBIPAVSERVERNPC_INFO@@@_STL@@@2@@Z ; _STL::_Rb_tree<unsigned int,_STL::pair<unsigned int const ,SERVERNPC_INFO *>,_STL::_Select1st<_STL::pair<unsigned int const ,SERVERNPC_INFO *> >,_STL::less<unsigned int>,_STL::allocator<_STL::pair<unsigned int const ,SERVERNPC_INFO *> > >::_M_erase

; 448  :       _M_leftmost() = this->_M_header._M_data;

  00013	8b 06		 mov	 eax, DWORD PTR [esi]
  00015	89 40 08	 mov	 DWORD PTR [eax+8], eax

; 449  :       _M_root() = 0;

  00018	8b 06		 mov	 eax, DWORD PTR [esi]
  0001a	83 60 04 00	 and	 DWORD PTR [eax+4], 0

; 450  :       _M_rightmost() = this->_M_header._M_data;

  0001e	8b 06		 mov	 eax, DWORD PTR [esi]
  00020	89 40 0c	 mov	 DWORD PTR [eax+12], eax

; 451  :       _M_node_count = 0;

  00023	83 66 04 00	 and	 DWORD PTR [esi+4], 0
$L105810:
  00027	5e		 pop	 esi

; 452  :     }
; 453  :   }      

  00028	c3		 ret	 0
?clear@?$_Rb_tree@IU?$pair@$$CBIPAVSERVERNPC_INFO@@@_STL@@U?$_Select1st@U?$pair@$$CBIPAVSERVERNPC_INFO@@@_STL@@@2@U?$less@I@2@V?$allocator@U?$pair@$$CBIPAVSERVERNPC_INFO@@@_STL@@@2@@_STL@@QAEXXZ ENDP ; _STL::_Rb_tree<unsigned int,_STL::pair<unsigned int const ,SERVERNPC_INFO *>,_STL::_Select1st<_STL::pair<unsigned int const ,SERVERNPC_INFO *> >,_STL::less<unsigned int>,_STL::allocator<_STL::pair<unsigned int const ,SERVERNPC_INFO *> > >::clear
_TEXT	ENDS
PUBLIC	??1?$_Rb_tree_base@U?$pair@$$CBIPAVSERVERNPC_INFO@@@_STL@@V?$allocator@U?$pair@$$CBIPAVSERVERNPC_INFO@@@_STL@@@2@@_STL@@QAE@XZ ; _STL::_Rb_tree_base<_STL::pair<unsigned int const ,SERVERNPC_INFO *>,_STL::allocator<_STL::pair<unsigned int const ,SERVERNPC_INFO *> > >::~_Rb_tree_base<_STL::pair<unsigned int const ,SERVERNPC_INFO *>,_STL::allocator<_STL::pair<unsigned int const ,SERVERNPC_INFO *> > >
; Function compile flags: /Ogsy
;	COMDAT ??1?$_Rb_tree_base@U?$pair@$$CBIPAVSERVERNPC_INFO@@@_STL@@V?$allocator@U?$pair@$$CBIPAVSERVERNPC_INFO@@@_STL@@@2@@_STL@@QAE@XZ
_TEXT	SEGMENT
??1?$_Rb_tree_base@U?$pair@$$CBIPAVSERVERNPC_INFO@@@_STL@@V?$allocator@U?$pair@$$CBIPAVSERVERNPC_INFO@@@_STL@@@2@@_STL@@QAE@XZ PROC NEAR ; _STL::_Rb_tree_base<_STL::pair<unsigned int const ,SERVERNPC_INFO *>,_STL::allocator<_STL::pair<unsigned int const ,SERVERNPC_INFO *> > >::~_Rb_tree_base<_STL::pair<unsigned int const ,SERVERNPC_INFO *>,_STL::allocator<_STL::pair<unsigned int const ,SERVERNPC_INFO *> > >, COMDAT
; _this$ = ecx

; 208  :     _M_header.deallocate(_M_header._M_data,1); 

  00000	6a 01		 push	 1
  00002	ff 31		 push	 DWORD PTR [ecx]
  00004	e8 00 00 00 00	 call	 ?deallocate@?$allocator@U?$_Rb_tree_node@U?$pair@$$CBIPAVSERVERNPC_INFO@@@_STL@@@_STL@@@_STL@@QAEXPAU?$_Rb_tree_node@U?$pair@$$CBIPAVSERVERNPC_INFO@@@_STL@@@2@I@Z ; _STL::allocator<_STL::_Rb_tree_node<_STL::pair<unsigned int const ,SERVERNPC_INFO *> > >::deallocate

; 209  :   }

  00009	c3		 ret	 0
??1?$_Rb_tree_base@U?$pair@$$CBIPAVSERVERNPC_INFO@@@_STL@@V?$allocator@U?$pair@$$CBIPAVSERVERNPC_INFO@@@_STL@@@2@@_STL@@QAE@XZ ENDP ; _STL::_Rb_tree_base<_STL::pair<unsigned int const ,SERVERNPC_INFO *>,_STL::allocator<_STL::pair<unsigned int const ,SERVERNPC_INFO *> > >::~_Rb_tree_base<_STL::pair<unsigned int const ,SERVERNPC_INFO *>,_STL::allocator<_STL::pair<unsigned int const ,SERVERNPC_INFO *> > >
_TEXT	ENDS
PUBLIC	??0?$_Rb_tree_base@U?$pair@$$CBIPAVNPC_INFO@@@_STL@@V?$allocator@U?$pair@$$CBIPAVNPC_INFO@@@_STL@@@2@@_STL@@QAE@ABV?$allocator@U?$pair@$$CBIPAVNPC_INFO@@@_STL@@@1@@Z ; _STL::_Rb_tree_base<_STL::pair<unsigned int const ,NPC_INFO *>,_STL::allocator<_STL::pair<unsigned int const ,NPC_INFO *> > >::_Rb_tree_base<_STL::pair<unsigned int const ,NPC_INFO *>,_STL::allocator<_STL::pair<unsigned int const ,NPC_INFO *> > >
; Function compile flags: /Ogsy
;	COMDAT ??0?$_Rb_tree_base@U?$pair@$$CBIPAVNPC_INFO@@@_STL@@V?$allocator@U?$pair@$$CBIPAVNPC_INFO@@@_STL@@@2@@_STL@@QAE@ABV?$allocator@U?$pair@$$CBIPAVNPC_INFO@@@_STL@@@1@@Z
_TEXT	SEGMENT
$T108337 = -1						; size = 1
___a$ = 8						; size = 4
??0?$_Rb_tree_base@U?$pair@$$CBIPAVNPC_INFO@@@_STL@@V?$allocator@U?$pair@$$CBIPAVNPC_INFO@@@_STL@@@2@@_STL@@QAE@ABV?$allocator@U?$pair@$$CBIPAVNPC_INFO@@@_STL@@@1@@Z PROC NEAR ; _STL::_Rb_tree_base<_STL::pair<unsigned int const ,NPC_INFO *>,_STL::allocator<_STL::pair<unsigned int const ,NPC_INFO *> > >::_Rb_tree_base<_STL::pair<unsigned int const ,NPC_INFO *>,_STL::allocator<_STL::pair<unsigned int const ,NPC_INFO *> > >, COMDAT
; _this$ = ecx

; 204  :     _M_header(_STLP_CONVERT_ALLOCATOR(__a, _Node), (_Node*)0) { 

  00000	51		 push	 ecx
  00001	56		 push	 esi
  00002	6a 00		 push	 0
  00004	8d 44 24 0b	 lea	 eax, DWORD PTR $T108337[esp+12]
  00008	50		 push	 eax
  00009	8b f1		 mov	 esi, ecx
  0000b	e8 00 00 00 00	 call	 ??0?$_STLP_alloc_proxy@PAU?$_Rb_tree_node@U?$pair@$$CBIPAVNPC_INFO@@@_STL@@@_STL@@U12@V?$allocator@U?$_Rb_tree_node@U?$pair@$$CBIPAVNPC_INFO@@@_STL@@@_STL@@@2@@_STL@@QAE@ABV?$allocator@U?$_Rb_tree_node@U?$pair@$$CBIPAVNPC_INFO@@@_STL@@@_STL@@@1@PAU?$_Rb_tree_node@U?$pair@$$CBIPAVNPC_INFO@@@_STL@@@1@@Z ; _STL::_STLP_alloc_proxy<_STL::_Rb_tree_node<_STL::pair<unsigned int const ,NPC_INFO *> > *,_STL::_Rb_tree_node<_STL::pair<unsigned int const ,NPC_INFO *> >,_STL::allocator<_STL::_Rb_tree_node<_STL::pair<unsigned int const ,NPC_INFO *> > > >::_STLP_alloc_proxy<_STL::_Rb_tree_node<_STL::pair<unsigned int const ,NPC_INFO *> > *,_STL::_Rb_tree_node<_STL::pair<unsigned int const ,NPC_INFO *> >,_STL::allocator<_STL::_Rb_tree_node<_STL::pair<unsigned int const ,NPC_INFO *> > > >

; 205  :       _M_header._M_data = _M_header.allocate(1); 

  00010	6a 18		 push	 24			; 00000018H
  00012	e8 00 00 00 00	 call	 ?allocate@?$__node_alloc@$00$0A@@_STL@@SAPAXI@Z ; _STL::__node_alloc<1,0>::allocate
  00017	89 06		 mov	 DWORD PTR [esi], eax
  00019	59		 pop	 ecx

; 206  :   }

  0001a	8b c6		 mov	 eax, esi
  0001c	5e		 pop	 esi
  0001d	59		 pop	 ecx
  0001e	c2 04 00	 ret	 4
??0?$_Rb_tree_base@U?$pair@$$CBIPAVNPC_INFO@@@_STL@@V?$allocator@U?$pair@$$CBIPAVNPC_INFO@@@_STL@@@2@@_STL@@QAE@ABV?$allocator@U?$pair@$$CBIPAVNPC_INFO@@@_STL@@@1@@Z ENDP ; _STL::_Rb_tree_base<_STL::pair<unsigned int const ,NPC_INFO *>,_STL::allocator<_STL::pair<unsigned int const ,NPC_INFO *> > >::_Rb_tree_base<_STL::pair<unsigned int const ,NPC_INFO *>,_STL::allocator<_STL::pair<unsigned int const ,NPC_INFO *> > >
_TEXT	ENDS
PUBLIC	??0?$_Rb_tree_base@U?$pair@$$CBIPAVSERVERNPC_INFO@@@_STL@@V?$allocator@U?$pair@$$CBIPAVSERVERNPC_INFO@@@_STL@@@2@@_STL@@QAE@ABV?$allocator@U?$pair@$$CBIPAVSERVERNPC_INFO@@@_STL@@@1@@Z ; _STL::_Rb_tree_base<_STL::pair<unsigned int const ,SERVERNPC_INFO *>,_STL::allocator<_STL::pair<unsigned int const ,SERVERNPC_INFO *> > >::_Rb_tree_base<_STL::pair<unsigned int const ,SERVERNPC_INFO *>,_STL::allocator<_STL::pair<unsigned int const ,SERVERNPC_INFO *> > >
; Function compile flags: /Ogsy
;	COMDAT ??0?$_Rb_tree_base@U?$pair@$$CBIPAVSERVERNPC_INFO@@@_STL@@V?$allocator@U?$pair@$$CBIPAVSERVERNPC_INFO@@@_STL@@@2@@_STL@@QAE@ABV?$allocator@U?$pair@$$CBIPAVSERVERNPC_INFO@@@_STL@@@1@@Z
_TEXT	SEGMENT
$T108351 = -1						; size = 1
___a$ = 8						; size = 4
??0?$_Rb_tree_base@U?$pair@$$CBIPAVSERVERNPC_INFO@@@_STL@@V?$allocator@U?$pair@$$CBIPAVSERVERNPC_INFO@@@_STL@@@2@@_STL@@QAE@ABV?$allocator@U?$pair@$$CBIPAVSERVERNPC_INFO@@@_STL@@@1@@Z PROC NEAR ; _STL::_Rb_tree_base<_STL::pair<unsigned int const ,SERVERNPC_INFO *>,_STL::allocator<_STL::pair<unsigned int const ,SERVERNPC_INFO *> > >::_Rb_tree_base<_STL::pair<unsigned int const ,SERVERNPC_INFO *>,_STL::allocator<_STL::pair<unsigned int const ,SERVERNPC_INFO *> > >, COMDAT
; _this$ = ecx

; 204  :     _M_header(_STLP_CONVERT_ALLOCATOR(__a, _Node), (_Node*)0) { 

  00000	51		 push	 ecx
  00001	56		 push	 esi
  00002	6a 00		 push	 0
  00004	8d 44 24 0b	 lea	 eax, DWORD PTR $T108351[esp+12]
  00008	50		 push	 eax
  00009	8b f1		 mov	 esi, ecx
  0000b	e8 00 00 00 00	 call	 ??0?$_STLP_alloc_proxy@PAU?$_Rb_tree_node@U?$pair@$$CBIPAVSERVERNPC_INFO@@@_STL@@@_STL@@U12@V?$allocator@U?$_Rb_tree_node@U?$pair@$$CBIPAVSERVERNPC_INFO@@@_STL@@@_STL@@@2@@_STL@@QAE@ABV?$allocator@U?$_Rb_tree_node@U?$pair@$$CBIPAVSERVERNPC_INFO@@@_STL@@@_STL@@@1@PAU?$_Rb_tree_node@U?$pair@$$CBIPAVSERVERNPC_INFO@@@_STL@@@1@@Z ; _STL::_STLP_alloc_proxy<_STL::_Rb_tree_node<_STL::pair<unsigned int const ,SERVERNPC_INFO *> > *,_STL::_Rb_tree_node<_STL::pair<unsigned int const ,SERVERNPC_INFO *> >,_STL::allocator<_STL::_Rb_tree_node<_STL::pair<unsigned int const ,SERVERNPC_INFO *> > > >::_STLP_alloc_proxy<_STL::_Rb_tree_node<_STL::pair<unsigned int const ,SERVERNPC_INFO *> > *,_STL::_Rb_tree_node<_STL::pair<unsigned int const ,SERVERNPC_INFO *> >,_STL::allocator<_STL::_Rb_tree_node<_STL::pair<unsigned int const ,SERVERNPC_INFO *> > > >

; 205  :       _M_header._M_data = _M_header.allocate(1); 

  00010	6a 18		 push	 24			; 00000018H
  00012	e8 00 00 00 00	 call	 ?allocate@?$__node_alloc@$00$0A@@_STL@@SAPAXI@Z ; _STL::__node_alloc<1,0>::allocate
  00017	89 06		 mov	 DWORD PTR [esi], eax
  00019	59		 pop	 ecx

; 206  :   }

  0001a	8b c6		 mov	 eax, esi
  0001c	5e		 pop	 esi
  0001d	59		 pop	 ecx
  0001e	c2 04 00	 ret	 4
??0?$_Rb_tree_base@U?$pair@$$CBIPAVSERVERNPC_INFO@@@_STL@@V?$allocator@U?$pair@$$CBIPAVSERVERNPC_INFO@@@_STL@@@2@@_STL@@QAE@ABV?$allocator@U?$pair@$$CBIPAVSERVERNPC_INFO@@@_STL@@@1@@Z ENDP ; _STL::_Rb_tree_base<_STL::pair<unsigned int const ,SERVERNPC_INFO *>,_STL::allocator<_STL::pair<unsigned int const ,SERVERNPC_INFO *> > >::_Rb_tree_base<_STL::pair<unsigned int const ,SERVERNPC_INFO *>,_STL::allocator<_STL::pair<unsigned int const ,SERVERNPC_INFO *> > >
_TEXT	ENDS
PUBLIC	?_M_create_node@?$_Rb_tree@HU?$pair@$$CBHH@_STL@@U?$_Select1st@U?$pair@$$CBHH@_STL@@@2@U?$less@H@2@V?$allocator@U?$pair@$$CBHH@_STL@@@2@@_STL@@IAEPAU?$_Rb_tree_node@U?$pair@$$CBHH@_STL@@@2@ABU?$pair@$$CBHH@2@@Z ; _STL::_Rb_tree<int,_STL::pair<int const ,int>,_STL::_Select1st<_STL::pair<int const ,int> >,_STL::less<int>,_STL::allocator<_STL::pair<int const ,int> > >::_M_create_node
; Function compile flags: /Ogsy
;	COMDAT ?_M_create_node@?$_Rb_tree@HU?$pair@$$CBHH@_STL@@U?$_Select1st@U?$pair@$$CBHH@_STL@@@2@U?$less@H@2@V?$allocator@U?$pair@$$CBHH@_STL@@@2@@_STL@@IAEPAU?$_Rb_tree_node@U?$pair@$$CBHH@_STL@@@2@ABU?$pair@$$CBHH@2@@Z
_TEXT	SEGMENT
___x$ = 8						; size = 4
?_M_create_node@?$_Rb_tree@HU?$pair@$$CBHH@_STL@@U?$_Select1st@U?$pair@$$CBHH@_STL@@@2@U?$less@H@2@V?$allocator@U?$pair@$$CBHH@_STL@@@2@@_STL@@IAEPAU?$_Rb_tree_node@U?$pair@$$CBHH@_STL@@@2@ABU?$pair@$$CBHH@2@@Z PROC NEAR ; _STL::_Rb_tree<int,_STL::pair<int const ,int>,_STL::_Select1st<_STL::pair<int const ,int> >,_STL::less<int>,_STL::allocator<_STL::pair<int const ,int> > >::_M_create_node, COMDAT
; _this$ = ecx

; 242  :   {

  00000	56		 push	 esi

; 243  :     _Link_type __tmp = this->_M_header.allocate(1);

  00001	6a 18		 push	 24			; 00000018H
  00003	e8 00 00 00 00	 call	 ?allocate@?$__node_alloc@$00$0A@@_STL@@SAPAXI@Z ; _STL::__node_alloc<1,0>::allocate

; 244  :     _STLP_TRY {
; 245  :       _Construct(&__tmp->_M_value_field, __x);

  00008	ff 74 24 0c	 push	 DWORD PTR ___x$[esp+4]
  0000c	8b f0		 mov	 esi, eax
  0000e	8d 46 10	 lea	 eax, DWORD PTR [esi+16]
  00011	50		 push	 eax
  00012	e8 00 00 00 00	 call	 ??$_Construct@U?$pair@$$CBHH@_STL@@U12@@_STL@@YAXPAU?$pair@$$CBHH@0@ABU10@@Z ; _STL::_Construct<_STL::pair<int const ,int>,_STL::pair<int const ,int> >
  00017	83 c4 0c	 add	 esp, 12			; 0000000cH

; 246  :     }
; 247  :     _STLP_UNWIND(this->_M_header.deallocate(__tmp,1));
; 248  :     return __tmp;

  0001a	8b c6		 mov	 eax, esi
  0001c	5e		 pop	 esi

; 249  :   }

  0001d	c2 04 00	 ret	 4
?_M_create_node@?$_Rb_tree@HU?$pair@$$CBHH@_STL@@U?$_Select1st@U?$pair@$$CBHH@_STL@@@2@U?$less@H@2@V?$allocator@U?$pair@$$CBHH@_STL@@@2@@_STL@@IAEPAU?$_Rb_tree_node@U?$pair@$$CBHH@_STL@@@2@ABU?$pair@$$CBHH@2@@Z ENDP ; _STL::_Rb_tree<int,_STL::pair<int const ,int>,_STL::_Select1st<_STL::pair<int const ,int> >,_STL::less<int>,_STL::allocator<_STL::pair<int const ,int> > >::_M_create_node
_TEXT	ENDS
PUBLIC	??0?$list@IV?$allocator@I@_STL@@@_STL@@QAE@ABV?$allocator@I@1@@Z ; _STL::list<unsigned int,_STL::allocator<unsigned int> >::list<unsigned int,_STL::allocator<unsigned int> >
; Function compile flags: /Ogsy
; File c:\stlport-4.6.1\stlport\stl\_list.h
;	COMDAT ??0?$list@IV?$allocator@I@_STL@@@_STL@@QAE@ABV?$allocator@I@1@@Z
_TEXT	SEGMENT
___a$ = 8						; size = 4
??0?$list@IV?$allocator@I@_STL@@@_STL@@QAE@ABV?$allocator@I@1@@Z PROC NEAR ; _STL::list<unsigned int,_STL::allocator<unsigned int> >::list<unsigned int,_STL::allocator<unsigned int> >, COMDAT
; _this$ = ecx

; 264  :     _List_base<_Tp, _Alloc>(__a) {}

  00000	56		 push	 esi
  00001	ff 74 24 08	 push	 DWORD PTR ___a$[esp]
  00005	8b f1		 mov	 esi, ecx
  00007	e8 00 00 00 00	 call	 ??0?$_List_base@IV?$allocator@I@_STL@@@_STL@@QAE@ABV?$allocator@I@1@@Z ; _STL::_List_base<unsigned int,_STL::allocator<unsigned int> >::_List_base<unsigned int,_STL::allocator<unsigned int> >
  0000c	8b c6		 mov	 eax, esi
  0000e	5e		 pop	 esi
  0000f	c2 04 00	 ret	 4
??0?$list@IV?$allocator@I@_STL@@@_STL@@QAE@ABV?$allocator@I@1@@Z ENDP ; _STL::list<unsigned int,_STL::allocator<unsigned int> >::list<unsigned int,_STL::allocator<unsigned int> >
_TEXT	ENDS
PUBLIC	?size@?$list@IV?$allocator@I@_STL@@@_STL@@QBEIXZ ; _STL::list<unsigned int,_STL::allocator<unsigned int> >::size
; Function compile flags: /Ogsy
;	COMDAT ?size@?$list@IV?$allocator@I@_STL@@@_STL@@QBEIXZ
_TEXT	SEGMENT
?size@?$list@IV?$allocator@I@_STL@@@_STL@@QBEIXZ PROC NEAR ; _STL::list<unsigned int,_STL::allocator<unsigned int> >::size, COMDAT
; _this$ = ecx

; 284  :     size_type __result = distance(begin(), end());

  00000	8b 11		 mov	 edx, DWORD PTR [ecx]
  00002	8b 0a		 mov	 ecx, DWORD PTR [edx]
  00004	33 c0		 xor	 eax, eax
  00006	eb 03		 jmp	 SHORT $L108460
$L108449:
  00008	8b 09		 mov	 ecx, DWORD PTR [ecx]
  0000a	40		 inc	 eax
$L108460:
  0000b	3b ca		 cmp	 ecx, edx
  0000d	75 f9		 jne	 SHORT $L108449

; 285  :     return __result;
; 286  :   }

  0000f	c3		 ret	 0
?size@?$list@IV?$allocator@I@_STL@@@_STL@@QBEIXZ ENDP	; _STL::list<unsigned int,_STL::allocator<unsigned int> >::size
_TEXT	ENDS
PUBLIC	??1?$list@IV?$allocator@I@_STL@@@_STL@@QAE@XZ	; _STL::list<unsigned int,_STL::allocator<unsigned int> >::~list<unsigned int,_STL::allocator<unsigned int> >
; Function compile flags: /Ogsy
;	COMDAT ??1?$list@IV?$allocator@I@_STL@@@_STL@@QAE@XZ
_TEXT	SEGMENT
??1?$list@IV?$allocator@I@_STL@@@_STL@@QAE@XZ PROC NEAR	; _STL::list<unsigned int,_STL::allocator<unsigned int> >::~list<unsigned int,_STL::allocator<unsigned int> >, COMDAT
; _this$ = ecx

; 416  :   ~list() { }

  00000	e9 00 00 00 00	 jmp	 ??1?$_List_base@IV?$allocator@I@_STL@@@_STL@@QAE@XZ ; _STL::_List_base<unsigned int,_STL::allocator<unsigned int> >::~_List_base<unsigned int,_STL::allocator<unsigned int> >
??1?$list@IV?$allocator@I@_STL@@@_STL@@QAE@XZ ENDP	; _STL::list<unsigned int,_STL::allocator<unsigned int> >::~list<unsigned int,_STL::allocator<unsigned int> >
_TEXT	ENDS
PUBLIC	?clear@?$map@HHU?$less@H@_STL@@V?$allocator@U?$pair@$$CBHH@_STL@@@2@@_STL@@QAEXXZ ; _STL::map<int,int,_STL::less<int>,_STL::allocator<_STL::pair<int const ,int> > >::clear
; Function compile flags: /Ogsy
; File c:\stlport-4.6.1\stlport\stl\_map.h
;	COMDAT ?clear@?$map@HHU?$less@H@_STL@@V?$allocator@U?$pair@$$CBHH@_STL@@@2@@_STL@@QAEXXZ
_TEXT	SEGMENT
?clear@?$map@HHU?$less@H@_STL@@V?$allocator@U?$pair@$$CBHH@_STL@@@2@@_STL@@QAEXXZ PROC NEAR ; _STL::map<int,int,_STL::less<int>,_STL::allocator<_STL::pair<int const ,int> > >::clear, COMDAT
; _this$ = ecx

; 191  :   void clear() { _M_t.clear(); }

  00000	e9 00 00 00 00	 jmp	 ?clear@?$_Rb_tree@HU?$pair@$$CBHH@_STL@@U?$_Select1st@U?$pair@$$CBHH@_STL@@@2@U?$less@H@2@V?$allocator@U?$pair@$$CBHH@_STL@@@2@@_STL@@QAEXXZ ; _STL::_Rb_tree<int,_STL::pair<int const ,int>,_STL::_Select1st<_STL::pair<int const ,int> >,_STL::less<int>,_STL::allocator<_STL::pair<int const ,int> > >::clear
?clear@?$map@HHU?$less@H@_STL@@V?$allocator@U?$pair@$$CBHH@_STL@@@2@@_STL@@QAEXXZ ENDP ; _STL::map<int,int,_STL::less<int>,_STL::allocator<_STL::pair<int const ,int> > >::clear
_TEXT	ENDS
PUBLIC	?find@?$map@HHU?$less@H@_STL@@V?$allocator@U?$pair@$$CBHH@_STL@@@2@@_STL@@QAE?AU?$_Rb_tree_iterator@U?$pair@$$CBHH@_STL@@U?$_Nonconst_traits@U?$pair@$$CBHH@_STL@@@2@@2@ABH@Z ; _STL::map<int,int,_STL::less<int>,_STL::allocator<_STL::pair<int const ,int> > >::find
; Function compile flags: /Ogsy
;	COMDAT ?find@?$map@HHU?$less@H@_STL@@V?$allocator@U?$pair@$$CBHH@_STL@@@2@@_STL@@QAE?AU?$_Rb_tree_iterator@U?$pair@$$CBHH@_STL@@U?$_Nonconst_traits@U?$pair@$$CBHH@_STL@@@2@@2@ABH@Z
_TEXT	SEGMENT
___$ReturnUdt$ = 8					; size = 4
___x$ = 12						; size = 4
?find@?$map@HHU?$less@H@_STL@@V?$allocator@U?$pair@$$CBHH@_STL@@@2@@_STL@@QAE?AU?$_Rb_tree_iterator@U?$pair@$$CBHH@_STL@@U?$_Nonconst_traits@U?$pair@$$CBHH@_STL@@@2@@2@ABH@Z PROC NEAR ; _STL::map<int,int,_STL::less<int>,_STL::allocator<_STL::pair<int const ,int> > >::find, COMDAT
; _this$ = ecx

; 195  :   iterator find(const key_type& __x) { return _M_t.find(__x); }

  00000	ff 74 24 08	 push	 DWORD PTR ___x$[esp-4]
  00004	e8 00 00 00 00	 call	 ??$_M_find@H@?$_Rb_tree@HU?$pair@$$CBHH@_STL@@U?$_Select1st@U?$pair@$$CBHH@_STL@@@2@U?$less@H@2@V?$allocator@U?$pair@$$CBHH@_STL@@@2@@_STL@@ABEPAU?$_Rb_tree_node@U?$pair@$$CBHH@_STL@@@1@ABH@Z ; _STL::_Rb_tree<int,_STL::pair<int const ,int>,_STL::_Select1st<_STL::pair<int const ,int> >,_STL::less<int>,_STL::allocator<_STL::pair<int const ,int> > >::_M_find<int>
  00009	8b 4c 24 04	 mov	 ecx, DWORD PTR ___$ReturnUdt$[esp-4]
  0000d	89 01		 mov	 DWORD PTR [ecx], eax
  0000f	8b c1		 mov	 eax, ecx
  00011	c2 08 00	 ret	 8
?find@?$map@HHU?$less@H@_STL@@V?$allocator@U?$pair@$$CBHH@_STL@@@2@@_STL@@QAE?AU?$_Rb_tree_iterator@U?$pair@$$CBHH@_STL@@U?$_Nonconst_traits@U?$pair@$$CBHH@_STL@@@2@@2@ABH@Z ENDP ; _STL::map<int,int,_STL::less<int>,_STL::allocator<_STL::pair<int const ,int> > >::find
_TEXT	ENDS
PUBLIC	??1?$_Rb_tree@HU?$pair@$$CBHH@_STL@@U?$_Select1st@U?$pair@$$CBHH@_STL@@@2@U?$less@H@2@V?$allocator@U?$pair@$$CBHH@_STL@@@2@@_STL@@QAE@XZ ; _STL::_Rb_tree<int,_STL::pair<int const ,int>,_STL::_Select1st<_STL::pair<int const ,int> >,_STL::less<int>,_STL::allocator<_STL::pair<int const ,int> > >::~_Rb_tree<int,_STL::pair<int const ,int>,_STL::_Select1st<_STL::pair<int const ,int> >,_STL::less<int>,_STL::allocator<_STL::pair<int const ,int> > >
EXTRN	__EH_prolog:NEAR
EXTRN	__except_list:DWORD
EXTRN	___CxxFrameHandler:NEAR
;	COMDAT xdata$x
; File c:\stlport-4.6.1\stlport\stl\_alloc.h
xdata$x	SEGMENT
$T108504 DD	0ffffffffH
	DD	FLAT:$L108483
$T108500 DD	019930520H
	DD	01H
	DD	FLAT:$T108504
	DD	2 DUP(00H)
	DD	2 DUP(00H)
; Function compile flags: /Ogsy
; File c:\stlport-4.6.1\stlport\stl\_tree.h
xdata$x	ENDS
;	COMDAT ??1?$_Rb_tree@HU?$pair@$$CBHH@_STL@@U?$_Select1st@U?$pair@$$CBHH@_STL@@@2@U?$less@H@2@V?$allocator@U?$pair@$$CBHH@_STL@@@2@@_STL@@QAE@XZ
_TEXT	SEGMENT
_this$ = -16						; size = 4
__$EHRec$ = -12						; size = 12
??1?$_Rb_tree@HU?$pair@$$CBHH@_STL@@U?$_Select1st@U?$pair@$$CBHH@_STL@@@2@U?$less@H@2@V?$allocator@U?$pair@$$CBHH@_STL@@@2@@_STL@@QAE@XZ PROC NEAR ; _STL::_Rb_tree<int,_STL::pair<int const ,int>,_STL::_Select1st<_STL::pair<int const ,int> >,_STL::less<int>,_STL::allocator<_STL::pair<int const ,int> > >::~_Rb_tree<int,_STL::pair<int const ,int>,_STL::_Select1st<_STL::pair<int const ,int> >,_STL::less<int>,_STL::allocator<_STL::pair<int const ,int> > >, COMDAT
; _this$ = ecx

; 341  :   ~_Rb_tree() { clear(); }

  00000	b8 00 00 00 00	 mov	 eax, __ehhandler$??1?$_Rb_tree@HU?$pair@$$CBHH@_STL@@U?$_Select1st@U?$pair@$$CBHH@_STL@@@2@U?$less@H@2@V?$allocator@U?$pair@$$CBHH@_STL@@@2@@_STL@@QAE@XZ
  00005	e8 00 00 00 00	 call	 __EH_prolog
  0000a	51		 push	 ecx
  0000b	56		 push	 esi
  0000c	8b f1		 mov	 esi, ecx
  0000e	89 75 f0	 mov	 DWORD PTR _this$[ebp], esi
  00011	83 65 fc 00	 and	 DWORD PTR __$EHRec$[ebp+8], 0
  00015	e8 00 00 00 00	 call	 ?clear@?$_Rb_tree@HU?$pair@$$CBHH@_STL@@U?$_Select1st@U?$pair@$$CBHH@_STL@@@2@U?$less@H@2@V?$allocator@U?$pair@$$CBHH@_STL@@@2@@_STL@@QAEXXZ ; _STL::_Rb_tree<int,_STL::pair<int const ,int>,_STL::_Select1st<_STL::pair<int const ,int> >,_STL::less<int>,_STL::allocator<_STL::pair<int const ,int> > >::clear
  0001a	83 4d fc ff	 or	 DWORD PTR __$EHRec$[ebp+8], -1
  0001e	6a 01		 push	 1
  00020	ff 36		 push	 DWORD PTR [esi]
  00022	8b ce		 mov	 ecx, esi
  00024	e8 00 00 00 00	 call	 ?deallocate@?$allocator@U?$_Rb_tree_node@U?$pair@$$CBHH@_STL@@@_STL@@@_STL@@QAEXPAU?$_Rb_tree_node@U?$pair@$$CBHH@_STL@@@2@I@Z ; _STL::allocator<_STL::_Rb_tree_node<_STL::pair<int const ,int> > >::deallocate
  00029	8b 4d f4	 mov	 ecx, DWORD PTR __$EHRec$[ebp]
  0002c	5e		 pop	 esi
  0002d	64 89 0d 00 00
	00 00		 mov	 DWORD PTR fs:__except_list, ecx
  00034	c9		 leave
  00035	c3		 ret	 0
_TEXT	ENDS
;	COMDAT text$x
text$x	SEGMENT
$L108483:
  00000	8b 4d f0	 mov	 ecx, DWORD PTR _this$[ebp]
  00003	e9 00 00 00 00	 jmp	 ??1?$_Rb_tree_base@U?$pair@$$CBHH@_STL@@V?$allocator@U?$pair@$$CBHH@_STL@@@2@@_STL@@QAE@XZ ; _STL::_Rb_tree_base<_STL::pair<int const ,int>,_STL::allocator<_STL::pair<int const ,int> > >::~_Rb_tree_base<_STL::pair<int const ,int>,_STL::allocator<_STL::pair<int const ,int> > >
__ehhandler$??1?$_Rb_tree@HU?$pair@$$CBHH@_STL@@U?$_Select1st@U?$pair@$$CBHH@_STL@@@2@U?$less@H@2@V?$allocator@U?$pair@$$CBHH@_STL@@@2@@_STL@@QAE@XZ:
  00008	b8 00 00 00 00	 mov	 eax, OFFSET FLAT:$T108500
  0000d	e9 00 00 00 00	 jmp	 ___CxxFrameHandler
text$x	ENDS
??1?$_Rb_tree@HU?$pair@$$CBHH@_STL@@U?$_Select1st@U?$pair@$$CBHH@_STL@@@2@U?$less@H@2@V?$allocator@U?$pair@$$CBHH@_STL@@@2@@_STL@@QAE@XZ ENDP ; _STL::_Rb_tree<int,_STL::pair<int const ,int>,_STL::_Select1st<_STL::pair<int const ,int> >,_STL::less<int>,_STL::allocator<_STL::pair<int const ,int> > >::~_Rb_tree<int,_STL::pair<int const ,int>,_STL::_Select1st<_STL::pair<int const ,int> >,_STL::less<int>,_STL::allocator<_STL::pair<int const ,int> > >
PUBLIC	?insert@?$list@IV?$allocator@I@_STL@@@_STL@@QAE?AU?$_List_iterator@IU?$_Nonconst_traits@I@_STL@@@2@U32@ABI@Z ; _STL::list<unsigned int,_STL::allocator<unsigned int> >::insert
; Function compile flags: /Ogsy
; File c:\stlport-4.6.1\stlport\stl\_list.h
;	COMDAT ?insert@?$list@IV?$allocator@I@_STL@@@_STL@@QAE?AU?$_List_iterator@IU?$_Nonconst_traits@I@_STL@@@2@U32@ABI@Z
_TEXT	SEGMENT
___$ReturnUdt$ = 8					; size = 4
___position$ = 12					; size = 4
___x$ = 16						; size = 4
?insert@?$list@IV?$allocator@I@_STL@@@_STL@@QAE?AU?$_List_iterator@IU?$_Nonconst_traits@I@_STL@@@2@U32@ABI@Z PROC NEAR ; _STL::list<unsigned int,_STL::allocator<unsigned int> >::insert, COMDAT
; _this$ = ecx

; 299  : 
; 300  :     _Node* __tmp = _M_create_node(__x);

  00000	ff 74 24 0c	 push	 DWORD PTR ___x$[esp-4]
  00004	e8 00 00 00 00	 call	 ?_M_create_node@?$list@IV?$allocator@I@_STL@@@_STL@@IAEPAU?$_List_node@I@2@ABI@Z ; _STL::list<unsigned int,_STL::allocator<unsigned int> >::_M_create_node

; 301  :     _List_node_base* __n = __position._M_node;
; 302  :     _List_node_base* __p = __n->_M_prev;

  00009	8b 4c 24 08	 mov	 ecx, DWORD PTR ___position$[esp-4]
  0000d	8b 51 04	 mov	 edx, DWORD PTR [ecx+4]

; 303  :     __tmp->_M_next = __n;

  00010	89 08		 mov	 DWORD PTR [eax], ecx

; 304  :     __tmp->_M_prev = __p;

  00012	89 50 04	 mov	 DWORD PTR [eax+4], edx

; 305  :     __p->_M_next = __tmp;

  00015	89 02		 mov	 DWORD PTR [edx], eax

; 306  :     __n->_M_prev = __tmp;

  00017	89 41 04	 mov	 DWORD PTR [ecx+4], eax

; 307  :     return __tmp;

  0001a	8b 4c 24 04	 mov	 ecx, DWORD PTR ___$ReturnUdt$[esp-4]
  0001e	89 01		 mov	 DWORD PTR [ecx], eax
  00020	8b c1		 mov	 eax, ecx

; 308  :   }

  00022	c2 0c 00	 ret	 12			; 0000000cH
?insert@?$list@IV?$allocator@I@_STL@@@_STL@@QAE?AU?$_List_iterator@IU?$_Nonconst_traits@I@_STL@@@2@U32@ABI@Z ENDP ; _STL::list<unsigned int,_STL::allocator<unsigned int> >::insert
_TEXT	ENDS
PUBLIC	??0?$_Rb_tree@HU?$pair@$$CBHH@_STL@@U?$_Select1st@U?$pair@$$CBHH@_STL@@@2@U?$less@H@2@V?$allocator@U?$pair@$$CBHH@_STL@@@2@@_STL@@QAE@ABU?$less@H@1@ABV?$allocator@U?$pair@$$CBHH@_STL@@@1@@Z ; _STL::_Rb_tree<int,_STL::pair<int const ,int>,_STL::_Select1st<_STL::pair<int const ,int> >,_STL::less<int>,_STL::allocator<_STL::pair<int const ,int> > >::_Rb_tree<int,_STL::pair<int const ,int>,_STL::_Select1st<_STL::pair<int const ,int> >,_STL::less<int>,_STL::allocator<_STL::pair<int const ,int> > >
; Function compile flags: /Ogsy
; File c:\stlport-4.6.1\stlport\stl\_tree.h
;	COMDAT ??0?$_Rb_tree@HU?$pair@$$CBHH@_STL@@U?$_Select1st@U?$pair@$$CBHH@_STL@@@2@U?$less@H@2@V?$allocator@U?$pair@$$CBHH@_STL@@@2@@_STL@@QAE@ABU?$less@H@1@ABV?$allocator@U?$pair@$$CBHH@_STL@@@1@@Z
_TEXT	SEGMENT
___comp$ = 8						; size = 4
___a$ = 12						; size = 4
??0?$_Rb_tree@HU?$pair@$$CBHH@_STL@@U?$_Select1st@U?$pair@$$CBHH@_STL@@@2@U?$less@H@2@V?$allocator@U?$pair@$$CBHH@_STL@@@2@@_STL@@QAE@ABU?$less@H@1@ABV?$allocator@U?$pair@$$CBHH@_STL@@@1@@Z PROC NEAR ; _STL::_Rb_tree<int,_STL::pair<int const ,int>,_STL::_Select1st<_STL::pair<int const ,int> >,_STL::less<int>,_STL::allocator<_STL::pair<int const ,int> > >::_Rb_tree<int,_STL::pair<int const ,int>,_STL::_Select1st<_STL::pair<int const ,int> >,_STL::less<int>,_STL::allocator<_STL::pair<int const ,int> > >, COMDAT
; _this$ = ecx

; 325  :     { _M_empty_initialize(); }

  00000	56		 push	 esi
  00001	ff 74 24 0c	 push	 DWORD PTR ___a$[esp]
  00005	8b f1		 mov	 esi, ecx
  00007	e8 00 00 00 00	 call	 ??0?$_Rb_tree_base@U?$pair@$$CBHH@_STL@@V?$allocator@U?$pair@$$CBHH@_STL@@@2@@_STL@@QAE@ABV?$allocator@U?$pair@$$CBHH@_STL@@@1@@Z ; _STL::_Rb_tree_base<_STL::pair<int const ,int>,_STL::allocator<_STL::pair<int const ,int> > >::_Rb_tree_base<_STL::pair<int const ,int>,_STL::allocator<_STL::pair<int const ,int> > >
  0000c	8b 0e		 mov	 ecx, DWORD PTR [esi]
  0000e	33 c0		 xor	 eax, eax
  00010	89 46 04	 mov	 DWORD PTR [esi+4], eax
  00013	88 01		 mov	 BYTE PTR [ecx], al
  00015	8b 0e		 mov	 ecx, DWORD PTR [esi]
  00017	89 41 04	 mov	 DWORD PTR [ecx+4], eax
  0001a	8b 06		 mov	 eax, DWORD PTR [esi]
  0001c	89 40 08	 mov	 DWORD PTR [eax+8], eax
  0001f	8b 06		 mov	 eax, DWORD PTR [esi]
  00021	89 40 0c	 mov	 DWORD PTR [eax+12], eax
  00024	8b c6		 mov	 eax, esi
  00026	5e		 pop	 esi
  00027	c2 08 00	 ret	 8
??0?$_Rb_tree@HU?$pair@$$CBHH@_STL@@U?$_Select1st@U?$pair@$$CBHH@_STL@@@2@U?$less@H@2@V?$allocator@U?$pair@$$CBHH@_STL@@@2@@_STL@@QAE@ABU?$less@H@1@ABV?$allocator@U?$pair@$$CBHH@_STL@@@1@@Z ENDP ; _STL::_Rb_tree<int,_STL::pair<int const ,int>,_STL::_Select1st<_STL::pair<int const ,int> >,_STL::less<int>,_STL::allocator<_STL::pair<int const ,int> > >::_Rb_tree<int,_STL::pair<int const ,int>,_STL::_Select1st<_STL::pair<int const ,int> >,_STL::less<int>,_STL::allocator<_STL::pair<int const ,int> > >
_TEXT	ENDS
PUBLIC	?lower_bound@?$_Rb_tree@HU?$pair@$$CBHH@_STL@@U?$_Select1st@U?$pair@$$CBHH@_STL@@@2@U?$less@H@2@V?$allocator@U?$pair@$$CBHH@_STL@@@2@@_STL@@QAE?AU?$_Rb_tree_iterator@U?$pair@$$CBHH@_STL@@U?$_Nonconst_traits@U?$pair@$$CBHH@_STL@@@2@@2@ABH@Z ; _STL::_Rb_tree<int,_STL::pair<int const ,int>,_STL::_Select1st<_STL::pair<int const ,int> >,_STL::less<int>,_STL::allocator<_STL::pair<int const ,int> > >::lower_bound
; Function compile flags: /Ogsy
;	COMDAT ?lower_bound@?$_Rb_tree@HU?$pair@$$CBHH@_STL@@U?$_Select1st@U?$pair@$$CBHH@_STL@@@2@U?$less@H@2@V?$allocator@U?$pair@$$CBHH@_STL@@@2@@_STL@@QAE?AU?$_Rb_tree_iterator@U?$pair@$$CBHH@_STL@@U?$_Nonconst_traits@U?$pair@$$CBHH@_STL@@@2@@2@ABH@Z
_TEXT	SEGMENT
___$ReturnUdt$ = 8					; size = 4
___x$ = 12						; size = 4
?lower_bound@?$_Rb_tree@HU?$pair@$$CBHH@_STL@@U?$_Select1st@U?$pair@$$CBHH@_STL@@@2@U?$less@H@2@V?$allocator@U?$pair@$$CBHH@_STL@@@2@@_STL@@QAE?AU?$_Rb_tree_iterator@U?$pair@$$CBHH@_STL@@U?$_Nonconst_traits@U?$pair@$$CBHH@_STL@@@2@@2@ABH@Z PROC NEAR ; _STL::_Rb_tree<int,_STL::pair<int const ,int>,_STL::_Select1st<_STL::pair<int const ,int> >,_STL::less<int>,_STL::allocator<_STL::pair<int const ,int> > >::lower_bound, COMDAT
; _this$ = ecx

; 510  :   iterator lower_bound(const key_type& __x) { return iterator(_M_lower_bound(__x)); }

  00000	ff 74 24 08	 push	 DWORD PTR ___x$[esp-4]
  00004	e8 00 00 00 00	 call	 ?_M_lower_bound@?$_Rb_tree@HU?$pair@$$CBHH@_STL@@U?$_Select1st@U?$pair@$$CBHH@_STL@@@2@U?$less@H@2@V?$allocator@U?$pair@$$CBHH@_STL@@@2@@_STL@@ABEPAU?$_Rb_tree_node@U?$pair@$$CBHH@_STL@@@2@ABH@Z ; _STL::_Rb_tree<int,_STL::pair<int const ,int>,_STL::_Select1st<_STL::pair<int const ,int> >,_STL::less<int>,_STL::allocator<_STL::pair<int const ,int> > >::_M_lower_bound
  00009	8b 4c 24 04	 mov	 ecx, DWORD PTR ___$ReturnUdt$[esp-4]
  0000d	89 01		 mov	 DWORD PTR [ecx], eax
  0000f	8b c1		 mov	 eax, ecx
  00011	c2 08 00	 ret	 8
?lower_bound@?$_Rb_tree@HU?$pair@$$CBHH@_STL@@U?$_Select1st@U?$pair@$$CBHH@_STL@@@2@U?$less@H@2@V?$allocator@U?$pair@$$CBHH@_STL@@@2@@_STL@@QAE?AU?$_Rb_tree_iterator@U?$pair@$$CBHH@_STL@@U?$_Nonconst_traits@U?$pair@$$CBHH@_STL@@@2@@2@ABH@Z ENDP ; _STL::_Rb_tree<int,_STL::pair<int const ,int>,_STL::_Select1st<_STL::pair<int const ,int> >,_STL::less<int>,_STL::allocator<_STL::pair<int const ,int> > >::lower_bound
_TEXT	ENDS
PUBLIC	?write@?$basic_ostream@DV?$char_traits@D@_STL@@@_STL@@QAEAAV12@PBDH@Z ; _STL::basic_ostream<char,_STL::char_traits<char> >::write
;	COMDAT xdata$x
; File c:\stlport-4.6.1\stlport\stl\_ios_base.h
xdata$x	SEGMENT
$T108595 DD	0ffffffffH
	DD	FLAT:$L108559
	DD	00H
	DD	00H
	DD	00H
	DD	00H
$T108597 DD	00H
	DD	00H
	DD	00H
	DD	FLAT:$L108558
$T108596 DD	01H
	DD	01H
	DD	02H
	DD	01H
	DD	FLAT:$T108597
$T108592 DD	019930520H
	DD	03H
	DD	FLAT:$T108595
	DD	01H
	DD	FLAT:$T108596
	DD	2 DUP(00H)
; Function compile flags: /Ogsy
; File c:\stlport-4.6.1\stlport\stl\_ostream.c
xdata$x	ENDS
;	COMDAT ?write@?$basic_ostream@DV?$char_traits@D@_STL@@@_STL@@QAEAAV12@PBDH@Z
_TEXT	SEGMENT
___sentry$ = -32					; size = 8
_this$ = -24						; size = 4
___failed$ = -17					; size = 1
__$EHRec$ = -16						; size = 16
___s$ = 8						; size = 4
___n$ = 12						; size = 4
?write@?$basic_ostream@DV?$char_traits@D@_STL@@@_STL@@QAEAAV12@PBDH@Z PROC NEAR ; _STL::basic_ostream<char,_STL::char_traits<char> >::write, COMDAT
; _this$ = ecx

; 359  : {

  00000	b8 00 00 00 00	 mov	 eax, __ehhandler$?write@?$basic_ostream@DV?$char_traits@D@_STL@@@_STL@@QAEAAV12@PBDH@Z
  00005	e8 00 00 00 00	 call	 __EH_prolog
  0000a	83 ec 14	 sub	 esp, 20			; 00000014H
  0000d	53		 push	 ebx
  0000e	56		 push	 esi
  0000f	57		 push	 edi
  00010	8b f1		 mov	 esi, ecx
  00012	89 65 f0	 mov	 DWORD PTR __$EHRec$[ebp], esp

; 360  :   sentry __sentry(*this);

  00015	56		 push	 esi
  00016	8d 4d e0	 lea	 ecx, DWORD PTR ___sentry$[ebp]
  00019	89 75 e8	 mov	 DWORD PTR _this$[ebp], esi
  0001c	e8 00 00 00 00	 call	 ??0sentry@?$basic_ostream@DV?$char_traits@D@_STL@@@_STL@@QAE@AAV12@@Z ; _STL::basic_ostream<char,_STL::char_traits<char> >::sentry::sentry
  00021	83 65 fc 00	 and	 DWORD PTR __$EHRec$[ebp+12], 0

; 361  :   bool __failed = true;
; 362  : 
; 363  :   if (__sentry) {

  00025	80 7d e4 00	 cmp	 BYTE PTR ___sentry$[ebp+4], 0
  00029	c6 45 ef 01	 mov	 BYTE PTR ___failed$[ebp], 1
  0002d	74 3b		 je	 SHORT $L105064

; 364  :     _STLP_TRY {
; 365  :       __failed = this->rdbuf()->sputn(__s, __n) != __n;

  0002f	8b 06		 mov	 eax, DWORD PTR [esi]
  00031	8b 40 04	 mov	 eax, DWORD PTR [eax+4]
  00034	ff 75 0c	 push	 DWORD PTR ___n$[ebp]
  00037	8b 4c 30 58	 mov	 ecx, DWORD PTR [eax+esi+88]
  0003b	ff 75 08	 push	 DWORD PTR ___s$[ebp]
  0003e	8b 01		 mov	 eax, DWORD PTR [ecx]
  00040	c6 45 fc 01	 mov	 BYTE PTR __$EHRec$[ebp+12], 1
  00044	ff 50 28	 call	 DWORD PTR [eax+40]
  00047	3b 45 0c	 cmp	 eax, DWORD PTR ___n$[ebp]
  0004a	0f 95 45 ef	 setne	 BYTE PTR ___failed$[ebp]
  0004e	eb 1a		 jmp	 SHORT $L105064
$L108558:

; 366  :     }
; 367  :     _STLP_CATCH_ALL {
; 368  :       this->_M_handle_exception(ios_base::badbit);

  00050	8b 45 e8	 mov	 eax, DWORD PTR _this$[ebp]
  00053	8b 08		 mov	 ecx, DWORD PTR [eax]
  00055	8b 49 04	 mov	 ecx, DWORD PTR [ecx+4]
  00058	6a 01		 push	 1
  0005a	03 c8		 add	 ecx, eax
  0005c	e8 00 00 00 00	 call	 ?_M_handle_exception@?$basic_ios@DV?$char_traits@D@_STL@@@_STL@@QAEXH@Z ; _STL::basic_ios<char,_STL::char_traits<char> >::_M_handle_exception

; 369  :     }

  00061	b8 00 00 00 00	 mov	 eax, $L108593
  00066	c3		 ret	 0
$L108593:
  00067	8b 75 e8	 mov	 esi, DWORD PTR _this$[ebp]
$L105064:
  0006a	83 65 fc 00	 and	 DWORD PTR __$EHRec$[ebp+12], 0

; 370  :   }
; 371  : 
; 372  :   if (__failed)

  0006e	80 7d ef 00	 cmp	 BYTE PTR ___failed$[ebp], 0
  00072	74 13		 je	 SHORT $L108579

; 373  :     this->setstate(ios_base::badbit);

  00074	8b 06		 mov	 eax, DWORD PTR [esi]
  00076	8b 48 04	 mov	 ecx, DWORD PTR [eax+4]
  00079	03 ce		 add	 ecx, esi
  0007b	8b 41 08	 mov	 eax, DWORD PTR [ecx+8]
  0007e	83 c8 01	 or	 eax, 1
  00081	50		 push	 eax
  00082	e8 00 00 00 00	 call	 ?clear@?$basic_ios@DV?$char_traits@D@_STL@@@_STL@@QAEXH@Z ; _STL::basic_ios<char,_STL::char_traits<char> >::clear
$L108579:

; 374  : 
; 375  :   return *this;

  00087	8b 4d e0	 mov	 ecx, DWORD PTR ___sentry$[ebp]
  0008a	8b 01		 mov	 eax, DWORD PTR [ecx]
  0008c	8b 40 04	 mov	 eax, DWORD PTR [eax+4]
  0008f	83 4d fc ff	 or	 DWORD PTR __$EHRec$[ebp+12], -1
  00093	f6 44 08 05 20	 test	 BYTE PTR [eax+ecx+5], 32 ; 00000020H
  00098	74 05		 je	 SHORT $L108590
  0009a	e8 00 00 00 00	 call	 ?flush@?$basic_ostream@DV?$char_traits@D@_STL@@@_STL@@QAEAAV12@XZ ; _STL::basic_ostream<char,_STL::char_traits<char> >::flush
$L108590:

; 376  : }

  0009f	8b 4d f4	 mov	 ecx, DWORD PTR __$EHRec$[ebp+4]
  000a2	5f		 pop	 edi
  000a3	8b c6		 mov	 eax, esi
  000a5	5e		 pop	 esi
  000a6	64 89 0d 00 00
	00 00		 mov	 DWORD PTR fs:__except_list, ecx
  000ad	5b		 pop	 ebx
  000ae	c9		 leave
  000af	c2 08 00	 ret	 8
_TEXT	ENDS
;	COMDAT text$x
text$x	SEGMENT
$L108559:
  00000	8d 4d e0	 lea	 ecx, DWORD PTR ___sentry$[ebp]
  00003	e9 00 00 00 00	 jmp	 ??1sentry@?$basic_ostream@DV?$char_traits@D@_STL@@@_STL@@QAE@XZ ; _STL::basic_ostream<char,_STL::char_traits<char> >::sentry::~sentry
__ehhandler$?write@?$basic_ostream@DV?$char_traits@D@_STL@@@_STL@@QAEAAV12@PBDH@Z:
  00008	b8 00 00 00 00	 mov	 eax, OFFSET FLAT:$T108592
  0000d	e9 00 00 00 00	 jmp	 ___CxxFrameHandler
text$x	ENDS
?write@?$basic_ostream@DV?$char_traits@D@_STL@@@_STL@@QAEAAV12@PBDH@Z ENDP ; _STL::basic_ostream<char,_STL::char_traits<char> >::write
PUBLIC	??1NPC_INFO@@QAE@XZ				; NPC_INFO::~NPC_INFO
EXTRN	??1MString@@UAE@XZ:NEAR				; MString::~MString
;	COMDAT xdata$x
xdata$x	SEGMENT
$T108613 DD	0ffffffffH
	DD	FLAT:$L108602
	DD	00H
	DD	FLAT:$L108603
$T108611 DD	019930520H
	DD	02H
	DD	FLAT:$T108613
	DD	2 DUP(00H)
	DD	2 DUP(00H)
; Function compile flags: /Ogsy
xdata$x	ENDS
;	COMDAT ??1NPC_INFO@@QAE@XZ
_TEXT	SEGMENT
_this$ = -16						; size = 4
__$EHRec$ = -12						; size = 12
??1NPC_INFO@@QAE@XZ PROC NEAR				; NPC_INFO::~NPC_INFO, COMDAT
; _this$ = ecx
  00000	b8 00 00 00 00	 mov	 eax, __ehhandler$??1NPC_INFO@@QAE@XZ
  00005	e8 00 00 00 00	 call	 __EH_prolog
  0000a	51		 push	 ecx
  0000b	56		 push	 esi
  0000c	8b f1		 mov	 esi, ecx
  0000e	89 75 f0	 mov	 DWORD PTR _this$[ebp], esi
  00011	8d 4e 10	 lea	 ecx, DWORD PTR [esi+16]
  00014	c7 45 fc 01 00
	00 00		 mov	 DWORD PTR __$EHRec$[ebp+8], 1
  0001b	e8 00 00 00 00	 call	 ??1MString@@UAE@XZ	; MString::~MString
  00020	8d 4e 0c	 lea	 ecx, DWORD PTR [esi+12]
  00023	c6 45 fc 00	 mov	 BYTE PTR __$EHRec$[ebp+8], 0
  00027	e8 00 00 00 00	 call	 ??1?$_List_base@IV?$allocator@I@_STL@@@_STL@@QAE@XZ ; _STL::_List_base<unsigned int,_STL::allocator<unsigned int> >::~_List_base<unsigned int,_STL::allocator<unsigned int> >
  0002c	83 4d fc ff	 or	 DWORD PTR __$EHRec$[ebp+8], -1
  00030	8b ce		 mov	 ecx, esi
  00032	e8 00 00 00 00	 call	 ??1MString@@UAE@XZ	; MString::~MString
  00037	8b 4d f4	 mov	 ecx, DWORD PTR __$EHRec$[ebp]
  0003a	5e		 pop	 esi
  0003b	64 89 0d 00 00
	00 00		 mov	 DWORD PTR fs:__except_list, ecx
  00042	c9		 leave
  00043	c3		 ret	 0
_TEXT	ENDS
;	COMDAT text$x
text$x	SEGMENT
$L108602:
  00000	8b 4d f0	 mov	 ecx, DWORD PTR _this$[ebp]
  00003	e9 00 00 00 00	 jmp	 ??1MString@@UAE@XZ	; MString::~MString
$L108603:
  00008	8b 4d f0	 mov	 ecx, DWORD PTR _this$[ebp]
  0000b	83 c1 0c	 add	 ecx, 12			; 0000000cH
  0000e	e9 00 00 00 00	 jmp	 ??1?$list@IV?$allocator@I@_STL@@@_STL@@QAE@XZ ; _STL::list<unsigned int,_STL::allocator<unsigned int> >::~list<unsigned int,_STL::allocator<unsigned int> >
__ehhandler$??1NPC_INFO@@QAE@XZ:
  00013	b8 00 00 00 00	 mov	 eax, OFFSET FLAT:$T108611
  00018	e9 00 00 00 00	 jmp	 ___CxxFrameHandler
text$x	ENDS
??1NPC_INFO@@QAE@XZ ENDP				; NPC_INFO::~NPC_INFO
PUBLIC	??1SERVERNPC_INFO@@QAE@XZ			; SERVERNPC_INFO::~SERVERNPC_INFO
;	COMDAT xdata$x
xdata$x	SEGMENT
$T108628 DD	0ffffffffH
	DD	FLAT:$L108618
	DD	00H
	DD	FLAT:$L108619
$T108626 DD	019930520H
	DD	02H
	DD	FLAT:$T108628
	DD	2 DUP(00H)
	DD	2 DUP(00H)
; Function compile flags: /Ogsy
xdata$x	ENDS
;	COMDAT ??1SERVERNPC_INFO@@QAE@XZ
_TEXT	SEGMENT
_this$ = -16						; size = 4
__$EHRec$ = -12						; size = 12
??1SERVERNPC_INFO@@QAE@XZ PROC NEAR			; SERVERNPC_INFO::~SERVERNPC_INFO, COMDAT
; _this$ = ecx
  00000	b8 00 00 00 00	 mov	 eax, __ehhandler$??1SERVERNPC_INFO@@QAE@XZ
  00005	e8 00 00 00 00	 call	 __EH_prolog
  0000a	51		 push	 ecx
  0000b	56		 push	 esi
  0000c	8b f1		 mov	 esi, ecx
  0000e	89 75 f0	 mov	 DWORD PTR _this$[ebp], esi
  00011	8d 4e 10	 lea	 ecx, DWORD PTR [esi+16]
  00014	c7 45 fc 01 00
	00 00		 mov	 DWORD PTR __$EHRec$[ebp+8], 1
  0001b	e8 00 00 00 00	 call	 ??1MString@@UAE@XZ	; MString::~MString
  00020	8d 4e 04	 lea	 ecx, DWORD PTR [esi+4]
  00023	c6 45 fc 00	 mov	 BYTE PTR __$EHRec$[ebp+8], 0
  00027	e8 00 00 00 00	 call	 ??1MString@@UAE@XZ	; MString::~MString
  0002c	83 4d fc ff	 or	 DWORD PTR __$EHRec$[ebp+8], -1
  00030	8b ce		 mov	 ecx, esi
  00032	e8 00 00 00 00	 call	 ??1?$_List_base@IV?$allocator@I@_STL@@@_STL@@QAE@XZ ; _STL::_List_base<unsigned int,_STL::allocator<unsigned int> >::~_List_base<unsigned int,_STL::allocator<unsigned int> >
  00037	8b 4d f4	 mov	 ecx, DWORD PTR __$EHRec$[ebp]
  0003a	5e		 pop	 esi
  0003b	64 89 0d 00 00
	00 00		 mov	 DWORD PTR fs:__except_list, ecx
  00042	c9		 leave
  00043	c3		 ret	 0
_TEXT	ENDS
;	COMDAT text$x
text$x	SEGMENT
$L108618:
  00000	8b 4d f0	 mov	 ecx, DWORD PTR _this$[ebp]
  00003	e9 00 00 00 00	 jmp	 ??1?$list@IV?$allocator@I@_STL@@@_STL@@QAE@XZ ; _STL::list<unsigned int,_STL::allocator<unsigned int> >::~list<unsigned int,_STL::allocator<unsigned int> >
$L108619:
  00008	8b 4d f0	 mov	 ecx, DWORD PTR _this$[ebp]
  0000b	83 c1 04	 add	 ecx, 4
  0000e	e9 00 00 00 00	 jmp	 ??1MString@@UAE@XZ	; MString::~MString
__ehhandler$??1SERVERNPC_INFO@@QAE@XZ:
  00013	b8 00 00 00 00	 mov	 eax, OFFSET FLAT:$T108626
  00018	e9 00 00 00 00	 jmp	 ___CxxFrameHandler
text$x	ENDS
??1SERVERNPC_INFO@@QAE@XZ ENDP				; SERVERNPC_INFO::~SERVERNPC_INFO
PUBLIC	?clear@?$map@IPAVNPC_INFO@@U?$less@I@_STL@@V?$allocator@U?$pair@$$CBIPAVNPC_INFO@@@_STL@@@3@@_STL@@QAEXXZ ; _STL::map<unsigned int,NPC_INFO *,_STL::less<unsigned int>,_STL::allocator<_STL::pair<unsigned int const ,NPC_INFO *> > >::clear
; Function compile flags: /Ogsy
; File c:\stlport-4.6.1\stlport\stl\_map.h
;	COMDAT ?clear@?$map@IPAVNPC_INFO@@U?$less@I@_STL@@V?$allocator@U?$pair@$$CBIPAVNPC_INFO@@@_STL@@@3@@_STL@@QAEXXZ
_TEXT	SEGMENT
?clear@?$map@IPAVNPC_INFO@@U?$less@I@_STL@@V?$allocator@U?$pair@$$CBIPAVNPC_INFO@@@_STL@@@3@@_STL@@QAEXXZ PROC NEAR ; _STL::map<unsigned int,NPC_INFO *,_STL::less<unsigned int>,_STL::allocator<_STL::pair<unsigned int const ,NPC_INFO *> > >::clear, COMDAT
; _this$ = ecx

; 191  :   void clear() { _M_t.clear(); }

  00000	e9 00 00 00 00	 jmp	 ?clear@?$_Rb_tree@IU?$pair@$$CBIPAVNPC_INFO@@@_STL@@U?$_Select1st@U?$pair@$$CBIPAVNPC_INFO@@@_STL@@@2@U?$less@I@2@V?$allocator@U?$pair@$$CBIPAVNPC_INFO@@@_STL@@@2@@_STL@@QAEXXZ ; _STL::_Rb_tree<unsigned int,_STL::pair<unsigned int const ,NPC_INFO *>,_STL::_Select1st<_STL::pair<unsigned int const ,NPC_INFO *> >,_STL::less<unsigned int>,_STL::allocator<_STL::pair<unsigned int const ,NPC_INFO *> > >::clear
?clear@?$map@IPAVNPC_INFO@@U?$less@I@_STL@@V?$allocator@U?$pair@$$CBIPAVNPC_INFO@@@_STL@@@3@@_STL@@QAEXXZ ENDP ; _STL::map<unsigned int,NPC_INFO *,_STL::less<unsigned int>,_STL::allocator<_STL::pair<unsigned int const ,NPC_INFO *> > >::clear
_TEXT	ENDS
PUBLIC	??1?$_Rb_tree@IU?$pair@$$CBIPAVNPC_INFO@@@_STL@@U?$_Select1st@U?$pair@$$CBIPAVNPC_INFO@@@_STL@@@2@U?$less@I@2@V?$allocator@U?$pair@$$CBIPAVNPC_INFO@@@_STL@@@2@@_STL@@QAE@XZ ; _STL::_Rb_tree<unsigned int,_STL::pair<unsigned int const ,NPC_INFO *>,_STL::_Select1st<_STL::pair<unsigned int const ,NPC_INFO *> >,_STL::less<unsigned int>,_STL::allocator<_STL::pair<unsigned int const ,NPC_INFO *> > >::~_Rb_tree<unsigned int,_STL::pair<unsigned int const ,NPC_INFO *>,_STL::_Select1st<_STL::pair<unsigned int const ,NPC_INFO *> >,_STL::less<unsigned int>,_STL::allocator<_STL::pair<unsigned int const ,NPC_INFO *> > >
;	COMDAT xdata$x
; File c:\stlport-4.6.1\stlport\stl\_alloc.h
xdata$x	SEGMENT
$T108655 DD	0ffffffffH
	DD	FLAT:$L108636
$T108653 DD	019930520H
	DD	01H
	DD	FLAT:$T108655
	DD	2 DUP(00H)
	DD	2 DUP(00H)
; Function compile flags: /Ogsy
; File c:\stlport-4.6.1\stlport\stl\_tree.h
xdata$x	ENDS
;	COMDAT ??1?$_Rb_tree@IU?$pair@$$CBIPAVNPC_INFO@@@_STL@@U?$_Select1st@U?$pair@$$CBIPAVNPC_INFO@@@_STL@@@2@U?$less@I@2@V?$allocator@U?$pair@$$CBIPAVNPC_INFO@@@_STL@@@2@@_STL@@QAE@XZ
_TEXT	SEGMENT
_this$ = -16						; size = 4
__$EHRec$ = -12						; size = 12
??1?$_Rb_tree@IU?$pair@$$CBIPAVNPC_INFO@@@_STL@@U?$_Select1st@U?$pair@$$CBIPAVNPC_INFO@@@_STL@@@2@U?$less@I@2@V?$allocator@U?$pair@$$CBIPAVNPC_INFO@@@_STL@@@2@@_STL@@QAE@XZ PROC NEAR ; _STL::_Rb_tree<unsigned int,_STL::pair<unsigned int const ,NPC_INFO *>,_STL::_Select1st<_STL::pair<unsigned int const ,NPC_INFO *> >,_STL::less<unsigned int>,_STL::allocator<_STL::pair<unsigned int const ,NPC_INFO *> > >::~_Rb_tree<unsigned int,_STL::pair<unsigned int const ,NPC_INFO *>,_STL::_Select1st<_STL::pair<unsigned int const ,NPC_INFO *> >,_STL::less<unsigned int>,_STL::allocator<_STL::pair<unsigned int const ,NPC_INFO *> > >, COMDAT
; _this$ = ecx

; 341  :   ~_Rb_tree() { clear(); }

  00000	b8 00 00 00 00	 mov	 eax, __ehhandler$??1?$_Rb_tree@IU?$pair@$$CBIPAVNPC_INFO@@@_STL@@U?$_Select1st@U?$pair@$$CBIPAVNPC_INFO@@@_STL@@@2@U?$less@I@2@V?$allocator@U?$pair@$$CBIPAVNPC_INFO@@@_STL@@@2@@_STL@@QAE@XZ
  00005	e8 00 00 00 00	 call	 __EH_prolog
  0000a	51		 push	 ecx
  0000b	56		 push	 esi
  0000c	8b f1		 mov	 esi, ecx
  0000e	89 75 f0	 mov	 DWORD PTR _this$[ebp], esi
  00011	83 65 fc 00	 and	 DWORD PTR __$EHRec$[ebp+8], 0
  00015	e8 00 00 00 00	 call	 ?clear@?$_Rb_tree@IU?$pair@$$CBIPAVNPC_INFO@@@_STL@@U?$_Select1st@U?$pair@$$CBIPAVNPC_INFO@@@_STL@@@2@U?$less@I@2@V?$allocator@U?$pair@$$CBIPAVNPC_INFO@@@_STL@@@2@@_STL@@QAEXXZ ; _STL::_Rb_tree<unsigned int,_STL::pair<unsigned int const ,NPC_INFO *>,_STL::_Select1st<_STL::pair<unsigned int const ,NPC_INFO *> >,_STL::less<unsigned int>,_STL::allocator<_STL::pair<unsigned int const ,NPC_INFO *> > >::clear
  0001a	83 4d fc ff	 or	 DWORD PTR __$EHRec$[ebp+8], -1
  0001e	6a 01		 push	 1
  00020	ff 36		 push	 DWORD PTR [esi]
  00022	8b ce		 mov	 ecx, esi
  00024	e8 00 00 00 00	 call	 ?deallocate@?$allocator@U?$_Rb_tree_node@U?$pair@$$CBIPAVNPC_INFO@@@_STL@@@_STL@@@_STL@@QAEXPAU?$_Rb_tree_node@U?$pair@$$CBIPAVNPC_INFO@@@_STL@@@2@I@Z ; _STL::allocator<_STL::_Rb_tree_node<_STL::pair<unsigned int const ,NPC_INFO *> > >::deallocate
  00029	8b 4d f4	 mov	 ecx, DWORD PTR __$EHRec$[ebp]
  0002c	5e		 pop	 esi
  0002d	64 89 0d 00 00
	00 00		 mov	 DWORD PTR fs:__except_list, ecx
  00034	c9		 leave
  00035	c3		 ret	 0
_TEXT	ENDS
;	COMDAT text$x
text$x	SEGMENT
$L108636:
  00000	8b 4d f0	 mov	 ecx, DWORD PTR _this$[ebp]
  00003	e9 00 00 00 00	 jmp	 ??1?$_Rb_tree_base@U?$pair@$$CBIPAVNPC_INFO@@@_STL@@V?$allocator@U?$pair@$$CBIPAVNPC_INFO@@@_STL@@@2@@_STL@@QAE@XZ ; _STL::_Rb_tree_base<_STL::pair<unsigned int const ,NPC_INFO *>,_STL::allocator<_STL::pair<unsigned int const ,NPC_INFO *> > >::~_Rb_tree_base<_STL::pair<unsigned int const ,NPC_INFO *>,_STL::allocator<_STL::pair<unsigned int const ,NPC_INFO *> > >
__ehhandler$??1?$_Rb_tree@IU?$pair@$$CBIPAVNPC_INFO@@@_STL@@U?$_Select1st@U?$pair@$$CBIPAVNPC_INFO@@@_STL@@@2@U?$less@I@2@V?$allocator@U?$pair@$$CBIPAVNPC_INFO@@@_STL@@@2@@_STL@@QAE@XZ:
  00008	b8 00 00 00 00	 mov	 eax, OFFSET FLAT:$T108653
  0000d	e9 00 00 00 00	 jmp	 ___CxxFrameHandler
text$x	ENDS
??1?$_Rb_tree@IU?$pair@$$CBIPAVNPC_INFO@@@_STL@@U?$_Select1st@U?$pair@$$CBIPAVNPC_INFO@@@_STL@@@2@U?$less@I@2@V?$allocator@U?$pair@$$CBIPAVNPC_INFO@@@_STL@@@2@@_STL@@QAE@XZ ENDP ; _STL::_Rb_tree<unsigned int,_STL::pair<unsigned int const ,NPC_INFO *>,_STL::_Select1st<_STL::pair<unsigned int const ,NPC_INFO *> >,_STL::less<unsigned int>,_STL::allocator<_STL::pair<unsigned int const ,NPC_INFO *> > >::~_Rb_tree<unsigned int,_STL::pair<unsigned int const ,NPC_INFO *>,_STL::_Select1st<_STL::pair<unsigned int const ,NPC_INFO *> >,_STL::less<unsigned int>,_STL::allocator<_STL::pair<unsigned int const ,NPC_INFO *> > >
PUBLIC	?clear@?$map@IPAVSERVERNPC_INFO@@U?$less@I@_STL@@V?$allocator@U?$pair@$$CBIPAVSERVERNPC_INFO@@@_STL@@@3@@_STL@@QAEXXZ ; _STL::map<unsigned int,SERVERNPC_INFO *,_STL::less<unsigned int>,_STL::allocator<_STL::pair<unsigned int const ,SERVERNPC_INFO *> > >::clear
; Function compile flags: /Ogsy
; File c:\stlport-4.6.1\stlport\stl\_map.h
;	COMDAT ?clear@?$map@IPAVSERVERNPC_INFO@@U?$less@I@_STL@@V?$allocator@U?$pair@$$CBIPAVSERVERNPC_INFO@@@_STL@@@3@@_STL@@QAEXXZ
_TEXT	SEGMENT
?clear@?$map@IPAVSERVERNPC_INFO@@U?$less@I@_STL@@V?$allocator@U?$pair@$$CBIPAVSERVERNPC_INFO@@@_STL@@@3@@_STL@@QAEXXZ PROC NEAR ; _STL::map<unsigned int,SERVERNPC_INFO *,_STL::less<unsigned int>,_STL::allocator<_STL::pair<unsigned int const ,SERVERNPC_INFO *> > >::clear, COMDAT
; _this$ = ecx

; 191  :   void clear() { _M_t.clear(); }

  00000	e9 00 00 00 00	 jmp	 ?clear@?$_Rb_tree@IU?$pair@$$CBIPAVSERVERNPC_INFO@@@_STL@@U?$_Select1st@U?$pair@$$CBIPAVSERVERNPC_INFO@@@_STL@@@2@U?$less@I@2@V?$allocator@U?$pair@$$CBIPAVSERVERNPC_INFO@@@_STL@@@2@@_STL@@QAEXXZ ; _STL::_Rb_tree<unsigned int,_STL::pair<unsigned int const ,SERVERNPC_INFO *>,_STL::_Select1st<_STL::pair<unsigned int const ,SERVERNPC_INFO *> >,_STL::less<unsigned int>,_STL::allocator<_STL::pair<unsigned int const ,SERVERNPC_INFO *> > >::clear
?clear@?$map@IPAVSERVERNPC_INFO@@U?$less@I@_STL@@V?$allocator@U?$pair@$$CBIPAVSERVERNPC_INFO@@@_STL@@@3@@_STL@@QAEXXZ ENDP ; _STL::map<unsigned int,SERVERNPC_INFO *,_STL::less<unsigned int>,_STL::allocator<_STL::pair<unsigned int const ,SERVERNPC_INFO *> > >::clear
_TEXT	ENDS
PUBLIC	??1?$_Rb_tree@IU?$pair@$$CBIPAVSERVERNPC_INFO@@@_STL@@U?$_Select1st@U?$pair@$$CBIPAVSERVERNPC_INFO@@@_STL@@@2@U?$less@I@2@V?$allocator@U?$pair@$$CBIPAVSERVERNPC_INFO@@@_STL@@@2@@_STL@@QAE@XZ ; _STL::_Rb_tree<unsigned int,_STL::pair<unsigned int const ,SERVERNPC_INFO *>,_STL::_Select1st<_STL::pair<unsigned int const ,SERVERNPC_INFO *> >,_STL::less<unsigned int>,_STL::allocator<_STL::pair<unsigned int const ,SERVERNPC_INFO *> > >::~_Rb_tree<unsigned int,_STL::pair<unsigned int const ,SERVERNPC_INFO *>,_STL::_Select1st<_STL::pair<unsigned int const ,SERVERNPC_INFO *> >,_STL::less<unsigned int>,_STL::allocator<_STL::pair<unsigned int const ,SERVERNPC_INFO *> > >
;	COMDAT xdata$x
; File c:\stlport-4.6.1\stlport\stl\_alloc.h
xdata$x	SEGMENT
$T108682 DD	0ffffffffH
	DD	FLAT:$L108663
$T108680 DD	019930520H
	DD	01H
	DD	FLAT:$T108682
	DD	2 DUP(00H)
	DD	2 DUP(00H)
; Function compile flags: /Ogsy
; File c:\stlport-4.6.1\stlport\stl\_tree.h
xdata$x	ENDS
;	COMDAT ??1?$_Rb_tree@IU?$pair@$$CBIPAVSERVERNPC_INFO@@@_STL@@U?$_Select1st@U?$pair@$$CBIPAVSERVERNPC_INFO@@@_STL@@@2@U?$less@I@2@V?$allocator@U?$pair@$$CBIPAVSERVERNPC_INFO@@@_STL@@@2@@_STL@@QAE@XZ
_TEXT	SEGMENT
_this$ = -16						; size = 4
__$EHRec$ = -12						; size = 12
??1?$_Rb_tree@IU?$pair@$$CBIPAVSERVERNPC_INFO@@@_STL@@U?$_Select1st@U?$pair@$$CBIPAVSERVERNPC_INFO@@@_STL@@@2@U?$less@I@2@V?$allocator@U?$pair@$$CBIPAVSERVERNPC_INFO@@@_STL@@@2@@_STL@@QAE@XZ PROC NEAR ; _STL::_Rb_tree<unsigned int,_STL::pair<unsigned int const ,SERVERNPC_INFO *>,_STL::_Select1st<_STL::pair<unsigned int const ,SERVERNPC_INFO *> >,_STL::less<unsigned int>,_STL::allocator<_STL::pair<unsigned int const ,SERVERNPC_INFO *> > >::~_Rb_tree<unsigned int,_STL::pair<unsigned int const ,SERVERNPC_INFO *>,_STL::_Select1st<_STL::pair<unsigned int const ,SERVERNPC_INFO *> >,_STL::less<unsigned int>,_STL::allocator<_STL::pair<unsigned int const ,SERVERNPC_INFO *> > >, COMDAT
; _this$ = ecx

; 341  :   ~_Rb_tree() { clear(); }

  00000	b8 00 00 00 00	 mov	 eax, __ehhandler$??1?$_Rb_tree@IU?$pair@$$CBIPAVSERVERNPC_INFO@@@_STL@@U?$_Select1st@U?$pair@$$CBIPAVSERVERNPC_INFO@@@_STL@@@2@U?$less@I@2@V?$allocator@U?$pair@$$CBIPAVSERVERNPC_INFO@@@_STL@@@2@@_STL@@QAE@XZ
  00005	e8 00 00 00 00	 call	 __EH_prolog
  0000a	51		 push	 ecx
  0000b	56		 push	 esi
  0000c	8b f1		 mov	 esi, ecx
  0000e	89 75 f0	 mov	 DWORD PTR _this$[ebp], esi
  00011	83 65 fc 00	 and	 DWORD PTR __$EHRec$[ebp+8], 0
  00015	e8 00 00 00 00	 call	 ?clear@?$_Rb_tree@IU?$pair@$$CBIPAVSERVERNPC_INFO@@@_STL@@U?$_Select1st@U?$pair@$$CBIPAVSERVERNPC_INFO@@@_STL@@@2@U?$less@I@2@V?$allocator@U?$pair@$$CBIPAVSERVERNPC_INFO@@@_STL@@@2@@_STL@@QAEXXZ ; _STL::_Rb_tree<unsigned int,_STL::pair<unsigned int const ,SERVERNPC_INFO *>,_STL::_Select1st<_STL::pair<unsigned int const ,SERVERNPC_INFO *> >,_STL::less<unsigned int>,_STL::allocator<_STL::pair<unsigned int const ,SERVERNPC_INFO *> > >::clear
  0001a	83 4d fc ff	 or	 DWORD PTR __$EHRec$[ebp+8], -1
  0001e	6a 01		 push	 1
  00020	ff 36		 push	 DWORD PTR [esi]
  00022	8b ce		 mov	 ecx, esi
  00024	e8 00 00 00 00	 call	 ?deallocate@?$allocator@U?$_Rb_tree_node@U?$pair@$$CBIPAVSERVERNPC_INFO@@@_STL@@@_STL@@@_STL@@QAEXPAU?$_Rb_tree_node@U?$pair@$$CBIPAVSERVERNPC_INFO@@@_STL@@@2@I@Z ; _STL::allocator<_STL::_Rb_tree_node<_STL::pair<unsigned int const ,SERVERNPC_INFO *> > >::deallocate
  00029	8b 4d f4	 mov	 ecx, DWORD PTR __$EHRec$[ebp]
  0002c	5e		 pop	 esi
  0002d	64 89 0d 00 00
	00 00		 mov	 DWORD PTR fs:__except_list, ecx
  00034	c9		 leave
  00035	c3		 ret	 0
_TEXT	ENDS
;	COMDAT text$x
text$x	SEGMENT
$L108663:
  00000	8b 4d f0	 mov	 ecx, DWORD PTR _this$[ebp]
  00003	e9 00 00 00 00	 jmp	 ??1?$_Rb_tree_base@U?$pair@$$CBIPAVSERVERNPC_INFO@@@_STL@@V?$allocator@U?$pair@$$CBIPAVSERVERNPC_INFO@@@_STL@@@2@@_STL@@QAE@XZ ; _STL::_Rb_tree_base<_STL::pair<unsigned int const ,SERVERNPC_INFO *>,_STL::allocator<_STL::pair<unsigned int const ,SERVERNPC_INFO *> > >::~_Rb_tree_base<_STL::pair<unsigned int const ,SERVERNPC_INFO *>,_STL::allocator<_STL::pair<unsigned int const ,SERVERNPC_INFO *> > >
__ehhandler$??1?$_Rb_tree@IU?$pair@$$CBIPAVSERVERNPC_INFO@@@_STL@@U?$_Select1st@U?$pair@$$CBIPAVSERVERNPC_INFO@@@_STL@@@2@U?$less@I@2@V?$allocator@U?$pair@$$CBIPAVSERVERNPC_INFO@@@_STL@@@2@@_STL@@QAE@XZ:
  00008	b8 00 00 00 00	 mov	 eax, OFFSET FLAT:$T108680
  0000d	e9 00 00 00 00	 jmp	 ___CxxFrameHandler
text$x	ENDS
??1?$_Rb_tree@IU?$pair@$$CBIPAVSERVERNPC_INFO@@@_STL@@U?$_Select1st@U?$pair@$$CBIPAVSERVERNPC_INFO@@@_STL@@@2@U?$less@I@2@V?$allocator@U?$pair@$$CBIPAVSERVERNPC_INFO@@@_STL@@@2@@_STL@@QAE@XZ ENDP ; _STL::_Rb_tree<unsigned int,_STL::pair<unsigned int const ,SERVERNPC_INFO *>,_STL::_Select1st<_STL::pair<unsigned int const ,SERVERNPC_INFO *> >,_STL::less<unsigned int>,_STL::allocator<_STL::pair<unsigned int const ,SERVERNPC_INFO *> > >::~_Rb_tree<unsigned int,_STL::pair<unsigned int const ,SERVERNPC_INFO *>,_STL::_Select1st<_STL::pair<unsigned int const ,SERVERNPC_INFO *> >,_STL::less<unsigned int>,_STL::allocator<_STL::pair<unsigned int const ,SERVERNPC_INFO *> > >
PUBLIC	??0?$_Rb_tree@IU?$pair@$$CBIPAVNPC_INFO@@@_STL@@U?$_Select1st@U?$pair@$$CBIPAVNPC_INFO@@@_STL@@@2@U?$less@I@2@V?$allocator@U?$pair@$$CBIPAVNPC_INFO@@@_STL@@@2@@_STL@@QAE@ABU?$less@I@1@ABV?$allocator@U?$pair@$$CBIPAVNPC_INFO@@@_STL@@@1@@Z ; _STL::_Rb_tree<unsigned int,_STL::pair<unsigned int const ,NPC_INFO *>,_STL::_Select1st<_STL::pair<unsigned int const ,NPC_INFO *> >,_STL::less<unsigned int>,_STL::allocator<_STL::pair<unsigned int const ,NPC_INFO *> > >::_Rb_tree<unsigned int,_STL::pair<unsigned int const ,NPC_INFO *>,_STL::_Select1st<_STL::pair<unsigned int const ,NPC_INFO *> >,_STL::less<unsigned int>,_STL::allocator<_STL::pair<unsigned int const ,NPC_INFO *> > >
; Function compile flags: /Ogsy
;	COMDAT ??0?$_Rb_tree@IU?$pair@$$CBIPAVNPC_INFO@@@_STL@@U?$_Select1st@U?$pair@$$CBIPAVNPC_INFO@@@_STL@@@2@U?$less@I@2@V?$allocator@U?$pair@$$CBIPAVNPC_INFO@@@_STL@@@2@@_STL@@QAE@ABU?$less@I@1@ABV?$allocator@U?$pair@$$CBIPAVNPC_INFO@@@_STL@@@1@@Z
_TEXT	SEGMENT
___comp$ = 8						; size = 4
___a$ = 12						; size = 4
??0?$_Rb_tree@IU?$pair@$$CBIPAVNPC_INFO@@@_STL@@U?$_Select1st@U?$pair@$$CBIPAVNPC_INFO@@@_STL@@@2@U?$less@I@2@V?$allocator@U?$pair@$$CBIPAVNPC_INFO@@@_STL@@@2@@_STL@@QAE@ABU?$less@I@1@ABV?$allocator@U?$pair@$$CBIPAVNPC_INFO@@@_STL@@@1@@Z PROC NEAR ; _STL::_Rb_tree<unsigned int,_STL::pair<unsigned int const ,NPC_INFO *>,_STL::_Select1st<_STL::pair<unsigned int const ,NPC_INFO *> >,_STL::less<unsigned int>,_STL::allocator<_STL::pair<unsigned int const ,NPC_INFO *> > >::_Rb_tree<unsigned int,_STL::pair<unsigned int const ,NPC_INFO *>,_STL::_Select1st<_STL::pair<unsigned int const ,NPC_INFO *> >,_STL::less<unsigned int>,_STL::allocator<_STL::pair<unsigned int const ,NPC_INFO *> > >, COMDAT
; _this$ = ecx

; 325  :     { _M_empty_initialize(); }

  00000	56		 push	 esi
  00001	ff 74 24 0c	 push	 DWORD PTR ___a$[esp]
  00005	8b f1		 mov	 esi, ecx
  00007	e8 00 00 00 00	 call	 ??0?$_Rb_tree_base@U?$pair@$$CBIPAVNPC_INFO@@@_STL@@V?$allocator@U?$pair@$$CBIPAVNPC_INFO@@@_STL@@@2@@_STL@@QAE@ABV?$allocator@U?$pair@$$CBIPAVNPC_INFO@@@_STL@@@1@@Z ; _STL::_Rb_tree_base<_STL::pair<unsigned int const ,NPC_INFO *>,_STL::allocator<_STL::pair<unsigned int const ,NPC_INFO *> > >::_Rb_tree_base<_STL::pair<unsigned int const ,NPC_INFO *>,_STL::allocator<_STL::pair<unsigned int const ,NPC_INFO *> > >
  0000c	8b 0e		 mov	 ecx, DWORD PTR [esi]
  0000e	33 c0		 xor	 eax, eax
  00010	89 46 04	 mov	 DWORD PTR [esi+4], eax
  00013	88 01		 mov	 BYTE PTR [ecx], al
  00015	8b 0e		 mov	 ecx, DWORD PTR [esi]
  00017	89 41 04	 mov	 DWORD PTR [ecx+4], eax
  0001a	8b 06		 mov	 eax, DWORD PTR [esi]
  0001c	89 40 08	 mov	 DWORD PTR [eax+8], eax
  0001f	8b 06		 mov	 eax, DWORD PTR [esi]
  00021	89 40 0c	 mov	 DWORD PTR [eax+12], eax
  00024	8b c6		 mov	 eax, esi
  00026	5e		 pop	 esi
  00027	c2 08 00	 ret	 8
??0?$_Rb_tree@IU?$pair@$$CBIPAVNPC_INFO@@@_STL@@U?$_Select1st@U?$pair@$$CBIPAVNPC_INFO@@@_STL@@@2@U?$less@I@2@V?$allocator@U?$pair@$$CBIPAVNPC_INFO@@@_STL@@@2@@_STL@@QAE@ABU?$less@I@1@ABV?$allocator@U?$pair@$$CBIPAVNPC_INFO@@@_STL@@@1@@Z ENDP ; _STL::_Rb_tree<unsigned int,_STL::pair<unsigned int const ,NPC_INFO *>,_STL::_Select1st<_STL::pair<unsigned int const ,NPC_INFO *> >,_STL::less<unsigned int>,_STL::allocator<_STL::pair<unsigned int const ,NPC_INFO *> > >::_Rb_tree<unsigned int,_STL::pair<unsigned int const ,NPC_INFO *>,_STL::_Select1st<_STL::pair<unsigned int const ,NPC_INFO *> >,_STL::less<unsigned int>,_STL::allocator<_STL::pair<unsigned int const ,NPC_INFO *> > >
_TEXT	ENDS
PUBLIC	??0?$_Rb_tree@IU?$pair@$$CBIPAVSERVERNPC_INFO@@@_STL@@U?$_Select1st@U?$pair@$$CBIPAVSERVERNPC_INFO@@@_STL@@@2@U?$less@I@2@V?$allocator@U?$pair@$$CBIPAVSERVERNPC_INFO@@@_STL@@@2@@_STL@@QAE@ABU?$less@I@1@ABV?$allocator@U?$pair@$$CBIPAVSERVERNPC_INFO@@@_STL@@@1@@Z ; _STL::_Rb_tree<unsigned int,_STL::pair<unsigned int const ,SERVERNPC_INFO *>,_STL::_Select1st<_STL::pair<unsigned int const ,SERVERNPC_INFO *> >,_STL::less<unsigned int>,_STL::allocator<_STL::pair<unsigned int const ,SERVERNPC_INFO *> > >::_Rb_tree<unsigned int,_STL::pair<unsigned int const ,SERVERNPC_INFO *>,_STL::_Select1st<_STL::pair<unsigned int const ,SERVERNPC_INFO *> >,_STL::less<unsigned int>,_STL::allocator<_STL::pair<unsigned int const ,SERVERNPC_INFO *> > >
; Function compile flags: /Ogsy
;	COMDAT ??0?$_Rb_tree@IU?$pair@$$CBIPAVSERVERNPC_INFO@@@_STL@@U?$_Select1st@U?$pair@$$CBIPAVSERVERNPC_INFO@@@_STL@@@2@U?$less@I@2@V?$allocator@U?$pair@$$CBIPAVSERVERNPC_INFO@@@_STL@@@2@@_STL@@QAE@ABU?$less@I@1@ABV?$allocator@U?$pair@$$CBIPAVSERVERNPC_INFO@@@_STL@@@1@@Z
_TEXT	SEGMENT
___comp$ = 8						; size = 4
___a$ = 12						; size = 4
??0?$_Rb_tree@IU?$pair@$$CBIPAVSERVERNPC_INFO@@@_STL@@U?$_Select1st@U?$pair@$$CBIPAVSERVERNPC_INFO@@@_STL@@@2@U?$less@I@2@V?$allocator@U?$pair@$$CBIPAVSERVERNPC_INFO@@@_STL@@@2@@_STL@@QAE@ABU?$less@I@1@ABV?$allocator@U?$pair@$$CBIPAVSERVERNPC_INFO@@@_STL@@@1@@Z PROC NEAR ; _STL::_Rb_tree<unsigned int,_STL::pair<unsigned int const ,SERVERNPC_INFO *>,_STL::_Select1st<_STL::pair<unsigned int const ,SERVERNPC_INFO *> >,_STL::less<unsigned int>,_STL::allocator<_STL::pair<unsigned int const ,SERVERNPC_INFO *> > >::_Rb_tree<unsigned int,_STL::pair<unsigned int const ,SERVERNPC_INFO *>,_STL::_Select1st<_STL::pair<unsigned int const ,SERVERNPC_INFO *> >,_STL::less<unsigned int>,_STL::allocator<_STL::pair<unsigned int const ,SERVERNPC_INFO *> > >, COMDAT
; _this$ = ecx

; 325  :     { _M_empty_initialize(); }

  00000	56		 push	 esi
  00001	ff 74 24 0c	 push	 DWORD PTR ___a$[esp]
  00005	8b f1		 mov	 esi, ecx
  00007	e8 00 00 00 00	 call	 ??0?$_Rb_tree_base@U?$pair@$$CBIPAVSERVERNPC_INFO@@@_STL@@V?$allocator@U?$pair@$$CBIPAVSERVERNPC_INFO@@@_STL@@@2@@_STL@@QAE@ABV?$allocator@U?$pair@$$CBIPAVSERVERNPC_INFO@@@_STL@@@1@@Z ; _STL::_Rb_tree_base<_STL::pair<unsigned int const ,SERVERNPC_INFO *>,_STL::allocator<_STL::pair<unsigned int const ,SERVERNPC_INFO *> > >::_Rb_tree_base<_STL::pair<unsigned int const ,SERVERNPC_INFO *>,_STL::allocator<_STL::pair<unsigned int const ,SERVERNPC_INFO *> > >
  0000c	8b 0e		 mov	 ecx, DWORD PTR [esi]
  0000e	33 c0		 xor	 eax, eax
  00010	89 46 04	 mov	 DWORD PTR [esi+4], eax
  00013	88 01		 mov	 BYTE PTR [ecx], al
  00015	8b 0e		 mov	 ecx, DWORD PTR [esi]
  00017	89 41 04	 mov	 DWORD PTR [ecx+4], eax
  0001a	8b 06		 mov	 eax, DWORD PTR [esi]
  0001c	89 40 08	 mov	 DWORD PTR [eax+8], eax
  0001f	8b 06		 mov	 eax, DWORD PTR [esi]
  00021	89 40 0c	 mov	 DWORD PTR [eax+12], eax
  00024	8b c6		 mov	 eax, esi
  00026	5e		 pop	 esi
  00027	c2 08 00	 ret	 8
??0?$_Rb_tree@IU?$pair@$$CBIPAVSERVERNPC_INFO@@@_STL@@U?$_Select1st@U?$pair@$$CBIPAVSERVERNPC_INFO@@@_STL@@@2@U?$less@I@2@V?$allocator@U?$pair@$$CBIPAVSERVERNPC_INFO@@@_STL@@@2@@_STL@@QAE@ABU?$less@I@1@ABV?$allocator@U?$pair@$$CBIPAVSERVERNPC_INFO@@@_STL@@@1@@Z ENDP ; _STL::_Rb_tree<unsigned int,_STL::pair<unsigned int const ,SERVERNPC_INFO *>,_STL::_Select1st<_STL::pair<unsigned int const ,SERVERNPC_INFO *> >,_STL::less<unsigned int>,_STL::allocator<_STL::pair<unsigned int const ,SERVERNPC_INFO *> > >::_Rb_tree<unsigned int,_STL::pair<unsigned int const ,SERVERNPC_INFO *>,_STL::_Select1st<_STL::pair<unsigned int const ,SERVERNPC_INFO *> >,_STL::less<unsigned int>,_STL::allocator<_STL::pair<unsigned int const ,SERVERNPC_INFO *> > >
_TEXT	ENDS
PUBLIC	?_M_insert@?$_Rb_tree@HU?$pair@$$CBHH@_STL@@U?$_Select1st@U?$pair@$$CBHH@_STL@@@2@U?$less@H@2@V?$allocator@U?$pair@$$CBHH@_STL@@@2@@_STL@@AAE?AU?$_Rb_tree_iterator@U?$pair@$$CBHH@_STL@@U?$_Nonconst_traits@U?$pair@$$CBHH@_STL@@@2@@2@PAU_Rb_tree_node_base@2@0ABU?$pair@$$CBHH@2@0@Z ; _STL::_Rb_tree<int,_STL::pair<int const ,int>,_STL::_Select1st<_STL::pair<int const ,int> >,_STL::less<int>,_STL::allocator<_STL::pair<int const ,int> > >::_M_insert
EXTRN	?_Rebalance@?$_Rb_global@_N@_STL@@SAXPAU_Rb_tree_node_base@2@AAPAU32@@Z:NEAR ; _STL::_Rb_global<bool>::_Rebalance
; Function compile flags: /Ogsy
; File c:\stlport-4.6.1\stlport\stl\_tree.c
;	COMDAT ?_M_insert@?$_Rb_tree@HU?$pair@$$CBHH@_STL@@U?$_Select1st@U?$pair@$$CBHH@_STL@@@2@U?$less@H@2@V?$allocator@U?$pair@$$CBHH@_STL@@@2@@_STL@@AAE?AU?$_Rb_tree_iterator@U?$pair@$$CBHH@_STL@@U?$_Nonconst_traits@U?$pair@$$CBHH@_STL@@@2@@2@PAU_Rb_tree_node_base@2@0ABU?$pair@$$CBHH@2@0@Z
_TEXT	SEGMENT
___$ReturnUdt$ = 8					; size = 4
___x_$ = 12						; size = 4
___y_$ = 16						; size = 4
___v$ = 20						; size = 4
___w_$ = 24						; size = 4
?_M_insert@?$_Rb_tree@HU?$pair@$$CBHH@_STL@@U?$_Select1st@U?$pair@$$CBHH@_STL@@@2@U?$less@H@2@V?$allocator@U?$pair@$$CBHH@_STL@@@2@@_STL@@AAE?AU?$_Rb_tree_iterator@U?$pair@$$CBHH@_STL@@U?$_Nonconst_traits@U?$pair@$$CBHH@_STL@@@2@@2@PAU_Rb_tree_node_base@2@0ABU?$pair@$$CBHH@2@0@Z PROC NEAR ; _STL::_Rb_tree<int,_STL::pair<int const ,int>,_STL::_Select1st<_STL::pair<int const ,int> >,_STL::less<int>,_STL::allocator<_STL::pair<int const ,int> > >::_M_insert, COMDAT
; _this$ = ecx

; 347  : {

  00000	55		 push	 ebp
  00001	8b ec		 mov	 ebp, esp

; 348  :   _Link_type __w = (_Link_type) __w_;
; 349  :   _Link_type __x = (_Link_type) __x_;
; 350  :   _Link_type __y = (_Link_type) __y_;
; 351  :   _Link_type __z;
; 352  : 
; 353  :   if ( __y == this->_M_header._M_data ||
; 354  :        ( __w == 0 && // If w != 0, the remainder fails to false
; 355  :          ( __x != 0 ||     // If x != 0, the remainder succeeds to true
; 356  :            _M_key_compare( _KeyOfValue()(__v), _S_key(__y) ) )
; 357  : 	 )
; 358  :        ) {

  00003	8b 45 14	 mov	 eax, DWORD PTR ___v$[ebp]
  00006	53		 push	 ebx
  00007	8b 5d 10	 mov	 ebx, DWORD PTR ___y_$[ebp]
  0000a	56		 push	 esi
  0000b	57		 push	 edi
  0000c	8b f9		 mov	 edi, ecx
  0000e	3b 1f		 cmp	 ebx, DWORD PTR [edi]
  00010	74 2c		 je	 SHORT $L105999
  00012	83 7d 18 00	 cmp	 DWORD PTR ___w_$[ebp], 0
  00016	75 0d		 jne	 SHORT $L105997
  00018	83 7d 0c 00	 cmp	 DWORD PTR ___x_$[ebp], 0
  0001c	75 20		 jne	 SHORT $L105999
  0001e	8b 08		 mov	 ecx, DWORD PTR [eax]
  00020	3b 4b 10	 cmp	 ecx, DWORD PTR [ebx+16]
  00023	7c 19		 jl	 SHORT $L105999
$L105997:

; 369  :   }
; 370  :   else {
; 371  :     __z = _M_create_node(__v);

  00025	50		 push	 eax
  00026	8b cf		 mov	 ecx, edi
  00028	e8 00 00 00 00	 call	 ?_M_create_node@?$_Rb_tree@HU?$pair@$$CBHH@_STL@@U?$_Select1st@U?$pair@$$CBHH@_STL@@@2@U?$less@H@2@V?$allocator@U?$pair@$$CBHH@_STL@@@2@@_STL@@IAEPAU?$_Rb_tree_node@U?$pair@$$CBHH@_STL@@@2@ABU?$pair@$$CBHH@2@@Z ; _STL::_Rb_tree<int,_STL::pair<int const ,int>,_STL::_Select1st<_STL::pair<int const ,int> >,_STL::less<int>,_STL::allocator<_STL::pair<int const ,int> > >::_M_create_node
  0002d	8b f0		 mov	 esi, eax

; 372  :     _S_right(__y) = __z;

  0002f	89 73 0c	 mov	 DWORD PTR [ebx+12], esi

; 373  :     if (__y == _M_rightmost())

  00032	8b 07		 mov	 eax, DWORD PTR [edi]
  00034	3b 58 0c	 cmp	 ebx, DWORD PTR [eax+12]
  00037	75 27		 jne	 SHORT $L106002
$L108801:

; 374  :       _M_rightmost() = __z;  // maintain _M_rightmost() pointing to max node

  00039	89 70 0c	 mov	 DWORD PTR [eax+12], esi
  0003c	eb 22		 jmp	 SHORT $L106002
$L105999:

; 359  :     
; 360  :     __z = _M_create_node(__v);

  0003e	50		 push	 eax
  0003f	8b cf		 mov	 ecx, edi
  00041	e8 00 00 00 00	 call	 ?_M_create_node@?$_Rb_tree@HU?$pair@$$CBHH@_STL@@U?$_Select1st@U?$pair@$$CBHH@_STL@@@2@U?$less@H@2@V?$allocator@U?$pair@$$CBHH@_STL@@@2@@_STL@@IAEPAU?$_Rb_tree_node@U?$pair@$$CBHH@_STL@@@2@ABU?$pair@$$CBHH@2@@Z ; _STL::_Rb_tree<int,_STL::pair<int const ,int>,_STL::_Select1st<_STL::pair<int const ,int> >,_STL::less<int>,_STL::allocator<_STL::pair<int const ,int> > >::_M_create_node
  00046	8b f0		 mov	 esi, eax

; 361  :     _S_left(__y) = __z;               // also makes _M_leftmost() = __z 

  00048	89 73 08	 mov	 DWORD PTR [ebx+8], esi

; 362  :                                       //    when __y == _M_header
; 363  :     if (__y == this->_M_header._M_data) {

  0004b	8b 07		 mov	 eax, DWORD PTR [edi]
  0004d	3b d8		 cmp	 ebx, eax
  0004f	75 07		 jne	 SHORT $L106000

; 364  :       _M_root() = __z;

  00051	89 70 04	 mov	 DWORD PTR [eax+4], esi

; 365  :       _M_rightmost() = __z;

  00054	8b 07		 mov	 eax, DWORD PTR [edi]

; 366  :     }
; 367  :     else if (__y == _M_leftmost())

  00056	eb e1		 jmp	 SHORT $L108801
$L106000:
  00058	3b 58 08	 cmp	 ebx, DWORD PTR [eax+8]
  0005b	75 03		 jne	 SHORT $L106002

; 368  :       _M_leftmost() = __z;   // maintain _M_leftmost() pointing to min node

  0005d	89 70 08	 mov	 DWORD PTR [eax+8], esi
$L106002:

; 375  :   }
; 376  :   _S_parent(__z) = __y;
; 377  :   _S_left(__z) = 0;

  00060	83 66 08 00	 and	 DWORD PTR [esi+8], 0

; 378  :   _S_right(__z) = 0;

  00064	83 66 0c 00	 and	 DWORD PTR [esi+12], 0
  00068	89 5e 04	 mov	 DWORD PTR [esi+4], ebx

; 379  :   _Rb_global_inst::_Rebalance(__z, this->_M_header._M_data->_M_parent);

  0006b	8b 07		 mov	 eax, DWORD PTR [edi]
  0006d	83 c0 04	 add	 eax, 4
  00070	50		 push	 eax
  00071	56		 push	 esi
  00072	e8 00 00 00 00	 call	 ?_Rebalance@?$_Rb_global@_N@_STL@@SAXPAU_Rb_tree_node_base@2@AAPAU32@@Z ; _STL::_Rb_global<bool>::_Rebalance

; 380  :   ++_M_node_count;

  00077	ff 47 04	 inc	 DWORD PTR [edi+4]

; 381  :   return iterator(__z);

  0007a	8b 45 08	 mov	 eax, DWORD PTR ___$ReturnUdt$[ebp]
  0007d	59		 pop	 ecx
  0007e	59		 pop	 ecx
  0007f	5f		 pop	 edi
  00080	89 30		 mov	 DWORD PTR [eax], esi
  00082	5e		 pop	 esi
  00083	5b		 pop	 ebx

; 382  : }

  00084	5d		 pop	 ebp
  00085	c2 14 00	 ret	 20			; 00000014H
?_M_insert@?$_Rb_tree@HU?$pair@$$CBHH@_STL@@U?$_Select1st@U?$pair@$$CBHH@_STL@@@2@U?$less@H@2@V?$allocator@U?$pair@$$CBHH@_STL@@@2@@_STL@@AAE?AU?$_Rb_tree_iterator@U?$pair@$$CBHH@_STL@@U?$_Nonconst_traits@U?$pair@$$CBHH@_STL@@@2@@2@PAU_Rb_tree_node_base@2@0ABU?$pair@$$CBHH@2@0@Z ENDP ; _STL::_Rb_tree<int,_STL::pair<int const ,int>,_STL::_Select1st<_STL::pair<int const ,int> >,_STL::less<int>,_STL::allocator<_STL::pair<int const ,int> > >::_M_insert
_TEXT	ENDS
PUBLIC	?insert_unique@?$_Rb_tree@HU?$pair@$$CBHH@_STL@@U?$_Select1st@U?$pair@$$CBHH@_STL@@@2@U?$less@H@2@V?$allocator@U?$pair@$$CBHH@_STL@@@2@@_STL@@QAE?AU?$pair@U?$_Rb_tree_iterator@U?$pair@$$CBHH@_STL@@U?$_Nonconst_traits@U?$pair@$$CBHH@_STL@@@2@@_STL@@_N@2@ABU?$pair@$$CBHH@2@@Z ; _STL::_Rb_tree<int,_STL::pair<int const ,int>,_STL::_Select1st<_STL::pair<int const ,int> >,_STL::less<int>,_STL::allocator<_STL::pair<int const ,int> > >::insert_unique
; Function compile flags: /Ogsy
;	COMDAT ?insert_unique@?$_Rb_tree@HU?$pair@$$CBHH@_STL@@U?$_Select1st@U?$pair@$$CBHH@_STL@@@2@U?$less@H@2@V?$allocator@U?$pair@$$CBHH@_STL@@@2@@_STL@@QAE?AU?$pair@U?$_Rb_tree_iterator@U?$pair@$$CBHH@_STL@@U?$_Nonconst_traits@U?$pair@$$CBHH@_STL@@@2@@_STL@@_N@2@ABU?$pair@$$CBHH@2@@Z
_TEXT	SEGMENT
___$ReturnUdt$ = 8					; size = 4
$T108812 = 12						; size = 4
___v$ = 12						; size = 4
?insert_unique@?$_Rb_tree@HU?$pair@$$CBHH@_STL@@U?$_Select1st@U?$pair@$$CBHH@_STL@@@2@U?$less@H@2@V?$allocator@U?$pair@$$CBHH@_STL@@@2@@_STL@@QAE?AU?$pair@U?$_Rb_tree_iterator@U?$pair@$$CBHH@_STL@@U?$_Nonconst_traits@U?$pair@$$CBHH@_STL@@@2@@_STL@@_N@2@ABU?$pair@$$CBHH@2@@Z PROC NEAR ; _STL::_Rb_tree<int,_STL::pair<int const ,int>,_STL::_Select1st<_STL::pair<int const ,int> >,_STL::less<int>,_STL::allocator<_STL::pair<int const ,int> > >::insert_unique, COMDAT
; _this$ = ecx

; 401  : {

  00000	55		 push	 ebp
  00001	8b ec		 mov	 ebp, esp
  00003	53		 push	 ebx
  00004	8b d9		 mov	 ebx, ecx

; 402  :   _Link_type __y = this->_M_header._M_data;

  00006	8b 0b		 mov	 ecx, DWORD PTR [ebx]
  00008	56		 push	 esi

; 403  :   _Link_type __x = _M_root();

  00009	8b 71 04	 mov	 esi, DWORD PTR [ecx+4]

; 404  :   bool __comp = true;
; 405  :   while (__x != 0) {

  0000c	85 f6		 test	 esi, esi
  0000e	57		 push	 edi
  0000f	8b f9		 mov	 edi, ecx
  00011	b2 01		 mov	 dl, 1
  00013	74 1d		 je	 SHORT $L108916

; 417  :     return pair<iterator,bool>(_M_insert(__x, __y, __v), true);

  00015	8b 45 0c	 mov	 eax, DWORD PTR ___v$[ebp]
  00018	8b 00		 mov	 eax, DWORD PTR [eax]
$L106020:
  0001a	3b 46 10	 cmp	 eax, DWORD PTR [esi+16]
  0001d	8b fe		 mov	 edi, esi
  0001f	0f 9c c2	 setl	 dl
  00022	84 d2		 test	 dl, dl
  00024	74 05		 je	 SHORT $L108805

; 406  :     __y = __x;
; 407  :     __comp = _M_key_compare(_KeyOfValue()(__v), _S_key(__x));
; 408  :     __x = __comp ? _S_left(__x) : _S_right(__x);

  00026	8b 76 08	 mov	 esi, DWORD PTR [esi+8]
  00029	eb 03		 jmp	 SHORT $L108806
$L108805:
  0002b	8b 76 0c	 mov	 esi, DWORD PTR [esi+12]
$L108806:

; 404  :   bool __comp = true;
; 405  :   while (__x != 0) {

  0002e	85 f6		 test	 esi, esi
  00030	75 e8		 jne	 SHORT $L106020
$L108916:

; 409  :   }
; 410  :   iterator __j = iterator(__y);   
; 411  :   if (__comp)

  00032	84 d2		 test	 dl, dl
  00034	8b c7		 mov	 eax, edi
  00036	74 15		 je	 SHORT $L108917

; 412  :     if (__j == begin())     

  00038	3b 79 08	 cmp	 edi, DWORD PTR [ecx+8]
  0003b	75 09		 jne	 SHORT $L106027

; 413  :       return pair<iterator,bool>(_M_insert(/* __x*/ __y, __y, __v), true);

  0003d	6a 00		 push	 0
  0003f	ff 75 0c	 push	 DWORD PTR ___v$[ebp]
  00042	57		 push	 edi
  00043	57		 push	 edi
  00044	eb 16		 jmp	 SHORT $L108918
$L106027:

; 414  :     else
; 415  :       --__j;

  00046	57		 push	 edi
  00047	e8 00 00 00 00	 call	 ?_M_decrement@?$_Rb_global@_N@_STL@@SAPAU_Rb_tree_node_base@2@PAU32@@Z ; _STL::_Rb_global<bool>::_M_decrement
  0004c	59		 pop	 ecx
$L108917:

; 416  :   if (_M_key_compare(_S_key(__j._M_node), _KeyOfValue()(__v)))

  0004d	8b 50 10	 mov	 edx, DWORD PTR [eax+16]
  00050	8b 4d 0c	 mov	 ecx, DWORD PTR ___v$[ebp]
  00053	3b 11		 cmp	 edx, DWORD PTR [ecx]
  00055	7d 1d		 jge	 SHORT $L106037

; 417  :     return pair<iterator,bool>(_M_insert(__x, __y, __v), true);

  00057	6a 00		 push	 0
  00059	51		 push	 ecx
  0005a	57		 push	 edi
  0005b	56		 push	 esi
$L108918:
  0005c	8d 45 0c	 lea	 eax, DWORD PTR $T108812[ebp]
  0005f	50		 push	 eax
  00060	8b cb		 mov	 ecx, ebx
  00062	e8 00 00 00 00	 call	 ?_M_insert@?$_Rb_tree@HU?$pair@$$CBHH@_STL@@U?$_Select1st@U?$pair@$$CBHH@_STL@@@2@U?$less@H@2@V?$allocator@U?$pair@$$CBHH@_STL@@@2@@_STL@@AAE?AU?$_Rb_tree_iterator@U?$pair@$$CBHH@_STL@@U?$_Nonconst_traits@U?$pair@$$CBHH@_STL@@@2@@2@PAU_Rb_tree_node_base@2@0ABU?$pair@$$CBHH@2@0@Z ; _STL::_Rb_tree<int,_STL::pair<int const ,int>,_STL::_Select1st<_STL::pair<int const ,int> >,_STL::less<int>,_STL::allocator<_STL::pair<int const ,int> > >::_M_insert
  00067	8b 08		 mov	 ecx, DWORD PTR [eax]
  00069	8b 45 08	 mov	 eax, DWORD PTR ___$ReturnUdt$[ebp]
  0006c	89 08		 mov	 DWORD PTR [eax], ecx
  0006e	c6 40 04 01	 mov	 BYTE PTR [eax+4], 1
  00072	eb 0b		 jmp	 SHORT $L106015
$L106037:

; 418  :   return pair<iterator,bool>(__j, false);

  00074	8b 4d 08	 mov	 ecx, DWORD PTR ___$ReturnUdt$[ebp]
  00077	89 01		 mov	 DWORD PTR [ecx], eax
  00079	c6 41 04 00	 mov	 BYTE PTR [ecx+4], 0
  0007d	8b c1		 mov	 eax, ecx
$L106015:
  0007f	5f		 pop	 edi
  00080	5e		 pop	 esi
  00081	5b		 pop	 ebx

; 419  : }

  00082	5d		 pop	 ebp
  00083	c2 08 00	 ret	 8
?insert_unique@?$_Rb_tree@HU?$pair@$$CBHH@_STL@@U?$_Select1st@U?$pair@$$CBHH@_STL@@@2@U?$less@H@2@V?$allocator@U?$pair@$$CBHH@_STL@@@2@@_STL@@QAE?AU?$pair@U?$_Rb_tree_iterator@U?$pair@$$CBHH@_STL@@U?$_Nonconst_traits@U?$pair@$$CBHH@_STL@@@2@@_STL@@_N@2@ABU?$pair@$$CBHH@2@@Z ENDP ; _STL::_Rb_tree<int,_STL::pair<int const ,int>,_STL::_Select1st<_STL::pair<int const ,int> >,_STL::less<int>,_STL::allocator<_STL::pair<int const ,int> > >::insert_unique
_TEXT	ENDS
PUBLIC	?SaveToFile@NPC_INFO@@QAEXAAV?$basic_ofstream@DV?$char_traits@D@_STL@@@_STL@@@Z ; NPC_INFO::SaveToFile
; Function compile flags: /Ogsy
; File c:\darkeden\designed_common\project\client\mnpctable.cpp
;	COMDAT ?SaveToFile@NPC_INFO@@QAEXAAV?$basic_ofstream@DV?$char_traits@D@_STL@@@_STL@@@Z
_TEXT	SEGMENT
_id$104069 = -4						; size = 4
_size$ = 8						; size = 4
_file$ = 8						; size = 4
?SaveToFile@NPC_INFO@@QAEXAAV?$basic_ofstream@DV?$char_traits@D@_STL@@@_STL@@@Z PROC NEAR ; NPC_INFO::SaveToFile, COMDAT
; _this$ = ecx

; 33   : {

  00000	55		 push	 ebp
  00001	8b ec		 mov	 ebp, esp
  00003	51		 push	 ecx
  00004	53		 push	 ebx

; 34   : 	//--------------------------------------------------
; 35   : 	// ListShopTemplateID
; 36   : 	//--------------------------------------------------
; 37   : 	Name.SaveToFile(file);

  00005	8b 5d 08	 mov	 ebx, DWORD PTR _file$[ebp]
  00008	56		 push	 esi
  00009	57		 push	 edi
  0000a	8b f1		 mov	 esi, ecx
  0000c	8b 06		 mov	 eax, DWORD PTR [esi]
  0000e	53		 push	 ebx
  0000f	ff 50 04	 call	 DWORD PTR [eax+4]

; 38   : 
; 39   : 	int size = ListShopTemplateID.size();

  00012	8b 4e 0c	 mov	 ecx, DWORD PTR [esi+12]
  00015	8b 01		 mov	 eax, DWORD PTR [ecx]
  00017	33 d2		 xor	 edx, edx
  00019	eb 03		 jmp	 SHORT $L109106
$L109029:
  0001b	8b 00		 mov	 eax, DWORD PTR [eax]
  0001d	42		 inc	 edx
$L109106:
  0001e	3b c1		 cmp	 eax, ecx
  00020	75 f9		 jne	 SHORT $L109029

; 40   : 	
; 41   : 	file.write((const char*)&size, 4);

  00022	6a 04		 push	 4
  00024	8d 45 08	 lea	 eax, DWORD PTR _size$[ebp]
  00027	50		 push	 eax
  00028	8b cb		 mov	 ecx, ebx
  0002a	89 55 08	 mov	 DWORD PTR _size$[ebp], edx
  0002d	e8 00 00 00 00	 call	 ?write@?$basic_ostream@DV?$char_traits@D@_STL@@@_STL@@QAEAAV12@PBDH@Z ; _STL::basic_ostream<char,_STL::char_traits<char> >::write

; 42   : 
; 43   : 	SHOPTEMPLATEID_LIST::iterator iID = ListShopTemplateID.begin();

  00032	8b 46 0c	 mov	 eax, DWORD PTR [esi+12]
  00035	8b 38		 mov	 edi, DWORD PTR [eax]

; 44   : 
; 45   : 	while (iID != ListShopTemplateID.end())

  00037	3b f8		 cmp	 edi, eax
  00039	74 1a		 je	 SHORT $L104067
$L104066:

; 46   : 	{
; 47   : 		unsigned int id = *iID;

  0003b	8b 47 08	 mov	 eax, DWORD PTR [edi+8]
  0003e	89 45 fc	 mov	 DWORD PTR _id$104069[ebp], eax

; 48   : 
; 49   : 		file.write((const char*)&id, 4);

  00041	6a 04		 push	 4
  00043	8d 45 fc	 lea	 eax, DWORD PTR _id$104069[ebp]
  00046	50		 push	 eax
  00047	8b cb		 mov	 ecx, ebx
  00049	e8 00 00 00 00	 call	 ?write@?$basic_ostream@DV?$char_traits@D@_STL@@@_STL@@QAEAAV12@PBDH@Z ; _STL::basic_ostream<char,_STL::char_traits<char> >::write

; 50   : 
; 51   : 		iID++;

  0004e	8b 3f		 mov	 edi, DWORD PTR [edi]
  00050	3b 7e 0c	 cmp	 edi, DWORD PTR [esi+12]
  00053	75 e6		 jne	 SHORT $L104066
$L104067:

; 52   : 	}	
; 53   : 
; 54   : 	//--------------------------------------------------
; 55   : 	// Description
; 56   : 	//--------------------------------------------------
; 57   : 	Description.SaveToFile( file );

  00055	8d 4e 10	 lea	 ecx, DWORD PTR [esi+16]
  00058	8b 01		 mov	 eax, DWORD PTR [ecx]
  0005a	53		 push	 ebx
  0005b	ff 50 04	 call	 DWORD PTR [eax+4]

; 58   : 	file.write((const char*)&SpriteID, 4);

  0005e	6a 04		 push	 4
  00060	83 c6 1c	 add	 esi, 28			; 0000001cH
  00063	56		 push	 esi
  00064	8b cb		 mov	 ecx, ebx
  00066	e8 00 00 00 00	 call	 ?write@?$basic_ostream@DV?$char_traits@D@_STL@@@_STL@@QAEAAV12@PBDH@Z ; _STL::basic_ostream<char,_STL::char_traits<char> >::write
  0006b	5f		 pop	 edi
  0006c	5e		 pop	 esi
  0006d	5b		 pop	 ebx

; 59   : }

  0006e	c9		 leave
  0006f	c2 04 00	 ret	 4
?SaveToFile@NPC_INFO@@QAEXAAV?$basic_ofstream@DV?$char_traits@D@_STL@@@_STL@@@Z ENDP ; NPC_INFO::SaveToFile
_TEXT	ENDS
PUBLIC	?SaveToFile@SERVERNPC_INFO@@QAEXAAV?$basic_ofstream@DV?$char_traits@D@_STL@@@_STL@@@Z ; SERVERNPC_INFO::SaveToFile
; Function compile flags: /Ogsy
;	COMDAT ?SaveToFile@SERVERNPC_INFO@@QAEXAAV?$basic_ofstream@DV?$char_traits@D@_STL@@@_STL@@@Z
_TEXT	SEGMENT
_id$104111 = -4						; size = 4
_size$ = 8						; size = 4
_file$ = 8						; size = 4
?SaveToFile@SERVERNPC_INFO@@QAEXAAV?$basic_ofstream@DV?$char_traits@D@_STL@@@_STL@@@Z PROC NEAR ; SERVERNPC_INFO::SaveToFile, COMDAT
; _this$ = ecx

; 128  : {

  00000	55		 push	 ebp
  00001	8b ec		 mov	 ebp, esp
  00003	51		 push	 ecx
  00004	53		 push	 ebx

; 129  : 	//--------------------------------------------------
; 130  : 	// ListShopTemplateID
; 131  : 	//--------------------------------------------------
; 132  : 	Name.SaveToFile(file);

  00005	8b 5d 08	 mov	 ebx, DWORD PTR _file$[ebp]
  00008	56		 push	 esi
  00009	8b f1		 mov	 esi, ecx
  0000b	57		 push	 edi
  0000c	8d 4e 04	 lea	 ecx, DWORD PTR [esi+4]
  0000f	8b 01		 mov	 eax, DWORD PTR [ecx]
  00011	53		 push	 ebx
  00012	ff 50 04	 call	 DWORD PTR [eax+4]

; 133  : 
; 134  : 	int size = ListShopTemplateID.size();

  00015	8b 0e		 mov	 ecx, DWORD PTR [esi]
  00017	8b 01		 mov	 eax, DWORD PTR [ecx]
  00019	33 d2		 xor	 edx, edx
  0001b	eb 03		 jmp	 SHORT $L109293
$L109210:
  0001d	8b 00		 mov	 eax, DWORD PTR [eax]
  0001f	42		 inc	 edx
$L109293:
  00020	3b c1		 cmp	 eax, ecx
  00022	75 f9		 jne	 SHORT $L109210

; 135  : 	
; 136  : 	file.write((const char*)&size, 4);

  00024	6a 04		 push	 4
  00026	8d 45 08	 lea	 eax, DWORD PTR _size$[ebp]
  00029	50		 push	 eax
  0002a	8b cb		 mov	 ecx, ebx
  0002c	89 55 08	 mov	 DWORD PTR _size$[ebp], edx
  0002f	e8 00 00 00 00	 call	 ?write@?$basic_ostream@DV?$char_traits@D@_STL@@@_STL@@QAEAAV12@PBDH@Z ; _STL::basic_ostream<char,_STL::char_traits<char> >::write

; 137  : 
; 138  : 	SHOPTEMPLATEID_LIST::iterator iID = ListShopTemplateID.begin();

  00034	8b 06		 mov	 eax, DWORD PTR [esi]
  00036	8b 38		 mov	 edi, DWORD PTR [eax]

; 139  : 
; 140  : 	while (iID != ListShopTemplateID.end())

  00038	3b f8		 cmp	 edi, eax
  0003a	74 19		 je	 SHORT $L104109
$L104108:

; 141  : 	{
; 142  : 		unsigned int id = *iID;

  0003c	8b 47 08	 mov	 eax, DWORD PTR [edi+8]
  0003f	89 45 fc	 mov	 DWORD PTR _id$104111[ebp], eax

; 143  : 
; 144  : 		file.write((const char*)&id, 4);

  00042	6a 04		 push	 4
  00044	8d 45 fc	 lea	 eax, DWORD PTR _id$104111[ebp]
  00047	50		 push	 eax
  00048	8b cb		 mov	 ecx, ebx
  0004a	e8 00 00 00 00	 call	 ?write@?$basic_ostream@DV?$char_traits@D@_STL@@@_STL@@QAEAAV12@PBDH@Z ; _STL::basic_ostream<char,_STL::char_traits<char> >::write

; 145  : 
; 146  : 		iID++;

  0004f	8b 3f		 mov	 edi, DWORD PTR [edi]
  00051	3b 3e		 cmp	 edi, DWORD PTR [esi]
  00053	75 e7		 jne	 SHORT $L104108
$L104109:

; 147  : 	}	
; 148  : 
; 149  : 	//--------------------------------------------------
; 150  : 	// Description
; 151  : 	//--------------------------------------------------
; 152  : 	Description.SaveToFile( file );

  00055	8d 4e 10	 lea	 ecx, DWORD PTR [esi+16]
  00058	8b 01		 mov	 eax, DWORD PTR [ecx]
  0005a	53		 push	 ebx
  0005b	ff 50 04	 call	 DWORD PTR [eax+4]
  0005e	5f		 pop	 edi
  0005f	5e		 pop	 esi
  00060	5b		 pop	 ebx

; 153  : }

  00061	c9		 leave
  00062	c2 04 00	 ret	 4
?SaveToFile@SERVERNPC_INFO@@QAEXAAV?$basic_ofstream@DV?$char_traits@D@_STL@@@_STL@@@Z ENDP ; SERVERNPC_INFO::SaveToFile
_TEXT	ENDS
PUBLIC	??1?$map@HHU?$less@H@_STL@@V?$allocator@U?$pair@$$CBHH@_STL@@@2@@_STL@@QAE@XZ ; _STL::map<int,int,_STL::less<int>,_STL::allocator<_STL::pair<int const ,int> > >::~map<int,int,_STL::less<int>,_STL::allocator<_STL::pair<int const ,int> > >
; Function compile flags: /Ogsy
;	COMDAT ??1?$map@HHU?$less@H@_STL@@V?$allocator@U?$pair@$$CBHH@_STL@@@2@@_STL@@QAE@XZ
_TEXT	SEGMENT
??1?$map@HHU?$less@H@_STL@@V?$allocator@U?$pair@$$CBHH@_STL@@@2@@_STL@@QAE@XZ PROC NEAR ; _STL::map<int,int,_STL::less<int>,_STL::allocator<_STL::pair<int const ,int> > >::~map<int,int,_STL::less<int>,_STL::allocator<_STL::pair<int const ,int> > >, COMDAT
; _this$ = ecx
  00000	e9 00 00 00 00	 jmp	 ??1?$_Rb_tree@HU?$pair@$$CBHH@_STL@@U?$_Select1st@U?$pair@$$CBHH@_STL@@@2@U?$less@H@2@V?$allocator@U?$pair@$$CBHH@_STL@@@2@@_STL@@QAE@XZ ; _STL::_Rb_tree<int,_STL::pair<int const ,int>,_STL::_Select1st<_STL::pair<int const ,int> >,_STL::less<int>,_STL::allocator<_STL::pair<int const ,int> > >::~_Rb_tree<int,_STL::pair<int const ,int>,_STL::_Select1st<_STL::pair<int const ,int> >,_STL::less<int>,_STL::allocator<_STL::pair<int const ,int> > >
??1?$map@HHU?$less@H@_STL@@V?$allocator@U?$pair@$$CBHH@_STL@@@2@@_STL@@QAE@XZ ENDP ; _STL::map<int,int,_STL::less<int>,_STL::allocator<_STL::pair<int const ,int> > >::~map<int,int,_STL::less<int>,_STL::allocator<_STL::pair<int const ,int> > >
_TEXT	ENDS
PUBLIC	??0NPC_INFO@@QAE@XZ				; NPC_INFO::NPC_INFO
EXTRN	??0MString@@QAE@XZ:NEAR				; MString::MString
;	COMDAT xdata$x
xdata$x	SEGMENT
$T109318 DD	0ffffffffH
	DD	FLAT:$L109301
	DD	00H
	DD	FLAT:$L109302
$T109316 DD	019930520H
	DD	02H
	DD	FLAT:$T109318
	DD	2 DUP(00H)
	DD	2 DUP(00H)
; Function compile flags: /Ogsy
xdata$x	ENDS
;	COMDAT ??0NPC_INFO@@QAE@XZ
_TEXT	SEGMENT
_this$ = -20						; size = 4
$T109300 = -13						; size = 1
__$EHRec$ = -12						; size = 12
??0NPC_INFO@@QAE@XZ PROC NEAR				; NPC_INFO::NPC_INFO, COMDAT
; _this$ = ecx
  00000	b8 00 00 00 00	 mov	 eax, __ehhandler$??0NPC_INFO@@QAE@XZ
  00005	e8 00 00 00 00	 call	 __EH_prolog
  0000a	51		 push	 ecx
  0000b	51		 push	 ecx
  0000c	56		 push	 esi
  0000d	8b f1		 mov	 esi, ecx
  0000f	89 75 ec	 mov	 DWORD PTR _this$[ebp], esi
  00012	e8 00 00 00 00	 call	 ??0MString@@QAE@XZ	; MString::MString
  00017	83 65 fc 00	 and	 DWORD PTR __$EHRec$[ebp+8], 0
  0001b	8d 45 f3	 lea	 eax, DWORD PTR $T109300[ebp]
  0001e	8d 4e 0c	 lea	 ecx, DWORD PTR [esi+12]
  00021	50		 push	 eax
  00022	e8 00 00 00 00	 call	 ??0?$_List_base@IV?$allocator@I@_STL@@@_STL@@QAE@ABV?$allocator@I@1@@Z ; _STL::_List_base<unsigned int,_STL::allocator<unsigned int> >::_List_base<unsigned int,_STL::allocator<unsigned int> >
  00027	8d 4e 10	 lea	 ecx, DWORD PTR [esi+16]
  0002a	c6 45 fc 01	 mov	 BYTE PTR __$EHRec$[ebp+8], 1
  0002e	e8 00 00 00 00	 call	 ??0MString@@QAE@XZ	; MString::MString
  00033	8b 4d f4	 mov	 ecx, DWORD PTR __$EHRec$[ebp]
  00036	8b c6		 mov	 eax, esi
  00038	5e		 pop	 esi
  00039	64 89 0d 00 00
	00 00		 mov	 DWORD PTR fs:__except_list, ecx
  00040	c9		 leave
  00041	c3		 ret	 0
_TEXT	ENDS
;	COMDAT text$x
text$x	SEGMENT
$L109301:
  00000	8b 4d ec	 mov	 ecx, DWORD PTR _this$[ebp]
  00003	e9 00 00 00 00	 jmp	 ??1MString@@UAE@XZ	; MString::~MString
$L109302:
  00008	8b 4d ec	 mov	 ecx, DWORD PTR _this$[ebp]
  0000b	83 c1 0c	 add	 ecx, 12			; 0000000cH
  0000e	e9 00 00 00 00	 jmp	 ??1?$list@IV?$allocator@I@_STL@@@_STL@@QAE@XZ ; _STL::list<unsigned int,_STL::allocator<unsigned int> >::~list<unsigned int,_STL::allocator<unsigned int> >
__ehhandler$??0NPC_INFO@@QAE@XZ:
  00013	b8 00 00 00 00	 mov	 eax, OFFSET FLAT:$T109316
  00018	e9 00 00 00 00	 jmp	 ___CxxFrameHandler
text$x	ENDS
??0NPC_INFO@@QAE@XZ ENDP				; NPC_INFO::NPC_INFO
PUBLIC	?push_back@?$list@IV?$allocator@I@_STL@@@_STL@@QAEXABI@Z ; _STL::list<unsigned int,_STL::allocator<unsigned int> >::push_back
; Function compile flags: /Ogsy
; File c:\stlport-4.6.1\stlport\stl\_list.h
;	COMDAT ?push_back@?$list@IV?$allocator@I@_STL@@@_STL@@QAEXABI@Z
_TEXT	SEGMENT
$T109324 = 8						; size = 4
___x$ = 8						; size = 4
?push_back@?$list@IV?$allocator@I@_STL@@@_STL@@QAEXABI@Z PROC NEAR ; _STL::list<unsigned int,_STL::allocator<unsigned int> >::push_back, COMDAT
; _this$ = ecx

; 345  :   void push_back(const _Tp& __x) { insert(end(), __x); }

  00000	55		 push	 ebp
  00001	8b ec		 mov	 ebp, esp
  00003	ff 75 08	 push	 DWORD PTR ___x$[ebp]
  00006	8b 11		 mov	 edx, DWORD PTR [ecx]
  00008	51		 push	 ecx
  00009	8b c4		 mov	 eax, esp
  0000b	89 10		 mov	 DWORD PTR [eax], edx
  0000d	8d 45 08	 lea	 eax, DWORD PTR $T109324[ebp]
  00010	50		 push	 eax
  00011	e8 00 00 00 00	 call	 ?insert@?$list@IV?$allocator@I@_STL@@@_STL@@QAE?AU?$_List_iterator@IU?$_Nonconst_traits@I@_STL@@@2@U32@ABI@Z ; _STL::list<unsigned int,_STL::allocator<unsigned int> >::insert
  00016	5d		 pop	 ebp
  00017	c2 04 00	 ret	 4
?push_back@?$list@IV?$allocator@I@_STL@@@_STL@@QAEXABI@Z ENDP ; _STL::list<unsigned int,_STL::allocator<unsigned int> >::push_back
_TEXT	ENDS
PUBLIC	??0?$map@HHU?$less@H@_STL@@V?$allocator@U?$pair@$$CBHH@_STL@@@2@@_STL@@QAE@XZ ; _STL::map<int,int,_STL::less<int>,_STL::allocator<_STL::pair<int const ,int> > >::map<int,int,_STL::less<int>,_STL::allocator<_STL::pair<int const ,int> > >
; Function compile flags: /Ogsy
; File c:\stlport-4.6.1\stlport\stl\_map.h
;	COMDAT ??0?$map@HHU?$less@H@_STL@@V?$allocator@U?$pair@$$CBHH@_STL@@@2@@_STL@@QAE@XZ
_TEXT	SEGMENT
$T109345 = -1						; size = 1
$T109344 = -1						; size = 1
??0?$map@HHU?$less@H@_STL@@V?$allocator@U?$pair@$$CBHH@_STL@@@2@@_STL@@QAE@XZ PROC NEAR ; _STL::map<int,int,_STL::less<int>,_STL::allocator<_STL::pair<int const ,int> > >::map<int,int,_STL::less<int>,_STL::allocator<_STL::pair<int const ,int> > >, COMDAT
; _this$ = ecx

; 91   :   map() : _M_t(_Compare(), allocator_type()) {}

  00000	55		 push	 ebp
  00001	8b ec		 mov	 ebp, esp
  00003	51		 push	 ecx
  00004	56		 push	 esi
  00005	8d 45 ff	 lea	 eax, DWORD PTR $T109344[ebp]
  00008	50		 push	 eax
  00009	8d 45 ff	 lea	 eax, DWORD PTR $T109345[ebp]
  0000c	50		 push	 eax
  0000d	8b f1		 mov	 esi, ecx
  0000f	e8 00 00 00 00	 call	 ??0?$_Rb_tree@HU?$pair@$$CBHH@_STL@@U?$_Select1st@U?$pair@$$CBHH@_STL@@@2@U?$less@H@2@V?$allocator@U?$pair@$$CBHH@_STL@@@2@@_STL@@QAE@ABU?$less@H@1@ABV?$allocator@U?$pair@$$CBHH@_STL@@@1@@Z ; _STL::_Rb_tree<int,_STL::pair<int const ,int>,_STL::_Select1st<_STL::pair<int const ,int> >,_STL::less<int>,_STL::allocator<_STL::pair<int const ,int> > >::_Rb_tree<int,_STL::pair<int const ,int>,_STL::_Select1st<_STL::pair<int const ,int> >,_STL::less<int>,_STL::allocator<_STL::pair<int const ,int> > >
  00014	8b c6		 mov	 eax, esi
  00016	5e		 pop	 esi
  00017	c9		 leave
  00018	c3		 ret	 0
??0?$map@HHU?$less@H@_STL@@V?$allocator@U?$pair@$$CBHH@_STL@@@2@@_STL@@QAE@XZ ENDP ; _STL::map<int,int,_STL::less<int>,_STL::allocator<_STL::pair<int const ,int> > >::map<int,int,_STL::less<int>,_STL::allocator<_STL::pair<int const ,int> > >
_TEXT	ENDS
PUBLIC	?lower_bound@?$map@HHU?$less@H@_STL@@V?$allocator@U?$pair@$$CBHH@_STL@@@2@@_STL@@QAE?AU?$_Rb_tree_iterator@U?$pair@$$CBHH@_STL@@U?$_Nonconst_traits@U?$pair@$$CBHH@_STL@@@2@@2@ABH@Z ; _STL::map<int,int,_STL::less<int>,_STL::allocator<_STL::pair<int const ,int> > >::lower_bound
; Function compile flags: /Ogsy
;	COMDAT ?lower_bound@?$map@HHU?$less@H@_STL@@V?$allocator@U?$pair@$$CBHH@_STL@@@2@@_STL@@QAE?AU?$_Rb_tree_iterator@U?$pair@$$CBHH@_STL@@U?$_Nonconst_traits@U?$pair@$$CBHH@_STL@@@2@@2@ABH@Z
_TEXT	SEGMENT
___$ReturnUdt$ = 8					; size = 4
___x$ = 12						; size = 4
?lower_bound@?$map@HHU?$less@H@_STL@@V?$allocator@U?$pair@$$CBHH@_STL@@@2@@_STL@@QAE?AU?$_Rb_tree_iterator@U?$pair@$$CBHH@_STL@@U?$_Nonconst_traits@U?$pair@$$CBHH@_STL@@@2@@2@ABH@Z PROC NEAR ; _STL::map<int,int,_STL::less<int>,_STL::allocator<_STL::pair<int const ,int> > >::lower_bound, COMDAT
; _this$ = ecx

; 200  :   iterator lower_bound(const key_type& __x) {return _M_t.lower_bound(__x); }

  00000	ff 74 24 08	 push	 DWORD PTR ___x$[esp-4]
  00004	e8 00 00 00 00	 call	 ?_M_lower_bound@?$_Rb_tree@HU?$pair@$$CBHH@_STL@@U?$_Select1st@U?$pair@$$CBHH@_STL@@@2@U?$less@H@2@V?$allocator@U?$pair@$$CBHH@_STL@@@2@@_STL@@ABEPAU?$_Rb_tree_node@U?$pair@$$CBHH@_STL@@@2@ABH@Z ; _STL::_Rb_tree<int,_STL::pair<int const ,int>,_STL::_Select1st<_STL::pair<int const ,int> >,_STL::less<int>,_STL::allocator<_STL::pair<int const ,int> > >::_M_lower_bound
  00009	8b 4c 24 04	 mov	 ecx, DWORD PTR ___$ReturnUdt$[esp-4]
  0000d	89 01		 mov	 DWORD PTR [ecx], eax
  0000f	8b c1		 mov	 eax, ecx
  00011	c2 08 00	 ret	 8
?lower_bound@?$map@HHU?$less@H@_STL@@V?$allocator@U?$pair@$$CBHH@_STL@@@2@@_STL@@QAE?AU?$_Rb_tree_iterator@U?$pair@$$CBHH@_STL@@U?$_Nonconst_traits@U?$pair@$$CBHH@_STL@@@2@@2@ABH@Z ENDP ; _STL::map<int,int,_STL::less<int>,_STL::allocator<_STL::pair<int const ,int> > >::lower_bound
_TEXT	ENDS
PUBLIC	?insert_unique@?$_Rb_tree@HU?$pair@$$CBHH@_STL@@U?$_Select1st@U?$pair@$$CBHH@_STL@@@2@U?$less@H@2@V?$allocator@U?$pair@$$CBHH@_STL@@@2@@_STL@@QAE?AU?$_Rb_tree_iterator@U?$pair@$$CBHH@_STL@@U?$_Nonconst_traits@U?$pair@$$CBHH@_STL@@@2@@2@U32@ABU?$pair@$$CBHH@2@@Z ; _STL::_Rb_tree<int,_STL::pair<int const ,int>,_STL::_Select1st<_STL::pair<int const ,int> >,_STL::less<int>,_STL::allocator<_STL::pair<int const ,int> > >::insert_unique
; Function compile flags: /Ogsy
; File c:\stlport-4.6.1\stlport\stl\_tree.c
;	COMDAT ?insert_unique@?$_Rb_tree@HU?$pair@$$CBHH@_STL@@U?$_Select1st@U?$pair@$$CBHH@_STL@@@2@U?$less@H@2@V?$allocator@U?$pair@$$CBHH@_STL@@@2@@_STL@@QAE?AU?$_Rb_tree_iterator@U?$pair@$$CBHH@_STL@@U?$_Nonconst_traits@U?$pair@$$CBHH@_STL@@@2@@2@U32@ABU?$pair@$$CBHH@2@@Z
_TEXT	SEGMENT
$T109378 = -8						; size = 8
___$ReturnUdt$ = 8					; size = 4
___position$ = 12					; size = 4
___v$ = 16						; size = 4
___comp_v_pos$105541 = 19				; size = 1
?insert_unique@?$_Rb_tree@HU?$pair@$$CBHH@_STL@@U?$_Select1st@U?$pair@$$CBHH@_STL@@@2@U?$less@H@2@V?$allocator@U?$pair@$$CBHH@_STL@@@2@@_STL@@QAE?AU?$_Rb_tree_iterator@U?$pair@$$CBHH@_STL@@U?$_Nonconst_traits@U?$pair@$$CBHH@_STL@@@2@@2@U32@ABU?$pair@$$CBHH@2@@Z PROC NEAR ; _STL::_Rb_tree<int,_STL::pair<int const ,int>,_STL::_Select1st<_STL::pair<int const ,int> >,_STL::less<int>,_STL::allocator<_STL::pair<int const ,int> > >::insert_unique, COMDAT
; _this$ = ecx

; 426  : {

  00000	55		 push	 ebp
  00001	8b ec		 mov	 ebp, esp
  00003	51		 push	 ecx
  00004	51		 push	 ecx
  00005	53		 push	 ebx
  00006	56		 push	 esi

; 427  :   if (__position._M_node == this->_M_header._M_data->_M_left) { // begin()

  00007	8b 75 0c	 mov	 esi, DWORD PTR ___position$[ebp]
  0000a	57		 push	 edi
  0000b	8b f9		 mov	 edi, ecx
  0000d	8b 07		 mov	 eax, DWORD PTR [edi]
  0000f	3b 70 08	 cmp	 esi, DWORD PTR [eax+8]
  00012	75 63		 jne	 SHORT $L105492

; 428  : 
; 429  :     // if the container is empty, fall back on insert_unique.
; 430  :     if (size() <= 0)

  00014	83 7f 04 00	 cmp	 DWORD PTR [edi+4], 0
  00018	77 08		 ja	 SHORT $L105493

; 431  :       return insert_unique(__v).first;

  0001a	ff 75 10	 push	 DWORD PTR ___v$[ebp]
  0001d	e9 eb 00 00 00	 jmp	 $L109608
$L105493:

; 432  : 
; 433  :     if ( _M_key_compare(_KeyOfValue()(__v), _S_key(__position._M_node)))

  00022	8b 5d 10	 mov	 ebx, DWORD PTR ___v$[ebp]
  00025	8b 03		 mov	 eax, DWORD PTR [ebx]
  00027	8b 4e 10	 mov	 ecx, DWORD PTR [esi+16]
  0002a	3b c8		 cmp	 ecx, eax
  0002c	7e 07		 jle	 SHORT $L109609

; 434  :       return _M_insert(__position._M_node, __position._M_node, __v);

  0002e	6a 00		 push	 0
  00030	e9 88 00 00 00	 jmp	 $L109613
$L109609:

; 435  :     // first argument just needs to be non-null 
; 436  :     else
; 437  :       {
; 438  : 	bool __comp_pos_v = _M_key_compare( _S_key(__position._M_node), _KeyOfValue()(__v) );
; 439  : 	
; 440  : 	if (__comp_pos_v == false)  // compare > and compare < both false so compare equal

  00035	7c 0a		 jl	 SHORT $L105520
$L109606:

; 441  : 	  return __position;

  00037	8b 45 08	 mov	 eax, DWORD PTR ___$ReturnUdt$[ebp]
  0003a	89 30		 mov	 DWORD PTR [eax], esi
  0003c	e9 de 00 00 00	 jmp	 $L105563
$L105520:

; 442  : 	//Below __comp_pos_v == true
; 443  : 
; 444  : 	// Standard-conformance - does the insertion point fall immediately AFTER
; 445  : 	// the hint?
; 446  : 	iterator __after = __position;
; 447  : 	++__after;

  00041	56		 push	 esi
  00042	e8 00 00 00 00	 call	 ?_M_increment@?$_Rb_global@_N@_STL@@SAPAU_Rb_tree_node_base@2@PAU32@@Z ; _STL::_Rb_global<bool>::_M_increment

; 448  : 
; 449  : 	// Check for only one member -- in that case, __position points to itself,
; 450  : 	// and attempting to increment will cause an infinite loop.
; 451  : 	if (__after._M_node == this->_M_header._M_data)

  00047	3b 07		 cmp	 eax, DWORD PTR [edi]
  00049	59		 pop	 ecx
  0004a	75 05		 jne	 SHORT $L105522

; 452  : 	  // Check guarantees exactly one member, so comparison was already
; 453  : 	  // performed and we know the result; skip repeating it in _M_insert
; 454  : 	  // by specifying a non-zero fourth argument.
; 455  : 	  return _M_insert(0, __position._M_node, __v, __position._M_node);

  0004c	56		 push	 esi
  0004d	53		 push	 ebx
  0004e	56		 push	 esi
  0004f	eb 3a		 jmp	 SHORT $L109614
$L105522:

; 456  : 		
; 457  : 	
; 458  : 	// All other cases:
; 459  : 	
; 460  : 	// Optimization to catch insert-equivalent -- save comparison results,
; 461  : 	// and we get this for free.
; 462  : 	if(_M_key_compare( _KeyOfValue()(__v), _S_key(__after._M_node) )) {

  00051	8b 0b		 mov	 ecx, DWORD PTR [ebx]
  00053	3b 48 10	 cmp	 ecx, DWORD PTR [eax+16]
  00056	0f 8d b0 00 00
	00		 jge	 $L105562

; 463  : 	  if (_S_right(__position._M_node) == 0)
; 464  : 	    return _M_insert(0, __position._M_node, __v, __position._M_node);

  0005c	e9 8e 00 00 00	 jmp	 $L105556
$L105526:

; 465  : 	  else
; 466  : 	    return _M_insert(__after._M_node, __after._M_node, __v);

  00061	51		 push	 ecx
  00062	53		 push	 ebx
  00063	50		 push	 eax
  00064	50		 push	 eax
$L109611:
  00065	ff 75 08	 push	 DWORD PTR ___$ReturnUdt$[ebp]
  00068	8b cf		 mov	 ecx, edi
  0006a	e8 00 00 00 00	 call	 ?_M_insert@?$_Rb_tree@HU?$pair@$$CBHH@_STL@@U?$_Select1st@U?$pair@$$CBHH@_STL@@@2@U?$less@H@2@V?$allocator@U?$pair@$$CBHH@_STL@@@2@@_STL@@AAE?AU?$_Rb_tree_iterator@U?$pair@$$CBHH@_STL@@U?$_Nonconst_traits@U?$pair@$$CBHH@_STL@@@2@@2@PAU_Rb_tree_node_base@2@0ABU?$pair@$$CBHH@2@0@Z ; _STL::_Rb_tree<int,_STL::pair<int const ,int>,_STL::_Select1st<_STL::pair<int const ,int> >,_STL::less<int>,_STL::allocator<_STL::pair<int const ,int> > >::_M_insert
  0006f	8b 45 08	 mov	 eax, DWORD PTR ___$ReturnUdt$[ebp]

; 467  : 	} else {
; 468  : 	    return insert_unique(__v).first;

  00072	e9 a8 00 00 00	 jmp	 $L105563
$L105492:

; 469  : 	}
; 470  :       }
; 471  : 
; 472  :   } else if (__position._M_node == this->_M_header._M_data) { // end()

  00077	3b f0		 cmp	 esi, eax
  00079	75 17		 jne	 SHORT $L105533

; 473  :     if (_M_key_compare(_S_key(_M_rightmost()), _KeyOfValue()(__v)))

  0007b	8b 40 0c	 mov	 eax, DWORD PTR [eax+12]
  0007e	8b 50 10	 mov	 edx, DWORD PTR [eax+16]
  00081	8b 4d 10	 mov	 ecx, DWORD PTR ___v$[ebp]
  00084	3b 11		 cmp	 edx, DWORD PTR [ecx]
  00086	7d 07		 jge	 SHORT $L105535

; 474  :       // pass along to _M_insert that it can skip comparing
; 475  :       // v, Key ; since compare Key, v was true, compare v, Key must be false.
; 476  :       return _M_insert(0, _M_rightmost(), __v, __position._M_node); // Last argument only needs to be non-null

  00088	56		 push	 esi
  00089	51		 push	 ecx
  0008a	50		 push	 eax
$L109614:
  0008b	6a 00		 push	 0
  0008d	eb d6		 jmp	 SHORT $L109611
$L105535:

; 477  :     else
; 478  :       return insert_unique(__v).first;

  0008f	51		 push	 ecx
  00090	eb 7b		 jmp	 SHORT $L109608
$L105533:

; 479  :   } else {
; 480  :     iterator __before = __position;
; 481  :     --__before;

  00092	56		 push	 esi
  00093	e8 00 00 00 00	 call	 ?_M_decrement@?$_Rb_global@_N@_STL@@SAPAU_Rb_tree_node_base@2@PAU32@@Z ; _STL::_Rb_global<bool>::_M_decrement

; 482  :     
; 483  :     bool __comp_v_pos = _M_key_compare(_KeyOfValue()(__v), _S_key(__position._M_node));

  00098	8b 5d 10	 mov	 ebx, DWORD PTR ___v$[ebp]
  0009b	59		 pop	 ecx
  0009c	8b 0b		 mov	 ecx, DWORD PTR [ebx]
  0009e	3b 4e 10	 cmp	 ecx, DWORD PTR [esi+16]
  000a1	0f 9c 45 13	 setl	 BYTE PTR ___comp_v_pos$105541[ebp]

; 484  : 
; 485  :     if (__comp_v_pos
; 486  :       && _M_key_compare( _S_key(__before._M_node), _KeyOfValue()(__v) )) {

  000a5	80 7d 13 00	 cmp	 BYTE PTR ___comp_v_pos$105541[ebp], 0
  000a9	74 17		 je	 SHORT $L105544
  000ab	39 48 10	 cmp	 DWORD PTR [eax+16], ecx
  000ae	7d 12		 jge	 SHORT $L105544

; 487  : 
; 488  :       if (_S_right(__before._M_node) == 0)

  000b0	33 c9		 xor	 ecx, ecx
  000b2	39 48 0c	 cmp	 DWORD PTR [eax+12], ecx
  000b5	75 05		 jne	 SHORT $L105545

; 489  :         return _M_insert(0, __before._M_node, __v, __before._M_node); // Last argument only needs to be non-null

  000b7	50		 push	 eax
  000b8	53		 push	 ebx
  000b9	50		 push	 eax
  000ba	eb 41		 jmp	 SHORT $L109612
$L105545:

; 490  :       else
; 491  :         return _M_insert(__position._M_node, __position._M_node, __v);

  000bc	51		 push	 ecx
$L109613:
  000bd	53		 push	 ebx
  000be	56		 push	 esi
  000bf	56		 push	 esi
  000c0	eb a3		 jmp	 SHORT $L109611
$L105544:

; 492  :     // first argument just needs to be non-null 
; 493  :     } else
; 494  :       {
; 495  : 	// Does the insertion point fall immediately AFTER the hint?
; 496  : 	iterator __after = __position;
; 497  : 	++__after;

  000c2	56		 push	 esi
  000c3	e8 00 00 00 00	 call	 ?_M_increment@?$_Rb_global@_N@_STL@@SAPAU_Rb_tree_node_base@2@PAU32@@Z ; _STL::_Rb_global<bool>::_M_increment

; 498  : 	
; 499  : 	// Optimization to catch equivalent cases and avoid unnecessary comparisons
; 500  : 	bool __comp_pos_v = !__comp_v_pos;  // Stored this result earlier

  000c8	80 7d 13 00	 cmp	 BYTE PTR ___comp_v_pos$105541[ebp], 0
  000cc	59		 pop	 ecx
  000cd	0f 94 c2	 sete	 dl

; 501  : 	// If the earlier comparison was true, this comparison doesn't need to be
; 502  : 	// performed because it must be false.  However, if the earlier comparison
; 503  : 	// was false, we need to perform this one because in the equal case, both will
; 504  : 	// be false.
; 505  : 	if (!__comp_v_pos) __comp_pos_v = _M_key_compare(_S_key(__position._M_node), _KeyOfValue()(__v));

  000d0	80 7d 13 00	 cmp	 BYTE PTR ___comp_v_pos$105541[ebp], 0
  000d4	75 2d		 jne	 SHORT $L109607
  000d6	8b 0b		 mov	 ecx, DWORD PTR [ebx]
  000d8	39 4e 10	 cmp	 DWORD PTR [esi+16], ecx
  000db	0f 9c c2	 setl	 dl

; 506  : 	
; 507  : 	if ( (!__comp_v_pos) // comp_v_pos true implies comp_v_pos false
; 508  : 	     && __comp_pos_v
; 509  : 	     && (__after._M_node == this->_M_header._M_data ||
; 510  : 	        _M_key_compare( _KeyOfValue()(__v), _S_key(__after._M_node) ))) {

  000de	84 d2		 test	 dl, dl
  000e0	0f 84 51 ff ff
	ff		 je	 $L109606
  000e6	3b 07		 cmp	 eax, DWORD PTR [edi]
  000e8	74 05		 je	 SHORT $L105556
  000ea	3b 48 10	 cmp	 ecx, DWORD PTR [eax+16]
  000ed	7d 14		 jge	 SHORT $L109607
$L105556:

; 511  : 	  
; 512  : 	  if (_S_right(__position._M_node) == 0)

  000ef	33 c9		 xor	 ecx, ecx
  000f1	39 4e 0c	 cmp	 DWORD PTR [esi+12], ecx
  000f4	0f 85 67 ff ff
	ff		 jne	 $L105526

; 513  : 	    return _M_insert(0, __position._M_node, __v, __position._M_node);

  000fa	56		 push	 esi
  000fb	53		 push	 ebx
  000fc	56		 push	 esi
$L109612:
  000fd	51		 push	 ecx
  000fe	e9 62 ff ff ff	 jmp	 $L109611
$L109607:

; 514  : 	  else
; 515  : 	    return _M_insert(__after._M_node, __after._M_node, __v);
; 516  : 	} else {
; 517  : 	  // Test for equivalent case
; 518  : 	  if (__comp_v_pos == __comp_pos_v)

  00103	38 55 13	 cmp	 BYTE PTR ___comp_v_pos$105541[ebp], dl

; 519  : 	    return __position;

  00106	0f 84 2b ff ff
	ff		 je	 $L109606
$L105562:

; 520  : 	  else
; 521  : 	    return insert_unique(__v).first;

  0010c	53		 push	 ebx
$L109608:
  0010d	8d 45 f8	 lea	 eax, DWORD PTR $T109378[ebp]
  00110	8b cf		 mov	 ecx, edi
  00112	50		 push	 eax
  00113	e8 00 00 00 00	 call	 ?insert_unique@?$_Rb_tree@HU?$pair@$$CBHH@_STL@@U?$_Select1st@U?$pair@$$CBHH@_STL@@@2@U?$less@H@2@V?$allocator@U?$pair@$$CBHH@_STL@@@2@@_STL@@QAE?AU?$pair@U?$_Rb_tree_iterator@U?$pair@$$CBHH@_STL@@U?$_Nonconst_traits@U?$pair@$$CBHH@_STL@@@2@@_STL@@_N@2@ABU?$pair@$$CBHH@2@@Z ; _STL::_Rb_tree<int,_STL::pair<int const ,int>,_STL::_Select1st<_STL::pair<int const ,int> >,_STL::less<int>,_STL::allocator<_STL::pair<int const ,int> > >::insert_unique
  00118	8b 08		 mov	 ecx, DWORD PTR [eax]
  0011a	8b 45 08	 mov	 eax, DWORD PTR ___$ReturnUdt$[ebp]
  0011d	89 08		 mov	 DWORD PTR [eax], ecx
$L105563:
  0011f	5f		 pop	 edi
  00120	5e		 pop	 esi
  00121	5b		 pop	 ebx

; 522  : 	}
; 523  :       }
; 524  :   }
; 525  : }

  00122	c9		 leave
  00123	c2 0c 00	 ret	 12			; 0000000cH
?insert_unique@?$_Rb_tree@HU?$pair@$$CBHH@_STL@@U?$_Select1st@U?$pair@$$CBHH@_STL@@@2@U?$less@H@2@V?$allocator@U?$pair@$$CBHH@_STL@@@2@@_STL@@QAE?AU?$_Rb_tree_iterator@U?$pair@$$CBHH@_STL@@U?$_Nonconst_traits@U?$pair@$$CBHH@_STL@@@2@@2@U32@ABU?$pair@$$CBHH@2@@Z ENDP ; _STL::_Rb_tree<int,_STL::pair<int const ,int>,_STL::_Select1st<_STL::pair<int const ,int> >,_STL::less<int>,_STL::allocator<_STL::pair<int const ,int> > >::insert_unique
_TEXT	ENDS
PUBLIC	??1?$map@IPAVNPC_INFO@@U?$less@I@_STL@@V?$allocator@U?$pair@$$CBIPAVNPC_INFO@@@_STL@@@3@@_STL@@QAE@XZ ; _STL::map<unsigned int,NPC_INFO *,_STL::less<unsigned int>,_STL::allocator<_STL::pair<unsigned int const ,NPC_INFO *> > >::~map<unsigned int,NPC_INFO *,_STL::less<unsigned int>,_STL::allocator<_STL::pair<unsigned int const ,NPC_INFO *> > >
; Function compile flags: /Ogsy
;	COMDAT ??1?$map@IPAVNPC_INFO@@U?$less@I@_STL@@V?$allocator@U?$pair@$$CBIPAVNPC_INFO@@@_STL@@@3@@_STL@@QAE@XZ
_TEXT	SEGMENT
??1?$map@IPAVNPC_INFO@@U?$less@I@_STL@@V?$allocator@U?$pair@$$CBIPAVNPC_INFO@@@_STL@@@3@@_STL@@QAE@XZ PROC NEAR ; _STL::map<unsigned int,NPC_INFO *,_STL::less<unsigned int>,_STL::allocator<_STL::pair<unsigned int const ,NPC_INFO *> > >::~map<unsigned int,NPC_INFO *,_STL::less<unsigned int>,_STL::allocator<_STL::pair<unsigned int const ,NPC_INFO *> > >, COMDAT
; _this$ = ecx
  00000	e9 00 00 00 00	 jmp	 ??1?$_Rb_tree@IU?$pair@$$CBIPAVNPC_INFO@@@_STL@@U?$_Select1st@U?$pair@$$CBIPAVNPC_INFO@@@_STL@@@2@U?$less@I@2@V?$allocator@U?$pair@$$CBIPAVNPC_INFO@@@_STL@@@2@@_STL@@QAE@XZ ; _STL::_Rb_tree<unsigned int,_STL::pair<unsigned int const ,NPC_INFO *>,_STL::_Select1st<_STL::pair<unsigned int const ,NPC_INFO *> >,_STL::less<unsigned int>,_STL::allocator<_STL::pair<unsigned int const ,NPC_INFO *> > >::~_Rb_tree<unsigned int,_STL::pair<unsigned int const ,NPC_INFO *>,_STL::_Select1st<_STL::pair<unsigned int const ,NPC_INFO *> >,_STL::less<unsigned int>,_STL::allocator<_STL::pair<unsigned int const ,NPC_INFO *> > >
??1?$map@IPAVNPC_INFO@@U?$less@I@_STL@@V?$allocator@U?$pair@$$CBIPAVNPC_INFO@@@_STL@@@3@@_STL@@QAE@XZ ENDP ; _STL::map<unsigned int,NPC_INFO *,_STL::less<unsigned int>,_STL::allocator<_STL::pair<unsigned int const ,NPC_INFO *> > >::~map<unsigned int,NPC_INFO *,_STL::less<unsigned int>,_STL::allocator<_STL::pair<unsigned int const ,NPC_INFO *> > >
_TEXT	ENDS
PUBLIC	??_GNPC_INFO@@QAEPAXI@Z				; NPC_INFO::`scalar deleting destructor'
; Function compile flags: /Ogsy
;	COMDAT ??_GNPC_INFO@@QAEPAXI@Z
_TEXT	SEGMENT
___flags$ = 8						; size = 4
??_GNPC_INFO@@QAEPAXI@Z PROC NEAR			; NPC_INFO::`scalar deleting destructor', COMDAT
; _this$ = ecx
  00000	56		 push	 esi
  00001	8b f1		 mov	 esi, ecx
  00003	e8 00 00 00 00	 call	 ??1NPC_INFO@@QAE@XZ
  00008	f6 44 24 08 01	 test	 BYTE PTR ___flags$[esp], 1
  0000d	74 07		 je	 SHORT $L105631
  0000f	56		 push	 esi
  00010	e8 00 00 00 00	 call	 ??3@YAXPAX@Z		; operator delete
  00015	59		 pop	 ecx
$L105631:
  00016	8b c6		 mov	 eax, esi
  00018	5e		 pop	 esi
  00019	c2 04 00	 ret	 4
??_GNPC_INFO@@QAEPAXI@Z ENDP				; NPC_INFO::`scalar deleting destructor'
_TEXT	ENDS
PUBLIC	??1?$map@IPAVSERVERNPC_INFO@@U?$less@I@_STL@@V?$allocator@U?$pair@$$CBIPAVSERVERNPC_INFO@@@_STL@@@3@@_STL@@QAE@XZ ; _STL::map<unsigned int,SERVERNPC_INFO *,_STL::less<unsigned int>,_STL::allocator<_STL::pair<unsigned int const ,SERVERNPC_INFO *> > >::~map<unsigned int,SERVERNPC_INFO *,_STL::less<unsigned int>,_STL::allocator<_STL::pair<unsigned int const ,SERVERNPC_INFO *> > >
; Function compile flags: /Ogsy
;	COMDAT ??1?$map@IPAVSERVERNPC_INFO@@U?$less@I@_STL@@V?$allocator@U?$pair@$$CBIPAVSERVERNPC_INFO@@@_STL@@@3@@_STL@@QAE@XZ
_TEXT	SEGMENT
??1?$map@IPAVSERVERNPC_INFO@@U?$less@I@_STL@@V?$allocator@U?$pair@$$CBIPAVSERVERNPC_INFO@@@_STL@@@3@@_STL@@QAE@XZ PROC NEAR ; _STL::map<unsigned int,SERVERNPC_INFO *,_STL::less<unsigned int>,_STL::allocator<_STL::pair<unsigned int const ,SERVERNPC_INFO *> > >::~map<unsigned int,SERVERNPC_INFO *,_STL::less<unsigned int>,_STL::allocator<_STL::pair<unsigned int const ,SERVERNPC_INFO *> > >, COMDAT
; _this$ = ecx
  00000	e9 00 00 00 00	 jmp	 ??1?$_Rb_tree@IU?$pair@$$CBIPAVSERVERNPC_INFO@@@_STL@@U?$_Select1st@U?$pair@$$CBIPAVSERVERNPC_INFO@@@_STL@@@2@U?$less@I@2@V?$allocator@U?$pair@$$CBIPAVSERVERNPC_INFO@@@_STL@@@2@@_STL@@QAE@XZ ; _STL::_Rb_tree<unsigned int,_STL::pair<unsigned int const ,SERVERNPC_INFO *>,_STL::_Select1st<_STL::pair<unsigned int const ,SERVERNPC_INFO *> >,_STL::less<unsigned int>,_STL::allocator<_STL::pair<unsigned int const ,SERVERNPC_INFO *> > >::~_Rb_tree<unsigned int,_STL::pair<unsigned int const ,SERVERNPC_INFO *>,_STL::_Select1st<_STL::pair<unsigned int const ,SERVERNPC_INFO *> >,_STL::less<unsigned int>,_STL::allocator<_STL::pair<unsigned int const ,SERVERNPC_INFO *> > >
??1?$map@IPAVSERVERNPC_INFO@@U?$less@I@_STL@@V?$allocator@U?$pair@$$CBIPAVSERVERNPC_INFO@@@_STL@@@3@@_STL@@QAE@XZ ENDP ; _STL::map<unsigned int,SERVERNPC_INFO *,_STL::less<unsigned int>,_STL::allocator<_STL::pair<unsigned int const ,SERVERNPC_INFO *> > >::~map<unsigned int,SERVERNPC_INFO *,_STL::less<unsigned int>,_STL::allocator<_STL::pair<unsigned int const ,SERVERNPC_INFO *> > >
_TEXT	ENDS
PUBLIC	??_GSERVERNPC_INFO@@QAEPAXI@Z			; SERVERNPC_INFO::`scalar deleting destructor'
; Function compile flags: /Ogsy
;	COMDAT ??_GSERVERNPC_INFO@@QAEPAXI@Z
_TEXT	SEGMENT
___flags$ = 8						; size = 4
??_GSERVERNPC_INFO@@QAEPAXI@Z PROC NEAR			; SERVERNPC_INFO::`scalar deleting destructor', COMDAT
; _this$ = ecx
  00000	56		 push	 esi
  00001	8b f1		 mov	 esi, ecx
  00003	e8 00 00 00 00	 call	 ??1SERVERNPC_INFO@@QAE@XZ
  00008	f6 44 24 08 01	 test	 BYTE PTR ___flags$[esp], 1
  0000d	74 07		 je	 SHORT $L105639
  0000f	56		 push	 esi
  00010	e8 00 00 00 00	 call	 ??3@YAXPAX@Z		; operator delete
  00015	59		 pop	 ecx
$L105639:
  00016	8b c6		 mov	 eax, esi
  00018	5e		 pop	 esi
  00019	c2 04 00	 ret	 4
??_GSERVERNPC_INFO@@QAEPAXI@Z ENDP			; SERVERNPC_INFO::`scalar deleting destructor'
_TEXT	ENDS
PUBLIC	??0?$map@IPAVNPC_INFO@@U?$less@I@_STL@@V?$allocator@U?$pair@$$CBIPAVNPC_INFO@@@_STL@@@3@@_STL@@QAE@XZ ; _STL::map<unsigned int,NPC_INFO *,_STL::less<unsigned int>,_STL::allocator<_STL::pair<unsigned int const ,NPC_INFO *> > >::map<unsigned int,NPC_INFO *,_STL::less<unsigned int>,_STL::allocator<_STL::pair<unsigned int const ,NPC_INFO *> > >
; Function compile flags: /Ogsy
; File c:\stlport-4.6.1\stlport\stl\_map.h
;	COMDAT ??0?$map@IPAVNPC_INFO@@U?$less@I@_STL@@V?$allocator@U?$pair@$$CBIPAVNPC_INFO@@@_STL@@@3@@_STL@@QAE@XZ
_TEXT	SEGMENT
$T109632 = -1						; size = 1
$T109631 = -1						; size = 1
??0?$map@IPAVNPC_INFO@@U?$less@I@_STL@@V?$allocator@U?$pair@$$CBIPAVNPC_INFO@@@_STL@@@3@@_STL@@QAE@XZ PROC NEAR ; _STL::map<unsigned int,NPC_INFO *,_STL::less<unsigned int>,_STL::allocator<_STL::pair<unsigned int const ,NPC_INFO *> > >::map<unsigned int,NPC_INFO *,_STL::less<unsigned int>,_STL::allocator<_STL::pair<unsigned int const ,NPC_INFO *> > >, COMDAT
; _this$ = ecx

; 91   :   map() : _M_t(_Compare(), allocator_type()) {}

  00000	55		 push	 ebp
  00001	8b ec		 mov	 ebp, esp
  00003	51		 push	 ecx
  00004	56		 push	 esi
  00005	8d 45 ff	 lea	 eax, DWORD PTR $T109631[ebp]
  00008	50		 push	 eax
  00009	8d 45 ff	 lea	 eax, DWORD PTR $T109632[ebp]
  0000c	50		 push	 eax
  0000d	8b f1		 mov	 esi, ecx
  0000f	e8 00 00 00 00	 call	 ??0?$_Rb_tree@IU?$pair@$$CBIPAVNPC_INFO@@@_STL@@U?$_Select1st@U?$pair@$$CBIPAVNPC_INFO@@@_STL@@@2@U?$less@I@2@V?$allocator@U?$pair@$$CBIPAVNPC_INFO@@@_STL@@@2@@_STL@@QAE@ABU?$less@I@1@ABV?$allocator@U?$pair@$$CBIPAVNPC_INFO@@@_STL@@@1@@Z ; _STL::_Rb_tree<unsigned int,_STL::pair<unsigned int const ,NPC_INFO *>,_STL::_Select1st<_STL::pair<unsigned int const ,NPC_INFO *> >,_STL::less<unsigned int>,_STL::allocator<_STL::pair<unsigned int const ,NPC_INFO *> > >::_Rb_tree<unsigned int,_STL::pair<unsigned int const ,NPC_INFO *>,_STL::_Select1st<_STL::pair<unsigned int const ,NPC_INFO *> >,_STL::less<unsigned int>,_STL::allocator<_STL::pair<unsigned int const ,NPC_INFO *> > >
  00014	8b c6		 mov	 eax, esi
  00016	5e		 pop	 esi
  00017	c9		 leave
  00018	c3		 ret	 0
??0?$map@IPAVNPC_INFO@@U?$less@I@_STL@@V?$allocator@U?$pair@$$CBIPAVNPC_INFO@@@_STL@@@3@@_STL@@QAE@XZ ENDP ; _STL::map<unsigned int,NPC_INFO *,_STL::less<unsigned int>,_STL::allocator<_STL::pair<unsigned int const ,NPC_INFO *> > >::map<unsigned int,NPC_INFO *,_STL::less<unsigned int>,_STL::allocator<_STL::pair<unsigned int const ,NPC_INFO *> > >
_TEXT	ENDS
PUBLIC	??0?$map@IPAVSERVERNPC_INFO@@U?$less@I@_STL@@V?$allocator@U?$pair@$$CBIPAVSERVERNPC_INFO@@@_STL@@@3@@_STL@@QAE@XZ ; _STL::map<unsigned int,SERVERNPC_INFO *,_STL::less<unsigned int>,_STL::allocator<_STL::pair<unsigned int const ,SERVERNPC_INFO *> > >::map<unsigned int,SERVERNPC_INFO *,_STL::less<unsigned int>,_STL::allocator<_STL::pair<unsigned int const ,SERVERNPC_INFO *> > >
; Function compile flags: /Ogsy
;	COMDAT ??0?$map@IPAVSERVERNPC_INFO@@U?$less@I@_STL@@V?$allocator@U?$pair@$$CBIPAVSERVERNPC_INFO@@@_STL@@@3@@_STL@@QAE@XZ
_TEXT	SEGMENT
$T109643 = -1						; size = 1
$T109642 = -1						; size = 1
??0?$map@IPAVSERVERNPC_INFO@@U?$less@I@_STL@@V?$allocator@U?$pair@$$CBIPAVSERVERNPC_INFO@@@_STL@@@3@@_STL@@QAE@XZ PROC NEAR ; _STL::map<unsigned int,SERVERNPC_INFO *,_STL::less<unsigned int>,_STL::allocator<_STL::pair<unsigned int const ,SERVERNPC_INFO *> > >::map<unsigned int,SERVERNPC_INFO *,_STL::less<unsigned int>,_STL::allocator<_STL::pair<unsigned int const ,SERVERNPC_INFO *> > >, COMDAT
; _this$ = ecx

; 91   :   map() : _M_t(_Compare(), allocator_type()) {}

  00000	55		 push	 ebp
  00001	8b ec		 mov	 ebp, esp
  00003	51		 push	 ecx
  00004	56		 push	 esi
  00005	8d 45 ff	 lea	 eax, DWORD PTR $T109642[ebp]
  00008	50		 push	 eax
  00009	8d 45 ff	 lea	 eax, DWORD PTR $T109643[ebp]
  0000c	50		 push	 eax
  0000d	8b f1		 mov	 esi, ecx
  0000f	e8 00 00 00 00	 call	 ??0?$_Rb_tree@IU?$pair@$$CBIPAVSERVERNPC_INFO@@@_STL@@U?$_Select1st@U?$pair@$$CBIPAVSERVERNPC_INFO@@@_STL@@@2@U?$less@I@2@V?$allocator@U?$pair@$$CBIPAVSERVERNPC_INFO@@@_STL@@@2@@_STL@@QAE@ABU?$less@I@1@ABV?$allocator@U?$pair@$$CBIPAVSERVERNPC_INFO@@@_STL@@@1@@Z ; _STL::_Rb_tree<unsigned int,_STL::pair<unsigned int const ,SERVERNPC_INFO *>,_STL::_Select1st<_STL::pair<unsigned int const ,SERVERNPC_INFO *> >,_STL::less<unsigned int>,_STL::allocator<_STL::pair<unsigned int const ,SERVERNPC_INFO *> > >::_Rb_tree<unsigned int,_STL::pair<unsigned int const ,SERVERNPC_INFO *>,_STL::_Select1st<_STL::pair<unsigned int const ,SERVERNPC_INFO *> >,_STL::less<unsigned int>,_STL::allocator<_STL::pair<unsigned int const ,SERVERNPC_INFO *> > >
  00014	8b c6		 mov	 eax, esi
  00016	5e		 pop	 esi
  00017	c9		 leave
  00018	c3		 ret	 0
??0?$map@IPAVSERVERNPC_INFO@@U?$less@I@_STL@@V?$allocator@U?$pair@$$CBIPAVSERVERNPC_INFO@@@_STL@@@3@@_STL@@QAE@XZ ENDP ; _STL::map<unsigned int,SERVERNPC_INFO *,_STL::less<unsigned int>,_STL::allocator<_STL::pair<unsigned int const ,SERVERNPC_INFO *> > >::map<unsigned int,SERVERNPC_INFO *,_STL::less<unsigned int>,_STL::allocator<_STL::pair<unsigned int const ,SERVERNPC_INFO *> > >
_TEXT	ENDS
PUBLIC	?LoadFromFile@NPC_INFO@@QAEXAAVivfstream@@@Z	; NPC_INFO::LoadFromFile
; Function compile flags: /Ogsy
; File c:\darkeden\designed_common\project\client\mnpctable.cpp
;	COMDAT ?LoadFromFile@NPC_INFO@@QAEXAAVivfstream@@@Z
_TEXT	SEGMENT
_id$ = -8						; size = 4
_size$ = -4						; size = 4
_i$104080 = 8						; size = 4
_file$ = 8						; size = 4
?LoadFromFile@NPC_INFO@@QAEXAAVivfstream@@@Z PROC NEAR	; NPC_INFO::LoadFromFile, COMDAT
; _this$ = ecx

; 66   : {

  00000	55		 push	 ebp
  00001	8b ec		 mov	 ebp, esp
  00003	51		 push	 ecx
  00004	51		 push	 ecx
  00005	53		 push	 ebx
  00006	56		 push	 esi
  00007	57		 push	 edi
  00008	8b f9		 mov	 edi, ecx

; 67   : 	Release();

  0000a	8d 5f 0c	 lea	 ebx, DWORD PTR [edi+12]
  0000d	8b cb		 mov	 ecx, ebx
  0000f	e8 00 00 00 00	 call	 ?clear@?$_List_base@IV?$allocator@I@_STL@@@_STL@@QAEXXZ ; _STL::_List_base<unsigned int,_STL::allocator<unsigned int> >::clear

; 68   : 
; 69   : 	Name.LoadFromFile(file);

  00014	8b 75 08	 mov	 esi, DWORD PTR _file$[ebp]
  00017	8b 07		 mov	 eax, DWORD PTR [edi]
  00019	56		 push	 esi
  0001a	8b cf		 mov	 ecx, edi
  0001c	ff 50 08	 call	 DWORD PTR [eax+8]

; 70   : 	//--------------------------------------------------
; 71   : 	// ListShopTemplateID
; 72   : 	//--------------------------------------------------
; 73   : 	int size;
; 74   : 	
; 75   : 	file.read((char*)&size, 4);

  0001f	83 7e 04 00	 cmp	 DWORD PTR [esi+4], 0
  00023	74 0e		 je	 SHORT $L109658
  00025	8b 4e 04	 mov	 ecx, DWORD PTR [esi+4]
  00028	8b 01		 mov	 eax, DWORD PTR [ecx]
  0002a	6a 04		 push	 4
  0002c	8d 55 fc	 lea	 edx, DWORD PTR _size$[ebp]
  0002f	52		 push	 edx
  00030	ff 50 10	 call	 DWORD PTR [eax+16]
$L109658:

; 76   : 
; 77   : 	unsigned int id;
; 78   : 
; 79   : 	for (int i=0; i<size; i++)

  00033	83 65 08 00	 and	 DWORD PTR _i$104080[ebp], 0
  00037	83 7d fc 00	 cmp	 DWORD PTR _size$[ebp], 0
  0003b	7e 2a		 jle	 SHORT $L104083
$L109673:

; 80   : 	{			
; 81   : 		file.read((char*)&id, 4);

  0003d	83 7e 04 00	 cmp	 DWORD PTR [esi+4], 0
  00041	74 0e		 je	 SHORT $L109663
  00043	8b 4e 04	 mov	 ecx, DWORD PTR [esi+4]
  00046	8b 01		 mov	 eax, DWORD PTR [ecx]
  00048	6a 04		 push	 4
  0004a	8d 55 f8	 lea	 edx, DWORD PTR _id$[ebp]
  0004d	52		 push	 edx
  0004e	ff 50 10	 call	 DWORD PTR [eax+16]
$L109663:

; 82   : 
; 83   : 		ListShopTemplateID.push_back( id );

  00051	8d 45 f8	 lea	 eax, DWORD PTR _id$[ebp]
  00054	50		 push	 eax
  00055	8b cb		 mov	 ecx, ebx
  00057	e8 00 00 00 00	 call	 ?push_back@?$list@IV?$allocator@I@_STL@@@_STL@@QAEXABI@Z ; _STL::list<unsigned int,_STL::allocator<unsigned int> >::push_back
  0005c	ff 45 08	 inc	 DWORD PTR _i$104080[ebp]
  0005f	8b 45 08	 mov	 eax, DWORD PTR _i$104080[ebp]
  00062	3b 45 fc	 cmp	 eax, DWORD PTR _size$[ebp]
  00065	7c d6		 jl	 SHORT $L109673
$L104083:

; 84   : 	}
; 85   : 
; 86   : 	//--------------------------------------------------
; 87   : 	// Description
; 88   : 	//--------------------------------------------------
; 89   : 	Description.LoadFromFile( file );

  00067	8d 4f 10	 lea	 ecx, DWORD PTR [edi+16]
  0006a	8b 01		 mov	 eax, DWORD PTR [ecx]
  0006c	56		 push	 esi
  0006d	ff 50 08	 call	 DWORD PTR [eax+8]

; 90   : 	file.read((char*)&SpriteID, 4);

  00070	83 7e 04 00	 cmp	 DWORD PTR [esi+4], 0
  00074	74 0e		 je	 SHORT $L109668
  00076	8b 4e 04	 mov	 ecx, DWORD PTR [esi+4]
  00079	8b 01		 mov	 eax, DWORD PTR [ecx]
  0007b	6a 04		 push	 4
  0007d	83 c7 1c	 add	 edi, 28			; 0000001cH
  00080	57		 push	 edi
  00081	ff 50 10	 call	 DWORD PTR [eax+16]
$L109668:
  00084	5f		 pop	 edi
  00085	5e		 pop	 esi
  00086	5b		 pop	 ebx

; 91   : }

  00087	c9		 leave
  00088	c2 04 00	 ret	 4
?LoadFromFile@NPC_INFO@@QAEXAAVivfstream@@@Z ENDP	; NPC_INFO::LoadFromFile
_TEXT	ENDS
PUBLIC	?LoadFromFile@SERVERNPC_INFO@@QAEXAAVivfstream@@@Z ; SERVERNPC_INFO::LoadFromFile
; Function compile flags: /Ogsy
;	COMDAT ?LoadFromFile@SERVERNPC_INFO@@QAEXAAVivfstream@@@Z
_TEXT	SEGMENT
_id$ = -8						; size = 4
_size$ = -4						; size = 4
_file$ = 8						; size = 4
?LoadFromFile@SERVERNPC_INFO@@QAEXAAVivfstream@@@Z PROC NEAR ; SERVERNPC_INFO::LoadFromFile, COMDAT
; _this$ = ecx

; 160  : {

  00000	55		 push	 ebp
  00001	8b ec		 mov	 ebp, esp
  00003	51		 push	 ecx
  00004	51		 push	 ecx
  00005	53		 push	 ebx
  00006	56		 push	 esi
  00007	57		 push	 edi
  00008	8b f9		 mov	 edi, ecx

; 161  : 	Release();

  0000a	e8 00 00 00 00	 call	 ?clear@?$_List_base@IV?$allocator@I@_STL@@@_STL@@QAEXXZ ; _STL::_List_base<unsigned int,_STL::allocator<unsigned int> >::clear

; 162  : 
; 163  : 	Name.LoadFromFile(file);

  0000f	8b 75 08	 mov	 esi, DWORD PTR _file$[ebp]
  00012	8d 4f 04	 lea	 ecx, DWORD PTR [edi+4]
  00015	8b 01		 mov	 eax, DWORD PTR [ecx]
  00017	56		 push	 esi
  00018	ff 50 08	 call	 DWORD PTR [eax+8]

; 164  : 	//--------------------------------------------------
; 165  : 	// ListShopTemplateID
; 166  : 	//--------------------------------------------------
; 167  : 	int size;
; 168  : 	
; 169  : 	file.read((char*)&size, 4);

  0001b	33 db		 xor	 ebx, ebx
  0001d	39 5e 04	 cmp	 DWORD PTR [esi+4], ebx
  00020	74 0e		 je	 SHORT $L109681
  00022	8b 4e 04	 mov	 ecx, DWORD PTR [esi+4]
  00025	8b 01		 mov	 eax, DWORD PTR [ecx]
  00027	6a 04		 push	 4
  00029	8d 55 fc	 lea	 edx, DWORD PTR _size$[ebp]
  0002c	52		 push	 edx
  0002d	ff 50 10	 call	 DWORD PTR [eax+16]
$L109681:

; 170  : 
; 171  : 	unsigned int id;
; 172  : 
; 173  : 	for (int i=0; i<size; i++)

  00030	83 7d fc 00	 cmp	 DWORD PTR _size$[ebp], 0
  00034	7e 25		 jle	 SHORT $L104124
$L109691:

; 174  : 	{
; 175  : 		file.read((char*)&id, 4);

  00036	83 7e 04 00	 cmp	 DWORD PTR [esi+4], 0
  0003a	74 0e		 je	 SHORT $L109686
  0003c	8b 4e 04	 mov	 ecx, DWORD PTR [esi+4]
  0003f	8b 01		 mov	 eax, DWORD PTR [ecx]
  00041	6a 04		 push	 4
  00043	8d 55 f8	 lea	 edx, DWORD PTR _id$[ebp]
  00046	52		 push	 edx
  00047	ff 50 10	 call	 DWORD PTR [eax+16]
$L109686:

; 176  : 
; 177  : 		ListShopTemplateID.push_back( id );

  0004a	8d 45 f8	 lea	 eax, DWORD PTR _id$[ebp]
  0004d	50		 push	 eax
  0004e	8b cf		 mov	 ecx, edi
  00050	e8 00 00 00 00	 call	 ?push_back@?$list@IV?$allocator@I@_STL@@@_STL@@QAEXABI@Z ; _STL::list<unsigned int,_STL::allocator<unsigned int> >::push_back
  00055	43		 inc	 ebx
  00056	3b 5d fc	 cmp	 ebx, DWORD PTR _size$[ebp]
  00059	7c db		 jl	 SHORT $L109691
$L104124:

; 178  : 	}
; 179  : 
; 180  : 	//--------------------------------------------------
; 181  : 	// Description
; 182  : 	//--------------------------------------------------
; 183  : 	Description.LoadFromFile( file );	

  0005b	8d 4f 10	 lea	 ecx, DWORD PTR [edi+16]
  0005e	8b 01		 mov	 eax, DWORD PTR [ecx]
  00060	56		 push	 esi
  00061	ff 50 08	 call	 DWORD PTR [eax+8]
  00064	5f		 pop	 edi
  00065	5e		 pop	 esi
  00066	5b		 pop	 ebx

; 184  : }

  00067	c9		 leave
  00068	c2 04 00	 ret	 4
?LoadFromFile@SERVERNPC_INFO@@QAEXAAVivfstream@@@Z ENDP	; SERVERNPC_INFO::LoadFromFile
_TEXT	ENDS
PUBLIC	?insert@?$map@HHU?$less@H@_STL@@V?$allocator@U?$pair@$$CBHH@_STL@@@2@@_STL@@QAE?AU?$_Rb_tree_iterator@U?$pair@$$CBHH@_STL@@U?$_Nonconst_traits@U?$pair@$$CBHH@_STL@@@2@@2@U32@ABU?$pair@$$CBHH@2@@Z ; _STL::map<int,int,_STL::less<int>,_STL::allocator<_STL::pair<int const ,int> > >::insert
; Function compile flags: /Ogsy
; File c:\stlport-4.6.1\stlport\stl\_map.h
;	COMDAT ?insert@?$map@HHU?$less@H@_STL@@V?$allocator@U?$pair@$$CBHH@_STL@@@2@@_STL@@QAE?AU?$_Rb_tree_iterator@U?$pair@$$CBHH@_STL@@U?$_Nonconst_traits@U?$pair@$$CBHH@_STL@@@2@@2@U32@ABU?$pair@$$CBHH@2@@Z
_TEXT	SEGMENT
___$ReturnUdt$ = 8					; size = 4
_position$ = 12						; size = 4
___x$ = 16						; size = 4
?insert@?$map@HHU?$less@H@_STL@@V?$allocator@U?$pair@$$CBHH@_STL@@@2@@_STL@@QAE?AU?$_Rb_tree_iterator@U?$pair@$$CBHH@_STL@@U?$_Nonconst_traits@U?$pair@$$CBHH@_STL@@@2@@2@U32@ABU?$pair@$$CBHH@2@@Z PROC NEAR ; _STL::map<int,int,_STL::less<int>,_STL::allocator<_STL::pair<int const ,int> > >::insert, COMDAT
; _this$ = ecx

; 172  :     { return _M_t.insert_unique(position, __x); }

  00000	ff 74 24 0c	 push	 DWORD PTR ___x$[esp-4]
  00004	8b 54 24 0c	 mov	 edx, DWORD PTR _position$[esp]
  00008	51		 push	 ecx
  00009	8b c4		 mov	 eax, esp
  0000b	ff 74 24 0c	 push	 DWORD PTR ___$ReturnUdt$[esp+4]
  0000f	89 10		 mov	 DWORD PTR [eax], edx
  00011	e8 00 00 00 00	 call	 ?insert_unique@?$_Rb_tree@HU?$pair@$$CBHH@_STL@@U?$_Select1st@U?$pair@$$CBHH@_STL@@@2@U?$less@H@2@V?$allocator@U?$pair@$$CBHH@_STL@@@2@@_STL@@QAE?AU?$_Rb_tree_iterator@U?$pair@$$CBHH@_STL@@U?$_Nonconst_traits@U?$pair@$$CBHH@_STL@@@2@@2@U32@ABU?$pair@$$CBHH@2@@Z ; _STL::_Rb_tree<int,_STL::pair<int const ,int>,_STL::_Select1st<_STL::pair<int const ,int> >,_STL::less<int>,_STL::allocator<_STL::pair<int const ,int> > >::insert_unique
  00016	8b 44 24 04	 mov	 eax, DWORD PTR ___$ReturnUdt$[esp-4]
  0001a	c2 0c 00	 ret	 12			; 0000000cH
?insert@?$map@HHU?$less@H@_STL@@V?$allocator@U?$pair@$$CBHH@_STL@@@2@@_STL@@QAE?AU?$_Rb_tree_iterator@U?$pair@$$CBHH@_STL@@U?$_Nonconst_traits@U?$pair@$$CBHH@_STL@@@2@@2@U32@ABU?$pair@$$CBHH@2@@Z ENDP ; _STL::map<int,int,_STL::less<int>,_STL::allocator<_STL::pair<int const ,int> > >::insert
_TEXT	ENDS
PUBLIC	??0?$CTypeMap@VNPC_INFO@@@@QAE@XZ		; CTypeMap<NPC_INFO>::CTypeMap<NPC_INFO>
PUBLIC	?Release@?$CTypeMap@VNPC_INFO@@@@UAEXXZ		; CTypeMap<NPC_INFO>::Release
PUBLIC	?AddData@?$CTypeMap@VNPC_INFO@@@@UAE_NIPAVNPC_INFO@@@Z ; CTypeMap<NPC_INFO>::AddData
PUBLIC	?GetData@?$CTypeMap@VNPC_INFO@@@@UAEPAVNPC_INFO@@I@Z ; CTypeMap<NPC_INFO>::GetData
PUBLIC	?RemoveData@?$CTypeMap@VNPC_INFO@@@@UAE_NI@Z	; CTypeMap<NPC_INFO>::RemoveData
PUBLIC	?SaveToFile@?$CTypeMap@VNPC_INFO@@@@UAEXAAV?$basic_ofstream@DV?$char_traits@D@_STL@@@_STL@@@Z ; CTypeMap<NPC_INFO>::SaveToFile
PUBLIC	?LoadFromFile@?$CTypeMap@VNPC_INFO@@@@UAEXAAVivfstream@@@Z ; CTypeMap<NPC_INFO>::LoadFromFile
PUBLIC	??_7?$CTypeMap@VNPC_INFO@@@@6B@			; CTypeMap<NPC_INFO>::`vftable'
PUBLIC	??_G?$CTypeMap@VNPC_INFO@@@@UAEPAXI@Z		; CTypeMap<NPC_INFO>::`scalar deleting destructor'
PUBLIC	??_R1A@?0A@A@?$CTypeMap@VNPC_INFO@@@@8		; CTypeMap<NPC_INFO>::`RTTI Base Class Descriptor at (0,-1,0,0)'
PUBLIC	??_R0?AV?$CTypeMap@VNPC_INFO@@@@@8		; CTypeMap<NPC_INFO> `RTTI Type Descriptor'
PUBLIC	??_R13?0A@A@?$map@IPAVNPC_INFO@@U?$less@I@_STL@@V?$allocator@U?$pair@$$CBIPAVNPC_INFO@@@_STL@@@3@@_STL@@8 ; _STL::map<unsigned int,NPC_INFO *,_STL::less<unsigned int>,_STL::allocator<_STL::pair<unsigned int const ,NPC_INFO *> > >::`RTTI Base Class Descriptor at (4,-1,0,0)'
PUBLIC	??_R0?AV?$map@IPAVNPC_INFO@@U?$less@I@_STL@@V?$allocator@U?$pair@$$CBIPAVNPC_INFO@@@_STL@@@3@@_STL@@@8 ; _STL::map<unsigned int,NPC_INFO *,_STL::less<unsigned int>,_STL::allocator<_STL::pair<unsigned int const ,NPC_INFO *> > > `RTTI Type Descriptor'
PUBLIC	??_R4?$CTypeMap@VNPC_INFO@@@@6B@		; CTypeMap<NPC_INFO>::`RTTI Complete Object Locator'
PUBLIC	??_R3?$CTypeMap@VNPC_INFO@@@@8			; CTypeMap<NPC_INFO>::`RTTI Class Hierarchy Descriptor'
PUBLIC	??_R2?$CTypeMap@VNPC_INFO@@@@8			; CTypeMap<NPC_INFO>::`RTTI Base Class Array'
EXTRN	??_E?$CTypeMap@VNPC_INFO@@@@UAEPAXI@Z:NEAR	; CTypeMap<NPC_INFO>::`vector deleting destructor'
EXTRN	??_7type_info@@6B@:QWORD			; type_info::`vftable'
;	COMDAT ??_7?$CTypeMap@VNPC_INFO@@@@6B@
; File c:\darkeden\designed_common\project\client\ctypemap.h
CONST	SEGMENT
??_7?$CTypeMap@VNPC_INFO@@@@6B@ DD FLAT:??_R4?$CTypeMap@VNPC_INFO@@@@6B@ ; CTypeMap<NPC_INFO>::`vftable'
	DD	FLAT:??_E?$CTypeMap@VNPC_INFO@@@@UAEPAXI@Z
	DD	FLAT:?Release@?$CTypeMap@VNPC_INFO@@@@UAEXXZ
	DD	FLAT:?AddData@?$CTypeMap@VNPC_INFO@@@@UAE_NIPAVNPC_INFO@@@Z
	DD	FLAT:?GetData@?$CTypeMap@VNPC_INFO@@@@UAEPAVNPC_INFO@@I@Z
	DD	FLAT:?RemoveData@?$CTypeMap@VNPC_INFO@@@@UAE_NI@Z
	DD	FLAT:?SaveToFile@?$CTypeMap@VNPC_INFO@@@@UAEXAAV?$basic_ofstream@DV?$char_traits@D@_STL@@@_STL@@@Z
	DD	FLAT:?LoadFromFile@?$CTypeMap@VNPC_INFO@@@@UAEXAAVivfstream@@@Z
CONST	ENDS
;	COMDAT ??_R4?$CTypeMap@VNPC_INFO@@@@6B@
rdata$r	SEGMENT
??_R4?$CTypeMap@VNPC_INFO@@@@6B@ DD 00H			; CTypeMap<NPC_INFO>::`RTTI Complete Object Locator'
	DD	00H
	DD	00H
	DD	FLAT:??_R0?AV?$CTypeMap@VNPC_INFO@@@@@8
	DD	FLAT:??_R3?$CTypeMap@VNPC_INFO@@@@8
rdata$r	ENDS
;	COMDAT ??_R0?AV?$CTypeMap@VNPC_INFO@@@@@8
_DATA	SEGMENT
??_R0?AV?$CTypeMap@VNPC_INFO@@@@@8 DD FLAT:??_7type_info@@6B@ ; CTypeMap<NPC_INFO> `RTTI Type Descriptor'
	DD	00H
	DB	'.?AV?$CTypeMap@VNPC_INFO@@@@', 00H
_DATA	ENDS
;	COMDAT ??_R3?$CTypeMap@VNPC_INFO@@@@8
rdata$r	SEGMENT
??_R3?$CTypeMap@VNPC_INFO@@@@8 DD 00H			; CTypeMap<NPC_INFO>::`RTTI Class Hierarchy Descriptor'
	DD	00H
	DD	02H
	DD	FLAT:??_R2?$CTypeMap@VNPC_INFO@@@@8
rdata$r	ENDS
;	COMDAT ??_R2?$CTypeMap@VNPC_INFO@@@@8
rdata$r	SEGMENT
??_R2?$CTypeMap@VNPC_INFO@@@@8 DD FLAT:??_R1A@?0A@A@?$CTypeMap@VNPC_INFO@@@@8 ; CTypeMap<NPC_INFO>::`RTTI Base Class Array'
	DD	FLAT:??_R13?0A@A@?$map@IPAVNPC_INFO@@U?$less@I@_STL@@V?$allocator@U?$pair@$$CBIPAVNPC_INFO@@@_STL@@@3@@_STL@@8
rdata$r	ENDS
;	COMDAT ??_R1A@?0A@A@?$CTypeMap@VNPC_INFO@@@@8
rdata$r	SEGMENT
??_R1A@?0A@A@?$CTypeMap@VNPC_INFO@@@@8 DD FLAT:??_R0?AV?$CTypeMap@VNPC_INFO@@@@@8 ; CTypeMap<NPC_INFO>::`RTTI Base Class Descriptor at (0,-1,0,0)'
	DD	01H
	DD	00H
	DD	0ffffffffH
	DD	00H
	DD	00H
rdata$r	ENDS
;	COMDAT ??_R13?0A@A@?$map@IPAVNPC_INFO@@U?$less@I@_STL@@V?$allocator@U?$pair@$$CBIPAVNPC_INFO@@@_STL@@@3@@_STL@@8
rdata$r	SEGMENT
??_R13?0A@A@?$map@IPAVNPC_INFO@@U?$less@I@_STL@@V?$allocator@U?$pair@$$CBIPAVNPC_INFO@@@_STL@@@3@@_STL@@8 DD FLAT:??_R0?AV?$map@IPAVNPC_INFO@@U?$less@I@_STL@@V?$allocator@U?$pair@$$CBIPAVNPC_INFO@@@_STL@@@3@@_STL@@@8 ; _STL::map<unsigned int,NPC_INFO *,_STL::less<unsigned int>,_STL::allocator<_STL::pair<unsigned int const ,NPC_INFO *> > >::`RTTI Base Class Descriptor at (4,-1,0,0)'
	DD	00H
	DD	04H
	DD	0ffffffffH
	DD	00H
	DD	00H
rdata$r	ENDS
;	COMDAT ??_R0?AV?$map@IPAVNPC_INFO@@U?$less@I@_STL@@V?$allocator@U?$pair@$$CBIPAVNPC_INFO@@@_STL@@@3@@_STL@@@8
_DATA	SEGMENT
??_R0?AV?$map@IPAVNPC_INFO@@U?$less@I@_STL@@V?$allocator@U?$pair@$$CBIPAVNPC_INFO@@@_STL@@@3@@_STL@@@8 DD FLAT:??_7type_info@@6B@ ; _STL::map<unsigned int,NPC_INFO *,_STL::less<unsigned int>,_STL::allocator<_STL::pair<unsigned int const ,NPC_INFO *> > > `RTTI Type Descriptor'
	DD	00H
	DB	'.?AV?$map@IPAVNPC_INFO@@U?$less@I@_STL@@V?$allocator@U?$'
	DB	'pair@$$CBIPAVNPC_INFO@@@_STL@@@3@@_STL@@', 00H
; Function compile flags: /Ogsy
_DATA	ENDS
;	COMDAT ??0?$CTypeMap@VNPC_INFO@@@@QAE@XZ
_TEXT	SEGMENT
??0?$CTypeMap@VNPC_INFO@@@@QAE@XZ PROC NEAR		; CTypeMap<NPC_INFO>::CTypeMap<NPC_INFO>, COMDAT
; _this$ = ecx

; 57   : {

  00000	56		 push	 esi
  00001	8b f1		 mov	 esi, ecx
  00003	8d 4e 04	 lea	 ecx, DWORD PTR [esi+4]
  00006	e8 00 00 00 00	 call	 ??0?$map@IPAVNPC_INFO@@U?$less@I@_STL@@V?$allocator@U?$pair@$$CBIPAVNPC_INFO@@@_STL@@@3@@_STL@@QAE@XZ ; _STL::map<unsigned int,NPC_INFO *,_STL::less<unsigned int>,_STL::allocator<_STL::pair<unsigned int const ,NPC_INFO *> > >::map<unsigned int,NPC_INFO *,_STL::less<unsigned int>,_STL::allocator<_STL::pair<unsigned int const ,NPC_INFO *> > >
  0000b	c7 06 00 00 00
	00		 mov	 DWORD PTR [esi], OFFSET FLAT:??_7?$CTypeMap@VNPC_INFO@@@@6B@

; 58   : }

  00011	8b c6		 mov	 eax, esi
  00013	5e		 pop	 esi
  00014	c3		 ret	 0
??0?$CTypeMap@VNPC_INFO@@@@QAE@XZ ENDP			; CTypeMap<NPC_INFO>::CTypeMap<NPC_INFO>
_TEXT	ENDS
PUBLIC	??$_M_find@I@?$_Rb_tree@IU?$pair@$$CBIPAVNPC_INFO@@@_STL@@U?$_Select1st@U?$pair@$$CBIPAVNPC_INFO@@@_STL@@@2@U?$less@I@2@V?$allocator@U?$pair@$$CBIPAVNPC_INFO@@@_STL@@@2@@_STL@@ABEPAU?$_Rb_tree_node@U?$pair@$$CBIPAVNPC_INFO@@@_STL@@@1@ABI@Z ; _STL::_Rb_tree<unsigned int,_STL::pair<unsigned int const ,NPC_INFO *>,_STL::_Select1st<_STL::pair<unsigned int const ,NPC_INFO *> >,_STL::less<unsigned int>,_STL::allocator<_STL::pair<unsigned int const ,NPC_INFO *> > >::_M_find<unsigned int>
; Function compile flags: /Ogsy
;	COMDAT ?GetData@?$CTypeMap@VNPC_INFO@@@@UAEPAVNPC_INFO@@I@Z
_TEXT	SEGMENT
_id$ = 8						; size = 4
?GetData@?$CTypeMap@VNPC_INFO@@@@UAEPAVNPC_INFO@@I@Z PROC NEAR ; CTypeMap<NPC_INFO>::GetData, COMDAT
; _this$ = ecx

; 117  : {

  00000	56		 push	 esi

; 118  : 	TYPE_MAP::iterator	iData = find( id );

  00001	8d 71 04	 lea	 esi, DWORD PTR [ecx+4]
  00004	8d 44 24 08	 lea	 eax, DWORD PTR _id$[esp]
  00008	50		 push	 eax
  00009	8b ce		 mov	 ecx, esi
  0000b	e8 00 00 00 00	 call	 ??$_M_find@I@?$_Rb_tree@IU?$pair@$$CBIPAVNPC_INFO@@@_STL@@U?$_Select1st@U?$pair@$$CBIPAVNPC_INFO@@@_STL@@@2@U?$less@I@2@V?$allocator@U?$pair@$$CBIPAVNPC_INFO@@@_STL@@@2@@_STL@@ABEPAU?$_Rb_tree_node@U?$pair@$$CBIPAVNPC_INFO@@@_STL@@@1@ABI@Z ; _STL::_Rb_tree<unsigned int,_STL::pair<unsigned int const ,NPC_INFO *>,_STL::_Select1st<_STL::pair<unsigned int const ,NPC_INFO *> >,_STL::less<unsigned int>,_STL::allocator<_STL::pair<unsigned int const ,NPC_INFO *> > >::_M_find<unsigned int>

; 119  : 
; 120  : 	if (iData == end())

  00010	3b 06		 cmp	 eax, DWORD PTR [esi]
  00012	5e		 pop	 esi
  00013	75 04		 jne	 SHORT $L105301

; 121  : 	{
; 122  : 		//   
; 123  : 		return NULL;

  00015	33 c0		 xor	 eax, eax
  00017	eb 03		 jmp	 SHORT $L105297
$L105301:

; 124  : 	}
; 125  : 
; 126  : 	//  
; 127  : 	return (*iData).second;

  00019	8b 40 14	 mov	 eax, DWORD PTR [eax+20]
$L105297:

; 128  : }

  0001c	c2 04 00	 ret	 4
?GetData@?$CTypeMap@VNPC_INFO@@@@UAEPAVNPC_INFO@@I@Z ENDP ; CTypeMap<NPC_INFO>::GetData
; Function compile flags: /Ogsy
; File c:\stlport-4.6.1\stlport\stl\_tree.h
_TEXT	ENDS
;	COMDAT ??$_M_find@I@?$_Rb_tree@IU?$pair@$$CBIPAVNPC_INFO@@@_STL@@U?$_Select1st@U?$pair@$$CBIPAVNPC_INFO@@@_STL@@@2@U?$less@I@2@V?$allocator@U?$pair@$$CBIPAVNPC_INFO@@@_STL@@@2@@_STL@@ABEPAU?$_Rb_tree_node@U?$pair@$$CBIPAVNPC_INFO@@@_STL@@@1@ABI@Z
_TEXT	SEGMENT
___k$ = 8						; size = 4
??$_M_find@I@?$_Rb_tree@IU?$pair@$$CBIPAVNPC_INFO@@@_STL@@U?$_Select1st@U?$pair@$$CBIPAVNPC_INFO@@@_STL@@@2@U?$less@I@2@V?$allocator@U?$pair@$$CBIPAVNPC_INFO@@@_STL@@@2@@_STL@@ABEPAU?$_Rb_tree_node@U?$pair@$$CBIPAVNPC_INFO@@@_STL@@@1@ABI@Z PROC NEAR ; _STL::_Rb_tree<unsigned int,_STL::pair<unsigned int const ,NPC_INFO *>,_STL::_Select1st<_STL::pair<unsigned int const ,NPC_INFO *> >,_STL::less<unsigned int>,_STL::allocator<_STL::pair<unsigned int const ,NPC_INFO *> > >::_M_find<unsigned int>, COMDAT
; _this$ = ecx

; 462  : # else
; 463  :   iterator find(const key_type& __x) { return iterator(_M_find(__x)); }
; 464  :   const_iterator find(const key_type& __x) const { return const_iterator(_M_find(__x)); }
; 465  : private:
; 466  :   _Rb_tree_node<_Value>* _M_find(const key_type& __k) const
; 467  : # endif
; 468  :   {
; 469  :     _Link_type __y = this->_M_header._M_data;      // Last node which is not less than __k. 

  00000	8b 11		 mov	 edx, DWORD PTR [ecx]

; 470  :     _Link_type __x = _M_root();      // Current node. 

  00002	8b 4a 04	 mov	 ecx, DWORD PTR [edx+4]

; 471  :     
; 472  :     while (__x != 0) 

  00005	85 c9		 test	 ecx, ecx
  00007	57		 push	 edi
  00008	8b 7c 24 08	 mov	 edi, DWORD PTR ___k$[esp]
  0000c	8b c2		 mov	 eax, edx
  0000e	74 17		 je	 SHORT $L106445
  00010	56		 push	 esi
  00011	8b 37		 mov	 esi, DWORD PTR [edi]
$L106444:

; 473  :       if (!_M_key_compare(_S_key(__x), __k))

  00013	39 71 10	 cmp	 DWORD PTR [ecx+16], esi
  00016	72 07		 jb	 SHORT $L106446

; 474  : 	__y = __x, __x = _S_left(__x);

  00018	8b c1		 mov	 eax, ecx
  0001a	8b 49 08	 mov	 ecx, DWORD PTR [ecx+8]

; 475  :       else

  0001d	eb 03		 jmp	 SHORT $L106447
$L106446:

; 476  : 	__x = _S_right(__x);

  0001f	8b 49 0c	 mov	 ecx, DWORD PTR [ecx+12]
$L106447:

; 471  :     
; 472  :     while (__x != 0) 

  00022	85 c9		 test	 ecx, ecx
  00024	75 ed		 jne	 SHORT $L106444
  00026	5e		 pop	 esi
$L106445:

; 477  :     if (__y == this->_M_header._M_data || _M_key_compare(__k, _S_key(__y)))

  00027	3b c2		 cmp	 eax, edx
  00029	74 07		 je	 SHORT $L106449
  0002b	8b 0f		 mov	 ecx, DWORD PTR [edi]
  0002d	3b 48 10	 cmp	 ecx, DWORD PTR [eax+16]
  00030	73 02		 jae	 SHORT $L106448
$L106449:

; 478  :       __y = this->_M_header._M_data;

  00032	8b c2		 mov	 eax, edx
$L106448:
  00034	5f		 pop	 edi

; 479  :     return __y;
; 480  :   }

  00035	c2 04 00	 ret	 4
??$_M_find@I@?$_Rb_tree@IU?$pair@$$CBIPAVNPC_INFO@@@_STL@@U?$_Select1st@U?$pair@$$CBIPAVNPC_INFO@@@_STL@@@2@U?$less@I@2@V?$allocator@U?$pair@$$CBIPAVNPC_INFO@@@_STL@@@2@@_STL@@ABEPAU?$_Rb_tree_node@U?$pair@$$CBIPAVNPC_INFO@@@_STL@@@1@ABI@Z ENDP ; _STL::_Rb_tree<unsigned int,_STL::pair<unsigned int const ,NPC_INFO *>,_STL::_Select1st<_STL::pair<unsigned int const ,NPC_INFO *> >,_STL::less<unsigned int>,_STL::allocator<_STL::pair<unsigned int const ,NPC_INFO *> > >::_M_find<unsigned int>
; Function compile flags: /Ogsy
; File c:\darkeden\designed_common\project\client\ctypemap.h
_TEXT	ENDS
;	COMDAT ?SaveToFile@?$CTypeMap@VNPC_INFO@@@@UAEXAAV?$basic_ofstream@DV?$char_traits@D@_STL@@@_STL@@@Z
_TEXT	SEGMENT
_id$105327 = -8						; size = 4
_infoSize$ = -4						; size = 4
_file$ = 8						; size = 4
?SaveToFile@?$CTypeMap@VNPC_INFO@@@@UAEXAAV?$basic_ofstream@DV?$char_traits@D@_STL@@@_STL@@@Z PROC NEAR ; CTypeMap<NPC_INFO>::SaveToFile, COMDAT
; _this$ = ecx

; 159  : {

  00000	55		 push	 ebp
  00001	8b ec		 mov	 ebp, esp
  00003	51		 push	 ecx
  00004	51		 push	 ecx
  00005	56		 push	 esi
  00006	57		 push	 edi
  00007	8b f9		 mov	 edi, ecx

; 160  : 	TYPE_MAP::iterator iData = begin();

  00009	8b 47 04	 mov	 eax, DWORD PTR [edi+4]
  0000c	8b 70 08	 mov	 esi, DWORD PTR [eax+8]

; 161  : 
; 162  : 	//-----------------------------------------------------
; 163  : 	//  
; 164  : 	//-----------------------------------------------------
; 165  : 	int infoSize = size();

  0000f	8b 47 08	 mov	 eax, DWORD PTR [edi+8]

; 166  : 	file.write((const char*)&infoSize, 4);

  00012	8b 4d 08	 mov	 ecx, DWORD PTR _file$[ebp]
  00015	89 45 fc	 mov	 DWORD PTR _infoSize$[ebp], eax
  00018	6a 04		 push	 4
  0001a	8d 45 fc	 lea	 eax, DWORD PTR _infoSize$[ebp]
  0001d	50		 push	 eax
  0001e	e8 00 00 00 00	 call	 ?write@?$basic_ostream@DV?$char_traits@D@_STL@@@_STL@@QAEAAV12@PBDH@Z ; _STL::basic_ostream<char,_STL::char_traits<char> >::write

; 167  : 
; 168  : 	//-----------------------------------------------------
; 169  : 	//  info 
; 170  : 	//-----------------------------------------------------
; 171  : 	while (iData != end())

  00023	3b 77 04	 cmp	 esi, DWORD PTR [edi+4]
  00026	74 31		 je	 SHORT $L105325
  00028	53		 push	 ebx
$L105324:

; 172  : 	{
; 173  : 		unsigned int	id		= (*iData).first;

  00029	8b 46 10	 mov	 eax, DWORD PTR [esi+16]

; 174  : 		DataType*		pData	= (*iData).second;		
; 175  : 
; 176  : 		file.write((const char*)&id, 4);	// id 

  0002c	8b 4d 08	 mov	 ecx, DWORD PTR _file$[ebp]
  0002f	89 45 f8	 mov	 DWORD PTR _id$105327[ebp], eax
  00032	8b 5e 14	 mov	 ebx, DWORD PTR [esi+20]
  00035	6a 04		 push	 4
  00037	8d 45 f8	 lea	 eax, DWORD PTR _id$105327[ebp]
  0003a	50		 push	 eax
  0003b	e8 00 00 00 00	 call	 ?write@?$basic_ostream@DV?$char_traits@D@_STL@@@_STL@@QAEAAV12@PBDH@Z ; _STL::basic_ostream<char,_STL::char_traits<char> >::write

; 177  : 		pData->SaveToFile( file );			// NPC info 

  00040	ff 75 08	 push	 DWORD PTR _file$[ebp]
  00043	8b cb		 mov	 ecx, ebx
  00045	e8 00 00 00 00	 call	 ?SaveToFile@NPC_INFO@@QAEXAAV?$basic_ofstream@DV?$char_traits@D@_STL@@@_STL@@@Z ; NPC_INFO::SaveToFile

; 178  : 
; 179  : 		iData ++;

  0004a	56		 push	 esi
  0004b	e8 00 00 00 00	 call	 ?_M_increment@?$_Rb_global@_N@_STL@@SAPAU_Rb_tree_node_base@2@PAU32@@Z ; _STL::_Rb_global<bool>::_M_increment
  00050	8b f0		 mov	 esi, eax
  00052	3b 77 04	 cmp	 esi, DWORD PTR [edi+4]
  00055	59		 pop	 ecx
  00056	75 d1		 jne	 SHORT $L105324
  00058	5b		 pop	 ebx
$L105325:
  00059	5f		 pop	 edi
  0005a	5e		 pop	 esi

; 180  : 	}
; 181  : }

  0005b	c9		 leave
  0005c	c2 04 00	 ret	 4
?SaveToFile@?$CTypeMap@VNPC_INFO@@@@UAEXAAV?$basic_ofstream@DV?$char_traits@D@_STL@@@_STL@@@Z ENDP ; CTypeMap<NPC_INFO>::SaveToFile
; Function compile flags: /Ogsy
_TEXT	ENDS
;	COMDAT ?Release@?$CTypeMap@VNPC_INFO@@@@UAEXXZ
_TEXT	SEGMENT
?Release@?$CTypeMap@VNPC_INFO@@@@UAEXXZ PROC NEAR	; CTypeMap<NPC_INFO>::Release, COMDAT
; _this$ = ecx

; 72   : {

  00000	56		 push	 esi
  00001	57		 push	 edi

; 73   : 	TYPE_MAP::iterator iData = begin();

  00002	8d 79 04	 lea	 edi, DWORD PTR [ecx+4]
  00005	8b 07		 mov	 eax, DWORD PTR [edi]
  00007	8b 70 08	 mov	 esi, DWORD PTR [eax+8]

; 74   : 
; 75   : 	while (iData != end())

  0000a	3b f0		 cmp	 esi, eax
  0000c	74 24		 je	 SHORT $L105239
  0000e	53		 push	 ebx
$L105238:

; 76   : 	{
; 77   : 		DataType*	pData	= (*iData).second;		
; 78   : 
; 79   : 		delete pData;

  0000f	8b 5e 14	 mov	 ebx, DWORD PTR [esi+20]
  00012	85 db		 test	 ebx, ebx
  00014	74 0e		 je	 SHORT $L109876
  00016	8b cb		 mov	 ecx, ebx
  00018	e8 00 00 00 00	 call	 ??1NPC_INFO@@QAE@XZ
  0001d	53		 push	 ebx
  0001e	e8 00 00 00 00	 call	 ??3@YAXPAX@Z		; operator delete
  00023	59		 pop	 ecx
$L109876:

; 80   : 
; 81   : 		iData ++;

  00024	56		 push	 esi
  00025	e8 00 00 00 00	 call	 ?_M_increment@?$_Rb_global@_N@_STL@@SAPAU_Rb_tree_node_base@2@PAU32@@Z ; _STL::_Rb_global<bool>::_M_increment
  0002a	8b f0		 mov	 esi, eax
  0002c	3b 37		 cmp	 esi, DWORD PTR [edi]
  0002e	59		 pop	 ecx
  0002f	75 de		 jne	 SHORT $L105238
  00031	5b		 pop	 ebx
$L105239:

; 82   : 	}
; 83   : 
; 84   : 	clear();

  00032	8b cf		 mov	 ecx, edi
  00034	5f		 pop	 edi
  00035	5e		 pop	 esi
  00036	e9 00 00 00 00	 jmp	 ?clear@?$_Rb_tree@IU?$pair@$$CBIPAVNPC_INFO@@@_STL@@U?$_Select1st@U?$pair@$$CBIPAVNPC_INFO@@@_STL@@@2@U?$less@I@2@V?$allocator@U?$pair@$$CBIPAVNPC_INFO@@@_STL@@@2@@_STL@@QAEXXZ ; _STL::_Rb_tree<unsigned int,_STL::pair<unsigned int const ,NPC_INFO *>,_STL::_Select1st<_STL::pair<unsigned int const ,NPC_INFO *> >,_STL::less<unsigned int>,_STL::allocator<_STL::pair<unsigned int const ,NPC_INFO *> > >::clear
?Release@?$CTypeMap@VNPC_INFO@@@@UAEXXZ ENDP		; CTypeMap<NPC_INFO>::Release
_TEXT	ENDS
PUBLIC	?erase@?$_Rb_tree@IU?$pair@$$CBIPAVNPC_INFO@@@_STL@@U?$_Select1st@U?$pair@$$CBIPAVNPC_INFO@@@_STL@@@2@U?$less@I@2@V?$allocator@U?$pair@$$CBIPAVNPC_INFO@@@_STL@@@2@@_STL@@QAEXU?$_Rb_tree_iterator@U?$pair@$$CBIPAVNPC_INFO@@@_STL@@U?$_Nonconst_traits@U?$pair@$$CBIPAVNPC_INFO@@@_STL@@@2@@2@@Z ; _STL::_Rb_tree<unsigned int,_STL::pair<unsigned int const ,NPC_INFO *>,_STL::_Select1st<_STL::pair<unsigned int const ,NPC_INFO *> >,_STL::less<unsigned int>,_STL::allocator<_STL::pair<unsigned int const ,NPC_INFO *> > >::erase
; Function compile flags: /Ogsy
;	COMDAT ?RemoveData@?$CTypeMap@VNPC_INFO@@@@UAE_NI@Z
_TEXT	SEGMENT
_id$ = 8						; size = 4
?RemoveData@?$CTypeMap@VNPC_INFO@@@@UAE_NI@Z PROC NEAR	; CTypeMap<NPC_INFO>::RemoveData, COMDAT
; _this$ = ecx

; 136  : {

  00000	53		 push	 ebx
  00001	56		 push	 esi
  00002	57		 push	 edi

; 137  : 	TYPE_MAP::iterator	iData = find( id );

  00003	8d 79 04	 lea	 edi, DWORD PTR [ecx+4]
  00006	8d 44 24 10	 lea	 eax, DWORD PTR _id$[esp+8]
  0000a	50		 push	 eax
  0000b	8b cf		 mov	 ecx, edi
  0000d	e8 00 00 00 00	 call	 ??$_M_find@I@?$_Rb_tree@IU?$pair@$$CBIPAVNPC_INFO@@@_STL@@U?$_Select1st@U?$pair@$$CBIPAVNPC_INFO@@@_STL@@@2@U?$less@I@2@V?$allocator@U?$pair@$$CBIPAVNPC_INFO@@@_STL@@@2@@_STL@@ABEPAU?$_Rb_tree_node@U?$pair@$$CBIPAVNPC_INFO@@@_STL@@@1@ABI@Z ; _STL::_Rb_tree<unsigned int,_STL::pair<unsigned int const ,NPC_INFO *>,_STL::_Select1st<_STL::pair<unsigned int const ,NPC_INFO *> >,_STL::less<unsigned int>,_STL::allocator<_STL::pair<unsigned int const ,NPC_INFO *> > >::_M_find<unsigned int>
  00012	8b f0		 mov	 esi, eax

; 138  : 
; 139  : 	if (iData == end())

  00014	3b 37		 cmp	 esi, DWORD PTR [edi]
  00016	75 04		 jne	 SHORT $L105310

; 140  : 	{
; 141  : 		//   
; 142  : 		return false;

  00018	32 c0		 xor	 al, al
  0001a	eb 23		 jmp	 SHORT $L105306
$L105310:

; 143  : 	}
; 144  : 
; 145  : 	//   .
; 146  : 	delete (*iData).second;

  0001c	8b 5e 14	 mov	 ebx, DWORD PTR [esi+20]
  0001f	85 db		 test	 ebx, ebx
  00021	74 0e		 je	 SHORT $L109953
  00023	8b cb		 mov	 ecx, ebx
  00025	e8 00 00 00 00	 call	 ??1NPC_INFO@@QAE@XZ
  0002a	53		 push	 ebx
  0002b	e8 00 00 00 00	 call	 ??3@YAXPAX@Z		; operator delete
  00030	59		 pop	 ecx
$L109953:

; 147  : 
; 148  : 	erase( iData );

  00031	51		 push	 ecx
  00032	8b c4		 mov	 eax, esp
  00034	8b cf		 mov	 ecx, edi
  00036	89 30		 mov	 DWORD PTR [eax], esi
  00038	e8 00 00 00 00	 call	 ?erase@?$_Rb_tree@IU?$pair@$$CBIPAVNPC_INFO@@@_STL@@U?$_Select1st@U?$pair@$$CBIPAVNPC_INFO@@@_STL@@@2@U?$less@I@2@V?$allocator@U?$pair@$$CBIPAVNPC_INFO@@@_STL@@@2@@_STL@@QAEXU?$_Rb_tree_iterator@U?$pair@$$CBIPAVNPC_INFO@@@_STL@@U?$_Nonconst_traits@U?$pair@$$CBIPAVNPC_INFO@@@_STL@@@2@@2@@Z ; _STL::_Rb_tree<unsigned int,_STL::pair<unsigned int const ,NPC_INFO *>,_STL::_Select1st<_STL::pair<unsigned int const ,NPC_INFO *> >,_STL::less<unsigned int>,_STL::allocator<_STL::pair<unsigned int const ,NPC_INFO *> > >::erase

; 149  : 
; 150  : 	return true;

  0003d	b0 01		 mov	 al, 1
$L105306:

; 151  : }

  0003f	5f		 pop	 edi
  00040	5e		 pop	 esi
  00041	5b		 pop	 ebx
  00042	c2 04 00	 ret	 4
?RemoveData@?$CTypeMap@VNPC_INFO@@@@UAE_NI@Z ENDP	; CTypeMap<NPC_INFO>::RemoveData
_TEXT	ENDS
EXTRN	?_Rebalance_for_erase@?$_Rb_global@_N@_STL@@SAPAU_Rb_tree_node_base@2@PAU32@AAPAU32@11@Z:NEAR ; _STL::_Rb_global<bool>::_Rebalance_for_erase
; Function compile flags: /Ogsy
; File c:\stlport-4.6.1\stlport\stl\_tree.h
;	COMDAT ?erase@?$_Rb_tree@IU?$pair@$$CBIPAVNPC_INFO@@@_STL@@U?$_Select1st@U?$pair@$$CBIPAVNPC_INFO@@@_STL@@@2@U?$less@I@2@V?$allocator@U?$pair@$$CBIPAVNPC_INFO@@@_STL@@@2@@_STL@@QAEXU?$_Rb_tree_iterator@U?$pair@$$CBIPAVNPC_INFO@@@_STL@@U?$_Nonconst_traits@U?$pair@$$CBIPAVNPC_INFO@@@_STL@@@2@@2@@Z
_TEXT	SEGMENT
___position$ = 8					; size = 4
?erase@?$_Rb_tree@IU?$pair@$$CBIPAVNPC_INFO@@@_STL@@U?$_Select1st@U?$pair@$$CBIPAVNPC_INFO@@@_STL@@@2@U?$less@I@2@V?$allocator@U?$pair@$$CBIPAVNPC_INFO@@@_STL@@@2@@_STL@@QAEXU?$_Rb_tree_iterator@U?$pair@$$CBIPAVNPC_INFO@@@_STL@@U?$_Nonconst_traits@U?$pair@$$CBIPAVNPC_INFO@@@_STL@@@2@@2@@Z PROC NEAR ; _STL::_Rb_tree<unsigned int,_STL::pair<unsigned int const ,NPC_INFO *>,_STL::_Select1st<_STL::pair<unsigned int const ,NPC_INFO *> >,_STL::less<unsigned int>,_STL::allocator<_STL::pair<unsigned int const ,NPC_INFO *> > >::erase, COMDAT
; _this$ = ecx

; 416  :   void erase(iterator __position) {

  00000	56		 push	 esi
  00001	8b f1		 mov	 esi, ecx

; 417  :     _Link_type __y = 
; 418  :       (_Link_type) _Rb_global_inst::_Rebalance_for_erase(__position._M_node,
; 419  : 							 this->_M_header._M_data->_M_parent,
; 420  : 							 this->_M_header._M_data->_M_left,
; 421  : 							 this->_M_header._M_data->_M_right);

  00003	8b 06		 mov	 eax, DWORD PTR [esi]
  00005	8d 48 0c	 lea	 ecx, DWORD PTR [eax+12]
  00008	51		 push	 ecx
  00009	8d 48 08	 lea	 ecx, DWORD PTR [eax+8]
  0000c	51		 push	 ecx
  0000d	83 c0 04	 add	 eax, 4
  00010	50		 push	 eax
  00011	ff 74 24 14	 push	 DWORD PTR ___position$[esp+12]
  00015	e8 00 00 00 00	 call	 ?_Rebalance_for_erase@?$_Rb_global@_N@_STL@@SAPAU_Rb_tree_node_base@2@PAU32@AAPAU32@11@Z ; _STL::_Rb_global<bool>::_Rebalance_for_erase
  0001a	83 c4 10	 add	 esp, 16			; 00000010H

; 422  :     _STLP_STD::_Destroy(&__y->_M_value_field);
; 423  :     this->_M_header.deallocate(__y,1);

  0001d	6a 01		 push	 1
  0001f	50		 push	 eax
  00020	8b ce		 mov	 ecx, esi
  00022	e8 00 00 00 00	 call	 ?deallocate@?$allocator@U?$_Rb_tree_node@U?$pair@$$CBIPAVNPC_INFO@@@_STL@@@_STL@@@_STL@@QAEXPAU?$_Rb_tree_node@U?$pair@$$CBIPAVNPC_INFO@@@_STL@@@2@I@Z ; _STL::allocator<_STL::_Rb_tree_node<_STL::pair<unsigned int const ,NPC_INFO *> > >::deallocate

; 424  :     --_M_node_count;

  00027	ff 4e 04	 dec	 DWORD PTR [esi+4]
  0002a	5e		 pop	 esi

; 425  :   }

  0002b	c2 04 00	 ret	 4
?erase@?$_Rb_tree@IU?$pair@$$CBIPAVNPC_INFO@@@_STL@@U?$_Select1st@U?$pair@$$CBIPAVNPC_INFO@@@_STL@@@2@U?$less@I@2@V?$allocator@U?$pair@$$CBIPAVNPC_INFO@@@_STL@@@2@@_STL@@QAEXU?$_Rb_tree_iterator@U?$pair@$$CBIPAVNPC_INFO@@@_STL@@U?$_Nonconst_traits@U?$pair@$$CBIPAVNPC_INFO@@@_STL@@@2@@2@@Z ENDP ; _STL::_Rb_tree<unsigned int,_STL::pair<unsigned int const ,NPC_INFO *>,_STL::_Select1st<_STL::pair<unsigned int const ,NPC_INFO *> >,_STL::less<unsigned int>,_STL::allocator<_STL::pair<unsigned int const ,NPC_INFO *> > >::erase
_TEXT	ENDS
;	COMDAT xdata$x
xdata$x	SEGMENT
$T110057 DD	0ffffffffH
	DD	FLAT:$L110035
$T110051 DD	019930520H
	DD	01H
	DD	FLAT:$T110057
	DD	2 DUP(00H)
	DD	2 DUP(00H)
; Function compile flags: /Ogsy
; File c:\darkeden\designed_common\project\client\ctypemap.h
xdata$x	ENDS
;	COMDAT ?LoadFromFile@?$CTypeMap@VNPC_INFO@@@@UAEXAAVivfstream@@@Z
_TEXT	SEGMENT
$T110028 = -24						; size = 4
_id$ = -20						; size = 4
_infoSize$ = -16					; size = 4
__$EHRec$ = -12						; size = 12
_i$105339 = 8						; size = 4
_file$ = 8						; size = 4
?LoadFromFile@?$CTypeMap@VNPC_INFO@@@@UAEXAAVivfstream@@@Z PROC NEAR ; CTypeMap<NPC_INFO>::LoadFromFile, COMDAT
; _this$ = ecx

; 189  : {

  00000	b8 00 00 00 00	 mov	 eax, __ehhandler$?LoadFromFile@?$CTypeMap@VNPC_INFO@@@@UAEXAAVivfstream@@@Z
  00005	e8 00 00 00 00	 call	 __EH_prolog
  0000a	83 ec 0c	 sub	 esp, 12			; 0000000cH
  0000d	53		 push	 ebx
  0000e	56		 push	 esi
  0000f	8b d9		 mov	 ebx, ecx

; 190  : 	//-----------------------------------------------------
; 191  : 	//   
; 192  : 	//-----------------------------------------------------
; 193  : 	Release();

  00011	8b 03		 mov	 eax, DWORD PTR [ebx]
  00013	57		 push	 edi
  00014	ff 50 04	 call	 DWORD PTR [eax+4]

; 194  : 
; 195  : 	//-----------------------------------------------------
; 196  : 	// size 
; 197  : 	//-----------------------------------------------------
; 198  : 	int infoSize;
; 199  : 	file.read((char*)&infoSize, 4);

  00017	8b 75 08	 mov	 esi, DWORD PTR _file$[ebp]
  0001a	33 ff		 xor	 edi, edi
  0001c	39 7e 04	 cmp	 DWORD PTR [esi+4], edi
  0001f	74 0e		 je	 SHORT $L110054
  00021	8b 4e 04	 mov	 ecx, DWORD PTR [esi+4]
  00024	8b 01		 mov	 eax, DWORD PTR [ecx]
  00026	6a 04		 push	 4
  00028	8d 55 f0	 lea	 edx, DWORD PTR _infoSize$[ebp]
  0002b	52		 push	 edx
  0002c	ff 50 10	 call	 DWORD PTR [eax+16]
$L110054:

; 200  : 
; 201  : 	//-----------------------------------------------------
; 202  : 	//  info
; 203  : 	//-----------------------------------------------------
; 204  : 	unsigned int id;
; 205  : 	for (int i=0; i<infoSize; i++)

  0002f	39 7d f0	 cmp	 DWORD PTR _infoSize$[ebp], edi
  00032	89 7d 08	 mov	 DWORD PTR _i$105339[ebp], edi
  00035	7e 6a		 jle	 SHORT $L105342
  00037	eb 02		 jmp	 SHORT $L105340
$L110055:
  00039	33 ff		 xor	 edi, edi
$L105340:

; 206  : 	{		
; 207  : 		file.read((char*)&id, 4);

  0003b	39 7e 04	 cmp	 DWORD PTR [esi+4], edi
  0003e	74 0e		 je	 SHORT $L110043
  00040	8b 4e 04	 mov	 ecx, DWORD PTR [esi+4]
  00043	8b 01		 mov	 eax, DWORD PTR [ecx]
  00045	6a 04		 push	 4
  00047	8d 55 ec	 lea	 edx, DWORD PTR _id$[ebp]
  0004a	52		 push	 edx
  0004b	ff 50 10	 call	 DWORD PTR [eax+16]
$L110043:

; 208  : 		DataType*	pData = new DataType;

  0004e	6a 20		 push	 32			; 00000020H
  00050	e8 00 00 00 00	 call	 ??2@YAPAXI@Z		; operator new
  00055	59		 pop	 ecx
  00056	89 45 e8	 mov	 DWORD PTR $T110028[ebp], eax
  00059	3b c7		 cmp	 eax, edi
  0005b	89 7d fc	 mov	 DWORD PTR __$EHRec$[ebp+8], edi
  0005e	74 09		 je	 SHORT $L110030
  00060	8b c8		 mov	 ecx, eax
  00062	e8 00 00 00 00	 call	 ??0NPC_INFO@@QAE@XZ
  00067	8b f8		 mov	 edi, eax
$L110030:
  00069	83 4d fc ff	 or	 DWORD PTR __$EHRec$[ebp+8], -1

; 209  : 
; 210  : 		pData->LoadFromFile( file );

  0006d	56		 push	 esi
  0006e	8b cf		 mov	 ecx, edi
  00070	e8 00 00 00 00	 call	 ?LoadFromFile@NPC_INFO@@QAEXAAVivfstream@@@Z ; NPC_INFO::LoadFromFile

; 211  : 
; 212  : 		//-----------------------------------------------------
; 213  : 		// map .
; 214  : 		//-----------------------------------------------------
; 215  : 		if (!AddData( id, pData ))

  00075	8b 03		 mov	 eax, DWORD PTR [ebx]
  00077	57		 push	 edi
  00078	ff 75 ec	 push	 DWORD PTR _id$[ebp]
  0007b	8b cb		 mov	 ecx, ebx
  0007d	ff 50 08	 call	 DWORD PTR [eax+8]
  00080	84 c0		 test	 al, al
  00082	75 12		 jne	 SHORT $L105341

; 216  : 		{
; 217  : 			delete pData;

  00084	85 ff		 test	 edi, edi
  00086	74 0e		 je	 SHORT $L105341
  00088	8b cf		 mov	 ecx, edi
  0008a	e8 00 00 00 00	 call	 ??1NPC_INFO@@QAE@XZ
  0008f	57		 push	 edi
  00090	e8 00 00 00 00	 call	 ??3@YAXPAX@Z		; operator delete
  00095	59		 pop	 ecx
$L105341:
  00096	ff 45 08	 inc	 DWORD PTR _i$105339[ebp]
  00099	8b 45 08	 mov	 eax, DWORD PTR _i$105339[ebp]
  0009c	3b 45 f0	 cmp	 eax, DWORD PTR _infoSize$[ebp]
  0009f	7c 98		 jl	 SHORT $L110055
$L105342:

; 218  : 		}
; 219  : 	}
; 220  : }

  000a1	8b 4d f4	 mov	 ecx, DWORD PTR __$EHRec$[ebp]
  000a4	5f		 pop	 edi
  000a5	5e		 pop	 esi
  000a6	5b		 pop	 ebx
  000a7	64 89 0d 00 00
	00 00		 mov	 DWORD PTR fs:__except_list, ecx
  000ae	c9		 leave
  000af	c2 04 00	 ret	 4
_TEXT	ENDS
;	COMDAT text$x
text$x	SEGMENT
$L110035:
  00000	ff 75 e8	 push	 DWORD PTR $T110028[ebp]
  00003	e8 00 00 00 00	 call	 ??3@YAXPAX@Z		; operator delete
  00008	59		 pop	 ecx
  00009	c3		 ret	 0
__ehhandler$?LoadFromFile@?$CTypeMap@VNPC_INFO@@@@UAEXAAVivfstream@@@Z:
  0000a	b8 00 00 00 00	 mov	 eax, OFFSET FLAT:$T110051
  0000f	e9 00 00 00 00	 jmp	 ___CxxFrameHandler
text$x	ENDS
?LoadFromFile@?$CTypeMap@VNPC_INFO@@@@UAEXAAVivfstream@@@Z ENDP ; CTypeMap<NPC_INFO>::LoadFromFile
PUBLIC	??_R1A@?0A@A@?$CTypeMap@VSERVERNPC_INFO@@@@8	; CTypeMap<SERVERNPC_INFO>::`RTTI Base Class Descriptor at (0,-1,0,0)'
PUBLIC	??_R0?AV?$CTypeMap@VSERVERNPC_INFO@@@@@8	; CTypeMap<SERVERNPC_INFO> `RTTI Type Descriptor'
PUBLIC	??_R13?0A@A@?$map@IPAVSERVERNPC_INFO@@U?$less@I@_STL@@V?$allocator@U?$pair@$$CBIPAVSERVERNPC_INFO@@@_STL@@@3@@_STL@@8 ; _STL::map<unsigned int,SERVERNPC_INFO *,_STL::less<unsigned int>,_STL::allocator<_STL::pair<unsigned int const ,SERVERNPC_INFO *> > >::`RTTI Base Class Descriptor at (4,-1,0,0)'
PUBLIC	??_R0?AV?$map@IPAVSERVERNPC_INFO@@U?$less@I@_STL@@V?$allocator@U?$pair@$$CBIPAVSERVERNPC_INFO@@@_STL@@@3@@_STL@@@8 ; _STL::map<unsigned int,SERVERNPC_INFO *,_STL::less<unsigned int>,_STL::allocator<_STL::pair<unsigned int const ,SERVERNPC_INFO *> > > `RTTI Type Descriptor'
PUBLIC	??_R4?$CTypeMap@VSERVERNPC_INFO@@@@6B@		; CTypeMap<SERVERNPC_INFO>::`RTTI Complete Object Locator'
PUBLIC	??_R3?$CTypeMap@VSERVERNPC_INFO@@@@8		; CTypeMap<SERVERNPC_INFO>::`RTTI Class Hierarchy Descriptor'
PUBLIC	??_R2?$CTypeMap@VSERVERNPC_INFO@@@@8		; CTypeMap<SERVERNPC_INFO>::`RTTI Base Class Array'
PUBLIC	??0?$CTypeMap@VSERVERNPC_INFO@@@@QAE@XZ		; CTypeMap<SERVERNPC_INFO>::CTypeMap<SERVERNPC_INFO>
PUBLIC	?Release@?$CTypeMap@VSERVERNPC_INFO@@@@UAEXXZ	; CTypeMap<SERVERNPC_INFO>::Release
PUBLIC	?AddData@?$CTypeMap@VSERVERNPC_INFO@@@@UAE_NIPAVSERVERNPC_INFO@@@Z ; CTypeMap<SERVERNPC_INFO>::AddData
PUBLIC	?GetData@?$CTypeMap@VSERVERNPC_INFO@@@@UAEPAVSERVERNPC_INFO@@I@Z ; CTypeMap<SERVERNPC_INFO>::GetData
PUBLIC	?RemoveData@?$CTypeMap@VSERVERNPC_INFO@@@@UAE_NI@Z ; CTypeMap<SERVERNPC_INFO>::RemoveData
PUBLIC	?SaveToFile@?$CTypeMap@VSERVERNPC_INFO@@@@UAEXAAV?$basic_ofstream@DV?$char_traits@D@_STL@@@_STL@@@Z ; CTypeMap<SERVERNPC_INFO>::SaveToFile
PUBLIC	?LoadFromFile@?$CTypeMap@VSERVERNPC_INFO@@@@UAEXAAVivfstream@@@Z ; CTypeMap<SERVERNPC_INFO>::LoadFromFile
PUBLIC	??_7?$CTypeMap@VSERVERNPC_INFO@@@@6B@		; CTypeMap<SERVERNPC_INFO>::`vftable'
PUBLIC	??_G?$CTypeMap@VSERVERNPC_INFO@@@@UAEPAXI@Z	; CTypeMap<SERVERNPC_INFO>::`scalar deleting destructor'
EXTRN	??_E?$CTypeMap@VSERVERNPC_INFO@@@@UAEPAXI@Z:NEAR ; CTypeMap<SERVERNPC_INFO>::`vector deleting destructor'
;	COMDAT ??_7?$CTypeMap@VSERVERNPC_INFO@@@@6B@
CONST	SEGMENT
??_7?$CTypeMap@VSERVERNPC_INFO@@@@6B@ DD FLAT:??_R4?$CTypeMap@VSERVERNPC_INFO@@@@6B@ ; CTypeMap<SERVERNPC_INFO>::`vftable'
	DD	FLAT:??_E?$CTypeMap@VSERVERNPC_INFO@@@@UAEPAXI@Z
	DD	FLAT:?Release@?$CTypeMap@VSERVERNPC_INFO@@@@UAEXXZ
	DD	FLAT:?AddData@?$CTypeMap@VSERVERNPC_INFO@@@@UAE_NIPAVSERVERNPC_INFO@@@Z
	DD	FLAT:?GetData@?$CTypeMap@VSERVERNPC_INFO@@@@UAEPAVSERVERNPC_INFO@@I@Z
	DD	FLAT:?RemoveData@?$CTypeMap@VSERVERNPC_INFO@@@@UAE_NI@Z
	DD	FLAT:?SaveToFile@?$CTypeMap@VSERVERNPC_INFO@@@@UAEXAAV?$basic_ofstream@DV?$char_traits@D@_STL@@@_STL@@@Z
	DD	FLAT:?LoadFromFile@?$CTypeMap@VSERVERNPC_INFO@@@@UAEXAAVivfstream@@@Z
CONST	ENDS
;	COMDAT ??_R4?$CTypeMap@VSERVERNPC_INFO@@@@6B@
rdata$r	SEGMENT
??_R4?$CTypeMap@VSERVERNPC_INFO@@@@6B@ DD 00H		; CTypeMap<SERVERNPC_INFO>::`RTTI Complete Object Locator'
	DD	00H
	DD	00H
	DD	FLAT:??_R0?AV?$CTypeMap@VSERVERNPC_INFO@@@@@8
	DD	FLAT:??_R3?$CTypeMap@VSERVERNPC_INFO@@@@8
rdata$r	ENDS
;	COMDAT ??_R0?AV?$CTypeMap@VSERVERNPC_INFO@@@@@8
_DATA	SEGMENT
??_R0?AV?$CTypeMap@VSERVERNPC_INFO@@@@@8 DD FLAT:??_7type_info@@6B@ ; CTypeMap<SERVERNPC_INFO> `RTTI Type Descriptor'
	DD	00H
	DB	'.?AV?$CTypeMap@VSERVERNPC_INFO@@@@', 00H
_DATA	ENDS
;	COMDAT ??_R3?$CTypeMap@VSERVERNPC_INFO@@@@8
rdata$r	SEGMENT
??_R3?$CTypeMap@VSERVERNPC_INFO@@@@8 DD 00H		; CTypeMap<SERVERNPC_INFO>::`RTTI Class Hierarchy Descriptor'
	DD	00H
	DD	02H
	DD	FLAT:??_R2?$CTypeMap@VSERVERNPC_INFO@@@@8
rdata$r	ENDS
;	COMDAT ??_R2?$CTypeMap@VSERVERNPC_INFO@@@@8
rdata$r	SEGMENT
??_R2?$CTypeMap@VSERVERNPC_INFO@@@@8 DD FLAT:??_R1A@?0A@A@?$CTypeMap@VSERVERNPC_INFO@@@@8 ; CTypeMap<SERVERNPC_INFO>::`RTTI Base Class Array'
	DD	FLAT:??_R13?0A@A@?$map@IPAVSERVERNPC_INFO@@U?$less@I@_STL@@V?$allocator@U?$pair@$$CBIPAVSERVERNPC_INFO@@@_STL@@@3@@_STL@@8
rdata$r	ENDS
;	COMDAT ??_R1A@?0A@A@?$CTypeMap@VSERVERNPC_INFO@@@@8
rdata$r	SEGMENT
??_R1A@?0A@A@?$CTypeMap@VSERVERNPC_INFO@@@@8 DD FLAT:??_R0?AV?$CTypeMap@VSERVERNPC_INFO@@@@@8 ; CTypeMap<SERVERNPC_INFO>::`RTTI Base Class Descriptor at (0,-1,0,0)'
	DD	01H
	DD	00H
	DD	0ffffffffH
	DD	00H
	DD	00H
rdata$r	ENDS
;	COMDAT ??_R13?0A@A@?$map@IPAVSERVERNPC_INFO@@U?$less@I@_STL@@V?$allocator@U?$pair@$$CBIPAVSERVERNPC_INFO@@@_STL@@@3@@_STL@@8
rdata$r	SEGMENT
??_R13?0A@A@?$map@IPAVSERVERNPC_INFO@@U?$less@I@_STL@@V?$allocator@U?$pair@$$CBIPAVSERVERNPC_INFO@@@_STL@@@3@@_STL@@8 DD FLAT:??_R0?AV?$map@IPAVSERVERNPC_INFO@@U?$less@I@_STL@@V?$allocator@U?$pair@$$CBIPAVSERVERNPC_INFO@@@_STL@@@3@@_STL@@@8 ; _STL::map<unsigned int,SERVERNPC_INFO *,_STL::less<unsigned int>,_STL::allocator<_STL::pair<unsigned int const ,SERVERNPC_INFO *> > >::`RTTI Base Class Descriptor at (4,-1,0,0)'
	DD	00H
	DD	04H
	DD	0ffffffffH
	DD	00H
	DD	00H
rdata$r	ENDS
;	COMDAT ??_R0?AV?$map@IPAVSERVERNPC_INFO@@U?$less@I@_STL@@V?$allocator@U?$pair@$$CBIPAVSERVERNPC_INFO@@@_STL@@@3@@_STL@@@8
_DATA	SEGMENT
??_R0?AV?$map@IPAVSERVERNPC_INFO@@U?$less@I@_STL@@V?$allocator@U?$pair@$$CBIPAVSERVERNPC_INFO@@@_STL@@@3@@_STL@@@8 DD FLAT:??_7type_info@@6B@ ; _STL::map<unsigned int,SERVERNPC_INFO *,_STL::less<unsigned int>,_STL::allocator<_STL::pair<unsigned int const ,SERVERNPC_INFO *> > > `RTTI Type Descriptor'
	DD	00H
	DB	'.?AV?$map@IPAVSERVERNPC_INFO@@U?$less@I@_STL@@V?$allocat'
	DB	'or@U?$pair@$$CBIPAVSERVERNPC_INFO@@@_STL@@@3@@_STL@@', 00H
; Function compile flags: /Ogsy
_DATA	ENDS
;	COMDAT ??0?$CTypeMap@VSERVERNPC_INFO@@@@QAE@XZ
_TEXT	SEGMENT
??0?$CTypeMap@VSERVERNPC_INFO@@@@QAE@XZ PROC NEAR	; CTypeMap<SERVERNPC_INFO>::CTypeMap<SERVERNPC_INFO>, COMDAT
; _this$ = ecx

; 57   : {

  00000	56		 push	 esi
  00001	8b f1		 mov	 esi, ecx
  00003	8d 4e 04	 lea	 ecx, DWORD PTR [esi+4]
  00006	e8 00 00 00 00	 call	 ??0?$map@IPAVSERVERNPC_INFO@@U?$less@I@_STL@@V?$allocator@U?$pair@$$CBIPAVSERVERNPC_INFO@@@_STL@@@3@@_STL@@QAE@XZ ; _STL::map<unsigned int,SERVERNPC_INFO *,_STL::less<unsigned int>,_STL::allocator<_STL::pair<unsigned int const ,SERVERNPC_INFO *> > >::map<unsigned int,SERVERNPC_INFO *,_STL::less<unsigned int>,_STL::allocator<_STL::pair<unsigned int const ,SERVERNPC_INFO *> > >
  0000b	c7 06 00 00 00
	00		 mov	 DWORD PTR [esi], OFFSET FLAT:??_7?$CTypeMap@VSERVERNPC_INFO@@@@6B@

; 58   : }

  00011	8b c6		 mov	 eax, esi
  00013	5e		 pop	 esi
  00014	c3		 ret	 0
??0?$CTypeMap@VSERVERNPC_INFO@@@@QAE@XZ ENDP		; CTypeMap<SERVERNPC_INFO>::CTypeMap<SERVERNPC_INFO>
_TEXT	ENDS
PUBLIC	??$_M_find@I@?$_Rb_tree@IU?$pair@$$CBIPAVSERVERNPC_INFO@@@_STL@@U?$_Select1st@U?$pair@$$CBIPAVSERVERNPC_INFO@@@_STL@@@2@U?$less@I@2@V?$allocator@U?$pair@$$CBIPAVSERVERNPC_INFO@@@_STL@@@2@@_STL@@ABEPAU?$_Rb_tree_node@U?$pair@$$CBIPAVSERVERNPC_INFO@@@_STL@@@1@ABI@Z ; _STL::_Rb_tree<unsigned int,_STL::pair<unsigned int const ,SERVERNPC_INFO *>,_STL::_Select1st<_STL::pair<unsigned int const ,SERVERNPC_INFO *> >,_STL::less<unsigned int>,_STL::allocator<_STL::pair<unsigned int const ,SERVERNPC_INFO *> > >::_M_find<unsigned int>
; Function compile flags: /Ogsy
;	COMDAT ?GetData@?$CTypeMap@VSERVERNPC_INFO@@@@UAEPAVSERVERNPC_INFO@@I@Z
_TEXT	SEGMENT
_id$ = 8						; size = 4
?GetData@?$CTypeMap@VSERVERNPC_INFO@@@@UAEPAVSERVERNPC_INFO@@I@Z PROC NEAR ; CTypeMap<SERVERNPC_INFO>::GetData, COMDAT
; _this$ = ecx

; 117  : {

  00000	56		 push	 esi

; 118  : 	TYPE_MAP::iterator	iData = find( id );

  00001	8d 71 04	 lea	 esi, DWORD PTR [ecx+4]
  00004	8d 44 24 08	 lea	 eax, DWORD PTR _id$[esp]
  00008	50		 push	 eax
  00009	8b ce		 mov	 ecx, esi
  0000b	e8 00 00 00 00	 call	 ??$_M_find@I@?$_Rb_tree@IU?$pair@$$CBIPAVSERVERNPC_INFO@@@_STL@@U?$_Select1st@U?$pair@$$CBIPAVSERVERNPC_INFO@@@_STL@@@2@U?$less@I@2@V?$allocator@U?$pair@$$CBIPAVSERVERNPC_INFO@@@_STL@@@2@@_STL@@ABEPAU?$_Rb_tree_node@U?$pair@$$CBIPAVSERVERNPC_INFO@@@_STL@@@1@ABI@Z ; _STL::_Rb_tree<unsigned int,_STL::pair<unsigned int const ,SERVERNPC_INFO *>,_STL::_Select1st<_STL::pair<unsigned int const ,SERVERNPC_INFO *> >,_STL::less<unsigned int>,_STL::allocator<_STL::pair<unsigned int const ,SERVERNPC_INFO *> > >::_M_find<unsigned int>

; 119  : 
; 120  : 	if (iData == end())

  00010	3b 06		 cmp	 eax, DWORD PTR [esi]
  00012	5e		 pop	 esi
  00013	75 04		 jne	 SHORT $L105413

; 121  : 	{
; 122  : 		//   
; 123  : 		return NULL;

  00015	33 c0		 xor	 eax, eax
  00017	eb 03		 jmp	 SHORT $L105409
$L105413:

; 124  : 	}
; 125  : 
; 126  : 	//  
; 127  : 	return (*iData).second;

  00019	8b 40 14	 mov	 eax, DWORD PTR [eax+20]
$L105409:

; 128  : }

  0001c	c2 04 00	 ret	 4
?GetData@?$CTypeMap@VSERVERNPC_INFO@@@@UAEPAVSERVERNPC_INFO@@I@Z ENDP ; CTypeMap<SERVERNPC_INFO>::GetData
; Function compile flags: /Ogsy
; File c:\stlport-4.6.1\stlport\stl\_tree.h
_TEXT	ENDS
;	COMDAT ??$_M_find@I@?$_Rb_tree@IU?$pair@$$CBIPAVSERVERNPC_INFO@@@_STL@@U?$_Select1st@U?$pair@$$CBIPAVSERVERNPC_INFO@@@_STL@@@2@U?$less@I@2@V?$allocator@U?$pair@$$CBIPAVSERVERNPC_INFO@@@_STL@@@2@@_STL@@ABEPAU?$_Rb_tree_node@U?$pair@$$CBIPAVSERVERNPC_INFO@@@_STL@@@1@ABI@Z
_TEXT	SEGMENT
___k$ = 8						; size = 4
??$_M_find@I@?$_Rb_tree@IU?$pair@$$CBIPAVSERVERNPC_INFO@@@_STL@@U?$_Select1st@U?$pair@$$CBIPAVSERVERNPC_INFO@@@_STL@@@2@U?$less@I@2@V?$allocator@U?$pair@$$CBIPAVSERVERNPC_INFO@@@_STL@@@2@@_STL@@ABEPAU?$_Rb_tree_node@U?$pair@$$CBIPAVSERVERNPC_INFO@@@_STL@@@1@ABI@Z PROC NEAR ; _STL::_Rb_tree<unsigned int,_STL::pair<unsigned int const ,SERVERNPC_INFO *>,_STL::_Select1st<_STL::pair<unsigned int const ,SERVERNPC_INFO *> >,_STL::less<unsigned int>,_STL::allocator<_STL::pair<unsigned int const ,SERVERNPC_INFO *> > >::_M_find<unsigned int>, COMDAT
; _this$ = ecx

; 462  : # else
; 463  :   iterator find(const key_type& __x) { return iterator(_M_find(__x)); }
; 464  :   const_iterator find(const key_type& __x) const { return const_iterator(_M_find(__x)); }
; 465  : private:
; 466  :   _Rb_tree_node<_Value>* _M_find(const key_type& __k) const
; 467  : # endif
; 468  :   {
; 469  :     _Link_type __y = this->_M_header._M_data;      // Last node which is not less than __k. 

  00000	8b 11		 mov	 edx, DWORD PTR [ecx]

; 470  :     _Link_type __x = _M_root();      // Current node. 

  00002	8b 4a 04	 mov	 ecx, DWORD PTR [edx+4]

; 471  :     
; 472  :     while (__x != 0) 

  00005	85 c9		 test	 ecx, ecx
  00007	57		 push	 edi
  00008	8b 7c 24 08	 mov	 edi, DWORD PTR ___k$[esp]
  0000c	8b c2		 mov	 eax, edx
  0000e	74 17		 je	 SHORT $L106456
  00010	56		 push	 esi
  00011	8b 37		 mov	 esi, DWORD PTR [edi]
$L106455:

; 473  :       if (!_M_key_compare(_S_key(__x), __k))

  00013	39 71 10	 cmp	 DWORD PTR [ecx+16], esi
  00016	72 07		 jb	 SHORT $L106457

; 474  : 	__y = __x, __x = _S_left(__x);

  00018	8b c1		 mov	 eax, ecx
  0001a	8b 49 08	 mov	 ecx, DWORD PTR [ecx+8]

; 475  :       else

  0001d	eb 03		 jmp	 SHORT $L106458
$L106457:

; 476  : 	__x = _S_right(__x);

  0001f	8b 49 0c	 mov	 ecx, DWORD PTR [ecx+12]
$L106458:

; 471  :     
; 472  :     while (__x != 0) 

  00022	85 c9		 test	 ecx, ecx
  00024	75 ed		 jne	 SHORT $L106455
  00026	5e		 pop	 esi
$L106456:

; 477  :     if (__y == this->_M_header._M_data || _M_key_compare(__k, _S_key(__y)))

  00027	3b c2		 cmp	 eax, edx
  00029	74 07		 je	 SHORT $L106460
  0002b	8b 0f		 mov	 ecx, DWORD PTR [edi]
  0002d	3b 48 10	 cmp	 ecx, DWORD PTR [eax+16]
  00030	73 02		 jae	 SHORT $L106459
$L106460:

; 478  :       __y = this->_M_header._M_data;

  00032	8b c2		 mov	 eax, edx
$L106459:
  00034	5f		 pop	 edi

; 479  :     return __y;
; 480  :   }

  00035	c2 04 00	 ret	 4
??$_M_find@I@?$_Rb_tree@IU?$pair@$$CBIPAVSERVERNPC_INFO@@@_STL@@U?$_Select1st@U?$pair@$$CBIPAVSERVERNPC_INFO@@@_STL@@@2@U?$less@I@2@V?$allocator@U?$pair@$$CBIPAVSERVERNPC_INFO@@@_STL@@@2@@_STL@@ABEPAU?$_Rb_tree_node@U?$pair@$$CBIPAVSERVERNPC_INFO@@@_STL@@@1@ABI@Z ENDP ; _STL::_Rb_tree<unsigned int,_STL::pair<unsigned int const ,SERVERNPC_INFO *>,_STL::_Select1st<_STL::pair<unsigned int const ,SERVERNPC_INFO *> >,_STL::less<unsigned int>,_STL::allocator<_STL::pair<unsigned int const ,SERVERNPC_INFO *> > >::_M_find<unsigned int>
; Function compile flags: /Ogsy
; File c:\darkeden\designed_common\project\client\ctypemap.h
_TEXT	ENDS
;	COMDAT ?SaveToFile@?$CTypeMap@VSERVERNPC_INFO@@@@UAEXAAV?$basic_ofstream@DV?$char_traits@D@_STL@@@_STL@@@Z
_TEXT	SEGMENT
_id$105439 = -8						; size = 4
_infoSize$ = -4						; size = 4
_file$ = 8						; size = 4
?SaveToFile@?$CTypeMap@VSERVERNPC_INFO@@@@UAEXAAV?$basic_ofstream@DV?$char_traits@D@_STL@@@_STL@@@Z PROC NEAR ; CTypeMap<SERVERNPC_INFO>::SaveToFile, COMDAT
; _this$ = ecx

; 159  : {

  00000	55		 push	 ebp
  00001	8b ec		 mov	 ebp, esp
  00003	51		 push	 ecx
  00004	51		 push	 ecx
  00005	56		 push	 esi
  00006	57		 push	 edi
  00007	8b f9		 mov	 edi, ecx

; 160  : 	TYPE_MAP::iterator iData = begin();

  00009	8b 47 04	 mov	 eax, DWORD PTR [edi+4]
  0000c	8b 70 08	 mov	 esi, DWORD PTR [eax+8]

; 161  : 
; 162  : 	//-----------------------------------------------------
; 163  : 	//  
; 164  : 	//-----------------------------------------------------
; 165  : 	int infoSize = size();

  0000f	8b 47 08	 mov	 eax, DWORD PTR [edi+8]

; 166  : 	file.write((const char*)&infoSize, 4);

  00012	8b 4d 08	 mov	 ecx, DWORD PTR _file$[ebp]
  00015	89 45 fc	 mov	 DWORD PTR _infoSize$[ebp], eax
  00018	6a 04		 push	 4
  0001a	8d 45 fc	 lea	 eax, DWORD PTR _infoSize$[ebp]
  0001d	50		 push	 eax
  0001e	e8 00 00 00 00	 call	 ?write@?$basic_ostream@DV?$char_traits@D@_STL@@@_STL@@QAEAAV12@PBDH@Z ; _STL::basic_ostream<char,_STL::char_traits<char> >::write

; 167  : 
; 168  : 	//-----------------------------------------------------
; 169  : 	//  info 
; 170  : 	//-----------------------------------------------------
; 171  : 	while (iData != end())

  00023	3b 77 04	 cmp	 esi, DWORD PTR [edi+4]
  00026	74 31		 je	 SHORT $L105437
  00028	53		 push	 ebx
$L105436:

; 172  : 	{
; 173  : 		unsigned int	id		= (*iData).first;

  00029	8b 46 10	 mov	 eax, DWORD PTR [esi+16]

; 174  : 		DataType*		pData	= (*iData).second;		
; 175  : 
; 176  : 		file.write((const char*)&id, 4);	// id 

  0002c	8b 4d 08	 mov	 ecx, DWORD PTR _file$[ebp]
  0002f	89 45 f8	 mov	 DWORD PTR _id$105439[ebp], eax
  00032	8b 5e 14	 mov	 ebx, DWORD PTR [esi+20]
  00035	6a 04		 push	 4
  00037	8d 45 f8	 lea	 eax, DWORD PTR _id$105439[ebp]
  0003a	50		 push	 eax
  0003b	e8 00 00 00 00	 call	 ?write@?$basic_ostream@DV?$char_traits@D@_STL@@@_STL@@QAEAAV12@PBDH@Z ; _STL::basic_ostream<char,_STL::char_traits<char> >::write

; 177  : 		pData->SaveToFile( file );			// NPC info 

  00040	ff 75 08	 push	 DWORD PTR _file$[ebp]
  00043	8b cb		 mov	 ecx, ebx
  00045	e8 00 00 00 00	 call	 ?SaveToFile@SERVERNPC_INFO@@QAEXAAV?$basic_ofstream@DV?$char_traits@D@_STL@@@_STL@@@Z ; SERVERNPC_INFO::SaveToFile

; 178  : 
; 179  : 		iData ++;

  0004a	56		 push	 esi
  0004b	e8 00 00 00 00	 call	 ?_M_increment@?$_Rb_global@_N@_STL@@SAPAU_Rb_tree_node_base@2@PAU32@@Z ; _STL::_Rb_global<bool>::_M_increment
  00050	8b f0		 mov	 esi, eax
  00052	3b 77 04	 cmp	 esi, DWORD PTR [edi+4]
  00055	59		 pop	 ecx
  00056	75 d1		 jne	 SHORT $L105436
  00058	5b		 pop	 ebx
$L105437:
  00059	5f		 pop	 edi
  0005a	5e		 pop	 esi

; 180  : 	}
; 181  : }

  0005b	c9		 leave
  0005c	c2 04 00	 ret	 4
?SaveToFile@?$CTypeMap@VSERVERNPC_INFO@@@@UAEXAAV?$basic_ofstream@DV?$char_traits@D@_STL@@@_STL@@@Z ENDP ; CTypeMap<SERVERNPC_INFO>::SaveToFile
; Function compile flags: /Ogsy
_TEXT	ENDS
;	COMDAT ?Release@?$CTypeMap@VSERVERNPC_INFO@@@@UAEXXZ
_TEXT	SEGMENT
?Release@?$CTypeMap@VSERVERNPC_INFO@@@@UAEXXZ PROC NEAR	; CTypeMap<SERVERNPC_INFO>::Release, COMDAT
; _this$ = ecx

; 72   : {

  00000	56		 push	 esi
  00001	57		 push	 edi

; 73   : 	TYPE_MAP::iterator iData = begin();

  00002	8d 79 04	 lea	 edi, DWORD PTR [ecx+4]
  00005	8b 07		 mov	 eax, DWORD PTR [edi]
  00007	8b 70 08	 mov	 esi, DWORD PTR [eax+8]

; 74   : 
; 75   : 	while (iData != end())

  0000a	3b f0		 cmp	 esi, eax
  0000c	74 24		 je	 SHORT $L105368
  0000e	53		 push	 ebx
$L105367:

; 76   : 	{
; 77   : 		DataType*	pData	= (*iData).second;		
; 78   : 
; 79   : 		delete pData;

  0000f	8b 5e 14	 mov	 ebx, DWORD PTR [esi+20]
  00012	85 db		 test	 ebx, ebx
  00014	74 0e		 je	 SHORT $L110236
  00016	8b cb		 mov	 ecx, ebx
  00018	e8 00 00 00 00	 call	 ??1SERVERNPC_INFO@@QAE@XZ
  0001d	53		 push	 ebx
  0001e	e8 00 00 00 00	 call	 ??3@YAXPAX@Z		; operator delete
  00023	59		 pop	 ecx
$L110236:

; 80   : 
; 81   : 		iData ++;

  00024	56		 push	 esi
  00025	e8 00 00 00 00	 call	 ?_M_increment@?$_Rb_global@_N@_STL@@SAPAU_Rb_tree_node_base@2@PAU32@@Z ; _STL::_Rb_global<bool>::_M_increment
  0002a	8b f0		 mov	 esi, eax
  0002c	3b 37		 cmp	 esi, DWORD PTR [edi]
  0002e	59		 pop	 ecx
  0002f	75 de		 jne	 SHORT $L105367
  00031	5b		 pop	 ebx
$L105368:

; 82   : 	}
; 83   : 
; 84   : 	clear();

  00032	8b cf		 mov	 ecx, edi
  00034	5f		 pop	 edi
  00035	5e		 pop	 esi
  00036	e9 00 00 00 00	 jmp	 ?clear@?$_Rb_tree@IU?$pair@$$CBIPAVSERVERNPC_INFO@@@_STL@@U?$_Select1st@U?$pair@$$CBIPAVSERVERNPC_INFO@@@_STL@@@2@U?$less@I@2@V?$allocator@U?$pair@$$CBIPAVSERVERNPC_INFO@@@_STL@@@2@@_STL@@QAEXXZ ; _STL::_Rb_tree<unsigned int,_STL::pair<unsigned int const ,SERVERNPC_INFO *>,_STL::_Select1st<_STL::pair<unsigned int const ,SERVERNPC_INFO *> >,_STL::less<unsigned int>,_STL::allocator<_STL::pair<unsigned int const ,SERVERNPC_INFO *> > >::clear
?Release@?$CTypeMap@VSERVERNPC_INFO@@@@UAEXXZ ENDP	; CTypeMap<SERVERNPC_INFO>::Release
_TEXT	ENDS
PUBLIC	?erase@?$_Rb_tree@IU?$pair@$$CBIPAVSERVERNPC_INFO@@@_STL@@U?$_Select1st@U?$pair@$$CBIPAVSERVERNPC_INFO@@@_STL@@@2@U?$less@I@2@V?$allocator@U?$pair@$$CBIPAVSERVERNPC_INFO@@@_STL@@@2@@_STL@@QAEXU?$_Rb_tree_iterator@U?$pair@$$CBIPAVSERVERNPC_INFO@@@_STL@@U?$_Nonconst_traits@U?$pair@$$CBIPAVSERVERNPC_INFO@@@_STL@@@2@@2@@Z ; _STL::_Rb_tree<unsigned int,_STL::pair<unsigned int const ,SERVERNPC_INFO *>,_STL::_Select1st<_STL::pair<unsigned int const ,SERVERNPC_INFO *> >,_STL::less<unsigned int>,_STL::allocator<_STL::pair<unsigned int const ,SERVERNPC_INFO *> > >::erase
; Function compile flags: /Ogsy
;	COMDAT ?RemoveData@?$CTypeMap@VSERVERNPC_INFO@@@@UAE_NI@Z
_TEXT	SEGMENT
_id$ = 8						; size = 4
?RemoveData@?$CTypeMap@VSERVERNPC_INFO@@@@UAE_NI@Z PROC NEAR ; CTypeMap<SERVERNPC_INFO>::RemoveData, COMDAT
; _this$ = ecx

; 136  : {

  00000	53		 push	 ebx
  00001	56		 push	 esi
  00002	57		 push	 edi

; 137  : 	TYPE_MAP::iterator	iData = find( id );

  00003	8d 79 04	 lea	 edi, DWORD PTR [ecx+4]
  00006	8d 44 24 10	 lea	 eax, DWORD PTR _id$[esp+8]
  0000a	50		 push	 eax
  0000b	8b cf		 mov	 ecx, edi
  0000d	e8 00 00 00 00	 call	 ??$_M_find@I@?$_Rb_tree@IU?$pair@$$CBIPAVSERVERNPC_INFO@@@_STL@@U?$_Select1st@U?$pair@$$CBIPAVSERVERNPC_INFO@@@_STL@@@2@U?$less@I@2@V?$allocator@U?$pair@$$CBIPAVSERVERNPC_INFO@@@_STL@@@2@@_STL@@ABEPAU?$_Rb_tree_node@U?$pair@$$CBIPAVSERVERNPC_INFO@@@_STL@@@1@ABI@Z ; _STL::_Rb_tree<unsigned int,_STL::pair<unsigned int const ,SERVERNPC_INFO *>,_STL::_Select1st<_STL::pair<unsigned int const ,SERVERNPC_INFO *> >,_STL::less<unsigned int>,_STL::allocator<_STL::pair<unsigned int const ,SERVERNPC_INFO *> > >::_M_find<unsigned int>
  00012	8b f0		 mov	 esi, eax

; 138  : 
; 139  : 	if (iData == end())

  00014	3b 37		 cmp	 esi, DWORD PTR [edi]
  00016	75 04		 jne	 SHORT $L105422

; 140  : 	{
; 141  : 		//   
; 142  : 		return false;

  00018	32 c0		 xor	 al, al
  0001a	eb 23		 jmp	 SHORT $L105418
$L105422:

; 143  : 	}
; 144  : 
; 145  : 	//   .
; 146  : 	delete (*iData).second;

  0001c	8b 5e 14	 mov	 ebx, DWORD PTR [esi+20]
  0001f	85 db		 test	 ebx, ebx
  00021	74 0e		 je	 SHORT $L110313
  00023	8b cb		 mov	 ecx, ebx
  00025	e8 00 00 00 00	 call	 ??1SERVERNPC_INFO@@QAE@XZ
  0002a	53		 push	 ebx
  0002b	e8 00 00 00 00	 call	 ??3@YAXPAX@Z		; operator delete
  00030	59		 pop	 ecx
$L110313:

; 147  : 
; 148  : 	erase( iData );

  00031	51		 push	 ecx
  00032	8b c4		 mov	 eax, esp
  00034	8b cf		 mov	 ecx, edi
  00036	89 30		 mov	 DWORD PTR [eax], esi
  00038	e8 00 00 00 00	 call	 ?erase@?$_Rb_tree@IU?$pair@$$CBIPAVSERVERNPC_INFO@@@_STL@@U?$_Select1st@U?$pair@$$CBIPAVSERVERNPC_INFO@@@_STL@@@2@U?$less@I@2@V?$allocator@U?$pair@$$CBIPAVSERVERNPC_INFO@@@_STL@@@2@@_STL@@QAEXU?$_Rb_tree_iterator@U?$pair@$$CBIPAVSERVERNPC_INFO@@@_STL@@U?$_Nonconst_traits@U?$pair@$$CBIPAVSERVERNPC_INFO@@@_STL@@@2@@2@@Z ; _STL::_Rb_tree<unsigned int,_STL::pair<unsigned int const ,SERVERNPC_INFO *>,_STL::_Select1st<_STL::pair<unsigned int const ,SERVERNPC_INFO *> >,_STL::less<unsigned int>,_STL::allocator<_STL::pair<unsigned int const ,SERVERNPC_INFO *> > >::erase

; 149  : 
; 150  : 	return true;

  0003d	b0 01		 mov	 al, 1
$L105418:

; 151  : }

  0003f	5f		 pop	 edi
  00040	5e		 pop	 esi
  00041	5b		 pop	 ebx
  00042	c2 04 00	 ret	 4
?RemoveData@?$CTypeMap@VSERVERNPC_INFO@@@@UAE_NI@Z ENDP	; CTypeMap<SERVERNPC_INFO>::RemoveData
; Function compile flags: /Ogsy
; File c:\stlport-4.6.1\stlport\stl\_tree.h
_TEXT	ENDS
;	COMDAT ?erase@?$_Rb_tree@IU?$pair@$$CBIPAVSERVERNPC_INFO@@@_STL@@U?$_Select1st@U?$pair@$$CBIPAVSERVERNPC_INFO@@@_STL@@@2@U?$less@I@2@V?$allocator@U?$pair@$$CBIPAVSERVERNPC_INFO@@@_STL@@@2@@_STL@@QAEXU?$_Rb_tree_iterator@U?$pair@$$CBIPAVSERVERNPC_INFO@@@_STL@@U?$_Nonconst_traits@U?$pair@$$CBIPAVSERVERNPC_INFO@@@_STL@@@2@@2@@Z
_TEXT	SEGMENT
___position$ = 8					; size = 4
?erase@?$_Rb_tree@IU?$pair@$$CBIPAVSERVERNPC_INFO@@@_STL@@U?$_Select1st@U?$pair@$$CBIPAVSERVERNPC_INFO@@@_STL@@@2@U?$less@I@2@V?$allocator@U?$pair@$$CBIPAVSERVERNPC_INFO@@@_STL@@@2@@_STL@@QAEXU?$_Rb_tree_iterator@U?$pair@$$CBIPAVSERVERNPC_INFO@@@_STL@@U?$_Nonconst_traits@U?$pair@$$CBIPAVSERVERNPC_INFO@@@_STL@@@2@@2@@Z PROC NEAR ; _STL::_Rb_tree<unsigned int,_STL::pair<unsigned int const ,SERVERNPC_INFO *>,_STL::_Select1st<_STL::pair<unsigned int const ,SERVERNPC_INFO *> >,_STL::less<unsigned int>,_STL::allocator<_STL::pair<unsigned int const ,SERVERNPC_INFO *> > >::erase, COMDAT
; _this$ = ecx

; 416  :   void erase(iterator __position) {

  00000	56		 push	 esi
  00001	8b f1		 mov	 esi, ecx

; 417  :     _Link_type __y = 
; 418  :       (_Link_type) _Rb_global_inst::_Rebalance_for_erase(__position._M_node,
; 419  : 							 this->_M_header._M_data->_M_parent,
; 420  : 							 this->_M_header._M_data->_M_left,
; 421  : 							 this->_M_header._M_data->_M_right);

  00003	8b 06		 mov	 eax, DWORD PTR [esi]
  00005	8d 48 0c	 lea	 ecx, DWORD PTR [eax+12]
  00008	51		 push	 ecx
  00009	8d 48 08	 lea	 ecx, DWORD PTR [eax+8]
  0000c	51		 push	 ecx
  0000d	83 c0 04	 add	 eax, 4
  00010	50		 push	 eax
  00011	ff 74 24 14	 push	 DWORD PTR ___position$[esp+12]
  00015	e8 00 00 00 00	 call	 ?_Rebalance_for_erase@?$_Rb_global@_N@_STL@@SAPAU_Rb_tree_node_base@2@PAU32@AAPAU32@11@Z ; _STL::_Rb_global<bool>::_Rebalance_for_erase
  0001a	83 c4 10	 add	 esp, 16			; 00000010H

; 422  :     _STLP_STD::_Destroy(&__y->_M_value_field);
; 423  :     this->_M_header.deallocate(__y,1);

  0001d	6a 01		 push	 1
  0001f	50		 push	 eax
  00020	8b ce		 mov	 ecx, esi
  00022	e8 00 00 00 00	 call	 ?deallocate@?$allocator@U?$_Rb_tree_node@U?$pair@$$CBIPAVSERVERNPC_INFO@@@_STL@@@_STL@@@_STL@@QAEXPAU?$_Rb_tree_node@U?$pair@$$CBIPAVSERVERNPC_INFO@@@_STL@@@2@I@Z ; _STL::allocator<_STL::_Rb_tree_node<_STL::pair<unsigned int const ,SERVERNPC_INFO *> > >::deallocate

; 424  :     --_M_node_count;

  00027	ff 4e 04	 dec	 DWORD PTR [esi+4]
  0002a	5e		 pop	 esi

; 425  :   }

  0002b	c2 04 00	 ret	 4
?erase@?$_Rb_tree@IU?$pair@$$CBIPAVSERVERNPC_INFO@@@_STL@@U?$_Select1st@U?$pair@$$CBIPAVSERVERNPC_INFO@@@_STL@@@2@U?$less@I@2@V?$allocator@U?$pair@$$CBIPAVSERVERNPC_INFO@@@_STL@@@2@@_STL@@QAEXU?$_Rb_tree_iterator@U?$pair@$$CBIPAVSERVERNPC_INFO@@@_STL@@U?$_Nonconst_traits@U?$pair@$$CBIPAVSERVERNPC_INFO@@@_STL@@@2@@2@@Z ENDP ; _STL::_Rb_tree<unsigned int,_STL::pair<unsigned int const ,SERVERNPC_INFO *>,_STL::_Select1st<_STL::pair<unsigned int const ,SERVERNPC_INFO *> >,_STL::less<unsigned int>,_STL::allocator<_STL::pair<unsigned int const ,SERVERNPC_INFO *> > >::erase
_TEXT	ENDS
PUBLIC	??0SERVERNPC_INFO@@QAE@XZ			; SERVERNPC_INFO::SERVERNPC_INFO
;	COMDAT xdata$x
xdata$x	SEGMENT
$T110432 DD	0ffffffffH
	DD	FLAT:$L110395
$T110426 DD	019930520H
	DD	01H
	DD	FLAT:$T110432
	DD	2 DUP(00H)
	DD	2 DUP(00H)
; Function compile flags: /Ogsy
; File c:\darkeden\designed_common\project\client\ctypemap.h
xdata$x	ENDS
;	COMDAT ?LoadFromFile@?$CTypeMap@VSERVERNPC_INFO@@@@UAEXAAVivfstream@@@Z
_TEXT	SEGMENT
$T110388 = -24						; size = 4
_id$ = -20						; size = 4
_infoSize$ = -16					; size = 4
__$EHRec$ = -12						; size = 12
_i$105451 = 8						; size = 4
_file$ = 8						; size = 4
?LoadFromFile@?$CTypeMap@VSERVERNPC_INFO@@@@UAEXAAVivfstream@@@Z PROC NEAR ; CTypeMap<SERVERNPC_INFO>::LoadFromFile, COMDAT
; _this$ = ecx

; 189  : {

  00000	b8 00 00 00 00	 mov	 eax, __ehhandler$?LoadFromFile@?$CTypeMap@VSERVERNPC_INFO@@@@UAEXAAVivfstream@@@Z
  00005	e8 00 00 00 00	 call	 __EH_prolog
  0000a	83 ec 0c	 sub	 esp, 12			; 0000000cH
  0000d	53		 push	 ebx
  0000e	56		 push	 esi
  0000f	8b d9		 mov	 ebx, ecx

; 190  : 	//-----------------------------------------------------
; 191  : 	//   
; 192  : 	//-----------------------------------------------------
; 193  : 	Release();

  00011	8b 03		 mov	 eax, DWORD PTR [ebx]
  00013	57		 push	 edi
  00014	ff 50 04	 call	 DWORD PTR [eax+4]

; 194  : 
; 195  : 	//-----------------------------------------------------
; 196  : 	// size 
; 197  : 	//-----------------------------------------------------
; 198  : 	int infoSize;
; 199  : 	file.read((char*)&infoSize, 4);

  00017	8b 75 08	 mov	 esi, DWORD PTR _file$[ebp]
  0001a	33 ff		 xor	 edi, edi
  0001c	39 7e 04	 cmp	 DWORD PTR [esi+4], edi
  0001f	74 0e		 je	 SHORT $L110429
  00021	8b 4e 04	 mov	 ecx, DWORD PTR [esi+4]
  00024	8b 01		 mov	 eax, DWORD PTR [ecx]
  00026	6a 04		 push	 4
  00028	8d 55 f0	 lea	 edx, DWORD PTR _infoSize$[ebp]
  0002b	52		 push	 edx
  0002c	ff 50 10	 call	 DWORD PTR [eax+16]
$L110429:

; 200  : 
; 201  : 	//-----------------------------------------------------
; 202  : 	//  info
; 203  : 	//-----------------------------------------------------
; 204  : 	unsigned int id;
; 205  : 	for (int i=0; i<infoSize; i++)

  0002f	39 7d f0	 cmp	 DWORD PTR _infoSize$[ebp], edi
  00032	89 7d 08	 mov	 DWORD PTR _i$105451[ebp], edi
  00035	7e 6a		 jle	 SHORT $L105454
  00037	eb 02		 jmp	 SHORT $L105452
$L110430:
  00039	33 ff		 xor	 edi, edi
$L105452:

; 206  : 	{		
; 207  : 		file.read((char*)&id, 4);

  0003b	39 7e 04	 cmp	 DWORD PTR [esi+4], edi
  0003e	74 0e		 je	 SHORT $L110403
  00040	8b 4e 04	 mov	 ecx, DWORD PTR [esi+4]
  00043	8b 01		 mov	 eax, DWORD PTR [ecx]
  00045	6a 04		 push	 4
  00047	8d 55 ec	 lea	 edx, DWORD PTR _id$[ebp]
  0004a	52		 push	 edx
  0004b	ff 50 10	 call	 DWORD PTR [eax+16]
$L110403:

; 208  : 		DataType*	pData = new DataType;

  0004e	6a 1c		 push	 28			; 0000001cH
  00050	e8 00 00 00 00	 call	 ??2@YAPAXI@Z		; operator new
  00055	59		 pop	 ecx
  00056	89 45 e8	 mov	 DWORD PTR $T110388[ebp], eax
  00059	3b c7		 cmp	 eax, edi
  0005b	89 7d fc	 mov	 DWORD PTR __$EHRec$[ebp+8], edi
  0005e	74 09		 je	 SHORT $L110390
  00060	8b c8		 mov	 ecx, eax
  00062	e8 00 00 00 00	 call	 ??0SERVERNPC_INFO@@QAE@XZ
  00067	8b f8		 mov	 edi, eax
$L110390:
  00069	83 4d fc ff	 or	 DWORD PTR __$EHRec$[ebp+8], -1

; 209  : 
; 210  : 		pData->LoadFromFile( file );

  0006d	56		 push	 esi
  0006e	8b cf		 mov	 ecx, edi
  00070	e8 00 00 00 00	 call	 ?LoadFromFile@SERVERNPC_INFO@@QAEXAAVivfstream@@@Z ; SERVERNPC_INFO::LoadFromFile

; 211  : 
; 212  : 		//-----------------------------------------------------
; 213  : 		// map .
; 214  : 		//-----------------------------------------------------
; 215  : 		if (!AddData( id, pData ))

  00075	8b 03		 mov	 eax, DWORD PTR [ebx]
  00077	57		 push	 edi
  00078	ff 75 ec	 push	 DWORD PTR _id$[ebp]
  0007b	8b cb		 mov	 ecx, ebx
  0007d	ff 50 08	 call	 DWORD PTR [eax+8]
  00080	84 c0		 test	 al, al
  00082	75 12		 jne	 SHORT $L105453

; 216  : 		{
; 217  : 			delete pData;

  00084	85 ff		 test	 edi, edi
  00086	74 0e		 je	 SHORT $L105453
  00088	8b cf		 mov	 ecx, edi
  0008a	e8 00 00 00 00	 call	 ??1SERVERNPC_INFO@@QAE@XZ
  0008f	57		 push	 edi
  00090	e8 00 00 00 00	 call	 ??3@YAXPAX@Z		; operator delete
  00095	59		 pop	 ecx
$L105453:
  00096	ff 45 08	 inc	 DWORD PTR _i$105451[ebp]
  00099	8b 45 08	 mov	 eax, DWORD PTR _i$105451[ebp]
  0009c	3b 45 f0	 cmp	 eax, DWORD PTR _infoSize$[ebp]
  0009f	7c 98		 jl	 SHORT $L110430
$L105454:

; 218  : 		}
; 219  : 	}
; 220  : }

  000a1	8b 4d f4	 mov	 ecx, DWORD PTR __$EHRec$[ebp]
  000a4	5f		 pop	 edi
  000a5	5e		 pop	 esi
  000a6	5b		 pop	 ebx
  000a7	64 89 0d 00 00
	00 00		 mov	 DWORD PTR fs:__except_list, ecx
  000ae	c9		 leave
  000af	c2 04 00	 ret	 4
_TEXT	ENDS
;	COMDAT text$x
text$x	SEGMENT
$L110395:
  00000	ff 75 e8	 push	 DWORD PTR $T110388[ebp]
  00003	e8 00 00 00 00	 call	 ??3@YAXPAX@Z		; operator delete
  00008	59		 pop	 ecx
  00009	c3		 ret	 0
__ehhandler$?LoadFromFile@?$CTypeMap@VSERVERNPC_INFO@@@@UAEXAAVivfstream@@@Z:
  0000a	b8 00 00 00 00	 mov	 eax, OFFSET FLAT:$T110426
  0000f	e9 00 00 00 00	 jmp	 ___CxxFrameHandler
text$x	ENDS
?LoadFromFile@?$CTypeMap@VSERVERNPC_INFO@@@@UAEXAAVivfstream@@@Z ENDP ; CTypeMap<SERVERNPC_INFO>::LoadFromFile
;	COMDAT xdata$x
xdata$x	SEGMENT
$T110454 DD	0ffffffffH
	DD	FLAT:$L110438
	DD	00H
	DD	FLAT:$L110439
$T110452 DD	019930520H
	DD	02H
	DD	FLAT:$T110454
	DD	2 DUP(00H)
	DD	2 DUP(00H)
; Function compile flags: /Ogsy
xdata$x	ENDS
;	COMDAT ??0SERVERNPC_INFO@@QAE@XZ
_TEXT	SEGMENT
_this$ = -20						; size = 4
$T110437 = -13						; size = 1
__$EHRec$ = -12						; size = 12
??0SERVERNPC_INFO@@QAE@XZ PROC NEAR			; SERVERNPC_INFO::SERVERNPC_INFO, COMDAT
; _this$ = ecx
  00000	b8 00 00 00 00	 mov	 eax, __ehhandler$??0SERVERNPC_INFO@@QAE@XZ
  00005	e8 00 00 00 00	 call	 __EH_prolog
  0000a	51		 push	 ecx
  0000b	51		 push	 ecx
  0000c	56		 push	 esi
  0000d	8d 45 f3	 lea	 eax, DWORD PTR $T110437[ebp]
  00010	8b f1		 mov	 esi, ecx
  00012	50		 push	 eax
  00013	89 75 ec	 mov	 DWORD PTR _this$[ebp], esi
  00016	e8 00 00 00 00	 call	 ??0?$_List_base@IV?$allocator@I@_STL@@@_STL@@QAE@ABV?$allocator@I@1@@Z ; _STL::_List_base<unsigned int,_STL::allocator<unsigned int> >::_List_base<unsigned int,_STL::allocator<unsigned int> >
  0001b	83 65 fc 00	 and	 DWORD PTR __$EHRec$[ebp+8], 0
  0001f	8d 4e 04	 lea	 ecx, DWORD PTR [esi+4]
  00022	e8 00 00 00 00	 call	 ??0MString@@QAE@XZ	; MString::MString
  00027	8d 4e 10	 lea	 ecx, DWORD PTR [esi+16]
  0002a	c6 45 fc 01	 mov	 BYTE PTR __$EHRec$[ebp+8], 1
  0002e	e8 00 00 00 00	 call	 ??0MString@@QAE@XZ	; MString::MString
  00033	8b 4d f4	 mov	 ecx, DWORD PTR __$EHRec$[ebp]
  00036	8b c6		 mov	 eax, esi
  00038	5e		 pop	 esi
  00039	64 89 0d 00 00
	00 00		 mov	 DWORD PTR fs:__except_list, ecx
  00040	c9		 leave
  00041	c3		 ret	 0
_TEXT	ENDS
;	COMDAT text$x
text$x	SEGMENT
$L110438:
  00000	8b 4d ec	 mov	 ecx, DWORD PTR _this$[ebp]
  00003	e9 00 00 00 00	 jmp	 ??1?$list@IV?$allocator@I@_STL@@@_STL@@QAE@XZ ; _STL::list<unsigned int,_STL::allocator<unsigned int> >::~list<unsigned int,_STL::allocator<unsigned int> >
$L110439:
  00008	8b 4d ec	 mov	 ecx, DWORD PTR _this$[ebp]
  0000b	83 c1 04	 add	 ecx, 4
  0000e	e9 00 00 00 00	 jmp	 ??1MString@@UAE@XZ	; MString::~MString
__ehhandler$??0SERVERNPC_INFO@@QAE@XZ:
  00013	b8 00 00 00 00	 mov	 eax, OFFSET FLAT:$T110452
  00018	e9 00 00 00 00	 jmp	 ___CxxFrameHandler
text$x	ENDS
??0SERVERNPC_INFO@@QAE@XZ ENDP				; SERVERNPC_INFO::SERVERNPC_INFO
PUBLIC	??A?$map@HHU?$less@H@_STL@@V?$allocator@U?$pair@$$CBHH@_STL@@@2@@_STL@@QAEAAHABH@Z ; _STL::map<int,int,_STL::less<int>,_STL::allocator<_STL::pair<int const ,int> > >::operator[]
; Function compile flags: /Ogsy
; File c:\stlport-4.6.1\stlport\stl\_map.h
;	COMDAT ??A?$map@HHU?$less@H@_STL@@V?$allocator@U?$pair@$$CBHH@_STL@@@2@@_STL@@QAEAAHABH@Z
_TEXT	SEGMENT
$T110461 = -8						; size = 8
$T110464 = 8						; size = 4
___k$ = 8						; size = 4
??A?$map@HHU?$less@H@_STL@@V?$allocator@U?$pair@$$CBHH@_STL@@@2@@_STL@@QAEAAHABH@Z PROC NEAR ; _STL::map<int,int,_STL::less<int>,_STL::allocator<_STL::pair<int const ,int> > >::operator[], COMDAT
; _this$ = ecx

; 158  :   _Tp& operator[](const key_type& __k) {

  00000	55		 push	 ebp
  00001	8b ec		 mov	 ebp, esp
  00003	51		 push	 ecx
  00004	51		 push	 ecx
  00005	56		 push	 esi

; 159  :     iterator __i = lower_bound(__k);

  00006	8b 75 08	 mov	 esi, DWORD PTR ___k$[ebp]
  00009	57		 push	 edi
  0000a	56		 push	 esi
  0000b	8b f9		 mov	 edi, ecx
  0000d	e8 00 00 00 00	 call	 ?_M_lower_bound@?$_Rb_tree@HU?$pair@$$CBHH@_STL@@U?$_Select1st@U?$pair@$$CBHH@_STL@@@2@U?$less@H@2@V?$allocator@U?$pair@$$CBHH@_STL@@@2@@_STL@@ABEPAU?$_Rb_tree_node@U?$pair@$$CBHH@_STL@@@2@ABH@Z ; _STL::_Rb_tree<int,_STL::pair<int const ,int>,_STL::_Select1st<_STL::pair<int const ,int> >,_STL::less<int>,_STL::allocator<_STL::pair<int const ,int> > >::_M_lower_bound

; 160  :     // __i->first is greater than or equivalent to __k.
; 161  :     if (__i == end() || key_comp()(__k, (*__i).first))

  00012	3b 07		 cmp	 eax, DWORD PTR [edi]
  00014	74 07		 je	 SHORT $L104683
  00016	8b 0e		 mov	 ecx, DWORD PTR [esi]
  00018	3b 48 10	 cmp	 ecx, DWORD PTR [eax+16]
  0001b	7d 1f		 jge	 SHORT $L104682
$L104683:

; 162  :       __i = insert(__i, value_type(__k, _STLP_DEFAULT_CONSTRUCTED(_Tp)));

  0001d	8b 0e		 mov	 ecx, DWORD PTR [esi]
  0001f	83 65 fc 00	 and	 DWORD PTR $T110461[ebp+4], 0
  00023	89 4d f8	 mov	 DWORD PTR $T110461[ebp], ecx
  00026	8d 4d f8	 lea	 ecx, DWORD PTR $T110461[ebp]
  00029	51		 push	 ecx
  0002a	51		 push	 ecx
  0002b	8b cc		 mov	 ecx, esp
  0002d	89 01		 mov	 DWORD PTR [ecx], eax
  0002f	8d 45 08	 lea	 eax, DWORD PTR $T110464[ebp]
  00032	50		 push	 eax
  00033	8b cf		 mov	 ecx, edi
  00035	e8 00 00 00 00	 call	 ?insert@?$map@HHU?$less@H@_STL@@V?$allocator@U?$pair@$$CBHH@_STL@@@2@@_STL@@QAE?AU?$_Rb_tree_iterator@U?$pair@$$CBHH@_STL@@U?$_Nonconst_traits@U?$pair@$$CBHH@_STL@@@2@@2@U32@ABU?$pair@$$CBHH@2@@Z ; _STL::map<int,int,_STL::less<int>,_STL::allocator<_STL::pair<int const ,int> > >::insert
  0003a	8b 00		 mov	 eax, DWORD PTR [eax]
$L104682:

; 163  :     return (*__i).second;
; 164  :   }

  0003c	5f		 pop	 edi
  0003d	83 c0 14	 add	 eax, 20			; 00000014H
  00040	5e		 pop	 esi
  00041	c9		 leave
  00042	c2 04 00	 ret	 4
??A?$map@HHU?$less@H@_STL@@V?$allocator@U?$pair@$$CBHH@_STL@@@2@@_STL@@QAEAAHABH@Z ENDP ; _STL::map<int,int,_STL::less<int>,_STL::allocator<_STL::pair<int const ,int> > >::operator[]
_TEXT	ENDS
PUBLIC	??1?$CTypeMap@VNPC_INFO@@@@UAE@XZ		; CTypeMap<NPC_INFO>::~CTypeMap<NPC_INFO>
;	COMDAT xdata$x
; File c:\stlport-4.6.1\stlport\stl\_tree.h
xdata$x	SEGMENT
$T110535 DD	0ffffffffH
	DD	FLAT:$L110526
$T110533 DD	019930520H
	DD	01H
	DD	FLAT:$T110535
	DD	2 DUP(00H)
	DD	2 DUP(00H)
; Function compile flags: /Ogsy
; File c:\darkeden\designed_common\project\client\ctypemap.h
xdata$x	ENDS
;	COMDAT ??1?$CTypeMap@VNPC_INFO@@@@UAE@XZ
_TEXT	SEGMENT
_this$ = -16						; size = 4
__$EHRec$ = -12						; size = 12
??1?$CTypeMap@VNPC_INFO@@@@UAE@XZ PROC NEAR		; CTypeMap<NPC_INFO>::~CTypeMap<NPC_INFO>, COMDAT
; _this$ = ecx

; 62   : {

  00000	b8 00 00 00 00	 mov	 eax, __ehhandler$??1?$CTypeMap@VNPC_INFO@@@@UAE@XZ
  00005	e8 00 00 00 00	 call	 __EH_prolog
  0000a	51		 push	 ecx
  0000b	56		 push	 esi
  0000c	8b f1		 mov	 esi, ecx
  0000e	89 75 f0	 mov	 DWORD PTR _this$[ebp], esi
  00011	c7 06 00 00 00
	00		 mov	 DWORD PTR [esi], OFFSET FLAT:??_7?$CTypeMap@VNPC_INFO@@@@6B@
  00017	83 65 fc 00	 and	 DWORD PTR __$EHRec$[ebp+8], 0

; 63   : 	Release();

  0001b	e8 00 00 00 00	 call	 ?Release@?$CTypeMap@VNPC_INFO@@@@UAEXXZ ; CTypeMap<NPC_INFO>::Release

; 64   : }

  00020	83 4d fc ff	 or	 DWORD PTR __$EHRec$[ebp+8], -1
  00024	8d 4e 04	 lea	 ecx, DWORD PTR [esi+4]
  00027	e8 00 00 00 00	 call	 ??1?$_Rb_tree@IU?$pair@$$CBIPAVNPC_INFO@@@_STL@@U?$_Select1st@U?$pair@$$CBIPAVNPC_INFO@@@_STL@@@2@U?$less@I@2@V?$allocator@U?$pair@$$CBIPAVNPC_INFO@@@_STL@@@2@@_STL@@QAE@XZ ; _STL::_Rb_tree<unsigned int,_STL::pair<unsigned int const ,NPC_INFO *>,_STL::_Select1st<_STL::pair<unsigned int const ,NPC_INFO *> >,_STL::less<unsigned int>,_STL::allocator<_STL::pair<unsigned int const ,NPC_INFO *> > >::~_Rb_tree<unsigned int,_STL::pair<unsigned int const ,NPC_INFO *>,_STL::_Select1st<_STL::pair<unsigned int const ,NPC_INFO *> >,_STL::less<unsigned int>,_STL::allocator<_STL::pair<unsigned int const ,NPC_INFO *> > >
  0002c	8b 4d f4	 mov	 ecx, DWORD PTR __$EHRec$[ebp]
  0002f	5e		 pop	 esi
  00030	64 89 0d 00 00
	00 00		 mov	 DWORD PTR fs:__except_list, ecx
  00037	c9		 leave
  00038	c3		 ret	 0
_TEXT	ENDS
;	COMDAT text$x
text$x	SEGMENT
$L110526:
  00000	8b 4d f0	 mov	 ecx, DWORD PTR _this$[ebp]
  00003	8b 45 f0	 mov	 eax, DWORD PTR _this$[ebp]
  00006	83 c0 04	 add	 eax, 4
  00009	f7 d9		 neg	 ecx
  0000b	1b c9		 sbb	 ecx, ecx
  0000d	23 c8		 and	 ecx, eax
  0000f	e9 00 00 00 00	 jmp	 ??1?$map@IPAVNPC_INFO@@U?$less@I@_STL@@V?$allocator@U?$pair@$$CBIPAVNPC_INFO@@@_STL@@@3@@_STL@@QAE@XZ
__ehhandler$??1?$CTypeMap@VNPC_INFO@@@@UAE@XZ:
  00014	b8 00 00 00 00	 mov	 eax, OFFSET FLAT:$T110533
  00019	e9 00 00 00 00	 jmp	 ___CxxFrameHandler
text$x	ENDS
??1?$CTypeMap@VNPC_INFO@@@@UAE@XZ ENDP			; CTypeMap<NPC_INFO>::~CTypeMap<NPC_INFO>
PUBLIC	?insert_unique@?$_Rb_tree@IU?$pair@$$CBIPAVNPC_INFO@@@_STL@@U?$_Select1st@U?$pair@$$CBIPAVNPC_INFO@@@_STL@@@2@U?$less@I@2@V?$allocator@U?$pair@$$CBIPAVNPC_INFO@@@_STL@@@2@@_STL@@QAE?AU?$pair@U?$_Rb_tree_iterator@U?$pair@$$CBIPAVNPC_INFO@@@_STL@@U?$_Nonconst_traits@U?$pair@$$CBIPAVNPC_INFO@@@_STL@@@2@@_STL@@_N@2@ABU?$pair@$$CBIPAVNPC_INFO@@@2@@Z ; _STL::_Rb_tree<unsigned int,_STL::pair<unsigned int const ,NPC_INFO *>,_STL::_Select1st<_STL::pair<unsigned int const ,NPC_INFO *> >,_STL::less<unsigned int>,_STL::allocator<_STL::pair<unsigned int const ,NPC_INFO *> > >::insert_unique
; Function compile flags: /Ogsy
;	COMDAT ?AddData@?$CTypeMap@VNPC_INFO@@@@UAE_NIPAVNPC_INFO@@@Z
_TEXT	SEGMENT
$T110542 = -16						; size = 8
$T110541 = -8						; size = 8
_id$ = 8						; size = 4
_pData$ = 12						; size = 4
?AddData@?$CTypeMap@VNPC_INFO@@@@UAE_NIPAVNPC_INFO@@@Z PROC NEAR ; CTypeMap<NPC_INFO>::AddData, COMDAT
; _this$ = ecx

; 93   : {

  00000	55		 push	 ebp
  00001	8b ec		 mov	 ebp, esp
  00003	83 ec 10	 sub	 esp, 16			; 00000010H
  00006	56		 push	 esi

; 94   : 	TYPE_MAP::iterator	iData = find( id );

  00007	8d 71 04	 lea	 esi, DWORD PTR [ecx+4]
  0000a	8d 45 08	 lea	 eax, DWORD PTR _id$[ebp]
  0000d	50		 push	 eax
  0000e	8b ce		 mov	 ecx, esi
  00010	e8 00 00 00 00	 call	 ??$_M_find@I@?$_Rb_tree@IU?$pair@$$CBIPAVNPC_INFO@@@_STL@@U?$_Select1st@U?$pair@$$CBIPAVNPC_INFO@@@_STL@@@2@U?$less@I@2@V?$allocator@U?$pair@$$CBIPAVNPC_INFO@@@_STL@@@2@@_STL@@ABEPAU?$_Rb_tree_node@U?$pair@$$CBIPAVNPC_INFO@@@_STL@@@1@ABI@Z ; _STL::_Rb_tree<unsigned int,_STL::pair<unsigned int const ,NPC_INFO *>,_STL::_Select1st<_STL::pair<unsigned int const ,NPC_INFO *> >,_STL::less<unsigned int>,_STL::allocator<_STL::pair<unsigned int const ,NPC_INFO *> > >::_M_find<unsigned int>

; 95   : 
; 96   : 	if (iData != end())

  00015	3b 06		 cmp	 eax, DWORD PTR [esi]
  00017	74 04		 je	 SHORT $L105271

; 97   : 	{
; 98   : 		//   
; 99   : 		// pData  .
; 100  : 		return false;

  00019	32 c0		 xor	 al, al
  0001b	eb 1d		 jmp	 SHORT $L105267
$L105271:

; 101  : 	}
; 102  : 
; 103  : 	//------------------------------------------------------
; 104  : 	//   --> 
; 105  : 	//------------------------------------------------------
; 106  : 	insert(TYPE_MAP::value_type(id, pData));

  0001d	8b 45 08	 mov	 eax, DWORD PTR _id$[ebp]
  00020	89 45 f8	 mov	 DWORD PTR $T110541[ebp], eax
  00023	8b 45 0c	 mov	 eax, DWORD PTR _pData$[ebp]
  00026	89 45 fc	 mov	 DWORD PTR $T110541[ebp+4], eax
  00029	8d 45 f8	 lea	 eax, DWORD PTR $T110541[ebp]
  0002c	50		 push	 eax
  0002d	8d 45 f0	 lea	 eax, DWORD PTR $T110542[ebp]
  00030	50		 push	 eax
  00031	8b ce		 mov	 ecx, esi
  00033	e8 00 00 00 00	 call	 ?insert_unique@?$_Rb_tree@IU?$pair@$$CBIPAVNPC_INFO@@@_STL@@U?$_Select1st@U?$pair@$$CBIPAVNPC_INFO@@@_STL@@@2@U?$less@I@2@V?$allocator@U?$pair@$$CBIPAVNPC_INFO@@@_STL@@@2@@_STL@@QAE?AU?$pair@U?$_Rb_tree_iterator@U?$pair@$$CBIPAVNPC_INFO@@@_STL@@U?$_Nonconst_traits@U?$pair@$$CBIPAVNPC_INFO@@@_STL@@@2@@_STL@@_N@2@ABU?$pair@$$CBIPAVNPC_INFO@@@2@@Z ; _STL::_Rb_tree<unsigned int,_STL::pair<unsigned int const ,NPC_INFO *>,_STL::_Select1st<_STL::pair<unsigned int const ,NPC_INFO *> >,_STL::less<unsigned int>,_STL::allocator<_STL::pair<unsigned int const ,NPC_INFO *> > >::insert_unique

; 107  : 
; 108  : 	return true;

  00038	b0 01		 mov	 al, 1
$L105267:
  0003a	5e		 pop	 esi

; 109  : }

  0003b	c9		 leave
  0003c	c2 08 00	 ret	 8
?AddData@?$CTypeMap@VNPC_INFO@@@@UAE_NIPAVNPC_INFO@@@Z ENDP ; CTypeMap<NPC_INFO>::AddData
_TEXT	ENDS
PUBLIC	?_M_insert@?$_Rb_tree@IU?$pair@$$CBIPAVNPC_INFO@@@_STL@@U?$_Select1st@U?$pair@$$CBIPAVNPC_INFO@@@_STL@@@2@U?$less@I@2@V?$allocator@U?$pair@$$CBIPAVNPC_INFO@@@_STL@@@2@@_STL@@AAE?AU?$_Rb_tree_iterator@U?$pair@$$CBIPAVNPC_INFO@@@_STL@@U?$_Nonconst_traits@U?$pair@$$CBIPAVNPC_INFO@@@_STL@@@2@@2@PAU_Rb_tree_node_base@2@0ABU?$pair@$$CBIPAVNPC_INFO@@@2@0@Z ; _STL::_Rb_tree<unsigned int,_STL::pair<unsigned int const ,NPC_INFO *>,_STL::_Select1st<_STL::pair<unsigned int const ,NPC_INFO *> >,_STL::less<unsigned int>,_STL::allocator<_STL::pair<unsigned int const ,NPC_INFO *> > >::_M_insert
; Function compile flags: /Ogsy
; File c:\stlport-4.6.1\stlport\stl\_tree.c
;	COMDAT ?insert_unique@?$_Rb_tree@IU?$pair@$$CBIPAVNPC_INFO@@@_STL@@U?$_Select1st@U?$pair@$$CBIPAVNPC_INFO@@@_STL@@@2@U?$less@I@2@V?$allocator@U?$pair@$$CBIPAVNPC_INFO@@@_STL@@@2@@_STL@@QAE?AU?$pair@U?$_Rb_tree_iterator@U?$pair@$$CBIPAVNPC_INFO@@@_STL@@U?$_Nonconst_traits@U?$pair@$$CBIPAVNPC_INFO@@@_STL@@@2@@_STL@@_N@2@ABU?$pair@$$CBIPAVNPC_INFO@@@2@@Z
_TEXT	SEGMENT
___$ReturnUdt$ = 8					; size = 4
$T110594 = 12						; size = 4
___v$ = 12						; size = 4
?insert_unique@?$_Rb_tree@IU?$pair@$$CBIPAVNPC_INFO@@@_STL@@U?$_Select1st@U?$pair@$$CBIPAVNPC_INFO@@@_STL@@@2@U?$less@I@2@V?$allocator@U?$pair@$$CBIPAVNPC_INFO@@@_STL@@@2@@_STL@@QAE?AU?$pair@U?$_Rb_tree_iterator@U?$pair@$$CBIPAVNPC_INFO@@@_STL@@U?$_Nonconst_traits@U?$pair@$$CBIPAVNPC_INFO@@@_STL@@@2@@_STL@@_N@2@ABU?$pair@$$CBIPAVNPC_INFO@@@2@@Z PROC NEAR ; _STL::_Rb_tree<unsigned int,_STL::pair<unsigned int const ,NPC_INFO *>,_STL::_Select1st<_STL::pair<unsigned int const ,NPC_INFO *> >,_STL::less<unsigned int>,_STL::allocator<_STL::pair<unsigned int const ,NPC_INFO *> > >::insert_unique, COMDAT
; _this$ = ecx

; 401  : {

  00000	55		 push	 ebp
  00001	8b ec		 mov	 ebp, esp
  00003	53		 push	 ebx
  00004	8b d9		 mov	 ebx, ecx

; 402  :   _Link_type __y = this->_M_header._M_data;

  00006	8b 0b		 mov	 ecx, DWORD PTR [ebx]
  00008	56		 push	 esi

; 403  :   _Link_type __x = _M_root();

  00009	8b 71 04	 mov	 esi, DWORD PTR [ecx+4]

; 404  :   bool __comp = true;
; 405  :   while (__x != 0) {

  0000c	85 f6		 test	 esi, esi
  0000e	57		 push	 edi
  0000f	8b f9		 mov	 edi, ecx
  00011	b2 01		 mov	 dl, 1
  00013	74 1d		 je	 SHORT $L110698

; 417  :     return pair<iterator,bool>(_M_insert(__x, __y, __v), true);

  00015	8b 45 0c	 mov	 eax, DWORD PTR ___v$[ebp]
  00018	8b 00		 mov	 eax, DWORD PTR [eax]
$L106101:
  0001a	3b 46 10	 cmp	 eax, DWORD PTR [esi+16]
  0001d	8b fe		 mov	 edi, esi
  0001f	0f 92 c2	 setb	 dl
  00022	84 d2		 test	 dl, dl
  00024	74 05		 je	 SHORT $L110587

; 406  :     __y = __x;
; 407  :     __comp = _M_key_compare(_KeyOfValue()(__v), _S_key(__x));
; 408  :     __x = __comp ? _S_left(__x) : _S_right(__x);

  00026	8b 76 08	 mov	 esi, DWORD PTR [esi+8]
  00029	eb 03		 jmp	 SHORT $L110588
$L110587:
  0002b	8b 76 0c	 mov	 esi, DWORD PTR [esi+12]
$L110588:

; 404  :   bool __comp = true;
; 405  :   while (__x != 0) {

  0002e	85 f6		 test	 esi, esi
  00030	75 e8		 jne	 SHORT $L106101
$L110698:

; 409  :   }
; 410  :   iterator __j = iterator(__y);   
; 411  :   if (__comp)

  00032	84 d2		 test	 dl, dl
  00034	8b c7		 mov	 eax, edi
  00036	74 15		 je	 SHORT $L110699

; 412  :     if (__j == begin())     

  00038	3b 79 08	 cmp	 edi, DWORD PTR [ecx+8]
  0003b	75 09		 jne	 SHORT $L106130

; 413  :       return pair<iterator,bool>(_M_insert(/* __x*/ __y, __y, __v), true);

  0003d	6a 00		 push	 0
  0003f	ff 75 0c	 push	 DWORD PTR ___v$[ebp]
  00042	57		 push	 edi
  00043	57		 push	 edi
  00044	eb 16		 jmp	 SHORT $L110700
$L106130:

; 414  :     else
; 415  :       --__j;

  00046	57		 push	 edi
  00047	e8 00 00 00 00	 call	 ?_M_decrement@?$_Rb_global@_N@_STL@@SAPAU_Rb_tree_node_base@2@PAU32@@Z ; _STL::_Rb_global<bool>::_M_decrement
  0004c	59		 pop	 ecx
$L110699:

; 416  :   if (_M_key_compare(_S_key(__j._M_node), _KeyOfValue()(__v)))

  0004d	8b 50 10	 mov	 edx, DWORD PTR [eax+16]
  00050	8b 4d 0c	 mov	 ecx, DWORD PTR ___v$[ebp]
  00053	3b 11		 cmp	 edx, DWORD PTR [ecx]
  00055	73 1d		 jae	 SHORT $L106136

; 417  :     return pair<iterator,bool>(_M_insert(__x, __y, __v), true);

  00057	6a 00		 push	 0
  00059	51		 push	 ecx
  0005a	57		 push	 edi
  0005b	56		 push	 esi
$L110700:
  0005c	8d 45 0c	 lea	 eax, DWORD PTR $T110594[ebp]
  0005f	50		 push	 eax
  00060	8b cb		 mov	 ecx, ebx
  00062	e8 00 00 00 00	 call	 ?_M_insert@?$_Rb_tree@IU?$pair@$$CBIPAVNPC_INFO@@@_STL@@U?$_Select1st@U?$pair@$$CBIPAVNPC_INFO@@@_STL@@@2@U?$less@I@2@V?$allocator@U?$pair@$$CBIPAVNPC_INFO@@@_STL@@@2@@_STL@@AAE?AU?$_Rb_tree_iterator@U?$pair@$$CBIPAVNPC_INFO@@@_STL@@U?$_Nonconst_traits@U?$pair@$$CBIPAVNPC_INFO@@@_STL@@@2@@2@PAU_Rb_tree_node_base@2@0ABU?$pair@$$CBIPAVNPC_INFO@@@2@0@Z ; _STL::_Rb_tree<unsigned int,_STL::pair<unsigned int const ,NPC_INFO *>,_STL::_Select1st<_STL::pair<unsigned int const ,NPC_INFO *> >,_STL::less<unsigned int>,_STL::allocator<_STL::pair<unsigned int const ,NPC_INFO *> > >::_M_insert
  00067	8b 08		 mov	 ecx, DWORD PTR [eax]
  00069	8b 45 08	 mov	 eax, DWORD PTR ___$ReturnUdt$[ebp]
  0006c	89 08		 mov	 DWORD PTR [eax], ecx
  0006e	c6 40 04 01	 mov	 BYTE PTR [eax+4], 1
  00072	eb 0b		 jmp	 SHORT $L106096
$L106136:

; 418  :   return pair<iterator,bool>(__j, false);

  00074	8b 4d 08	 mov	 ecx, DWORD PTR ___$ReturnUdt$[ebp]
  00077	89 01		 mov	 DWORD PTR [ecx], eax
  00079	c6 41 04 00	 mov	 BYTE PTR [ecx+4], 0
  0007d	8b c1		 mov	 eax, ecx
$L106096:
  0007f	5f		 pop	 edi
  00080	5e		 pop	 esi
  00081	5b		 pop	 ebx

; 419  : }

  00082	5d		 pop	 ebp
  00083	c2 08 00	 ret	 8
?insert_unique@?$_Rb_tree@IU?$pair@$$CBIPAVNPC_INFO@@@_STL@@U?$_Select1st@U?$pair@$$CBIPAVNPC_INFO@@@_STL@@@2@U?$less@I@2@V?$allocator@U?$pair@$$CBIPAVNPC_INFO@@@_STL@@@2@@_STL@@QAE?AU?$pair@U?$_Rb_tree_iterator@U?$pair@$$CBIPAVNPC_INFO@@@_STL@@U?$_Nonconst_traits@U?$pair@$$CBIPAVNPC_INFO@@@_STL@@@2@@_STL@@_N@2@ABU?$pair@$$CBIPAVNPC_INFO@@@2@@Z ENDP ; _STL::_Rb_tree<unsigned int,_STL::pair<unsigned int const ,NPC_INFO *>,_STL::_Select1st<_STL::pair<unsigned int const ,NPC_INFO *> >,_STL::less<unsigned int>,_STL::allocator<_STL::pair<unsigned int const ,NPC_INFO *> > >::insert_unique
_TEXT	ENDS
PUBLIC	?_M_create_node@?$_Rb_tree@IU?$pair@$$CBIPAVNPC_INFO@@@_STL@@U?$_Select1st@U?$pair@$$CBIPAVNPC_INFO@@@_STL@@@2@U?$less@I@2@V?$allocator@U?$pair@$$CBIPAVNPC_INFO@@@_STL@@@2@@_STL@@IAEPAU?$_Rb_tree_node@U?$pair@$$CBIPAVNPC_INFO@@@_STL@@@2@ABU?$pair@$$CBIPAVNPC_INFO@@@2@@Z ; _STL::_Rb_tree<unsigned int,_STL::pair<unsigned int const ,NPC_INFO *>,_STL::_Select1st<_STL::pair<unsigned int const ,NPC_INFO *> >,_STL::less<unsigned int>,_STL::allocator<_STL::pair<unsigned int const ,NPC_INFO *> > >::_M_create_node
; Function compile flags: /Ogsy
;	COMDAT ?_M_insert@?$_Rb_tree@IU?$pair@$$CBIPAVNPC_INFO@@@_STL@@U?$_Select1st@U?$pair@$$CBIPAVNPC_INFO@@@_STL@@@2@U?$less@I@2@V?$allocator@U?$pair@$$CBIPAVNPC_INFO@@@_STL@@@2@@_STL@@AAE?AU?$_Rb_tree_iterator@U?$pair@$$CBIPAVNPC_INFO@@@_STL@@U?$_Nonconst_traits@U?$pair@$$CBIPAVNPC_INFO@@@_STL@@@2@@2@PAU_Rb_tree_node_base@2@0ABU?$pair@$$CBIPAVNPC_INFO@@@2@0@Z
_TEXT	SEGMENT
___$ReturnUdt$ = 8					; size = 4
___x_$ = 12						; size = 4
___y_$ = 16						; size = 4
___v$ = 20						; size = 4
___w_$ = 24						; size = 4
?_M_insert@?$_Rb_tree@IU?$pair@$$CBIPAVNPC_INFO@@@_STL@@U?$_Select1st@U?$pair@$$CBIPAVNPC_INFO@@@_STL@@@2@U?$less@I@2@V?$allocator@U?$pair@$$CBIPAVNPC_INFO@@@_STL@@@2@@_STL@@AAE?AU?$_Rb_tree_iterator@U?$pair@$$CBIPAVNPC_INFO@@@_STL@@U?$_Nonconst_traits@U?$pair@$$CBIPAVNPC_INFO@@@_STL@@@2@@2@PAU_Rb_tree_node_base@2@0ABU?$pair@$$CBIPAVNPC_INFO@@@2@0@Z PROC NEAR ; _STL::_Rb_tree<unsigned int,_STL::pair<unsigned int const ,NPC_INFO *>,_STL::_Select1st<_STL::pair<unsigned int const ,NPC_INFO *> >,_STL::less<unsigned int>,_STL::allocator<_STL::pair<unsigned int const ,NPC_INFO *> > >::_M_insert, COMDAT
; _this$ = ecx

; 347  : {

  00000	55		 push	 ebp
  00001	8b ec		 mov	 ebp, esp

; 348  :   _Link_type __w = (_Link_type) __w_;
; 349  :   _Link_type __x = (_Link_type) __x_;
; 350  :   _Link_type __y = (_Link_type) __y_;
; 351  :   _Link_type __z;
; 352  : 
; 353  :   if ( __y == this->_M_header._M_data ||
; 354  :        ( __w == 0 && // If w != 0, the remainder fails to false
; 355  :          ( __x != 0 ||     // If x != 0, the remainder succeeds to true
; 356  :            _M_key_compare( _KeyOfValue()(__v), _S_key(__y) ) )
; 357  : 	 )
; 358  :        ) {

  00003	8b 45 14	 mov	 eax, DWORD PTR ___v$[ebp]
  00006	53		 push	 ebx
  00007	8b 5d 10	 mov	 ebx, DWORD PTR ___y_$[ebp]
  0000a	56		 push	 esi
  0000b	57		 push	 edi
  0000c	8b f9		 mov	 edi, ecx
  0000e	3b 1f		 cmp	 ebx, DWORD PTR [edi]
  00010	74 2c		 je	 SHORT $L106402
  00012	83 7d 18 00	 cmp	 DWORD PTR ___w_$[ebp], 0
  00016	75 0d		 jne	 SHORT $L106400
  00018	83 7d 0c 00	 cmp	 DWORD PTR ___x_$[ebp], 0
  0001c	75 20		 jne	 SHORT $L106402
  0001e	8b 08		 mov	 ecx, DWORD PTR [eax]
  00020	3b 4b 10	 cmp	 ecx, DWORD PTR [ebx+16]
  00023	72 19		 jb	 SHORT $L106402
$L106400:

; 369  :   }
; 370  :   else {
; 371  :     __z = _M_create_node(__v);

  00025	50		 push	 eax
  00026	8b cf		 mov	 ecx, edi
  00028	e8 00 00 00 00	 call	 ?_M_create_node@?$_Rb_tree@IU?$pair@$$CBIPAVNPC_INFO@@@_STL@@U?$_Select1st@U?$pair@$$CBIPAVNPC_INFO@@@_STL@@@2@U?$less@I@2@V?$allocator@U?$pair@$$CBIPAVNPC_INFO@@@_STL@@@2@@_STL@@IAEPAU?$_Rb_tree_node@U?$pair@$$CBIPAVNPC_INFO@@@_STL@@@2@ABU?$pair@$$CBIPAVNPC_INFO@@@2@@Z ; _STL::_Rb_tree<unsigned int,_STL::pair<unsigned int const ,NPC_INFO *>,_STL::_Select1st<_STL::pair<unsigned int const ,NPC_INFO *> >,_STL::less<unsigned int>,_STL::allocator<_STL::pair<unsigned int const ,NPC_INFO *> > >::_M_create_node
  0002d	8b f0		 mov	 esi, eax

; 372  :     _S_right(__y) = __z;

  0002f	89 73 0c	 mov	 DWORD PTR [ebx+12], esi

; 373  :     if (__y == _M_rightmost())

  00032	8b 07		 mov	 eax, DWORD PTR [edi]
  00034	3b 58 0c	 cmp	 ebx, DWORD PTR [eax+12]
  00037	75 27		 jne	 SHORT $L106405
$L110761:

; 374  :       _M_rightmost() = __z;  // maintain _M_rightmost() pointing to max node

  00039	89 70 0c	 mov	 DWORD PTR [eax+12], esi
  0003c	eb 22		 jmp	 SHORT $L106405
$L106402:

; 359  :     
; 360  :     __z = _M_create_node(__v);

  0003e	50		 push	 eax
  0003f	8b cf		 mov	 ecx, edi
  00041	e8 00 00 00 00	 call	 ?_M_create_node@?$_Rb_tree@IU?$pair@$$CBIPAVNPC_INFO@@@_STL@@U?$_Select1st@U?$pair@$$CBIPAVNPC_INFO@@@_STL@@@2@U?$less@I@2@V?$allocator@U?$pair@$$CBIPAVNPC_INFO@@@_STL@@@2@@_STL@@IAEPAU?$_Rb_tree_node@U?$pair@$$CBIPAVNPC_INFO@@@_STL@@@2@ABU?$pair@$$CBIPAVNPC_INFO@@@2@@Z ; _STL::_Rb_tree<unsigned int,_STL::pair<unsigned int const ,NPC_INFO *>,_STL::_Select1st<_STL::pair<unsigned int const ,NPC_INFO *> >,_STL::less<unsigned int>,_STL::allocator<_STL::pair<unsigned int const ,NPC_INFO *> > >::_M_create_node
  00046	8b f0		 mov	 esi, eax

; 361  :     _S_left(__y) = __z;               // also makes _M_leftmost() = __z 

  00048	89 73 08	 mov	 DWORD PTR [ebx+8], esi

; 362  :                                       //    when __y == _M_header
; 363  :     if (__y == this->_M_header._M_data) {

  0004b	8b 07		 mov	 eax, DWORD PTR [edi]
  0004d	3b d8		 cmp	 ebx, eax
  0004f	75 07		 jne	 SHORT $L106403

; 364  :       _M_root() = __z;

  00051	89 70 04	 mov	 DWORD PTR [eax+4], esi

; 365  :       _M_rightmost() = __z;

  00054	8b 07		 mov	 eax, DWORD PTR [edi]

; 366  :     }
; 367  :     else if (__y == _M_leftmost())

  00056	eb e1		 jmp	 SHORT $L110761
$L106403:
  00058	3b 58 08	 cmp	 ebx, DWORD PTR [eax+8]
  0005b	75 03		 jne	 SHORT $L106405

; 368  :       _M_leftmost() = __z;   // maintain _M_leftmost() pointing to min node

  0005d	89 70 08	 mov	 DWORD PTR [eax+8], esi
$L106405:

; 375  :   }
; 376  :   _S_parent(__z) = __y;
; 377  :   _S_left(__z) = 0;

  00060	83 66 08 00	 and	 DWORD PTR [esi+8], 0

; 378  :   _S_right(__z) = 0;

  00064	83 66 0c 00	 and	 DWORD PTR [esi+12], 0
  00068	89 5e 04	 mov	 DWORD PTR [esi+4], ebx

; 379  :   _Rb_global_inst::_Rebalance(__z, this->_M_header._M_data->_M_parent);

  0006b	8b 07		 mov	 eax, DWORD PTR [edi]
  0006d	83 c0 04	 add	 eax, 4
  00070	50		 push	 eax
  00071	56		 push	 esi
  00072	e8 00 00 00 00	 call	 ?_Rebalance@?$_Rb_global@_N@_STL@@SAXPAU_Rb_tree_node_base@2@AAPAU32@@Z ; _STL::_Rb_global<bool>::_Rebalance

; 380  :   ++_M_node_count;

  00077	ff 47 04	 inc	 DWORD PTR [edi+4]

; 381  :   return iterator(__z);

  0007a	8b 45 08	 mov	 eax, DWORD PTR ___$ReturnUdt$[ebp]
  0007d	59		 pop	 ecx
  0007e	59		 pop	 ecx
  0007f	5f		 pop	 edi
  00080	89 30		 mov	 DWORD PTR [eax], esi
  00082	5e		 pop	 esi
  00083	5b		 pop	 ebx

; 382  : }

  00084	5d		 pop	 ebp
  00085	c2 14 00	 ret	 20			; 00000014H
?_M_insert@?$_Rb_tree@IU?$pair@$$CBIPAVNPC_INFO@@@_STL@@U?$_Select1st@U?$pair@$$CBIPAVNPC_INFO@@@_STL@@@2@U?$less@I@2@V?$allocator@U?$pair@$$CBIPAVNPC_INFO@@@_STL@@@2@@_STL@@AAE?AU?$_Rb_tree_iterator@U?$pair@$$CBIPAVNPC_INFO@@@_STL@@U?$_Nonconst_traits@U?$pair@$$CBIPAVNPC_INFO@@@_STL@@@2@@2@PAU_Rb_tree_node_base@2@0ABU?$pair@$$CBIPAVNPC_INFO@@@2@0@Z ENDP ; _STL::_Rb_tree<unsigned int,_STL::pair<unsigned int const ,NPC_INFO *>,_STL::_Select1st<_STL::pair<unsigned int const ,NPC_INFO *> >,_STL::less<unsigned int>,_STL::allocator<_STL::pair<unsigned int const ,NPC_INFO *> > >::_M_insert
; Function compile flags: /Ogsy
; File c:\stlport-4.6.1\stlport\stl\_tree.h
_TEXT	ENDS
;	COMDAT ?_M_create_node@?$_Rb_tree@IU?$pair@$$CBIPAVNPC_INFO@@@_STL@@U?$_Select1st@U?$pair@$$CBIPAVNPC_INFO@@@_STL@@@2@U?$less@I@2@V?$allocator@U?$pair@$$CBIPAVNPC_INFO@@@_STL@@@2@@_STL@@IAEPAU?$_Rb_tree_node@U?$pair@$$CBIPAVNPC_INFO@@@_STL@@@2@ABU?$pair@$$CBIPAVNPC_INFO@@@2@@Z
_TEXT	SEGMENT
___x$ = 8						; size = 4
?_M_create_node@?$_Rb_tree@IU?$pair@$$CBIPAVNPC_INFO@@@_STL@@U?$_Select1st@U?$pair@$$CBIPAVNPC_INFO@@@_STL@@@2@U?$less@I@2@V?$allocator@U?$pair@$$CBIPAVNPC_INFO@@@_STL@@@2@@_STL@@IAEPAU?$_Rb_tree_node@U?$pair@$$CBIPAVNPC_INFO@@@_STL@@@2@ABU?$pair@$$CBIPAVNPC_INFO@@@2@@Z PROC NEAR ; _STL::_Rb_tree<unsigned int,_STL::pair<unsigned int const ,NPC_INFO *>,_STL::_Select1st<_STL::pair<unsigned int const ,NPC_INFO *> >,_STL::less<unsigned int>,_STL::allocator<_STL::pair<unsigned int const ,NPC_INFO *> > >::_M_create_node, COMDAT
; _this$ = ecx

; 243  :     _Link_type __tmp = this->_M_header.allocate(1);

  00000	6a 18		 push	 24			; 00000018H
  00002	e8 00 00 00 00	 call	 ?allocate@?$__node_alloc@$00$0A@@_STL@@SAPAXI@Z ; _STL::__node_alloc<1,0>::allocate
  00007	59		 pop	 ecx

; 244  :     _STLP_TRY {
; 245  :       _Construct(&__tmp->_M_value_field, __x);

  00008	8d 48 10	 lea	 ecx, DWORD PTR [eax+16]
  0000b	85 c9		 test	 ecx, ecx
  0000d	74 10		 je	 SHORT $L110789
  0000f	8b 54 24 04	 mov	 edx, DWORD PTR ___x$[esp-4]
  00013	56		 push	 esi
  00014	8b 32		 mov	 esi, DWORD PTR [edx]
  00016	89 31		 mov	 DWORD PTR [ecx], esi
  00018	8b 52 04	 mov	 edx, DWORD PTR [edx+4]
  0001b	89 51 04	 mov	 DWORD PTR [ecx+4], edx
  0001e	5e		 pop	 esi
$L110789:

; 246  :     }
; 247  :     _STLP_UNWIND(this->_M_header.deallocate(__tmp,1));
; 248  :     return __tmp;
; 249  :   }

  0001f	c2 04 00	 ret	 4
?_M_create_node@?$_Rb_tree@IU?$pair@$$CBIPAVNPC_INFO@@@_STL@@U?$_Select1st@U?$pair@$$CBIPAVNPC_INFO@@@_STL@@@2@U?$less@I@2@V?$allocator@U?$pair@$$CBIPAVNPC_INFO@@@_STL@@@2@@_STL@@IAEPAU?$_Rb_tree_node@U?$pair@$$CBIPAVNPC_INFO@@@_STL@@@2@ABU?$pair@$$CBIPAVNPC_INFO@@@2@@Z ENDP ; _STL::_Rb_tree<unsigned int,_STL::pair<unsigned int const ,NPC_INFO *>,_STL::_Select1st<_STL::pair<unsigned int const ,NPC_INFO *> >,_STL::less<unsigned int>,_STL::allocator<_STL::pair<unsigned int const ,NPC_INFO *> > >::_M_create_node
_TEXT	ENDS
PUBLIC	??1?$CTypeMap@VSERVERNPC_INFO@@@@UAE@XZ		; CTypeMap<SERVERNPC_INFO>::~CTypeMap<SERVERNPC_INFO>
;	COMDAT xdata$x
xdata$x	SEGMENT
$T110810 DD	0ffffffffH
	DD	FLAT:$L110801
$T110808 DD	019930520H
	DD	01H
	DD	FLAT:$T110810
	DD	2 DUP(00H)
	DD	2 DUP(00H)
; Function compile flags: /Ogsy
; File c:\darkeden\designed_common\project\client\ctypemap.h
xdata$x	ENDS
;	COMDAT ??1?$CTypeMap@VSERVERNPC_INFO@@@@UAE@XZ
_TEXT	SEGMENT
_this$ = -16						; size = 4
__$EHRec$ = -12						; size = 12
??1?$CTypeMap@VSERVERNPC_INFO@@@@UAE@XZ PROC NEAR	; CTypeMap<SERVERNPC_INFO>::~CTypeMap<SERVERNPC_INFO>, COMDAT
; _this$ = ecx

; 62   : {

  00000	b8 00 00 00 00	 mov	 eax, __ehhandler$??1?$CTypeMap@VSERVERNPC_INFO@@@@UAE@XZ
  00005	e8 00 00 00 00	 call	 __EH_prolog
  0000a	51		 push	 ecx
  0000b	56		 push	 esi
  0000c	8b f1		 mov	 esi, ecx
  0000e	89 75 f0	 mov	 DWORD PTR _this$[ebp], esi
  00011	c7 06 00 00 00
	00		 mov	 DWORD PTR [esi], OFFSET FLAT:??_7?$CTypeMap@VSERVERNPC_INFO@@@@6B@
  00017	83 65 fc 00	 and	 DWORD PTR __$EHRec$[ebp+8], 0

; 63   : 	Release();

  0001b	e8 00 00 00 00	 call	 ?Release@?$CTypeMap@VSERVERNPC_INFO@@@@UAEXXZ ; CTypeMap<SERVERNPC_INFO>::Release

; 64   : }

  00020	83 4d fc ff	 or	 DWORD PTR __$EHRec$[ebp+8], -1
  00024	8d 4e 04	 lea	 ecx, DWORD PTR [esi+4]
  00027	e8 00 00 00 00	 call	 ??1?$_Rb_tree@IU?$pair@$$CBIPAVSERVERNPC_INFO@@@_STL@@U?$_Select1st@U?$pair@$$CBIPAVSERVERNPC_INFO@@@_STL@@@2@U?$less@I@2@V?$allocator@U?$pair@$$CBIPAVSERVERNPC_INFO@@@_STL@@@2@@_STL@@QAE@XZ ; _STL::_Rb_tree<unsigned int,_STL::pair<unsigned int const ,SERVERNPC_INFO *>,_STL::_Select1st<_STL::pair<unsigned int const ,SERVERNPC_INFO *> >,_STL::less<unsigned int>,_STL::allocator<_STL::pair<unsigned int const ,SERVERNPC_INFO *> > >::~_Rb_tree<unsigned int,_STL::pair<unsigned int const ,SERVERNPC_INFO *>,_STL::_Select1st<_STL::pair<unsigned int const ,SERVERNPC_INFO *> >,_STL::less<unsigned int>,_STL::allocator<_STL::pair<unsigned int const ,SERVERNPC_INFO *> > >
  0002c	8b 4d f4	 mov	 ecx, DWORD PTR __$EHRec$[ebp]
  0002f	5e		 pop	 esi
  00030	64 89 0d 00 00
	00 00		 mov	 DWORD PTR fs:__except_list, ecx
  00037	c9		 leave
  00038	c3		 ret	 0
_TEXT	ENDS
;	COMDAT text$x
text$x	SEGMENT
$L110801:
  00000	8b 4d f0	 mov	 ecx, DWORD PTR _this$[ebp]
  00003	8b 45 f0	 mov	 eax, DWORD PTR _this$[ebp]
  00006	83 c0 04	 add	 eax, 4
  00009	f7 d9		 neg	 ecx
  0000b	1b c9		 sbb	 ecx, ecx
  0000d	23 c8		 and	 ecx, eax
  0000f	e9 00 00 00 00	 jmp	 ??1?$map@IPAVSERVERNPC_INFO@@U?$less@I@_STL@@V?$allocator@U?$pair@$$CBIPAVSERVERNPC_INFO@@@_STL@@@3@@_STL@@QAE@XZ
__ehhandler$??1?$CTypeMap@VSERVERNPC_INFO@@@@UAE@XZ:
  00014	b8 00 00 00 00	 mov	 eax, OFFSET FLAT:$T110808
  00019	e9 00 00 00 00	 jmp	 ___CxxFrameHandler
text$x	ENDS
??1?$CTypeMap@VSERVERNPC_INFO@@@@UAE@XZ ENDP		; CTypeMap<SERVERNPC_INFO>::~CTypeMap<SERVERNPC_INFO>
PUBLIC	?insert_unique@?$_Rb_tree@IU?$pair@$$CBIPAVSERVERNPC_INFO@@@_STL@@U?$_Select1st@U?$pair@$$CBIPAVSERVERNPC_INFO@@@_STL@@@2@U?$less@I@2@V?$allocator@U?$pair@$$CBIPAVSERVERNPC_INFO@@@_STL@@@2@@_STL@@QAE?AU?$pair@U?$_Rb_tree_iterator@U?$pair@$$CBIPAVSERVERNPC_INFO@@@_STL@@U?$_Nonconst_traits@U?$pair@$$CBIPAVSERVERNPC_INFO@@@_STL@@@2@@_STL@@_N@2@ABU?$pair@$$CBIPAVSERVERNPC_INFO@@@2@@Z ; _STL::_Rb_tree<unsigned int,_STL::pair<unsigned int const ,SERVERNPC_INFO *>,_STL::_Select1st<_STL::pair<unsigned int const ,SERVERNPC_INFO *> >,_STL::less<unsigned int>,_STL::allocator<_STL::pair<unsigned int const ,SERVERNPC_INFO *> > >::insert_unique
; Function compile flags: /Ogsy
;	COMDAT ?AddData@?$CTypeMap@VSERVERNPC_INFO@@@@UAE_NIPAVSERVERNPC_INFO@@@Z
_TEXT	SEGMENT
$T110817 = -16						; size = 8
$T110816 = -8						; size = 8
_id$ = 8						; size = 4
_pData$ = 12						; size = 4
?AddData@?$CTypeMap@VSERVERNPC_INFO@@@@UAE_NIPAVSERVERNPC_INFO@@@Z PROC NEAR ; CTypeMap<SERVERNPC_INFO>::AddData, COMDAT
; _this$ = ecx

; 93   : {

  00000	55		 push	 ebp
  00001	8b ec		 mov	 ebp, esp
  00003	83 ec 10	 sub	 esp, 16			; 00000010H
  00006	56		 push	 esi

; 94   : 	TYPE_MAP::iterator	iData = find( id );

  00007	8d 71 04	 lea	 esi, DWORD PTR [ecx+4]
  0000a	8d 45 08	 lea	 eax, DWORD PTR _id$[ebp]
  0000d	50		 push	 eax
  0000e	8b ce		 mov	 ecx, esi
  00010	e8 00 00 00 00	 call	 ??$_M_find@I@?$_Rb_tree@IU?$pair@$$CBIPAVSERVERNPC_INFO@@@_STL@@U?$_Select1st@U?$pair@$$CBIPAVSERVERNPC_INFO@@@_STL@@@2@U?$less@I@2@V?$allocator@U?$pair@$$CBIPAVSERVERNPC_INFO@@@_STL@@@2@@_STL@@ABEPAU?$_Rb_tree_node@U?$pair@$$CBIPAVSERVERNPC_INFO@@@_STL@@@1@ABI@Z ; _STL::_Rb_tree<unsigned int,_STL::pair<unsigned int const ,SERVERNPC_INFO *>,_STL::_Select1st<_STL::pair<unsigned int const ,SERVERNPC_INFO *> >,_STL::less<unsigned int>,_STL::allocator<_STL::pair<unsigned int const ,SERVERNPC_INFO *> > >::_M_find<unsigned int>

; 95   : 
; 96   : 	if (iData != end())

  00015	3b 06		 cmp	 eax, DWORD PTR [esi]
  00017	74 04		 je	 SHORT $L105383

; 97   : 	{
; 98   : 		//   
; 99   : 		// pData  .
; 100  : 		return false;

  00019	32 c0		 xor	 al, al
  0001b	eb 1d		 jmp	 SHORT $L105379
$L105383:

; 101  : 	}
; 102  : 
; 103  : 	//------------------------------------------------------
; 104  : 	//   --> 
; 105  : 	//------------------------------------------------------
; 106  : 	insert(TYPE_MAP::value_type(id, pData));

  0001d	8b 45 08	 mov	 eax, DWORD PTR _id$[ebp]
  00020	89 45 f8	 mov	 DWORD PTR $T110816[ebp], eax
  00023	8b 45 0c	 mov	 eax, DWORD PTR _pData$[ebp]
  00026	89 45 fc	 mov	 DWORD PTR $T110816[ebp+4], eax
  00029	8d 45 f8	 lea	 eax, DWORD PTR $T110816[ebp]
  0002c	50		 push	 eax
  0002d	8d 45 f0	 lea	 eax, DWORD PTR $T110817[ebp]
  00030	50		 push	 eax
  00031	8b ce		 mov	 ecx, esi
  00033	e8 00 00 00 00	 call	 ?insert_unique@?$_Rb_tree@IU?$pair@$$CBIPAVSERVERNPC_INFO@@@_STL@@U?$_Select1st@U?$pair@$$CBIPAVSERVERNPC_INFO@@@_STL@@@2@U?$less@I@2@V?$allocator@U?$pair@$$CBIPAVSERVERNPC_INFO@@@_STL@@@2@@_STL@@QAE?AU?$pair@U?$_Rb_tree_iterator@U?$pair@$$CBIPAVSERVERNPC_INFO@@@_STL@@U?$_Nonconst_traits@U?$pair@$$CBIPAVSERVERNPC_INFO@@@_STL@@@2@@_STL@@_N@2@ABU?$pair@$$CBIPAVSERVERNPC_INFO@@@2@@Z ; _STL::_Rb_tree<unsigned int,_STL::pair<unsigned int const ,SERVERNPC_INFO *>,_STL::_Select1st<_STL::pair<unsigned int const ,SERVERNPC_INFO *> >,_STL::less<unsigned int>,_STL::allocator<_STL::pair<unsigned int const ,SERVERNPC_INFO *> > >::insert_unique

; 107  : 
; 108  : 	return true;

  00038	b0 01		 mov	 al, 1
$L105379:
  0003a	5e		 pop	 esi

; 109  : }

  0003b	c9		 leave
  0003c	c2 08 00	 ret	 8
?AddData@?$CTypeMap@VSERVERNPC_INFO@@@@UAE_NIPAVSERVERNPC_INFO@@@Z ENDP ; CTypeMap<SERVERNPC_INFO>::AddData
_TEXT	ENDS
PUBLIC	?_M_insert@?$_Rb_tree@IU?$pair@$$CBIPAVSERVERNPC_INFO@@@_STL@@U?$_Select1st@U?$pair@$$CBIPAVSERVERNPC_INFO@@@_STL@@@2@U?$less@I@2@V?$allocator@U?$pair@$$CBIPAVSERVERNPC_INFO@@@_STL@@@2@@_STL@@AAE?AU?$_Rb_tree_iterator@U?$pair@$$CBIPAVSERVERNPC_INFO@@@_STL@@U?$_Nonconst_traits@U?$pair@$$CBIPAVSERVERNPC_INFO@@@_STL@@@2@@2@PAU_Rb_tree_node_base@2@0ABU?$pair@$$CBIPAVSERVERNPC_INFO@@@2@0@Z ; _STL::_Rb_tree<unsigned int,_STL::pair<unsigned int const ,SERVERNPC_INFO *>,_STL::_Select1st<_STL::pair<unsigned int const ,SERVERNPC_INFO *> >,_STL::less<unsigned int>,_STL::allocator<_STL::pair<unsigned int const ,SERVERNPC_INFO *> > >::_M_insert
; Function compile flags: /Ogsy
; File c:\stlport-4.6.1\stlport\stl\_tree.c
;	COMDAT ?insert_unique@?$_Rb_tree@IU?$pair@$$CBIPAVSERVERNPC_INFO@@@_STL@@U?$_Select1st@U?$pair@$$CBIPAVSERVERNPC_INFO@@@_STL@@@2@U?$less@I@2@V?$allocator@U?$pair@$$CBIPAVSERVERNPC_INFO@@@_STL@@@2@@_STL@@QAE?AU?$pair@U?$_Rb_tree_iterator@U?$pair@$$CBIPAVSERVERNPC_INFO@@@_STL@@U?$_Nonconst_traits@U?$pair@$$CBIPAVSERVERNPC_INFO@@@_STL@@@2@@_STL@@_N@2@ABU?$pair@$$CBIPAVSERVERNPC_INFO@@@2@@Z
_TEXT	SEGMENT
___$ReturnUdt$ = 8					; size = 4
$T110869 = 12						; size = 4
___v$ = 12						; size = 4
?insert_unique@?$_Rb_tree@IU?$pair@$$CBIPAVSERVERNPC_INFO@@@_STL@@U?$_Select1st@U?$pair@$$CBIPAVSERVERNPC_INFO@@@_STL@@@2@U?$less@I@2@V?$allocator@U?$pair@$$CBIPAVSERVERNPC_INFO@@@_STL@@@2@@_STL@@QAE?AU?$pair@U?$_Rb_tree_iterator@U?$pair@$$CBIPAVSERVERNPC_INFO@@@_STL@@U?$_Nonconst_traits@U?$pair@$$CBIPAVSERVERNPC_INFO@@@_STL@@@2@@_STL@@_N@2@ABU?$pair@$$CBIPAVSERVERNPC_INFO@@@2@@Z PROC NEAR ; _STL::_Rb_tree<unsigned int,_STL::pair<unsigned int const ,SERVERNPC_INFO *>,_STL::_Select1st<_STL::pair<unsigned int const ,SERVERNPC_INFO *> >,_STL::less<unsigned int>,_STL::allocator<_STL::pair<unsigned int const ,SERVERNPC_INFO *> > >::insert_unique, COMDAT
; _this$ = ecx

; 401  : {

  00000	55		 push	 ebp
  00001	8b ec		 mov	 ebp, esp
  00003	53		 push	 ebx
  00004	8b d9		 mov	 ebx, ecx

; 402  :   _Link_type __y = this->_M_header._M_data;

  00006	8b 0b		 mov	 ecx, DWORD PTR [ebx]
  00008	56		 push	 esi

; 403  :   _Link_type __x = _M_root();

  00009	8b 71 04	 mov	 esi, DWORD PTR [ecx+4]

; 404  :   bool __comp = true;
; 405  :   while (__x != 0) {

  0000c	85 f6		 test	 esi, esi
  0000e	57		 push	 edi
  0000f	8b f9		 mov	 edi, ecx
  00011	b2 01		 mov	 dl, 1
  00013	74 1d		 je	 SHORT $L110973

; 417  :     return pair<iterator,bool>(_M_insert(__x, __y, __v), true);

  00015	8b 45 0c	 mov	 eax, DWORD PTR ___v$[ebp]
  00018	8b 00		 mov	 eax, DWORD PTR [eax]
$L106169:
  0001a	3b 46 10	 cmp	 eax, DWORD PTR [esi+16]
  0001d	8b fe		 mov	 edi, esi
  0001f	0f 92 c2	 setb	 dl
  00022	84 d2		 test	 dl, dl
  00024	74 05		 je	 SHORT $L110862

; 406  :     __y = __x;
; 407  :     __comp = _M_key_compare(_KeyOfValue()(__v), _S_key(__x));
; 408  :     __x = __comp ? _S_left(__x) : _S_right(__x);

  00026	8b 76 08	 mov	 esi, DWORD PTR [esi+8]
  00029	eb 03		 jmp	 SHORT $L110863
$L110862:
  0002b	8b 76 0c	 mov	 esi, DWORD PTR [esi+12]
$L110863:

; 404  :   bool __comp = true;
; 405  :   while (__x != 0) {

  0002e	85 f6		 test	 esi, esi
  00030	75 e8		 jne	 SHORT $L106169
$L110973:

; 409  :   }
; 410  :   iterator __j = iterator(__y);   
; 411  :   if (__comp)

  00032	84 d2		 test	 dl, dl
  00034	8b c7		 mov	 eax, edi
  00036	74 15		 je	 SHORT $L110974

; 412  :     if (__j == begin())     

  00038	3b 79 08	 cmp	 edi, DWORD PTR [ecx+8]
  0003b	75 09		 jne	 SHORT $L106197

; 413  :       return pair<iterator,bool>(_M_insert(/* __x*/ __y, __y, __v), true);

  0003d	6a 00		 push	 0
  0003f	ff 75 0c	 push	 DWORD PTR ___v$[ebp]
  00042	57		 push	 edi
  00043	57		 push	 edi
  00044	eb 16		 jmp	 SHORT $L110975
$L106197:

; 414  :     else
; 415  :       --__j;

  00046	57		 push	 edi
  00047	e8 00 00 00 00	 call	 ?_M_decrement@?$_Rb_global@_N@_STL@@SAPAU_Rb_tree_node_base@2@PAU32@@Z ; _STL::_Rb_global<bool>::_M_decrement
  0004c	59		 pop	 ecx
$L110974:

; 416  :   if (_M_key_compare(_S_key(__j._M_node), _KeyOfValue()(__v)))

  0004d	8b 50 10	 mov	 edx, DWORD PTR [eax+16]
  00050	8b 4d 0c	 mov	 ecx, DWORD PTR ___v$[ebp]
  00053	3b 11		 cmp	 edx, DWORD PTR [ecx]
  00055	73 1d		 jae	 SHORT $L106203

; 417  :     return pair<iterator,bool>(_M_insert(__x, __y, __v), true);

  00057	6a 00		 push	 0
  00059	51		 push	 ecx
  0005a	57		 push	 edi
  0005b	56		 push	 esi
$L110975:
  0005c	8d 45 0c	 lea	 eax, DWORD PTR $T110869[ebp]
  0005f	50		 push	 eax
  00060	8b cb		 mov	 ecx, ebx
  00062	e8 00 00 00 00	 call	 ?_M_insert@?$_Rb_tree@IU?$pair@$$CBIPAVSERVERNPC_INFO@@@_STL@@U?$_Select1st@U?$pair@$$CBIPAVSERVERNPC_INFO@@@_STL@@@2@U?$less@I@2@V?$allocator@U?$pair@$$CBIPAVSERVERNPC_INFO@@@_STL@@@2@@_STL@@AAE?AU?$_Rb_tree_iterator@U?$pair@$$CBIPAVSERVERNPC_INFO@@@_STL@@U?$_Nonconst_traits@U?$pair@$$CBIPAVSERVERNPC_INFO@@@_STL@@@2@@2@PAU_Rb_tree_node_base@2@0ABU?$pair@$$CBIPAVSERVERNPC_INFO@@@2@0@Z ; _STL::_Rb_tree<unsigned int,_STL::pair<unsigned int const ,SERVERNPC_INFO *>,_STL::_Select1st<_STL::pair<unsigned int const ,SERVERNPC_INFO *> >,_STL::less<unsigned int>,_STL::allocator<_STL::pair<unsigned int const ,SERVERNPC_INFO *> > >::_M_insert
  00067	8b 08		 mov	 ecx, DWORD PTR [eax]
  00069	8b 45 08	 mov	 eax, DWORD PTR ___$ReturnUdt$[ebp]
  0006c	89 08		 mov	 DWORD PTR [eax], ecx
  0006e	c6 40 04 01	 mov	 BYTE PTR [eax+4], 1
  00072	eb 0b		 jmp	 SHORT $L106164
$L106203:

; 418  :   return pair<iterator,bool>(__j, false);

  00074	8b 4d 08	 mov	 ecx, DWORD PTR ___$ReturnUdt$[ebp]
  00077	89 01		 mov	 DWORD PTR [ecx], eax
  00079	c6 41 04 00	 mov	 BYTE PTR [ecx+4], 0
  0007d	8b c1		 mov	 eax, ecx
$L106164:
  0007f	5f		 pop	 edi
  00080	5e		 pop	 esi
  00081	5b		 pop	 ebx

; 419  : }

  00082	5d		 pop	 ebp
  00083	c2 08 00	 ret	 8
?insert_unique@?$_Rb_tree@IU?$pair@$$CBIPAVSERVERNPC_INFO@@@_STL@@U?$_Select1st@U?$pair@$$CBIPAVSERVERNPC_INFO@@@_STL@@@2@U?$less@I@2@V?$allocator@U?$pair@$$CBIPAVSERVERNPC_INFO@@@_STL@@@2@@_STL@@QAE?AU?$pair@U?$_Rb_tree_iterator@U?$pair@$$CBIPAVSERVERNPC_INFO@@@_STL@@U?$_Nonconst_traits@U?$pair@$$CBIPAVSERVERNPC_INFO@@@_STL@@@2@@_STL@@_N@2@ABU?$pair@$$CBIPAVSERVERNPC_INFO@@@2@@Z ENDP ; _STL::_Rb_tree<unsigned int,_STL::pair<unsigned int const ,SERVERNPC_INFO *>,_STL::_Select1st<_STL::pair<unsigned int const ,SERVERNPC_INFO *> >,_STL::less<unsigned int>,_STL::allocator<_STL::pair<unsigned int const ,SERVERNPC_INFO *> > >::insert_unique
_TEXT	ENDS
PUBLIC	?_M_create_node@?$_Rb_tree@IU?$pair@$$CBIPAVSERVERNPC_INFO@@@_STL@@U?$_Select1st@U?$pair@$$CBIPAVSERVERNPC_INFO@@@_STL@@@2@U?$less@I@2@V?$allocator@U?$pair@$$CBIPAVSERVERNPC_INFO@@@_STL@@@2@@_STL@@IAEPAU?$_Rb_tree_node@U?$pair@$$CBIPAVSERVERNPC_INFO@@@_STL@@@2@ABU?$pair@$$CBIPAVSERVERNPC_INFO@@@2@@Z ; _STL::_Rb_tree<unsigned int,_STL::pair<unsigned int const ,SERVERNPC_INFO *>,_STL::_Select1st<_STL::pair<unsigned int const ,SERVERNPC_INFO *> >,_STL::less<unsigned int>,_STL::allocator<_STL::pair<unsigned int const ,SERVERNPC_INFO *> > >::_M_create_node
; Function compile flags: /Ogsy
;	COMDAT ?_M_insert@?$_Rb_tree@IU?$pair@$$CBIPAVSERVERNPC_INFO@@@_STL@@U?$_Select1st@U?$pair@$$CBIPAVSERVERNPC_INFO@@@_STL@@@2@U?$less@I@2@V?$allocator@U?$pair@$$CBIPAVSERVERNPC_INFO@@@_STL@@@2@@_STL@@AAE?AU?$_Rb_tree_iterator@U?$pair@$$CBIPAVSERVERNPC_INFO@@@_STL@@U?$_Nonconst_traits@U?$pair@$$CBIPAVSERVERNPC_INFO@@@_STL@@@2@@2@PAU_Rb_tree_node_base@2@0ABU?$pair@$$CBIPAVSERVERNPC_INFO@@@2@0@Z
_TEXT	SEGMENT
___$ReturnUdt$ = 8					; size = 4
___x_$ = 12						; size = 4
___y_$ = 16						; size = 4
___v$ = 20						; size = 4
___w_$ = 24						; size = 4
?_M_insert@?$_Rb_tree@IU?$pair@$$CBIPAVSERVERNPC_INFO@@@_STL@@U?$_Select1st@U?$pair@$$CBIPAVSERVERNPC_INFO@@@_STL@@@2@U?$less@I@2@V?$allocator@U?$pair@$$CBIPAVSERVERNPC_INFO@@@_STL@@@2@@_STL@@AAE?AU?$_Rb_tree_iterator@U?$pair@$$CBIPAVSERVERNPC_INFO@@@_STL@@U?$_Nonconst_traits@U?$pair@$$CBIPAVSERVERNPC_INFO@@@_STL@@@2@@2@PAU_Rb_tree_node_base@2@0ABU?$pair@$$CBIPAVSERVERNPC_INFO@@@2@0@Z PROC NEAR ; _STL::_Rb_tree<unsigned int,_STL::pair<unsigned int const ,SERVERNPC_INFO *>,_STL::_Select1st<_STL::pair<unsigned int const ,SERVERNPC_INFO *> >,_STL::less<unsigned int>,_STL::allocator<_STL::pair<unsigned int const ,SERVERNPC_INFO *> > >::_M_insert, COMDAT
; _this$ = ecx

; 347  : {

  00000	55		 push	 ebp
  00001	8b ec		 mov	 ebp, esp

; 348  :   _Link_type __w = (_Link_type) __w_;
; 349  :   _Link_type __x = (_Link_type) __x_;
; 350  :   _Link_type __y = (_Link_type) __y_;
; 351  :   _Link_type __z;
; 352  : 
; 353  :   if ( __y == this->_M_header._M_data ||
; 354  :        ( __w == 0 && // If w != 0, the remainder fails to false
; 355  :          ( __x != 0 ||     // If x != 0, the remainder succeeds to true
; 356  :            _M_key_compare( _KeyOfValue()(__v), _S_key(__y) ) )
; 357  : 	 )
; 358  :        ) {

  00003	8b 45 14	 mov	 eax, DWORD PTR ___v$[ebp]
  00006	53		 push	 ebx
  00007	8b 5d 10	 mov	 ebx, DWORD PTR ___y_$[ebp]
  0000a	56		 push	 esi
  0000b	57		 push	 edi
  0000c	8b f9		 mov	 edi, ecx
  0000e	3b 1f		 cmp	 ebx, DWORD PTR [edi]
  00010	74 2c		 je	 SHORT $L106432
  00012	83 7d 18 00	 cmp	 DWORD PTR ___w_$[ebp], 0
  00016	75 0d		 jne	 SHORT $L106430
  00018	83 7d 0c 00	 cmp	 DWORD PTR ___x_$[ebp], 0
  0001c	75 20		 jne	 SHORT $L106432
  0001e	8b 08		 mov	 ecx, DWORD PTR [eax]
  00020	3b 4b 10	 cmp	 ecx, DWORD PTR [ebx+16]
  00023	72 19		 jb	 SHORT $L106432
$L106430:

; 369  :   }
; 370  :   else {
; 371  :     __z = _M_create_node(__v);

  00025	50		 push	 eax
  00026	8b cf		 mov	 ecx, edi
  00028	e8 00 00 00 00	 call	 ?_M_create_node@?$_Rb_tree@IU?$pair@$$CBIPAVSERVERNPC_INFO@@@_STL@@U?$_Select1st@U?$pair@$$CBIPAVSERVERNPC_INFO@@@_STL@@@2@U?$less@I@2@V?$allocator@U?$pair@$$CBIPAVSERVERNPC_INFO@@@_STL@@@2@@_STL@@IAEPAU?$_Rb_tree_node@U?$pair@$$CBIPAVSERVERNPC_INFO@@@_STL@@@2@ABU?$pair@$$CBIPAVSERVERNPC_INFO@@@2@@Z ; _STL::_Rb_tree<unsigned int,_STL::pair<unsigned int const ,SERVERNPC_INFO *>,_STL::_Select1st<_STL::pair<unsigned int const ,SERVERNPC_INFO *> >,_STL::less<unsigned int>,_STL::allocator<_STL::pair<unsigned int const ,SERVERNPC_INFO *> > >::_M_create_node
  0002d	8b f0		 mov	 esi, eax

; 372  :     _S_right(__y) = __z;

  0002f	89 73 0c	 mov	 DWORD PTR [ebx+12], esi

; 373  :     if (__y == _M_rightmost())

  00032	8b 07		 mov	 eax, DWORD PTR [edi]
  00034	3b 58 0c	 cmp	 ebx, DWORD PTR [eax+12]
  00037	75 27		 jne	 SHORT $L106435
$L111036:

; 374  :       _M_rightmost() = __z;  // maintain _M_rightmost() pointing to max node

  00039	89 70 0c	 mov	 DWORD PTR [eax+12], esi
  0003c	eb 22		 jmp	 SHORT $L106435
$L106432:

; 359  :     
; 360  :     __z = _M_create_node(__v);

  0003e	50		 push	 eax
  0003f	8b cf		 mov	 ecx, edi
  00041	e8 00 00 00 00	 call	 ?_M_create_node@?$_Rb_tree@IU?$pair@$$CBIPAVSERVERNPC_INFO@@@_STL@@U?$_Select1st@U?$pair@$$CBIPAVSERVERNPC_INFO@@@_STL@@@2@U?$less@I@2@V?$allocator@U?$pair@$$CBIPAVSERVERNPC_INFO@@@_STL@@@2@@_STL@@IAEPAU?$_Rb_tree_node@U?$pair@$$CBIPAVSERVERNPC_INFO@@@_STL@@@2@ABU?$pair@$$CBIPAVSERVERNPC_INFO@@@2@@Z ; _STL::_Rb_tree<unsigned int,_STL::pair<unsigned int const ,SERVERNPC_INFO *>,_STL::_Select1st<_STL::pair<unsigned int const ,SERVERNPC_INFO *> >,_STL::less<unsigned int>,_STL::allocator<_STL::pair<unsigned int const ,SERVERNPC_INFO *> > >::_M_create_node
  00046	8b f0		 mov	 esi, eax

; 361  :     _S_left(__y) = __z;               // also makes _M_leftmost() = __z 

  00048	89 73 08	 mov	 DWORD PTR [ebx+8], esi

; 362  :                                       //    when __y == _M_header
; 363  :     if (__y == this->_M_header._M_data) {

  0004b	8b 07		 mov	 eax, DWORD PTR [edi]
  0004d	3b d8		 cmp	 ebx, eax
  0004f	75 07		 jne	 SHORT $L106433

; 364  :       _M_root() = __z;

  00051	89 70 04	 mov	 DWORD PTR [eax+4], esi

; 365  :       _M_rightmost() = __z;

  00054	8b 07		 mov	 eax, DWORD PTR [edi]

; 366  :     }
; 367  :     else if (__y == _M_leftmost())

  00056	eb e1		 jmp	 SHORT $L111036
$L106433:
  00058	3b 58 08	 cmp	 ebx, DWORD PTR [eax+8]
  0005b	75 03		 jne	 SHORT $L106435

; 368  :       _M_leftmost() = __z;   // maintain _M_leftmost() pointing to min node

  0005d	89 70 08	 mov	 DWORD PTR [eax+8], esi
$L106435:

; 375  :   }
; 376  :   _S_parent(__z) = __y;
; 377  :   _S_left(__z) = 0;

  00060	83 66 08 00	 and	 DWORD PTR [esi+8], 0

; 378  :   _S_right(__z) = 0;

  00064	83 66 0c 00	 and	 DWORD PTR [esi+12], 0
  00068	89 5e 04	 mov	 DWORD PTR [esi+4], ebx

; 379  :   _Rb_global_inst::_Rebalance(__z, this->_M_header._M_data->_M_parent);

  0006b	8b 07		 mov	 eax, DWORD PTR [edi]
  0006d	83 c0 04	 add	 eax, 4
  00070	50		 push	 eax
  00071	56		 push	 esi
  00072	e8 00 00 00 00	 call	 ?_Rebalance@?$_Rb_global@_N@_STL@@SAXPAU_Rb_tree_node_base@2@AAPAU32@@Z ; _STL::_Rb_global<bool>::_Rebalance

; 380  :   ++_M_node_count;

  00077	ff 47 04	 inc	 DWORD PTR [edi+4]

; 381  :   return iterator(__z);

  0007a	8b 45 08	 mov	 eax, DWORD PTR ___$ReturnUdt$[ebp]
  0007d	59		 pop	 ecx
  0007e	59		 pop	 ecx
  0007f	5f		 pop	 edi
  00080	89 30		 mov	 DWORD PTR [eax], esi
  00082	5e		 pop	 esi
  00083	5b		 pop	 ebx

; 382  : }

  00084	5d		 pop	 ebp
  00085	c2 14 00	 ret	 20			; 00000014H
?_M_insert@?$_Rb_tree@IU?$pair@$$CBIPAVSERVERNPC_INFO@@@_STL@@U?$_Select1st@U?$pair@$$CBIPAVSERVERNPC_INFO@@@_STL@@@2@U?$less@I@2@V?$allocator@U?$pair@$$CBIPAVSERVERNPC_INFO@@@_STL@@@2@@_STL@@AAE?AU?$_Rb_tree_iterator@U?$pair@$$CBIPAVSERVERNPC_INFO@@@_STL@@U?$_Nonconst_traits@U?$pair@$$CBIPAVSERVERNPC_INFO@@@_STL@@@2@@2@PAU_Rb_tree_node_base@2@0ABU?$pair@$$CBIPAVSERVERNPC_INFO@@@2@0@Z ENDP ; _STL::_Rb_tree<unsigned int,_STL::pair<unsigned int const ,SERVERNPC_INFO *>,_STL::_Select1st<_STL::pair<unsigned int const ,SERVERNPC_INFO *> >,_STL::less<unsigned int>,_STL::allocator<_STL::pair<unsigned int const ,SERVERNPC_INFO *> > >::_M_insert
; Function compile flags: /Ogsy
; File c:\stlport-4.6.1\stlport\stl\_tree.h
_TEXT	ENDS
;	COMDAT ?_M_create_node@?$_Rb_tree@IU?$pair@$$CBIPAVSERVERNPC_INFO@@@_STL@@U?$_Select1st@U?$pair@$$CBIPAVSERVERNPC_INFO@@@_STL@@@2@U?$less@I@2@V?$allocator@U?$pair@$$CBIPAVSERVERNPC_INFO@@@_STL@@@2@@_STL@@IAEPAU?$_Rb_tree_node@U?$pair@$$CBIPAVSERVERNPC_INFO@@@_STL@@@2@ABU?$pair@$$CBIPAVSERVERNPC_INFO@@@2@@Z
_TEXT	SEGMENT
___x$ = 8						; size = 4
?_M_create_node@?$_Rb_tree@IU?$pair@$$CBIPAVSERVERNPC_INFO@@@_STL@@U?$_Select1st@U?$pair@$$CBIPAVSERVERNPC_INFO@@@_STL@@@2@U?$less@I@2@V?$allocator@U?$pair@$$CBIPAVSERVERNPC_INFO@@@_STL@@@2@@_STL@@IAEPAU?$_Rb_tree_node@U?$pair@$$CBIPAVSERVERNPC_INFO@@@_STL@@@2@ABU?$pair@$$CBIPAVSERVERNPC_INFO@@@2@@Z PROC NEAR ; _STL::_Rb_tree<unsigned int,_STL::pair<unsigned int const ,SERVERNPC_INFO *>,_STL::_Select1st<_STL::pair<unsigned int const ,SERVERNPC_INFO *> >,_STL::less<unsigned int>,_STL::allocator<_STL::pair<unsigned int const ,SERVERNPC_INFO *> > >::_M_create_node, COMDAT
; _this$ = ecx

; 243  :     _Link_type __tmp = this->_M_header.allocate(1);

  00000	6a 18		 push	 24			; 00000018H
  00002	e8 00 00 00 00	 call	 ?allocate@?$__node_alloc@$00$0A@@_STL@@SAPAXI@Z ; _STL::__node_alloc<1,0>::allocate
  00007	59		 pop	 ecx

; 244  :     _STLP_TRY {
; 245  :       _Construct(&__tmp->_M_value_field, __x);

  00008	8d 48 10	 lea	 ecx, DWORD PTR [eax+16]
  0000b	85 c9		 test	 ecx, ecx
  0000d	74 10		 je	 SHORT $L111064
  0000f	8b 54 24 04	 mov	 edx, DWORD PTR ___x$[esp-4]
  00013	56		 push	 esi
  00014	8b 32		 mov	 esi, DWORD PTR [edx]
  00016	89 31		 mov	 DWORD PTR [ecx], esi
  00018	8b 52 04	 mov	 edx, DWORD PTR [edx+4]
  0001b	89 51 04	 mov	 DWORD PTR [ecx+4], edx
  0001e	5e		 pop	 esi
$L111064:

; 246  :     }
; 247  :     _STLP_UNWIND(this->_M_header.deallocate(__tmp,1));
; 248  :     return __tmp;
; 249  :   }

  0001f	c2 04 00	 ret	 4
?_M_create_node@?$_Rb_tree@IU?$pair@$$CBIPAVSERVERNPC_INFO@@@_STL@@U?$_Select1st@U?$pair@$$CBIPAVSERVERNPC_INFO@@@_STL@@@2@U?$less@I@2@V?$allocator@U?$pair@$$CBIPAVSERVERNPC_INFO@@@_STL@@@2@@_STL@@IAEPAU?$_Rb_tree_node@U?$pair@$$CBIPAVSERVERNPC_INFO@@@_STL@@@2@ABU?$pair@$$CBIPAVSERVERNPC_INFO@@@2@@Z ENDP ; _STL::_Rb_tree<unsigned int,_STL::pair<unsigned int const ,SERVERNPC_INFO *>,_STL::_Select1st<_STL::pair<unsigned int const ,SERVERNPC_INFO *> >,_STL::less<unsigned int>,_STL::allocator<_STL::pair<unsigned int const ,SERVERNPC_INFO *> > >::_M_create_node
; Function compile flags: /Ogsy
_TEXT	ENDS
;	COMDAT ??_G?$CTypeMap@VNPC_INFO@@@@UAEPAXI@Z
_TEXT	SEGMENT
___flags$ = 8						; size = 4
??_G?$CTypeMap@VNPC_INFO@@@@UAEPAXI@Z PROC NEAR		; CTypeMap<NPC_INFO>::`scalar deleting destructor', COMDAT
; _this$ = ecx
  00000	56		 push	 esi
  00001	8b f1		 mov	 esi, ecx
  00003	e8 00 00 00 00	 call	 ??1?$CTypeMap@VNPC_INFO@@@@UAE@XZ ; CTypeMap<NPC_INFO>::~CTypeMap<NPC_INFO>
  00008	f6 44 24 08 01	 test	 BYTE PTR ___flags$[esp], 1
  0000d	74 07		 je	 SHORT $L105626
  0000f	56		 push	 esi
  00010	e8 00 00 00 00	 call	 ??3@YAXPAX@Z		; operator delete
  00015	59		 pop	 ecx
$L105626:
  00016	8b c6		 mov	 eax, esi
  00018	5e		 pop	 esi
  00019	c2 04 00	 ret	 4
??_G?$CTypeMap@VNPC_INFO@@@@UAEPAXI@Z ENDP		; CTypeMap<NPC_INFO>::`scalar deleting destructor'
; Function compile flags: /Ogsy
_TEXT	ENDS
;	COMDAT ??_G?$CTypeMap@VSERVERNPC_INFO@@@@UAEPAXI@Z
_TEXT	SEGMENT
___flags$ = 8						; size = 4
??_G?$CTypeMap@VSERVERNPC_INFO@@@@UAEPAXI@Z PROC NEAR	; CTypeMap<SERVERNPC_INFO>::`scalar deleting destructor', COMDAT
; _this$ = ecx
  00000	56		 push	 esi
  00001	8b f1		 mov	 esi, ecx
  00003	e8 00 00 00 00	 call	 ??1?$CTypeMap@VSERVERNPC_INFO@@@@UAE@XZ ; CTypeMap<SERVERNPC_INFO>::~CTypeMap<SERVERNPC_INFO>
  00008	f6 44 24 08 01	 test	 BYTE PTR ___flags$[esp], 1
  0000d	74 07		 je	 SHORT $L105634
  0000f	56		 push	 esi
  00010	e8 00 00 00 00	 call	 ??3@YAXPAX@Z		; operator delete
  00015	59		 pop	 ecx
$L105634:
  00016	8b c6		 mov	 eax, esi
  00018	5e		 pop	 esi
  00019	c2 04 00	 ret	 4
??_G?$CTypeMap@VSERVERNPC_INFO@@@@UAEPAXI@Z ENDP	; CTypeMap<SERVERNPC_INFO>::`scalar deleting destructor'
_TEXT	ENDS
PUBLIC	??0MNPCTable@@QAE@XZ				; MNPCTable::MNPCTable
PUBLIC	??_7MNPCTable@@6B@				; MNPCTable::`vftable'
PUBLIC	??_GMNPCTable@@UAEPAXI@Z			; MNPCTable::`scalar deleting destructor'
PUBLIC	??_R4MNPCTable@@6B@				; MNPCTable::`RTTI Complete Object Locator'
PUBLIC	??_R0?AVMNPCTable@@@8				; MNPCTable `RTTI Type Descriptor'
PUBLIC	??_R3MNPCTable@@8				; MNPCTable::`RTTI Class Hierarchy Descriptor'
PUBLIC	??_R2MNPCTable@@8				; MNPCTable::`RTTI Base Class Array'
PUBLIC	??_R1A@?0A@A@MNPCTable@@8			; MNPCTable::`RTTI Base Class Descriptor at (0,-1,0,0)'
EXTRN	??_EMNPCTable@@UAEPAXI@Z:NEAR			; MNPCTable::`vector deleting destructor'
;	COMDAT ??_7MNPCTable@@6B@
; File c:\darkeden\designed_common\project\client\mnpctable.cpp
CONST	SEGMENT
??_7MNPCTable@@6B@ DD FLAT:??_R4MNPCTable@@6B@		; MNPCTable::`vftable'
	DD	FLAT:??_EMNPCTable@@UAEPAXI@Z
	DD	FLAT:?Release@?$CTypeMap@VNPC_INFO@@@@UAEXXZ
	DD	FLAT:?AddData@?$CTypeMap@VNPC_INFO@@@@UAE_NIPAVNPC_INFO@@@Z
	DD	FLAT:?GetData@?$CTypeMap@VNPC_INFO@@@@UAEPAVNPC_INFO@@I@Z
	DD	FLAT:?RemoveData@?$CTypeMap@VNPC_INFO@@@@UAE_NI@Z
	DD	FLAT:?SaveToFile@?$CTypeMap@VNPC_INFO@@@@UAEXAAV?$basic_ofstream@DV?$char_traits@D@_STL@@@_STL@@@Z
	DD	FLAT:?LoadFromFile@?$CTypeMap@VNPC_INFO@@@@UAEXAAVivfstream@@@Z
CONST	ENDS
;	COMDAT ??_R4MNPCTable@@6B@
rdata$r	SEGMENT
??_R4MNPCTable@@6B@ DD 00H				; MNPCTable::`RTTI Complete Object Locator'
	DD	00H
	DD	00H
	DD	FLAT:??_R0?AVMNPCTable@@@8
	DD	FLAT:??_R3MNPCTable@@8
rdata$r	ENDS
;	COMDAT ??_R0?AVMNPCTable@@@8
_DATA	SEGMENT
??_R0?AVMNPCTable@@@8 DD FLAT:??_7type_info@@6B@	; MNPCTable `RTTI Type Descriptor'
	DD	00H
	DB	'.?AVMNPCTable@@', 00H
_DATA	ENDS
;	COMDAT ??_R3MNPCTable@@8
rdata$r	SEGMENT
??_R3MNPCTable@@8 DD 00H				; MNPCTable::`RTTI Class Hierarchy Descriptor'
	DD	00H
	DD	03H
	DD	FLAT:??_R2MNPCTable@@8
rdata$r	ENDS
;	COMDAT ??_R2MNPCTable@@8
rdata$r	SEGMENT
??_R2MNPCTable@@8 DD FLAT:??_R1A@?0A@A@MNPCTable@@8	; MNPCTable::`RTTI Base Class Array'
	DD	FLAT:??_R1A@?0A@A@?$CTypeMap@VNPC_INFO@@@@8
	DD	FLAT:??_R13?0A@A@?$map@IPAVNPC_INFO@@U?$less@I@_STL@@V?$allocator@U?$pair@$$CBIPAVNPC_INFO@@@_STL@@@3@@_STL@@8
rdata$r	ENDS
;	COMDAT ??_R1A@?0A@A@MNPCTable@@8
rdata$r	SEGMENT
??_R1A@?0A@A@MNPCTable@@8 DD FLAT:??_R0?AVMNPCTable@@@8	; MNPCTable::`RTTI Base Class Descriptor at (0,-1,0,0)'
	DD	02H
	DD	00H
	DD	0ffffffffH
	DD	00H
	DD	00H
; Function compile flags: /Ogsy
rdata$r	ENDS
;	COMDAT ??0MNPCTable@@QAE@XZ
_TEXT	SEGMENT
??0MNPCTable@@QAE@XZ PROC NEAR				; MNPCTable::MNPCTable, COMDAT
; _this$ = ecx

; 99   : {

  00000	56		 push	 esi
  00001	8b f1		 mov	 esi, ecx
  00003	e8 00 00 00 00	 call	 ??0?$CTypeMap@VNPC_INFO@@@@QAE@XZ ; CTypeMap<NPC_INFO>::CTypeMap<NPC_INFO>
  00008	c7 06 00 00 00
	00		 mov	 DWORD PTR [esi], OFFSET FLAT:??_7MNPCTable@@6B@

; 100  : }

  0000e	8b c6		 mov	 eax, esi
  00010	5e		 pop	 esi
  00011	c3		 ret	 0
??0MNPCTable@@QAE@XZ ENDP				; MNPCTable::MNPCTable
_TEXT	ENDS
PUBLIC	??1MNPCTable@@UAE@XZ				; MNPCTable::~MNPCTable
; Function compile flags: /Ogsy
;	COMDAT ??1MNPCTable@@UAE@XZ
_TEXT	SEGMENT
??1MNPCTable@@UAE@XZ PROC NEAR				; MNPCTable::~MNPCTable, COMDAT
; _this$ = ecx

; 103  : {

  00000	c7 01 00 00 00
	00		 mov	 DWORD PTR [ecx], OFFSET FLAT:??_7MNPCTable@@6B@

; 104  : //	Release();
; 105  : }

  00006	e9 00 00 00 00	 jmp	 ??1?$CTypeMap@VNPC_INFO@@@@UAE@XZ ; CTypeMap<NPC_INFO>::~CTypeMap<NPC_INFO>
??1MNPCTable@@UAE@XZ ENDP				; MNPCTable::~MNPCTable
_TEXT	ENDS
PUBLIC	??_GMServerNPCTable@@UAEPAXI@Z			; MServerNPCTable::`scalar deleting destructor'
PUBLIC	??_R4MServerNPCTable@@6B@			; MServerNPCTable::`RTTI Complete Object Locator'
PUBLIC	??_R0?AVMServerNPCTable@@@8			; MServerNPCTable `RTTI Type Descriptor'
PUBLIC	??_R3MServerNPCTable@@8				; MServerNPCTable::`RTTI Class Hierarchy Descriptor'
PUBLIC	??_R2MServerNPCTable@@8				; MServerNPCTable::`RTTI Base Class Array'
PUBLIC	??_R1A@?0A@A@MServerNPCTable@@8			; MServerNPCTable::`RTTI Base Class Descriptor at (0,-1,0,0)'
PUBLIC	??0MServerNPCTable@@QAE@XZ			; MServerNPCTable::MServerNPCTable
PUBLIC	??_7MServerNPCTable@@6B@			; MServerNPCTable::`vftable'
EXTRN	??_EMServerNPCTable@@UAEPAXI@Z:NEAR		; MServerNPCTable::`vector deleting destructor'
;	COMDAT xdata$x
; File c:\stlport-4.6.1\stlport\stl\_map.h
xdata$x	SEGMENT
$T111301 DD	0ffffffffH
	DD	FLAT:$L111293
	DD	00H
	DD	FLAT:$L111294
$T111299 DD	019930520H
	DD	02H
	DD	FLAT:$T111301
	DD	2 DUP(00H)
	DD	2 DUP(00H)
xdata$x	ENDS
;	COMDAT ??_7MServerNPCTable@@6B@
CONST	SEGMENT
??_7MServerNPCTable@@6B@ DD FLAT:??_R4MServerNPCTable@@6B@ ; MServerNPCTable::`vftable'
	DD	FLAT:??_EMServerNPCTable@@UAEPAXI@Z
	DD	FLAT:?Release@?$CTypeMap@VSERVERNPC_INFO@@@@UAEXXZ
	DD	FLAT:?AddData@?$CTypeMap@VSERVERNPC_INFO@@@@UAE_NIPAVSERVERNPC_INFO@@@Z
	DD	FLAT:?GetData@?$CTypeMap@VSERVERNPC_INFO@@@@UAEPAVSERVERNPC_INFO@@I@Z
	DD	FLAT:?RemoveData@?$CTypeMap@VSERVERNPC_INFO@@@@UAE_NI@Z
	DD	FLAT:?SaveToFile@?$CTypeMap@VSERVERNPC_INFO@@@@UAEXAAV?$basic_ofstream@DV?$char_traits@D@_STL@@@_STL@@@Z
	DD	FLAT:?LoadFromFile@?$CTypeMap@VSERVERNPC_INFO@@@@UAEXAAVivfstream@@@Z
CONST	ENDS
;	COMDAT ??_R4MServerNPCTable@@6B@
rdata$r	SEGMENT
??_R4MServerNPCTable@@6B@ DD 00H			; MServerNPCTable::`RTTI Complete Object Locator'
	DD	00H
	DD	00H
	DD	FLAT:??_R0?AVMServerNPCTable@@@8
	DD	FLAT:??_R3MServerNPCTable@@8
rdata$r	ENDS
;	COMDAT ??_R0?AVMServerNPCTable@@@8
_DATA	SEGMENT
??_R0?AVMServerNPCTable@@@8 DD FLAT:??_7type_info@@6B@	; MServerNPCTable `RTTI Type Descriptor'
	DD	00H
	DB	'.?AVMServerNPCTable@@', 00H
_DATA	ENDS
;	COMDAT ??_R3MServerNPCTable@@8
rdata$r	SEGMENT
??_R3MServerNPCTable@@8 DD 00H				; MServerNPCTable::`RTTI Class Hierarchy Descriptor'
	DD	00H
	DD	03H
	DD	FLAT:??_R2MServerNPCTable@@8
rdata$r	ENDS
;	COMDAT ??_R2MServerNPCTable@@8
rdata$r	SEGMENT
??_R2MServerNPCTable@@8 DD FLAT:??_R1A@?0A@A@MServerNPCTable@@8 ; MServerNPCTable::`RTTI Base Class Array'
	DD	FLAT:??_R1A@?0A@A@?$CTypeMap@VSERVERNPC_INFO@@@@8
	DD	FLAT:??_R13?0A@A@?$map@IPAVSERVERNPC_INFO@@U?$less@I@_STL@@V?$allocator@U?$pair@$$CBIPAVSERVERNPC_INFO@@@_STL@@@3@@_STL@@8
rdata$r	ENDS
;	COMDAT ??_R1A@?0A@A@MServerNPCTable@@8
rdata$r	SEGMENT
??_R1A@?0A@A@MServerNPCTable@@8 DD FLAT:??_R0?AVMServerNPCTable@@@8 ; MServerNPCTable::`RTTI Base Class Descriptor at (0,-1,0,0)'
	DD	02H
	DD	00H
	DD	0ffffffffH
	DD	00H
	DD	00H
; Function compile flags: /Ogsy
; File c:\darkeden\designed_common\project\client\mnpctable.cpp
rdata$r	ENDS
;	COMDAT ??0MServerNPCTable@@QAE@XZ
_TEXT	SEGMENT
_this$ = -20						; size = 4
$T111292 = -16						; size = 4
$T111291 = -16						; size = 4
$T111290 = -16						; size = 4
$T111289 = -16						; size = 4
$T111288 = -16						; size = 4
$T111287 = -16						; size = 4
$T111286 = -16						; size = 4
$T111285 = -16						; size = 4
$T111284 = -16						; size = 4
$T111283 = -16						; size = 4
$T111282 = -16						; size = 4
$T111281 = -16						; size = 4
$T111280 = -16						; size = 4
$T111279 = -16						; size = 4
$T111278 = -16						; size = 4
$T111277 = -16						; size = 4
$T111276 = -16						; size = 4
$T111275 = -16						; size = 4
$T111274 = -16						; size = 4
$T111273 = -16						; size = 4
$T111272 = -16						; size = 4
$T111271 = -16						; size = 4
$T111270 = -16						; size = 4
$T111269 = -16						; size = 4
$T111268 = -16						; size = 4
$T111267 = -16						; size = 4
$T111266 = -16						; size = 4
$T111265 = -16						; size = 4
$T111264 = -16						; size = 4
$T111263 = -16						; size = 4
$T111262 = -16						; size = 4
$T111261 = -16						; size = 4
$T111260 = -16						; size = 4
$T111259 = -16						; size = 4
$T111258 = -16						; size = 4
$T111257 = -16						; size = 4
$T111256 = -16						; size = 4
$T111255 = -16						; size = 4
$T111254 = -16						; size = 4
$T111253 = -16						; size = 4
$T111252 = -16						; size = 4
$T111251 = -16						; size = 4
$T111250 = -16						; size = 4
$T111249 = -16						; size = 4
$T111248 = -16						; size = 4
$T111247 = -16						; size = 4
$T111246 = -16						; size = 4
$T111245 = -16						; size = 4
$T111244 = -16						; size = 4
$T111243 = -16						; size = 4
$T111242 = -16						; size = 4
$T111241 = -16						; size = 4
$T111240 = -16						; size = 4
$T111239 = -16						; size = 4
$T111238 = -16						; size = 4
$T111237 = -16						; size = 4
$T111236 = -16						; size = 4
$T111235 = -16						; size = 4
$T111234 = -16						; size = 4
$T111233 = -16						; size = 4
$T111232 = -16						; size = 4
$T111231 = -16						; size = 4
$T111230 = -16						; size = 4
$T111229 = -16						; size = 4
$T111228 = -16						; size = 4
$T111227 = -16						; size = 4
$T111226 = -16						; size = 4
$T111225 = -16						; size = 4
$T111224 = -16						; size = 4
$T111223 = -16						; size = 4
$T111222 = -16						; size = 4
$T111221 = -16						; size = 4
$T111220 = -16						; size = 4
$T111219 = -16						; size = 4
$T111218 = -16						; size = 4
$T111217 = -16						; size = 4
$T111216 = -16						; size = 4
$T111215 = -16						; size = 4
$T111214 = -16						; size = 4
$T111213 = -16						; size = 4
$T111212 = -16						; size = 4
$T111211 = -16						; size = 4
$T111210 = -16						; size = 4
$T111209 = -16						; size = 4
$T111208 = -16						; size = 4
$T111207 = -16						; size = 4
$T111206 = -16						; size = 4
$T111205 = -16						; size = 4
$T111204 = -16						; size = 4
$T111203 = -16						; size = 4
$T111202 = -16						; size = 4
$T111201 = -16						; size = 4
$T111200 = -16						; size = 4
$T111199 = -16						; size = 4
$T111198 = -16						; size = 4
$T111197 = -16						; size = 4
$T111196 = -16						; size = 4
$T111195 = -16						; size = 4
$T111194 = -16						; size = 4
$T111193 = -16						; size = 4
$T111192 = -16						; size = 4
$T111191 = -16						; size = 4
$T111190 = -16						; size = 4
$T111189 = -16						; size = 4
$T111188 = -16						; size = 4
$T111187 = -16						; size = 4
$T111186 = -16						; size = 4
$T111185 = -16						; size = 4
$T111184 = -16						; size = 4
$T111183 = -16						; size = 4
$T111182 = -16						; size = 4
$T111181 = -16						; size = 4
$T111180 = -16						; size = 4
$T111179 = -16						; size = 4
$T111178 = -16						; size = 4
$T111177 = -16						; size = 4
$T111176 = -16						; size = 4
$T111175 = -16						; size = 4
$T111174 = -16						; size = 4
$T111173 = -16						; size = 4
$T111172 = -16						; size = 4
$T111171 = -16						; size = 4
$T111170 = -16						; size = 4
$T111169 = -16						; size = 4
$T111168 = -16						; size = 4
$T111167 = -16						; size = 4
$T111166 = -16						; size = 4
$T111165 = -16						; size = 4
$T111164 = -16						; size = 4
$T111163 = -16						; size = 4
$T111162 = -16						; size = 4
$T111161 = -16						; size = 4
$T111160 = -16						; size = 4
$T111159 = -16						; size = 4
$T111158 = -16						; size = 4
$T111157 = -16						; size = 4
$T111156 = -16						; size = 4
$T111155 = -16						; size = 4
$T111154 = -16						; size = 4
$T111153 = -16						; size = 4
$T111152 = -16						; size = 4
$T111151 = -16						; size = 4
$T111150 = -16						; size = 4
$T111149 = -16						; size = 4
$T111148 = -16						; size = 4
$T111147 = -16						; size = 4
$T111146 = -16						; size = 4
$T111145 = -16						; size = 4
$T111144 = -16						; size = 4
$T111143 = -16						; size = 4
$T111142 = -16						; size = 4
$T111141 = -16						; size = 4
$T111140 = -16						; size = 4
$T111139 = -16						; size = 4
$T111138 = -16						; size = 4
$T111137 = -16						; size = 4
$T111136 = -16						; size = 4
$T111135 = -16						; size = 4
$T111134 = -16						; size = 4
$T111133 = -16						; size = 4
$T111132 = -16						; size = 4
$T111131 = -16						; size = 4
$T111130 = -16						; size = 4
$T111129 = -16						; size = 4
$T111128 = -16						; size = 4
$T111127 = -16						; size = 4
$T111126 = -16						; size = 4
$T111125 = -16						; size = 4
$T111124 = -16						; size = 4
$T111123 = -16						; size = 4
$T111122 = -16						; size = 4
$T111121 = -16						; size = 4
$T111120 = -16						; size = 4
$T111119 = -16						; size = 4
$T111118 = -16						; size = 4
$T111117 = -16						; size = 4
$T111116 = -16						; size = 4
$T111115 = -16						; size = 4
$T111114 = -16						; size = 4
$T111113 = -16						; size = 4
$T111112 = -16						; size = 4
$T111111 = -16						; size = 4
$T111110 = -16						; size = 4
$T111109 = -16						; size = 4
$T111108 = -16						; size = 4
$T111107 = -16						; size = 4
$T111106 = -16						; size = 4
$T111105 = -16						; size = 4
$T111104 = -16						; size = 4
$T111103 = -16						; size = 4
$T111102 = -16						; size = 4
$T111101 = -16						; size = 4
$T111100 = -16						; size = 4
$T111099 = -16						; size = 4
$T111098 = -16						; size = 4
$T111097 = -16						; size = 4
$T111096 = -16						; size = 4
$T111095 = -16						; size = 4
$T111094 = -16						; size = 4
$T111093 = -16						; size = 4
$T111092 = -16						; size = 4
$T111091 = -16						; size = 4
$T111090 = -16						; size = 4
__$EHRec$ = -12						; size = 12
??0MServerNPCTable@@QAE@XZ PROC NEAR			; MServerNPCTable::MServerNPCTable, COMDAT
; _this$ = ecx

; 192  : {

  00000	b8 00 00 00 00	 mov	 eax, __ehhandler$??0MServerNPCTable@@QAE@XZ
  00005	e8 00 00 00 00	 call	 __EH_prolog
  0000a	51		 push	 ecx
  0000b	51		 push	 ecx
  0000c	53		 push	 ebx
  0000d	56		 push	 esi
  0000e	57		 push	 edi
  0000f	8b f9		 mov	 edi, ecx
  00011	89 7d ec	 mov	 DWORD PTR _this$[ebp], edi
  00014	e8 00 00 00 00	 call	 ??0?$CTypeMap@VSERVERNPC_INFO@@@@QAE@XZ ; CTypeMap<SERVERNPC_INFO>::CTypeMap<SERVERNPC_INFO>
  00019	83 65 fc 00	 and	 DWORD PTR __$EHRec$[ebp+8], 0
  0001d	c7 07 00 00 00
	00		 mov	 DWORD PTR [edi], OFFSET FLAT:??_7MServerNPCTable@@6B@
  00023	83 c7 10	 add	 edi, 16			; 00000010H
  00026	8b cf		 mov	 ecx, edi
  00028	e8 00 00 00 00	 call	 ??0?$map@HHU?$less@H@_STL@@V?$allocator@U?$pair@$$CBHH@_STL@@@2@@_STL@@QAE@XZ ; _STL::map<int,int,_STL::less<int>,_STL::allocator<_STL::pair<int const ,int> > >::map<int,int,_STL::less<int>,_STL::allocator<_STL::pair<int const ,int> > >

; 193  : 
; 194  : 	// !!!!!!!!!!!!!    @@@@@@  @@@  @   @     @@   @@  @@@@@@    !!!!!!!!!!!!!
; 195  : 	// !!!!!!!!!!!!!    @        @    @ @      @ @ @ @  @         !!!!!!!!!!!!!
; 196  : 	// !!!!!!!!!!!!!    @@@@@@   @     @       @  @  @  @@@@@@    !!!!!!!!!!!!!
; 197  : 	// !!!!!!!!!!!!!    @        @    @ @      @     @  @         !!!!!!!!!!!!!
; 198  : 	// !!!!!!!!!!!!!    @       @@@  @   @     @     @  @@@@@@    !!!!!!!!!!!!!
; 199  : 
; 200  : 	NPCSPRITEID.clear();

  0002d	8b cf		 mov	 ecx, edi
  0002f	c6 45 fc 01	 mov	 BYTE PTR __$EHRec$[ebp+8], 1
  00033	e8 00 00 00 00	 call	 ?clear@?$_Rb_tree@HU?$pair@$$CBHH@_STL@@U?$_Select1st@U?$pair@$$CBHH@_STL@@@2@U?$less@H@2@V?$allocator@U?$pair@$$CBHH@_STL@@@2@@_STL@@QAEXXZ ; _STL::_Rb_tree<int,_STL::pair<int const ,int>,_STL::_Select1st<_STL::pair<int const ,int> >,_STL::less<int>,_STL::allocator<_STL::pair<int const ,int> > >::clear

; 201  : 
; 202  : 	NPCSPRITEID[157] = 1;

  00038	8d 45 f0	 lea	 eax, DWORD PTR $T111090[ebp]
  0003b	50		 push	 eax
  0003c	8b cf		 mov	 ecx, edi
  0003e	c7 45 f0 9d 00
	00 00		 mov	 DWORD PTR $T111090[ebp], 157 ; 0000009dH
  00045	e8 00 00 00 00	 call	 ??A?$map@HHU?$less@H@_STL@@V?$allocator@U?$pair@$$CBHH@_STL@@@2@@_STL@@QAEAAHABH@Z ; _STL::map<int,int,_STL::less<int>,_STL::allocator<_STL::pair<int const ,int> > >::operator[]
  0004a	c7 00 01 00 00
	00		 mov	 DWORD PTR [eax], 1

; 203  : 	NPCSPRITEID[17] = 2;

  00050	8d 45 f0	 lea	 eax, DWORD PTR $T111091[ebp]
  00053	50		 push	 eax
  00054	8b cf		 mov	 ecx, edi
  00056	c7 45 f0 11 00
	00 00		 mov	 DWORD PTR $T111091[ebp], 17 ; 00000011H
  0005d	e8 00 00 00 00	 call	 ??A?$map@HHU?$less@H@_STL@@V?$allocator@U?$pair@$$CBHH@_STL@@@2@@_STL@@QAEAAHABH@Z ; _STL::map<int,int,_STL::less<int>,_STL::allocator<_STL::pair<int const ,int> > >::operator[]
  00062	c7 00 02 00 00
	00		 mov	 DWORD PTR [eax], 2

; 204  : 	NPCSPRITEID[16] = 3;

  00068	8d 45 f0	 lea	 eax, DWORD PTR $T111092[ebp]
  0006b	50		 push	 eax
  0006c	8b cf		 mov	 ecx, edi
  0006e	c7 45 f0 10 00
	00 00		 mov	 DWORD PTR $T111092[ebp], 16 ; 00000010H
  00075	e8 00 00 00 00	 call	 ??A?$map@HHU?$less@H@_STL@@V?$allocator@U?$pair@$$CBHH@_STL@@@2@@_STL@@QAEAAHABH@Z ; _STL::map<int,int,_STL::less<int>,_STL::allocator<_STL::pair<int const ,int> > >::operator[]
  0007a	c7 00 03 00 00
	00		 mov	 DWORD PTR [eax], 3

; 205  : 	NPCSPRITEID[18] = 4;

  00080	8d 45 f0	 lea	 eax, DWORD PTR $T111093[ebp]
  00083	50		 push	 eax
  00084	8b cf		 mov	 ecx, edi
  00086	c7 45 f0 12 00
	00 00		 mov	 DWORD PTR $T111093[ebp], 18 ; 00000012H
  0008d	e8 00 00 00 00	 call	 ??A?$map@HHU?$less@H@_STL@@V?$allocator@U?$pair@$$CBHH@_STL@@@2@@_STL@@QAEAAHABH@Z ; _STL::map<int,int,_STL::less<int>,_STL::allocator<_STL::pair<int const ,int> > >::operator[]
  00092	c7 00 04 00 00
	00		 mov	 DWORD PTR [eax], 4

; 206  : 	NPCSPRITEID[26] = 5;

  00098	8d 45 f0	 lea	 eax, DWORD PTR $T111094[ebp]
  0009b	50		 push	 eax
  0009c	8b cf		 mov	 ecx, edi
  0009e	c7 45 f0 1a 00
	00 00		 mov	 DWORD PTR $T111094[ebp], 26 ; 0000001aH
  000a5	e8 00 00 00 00	 call	 ??A?$map@HHU?$less@H@_STL@@V?$allocator@U?$pair@$$CBHH@_STL@@@2@@_STL@@QAEAAHABH@Z ; _STL::map<int,int,_STL::less<int>,_STL::allocator<_STL::pair<int const ,int> > >::operator[]
  000aa	c7 00 05 00 00
	00		 mov	 DWORD PTR [eax], 5

; 207  : 	NPCSPRITEID[21] = 6;

  000b0	8d 45 f0	 lea	 eax, DWORD PTR $T111095[ebp]
  000b3	50		 push	 eax
  000b4	8b cf		 mov	 ecx, edi
  000b6	c7 45 f0 15 00
	00 00		 mov	 DWORD PTR $T111095[ebp], 21 ; 00000015H
  000bd	e8 00 00 00 00	 call	 ??A?$map@HHU?$less@H@_STL@@V?$allocator@U?$pair@$$CBHH@_STL@@@2@@_STL@@QAEAAHABH@Z ; _STL::map<int,int,_STL::less<int>,_STL::allocator<_STL::pair<int const ,int> > >::operator[]
  000c2	c7 00 06 00 00
	00		 mov	 DWORD PTR [eax], 6

; 208  : 	NPCSPRITEID[97] = 7;

  000c8	8d 45 f0	 lea	 eax, DWORD PTR $T111096[ebp]
  000cb	50		 push	 eax
  000cc	8b cf		 mov	 ecx, edi
  000ce	c7 45 f0 61 00
	00 00		 mov	 DWORD PTR $T111096[ebp], 97 ; 00000061H
  000d5	e8 00 00 00 00	 call	 ??A?$map@HHU?$less@H@_STL@@V?$allocator@U?$pair@$$CBHH@_STL@@@2@@_STL@@QAEAAHABH@Z ; _STL::map<int,int,_STL::less<int>,_STL::allocator<_STL::pair<int const ,int> > >::operator[]

; 209  : 	NPCSPRITEID[100] = 8;

  000da	6a 64		 push	 100			; 00000064H
  000dc	c7 00 07 00 00
	00		 mov	 DWORD PTR [eax], 7
  000e2	5e		 pop	 esi
  000e3	8d 45 f0	 lea	 eax, DWORD PTR $T111097[ebp]
  000e6	50		 push	 eax
  000e7	8b cf		 mov	 ecx, edi
  000e9	89 75 f0	 mov	 DWORD PTR $T111097[ebp], esi
  000ec	e8 00 00 00 00	 call	 ??A?$map@HHU?$less@H@_STL@@V?$allocator@U?$pair@$$CBHH@_STL@@@2@@_STL@@QAEAAHABH@Z ; _STL::map<int,int,_STL::less<int>,_STL::allocator<_STL::pair<int const ,int> > >::operator[]
  000f1	c7 00 08 00 00
	00		 mov	 DWORD PTR [eax], 8

; 210  : 	NPCSPRITEID[24] = 9;

  000f7	8d 45 f0	 lea	 eax, DWORD PTR $T111098[ebp]
  000fa	50		 push	 eax
  000fb	8b cf		 mov	 ecx, edi
  000fd	c7 45 f0 18 00
	00 00		 mov	 DWORD PTR $T111098[ebp], 24 ; 00000018H
  00104	e8 00 00 00 00	 call	 ??A?$map@HHU?$less@H@_STL@@V?$allocator@U?$pair@$$CBHH@_STL@@@2@@_STL@@QAEAAHABH@Z ; _STL::map<int,int,_STL::less<int>,_STL::allocator<_STL::pair<int const ,int> > >::operator[]

; 211  : 	NPCSPRITEID[14] = 10;

  00109	6a 0e		 push	 14			; 0000000eH
  0010b	c7 00 09 00 00
	00		 mov	 DWORD PTR [eax], 9
  00111	5b		 pop	 ebx
  00112	8d 45 f0	 lea	 eax, DWORD PTR $T111099[ebp]
  00115	50		 push	 eax
  00116	8b cf		 mov	 ecx, edi
  00118	89 5d f0	 mov	 DWORD PTR $T111099[ebp], ebx
  0011b	e8 00 00 00 00	 call	 ??A?$map@HHU?$less@H@_STL@@V?$allocator@U?$pair@$$CBHH@_STL@@@2@@_STL@@QAEAAHABH@Z ; _STL::map<int,int,_STL::less<int>,_STL::allocator<_STL::pair<int const ,int> > >::operator[]
  00120	c7 00 0a 00 00
	00		 mov	 DWORD PTR [eax], 10	; 0000000aH

; 212  : 	NPCSPRITEID[110] = 11;

  00126	c7 45 f0 6e 00
	00 00		 mov	 DWORD PTR $T111100[ebp], 110 ; 0000006eH
  0012d	8d 45 f0	 lea	 eax, DWORD PTR $T111100[ebp]
  00130	50		 push	 eax
  00131	8b cf		 mov	 ecx, edi
  00133	e8 00 00 00 00	 call	 ??A?$map@HHU?$less@H@_STL@@V?$allocator@U?$pair@$$CBHH@_STL@@@2@@_STL@@QAEAAHABH@Z ; _STL::map<int,int,_STL::less<int>,_STL::allocator<_STL::pair<int const ,int> > >::operator[]
  00138	c7 00 0b 00 00
	00		 mov	 DWORD PTR [eax], 11	; 0000000bH

; 213  : 	NPCSPRITEID[108] = 12;

  0013e	8d 45 f0	 lea	 eax, DWORD PTR $T111101[ebp]
  00141	50		 push	 eax
  00142	8b cf		 mov	 ecx, edi
  00144	c7 45 f0 6c 00
	00 00		 mov	 DWORD PTR $T111101[ebp], 108 ; 0000006cH
  0014b	e8 00 00 00 00	 call	 ??A?$map@HHU?$less@H@_STL@@V?$allocator@U?$pair@$$CBHH@_STL@@@2@@_STL@@QAEAAHABH@Z ; _STL::map<int,int,_STL::less<int>,_STL::allocator<_STL::pair<int const ,int> > >::operator[]
  00150	c7 00 0c 00 00
	00		 mov	 DWORD PTR [eax], 12	; 0000000cH

; 214  : 	NPCSPRITEID[101] = 13;

  00156	8d 45 f0	 lea	 eax, DWORD PTR $T111102[ebp]
  00159	50		 push	 eax
  0015a	8b cf		 mov	 ecx, edi
  0015c	c7 45 f0 65 00
	00 00		 mov	 DWORD PTR $T111102[ebp], 101 ; 00000065H
  00163	e8 00 00 00 00	 call	 ??A?$map@HHU?$less@H@_STL@@V?$allocator@U?$pair@$$CBHH@_STL@@@2@@_STL@@QAEAAHABH@Z ; _STL::map<int,int,_STL::less<int>,_STL::allocator<_STL::pair<int const ,int> > >::operator[]
  00168	c7 00 0d 00 00
	00		 mov	 DWORD PTR [eax], 13	; 0000000dH

; 215  : 	NPCSPRITEID[95] = 14;

  0016e	8d 45 f0	 lea	 eax, DWORD PTR $T111103[ebp]
  00171	50		 push	 eax
  00172	8b cf		 mov	 ecx, edi
  00174	c7 45 f0 5f 00
	00 00		 mov	 DWORD PTR $T111103[ebp], 95 ; 0000005fH
  0017b	e8 00 00 00 00	 call	 ??A?$map@HHU?$less@H@_STL@@V?$allocator@U?$pair@$$CBHH@_STL@@@2@@_STL@@QAEAAHABH@Z ; _STL::map<int,int,_STL::less<int>,_STL::allocator<_STL::pair<int const ,int> > >::operator[]

; 216  : 	NPCSPRITEID[109] = 15;

  00180	6a 6d		 push	 109			; 0000006dH
  00182	89 18		 mov	 DWORD PTR [eax], ebx
  00184	5b		 pop	 ebx
  00185	8d 45 f0	 lea	 eax, DWORD PTR $T111104[ebp]
  00188	50		 push	 eax
  00189	8b cf		 mov	 ecx, edi
  0018b	89 5d f0	 mov	 DWORD PTR $T111104[ebp], ebx
  0018e	e8 00 00 00 00	 call	 ??A?$map@HHU?$less@H@_STL@@V?$allocator@U?$pair@$$CBHH@_STL@@@2@@_STL@@QAEAAHABH@Z ; _STL::map<int,int,_STL::less<int>,_STL::allocator<_STL::pair<int const ,int> > >::operator[]
  00193	c7 00 0f 00 00
	00		 mov	 DWORD PTR [eax], 15	; 0000000fH

; 217  : 	NPCSPRITEID[103] = 16;

  00199	8d 45 f0	 lea	 eax, DWORD PTR $T111105[ebp]
  0019c	50		 push	 eax
  0019d	8b cf		 mov	 ecx, edi
  0019f	c7 45 f0 67 00
	00 00		 mov	 DWORD PTR $T111105[ebp], 103 ; 00000067H
  001a6	e8 00 00 00 00	 call	 ??A?$map@HHU?$less@H@_STL@@V?$allocator@U?$pair@$$CBHH@_STL@@@2@@_STL@@QAEAAHABH@Z ; _STL::map<int,int,_STL::less<int>,_STL::allocator<_STL::pair<int const ,int> > >::operator[]
  001ab	c7 00 10 00 00
	00		 mov	 DWORD PTR [eax], 16	; 00000010H

; 218  : 	NPCSPRITEID[27] = 17;

  001b1	8d 45 f0	 lea	 eax, DWORD PTR $T111106[ebp]
  001b4	50		 push	 eax
  001b5	8b cf		 mov	 ecx, edi
  001b7	c7 45 f0 1b 00
	00 00		 mov	 DWORD PTR $T111106[ebp], 27 ; 0000001bH
  001be	e8 00 00 00 00	 call	 ??A?$map@HHU?$less@H@_STL@@V?$allocator@U?$pair@$$CBHH@_STL@@@2@@_STL@@QAEAAHABH@Z ; _STL::map<int,int,_STL::less<int>,_STL::allocator<_STL::pair<int const ,int> > >::operator[]
  001c3	c7 00 11 00 00
	00		 mov	 DWORD PTR [eax], 17	; 00000011H

; 219  : 	NPCSPRITEID[98] = 18;

  001c9	8d 45 f0	 lea	 eax, DWORD PTR $T111107[ebp]
  001cc	50		 push	 eax
  001cd	8b cf		 mov	 ecx, edi
  001cf	c7 45 f0 62 00
	00 00		 mov	 DWORD PTR $T111107[ebp], 98 ; 00000062H
  001d6	e8 00 00 00 00	 call	 ??A?$map@HHU?$less@H@_STL@@V?$allocator@U?$pair@$$CBHH@_STL@@@2@@_STL@@QAEAAHABH@Z ; _STL::map<int,int,_STL::less<int>,_STL::allocator<_STL::pair<int const ,int> > >::operator[]
  001db	c7 00 12 00 00
	00		 mov	 DWORD PTR [eax], 18	; 00000012H

; 220  : 	NPCSPRITEID[15] = 19;

  001e1	8d 45 f0	 lea	 eax, DWORD PTR $T111108[ebp]
  001e4	50		 push	 eax
  001e5	8b cf		 mov	 ecx, edi
  001e7	c7 45 f0 0f 00
	00 00		 mov	 DWORD PTR $T111108[ebp], 15 ; 0000000fH
  001ee	e8 00 00 00 00	 call	 ??A?$map@HHU?$less@H@_STL@@V?$allocator@U?$pair@$$CBHH@_STL@@@2@@_STL@@QAEAAHABH@Z ; _STL::map<int,int,_STL::less<int>,_STL::allocator<_STL::pair<int const ,int> > >::operator[]
  001f3	c7 00 13 00 00
	00		 mov	 DWORD PTR [eax], 19	; 00000013H

; 221  : 	NPCSPRITEID[20] = 20;

  001f9	8d 45 f0	 lea	 eax, DWORD PTR $T111109[ebp]
  001fc	50		 push	 eax
  001fd	8b cf		 mov	 ecx, edi
  001ff	c7 45 f0 14 00
	00 00		 mov	 DWORD PTR $T111109[ebp], 20 ; 00000014H
  00206	e8 00 00 00 00	 call	 ??A?$map@HHU?$less@H@_STL@@V?$allocator@U?$pair@$$CBHH@_STL@@@2@@_STL@@QAEAAHABH@Z ; _STL::map<int,int,_STL::less<int>,_STL::allocator<_STL::pair<int const ,int> > >::operator[]
  0020b	c7 00 14 00 00
	00		 mov	 DWORD PTR [eax], 20	; 00000014H

; 222  : 	NPCSPRITEID[96] = 21;

  00211	8d 45 f0	 lea	 eax, DWORD PTR $T111110[ebp]
  00214	50		 push	 eax
  00215	8b cf		 mov	 ecx, edi
  00217	c7 45 f0 60 00
	00 00		 mov	 DWORD PTR $T111110[ebp], 96 ; 00000060H
  0021e	e8 00 00 00 00	 call	 ??A?$map@HHU?$less@H@_STL@@V?$allocator@U?$pair@$$CBHH@_STL@@@2@@_STL@@QAEAAHABH@Z ; _STL::map<int,int,_STL::less<int>,_STL::allocator<_STL::pair<int const ,int> > >::operator[]
  00223	c7 00 15 00 00
	00		 mov	 DWORD PTR [eax], 21	; 00000015H

; 223  : 	NPCSPRITEID[11] = 22;

  00229	8d 45 f0	 lea	 eax, DWORD PTR $T111111[ebp]
  0022c	50		 push	 eax
  0022d	8b cf		 mov	 ecx, edi
  0022f	c7 45 f0 0b 00
	00 00		 mov	 DWORD PTR $T111111[ebp], 11 ; 0000000bH
  00236	e8 00 00 00 00	 call	 ??A?$map@HHU?$less@H@_STL@@V?$allocator@U?$pair@$$CBHH@_STL@@@2@@_STL@@QAEAAHABH@Z ; _STL::map<int,int,_STL::less<int>,_STL::allocator<_STL::pair<int const ,int> > >::operator[]
  0023b	c7 00 16 00 00
	00		 mov	 DWORD PTR [eax], 22	; 00000016H

; 224  : 	NPCSPRITEID[102] = 23;

  00241	8d 45 f0	 lea	 eax, DWORD PTR $T111112[ebp]
  00244	50		 push	 eax
  00245	8b cf		 mov	 ecx, edi
  00247	c7 45 f0 66 00
	00 00		 mov	 DWORD PTR $T111112[ebp], 102 ; 00000066H
  0024e	e8 00 00 00 00	 call	 ??A?$map@HHU?$less@H@_STL@@V?$allocator@U?$pair@$$CBHH@_STL@@@2@@_STL@@QAEAAHABH@Z ; _STL::map<int,int,_STL::less<int>,_STL::allocator<_STL::pair<int const ,int> > >::operator[]
  00253	6a 17		 push	 23			; 00000017H
  00255	59		 pop	 ecx
  00256	89 08		 mov	 DWORD PTR [eax], ecx

; 225  : 	NPCSPRITEID[23] = 24;

  00258	8d 45 f0	 lea	 eax, DWORD PTR $T111113[ebp]
  0025b	89 4d f0	 mov	 DWORD PTR $T111113[ebp], ecx
  0025e	50		 push	 eax
  0025f	8b cf		 mov	 ecx, edi
  00261	e8 00 00 00 00	 call	 ??A?$map@HHU?$less@H@_STL@@V?$allocator@U?$pair@$$CBHH@_STL@@@2@@_STL@@QAEAAHABH@Z ; _STL::map<int,int,_STL::less<int>,_STL::allocator<_STL::pair<int const ,int> > >::operator[]
  00266	c7 00 18 00 00
	00		 mov	 DWORD PTR [eax], 24	; 00000018H

; 226  : 	NPCSPRITEID[158] = 25;

  0026c	8d 45 f0	 lea	 eax, DWORD PTR $T111114[ebp]
  0026f	50		 push	 eax
  00270	8b cf		 mov	 ecx, edi
  00272	c7 45 f0 9e 00
	00 00		 mov	 DWORD PTR $T111114[ebp], 158 ; 0000009eH
  00279	e8 00 00 00 00	 call	 ??A?$map@HHU?$less@H@_STL@@V?$allocator@U?$pair@$$CBHH@_STL@@@2@@_STL@@QAEAAHABH@Z ; _STL::map<int,int,_STL::less<int>,_STL::allocator<_STL::pair<int const ,int> > >::operator[]
  0027e	c7 00 19 00 00
	00		 mov	 DWORD PTR [eax], 25	; 00000019H

; 227  : 	NPCSPRITEID[99] = 26;

  00284	8d 45 f0	 lea	 eax, DWORD PTR $T111115[ebp]
  00287	50		 push	 eax
  00288	8b cf		 mov	 ecx, edi
  0028a	c7 45 f0 63 00
	00 00		 mov	 DWORD PTR $T111115[ebp], 99 ; 00000063H
  00291	e8 00 00 00 00	 call	 ??A?$map@HHU?$less@H@_STL@@V?$allocator@U?$pair@$$CBHH@_STL@@@2@@_STL@@QAEAAHABH@Z ; _STL::map<int,int,_STL::less<int>,_STL::allocator<_STL::pair<int const ,int> > >::operator[]
  00296	c7 00 1a 00 00
	00		 mov	 DWORD PTR [eax], 26	; 0000001aH

; 228  : 	NPCSPRITEID[25] = 27;

  0029c	8d 45 f0	 lea	 eax, DWORD PTR $T111116[ebp]
  0029f	50		 push	 eax
  002a0	8b cf		 mov	 ecx, edi
  002a2	c7 45 f0 19 00
	00 00		 mov	 DWORD PTR $T111116[ebp], 25 ; 00000019H
  002a9	e8 00 00 00 00	 call	 ??A?$map@HHU?$less@H@_STL@@V?$allocator@U?$pair@$$CBHH@_STL@@@2@@_STL@@QAEAAHABH@Z ; _STL::map<int,int,_STL::less<int>,_STL::allocator<_STL::pair<int const ,int> > >::operator[]
  002ae	c7 00 1b 00 00
	00		 mov	 DWORD PTR [eax], 27	; 0000001bH

; 229  : 	NPCSPRITEID[163] = 28;

  002b4	8d 45 f0	 lea	 eax, DWORD PTR $T111117[ebp]
  002b7	50		 push	 eax
  002b8	8b cf		 mov	 ecx, edi
  002ba	c7 45 f0 a3 00
	00 00		 mov	 DWORD PTR $T111117[ebp], 163 ; 000000a3H
  002c1	e8 00 00 00 00	 call	 ??A?$map@HHU?$less@H@_STL@@V?$allocator@U?$pair@$$CBHH@_STL@@@2@@_STL@@QAEAAHABH@Z ; _STL::map<int,int,_STL::less<int>,_STL::allocator<_STL::pair<int const ,int> > >::operator[]
  002c6	c7 00 1c 00 00
	00		 mov	 DWORD PTR [eax], 28	; 0000001cH

; 230  : 	NPCSPRITEID[162] = 29;

  002cc	8d 45 f0	 lea	 eax, DWORD PTR $T111118[ebp]
  002cf	50		 push	 eax
  002d0	8b cf		 mov	 ecx, edi
  002d2	c7 45 f0 a2 00
	00 00		 mov	 DWORD PTR $T111118[ebp], 162 ; 000000a2H
  002d9	e8 00 00 00 00	 call	 ??A?$map@HHU?$less@H@_STL@@V?$allocator@U?$pair@$$CBHH@_STL@@@2@@_STL@@QAEAAHABH@Z ; _STL::map<int,int,_STL::less<int>,_STL::allocator<_STL::pair<int const ,int> > >::operator[]
  002de	c7 00 1d 00 00
	00		 mov	 DWORD PTR [eax], 29	; 0000001dH

; 231  : 	NPCSPRITEID[164] = 30;

  002e4	8d 45 f0	 lea	 eax, DWORD PTR $T111119[ebp]
  002e7	50		 push	 eax
  002e8	8b cf		 mov	 ecx, edi
  002ea	c7 45 f0 a4 00
	00 00		 mov	 DWORD PTR $T111119[ebp], 164 ; 000000a4H
  002f1	e8 00 00 00 00	 call	 ??A?$map@HHU?$less@H@_STL@@V?$allocator@U?$pair@$$CBHH@_STL@@@2@@_STL@@QAEAAHABH@Z ; _STL::map<int,int,_STL::less<int>,_STL::allocator<_STL::pair<int const ,int> > >::operator[]
  002f6	c7 00 1e 00 00
	00		 mov	 DWORD PTR [eax], 30	; 0000001eH

; 232  : 	NPCSPRITEID[12] = 31;

  002fc	8d 45 f0	 lea	 eax, DWORD PTR $T111120[ebp]
  002ff	50		 push	 eax
  00300	8b cf		 mov	 ecx, edi
  00302	c7 45 f0 0c 00
	00 00		 mov	 DWORD PTR $T111120[ebp], 12 ; 0000000cH
  00309	e8 00 00 00 00	 call	 ??A?$map@HHU?$less@H@_STL@@V?$allocator@U?$pair@$$CBHH@_STL@@@2@@_STL@@QAEAAHABH@Z ; _STL::map<int,int,_STL::less<int>,_STL::allocator<_STL::pair<int const ,int> > >::operator[]
  0030e	c7 00 1f 00 00
	00		 mov	 DWORD PTR [eax], 31	; 0000001fH

; 233  : 	NPCSPRITEID[13] = 32;

  00314	8d 45 f0	 lea	 eax, DWORD PTR $T111121[ebp]
  00317	50		 push	 eax
  00318	8b cf		 mov	 ecx, edi
  0031a	c7 45 f0 0d 00
	00 00		 mov	 DWORD PTR $T111121[ebp], 13 ; 0000000dH
  00321	e8 00 00 00 00	 call	 ??A?$map@HHU?$less@H@_STL@@V?$allocator@U?$pair@$$CBHH@_STL@@@2@@_STL@@QAEAAHABH@Z ; _STL::map<int,int,_STL::less<int>,_STL::allocator<_STL::pair<int const ,int> > >::operator[]
  00326	c7 00 20 00 00
	00		 mov	 DWORD PTR [eax], 32	; 00000020H

; 234  : 	NPCSPRITEID[22] = 33;

  0032c	8d 45 f0	 lea	 eax, DWORD PTR $T111122[ebp]
  0032f	50		 push	 eax
  00330	8b cf		 mov	 ecx, edi
  00332	c7 45 f0 16 00
	00 00		 mov	 DWORD PTR $T111122[ebp], 22 ; 00000016H
  00339	e8 00 00 00 00	 call	 ??A?$map@HHU?$less@H@_STL@@V?$allocator@U?$pair@$$CBHH@_STL@@@2@@_STL@@QAEAAHABH@Z ; _STL::map<int,int,_STL::less<int>,_STL::allocator<_STL::pair<int const ,int> > >::operator[]
  0033e	c7 00 21 00 00
	00		 mov	 DWORD PTR [eax], 33	; 00000021H

; 235  : 	NPCSPRITEID[159] = 34;

  00344	8d 45 f0	 lea	 eax, DWORD PTR $T111123[ebp]
  00347	50		 push	 eax
  00348	8b cf		 mov	 ecx, edi
  0034a	c7 45 f0 9f 00
	00 00		 mov	 DWORD PTR $T111123[ebp], 159 ; 0000009fH
  00351	e8 00 00 00 00	 call	 ??A?$map@HHU?$less@H@_STL@@V?$allocator@U?$pair@$$CBHH@_STL@@@2@@_STL@@QAEAAHABH@Z ; _STL::map<int,int,_STL::less<int>,_STL::allocator<_STL::pair<int const ,int> > >::operator[]
  00356	c7 00 22 00 00
	00		 mov	 DWORD PTR [eax], 34	; 00000022H

; 236  : 	NPCSPRITEID[160] = 35;

  0035c	8d 45 f0	 lea	 eax, DWORD PTR $T111124[ebp]
  0035f	50		 push	 eax
  00360	8b cf		 mov	 ecx, edi
  00362	c7 45 f0 a0 00
	00 00		 mov	 DWORD PTR $T111124[ebp], 160 ; 000000a0H
  00369	e8 00 00 00 00	 call	 ??A?$map@HHU?$less@H@_STL@@V?$allocator@U?$pair@$$CBHH@_STL@@@2@@_STL@@QAEAAHABH@Z ; _STL::map<int,int,_STL::less<int>,_STL::allocator<_STL::pair<int const ,int> > >::operator[]
  0036e	c7 00 23 00 00
	00		 mov	 DWORD PTR [eax], 35	; 00000023H

; 237  : 	NPCSPRITEID[161] = 36;

  00374	8d 45 f0	 lea	 eax, DWORD PTR $T111125[ebp]
  00377	50		 push	 eax
  00378	8b cf		 mov	 ecx, edi
  0037a	c7 45 f0 a1 00
	00 00		 mov	 DWORD PTR $T111125[ebp], 161 ; 000000a1H
  00381	e8 00 00 00 00	 call	 ??A?$map@HHU?$less@H@_STL@@V?$allocator@U?$pair@$$CBHH@_STL@@@2@@_STL@@QAEAAHABH@Z ; _STL::map<int,int,_STL::less<int>,_STL::allocator<_STL::pair<int const ,int> > >::operator[]
  00386	c7 00 24 00 00
	00		 mov	 DWORD PTR [eax], 36	; 00000024H

; 238  : 	NPCSPRITEID[19] = 37;

  0038c	8d 45 f0	 lea	 eax, DWORD PTR $T111126[ebp]
  0038f	c7 45 f0 13 00
	00 00		 mov	 DWORD PTR $T111126[ebp], 19 ; 00000013H
  00396	50		 push	 eax
  00397	8b cf		 mov	 ecx, edi
  00399	e8 00 00 00 00	 call	 ??A?$map@HHU?$less@H@_STL@@V?$allocator@U?$pair@$$CBHH@_STL@@@2@@_STL@@QAEAAHABH@Z ; _STL::map<int,int,_STL::less<int>,_STL::allocator<_STL::pair<int const ,int> > >::operator[]
  0039e	c7 00 25 00 00
	00		 mov	 DWORD PTR [eax], 37	; 00000025H

; 239  : 	NPCSPRITEID[93] = 38;

  003a4	8d 45 f0	 lea	 eax, DWORD PTR $T111127[ebp]
  003a7	50		 push	 eax
  003a8	8b cf		 mov	 ecx, edi
  003aa	c7 45 f0 5d 00
	00 00		 mov	 DWORD PTR $T111127[ebp], 93 ; 0000005dH
  003b1	e8 00 00 00 00	 call	 ??A?$map@HHU?$less@H@_STL@@V?$allocator@U?$pair@$$CBHH@_STL@@@2@@_STL@@QAEAAHABH@Z ; _STL::map<int,int,_STL::less<int>,_STL::allocator<_STL::pair<int const ,int> > >::operator[]
  003b6	c7 00 26 00 00
	00		 mov	 DWORD PTR [eax], 38	; 00000026H

; 240  : 	NPCSPRITEID[92] = 39;

  003bc	8d 45 f0	 lea	 eax, DWORD PTR $T111128[ebp]
  003bf	50		 push	 eax
  003c0	8b cf		 mov	 ecx, edi
  003c2	c7 45 f0 5c 00
	00 00		 mov	 DWORD PTR $T111128[ebp], 92 ; 0000005cH
  003c9	e8 00 00 00 00	 call	 ??A?$map@HHU?$less@H@_STL@@V?$allocator@U?$pair@$$CBHH@_STL@@@2@@_STL@@QAEAAHABH@Z ; _STL::map<int,int,_STL::less<int>,_STL::allocator<_STL::pair<int const ,int> > >::operator[]
  003ce	c7 00 27 00 00
	00		 mov	 DWORD PTR [eax], 39	; 00000027H

; 241  : 	NPCSPRITEID[94] = 40;

  003d4	8d 45 f0	 lea	 eax, DWORD PTR $T111129[ebp]
  003d7	50		 push	 eax
  003d8	8b cf		 mov	 ecx, edi
  003da	c7 45 f0 5e 00
	00 00		 mov	 DWORD PTR $T111129[ebp], 94 ; 0000005eH
  003e1	e8 00 00 00 00	 call	 ??A?$map@HHU?$less@H@_STL@@V?$allocator@U?$pair@$$CBHH@_STL@@@2@@_STL@@QAEAAHABH@Z ; _STL::map<int,int,_STL::less<int>,_STL::allocator<_STL::pair<int const ,int> > >::operator[]
  003e6	c7 00 28 00 00
	00		 mov	 DWORD PTR [eax], 40	; 00000028H

; 242  : 	NPCSPRITEID[219] = 41;

  003ec	8d 45 f0	 lea	 eax, DWORD PTR $T111130[ebp]
  003ef	50		 push	 eax
  003f0	8b cf		 mov	 ecx, edi
  003f2	c7 45 f0 db 00
	00 00		 mov	 DWORD PTR $T111130[ebp], 219 ; 000000dbH
  003f9	e8 00 00 00 00	 call	 ??A?$map@HHU?$less@H@_STL@@V?$allocator@U?$pair@$$CBHH@_STL@@@2@@_STL@@QAEAAHABH@Z ; _STL::map<int,int,_STL::less<int>,_STL::allocator<_STL::pair<int const ,int> > >::operator[]
  003fe	c7 00 29 00 00
	00		 mov	 DWORD PTR [eax], 41	; 00000029H

; 243  : 	NPCSPRITEID[220] = 42;

  00404	8d 45 f0	 lea	 eax, DWORD PTR $T111131[ebp]
  00407	50		 push	 eax
  00408	8b cf		 mov	 ecx, edi
  0040a	c7 45 f0 dc 00
	00 00		 mov	 DWORD PTR $T111131[ebp], 220 ; 000000dcH
  00411	e8 00 00 00 00	 call	 ??A?$map@HHU?$less@H@_STL@@V?$allocator@U?$pair@$$CBHH@_STL@@@2@@_STL@@QAEAAHABH@Z ; _STL::map<int,int,_STL::less<int>,_STL::allocator<_STL::pair<int const ,int> > >::operator[]
  00416	c7 00 2a 00 00
	00		 mov	 DWORD PTR [eax], 42	; 0000002aH

; 244  : 	NPCSPRITEID[253] = 48;

  0041c	8d 45 f0	 lea	 eax, DWORD PTR $T111132[ebp]
  0041f	50		 push	 eax
  00420	8b cf		 mov	 ecx, edi
  00422	c7 45 f0 fd 00
	00 00		 mov	 DWORD PTR $T111132[ebp], 253 ; 000000fdH
  00429	e8 00 00 00 00	 call	 ??A?$map@HHU?$less@H@_STL@@V?$allocator@U?$pair@$$CBHH@_STL@@@2@@_STL@@QAEAAHABH@Z ; _STL::map<int,int,_STL::less<int>,_STL::allocator<_STL::pair<int const ,int> > >::operator[]
  0042e	c7 00 30 00 00
	00		 mov	 DWORD PTR [eax], 48	; 00000030H

; 245  : 	NPCSPRITEID[254] = 47;

  00434	8d 45 f0	 lea	 eax, DWORD PTR $T111133[ebp]
  00437	50		 push	 eax
  00438	8b cf		 mov	 ecx, edi
  0043a	c7 45 f0 fe 00
	00 00		 mov	 DWORD PTR $T111133[ebp], 254 ; 000000feH
  00441	e8 00 00 00 00	 call	 ??A?$map@HHU?$less@H@_STL@@V?$allocator@U?$pair@$$CBHH@_STL@@@2@@_STL@@QAEAAHABH@Z ; _STL::map<int,int,_STL::less<int>,_STL::allocator<_STL::pair<int const ,int> > >::operator[]
  00446	c7 00 2f 00 00
	00		 mov	 DWORD PTR [eax], 47	; 0000002fH

; 246  : 	NPCSPRITEID[255] = 49;

  0044c	8d 45 f0	 lea	 eax, DWORD PTR $T111134[ebp]
  0044f	50		 push	 eax
  00450	8b cf		 mov	 ecx, edi
  00452	c7 45 f0 ff 00
	00 00		 mov	 DWORD PTR $T111134[ebp], 255 ; 000000ffH
  00459	e8 00 00 00 00	 call	 ??A?$map@HHU?$less@H@_STL@@V?$allocator@U?$pair@$$CBHH@_STL@@@2@@_STL@@QAEAAHABH@Z ; _STL::map<int,int,_STL::less<int>,_STL::allocator<_STL::pair<int const ,int> > >::operator[]
  0045e	c7 00 31 00 00
	00		 mov	 DWORD PTR [eax], 49	; 00000031H

; 247  : 	NPCSPRITEID[217] = 43;

  00464	8d 45 f0	 lea	 eax, DWORD PTR $T111135[ebp]
  00467	50		 push	 eax
  00468	8b cf		 mov	 ecx, edi
  0046a	c7 45 f0 d9 00
	00 00		 mov	 DWORD PTR $T111135[ebp], 217 ; 000000d9H
  00471	e8 00 00 00 00	 call	 ??A?$map@HHU?$less@H@_STL@@V?$allocator@U?$pair@$$CBHH@_STL@@@2@@_STL@@QAEAAHABH@Z ; _STL::map<int,int,_STL::less<int>,_STL::allocator<_STL::pair<int const ,int> > >::operator[]
  00476	c7 00 2b 00 00
	00		 mov	 DWORD PTR [eax], 43	; 0000002bH

; 248  : 	NPCSPRITEID[250] = 44;

  0047c	8d 45 f0	 lea	 eax, DWORD PTR $T111136[ebp]
  0047f	50		 push	 eax
  00480	8b cf		 mov	 ecx, edi
  00482	c7 45 f0 fa 00
	00 00		 mov	 DWORD PTR $T111136[ebp], 250 ; 000000faH
  00489	e8 00 00 00 00	 call	 ??A?$map@HHU?$less@H@_STL@@V?$allocator@U?$pair@$$CBHH@_STL@@@2@@_STL@@QAEAAHABH@Z ; _STL::map<int,int,_STL::less<int>,_STL::allocator<_STL::pair<int const ,int> > >::operator[]
  0048e	c7 00 2c 00 00
	00		 mov	 DWORD PTR [eax], 44	; 0000002cH

; 249  : 	NPCSPRITEID[251] = 44;

  00494	8d 45 f0	 lea	 eax, DWORD PTR $T111137[ebp]
  00497	50		 push	 eax
  00498	8b cf		 mov	 ecx, edi
  0049a	c7 45 f0 fb 00
	00 00		 mov	 DWORD PTR $T111137[ebp], 251 ; 000000fbH
  004a1	e8 00 00 00 00	 call	 ??A?$map@HHU?$less@H@_STL@@V?$allocator@U?$pair@$$CBHH@_STL@@@2@@_STL@@QAEAAHABH@Z ; _STL::map<int,int,_STL::less<int>,_STL::allocator<_STL::pair<int const ,int> > >::operator[]
  004a6	c7 00 2c 00 00
	00		 mov	 DWORD PTR [eax], 44	; 0000002cH

; 250  : 	NPCSPRITEID[252] = 44;

  004ac	8d 45 f0	 lea	 eax, DWORD PTR $T111138[ebp]
  004af	50		 push	 eax
  004b0	8b cf		 mov	 ecx, edi
  004b2	c7 45 f0 fc 00
	00 00		 mov	 DWORD PTR $T111138[ebp], 252 ; 000000fcH
  004b9	e8 00 00 00 00	 call	 ??A?$map@HHU?$less@H@_STL@@V?$allocator@U?$pair@$$CBHH@_STL@@@2@@_STL@@QAEAAHABH@Z ; _STL::map<int,int,_STL::less<int>,_STL::allocator<_STL::pair<int const ,int> > >::operator[]
  004be	c7 00 2c 00 00
	00		 mov	 DWORD PTR [eax], 44	; 0000002cH

; 251  : 	NPCSPRITEID[296] = 45;

  004c4	8d 45 f0	 lea	 eax, DWORD PTR $T111139[ebp]
  004c7	50		 push	 eax
  004c8	8b cf		 mov	 ecx, edi
  004ca	c7 45 f0 28 01
	00 00		 mov	 DWORD PTR $T111139[ebp], 296 ; 00000128H
  004d1	e8 00 00 00 00	 call	 ??A?$map@HHU?$less@H@_STL@@V?$allocator@U?$pair@$$CBHH@_STL@@@2@@_STL@@QAEAAHABH@Z ; _STL::map<int,int,_STL::less<int>,_STL::allocator<_STL::pair<int const ,int> > >::operator[]
  004d6	c7 00 2d 00 00
	00		 mov	 DWORD PTR [eax], 45	; 0000002dH

; 252  : 	NPCSPRITEID[297] = 46;

  004dc	8d 45 f0	 lea	 eax, DWORD PTR $T111140[ebp]
  004df	50		 push	 eax
  004e0	8b cf		 mov	 ecx, edi
  004e2	c7 45 f0 29 01
	00 00		 mov	 DWORD PTR $T111140[ebp], 297 ; 00000129H
  004e9	e8 00 00 00 00	 call	 ??A?$map@HHU?$less@H@_STL@@V?$allocator@U?$pair@$$CBHH@_STL@@@2@@_STL@@QAEAAHABH@Z ; _STL::map<int,int,_STL::less<int>,_STL::allocator<_STL::pair<int const ,int> > >::operator[]
  004ee	c7 00 2e 00 00
	00		 mov	 DWORD PTR [eax], 46	; 0000002eH

; 253  : 	NPCSPRITEID[362] = 50;

  004f4	8d 45 f0	 lea	 eax, DWORD PTR $T111141[ebp]
  004f7	50		 push	 eax
  004f8	8b cf		 mov	 ecx, edi
  004fa	c7 45 f0 6a 01
	00 00		 mov	 DWORD PTR $T111141[ebp], 362 ; 0000016aH
  00501	e8 00 00 00 00	 call	 ??A?$map@HHU?$less@H@_STL@@V?$allocator@U?$pair@$$CBHH@_STL@@@2@@_STL@@QAEAAHABH@Z ; _STL::map<int,int,_STL::less<int>,_STL::allocator<_STL::pair<int const ,int> > >::operator[]
  00506	c7 00 32 00 00
	00		 mov	 DWORD PTR [eax], 50	; 00000032H

; 254  : 	NPCSPRITEID[363] = 51;

  0050c	8d 45 f0	 lea	 eax, DWORD PTR $T111142[ebp]
  0050f	50		 push	 eax
  00510	8b cf		 mov	 ecx, edi
  00512	c7 45 f0 6b 01
	00 00		 mov	 DWORD PTR $T111142[ebp], 363 ; 0000016bH
  00519	e8 00 00 00 00	 call	 ??A?$map@HHU?$less@H@_STL@@V?$allocator@U?$pair@$$CBHH@_STL@@@2@@_STL@@QAEAAHABH@Z ; _STL::map<int,int,_STL::less<int>,_STL::allocator<_STL::pair<int const ,int> > >::operator[]
  0051e	c7 00 33 00 00
	00		 mov	 DWORD PTR [eax], 51	; 00000033H

; 255  : 	NPCSPRITEID[364] = 52;

  00524	8d 45 f0	 lea	 eax, DWORD PTR $T111143[ebp]
  00527	50		 push	 eax
  00528	8b cf		 mov	 ecx, edi
  0052a	c7 45 f0 6c 01
	00 00		 mov	 DWORD PTR $T111143[ebp], 364 ; 0000016cH
  00531	e8 00 00 00 00	 call	 ??A?$map@HHU?$less@H@_STL@@V?$allocator@U?$pair@$$CBHH@_STL@@@2@@_STL@@QAEAAHABH@Z ; _STL::map<int,int,_STL::less<int>,_STL::allocator<_STL::pair<int const ,int> > >::operator[]
  00536	c7 00 34 00 00
	00		 mov	 DWORD PTR [eax], 52	; 00000034H

; 256  : 	NPCSPRITEID[365] = 53;

  0053c	8d 45 f0	 lea	 eax, DWORD PTR $T111144[ebp]
  0053f	50		 push	 eax
  00540	8b cf		 mov	 ecx, edi
  00542	c7 45 f0 6d 01
	00 00		 mov	 DWORD PTR $T111144[ebp], 365 ; 0000016dH
  00549	e8 00 00 00 00	 call	 ??A?$map@HHU?$less@H@_STL@@V?$allocator@U?$pair@$$CBHH@_STL@@@2@@_STL@@QAEAAHABH@Z ; _STL::map<int,int,_STL::less<int>,_STL::allocator<_STL::pair<int const ,int> > >::operator[]
  0054e	c7 00 35 00 00
	00		 mov	 DWORD PTR [eax], 53	; 00000035H

; 257  : 	NPCSPRITEID[366] = 54;

  00554	8d 45 f0	 lea	 eax, DWORD PTR $T111145[ebp]
  00557	50		 push	 eax
  00558	8b cf		 mov	 ecx, edi
  0055a	c7 45 f0 6e 01
	00 00		 mov	 DWORD PTR $T111145[ebp], 366 ; 0000016eH
  00561	e8 00 00 00 00	 call	 ??A?$map@HHU?$less@H@_STL@@V?$allocator@U?$pair@$$CBHH@_STL@@@2@@_STL@@QAEAAHABH@Z ; _STL::map<int,int,_STL::less<int>,_STL::allocator<_STL::pair<int const ,int> > >::operator[]
  00566	c7 00 36 00 00
	00		 mov	 DWORD PTR [eax], 54	; 00000036H

; 258  : 	NPCSPRITEID[302] = 45;

  0056c	8d 45 f0	 lea	 eax, DWORD PTR $T111146[ebp]
  0056f	50		 push	 eax
  00570	8b cf		 mov	 ecx, edi
  00572	c7 45 f0 2e 01
	00 00		 mov	 DWORD PTR $T111146[ebp], 302 ; 0000012eH
  00579	e8 00 00 00 00	 call	 ??A?$map@HHU?$less@H@_STL@@V?$allocator@U?$pair@$$CBHH@_STL@@@2@@_STL@@QAEAAHABH@Z ; _STL::map<int,int,_STL::less<int>,_STL::allocator<_STL::pair<int const ,int> > >::operator[]
  0057e	c7 00 2d 00 00
	00		 mov	 DWORD PTR [eax], 45	; 0000002dH

; 259  : 	NPCSPRITEID[303] = 46;

  00584	8d 45 f0	 lea	 eax, DWORD PTR $T111147[ebp]
  00587	50		 push	 eax
  00588	8b cf		 mov	 ecx, edi
  0058a	c7 45 f0 2f 01
	00 00		 mov	 DWORD PTR $T111147[ebp], 303 ; 0000012fH
  00591	e8 00 00 00 00	 call	 ??A?$map@HHU?$less@H@_STL@@V?$allocator@U?$pair@$$CBHH@_STL@@@2@@_STL@@QAEAAHABH@Z ; _STL::map<int,int,_STL::less<int>,_STL::allocator<_STL::pair<int const ,int> > >::operator[]
  00596	c7 00 2e 00 00
	00		 mov	 DWORD PTR [eax], 46	; 0000002eH

; 260  : 	NPCSPRITEID[311] = 45;

  0059c	8d 45 f0	 lea	 eax, DWORD PTR $T111148[ebp]
  0059f	50		 push	 eax
  005a0	8b cf		 mov	 ecx, edi
  005a2	c7 45 f0 37 01
	00 00		 mov	 DWORD PTR $T111148[ebp], 311 ; 00000137H
  005a9	e8 00 00 00 00	 call	 ??A?$map@HHU?$less@H@_STL@@V?$allocator@U?$pair@$$CBHH@_STL@@@2@@_STL@@QAEAAHABH@Z ; _STL::map<int,int,_STL::less<int>,_STL::allocator<_STL::pair<int const ,int> > >::operator[]
  005ae	c7 00 2d 00 00
	00		 mov	 DWORD PTR [eax], 45	; 0000002dH

; 261  : 	NPCSPRITEID[368] = 39;

  005b4	8d 45 f0	 lea	 eax, DWORD PTR $T111149[ebp]
  005b7	50		 push	 eax
  005b8	8b cf		 mov	 ecx, edi
  005ba	c7 45 f0 70 01
	00 00		 mov	 DWORD PTR $T111149[ebp], 368 ; 00000170H
  005c1	e8 00 00 00 00	 call	 ??A?$map@HHU?$less@H@_STL@@V?$allocator@U?$pair@$$CBHH@_STL@@@2@@_STL@@QAEAAHABH@Z ; _STL::map<int,int,_STL::less<int>,_STL::allocator<_STL::pair<int const ,int> > >::operator[]
  005c6	c7 00 27 00 00
	00		 mov	 DWORD PTR [eax], 39	; 00000027H

; 262  : 	NPCSPRITEID[370] = 35;

  005cc	8d 45 f0	 lea	 eax, DWORD PTR $T111150[ebp]
  005cf	50		 push	 eax
  005d0	8b cf		 mov	 ecx, edi
  005d2	c7 45 f0 72 01
	00 00		 mov	 DWORD PTR $T111150[ebp], 370 ; 00000172H
  005d9	e8 00 00 00 00	 call	 ??A?$map@HHU?$less@H@_STL@@V?$allocator@U?$pair@$$CBHH@_STL@@@2@@_STL@@QAEAAHABH@Z ; _STL::map<int,int,_STL::less<int>,_STL::allocator<_STL::pair<int const ,int> > >::operator[]
  005de	c7 00 23 00 00
	00		 mov	 DWORD PTR [eax], 35	; 00000023H

; 263  : 	NPCSPRITEID[427] = 55;

  005e4	8d 45 f0	 lea	 eax, DWORD PTR $T111151[ebp]
  005e7	50		 push	 eax
  005e8	8b cf		 mov	 ecx, edi
  005ea	c7 45 f0 ab 01
	00 00		 mov	 DWORD PTR $T111151[ebp], 427 ; 000001abH
  005f1	e8 00 00 00 00	 call	 ??A?$map@HHU?$less@H@_STL@@V?$allocator@U?$pair@$$CBHH@_STL@@@2@@_STL@@QAEAAHABH@Z ; _STL::map<int,int,_STL::less<int>,_STL::allocator<_STL::pair<int const ,int> > >::operator[]
  005f6	c7 00 37 00 00
	00		 mov	 DWORD PTR [eax], 55	; 00000037H

; 264  : 	NPCSPRITEID[428] = 56;

  005fc	8d 45 f0	 lea	 eax, DWORD PTR $T111152[ebp]
  005ff	50		 push	 eax
  00600	8b cf		 mov	 ecx, edi
  00602	c7 45 f0 ac 01
	00 00		 mov	 DWORD PTR $T111152[ebp], 428 ; 000001acH
  00609	e8 00 00 00 00	 call	 ??A?$map@HHU?$less@H@_STL@@V?$allocator@U?$pair@$$CBHH@_STL@@@2@@_STL@@QAEAAHABH@Z ; _STL::map<int,int,_STL::less<int>,_STL::allocator<_STL::pair<int const ,int> > >::operator[]
  0060e	c7 00 38 00 00
	00		 mov	 DWORD PTR [eax], 56	; 00000038H

; 265  : 	NPCSPRITEID[429] = 57;

  00614	8d 45 f0	 lea	 eax, DWORD PTR $T111153[ebp]
  00617	c7 45 f0 ad 01
	00 00		 mov	 DWORD PTR $T111153[ebp], 429 ; 000001adH
  0061e	50		 push	 eax
  0061f	8b cf		 mov	 ecx, edi
  00621	e8 00 00 00 00	 call	 ??A?$map@HHU?$less@H@_STL@@V?$allocator@U?$pair@$$CBHH@_STL@@@2@@_STL@@QAEAAHABH@Z ; _STL::map<int,int,_STL::less<int>,_STL::allocator<_STL::pair<int const ,int> > >::operator[]
  00626	c7 00 39 00 00
	00		 mov	 DWORD PTR [eax], 57	; 00000039H

; 266  : 	NPCSPRITEID[430] = 58;

  0062c	8d 45 f0	 lea	 eax, DWORD PTR $T111154[ebp]
  0062f	50		 push	 eax
  00630	8b cf		 mov	 ecx, edi
  00632	c7 45 f0 ae 01
	00 00		 mov	 DWORD PTR $T111154[ebp], 430 ; 000001aeH
  00639	e8 00 00 00 00	 call	 ??A?$map@HHU?$less@H@_STL@@V?$allocator@U?$pair@$$CBHH@_STL@@@2@@_STL@@QAEAAHABH@Z ; _STL::map<int,int,_STL::less<int>,_STL::allocator<_STL::pair<int const ,int> > >::operator[]
  0063e	c7 00 3a 00 00
	00		 mov	 DWORD PTR [eax], 58	; 0000003aH

; 267  : 	NPCSPRITEID[519] = 59;			//',       

  00644	8d 45 f0	 lea	 eax, DWORD PTR $T111155[ebp]
  00647	50		 push	 eax
  00648	8b cf		 mov	 ecx, edi
  0064a	c7 45 f0 07 02
	00 00		 mov	 DWORD PTR $T111155[ebp], 519 ; 00000207H
  00651	e8 00 00 00 00	 call	 ??A?$map@HHU?$less@H@_STL@@V?$allocator@U?$pair@$$CBHH@_STL@@@2@@_STL@@QAEAAHABH@Z ; _STL::map<int,int,_STL::less<int>,_STL::allocator<_STL::pair<int const ,int> > >::operator[]
  00656	c7 00 3b 00 00
	00		 mov	 DWORD PTR [eax], 59	; 0000003bH

; 268  : 	NPCSPRITEID[521] = 60;			//',         

  0065c	8d 45 f0	 lea	 eax, DWORD PTR $T111156[ebp]
  0065f	50		 push	 eax
  00660	8b cf		 mov	 ecx, edi
  00662	c7 45 f0 09 02
	00 00		 mov	 DWORD PTR $T111156[ebp], 521 ; 00000209H
  00669	e8 00 00 00 00	 call	 ??A?$map@HHU?$less@H@_STL@@V?$allocator@U?$pair@$$CBHH@_STL@@@2@@_STL@@QAEAAHABH@Z ; _STL::map<int,int,_STL::less<int>,_STL::allocator<_STL::pair<int const ,int> > >::operator[]
  0066e	c7 00 3c 00 00
	00		 mov	 DWORD PTR [eax], 60	; 0000003cH

; 269  : 	NPCSPRITEID[525] = 66;			//',       

  00674	8d 45 f0	 lea	 eax, DWORD PTR $T111157[ebp]
  00677	50		 push	 eax
  00678	8b cf		 mov	 ecx, edi
  0067a	c7 45 f0 0d 02
	00 00		 mov	 DWORD PTR $T111157[ebp], 525 ; 0000020dH
  00681	e8 00 00 00 00	 call	 ??A?$map@HHU?$less@H@_STL@@V?$allocator@U?$pair@$$CBHH@_STL@@@2@@_STL@@QAEAAHABH@Z ; _STL::map<int,int,_STL::less<int>,_STL::allocator<_STL::pair<int const ,int> > >::operator[]
  00686	c7 00 42 00 00
	00		 mov	 DWORD PTR [eax], 66	; 00000042H

; 270  : 	NPCSPRITEID[516] = 62;			//',         

  0068c	8d 45 f0	 lea	 eax, DWORD PTR $T111158[ebp]
  0068f	50		 push	 eax
  00690	8b cf		 mov	 ecx, edi
  00692	c7 45 f0 04 02
	00 00		 mov	 DWORD PTR $T111158[ebp], 516 ; 00000204H
  00699	e8 00 00 00 00	 call	 ??A?$map@HHU?$less@H@_STL@@V?$allocator@U?$pair@$$CBHH@_STL@@@2@@_STL@@QAEAAHABH@Z ; _STL::map<int,int,_STL::less<int>,_STL::allocator<_STL::pair<int const ,int> > >::operator[]
  0069e	c7 00 3e 00 00
	00		 mov	 DWORD PTR [eax], 62	; 0000003eH

; 271  : 	NPCSPRITEID[518] = 63;			//',   	

  006a4	8d 45 f0	 lea	 eax, DWORD PTR $T111159[ebp]
  006a7	50		 push	 eax
  006a8	8b cf		 mov	 ecx, edi
  006aa	c7 45 f0 06 02
	00 00		 mov	 DWORD PTR $T111159[ebp], 518 ; 00000206H
  006b1	e8 00 00 00 00	 call	 ??A?$map@HHU?$less@H@_STL@@V?$allocator@U?$pair@$$CBHH@_STL@@@2@@_STL@@QAEAAHABH@Z ; _STL::map<int,int,_STL::less<int>,_STL::allocator<_STL::pair<int const ,int> > >::operator[]
  006b6	c7 00 3f 00 00
	00		 mov	 DWORD PTR [eax], 63	; 0000003fH

; 272  : 	NPCSPRITEID[522] = 64;			//',       

  006bc	8d 45 f0	 lea	 eax, DWORD PTR $T111160[ebp]
  006bf	50		 push	 eax
  006c0	8b cf		 mov	 ecx, edi
  006c2	c7 45 f0 0a 02
	00 00		 mov	 DWORD PTR $T111160[ebp], 522 ; 0000020aH
  006c9	e8 00 00 00 00	 call	 ??A?$map@HHU?$less@H@_STL@@V?$allocator@U?$pair@$$CBHH@_STL@@@2@@_STL@@QAEAAHABH@Z ; _STL::map<int,int,_STL::less<int>,_STL::allocator<_STL::pair<int const ,int> > >::operator[]
  006ce	c7 00 40 00 00
	00		 mov	 DWORD PTR [eax], 64	; 00000040H

; 273  : 	NPCSPRITEID[523] = 65;			//',       

  006d4	8d 45 f0	 lea	 eax, DWORD PTR $T111161[ebp]
  006d7	50		 push	 eax
  006d8	8b cf		 mov	 ecx, edi
  006da	c7 45 f0 0b 02
	00 00		 mov	 DWORD PTR $T111161[ebp], 523 ; 0000020bH
  006e1	e8 00 00 00 00	 call	 ??A?$map@HHU?$less@H@_STL@@V?$allocator@U?$pair@$$CBHH@_STL@@@2@@_STL@@QAEAAHABH@Z ; _STL::map<int,int,_STL::less<int>,_STL::allocator<_STL::pair<int const ,int> > >::operator[]
  006e6	c7 00 41 00 00
	00		 mov	 DWORD PTR [eax], 65	; 00000041H

; 274  : 	NPCSPRITEID[524] = 61;			//',       

  006ec	8d 45 f0	 lea	 eax, DWORD PTR $T111162[ebp]
  006ef	50		 push	 eax
  006f0	8b cf		 mov	 ecx, edi
  006f2	c7 45 f0 0c 02
	00 00		 mov	 DWORD PTR $T111162[ebp], 524 ; 0000020cH
  006f9	e8 00 00 00 00	 call	 ??A?$map@HHU?$less@H@_STL@@V?$allocator@U?$pair@$$CBHH@_STL@@@2@@_STL@@QAEAAHABH@Z ; _STL::map<int,int,_STL::less<int>,_STL::allocator<_STL::pair<int const ,int> > >::operator[]
  006fe	c7 00 3d 00 00
	00		 mov	 DWORD PTR [eax], 61	; 0000003dH

; 275  : 	NPCSPRITEID[520] = 67;			//',         

  00704	8d 45 f0	 lea	 eax, DWORD PTR $T111163[ebp]
  00707	50		 push	 eax
  00708	8b cf		 mov	 ecx, edi
  0070a	c7 45 f0 08 02
	00 00		 mov	 DWORD PTR $T111163[ebp], 520 ; 00000208H
  00711	e8 00 00 00 00	 call	 ??A?$map@HHU?$less@H@_STL@@V?$allocator@U?$pair@$$CBHH@_STL@@@2@@_STL@@QAEAAHABH@Z ; _STL::map<int,int,_STL::less<int>,_STL::allocator<_STL::pair<int const ,int> > >::operator[]
  00716	c7 00 43 00 00
	00		 mov	 DWORD PTR [eax], 67	; 00000043H

; 276  : 	NPCSPRITEID[517] = 68;			//',    	

  0071c	8d 45 f0	 lea	 eax, DWORD PTR $T111164[ebp]
  0071f	50		 push	 eax
  00720	8b cf		 mov	 ecx, edi
  00722	c7 45 f0 05 02
	00 00		 mov	 DWORD PTR $T111164[ebp], 517 ; 00000205H
  00729	e8 00 00 00 00	 call	 ??A?$map@HHU?$less@H@_STL@@V?$allocator@U?$pair@$$CBHH@_STL@@@2@@_STL@@QAEAAHABH@Z ; _STL::map<int,int,_STL::less<int>,_STL::allocator<_STL::pair<int const ,int> > >::operator[]
  0072e	c7 00 44 00 00
	00		 mov	 DWORD PTR [eax], 68	; 00000044H

; 277  : 
; 278  : 	// 69 - 72   , , ,  
; 279  : 	//
; 280  : 	NPCSPRITEID[551] = 70;

  00734	8d 45 f0	 lea	 eax, DWORD PTR $T111165[ebp]
  00737	50		 push	 eax
  00738	8b cf		 mov	 ecx, edi
  0073a	c7 45 f0 27 02
	00 00		 mov	 DWORD PTR $T111165[ebp], 551 ; 00000227H
  00741	e8 00 00 00 00	 call	 ??A?$map@HHU?$less@H@_STL@@V?$allocator@U?$pair@$$CBHH@_STL@@@2@@_STL@@QAEAAHABH@Z ; _STL::map<int,int,_STL::less<int>,_STL::allocator<_STL::pair<int const ,int> > >::operator[]
  00746	c7 00 46 00 00
	00		 mov	 DWORD PTR [eax], 70	; 00000046H

; 281  : 	NPCSPRITEID[553] = 72;

  0074c	8d 45 f0	 lea	 eax, DWORD PTR $T111166[ebp]
  0074f	50		 push	 eax
  00750	8b cf		 mov	 ecx, edi
  00752	c7 45 f0 29 02
	00 00		 mov	 DWORD PTR $T111166[ebp], 553 ; 00000229H
  00759	e8 00 00 00 00	 call	 ??A?$map@HHU?$less@H@_STL@@V?$allocator@U?$pair@$$CBHH@_STL@@@2@@_STL@@QAEAAHABH@Z ; _STL::map<int,int,_STL::less<int>,_STL::allocator<_STL::pair<int const ,int> > >::operator[]
  0075e	c7 00 48 00 00
	00		 mov	 DWORD PTR [eax], 72	; 00000048H

; 282  : 	NPCSPRITEID[555] = 69;

  00764	8d 45 f0	 lea	 eax, DWORD PTR $T111167[ebp]
  00767	50		 push	 eax
  00768	8b cf		 mov	 ecx, edi
  0076a	c7 45 f0 2b 02
	00 00		 mov	 DWORD PTR $T111167[ebp], 555 ; 0000022bH
  00771	e8 00 00 00 00	 call	 ??A?$map@HHU?$less@H@_STL@@V?$allocator@U?$pair@$$CBHH@_STL@@@2@@_STL@@QAEAAHABH@Z ; _STL::map<int,int,_STL::less<int>,_STL::allocator<_STL::pair<int const ,int> > >::operator[]
  00776	c7 00 45 00 00
	00		 mov	 DWORD PTR [eax], 69	; 00000045H

; 283  : 	NPCSPRITEID[557] = 71;

  0077c	8d 45 f0	 lea	 eax, DWORD PTR $T111168[ebp]
  0077f	50		 push	 eax
  00780	8b cf		 mov	 ecx, edi
  00782	c7 45 f0 2d 02
	00 00		 mov	 DWORD PTR $T111168[ebp], 557 ; 0000022dH
  00789	e8 00 00 00 00	 call	 ??A?$map@HHU?$less@H@_STL@@V?$allocator@U?$pair@$$CBHH@_STL@@@2@@_STL@@QAEAAHABH@Z ; _STL::map<int,int,_STL::less<int>,_STL::allocator<_STL::pair<int const ,int> > >::operator[]
  0078e	c7 00 47 00 00
	00		 mov	 DWORD PTR [eax], 71	; 00000047H

; 284  : 	
; 285  : 	NPCSPRITEID[634] = 78;		//  

  00794	8d 45 f0	 lea	 eax, DWORD PTR $T111169[ebp]
  00797	50		 push	 eax
  00798	8b cf		 mov	 ecx, edi
  0079a	c7 45 f0 7a 02
	00 00		 mov	 DWORD PTR $T111169[ebp], 634 ; 0000027aH
  007a1	e8 00 00 00 00	 call	 ??A?$map@HHU?$less@H@_STL@@V?$allocator@U?$pair@$$CBHH@_STL@@@2@@_STL@@QAEAAHABH@Z ; _STL::map<int,int,_STL::less<int>,_STL::allocator<_STL::pair<int const ,int> > >::operator[]
  007a6	c7 00 4e 00 00
	00		 mov	 DWORD PTR [eax], 78	; 0000004eH

; 286  : 	NPCSPRITEID[635] = 75;		// 

  007ac	8d 45 f0	 lea	 eax, DWORD PTR $T111170[ebp]
  007af	50		 push	 eax
  007b0	8b cf		 mov	 ecx, edi
  007b2	c7 45 f0 7b 02
	00 00		 mov	 DWORD PTR $T111170[ebp], 635 ; 0000027bH
  007b9	e8 00 00 00 00	 call	 ??A?$map@HHU?$less@H@_STL@@V?$allocator@U?$pair@$$CBHH@_STL@@@2@@_STL@@QAEAAHABH@Z ; _STL::map<int,int,_STL::less<int>,_STL::allocator<_STL::pair<int const ,int> > >::operator[]
  007be	c7 00 4b 00 00
	00		 mov	 DWORD PTR [eax], 75	; 0000004bH

; 287  : 	NPCSPRITEID[636] = 76;		//  

  007c4	8d 45 f0	 lea	 eax, DWORD PTR $T111171[ebp]
  007c7	50		 push	 eax
  007c8	8b cf		 mov	 ecx, edi
  007ca	c7 45 f0 7c 02
	00 00		 mov	 DWORD PTR $T111171[ebp], 636 ; 0000027cH
  007d1	e8 00 00 00 00	 call	 ??A?$map@HHU?$less@H@_STL@@V?$allocator@U?$pair@$$CBHH@_STL@@@2@@_STL@@QAEAAHABH@Z ; _STL::map<int,int,_STL::less<int>,_STL::allocator<_STL::pair<int const ,int> > >::operator[]
  007d6	c7 00 4c 00 00
	00		 mov	 DWORD PTR [eax], 76	; 0000004cH

; 288  : 	NPCSPRITEID[637] = 77;		// 

  007dc	8d 45 f0	 lea	 eax, DWORD PTR $T111172[ebp]
  007df	50		 push	 eax
  007e0	8b cf		 mov	 ecx, edi
  007e2	c7 45 f0 7d 02
	00 00		 mov	 DWORD PTR $T111172[ebp], 637 ; 0000027dH
  007e9	e8 00 00 00 00	 call	 ??A?$map@HHU?$less@H@_STL@@V?$allocator@U?$pair@$$CBHH@_STL@@@2@@_STL@@QAEAAHABH@Z ; _STL::map<int,int,_STL::less<int>,_STL::allocator<_STL::pair<int const ,int> > >::operator[]
  007ee	c7 00 4d 00 00
	00		 mov	 DWORD PTR [eax], 77	; 0000004dH

; 289  : 	NPCSPRITEID[638] = 73;		// 

  007f4	8d 45 f0	 lea	 eax, DWORD PTR $T111173[ebp]
  007f7	50		 push	 eax
  007f8	8b cf		 mov	 ecx, edi
  007fa	c7 45 f0 7e 02
	00 00		 mov	 DWORD PTR $T111173[ebp], 638 ; 0000027eH
  00801	e8 00 00 00 00	 call	 ??A?$map@HHU?$less@H@_STL@@V?$allocator@U?$pair@$$CBHH@_STL@@@2@@_STL@@QAEAAHABH@Z ; _STL::map<int,int,_STL::less<int>,_STL::allocator<_STL::pair<int const ,int> > >::operator[]
  00806	c7 00 49 00 00
	00		 mov	 DWORD PTR [eax], 73	; 00000049H

; 290  : 	NPCSPRITEID[639] = 74;		// 

  0080c	8d 45 f0	 lea	 eax, DWORD PTR $T111174[ebp]
  0080f	50		 push	 eax
  00810	8b cf		 mov	 ecx, edi
  00812	c7 45 f0 7f 02
	00 00		 mov	 DWORD PTR $T111174[ebp], 639 ; 0000027fH
  00819	e8 00 00 00 00	 call	 ??A?$map@HHU?$less@H@_STL@@V?$allocator@U?$pair@$$CBHH@_STL@@@2@@_STL@@QAEAAHABH@Z ; _STL::map<int,int,_STL::less<int>,_STL::allocator<_STL::pair<int const ,int> > >::operator[]
  0081e	c7 00 4a 00 00
	00		 mov	 DWORD PTR [eax], 74	; 0000004aH

; 291  : 	NPCSPRITEID[653] = 79;		// 

  00824	8d 45 f0	 lea	 eax, DWORD PTR $T111175[ebp]
  00827	50		 push	 eax
  00828	8b cf		 mov	 ecx, edi
  0082a	c7 45 f0 8d 02
	00 00		 mov	 DWORD PTR $T111175[ebp], 653 ; 0000028dH
  00831	e8 00 00 00 00	 call	 ??A?$map@HHU?$less@H@_STL@@V?$allocator@U?$pair@$$CBHH@_STL@@@2@@_STL@@QAEAAHABH@Z ; _STL::map<int,int,_STL::less<int>,_STL::allocator<_STL::pair<int const ,int> > >::operator[]
  00836	c7 00 4f 00 00
	00		 mov	 DWORD PTR [eax], 79	; 0000004fH

; 292  : 	NPCSPRITEID[654] = 74;		// 

  0083c	8d 45 f0	 lea	 eax, DWORD PTR $T111176[ebp]
  0083f	50		 push	 eax
  00840	8b cf		 mov	 ecx, edi
  00842	c7 45 f0 8e 02
	00 00		 mov	 DWORD PTR $T111176[ebp], 654 ; 0000028eH
  00849	e8 00 00 00 00	 call	 ??A?$map@HHU?$less@H@_STL@@V?$allocator@U?$pair@$$CBHH@_STL@@@2@@_STL@@QAEAAHABH@Z ; _STL::map<int,int,_STL::less<int>,_STL::allocator<_STL::pair<int const ,int> > >::operator[]
  0084e	c7 00 4a 00 00
	00		 mov	 DWORD PTR [eax], 74	; 0000004aH

; 293  : 	NPCSPRITEID[655] = 80;		// 

  00854	8d 45 f0	 lea	 eax, DWORD PTR $T111177[ebp]
  00857	50		 push	 eax
  00858	8b cf		 mov	 ecx, edi
  0085a	c7 45 f0 8f 02
	00 00		 mov	 DWORD PTR $T111177[ebp], 655 ; 0000028fH
  00861	e8 00 00 00 00	 call	 ??A?$map@HHU?$less@H@_STL@@V?$allocator@U?$pair@$$CBHH@_STL@@@2@@_STL@@QAEAAHABH@Z ; _STL::map<int,int,_STL::less<int>,_STL::allocator<_STL::pair<int const ,int> > >::operator[]
  00866	c7 00 50 00 00
	00		 mov	 DWORD PTR [eax], 80	; 00000050H

; 294  : 	NPCSPRITEID[656] = 81;		// 

  0086c	8d 45 f0	 lea	 eax, DWORD PTR $T111178[ebp]
  0086f	50		 push	 eax
  00870	8b cf		 mov	 ecx, edi
  00872	c7 45 f0 90 02
	00 00		 mov	 DWORD PTR $T111178[ebp], 656 ; 00000290H
  00879	e8 00 00 00 00	 call	 ??A?$map@HHU?$less@H@_STL@@V?$allocator@U?$pair@$$CBHH@_STL@@@2@@_STL@@QAEAAHABH@Z ; _STL::map<int,int,_STL::less<int>,_STL::allocator<_STL::pair<int const ,int> > >::operator[]
  0087e	c7 00 51 00 00
	00		 mov	 DWORD PTR [eax], 81	; 00000051H

; 295  : 	NPCSPRITEID[657] = 73;		// 

  00884	8d 45 f0	 lea	 eax, DWORD PTR $T111179[ebp]
  00887	50		 push	 eax
  00888	8b cf		 mov	 ecx, edi
  0088a	c7 45 f0 91 02
	00 00		 mov	 DWORD PTR $T111179[ebp], 657 ; 00000291H
  00891	e8 00 00 00 00	 call	 ??A?$map@HHU?$less@H@_STL@@V?$allocator@U?$pair@$$CBHH@_STL@@@2@@_STL@@QAEAAHABH@Z ; _STL::map<int,int,_STL::less<int>,_STL::allocator<_STL::pair<int const ,int> > >::operator[]
  00896	c7 00 49 00 00
	00		 mov	 DWORD PTR [eax], 73	; 00000049H

; 296  : 	NPCSPRITEID[658] = 82;		// 

  0089c	8d 45 f0	 lea	 eax, DWORD PTR $T111180[ebp]
  0089f	c7 45 f0 92 02
	00 00		 mov	 DWORD PTR $T111180[ebp], 658 ; 00000292H
  008a6	50		 push	 eax
  008a7	8b cf		 mov	 ecx, edi
  008a9	e8 00 00 00 00	 call	 ??A?$map@HHU?$less@H@_STL@@V?$allocator@U?$pair@$$CBHH@_STL@@@2@@_STL@@QAEAAHABH@Z ; _STL::map<int,int,_STL::less<int>,_STL::allocator<_STL::pair<int const ,int> > >::operator[]
  008ae	c7 00 52 00 00
	00		 mov	 DWORD PTR [eax], 82	; 00000052H

; 297  : 	
; 298  : 	
; 299  : 
; 300  : 	NPCSPRITEID[676] = 85;		// 

  008b4	8d 45 f0	 lea	 eax, DWORD PTR $T111181[ebp]
  008b7	50		 push	 eax
  008b8	8b cf		 mov	 ecx, edi
  008ba	c7 45 f0 a4 02
	00 00		 mov	 DWORD PTR $T111181[ebp], 676 ; 000002a4H
  008c1	e8 00 00 00 00	 call	 ??A?$map@HHU?$less@H@_STL@@V?$allocator@U?$pair@$$CBHH@_STL@@@2@@_STL@@QAEAAHABH@Z ; _STL::map<int,int,_STL::less<int>,_STL::allocator<_STL::pair<int const ,int> > >::operator[]
  008c6	c7 00 55 00 00
	00		 mov	 DWORD PTR [eax], 85	; 00000055H

; 301  : 	NPCSPRITEID[677] = 86;		// 

  008cc	8d 45 f0	 lea	 eax, DWORD PTR $T111182[ebp]
  008cf	50		 push	 eax
  008d0	8b cf		 mov	 ecx, edi
  008d2	c7 45 f0 a5 02
	00 00		 mov	 DWORD PTR $T111182[ebp], 677 ; 000002a5H
  008d9	e8 00 00 00 00	 call	 ??A?$map@HHU?$less@H@_STL@@V?$allocator@U?$pair@$$CBHH@_STL@@@2@@_STL@@QAEAAHABH@Z ; _STL::map<int,int,_STL::less<int>,_STL::allocator<_STL::pair<int const ,int> > >::operator[]
  008de	c7 00 56 00 00
	00		 mov	 DWORD PTR [eax], 86	; 00000056H

; 302  : 	NPCSPRITEID[678] = 87;		// 

  008e4	8d 45 f0	 lea	 eax, DWORD PTR $T111183[ebp]
  008e7	50		 push	 eax
  008e8	8b cf		 mov	 ecx, edi
  008ea	c7 45 f0 a6 02
	00 00		 mov	 DWORD PTR $T111183[ebp], 678 ; 000002a6H
  008f1	e8 00 00 00 00	 call	 ??A?$map@HHU?$less@H@_STL@@V?$allocator@U?$pair@$$CBHH@_STL@@@2@@_STL@@QAEAAHABH@Z ; _STL::map<int,int,_STL::less<int>,_STL::allocator<_STL::pair<int const ,int> > >::operator[]
  008f6	c7 00 57 00 00
	00		 mov	 DWORD PTR [eax], 87	; 00000057H

; 303  : 	NPCSPRITEID[679] = 88;		// 

  008fc	8d 45 f0	 lea	 eax, DWORD PTR $T111184[ebp]
  008ff	50		 push	 eax
  00900	8b cf		 mov	 ecx, edi
  00902	c7 45 f0 a7 02
	00 00		 mov	 DWORD PTR $T111184[ebp], 679 ; 000002a7H
  00909	e8 00 00 00 00	 call	 ??A?$map@HHU?$less@H@_STL@@V?$allocator@U?$pair@$$CBHH@_STL@@@2@@_STL@@QAEAAHABH@Z ; _STL::map<int,int,_STL::less<int>,_STL::allocator<_STL::pair<int const ,int> > >::operator[]
  0090e	c7 00 58 00 00
	00		 mov	 DWORD PTR [eax], 88	; 00000058H

; 304  : 	NPCSPRITEID[680] = 89;		// 

  00914	8d 45 f0	 lea	 eax, DWORD PTR $T111185[ebp]
  00917	50		 push	 eax
  00918	8b cf		 mov	 ecx, edi
  0091a	c7 45 f0 a8 02
	00 00		 mov	 DWORD PTR $T111185[ebp], 680 ; 000002a8H
  00921	e8 00 00 00 00	 call	 ??A?$map@HHU?$less@H@_STL@@V?$allocator@U?$pair@$$CBHH@_STL@@@2@@_STL@@QAEAAHABH@Z ; _STL::map<int,int,_STL::less<int>,_STL::allocator<_STL::pair<int const ,int> > >::operator[]
  00926	c7 00 59 00 00
	00		 mov	 DWORD PTR [eax], 89	; 00000059H

; 305  : 	NPCSPRITEID[681] = 90;		// 

  0092c	8d 45 f0	 lea	 eax, DWORD PTR $T111186[ebp]
  0092f	50		 push	 eax
  00930	8b cf		 mov	 ecx, edi
  00932	c7 45 f0 a9 02
	00 00		 mov	 DWORD PTR $T111186[ebp], 681 ; 000002a9H
  00939	e8 00 00 00 00	 call	 ??A?$map@HHU?$less@H@_STL@@V?$allocator@U?$pair@$$CBHH@_STL@@@2@@_STL@@QAEAAHABH@Z ; _STL::map<int,int,_STL::less<int>,_STL::allocator<_STL::pair<int const ,int> > >::operator[]
  0093e	c7 00 5a 00 00
	00		 mov	 DWORD PTR [eax], 90	; 0000005aH

; 306  : 	
; 307  : 	NPCSPRITEID[806] = 90;		// 

  00944	8d 45 f0	 lea	 eax, DWORD PTR $T111187[ebp]
  00947	50		 push	 eax
  00948	8b cf		 mov	 ecx, edi
  0094a	c7 45 f0 26 03
	00 00		 mov	 DWORD PTR $T111187[ebp], 806 ; 00000326H
  00951	e8 00 00 00 00	 call	 ??A?$map@HHU?$less@H@_STL@@V?$allocator@U?$pair@$$CBHH@_STL@@@2@@_STL@@QAEAAHABH@Z ; _STL::map<int,int,_STL::less<int>,_STL::allocator<_STL::pair<int const ,int> > >::operator[]
  00956	c7 00 5a 00 00
	00		 mov	 DWORD PTR [eax], 90	; 0000005aH

; 308  : 	NPCSPRITEID[818] = 88;		// 

  0095c	8d 45 f0	 lea	 eax, DWORD PTR $T111188[ebp]
  0095f	50		 push	 eax
  00960	8b cf		 mov	 ecx, edi
  00962	c7 45 f0 32 03
	00 00		 mov	 DWORD PTR $T111188[ebp], 818 ; 00000332H
  00969	e8 00 00 00 00	 call	 ??A?$map@HHU?$less@H@_STL@@V?$allocator@U?$pair@$$CBHH@_STL@@@2@@_STL@@QAEAAHABH@Z ; _STL::map<int,int,_STL::less<int>,_STL::allocator<_STL::pair<int const ,int> > >::operator[]
  0096e	c7 00 58 00 00
	00		 mov	 DWORD PTR [eax], 88	; 00000058H

; 309  : 
; 310  : 	NPCSPRITEID[820] = 91;		// 

  00974	8d 45 f0	 lea	 eax, DWORD PTR $T111189[ebp]
  00977	50		 push	 eax
  00978	8b cf		 mov	 ecx, edi
  0097a	c7 45 f0 34 03
	00 00		 mov	 DWORD PTR $T111189[ebp], 820 ; 00000334H
  00981	e8 00 00 00 00	 call	 ??A?$map@HHU?$less@H@_STL@@V?$allocator@U?$pair@$$CBHH@_STL@@@2@@_STL@@QAEAAHABH@Z ; _STL::map<int,int,_STL::less<int>,_STL::allocator<_STL::pair<int const ,int> > >::operator[]
  00986	c7 00 5b 00 00
	00		 mov	 DWORD PTR [eax], 91	; 0000005bH

; 311  : 
; 312  : 	NPCSPRITEID[912] = 92;		//   

  0098c	8d 45 f0	 lea	 eax, DWORD PTR $T111190[ebp]
  0098f	50		 push	 eax
  00990	8b cf		 mov	 ecx, edi
  00992	c7 45 f0 90 03
	00 00		 mov	 DWORD PTR $T111190[ebp], 912 ; 00000390H
  00999	e8 00 00 00 00	 call	 ??A?$map@HHU?$less@H@_STL@@V?$allocator@U?$pair@$$CBHH@_STL@@@2@@_STL@@QAEAAHABH@Z ; _STL::map<int,int,_STL::less<int>,_STL::allocator<_STL::pair<int const ,int> > >::operator[]
  0099e	c7 00 5c 00 00
	00		 mov	 DWORD PTR [eax], 92	; 0000005cH

; 313  : 	NPCSPRITEID[913] = 93;		//   

  009a4	8d 45 f0	 lea	 eax, DWORD PTR $T111191[ebp]
  009a7	50		 push	 eax
  009a8	8b cf		 mov	 ecx, edi
  009aa	c7 45 f0 91 03
	00 00		 mov	 DWORD PTR $T111191[ebp], 913 ; 00000391H
  009b1	e8 00 00 00 00	 call	 ??A?$map@HHU?$less@H@_STL@@V?$allocator@U?$pair@$$CBHH@_STL@@@2@@_STL@@QAEAAHABH@Z ; _STL::map<int,int,_STL::less<int>,_STL::allocator<_STL::pair<int const ,int> > >::operator[]
  009b6	c7 00 5d 00 00
	00		 mov	 DWORD PTR [eax], 93	; 0000005dH

; 314  : 	NPCSPRITEID[914] = 94;		//   

  009bc	8d 45 f0	 lea	 eax, DWORD PTR $T111192[ebp]
  009bf	50		 push	 eax
  009c0	8b cf		 mov	 ecx, edi
  009c2	c7 45 f0 92 03
	00 00		 mov	 DWORD PTR $T111192[ebp], 914 ; 00000392H
  009c9	e8 00 00 00 00	 call	 ??A?$map@HHU?$less@H@_STL@@V?$allocator@U?$pair@$$CBHH@_STL@@@2@@_STL@@QAEAAHABH@Z ; _STL::map<int,int,_STL::less<int>,_STL::allocator<_STL::pair<int const ,int> > >::operator[]
  009ce	c7 00 5e 00 00
	00		 mov	 DWORD PTR [eax], 94	; 0000005eH

; 315  : 	NPCSPRITEID[915] = 95;		//   

  009d4	8d 45 f0	 lea	 eax, DWORD PTR $T111193[ebp]
  009d7	50		 push	 eax
  009d8	8b cf		 mov	 ecx, edi
  009da	c7 45 f0 93 03
	00 00		 mov	 DWORD PTR $T111193[ebp], 915 ; 00000393H
  009e1	e8 00 00 00 00	 call	 ??A?$map@HHU?$less@H@_STL@@V?$allocator@U?$pair@$$CBHH@_STL@@@2@@_STL@@QAEAAHABH@Z ; _STL::map<int,int,_STL::less<int>,_STL::allocator<_STL::pair<int const ,int> > >::operator[]
  009e6	c7 00 5f 00 00
	00		 mov	 DWORD PTR [eax], 95	; 0000005fH

; 316  : 	NPCSPRITEID[916] = 96;		//   

  009ec	8d 45 f0	 lea	 eax, DWORD PTR $T111194[ebp]
  009ef	50		 push	 eax
  009f0	8b cf		 mov	 ecx, edi
  009f2	c7 45 f0 94 03
	00 00		 mov	 DWORD PTR $T111194[ebp], 916 ; 00000394H
  009f9	e8 00 00 00 00	 call	 ??A?$map@HHU?$less@H@_STL@@V?$allocator@U?$pair@$$CBHH@_STL@@@2@@_STL@@QAEAAHABH@Z ; _STL::map<int,int,_STL::less<int>,_STL::allocator<_STL::pair<int const ,int> > >::operator[]
  009fe	c7 00 60 00 00
	00		 mov	 DWORD PTR [eax], 96	; 00000060H

; 317  : 
; 318  : #if __CONTENTS(__MENEGROTH)
; 319  : 	NPCSPRITEID[946] = 97;		//   

  00a04	8d 45 f0	 lea	 eax, DWORD PTR $T111195[ebp]
  00a07	50		 push	 eax
  00a08	8b cf		 mov	 ecx, edi
  00a0a	c7 45 f0 b2 03
	00 00		 mov	 DWORD PTR $T111195[ebp], 946 ; 000003b2H
  00a11	e8 00 00 00 00	 call	 ??A?$map@HHU?$less@H@_STL@@V?$allocator@U?$pair@$$CBHH@_STL@@@2@@_STL@@QAEAAHABH@Z ; _STL::map<int,int,_STL::less<int>,_STL::allocator<_STL::pair<int const ,int> > >::operator[]
  00a16	c7 00 61 00 00
	00		 mov	 DWORD PTR [eax], 97	; 00000061H

; 320  : 	NPCSPRITEID[947] = 98;		//   

  00a1c	8d 45 f0	 lea	 eax, DWORD PTR $T111196[ebp]
  00a1f	50		 push	 eax
  00a20	8b cf		 mov	 ecx, edi
  00a22	c7 45 f0 b3 03
	00 00		 mov	 DWORD PTR $T111196[ebp], 947 ; 000003b3H
  00a29	e8 00 00 00 00	 call	 ??A?$map@HHU?$less@H@_STL@@V?$allocator@U?$pair@$$CBHH@_STL@@@2@@_STL@@QAEAAHABH@Z ; _STL::map<int,int,_STL::less<int>,_STL::allocator<_STL::pair<int const ,int> > >::operator[]
  00a2e	c7 00 62 00 00
	00		 mov	 DWORD PTR [eax], 98	; 00000062H

; 321  : 	NPCSPRITEID[948] = 99;		//   

  00a34	8d 45 f0	 lea	 eax, DWORD PTR $T111197[ebp]
  00a37	50		 push	 eax
  00a38	8b cf		 mov	 ecx, edi
  00a3a	c7 45 f0 b4 03
	00 00		 mov	 DWORD PTR $T111197[ebp], 948 ; 000003b4H
  00a41	e8 00 00 00 00	 call	 ??A?$map@HHU?$less@H@_STL@@V?$allocator@U?$pair@$$CBHH@_STL@@@2@@_STL@@QAEAAHABH@Z ; _STL::map<int,int,_STL::less<int>,_STL::allocator<_STL::pair<int const ,int> > >::operator[]
  00a46	c7 00 63 00 00
	00		 mov	 DWORD PTR [eax], 99	; 00000063H

; 322  : 
; 323  : 	NPCSPRITEID[949] = 100;		//   1 - 1

  00a4c	8d 45 f0	 lea	 eax, DWORD PTR $T111198[ebp]
  00a4f	50		 push	 eax
  00a50	8b cf		 mov	 ecx, edi
  00a52	c7 45 f0 b5 03
	00 00		 mov	 DWORD PTR $T111198[ebp], 949 ; 000003b5H
  00a59	e8 00 00 00 00	 call	 ??A?$map@HHU?$less@H@_STL@@V?$allocator@U?$pair@$$CBHH@_STL@@@2@@_STL@@QAEAAHABH@Z ; _STL::map<int,int,_STL::less<int>,_STL::allocator<_STL::pair<int const ,int> > >::operator[]
  00a5e	89 30		 mov	 DWORD PTR [eax], esi

; 324  : 	NPCSPRITEID[950] = 100;		//   1 - 2

  00a60	8d 45 f0	 lea	 eax, DWORD PTR $T111199[ebp]
  00a63	50		 push	 eax
  00a64	8b cf		 mov	 ecx, edi
  00a66	c7 45 f0 b6 03
	00 00		 mov	 DWORD PTR $T111199[ebp], 950 ; 000003b6H
  00a6d	e8 00 00 00 00	 call	 ??A?$map@HHU?$less@H@_STL@@V?$allocator@U?$pair@$$CBHH@_STL@@@2@@_STL@@QAEAAHABH@Z ; _STL::map<int,int,_STL::less<int>,_STL::allocator<_STL::pair<int const ,int> > >::operator[]
  00a72	89 30		 mov	 DWORD PTR [eax], esi

; 325  : 	NPCSPRITEID[951] = 100;		//   1 - 3

  00a74	8d 45 f0	 lea	 eax, DWORD PTR $T111200[ebp]
  00a77	50		 push	 eax
  00a78	8b cf		 mov	 ecx, edi
  00a7a	c7 45 f0 b7 03
	00 00		 mov	 DWORD PTR $T111200[ebp], 951 ; 000003b7H
  00a81	e8 00 00 00 00	 call	 ??A?$map@HHU?$less@H@_STL@@V?$allocator@U?$pair@$$CBHH@_STL@@@2@@_STL@@QAEAAHABH@Z ; _STL::map<int,int,_STL::less<int>,_STL::allocator<_STL::pair<int const ,int> > >::operator[]
  00a86	89 30		 mov	 DWORD PTR [eax], esi

; 326  : 	NPCSPRITEID[952] = 100;		//   1 - 4

  00a88	8d 45 f0	 lea	 eax, DWORD PTR $T111201[ebp]
  00a8b	50		 push	 eax
  00a8c	8b cf		 mov	 ecx, edi
  00a8e	c7 45 f0 b8 03
	00 00		 mov	 DWORD PTR $T111201[ebp], 952 ; 000003b8H
  00a95	e8 00 00 00 00	 call	 ??A?$map@HHU?$less@H@_STL@@V?$allocator@U?$pair@$$CBHH@_STL@@@2@@_STL@@QAEAAHABH@Z ; _STL::map<int,int,_STL::less<int>,_STL::allocator<_STL::pair<int const ,int> > >::operator[]
  00a9a	89 30		 mov	 DWORD PTR [eax], esi

; 327  : 
; 328  : 	NPCSPRITEID[953] = 100;		//   2 - 1

  00a9c	8d 45 f0	 lea	 eax, DWORD PTR $T111202[ebp]
  00a9f	50		 push	 eax
  00aa0	8b cf		 mov	 ecx, edi
  00aa2	c7 45 f0 b9 03
	00 00		 mov	 DWORD PTR $T111202[ebp], 953 ; 000003b9H
  00aa9	e8 00 00 00 00	 call	 ??A?$map@HHU?$less@H@_STL@@V?$allocator@U?$pair@$$CBHH@_STL@@@2@@_STL@@QAEAAHABH@Z ; _STL::map<int,int,_STL::less<int>,_STL::allocator<_STL::pair<int const ,int> > >::operator[]
  00aae	89 30		 mov	 DWORD PTR [eax], esi

; 329  : 	NPCSPRITEID[954] = 100;		//   2 - 2

  00ab0	8d 45 f0	 lea	 eax, DWORD PTR $T111203[ebp]
  00ab3	50		 push	 eax
  00ab4	8b cf		 mov	 ecx, edi
  00ab6	c7 45 f0 ba 03
	00 00		 mov	 DWORD PTR $T111203[ebp], 954 ; 000003baH
  00abd	e8 00 00 00 00	 call	 ??A?$map@HHU?$less@H@_STL@@V?$allocator@U?$pair@$$CBHH@_STL@@@2@@_STL@@QAEAAHABH@Z ; _STL::map<int,int,_STL::less<int>,_STL::allocator<_STL::pair<int const ,int> > >::operator[]
  00ac2	89 30		 mov	 DWORD PTR [eax], esi

; 330  : 	NPCSPRITEID[955] = 100;		//   2 - 3

  00ac4	8d 45 f0	 lea	 eax, DWORD PTR $T111204[ebp]
  00ac7	50		 push	 eax
  00ac8	8b cf		 mov	 ecx, edi
  00aca	c7 45 f0 bb 03
	00 00		 mov	 DWORD PTR $T111204[ebp], 955 ; 000003bbH
  00ad1	e8 00 00 00 00	 call	 ??A?$map@HHU?$less@H@_STL@@V?$allocator@U?$pair@$$CBHH@_STL@@@2@@_STL@@QAEAAHABH@Z ; _STL::map<int,int,_STL::less<int>,_STL::allocator<_STL::pair<int const ,int> > >::operator[]
  00ad6	89 30		 mov	 DWORD PTR [eax], esi

; 331  : 	NPCSPRITEID[956] = 100;		//   2 - 4

  00ad8	8d 45 f0	 lea	 eax, DWORD PTR $T111205[ebp]
  00adb	50		 push	 eax
  00adc	8b cf		 mov	 ecx, edi
  00ade	c7 45 f0 bc 03
	00 00		 mov	 DWORD PTR $T111205[ebp], 956 ; 000003bcH
  00ae5	e8 00 00 00 00	 call	 ??A?$map@HHU?$less@H@_STL@@V?$allocator@U?$pair@$$CBHH@_STL@@@2@@_STL@@QAEAAHABH@Z ; _STL::map<int,int,_STL::less<int>,_STL::allocator<_STL::pair<int const ,int> > >::operator[]
  00aea	89 30		 mov	 DWORD PTR [eax], esi

; 332  : 
; 333  : 	NPCSPRITEID[957] = 100;		//   3 - 1

  00aec	8d 45 f0	 lea	 eax, DWORD PTR $T111206[ebp]
  00aef	50		 push	 eax
  00af0	8b cf		 mov	 ecx, edi
  00af2	c7 45 f0 bd 03
	00 00		 mov	 DWORD PTR $T111206[ebp], 957 ; 000003bdH
  00af9	e8 00 00 00 00	 call	 ??A?$map@HHU?$less@H@_STL@@V?$allocator@U?$pair@$$CBHH@_STL@@@2@@_STL@@QAEAAHABH@Z ; _STL::map<int,int,_STL::less<int>,_STL::allocator<_STL::pair<int const ,int> > >::operator[]
  00afe	89 30		 mov	 DWORD PTR [eax], esi

; 334  : 	NPCSPRITEID[958] = 100;		//   3 - 2

  00b00	8d 45 f0	 lea	 eax, DWORD PTR $T111207[ebp]
  00b03	c7 45 f0 be 03
	00 00		 mov	 DWORD PTR $T111207[ebp], 958 ; 000003beH
  00b0a	50		 push	 eax
  00b0b	8b cf		 mov	 ecx, edi
  00b0d	e8 00 00 00 00	 call	 ??A?$map@HHU?$less@H@_STL@@V?$allocator@U?$pair@$$CBHH@_STL@@@2@@_STL@@QAEAAHABH@Z ; _STL::map<int,int,_STL::less<int>,_STL::allocator<_STL::pair<int const ,int> > >::operator[]
  00b12	89 30		 mov	 DWORD PTR [eax], esi

; 335  : 	NPCSPRITEID[959] = 100;		//   3 - 3

  00b14	8d 45 f0	 lea	 eax, DWORD PTR $T111208[ebp]
  00b17	50		 push	 eax
  00b18	8b cf		 mov	 ecx, edi
  00b1a	c7 45 f0 bf 03
	00 00		 mov	 DWORD PTR $T111208[ebp], 959 ; 000003bfH
  00b21	e8 00 00 00 00	 call	 ??A?$map@HHU?$less@H@_STL@@V?$allocator@U?$pair@$$CBHH@_STL@@@2@@_STL@@QAEAAHABH@Z ; _STL::map<int,int,_STL::less<int>,_STL::allocator<_STL::pair<int const ,int> > >::operator[]
  00b26	89 30		 mov	 DWORD PTR [eax], esi

; 336  : 	NPCSPRITEID[960] = 100;		//   3 - 4

  00b28	8d 45 f0	 lea	 eax, DWORD PTR $T111209[ebp]
  00b2b	50		 push	 eax
  00b2c	8b cf		 mov	 ecx, edi
  00b2e	c7 45 f0 c0 03
	00 00		 mov	 DWORD PTR $T111209[ebp], 960 ; 000003c0H
  00b35	e8 00 00 00 00	 call	 ??A?$map@HHU?$less@H@_STL@@V?$allocator@U?$pair@$$CBHH@_STL@@@2@@_STL@@QAEAAHABH@Z ; _STL::map<int,int,_STL::less<int>,_STL::allocator<_STL::pair<int const ,int> > >::operator[]
  00b3a	89 30		 mov	 DWORD PTR [eax], esi

; 337  : 	
; 338  : 	NPCSPRITEID[961] = 100;		//   4 - 1

  00b3c	8d 45 f0	 lea	 eax, DWORD PTR $T111210[ebp]
  00b3f	50		 push	 eax
  00b40	8b cf		 mov	 ecx, edi
  00b42	c7 45 f0 c1 03
	00 00		 mov	 DWORD PTR $T111210[ebp], 961 ; 000003c1H
  00b49	e8 00 00 00 00	 call	 ??A?$map@HHU?$less@H@_STL@@V?$allocator@U?$pair@$$CBHH@_STL@@@2@@_STL@@QAEAAHABH@Z ; _STL::map<int,int,_STL::less<int>,_STL::allocator<_STL::pair<int const ,int> > >::operator[]
  00b4e	89 30		 mov	 DWORD PTR [eax], esi

; 339  : 	NPCSPRITEID[962] = 100;		//   4 - 2

  00b50	8d 45 f0	 lea	 eax, DWORD PTR $T111211[ebp]
  00b53	50		 push	 eax
  00b54	8b cf		 mov	 ecx, edi
  00b56	c7 45 f0 c2 03
	00 00		 mov	 DWORD PTR $T111211[ebp], 962 ; 000003c2H
  00b5d	e8 00 00 00 00	 call	 ??A?$map@HHU?$less@H@_STL@@V?$allocator@U?$pair@$$CBHH@_STL@@@2@@_STL@@QAEAAHABH@Z ; _STL::map<int,int,_STL::less<int>,_STL::allocator<_STL::pair<int const ,int> > >::operator[]
  00b62	89 30		 mov	 DWORD PTR [eax], esi

; 340  : 	NPCSPRITEID[963] = 100;		//   4 - 3

  00b64	8d 45 f0	 lea	 eax, DWORD PTR $T111212[ebp]
  00b67	50		 push	 eax
  00b68	8b cf		 mov	 ecx, edi
  00b6a	c7 45 f0 c3 03
	00 00		 mov	 DWORD PTR $T111212[ebp], 963 ; 000003c3H
  00b71	e8 00 00 00 00	 call	 ??A?$map@HHU?$less@H@_STL@@V?$allocator@U?$pair@$$CBHH@_STL@@@2@@_STL@@QAEAAHABH@Z ; _STL::map<int,int,_STL::less<int>,_STL::allocator<_STL::pair<int const ,int> > >::operator[]
  00b76	89 30		 mov	 DWORD PTR [eax], esi

; 341  : 	NPCSPRITEID[964] = 100;		//   4 - 4

  00b78	8d 45 f0	 lea	 eax, DWORD PTR $T111213[ebp]
  00b7b	50		 push	 eax
  00b7c	8b cf		 mov	 ecx, edi
  00b7e	c7 45 f0 c4 03
	00 00		 mov	 DWORD PTR $T111213[ebp], 964 ; 000003c4H
  00b85	e8 00 00 00 00	 call	 ??A?$map@HHU?$less@H@_STL@@V?$allocator@U?$pair@$$CBHH@_STL@@@2@@_STL@@QAEAAHABH@Z ; _STL::map<int,int,_STL::less<int>,_STL::allocator<_STL::pair<int const ,int> > >::operator[]
  00b8a	89 30		 mov	 DWORD PTR [eax], esi

; 342  : 	
; 343  : 	NPCSPRITEID[965] = 100;		//   5 - 1

  00b8c	8d 45 f0	 lea	 eax, DWORD PTR $T111214[ebp]
  00b8f	50		 push	 eax
  00b90	8b cf		 mov	 ecx, edi
  00b92	c7 45 f0 c5 03
	00 00		 mov	 DWORD PTR $T111214[ebp], 965 ; 000003c5H
  00b99	e8 00 00 00 00	 call	 ??A?$map@HHU?$less@H@_STL@@V?$allocator@U?$pair@$$CBHH@_STL@@@2@@_STL@@QAEAAHABH@Z ; _STL::map<int,int,_STL::less<int>,_STL::allocator<_STL::pair<int const ,int> > >::operator[]
  00b9e	89 30		 mov	 DWORD PTR [eax], esi

; 344  : 	NPCSPRITEID[966] = 100;		//   5 - 2

  00ba0	8d 45 f0	 lea	 eax, DWORD PTR $T111215[ebp]
  00ba3	50		 push	 eax
  00ba4	8b cf		 mov	 ecx, edi
  00ba6	c7 45 f0 c6 03
	00 00		 mov	 DWORD PTR $T111215[ebp], 966 ; 000003c6H
  00bad	e8 00 00 00 00	 call	 ??A?$map@HHU?$less@H@_STL@@V?$allocator@U?$pair@$$CBHH@_STL@@@2@@_STL@@QAEAAHABH@Z ; _STL::map<int,int,_STL::less<int>,_STL::allocator<_STL::pair<int const ,int> > >::operator[]
  00bb2	89 30		 mov	 DWORD PTR [eax], esi

; 345  : 	NPCSPRITEID[967] = 100;		//   5 - 3

  00bb4	8d 45 f0	 lea	 eax, DWORD PTR $T111216[ebp]
  00bb7	50		 push	 eax
  00bb8	8b cf		 mov	 ecx, edi
  00bba	c7 45 f0 c7 03
	00 00		 mov	 DWORD PTR $T111216[ebp], 967 ; 000003c7H
  00bc1	e8 00 00 00 00	 call	 ??A?$map@HHU?$less@H@_STL@@V?$allocator@U?$pair@$$CBHH@_STL@@@2@@_STL@@QAEAAHABH@Z ; _STL::map<int,int,_STL::less<int>,_STL::allocator<_STL::pair<int const ,int> > >::operator[]
  00bc6	89 30		 mov	 DWORD PTR [eax], esi

; 346  : 	NPCSPRITEID[968] = 100;		//   5 - 4

  00bc8	8d 45 f0	 lea	 eax, DWORD PTR $T111217[ebp]
  00bcb	50		 push	 eax
  00bcc	8b cf		 mov	 ecx, edi
  00bce	c7 45 f0 c8 03
	00 00		 mov	 DWORD PTR $T111217[ebp], 968 ; 000003c8H
  00bd5	e8 00 00 00 00	 call	 ??A?$map@HHU?$less@H@_STL@@V?$allocator@U?$pair@$$CBHH@_STL@@@2@@_STL@@QAEAAHABH@Z ; _STL::map<int,int,_STL::less<int>,_STL::allocator<_STL::pair<int const ,int> > >::operator[]
  00bda	89 30		 mov	 DWORD PTR [eax], esi

; 347  : 	
; 348  : 	NPCSPRITEID[969] = 100;		//   6 - 1

  00bdc	8d 45 f0	 lea	 eax, DWORD PTR $T111218[ebp]
  00bdf	50		 push	 eax
  00be0	8b cf		 mov	 ecx, edi
  00be2	c7 45 f0 c9 03
	00 00		 mov	 DWORD PTR $T111218[ebp], 969 ; 000003c9H
  00be9	e8 00 00 00 00	 call	 ??A?$map@HHU?$less@H@_STL@@V?$allocator@U?$pair@$$CBHH@_STL@@@2@@_STL@@QAEAAHABH@Z ; _STL::map<int,int,_STL::less<int>,_STL::allocator<_STL::pair<int const ,int> > >::operator[]
  00bee	89 30		 mov	 DWORD PTR [eax], esi

; 349  : 	NPCSPRITEID[970] = 100;		//   6 - 2

  00bf0	8d 45 f0	 lea	 eax, DWORD PTR $T111219[ebp]
  00bf3	50		 push	 eax
  00bf4	8b cf		 mov	 ecx, edi
  00bf6	c7 45 f0 ca 03
	00 00		 mov	 DWORD PTR $T111219[ebp], 970 ; 000003caH
  00bfd	e8 00 00 00 00	 call	 ??A?$map@HHU?$less@H@_STL@@V?$allocator@U?$pair@$$CBHH@_STL@@@2@@_STL@@QAEAAHABH@Z ; _STL::map<int,int,_STL::less<int>,_STL::allocator<_STL::pair<int const ,int> > >::operator[]
  00c02	89 30		 mov	 DWORD PTR [eax], esi

; 350  : 	NPCSPRITEID[971] = 100;		//   6 - 3

  00c04	8d 45 f0	 lea	 eax, DWORD PTR $T111220[ebp]
  00c07	50		 push	 eax
  00c08	8b cf		 mov	 ecx, edi
  00c0a	c7 45 f0 cb 03
	00 00		 mov	 DWORD PTR $T111220[ebp], 971 ; 000003cbH
  00c11	e8 00 00 00 00	 call	 ??A?$map@HHU?$less@H@_STL@@V?$allocator@U?$pair@$$CBHH@_STL@@@2@@_STL@@QAEAAHABH@Z ; _STL::map<int,int,_STL::less<int>,_STL::allocator<_STL::pair<int const ,int> > >::operator[]
  00c16	89 30		 mov	 DWORD PTR [eax], esi

; 351  : 	NPCSPRITEID[972] = 100;		//   6 - 4

  00c18	8d 45 f0	 lea	 eax, DWORD PTR $T111221[ebp]
  00c1b	50		 push	 eax
  00c1c	8b cf		 mov	 ecx, edi
  00c1e	c7 45 f0 cc 03
	00 00		 mov	 DWORD PTR $T111221[ebp], 972 ; 000003ccH
  00c25	e8 00 00 00 00	 call	 ??A?$map@HHU?$less@H@_STL@@V?$allocator@U?$pair@$$CBHH@_STL@@@2@@_STL@@QAEAAHABH@Z ; _STL::map<int,int,_STL::less<int>,_STL::allocator<_STL::pair<int const ,int> > >::operator[]
  00c2a	89 30		 mov	 DWORD PTR [eax], esi

; 352  : 
; 353  : 	NPCSPRITEID[973] = 100;		//   1 - 1

  00c2c	8d 45 f0	 lea	 eax, DWORD PTR $T111222[ebp]
  00c2f	50		 push	 eax
  00c30	8b cf		 mov	 ecx, edi
  00c32	c7 45 f0 cd 03
	00 00		 mov	 DWORD PTR $T111222[ebp], 973 ; 000003cdH
  00c39	e8 00 00 00 00	 call	 ??A?$map@HHU?$less@H@_STL@@V?$allocator@U?$pair@$$CBHH@_STL@@@2@@_STL@@QAEAAHABH@Z ; _STL::map<int,int,_STL::less<int>,_STL::allocator<_STL::pair<int const ,int> > >::operator[]
  00c3e	89 30		 mov	 DWORD PTR [eax], esi

; 354  : 	NPCSPRITEID[974] = 100;		//   1 - 2

  00c40	8d 45 f0	 lea	 eax, DWORD PTR $T111223[ebp]
  00c43	50		 push	 eax
  00c44	8b cf		 mov	 ecx, edi
  00c46	c7 45 f0 ce 03
	00 00		 mov	 DWORD PTR $T111223[ebp], 974 ; 000003ceH
  00c4d	e8 00 00 00 00	 call	 ??A?$map@HHU?$less@H@_STL@@V?$allocator@U?$pair@$$CBHH@_STL@@@2@@_STL@@QAEAAHABH@Z ; _STL::map<int,int,_STL::less<int>,_STL::allocator<_STL::pair<int const ,int> > >::operator[]
  00c52	89 30		 mov	 DWORD PTR [eax], esi

; 355  : 	NPCSPRITEID[975] = 100;		//   1 - 3

  00c54	8d 45 f0	 lea	 eax, DWORD PTR $T111224[ebp]
  00c57	50		 push	 eax
  00c58	8b cf		 mov	 ecx, edi
  00c5a	c7 45 f0 cf 03
	00 00		 mov	 DWORD PTR $T111224[ebp], 975 ; 000003cfH
  00c61	e8 00 00 00 00	 call	 ??A?$map@HHU?$less@H@_STL@@V?$allocator@U?$pair@$$CBHH@_STL@@@2@@_STL@@QAEAAHABH@Z ; _STL::map<int,int,_STL::less<int>,_STL::allocator<_STL::pair<int const ,int> > >::operator[]
  00c66	89 30		 mov	 DWORD PTR [eax], esi

; 356  : 	NPCSPRITEID[976] = 100;		//   1 - 4

  00c68	8d 45 f0	 lea	 eax, DWORD PTR $T111225[ebp]
  00c6b	50		 push	 eax
  00c6c	8b cf		 mov	 ecx, edi
  00c6e	c7 45 f0 d0 03
	00 00		 mov	 DWORD PTR $T111225[ebp], 976 ; 000003d0H
  00c75	e8 00 00 00 00	 call	 ??A?$map@HHU?$less@H@_STL@@V?$allocator@U?$pair@$$CBHH@_STL@@@2@@_STL@@QAEAAHABH@Z ; _STL::map<int,int,_STL::less<int>,_STL::allocator<_STL::pair<int const ,int> > >::operator[]
  00c7a	89 30		 mov	 DWORD PTR [eax], esi

; 357  : 
; 358  : 	NPCSPRITEID[977] = 100;		//   2 - 1

  00c7c	8d 45 f0	 lea	 eax, DWORD PTR $T111226[ebp]
  00c7f	50		 push	 eax
  00c80	8b cf		 mov	 ecx, edi
  00c82	c7 45 f0 d1 03
	00 00		 mov	 DWORD PTR $T111226[ebp], 977 ; 000003d1H
  00c89	e8 00 00 00 00	 call	 ??A?$map@HHU?$less@H@_STL@@V?$allocator@U?$pair@$$CBHH@_STL@@@2@@_STL@@QAEAAHABH@Z ; _STL::map<int,int,_STL::less<int>,_STL::allocator<_STL::pair<int const ,int> > >::operator[]
  00c8e	89 30		 mov	 DWORD PTR [eax], esi

; 359  : 	NPCSPRITEID[978] = 100;		//   2 - 2

  00c90	8d 45 f0	 lea	 eax, DWORD PTR $T111227[ebp]
  00c93	50		 push	 eax
  00c94	8b cf		 mov	 ecx, edi
  00c96	c7 45 f0 d2 03
	00 00		 mov	 DWORD PTR $T111227[ebp], 978 ; 000003d2H
  00c9d	e8 00 00 00 00	 call	 ??A?$map@HHU?$less@H@_STL@@V?$allocator@U?$pair@$$CBHH@_STL@@@2@@_STL@@QAEAAHABH@Z ; _STL::map<int,int,_STL::less<int>,_STL::allocator<_STL::pair<int const ,int> > >::operator[]
  00ca2	89 30		 mov	 DWORD PTR [eax], esi

; 360  : 	NPCSPRITEID[979] = 100;		//   2 - 3

  00ca4	8d 45 f0	 lea	 eax, DWORD PTR $T111228[ebp]
  00ca7	50		 push	 eax
  00ca8	8b cf		 mov	 ecx, edi
  00caa	c7 45 f0 d3 03
	00 00		 mov	 DWORD PTR $T111228[ebp], 979 ; 000003d3H
  00cb1	e8 00 00 00 00	 call	 ??A?$map@HHU?$less@H@_STL@@V?$allocator@U?$pair@$$CBHH@_STL@@@2@@_STL@@QAEAAHABH@Z ; _STL::map<int,int,_STL::less<int>,_STL::allocator<_STL::pair<int const ,int> > >::operator[]
  00cb6	89 30		 mov	 DWORD PTR [eax], esi

; 361  : 	NPCSPRITEID[980] = 100;		//   2 - 4

  00cb8	8d 45 f0	 lea	 eax, DWORD PTR $T111229[ebp]
  00cbb	50		 push	 eax
  00cbc	8b cf		 mov	 ecx, edi
  00cbe	c7 45 f0 d4 03
	00 00		 mov	 DWORD PTR $T111229[ebp], 980 ; 000003d4H
  00cc5	e8 00 00 00 00	 call	 ??A?$map@HHU?$less@H@_STL@@V?$allocator@U?$pair@$$CBHH@_STL@@@2@@_STL@@QAEAAHABH@Z ; _STL::map<int,int,_STL::less<int>,_STL::allocator<_STL::pair<int const ,int> > >::operator[]
  00cca	89 30		 mov	 DWORD PTR [eax], esi

; 362  : 
; 363  : 	NPCSPRITEID[981] = 100;		//   3 - 1

  00ccc	8d 45 f0	 lea	 eax, DWORD PTR $T111230[ebp]
  00ccf	50		 push	 eax
  00cd0	8b cf		 mov	 ecx, edi
  00cd2	c7 45 f0 d5 03
	00 00		 mov	 DWORD PTR $T111230[ebp], 981 ; 000003d5H
  00cd9	e8 00 00 00 00	 call	 ??A?$map@HHU?$less@H@_STL@@V?$allocator@U?$pair@$$CBHH@_STL@@@2@@_STL@@QAEAAHABH@Z ; _STL::map<int,int,_STL::less<int>,_STL::allocator<_STL::pair<int const ,int> > >::operator[]
  00cde	89 30		 mov	 DWORD PTR [eax], esi

; 364  : 	NPCSPRITEID[982] = 100;		//   3 - 2

  00ce0	8d 45 f0	 lea	 eax, DWORD PTR $T111231[ebp]
  00ce3	50		 push	 eax
  00ce4	8b cf		 mov	 ecx, edi
  00ce6	c7 45 f0 d6 03
	00 00		 mov	 DWORD PTR $T111231[ebp], 982 ; 000003d6H
  00ced	e8 00 00 00 00	 call	 ??A?$map@HHU?$less@H@_STL@@V?$allocator@U?$pair@$$CBHH@_STL@@@2@@_STL@@QAEAAHABH@Z ; _STL::map<int,int,_STL::less<int>,_STL::allocator<_STL::pair<int const ,int> > >::operator[]
  00cf2	89 30		 mov	 DWORD PTR [eax], esi

; 365  : 	NPCSPRITEID[983] = 100;		//   3 - 3

  00cf4	8d 45 f0	 lea	 eax, DWORD PTR $T111232[ebp]
  00cf7	50		 push	 eax
  00cf8	8b cf		 mov	 ecx, edi
  00cfa	c7 45 f0 d7 03
	00 00		 mov	 DWORD PTR $T111232[ebp], 983 ; 000003d7H
  00d01	e8 00 00 00 00	 call	 ??A?$map@HHU?$less@H@_STL@@V?$allocator@U?$pair@$$CBHH@_STL@@@2@@_STL@@QAEAAHABH@Z ; _STL::map<int,int,_STL::less<int>,_STL::allocator<_STL::pair<int const ,int> > >::operator[]
  00d06	89 30		 mov	 DWORD PTR [eax], esi

; 366  : 	NPCSPRITEID[984] = 100;		//   3 - 4

  00d08	8d 45 f0	 lea	 eax, DWORD PTR $T111233[ebp]
  00d0b	50		 push	 eax
  00d0c	8b cf		 mov	 ecx, edi
  00d0e	c7 45 f0 d8 03
	00 00		 mov	 DWORD PTR $T111233[ebp], 984 ; 000003d8H
  00d15	e8 00 00 00 00	 call	 ??A?$map@HHU?$less@H@_STL@@V?$allocator@U?$pair@$$CBHH@_STL@@@2@@_STL@@QAEAAHABH@Z ; _STL::map<int,int,_STL::less<int>,_STL::allocator<_STL::pair<int const ,int> > >::operator[]
  00d1a	89 30		 mov	 DWORD PTR [eax], esi

; 367  : 	
; 368  : 	NPCSPRITEID[985] = 100;		//   4 - 1

  00d1c	8d 45 f0	 lea	 eax, DWORD PTR $T111234[ebp]
  00d1f	c7 45 f0 d9 03
	00 00		 mov	 DWORD PTR $T111234[ebp], 985 ; 000003d9H
  00d26	50		 push	 eax
  00d27	8b cf		 mov	 ecx, edi
  00d29	e8 00 00 00 00	 call	 ??A?$map@HHU?$less@H@_STL@@V?$allocator@U?$pair@$$CBHH@_STL@@@2@@_STL@@QAEAAHABH@Z ; _STL::map<int,int,_STL::less<int>,_STL::allocator<_STL::pair<int const ,int> > >::operator[]
  00d2e	89 30		 mov	 DWORD PTR [eax], esi

; 369  : 	NPCSPRITEID[986] = 100;		//   4 - 2

  00d30	8d 45 f0	 lea	 eax, DWORD PTR $T111235[ebp]
  00d33	50		 push	 eax
  00d34	8b cf		 mov	 ecx, edi
  00d36	c7 45 f0 da 03
	00 00		 mov	 DWORD PTR $T111235[ebp], 986 ; 000003daH
  00d3d	e8 00 00 00 00	 call	 ??A?$map@HHU?$less@H@_STL@@V?$allocator@U?$pair@$$CBHH@_STL@@@2@@_STL@@QAEAAHABH@Z ; _STL::map<int,int,_STL::less<int>,_STL::allocator<_STL::pair<int const ,int> > >::operator[]
  00d42	89 30		 mov	 DWORD PTR [eax], esi

; 370  : 	NPCSPRITEID[987] = 100;		//   4 - 3

  00d44	8d 45 f0	 lea	 eax, DWORD PTR $T111236[ebp]
  00d47	50		 push	 eax
  00d48	8b cf		 mov	 ecx, edi
  00d4a	c7 45 f0 db 03
	00 00		 mov	 DWORD PTR $T111236[ebp], 987 ; 000003dbH
  00d51	e8 00 00 00 00	 call	 ??A?$map@HHU?$less@H@_STL@@V?$allocator@U?$pair@$$CBHH@_STL@@@2@@_STL@@QAEAAHABH@Z ; _STL::map<int,int,_STL::less<int>,_STL::allocator<_STL::pair<int const ,int> > >::operator[]
  00d56	89 30		 mov	 DWORD PTR [eax], esi

; 371  : 	NPCSPRITEID[988] = 100;		//   4 - 4

  00d58	8d 45 f0	 lea	 eax, DWORD PTR $T111237[ebp]
  00d5b	50		 push	 eax
  00d5c	8b cf		 mov	 ecx, edi
  00d5e	c7 45 f0 dc 03
	00 00		 mov	 DWORD PTR $T111237[ebp], 988 ; 000003dcH
  00d65	e8 00 00 00 00	 call	 ??A?$map@HHU?$less@H@_STL@@V?$allocator@U?$pair@$$CBHH@_STL@@@2@@_STL@@QAEAAHABH@Z ; _STL::map<int,int,_STL::less<int>,_STL::allocator<_STL::pair<int const ,int> > >::operator[]
  00d6a	89 30		 mov	 DWORD PTR [eax], esi

; 372  : 	
; 373  : 	NPCSPRITEID[989] = 100;		//   5 - 1

  00d6c	8d 45 f0	 lea	 eax, DWORD PTR $T111238[ebp]
  00d6f	50		 push	 eax
  00d70	8b cf		 mov	 ecx, edi
  00d72	c7 45 f0 dd 03
	00 00		 mov	 DWORD PTR $T111238[ebp], 989 ; 000003ddH
  00d79	e8 00 00 00 00	 call	 ??A?$map@HHU?$less@H@_STL@@V?$allocator@U?$pair@$$CBHH@_STL@@@2@@_STL@@QAEAAHABH@Z ; _STL::map<int,int,_STL::less<int>,_STL::allocator<_STL::pair<int const ,int> > >::operator[]
  00d7e	89 30		 mov	 DWORD PTR [eax], esi

; 374  : 	NPCSPRITEID[990] = 100;		//   5 - 2

  00d80	8d 45 f0	 lea	 eax, DWORD PTR $T111239[ebp]
  00d83	50		 push	 eax
  00d84	8b cf		 mov	 ecx, edi
  00d86	c7 45 f0 de 03
	00 00		 mov	 DWORD PTR $T111239[ebp], 990 ; 000003deH
  00d8d	e8 00 00 00 00	 call	 ??A?$map@HHU?$less@H@_STL@@V?$allocator@U?$pair@$$CBHH@_STL@@@2@@_STL@@QAEAAHABH@Z ; _STL::map<int,int,_STL::less<int>,_STL::allocator<_STL::pair<int const ,int> > >::operator[]
  00d92	89 30		 mov	 DWORD PTR [eax], esi

; 375  : 	NPCSPRITEID[991] = 100;		//   5 - 3

  00d94	8d 45 f0	 lea	 eax, DWORD PTR $T111240[ebp]
  00d97	50		 push	 eax
  00d98	8b cf		 mov	 ecx, edi
  00d9a	c7 45 f0 df 03
	00 00		 mov	 DWORD PTR $T111240[ebp], 991 ; 000003dfH
  00da1	e8 00 00 00 00	 call	 ??A?$map@HHU?$less@H@_STL@@V?$allocator@U?$pair@$$CBHH@_STL@@@2@@_STL@@QAEAAHABH@Z ; _STL::map<int,int,_STL::less<int>,_STL::allocator<_STL::pair<int const ,int> > >::operator[]
  00da6	89 30		 mov	 DWORD PTR [eax], esi

; 376  : 	NPCSPRITEID[992] = 100;		//   5 - 4

  00da8	8d 45 f0	 lea	 eax, DWORD PTR $T111241[ebp]
  00dab	50		 push	 eax
  00dac	8b cf		 mov	 ecx, edi
  00dae	c7 45 f0 e0 03
	00 00		 mov	 DWORD PTR $T111241[ebp], 992 ; 000003e0H
  00db5	e8 00 00 00 00	 call	 ??A?$map@HHU?$less@H@_STL@@V?$allocator@U?$pair@$$CBHH@_STL@@@2@@_STL@@QAEAAHABH@Z ; _STL::map<int,int,_STL::less<int>,_STL::allocator<_STL::pair<int const ,int> > >::operator[]
  00dba	89 30		 mov	 DWORD PTR [eax], esi

; 377  : 	
; 378  : 	NPCSPRITEID[993] = 100;		//   6 - 1

  00dbc	8d 45 f0	 lea	 eax, DWORD PTR $T111242[ebp]
  00dbf	50		 push	 eax
  00dc0	8b cf		 mov	 ecx, edi
  00dc2	c7 45 f0 e1 03
	00 00		 mov	 DWORD PTR $T111242[ebp], 993 ; 000003e1H
  00dc9	e8 00 00 00 00	 call	 ??A?$map@HHU?$less@H@_STL@@V?$allocator@U?$pair@$$CBHH@_STL@@@2@@_STL@@QAEAAHABH@Z ; _STL::map<int,int,_STL::less<int>,_STL::allocator<_STL::pair<int const ,int> > >::operator[]
  00dce	89 30		 mov	 DWORD PTR [eax], esi

; 379  : 	NPCSPRITEID[994] = 100;		//   6 - 2

  00dd0	8d 45 f0	 lea	 eax, DWORD PTR $T111243[ebp]
  00dd3	50		 push	 eax
  00dd4	8b cf		 mov	 ecx, edi
  00dd6	c7 45 f0 e2 03
	00 00		 mov	 DWORD PTR $T111243[ebp], 994 ; 000003e2H
  00ddd	e8 00 00 00 00	 call	 ??A?$map@HHU?$less@H@_STL@@V?$allocator@U?$pair@$$CBHH@_STL@@@2@@_STL@@QAEAAHABH@Z ; _STL::map<int,int,_STL::less<int>,_STL::allocator<_STL::pair<int const ,int> > >::operator[]
  00de2	89 30		 mov	 DWORD PTR [eax], esi

; 380  : 	NPCSPRITEID[995] = 100;		//   6 - 3

  00de4	8d 45 f0	 lea	 eax, DWORD PTR $T111244[ebp]
  00de7	50		 push	 eax
  00de8	8b cf		 mov	 ecx, edi
  00dea	c7 45 f0 e3 03
	00 00		 mov	 DWORD PTR $T111244[ebp], 995 ; 000003e3H
  00df1	e8 00 00 00 00	 call	 ??A?$map@HHU?$less@H@_STL@@V?$allocator@U?$pair@$$CBHH@_STL@@@2@@_STL@@QAEAAHABH@Z ; _STL::map<int,int,_STL::less<int>,_STL::allocator<_STL::pair<int const ,int> > >::operator[]
  00df6	89 30		 mov	 DWORD PTR [eax], esi

; 381  : 	NPCSPRITEID[996] = 100;		//   6 - 4

  00df8	8d 45 f0	 lea	 eax, DWORD PTR $T111245[ebp]
  00dfb	50		 push	 eax
  00dfc	8b cf		 mov	 ecx, edi
  00dfe	c7 45 f0 e4 03
	00 00		 mov	 DWORD PTR $T111245[ebp], 996 ; 000003e4H
  00e05	e8 00 00 00 00	 call	 ??A?$map@HHU?$less@H@_STL@@V?$allocator@U?$pair@$$CBHH@_STL@@@2@@_STL@@QAEAAHABH@Z ; _STL::map<int,int,_STL::less<int>,_STL::allocator<_STL::pair<int const ,int> > >::operator[]
  00e0a	89 30		 mov	 DWORD PTR [eax], esi

; 382  : 
; 383  : 	NPCSPRITEID[997] = 100;		//   1 - 1

  00e0c	8d 45 f0	 lea	 eax, DWORD PTR $T111246[ebp]
  00e0f	50		 push	 eax
  00e10	8b cf		 mov	 ecx, edi
  00e12	c7 45 f0 e5 03
	00 00		 mov	 DWORD PTR $T111246[ebp], 997 ; 000003e5H
  00e19	e8 00 00 00 00	 call	 ??A?$map@HHU?$less@H@_STL@@V?$allocator@U?$pair@$$CBHH@_STL@@@2@@_STL@@QAEAAHABH@Z ; _STL::map<int,int,_STL::less<int>,_STL::allocator<_STL::pair<int const ,int> > >::operator[]
  00e1e	89 30		 mov	 DWORD PTR [eax], esi

; 384  : 	NPCSPRITEID[998] = 100;		//   1 - 2

  00e20	8d 45 f0	 lea	 eax, DWORD PTR $T111247[ebp]
  00e23	50		 push	 eax
  00e24	8b cf		 mov	 ecx, edi
  00e26	c7 45 f0 e6 03
	00 00		 mov	 DWORD PTR $T111247[ebp], 998 ; 000003e6H
  00e2d	e8 00 00 00 00	 call	 ??A?$map@HHU?$less@H@_STL@@V?$allocator@U?$pair@$$CBHH@_STL@@@2@@_STL@@QAEAAHABH@Z ; _STL::map<int,int,_STL::less<int>,_STL::allocator<_STL::pair<int const ,int> > >::operator[]
  00e32	89 30		 mov	 DWORD PTR [eax], esi

; 385  : 	NPCSPRITEID[999] = 100;		//   1 - 3

  00e34	8d 45 f0	 lea	 eax, DWORD PTR $T111248[ebp]
  00e37	50		 push	 eax
  00e38	8b cf		 mov	 ecx, edi
  00e3a	c7 45 f0 e7 03
	00 00		 mov	 DWORD PTR $T111248[ebp], 999 ; 000003e7H
  00e41	e8 00 00 00 00	 call	 ??A?$map@HHU?$less@H@_STL@@V?$allocator@U?$pair@$$CBHH@_STL@@@2@@_STL@@QAEAAHABH@Z ; _STL::map<int,int,_STL::less<int>,_STL::allocator<_STL::pair<int const ,int> > >::operator[]
  00e46	89 30		 mov	 DWORD PTR [eax], esi

; 386  : 	NPCSPRITEID[1000] = 100;		//   1 - 4

  00e48	8d 45 f0	 lea	 eax, DWORD PTR $T111249[ebp]
  00e4b	50		 push	 eax
  00e4c	8b cf		 mov	 ecx, edi
  00e4e	c7 45 f0 e8 03
	00 00		 mov	 DWORD PTR $T111249[ebp], 1000 ; 000003e8H
  00e55	e8 00 00 00 00	 call	 ??A?$map@HHU?$less@H@_STL@@V?$allocator@U?$pair@$$CBHH@_STL@@@2@@_STL@@QAEAAHABH@Z ; _STL::map<int,int,_STL::less<int>,_STL::allocator<_STL::pair<int const ,int> > >::operator[]
  00e5a	89 30		 mov	 DWORD PTR [eax], esi

; 387  : 
; 388  : 	NPCSPRITEID[1001] = 100;		//   2 - 1

  00e5c	8d 45 f0	 lea	 eax, DWORD PTR $T111250[ebp]
  00e5f	50		 push	 eax
  00e60	8b cf		 mov	 ecx, edi
  00e62	c7 45 f0 e9 03
	00 00		 mov	 DWORD PTR $T111250[ebp], 1001 ; 000003e9H
  00e69	e8 00 00 00 00	 call	 ??A?$map@HHU?$less@H@_STL@@V?$allocator@U?$pair@$$CBHH@_STL@@@2@@_STL@@QAEAAHABH@Z ; _STL::map<int,int,_STL::less<int>,_STL::allocator<_STL::pair<int const ,int> > >::operator[]
  00e6e	89 30		 mov	 DWORD PTR [eax], esi

; 389  : 	NPCSPRITEID[1002] = 100;		//   2 - 2

  00e70	8d 45 f0	 lea	 eax, DWORD PTR $T111251[ebp]
  00e73	50		 push	 eax
  00e74	8b cf		 mov	 ecx, edi
  00e76	c7 45 f0 ea 03
	00 00		 mov	 DWORD PTR $T111251[ebp], 1002 ; 000003eaH
  00e7d	e8 00 00 00 00	 call	 ??A?$map@HHU?$less@H@_STL@@V?$allocator@U?$pair@$$CBHH@_STL@@@2@@_STL@@QAEAAHABH@Z ; _STL::map<int,int,_STL::less<int>,_STL::allocator<_STL::pair<int const ,int> > >::operator[]
  00e82	89 30		 mov	 DWORD PTR [eax], esi

; 390  : 	NPCSPRITEID[1003] = 100;		//   2 - 3

  00e84	8d 45 f0	 lea	 eax, DWORD PTR $T111252[ebp]
  00e87	50		 push	 eax
  00e88	8b cf		 mov	 ecx, edi
  00e8a	c7 45 f0 eb 03
	00 00		 mov	 DWORD PTR $T111252[ebp], 1003 ; 000003ebH
  00e91	e8 00 00 00 00	 call	 ??A?$map@HHU?$less@H@_STL@@V?$allocator@U?$pair@$$CBHH@_STL@@@2@@_STL@@QAEAAHABH@Z ; _STL::map<int,int,_STL::less<int>,_STL::allocator<_STL::pair<int const ,int> > >::operator[]
  00e96	89 30		 mov	 DWORD PTR [eax], esi

; 391  : 	NPCSPRITEID[1004] = 100;		//   2 - 4

  00e98	8d 45 f0	 lea	 eax, DWORD PTR $T111253[ebp]
  00e9b	50		 push	 eax
  00e9c	8b cf		 mov	 ecx, edi
  00e9e	c7 45 f0 ec 03
	00 00		 mov	 DWORD PTR $T111253[ebp], 1004 ; 000003ecH
  00ea5	e8 00 00 00 00	 call	 ??A?$map@HHU?$less@H@_STL@@V?$allocator@U?$pair@$$CBHH@_STL@@@2@@_STL@@QAEAAHABH@Z ; _STL::map<int,int,_STL::less<int>,_STL::allocator<_STL::pair<int const ,int> > >::operator[]
  00eaa	89 30		 mov	 DWORD PTR [eax], esi

; 392  : 
; 393  : 	NPCSPRITEID[1005] = 100;		//   3 - 1

  00eac	8d 45 f0	 lea	 eax, DWORD PTR $T111254[ebp]
  00eaf	50		 push	 eax
  00eb0	8b cf		 mov	 ecx, edi
  00eb2	c7 45 f0 ed 03
	00 00		 mov	 DWORD PTR $T111254[ebp], 1005 ; 000003edH
  00eb9	e8 00 00 00 00	 call	 ??A?$map@HHU?$less@H@_STL@@V?$allocator@U?$pair@$$CBHH@_STL@@@2@@_STL@@QAEAAHABH@Z ; _STL::map<int,int,_STL::less<int>,_STL::allocator<_STL::pair<int const ,int> > >::operator[]
  00ebe	89 30		 mov	 DWORD PTR [eax], esi

; 394  : 	NPCSPRITEID[1006] = 100;		//   3 - 2

  00ec0	8d 45 f0	 lea	 eax, DWORD PTR $T111255[ebp]
  00ec3	50		 push	 eax
  00ec4	8b cf		 mov	 ecx, edi
  00ec6	c7 45 f0 ee 03
	00 00		 mov	 DWORD PTR $T111255[ebp], 1006 ; 000003eeH
  00ecd	e8 00 00 00 00	 call	 ??A?$map@HHU?$less@H@_STL@@V?$allocator@U?$pair@$$CBHH@_STL@@@2@@_STL@@QAEAAHABH@Z ; _STL::map<int,int,_STL::less<int>,_STL::allocator<_STL::pair<int const ,int> > >::operator[]
  00ed2	89 30		 mov	 DWORD PTR [eax], esi

; 395  : 	NPCSPRITEID[1007] = 100;		//   3 - 3

  00ed4	8d 45 f0	 lea	 eax, DWORD PTR $T111256[ebp]
  00ed7	50		 push	 eax
  00ed8	8b cf		 mov	 ecx, edi
  00eda	c7 45 f0 ef 03
	00 00		 mov	 DWORD PTR $T111256[ebp], 1007 ; 000003efH
  00ee1	e8 00 00 00 00	 call	 ??A?$map@HHU?$less@H@_STL@@V?$allocator@U?$pair@$$CBHH@_STL@@@2@@_STL@@QAEAAHABH@Z ; _STL::map<int,int,_STL::less<int>,_STL::allocator<_STL::pair<int const ,int> > >::operator[]
  00ee6	89 30		 mov	 DWORD PTR [eax], esi

; 396  : 	NPCSPRITEID[1008] = 100;		//   3 - 4

  00ee8	8d 45 f0	 lea	 eax, DWORD PTR $T111257[ebp]
  00eeb	50		 push	 eax
  00eec	8b cf		 mov	 ecx, edi
  00eee	c7 45 f0 f0 03
	00 00		 mov	 DWORD PTR $T111257[ebp], 1008 ; 000003f0H
  00ef5	e8 00 00 00 00	 call	 ??A?$map@HHU?$less@H@_STL@@V?$allocator@U?$pair@$$CBHH@_STL@@@2@@_STL@@QAEAAHABH@Z ; _STL::map<int,int,_STL::less<int>,_STL::allocator<_STL::pair<int const ,int> > >::operator[]
  00efa	89 30		 mov	 DWORD PTR [eax], esi

; 397  : 	
; 398  : 	NPCSPRITEID[1009] = 100;		//   4 - 1

  00efc	8d 45 f0	 lea	 eax, DWORD PTR $T111258[ebp]
  00eff	50		 push	 eax
  00f00	8b cf		 mov	 ecx, edi
  00f02	c7 45 f0 f1 03
	00 00		 mov	 DWORD PTR $T111258[ebp], 1009 ; 000003f1H
  00f09	e8 00 00 00 00	 call	 ??A?$map@HHU?$less@H@_STL@@V?$allocator@U?$pair@$$CBHH@_STL@@@2@@_STL@@QAEAAHABH@Z ; _STL::map<int,int,_STL::less<int>,_STL::allocator<_STL::pair<int const ,int> > >::operator[]
  00f0e	89 30		 mov	 DWORD PTR [eax], esi

; 399  : 	NPCSPRITEID[1010] = 100;		//   4 - 2

  00f10	8d 45 f0	 lea	 eax, DWORD PTR $T111259[ebp]
  00f13	50		 push	 eax
  00f14	8b cf		 mov	 ecx, edi
  00f16	c7 45 f0 f2 03
	00 00		 mov	 DWORD PTR $T111259[ebp], 1010 ; 000003f2H
  00f1d	e8 00 00 00 00	 call	 ??A?$map@HHU?$less@H@_STL@@V?$allocator@U?$pair@$$CBHH@_STL@@@2@@_STL@@QAEAAHABH@Z ; _STL::map<int,int,_STL::less<int>,_STL::allocator<_STL::pair<int const ,int> > >::operator[]
  00f22	89 30		 mov	 DWORD PTR [eax], esi

; 400  : 	NPCSPRITEID[1011] = 100;		//   4 - 3

  00f24	8d 45 f0	 lea	 eax, DWORD PTR $T111260[ebp]
  00f27	50		 push	 eax
  00f28	8b cf		 mov	 ecx, edi
  00f2a	c7 45 f0 f3 03
	00 00		 mov	 DWORD PTR $T111260[ebp], 1011 ; 000003f3H
  00f31	e8 00 00 00 00	 call	 ??A?$map@HHU?$less@H@_STL@@V?$allocator@U?$pair@$$CBHH@_STL@@@2@@_STL@@QAEAAHABH@Z ; _STL::map<int,int,_STL::less<int>,_STL::allocator<_STL::pair<int const ,int> > >::operator[]
  00f36	89 30		 mov	 DWORD PTR [eax], esi

; 401  : 	NPCSPRITEID[1012] = 100;		//   4 - 4

  00f38	8d 45 f0	 lea	 eax, DWORD PTR $T111261[ebp]
  00f3b	c7 45 f0 f4 03
	00 00		 mov	 DWORD PTR $T111261[ebp], 1012 ; 000003f4H
  00f42	50		 push	 eax
  00f43	8b cf		 mov	 ecx, edi
  00f45	e8 00 00 00 00	 call	 ??A?$map@HHU?$less@H@_STL@@V?$allocator@U?$pair@$$CBHH@_STL@@@2@@_STL@@QAEAAHABH@Z ; _STL::map<int,int,_STL::less<int>,_STL::allocator<_STL::pair<int const ,int> > >::operator[]
  00f4a	89 30		 mov	 DWORD PTR [eax], esi

; 402  : 	
; 403  : 	NPCSPRITEID[1013] = 100;		//   5 - 1

  00f4c	8d 45 f0	 lea	 eax, DWORD PTR $T111262[ebp]
  00f4f	50		 push	 eax
  00f50	8b cf		 mov	 ecx, edi
  00f52	c7 45 f0 f5 03
	00 00		 mov	 DWORD PTR $T111262[ebp], 1013 ; 000003f5H
  00f59	e8 00 00 00 00	 call	 ??A?$map@HHU?$less@H@_STL@@V?$allocator@U?$pair@$$CBHH@_STL@@@2@@_STL@@QAEAAHABH@Z ; _STL::map<int,int,_STL::less<int>,_STL::allocator<_STL::pair<int const ,int> > >::operator[]
  00f5e	89 30		 mov	 DWORD PTR [eax], esi

; 404  : 	NPCSPRITEID[1014] = 100;		//   5 - 2

  00f60	8d 45 f0	 lea	 eax, DWORD PTR $T111263[ebp]
  00f63	50		 push	 eax
  00f64	8b cf		 mov	 ecx, edi
  00f66	c7 45 f0 f6 03
	00 00		 mov	 DWORD PTR $T111263[ebp], 1014 ; 000003f6H
  00f6d	e8 00 00 00 00	 call	 ??A?$map@HHU?$less@H@_STL@@V?$allocator@U?$pair@$$CBHH@_STL@@@2@@_STL@@QAEAAHABH@Z ; _STL::map<int,int,_STL::less<int>,_STL::allocator<_STL::pair<int const ,int> > >::operator[]
  00f72	89 30		 mov	 DWORD PTR [eax], esi

; 405  : 	NPCSPRITEID[1015] = 100;		//   5 - 3

  00f74	8d 45 f0	 lea	 eax, DWORD PTR $T111264[ebp]
  00f77	50		 push	 eax
  00f78	8b cf		 mov	 ecx, edi
  00f7a	c7 45 f0 f7 03
	00 00		 mov	 DWORD PTR $T111264[ebp], 1015 ; 000003f7H
  00f81	e8 00 00 00 00	 call	 ??A?$map@HHU?$less@H@_STL@@V?$allocator@U?$pair@$$CBHH@_STL@@@2@@_STL@@QAEAAHABH@Z ; _STL::map<int,int,_STL::less<int>,_STL::allocator<_STL::pair<int const ,int> > >::operator[]
  00f86	89 30		 mov	 DWORD PTR [eax], esi

; 406  : 	NPCSPRITEID[1016] = 100;		//   5 - 4

  00f88	8d 45 f0	 lea	 eax, DWORD PTR $T111265[ebp]
  00f8b	50		 push	 eax
  00f8c	8b cf		 mov	 ecx, edi
  00f8e	c7 45 f0 f8 03
	00 00		 mov	 DWORD PTR $T111265[ebp], 1016 ; 000003f8H
  00f95	e8 00 00 00 00	 call	 ??A?$map@HHU?$less@H@_STL@@V?$allocator@U?$pair@$$CBHH@_STL@@@2@@_STL@@QAEAAHABH@Z ; _STL::map<int,int,_STL::less<int>,_STL::allocator<_STL::pair<int const ,int> > >::operator[]
  00f9a	89 30		 mov	 DWORD PTR [eax], esi

; 407  : 	
; 408  : 	NPCSPRITEID[1017] = 100;		//   6 - 1

  00f9c	8d 45 f0	 lea	 eax, DWORD PTR $T111266[ebp]
  00f9f	50		 push	 eax
  00fa0	8b cf		 mov	 ecx, edi
  00fa2	c7 45 f0 f9 03
	00 00		 mov	 DWORD PTR $T111266[ebp], 1017 ; 000003f9H
  00fa9	e8 00 00 00 00	 call	 ??A?$map@HHU?$less@H@_STL@@V?$allocator@U?$pair@$$CBHH@_STL@@@2@@_STL@@QAEAAHABH@Z ; _STL::map<int,int,_STL::less<int>,_STL::allocator<_STL::pair<int const ,int> > >::operator[]
  00fae	89 30		 mov	 DWORD PTR [eax], esi

; 409  : 	NPCSPRITEID[1018] = 100;		//   6 - 2

  00fb0	8d 45 f0	 lea	 eax, DWORD PTR $T111267[ebp]
  00fb3	50		 push	 eax
  00fb4	8b cf		 mov	 ecx, edi
  00fb6	c7 45 f0 fa 03
	00 00		 mov	 DWORD PTR $T111267[ebp], 1018 ; 000003faH
  00fbd	e8 00 00 00 00	 call	 ??A?$map@HHU?$less@H@_STL@@V?$allocator@U?$pair@$$CBHH@_STL@@@2@@_STL@@QAEAAHABH@Z ; _STL::map<int,int,_STL::less<int>,_STL::allocator<_STL::pair<int const ,int> > >::operator[]
  00fc2	89 30		 mov	 DWORD PTR [eax], esi

; 410  : 	NPCSPRITEID[1019] = 100;		//   6 - 3

  00fc4	8d 45 f0	 lea	 eax, DWORD PTR $T111268[ebp]
  00fc7	50		 push	 eax
  00fc8	8b cf		 mov	 ecx, edi
  00fca	c7 45 f0 fb 03
	00 00		 mov	 DWORD PTR $T111268[ebp], 1019 ; 000003fbH
  00fd1	e8 00 00 00 00	 call	 ??A?$map@HHU?$less@H@_STL@@V?$allocator@U?$pair@$$CBHH@_STL@@@2@@_STL@@QAEAAHABH@Z ; _STL::map<int,int,_STL::less<int>,_STL::allocator<_STL::pair<int const ,int> > >::operator[]
  00fd6	89 30		 mov	 DWORD PTR [eax], esi

; 411  : 	NPCSPRITEID[1020] = 100;		//   6 - 4	

  00fd8	8d 45 f0	 lea	 eax, DWORD PTR $T111269[ebp]
  00fdb	50		 push	 eax
  00fdc	8b cf		 mov	 ecx, edi
  00fde	c7 45 f0 fc 03
	00 00		 mov	 DWORD PTR $T111269[ebp], 1020 ; 000003fcH
  00fe5	e8 00 00 00 00	 call	 ??A?$map@HHU?$less@H@_STL@@V?$allocator@U?$pair@$$CBHH@_STL@@@2@@_STL@@QAEAAHABH@Z ; _STL::map<int,int,_STL::less<int>,_STL::allocator<_STL::pair<int const ,int> > >::operator[]
  00fea	89 30		 mov	 DWORD PTR [eax], esi

; 412  : #endif //__MENEGROTH
; 413  : 	
; 414  : #if __CONTENTS(__QUEST_RENEWAL)
; 415  : 	NPCSPRITEID[1021] = 101;
; 416  : 	NPCSPRITEID[1022] = 102;
; 417  : 	NPCSPRITEID[1023] = 103;
; 418  : 
; 419  : 	NPCSPRITEID[1029] = 101;		//      .       .
; 420  : 	NPCSPRITEID[1030] = 102;
; 421  : 	NPCSPRITEID[1031] = 103;
; 422  : #endif
; 423  : 
; 424  : #if __CONTENTS(__TIPOJYU_CASTLE)	//NPC  
; 425  : 	NPCSPRITEID[1041] = 104;		

  00fec	8d 45 f0	 lea	 eax, DWORD PTR $T111270[ebp]
  00fef	50		 push	 eax
  00ff0	8b cf		 mov	 ecx, edi
  00ff2	c7 45 f0 11 04
	00 00		 mov	 DWORD PTR $T111270[ebp], 1041 ; 00000411H
  00ff9	e8 00 00 00 00	 call	 ??A?$map@HHU?$less@H@_STL@@V?$allocator@U?$pair@$$CBHH@_STL@@@2@@_STL@@QAEAAHABH@Z ; _STL::map<int,int,_STL::less<int>,_STL::allocator<_STL::pair<int const ,int> > >::operator[]
  00ffe	c7 00 68 00 00
	00		 mov	 DWORD PTR [eax], 104	; 00000068H

; 426  : #endif // __TIPOJYU_CASTLE
; 427  : #if __CONTENTS(__OX_EVENT)
; 428  : 	NPCSPRITEID[1046] = 105;

  01004	8d 45 f0	 lea	 eax, DWORD PTR $T111271[ebp]
  01007	50		 push	 eax
  01008	8b cf		 mov	 ecx, edi
  0100a	c7 45 f0 16 04
	00 00		 mov	 DWORD PTR $T111271[ebp], 1046 ; 00000416H
  01011	e8 00 00 00 00	 call	 ??A?$map@HHU?$less@H@_STL@@V?$allocator@U?$pair@$$CBHH@_STL@@@2@@_STL@@QAEAAHABH@Z ; _STL::map<int,int,_STL::less<int>,_STL::allocator<_STL::pair<int const ,int> > >::operator[]
  01016	6a 69		 push	 105			; 00000069H
  01018	5e		 pop	 esi
  01019	89 30		 mov	 DWORD PTR [eax], esi

; 429  : 	NPCSPRITEID[1047] = 105;

  0101b	8d 45 f0	 lea	 eax, DWORD PTR $T111272[ebp]
  0101e	50		 push	 eax
  0101f	8b cf		 mov	 ecx, edi
  01021	c7 45 f0 17 04
	00 00		 mov	 DWORD PTR $T111272[ebp], 1047 ; 00000417H
  01028	e8 00 00 00 00	 call	 ??A?$map@HHU?$less@H@_STL@@V?$allocator@U?$pair@$$CBHH@_STL@@@2@@_STL@@QAEAAHABH@Z ; _STL::map<int,int,_STL::less<int>,_STL::allocator<_STL::pair<int const ,int> > >::operator[]
  0102d	89 30		 mov	 DWORD PTR [eax], esi

; 430  : 	NPCSPRITEID[1048] = 105;

  0102f	8d 45 f0	 lea	 eax, DWORD PTR $T111273[ebp]
  01032	50		 push	 eax
  01033	8b cf		 mov	 ecx, edi
  01035	c7 45 f0 18 04
	00 00		 mov	 DWORD PTR $T111273[ebp], 1048 ; 00000418H
  0103c	e8 00 00 00 00	 call	 ??A?$map@HHU?$less@H@_STL@@V?$allocator@U?$pair@$$CBHH@_STL@@@2@@_STL@@QAEAAHABH@Z ; _STL::map<int,int,_STL::less<int>,_STL::allocator<_STL::pair<int const ,int> > >::operator[]
  01041	89 30		 mov	 DWORD PTR [eax], esi

; 431  : #endif //__OX_EVENT
; 432  : #if __CONTENTS(__BLITZ_COUPON_EVENT)
; 433  : 	NPCSPRITEID[1049] = 105;

  01043	8d 45 f0	 lea	 eax, DWORD PTR $T111274[ebp]
  01046	c7 45 f0 19 04
	00 00		 mov	 DWORD PTR $T111274[ebp], 1049 ; 00000419H
  0104d	50		 push	 eax
  0104e	8b cf		 mov	 ecx, edi
  01050	e8 00 00 00 00	 call	 ??A?$map@HHU?$less@H@_STL@@V?$allocator@U?$pair@$$CBHH@_STL@@@2@@_STL@@QAEAAHABH@Z ; _STL::map<int,int,_STL::less<int>,_STL::allocator<_STL::pair<int const ,int> > >::operator[]
  01055	89 30		 mov	 DWORD PTR [eax], esi

; 434  : 	NPCSPRITEID[1050] = 105;

  01057	8d 45 f0	 lea	 eax, DWORD PTR $T111275[ebp]
  0105a	50		 push	 eax
  0105b	8b cf		 mov	 ecx, edi
  0105d	c7 45 f0 1a 04
	00 00		 mov	 DWORD PTR $T111275[ebp], 1050 ; 0000041aH
  01064	e8 00 00 00 00	 call	 ??A?$map@HHU?$less@H@_STL@@V?$allocator@U?$pair@$$CBHH@_STL@@@2@@_STL@@QAEAAHABH@Z ; _STL::map<int,int,_STL::less<int>,_STL::allocator<_STL::pair<int const ,int> > >::operator[]
  01069	89 30		 mov	 DWORD PTR [eax], esi

; 435  : 	NPCSPRITEID[1051] = 105;

  0106b	8d 45 f0	 lea	 eax, DWORD PTR $T111276[ebp]
  0106e	50		 push	 eax
  0106f	8b cf		 mov	 ecx, edi
  01071	c7 45 f0 1b 04
	00 00		 mov	 DWORD PTR $T111276[ebp], 1051 ; 0000041bH
  01078	e8 00 00 00 00	 call	 ??A?$map@HHU?$less@H@_STL@@V?$allocator@U?$pair@$$CBHH@_STL@@@2@@_STL@@QAEAAHABH@Z ; _STL::map<int,int,_STL::less<int>,_STL::allocator<_STL::pair<int const ,int> > >::operator[]
  0107d	89 30		 mov	 DWORD PTR [eax], esi

; 436  : #endif //__BLITZ_COUPON_EVENT
; 437  : #if __CONTENTS(__2008_AUTUMN_LEAVES_EVENT)
; 438  : 	NPCSPRITEID[1052] = 105;

  0107f	8d 45 f0	 lea	 eax, DWORD PTR $T111277[ebp]
  01082	50		 push	 eax
  01083	8b cf		 mov	 ecx, edi
  01085	c7 45 f0 1c 04
	00 00		 mov	 DWORD PTR $T111277[ebp], 1052 ; 0000041cH
  0108c	e8 00 00 00 00	 call	 ??A?$map@HHU?$less@H@_STL@@V?$allocator@U?$pair@$$CBHH@_STL@@@2@@_STL@@QAEAAHABH@Z ; _STL::map<int,int,_STL::less<int>,_STL::allocator<_STL::pair<int const ,int> > >::operator[]
  01091	89 30		 mov	 DWORD PTR [eax], esi

; 439  : 	NPCSPRITEID[1053] = 105;

  01093	8d 45 f0	 lea	 eax, DWORD PTR $T111278[ebp]
  01096	50		 push	 eax
  01097	8b cf		 mov	 ecx, edi
  01099	c7 45 f0 1d 04
	00 00		 mov	 DWORD PTR $T111278[ebp], 1053 ; 0000041dH
  010a0	e8 00 00 00 00	 call	 ??A?$map@HHU?$less@H@_STL@@V?$allocator@U?$pair@$$CBHH@_STL@@@2@@_STL@@QAEAAHABH@Z ; _STL::map<int,int,_STL::less<int>,_STL::allocator<_STL::pair<int const ,int> > >::operator[]
  010a5	89 30		 mov	 DWORD PTR [eax], esi

; 440  : 	NPCSPRITEID[1054] = 105;

  010a7	8d 45 f0	 lea	 eax, DWORD PTR $T111279[ebp]
  010aa	50		 push	 eax
  010ab	8b cf		 mov	 ecx, edi
  010ad	c7 45 f0 1e 04
	00 00		 mov	 DWORD PTR $T111279[ebp], 1054 ; 0000041eH
  010b4	e8 00 00 00 00	 call	 ??A?$map@HHU?$less@H@_STL@@V?$allocator@U?$pair@$$CBHH@_STL@@@2@@_STL@@QAEAAHABH@Z ; _STL::map<int,int,_STL::less<int>,_STL::allocator<_STL::pair<int const ,int> > >::operator[]
  010b9	89 30		 mov	 DWORD PTR [eax], esi

; 441  : #endif //__2008_AUTUMN_LEAVES_EVENT
; 442  : 
; 443  : #if __CONTENTS(__GLOBAL_NPC)
; 444  : 	NPCSPRITEID[1056] = 106;

  010bb	8d 45 f0	 lea	 eax, DWORD PTR $T111280[ebp]
  010be	50		 push	 eax
  010bf	8b cf		 mov	 ecx, edi
  010c1	c7 45 f0 20 04
	00 00		 mov	 DWORD PTR $T111280[ebp], 1056 ; 00000420H
  010c8	e8 00 00 00 00	 call	 ??A?$map@HHU?$less@H@_STL@@V?$allocator@U?$pair@$$CBHH@_STL@@@2@@_STL@@QAEAAHABH@Z ; _STL::map<int,int,_STL::less<int>,_STL::allocator<_STL::pair<int const ,int> > >::operator[]
  010cd	c7 00 6a 00 00
	00		 mov	 DWORD PTR [eax], 106	; 0000006aH

; 445  : 	NPCSPRITEID[1057] = 107;

  010d3	8d 45 f0	 lea	 eax, DWORD PTR $T111281[ebp]
  010d6	50		 push	 eax
  010d7	8b cf		 mov	 ecx, edi
  010d9	c7 45 f0 21 04
	00 00		 mov	 DWORD PTR $T111281[ebp], 1057 ; 00000421H
  010e0	e8 00 00 00 00	 call	 ??A?$map@HHU?$less@H@_STL@@V?$allocator@U?$pair@$$CBHH@_STL@@@2@@_STL@@QAEAAHABH@Z ; _STL::map<int,int,_STL::less<int>,_STL::allocator<_STL::pair<int const ,int> > >::operator[]
  010e5	c7 00 6b 00 00
	00		 mov	 DWORD PTR [eax], 107	; 0000006bH

; 446  : 	NPCSPRITEID[1058] = 108;

  010eb	8d 45 f0	 lea	 eax, DWORD PTR $T111282[ebp]
  010ee	50		 push	 eax
  010ef	8b cf		 mov	 ecx, edi
  010f1	c7 45 f0 22 04
	00 00		 mov	 DWORD PTR $T111282[ebp], 1058 ; 00000422H
  010f8	e8 00 00 00 00	 call	 ??A?$map@HHU?$less@H@_STL@@V?$allocator@U?$pair@$$CBHH@_STL@@@2@@_STL@@QAEAAHABH@Z ; _STL::map<int,int,_STL::less<int>,_STL::allocator<_STL::pair<int const ,int> > >::operator[]
  010fd	c7 00 6c 00 00
	00		 mov	 DWORD PTR [eax], 108	; 0000006cH

; 447  : #endif //__GLOBAL_NPC
; 448  : #if __CONTENTS(__CHRISTMAS_SOCKS_EVENT)
; 449  : 	NPCSPRITEID[1060] = 105;

  01103	8d 45 f0	 lea	 eax, DWORD PTR $T111283[ebp]
  01106	50		 push	 eax
  01107	8b cf		 mov	 ecx, edi
  01109	c7 45 f0 24 04
	00 00		 mov	 DWORD PTR $T111283[ebp], 1060 ; 00000424H
  01110	e8 00 00 00 00	 call	 ??A?$map@HHU?$less@H@_STL@@V?$allocator@U?$pair@$$CBHH@_STL@@@2@@_STL@@QAEAAHABH@Z ; _STL::map<int,int,_STL::less<int>,_STL::allocator<_STL::pair<int const ,int> > >::operator[]
  01115	89 30		 mov	 DWORD PTR [eax], esi

; 450  : 	NPCSPRITEID[1061] = 105;

  01117	8d 45 f0	 lea	 eax, DWORD PTR $T111284[ebp]
  0111a	50		 push	 eax
  0111b	8b cf		 mov	 ecx, edi
  0111d	c7 45 f0 25 04
	00 00		 mov	 DWORD PTR $T111284[ebp], 1061 ; 00000425H
  01124	e8 00 00 00 00	 call	 ??A?$map@HHU?$less@H@_STL@@V?$allocator@U?$pair@$$CBHH@_STL@@@2@@_STL@@QAEAAHABH@Z ; _STL::map<int,int,_STL::less<int>,_STL::allocator<_STL::pair<int const ,int> > >::operator[]
  01129	89 30		 mov	 DWORD PTR [eax], esi

; 451  : 	NPCSPRITEID[1062] = 105;

  0112b	8d 45 f0	 lea	 eax, DWORD PTR $T111285[ebp]
  0112e	50		 push	 eax
  0112f	8b cf		 mov	 ecx, edi
  01131	c7 45 f0 26 04
	00 00		 mov	 DWORD PTR $T111285[ebp], 1062 ; 00000426H
  01138	e8 00 00 00 00	 call	 ??A?$map@HHU?$less@H@_STL@@V?$allocator@U?$pair@$$CBHH@_STL@@@2@@_STL@@QAEAAHABH@Z ; _STL::map<int,int,_STL::less<int>,_STL::allocator<_STL::pair<int const ,int> > >::operator[]
  0113d	89 30		 mov	 DWORD PTR [eax], esi

; 452  : #endif //__CHRISTMAS_SOCKS_EVENT
; 453  : #if __CONTENTS(__ONIBLA)
; 454  : 	NPCSPRITEID[1079] = 38;

  0113f	8d 45 f0	 lea	 eax, DWORD PTR $T111286[ebp]
  01142	50		 push	 eax
  01143	8b cf		 mov	 ecx, edi
  01145	c7 45 f0 37 04
	00 00		 mov	 DWORD PTR $T111286[ebp], 1079 ; 00000437H
  0114c	e8 00 00 00 00	 call	 ??A?$map@HHU?$less@H@_STL@@V?$allocator@U?$pair@$$CBHH@_STL@@@2@@_STL@@QAEAAHABH@Z ; _STL::map<int,int,_STL::less<int>,_STL::allocator<_STL::pair<int const ,int> > >::operator[]
  01151	c7 00 26 00 00
	00		 mov	 DWORD PTR [eax], 38	; 00000026H

; 455  : 	NPCSPRITEID[1080] = 32;

  01157	8d 45 f0	 lea	 eax, DWORD PTR $T111287[ebp]
  0115a	50		 push	 eax
  0115b	8b cf		 mov	 ecx, edi
  0115d	c7 45 f0 38 04
	00 00		 mov	 DWORD PTR $T111287[ebp], 1080 ; 00000438H
  01164	e8 00 00 00 00	 call	 ??A?$map@HHU?$less@H@_STL@@V?$allocator@U?$pair@$$CBHH@_STL@@@2@@_STL@@QAEAAHABH@Z ; _STL::map<int,int,_STL::less<int>,_STL::allocator<_STL::pair<int const ,int> > >::operator[]
  01169	c7 00 20 00 00
	00		 mov	 DWORD PTR [eax], 32	; 00000020H

; 456  : 	NPCSPRITEID[1081] = 79;		// 

  0116f	c7 45 f0 39 04
	00 00		 mov	 DWORD PTR $T111288[ebp], 1081 ; 00000439H
  01176	8d 45 f0	 lea	 eax, DWORD PTR $T111288[ebp]
  01179	50		 push	 eax
  0117a	8b cf		 mov	 ecx, edi
  0117c	e8 00 00 00 00	 call	 ??A?$map@HHU?$less@H@_STL@@V?$allocator@U?$pair@$$CBHH@_STL@@@2@@_STL@@QAEAAHABH@Z ; _STL::map<int,int,_STL::less<int>,_STL::allocator<_STL::pair<int const ,int> > >::operator[]
  01181	c7 00 4f 00 00
	00		 mov	 DWORD PTR [eax], 79	; 0000004fH

; 457  : #endif //__ONIBLA
; 458  : #if __CONTENTS(__MOONLIGHT_FESTIVAL_EVENT)
; 459  : 	NPCSPRITEID[1086] = 109;

  01187	8d 45 f0	 lea	 eax, DWORD PTR $T111289[ebp]
  0118a	50		 push	 eax
  0118b	8b cf		 mov	 ecx, edi
  0118d	c7 45 f0 3e 04
	00 00		 mov	 DWORD PTR $T111289[ebp], 1086 ; 0000043eH
  01194	e8 00 00 00 00	 call	 ??A?$map@HHU?$less@H@_STL@@V?$allocator@U?$pair@$$CBHH@_STL@@@2@@_STL@@QAEAAHABH@Z ; _STL::map<int,int,_STL::less<int>,_STL::allocator<_STL::pair<int const ,int> > >::operator[]
  01199	89 18		 mov	 DWORD PTR [eax], ebx

; 460  : 	NPCSPRITEID[1087] = 109;

  0119b	8d 45 f0	 lea	 eax, DWORD PTR $T111290[ebp]
  0119e	50		 push	 eax
  0119f	8b cf		 mov	 ecx, edi
  011a1	c7 45 f0 3f 04
	00 00		 mov	 DWORD PTR $T111290[ebp], 1087 ; 0000043fH
  011a8	e8 00 00 00 00	 call	 ??A?$map@HHU?$less@H@_STL@@V?$allocator@U?$pair@$$CBHH@_STL@@@2@@_STL@@QAEAAHABH@Z ; _STL::map<int,int,_STL::less<int>,_STL::allocator<_STL::pair<int const ,int> > >::operator[]
  011ad	89 18		 mov	 DWORD PTR [eax], ebx

; 461  : 	NPCSPRITEID[1088] = 109;

  011af	8d 45 f0	 lea	 eax, DWORD PTR $T111291[ebp]
  011b2	50		 push	 eax
  011b3	8b cf		 mov	 ecx, edi
  011b5	c7 45 f0 40 04
	00 00		 mov	 DWORD PTR $T111291[ebp], 1088 ; 00000440H
  011bc	e8 00 00 00 00	 call	 ??A?$map@HHU?$less@H@_STL@@V?$allocator@U?$pair@$$CBHH@_STL@@@2@@_STL@@QAEAAHABH@Z ; _STL::map<int,int,_STL::less<int>,_STL::allocator<_STL::pair<int const ,int> > >::operator[]
  011c1	89 18		 mov	 DWORD PTR [eax], ebx

; 462  : #endif //__MOONLIGHT_FESTIVAL_EVENT
; 463  : 	NPCSPRITEID[1472] = 109;

  011c3	8d 45 f0	 lea	 eax, DWORD PTR $T111292[ebp]
  011c6	50		 push	 eax
  011c7	8b cf		 mov	 ecx, edi
  011c9	c7 45 f0 c0 05
	00 00		 mov	 DWORD PTR $T111292[ebp], 1472 ; 000005c0H
  011d0	e8 00 00 00 00	 call	 ??A?$map@HHU?$less@H@_STL@@V?$allocator@U?$pair@$$CBHH@_STL@@@2@@_STL@@QAEAAHABH@Z ; _STL::map<int,int,_STL::less<int>,_STL::allocator<_STL::pair<int const ,int> > >::operator[]

; 464  : }

  011d5	8b 4d f4	 mov	 ecx, DWORD PTR __$EHRec$[ebp]
  011d8	5f		 pop	 edi
  011d9	89 18		 mov	 DWORD PTR [eax], ebx
  011db	8b 45 ec	 mov	 eax, DWORD PTR _this$[ebp]
  011de	5e		 pop	 esi
  011df	5b		 pop	 ebx
  011e0	64 89 0d 00 00
	00 00		 mov	 DWORD PTR fs:__except_list, ecx
  011e7	c9		 leave
  011e8	c3		 ret	 0
_TEXT	ENDS
;	COMDAT text$x
text$x	SEGMENT
$L111293:
  00000	8b 4d ec	 mov	 ecx, DWORD PTR _this$[ebp]
  00003	e9 00 00 00 00	 jmp	 ??1?$CTypeMap@VSERVERNPC_INFO@@@@UAE@XZ ; CTypeMap<SERVERNPC_INFO>::~CTypeMap<SERVERNPC_INFO>
$L111294:
  00008	8b 4d ec	 mov	 ecx, DWORD PTR _this$[ebp]
  0000b	83 c1 10	 add	 ecx, 16			; 00000010H
  0000e	e9 00 00 00 00	 jmp	 ??1?$map@HHU?$less@H@_STL@@V?$allocator@U?$pair@$$CBHH@_STL@@@2@@_STL@@QAE@XZ
__ehhandler$??0MServerNPCTable@@QAE@XZ:
  00013	b8 00 00 00 00	 mov	 eax, OFFSET FLAT:$T111299
  00018	e9 00 00 00 00	 jmp	 ___CxxFrameHandler
text$x	ENDS
??0MServerNPCTable@@QAE@XZ ENDP				; MServerNPCTable::MServerNPCTable
PUBLIC	??1MServerNPCTable@@UAE@XZ			; MServerNPCTable::~MServerNPCTable
;	COMDAT xdata$x
xdata$x	SEGMENT
$T111316 DD	0ffffffffH
	DD	FLAT:$L111306
$T111314 DD	019930520H
	DD	01H
	DD	FLAT:$T111316
	DD	2 DUP(00H)
	DD	2 DUP(00H)
; Function compile flags: /Ogsy
xdata$x	ENDS
;	COMDAT ??1MServerNPCTable@@UAE@XZ
_TEXT	SEGMENT
_this$ = -16						; size = 4
__$EHRec$ = -12						; size = 12
??1MServerNPCTable@@UAE@XZ PROC NEAR			; MServerNPCTable::~MServerNPCTable, COMDAT
; _this$ = ecx

; 467  : {

  00000	b8 00 00 00 00	 mov	 eax, __ehhandler$??1MServerNPCTable@@UAE@XZ
  00005	e8 00 00 00 00	 call	 __EH_prolog
  0000a	51		 push	 ecx
  0000b	56		 push	 esi
  0000c	8b f1		 mov	 esi, ecx
  0000e	89 75 f0	 mov	 DWORD PTR _this$[ebp], esi
  00011	c7 06 00 00 00
	00		 mov	 DWORD PTR [esi], OFFSET FLAT:??_7MServerNPCTable@@6B@
  00017	83 65 fc 00	 and	 DWORD PTR __$EHRec$[ebp+8], 0

; 468  : //	Release();
; 469  : }

  0001b	8d 4e 10	 lea	 ecx, DWORD PTR [esi+16]
  0001e	e8 00 00 00 00	 call	 ??1?$_Rb_tree@HU?$pair@$$CBHH@_STL@@U?$_Select1st@U?$pair@$$CBHH@_STL@@@2@U?$less@H@2@V?$allocator@U?$pair@$$CBHH@_STL@@@2@@_STL@@QAE@XZ ; _STL::_Rb_tree<int,_STL::pair<int const ,int>,_STL::_Select1st<_STL::pair<int const ,int> >,_STL::less<int>,_STL::allocator<_STL::pair<int const ,int> > >::~_Rb_tree<int,_STL::pair<int const ,int>,_STL::_Select1st<_STL::pair<int const ,int> >,_STL::less<int>,_STL::allocator<_STL::pair<int const ,int> > >
  00023	83 4d fc ff	 or	 DWORD PTR __$EHRec$[ebp+8], -1
  00027	8b ce		 mov	 ecx, esi
  00029	e8 00 00 00 00	 call	 ??1?$CTypeMap@VSERVERNPC_INFO@@@@UAE@XZ ; CTypeMap<SERVERNPC_INFO>::~CTypeMap<SERVERNPC_INFO>
  0002e	8b 4d f4	 mov	 ecx, DWORD PTR __$EHRec$[ebp]
  00031	5e		 pop	 esi
  00032	64 89 0d 00 00
	00 00		 mov	 DWORD PTR fs:__except_list, ecx
  00039	c9		 leave
  0003a	c3		 ret	 0
_TEXT	ENDS
;	COMDAT text$x
text$x	SEGMENT
$L111306:
  00000	8b 4d f0	 mov	 ecx, DWORD PTR _this$[ebp]
  00003	e9 00 00 00 00	 jmp	 ??1?$CTypeMap@VSERVERNPC_INFO@@@@UAE@XZ ; CTypeMap<SERVERNPC_INFO>::~CTypeMap<SERVERNPC_INFO>
__ehhandler$??1MServerNPCTable@@UAE@XZ:
  00008	b8 00 00 00 00	 mov	 eax, OFFSET FLAT:$T111314
  0000d	e9 00 00 00 00	 jmp	 ___CxxFrameHandler
text$x	ENDS
??1MServerNPCTable@@UAE@XZ ENDP				; MServerNPCTable::~MServerNPCTable
PUBLIC	?AffectToNPCTable@MServerNPCTable@@QAEHPAVMNPCTable@@@Z ; MServerNPCTable::AffectToNPCTable
EXTRN	??4MString@@QAEXABV0@@Z:NEAR			; MString::operator=
EXTRN	?g_pCreatureTable@@3PAV?$CTypeTable@VCREATURETABLE_INFO@@@@A:DWORD ; g_pCreatureTable
;	COMDAT xdata$x
; File c:\stlport-4.6.1\stlport\stl\_tree.h
xdata$x	SEGMENT
$T111520 DD	0ffffffffH
	DD	FLAT:$L111333
$T111515 DD	019930520H
	DD	01H
	DD	FLAT:$T111520
	DD	2 DUP(00H)
	DD	2 DUP(00H)
; Function compile flags: /Ogsy
; File c:\darkeden\designed_common\project\client\mnpctable.cpp
xdata$x	ENDS
;	COMDAT ?AffectToNPCTable@MServerNPCTable@@QAEHPAVMNPCTable@@@Z
_TEXT	SEGMENT
$T111323 = -36						; size = 4
_ServerSize$ = -32					; size = 4
_this$ = -28						; size = 4
$T111331 = -24						; size = 4
$T111328 = -24						; size = 4
_id$104387 = -24					; size = 4
_count$ = -20						; size = 4
_iData$ = -16						; size = 4
__$EHRec$ = -12						; size = 12
_npc$ = 8						; size = 4
?AffectToNPCTable@MServerNPCTable@@QAEHPAVMNPCTable@@@Z PROC NEAR ; MServerNPCTable::AffectToNPCTable, COMDAT
; _this$ = ecx

; 472  : {

  00000	b8 00 00 00 00	 mov	 eax, __ehhandler$?AffectToNPCTable@MServerNPCTable@@QAEHPAVMNPCTable@@@Z
  00005	e8 00 00 00 00	 call	 __EH_prolog
  0000a	83 ec 18	 sub	 esp, 24			; 00000018H

; 473  : 	//   .
; 474  : 	int ServerSize = size();

  0000d	8b 41 08	 mov	 eax, DWORD PTR [ecx+8]

; 475  : 
; 476  : 	TYPE_MAP::iterator iData = begin();
; 477  : 	
; 478  : 	int count=0;

  00010	83 65 ec 00	 and	 DWORD PTR _count$[ebp], 0
  00014	89 4d e4	 mov	 DWORD PTR _this$[ebp], ecx
  00017	8b 49 04	 mov	 ecx, DWORD PTR [ecx+4]
  0001a	89 45 e0	 mov	 DWORD PTR _ServerSize$[ebp], eax
  0001d	8b 41 08	 mov	 eax, DWORD PTR [ecx+8]

; 479  : 	while(iData != end())

  00020	3b c1		 cmp	 eax, ecx
  00022	89 45 f0	 mov	 DWORD PTR _iData$[ebp], eax
  00025	0f 84 e0 00 00
	00		 je	 $L104385
  0002b	53		 push	 ebx
  0002c	56		 push	 esi
  0002d	57		 push	 edi
  0002e	eb 03		 jmp	 SHORT $L104384
$L111518:
  00030	8b 45 f0	 mov	 eax, DWORD PTR _iData$[ebp]
$L104384:

; 480  : 	{
; 481  : 		count++;
; 482  : 		unsigned id			 = (*iData).first;

  00033	8b 48 10	 mov	 ecx, DWORD PTR [eax+16]
  00036	ff 45 ec	 inc	 DWORD PTR _count$[ebp]

; 483  : 		SERVERNPC_INFO* info = (*iData).second;

  00039	8b 70 14	 mov	 esi, DWORD PTR [eax+20]

; 484  : 		
; 485  : 		NPC_INFO *ni = new NPC_INFO;

  0003c	6a 20		 push	 32			; 00000020H
  0003e	89 4d e8	 mov	 DWORD PTR _id$104387[ebp], ecx
  00041	e8 00 00 00 00	 call	 ??2@YAPAXI@Z		; operator new
  00046	59		 pop	 ecx
  00047	89 45 dc	 mov	 DWORD PTR $T111323[ebp], eax
  0004a	33 ff		 xor	 edi, edi
  0004c	3b c7		 cmp	 eax, edi
  0004e	89 7d fc	 mov	 DWORD PTR __$EHRec$[ebp+8], edi
  00051	74 09		 je	 SHORT $L111325
  00053	8b c8		 mov	 ecx, eax
  00055	e8 00 00 00 00	 call	 ??0NPC_INFO@@QAE@XZ
  0005a	8b f8		 mov	 edi, eax
$L111325:
  0005c	83 4d fc ff	 or	 DWORD PTR __$EHRec$[ebp+8], -1

; 486  : 		ni->Name = info->Name;

  00060	8d 5e 04	 lea	 ebx, DWORD PTR [esi+4]
  00063	53		 push	 ebx
  00064	8b cf		 mov	 ecx, edi
  00066	e8 00 00 00 00	 call	 ??4MString@@QAEXABV0@@Z	; MString::operator=

; 487  : 		ni->Description		= info->Description;

  0006b	8d 46 10	 lea	 eax, DWORD PTR [esi+16]
  0006e	50		 push	 eax
  0006f	8d 4f 10	 lea	 ecx, DWORD PTR [edi+16]
  00072	e8 00 00 00 00	 call	 ??4MString@@QAEXABV0@@Z	; MString::operator=

; 488  : 		ni->ListShopTemplateID.clear();

  00077	8d 4f 0c	 lea	 ecx, DWORD PTR [edi+12]
  0007a	e8 00 00 00 00	 call	 ?clear@?$_List_base@IV?$allocator@I@_STL@@@_STL@@QAEXXZ ; _STL::_List_base<unsigned int,_STL::allocator<unsigned int> >::clear

; 489  : 
; 490  : 		(*g_pCreatureTable)[id].Name = info->Name;

  0007f	8b 45 e8	 mov	 eax, DWORD PTR _id$104387[ebp]
  00082	8b 0d 00 00 00
	00		 mov	 ecx, DWORD PTR ?g_pCreatureTable@@3PAV?$CTypeTable@VCREATURETABLE_INFO@@@@A ; g_pCreatureTable
  00088	6b c0 70	 imul	 eax, 112		; 00000070H
  0008b	8b 49 04	 mov	 ecx, DWORD PTR [ecx+4]
  0008e	53		 push	 ebx
  0008f	8d 4c 01 08	 lea	 ecx, DWORD PTR [ecx+eax+8]
  00093	e8 00 00 00 00	 call	 ??4MString@@QAEXABV0@@Z	; MString::operator=

; 491  : 
; 492  : 		std::list<unsigned int>::iterator iID = info->ListShopTemplateID.begin();

  00098	8b 06		 mov	 eax, DWORD PTR [esi]
  0009a	8b 18		 mov	 ebx, DWORD PTR [eax]

; 493  : 		while (iID != info->ListShopTemplateID.end())

  0009c	3b d8		 cmp	 ebx, eax
  0009e	74 12		 je	 SHORT $L104449
$L104448:

; 494  : 		{		
; 495  : 			ni->ListShopTemplateID.push_back(*iID);

  000a0	8d 43 08	 lea	 eax, DWORD PTR [ebx+8]
  000a3	50		 push	 eax
  000a4	8d 4f 0c	 lea	 ecx, DWORD PTR [edi+12]
  000a7	e8 00 00 00 00	 call	 ?push_back@?$list@IV?$allocator@I@_STL@@@_STL@@QAEXABI@Z ; _STL::list<unsigned int,_STL::allocator<unsigned int> >::push_back

; 496  : 			iID++;

  000ac	8b 1b		 mov	 ebx, DWORD PTR [ebx]
  000ae	3b 1e		 cmp	 ebx, DWORD PTR [esi]
  000b0	75 ee		 jne	 SHORT $L104448
$L104449:

; 497  : 		}
; 498  : 
; 499  : 		if(NPCSPRITEID.find(id) == NPCSPRITEID.end())

  000b2	8b 5d e4	 mov	 ebx, DWORD PTR _this$[ebp]
  000b5	8b 75 e8	 mov	 esi, DWORD PTR _id$104387[ebp]
  000b8	8d 45 e8	 lea	 eax, DWORD PTR $T111328[ebp]
  000bb	83 c3 10	 add	 ebx, 16			; 00000010H
  000be	50		 push	 eax
  000bf	8b cb		 mov	 ecx, ebx
  000c1	89 75 e8	 mov	 DWORD PTR $T111328[ebp], esi
  000c4	e8 00 00 00 00	 call	 ??$_M_find@H@?$_Rb_tree@HU?$pair@$$CBHH@_STL@@U?$_Select1st@U?$pair@$$CBHH@_STL@@@2@U?$less@H@2@V?$allocator@U?$pair@$$CBHH@_STL@@@2@@_STL@@ABEPAU?$_Rb_tree_node@U?$pair@$$CBHH@_STL@@@1@ABH@Z ; _STL::_Rb_tree<int,_STL::pair<int const ,int>,_STL::_Select1st<_STL::pair<int const ,int> >,_STL::less<int>,_STL::allocator<_STL::pair<int const ,int> > >::_M_find<int>
  000c9	3b 03		 cmp	 eax, DWORD PTR [ebx]
  000cb	75 06		 jne	 SHORT $L104489

; 500  : 			ni->SpriteID = -1;

  000cd	83 4f 1c ff	 or	 DWORD PTR [edi+28], -1

; 501  : 		else

  000d1	eb 13		 jmp	 SHORT $L104490
$L104489:

; 502  : 			ni->SpriteID = NPCSPRITEID[id];

  000d3	8d 45 e8	 lea	 eax, DWORD PTR $T111331[ebp]
  000d6	50		 push	 eax
  000d7	8b cb		 mov	 ecx, ebx
  000d9	89 75 e8	 mov	 DWORD PTR $T111331[ebp], esi
  000dc	e8 00 00 00 00	 call	 ??A?$map@HHU?$less@H@_STL@@V?$allocator@U?$pair@$$CBHH@_STL@@@2@@_STL@@QAEAAHABH@Z ; _STL::map<int,int,_STL::less<int>,_STL::allocator<_STL::pair<int const ,int> > >::operator[]
  000e1	8b 00		 mov	 eax, DWORD PTR [eax]
  000e3	89 47 1c	 mov	 DWORD PTR [edi+28], eax
$L104490:

; 503  : 		
; 504  : 		npc->AddData(id, ni);

  000e6	8b 4d 08	 mov	 ecx, DWORD PTR _npc$[ebp]
  000e9	8b 01		 mov	 eax, DWORD PTR [ecx]
  000eb	57		 push	 edi
  000ec	56		 push	 esi
  000ed	ff 50 08	 call	 DWORD PTR [eax+8]

; 505  : 
; 506  : 		iData++;

  000f0	ff 75 f0	 push	 DWORD PTR _iData$[ebp]
  000f3	e8 00 00 00 00	 call	 ?_M_increment@?$_Rb_global@_N@_STL@@SAPAU_Rb_tree_node_base@2@PAU32@@Z ; _STL::_Rb_global<bool>::_M_increment
  000f8	59		 pop	 ecx
  000f9	8b 4d e4	 mov	 ecx, DWORD PTR _this$[ebp]
  000fc	3b 41 04	 cmp	 eax, DWORD PTR [ecx+4]
  000ff	89 45 f0	 mov	 DWORD PTR _iData$[ebp], eax
  00102	0f 85 28 ff ff
	ff		 jne	 $L111518
  00108	5f		 pop	 edi
  00109	5e		 pop	 esi
  0010a	5b		 pop	 ebx
$L104385:

; 507  : 	}
; 508  : 
; 509  : 	if( ServerSize != count )

  0010b	8b 4d ec	 mov	 ecx, DWORD PTR _count$[ebp]
  0010e	33 c0		 xor	 eax, eax
  00110	39 4d e0	 cmp	 DWORD PTR _ServerSize$[ebp], ecx

; 510  : 	{
; 511  : 		return false;
; 512  : 	}
; 513  : 	return true;
; 514  : }

  00113	8b 4d f4	 mov	 ecx, DWORD PTR __$EHRec$[ebp]
  00116	0f 94 c0	 sete	 al
  00119	64 89 0d 00 00
	00 00		 mov	 DWORD PTR fs:__except_list, ecx
  00120	c9		 leave
  00121	c2 04 00	 ret	 4
_TEXT	ENDS
;	COMDAT text$x
text$x	SEGMENT
$L111333:
  00000	ff 75 dc	 push	 DWORD PTR $T111323[ebp]
  00003	e8 00 00 00 00	 call	 ??3@YAXPAX@Z		; operator delete
  00008	59		 pop	 ecx
  00009	c3		 ret	 0
__ehhandler$?AffectToNPCTable@MServerNPCTable@@QAEHPAVMNPCTable@@@Z:
  0000a	b8 00 00 00 00	 mov	 eax, OFFSET FLAT:$T111515
  0000f	e9 00 00 00 00	 jmp	 ___CxxFrameHandler
text$x	ENDS
?AffectToNPCTable@MServerNPCTable@@QAEHPAVMNPCTable@@@Z ENDP ; MServerNPCTable::AffectToNPCTable
; Function compile flags: /Ogsy
;	COMDAT ??_GMNPCTable@@UAEPAXI@Z
_TEXT	SEGMENT
___flags$ = 8						; size = 4
??_GMNPCTable@@UAEPAXI@Z PROC NEAR			; MNPCTable::`scalar deleting destructor', COMDAT
; _this$ = ecx
  00000	56		 push	 esi
  00001	8b f1		 mov	 esi, ecx
  00003	e8 00 00 00 00	 call	 ??1MNPCTable@@UAE@XZ	; MNPCTable::~MNPCTable
  00008	f6 44 24 08 01	 test	 BYTE PTR ___flags$[esp], 1
  0000d	74 07		 je	 SHORT $L104092
  0000f	56		 push	 esi
  00010	e8 00 00 00 00	 call	 ??3@YAXPAX@Z		; operator delete
  00015	59		 pop	 ecx
$L104092:
  00016	8b c6		 mov	 eax, esi
  00018	5e		 pop	 esi
  00019	c2 04 00	 ret	 4
??_GMNPCTable@@UAEPAXI@Z ENDP				; MNPCTable::`scalar deleting destructor'
; Function compile flags: /Ogsy
_TEXT	ENDS
;	COMDAT ??_GMServerNPCTable@@UAEPAXI@Z
_TEXT	SEGMENT
___flags$ = 8						; size = 4
??_GMServerNPCTable@@UAEPAXI@Z PROC NEAR		; MServerNPCTable::`scalar deleting destructor', COMDAT
; _this$ = ecx
  00000	56		 push	 esi
  00001	8b f1		 mov	 esi, ecx
  00003	e8 00 00 00 00	 call	 ??1MServerNPCTable@@UAE@XZ ; MServerNPCTable::~MServerNPCTable
  00008	f6 44 24 08 01	 test	 BYTE PTR ___flags$[esp], 1
  0000d	74 07		 je	 SHORT $L104335
  0000f	56		 push	 esi
  00010	e8 00 00 00 00	 call	 ??3@YAXPAX@Z		; operator delete
  00015	59		 pop	 ecx
$L104335:
  00016	8b c6		 mov	 eax, esi
  00018	5e		 pop	 esi
  00019	c2 04 00	 ret	 4
??_GMServerNPCTable@@UAEPAXI@Z ENDP			; MServerNPCTable::`scalar deleting destructor'
_TEXT	ENDS
END
