; Listing generated by Microsoft (R) Optimizing Compiler Version 13.10.3077 

	TITLE	\darkeden\Designed_Common\Project\Client\Packet\ModifyInfo.cpp
	.386P
include listing.inc
if @Version gt 510
.model FLAT
else
_TEXT	SEGMENT PARA USE32 PUBLIC 'CODE'
_TEXT	ENDS
_DATA	SEGMENT DWORD USE32 PUBLIC 'DATA'
_DATA	ENDS
CONST	SEGMENT DWORD USE32 PUBLIC 'CONST'
CONST	ENDS
_BSS	SEGMENT DWORD USE32 PUBLIC 'BSS'
_BSS	ENDS
$$SYMBOLS	SEGMENT BYTE USE32 'DEBSYM'
$$SYMBOLS	ENDS
$$TYPES	SEGMENT BYTE USE32 'DEBTYP'
$$TYPES	ENDS
_TLS	SEGMENT DWORD USE32 PUBLIC 'TLS'
_TLS	ENDS
;	COMDAT ??_C@_0CA@NDINADEE@SocketOutputStream?$CIm_BufferLen?3?$AA@
CONST	SEGMENT DWORD USE32 PUBLIC 'CONST'
CONST	ENDS
;	COMDAT ??_C@_08LIHEOLAN@?0m_Head?3?$AA@
CONST	SEGMENT DWORD USE32 PUBLIC 'CONST'
CONST	ENDS
;	COMDAT ??_C@_08PCEHPGHK@?0m_Tail?3?$AA@
CONST	SEGMENT DWORD USE32 PUBLIC 'CONST'
CONST	ENDS
;	COMDAT ??_C@_01PKGAHCOL@?$CJ?$AA@
CONST	SEGMENT DWORD USE32 PUBLIC 'CONST'
CONST	ENDS
;	COMDAT ??_C@_09EMOGKKPB@BASIC_STR?$AA@
CONST	SEGMENT DWORD USE32 PUBLIC 'CONST'
CONST	ENDS
;	COMDAT ??_C@_0M@EJOONLND@CURRENT_STR?$AA@
CONST	SEGMENT DWORD USE32 PUBLIC 'CONST'
CONST	ENDS
;	COMDAT ??_C@_07KKCHECBB@MAX_STR?$AA@
CONST	SEGMENT DWORD USE32 PUBLIC 'CONST'
CONST	ENDS
;	COMDAT ??_C@_0P@CEHLLGLK@STR_EXP_REMAIN?$AA@
CONST	SEGMENT DWORD USE32 PUBLIC 'CONST'
CONST	ENDS
;	COMDAT ??_C@_09GGCDOEBK@BASIC_DEX?$AA@
CONST	SEGMENT DWORD USE32 PUBLIC 'CONST'
CONST	ENDS
;	COMDAT ??_C@_0M@GDCLJFDI@CURRENT_DEX?$AA@
CONST	SEGMENT DWORD USE32 PUBLIC 'CONST'
CONST	ENDS
;	COMDAT ??_C@_07IAOCAMPK@MAX_DEX?$AA@
CONST	SEGMENT DWORD USE32 PUBLIC 'CONST'
CONST	ENDS
;	COMDAT ??_C@_0P@DKPKJNND@DEX_EXP_REMAIN?$AA@
CONST	SEGMENT DWORD USE32 PUBLIC 'CONST'
CONST	ENDS
;	COMDAT ??_C@_09DEKJJMCK@BASIC_INT?$AA@
CONST	SEGMENT DWORD USE32 PUBLIC 'CONST'
CONST	ENDS
;	COMDAT ??_C@_0M@DBKBONAI@CURRENT_INT?$AA@
CONST	SEGMENT DWORD USE32 PUBLIC 'CONST'
CONST	ENDS
;	COMDAT ??_C@_07NCGIHEMK@MAX_INT?$AA@
CONST	SEGMENT DWORD USE32 PUBLIC 'CONST'
CONST	ENDS
;	COMDAT ??_C@_0P@BDHGGNMJ@INT_EXP_REMAIN?$AA@
CONST	SEGMENT DWORD USE32 PUBLIC 'CONST'
CONST	ENDS
;	COMDAT ??_C@_0L@HGOGCHKL@CURRENT_HP?$AA@
CONST	SEGMENT DWORD USE32 PUBLIC 'CONST'
CONST	ENDS
;	COMDAT ??_C@_06NMHEPHCD@MAX_HP?$AA@
CONST	SEGMENT DWORD USE32 PUBLIC 'CONST'
CONST	ENDS
;	COMDAT ??_C@_0L@HACNOFEA@CURRENT_MP?$AA@
CONST	SEGMENT DWORD USE32 PUBLIC 'CONST'
CONST	ENDS
;	COMDAT ??_C@_06NKLPDFMI@MAX_MP?$AA@
CONST	SEGMENT DWORD USE32 PUBLIC 'CONST'
CONST	ENDS
;	COMDAT ??_C@_0L@HOANAEGI@MIN_DAMAGE?$AA@
CONST	SEGMENT DWORD USE32 PUBLIC 'CONST'
CONST	ENDS
;	COMDAT ??_C@_0L@LCAAHPGH@MAX_DAMAGE?$AA@
CONST	SEGMENT DWORD USE32 PUBLIC 'CONST'
CONST	ENDS
;	COMDAT ??_C@_07PABEIMLA@DEFENSE?$AA@
CONST	SEGMENT DWORD USE32 PUBLIC 'CONST'
CONST	ENDS
;	COMDAT ??_C@_0L@CACMAAHO@PROTECTION?$AA@
CONST	SEGMENT DWORD USE32 PUBLIC 'CONST'
CONST	ENDS
;	COMDAT ??_C@_05PMLNIFOI@TOHIT?$AA@
CONST	SEGMENT DWORD USE32 PUBLIC 'CONST'
CONST	ENDS
;	COMDAT ??_C@_06IGFCKNHC@VISION?$AA@
CONST	SEGMENT DWORD USE32 PUBLIC 'CONST'
CONST	ENDS
;	COMDAT ??_C@_04DIIKDPIA@FAME?$AA@
CONST	SEGMENT DWORD USE32 PUBLIC 'CONST'
CONST	ENDS
;	COMDAT ??_C@_04PNOMDKHF@GOLD?$AA@
CONST	SEGMENT DWORD USE32 PUBLIC 'CONST'
CONST	ENDS
;	COMDAT ??_C@_0BD@KMGAIODB@SWORD_DOMAIN_LEVEL?$AA@
CONST	SEGMENT DWORD USE32 PUBLIC 'CONST'
CONST	ENDS
;	COMDAT ??_C@_0BI@BGNAADGH@SWORD_DOMAIN_EXP_REMAIN?$AA@
CONST	SEGMENT DWORD USE32 PUBLIC 'CONST'
CONST	ENDS
;	COMDAT ??_C@_0BG@IGGENAK@SWORD_DOMAIN_GOAL_EXP?$AA@
CONST	SEGMENT DWORD USE32 PUBLIC 'CONST'
CONST	ENDS
;	COMDAT ??_C@_0BD@PGNNGOBB@BLADE_DOMAIN_LEVEL?$AA@
CONST	SEGMENT DWORD USE32 PUBLIC 'CONST'
CONST	ENDS
;	COMDAT ??_C@_0BI@IMLMLFMG@BLADE_DOMAIN_EXP_REMAIN?$AA@
CONST	SEGMENT DWORD USE32 PUBLIC 'CONST'
CONST	ENDS
;	COMDAT ??_C@_0BG@NLIFDHGN@BLADE_DOMAIN_GOAL_EXP?$AA@
CONST	SEGMENT DWORD USE32 PUBLIC 'CONST'
CONST	ENDS
;	COMDAT ??_C@_0BC@GPJLIFK@HEAL_DOMAIN_LEVEL?$AA@
CONST	SEGMENT DWORD USE32 PUBLIC 'CONST'
CONST	ENDS
;	COMDAT ??_C@_0BH@ILFIDFFK@HEAL_DOMAIN_EXP_REMAIN?$AA@
CONST	SEGMENT DWORD USE32 PUBLIC 'CONST'
CONST	ENDS
;	COMDAT ??_C@_0BF@EMCLNDPE@HEAL_DOMAIN_GOAL_EXP?$AA@
CONST	SEGMENT DWORD USE32 PUBLIC 'CONST'
CONST	ENDS
;	COMDAT ??_C@_0BF@ONHDOKIF@ENCHANT_DOMAIN_LEVEL?$AA@
CONST	SEGMENT DWORD USE32 PUBLIC 'CONST'
CONST	ENDS
;	COMDAT ??_C@_0BK@LANBKOIK@ENCHANT_DOMAIN_EXP_REMAIN?$AA@
CONST	SEGMENT DWORD USE32 PUBLIC 'CONST'
CONST	ENDS
;	COMDAT ??_C@_0BI@EPBOPEPK@ENCHANT_DOMAIN_GOAL_EXP?$AA@
CONST	SEGMENT DWORD USE32 PUBLIC 'CONST'
CONST	ENDS
;	COMDAT ??_C@_0BB@ELHNALIJ@GUN_DOMAIN_LEVEL?$AA@
CONST	SEGMENT DWORD USE32 PUBLIC 'CONST'
CONST	ENDS
;	COMDAT ??_C@_0BG@OJCBFDLD@GUN_DOMAIN_EXP_REMAIN?$AA@
CONST	SEGMENT DWORD USE32 PUBLIC 'CONST'
CONST	ENDS
;	COMDAT ??_C@_0BE@OGNJOCJC@GUN_DOMAIN_GOAL_EXP?$AA@
CONST	SEGMENT DWORD USE32 PUBLIC 'CONST'
CONST	ENDS
;	COMDAT ??_C@_0BB@MNCHHIND@ETC_DOMAIN_LEVEL?$AA@
CONST	SEGMENT DWORD USE32 PUBLIC 'CONST'
CONST	ENDS
;	COMDAT ??_C@_0BG@OOPKBPAA@ETC_DOMAIN_EXP_REMAIN?$AA@
CONST	SEGMENT DWORD USE32 PUBLIC 'CONST'
CONST	ENDS
;	COMDAT ??_C@_0BE@IFONLKN@ETC_DOMAIN_GOAL_EXP?$AA@
CONST	SEGMENT DWORD USE32 PUBLIC 'CONST'
CONST	ENDS
;	COMDAT ??_C@_0M@OHHCLPDA@SKILL_LEVEL?$AA@
CONST	SEGMENT DWORD USE32 PUBLIC 'CONST'
CONST	ENDS
;	COMDAT ??_C@_05GCEPFMCO@LEVEL?$AA@
CONST	SEGMENT DWORD USE32 PUBLIC 'CONST'
CONST	ENDS
;	COMDAT ??_C@_0M@MLFPLLC@EFFECT_STAT?$AA@
CONST	SEGMENT DWORD USE32 PUBLIC 'CONST'
CONST	ENDS
;	COMDAT ??_C@_08MJLDLDGF@DURATION?$AA@
CONST	SEGMENT DWORD USE32 PUBLIC 'CONST'
CONST	ENDS
;	COMDAT ??_C@_06JADFICD@BULLET?$AA@
CONST	SEGMENT DWORD USE32 PUBLIC 'CONST'
CONST	ENDS
;	COMDAT ??_C@_0M@DPKCELMF@BONUS_POINT?$AA@
CONST	SEGMENT DWORD USE32 PUBLIC 'CONST'
CONST	ENDS
;	COMDAT ??_C@_0L@JEFHDPIL@DURABILITY?$AA@
CONST	SEGMENT DWORD USE32 PUBLIC 'CONST'
CONST	ENDS
;	COMDAT ??_C@_09EGKBMPFK@NOTORIETY?$AA@
CONST	SEGMENT DWORD USE32 PUBLIC 'CONST'
CONST	ENDS
;	COMDAT ??_C@_0BA@MAIHAHDB@VAMP_EXP_REMAIN?$AA@
CONST	SEGMENT DWORD USE32 PUBLIC 'CONST'
CONST	ENDS
;	COMDAT ??_C@_0O@ENDFFBFD@SILVER_DAMAGE?$AA@
CONST	SEGMENT DWORD USE32 PUBLIC 'CONST'
CONST	ENDS
;	COMDAT ??_C@_0N@KMAAPCII@ATTACK_SPEED?$AA@
CONST	SEGMENT DWORD USE32 PUBLIC 'CONST'
CONST	ENDS
;	COMDAT ??_C@_09HPPNPOEE@ALIGNMENT?$AA@
CONST	SEGMENT DWORD USE32 PUBLIC 'CONST'
CONST	ENDS
;	COMDAT ??_C@_0BC@BNIPJKDA@SILVER_DURABILITY?$AA@
CONST	SEGMENT DWORD USE32 PUBLIC 'CONST'
CONST	ENDS
;	COMDAT ??_C@_0L@HJJLGOIM@REGEN_RATE?$AA@
CONST	SEGMENT DWORD USE32 PUBLIC 'CONST'
CONST	ENDS
;	COMDAT ??_C@_07ICBEDALK@GUILDID?$AA@
CONST	SEGMENT DWORD USE32 PUBLIC 'CONST'
CONST	ENDS
;	COMDAT ??_C@_04DBCPJNBF@RANK?$AA@
CONST	SEGMENT DWORD USE32 PUBLIC 'CONST'
CONST	ENDS
;	COMDAT ??_C@_0BA@DLBJHHBE@RANK_EXP_REMAIN?$AA@
CONST	SEGMENT DWORD USE32 PUBLIC 'CONST'
CONST	ENDS
;	COMDAT ??_C@_0BD@BBMKLBCL@OUSTERS_EXP_REMAIN?$AA@
CONST	SEGMENT DWORD USE32 PUBLIC 'CONST'
CONST	ENDS
;	COMDAT ??_C@_0BC@IMLFGMDG@SKILL_BONUS_POINT?$AA@
CONST	SEGMENT DWORD USE32 PUBLIC 'CONST'
CONST	ENDS
;	COMDAT ??_C@_0P@PEHNMFMM@ELEMENTAL_FIRE?$AA@
CONST	SEGMENT DWORD USE32 PUBLIC 'CONST'
CONST	ENDS
;	COMDAT ??_C@_0BA@MHDKAJKL@ELEMENTAL_WATER?$AA@
CONST	SEGMENT DWORD USE32 PUBLIC 'CONST'
CONST	ENDS
;	COMDAT ??_C@_0BA@BIGMGHL@ELEMENTAL_EARTH?$AA@
CONST	SEGMENT DWORD USE32 PUBLIC 'CONST'
CONST	ENDS
;	COMDAT ??_C@_0P@KFNKBAKL@ELEMENTAL_WIND?$AA@
CONST	SEGMENT DWORD USE32 PUBLIC 'CONST'
CONST	ENDS
;	COMDAT ??_C@_09BBOPOJIN@SKILL_EXP?$AA@
CONST	SEGMENT DWORD USE32 PUBLIC 'CONST'
CONST	ENDS
;	COMDAT ??_C@_06IEBMKFDK@PET_HP?$AA@
CONST	SEGMENT DWORD USE32 PUBLIC 'CONST'
CONST	ENDS
;	COMDAT ??_C@_0P@GOFONOAE@PET_EXP_REMAIN?$AA@
CONST	SEGMENT DWORD USE32 PUBLIC 'CONST'
CONST	ENDS
;	COMDAT ??_C@_0M@KIBGPGKM@LAST_TARGET?$AA@
CONST	SEGMENT DWORD USE32 PUBLIC 'CONST'
CONST	ENDS
;	COMDAT ??_C@_07PBEOFEGM@UNIONID?$AA@
CONST	SEGMENT DWORD USE32 PUBLIC 'CONST'
CONST	ENDS
;	COMDAT ??_C@_0L@COBGECE@UNIONGRADE?$AA@
CONST	SEGMENT DWORD USE32 PUBLIC 'CONST'
CONST	ENDS
;	COMDAT ??_C@_0BI@LHEPMHDM@ADVANCEMENT_CLASS_LEVEL?$AA@
CONST	SEGMENT DWORD USE32 PUBLIC 'CONST'
CONST	ENDS
;	COMDAT ??_C@_0BL@IKNEBHFH@ADVANCEMENT_CLASS_GOAL_EXP?$AA@
CONST	SEGMENT DWORD USE32 PUBLIC 'CONST'
CONST	ENDS
;	COMDAT ??_C@_0BJ@PIJGHHAP@ATTACK_BLOOD_BURST_POINT?$AA@
CONST	SEGMENT DWORD USE32 PUBLIC 'CONST'
CONST	ENDS
;	COMDAT ??_C@_0BK@BJJBOCNF@DEFENSE_BLOOD_BURST_POINT?$AA@
CONST	SEGMENT DWORD USE32 PUBLIC 'CONST'
CONST	ENDS
;	COMDAT ??_C@_0BI@MHOBEFBP@PARTY_BLOOD_BURST_POINT?$AA@
CONST	SEGMENT DWORD USE32 PUBLIC 'CONST'
CONST	ENDS
;	COMDAT ??_C@_0BD@BPOFFKFG@ADVANCED_SLAYERSTR?$AA@
CONST	SEGMENT DWORD USE32 PUBLIC 'CONST'
CONST	ENDS
;	COMDAT ??_C@_0BD@DFCABELN@ADVANCED_SLAYERDEX?$AA@
CONST	SEGMENT DWORD USE32 PUBLIC 'CONST'
CONST	ENDS
;	COMDAT ??_C@_0BD@GHKKGMIN@ADVANCED_SLAYERINT?$AA@
CONST	SEGMENT DWORD USE32 PUBLIC 'CONST'
CONST	ENDS
;	COMDAT ??_C@_0BB@JLMOMJOK@CONTRIBUTE_POINT?$AA@
CONST	SEGMENT DWORD USE32 PUBLIC 'CONST'
CONST	ENDS
;	COMDAT ??_C@_08IKEGEPEJ@DIANJUAN?$AA@
CONST	SEGMENT DWORD USE32 PUBLIC 'CONST'
CONST	ENDS
;	COMDAT ??_C@_03LEPPJAKI@MAX?$AA@
CONST	SEGMENT DWORD USE32 PUBLIC 'CONST'
CONST	ENDS
;	COMDAT ??_C@_0N@GOPDCEEB@basic_string?$AA@
CONST	SEGMENT DWORD USE32 PUBLIC 'CONST'
CONST	ENDS
xdata$x	SEGMENT DWORD USE32 PUBLIC 'CONST'
xdata$x	ENDS
rdata$r	SEGMENT DWORD USE32 PUBLIC 'CONST'
rdata$r	ENDS
text$yc	SEGMENT PARA USE32 PUBLIC 'CODE'
text$yc	ENDS
CRT$XCA	SEGMENT DWORD USE32 PUBLIC 'DATA'
CRT$XCA	ENDS
CRT$XCU	SEGMENT DWORD USE32 PUBLIC 'DATA'
CRT$XCU	ENDS
CRT$XCL	SEGMENT DWORD USE32 PUBLIC 'DATA'
CRT$XCL	ENDS
CRT$XCC	SEGMENT DWORD USE32 PUBLIC 'DATA'
CRT$XCC	ENDS
CRT$XCZ	SEGMENT DWORD USE32 PUBLIC 'DATA'
CRT$XCZ	ENDS
text$yd	SEGMENT PARA USE32 PUBLIC 'CODE'
text$yd	ENDS
;	COMDAT ?getHost@SocketImpl@@QBE?AV?$basic_string@DV?$char_traits@D@_STL@@V?$allocator@D@2@@_STL@@XZ
_TEXT	SEGMENT PARA USE32 PUBLIC 'CODE'
_TEXT	ENDS
;	COMDAT ?getPort@SocketImpl@@QBEIXZ
_TEXT	SEGMENT PARA USE32 PUBLIC 'CODE'
_TEXT	ENDS
;	COMDAT ?isValid@SocketImpl@@QBE_NXZ
_TEXT	SEGMENT PARA USE32 PUBLIC 'CODE'
_TEXT	ENDS
;	COMDAT ?getSOCKET@SocketImpl@@QBEIXZ
_TEXT	SEGMENT PARA USE32 PUBLIC 'CODE'
_TEXT	ENDS
;	COMDAT ?read@SocketInputStream@@QAEIAAE@Z
_TEXT	SEGMENT PARA USE32 PUBLIC 'CODE'
_TEXT	ENDS
;	COMDAT ?read@SocketInputStream@@QAEIAAG@Z
_TEXT	SEGMENT PARA USE32 PUBLIC 'CODE'
_TEXT	ENDS
;	COMDAT ?read@SocketInputStream@@QAEIAAK@Z
_TEXT	SEGMENT PARA USE32 PUBLIC 'CODE'
_TEXT	ENDS
;	COMDAT ?write@SocketOutputStream@@QAEIE@Z
_TEXT	SEGMENT PARA USE32 PUBLIC 'CODE'
_TEXT	ENDS
;	COMDAT ?write@SocketOutputStream@@QAEIG@Z
_TEXT	SEGMENT PARA USE32 PUBLIC 'CODE'
_TEXT	ENDS
;	COMDAT ?write@SocketOutputStream@@QAEII@Z
_TEXT	SEGMENT PARA USE32 PUBLIC 'CODE'
_TEXT	ENDS
;	COMDAT ?write@SocketOutputStream@@QAEIK@Z
_TEXT	SEGMENT PARA USE32 PUBLIC 'CODE'
_TEXT	ENDS
;	COMDAT ??1Packet@@UAE@XZ
_TEXT	SEGMENT PARA USE32 PUBLIC 'CODE'
_TEXT	ENDS
;	COMDAT ?read@Packet@@UAEXPAVSocket@@@Z
_TEXT	SEGMENT PARA USE32 PUBLIC 'CODE'
_TEXT	ENDS
;	COMDAT ?write@Packet@@UBEXPAVSocket@@@Z
_TEXT	SEGMENT PARA USE32 PUBLIC 'CODE'
_TEXT	ENDS
;	COMDAT ??_GPacket@@UAEPAXI@Z
_TEXT	SEGMENT PARA USE32 PUBLIC 'CODE'
_TEXT	ENDS
;	COMDAT ??0UnsupportedError@@QAE@ABV0@@Z
_TEXT	SEGMENT PARA USE32 PUBLIC 'CODE'
_TEXT	ENDS
;	COMDAT ??0Error@@QAE@ABV0@@Z
_TEXT	SEGMENT PARA USE32 PUBLIC 'CODE'
_TEXT	ENDS
;	COMDAT ??0Throwable@@QAE@ABV0@@Z
_TEXT	SEGMENT PARA USE32 PUBLIC 'CODE'
_TEXT	ENDS
;	COMDAT _$E79
text$yc	SEGMENT PARA USE32 PUBLIC 'CODE'
text$yc	ENDS
;	COMDAT _$E80
text$yd	SEGMENT PARA USE32 PUBLIC 'CODE'
text$yd	ENDS
;	COMDAT ?getPacketSize@ModifyInfo@@UBEIXZ
_TEXT	SEGMENT PARA USE32 PUBLIC 'CODE'
_TEXT	ENDS
;	COMDAT ??0ModifyInfo@@QAE@XZ
_TEXT	SEGMENT PARA USE32 PUBLIC 'CODE'
_TEXT	ENDS
;	COMDAT ??_GModifyInfo@@UAEPAXI@Z
_TEXT	SEGMENT PARA USE32 PUBLIC 'CODE'
_TEXT	ENDS
;	COMDAT ??0Packet@@QAE@XZ
_TEXT	SEGMENT PARA USE32 PUBLIC 'CODE'
_TEXT	ENDS
;	COMDAT ??1ModifyInfo@@UAE@XZ
_TEXT	SEGMENT PARA USE32 PUBLIC 'CODE'
_TEXT	ENDS
;	COMDAT ?read@ModifyInfo@@UAEXAAVSocketInputStream@@@Z
_TEXT	SEGMENT PARA USE32 PUBLIC 'CODE'
_TEXT	ENDS
;	COMDAT ?write@ModifyInfo@@UBEXAAVSocketOutputStream@@@Z
_TEXT	SEGMENT PARA USE32 PUBLIC 'CODE'
_TEXT	ENDS
;	COMDAT ?addShortData@ModifyInfo@@QAEXW4ModifyType@@G@Z
_TEXT	SEGMENT PARA USE32 PUBLIC 'CODE'
_TEXT	ENDS
;	COMDAT ?addLongData@ModifyInfo@@QAEXW4ModifyType@@K@Z
_TEXT	SEGMENT PARA USE32 PUBLIC 'CODE'
_TEXT	ENDS
;	COMDAT ?popShortData@ModifyInfo@@QAEXAAU_SHORTDATA@@@Z
_TEXT	SEGMENT PARA USE32 PUBLIC 'CODE'
_TEXT	ENDS
;	COMDAT ?popLongData@ModifyInfo@@QAEXAAU_LONGDATA@@@Z
_TEXT	SEGMENT PARA USE32 PUBLIC 'CODE'
_TEXT	ENDS
;	COMDAT ?eq@?$__char_traits_base@DH@_STL@@SA_NABD0@Z
_TEXT	SEGMENT PARA USE32 PUBLIC 'CODE'
_TEXT	ENDS
;	COMDAT ?not_eof@?$__char_traits_base@DH@_STL@@SAHABH@Z
_TEXT	SEGMENT PARA USE32 PUBLIC 'CODE'
_TEXT	ENDS
;	COMDAT ?eq_int_type@?$__char_traits_base@DH@_STL@@SA_NABH0@Z
_TEXT	SEGMENT PARA USE32 PUBLIC 'CODE'
_TEXT	ENDS
;	COMDAT ?get_allocator@?$basic_string@DV?$char_traits@D@_STL@@V?$allocator@D@2@@_STL@@QBE?AV?$allocator@D@2@XZ
_TEXT	SEGMENT PARA USE32 PUBLIC 'CODE'
_TEXT	ENDS
;	COMDAT ?_M_terminate_string@?$basic_string@DV?$char_traits@D@_STL@@V?$allocator@D@2@@_STL@@AAEXXZ
_TEXT	SEGMENT PARA USE32 PUBLIC 'CODE'
_TEXT	ENDS
;	COMDAT ?size@?$basic_string@DV?$char_traits@D@_STL@@V?$allocator@D@2@@_STL@@QBEIXZ
_TEXT	SEGMENT PARA USE32 PUBLIC 'CODE'
_TEXT	ENDS
;	COMDAT ?c_str@?$basic_string@DV?$char_traits@D@_STL@@V?$allocator@D@2@@_STL@@QBEPBDXZ
_TEXT	SEGMENT PARA USE32 PUBLIC 'CODE'
_TEXT	ENDS
;	COMDAT ??0?$_String_base@DV?$allocator@D@_STL@@@_STL@@QAE@ABV?$allocator@D@1@@Z
_TEXT	SEGMENT PARA USE32 PUBLIC 'CODE'
_TEXT	ENDS
;	COMDAT ?allocate@?$allocator@D@_STL@@QAEPADIPBX@Z
_TEXT	SEGMENT PARA USE32 PUBLIC 'CODE'
_TEXT	ENDS
;	COMDAT ??0?$fpos@H@_STL@@QAE@J@Z
_TEXT	SEGMENT PARA USE32 PUBLIC 'CODE'
_TEXT	ENDS
;	COMDAT ??B?$fpos@H@_STL@@QBEJXZ
_TEXT	SEGMENT PARA USE32 PUBLIC 'CODE'
_TEXT	ENDS
;	COMDAT ?state@?$fpos@H@_STL@@QBEHXZ
_TEXT	SEGMENT PARA USE32 PUBLIC 'CODE'
_TEXT	ENDS
;	COMDAT ?is_open@?$basic_filebuf@DV?$char_traits@D@_STL@@@_STL@@QBE_NXZ
_TEXT	SEGMENT PARA USE32 PUBLIC 'CODE'
_TEXT	ENDS
;	COMDAT ?_M_seek_return@?$basic_filebuf@DV?$char_traits@D@_STL@@@_STL@@AAE?AV?$fpos@H@2@JH@Z
_TEXT	SEGMENT PARA USE32 PUBLIC 'CODE'
_TEXT	ENDS
;	COMDAT ??0?$list@V?$basic_string@DV?$char_traits@D@_STL@@V?$allocator@D@2@@_STL@@V?$allocator@V?$basic_string@DV?$char_traits@D@_STL@@V?$allocator@D@2@@_STL@@@2@@_STL@@QAE@ABV01@@Z
_TEXT	SEGMENT PARA USE32 PUBLIC 'CODE'
_TEXT	ENDS
;	COMDAT ??0?$_Filebuf_Tmp_Buf@D@_STL@@QAE@H@Z
_TEXT	SEGMENT PARA USE32 PUBLIC 'CODE'
_TEXT	ENDS
;	COMDAT ??1?$_Filebuf_Tmp_Buf@D@_STL@@QAE@XZ
_TEXT	SEGMENT PARA USE32 PUBLIC 'CODE'
_TEXT	ENDS
;	COMDAT ??0?$list@U_SHORTDATA@@V?$allocator@U_SHORTDATA@@@_STL@@@_STL@@QAE@ABV?$allocator@U_SHORTDATA@@@1@@Z
_TEXT	SEGMENT PARA USE32 PUBLIC 'CODE'
_TEXT	ENDS
;	COMDAT ?begin@?$list@U_SHORTDATA@@V?$allocator@U_SHORTDATA@@@_STL@@@_STL@@QBE?AU?$_List_iterator@U_SHORTDATA@@U?$_Const_traits@U_SHORTDATA@@@_STL@@@2@XZ
_TEXT	SEGMENT PARA USE32 PUBLIC 'CODE'
_TEXT	ENDS
;	COMDAT ?end@?$list@U_SHORTDATA@@V?$allocator@U_SHORTDATA@@@_STL@@@_STL@@QBE?AU?$_List_iterator@U_SHORTDATA@@U?$_Const_traits@U_SHORTDATA@@@_STL@@@2@XZ
_TEXT	SEGMENT PARA USE32 PUBLIC 'CODE'
_TEXT	ENDS
;	COMDAT ?front@?$list@U_SHORTDATA@@V?$allocator@U_SHORTDATA@@@_STL@@@_STL@@QAEAAU_SHORTDATA@@XZ
_TEXT	SEGMENT PARA USE32 PUBLIC 'CODE'
_TEXT	ENDS
;	COMDAT ?push_back@?$list@U_SHORTDATA@@V?$allocator@U_SHORTDATA@@@_STL@@@_STL@@QAEXABU_SHORTDATA@@@Z
_TEXT	SEGMENT PARA USE32 PUBLIC 'CODE'
_TEXT	ENDS
;	COMDAT ?pop_front@?$list@U_SHORTDATA@@V?$allocator@U_SHORTDATA@@@_STL@@@_STL@@QAEXXZ
_TEXT	SEGMENT PARA USE32 PUBLIC 'CODE'
_TEXT	ENDS
;	COMDAT ??1?$list@U_SHORTDATA@@V?$allocator@U_SHORTDATA@@@_STL@@@_STL@@QAE@XZ
_TEXT	SEGMENT PARA USE32 PUBLIC 'CODE'
_TEXT	ENDS
;	COMDAT ??0?$allocator@U_SHORTDATA@@@_STL@@QAE@XZ
_TEXT	SEGMENT PARA USE32 PUBLIC 'CODE'
_TEXT	ENDS
;	COMDAT ??1?$allocator@U_SHORTDATA@@@_STL@@QAE@XZ
_TEXT	SEGMENT PARA USE32 PUBLIC 'CODE'
_TEXT	ENDS
;	COMDAT ??0?$list@U_LONGDATA@@V?$allocator@U_LONGDATA@@@_STL@@@_STL@@QAE@ABV?$allocator@U_LONGDATA@@@1@@Z
_TEXT	SEGMENT PARA USE32 PUBLIC 'CODE'
_TEXT	ENDS
;	COMDAT ?begin@?$list@U_LONGDATA@@V?$allocator@U_LONGDATA@@@_STL@@@_STL@@QBE?AU?$_List_iterator@U_LONGDATA@@U?$_Const_traits@U_LONGDATA@@@_STL@@@2@XZ
_TEXT	SEGMENT PARA USE32 PUBLIC 'CODE'
_TEXT	ENDS
;	COMDAT ?end@?$list@U_LONGDATA@@V?$allocator@U_LONGDATA@@@_STL@@@_STL@@QBE?AU?$_List_iterator@U_LONGDATA@@U?$_Const_traits@U_LONGDATA@@@_STL@@@2@XZ
_TEXT	SEGMENT PARA USE32 PUBLIC 'CODE'
_TEXT	ENDS
;	COMDAT ?front@?$list@U_LONGDATA@@V?$allocator@U_LONGDATA@@@_STL@@@_STL@@QAEAAU_LONGDATA@@XZ
_TEXT	SEGMENT PARA USE32 PUBLIC 'CODE'
_TEXT	ENDS
;	COMDAT ?push_back@?$list@U_LONGDATA@@V?$allocator@U_LONGDATA@@@_STL@@@_STL@@QAEXABU_LONGDATA@@@Z
_TEXT	SEGMENT PARA USE32 PUBLIC 'CODE'
_TEXT	ENDS
;	COMDAT ?pop_front@?$list@U_LONGDATA@@V?$allocator@U_LONGDATA@@@_STL@@@_STL@@QAEXXZ
_TEXT	SEGMENT PARA USE32 PUBLIC 'CODE'
_TEXT	ENDS
;	COMDAT ??1?$list@U_LONGDATA@@V?$allocator@U_LONGDATA@@@_STL@@@_STL@@QAE@XZ
_TEXT	SEGMENT PARA USE32 PUBLIC 'CODE'
_TEXT	ENDS
;	COMDAT ??0?$allocator@U_LONGDATA@@@_STL@@QAE@XZ
_TEXT	SEGMENT PARA USE32 PUBLIC 'CODE'
_TEXT	ENDS
;	COMDAT ??1?$allocator@U_LONGDATA@@@_STL@@QAE@XZ
_TEXT	SEGMENT PARA USE32 PUBLIC 'CODE'
_TEXT	ENDS
;	COMDAT ??D?$_List_iterator@U_SHORTDATA@@U?$_Const_traits@U_SHORTDATA@@@_STL@@@_STL@@QBEABU_SHORTDATA@@XZ
_TEXT	SEGMENT PARA USE32 PUBLIC 'CODE'
_TEXT	ENDS
;	COMDAT ??E?$_List_iterator@U_SHORTDATA@@U?$_Const_traits@U_SHORTDATA@@@_STL@@@_STL@@QAE?AU01@H@Z
_TEXT	SEGMENT PARA USE32 PUBLIC 'CODE'
_TEXT	ENDS
;	COMDAT ??D?$_List_iterator@U_LONGDATA@@U?$_Const_traits@U_LONGDATA@@@_STL@@@_STL@@QBEABU_LONGDATA@@XZ
_TEXT	SEGMENT PARA USE32 PUBLIC 'CODE'
_TEXT	ENDS
;	COMDAT ??E?$_List_iterator@U_LONGDATA@@U?$_Const_traits@U_LONGDATA@@@_STL@@@_STL@@QAE?AU01@H@Z
_TEXT	SEGMENT PARA USE32 PUBLIC 'CODE'
_TEXT	ENDS
;	COMDAT ?_M_terminate_string_aux@?$basic_string@DV?$char_traits@D@_STL@@V?$allocator@D@2@@_STL@@AAEXABU__true_type@2@@Z
_TEXT	SEGMENT PARA USE32 PUBLIC 'CODE'
_TEXT	ENDS
;	COMDAT ??0?$allocator@D@_STL@@QAE@ABV01@@Z
_TEXT	SEGMENT PARA USE32 PUBLIC 'CODE'
_TEXT	ENDS
;	COMDAT ??0?$_STLP_alloc_proxy@PADDV?$allocator@D@_STL@@@_STL@@QAE@ABV?$allocator@D@1@PAD@Z
_TEXT	SEGMENT PARA USE32 PUBLIC 'CODE'
_TEXT	ENDS
;	COMDAT ?state@?$fpos@H@_STL@@QAEXH@Z
_TEXT	SEGMENT PARA USE32 PUBLIC 'CODE'
_TEXT	ENDS
;	COMDAT ?get_allocator@?$_List_base@V?$basic_string@DV?$char_traits@D@_STL@@V?$allocator@D@2@@_STL@@V?$allocator@V?$basic_string@DV?$char_traits@D@_STL@@V?$allocator@D@2@@_STL@@@2@@_STL@@QBE?AV?$allocator@V?$basic_string@DV?$char_traits@D@_STL@@V?$allocator@D@2@@_STL@@@2@XZ
_TEXT	SEGMENT PARA USE32 PUBLIC 'CODE'
_TEXT	ENDS
;	COMDAT ?begin@?$list@U_SHORTDATA@@V?$allocator@U_SHORTDATA@@@_STL@@@_STL@@QAE?AU?$_List_iterator@U_SHORTDATA@@U?$_Nonconst_traits@U_SHORTDATA@@@_STL@@@2@XZ
_TEXT	SEGMENT PARA USE32 PUBLIC 'CODE'
_TEXT	ENDS
;	COMDAT ?end@?$list@U_SHORTDATA@@V?$allocator@U_SHORTDATA@@@_STL@@@_STL@@QAE?AU?$_List_iterator@U_SHORTDATA@@U?$_Nonconst_traits@U_SHORTDATA@@@_STL@@@2@XZ
_TEXT	SEGMENT PARA USE32 PUBLIC 'CODE'
_TEXT	ENDS
;	COMDAT ?insert@?$list@U_SHORTDATA@@V?$allocator@U_SHORTDATA@@@_STL@@@_STL@@QAE?AU?$_List_iterator@U_SHORTDATA@@U?$_Nonconst_traits@U_SHORTDATA@@@_STL@@@2@U32@ABU_SHORTDATA@@@Z
_TEXT	SEGMENT PARA USE32 PUBLIC 'CODE'
_TEXT	ENDS
;	COMDAT ?erase@?$list@U_SHORTDATA@@V?$allocator@U_SHORTDATA@@@_STL@@@_STL@@QAE?AU?$_List_iterator@U_SHORTDATA@@U?$_Nonconst_traits@U_SHORTDATA@@@_STL@@@2@U32@@Z
_TEXT	SEGMENT PARA USE32 PUBLIC 'CODE'
_TEXT	ENDS
;	COMDAT ??0?$_List_base@U_SHORTDATA@@V?$allocator@U_SHORTDATA@@@_STL@@@_STL@@QAE@ABV?$allocator@U_SHORTDATA@@@1@@Z
_TEXT	SEGMENT PARA USE32 PUBLIC 'CODE'
_TEXT	ENDS
;	COMDAT ??1?$_List_base@U_SHORTDATA@@V?$allocator@U_SHORTDATA@@@_STL@@@_STL@@QAE@XZ
_TEXT	SEGMENT PARA USE32 PUBLIC 'CODE'
_TEXT	ENDS
;	COMDAT ?begin@?$list@U_LONGDATA@@V?$allocator@U_LONGDATA@@@_STL@@@_STL@@QAE?AU?$_List_iterator@U_LONGDATA@@U?$_Nonconst_traits@U_LONGDATA@@@_STL@@@2@XZ
_TEXT	SEGMENT PARA USE32 PUBLIC 'CODE'
_TEXT	ENDS
;	COMDAT ?end@?$list@U_LONGDATA@@V?$allocator@U_LONGDATA@@@_STL@@@_STL@@QAE?AU?$_List_iterator@U_LONGDATA@@U?$_Nonconst_traits@U_LONGDATA@@@_STL@@@2@XZ
_TEXT	SEGMENT PARA USE32 PUBLIC 'CODE'
_TEXT	ENDS
;	COMDAT ?insert@?$list@U_LONGDATA@@V?$allocator@U_LONGDATA@@@_STL@@@_STL@@QAE?AU?$_List_iterator@U_LONGDATA@@U?$_Nonconst_traits@U_LONGDATA@@@_STL@@@2@U32@ABU_LONGDATA@@@Z
_TEXT	SEGMENT PARA USE32 PUBLIC 'CODE'
_TEXT	ENDS
;	COMDAT ?erase@?$list@U_LONGDATA@@V?$allocator@U_LONGDATA@@@_STL@@@_STL@@QAE?AU?$_List_iterator@U_LONGDATA@@U?$_Nonconst_traits@U_LONGDATA@@@_STL@@@2@U32@@Z
_TEXT	SEGMENT PARA USE32 PUBLIC 'CODE'
_TEXT	ENDS
;	COMDAT ??0?$_List_base@U_LONGDATA@@V?$allocator@U_LONGDATA@@@_STL@@@_STL@@QAE@ABV?$allocator@U_LONGDATA@@@1@@Z
_TEXT	SEGMENT PARA USE32 PUBLIC 'CODE'
_TEXT	ENDS
;	COMDAT ??1?$_List_base@U_LONGDATA@@V?$allocator@U_LONGDATA@@@_STL@@@_STL@@QAE@XZ
_TEXT	SEGMENT PARA USE32 PUBLIC 'CODE'
_TEXT	ENDS
;	COMDAT ??0?$_List_iterator@U_SHORTDATA@@U?$_Const_traits@U_SHORTDATA@@@_STL@@@_STL@@QAE@PAU?$_List_node@U_SHORTDATA@@@1@@Z
_TEXT	SEGMENT PARA USE32 PUBLIC 'CODE'
_TEXT	ENDS
;	COMDAT ??D?$_List_iterator@U_SHORTDATA@@U?$_Nonconst_traits@U_SHORTDATA@@@_STL@@@_STL@@QBEAAU_SHORTDATA@@XZ
_TEXT	SEGMENT PARA USE32 PUBLIC 'CODE'
_TEXT	ENDS
;	COMDAT ??0?$_List_iterator@U_LONGDATA@@U?$_Const_traits@U_LONGDATA@@@_STL@@@_STL@@QAE@PAU?$_List_node@U_LONGDATA@@@1@@Z
_TEXT	SEGMENT PARA USE32 PUBLIC 'CODE'
_TEXT	ENDS
;	COMDAT ??D?$_List_iterator@U_LONGDATA@@U?$_Nonconst_traits@U_LONGDATA@@@_STL@@@_STL@@QBEAAU_LONGDATA@@XZ
_TEXT	SEGMENT PARA USE32 PUBLIC 'CODE'
_TEXT	ENDS
;	COMDAT ??1?$_STLP_alloc_proxy@PAU?$_List_node@U_SHORTDATA@@@_STL@@U12@V?$allocator@U?$_List_node@U_SHORTDATA@@@_STL@@@2@@_STL@@QAE@XZ
_TEXT	SEGMENT PARA USE32 PUBLIC 'CODE'
_TEXT	ENDS
;	COMDAT ??1?$_STLP_alloc_proxy@PAU?$_List_node@U_LONGDATA@@@_STL@@U12@V?$allocator@U?$_List_node@U_LONGDATA@@@_STL@@@2@@_STL@@QAE@XZ
_TEXT	SEGMENT PARA USE32 PUBLIC 'CODE'
_TEXT	ENDS
;	COMDAT ?_M_create_node@?$list@U_SHORTDATA@@V?$allocator@U_SHORTDATA@@@_STL@@@_STL@@IAEPAU?$_List_node@U_SHORTDATA@@@2@ABU_SHORTDATA@@@Z
_TEXT	SEGMENT PARA USE32 PUBLIC 'CODE'
_TEXT	ENDS
;	COMDAT ??0?$_STLP_alloc_proxy@PAU?$_List_node@U_SHORTDATA@@@_STL@@U12@V?$allocator@U?$_List_node@U_SHORTDATA@@@_STL@@@2@@_STL@@QAE@ABV?$allocator@U?$_List_node@U_SHORTDATA@@@_STL@@@1@PAU?$_List_node@U_SHORTDATA@@@1@@Z
_TEXT	SEGMENT PARA USE32 PUBLIC 'CODE'
_TEXT	ENDS
;	COMDAT ??1?$allocator@U?$_List_node@U_SHORTDATA@@@_STL@@@_STL@@QAE@XZ
_TEXT	SEGMENT PARA USE32 PUBLIC 'CODE'
_TEXT	ENDS
;	COMDAT ?allocate@?$allocator@U?$_List_node@U_SHORTDATA@@@_STL@@@_STL@@QAEPAU?$_List_node@U_SHORTDATA@@@2@IPBX@Z
_TEXT	SEGMENT PARA USE32 PUBLIC 'CODE'
_TEXT	ENDS
;	COMDAT ?deallocate@?$allocator@U?$_List_node@U_SHORTDATA@@@_STL@@@_STL@@QAEXPAU?$_List_node@U_SHORTDATA@@@2@I@Z
_TEXT	SEGMENT PARA USE32 PUBLIC 'CODE'
_TEXT	ENDS
;	COMDAT ?_M_create_node@?$list@U_LONGDATA@@V?$allocator@U_LONGDATA@@@_STL@@@_STL@@IAEPAU?$_List_node@U_LONGDATA@@@2@ABU_LONGDATA@@@Z
_TEXT	SEGMENT PARA USE32 PUBLIC 'CODE'
_TEXT	ENDS
;	COMDAT ??0?$_STLP_alloc_proxy@PAU?$_List_node@U_LONGDATA@@@_STL@@U12@V?$allocator@U?$_List_node@U_LONGDATA@@@_STL@@@2@@_STL@@QAE@ABV?$allocator@U?$_List_node@U_LONGDATA@@@_STL@@@1@PAU?$_List_node@U_LONGDATA@@@1@@Z
_TEXT	SEGMENT PARA USE32 PUBLIC 'CODE'
_TEXT	ENDS
;	COMDAT ??1?$allocator@U?$_List_node@U_LONGDATA@@@_STL@@@_STL@@QAE@XZ
_TEXT	SEGMENT PARA USE32 PUBLIC 'CODE'
_TEXT	ENDS
;	COMDAT ?allocate@?$allocator@U?$_List_node@U_LONGDATA@@@_STL@@@_STL@@QAEPAU?$_List_node@U_LONGDATA@@@2@IPBX@Z
_TEXT	SEGMENT PARA USE32 PUBLIC 'CODE'
_TEXT	ENDS
;	COMDAT ?deallocate@?$allocator@U?$_List_node@U_LONGDATA@@@_STL@@@_STL@@QAEXPAU?$_List_node@U_LONGDATA@@@2@I@Z
_TEXT	SEGMENT PARA USE32 PUBLIC 'CODE'
_TEXT	ENDS
;	COMDAT ??0?$_List_iterator@U_SHORTDATA@@U?$_Nonconst_traits@U_SHORTDATA@@@_STL@@@_STL@@QAE@PAU?$_List_node@U_SHORTDATA@@@1@@Z
_TEXT	SEGMENT PARA USE32 PUBLIC 'CODE'
_TEXT	ENDS
;	COMDAT ??0?$_List_iterator@U_LONGDATA@@U?$_Nonconst_traits@U_LONGDATA@@@_STL@@@_STL@@QAE@PAU?$_List_node@U_LONGDATA@@@1@@Z
_TEXT	SEGMENT PARA USE32 PUBLIC 'CODE'
_TEXT	ENDS
;	COMDAT ??0?$allocator@U?$_List_node@U_SHORTDATA@@@_STL@@@_STL@@QAE@ABV01@@Z
_TEXT	SEGMENT PARA USE32 PUBLIC 'CODE'
_TEXT	ENDS
;	COMDAT ??0?$allocator@U?$_List_node@U_LONGDATA@@@_STL@@@_STL@@QAE@ABV01@@Z
_TEXT	SEGMENT PARA USE32 PUBLIC 'CODE'
_TEXT	ENDS
;	COMDAT ??$_M_range_initialize@PBD@?$basic_string@DV?$char_traits@D@_STL@@V?$allocator@D@2@@_STL@@AAEXPBD0@Z
_TEXT	SEGMENT PARA USE32 PUBLIC 'CODE'
_TEXT	ENDS
;	COMDAT ??$_M_range_initialize@PAD@?$basic_string@DV?$char_traits@D@_STL@@V?$allocator@D@2@@_STL@@AAEXPAD0@Z
_TEXT	SEGMENT PARA USE32 PUBLIC 'CODE'
_TEXT	ENDS
;	COMDAT ?close@?$basic_filebuf@DV?$char_traits@D@_STL@@@_STL@@QAEPAV12@XZ
_TEXT	SEGMENT PARA USE32 PUBLIC 'CODE'
_TEXT	ENDS
;	COMDAT ?_M_exit_input_mode@?$basic_filebuf@DV?$char_traits@D@_STL@@@_STL@@AAEXXZ
_TEXT	SEGMENT PARA USE32 PUBLIC 'CODE'
_TEXT	ENDS
;	COMDAT ?_M_switch_to_output_mode@?$basic_filebuf@DV?$char_traits@D@_STL@@@_STL@@AAE_NXZ
_TEXT	SEGMENT PARA USE32 PUBLIC 'CODE'
_TEXT	ENDS
;	COMDAT ?_M_output_error@?$basic_filebuf@DV?$char_traits@D@_STL@@@_STL@@AAEHXZ
_TEXT	SEGMENT PARA USE32 PUBLIC 'CODE'
_TEXT	ENDS
;	COMDAT ?_M_allocate_buffers@?$basic_filebuf@DV?$char_traits@D@_STL@@@_STL@@AAE_NPADH@Z
_TEXT	SEGMENT PARA USE32 PUBLIC 'CODE'
_TEXT	ENDS
;	COMDAT ?_M_deallocate_buffers@?$basic_filebuf@DV?$char_traits@D@_STL@@@_STL@@AAEXXZ
_TEXT	SEGMENT PARA USE32 PUBLIC 'CODE'
_TEXT	ENDS
;	COMDAT ?_M_seek_init@?$basic_filebuf@DV?$char_traits@D@_STL@@@_STL@@AAE_N_N@Z
_TEXT	SEGMENT PARA USE32 PUBLIC 'CODE'
_TEXT	ENDS
;	COMDAT ?_M_setup_codecvt@?$basic_filebuf@DV?$char_traits@D@_STL@@@_STL@@AAEXABVlocale@2@@Z
_TEXT	SEGMENT PARA USE32 PUBLIC 'CODE'
_TEXT	ENDS
;	COMDAT ??$equal@PADPADU?$_Eq_traits@V?$char_traits@D@_STL@@@_STL@@@_STL@@YA_NPAD00U?$_Eq_traits@V?$char_traits@D@_STL@@@0@@Z
_TEXT	SEGMENT PARA USE32 PUBLIC 'CODE'
_TEXT	ENDS
;	COMDAT ??$_Destroy@V?$basic_string@DV?$char_traits@D@_STL@@V?$allocator@D@2@@_STL@@@_STL@@YAXPAV?$basic_string@DV?$char_traits@D@_STL@@V?$allocator@D@2@@0@@Z
_TEXT	SEGMENT PARA USE32 PUBLIC 'CODE'
_TEXT	ENDS
;	COMDAT ??$_M_assign_dispatch@PAD@?$basic_string@DV?$char_traits@D@_STL@@V?$allocator@D@2@@_STL@@AAEAAV01@PAD0ABU__false_type@1@@Z
_TEXT	SEGMENT PARA USE32 PUBLIC 'CODE'
_TEXT	ENDS
;	COMDAT ?clear@?$_List_base@U_SHORTDATA@@V?$allocator@U_SHORTDATA@@@_STL@@@_STL@@QAEXXZ
_TEXT	SEGMENT PARA USE32 PUBLIC 'CODE'
_TEXT	ENDS
;	COMDAT ?clear@?$_List_base@U_LONGDATA@@V?$allocator@U_LONGDATA@@@_STL@@@_STL@@QAEXXZ
_TEXT	SEGMENT PARA USE32 PUBLIC 'CODE'
_TEXT	ENDS
;	COMDAT ??$insert@U?$_List_iterator@V?$basic_string@DV?$char_traits@D@_STL@@V?$allocator@D@2@@_STL@@U?$_Const_traits@V?$basic_string@DV?$char_traits@D@_STL@@V?$allocator@D@2@@_STL@@@2@@_STL@@@?$list@V?$basic_string@DV?$char_traits@D@_STL@@V?$allocator@D@2@@_STL@@V?$allocator@V?$basic_string@DV?$char_traits@D@_STL@@V?$allocator@D@2@@_STL@@@2@@_STL@@QAEXU?$_List_iterator@V?$basic_string@DV?$char_traits@D@_STL@@V?$allocator@D@2@@_STL@@U?$_Nonconst_traits@V?$basic_string@DV?$char_traits@D@_STL@@V?$allocator@D@2@@_STL@@@2@@1@U?$_List_iterator@V?$basic_string@DV?$char_traits@D@_STL@@V?$allocator@D@2@@_STL@@U?$_Const_traits@V?$basic_string@DV?$char_traits@D@_STL@@V?$allocator@D@2@@_STL@@@2@@1@1@Z
_TEXT	SEGMENT PARA USE32 PUBLIC 'CODE'
_TEXT	ENDS
;	COMDAT ??$?0U?$_List_node@V?$basic_string@DV?$char_traits@D@_STL@@V?$allocator@D@2@@_STL@@@_STL@@@?$allocator@V?$basic_string@DV?$char_traits@D@_STL@@V?$allocator@D@2@@_STL@@@_STL@@QAE@ABV?$allocator@U?$_List_node@V?$basic_string@DV?$char_traits@D@_STL@@V?$allocator@D@2@@_STL@@@_STL@@@1@@Z
_TEXT	SEGMENT PARA USE32 PUBLIC 'CODE'
_TEXT	ENDS
;	COMDAT ??$_Destroy@U_SHORTDATA@@@_STL@@YAXPAU_SHORTDATA@@@Z
_TEXT	SEGMENT PARA USE32 PUBLIC 'CODE'
_TEXT	ENDS
;	COMDAT ??$?0U_SHORTDATA@@@?$allocator@U?$_List_node@U_SHORTDATA@@@_STL@@@_STL@@QAE@ABV?$allocator@U_SHORTDATA@@@1@@Z
_TEXT	SEGMENT PARA USE32 PUBLIC 'CODE'
_TEXT	ENDS
;	COMDAT ??$_Destroy@U_LONGDATA@@@_STL@@YAXPAU_LONGDATA@@@Z
_TEXT	SEGMENT PARA USE32 PUBLIC 'CODE'
_TEXT	ENDS
;	COMDAT ??$?0U_LONGDATA@@@?$allocator@U?$_List_node@U_LONGDATA@@@_STL@@@_STL@@QAE@ABV?$allocator@U_LONGDATA@@@1@@Z
_TEXT	SEGMENT PARA USE32 PUBLIC 'CODE'
_TEXT	ENDS
;	COMDAT ??$_Construct@U_SHORTDATA@@U1@@_STL@@YAXPAU_SHORTDATA@@ABU1@@Z
_TEXT	SEGMENT PARA USE32 PUBLIC 'CODE'
_TEXT	ENDS
;	COMDAT ??$_Construct@U_LONGDATA@@U1@@_STL@@YAXPAU_LONGDATA@@ABU1@@Z
_TEXT	SEGMENT PARA USE32 PUBLIC 'CODE'
_TEXT	ENDS
;	COMDAT ??_G?$basic_string@DV?$char_traits@D@_STL@@V?$allocator@D@2@@_STL@@QAEPAXI@Z
_TEXT	SEGMENT PARA USE32 PUBLIC 'CODE'
_TEXT	ENDS
;	COMDAT ?end@?$basic_string@DV?$char_traits@D@_STL@@V?$allocator@D@2@@_STL@@QAEPADXZ
_TEXT	SEGMENT PARA USE32 PUBLIC 'CODE'
_TEXT	ENDS
;	COMDAT ?erase@?$basic_string@DV?$char_traits@D@_STL@@V?$allocator@D@2@@_STL@@QAEPADPAD0@Z
_TEXT	SEGMENT PARA USE32 PUBLIC 'CODE'
_TEXT	ENDS
;	COMDAT ?_M_exit_putback_mode@?$basic_filebuf@DV?$char_traits@D@_STL@@@_STL@@AAEXXZ
_TEXT	SEGMENT PARA USE32 PUBLIC 'CODE'
_TEXT	ENDS
;	COMDAT ??0?$_List_iterator@V?$basic_string@DV?$char_traits@D@_STL@@V?$allocator@D@2@@_STL@@U?$_Nonconst_traits@V?$basic_string@DV?$char_traits@D@_STL@@V?$allocator@D@2@@_STL@@@2@@_STL@@QAE@ABU01@@Z
_TEXT	SEGMENT PARA USE32 PUBLIC 'CODE'
_TEXT	ENDS
;	COMDAT ??R?$_Eq_traits@V?$char_traits@D@_STL@@@_STL@@QBE_NABD0@Z
_TEXT	SEGMENT PARA USE32 PUBLIC 'CODE'
_TEXT	ENDS
;	COMDAT ?move@?$__char_traits_base@DH@_STL@@SAPADPADPBDI@Z
_TEXT	SEGMENT PARA USE32 PUBLIC 'CODE'
_TEXT	ENDS
;	COMDAT ??$_M_range_initialize@PBD@?$basic_string@DV?$char_traits@D@_STL@@V?$allocator@D@2@@_STL@@AAEXPBD0ABUforward_iterator_tag@1@@Z
_TEXT	SEGMENT PARA USE32 PUBLIC 'CODE'
_TEXT	ENDS
;	COMDAT ??$_M_range_initialize@PAD@?$basic_string@DV?$char_traits@D@_STL@@V?$allocator@D@2@@_STL@@AAEXPAD0ABUforward_iterator_tag@1@@Z
_TEXT	SEGMENT PARA USE32 PUBLIC 'CODE'
_TEXT	ENDS
;	COMDAT ?_M_unshift@?$basic_filebuf@DV?$char_traits@D@_STL@@@_STL@@AAE_NXZ
_TEXT	SEGMENT PARA USE32 PUBLIC 'CODE'
_TEXT	ENDS
;	COMDAT ?_M_allocate_buffers@?$basic_filebuf@DV?$char_traits@D@_STL@@@_STL@@AAE_NXZ
_TEXT	SEGMENT PARA USE32 PUBLIC 'CODE'
_TEXT	ENDS
;	COMDAT ??$max@H@_STL@@YAABHABH0@Z
_TEXT	SEGMENT PARA USE32 PUBLIC 'CODE'
_TEXT	ENDS
;	COMDAT ??$use_facet@V?$codecvt@DDH@_STL@@@_STL@@YAABV?$codecvt@DDH@0@ABVlocale@0@@Z
_TEXT	SEGMENT PARA USE32 PUBLIC 'CODE'
_TEXT	ENDS
;	COMDAT ??$append@PAD@?$basic_string@DV?$char_traits@D@_STL@@V?$allocator@D@2@@_STL@@QAEAAV01@PAD0@Z
_TEXT	SEGMENT PARA USE32 PUBLIC 'CODE'
_TEXT	ENDS
;	COMDAT ??$_M_insert_dispatch@U?$_List_iterator@V?$basic_string@DV?$char_traits@D@_STL@@V?$allocator@D@2@@_STL@@U?$_Const_traits@V?$basic_string@DV?$char_traits@D@_STL@@V?$allocator@D@2@@_STL@@@2@@_STL@@@?$list@V?$basic_string@DV?$char_traits@D@_STL@@V?$allocator@D@2@@_STL@@V?$allocator@V?$basic_string@DV?$char_traits@D@_STL@@V?$allocator@D@2@@_STL@@@2@@_STL@@QAEXU?$_List_iterator@V?$basic_string@DV?$char_traits@D@_STL@@V?$allocator@D@2@@_STL@@U?$_Nonconst_traits@V?$basic_string@DV?$char_traits@D@_STL@@V?$allocator@D@2@@_STL@@@2@@1@U?$_List_iterator@V?$basic_string@DV?$char_traits@D@_STL@@V?$allocator@D@2@@_STL@@U?$_Const_traits@V?$basic_string@DV?$char_traits@D@_STL@@V?$allocator@D@2@@_STL@@@2@@1@1ABU__false_type@1@@Z
_TEXT	SEGMENT PARA USE32 PUBLIC 'CODE'
_TEXT	ENDS
;	COMDAT ??E?$_List_iterator@V?$basic_string@DV?$char_traits@D@_STL@@V?$allocator@D@2@@_STL@@U?$_Const_traits@V?$basic_string@DV?$char_traits@D@_STL@@V?$allocator@D@2@@_STL@@@2@@_STL@@QAEAAU01@XZ
_TEXT	SEGMENT PARA USE32 PUBLIC 'CODE'
_TEXT	ENDS
;	COMDAT ??$distance@PBD@_STL@@YAHABQBD0@Z
_TEXT	SEGMENT PARA USE32 PUBLIC 'CODE'
_TEXT	ENDS
;	COMDAT ?_M_allocate_block@?$_String_base@DV?$allocator@D@_STL@@@_STL@@QAEXI@Z
_TEXT	SEGMENT PARA USE32 PUBLIC 'CODE'
_TEXT	ENDS
;	COMDAT ??$distance@PAD@_STL@@YAHABQAD0@Z
_TEXT	SEGMENT PARA USE32 PUBLIC 'CODE'
_TEXT	ENDS
;	COMDAT ??$uninitialized_copy@PADPAD@_STL@@YAPADPAD00@Z
_TEXT	SEGMENT PARA USE32 PUBLIC 'CODE'
_TEXT	ENDS
;	COMDAT ??$_M_append_dispatch@PAD@?$basic_string@DV?$char_traits@D@_STL@@V?$allocator@D@2@@_STL@@AAEAAV01@PAD0ABU__false_type@1@@Z
_TEXT	SEGMENT PARA USE32 PUBLIC 'CODE'
_TEXT	ENDS
;	COMDAT ?max_size@?$_String_base@DV?$allocator@D@_STL@@@_STL@@QBEIXZ
_TEXT	SEGMENT PARA USE32 PUBLIC 'CODE'
_TEXT	ENDS
;	COMDAT ??$__distance@PBD@_STL@@YAHABQBD0ABUrandom_access_iterator_tag@0@@Z
_TEXT	SEGMENT PARA USE32 PUBLIC 'CODE'
_TEXT	ENDS
;	COMDAT ?_M_throw_length_error@?$_String_base@DV?$allocator@D@_STL@@@_STL@@QBEXXZ
_TEXT	SEGMENT PARA USE32 PUBLIC 'CODE'
_TEXT	ENDS
;	COMDAT ??$__distance@PAD@_STL@@YAHABQAD0ABUrandom_access_iterator_tag@0@@Z
_TEXT	SEGMENT PARA USE32 PUBLIC 'CODE'
_TEXT	ENDS
;	COMDAT ??$__uninitialized_copy@PADPAD@_STL@@YAPADPAD00ABU__true_type@0@@Z
_TEXT	SEGMENT PARA USE32 PUBLIC 'CODE'
_TEXT	ENDS
;	COMDAT ??$append@PAD@?$basic_string@DV?$char_traits@D@_STL@@V?$allocator@D@2@@_STL@@AAEAAV01@PAD0ABUforward_iterator_tag@1@@Z
_TEXT	SEGMENT PARA USE32 PUBLIC 'CODE'
_TEXT	ENDS
;	COMDAT ?_M_construct_null@?$basic_string@DV?$char_traits@D@_STL@@V?$allocator@D@2@@_STL@@AAEXPAD@Z
_TEXT	SEGMENT PARA USE32 PUBLIC 'CODE'
_TEXT	ENDS
;	COMDAT ?max_size@?$basic_string@DV?$char_traits@D@_STL@@V?$allocator@D@2@@_STL@@QBEIXZ
_TEXT	SEGMENT PARA USE32 PUBLIC 'CODE'
_TEXT	ENDS
;	COMDAT ?capacity@?$basic_string@DV?$char_traits@D@_STL@@V?$allocator@D@2@@_STL@@QBEIXZ
_TEXT	SEGMENT PARA USE32 PUBLIC 'CODE'
_TEXT	ENDS
;	COMDAT ?_Ret@?$_BothPtrType@PADPAD@_STL@@SA?AU__true_type@2@XZ
_TEXT	SEGMENT PARA USE32 PUBLIC 'CODE'
_TEXT	ENDS
;	COMDAT ?_M_construct_null_aux@?$basic_string@DV?$char_traits@D@_STL@@V?$allocator@D@2@@_STL@@AAEXPADABU__true_type@2@@Z
_TEXT	SEGMENT PARA USE32 PUBLIC 'CODE'
_TEXT	ENDS
;	COMDAT ??$__copy_aux@PADPAD@_STL@@YAPADPAD00ABU__true_type@0@@Z
_TEXT	SEGMENT PARA USE32 PUBLIC 'CODE'
_TEXT	ENDS
;	COMDAT ??$max@I@_STL@@YAABIABI0@Z
_TEXT	SEGMENT PARA USE32 PUBLIC 'CODE'
_TEXT	ENDS
;	COMDAT ?_Ret@?$_OKToMemCpy@DD@_STL@@SA?AU__true_type@2@XZ
_TEXT	SEGMENT PARA USE32 PUBLIC 'CODE'
_TEXT	ENDS
;	COMDAT ??$_IsOKToMemCpy@DD@_STL@@YA?AU?$_OKToMemCpy@DD@0@PAD0@Z
_TEXT	SEGMENT PARA USE32 PUBLIC 'CODE'
_TEXT	ENDS
;	COMDAT ??$__copy_ptrs@PADPAD@_STL@@YAPADPAD00ABU__true_type@0@@Z
_TEXT	SEGMENT PARA USE32 PUBLIC 'CODE'
_TEXT	ENDS
;	COMDAT ??_R3Packet@@8
rdata$r	SEGMENT DWORD USE32 PUBLIC 'CONST'
rdata$r	ENDS
;	COMDAT ??_R3ModifyInfo@@8
rdata$r	SEGMENT DWORD USE32 PUBLIC 'CONST'
rdata$r	ENDS
;	COMDAT ??_R2Packet@@8
rdata$r	SEGMENT DWORD USE32 PUBLIC 'CONST'
rdata$r	ENDS
;	COMDAT ??_R2ModifyInfo@@8
rdata$r	SEGMENT DWORD USE32 PUBLIC 'CONST'
rdata$r	ENDS
;	COMDAT ??_R1A@?0A@A@Packet@@8
rdata$r	SEGMENT DWORD USE32 PUBLIC 'CONST'
rdata$r	ENDS
;	COMDAT ??_R1A@?0A@A@ModifyInfo@@8
rdata$r	SEGMENT DWORD USE32 PUBLIC 'CONST'
rdata$r	ENDS
;	COMDAT ??_R0?AVPacket@@@8
_DATA	SEGMENT DWORD USE32 PUBLIC 'DATA'
_DATA	ENDS
;	COMDAT ??_R0?AVModifyInfo@@@8
_DATA	SEGMENT DWORD USE32 PUBLIC 'DATA'
_DATA	ENDS
;	COMDAT ??_R4Packet@@6B@
rdata$r	SEGMENT DWORD USE32 PUBLIC 'CONST'
rdata$r	ENDS
;	COMDAT ??_R4ModifyInfo@@6B@
rdata$r	SEGMENT DWORD USE32 PUBLIC 'CONST'
rdata$r	ENDS
;	COMDAT ?__copy_trivial@_STL@@YAPAXPBX0PAX@Z
_TEXT	SEGMENT PARA USE32 PUBLIC 'CODE'
_TEXT	ENDS
;	COMDAT ?_M_deallocate_block@?$_String_base@DV?$allocator@D@_STL@@@_STL@@QAEXXZ
_TEXT	SEGMENT PARA USE32 PUBLIC 'CODE'
_TEXT	ENDS
;	COMDAT ?deallocate@?$allocator@D@_STL@@QAEXPADI@Z
_TEXT	SEGMENT PARA USE32 PUBLIC 'CODE'
_TEXT	ENDS
;	COMDAT ??D?$_List_iterator@V?$basic_string@DV?$char_traits@D@_STL@@V?$allocator@D@2@@_STL@@U?$_Const_traits@V?$basic_string@DV?$char_traits@D@_STL@@V?$allocator@D@2@@_STL@@@2@@_STL@@QBEABV?$basic_string@DV?$char_traits@D@_STL@@V?$allocator@D@2@@1@XZ
_TEXT	SEGMENT PARA USE32 PUBLIC 'CODE'
_TEXT	ENDS
;	COMDAT ?insert@?$list@V?$basic_string@DV?$char_traits@D@_STL@@V?$allocator@D@2@@_STL@@V?$allocator@V?$basic_string@DV?$char_traits@D@_STL@@V?$allocator@D@2@@_STL@@@2@@_STL@@QAE?AU?$_List_iterator@V?$basic_string@DV?$char_traits@D@_STL@@V?$allocator@D@2@@_STL@@U?$_Nonconst_traits@V?$basic_string@DV?$char_traits@D@_STL@@V?$allocator@D@2@@_STL@@@2@@2@U32@ABV?$basic_string@DV?$char_traits@D@_STL@@V?$allocator@D@2@@2@@Z
_TEXT	SEGMENT PARA USE32 PUBLIC 'CODE'
_TEXT	ENDS
;	COMDAT ?_M_create_node@?$list@V?$basic_string@DV?$char_traits@D@_STL@@V?$allocator@D@2@@_STL@@V?$allocator@V?$basic_string@DV?$char_traits@D@_STL@@V?$allocator@D@2@@_STL@@@2@@_STL@@IAEPAU?$_List_node@V?$basic_string@DV?$char_traits@D@_STL@@V?$allocator@D@2@@_STL@@@2@ABV?$basic_string@DV?$char_traits@D@_STL@@V?$allocator@D@2@@2@@Z
_TEXT	SEGMENT PARA USE32 PUBLIC 'CODE'
_TEXT	ENDS
;	COMDAT ?allocate@?$allocator@U?$_List_node@V?$basic_string@DV?$char_traits@D@_STL@@V?$allocator@D@2@@_STL@@@_STL@@@_STL@@QAEPAU?$_List_node@V?$basic_string@DV?$char_traits@D@_STL@@V?$allocator@D@2@@_STL@@@2@IPBX@Z
_TEXT	SEGMENT PARA USE32 PUBLIC 'CODE'
_TEXT	ENDS
;	COMDAT ??$_Construct@V?$basic_string@DV?$char_traits@D@_STL@@V?$allocator@D@2@@_STL@@V12@@_STL@@YAXPAV?$basic_string@DV?$char_traits@D@_STL@@V?$allocator@D@2@@0@ABV10@@Z
_TEXT	SEGMENT PARA USE32 PUBLIC 'CODE'
_TEXT	ENDS
;	COMDAT ??3@YAXPAX0@Z
_TEXT	SEGMENT PARA USE32 PUBLIC 'CODE'
_TEXT	ENDS
;	COMDAT ?deallocate@?$allocator@U?$_List_node@V?$basic_string@DV?$char_traits@D@_STL@@V?$allocator@D@2@@_STL@@@_STL@@@_STL@@QAEXPAU?$_List_node@V?$basic_string@DV?$char_traits@D@_STL@@V?$allocator@D@2@@_STL@@@2@I@Z
_TEXT	SEGMENT PARA USE32 PUBLIC 'CODE'
_TEXT	ENDS
;	COMDAT ??0?$_List_iterator@V?$basic_string@DV?$char_traits@D@_STL@@V?$allocator@D@2@@_STL@@U?$_Nonconst_traits@V?$basic_string@DV?$char_traits@D@_STL@@V?$allocator@D@2@@_STL@@@2@@_STL@@QAE@PAU?$_List_node@V?$basic_string@DV?$char_traits@D@_STL@@V?$allocator@D@2@@_STL@@@1@@Z
_TEXT	SEGMENT PARA USE32 PUBLIC 'CODE'
_TEXT	ENDS
;	COMDAT ?__page_size@_Filebuf_base@_STL@@SAIXZ
_TEXT	SEGMENT PARA USE32 PUBLIC 'CODE'
_TEXT	ENDS
;	COMDAT ?_M_write@?$basic_filebuf@DV?$char_traits@D@_STL@@@_STL@@QAE_NPADH@Z
_TEXT	SEGMENT PARA USE32 PUBLIC 'CODE'
_TEXT	ENDS
;	COMDAT ?unshift@?$codecvt@DDH@_STL@@QBE?AW4result@codecvt_base@2@AAHPAD1AAPAD@Z
_TEXT	SEGMENT PARA USE32 PUBLIC 'CODE'
_TEXT	ENDS
;	COMDAT ?uninitialized_copy@_STL@@YAPADPBD0PAD@Z
_TEXT	SEGMENT PARA USE32 PUBLIC 'CODE'
_TEXT	ENDS
;	COMDAT ?_Destroy@_STL@@YAXPAD0@Z
_TEXT	SEGMENT PARA USE32 PUBLIC 'CODE'
_TEXT	ENDS
;	COMDAT ??2@YAPAXIPAX@Z
_TEXT	SEGMENT PARA USE32 PUBLIC 'CODE'
_TEXT	ENDS
;	COMDAT ?assign@?$char_traits@D@_STL@@SAXAADABD@Z
_TEXT	SEGMENT PARA USE32 PUBLIC 'CODE'
_TEXT	ENDS
;	COMDAT ?always_noconv@?$codecvt@DDH@_STL@@QBE_NXZ
_TEXT	SEGMENT PARA USE32 PUBLIC 'CODE'
_TEXT	ENDS
;	COMDAT ?encoding@?$codecvt@DDH@_STL@@QBEHXZ
_TEXT	SEGMENT PARA USE32 PUBLIC 'CODE'
_TEXT	ENDS
;	COMDAT ?max_length@?$codecvt@DDH@_STL@@QBEHXZ
_TEXT	SEGMENT PARA USE32 PUBLIC 'CODE'
_TEXT	ENDS
;	COMDAT ?__o_mode@_Filebuf_base@_STL@@QBEHXZ
_TEXT	SEGMENT PARA USE32 PUBLIC 'CODE'
_TEXT	ENDS
;	COMDAT ?deallocate@?$__node_alloc@$00$0A@@_STL@@SAXPAXI@Z
_TEXT	SEGMENT PARA USE32 PUBLIC 'CODE'
_TEXT	ENDS
;	COMDAT ?__stl_delete@_STL@@YAXPAX@Z
_TEXT	SEGMENT PARA USE32 PUBLIC 'CODE'
_TEXT	ENDS
;	COMDAT ??0_List_iterator_base@_STL@@QAE@PAU_List_node_base@1@@Z
_TEXT	SEGMENT PARA USE32 PUBLIC 'CODE'
_TEXT	ENDS
;	COMDAT ?_M_incr@_List_iterator_base@_STL@@QAEXXZ
_TEXT	SEGMENT PARA USE32 PUBLIC 'CODE'
_TEXT	ENDS
;	COMDAT ?begin@?$list@V?$basic_string@DV?$char_traits@D@_STL@@V?$allocator@D@2@@_STL@@V?$allocator@V?$basic_string@DV?$char_traits@D@_STL@@V?$allocator@D@2@@_STL@@@2@@_STL@@QAE?AU?$_List_iterator@V?$basic_string@DV?$char_traits@D@_STL@@V?$allocator@D@2@@_STL@@U?$_Nonconst_traits@V?$basic_string@DV?$char_traits@D@_STL@@V?$allocator@D@2@@_STL@@@2@@2@XZ
_TEXT	SEGMENT PARA USE32 PUBLIC 'CODE'
_TEXT	ENDS
;	COMDAT ?begin@?$list@V?$basic_string@DV?$char_traits@D@_STL@@V?$allocator@D@2@@_STL@@V?$allocator@V?$basic_string@DV?$char_traits@D@_STL@@V?$allocator@D@2@@_STL@@@2@@_STL@@QBE?AU?$_List_iterator@V?$basic_string@DV?$char_traits@D@_STL@@V?$allocator@D@2@@_STL@@U?$_Const_traits@V?$basic_string@DV?$char_traits@D@_STL@@V?$allocator@D@2@@_STL@@@2@@2@XZ
_TEXT	SEGMENT PARA USE32 PUBLIC 'CODE'
_TEXT	ENDS
;	COMDAT ??0?$_List_iterator@V?$basic_string@DV?$char_traits@D@_STL@@V?$allocator@D@2@@_STL@@U?$_Const_traits@V?$basic_string@DV?$char_traits@D@_STL@@V?$allocator@D@2@@_STL@@@2@@_STL@@QAE@PAU?$_List_node@V?$basic_string@DV?$char_traits@D@_STL@@V?$allocator@D@2@@_STL@@@1@@Z
_TEXT	SEGMENT PARA USE32 PUBLIC 'CODE'
_TEXT	ENDS
;	COMDAT ?end@?$list@V?$basic_string@DV?$char_traits@D@_STL@@V?$allocator@D@2@@_STL@@V?$allocator@V?$basic_string@DV?$char_traits@D@_STL@@V?$allocator@D@2@@_STL@@@2@@_STL@@QBE?AU?$_List_iterator@V?$basic_string@DV?$char_traits@D@_STL@@V?$allocator@D@2@@_STL@@U?$_Const_traits@V?$basic_string@DV?$char_traits@D@_STL@@V?$allocator@D@2@@_STL@@@2@@2@XZ
_TEXT	SEGMENT PARA USE32 PUBLIC 'CODE'
_TEXT	ENDS
;	COMDAT ??1?$_List_base@V?$basic_string@DV?$char_traits@D@_STL@@V?$allocator@D@2@@_STL@@V?$allocator@V?$basic_string@DV?$char_traits@D@_STL@@V?$allocator@D@2@@_STL@@@2@@_STL@@QAE@XZ
_TEXT	SEGMENT PARA USE32 PUBLIC 'CODE'
_TEXT	ENDS
;	COMDAT ??1?$_STLP_alloc_proxy@PAU?$_List_node@V?$basic_string@DV?$char_traits@D@_STL@@V?$allocator@D@2@@_STL@@@_STL@@U12@V?$allocator@U?$_List_node@V?$basic_string@DV?$char_traits@D@_STL@@V?$allocator@D@2@@_STL@@@_STL@@@2@@_STL@@QAE@XZ
_TEXT	SEGMENT PARA USE32 PUBLIC 'CODE'
_TEXT	ENDS
;	COMDAT ??1?$allocator@U?$_List_node@V?$basic_string@DV?$char_traits@D@_STL@@V?$allocator@D@2@@_STL@@@_STL@@@_STL@@QAE@XZ
_TEXT	SEGMENT PARA USE32 PUBLIC 'CODE'
_TEXT	ENDS
;	COMDAT ?clear@?$_List_base@V?$basic_string@DV?$char_traits@D@_STL@@V?$allocator@D@2@@_STL@@V?$allocator@V?$basic_string@DV?$char_traits@D@_STL@@V?$allocator@D@2@@_STL@@@2@@_STL@@QAEXXZ
_TEXT	SEGMENT PARA USE32 PUBLIC 'CODE'
_TEXT	ENDS
;	COMDAT ??1?$allocator@V?$basic_string@DV?$char_traits@D@_STL@@V?$allocator@D@2@@_STL@@@_STL@@QAE@XZ
_TEXT	SEGMENT PARA USE32 PUBLIC 'CODE'
_TEXT	ENDS
;	COMDAT ??0?$_List_base@V?$basic_string@DV?$char_traits@D@_STL@@V?$allocator@D@2@@_STL@@V?$allocator@V?$basic_string@DV?$char_traits@D@_STL@@V?$allocator@D@2@@_STL@@@2@@_STL@@QAE@ABV?$allocator@V?$basic_string@DV?$char_traits@D@_STL@@V?$allocator@D@2@@_STL@@@1@@Z
_TEXT	SEGMENT PARA USE32 PUBLIC 'CODE'
_TEXT	ENDS
;	COMDAT ??0?$_STLP_alloc_proxy@PAU?$_List_node@V?$basic_string@DV?$char_traits@D@_STL@@V?$allocator@D@2@@_STL@@@_STL@@U12@V?$allocator@U?$_List_node@V?$basic_string@DV?$char_traits@D@_STL@@V?$allocator@D@2@@_STL@@@_STL@@@2@@_STL@@QAE@ABV?$allocator@U?$_List_node@V?$basic_string@DV?$char_traits@D@_STL@@V?$allocator@D@2@@_STL@@@_STL@@@1@PAU?$_List_node@V?$basic_string@DV?$char_traits@D@_STL@@V?$allocator@D@2@@_STL@@@1@@Z
_TEXT	SEGMENT PARA USE32 PUBLIC 'CODE'
_TEXT	ENDS
;	COMDAT ??0?$allocator@U?$_List_node@V?$basic_string@DV?$char_traits@D@_STL@@V?$allocator@D@2@@_STL@@@_STL@@@_STL@@QAE@ABV01@@Z
_TEXT	SEGMENT PARA USE32 PUBLIC 'CODE'
_TEXT	ENDS
;	COMDAT ??$?0V?$basic_string@DV?$char_traits@D@_STL@@V?$allocator@D@2@@_STL@@@?$allocator@U?$_List_node@V?$basic_string@DV?$char_traits@D@_STL@@V?$allocator@D@2@@_STL@@@_STL@@@_STL@@QAE@ABV?$allocator@V?$basic_string@DV?$char_traits@D@_STL@@V?$allocator@D@2@@_STL@@@1@@Z
_TEXT	SEGMENT PARA USE32 PUBLIC 'CODE'
_TEXT	ENDS
;	COMDAT ?setp@?$basic_streambuf@DV?$char_traits@D@_STL@@@_STL@@IAEXPAD0@Z
_TEXT	SEGMENT PARA USE32 PUBLIC 'CODE'
_TEXT	ENDS
;	COMDAT ?_FILE_O_set@_STL@@YAXPAU_iobuf@@PAD11@Z
_TEXT	SEGMENT PARA USE32 PUBLIC 'CODE'
_TEXT	ENDS
;	COMDAT ?_FILE_I_set@_STL@@YAXPAU_iobuf@@PAD11@Z
_TEXT	SEGMENT PARA USE32 PUBLIC 'CODE'
_TEXT	ENDS
;	COMDAT ?setg@?$basic_streambuf@DV?$char_traits@D@_STL@@@_STL@@IAEXPAD00@Z
_TEXT	SEGMENT PARA USE32 PUBLIC 'CODE'
_TEXT	ENDS
;	COMDAT ?__is_open@_Filebuf_base@_STL@@QBE_NXZ
_TEXT	SEGMENT PARA USE32 PUBLIC 'CODE'
_TEXT	ENDS
;	COMDAT ?allocate@?$__node_alloc@$00$0A@@_STL@@SAPAXI@Z
_TEXT	SEGMENT PARA USE32 PUBLIC 'CODE'
_TEXT	ENDS
;	COMDAT ?__stl_new@_STL@@YAPAXI@Z
_TEXT	SEGMENT PARA USE32 PUBLIC 'CODE'
_TEXT	ENDS
;	COMDAT ??1?$_STLP_alloc_proxy@PADDV?$allocator@D@_STL@@@_STL@@QAE@XZ
_TEXT	SEGMENT PARA USE32 PUBLIC 'CODE'
_TEXT	ENDS
;	COMDAT ?eof@?$__char_traits_base@DH@_STL@@SAHXZ
_TEXT	SEGMENT PARA USE32 PUBLIC 'CODE'
_TEXT	ENDS
;	COMDAT ??9_List_iterator_base@_STL@@QBE_NABU01@@Z
_TEXT	SEGMENT PARA USE32 PUBLIC 'CODE'
_TEXT	ENDS
;	COMDAT ??_7ModifyInfo@@6B@
CONST	SEGMENT DWORD USE32 PUBLIC 'CONST'
CONST	ENDS
;	COMDAT ??1?$allocator@D@_STL@@QAE@XZ
_TEXT	SEGMENT PARA USE32 PUBLIC 'CODE'
_TEXT	ENDS
;	COMDAT ??0?$allocator@D@_STL@@QAE@XZ
_TEXT	SEGMENT PARA USE32 PUBLIC 'CODE'
_TEXT	ENDS
;	COMDAT ??0?$basic_string@DV?$char_traits@D@_STL@@V?$allocator@D@2@@_STL@@QAE@PBDABV?$allocator@D@1@@Z
_TEXT	SEGMENT PARA USE32 PUBLIC 'CODE'
_TEXT	ENDS
;	COMDAT ??1?$_String_base@DV?$allocator@D@_STL@@@_STL@@QAE@XZ
_TEXT	SEGMENT PARA USE32 PUBLIC 'CODE'
_TEXT	ENDS
;	COMDAT ?length@?$char_traits@D@_STL@@SAIPBD@Z
_TEXT	SEGMENT PARA USE32 PUBLIC 'CODE'
_TEXT	ENDS
;	COMDAT ??1?$list@V?$basic_string@DV?$char_traits@D@_STL@@V?$allocator@D@2@@_STL@@V?$allocator@V?$basic_string@DV?$char_traits@D@_STL@@V?$allocator@D@2@@_STL@@@2@@_STL@@QAE@XZ
_TEXT	SEGMENT PARA USE32 PUBLIC 'CODE'
_TEXT	ENDS
;	COMDAT ??_7Throwable@@6B@
CONST	SEGMENT DWORD USE32 PUBLIC 'CONST'
CONST	ENDS
;	COMDAT ??_R4Throwable@@6B@
rdata$r	SEGMENT DWORD USE32 PUBLIC 'CONST'
rdata$r	ENDS
;	COMDAT ??_R3Throwable@@8
rdata$r	SEGMENT DWORD USE32 PUBLIC 'CONST'
rdata$r	ENDS
;	COMDAT ??_R2Throwable@@8
rdata$r	SEGMENT DWORD USE32 PUBLIC 'CONST'
rdata$r	ENDS
;	COMDAT ??_R1A@?0A@A@Throwable@@8
rdata$r	SEGMENT DWORD USE32 PUBLIC 'CONST'
rdata$r	ENDS
;	COMDAT ??_GThrowable@@UAEPAXI@Z
_TEXT	SEGMENT PARA USE32 PUBLIC 'CODE'
_TEXT	ENDS
;	COMDAT ?getName@Throwable@@UBE?AV?$basic_string@DV?$char_traits@D@_STL@@V?$allocator@D@2@@_STL@@XZ
_TEXT	SEGMENT PARA USE32 PUBLIC 'CODE'
_TEXT	ENDS
;	COMDAT ??_C@_09KCKHMJEM@Throwable?$AA@
CONST	SEGMENT DWORD USE32 PUBLIC 'CONST'
CONST	ENDS
;	COMDAT ?toString@Throwable@@UBE?AV?$basic_string@DV?$char_traits@D@_STL@@V?$allocator@D@2@@_STL@@XZ
_TEXT	SEGMENT PARA USE32 PUBLIC 'CODE'
_TEXT	ENDS
;	COMDAT ??_C@_03MCPBMLDJ@?5?3?5?$AA@
CONST	SEGMENT DWORD USE32 PUBLIC 'CONST'
CONST	ENDS
;	COMDAT ?getStackTrace@Throwable@@QBE?AV?$basic_string@DV?$char_traits@D@_STL@@V?$allocator@D@2@@_STL@@XZ
_TEXT	SEGMENT PARA USE32 PUBLIC 'CODE'
_TEXT	ENDS
;	COMDAT ??E?$_List_iterator@V?$basic_string@DV?$char_traits@D@_STL@@V?$allocator@D@2@@_STL@@U?$_Const_traits@V?$basic_string@DV?$char_traits@D@_STL@@V?$allocator@D@2@@_STL@@@2@@_STL@@QAE?AU01@H@Z
_TEXT	SEGMENT PARA USE32 PUBLIC 'CODE'
_TEXT	ENDS
;	COMDAT ??_C@_01CLKCMJKC@?5?$AA@
CONST	SEGMENT DWORD USE32 PUBLIC 'CONST'
CONST	ENDS
;	COMDAT ??_7Error@@6B@
CONST	SEGMENT DWORD USE32 PUBLIC 'CONST'
CONST	ENDS
;	COMDAT ??_R4Error@@6B@
rdata$r	SEGMENT DWORD USE32 PUBLIC 'CONST'
rdata$r	ENDS
;	COMDAT ??_R3Error@@8
rdata$r	SEGMENT DWORD USE32 PUBLIC 'CONST'
rdata$r	ENDS
;	COMDAT ??_R2Error@@8
rdata$r	SEGMENT DWORD USE32 PUBLIC 'CONST'
rdata$r	ENDS
;	COMDAT ??_R1A@?0A@A@Error@@8
rdata$r	SEGMENT DWORD USE32 PUBLIC 'CONST'
rdata$r	ENDS
;	COMDAT ??_GError@@UAEPAXI@Z
_TEXT	SEGMENT PARA USE32 PUBLIC 'CODE'
_TEXT	ENDS
;	COMDAT ?getName@Error@@UBE?AV?$basic_string@DV?$char_traits@D@_STL@@V?$allocator@D@2@@_STL@@XZ
_TEXT	SEGMENT PARA USE32 PUBLIC 'CODE'
_TEXT	ENDS
;	COMDAT ??_C@_05NAOIJFC@Error?$AA@
CONST	SEGMENT DWORD USE32 PUBLIC 'CONST'
CONST	ENDS
;	COMDAT ??1Throwable@@UAE@XZ
_TEXT	SEGMENT PARA USE32 PUBLIC 'CODE'
_TEXT	ENDS
;	COMDAT ??_7UnsupportedError@@6B@
CONST	SEGMENT DWORD USE32 PUBLIC 'CONST'
CONST	ENDS
;	COMDAT ??_R4UnsupportedError@@6B@
rdata$r	SEGMENT DWORD USE32 PUBLIC 'CONST'
rdata$r	ENDS
;	COMDAT ??_R3UnsupportedError@@8
rdata$r	SEGMENT DWORD USE32 PUBLIC 'CONST'
rdata$r	ENDS
;	COMDAT ??_R2UnsupportedError@@8
rdata$r	SEGMENT DWORD USE32 PUBLIC 'CONST'
rdata$r	ENDS
;	COMDAT ??_R1A@?0A@A@UnsupportedError@@8
rdata$r	SEGMENT DWORD USE32 PUBLIC 'CONST'
rdata$r	ENDS
;	COMDAT ??_GUnsupportedError@@UAEPAXI@Z
_TEXT	SEGMENT PARA USE32 PUBLIC 'CODE'
_TEXT	ENDS
;	COMDAT ?getName@UnsupportedError@@UBE?AV?$basic_string@DV?$char_traits@D@_STL@@V?$allocator@D@2@@_STL@@XZ
_TEXT	SEGMENT PARA USE32 PUBLIC 'CODE'
_TEXT	ENDS
;	COMDAT ??_C@_0BB@EOCHEBED@UnsupportedError?$AA@
CONST	SEGMENT DWORD USE32 PUBLIC 'CONST'
CONST	ENDS
;	COMDAT ??1Error@@UAE@XZ
_TEXT	SEGMENT PARA USE32 PUBLIC 'CODE'
_TEXT	ENDS
;	COMDAT __CTA3?AVUnsupportedError@@
xdata$x	SEGMENT DWORD USE32 PUBLIC 'CONST'
xdata$x	ENDS
;	COMDAT ??1UnsupportedError@@UAE@XZ
_TEXT	SEGMENT PARA USE32 PUBLIC 'CODE'
_TEXT	ENDS
;	COMDAT __CT??_R0?AVThrowable@@@8??0Throwable@@QAE@ABV0@@Z20
xdata$x	SEGMENT DWORD USE32 PUBLIC 'CONST'
xdata$x	ENDS
;	COMDAT __CT??_R0?AVError@@@8??0Error@@QAE@ABV0@@Z20
xdata$x	SEGMENT DWORD USE32 PUBLIC 'CONST'
xdata$x	ENDS
;	COMDAT __CT??_R0?AVUnsupportedError@@@8??0UnsupportedError@@QAE@ABV0@@Z20
xdata$x	SEGMENT DWORD USE32 PUBLIC 'CONST'
xdata$x	ENDS
;	COMDAT ??_R0?AVThrowable@@@8
_DATA	SEGMENT DWORD USE32 PUBLIC 'DATA'
_DATA	ENDS
;	COMDAT ??_R0?AVError@@@8
_DATA	SEGMENT DWORD USE32 PUBLIC 'DATA'
_DATA	ENDS
;	COMDAT ??_R0?AVUnsupportedError@@@8
_DATA	SEGMENT DWORD USE32 PUBLIC 'DATA'
_DATA	ENDS
;	COMDAT __TI3?AVUnsupportedError@@
xdata$x	SEGMENT DWORD USE32 PUBLIC 'CONST'
xdata$x	ENDS
;	COMDAT ??0UnsupportedError@@QAE@XZ
_TEXT	SEGMENT PARA USE32 PUBLIC 'CODE'
_TEXT	ENDS
;	COMDAT ??0Error@@QAE@XZ
_TEXT	SEGMENT PARA USE32 PUBLIC 'CODE'
_TEXT	ENDS
;	COMDAT ??0Throwable@@QAE@XZ
_TEXT	SEGMENT PARA USE32 PUBLIC 'CODE'
_TEXT	ENDS
;	COMDAT ??0?$basic_string@DV?$char_traits@D@_STL@@V?$allocator@D@2@@_STL@@QAE@XZ
_TEXT	SEGMENT PARA USE32 PUBLIC 'CODE'
_TEXT	ENDS
;	COMDAT ??0?$list@V?$basic_string@DV?$char_traits@D@_STL@@V?$allocator@D@2@@_STL@@V?$allocator@V?$basic_string@DV?$char_traits@D@_STL@@V?$allocator@D@2@@_STL@@@2@@_STL@@QAE@ABV?$allocator@V?$basic_string@DV?$char_traits@D@_STL@@V?$allocator@D@2@@_STL@@@1@@Z
_TEXT	SEGMENT PARA USE32 PUBLIC 'CODE'
_TEXT	ENDS
;	COMDAT ??0?$allocator@V?$basic_string@DV?$char_traits@D@_STL@@V?$allocator@D@2@@_STL@@@_STL@@QAE@XZ
_TEXT	SEGMENT PARA USE32 PUBLIC 'CODE'
_TEXT	ENDS
;	COMDAT ??_7Packet@@6B@
CONST	SEGMENT DWORD USE32 PUBLIC 'CONST'
CONST	ENDS
;	COMDAT ??1?$basic_string@DV?$char_traits@D@_STL@@V?$allocator@D@2@@_STL@@QAE@XZ
_TEXT	SEGMENT PARA USE32 PUBLIC 'CODE'
_TEXT	ENDS
;	COMDAT ??0?$basic_string@DV?$char_traits@D@_STL@@V?$allocator@D@2@@_STL@@QAE@ABV01@@Z
_TEXT	SEGMENT PARA USE32 PUBLIC 'CODE'
_TEXT	ENDS
sxdata	SEGMENT DWORD USE32 'SXDATA'
sxdata	ENDS
FLAT	GROUP _DATA, CONST, _BSS
	ASSUME	CS: FLAT, DS: FLAT, SS: FLAT
endif

INCLUDELIB LIBCMT
INCLUDELIB OLDNAMES

PUBLIC	??2@YAPAXIPAX@Z					; operator new
; Function compile flags: /Ogsy
; File c:\program files\microsoft visual studio .net 2003\vc7\include\new
;	COMDAT ??2@YAPAXIPAX@Z
_TEXT	SEGMENT
___formal$ = 8						; size = 4
__Where$ = 12						; size = 4
??2@YAPAXIPAX@Z PROC NEAR				; operator new, COMDAT

; 64   : 	return (_Where);

  00000	8b 44 24 08	 mov	 eax, DWORD PTR __Where$[esp-4]

; 65   : 	}

  00004	c3		 ret	 0
??2@YAPAXIPAX@Z ENDP					; operator new
_TEXT	ENDS
PUBLIC	?__stl_new@_STL@@YAPAXI@Z			; _STL::__stl_new
EXTRN	??2@YAPAXI@Z:NEAR				; operator new
; Function compile flags: /Ogsy
; File c:\stlport-4.6.1\stlport\stl\_new.h
;	COMDAT ?__stl_new@_STL@@YAPAXI@Z
_TEXT	SEGMENT
___n$ = 8						; size = 4
?__stl_new@_STL@@YAPAXI@Z PROC NEAR			; _STL::__stl_new, COMDAT

; 86   : inline void*  _STLP_CALL __stl_new(size_t __n)   { _STLP_CHECK_NULL_ALLOC(::operator _STLP_NEW(__n)); }

  00000	e9 00 00 00 00	 jmp	 ??2@YAPAXI@Z		; operator new
?__stl_new@_STL@@YAPAXI@Z ENDP				; _STL::__stl_new
_TEXT	ENDS
PUBLIC	?__stl_delete@_STL@@YAXPAX@Z			; _STL::__stl_delete
EXTRN	??3@YAXPAX@Z:NEAR				; operator delete
; Function compile flags: /Ogsy
;	COMDAT ?__stl_delete@_STL@@YAXPAX@Z
_TEXT	SEGMENT
___p$ = 8						; size = 4
?__stl_delete@_STL@@YAXPAX@Z PROC NEAR			; _STL::__stl_delete, COMDAT

; 87   : inline void   _STLP_CALL __stl_delete(void* __p) { ::operator delete(__p); }

  00000	e9 00 00 00 00	 jmp	 ??3@YAXPAX@Z		; operator delete
?__stl_delete@_STL@@YAXPAX@Z ENDP			; _STL::__stl_delete
_TEXT	ENDS
PUBLIC	?read@SocketInputStream@@QAEIAAE@Z		; SocketInputStream::read
EXTRN	?read@SocketInputStream@@QAEIPADI@Z:NEAR	; SocketInputStream::read
; Function compile flags: /Ogsy
; File c:\darkeden\designed_common\project\client\packet\socketinputstream.h
;	COMDAT ?read@SocketInputStream@@QAEIAAE@Z
_TEXT	SEGMENT
_buf$ = 8						; size = 4
?read@SocketInputStream@@QAEIAAE@Z PROC NEAR		; SocketInputStream::read, COMDAT
; _this$ = ecx

; 69   : 	uint read ( uchar  & buf ) throw ( ProtocolException , Error ) { return read( (char*)&buf, szuchar  ); }

  00000	6a 01		 push	 1
  00002	ff 74 24 08	 push	 DWORD PTR _buf$[esp]
  00006	e8 00 00 00 00	 call	 ?read@SocketInputStream@@QAEIPADI@Z ; SocketInputStream::read
  0000b	c2 04 00	 ret	 4
?read@SocketInputStream@@QAEIAAE@Z ENDP			; SocketInputStream::read
_TEXT	ENDS
PUBLIC	?read@SocketInputStream@@QAEIAAG@Z		; SocketInputStream::read
; Function compile flags: /Ogsy
;	COMDAT ?read@SocketInputStream@@QAEIAAG@Z
_TEXT	SEGMENT
_buf$ = 8						; size = 4
?read@SocketInputStream@@QAEIAAG@Z PROC NEAR		; SocketInputStream::read, COMDAT
; _this$ = ecx

; 71   : 	uint read ( ushort & buf ) throw ( ProtocolException , Error ) { return read( (char*)&buf, szushort ); }

  00000	6a 02		 push	 2
  00002	ff 74 24 08	 push	 DWORD PTR _buf$[esp]
  00006	e8 00 00 00 00	 call	 ?read@SocketInputStream@@QAEIPADI@Z ; SocketInputStream::read
  0000b	c2 04 00	 ret	 4
?read@SocketInputStream@@QAEIAAG@Z ENDP			; SocketInputStream::read
_TEXT	ENDS
PUBLIC	?read@SocketInputStream@@QAEIAAK@Z		; SocketInputStream::read
; Function compile flags: /Ogsy
;	COMDAT ?read@SocketInputStream@@QAEIAAK@Z
_TEXT	SEGMENT
_buf$ = 8						; size = 4
?read@SocketInputStream@@QAEIAAK@Z PROC NEAR		; SocketInputStream::read, COMDAT
; _this$ = ecx

; 75   : 	uint read ( ulong  & buf ) throw ( ProtocolException , Error ) { return read( (char*)&buf, szulong  ); }

  00000	6a 04		 push	 4
  00002	ff 74 24 08	 push	 DWORD PTR _buf$[esp]
  00006	e8 00 00 00 00	 call	 ?read@SocketInputStream@@QAEIPADI@Z ; SocketInputStream::read
  0000b	c2 04 00	 ret	 4
?read@SocketInputStream@@QAEIAAK@Z ENDP			; SocketInputStream::read
_TEXT	ENDS
PUBLIC	?_Destroy@_STL@@YAXPAD0@Z			; _STL::_Destroy
; Function compile flags: /Ogsy
; File c:\stlport-4.6.1\stlport\stl\_construct.h
;	COMDAT ?_Destroy@_STL@@YAXPAD0@Z
_TEXT	SEGMENT
___formal$ = 8						; size = 4
___formal$ = 12						; size = 4
?_Destroy@_STL@@YAXPAD0@Z PROC NEAR			; _STL::_Destroy, COMDAT

; 142  : inline void _Destroy(char*, char*) {}

  00000	c3		 ret	 0
?_Destroy@_STL@@YAXPAD0@Z ENDP				; _STL::_Destroy
_TEXT	ENDS
PUBLIC	?__copy_trivial@_STL@@YAPAXPBX0PAX@Z		; _STL::__copy_trivial
EXTRN	_memmove:NEAR
; Function compile flags: /Ogsy
; File c:\stlport-4.6.1\stlport\stl\_algobase.h
;	COMDAT ?__copy_trivial@_STL@@YAPAXPBX0PAX@Z
_TEXT	SEGMENT
___first$ = 8						; size = 4
___last$ = 12						; size = 4
___result$ = 16						; size = 4
?__copy_trivial@_STL@@YAPAXPBX0PAX@Z PROC NEAR		; _STL::__copy_trivial, COMDAT

; 147  : __copy_trivial(const void* __first, const void* __last, void* __result) {

  00000	55		 push	 ebp
  00001	8b ec		 mov	 ebp, esp
  00003	56		 push	 esi

; 148  :   return (__last == __first) ? __result : 
; 149  :     ((char*)memmove(__result, __first, ((const char*)__last - (const char*)__first))) + 
; 150  :     ((const char*)__last - (const char*)__first);

  00004	8b 75 0c	 mov	 esi, DWORD PTR ___last$[ebp]
  00007	3b 75 08	 cmp	 esi, DWORD PTR ___first$[ebp]
  0000a	75 05		 jne	 SHORT $L102860
  0000c	8b 45 10	 mov	 eax, DWORD PTR ___result$[ebp]
  0000f	eb 14		 jmp	 SHORT $L102861
$L102860:
  00011	2b 75 08	 sub	 esi, DWORD PTR ___first$[ebp]
  00014	56		 push	 esi
  00015	ff 75 08	 push	 DWORD PTR ___first$[ebp]
  00018	ff 75 10	 push	 DWORD PTR ___result$[ebp]
  0001b	e8 00 00 00 00	 call	 _memmove
  00020	83 c4 0c	 add	 esp, 12			; 0000000cH
  00023	03 c6		 add	 eax, esi
$L102861:
  00025	5e		 pop	 esi

; 151  : }

  00026	5d		 pop	 ebp
  00027	c3		 ret	 0
?__copy_trivial@_STL@@YAPAXPBX0PAX@Z ENDP		; _STL::__copy_trivial
_TEXT	ENDS
PUBLIC	?write@SocketOutputStream@@QAEIE@Z		; SocketOutputStream::write
EXTRN	?write@SocketOutputStream@@QAEIPBDI@Z:NEAR	; SocketOutputStream::write
; Function compile flags: /Ogsy
; File c:\darkeden\designed_common\project\client\packet\socketoutputstream.h
;	COMDAT ?write@SocketOutputStream@@QAEIE@Z
_TEXT	SEGMENT
_buf$ = 8						; size = 1
?write@SocketOutputStream@@QAEIE@Z PROC NEAR		; SocketOutputStream::write, COMDAT
; _this$ = ecx

; 62   :     uint write ( uchar  buf ) throw ( ProtocolException , Error ) { return write( (const char*)&buf, szuchar  ); }

  00000	6a 01		 push	 1
  00002	8d 44 24 08	 lea	 eax, DWORD PTR _buf$[esp]
  00006	50		 push	 eax
  00007	e8 00 00 00 00	 call	 ?write@SocketOutputStream@@QAEIPBDI@Z ; SocketOutputStream::write
  0000c	c2 04 00	 ret	 4
?write@SocketOutputStream@@QAEIE@Z ENDP			; SocketOutputStream::write
_TEXT	ENDS
PUBLIC	?write@SocketOutputStream@@QAEIG@Z		; SocketOutputStream::write
; Function compile flags: /Ogsy
;	COMDAT ?write@SocketOutputStream@@QAEIG@Z
_TEXT	SEGMENT
_buf$ = 8						; size = 2
?write@SocketOutputStream@@QAEIG@Z PROC NEAR		; SocketOutputStream::write, COMDAT
; _this$ = ecx

; 64   :     uint write ( ushort buf ) throw ( ProtocolException , Error ) { return write( (const char*)&buf, szushort ); }

  00000	6a 02		 push	 2
  00002	8d 44 24 08	 lea	 eax, DWORD PTR _buf$[esp]
  00006	50		 push	 eax
  00007	e8 00 00 00 00	 call	 ?write@SocketOutputStream@@QAEIPBDI@Z ; SocketOutputStream::write
  0000c	c2 04 00	 ret	 4
?write@SocketOutputStream@@QAEIG@Z ENDP			; SocketOutputStream::write
_TEXT	ENDS
PUBLIC	?write@SocketOutputStream@@QAEIK@Z		; SocketOutputStream::write
; Function compile flags: /Ogsy
;	COMDAT ?write@SocketOutputStream@@QAEIK@Z
_TEXT	SEGMENT
_buf$ = 8						; size = 4
?write@SocketOutputStream@@QAEIK@Z PROC NEAR		; SocketOutputStream::write, COMDAT
; _this$ = ecx

; 68   :     uint write ( ulong  buf ) throw ( ProtocolException , Error ) { return write( (const char*)&buf, szulong  ); }

  00000	6a 04		 push	 4
  00002	8d 44 24 08	 lea	 eax, DWORD PTR _buf$[esp]
  00006	50		 push	 eax
  00007	e8 00 00 00 00	 call	 ?write@SocketOutputStream@@QAEIPBDI@Z ; SocketOutputStream::write
  0000c	c2 04 00	 ret	 4
?write@SocketOutputStream@@QAEIK@Z ENDP			; SocketOutputStream::write
_TEXT	ENDS
PUBLIC	?uninitialized_copy@_STL@@YAPADPBD0PAD@Z	; _STL::uninitialized_copy
; Function compile flags: /Ogsy
; File c:\stlport-4.6.1\stlport\stl\_uninitialized.h
;	COMDAT ?uninitialized_copy@_STL@@YAPADPBD0PAD@Z
_TEXT	SEGMENT
___first$ = 8						; size = 4
___last$ = 12						; size = 4
___result$ = 16						; size = 4
?uninitialized_copy@_STL@@YAPADPBD0PAD@Z PROC NEAR	; _STL::uninitialized_copy, COMDAT

; 84   :   return  (char*)__copy_trivial (__first, __last, __result);

  00000	e9 00 00 00 00	 jmp	 ?__copy_trivial@_STL@@YAPAXPBX0PAX@Z ; _STL::__copy_trivial
?uninitialized_copy@_STL@@YAPADPBD0PAD@Z ENDP		; _STL::uninitialized_copy
_TEXT	ENDS
PUBLIC	??1Packet@@UAE@XZ				; Packet::~Packet
PUBLIC	?read@Packet@@UAEXPAVSocket@@@Z			; Packet::read
PUBLIC	??_R1A@?0A@A@Packet@@8				; Packet::`RTTI Base Class Descriptor at (0,-1,0,0)'
PUBLIC	?write@Packet@@UBEXPAVSocket@@@Z		; Packet::write
PUBLIC	??_R0?AVPacket@@@8				; Packet `RTTI Type Descriptor'
PUBLIC	??_R4Packet@@6B@				; Packet::`RTTI Complete Object Locator'
PUBLIC	??_R3Packet@@8					; Packet::`RTTI Class Hierarchy Descriptor'
PUBLIC	??_R2Packet@@8					; Packet::`RTTI Base Class Array'
PUBLIC	??_7Packet@@6B@					; Packet::`vftable'
PUBLIC	??_GPacket@@UAEPAXI@Z				; Packet::`scalar deleting destructor'
EXTRN	??_7type_info@@6B@:QWORD			; type_info::`vftable'
EXTRN	??_EPacket@@UAEPAXI@Z:NEAR			; Packet::`vector deleting destructor'
EXTRN	__purecall:NEAR
;	COMDAT ??_7Packet@@6B@
; File c:\darkeden\designed_common\project\client\packet\packet.h
CONST	SEGMENT
??_7Packet@@6B@ DD FLAT:??_R4Packet@@6B@		; Packet::`vftable'
	DD	FLAT:??_EPacket@@UAEPAXI@Z
	DD	FLAT:?read@Packet@@UAEXPAVSocket@@@Z
	DD	FLAT:__purecall
	DD	FLAT:?write@Packet@@UBEXPAVSocket@@@Z
	DD	FLAT:__purecall
	DD	FLAT:__purecall
	DD	FLAT:__purecall
	DD	FLAT:__purecall
CONST	ENDS
;	COMDAT ??_R4Packet@@6B@
rdata$r	SEGMENT
??_R4Packet@@6B@ DD 00H					; Packet::`RTTI Complete Object Locator'
	DD	00H
	DD	00H
	DD	FLAT:??_R0?AVPacket@@@8
	DD	FLAT:??_R3Packet@@8
rdata$r	ENDS
;	COMDAT ??_R0?AVPacket@@@8
_DATA	SEGMENT
??_R0?AVPacket@@@8 DD FLAT:??_7type_info@@6B@		; Packet `RTTI Type Descriptor'
	DD	00H
	DB	'.?AVPacket@@', 00H
_DATA	ENDS
;	COMDAT ??_R3Packet@@8
rdata$r	SEGMENT
??_R3Packet@@8 DD 00H					; Packet::`RTTI Class Hierarchy Descriptor'
	DD	00H
	DD	01H
	DD	FLAT:??_R2Packet@@8
rdata$r	ENDS
;	COMDAT ??_R2Packet@@8
rdata$r	SEGMENT
??_R2Packet@@8 DD FLAT:??_R1A@?0A@A@Packet@@8		; Packet::`RTTI Base Class Array'
rdata$r	ENDS
;	COMDAT ??_R1A@?0A@A@Packet@@8
rdata$r	SEGMENT
??_R1A@?0A@A@Packet@@8 DD FLAT:??_R0?AVPacket@@@8	; Packet::`RTTI Base Class Descriptor at (0,-1,0,0)'
	DD	00H
	DD	00H
	DD	0ffffffffH
	DD	00H
	DD	00H
; Function compile flags: /Ogsy
rdata$r	ENDS
;	COMDAT ??1Packet@@UAE@XZ
_TEXT	SEGMENT
??1Packet@@UAE@XZ PROC NEAR				; Packet::~Packet, COMDAT
; _this$ = ecx

; 726  : 	virtual ~Packet () throw () {}

  00000	c7 01 00 00 00
	00		 mov	 DWORD PTR [ecx], OFFSET FLAT:??_7Packet@@6B@
  00006	c3		 ret	 0
??1Packet@@UAE@XZ ENDP					; Packet::~Packet
; Function compile flags: /Ogsy
_TEXT	ENDS
;	COMDAT ??_GPacket@@UAEPAXI@Z
_TEXT	SEGMENT
___flags$ = 8						; size = 4
??_GPacket@@UAEPAXI@Z PROC NEAR				; Packet::`scalar deleting destructor', COMDAT
; _this$ = ecx
  00000	f6 44 24 04 01	 test	 BYTE PTR ___flags$[esp-4], 1
  00005	56		 push	 esi
  00006	8b f1		 mov	 esi, ecx
  00008	c7 06 00 00 00
	00		 mov	 DWORD PTR [esi], OFFSET FLAT:??_7Packet@@6B@
  0000e	74 07		 je	 SHORT $L100453
  00010	56		 push	 esi
  00011	e8 00 00 00 00	 call	 ??3@YAXPAX@Z		; operator delete
  00016	59		 pop	 ecx
$L100453:
  00017	8b c6		 mov	 eax, esi
  00019	5e		 pop	 esi
  0001a	c2 04 00	 ret	 4
??_GPacket@@UAEPAXI@Z ENDP				; Packet::`scalar deleting destructor'
_TEXT	ENDS
PUBLIC	?length@?$char_traits@D@_STL@@SAIPBD@Z		; _STL::char_traits<char>::length
EXTRN	_strlen:NEAR
; Function compile flags: /Ogsy
; File c:\stlport-4.6.1\stlport\stl\char_traits.h
;	COMDAT ?length@?$char_traits@D@_STL@@SAIPBD@Z
_TEXT	SEGMENT
___s$ = 8						; size = 4
?length@?$char_traits@D@_STL@@SAIPBD@Z PROC NEAR	; _STL::char_traits<char>::length, COMDAT

; 238  :   static size_t _STLP_CALL length(const char* __s) { return strlen(__s); }

  00000	e9 00 00 00 00	 jmp	 _strlen
?length@?$char_traits@D@_STL@@SAIPBD@Z ENDP		; _STL::char_traits<char>::length
_TEXT	ENDS
PUBLIC	??0Packet@@QAE@XZ				; Packet::Packet
; Function compile flags: /Ogsy
;	COMDAT ??0Packet@@QAE@XZ
_TEXT	SEGMENT
??0Packet@@QAE@XZ PROC NEAR				; Packet::Packet, COMDAT
; _this$ = ecx
  00000	8b c1		 mov	 eax, ecx
  00002	c7 00 00 00 00
	00		 mov	 DWORD PTR [eax], OFFSET FLAT:??_7Packet@@6B@
  00008	c3		 ret	 0
??0Packet@@QAE@XZ ENDP					; Packet::Packet
_TEXT	ENDS
PUBLIC	??0?$allocator@U_SHORTDATA@@@_STL@@QAE@XZ	; _STL::allocator<_SHORTDATA>::allocator<_SHORTDATA>
; Function compile flags: /Ogsy
; File c:\stlport-4.6.1\stlport\stl\_alloc.h
;	COMDAT ??0?$allocator@U_SHORTDATA@@@_STL@@QAE@XZ
_TEXT	SEGMENT
??0?$allocator@U_SHORTDATA@@@_STL@@QAE@XZ PROC NEAR	; _STL::allocator<_SHORTDATA>::allocator<_SHORTDATA>, COMDAT
; _this$ = ecx

; 345  :   allocator() _STLP_NOTHROW {}

  00000	8b c1		 mov	 eax, ecx
  00002	c3		 ret	 0
??0?$allocator@U_SHORTDATA@@@_STL@@QAE@XZ ENDP		; _STL::allocator<_SHORTDATA>::allocator<_SHORTDATA>
_TEXT	ENDS
PUBLIC	??1?$allocator@U_SHORTDATA@@@_STL@@QAE@XZ	; _STL::allocator<_SHORTDATA>::~allocator<_SHORTDATA>
; Function compile flags: /Ogsy
;	COMDAT ??1?$allocator@U_SHORTDATA@@@_STL@@QAE@XZ
_TEXT	SEGMENT
??1?$allocator@U_SHORTDATA@@@_STL@@QAE@XZ PROC NEAR	; _STL::allocator<_SHORTDATA>::~allocator<_SHORTDATA>, COMDAT
; _this$ = ecx

; 350  :   ~allocator() _STLP_NOTHROW {}

  00000	c3		 ret	 0
??1?$allocator@U_SHORTDATA@@@_STL@@QAE@XZ ENDP		; _STL::allocator<_SHORTDATA>::~allocator<_SHORTDATA>
_TEXT	ENDS
PUBLIC	??0?$allocator@U_LONGDATA@@@_STL@@QAE@XZ	; _STL::allocator<_LONGDATA>::allocator<_LONGDATA>
; Function compile flags: /Ogsy
;	COMDAT ??0?$allocator@U_LONGDATA@@@_STL@@QAE@XZ
_TEXT	SEGMENT
??0?$allocator@U_LONGDATA@@@_STL@@QAE@XZ PROC NEAR	; _STL::allocator<_LONGDATA>::allocator<_LONGDATA>, COMDAT
; _this$ = ecx

; 345  :   allocator() _STLP_NOTHROW {}

  00000	8b c1		 mov	 eax, ecx
  00002	c3		 ret	 0
??0?$allocator@U_LONGDATA@@@_STL@@QAE@XZ ENDP		; _STL::allocator<_LONGDATA>::allocator<_LONGDATA>
_TEXT	ENDS
PUBLIC	??1?$allocator@U_LONGDATA@@@_STL@@QAE@XZ	; _STL::allocator<_LONGDATA>::~allocator<_LONGDATA>
; Function compile flags: /Ogsy
;	COMDAT ??1?$allocator@U_LONGDATA@@@_STL@@QAE@XZ
_TEXT	SEGMENT
??1?$allocator@U_LONGDATA@@@_STL@@QAE@XZ PROC NEAR	; _STL::allocator<_LONGDATA>::~allocator<_LONGDATA>, COMDAT
; _this$ = ecx

; 350  :   ~allocator() _STLP_NOTHROW {}

  00000	c3		 ret	 0
??1?$allocator@U_LONGDATA@@@_STL@@QAE@XZ ENDP		; _STL::allocator<_LONGDATA>::~allocator<_LONGDATA>
_TEXT	ENDS
PUBLIC	??D?$_List_iterator@U_SHORTDATA@@U?$_Const_traits@U_SHORTDATA@@@_STL@@@_STL@@QBEABU_SHORTDATA@@XZ ; _STL::_List_iterator<_SHORTDATA,_STL::_Const_traits<_SHORTDATA> >::operator*
; Function compile flags: /Ogsy
; File c:\stlport-4.6.1\stlport\stl\_list.h
;	COMDAT ??D?$_List_iterator@U_SHORTDATA@@U?$_Const_traits@U_SHORTDATA@@@_STL@@@_STL@@QBEABU_SHORTDATA@@XZ
_TEXT	SEGMENT
??D?$_List_iterator@U_SHORTDATA@@U?$_Const_traits@U_SHORTDATA@@@_STL@@@_STL@@QBEABU_SHORTDATA@@XZ PROC NEAR ; _STL::_List_iterator<_SHORTDATA,_STL::_Const_traits<_SHORTDATA> >::operator*, COMDAT
; _this$ = ecx

; 130  :   reference operator*() const { return ((_Node*)_M_node)->_M_data; }

  00000	8b 01		 mov	 eax, DWORD PTR [ecx]
  00002	83 c0 08	 add	 eax, 8
  00005	c3		 ret	 0
??D?$_List_iterator@U_SHORTDATA@@U?$_Const_traits@U_SHORTDATA@@@_STL@@@_STL@@QBEABU_SHORTDATA@@XZ ENDP ; _STL::_List_iterator<_SHORTDATA,_STL::_Const_traits<_SHORTDATA> >::operator*
_TEXT	ENDS
PUBLIC	??D?$_List_iterator@U_LONGDATA@@U?$_Const_traits@U_LONGDATA@@@_STL@@@_STL@@QBEABU_LONGDATA@@XZ ; _STL::_List_iterator<_LONGDATA,_STL::_Const_traits<_LONGDATA> >::operator*
; Function compile flags: /Ogsy
;	COMDAT ??D?$_List_iterator@U_LONGDATA@@U?$_Const_traits@U_LONGDATA@@@_STL@@@_STL@@QBEABU_LONGDATA@@XZ
_TEXT	SEGMENT
??D?$_List_iterator@U_LONGDATA@@U?$_Const_traits@U_LONGDATA@@@_STL@@@_STL@@QBEABU_LONGDATA@@XZ PROC NEAR ; _STL::_List_iterator<_LONGDATA,_STL::_Const_traits<_LONGDATA> >::operator*, COMDAT
; _this$ = ecx

; 130  :   reference operator*() const { return ((_Node*)_M_node)->_M_data; }

  00000	8b 01		 mov	 eax, DWORD PTR [ecx]
  00002	83 c0 08	 add	 eax, 8
  00005	c3		 ret	 0
??D?$_List_iterator@U_LONGDATA@@U?$_Const_traits@U_LONGDATA@@@_STL@@@_STL@@QBEABU_LONGDATA@@XZ ENDP ; _STL::_List_iterator<_LONGDATA,_STL::_Const_traits<_LONGDATA> >::operator*
_TEXT	ENDS
PUBLIC	?_M_terminate_string_aux@?$basic_string@DV?$char_traits@D@_STL@@V?$allocator@D@2@@_STL@@AAEXABU__true_type@2@@Z ; _STL::basic_string<char,_STL::char_traits<char>,_STL::allocator<char> >::_M_terminate_string_aux
; Function compile flags: /Ogsy
; File c:\stlport-4.6.1\stlport\stl\_string.h
;	COMDAT ?_M_terminate_string_aux@?$basic_string@DV?$char_traits@D@_STL@@V?$allocator@D@2@@_STL@@AAEXABU__true_type@2@@Z
_TEXT	SEGMENT
___formal$ = 8						; size = 4
?_M_terminate_string_aux@?$basic_string@DV?$char_traits@D@_STL@@V?$allocator@D@2@@_STL@@AAEXABU__true_type@2@@Z PROC NEAR ; _STL::basic_string<char,_STL::char_traits<char>,_STL::allocator<char> >::_M_terminate_string_aux, COMDAT
; _this$ = ecx

; 351  :     *(this->_M_finish)=0;

  00000	8b 41 04	 mov	 eax, DWORD PTR [ecx+4]
  00003	c6 00 00	 mov	 BYTE PTR [eax], 0

; 352  :   }

  00006	c2 04 00	 ret	 4
?_M_terminate_string_aux@?$basic_string@DV?$char_traits@D@_STL@@V?$allocator@D@2@@_STL@@AAEXABU__true_type@2@@Z ENDP ; _STL::basic_string<char,_STL::char_traits<char>,_STL::allocator<char> >::_M_terminate_string_aux
_TEXT	ENDS
PUBLIC	??0?$allocator@D@_STL@@QAE@ABV01@@Z		; _STL::allocator<char>::allocator<char>
; Function compile flags: /Ogsy
; File c:\stlport-4.6.1\stlport\stl\_alloc.h
;	COMDAT ??0?$allocator@D@_STL@@QAE@ABV01@@Z
_TEXT	SEGMENT
___formal$ = 8						; size = 4
??0?$allocator@D@_STL@@QAE@ABV01@@Z PROC NEAR		; _STL::allocator<char>::allocator<char>, COMDAT
; _this$ = ecx

; 349  :   allocator(const allocator<_Tp>&) _STLP_NOTHROW {}

  00000	8b c1		 mov	 eax, ecx
  00002	c2 04 00	 ret	 4
??0?$allocator@D@_STL@@QAE@ABV01@@Z ENDP		; _STL::allocator<char>::allocator<char>
_TEXT	ENDS
PUBLIC	??D?$_List_iterator@U_SHORTDATA@@U?$_Nonconst_traits@U_SHORTDATA@@@_STL@@@_STL@@QBEAAU_SHORTDATA@@XZ ; _STL::_List_iterator<_SHORTDATA,_STL::_Nonconst_traits<_SHORTDATA> >::operator*
; Function compile flags: /Ogsy
; File c:\stlport-4.6.1\stlport\stl\_list.h
;	COMDAT ??D?$_List_iterator@U_SHORTDATA@@U?$_Nonconst_traits@U_SHORTDATA@@@_STL@@@_STL@@QBEAAU_SHORTDATA@@XZ
_TEXT	SEGMENT
??D?$_List_iterator@U_SHORTDATA@@U?$_Nonconst_traits@U_SHORTDATA@@@_STL@@@_STL@@QBEAAU_SHORTDATA@@XZ PROC NEAR ; _STL::_List_iterator<_SHORTDATA,_STL::_Nonconst_traits<_SHORTDATA> >::operator*, COMDAT
; _this$ = ecx

; 130  :   reference operator*() const { return ((_Node*)_M_node)->_M_data; }

  00000	8b 01		 mov	 eax, DWORD PTR [ecx]
  00002	83 c0 08	 add	 eax, 8
  00005	c3		 ret	 0
??D?$_List_iterator@U_SHORTDATA@@U?$_Nonconst_traits@U_SHORTDATA@@@_STL@@@_STL@@QBEAAU_SHORTDATA@@XZ ENDP ; _STL::_List_iterator<_SHORTDATA,_STL::_Nonconst_traits<_SHORTDATA> >::operator*
_TEXT	ENDS
PUBLIC	??D?$_List_iterator@U_LONGDATA@@U?$_Nonconst_traits@U_LONGDATA@@@_STL@@@_STL@@QBEAAU_LONGDATA@@XZ ; _STL::_List_iterator<_LONGDATA,_STL::_Nonconst_traits<_LONGDATA> >::operator*
; Function compile flags: /Ogsy
;	COMDAT ??D?$_List_iterator@U_LONGDATA@@U?$_Nonconst_traits@U_LONGDATA@@@_STL@@@_STL@@QBEAAU_LONGDATA@@XZ
_TEXT	SEGMENT
??D?$_List_iterator@U_LONGDATA@@U?$_Nonconst_traits@U_LONGDATA@@@_STL@@@_STL@@QBEAAU_LONGDATA@@XZ PROC NEAR ; _STL::_List_iterator<_LONGDATA,_STL::_Nonconst_traits<_LONGDATA> >::operator*, COMDAT
; _this$ = ecx

; 130  :   reference operator*() const { return ((_Node*)_M_node)->_M_data; }

  00000	8b 01		 mov	 eax, DWORD PTR [ecx]
  00002	83 c0 08	 add	 eax, 8
  00005	c3		 ret	 0
??D?$_List_iterator@U_LONGDATA@@U?$_Nonconst_traits@U_LONGDATA@@@_STL@@@_STL@@QBEAAU_LONGDATA@@XZ ENDP ; _STL::_List_iterator<_LONGDATA,_STL::_Nonconst_traits<_LONGDATA> >::operator*
_TEXT	ENDS
PUBLIC	??1?$allocator@U?$_List_node@U_SHORTDATA@@@_STL@@@_STL@@QAE@XZ ; _STL::allocator<_STL::_List_node<_SHORTDATA> >::~allocator<_STL::_List_node<_SHORTDATA> >
; Function compile flags: /Ogsy
; File c:\stlport-4.6.1\stlport\stl\_alloc.h
;	COMDAT ??1?$allocator@U?$_List_node@U_SHORTDATA@@@_STL@@@_STL@@QAE@XZ
_TEXT	SEGMENT
??1?$allocator@U?$_List_node@U_SHORTDATA@@@_STL@@@_STL@@QAE@XZ PROC NEAR ; _STL::allocator<_STL::_List_node<_SHORTDATA> >::~allocator<_STL::_List_node<_SHORTDATA> >, COMDAT
; _this$ = ecx

; 350  :   ~allocator() _STLP_NOTHROW {}

  00000	c3		 ret	 0
??1?$allocator@U?$_List_node@U_SHORTDATA@@@_STL@@@_STL@@QAE@XZ ENDP ; _STL::allocator<_STL::_List_node<_SHORTDATA> >::~allocator<_STL::_List_node<_SHORTDATA> >
_TEXT	ENDS
PUBLIC	??1?$allocator@U?$_List_node@U_LONGDATA@@@_STL@@@_STL@@QAE@XZ ; _STL::allocator<_STL::_List_node<_LONGDATA> >::~allocator<_STL::_List_node<_LONGDATA> >
; Function compile flags: /Ogsy
;	COMDAT ??1?$allocator@U?$_List_node@U_LONGDATA@@@_STL@@@_STL@@QAE@XZ
_TEXT	SEGMENT
??1?$allocator@U?$_List_node@U_LONGDATA@@@_STL@@@_STL@@QAE@XZ PROC NEAR ; _STL::allocator<_STL::_List_node<_LONGDATA> >::~allocator<_STL::_List_node<_LONGDATA> >, COMDAT
; _this$ = ecx

; 350  :   ~allocator() _STLP_NOTHROW {}

  00000	c3		 ret	 0
??1?$allocator@U?$_List_node@U_LONGDATA@@@_STL@@@_STL@@QAE@XZ ENDP ; _STL::allocator<_STL::_List_node<_LONGDATA> >::~allocator<_STL::_List_node<_LONGDATA> >
_TEXT	ENDS
PUBLIC	??0?$allocator@U?$_List_node@U_SHORTDATA@@@_STL@@@_STL@@QAE@ABV01@@Z ; _STL::allocator<_STL::_List_node<_SHORTDATA> >::allocator<_STL::_List_node<_SHORTDATA> >
; Function compile flags: /Ogsy
;	COMDAT ??0?$allocator@U?$_List_node@U_SHORTDATA@@@_STL@@@_STL@@QAE@ABV01@@Z
_TEXT	SEGMENT
___formal$ = 8						; size = 4
??0?$allocator@U?$_List_node@U_SHORTDATA@@@_STL@@@_STL@@QAE@ABV01@@Z PROC NEAR ; _STL::allocator<_STL::_List_node<_SHORTDATA> >::allocator<_STL::_List_node<_SHORTDATA> >, COMDAT
; _this$ = ecx

; 349  :   allocator(const allocator<_Tp>&) _STLP_NOTHROW {}

  00000	8b c1		 mov	 eax, ecx
  00002	c2 04 00	 ret	 4
??0?$allocator@U?$_List_node@U_SHORTDATA@@@_STL@@@_STL@@QAE@ABV01@@Z ENDP ; _STL::allocator<_STL::_List_node<_SHORTDATA> >::allocator<_STL::_List_node<_SHORTDATA> >
_TEXT	ENDS
PUBLIC	??0?$allocator@U?$_List_node@U_LONGDATA@@@_STL@@@_STL@@QAE@ABV01@@Z ; _STL::allocator<_STL::_List_node<_LONGDATA> >::allocator<_STL::_List_node<_LONGDATA> >
; Function compile flags: /Ogsy
;	COMDAT ??0?$allocator@U?$_List_node@U_LONGDATA@@@_STL@@@_STL@@QAE@ABV01@@Z
_TEXT	SEGMENT
___formal$ = 8						; size = 4
??0?$allocator@U?$_List_node@U_LONGDATA@@@_STL@@@_STL@@QAE@ABV01@@Z PROC NEAR ; _STL::allocator<_STL::_List_node<_LONGDATA> >::allocator<_STL::_List_node<_LONGDATA> >, COMDAT
; _this$ = ecx

; 349  :   allocator(const allocator<_Tp>&) _STLP_NOTHROW {}

  00000	8b c1		 mov	 eax, ecx
  00002	c2 04 00	 ret	 4
??0?$allocator@U?$_List_node@U_LONGDATA@@@_STL@@@_STL@@QAE@ABV01@@Z ENDP ; _STL::allocator<_STL::_List_node<_LONGDATA> >::allocator<_STL::_List_node<_LONGDATA> >
_TEXT	ENDS
PUBLIC	??$_Destroy@U_SHORTDATA@@@_STL@@YAXPAU_SHORTDATA@@@Z ; _STL::_Destroy<_SHORTDATA>
; Function compile flags: /Ogsy
; File c:\stlport-4.6.1\stlport\stl\_construct.h
;	COMDAT ??$_Destroy@U_SHORTDATA@@@_STL@@YAXPAU_SHORTDATA@@@Z
_TEXT	SEGMENT
___pointer$ = 8						; size = 4
??$_Destroy@U_SHORTDATA@@@_STL@@YAXPAU_SHORTDATA@@@Z PROC NEAR ; _STL::_Destroy<_SHORTDATA>, COMDAT

; 57   : # if _MSC_VER >= 1010
; 58   :   __pointer;
; 59   : # endif	// _MSC_VER >= 1000
; 60   : # ifdef _STLP_TRIVIAL_DESTRUCTOR_BUG
; 61   :   typedef typename __type_traits<_Tp>::has_trivial_destructor _Trivial_destructor;
; 62   :   __destroy_aux(__pointer, _Trivial_destructor());
; 63   : # else
; 64   : #  if ( defined (__BORLANDC__) && ( __BORLANDC__ < 0x500 ) )
; 65   :     __pointer->_Tp::~_Tp();
; 66   : #  else
; 67   :     __pointer->~_Tp();
; 68   : #  endif
; 69   : # endif
; 70   : # ifdef _STLP_DEBUG_UNINITIALIZED
; 71   : 	memset((char*)__pointer, _STLP_SHRED_BYTE, sizeof(_Tp));
; 72   : # endif
; 73   : }

  00000	c3		 ret	 0
??$_Destroy@U_SHORTDATA@@@_STL@@YAXPAU_SHORTDATA@@@Z ENDP ; _STL::_Destroy<_SHORTDATA>
_TEXT	ENDS
PUBLIC	??$?0U_SHORTDATA@@@?$allocator@U?$_List_node@U_SHORTDATA@@@_STL@@@_STL@@QAE@ABV?$allocator@U_SHORTDATA@@@1@@Z ; _STL::allocator<_STL::_List_node<_SHORTDATA> >::allocator<_STL::_List_node<_SHORTDATA> ><_SHORTDATA>
; Function compile flags: /Ogsy
; File c:\stlport-4.6.1\stlport\stl\_alloc.h
;	COMDAT ??$?0U_SHORTDATA@@@?$allocator@U?$_List_node@U_SHORTDATA@@@_STL@@@_STL@@QAE@ABV?$allocator@U_SHORTDATA@@@1@@Z
_TEXT	SEGMENT
___formal$ = 8						; size = 4
??$?0U_SHORTDATA@@@?$allocator@U?$_List_node@U_SHORTDATA@@@_STL@@@_STL@@QAE@ABV?$allocator@U_SHORTDATA@@@1@@Z PROC NEAR ; _STL::allocator<_STL::_List_node<_SHORTDATA> >::allocator<_STL::_List_node<_SHORTDATA> ><_SHORTDATA>, COMDAT
; _this$ = ecx

; 347  :   template <class _Tp1> allocator(const allocator<_Tp1>&) _STLP_NOTHROW {}

  00000	8b c1		 mov	 eax, ecx
  00002	c2 04 00	 ret	 4
??$?0U_SHORTDATA@@@?$allocator@U?$_List_node@U_SHORTDATA@@@_STL@@@_STL@@QAE@ABV?$allocator@U_SHORTDATA@@@1@@Z ENDP ; _STL::allocator<_STL::_List_node<_SHORTDATA> >::allocator<_STL::_List_node<_SHORTDATA> ><_SHORTDATA>
_TEXT	ENDS
PUBLIC	??$_Destroy@U_LONGDATA@@@_STL@@YAXPAU_LONGDATA@@@Z ; _STL::_Destroy<_LONGDATA>
; Function compile flags: /Ogsy
; File c:\stlport-4.6.1\stlport\stl\_construct.h
;	COMDAT ??$_Destroy@U_LONGDATA@@@_STL@@YAXPAU_LONGDATA@@@Z
_TEXT	SEGMENT
___pointer$ = 8						; size = 4
??$_Destroy@U_LONGDATA@@@_STL@@YAXPAU_LONGDATA@@@Z PROC NEAR ; _STL::_Destroy<_LONGDATA>, COMDAT

; 57   : # if _MSC_VER >= 1010
; 58   :   __pointer;
; 59   : # endif	// _MSC_VER >= 1000
; 60   : # ifdef _STLP_TRIVIAL_DESTRUCTOR_BUG
; 61   :   typedef typename __type_traits<_Tp>::has_trivial_destructor _Trivial_destructor;
; 62   :   __destroy_aux(__pointer, _Trivial_destructor());
; 63   : # else
; 64   : #  if ( defined (__BORLANDC__) && ( __BORLANDC__ < 0x500 ) )
; 65   :     __pointer->_Tp::~_Tp();
; 66   : #  else
; 67   :     __pointer->~_Tp();
; 68   : #  endif
; 69   : # endif
; 70   : # ifdef _STLP_DEBUG_UNINITIALIZED
; 71   : 	memset((char*)__pointer, _STLP_SHRED_BYTE, sizeof(_Tp));
; 72   : # endif
; 73   : }

  00000	c3		 ret	 0
??$_Destroy@U_LONGDATA@@@_STL@@YAXPAU_LONGDATA@@@Z ENDP	; _STL::_Destroy<_LONGDATA>
_TEXT	ENDS
PUBLIC	??$?0U_LONGDATA@@@?$allocator@U?$_List_node@U_LONGDATA@@@_STL@@@_STL@@QAE@ABV?$allocator@U_LONGDATA@@@1@@Z ; _STL::allocator<_STL::_List_node<_LONGDATA> >::allocator<_STL::_List_node<_LONGDATA> ><_LONGDATA>
; Function compile flags: /Ogsy
; File c:\stlport-4.6.1\stlport\stl\_alloc.h
;	COMDAT ??$?0U_LONGDATA@@@?$allocator@U?$_List_node@U_LONGDATA@@@_STL@@@_STL@@QAE@ABV?$allocator@U_LONGDATA@@@1@@Z
_TEXT	SEGMENT
___formal$ = 8						; size = 4
??$?0U_LONGDATA@@@?$allocator@U?$_List_node@U_LONGDATA@@@_STL@@@_STL@@QAE@ABV?$allocator@U_LONGDATA@@@1@@Z PROC NEAR ; _STL::allocator<_STL::_List_node<_LONGDATA> >::allocator<_STL::_List_node<_LONGDATA> ><_LONGDATA>, COMDAT
; _this$ = ecx

; 347  :   template <class _Tp1> allocator(const allocator<_Tp1>&) _STLP_NOTHROW {}

  00000	8b c1		 mov	 eax, ecx
  00002	c2 04 00	 ret	 4
??$?0U_LONGDATA@@@?$allocator@U?$_List_node@U_LONGDATA@@@_STL@@@_STL@@QAE@ABV?$allocator@U_LONGDATA@@@1@@Z ENDP ; _STL::allocator<_STL::_List_node<_LONGDATA> >::allocator<_STL::_List_node<_LONGDATA> ><_LONGDATA>
_TEXT	ENDS
PUBLIC	??$_Construct@U_SHORTDATA@@U1@@_STL@@YAXPAU_SHORTDATA@@ABU1@@Z ; _STL::_Construct<_SHORTDATA,_SHORTDATA>
; Function compile flags: /Ogsy
; File c:\stlport-4.6.1\stlport\stl\_construct.h
;	COMDAT ??$_Construct@U_SHORTDATA@@U1@@_STL@@YAXPAU_SHORTDATA@@ABU1@@Z
_TEXT	SEGMENT
___p$ = 8						; size = 4
___val$ = 12						; size = 4
??$_Construct@U_SHORTDATA@@U1@@_STL@@YAXPAU_SHORTDATA@@ABU1@@Z PROC NEAR ; _STL::_Construct<_SHORTDATA,_SHORTDATA>, COMDAT

; 94   : # ifdef _STLP_DEBUG_UNINITIALIZED
; 95   : 	memset((char*)__p, _STLP_SHRED_BYTE, sizeof(_T1));
; 96   : # endif
; 97   :     _STLP_PLACEMENT_NEW (__p) _T1(__val);

  00000	8b 44 24 04	 mov	 eax, DWORD PTR ___p$[esp-4]
  00004	85 c0		 test	 eax, eax
  00006	74 08		 je	 SHORT $L102948
  00008	8b 4c 24 08	 mov	 ecx, DWORD PTR ___val$[esp-4]
  0000c	8b 09		 mov	 ecx, DWORD PTR [ecx]
  0000e	89 08		 mov	 DWORD PTR [eax], ecx
$L102948:

; 98   : }

  00010	c3		 ret	 0
??$_Construct@U_SHORTDATA@@U1@@_STL@@YAXPAU_SHORTDATA@@ABU1@@Z ENDP ; _STL::_Construct<_SHORTDATA,_SHORTDATA>
_TEXT	ENDS
PUBLIC	??$_Construct@U_LONGDATA@@U1@@_STL@@YAXPAU_LONGDATA@@ABU1@@Z ; _STL::_Construct<_LONGDATA,_LONGDATA>
; Function compile flags: /Ogsy
;	COMDAT ??$_Construct@U_LONGDATA@@U1@@_STL@@YAXPAU_LONGDATA@@ABU1@@Z
_TEXT	SEGMENT
___p$ = 8						; size = 4
___val$ = 12						; size = 4
??$_Construct@U_LONGDATA@@U1@@_STL@@YAXPAU_LONGDATA@@ABU1@@Z PROC NEAR ; _STL::_Construct<_LONGDATA,_LONGDATA>, COMDAT

; 94   : # ifdef _STLP_DEBUG_UNINITIALIZED
; 95   : 	memset((char*)__p, _STLP_SHRED_BYTE, sizeof(_T1));
; 96   : # endif
; 97   :     _STLP_PLACEMENT_NEW (__p) _T1(__val);

  00000	8b 44 24 04	 mov	 eax, DWORD PTR ___p$[esp-4]
  00004	85 c0		 test	 eax, eax
  00006	74 0e		 je	 SHORT $L102957
  00008	8b 4c 24 08	 mov	 ecx, DWORD PTR ___val$[esp-4]
  0000c	8b 11		 mov	 edx, DWORD PTR [ecx]
  0000e	89 10		 mov	 DWORD PTR [eax], edx
  00010	8b 49 04	 mov	 ecx, DWORD PTR [ecx+4]
  00013	89 48 04	 mov	 DWORD PTR [eax+4], ecx
$L102957:

; 98   : }

  00016	c3		 ret	 0
??$_Construct@U_LONGDATA@@U1@@_STL@@YAXPAU_LONGDATA@@ABU1@@Z ENDP ; _STL::_Construct<_LONGDATA,_LONGDATA>
_TEXT	ENDS
PUBLIC	?max_size@?$_String_base@DV?$allocator@D@_STL@@@_STL@@QBEIXZ ; _STL::_String_base<char,_STL::allocator<char> >::max_size
; Function compile flags: /Ogsy
; File c:\stlport-4.6.1\stlport\stl\_string.h
;	COMDAT ?max_size@?$_String_base@DV?$allocator@D@_STL@@@_STL@@QBEIXZ
_TEXT	SEGMENT
?max_size@?$_String_base@DV?$allocator@D@_STL@@@_STL@@QBEIXZ PROC NEAR ; _STL::_String_base<char,_STL::allocator<char> >::max_size, COMDAT
; _this$ = ecx

; 126  :   size_t max_size() const { return (size_t(-1) / sizeof(_Tp)) - 1; }

  00000	6a fe		 push	 -2			; fffffffeH
  00002	58		 pop	 eax
  00003	c3		 ret	 0
?max_size@?$_String_base@DV?$allocator@D@_STL@@@_STL@@QBEIXZ ENDP ; _STL::_String_base<char,_STL::allocator<char> >::max_size
_TEXT	ENDS
PUBLIC	??$__distance@PBD@_STL@@YAHABQBD0ABUrandom_access_iterator_tag@0@@Z ; _STL::__distance<char const *>
; Function compile flags: /Ogsy
; File c:\stlport-4.6.1\stlport\stl\_iterator_base.h
;	COMDAT ??$__distance@PBD@_STL@@YAHABQBD0ABUrandom_access_iterator_tag@0@@Z
_TEXT	SEGMENT
___first$ = 8						; size = 4
___last$ = 12						; size = 4
___formal$ = 16						; size = 4
??$__distance@PBD@_STL@@YAHABQBD0ABUrandom_access_iterator_tag@0@@Z PROC NEAR ; _STL::__distance<char const *>, COMDAT

; 363  :   return __last - __first;

  00000	8b 44 24 08	 mov	 eax, DWORD PTR ___last$[esp-4]
  00004	8b 00		 mov	 eax, DWORD PTR [eax]
  00006	8b 4c 24 04	 mov	 ecx, DWORD PTR ___first$[esp-4]
  0000a	2b 01		 sub	 eax, DWORD PTR [ecx]

; 364  : }

  0000c	c3		 ret	 0
??$__distance@PBD@_STL@@YAHABQBD0ABUrandom_access_iterator_tag@0@@Z ENDP ; _STL::__distance<char const *>
_TEXT	ENDS
PUBLIC	?_M_throw_length_error@?$_String_base@DV?$allocator@D@_STL@@@_STL@@QBEXXZ ; _STL::_String_base<char,_STL::allocator<char> >::_M_throw_length_error
PUBLIC	??_C@_0N@GOPDCEEB@basic_string?$AA@		; `string'
EXTRN	?__stl_throw_length_error@_STL@@YAXPBD@Z:NEAR	; _STL::__stl_throw_length_error
;	COMDAT ??_C@_0N@GOPDCEEB@basic_string?$AA@
; File c:\stlport-4.6.1\stlport\stl\_string.c
CONST	SEGMENT
??_C@_0N@GOPDCEEB@basic_string?$AA@ DB 'basic_string', 00H ; `string'
; Function compile flags: /Ogsy
CONST	ENDS
;	COMDAT ?_M_throw_length_error@?$_String_base@DV?$allocator@D@_STL@@@_STL@@QBEXXZ
_TEXT	SEGMENT
?_M_throw_length_error@?$_String_base@DV?$allocator@D@_STL@@@_STL@@QBEXXZ PROC NEAR ; _STL::_String_base<char,_STL::allocator<char> >::_M_throw_length_error, COMDAT
; _this$ = ecx

; 523  :     __stl_throw_length_error("basic_string");

  00000	68 00 00 00 00	 push	 OFFSET FLAT:??_C@_0N@GOPDCEEB@basic_string?$AA@
  00005	e8 00 00 00 00	 call	 ?__stl_throw_length_error@_STL@@YAXPBD@Z ; _STL::__stl_throw_length_error
  0000a	59		 pop	 ecx

; 524  : }

  0000b	c3		 ret	 0
?_M_throw_length_error@?$_String_base@DV?$allocator@D@_STL@@@_STL@@QBEXXZ ENDP ; _STL::_String_base<char,_STL::allocator<char> >::_M_throw_length_error
_TEXT	ENDS
PUBLIC	??0_List_iterator_base@_STL@@QAE@PAU_List_node_base@1@@Z ; _STL::_List_iterator_base::_List_iterator_base
; Function compile flags: /Ogsy
; File c:\stlport-4.6.1\stlport\stl\_list.h
;	COMDAT ??0_List_iterator_base@_STL@@QAE@PAU_List_node_base@1@@Z
_TEXT	SEGMENT
___x$ = 8						; size = 4
??0_List_iterator_base@_STL@@QAE@PAU_List_node_base@1@@Z PROC NEAR ; _STL::_List_iterator_base::_List_iterator_base, COMDAT
; _this$ = ecx

; 95   :   _List_iterator_base(_List_node_base* __x) : _M_node(__x) {}

  00000	8b c1		 mov	 eax, ecx
  00002	8b 4c 24 04	 mov	 ecx, DWORD PTR ___x$[esp-4]
  00006	89 08		 mov	 DWORD PTR [eax], ecx
  00008	c2 04 00	 ret	 4
??0_List_iterator_base@_STL@@QAE@PAU_List_node_base@1@@Z ENDP ; _STL::_List_iterator_base::_List_iterator_base
_TEXT	ENDS
PUBLIC	?_M_incr@_List_iterator_base@_STL@@QAEXXZ	; _STL::_List_iterator_base::_M_incr
; Function compile flags: /Ogsy
;	COMDAT ?_M_incr@_List_iterator_base@_STL@@QAEXXZ
_TEXT	SEGMENT
?_M_incr@_List_iterator_base@_STL@@QAEXXZ PROC NEAR	; _STL::_List_iterator_base::_M_incr, COMDAT
; _this$ = ecx

; 98   :   void _M_incr() { _M_node = _M_node->_M_next; }

  00000	8b 01		 mov	 eax, DWORD PTR [ecx]
  00002	8b 00		 mov	 eax, DWORD PTR [eax]
  00004	89 01		 mov	 DWORD PTR [ecx], eax
  00006	c3		 ret	 0
?_M_incr@_List_iterator_base@_STL@@QAEXXZ ENDP		; _STL::_List_iterator_base::_M_incr
_TEXT	ENDS
PUBLIC	??9_List_iterator_base@_STL@@QBE_NABU01@@Z	; _STL::_List_iterator_base::operator!=
; Function compile flags: /Ogsy
;	COMDAT ??9_List_iterator_base@_STL@@QBE_NABU01@@Z
_TEXT	SEGMENT
___y$ = 8						; size = 4
??9_List_iterator_base@_STL@@QBE_NABU01@@Z PROC NEAR	; _STL::_List_iterator_base::operator!=, COMDAT
; _this$ = ecx

; 104  :     return _M_node != __y._M_node; 

  00000	8b 01		 mov	 eax, DWORD PTR [ecx]
  00002	8b 54 24 04	 mov	 edx, DWORD PTR ___y$[esp-4]
  00006	33 c9		 xor	 ecx, ecx
  00008	3b 02		 cmp	 eax, DWORD PTR [edx]
  0000a	0f 95 c1	 setne	 cl
  0000d	8a c1		 mov	 al, cl

; 105  :   }

  0000f	c2 04 00	 ret	 4
??9_List_iterator_base@_STL@@QBE_NABU01@@Z ENDP		; _STL::_List_iterator_base::operator!=
_TEXT	ENDS
PUBLIC	??0?$allocator@D@_STL@@QAE@XZ			; _STL::allocator<char>::allocator<char>
; Function compile flags: /Ogsy
; File c:\stlport-4.6.1\stlport\stl\_alloc.h
;	COMDAT ??0?$allocator@D@_STL@@QAE@XZ
_TEXT	SEGMENT
??0?$allocator@D@_STL@@QAE@XZ PROC NEAR			; _STL::allocator<char>::allocator<char>, COMDAT
; _this$ = ecx

; 345  :   allocator() _STLP_NOTHROW {}

  00000	8b c1		 mov	 eax, ecx
  00002	c3		 ret	 0
??0?$allocator@D@_STL@@QAE@XZ ENDP			; _STL::allocator<char>::allocator<char>
_TEXT	ENDS
PUBLIC	??1?$allocator@D@_STL@@QAE@XZ			; _STL::allocator<char>::~allocator<char>
; Function compile flags: /Ogsy
;	COMDAT ??1?$allocator@D@_STL@@QAE@XZ
_TEXT	SEGMENT
??1?$allocator@D@_STL@@QAE@XZ PROC NEAR			; _STL::allocator<char>::~allocator<char>, COMDAT
; _this$ = ecx

; 350  :   ~allocator() _STLP_NOTHROW {}

  00000	c3		 ret	 0
??1?$allocator@D@_STL@@QAE@XZ ENDP			; _STL::allocator<char>::~allocator<char>
_TEXT	ENDS
PUBLIC	??1?$_STLP_alloc_proxy@PADDV?$allocator@D@_STL@@@_STL@@QAE@XZ ; _STL::_STLP_alloc_proxy<char *,char,_STL::allocator<char> >::~_STLP_alloc_proxy<char *,char,_STL::allocator<char> >
; Function compile flags: /Ogsy
;	COMDAT ??1?$_STLP_alloc_proxy@PADDV?$allocator@D@_STL@@@_STL@@QAE@XZ
_TEXT	SEGMENT
??1?$_STLP_alloc_proxy@PADDV?$allocator@D@_STL@@@_STL@@QAE@XZ PROC NEAR ; _STL::_STLP_alloc_proxy<char *,char,_STL::allocator<char> >::~_STLP_alloc_proxy<char *,char,_STL::allocator<char> >, COMDAT
; _this$ = ecx
  00000	c3		 ret	 0
??1?$_STLP_alloc_proxy@PADDV?$allocator@D@_STL@@@_STL@@QAE@XZ ENDP ; _STL::_STLP_alloc_proxy<char *,char,_STL::allocator<char> >::~_STLP_alloc_proxy<char *,char,_STL::allocator<char> >
_TEXT	ENDS
PUBLIC	?allocate@?$__node_alloc@$00$0A@@_STL@@SAPAXI@Z	; _STL::__node_alloc<1,0>::allocate
EXTRN	?_M_allocate@?$__node_alloc@$00$0A@@_STL@@CAPAXI@Z:NEAR ; _STL::__node_alloc<1,0>::_M_allocate
; Function compile flags: /Ogsy
;	COMDAT ?allocate@?$__node_alloc@$00$0A@@_STL@@SAPAXI@Z
_TEXT	SEGMENT
___n$ = 8						; size = 4
?allocate@?$__node_alloc@$00$0A@@_STL@@SAPAXI@Z PROC NEAR ; _STL::__node_alloc<1,0>::allocate, COMDAT

; 251  :   static void * _STLP_CALL allocate(size_t __n) { return (__n > (size_t)_MAX_BYTES) ?  __stl_new(__n) : _M_allocate(__n); }

  00000	8b 44 24 04	 mov	 eax, DWORD PTR ___n$[esp-4]
  00004	3d 80 00 00 00	 cmp	 eax, 128		; 00000080H
  00009	50		 push	 eax
  0000a	76 07		 jbe	 SHORT $L102995
  0000c	e8 00 00 00 00	 call	 ??2@YAPAXI@Z		; operator new
  00011	59		 pop	 ecx
  00012	c3		 ret	 0
$L102995:
  00013	e8 00 00 00 00	 call	 ?_M_allocate@?$__node_alloc@$00$0A@@_STL@@CAPAXI@Z ; _STL::__node_alloc<1,0>::_M_allocate
  00018	59		 pop	 ecx
  00019	c3		 ret	 0
?allocate@?$__node_alloc@$00$0A@@_STL@@SAPAXI@Z ENDP	; _STL::__node_alloc<1,0>::allocate
_TEXT	ENDS
PUBLIC	?deallocate@?$__node_alloc@$00$0A@@_STL@@SAXPAXI@Z ; _STL::__node_alloc<1,0>::deallocate
EXTRN	?_M_deallocate@?$__node_alloc@$00$0A@@_STL@@CAXPAXI@Z:NEAR ; _STL::__node_alloc<1,0>::_M_deallocate
; Function compile flags: /Ogsy
;	COMDAT ?deallocate@?$__node_alloc@$00$0A@@_STL@@SAXPAXI@Z
_TEXT	SEGMENT
___p$ = 8						; size = 4
___n$ = 12						; size = 4
?deallocate@?$__node_alloc@$00$0A@@_STL@@SAXPAXI@Z PROC NEAR ; _STL::__node_alloc<1,0>::deallocate, COMDAT

; 253  :   static void _STLP_CALL deallocate(void *__p, size_t __n) { if (__n > (size_t)_MAX_BYTES) __stl_delete(__p); else _M_deallocate(__p, __n); }

  00000	81 7c 24 08 80
	00 00 00	 cmp	 DWORD PTR ___n$[esp-4], 128 ; 00000080H
  00008	76 0b		 jbe	 SHORT $L98677
  0000a	ff 74 24 04	 push	 DWORD PTR ___p$[esp-4]
  0000e	e8 00 00 00 00	 call	 ??3@YAXPAX@Z		; operator delete
  00013	59		 pop	 ecx
  00014	c3		 ret	 0
$L98677:
  00015	e9 00 00 00 00	 jmp	 ?_M_deallocate@?$__node_alloc@$00$0A@@_STL@@CAXPAXI@Z ; _STL::__node_alloc<1,0>::_M_deallocate
?deallocate@?$__node_alloc@$00$0A@@_STL@@SAXPAXI@Z ENDP	; _STL::__node_alloc<1,0>::deallocate
_TEXT	ENDS
PUBLIC	?_M_terminate_string@?$basic_string@DV?$char_traits@D@_STL@@V?$allocator@D@2@@_STL@@AAEXXZ ; _STL::basic_string<char,_STL::char_traits<char>,_STL::allocator<char> >::_M_terminate_string
; Function compile flags: /Ogsy
; File c:\stlport-4.6.1\stlport\stl\_string.h
;	COMDAT ?_M_terminate_string@?$basic_string@DV?$char_traits@D@_STL@@V?$allocator@D@2@@_STL@@AAEXXZ
_TEXT	SEGMENT
?_M_terminate_string@?$basic_string@DV?$char_traits@D@_STL@@V?$allocator@D@2@@_STL@@AAEXXZ PROC NEAR ; _STL::basic_string<char,_STL::char_traits<char>,_STL::allocator<char> >::_M_terminate_string, COMDAT
; _this$ = ecx

; 355  :     _M_terminate_string_aux(_Char_Is_Integral());

  00000	8b 41 04	 mov	 eax, DWORD PTR [ecx+4]
  00003	c6 00 00	 mov	 BYTE PTR [eax], 0

; 356  :   }

  00006	c3		 ret	 0
?_M_terminate_string@?$basic_string@DV?$char_traits@D@_STL@@V?$allocator@D@2@@_STL@@AAEXXZ ENDP ; _STL::basic_string<char,_STL::char_traits<char>,_STL::allocator<char> >::_M_terminate_string
_TEXT	ENDS
PUBLIC	?allocate@?$allocator@D@_STL@@QAEPADIPBX@Z	; _STL::allocator<char>::allocate
; Function compile flags: /Ogsy
; File c:\stlport-4.6.1\stlport\stl\_alloc.h
;	COMDAT ?allocate@?$allocator@D@_STL@@QAEPADIPBX@Z
_TEXT	SEGMENT
___n$ = 8						; size = 4
___formal$ = 12						; size = 4
?allocate@?$allocator@D@_STL@@QAEPADIPBX@Z PROC NEAR	; _STL::allocator<char>::allocate, COMDAT
; _this$ = ecx

; 355  :     return __n != 0 ? __REINTERPRET_CAST(value_type*,__sgi_alloc::allocate(__n * sizeof(value_type))) : 0;

  00000	33 c0		 xor	 eax, eax
  00002	39 44 24 04	 cmp	 DWORD PTR ___n$[esp-4], eax
  00006	74 0a		 je	 SHORT $L103018
  00008	ff 74 24 04	 push	 DWORD PTR ___n$[esp-4]
  0000c	e8 00 00 00 00	 call	 ?allocate@?$__node_alloc@$00$0A@@_STL@@SAPAXI@Z ; _STL::__node_alloc<1,0>::allocate
  00011	59		 pop	 ecx
$L103018:

; 356  :   }

  00012	c2 08 00	 ret	 8
?allocate@?$allocator@D@_STL@@QAEPADIPBX@Z ENDP		; _STL::allocator<char>::allocate
_TEXT	ENDS
PUBLIC	??E?$_List_iterator@U_SHORTDATA@@U?$_Const_traits@U_SHORTDATA@@@_STL@@@_STL@@QAE?AU01@H@Z ; _STL::_List_iterator<_SHORTDATA,_STL::_Const_traits<_SHORTDATA> >::operator++
; Function compile flags: /Ogsy
; File c:\stlport-4.6.1\stlport\stl\_list.h
;	COMDAT ??E?$_List_iterator@U_SHORTDATA@@U?$_Const_traits@U_SHORTDATA@@@_STL@@@_STL@@QAE?AU01@H@Z
_TEXT	SEGMENT
___$ReturnUdt$ = 8					; size = 4
___formal$ = 12						; size = 4
??E?$_List_iterator@U_SHORTDATA@@U?$_Const_traits@U_SHORTDATA@@@_STL@@@_STL@@QAE?AU01@H@Z PROC NEAR ; _STL::_List_iterator<_SHORTDATA,_STL::_Const_traits<_SHORTDATA> >::operator++, COMDAT
; _this$ = ecx

; 139  :     _Self __tmp = *this;

  00000	8b 11		 mov	 edx, DWORD PTR [ecx]

; 140  :     this->_M_incr();

  00002	8b 02		 mov	 eax, DWORD PTR [edx]
  00004	89 01		 mov	 DWORD PTR [ecx], eax

; 141  :     return __tmp;

  00006	8b 44 24 04	 mov	 eax, DWORD PTR ___$ReturnUdt$[esp-4]
  0000a	89 10		 mov	 DWORD PTR [eax], edx

; 142  :   }

  0000c	c2 08 00	 ret	 8
??E?$_List_iterator@U_SHORTDATA@@U?$_Const_traits@U_SHORTDATA@@@_STL@@@_STL@@QAE?AU01@H@Z ENDP ; _STL::_List_iterator<_SHORTDATA,_STL::_Const_traits<_SHORTDATA> >::operator++
_TEXT	ENDS
PUBLIC	??E?$_List_iterator@U_LONGDATA@@U?$_Const_traits@U_LONGDATA@@@_STL@@@_STL@@QAE?AU01@H@Z ; _STL::_List_iterator<_LONGDATA,_STL::_Const_traits<_LONGDATA> >::operator++
; Function compile flags: /Ogsy
;	COMDAT ??E?$_List_iterator@U_LONGDATA@@U?$_Const_traits@U_LONGDATA@@@_STL@@@_STL@@QAE?AU01@H@Z
_TEXT	SEGMENT
___$ReturnUdt$ = 8					; size = 4
___formal$ = 12						; size = 4
??E?$_List_iterator@U_LONGDATA@@U?$_Const_traits@U_LONGDATA@@@_STL@@@_STL@@QAE?AU01@H@Z PROC NEAR ; _STL::_List_iterator<_LONGDATA,_STL::_Const_traits<_LONGDATA> >::operator++, COMDAT
; _this$ = ecx

; 139  :     _Self __tmp = *this;

  00000	8b 11		 mov	 edx, DWORD PTR [ecx]

; 140  :     this->_M_incr();

  00002	8b 02		 mov	 eax, DWORD PTR [edx]
  00004	89 01		 mov	 DWORD PTR [ecx], eax

; 141  :     return __tmp;

  00006	8b 44 24 04	 mov	 eax, DWORD PTR ___$ReturnUdt$[esp-4]
  0000a	89 10		 mov	 DWORD PTR [eax], edx

; 142  :   }

  0000c	c2 08 00	 ret	 8
??E?$_List_iterator@U_LONGDATA@@U?$_Const_traits@U_LONGDATA@@@_STL@@@_STL@@QAE?AU01@H@Z ENDP ; _STL::_List_iterator<_LONGDATA,_STL::_Const_traits<_LONGDATA> >::operator++
_TEXT	ENDS
PUBLIC	??0?$_STLP_alloc_proxy@PADDV?$allocator@D@_STL@@@_STL@@QAE@ABV?$allocator@D@1@PAD@Z ; _STL::_STLP_alloc_proxy<char *,char,_STL::allocator<char> >::_STLP_alloc_proxy<char *,char,_STL::allocator<char> >
; Function compile flags: /Ogsy
; File c:\stlport-4.6.1\stlport\stl\_alloc.h
;	COMDAT ??0?$_STLP_alloc_proxy@PADDV?$allocator@D@_STL@@@_STL@@QAE@ABV?$allocator@D@1@PAD@Z
_TEXT	SEGMENT
___a$ = 8						; size = 4
___p$ = 12						; size = 4
??0?$_STLP_alloc_proxy@PADDV?$allocator@D@_STL@@@_STL@@QAE@ABV?$allocator@D@1@PAD@Z PROC NEAR ; _STL::_STLP_alloc_proxy<char *,char,_STL::allocator<char> >::_STLP_alloc_proxy<char *,char,_STL::allocator<char> >, COMDAT
; _this$ = ecx

; 487  :   inline _STLP_alloc_proxy(const _MaybeReboundAlloc& __a, _Value __p) : _MaybeReboundAlloc(__a), _M_data(__p) {}

  00000	8b c1		 mov	 eax, ecx
  00002	8b 4c 24 08	 mov	 ecx, DWORD PTR ___p$[esp-4]
  00006	89 08		 mov	 DWORD PTR [eax], ecx
  00008	c2 08 00	 ret	 8
??0?$_STLP_alloc_proxy@PADDV?$allocator@D@_STL@@@_STL@@QAE@ABV?$allocator@D@1@PAD@Z ENDP ; _STL::_STLP_alloc_proxy<char *,char,_STL::allocator<char> >::_STLP_alloc_proxy<char *,char,_STL::allocator<char> >
_TEXT	ENDS
PUBLIC	??0?$_List_iterator@U_SHORTDATA@@U?$_Const_traits@U_SHORTDATA@@@_STL@@@_STL@@QAE@PAU?$_List_node@U_SHORTDATA@@@1@@Z ; _STL::_List_iterator<_SHORTDATA,_STL::_Const_traits<_SHORTDATA> >::_List_iterator<_SHORTDATA,_STL::_Const_traits<_SHORTDATA> >
; Function compile flags: /Ogsy
; File c:\stlport-4.6.1\stlport\stl\_list.h
;	COMDAT ??0?$_List_iterator@U_SHORTDATA@@U?$_Const_traits@U_SHORTDATA@@@_STL@@@_STL@@QAE@PAU?$_List_node@U_SHORTDATA@@@1@@Z
_TEXT	SEGMENT
___x$ = 8						; size = 4
??0?$_List_iterator@U_SHORTDATA@@U?$_Const_traits@U_SHORTDATA@@@_STL@@@_STL@@QAE@PAU?$_List_node@U_SHORTDATA@@@1@@Z PROC NEAR ; _STL::_List_iterator<_SHORTDATA,_STL::_Const_traits<_SHORTDATA> >::_List_iterator<_SHORTDATA,_STL::_Const_traits<_SHORTDATA> >, COMDAT
; _this$ = ecx

; 126  :   _List_iterator(_Node* __x) : _List_iterator_base(__x) {}

  00000	8b c1		 mov	 eax, ecx
  00002	8b 4c 24 04	 mov	 ecx, DWORD PTR ___x$[esp-4]
  00006	89 08		 mov	 DWORD PTR [eax], ecx
  00008	c2 04 00	 ret	 4
??0?$_List_iterator@U_SHORTDATA@@U?$_Const_traits@U_SHORTDATA@@@_STL@@@_STL@@QAE@PAU?$_List_node@U_SHORTDATA@@@1@@Z ENDP ; _STL::_List_iterator<_SHORTDATA,_STL::_Const_traits<_SHORTDATA> >::_List_iterator<_SHORTDATA,_STL::_Const_traits<_SHORTDATA> >
_TEXT	ENDS
PUBLIC	??0?$_List_iterator@U_LONGDATA@@U?$_Const_traits@U_LONGDATA@@@_STL@@@_STL@@QAE@PAU?$_List_node@U_LONGDATA@@@1@@Z ; _STL::_List_iterator<_LONGDATA,_STL::_Const_traits<_LONGDATA> >::_List_iterator<_LONGDATA,_STL::_Const_traits<_LONGDATA> >
; Function compile flags: /Ogsy
;	COMDAT ??0?$_List_iterator@U_LONGDATA@@U?$_Const_traits@U_LONGDATA@@@_STL@@@_STL@@QAE@PAU?$_List_node@U_LONGDATA@@@1@@Z
_TEXT	SEGMENT
___x$ = 8						; size = 4
??0?$_List_iterator@U_LONGDATA@@U?$_Const_traits@U_LONGDATA@@@_STL@@@_STL@@QAE@PAU?$_List_node@U_LONGDATA@@@1@@Z PROC NEAR ; _STL::_List_iterator<_LONGDATA,_STL::_Const_traits<_LONGDATA> >::_List_iterator<_LONGDATA,_STL::_Const_traits<_LONGDATA> >, COMDAT
; _this$ = ecx

; 126  :   _List_iterator(_Node* __x) : _List_iterator_base(__x) {}

  00000	8b c1		 mov	 eax, ecx
  00002	8b 4c 24 04	 mov	 ecx, DWORD PTR ___x$[esp-4]
  00006	89 08		 mov	 DWORD PTR [eax], ecx
  00008	c2 04 00	 ret	 4
??0?$_List_iterator@U_LONGDATA@@U?$_Const_traits@U_LONGDATA@@@_STL@@@_STL@@QAE@PAU?$_List_node@U_LONGDATA@@@1@@Z ENDP ; _STL::_List_iterator<_LONGDATA,_STL::_Const_traits<_LONGDATA> >::_List_iterator<_LONGDATA,_STL::_Const_traits<_LONGDATA> >
_TEXT	ENDS
PUBLIC	??1?$_STLP_alloc_proxy@PAU?$_List_node@U_SHORTDATA@@@_STL@@U12@V?$allocator@U?$_List_node@U_SHORTDATA@@@_STL@@@2@@_STL@@QAE@XZ ; _STL::_STLP_alloc_proxy<_STL::_List_node<_SHORTDATA> *,_STL::_List_node<_SHORTDATA>,_STL::allocator<_STL::_List_node<_SHORTDATA> > >::~_STLP_alloc_proxy<_STL::_List_node<_SHORTDATA> *,_STL::_List_node<_SHORTDATA>,_STL::allocator<_STL::_List_node<_SHORTDATA> > >
; Function compile flags: /Ogsy
;	COMDAT ??1?$_STLP_alloc_proxy@PAU?$_List_node@U_SHORTDATA@@@_STL@@U12@V?$allocator@U?$_List_node@U_SHORTDATA@@@_STL@@@2@@_STL@@QAE@XZ
_TEXT	SEGMENT
??1?$_STLP_alloc_proxy@PAU?$_List_node@U_SHORTDATA@@@_STL@@U12@V?$allocator@U?$_List_node@U_SHORTDATA@@@_STL@@@2@@_STL@@QAE@XZ PROC NEAR ; _STL::_STLP_alloc_proxy<_STL::_List_node<_SHORTDATA> *,_STL::_List_node<_SHORTDATA>,_STL::allocator<_STL::_List_node<_SHORTDATA> > >::~_STLP_alloc_proxy<_STL::_List_node<_SHORTDATA> *,_STL::_List_node<_SHORTDATA>,_STL::allocator<_STL::_List_node<_SHORTDATA> > >, COMDAT
; _this$ = ecx
  00000	c3		 ret	 0
??1?$_STLP_alloc_proxy@PAU?$_List_node@U_SHORTDATA@@@_STL@@U12@V?$allocator@U?$_List_node@U_SHORTDATA@@@_STL@@@2@@_STL@@QAE@XZ ENDP ; _STL::_STLP_alloc_proxy<_STL::_List_node<_SHORTDATA> *,_STL::_List_node<_SHORTDATA>,_STL::allocator<_STL::_List_node<_SHORTDATA> > >::~_STLP_alloc_proxy<_STL::_List_node<_SHORTDATA> *,_STL::_List_node<_SHORTDATA>,_STL::allocator<_STL::_List_node<_SHORTDATA> > >
_TEXT	ENDS
PUBLIC	??1?$_STLP_alloc_proxy@PAU?$_List_node@U_LONGDATA@@@_STL@@U12@V?$allocator@U?$_List_node@U_LONGDATA@@@_STL@@@2@@_STL@@QAE@XZ ; _STL::_STLP_alloc_proxy<_STL::_List_node<_LONGDATA> *,_STL::_List_node<_LONGDATA>,_STL::allocator<_STL::_List_node<_LONGDATA> > >::~_STLP_alloc_proxy<_STL::_List_node<_LONGDATA> *,_STL::_List_node<_LONGDATA>,_STL::allocator<_STL::_List_node<_LONGDATA> > >
; Function compile flags: /Ogsy
;	COMDAT ??1?$_STLP_alloc_proxy@PAU?$_List_node@U_LONGDATA@@@_STL@@U12@V?$allocator@U?$_List_node@U_LONGDATA@@@_STL@@@2@@_STL@@QAE@XZ
_TEXT	SEGMENT
??1?$_STLP_alloc_proxy@PAU?$_List_node@U_LONGDATA@@@_STL@@U12@V?$allocator@U?$_List_node@U_LONGDATA@@@_STL@@@2@@_STL@@QAE@XZ PROC NEAR ; _STL::_STLP_alloc_proxy<_STL::_List_node<_LONGDATA> *,_STL::_List_node<_LONGDATA>,_STL::allocator<_STL::_List_node<_LONGDATA> > >::~_STLP_alloc_proxy<_STL::_List_node<_LONGDATA> *,_STL::_List_node<_LONGDATA>,_STL::allocator<_STL::_List_node<_LONGDATA> > >, COMDAT
; _this$ = ecx
  00000	c3		 ret	 0
??1?$_STLP_alloc_proxy@PAU?$_List_node@U_LONGDATA@@@_STL@@U12@V?$allocator@U?$_List_node@U_LONGDATA@@@_STL@@@2@@_STL@@QAE@XZ ENDP ; _STL::_STLP_alloc_proxy<_STL::_List_node<_LONGDATA> *,_STL::_List_node<_LONGDATA>,_STL::allocator<_STL::_List_node<_LONGDATA> > >::~_STLP_alloc_proxy<_STL::_List_node<_LONGDATA> *,_STL::_List_node<_LONGDATA>,_STL::allocator<_STL::_List_node<_LONGDATA> > >
_TEXT	ENDS
PUBLIC	??0?$_STLP_alloc_proxy@PAU?$_List_node@U_SHORTDATA@@@_STL@@U12@V?$allocator@U?$_List_node@U_SHORTDATA@@@_STL@@@2@@_STL@@QAE@ABV?$allocator@U?$_List_node@U_SHORTDATA@@@_STL@@@1@PAU?$_List_node@U_SHORTDATA@@@1@@Z ; _STL::_STLP_alloc_proxy<_STL::_List_node<_SHORTDATA> *,_STL::_List_node<_SHORTDATA>,_STL::allocator<_STL::_List_node<_SHORTDATA> > >::_STLP_alloc_proxy<_STL::_List_node<_SHORTDATA> *,_STL::_List_node<_SHORTDATA>,_STL::allocator<_STL::_List_node<_SHORTDATA> > >
; Function compile flags: /Ogsy
; File c:\stlport-4.6.1\stlport\stl\_alloc.h
;	COMDAT ??0?$_STLP_alloc_proxy@PAU?$_List_node@U_SHORTDATA@@@_STL@@U12@V?$allocator@U?$_List_node@U_SHORTDATA@@@_STL@@@2@@_STL@@QAE@ABV?$allocator@U?$_List_node@U_SHORTDATA@@@_STL@@@1@PAU?$_List_node@U_SHORTDATA@@@1@@Z
_TEXT	SEGMENT
___a$ = 8						; size = 4
___p$ = 12						; size = 4
??0?$_STLP_alloc_proxy@PAU?$_List_node@U_SHORTDATA@@@_STL@@U12@V?$allocator@U?$_List_node@U_SHORTDATA@@@_STL@@@2@@_STL@@QAE@ABV?$allocator@U?$_List_node@U_SHORTDATA@@@_STL@@@1@PAU?$_List_node@U_SHORTDATA@@@1@@Z PROC NEAR ; _STL::_STLP_alloc_proxy<_STL::_List_node<_SHORTDATA> *,_STL::_List_node<_SHORTDATA>,_STL::allocator<_STL::_List_node<_SHORTDATA> > >::_STLP_alloc_proxy<_STL::_List_node<_SHORTDATA> *,_STL::_List_node<_SHORTDATA>,_STL::allocator<_STL::_List_node<_SHORTDATA> > >, COMDAT
; _this$ = ecx

; 487  :   inline _STLP_alloc_proxy(const _MaybeReboundAlloc& __a, _Value __p) : _MaybeReboundAlloc(__a), _M_data(__p) {}

  00000	8b c1		 mov	 eax, ecx
  00002	8b 4c 24 08	 mov	 ecx, DWORD PTR ___p$[esp-4]
  00006	89 08		 mov	 DWORD PTR [eax], ecx
  00008	c2 08 00	 ret	 8
??0?$_STLP_alloc_proxy@PAU?$_List_node@U_SHORTDATA@@@_STL@@U12@V?$allocator@U?$_List_node@U_SHORTDATA@@@_STL@@@2@@_STL@@QAE@ABV?$allocator@U?$_List_node@U_SHORTDATA@@@_STL@@@1@PAU?$_List_node@U_SHORTDATA@@@1@@Z ENDP ; _STL::_STLP_alloc_proxy<_STL::_List_node<_SHORTDATA> *,_STL::_List_node<_SHORTDATA>,_STL::allocator<_STL::_List_node<_SHORTDATA> > >::_STLP_alloc_proxy<_STL::_List_node<_SHORTDATA> *,_STL::_List_node<_SHORTDATA>,_STL::allocator<_STL::_List_node<_SHORTDATA> > >
_TEXT	ENDS
PUBLIC	?allocate@?$allocator@U?$_List_node@U_SHORTDATA@@@_STL@@@_STL@@QAEPAU?$_List_node@U_SHORTDATA@@@2@IPBX@Z ; _STL::allocator<_STL::_List_node<_SHORTDATA> >::allocate
; Function compile flags: /Ogsy
;	COMDAT ?allocate@?$allocator@U?$_List_node@U_SHORTDATA@@@_STL@@@_STL@@QAEPAU?$_List_node@U_SHORTDATA@@@2@IPBX@Z
_TEXT	SEGMENT
___n$ = 8						; size = 4
___formal$ = 12						; size = 4
?allocate@?$allocator@U?$_List_node@U_SHORTDATA@@@_STL@@@_STL@@QAEPAU?$_List_node@U_SHORTDATA@@@2@IPBX@Z PROC NEAR ; _STL::allocator<_STL::_List_node<_SHORTDATA> >::allocate, COMDAT
; _this$ = ecx

; 355  :     return __n != 0 ? __REINTERPRET_CAST(value_type*,__sgi_alloc::allocate(__n * sizeof(value_type))) : 0;

  00000	8b 44 24 04	 mov	 eax, DWORD PTR ___n$[esp-4]
  00004	85 c0		 test	 eax, eax
  00006	74 0f		 je	 SHORT $L103064
  00008	8d 04 40	 lea	 eax, DWORD PTR [eax+eax*2]
  0000b	c1 e0 02	 shl	 eax, 2
  0000e	50		 push	 eax
  0000f	e8 00 00 00 00	 call	 ?allocate@?$__node_alloc@$00$0A@@_STL@@SAPAXI@Z ; _STL::__node_alloc<1,0>::allocate
  00014	59		 pop	 ecx
  00015	eb 02		 jmp	 SHORT $L103065
$L103064:
  00017	33 c0		 xor	 eax, eax
$L103065:

; 356  :   }

  00019	c2 08 00	 ret	 8
?allocate@?$allocator@U?$_List_node@U_SHORTDATA@@@_STL@@@_STL@@QAEPAU?$_List_node@U_SHORTDATA@@@2@IPBX@Z ENDP ; _STL::allocator<_STL::_List_node<_SHORTDATA> >::allocate
_TEXT	ENDS
PUBLIC	?deallocate@?$allocator@U?$_List_node@U_SHORTDATA@@@_STL@@@_STL@@QAEXPAU?$_List_node@U_SHORTDATA@@@2@I@Z ; _STL::allocator<_STL::_List_node<_SHORTDATA> >::deallocate
; Function compile flags: /Ogsy
;	COMDAT ?deallocate@?$allocator@U?$_List_node@U_SHORTDATA@@@_STL@@@_STL@@QAEXPAU?$_List_node@U_SHORTDATA@@@2@I@Z
_TEXT	SEGMENT
___p$ = 8						; size = 4
___n$ = 12						; size = 4
?deallocate@?$allocator@U?$_List_node@U_SHORTDATA@@@_STL@@@_STL@@QAEXPAU?$_List_node@U_SHORTDATA@@@2@I@Z PROC NEAR ; _STL::allocator<_STL::_List_node<_SHORTDATA> >::deallocate, COMDAT
; _this$ = ecx

; 359  :     _STLP_ASSERT( (__p == 0) == (__n == 0) )
; 360  :       if (__p != 0) __sgi_alloc::deallocate((void*)__p, __n * sizeof(value_type));

  00000	83 7c 24 04 00	 cmp	 DWORD PTR ___p$[esp-4], 0
  00005	74 16		 je	 SHORT $L101900
  00007	8b 44 24 08	 mov	 eax, DWORD PTR ___n$[esp-4]
  0000b	8d 04 40	 lea	 eax, DWORD PTR [eax+eax*2]
  0000e	c1 e0 02	 shl	 eax, 2
  00011	50		 push	 eax
  00012	ff 74 24 08	 push	 DWORD PTR ___p$[esp]
  00016	e8 00 00 00 00	 call	 ?deallocate@?$__node_alloc@$00$0A@@_STL@@SAXPAXI@Z ; _STL::__node_alloc<1,0>::deallocate
  0001b	59		 pop	 ecx
  0001c	59		 pop	 ecx
$L101900:

; 361  :   }

  0001d	c2 08 00	 ret	 8
?deallocate@?$allocator@U?$_List_node@U_SHORTDATA@@@_STL@@@_STL@@QAEXPAU?$_List_node@U_SHORTDATA@@@2@I@Z ENDP ; _STL::allocator<_STL::_List_node<_SHORTDATA> >::deallocate
_TEXT	ENDS
PUBLIC	??0?$_STLP_alloc_proxy@PAU?$_List_node@U_LONGDATA@@@_STL@@U12@V?$allocator@U?$_List_node@U_LONGDATA@@@_STL@@@2@@_STL@@QAE@ABV?$allocator@U?$_List_node@U_LONGDATA@@@_STL@@@1@PAU?$_List_node@U_LONGDATA@@@1@@Z ; _STL::_STLP_alloc_proxy<_STL::_List_node<_LONGDATA> *,_STL::_List_node<_LONGDATA>,_STL::allocator<_STL::_List_node<_LONGDATA> > >::_STLP_alloc_proxy<_STL::_List_node<_LONGDATA> *,_STL::_List_node<_LONGDATA>,_STL::allocator<_STL::_List_node<_LONGDATA> > >
; Function compile flags: /Ogsy
;	COMDAT ??0?$_STLP_alloc_proxy@PAU?$_List_node@U_LONGDATA@@@_STL@@U12@V?$allocator@U?$_List_node@U_LONGDATA@@@_STL@@@2@@_STL@@QAE@ABV?$allocator@U?$_List_node@U_LONGDATA@@@_STL@@@1@PAU?$_List_node@U_LONGDATA@@@1@@Z
_TEXT	SEGMENT
___a$ = 8						; size = 4
___p$ = 12						; size = 4
??0?$_STLP_alloc_proxy@PAU?$_List_node@U_LONGDATA@@@_STL@@U12@V?$allocator@U?$_List_node@U_LONGDATA@@@_STL@@@2@@_STL@@QAE@ABV?$allocator@U?$_List_node@U_LONGDATA@@@_STL@@@1@PAU?$_List_node@U_LONGDATA@@@1@@Z PROC NEAR ; _STL::_STLP_alloc_proxy<_STL::_List_node<_LONGDATA> *,_STL::_List_node<_LONGDATA>,_STL::allocator<_STL::_List_node<_LONGDATA> > >::_STLP_alloc_proxy<_STL::_List_node<_LONGDATA> *,_STL::_List_node<_LONGDATA>,_STL::allocator<_STL::_List_node<_LONGDATA> > >, COMDAT
; _this$ = ecx

; 487  :   inline _STLP_alloc_proxy(const _MaybeReboundAlloc& __a, _Value __p) : _MaybeReboundAlloc(__a), _M_data(__p) {}

  00000	8b c1		 mov	 eax, ecx
  00002	8b 4c 24 08	 mov	 ecx, DWORD PTR ___p$[esp-4]
  00006	89 08		 mov	 DWORD PTR [eax], ecx
  00008	c2 08 00	 ret	 8
??0?$_STLP_alloc_proxy@PAU?$_List_node@U_LONGDATA@@@_STL@@U12@V?$allocator@U?$_List_node@U_LONGDATA@@@_STL@@@2@@_STL@@QAE@ABV?$allocator@U?$_List_node@U_LONGDATA@@@_STL@@@1@PAU?$_List_node@U_LONGDATA@@@1@@Z ENDP ; _STL::_STLP_alloc_proxy<_STL::_List_node<_LONGDATA> *,_STL::_List_node<_LONGDATA>,_STL::allocator<_STL::_List_node<_LONGDATA> > >::_STLP_alloc_proxy<_STL::_List_node<_LONGDATA> *,_STL::_List_node<_LONGDATA>,_STL::allocator<_STL::_List_node<_LONGDATA> > >
_TEXT	ENDS
PUBLIC	?allocate@?$allocator@U?$_List_node@U_LONGDATA@@@_STL@@@_STL@@QAEPAU?$_List_node@U_LONGDATA@@@2@IPBX@Z ; _STL::allocator<_STL::_List_node<_LONGDATA> >::allocate
; Function compile flags: /Ogsy
;	COMDAT ?allocate@?$allocator@U?$_List_node@U_LONGDATA@@@_STL@@@_STL@@QAEPAU?$_List_node@U_LONGDATA@@@2@IPBX@Z
_TEXT	SEGMENT
___n$ = 8						; size = 4
___formal$ = 12						; size = 4
?allocate@?$allocator@U?$_List_node@U_LONGDATA@@@_STL@@@_STL@@QAEPAU?$_List_node@U_LONGDATA@@@2@IPBX@Z PROC NEAR ; _STL::allocator<_STL::_List_node<_LONGDATA> >::allocate, COMDAT
; _this$ = ecx

; 355  :     return __n != 0 ? __REINTERPRET_CAST(value_type*,__sgi_alloc::allocate(__n * sizeof(value_type))) : 0;

  00000	8b 44 24 04	 mov	 eax, DWORD PTR ___n$[esp-4]
  00004	85 c0		 test	 eax, eax
  00006	74 0c		 je	 SHORT $L103075
  00008	c1 e0 04	 shl	 eax, 4
  0000b	50		 push	 eax
  0000c	e8 00 00 00 00	 call	 ?allocate@?$__node_alloc@$00$0A@@_STL@@SAPAXI@Z ; _STL::__node_alloc<1,0>::allocate
  00011	59		 pop	 ecx
  00012	eb 02		 jmp	 SHORT $L103076
$L103075:
  00014	33 c0		 xor	 eax, eax
$L103076:

; 356  :   }

  00016	c2 08 00	 ret	 8
?allocate@?$allocator@U?$_List_node@U_LONGDATA@@@_STL@@@_STL@@QAEPAU?$_List_node@U_LONGDATA@@@2@IPBX@Z ENDP ; _STL::allocator<_STL::_List_node<_LONGDATA> >::allocate
_TEXT	ENDS
PUBLIC	?deallocate@?$allocator@U?$_List_node@U_LONGDATA@@@_STL@@@_STL@@QAEXPAU?$_List_node@U_LONGDATA@@@2@I@Z ; _STL::allocator<_STL::_List_node<_LONGDATA> >::deallocate
; Function compile flags: /Ogsy
;	COMDAT ?deallocate@?$allocator@U?$_List_node@U_LONGDATA@@@_STL@@@_STL@@QAEXPAU?$_List_node@U_LONGDATA@@@2@I@Z
_TEXT	SEGMENT
___p$ = 8						; size = 4
___n$ = 12						; size = 4
?deallocate@?$allocator@U?$_List_node@U_LONGDATA@@@_STL@@@_STL@@QAEXPAU?$_List_node@U_LONGDATA@@@2@I@Z PROC NEAR ; _STL::allocator<_STL::_List_node<_LONGDATA> >::deallocate, COMDAT
; _this$ = ecx

; 359  :     _STLP_ASSERT( (__p == 0) == (__n == 0) )
; 360  :       if (__p != 0) __sgi_alloc::deallocate((void*)__p, __n * sizeof(value_type));

  00000	83 7c 24 04 00	 cmp	 DWORD PTR ___p$[esp-4], 0
  00005	74 13		 je	 SHORT $L101926
  00007	8b 44 24 08	 mov	 eax, DWORD PTR ___n$[esp-4]
  0000b	c1 e0 04	 shl	 eax, 4
  0000e	50		 push	 eax
  0000f	ff 74 24 08	 push	 DWORD PTR ___p$[esp]
  00013	e8 00 00 00 00	 call	 ?deallocate@?$__node_alloc@$00$0A@@_STL@@SAXPAXI@Z ; _STL::__node_alloc<1,0>::deallocate
  00018	59		 pop	 ecx
  00019	59		 pop	 ecx
$L101926:

; 361  :   }

  0001a	c2 08 00	 ret	 8
?deallocate@?$allocator@U?$_List_node@U_LONGDATA@@@_STL@@@_STL@@QAEXPAU?$_List_node@U_LONGDATA@@@2@I@Z ENDP ; _STL::allocator<_STL::_List_node<_LONGDATA> >::deallocate
_TEXT	ENDS
PUBLIC	??0?$_List_iterator@U_SHORTDATA@@U?$_Nonconst_traits@U_SHORTDATA@@@_STL@@@_STL@@QAE@PAU?$_List_node@U_SHORTDATA@@@1@@Z ; _STL::_List_iterator<_SHORTDATA,_STL::_Nonconst_traits<_SHORTDATA> >::_List_iterator<_SHORTDATA,_STL::_Nonconst_traits<_SHORTDATA> >
; Function compile flags: /Ogsy
; File c:\stlport-4.6.1\stlport\stl\_list.h
;	COMDAT ??0?$_List_iterator@U_SHORTDATA@@U?$_Nonconst_traits@U_SHORTDATA@@@_STL@@@_STL@@QAE@PAU?$_List_node@U_SHORTDATA@@@1@@Z
_TEXT	SEGMENT
___x$ = 8						; size = 4
??0?$_List_iterator@U_SHORTDATA@@U?$_Nonconst_traits@U_SHORTDATA@@@_STL@@@_STL@@QAE@PAU?$_List_node@U_SHORTDATA@@@1@@Z PROC NEAR ; _STL::_List_iterator<_SHORTDATA,_STL::_Nonconst_traits<_SHORTDATA> >::_List_iterator<_SHORTDATA,_STL::_Nonconst_traits<_SHORTDATA> >, COMDAT
; _this$ = ecx

; 126  :   _List_iterator(_Node* __x) : _List_iterator_base(__x) {}

  00000	8b c1		 mov	 eax, ecx
  00002	8b 4c 24 04	 mov	 ecx, DWORD PTR ___x$[esp-4]
  00006	89 08		 mov	 DWORD PTR [eax], ecx
  00008	c2 04 00	 ret	 4
??0?$_List_iterator@U_SHORTDATA@@U?$_Nonconst_traits@U_SHORTDATA@@@_STL@@@_STL@@QAE@PAU?$_List_node@U_SHORTDATA@@@1@@Z ENDP ; _STL::_List_iterator<_SHORTDATA,_STL::_Nonconst_traits<_SHORTDATA> >::_List_iterator<_SHORTDATA,_STL::_Nonconst_traits<_SHORTDATA> >
_TEXT	ENDS
PUBLIC	??0?$_List_iterator@U_LONGDATA@@U?$_Nonconst_traits@U_LONGDATA@@@_STL@@@_STL@@QAE@PAU?$_List_node@U_LONGDATA@@@1@@Z ; _STL::_List_iterator<_LONGDATA,_STL::_Nonconst_traits<_LONGDATA> >::_List_iterator<_LONGDATA,_STL::_Nonconst_traits<_LONGDATA> >
; Function compile flags: /Ogsy
;	COMDAT ??0?$_List_iterator@U_LONGDATA@@U?$_Nonconst_traits@U_LONGDATA@@@_STL@@@_STL@@QAE@PAU?$_List_node@U_LONGDATA@@@1@@Z
_TEXT	SEGMENT
___x$ = 8						; size = 4
??0?$_List_iterator@U_LONGDATA@@U?$_Nonconst_traits@U_LONGDATA@@@_STL@@@_STL@@QAE@PAU?$_List_node@U_LONGDATA@@@1@@Z PROC NEAR ; _STL::_List_iterator<_LONGDATA,_STL::_Nonconst_traits<_LONGDATA> >::_List_iterator<_LONGDATA,_STL::_Nonconst_traits<_LONGDATA> >, COMDAT
; _this$ = ecx

; 126  :   _List_iterator(_Node* __x) : _List_iterator_base(__x) {}

  00000	8b c1		 mov	 eax, ecx
  00002	8b 4c 24 04	 mov	 ecx, DWORD PTR ___x$[esp-4]
  00006	89 08		 mov	 DWORD PTR [eax], ecx
  00008	c2 04 00	 ret	 4
??0?$_List_iterator@U_LONGDATA@@U?$_Nonconst_traits@U_LONGDATA@@@_STL@@@_STL@@QAE@PAU?$_List_node@U_LONGDATA@@@1@@Z ENDP ; _STL::_List_iterator<_LONGDATA,_STL::_Nonconst_traits<_LONGDATA> >::_List_iterator<_LONGDATA,_STL::_Nonconst_traits<_LONGDATA> >
_TEXT	ENDS
PUBLIC	?clear@?$_List_base@U_SHORTDATA@@V?$allocator@U_SHORTDATA@@@_STL@@@_STL@@QAEXXZ ; _STL::_List_base<_SHORTDATA,_STL::allocator<_SHORTDATA> >::clear
; Function compile flags: /Ogsy
; File c:\stlport-4.6.1\stlport\stl\_list.c
;	COMDAT ?clear@?$_List_base@U_SHORTDATA@@V?$allocator@U_SHORTDATA@@@_STL@@@_STL@@QAEXXZ
_TEXT	SEGMENT
?clear@?$_List_base@U_SHORTDATA@@V?$allocator@U_SHORTDATA@@@_STL@@@_STL@@QAEXXZ PROC NEAR ; _STL::_List_base<_SHORTDATA,_STL::allocator<_SHORTDATA> >::clear, COMDAT
; _this$ = ecx

; 68   : {

  00000	56		 push	 esi
  00001	57		 push	 edi
  00002	8b f9		 mov	 edi, ecx

; 69   :   _List_node<_Tp>* __cur = (_List_node<_Tp>*) this->_M_node._M_data->_M_next;

  00004	8b 07		 mov	 eax, DWORD PTR [edi]
  00006	8b 30		 mov	 esi, DWORD PTR [eax]

; 70   :   while (__cur != this->_M_node._M_data) {

  00008	3b f0		 cmp	 esi, eax
  0000a	74 12		 je	 SHORT $L102093
$L102092:

; 71   :     _List_node<_Tp>* __tmp = __cur;

  0000c	8b c6		 mov	 eax, esi

; 72   :     __cur = (_List_node<_Tp>*) __cur->_M_next;

  0000e	8b 36		 mov	 esi, DWORD PTR [esi]

; 73   :     _STLP_STD::_Destroy(&__tmp->_M_data);
; 74   :     this->_M_node.deallocate(__tmp, 1);

  00010	6a 01		 push	 1
  00012	50		 push	 eax
  00013	8b cf		 mov	 ecx, edi
  00015	e8 00 00 00 00	 call	 ?deallocate@?$allocator@U?$_List_node@U_SHORTDATA@@@_STL@@@_STL@@QAEXPAU?$_List_node@U_SHORTDATA@@@2@I@Z ; _STL::allocator<_STL::_List_node<_SHORTDATA> >::deallocate
  0001a	3b 37		 cmp	 esi, DWORD PTR [edi]
  0001c	75 ee		 jne	 SHORT $L102092
$L102093:

; 75   :   }
; 76   :   this->_M_node._M_data->_M_next = this->_M_node._M_data;

  0001e	8b 07		 mov	 eax, DWORD PTR [edi]
  00020	89 00		 mov	 DWORD PTR [eax], eax

; 77   :   this->_M_node._M_data->_M_prev = this->_M_node._M_data;

  00022	8b 3f		 mov	 edi, DWORD PTR [edi]
  00024	89 7f 04	 mov	 DWORD PTR [edi+4], edi
  00027	5f		 pop	 edi
  00028	5e		 pop	 esi

; 78   : }

  00029	c3		 ret	 0
?clear@?$_List_base@U_SHORTDATA@@V?$allocator@U_SHORTDATA@@@_STL@@@_STL@@QAEXXZ ENDP ; _STL::_List_base<_SHORTDATA,_STL::allocator<_SHORTDATA> >::clear
_TEXT	ENDS
PUBLIC	?clear@?$_List_base@U_LONGDATA@@V?$allocator@U_LONGDATA@@@_STL@@@_STL@@QAEXXZ ; _STL::_List_base<_LONGDATA,_STL::allocator<_LONGDATA> >::clear
; Function compile flags: /Ogsy
;	COMDAT ?clear@?$_List_base@U_LONGDATA@@V?$allocator@U_LONGDATA@@@_STL@@@_STL@@QAEXXZ
_TEXT	SEGMENT
?clear@?$_List_base@U_LONGDATA@@V?$allocator@U_LONGDATA@@@_STL@@@_STL@@QAEXXZ PROC NEAR ; _STL::_List_base<_LONGDATA,_STL::allocator<_LONGDATA> >::clear, COMDAT
; _this$ = ecx

; 68   : {

  00000	56		 push	 esi
  00001	57		 push	 edi
  00002	8b f9		 mov	 edi, ecx

; 69   :   _List_node<_Tp>* __cur = (_List_node<_Tp>*) this->_M_node._M_data->_M_next;

  00004	8b 07		 mov	 eax, DWORD PTR [edi]
  00006	8b 30		 mov	 esi, DWORD PTR [eax]

; 70   :   while (__cur != this->_M_node._M_data) {

  00008	3b f0		 cmp	 esi, eax
  0000a	74 12		 je	 SHORT $L102105
$L102104:

; 71   :     _List_node<_Tp>* __tmp = __cur;

  0000c	8b c6		 mov	 eax, esi

; 72   :     __cur = (_List_node<_Tp>*) __cur->_M_next;

  0000e	8b 36		 mov	 esi, DWORD PTR [esi]

; 73   :     _STLP_STD::_Destroy(&__tmp->_M_data);
; 74   :     this->_M_node.deallocate(__tmp, 1);

  00010	6a 01		 push	 1
  00012	50		 push	 eax
  00013	8b cf		 mov	 ecx, edi
  00015	e8 00 00 00 00	 call	 ?deallocate@?$allocator@U?$_List_node@U_LONGDATA@@@_STL@@@_STL@@QAEXPAU?$_List_node@U_LONGDATA@@@2@I@Z ; _STL::allocator<_STL::_List_node<_LONGDATA> >::deallocate
  0001a	3b 37		 cmp	 esi, DWORD PTR [edi]
  0001c	75 ee		 jne	 SHORT $L102104
$L102105:

; 75   :   }
; 76   :   this->_M_node._M_data->_M_next = this->_M_node._M_data;

  0001e	8b 07		 mov	 eax, DWORD PTR [edi]
  00020	89 00		 mov	 DWORD PTR [eax], eax

; 77   :   this->_M_node._M_data->_M_prev = this->_M_node._M_data;

  00022	8b 3f		 mov	 edi, DWORD PTR [edi]
  00024	89 7f 04	 mov	 DWORD PTR [edi+4], edi
  00027	5f		 pop	 edi
  00028	5e		 pop	 esi

; 78   : }

  00029	c3		 ret	 0
?clear@?$_List_base@U_LONGDATA@@V?$allocator@U_LONGDATA@@@_STL@@@_STL@@QAEXXZ ENDP ; _STL::_List_base<_LONGDATA,_STL::allocator<_LONGDATA> >::clear
_TEXT	ENDS
PUBLIC	??$distance@PBD@_STL@@YAHABQBD0@Z		; _STL::distance<char const *>
; Function compile flags: /Ogsy
; File c:\stlport-4.6.1\stlport\stl\_iterator_base.h
;	COMDAT ??$distance@PBD@_STL@@YAHABQBD0@Z
_TEXT	SEGMENT
___first$ = 8						; size = 4
___last$ = 12						; size = 4
??$distance@PBD@_STL@@YAHABQBD0@Z PROC NEAR		; _STL::distance<char const *>, COMDAT

; 369  :   return __distance(__first, __last, _STLP_ITERATOR_CATEGORY(__first, _InputIterator));  

  00000	8b 44 24 08	 mov	 eax, DWORD PTR ___last$[esp-4]
  00004	8b 00		 mov	 eax, DWORD PTR [eax]
  00006	8b 4c 24 04	 mov	 ecx, DWORD PTR ___first$[esp-4]
  0000a	2b 01		 sub	 eax, DWORD PTR [ecx]

; 370  : }

  0000c	c3		 ret	 0
??$distance@PBD@_STL@@YAHABQBD0@Z ENDP			; _STL::distance<char const *>
_TEXT	ENDS
PUBLIC	?_M_allocate_block@?$_String_base@DV?$allocator@D@_STL@@@_STL@@QAEXI@Z ; _STL::_String_base<char,_STL::allocator<char> >::_M_allocate_block
; Function compile flags: /Ogsy
; File c:\stlport-4.6.1\stlport\stl\_string.c
;	COMDAT ?_M_allocate_block@?$_String_base@DV?$allocator@D@_STL@@@_STL@@QAEXI@Z
_TEXT	SEGMENT
___n$ = 8						; size = 4
?_M_allocate_block@?$_String_base@DV?$allocator@D@_STL@@@_STL@@QAEXI@Z PROC NEAR ; _STL::_String_base<char,_STL::allocator<char> >::_M_allocate_block, COMDAT
; _this$ = ecx

; 530  : template <class _Tp, class _Alloc> void _String_base<_Tp, _Alloc>::_M_allocate_block(size_t __n) {  

  00000	56		 push	 esi
  00001	57		 push	 edi

; 531  :   if ((__n <= (max_size()+1)) && (__n>0)){ 

  00002	8b 7c 24 0c	 mov	 edi, DWORD PTR ___n$[esp+4]
  00006	83 ff ff	 cmp	 edi, -1
  00009	8b f1		 mov	 esi, ecx
  0000b	77 17		 ja	 SHORT $L102268
  0000d	85 ff		 test	 edi, edi
  0000f	76 13		 jbe	 SHORT $L102268

; 532  :     _M_start  = _M_end_of_storage.allocate(__n); 

  00011	57		 push	 edi
  00012	e8 00 00 00 00	 call	 ?allocate@?$__node_alloc@$00$0A@@_STL@@SAPAXI@Z ; _STL::__node_alloc<1,0>::allocate
  00017	89 06		 mov	 DWORD PTR [esi], eax

; 533  :     _M_finish = _M_start; 

  00019	89 46 04	 mov	 DWORD PTR [esi+4], eax

; 534  :     _M_end_of_storage._M_data = _M_start + __n; 

  0001c	03 c7		 add	 eax, edi
  0001e	59		 pop	 ecx
  0001f	89 46 08	 mov	 DWORD PTR [esi+8], eax

; 535  :   } 
; 536  :     else 

  00022	eb 07		 jmp	 SHORT $L102269
$L102268:

; 537  :       _M_throw_length_error(); 

  00024	8b ce		 mov	 ecx, esi
  00026	e8 00 00 00 00	 call	 ?_M_throw_length_error@?$_String_base@DV?$allocator@D@_STL@@@_STL@@QBEXXZ ; _STL::_String_base<char,_STL::allocator<char> >::_M_throw_length_error
$L102269:
  0002b	5f		 pop	 edi
  0002c	5e		 pop	 esi

; 538  : } 

  0002d	c2 04 00	 ret	 4
?_M_allocate_block@?$_String_base@DV?$allocator@D@_STL@@@_STL@@QAEXI@Z ENDP ; _STL::_String_base<char,_STL::allocator<char> >::_M_allocate_block
_TEXT	ENDS
PUBLIC	?deallocate@?$allocator@D@_STL@@QAEXPADI@Z	; _STL::allocator<char>::deallocate
; Function compile flags: /Ogsy
; File c:\stlport-4.6.1\stlport\stl\_alloc.h
;	COMDAT ?deallocate@?$allocator@D@_STL@@QAEXPADI@Z
_TEXT	SEGMENT
___p$ = 8						; size = 4
___n$ = 12						; size = 4
?deallocate@?$allocator@D@_STL@@QAEXPADI@Z PROC NEAR	; _STL::allocator<char>::deallocate, COMDAT
; _this$ = ecx

; 359  :     _STLP_ASSERT( (__p == 0) == (__n == 0) )
; 360  :       if (__p != 0) __sgi_alloc::deallocate((void*)__p, __n * sizeof(value_type));

  00000	83 7c 24 04 00	 cmp	 DWORD PTR ___p$[esp-4], 0
  00005	74 0f		 je	 SHORT $L98663
  00007	ff 74 24 08	 push	 DWORD PTR ___n$[esp-4]
  0000b	ff 74 24 08	 push	 DWORD PTR ___p$[esp]
  0000f	e8 00 00 00 00	 call	 ?deallocate@?$__node_alloc@$00$0A@@_STL@@SAXPAXI@Z ; _STL::__node_alloc<1,0>::deallocate
  00014	59		 pop	 ecx
  00015	59		 pop	 ecx
$L98663:

; 361  :   }

  00016	c2 08 00	 ret	 8
?deallocate@?$allocator@D@_STL@@QAEXPADI@Z ENDP		; _STL::allocator<char>::deallocate
_TEXT	ENDS
PUBLIC	??0?$_String_base@DV?$allocator@D@_STL@@@_STL@@QAE@ABV?$allocator@D@1@@Z ; _STL::_String_base<char,_STL::allocator<char> >::_String_base<char,_STL::allocator<char> >
; Function compile flags: /Ogsy
; File c:\stlport-4.6.1\stlport\stl\_string.h
;	COMDAT ??0?$_String_base@DV?$allocator@D@_STL@@@_STL@@QAE@ABV?$allocator@D@1@@Z
_TEXT	SEGMENT
___a$ = 8						; size = 4
??0?$_String_base@DV?$allocator@D@_STL@@@_STL@@QAE@ABV?$allocator@D@1@@Z PROC NEAR ; _STL::_String_base<char,_STL::allocator<char> >::_String_base<char,_STL::allocator<char> >, COMDAT
; _this$ = ecx

; 129  :     : _M_start(0), _M_finish(0), _M_end_of_storage(__a, (_Tp*)0) {}

  00000	56		 push	 esi
  00001	33 c0		 xor	 eax, eax
  00003	8b f1		 mov	 esi, ecx
  00005	50		 push	 eax
  00006	ff 74 24 0c	 push	 DWORD PTR ___a$[esp+4]
  0000a	8d 4e 08	 lea	 ecx, DWORD PTR [esi+8]
  0000d	89 06		 mov	 DWORD PTR [esi], eax
  0000f	89 46 04	 mov	 DWORD PTR [esi+4], eax
  00012	e8 00 00 00 00	 call	 ??0?$_STLP_alloc_proxy@PADDV?$allocator@D@_STL@@@_STL@@QAE@ABV?$allocator@D@1@PAD@Z ; _STL::_STLP_alloc_proxy<char *,char,_STL::allocator<char> >::_STLP_alloc_proxy<char *,char,_STL::allocator<char> >
  00017	8b c6		 mov	 eax, esi
  00019	5e		 pop	 esi
  0001a	c2 04 00	 ret	 4
??0?$_String_base@DV?$allocator@D@_STL@@@_STL@@QAE@ABV?$allocator@D@1@@Z ENDP ; _STL::_String_base<char,_STL::allocator<char> >::_String_base<char,_STL::allocator<char> >
_TEXT	ENDS
PUBLIC	?begin@?$list@U_SHORTDATA@@V?$allocator@U_SHORTDATA@@@_STL@@@_STL@@QBE?AU?$_List_iterator@U_SHORTDATA@@U?$_Const_traits@U_SHORTDATA@@@_STL@@@2@XZ ; _STL::list<_SHORTDATA,_STL::allocator<_SHORTDATA> >::begin
; Function compile flags: /Ogsy
; File c:\stlport-4.6.1\stlport\stl\_list.h
;	COMDAT ?begin@?$list@U_SHORTDATA@@V?$allocator@U_SHORTDATA@@@_STL@@@_STL@@QBE?AU?$_List_iterator@U_SHORTDATA@@U?$_Const_traits@U_SHORTDATA@@@_STL@@@2@XZ
_TEXT	SEGMENT
___$ReturnUdt$ = 8					; size = 4
?begin@?$list@U_SHORTDATA@@V?$allocator@U_SHORTDATA@@@_STL@@@_STL@@QBE?AU?$_List_iterator@U_SHORTDATA@@U?$_Const_traits@U_SHORTDATA@@@_STL@@@2@XZ PROC NEAR ; _STL::list<_SHORTDATA,_STL::allocator<_SHORTDATA> >::begin, COMDAT
; _this$ = ecx

; 267  :   const_iterator begin() const { return const_iterator((_Node*)(this->_M_node._M_data->_M_next)); }

  00000	8b 01		 mov	 eax, DWORD PTR [ecx]
  00002	8b 08		 mov	 ecx, DWORD PTR [eax]
  00004	8b 44 24 04	 mov	 eax, DWORD PTR ___$ReturnUdt$[esp-4]
  00008	89 08		 mov	 DWORD PTR [eax], ecx
  0000a	c2 04 00	 ret	 4
?begin@?$list@U_SHORTDATA@@V?$allocator@U_SHORTDATA@@@_STL@@@_STL@@QBE?AU?$_List_iterator@U_SHORTDATA@@U?$_Const_traits@U_SHORTDATA@@@_STL@@@2@XZ ENDP ; _STL::list<_SHORTDATA,_STL::allocator<_SHORTDATA> >::begin
_TEXT	ENDS
PUBLIC	?end@?$list@U_SHORTDATA@@V?$allocator@U_SHORTDATA@@@_STL@@@_STL@@QBE?AU?$_List_iterator@U_SHORTDATA@@U?$_Const_traits@U_SHORTDATA@@@_STL@@@2@XZ ; _STL::list<_SHORTDATA,_STL::allocator<_SHORTDATA> >::end
; Function compile flags: /Ogsy
;	COMDAT ?end@?$list@U_SHORTDATA@@V?$allocator@U_SHORTDATA@@@_STL@@@_STL@@QBE?AU?$_List_iterator@U_SHORTDATA@@U?$_Const_traits@U_SHORTDATA@@@_STL@@@2@XZ
_TEXT	SEGMENT
___$ReturnUdt$ = 8					; size = 4
?end@?$list@U_SHORTDATA@@V?$allocator@U_SHORTDATA@@@_STL@@@_STL@@QBE?AU?$_List_iterator@U_SHORTDATA@@U?$_Const_traits@U_SHORTDATA@@@_STL@@@2@XZ PROC NEAR ; _STL::list<_SHORTDATA,_STL::allocator<_SHORTDATA> >::end, COMDAT
; _this$ = ecx

; 270  :   const_iterator end() const { return this->_M_node._M_data; }

  00000	8b 09		 mov	 ecx, DWORD PTR [ecx]
  00002	8b 44 24 04	 mov	 eax, DWORD PTR ___$ReturnUdt$[esp-4]
  00006	89 08		 mov	 DWORD PTR [eax], ecx
  00008	c2 04 00	 ret	 4
?end@?$list@U_SHORTDATA@@V?$allocator@U_SHORTDATA@@@_STL@@@_STL@@QBE?AU?$_List_iterator@U_SHORTDATA@@U?$_Const_traits@U_SHORTDATA@@@_STL@@@2@XZ ENDP ; _STL::list<_SHORTDATA,_STL::allocator<_SHORTDATA> >::end
_TEXT	ENDS
PUBLIC	?begin@?$list@U_LONGDATA@@V?$allocator@U_LONGDATA@@@_STL@@@_STL@@QBE?AU?$_List_iterator@U_LONGDATA@@U?$_Const_traits@U_LONGDATA@@@_STL@@@2@XZ ; _STL::list<_LONGDATA,_STL::allocator<_LONGDATA> >::begin
; Function compile flags: /Ogsy
;	COMDAT ?begin@?$list@U_LONGDATA@@V?$allocator@U_LONGDATA@@@_STL@@@_STL@@QBE?AU?$_List_iterator@U_LONGDATA@@U?$_Const_traits@U_LONGDATA@@@_STL@@@2@XZ
_TEXT	SEGMENT
___$ReturnUdt$ = 8					; size = 4
?begin@?$list@U_LONGDATA@@V?$allocator@U_LONGDATA@@@_STL@@@_STL@@QBE?AU?$_List_iterator@U_LONGDATA@@U?$_Const_traits@U_LONGDATA@@@_STL@@@2@XZ PROC NEAR ; _STL::list<_LONGDATA,_STL::allocator<_LONGDATA> >::begin, COMDAT
; _this$ = ecx

; 267  :   const_iterator begin() const { return const_iterator((_Node*)(this->_M_node._M_data->_M_next)); }

  00000	8b 01		 mov	 eax, DWORD PTR [ecx]
  00002	8b 08		 mov	 ecx, DWORD PTR [eax]
  00004	8b 44 24 04	 mov	 eax, DWORD PTR ___$ReturnUdt$[esp-4]
  00008	89 08		 mov	 DWORD PTR [eax], ecx
  0000a	c2 04 00	 ret	 4
?begin@?$list@U_LONGDATA@@V?$allocator@U_LONGDATA@@@_STL@@@_STL@@QBE?AU?$_List_iterator@U_LONGDATA@@U?$_Const_traits@U_LONGDATA@@@_STL@@@2@XZ ENDP ; _STL::list<_LONGDATA,_STL::allocator<_LONGDATA> >::begin
_TEXT	ENDS
PUBLIC	?end@?$list@U_LONGDATA@@V?$allocator@U_LONGDATA@@@_STL@@@_STL@@QBE?AU?$_List_iterator@U_LONGDATA@@U?$_Const_traits@U_LONGDATA@@@_STL@@@2@XZ ; _STL::list<_LONGDATA,_STL::allocator<_LONGDATA> >::end
; Function compile flags: /Ogsy
;	COMDAT ?end@?$list@U_LONGDATA@@V?$allocator@U_LONGDATA@@@_STL@@@_STL@@QBE?AU?$_List_iterator@U_LONGDATA@@U?$_Const_traits@U_LONGDATA@@@_STL@@@2@XZ
_TEXT	SEGMENT
___$ReturnUdt$ = 8					; size = 4
?end@?$list@U_LONGDATA@@V?$allocator@U_LONGDATA@@@_STL@@@_STL@@QBE?AU?$_List_iterator@U_LONGDATA@@U?$_Const_traits@U_LONGDATA@@@_STL@@@2@XZ PROC NEAR ; _STL::list<_LONGDATA,_STL::allocator<_LONGDATA> >::end, COMDAT
; _this$ = ecx

; 270  :   const_iterator end() const { return this->_M_node._M_data; }

  00000	8b 09		 mov	 ecx, DWORD PTR [ecx]
  00002	8b 44 24 04	 mov	 eax, DWORD PTR ___$ReturnUdt$[esp-4]
  00006	89 08		 mov	 DWORD PTR [eax], ecx
  00008	c2 04 00	 ret	 4
?end@?$list@U_LONGDATA@@V?$allocator@U_LONGDATA@@@_STL@@@_STL@@QBE?AU?$_List_iterator@U_LONGDATA@@U?$_Const_traits@U_LONGDATA@@@_STL@@@2@XZ ENDP ; _STL::list<_LONGDATA,_STL::allocator<_LONGDATA> >::end
_TEXT	ENDS
PUBLIC	?begin@?$list@U_SHORTDATA@@V?$allocator@U_SHORTDATA@@@_STL@@@_STL@@QAE?AU?$_List_iterator@U_SHORTDATA@@U?$_Nonconst_traits@U_SHORTDATA@@@_STL@@@2@XZ ; _STL::list<_SHORTDATA,_STL::allocator<_SHORTDATA> >::begin
; Function compile flags: /Ogsy
;	COMDAT ?begin@?$list@U_SHORTDATA@@V?$allocator@U_SHORTDATA@@@_STL@@@_STL@@QAE?AU?$_List_iterator@U_SHORTDATA@@U?$_Nonconst_traits@U_SHORTDATA@@@_STL@@@2@XZ
_TEXT	SEGMENT
___$ReturnUdt$ = 8					; size = 4
?begin@?$list@U_SHORTDATA@@V?$allocator@U_SHORTDATA@@@_STL@@@_STL@@QAE?AU?$_List_iterator@U_SHORTDATA@@U?$_Nonconst_traits@U_SHORTDATA@@@_STL@@@2@XZ PROC NEAR ; _STL::list<_SHORTDATA,_STL::allocator<_SHORTDATA> >::begin, COMDAT
; _this$ = ecx

; 266  :   iterator begin()             { return iterator((_Node*)(this->_M_node._M_data->_M_next)); }

  00000	8b 01		 mov	 eax, DWORD PTR [ecx]
  00002	8b 08		 mov	 ecx, DWORD PTR [eax]
  00004	8b 44 24 04	 mov	 eax, DWORD PTR ___$ReturnUdt$[esp-4]
  00008	89 08		 mov	 DWORD PTR [eax], ecx
  0000a	c2 04 00	 ret	 4
?begin@?$list@U_SHORTDATA@@V?$allocator@U_SHORTDATA@@@_STL@@@_STL@@QAE?AU?$_List_iterator@U_SHORTDATA@@U?$_Nonconst_traits@U_SHORTDATA@@@_STL@@@2@XZ ENDP ; _STL::list<_SHORTDATA,_STL::allocator<_SHORTDATA> >::begin
_TEXT	ENDS
PUBLIC	?end@?$list@U_SHORTDATA@@V?$allocator@U_SHORTDATA@@@_STL@@@_STL@@QAE?AU?$_List_iterator@U_SHORTDATA@@U?$_Nonconst_traits@U_SHORTDATA@@@_STL@@@2@XZ ; _STL::list<_SHORTDATA,_STL::allocator<_SHORTDATA> >::end
; Function compile flags: /Ogsy
;	COMDAT ?end@?$list@U_SHORTDATA@@V?$allocator@U_SHORTDATA@@@_STL@@@_STL@@QAE?AU?$_List_iterator@U_SHORTDATA@@U?$_Nonconst_traits@U_SHORTDATA@@@_STL@@@2@XZ
_TEXT	SEGMENT
___$ReturnUdt$ = 8					; size = 4
?end@?$list@U_SHORTDATA@@V?$allocator@U_SHORTDATA@@@_STL@@@_STL@@QAE?AU?$_List_iterator@U_SHORTDATA@@U?$_Nonconst_traits@U_SHORTDATA@@@_STL@@@2@XZ PROC NEAR ; _STL::list<_SHORTDATA,_STL::allocator<_SHORTDATA> >::end, COMDAT
; _this$ = ecx

; 269  :   iterator end()             { return this->_M_node._M_data; }

  00000	8b 09		 mov	 ecx, DWORD PTR [ecx]
  00002	8b 44 24 04	 mov	 eax, DWORD PTR ___$ReturnUdt$[esp-4]
  00006	89 08		 mov	 DWORD PTR [eax], ecx
  00008	c2 04 00	 ret	 4
?end@?$list@U_SHORTDATA@@V?$allocator@U_SHORTDATA@@@_STL@@@_STL@@QAE?AU?$_List_iterator@U_SHORTDATA@@U?$_Nonconst_traits@U_SHORTDATA@@@_STL@@@2@XZ ENDP ; _STL::list<_SHORTDATA,_STL::allocator<_SHORTDATA> >::end
_TEXT	ENDS
PUBLIC	?erase@?$list@U_SHORTDATA@@V?$allocator@U_SHORTDATA@@@_STL@@@_STL@@QAE?AU?$_List_iterator@U_SHORTDATA@@U?$_Nonconst_traits@U_SHORTDATA@@@_STL@@@2@U32@@Z ; _STL::list<_SHORTDATA,_STL::allocator<_SHORTDATA> >::erase
; Function compile flags: /Ogsy
;	COMDAT ?erase@?$list@U_SHORTDATA@@V?$allocator@U_SHORTDATA@@@_STL@@@_STL@@QAE?AU?$_List_iterator@U_SHORTDATA@@U?$_Nonconst_traits@U_SHORTDATA@@@_STL@@@2@U32@@Z
_TEXT	SEGMENT
___$ReturnUdt$ = 8					; size = 4
___position$ = 12					; size = 4
?erase@?$list@U_SHORTDATA@@V?$allocator@U_SHORTDATA@@@_STL@@@_STL@@QAE?AU?$_List_iterator@U_SHORTDATA@@U?$_Nonconst_traits@U_SHORTDATA@@@_STL@@@2@U32@@Z PROC NEAR ; _STL::list<_SHORTDATA,_STL::allocator<_SHORTDATA> >::erase, COMDAT
; _this$ = ecx

; 354  :     _List_node_base* __next_node = __position._M_node->_M_next;

  00000	8b 54 24 08	 mov	 edx, DWORD PTR ___position$[esp-4]

; 355  :     _List_node_base* __prev_node = __position._M_node->_M_prev;

  00004	8b 42 04	 mov	 eax, DWORD PTR [edx+4]
  00007	56		 push	 esi
  00008	8b 32		 mov	 esi, DWORD PTR [edx]

; 356  :     _Node* __n = (_Node*) __position._M_node;
; 357  :     __prev_node->_M_next = __next_node;
; 358  :     __next_node->_M_prev = __prev_node;
; 359  :     _STLP_STD::_Destroy(&__n->_M_data);
; 360  :     this->_M_node.deallocate(__n, 1);

  0000a	6a 01		 push	 1
  0000c	89 30		 mov	 DWORD PTR [eax], esi
  0000e	52		 push	 edx
  0000f	89 46 04	 mov	 DWORD PTR [esi+4], eax
  00012	e8 00 00 00 00	 call	 ?deallocate@?$allocator@U?$_List_node@U_SHORTDATA@@@_STL@@@_STL@@QAEXPAU?$_List_node@U_SHORTDATA@@@2@I@Z ; _STL::allocator<_STL::_List_node<_SHORTDATA> >::deallocate

; 361  :     return iterator((_Node*)__next_node);

  00017	8b 44 24 08	 mov	 eax, DWORD PTR ___$ReturnUdt$[esp]
  0001b	89 30		 mov	 DWORD PTR [eax], esi
  0001d	5e		 pop	 esi

; 362  :     }

  0001e	c2 08 00	 ret	 8
?erase@?$list@U_SHORTDATA@@V?$allocator@U_SHORTDATA@@@_STL@@@_STL@@QAE?AU?$_List_iterator@U_SHORTDATA@@U?$_Nonconst_traits@U_SHORTDATA@@@_STL@@@2@U32@@Z ENDP ; _STL::list<_SHORTDATA,_STL::allocator<_SHORTDATA> >::erase
_TEXT	ENDS
PUBLIC	??0?$_List_base@U_SHORTDATA@@V?$allocator@U_SHORTDATA@@@_STL@@@_STL@@QAE@ABV?$allocator@U_SHORTDATA@@@1@@Z ; _STL::_List_base<_SHORTDATA,_STL::allocator<_SHORTDATA> >::_List_base<_SHORTDATA,_STL::allocator<_SHORTDATA> >
; Function compile flags: /Ogsy
;	COMDAT ??0?$_List_base@U_SHORTDATA@@V?$allocator@U_SHORTDATA@@@_STL@@@_STL@@QAE@ABV?$allocator@U_SHORTDATA@@@1@@Z
_TEXT	SEGMENT
$T103223 = -1						; size = 1
___a$ = 8						; size = 4
??0?$_List_base@U_SHORTDATA@@V?$allocator@U_SHORTDATA@@@_STL@@@_STL@@QAE@ABV?$allocator@U_SHORTDATA@@@1@@Z PROC NEAR ; _STL::_List_base<_SHORTDATA,_STL::allocator<_SHORTDATA> >::_List_base<_SHORTDATA,_STL::allocator<_SHORTDATA> >, COMDAT
; _this$ = ecx

; 182  :   _List_base(const allocator_type& __a) : _M_node(_STLP_CONVERT_ALLOCATOR(__a, _Node), (_Node*)0) {

  00000	51		 push	 ecx
  00001	56		 push	 esi
  00002	6a 00		 push	 0
  00004	8d 44 24 0b	 lea	 eax, DWORD PTR $T103223[esp+12]
  00008	50		 push	 eax
  00009	8b f1		 mov	 esi, ecx
  0000b	e8 00 00 00 00	 call	 ??0?$_STLP_alloc_proxy@PAU?$_List_node@U_SHORTDATA@@@_STL@@U12@V?$allocator@U?$_List_node@U_SHORTDATA@@@_STL@@@2@@_STL@@QAE@ABV?$allocator@U?$_List_node@U_SHORTDATA@@@_STL@@@1@PAU?$_List_node@U_SHORTDATA@@@1@@Z ; _STL::_STLP_alloc_proxy<_STL::_List_node<_SHORTDATA> *,_STL::_List_node<_SHORTDATA>,_STL::allocator<_STL::_List_node<_SHORTDATA> > >::_STLP_alloc_proxy<_STL::_List_node<_SHORTDATA> *,_STL::_List_node<_SHORTDATA>,_STL::allocator<_STL::_List_node<_SHORTDATA> > >

; 183  :     _Node* __n = _M_node.allocate(1);

  00010	6a 0c		 push	 12			; 0000000cH
  00012	e8 00 00 00 00	 call	 ?allocate@?$__node_alloc@$00$0A@@_STL@@SAPAXI@Z ; _STL::__node_alloc<1,0>::allocate

; 184  :     __n->_M_next = __n;

  00017	89 00		 mov	 DWORD PTR [eax], eax

; 185  :     __n->_M_prev = __n;

  00019	89 40 04	 mov	 DWORD PTR [eax+4], eax

; 186  :     _M_node._M_data = __n;

  0001c	89 06		 mov	 DWORD PTR [esi], eax
  0001e	59		 pop	 ecx

; 187  :   }

  0001f	8b c6		 mov	 eax, esi
  00021	5e		 pop	 esi
  00022	59		 pop	 ecx
  00023	c2 04 00	 ret	 4
??0?$_List_base@U_SHORTDATA@@V?$allocator@U_SHORTDATA@@@_STL@@@_STL@@QAE@ABV?$allocator@U_SHORTDATA@@@1@@Z ENDP ; _STL::_List_base<_SHORTDATA,_STL::allocator<_SHORTDATA> >::_List_base<_SHORTDATA,_STL::allocator<_SHORTDATA> >
_TEXT	ENDS
PUBLIC	??1?$_List_base@U_SHORTDATA@@V?$allocator@U_SHORTDATA@@@_STL@@@_STL@@QAE@XZ ; _STL::_List_base<_SHORTDATA,_STL::allocator<_SHORTDATA> >::~_List_base<_SHORTDATA,_STL::allocator<_SHORTDATA> >
; Function compile flags: /Ogsy
;	COMDAT ??1?$_List_base@U_SHORTDATA@@V?$allocator@U_SHORTDATA@@@_STL@@@_STL@@QAE@XZ
_TEXT	SEGMENT
??1?$_List_base@U_SHORTDATA@@V?$allocator@U_SHORTDATA@@@_STL@@@_STL@@QAE@XZ PROC NEAR ; _STL::_List_base<_SHORTDATA,_STL::allocator<_SHORTDATA> >::~_List_base<_SHORTDATA,_STL::allocator<_SHORTDATA> >, COMDAT
; _this$ = ecx

; 188  :   ~_List_base() {

  00000	56		 push	 esi
  00001	8b f1		 mov	 esi, ecx

; 189  :     clear();

  00003	e8 00 00 00 00	 call	 ?clear@?$_List_base@U_SHORTDATA@@V?$allocator@U_SHORTDATA@@@_STL@@@_STL@@QAEXXZ ; _STL::_List_base<_SHORTDATA,_STL::allocator<_SHORTDATA> >::clear

; 190  :     _M_node.deallocate(_M_node._M_data, 1);

  00008	6a 01		 push	 1
  0000a	ff 36		 push	 DWORD PTR [esi]
  0000c	8b ce		 mov	 ecx, esi
  0000e	e8 00 00 00 00	 call	 ?deallocate@?$allocator@U?$_List_node@U_SHORTDATA@@@_STL@@@_STL@@QAEXPAU?$_List_node@U_SHORTDATA@@@2@I@Z ; _STL::allocator<_STL::_List_node<_SHORTDATA> >::deallocate
  00013	5e		 pop	 esi

; 191  :   }

  00014	c3		 ret	 0
??1?$_List_base@U_SHORTDATA@@V?$allocator@U_SHORTDATA@@@_STL@@@_STL@@QAE@XZ ENDP ; _STL::_List_base<_SHORTDATA,_STL::allocator<_SHORTDATA> >::~_List_base<_SHORTDATA,_STL::allocator<_SHORTDATA> >
_TEXT	ENDS
PUBLIC	?begin@?$list@U_LONGDATA@@V?$allocator@U_LONGDATA@@@_STL@@@_STL@@QAE?AU?$_List_iterator@U_LONGDATA@@U?$_Nonconst_traits@U_LONGDATA@@@_STL@@@2@XZ ; _STL::list<_LONGDATA,_STL::allocator<_LONGDATA> >::begin
; Function compile flags: /Ogsy
;	COMDAT ?begin@?$list@U_LONGDATA@@V?$allocator@U_LONGDATA@@@_STL@@@_STL@@QAE?AU?$_List_iterator@U_LONGDATA@@U?$_Nonconst_traits@U_LONGDATA@@@_STL@@@2@XZ
_TEXT	SEGMENT
___$ReturnUdt$ = 8					; size = 4
?begin@?$list@U_LONGDATA@@V?$allocator@U_LONGDATA@@@_STL@@@_STL@@QAE?AU?$_List_iterator@U_LONGDATA@@U?$_Nonconst_traits@U_LONGDATA@@@_STL@@@2@XZ PROC NEAR ; _STL::list<_LONGDATA,_STL::allocator<_LONGDATA> >::begin, COMDAT
; _this$ = ecx

; 266  :   iterator begin()             { return iterator((_Node*)(this->_M_node._M_data->_M_next)); }

  00000	8b 01		 mov	 eax, DWORD PTR [ecx]
  00002	8b 08		 mov	 ecx, DWORD PTR [eax]
  00004	8b 44 24 04	 mov	 eax, DWORD PTR ___$ReturnUdt$[esp-4]
  00008	89 08		 mov	 DWORD PTR [eax], ecx
  0000a	c2 04 00	 ret	 4
?begin@?$list@U_LONGDATA@@V?$allocator@U_LONGDATA@@@_STL@@@_STL@@QAE?AU?$_List_iterator@U_LONGDATA@@U?$_Nonconst_traits@U_LONGDATA@@@_STL@@@2@XZ ENDP ; _STL::list<_LONGDATA,_STL::allocator<_LONGDATA> >::begin
_TEXT	ENDS
PUBLIC	?end@?$list@U_LONGDATA@@V?$allocator@U_LONGDATA@@@_STL@@@_STL@@QAE?AU?$_List_iterator@U_LONGDATA@@U?$_Nonconst_traits@U_LONGDATA@@@_STL@@@2@XZ ; _STL::list<_LONGDATA,_STL::allocator<_LONGDATA> >::end
; Function compile flags: /Ogsy
;	COMDAT ?end@?$list@U_LONGDATA@@V?$allocator@U_LONGDATA@@@_STL@@@_STL@@QAE?AU?$_List_iterator@U_LONGDATA@@U?$_Nonconst_traits@U_LONGDATA@@@_STL@@@2@XZ
_TEXT	SEGMENT
___$ReturnUdt$ = 8					; size = 4
?end@?$list@U_LONGDATA@@V?$allocator@U_LONGDATA@@@_STL@@@_STL@@QAE?AU?$_List_iterator@U_LONGDATA@@U?$_Nonconst_traits@U_LONGDATA@@@_STL@@@2@XZ PROC NEAR ; _STL::list<_LONGDATA,_STL::allocator<_LONGDATA> >::end, COMDAT
; _this$ = ecx

; 269  :   iterator end()             { return this->_M_node._M_data; }

  00000	8b 09		 mov	 ecx, DWORD PTR [ecx]
  00002	8b 44 24 04	 mov	 eax, DWORD PTR ___$ReturnUdt$[esp-4]
  00006	89 08		 mov	 DWORD PTR [eax], ecx
  00008	c2 04 00	 ret	 4
?end@?$list@U_LONGDATA@@V?$allocator@U_LONGDATA@@@_STL@@@_STL@@QAE?AU?$_List_iterator@U_LONGDATA@@U?$_Nonconst_traits@U_LONGDATA@@@_STL@@@2@XZ ENDP ; _STL::list<_LONGDATA,_STL::allocator<_LONGDATA> >::end
_TEXT	ENDS
PUBLIC	?erase@?$list@U_LONGDATA@@V?$allocator@U_LONGDATA@@@_STL@@@_STL@@QAE?AU?$_List_iterator@U_LONGDATA@@U?$_Nonconst_traits@U_LONGDATA@@@_STL@@@2@U32@@Z ; _STL::list<_LONGDATA,_STL::allocator<_LONGDATA> >::erase
; Function compile flags: /Ogsy
;	COMDAT ?erase@?$list@U_LONGDATA@@V?$allocator@U_LONGDATA@@@_STL@@@_STL@@QAE?AU?$_List_iterator@U_LONGDATA@@U?$_Nonconst_traits@U_LONGDATA@@@_STL@@@2@U32@@Z
_TEXT	SEGMENT
___$ReturnUdt$ = 8					; size = 4
___position$ = 12					; size = 4
?erase@?$list@U_LONGDATA@@V?$allocator@U_LONGDATA@@@_STL@@@_STL@@QAE?AU?$_List_iterator@U_LONGDATA@@U?$_Nonconst_traits@U_LONGDATA@@@_STL@@@2@U32@@Z PROC NEAR ; _STL::list<_LONGDATA,_STL::allocator<_LONGDATA> >::erase, COMDAT
; _this$ = ecx

; 354  :     _List_node_base* __next_node = __position._M_node->_M_next;

  00000	8b 54 24 08	 mov	 edx, DWORD PTR ___position$[esp-4]

; 355  :     _List_node_base* __prev_node = __position._M_node->_M_prev;

  00004	8b 42 04	 mov	 eax, DWORD PTR [edx+4]
  00007	56		 push	 esi
  00008	8b 32		 mov	 esi, DWORD PTR [edx]

; 356  :     _Node* __n = (_Node*) __position._M_node;
; 357  :     __prev_node->_M_next = __next_node;
; 358  :     __next_node->_M_prev = __prev_node;
; 359  :     _STLP_STD::_Destroy(&__n->_M_data);
; 360  :     this->_M_node.deallocate(__n, 1);

  0000a	6a 01		 push	 1
  0000c	89 30		 mov	 DWORD PTR [eax], esi
  0000e	52		 push	 edx
  0000f	89 46 04	 mov	 DWORD PTR [esi+4], eax
  00012	e8 00 00 00 00	 call	 ?deallocate@?$allocator@U?$_List_node@U_LONGDATA@@@_STL@@@_STL@@QAEXPAU?$_List_node@U_LONGDATA@@@2@I@Z ; _STL::allocator<_STL::_List_node<_LONGDATA> >::deallocate

; 361  :     return iterator((_Node*)__next_node);

  00017	8b 44 24 08	 mov	 eax, DWORD PTR ___$ReturnUdt$[esp]
  0001b	89 30		 mov	 DWORD PTR [eax], esi
  0001d	5e		 pop	 esi

; 362  :     }

  0001e	c2 08 00	 ret	 8
?erase@?$list@U_LONGDATA@@V?$allocator@U_LONGDATA@@@_STL@@@_STL@@QAE?AU?$_List_iterator@U_LONGDATA@@U?$_Nonconst_traits@U_LONGDATA@@@_STL@@@2@U32@@Z ENDP ; _STL::list<_LONGDATA,_STL::allocator<_LONGDATA> >::erase
_TEXT	ENDS
PUBLIC	??0?$_List_base@U_LONGDATA@@V?$allocator@U_LONGDATA@@@_STL@@@_STL@@QAE@ABV?$allocator@U_LONGDATA@@@1@@Z ; _STL::_List_base<_LONGDATA,_STL::allocator<_LONGDATA> >::_List_base<_LONGDATA,_STL::allocator<_LONGDATA> >
; Function compile flags: /Ogsy
;	COMDAT ??0?$_List_base@U_LONGDATA@@V?$allocator@U_LONGDATA@@@_STL@@@_STL@@QAE@ABV?$allocator@U_LONGDATA@@@1@@Z
_TEXT	SEGMENT
$T103278 = -1						; size = 1
___a$ = 8						; size = 4
??0?$_List_base@U_LONGDATA@@V?$allocator@U_LONGDATA@@@_STL@@@_STL@@QAE@ABV?$allocator@U_LONGDATA@@@1@@Z PROC NEAR ; _STL::_List_base<_LONGDATA,_STL::allocator<_LONGDATA> >::_List_base<_LONGDATA,_STL::allocator<_LONGDATA> >, COMDAT
; _this$ = ecx

; 182  :   _List_base(const allocator_type& __a) : _M_node(_STLP_CONVERT_ALLOCATOR(__a, _Node), (_Node*)0) {

  00000	51		 push	 ecx
  00001	56		 push	 esi
  00002	6a 00		 push	 0
  00004	8d 44 24 0b	 lea	 eax, DWORD PTR $T103278[esp+12]
  00008	50		 push	 eax
  00009	8b f1		 mov	 esi, ecx
  0000b	e8 00 00 00 00	 call	 ??0?$_STLP_alloc_proxy@PAU?$_List_node@U_LONGDATA@@@_STL@@U12@V?$allocator@U?$_List_node@U_LONGDATA@@@_STL@@@2@@_STL@@QAE@ABV?$allocator@U?$_List_node@U_LONGDATA@@@_STL@@@1@PAU?$_List_node@U_LONGDATA@@@1@@Z ; _STL::_STLP_alloc_proxy<_STL::_List_node<_LONGDATA> *,_STL::_List_node<_LONGDATA>,_STL::allocator<_STL::_List_node<_LONGDATA> > >::_STLP_alloc_proxy<_STL::_List_node<_LONGDATA> *,_STL::_List_node<_LONGDATA>,_STL::allocator<_STL::_List_node<_LONGDATA> > >

; 183  :     _Node* __n = _M_node.allocate(1);

  00010	6a 10		 push	 16			; 00000010H
  00012	e8 00 00 00 00	 call	 ?allocate@?$__node_alloc@$00$0A@@_STL@@SAPAXI@Z ; _STL::__node_alloc<1,0>::allocate

; 184  :     __n->_M_next = __n;

  00017	89 00		 mov	 DWORD PTR [eax], eax

; 185  :     __n->_M_prev = __n;

  00019	89 40 04	 mov	 DWORD PTR [eax+4], eax

; 186  :     _M_node._M_data = __n;

  0001c	89 06		 mov	 DWORD PTR [esi], eax
  0001e	59		 pop	 ecx

; 187  :   }

  0001f	8b c6		 mov	 eax, esi
  00021	5e		 pop	 esi
  00022	59		 pop	 ecx
  00023	c2 04 00	 ret	 4
??0?$_List_base@U_LONGDATA@@V?$allocator@U_LONGDATA@@@_STL@@@_STL@@QAE@ABV?$allocator@U_LONGDATA@@@1@@Z ENDP ; _STL::_List_base<_LONGDATA,_STL::allocator<_LONGDATA> >::_List_base<_LONGDATA,_STL::allocator<_LONGDATA> >
_TEXT	ENDS
PUBLIC	??1?$_List_base@U_LONGDATA@@V?$allocator@U_LONGDATA@@@_STL@@@_STL@@QAE@XZ ; _STL::_List_base<_LONGDATA,_STL::allocator<_LONGDATA> >::~_List_base<_LONGDATA,_STL::allocator<_LONGDATA> >
; Function compile flags: /Ogsy
;	COMDAT ??1?$_List_base@U_LONGDATA@@V?$allocator@U_LONGDATA@@@_STL@@@_STL@@QAE@XZ
_TEXT	SEGMENT
??1?$_List_base@U_LONGDATA@@V?$allocator@U_LONGDATA@@@_STL@@@_STL@@QAE@XZ PROC NEAR ; _STL::_List_base<_LONGDATA,_STL::allocator<_LONGDATA> >::~_List_base<_LONGDATA,_STL::allocator<_LONGDATA> >, COMDAT
; _this$ = ecx

; 188  :   ~_List_base() {

  00000	56		 push	 esi
  00001	8b f1		 mov	 esi, ecx

; 189  :     clear();

  00003	e8 00 00 00 00	 call	 ?clear@?$_List_base@U_LONGDATA@@V?$allocator@U_LONGDATA@@@_STL@@@_STL@@QAEXXZ ; _STL::_List_base<_LONGDATA,_STL::allocator<_LONGDATA> >::clear

; 190  :     _M_node.deallocate(_M_node._M_data, 1);

  00008	6a 01		 push	 1
  0000a	ff 36		 push	 DWORD PTR [esi]
  0000c	8b ce		 mov	 ecx, esi
  0000e	e8 00 00 00 00	 call	 ?deallocate@?$allocator@U?$_List_node@U_LONGDATA@@@_STL@@@_STL@@QAEXPAU?$_List_node@U_LONGDATA@@@2@I@Z ; _STL::allocator<_STL::_List_node<_LONGDATA> >::deallocate
  00013	5e		 pop	 esi

; 191  :   }

  00014	c3		 ret	 0
??1?$_List_base@U_LONGDATA@@V?$allocator@U_LONGDATA@@@_STL@@@_STL@@QAE@XZ ENDP ; _STL::_List_base<_LONGDATA,_STL::allocator<_LONGDATA> >::~_List_base<_LONGDATA,_STL::allocator<_LONGDATA> >
_TEXT	ENDS
PUBLIC	?_M_create_node@?$list@U_SHORTDATA@@V?$allocator@U_SHORTDATA@@@_STL@@@_STL@@IAEPAU?$_List_node@U_SHORTDATA@@@2@ABU_SHORTDATA@@@Z ; _STL::list<_SHORTDATA,_STL::allocator<_SHORTDATA> >::_M_create_node
EXTRN	__CxxThrowException@8:NEAR
; Function compile flags: /Ogsy
;	COMDAT ?_M_create_node@?$list@U_SHORTDATA@@V?$allocator@U_SHORTDATA@@@_STL@@@_STL@@IAEPAU?$_List_node@U_SHORTDATA@@@2@ABU_SHORTDATA@@@Z
_TEXT	SEGMENT
___x$ = 8						; size = 4
?_M_create_node@?$list@U_SHORTDATA@@V?$allocator@U_SHORTDATA@@@_STL@@@_STL@@IAEPAU?$_List_node@U_SHORTDATA@@@2@ABU_SHORTDATA@@@Z PROC NEAR ; _STL::list<_SHORTDATA,_STL::allocator<_SHORTDATA> >::_M_create_node, COMDAT
; _this$ = ecx

; 241  :     _Node* __p = this->_M_node.allocate(1);

  00000	6a 0c		 push	 12			; 0000000cH
  00002	e8 00 00 00 00	 call	 ?allocate@?$__node_alloc@$00$0A@@_STL@@SAPAXI@Z ; _STL::__node_alloc<1,0>::allocate
  00007	59		 pop	 ecx

; 242  :     _STLP_TRY {
; 243  :       _Construct(&__p->_M_data, __x);

  00008	8d 48 08	 lea	 ecx, DWORD PTR [eax+8]
  0000b	85 c9		 test	 ecx, ecx
  0000d	74 08		 je	 SHORT $L103315
  0000f	8b 54 24 04	 mov	 edx, DWORD PTR ___x$[esp-4]
  00013	8b 12		 mov	 edx, DWORD PTR [edx]
  00015	89 11		 mov	 DWORD PTR [ecx], edx
$L103315:

; 244  :     }
; 245  :     _STLP_UNWIND(this->_M_node.deallocate(__p, 1));
; 246  :     return __p;
; 247  :   }

  00017	c2 04 00	 ret	 4
?_M_create_node@?$list@U_SHORTDATA@@V?$allocator@U_SHORTDATA@@@_STL@@@_STL@@IAEPAU?$_List_node@U_SHORTDATA@@@2@ABU_SHORTDATA@@@Z ENDP ; _STL::list<_SHORTDATA,_STL::allocator<_SHORTDATA> >::_M_create_node
_TEXT	ENDS
PUBLIC	?_M_create_node@?$list@U_LONGDATA@@V?$allocator@U_LONGDATA@@@_STL@@@_STL@@IAEPAU?$_List_node@U_LONGDATA@@@2@ABU_LONGDATA@@@Z ; _STL::list<_LONGDATA,_STL::allocator<_LONGDATA> >::_M_create_node
; Function compile flags: /Ogsy
;	COMDAT ?_M_create_node@?$list@U_LONGDATA@@V?$allocator@U_LONGDATA@@@_STL@@@_STL@@IAEPAU?$_List_node@U_LONGDATA@@@2@ABU_LONGDATA@@@Z
_TEXT	SEGMENT
___x$ = 8						; size = 4
?_M_create_node@?$list@U_LONGDATA@@V?$allocator@U_LONGDATA@@@_STL@@@_STL@@IAEPAU?$_List_node@U_LONGDATA@@@2@ABU_LONGDATA@@@Z PROC NEAR ; _STL::list<_LONGDATA,_STL::allocator<_LONGDATA> >::_M_create_node, COMDAT
; _this$ = ecx

; 240  :   {

  00000	56		 push	 esi

; 241  :     _Node* __p = this->_M_node.allocate(1);

  00001	6a 10		 push	 16			; 00000010H
  00003	e8 00 00 00 00	 call	 ?allocate@?$__node_alloc@$00$0A@@_STL@@SAPAXI@Z ; _STL::__node_alloc<1,0>::allocate

; 242  :     _STLP_TRY {
; 243  :       _Construct(&__p->_M_data, __x);

  00008	ff 74 24 0c	 push	 DWORD PTR ___x$[esp+4]
  0000c	8b f0		 mov	 esi, eax
  0000e	8d 46 08	 lea	 eax, DWORD PTR [esi+8]
  00011	50		 push	 eax
  00012	e8 00 00 00 00	 call	 ??$_Construct@U_LONGDATA@@U1@@_STL@@YAXPAU_LONGDATA@@ABU1@@Z ; _STL::_Construct<_LONGDATA,_LONGDATA>
  00017	83 c4 0c	 add	 esp, 12			; 0000000cH

; 244  :     }
; 245  :     _STLP_UNWIND(this->_M_node.deallocate(__p, 1));
; 246  :     return __p;

  0001a	8b c6		 mov	 eax, esi
  0001c	5e		 pop	 esi

; 247  :   }

  0001d	c2 04 00	 ret	 4
?_M_create_node@?$list@U_LONGDATA@@V?$allocator@U_LONGDATA@@@_STL@@@_STL@@IAEPAU?$_List_node@U_LONGDATA@@@2@ABU_LONGDATA@@@Z ENDP ; _STL::list<_LONGDATA,_STL::allocator<_LONGDATA> >::_M_create_node
_TEXT	ENDS
PUBLIC	??$_M_range_initialize@PBD@?$basic_string@DV?$char_traits@D@_STL@@V?$allocator@D@2@@_STL@@AAEXPBD0ABUforward_iterator_tag@1@@Z ; _STL::basic_string<char,_STL::char_traits<char>,_STL::allocator<char> >::_M_range_initialize<char const *>
; Function compile flags: /Ogsy
; File c:\stlport-4.6.1\stlport\stl\_string.h
;	COMDAT ??$_M_range_initialize@PBD@?$basic_string@DV?$char_traits@D@_STL@@V?$allocator@D@2@@_STL@@AAEXPBD0ABUforward_iterator_tag@1@@Z
_TEXT	SEGMENT
___f$ = 8						; size = 4
___l$ = 12						; size = 4
___formal$ = 16						; size = 4
??$_M_range_initialize@PBD@?$basic_string@DV?$char_traits@D@_STL@@V?$allocator@D@2@@_STL@@AAEXPBD0ABUforward_iterator_tag@1@@Z PROC NEAR ; _STL::basic_string<char,_STL::char_traits<char>,_STL::allocator<char> >::_M_range_initialize<char const *>, COMDAT
; _this$ = ecx

; 383  :                            const forward_iterator_tag &) {
; 384  :     difference_type __n = distance(__f, __l);
; 385  :     this->_M_allocate_block(__n + 1);

  00000	8b 44 24 08	 mov	 eax, DWORD PTR ___l$[esp-4]
  00004	2b 44 24 04	 sub	 eax, DWORD PTR ___f$[esp-4]
  00008	56		 push	 esi
  00009	40		 inc	 eax
  0000a	50		 push	 eax
  0000b	8b f1		 mov	 esi, ecx
  0000d	e8 00 00 00 00	 call	 ?_M_allocate_block@?$_String_base@DV?$allocator@D@_STL@@@_STL@@QAEXI@Z ; _STL::_String_base<char,_STL::allocator<char> >::_M_allocate_block

; 386  :     this->_M_finish = uninitialized_copy(__f, __l, this->_M_start);

  00012	ff 36		 push	 DWORD PTR [esi]
  00014	ff 74 24 10	 push	 DWORD PTR ___l$[esp+4]
  00018	ff 74 24 10	 push	 DWORD PTR ___f$[esp+8]
  0001c	e8 00 00 00 00	 call	 ?__copy_trivial@_STL@@YAPAXPBX0PAX@Z ; _STL::__copy_trivial
  00021	83 c4 0c	 add	 esp, 12			; 0000000cH
  00024	89 46 04	 mov	 DWORD PTR [esi+4], eax

; 387  :     _M_terminate_string();

  00027	c6 00 00	 mov	 BYTE PTR [eax], 0
  0002a	5e		 pop	 esi

; 388  :   }

  0002b	c2 0c 00	 ret	 12			; 0000000cH
??$_M_range_initialize@PBD@?$basic_string@DV?$char_traits@D@_STL@@V?$allocator@D@2@@_STL@@AAEXPBD0ABUforward_iterator_tag@1@@Z ENDP ; _STL::basic_string<char,_STL::char_traits<char>,_STL::allocator<char> >::_M_range_initialize<char const *>
_TEXT	ENDS
PUBLIC	?_M_deallocate_block@?$_String_base@DV?$allocator@D@_STL@@@_STL@@QAEXXZ ; _STL::_String_base<char,_STL::allocator<char> >::_M_deallocate_block
; Function compile flags: /Ogsy
;	COMDAT ?_M_deallocate_block@?$_String_base@DV?$allocator@D@_STL@@@_STL@@QAEXXZ
_TEXT	SEGMENT
?_M_deallocate_block@?$_String_base@DV?$allocator@D@_STL@@@_STL@@QAEXXZ PROC NEAR ; _STL::_String_base<char,_STL::allocator<char> >::_M_deallocate_block, COMDAT
; _this$ = ecx

; 124  :     { _M_end_of_storage.deallocate(_M_start, _M_end_of_storage._M_data - _M_start); }

  00000	8b c1		 mov	 eax, ecx
  00002	8d 48 08	 lea	 ecx, DWORD PTR [eax+8]
  00005	8b 00		 mov	 eax, DWORD PTR [eax]
  00007	8b 11		 mov	 edx, DWORD PTR [ecx]
  00009	2b d0		 sub	 edx, eax
  0000b	52		 push	 edx
  0000c	50		 push	 eax
  0000d	e8 00 00 00 00	 call	 ?deallocate@?$allocator@D@_STL@@QAEXPADI@Z ; _STL::allocator<char>::deallocate
  00012	c3		 ret	 0
?_M_deallocate_block@?$_String_base@DV?$allocator@D@_STL@@@_STL@@QAEXXZ ENDP ; _STL::_String_base<char,_STL::allocator<char> >::_M_deallocate_block
_TEXT	ENDS
PUBLIC	?write@ModifyInfo@@UBEXAAVSocketOutputStream@@@Z ; ModifyInfo::write
; Function compile flags: /Ogsy
; File c:\darkeden\designed_common\project\client\packet\modifyinfo.cpp
;	COMDAT ?write@ModifyInfo@@UBEXAAVSocketOutputStream@@@Z
_TEXT	SEGMENT
_short_data$101506 = -16				; size = 4
$T103493 = -8						; size = 4
$T103434 = -8						; size = 2
$T103489 = -4						; size = 1
$T103438 = -4						; size = 1
$T103430 = -4						; size = 1
$T103379 = -4						; size = 1
_oStream$ = 8						; size = 4
?write@ModifyInfo@@UBEXAAVSocketOutputStream@@@Z PROC NEAR ; ModifyInfo::write, COMDAT
; _this$ = ecx

; 77   : {

  00000	55		 push	 ebp
  00001	8b ec		 mov	 ebp, esp
  00003	83 ec 10	 sub	 esp, 16			; 00000010H
  00006	53		 push	 ebx

; 78   : 	__BEGIN_TRY
; 79   : 
; 80   : 	oStream.write(m_ShortCount);

  00007	8b 5d 08	 mov	 ebx, DWORD PTR _oStream$[ebp]
  0000a	56		 push	 esi
  0000b	57		 push	 edi
  0000c	8b f9		 mov	 edi, ecx
  0000e	8a 47 04	 mov	 al, BYTE PTR [edi+4]
  00011	88 45 fc	 mov	 BYTE PTR $T103379[ebp], al
  00014	6a 01		 push	 1
  00016	8d 45 fc	 lea	 eax, DWORD PTR $T103379[ebp]
  00019	50		 push	 eax
  0001a	8b cb		 mov	 ecx, ebx
  0001c	e8 00 00 00 00	 call	 ?write@SocketOutputStream@@QAEIPBDI@Z ; SocketOutputStream::write

; 81   : 	std::list<SHORTDATA>::const_iterator short_itr = m_ShortList.begin();

  00021	8b 47 08	 mov	 eax, DWORD PTR [edi+8]
  00024	8b 30		 mov	 esi, DWORD PTR [eax]

; 82   : 	for (; short_itr != m_ShortList.end(); short_itr++)

  00026	3b f0		 cmp	 esi, eax
  00028	74 30		 je	 SHORT $L101505
$L103400:

; 83   : 	{
; 84   : 		SHORTDATA short_data = *short_itr;

  0002a	8b 46 08	 mov	 eax, DWORD PTR [esi+8]
  0002d	89 45 f0	 mov	 DWORD PTR _short_data$101506[ebp], eax

; 85   : 		oStream.write(short_data.type);

  00030	88 45 fc	 mov	 BYTE PTR $T103430[ebp], al
  00033	6a 01		 push	 1
  00035	8d 45 fc	 lea	 eax, DWORD PTR $T103430[ebp]
  00038	50		 push	 eax
  00039	8b cb		 mov	 ecx, ebx
  0003b	e8 00 00 00 00	 call	 ?write@SocketOutputStream@@QAEIPBDI@Z ; SocketOutputStream::write

; 86   : 		oStream.write(short_data.value);

  00040	8b 45 f2	 mov	 eax, DWORD PTR _short_data$101506[ebp+2]
  00043	89 45 f8	 mov	 DWORD PTR $T103434[ebp], eax
  00046	6a 02		 push	 2
  00048	8d 45 f8	 lea	 eax, DWORD PTR $T103434[ebp]
  0004b	50		 push	 eax
  0004c	8b cb		 mov	 ecx, ebx
  0004e	e8 00 00 00 00	 call	 ?write@SocketOutputStream@@QAEIPBDI@Z ; SocketOutputStream::write
  00053	8b 36		 mov	 esi, DWORD PTR [esi]
  00055	3b 77 08	 cmp	 esi, DWORD PTR [edi+8]
  00058	75 d0		 jne	 SHORT $L103400
$L101505:

; 87   : 	}
; 88   : 
; 89   : 	oStream.write(m_LongCount);

  0005a	8a 47 0c	 mov	 al, BYTE PTR [edi+12]
  0005d	88 45 fc	 mov	 BYTE PTR $T103438[ebp], al
  00060	6a 01		 push	 1
  00062	8d 45 fc	 lea	 eax, DWORD PTR $T103438[ebp]
  00065	50		 push	 eax
  00066	8b cb		 mov	 ecx, ebx
  00068	e8 00 00 00 00	 call	 ?write@SocketOutputStream@@QAEIPBDI@Z ; SocketOutputStream::write

; 90   : 	std::list<LONGDATA>::const_iterator long_itr = m_LongList.begin();

  0006d	8b 47 10	 mov	 eax, DWORD PTR [edi+16]
  00070	8b 30		 mov	 esi, DWORD PTR [eax]

; 91   : 	for (; long_itr != m_LongList.end(); long_itr++)

  00072	3b f0		 cmp	 esi, eax
  00074	74 2f		 je	 SHORT $L101594
$L103462:

; 92   : 	{
; 93   : 		LONGDATA long_data = *long_itr;

  00076	8b 46 08	 mov	 eax, DWORD PTR [esi+8]

; 94   : 		oStream.write(long_data.type);

  00079	8b 4d 08	 mov	 ecx, DWORD PTR _oStream$[ebp]
  0007c	8b 5e 0c	 mov	 ebx, DWORD PTR [esi+12]
  0007f	88 45 fc	 mov	 BYTE PTR $T103489[ebp], al
  00082	6a 01		 push	 1
  00084	8d 45 fc	 lea	 eax, DWORD PTR $T103489[ebp]
  00087	50		 push	 eax
  00088	e8 00 00 00 00	 call	 ?write@SocketOutputStream@@QAEIPBDI@Z ; SocketOutputStream::write

; 95   : 		oStream.write(long_data.value);

  0008d	8b 4d 08	 mov	 ecx, DWORD PTR _oStream$[ebp]
  00090	6a 04		 push	 4
  00092	8d 45 f8	 lea	 eax, DWORD PTR $T103493[ebp]
  00095	50		 push	 eax
  00096	89 5d f8	 mov	 DWORD PTR $T103493[ebp], ebx
  00099	e8 00 00 00 00	 call	 ?write@SocketOutputStream@@QAEIPBDI@Z ; SocketOutputStream::write
  0009e	8b 36		 mov	 esi, DWORD PTR [esi]
  000a0	3b 77 10	 cmp	 esi, DWORD PTR [edi+16]
  000a3	75 d1		 jne	 SHORT $L103462
$L101594:
  000a5	5f		 pop	 edi
  000a6	5e		 pop	 esi
  000a7	5b		 pop	 ebx

; 96   : 	}
; 97   : 
; 98   : 	__END_CATCH
; 99   : }

  000a8	c9		 leave
  000a9	c2 04 00	 ret	 4
?write@ModifyInfo@@UBEXAAVSocketOutputStream@@@Z ENDP	; ModifyInfo::write
_TEXT	ENDS
PUBLIC	??0?$list@U_SHORTDATA@@V?$allocator@U_SHORTDATA@@@_STL@@@_STL@@QAE@ABV?$allocator@U_SHORTDATA@@@1@@Z ; _STL::list<_SHORTDATA,_STL::allocator<_SHORTDATA> >::list<_SHORTDATA,_STL::allocator<_SHORTDATA> >
; Function compile flags: /Ogsy
; File c:\stlport-4.6.1\stlport\stl\_list.h
;	COMDAT ??0?$list@U_SHORTDATA@@V?$allocator@U_SHORTDATA@@@_STL@@@_STL@@QAE@ABV?$allocator@U_SHORTDATA@@@1@@Z
_TEXT	SEGMENT
___a$ = 8						; size = 4
??0?$list@U_SHORTDATA@@V?$allocator@U_SHORTDATA@@@_STL@@@_STL@@QAE@ABV?$allocator@U_SHORTDATA@@@1@@Z PROC NEAR ; _STL::list<_SHORTDATA,_STL::allocator<_SHORTDATA> >::list<_SHORTDATA,_STL::allocator<_SHORTDATA> >, COMDAT
; _this$ = ecx

; 264  :     _List_base<_Tp, _Alloc>(__a) {}

  00000	56		 push	 esi
  00001	ff 74 24 08	 push	 DWORD PTR ___a$[esp]
  00005	8b f1		 mov	 esi, ecx
  00007	e8 00 00 00 00	 call	 ??0?$_List_base@U_SHORTDATA@@V?$allocator@U_SHORTDATA@@@_STL@@@_STL@@QAE@ABV?$allocator@U_SHORTDATA@@@1@@Z ; _STL::_List_base<_SHORTDATA,_STL::allocator<_SHORTDATA> >::_List_base<_SHORTDATA,_STL::allocator<_SHORTDATA> >
  0000c	8b c6		 mov	 eax, esi
  0000e	5e		 pop	 esi
  0000f	c2 04 00	 ret	 4
??0?$list@U_SHORTDATA@@V?$allocator@U_SHORTDATA@@@_STL@@@_STL@@QAE@ABV?$allocator@U_SHORTDATA@@@1@@Z ENDP ; _STL::list<_SHORTDATA,_STL::allocator<_SHORTDATA> >::list<_SHORTDATA,_STL::allocator<_SHORTDATA> >
_TEXT	ENDS
PUBLIC	?front@?$list@U_SHORTDATA@@V?$allocator@U_SHORTDATA@@@_STL@@@_STL@@QAEAAU_SHORTDATA@@XZ ; _STL::list<_SHORTDATA,_STL::allocator<_SHORTDATA> >::front
; Function compile flags: /Ogsy
;	COMDAT ?front@?$list@U_SHORTDATA@@V?$allocator@U_SHORTDATA@@@_STL@@@_STL@@QAEAAU_SHORTDATA@@XZ
_TEXT	SEGMENT
?front@?$list@U_SHORTDATA@@V?$allocator@U_SHORTDATA@@@_STL@@@_STL@@QAEAAU_SHORTDATA@@XZ PROC NEAR ; _STL::list<_SHORTDATA,_STL::allocator<_SHORTDATA> >::front, COMDAT
; _this$ = ecx

; 289  :   reference front() { return *begin(); }

  00000	8b 01		 mov	 eax, DWORD PTR [ecx]
  00002	8b 00		 mov	 eax, DWORD PTR [eax]
  00004	83 c0 08	 add	 eax, 8
  00007	c3		 ret	 0
?front@?$list@U_SHORTDATA@@V?$allocator@U_SHORTDATA@@@_STL@@@_STL@@QAEAAU_SHORTDATA@@XZ ENDP ; _STL::list<_SHORTDATA,_STL::allocator<_SHORTDATA> >::front
_TEXT	ENDS
PUBLIC	?pop_front@?$list@U_SHORTDATA@@V?$allocator@U_SHORTDATA@@@_STL@@@_STL@@QAEXXZ ; _STL::list<_SHORTDATA,_STL::allocator<_SHORTDATA> >::pop_front
; Function compile flags: /Ogsy
;	COMDAT ?pop_front@?$list@U_SHORTDATA@@V?$allocator@U_SHORTDATA@@@_STL@@@_STL@@QAEXXZ
_TEXT	SEGMENT
$T103528 = -4						; size = 4
?pop_front@?$list@U_SHORTDATA@@V?$allocator@U_SHORTDATA@@@_STL@@@_STL@@QAEXXZ PROC NEAR ; _STL::list<_SHORTDATA,_STL::allocator<_SHORTDATA> >::pop_front, COMDAT
; _this$ = ecx

; 373  :   void pop_front() { erase(begin()); }

  00000	51		 push	 ecx
  00001	8b 11		 mov	 edx, DWORD PTR [ecx]
  00003	8b 12		 mov	 edx, DWORD PTR [edx]
  00005	51		 push	 ecx
  00006	8b c4		 mov	 eax, esp
  00008	89 10		 mov	 DWORD PTR [eax], edx
  0000a	8d 44 24 04	 lea	 eax, DWORD PTR $T103528[esp+8]
  0000e	50		 push	 eax
  0000f	e8 00 00 00 00	 call	 ?erase@?$list@U_SHORTDATA@@V?$allocator@U_SHORTDATA@@@_STL@@@_STL@@QAE?AU?$_List_iterator@U_SHORTDATA@@U?$_Nonconst_traits@U_SHORTDATA@@@_STL@@@2@U32@@Z ; _STL::list<_SHORTDATA,_STL::allocator<_SHORTDATA> >::erase
  00014	59		 pop	 ecx
  00015	c3		 ret	 0
?pop_front@?$list@U_SHORTDATA@@V?$allocator@U_SHORTDATA@@@_STL@@@_STL@@QAEXXZ ENDP ; _STL::list<_SHORTDATA,_STL::allocator<_SHORTDATA> >::pop_front
_TEXT	ENDS
PUBLIC	??1?$list@U_SHORTDATA@@V?$allocator@U_SHORTDATA@@@_STL@@@_STL@@QAE@XZ ; _STL::list<_SHORTDATA,_STL::allocator<_SHORTDATA> >::~list<_SHORTDATA,_STL::allocator<_SHORTDATA> >
; Function compile flags: /Ogsy
;	COMDAT ??1?$list@U_SHORTDATA@@V?$allocator@U_SHORTDATA@@@_STL@@@_STL@@QAE@XZ
_TEXT	SEGMENT
??1?$list@U_SHORTDATA@@V?$allocator@U_SHORTDATA@@@_STL@@@_STL@@QAE@XZ PROC NEAR ; _STL::list<_SHORTDATA,_STL::allocator<_SHORTDATA> >::~list<_SHORTDATA,_STL::allocator<_SHORTDATA> >, COMDAT
; _this$ = ecx

; 416  :   ~list() { }

  00000	e9 00 00 00 00	 jmp	 ??1?$_List_base@U_SHORTDATA@@V?$allocator@U_SHORTDATA@@@_STL@@@_STL@@QAE@XZ ; _STL::_List_base<_SHORTDATA,_STL::allocator<_SHORTDATA> >::~_List_base<_SHORTDATA,_STL::allocator<_SHORTDATA> >
??1?$list@U_SHORTDATA@@V?$allocator@U_SHORTDATA@@@_STL@@@_STL@@QAE@XZ ENDP ; _STL::list<_SHORTDATA,_STL::allocator<_SHORTDATA> >::~list<_SHORTDATA,_STL::allocator<_SHORTDATA> >
_TEXT	ENDS
PUBLIC	??0?$list@U_LONGDATA@@V?$allocator@U_LONGDATA@@@_STL@@@_STL@@QAE@ABV?$allocator@U_LONGDATA@@@1@@Z ; _STL::list<_LONGDATA,_STL::allocator<_LONGDATA> >::list<_LONGDATA,_STL::allocator<_LONGDATA> >
; Function compile flags: /Ogsy
;	COMDAT ??0?$list@U_LONGDATA@@V?$allocator@U_LONGDATA@@@_STL@@@_STL@@QAE@ABV?$allocator@U_LONGDATA@@@1@@Z
_TEXT	SEGMENT
___a$ = 8						; size = 4
??0?$list@U_LONGDATA@@V?$allocator@U_LONGDATA@@@_STL@@@_STL@@QAE@ABV?$allocator@U_LONGDATA@@@1@@Z PROC NEAR ; _STL::list<_LONGDATA,_STL::allocator<_LONGDATA> >::list<_LONGDATA,_STL::allocator<_LONGDATA> >, COMDAT
; _this$ = ecx

; 264  :     _List_base<_Tp, _Alloc>(__a) {}

  00000	56		 push	 esi
  00001	ff 74 24 08	 push	 DWORD PTR ___a$[esp]
  00005	8b f1		 mov	 esi, ecx
  00007	e8 00 00 00 00	 call	 ??0?$_List_base@U_LONGDATA@@V?$allocator@U_LONGDATA@@@_STL@@@_STL@@QAE@ABV?$allocator@U_LONGDATA@@@1@@Z ; _STL::_List_base<_LONGDATA,_STL::allocator<_LONGDATA> >::_List_base<_LONGDATA,_STL::allocator<_LONGDATA> >
  0000c	8b c6		 mov	 eax, esi
  0000e	5e		 pop	 esi
  0000f	c2 04 00	 ret	 4
??0?$list@U_LONGDATA@@V?$allocator@U_LONGDATA@@@_STL@@@_STL@@QAE@ABV?$allocator@U_LONGDATA@@@1@@Z ENDP ; _STL::list<_LONGDATA,_STL::allocator<_LONGDATA> >::list<_LONGDATA,_STL::allocator<_LONGDATA> >
_TEXT	ENDS
PUBLIC	?front@?$list@U_LONGDATA@@V?$allocator@U_LONGDATA@@@_STL@@@_STL@@QAEAAU_LONGDATA@@XZ ; _STL::list<_LONGDATA,_STL::allocator<_LONGDATA> >::front
; Function compile flags: /Ogsy
;	COMDAT ?front@?$list@U_LONGDATA@@V?$allocator@U_LONGDATA@@@_STL@@@_STL@@QAEAAU_LONGDATA@@XZ
_TEXT	SEGMENT
?front@?$list@U_LONGDATA@@V?$allocator@U_LONGDATA@@@_STL@@@_STL@@QAEAAU_LONGDATA@@XZ PROC NEAR ; _STL::list<_LONGDATA,_STL::allocator<_LONGDATA> >::front, COMDAT
; _this$ = ecx

; 289  :   reference front() { return *begin(); }

  00000	8b 01		 mov	 eax, DWORD PTR [ecx]
  00002	8b 00		 mov	 eax, DWORD PTR [eax]
  00004	83 c0 08	 add	 eax, 8
  00007	c3		 ret	 0
?front@?$list@U_LONGDATA@@V?$allocator@U_LONGDATA@@@_STL@@@_STL@@QAEAAU_LONGDATA@@XZ ENDP ; _STL::list<_LONGDATA,_STL::allocator<_LONGDATA> >::front
_TEXT	ENDS
PUBLIC	?pop_front@?$list@U_LONGDATA@@V?$allocator@U_LONGDATA@@@_STL@@@_STL@@QAEXXZ ; _STL::list<_LONGDATA,_STL::allocator<_LONGDATA> >::pop_front
; Function compile flags: /Ogsy
;	COMDAT ?pop_front@?$list@U_LONGDATA@@V?$allocator@U_LONGDATA@@@_STL@@@_STL@@QAEXXZ
_TEXT	SEGMENT
$T103581 = -4						; size = 4
?pop_front@?$list@U_LONGDATA@@V?$allocator@U_LONGDATA@@@_STL@@@_STL@@QAEXXZ PROC NEAR ; _STL::list<_LONGDATA,_STL::allocator<_LONGDATA> >::pop_front, COMDAT
; _this$ = ecx

; 373  :   void pop_front() { erase(begin()); }

  00000	51		 push	 ecx
  00001	8b 11		 mov	 edx, DWORD PTR [ecx]
  00003	8b 12		 mov	 edx, DWORD PTR [edx]
  00005	51		 push	 ecx
  00006	8b c4		 mov	 eax, esp
  00008	89 10		 mov	 DWORD PTR [eax], edx
  0000a	8d 44 24 04	 lea	 eax, DWORD PTR $T103581[esp+8]
  0000e	50		 push	 eax
  0000f	e8 00 00 00 00	 call	 ?erase@?$list@U_LONGDATA@@V?$allocator@U_LONGDATA@@@_STL@@@_STL@@QAE?AU?$_List_iterator@U_LONGDATA@@U?$_Nonconst_traits@U_LONGDATA@@@_STL@@@2@U32@@Z ; _STL::list<_LONGDATA,_STL::allocator<_LONGDATA> >::erase
  00014	59		 pop	 ecx
  00015	c3		 ret	 0
?pop_front@?$list@U_LONGDATA@@V?$allocator@U_LONGDATA@@@_STL@@@_STL@@QAEXXZ ENDP ; _STL::list<_LONGDATA,_STL::allocator<_LONGDATA> >::pop_front
_TEXT	ENDS
PUBLIC	??1?$list@U_LONGDATA@@V?$allocator@U_LONGDATA@@@_STL@@@_STL@@QAE@XZ ; _STL::list<_LONGDATA,_STL::allocator<_LONGDATA> >::~list<_LONGDATA,_STL::allocator<_LONGDATA> >
; Function compile flags: /Ogsy
;	COMDAT ??1?$list@U_LONGDATA@@V?$allocator@U_LONGDATA@@@_STL@@@_STL@@QAE@XZ
_TEXT	SEGMENT
??1?$list@U_LONGDATA@@V?$allocator@U_LONGDATA@@@_STL@@@_STL@@QAE@XZ PROC NEAR ; _STL::list<_LONGDATA,_STL::allocator<_LONGDATA> >::~list<_LONGDATA,_STL::allocator<_LONGDATA> >, COMDAT
; _this$ = ecx

; 416  :   ~list() { }

  00000	e9 00 00 00 00	 jmp	 ??1?$_List_base@U_LONGDATA@@V?$allocator@U_LONGDATA@@@_STL@@@_STL@@QAE@XZ ; _STL::_List_base<_LONGDATA,_STL::allocator<_LONGDATA> >::~_List_base<_LONGDATA,_STL::allocator<_LONGDATA> >
??1?$list@U_LONGDATA@@V?$allocator@U_LONGDATA@@@_STL@@@_STL@@QAE@XZ ENDP ; _STL::list<_LONGDATA,_STL::allocator<_LONGDATA> >::~list<_LONGDATA,_STL::allocator<_LONGDATA> >
_TEXT	ENDS
PUBLIC	?insert@?$list@U_SHORTDATA@@V?$allocator@U_SHORTDATA@@@_STL@@@_STL@@QAE?AU?$_List_iterator@U_SHORTDATA@@U?$_Nonconst_traits@U_SHORTDATA@@@_STL@@@2@U32@ABU_SHORTDATA@@@Z ; _STL::list<_SHORTDATA,_STL::allocator<_SHORTDATA> >::insert
; Function compile flags: /Ogsy
;	COMDAT ?insert@?$list@U_SHORTDATA@@V?$allocator@U_SHORTDATA@@@_STL@@@_STL@@QAE?AU?$_List_iterator@U_SHORTDATA@@U?$_Nonconst_traits@U_SHORTDATA@@@_STL@@@2@U32@ABU_SHORTDATA@@@Z
_TEXT	SEGMENT
___$ReturnUdt$ = 8					; size = 4
___position$ = 12					; size = 4
___x$ = 16						; size = 4
?insert@?$list@U_SHORTDATA@@V?$allocator@U_SHORTDATA@@@_STL@@@_STL@@QAE?AU?$_List_iterator@U_SHORTDATA@@U?$_Nonconst_traits@U_SHORTDATA@@@_STL@@@2@U32@ABU_SHORTDATA@@@Z PROC NEAR ; _STL::list<_SHORTDATA,_STL::allocator<_SHORTDATA> >::insert, COMDAT
; _this$ = ecx

; 299  : 
; 300  :     _Node* __tmp = _M_create_node(__x);

  00000	ff 74 24 0c	 push	 DWORD PTR ___x$[esp-4]
  00004	e8 00 00 00 00	 call	 ?_M_create_node@?$list@U_SHORTDATA@@V?$allocator@U_SHORTDATA@@@_STL@@@_STL@@IAEPAU?$_List_node@U_SHORTDATA@@@2@ABU_SHORTDATA@@@Z ; _STL::list<_SHORTDATA,_STL::allocator<_SHORTDATA> >::_M_create_node

; 301  :     _List_node_base* __n = __position._M_node;
; 302  :     _List_node_base* __p = __n->_M_prev;

  00009	8b 4c 24 08	 mov	 ecx, DWORD PTR ___position$[esp-4]
  0000d	8b 51 04	 mov	 edx, DWORD PTR [ecx+4]

; 303  :     __tmp->_M_next = __n;

  00010	89 08		 mov	 DWORD PTR [eax], ecx

; 304  :     __tmp->_M_prev = __p;

  00012	89 50 04	 mov	 DWORD PTR [eax+4], edx

; 305  :     __p->_M_next = __tmp;

  00015	89 02		 mov	 DWORD PTR [edx], eax

; 306  :     __n->_M_prev = __tmp;

  00017	89 41 04	 mov	 DWORD PTR [ecx+4], eax

; 307  :     return __tmp;

  0001a	8b 4c 24 04	 mov	 ecx, DWORD PTR ___$ReturnUdt$[esp-4]
  0001e	89 01		 mov	 DWORD PTR [ecx], eax
  00020	8b c1		 mov	 eax, ecx

; 308  :   }

  00022	c2 0c 00	 ret	 12			; 0000000cH
?insert@?$list@U_SHORTDATA@@V?$allocator@U_SHORTDATA@@@_STL@@@_STL@@QAE?AU?$_List_iterator@U_SHORTDATA@@U?$_Nonconst_traits@U_SHORTDATA@@@_STL@@@2@U32@ABU_SHORTDATA@@@Z ENDP ; _STL::list<_SHORTDATA,_STL::allocator<_SHORTDATA> >::insert
_TEXT	ENDS
PUBLIC	?insert@?$list@U_LONGDATA@@V?$allocator@U_LONGDATA@@@_STL@@@_STL@@QAE?AU?$_List_iterator@U_LONGDATA@@U?$_Nonconst_traits@U_LONGDATA@@@_STL@@@2@U32@ABU_LONGDATA@@@Z ; _STL::list<_LONGDATA,_STL::allocator<_LONGDATA> >::insert
; Function compile flags: /Ogsy
;	COMDAT ?insert@?$list@U_LONGDATA@@V?$allocator@U_LONGDATA@@@_STL@@@_STL@@QAE?AU?$_List_iterator@U_LONGDATA@@U?$_Nonconst_traits@U_LONGDATA@@@_STL@@@2@U32@ABU_LONGDATA@@@Z
_TEXT	SEGMENT
___$ReturnUdt$ = 8					; size = 4
___position$ = 12					; size = 4
___x$ = 16						; size = 4
?insert@?$list@U_LONGDATA@@V?$allocator@U_LONGDATA@@@_STL@@@_STL@@QAE?AU?$_List_iterator@U_LONGDATA@@U?$_Nonconst_traits@U_LONGDATA@@@_STL@@@2@U32@ABU_LONGDATA@@@Z PROC NEAR ; _STL::list<_LONGDATA,_STL::allocator<_LONGDATA> >::insert, COMDAT
; _this$ = ecx

; 299  : 
; 300  :     _Node* __tmp = _M_create_node(__x);

  00000	ff 74 24 0c	 push	 DWORD PTR ___x$[esp-4]
  00004	e8 00 00 00 00	 call	 ?_M_create_node@?$list@U_LONGDATA@@V?$allocator@U_LONGDATA@@@_STL@@@_STL@@IAEPAU?$_List_node@U_LONGDATA@@@2@ABU_LONGDATA@@@Z ; _STL::list<_LONGDATA,_STL::allocator<_LONGDATA> >::_M_create_node

; 301  :     _List_node_base* __n = __position._M_node;
; 302  :     _List_node_base* __p = __n->_M_prev;

  00009	8b 4c 24 08	 mov	 ecx, DWORD PTR ___position$[esp-4]
  0000d	8b 51 04	 mov	 edx, DWORD PTR [ecx+4]

; 303  :     __tmp->_M_next = __n;

  00010	89 08		 mov	 DWORD PTR [eax], ecx

; 304  :     __tmp->_M_prev = __p;

  00012	89 50 04	 mov	 DWORD PTR [eax+4], edx

; 305  :     __p->_M_next = __tmp;

  00015	89 02		 mov	 DWORD PTR [edx], eax

; 306  :     __n->_M_prev = __tmp;

  00017	89 41 04	 mov	 DWORD PTR [ecx+4], eax

; 307  :     return __tmp;

  0001a	8b 4c 24 04	 mov	 ecx, DWORD PTR ___$ReturnUdt$[esp-4]
  0001e	89 01		 mov	 DWORD PTR [ecx], eax
  00020	8b c1		 mov	 eax, ecx

; 308  :   }

  00022	c2 0c 00	 ret	 12			; 0000000cH
?insert@?$list@U_LONGDATA@@V?$allocator@U_LONGDATA@@@_STL@@@_STL@@QAE?AU?$_List_iterator@U_LONGDATA@@U?$_Nonconst_traits@U_LONGDATA@@@_STL@@@2@U32@ABU_LONGDATA@@@Z ENDP ; _STL::list<_LONGDATA,_STL::allocator<_LONGDATA> >::insert
_TEXT	ENDS
PUBLIC	??$_M_range_initialize@PBD@?$basic_string@DV?$char_traits@D@_STL@@V?$allocator@D@2@@_STL@@AAEXPBD0@Z ; _STL::basic_string<char,_STL::char_traits<char>,_STL::allocator<char> >::_M_range_initialize<char const *>
; Function compile flags: /Ogsy
; File c:\stlport-4.6.1\stlport\stl\_string.h
;	COMDAT ??$_M_range_initialize@PBD@?$basic_string@DV?$char_traits@D@_STL@@V?$allocator@D@2@@_STL@@AAEXPBD0@Z
_TEXT	SEGMENT
___f$ = 8						; size = 4
___l$ = 12						; size = 4
$T103628 = 15						; size = 1
??$_M_range_initialize@PBD@?$basic_string@DV?$char_traits@D@_STL@@V?$allocator@D@2@@_STL@@AAEXPBD0@Z PROC NEAR ; _STL::basic_string<char,_STL::char_traits<char>,_STL::allocator<char> >::_M_range_initialize<char const *>, COMDAT
; _this$ = ecx

; 390  :   template <class _InputIter> void _M_range_initialize(_InputIter __f, _InputIter __l) {

  00000	55		 push	 ebp
  00001	8b ec		 mov	 ebp, esp

; 391  :     _M_range_initialize(__f, __l, _STLP_ITERATOR_CATEGORY(__f, _InputIter));

  00003	8d 45 0f	 lea	 eax, DWORD PTR $T103628[ebp]
  00006	50		 push	 eax
  00007	ff 75 0c	 push	 DWORD PTR ___l$[ebp]
  0000a	ff 75 08	 push	 DWORD PTR ___f$[ebp]
  0000d	e8 00 00 00 00	 call	 ??$_M_range_initialize@PBD@?$basic_string@DV?$char_traits@D@_STL@@V?$allocator@D@2@@_STL@@AAEXPBD0ABUforward_iterator_tag@1@@Z ; _STL::basic_string<char,_STL::char_traits<char>,_STL::allocator<char> >::_M_range_initialize<char const *>

; 392  :   }

  00012	5d		 pop	 ebp
  00013	c2 08 00	 ret	 8
??$_M_range_initialize@PBD@?$basic_string@DV?$char_traits@D@_STL@@V?$allocator@D@2@@_STL@@AAEXPBD0@Z ENDP ; _STL::basic_string<char,_STL::char_traits<char>,_STL::allocator<char> >::_M_range_initialize<char const *>
_TEXT	ENDS
PUBLIC	??1?$_String_base@DV?$allocator@D@_STL@@@_STL@@QAE@XZ ; _STL::_String_base<char,_STL::allocator<char> >::~_String_base<char,_STL::allocator<char> >
; Function compile flags: /Ogsy
;	COMDAT ??1?$_String_base@DV?$allocator@D@_STL@@@_STL@@QAE@XZ
_TEXT	SEGMENT
??1?$_String_base@DV?$allocator@D@_STL@@@_STL@@QAE@XZ PROC NEAR ; _STL::_String_base<char,_STL::allocator<char> >::~_String_base<char,_STL::allocator<char> >, COMDAT
; _this$ = ecx

; 135  :   ~_String_base() { _M_deallocate_block(); }

  00000	e9 00 00 00 00	 jmp	 ?_M_deallocate_block@?$_String_base@DV?$allocator@D@_STL@@@_STL@@QAEXXZ ; _STL::_String_base<char,_STL::allocator<char> >::_M_deallocate_block
??1?$_String_base@DV?$allocator@D@_STL@@@_STL@@QAE@XZ ENDP ; _STL::_String_base<char,_STL::allocator<char> >::~_String_base<char,_STL::allocator<char> >
_TEXT	ENDS
PUBLIC	??0?$basic_string@DV?$char_traits@D@_STL@@V?$allocator@D@2@@_STL@@QAE@PBDABV?$allocator@D@1@@Z ; _STL::basic_string<char,_STL::char_traits<char>,_STL::allocator<char> >::basic_string<char,_STL::char_traits<char>,_STL::allocator<char> >
EXTRN	__EH_prolog:NEAR
EXTRN	__except_list:DWORD
EXTRN	___CxxFrameHandler:NEAR
;	COMDAT xdata$x
xdata$x	SEGMENT
$T103649 DD	0ffffffffH
	DD	FLAT:$L103634
$T103645 DD	019930520H
	DD	01H
	DD	FLAT:$T103649
	DD	2 DUP(00H)
	DD	2 DUP(00H)
; Function compile flags: /Ogsy
; File c:\stlport-4.6.1\stlport\stl\_string.c
xdata$x	ENDS
;	COMDAT ??0?$basic_string@DV?$char_traits@D@_STL@@V?$allocator@D@2@@_STL@@QAE@PBDABV?$allocator@D@1@@Z
_TEXT	SEGMENT
_this$ = -16						; size = 4
__$EHRec$ = -12						; size = 12
___s$ = 8						; size = 4
$T103641 = 11						; size = 1
___a$ = 12						; size = 4
??0?$basic_string@DV?$char_traits@D@_STL@@V?$allocator@D@2@@_STL@@QAE@PBDABV?$allocator@D@1@@Z PROC NEAR ; _STL::basic_string<char,_STL::char_traits<char>,_STL::allocator<char> >::basic_string<char,_STL::char_traits<char>,_STL::allocator<char> >, COMDAT
; _this$ = ecx

; 552  : { 

  00000	b8 00 00 00 00	 mov	 eax, __ehhandler$??0?$basic_string@DV?$char_traits@D@_STL@@V?$allocator@D@2@@_STL@@QAE@PBDABV?$allocator@D@1@@Z
  00005	e8 00 00 00 00	 call	 __EH_prolog
  0000a	51		 push	 ecx
  0000b	56		 push	 esi
  0000c	ff 75 0c	 push	 DWORD PTR ___a$[ebp]
  0000f	8b f1		 mov	 esi, ecx
  00011	89 75 f0	 mov	 DWORD PTR _this$[ebp], esi
  00014	e8 00 00 00 00	 call	 ??0?$_String_base@DV?$allocator@D@_STL@@@_STL@@QAE@ABV?$allocator@D@1@@Z ; _STL::_String_base<char,_STL::allocator<char> >::_String_base<char,_STL::allocator<char> >

; 553  :   _STLP_FIX_LITERAL_BUG(__s) 
; 554  :     _M_range_initialize(__s, __s + traits_type::length(__s));  

  00019	ff 75 08	 push	 DWORD PTR ___s$[ebp]
  0001c	83 65 fc 00	 and	 DWORD PTR __$EHRec$[ebp+8], 0
  00020	e8 00 00 00 00	 call	 _strlen
  00025	03 45 08	 add	 eax, DWORD PTR ___s$[ebp]
  00028	59		 pop	 ecx
  00029	8d 4d 0b	 lea	 ecx, DWORD PTR $T103641[ebp]
  0002c	51		 push	 ecx
  0002d	50		 push	 eax
  0002e	ff 75 08	 push	 DWORD PTR ___s$[ebp]
  00031	8b ce		 mov	 ecx, esi
  00033	e8 00 00 00 00	 call	 ??$_M_range_initialize@PBD@?$basic_string@DV?$char_traits@D@_STL@@V?$allocator@D@2@@_STL@@AAEXPBD0ABUforward_iterator_tag@1@@Z ; _STL::basic_string<char,_STL::char_traits<char>,_STL::allocator<char> >::_M_range_initialize<char const *>

; 555  : } 

  00038	8b 4d f4	 mov	 ecx, DWORD PTR __$EHRec$[ebp]
  0003b	8b c6		 mov	 eax, esi
  0003d	5e		 pop	 esi
  0003e	64 89 0d 00 00
	00 00		 mov	 DWORD PTR fs:__except_list, ecx
  00045	c9		 leave
  00046	c2 08 00	 ret	 8
_TEXT	ENDS
;	COMDAT text$x
text$x	SEGMENT
$L103634:
  00000	8b 4d f0	 mov	 ecx, DWORD PTR _this$[ebp]
  00003	e9 00 00 00 00	 jmp	 ??1?$_String_base@DV?$allocator@D@_STL@@@_STL@@QAE@XZ ; _STL::_String_base<char,_STL::allocator<char> >::~_String_base<char,_STL::allocator<char> >
__ehhandler$??0?$basic_string@DV?$char_traits@D@_STL@@V?$allocator@D@2@@_STL@@QAE@PBDABV?$allocator@D@1@@Z:
  00008	b8 00 00 00 00	 mov	 eax, OFFSET FLAT:$T103645
  0000d	e9 00 00 00 00	 jmp	 ___CxxFrameHandler
text$x	ENDS
??0?$basic_string@DV?$char_traits@D@_STL@@V?$allocator@D@2@@_STL@@QAE@PBDABV?$allocator@D@1@@Z ENDP ; _STL::basic_string<char,_STL::char_traits<char>,_STL::allocator<char> >::basic_string<char,_STL::char_traits<char>,_STL::allocator<char> >
PUBLIC	??_R4ModifyInfo@@6B@				; ModifyInfo::`RTTI Complete Object Locator'
PUBLIC	??_R0?AVModifyInfo@@@8				; ModifyInfo `RTTI Type Descriptor'
PUBLIC	??_R3ModifyInfo@@8				; ModifyInfo::`RTTI Class Hierarchy Descriptor'
PUBLIC	??_R2ModifyInfo@@8				; ModifyInfo::`RTTI Base Class Array'
PUBLIC	??_R1A@?0A@A@ModifyInfo@@8			; ModifyInfo::`RTTI Base Class Descriptor at (0,-1,0,0)'
PUBLIC	??0ModifyInfo@@QAE@XZ				; ModifyInfo::ModifyInfo
PUBLIC	?read@ModifyInfo@@UAEXAAVSocketInputStream@@@Z	; ModifyInfo::read
PUBLIC	?getPacketSize@ModifyInfo@@UBEIXZ		; ModifyInfo::getPacketSize
PUBLIC	??_7ModifyInfo@@6B@				; ModifyInfo::`vftable'
PUBLIC	??_GModifyInfo@@UAEPAXI@Z			; ModifyInfo::`scalar deleting destructor'
EXTRN	??_EModifyInfo@@UAEPAXI@Z:NEAR			; ModifyInfo::`vector deleting destructor'
;	COMDAT ??_7ModifyInfo@@6B@
; File c:\stlport-4.6.1\stlport\stl\_alloc.h
CONST	SEGMENT
??_7ModifyInfo@@6B@ DD FLAT:??_R4ModifyInfo@@6B@	; ModifyInfo::`vftable'
	DD	FLAT:??_EModifyInfo@@UAEPAXI@Z
	DD	FLAT:?read@Packet@@UAEXPAVSocket@@@Z
	DD	FLAT:?read@ModifyInfo@@UAEXAAVSocketInputStream@@@Z
	DD	FLAT:?write@Packet@@UBEXPAVSocket@@@Z
	DD	FLAT:?write@ModifyInfo@@UBEXAAVSocketOutputStream@@@Z
	DD	FLAT:__purecall
	DD	FLAT:__purecall
	DD	FLAT:?getPacketSize@ModifyInfo@@UBEIXZ
CONST	ENDS
;	COMDAT ??_R4ModifyInfo@@6B@
rdata$r	SEGMENT
??_R4ModifyInfo@@6B@ DD 00H				; ModifyInfo::`RTTI Complete Object Locator'
	DD	00H
	DD	00H
	DD	FLAT:??_R0?AVModifyInfo@@@8
	DD	FLAT:??_R3ModifyInfo@@8
rdata$r	ENDS
;	COMDAT ??_R0?AVModifyInfo@@@8
_DATA	SEGMENT
??_R0?AVModifyInfo@@@8 DD FLAT:??_7type_info@@6B@	; ModifyInfo `RTTI Type Descriptor'
	DD	00H
	DB	'.?AVModifyInfo@@', 00H
_DATA	ENDS
;	COMDAT ??_R3ModifyInfo@@8
rdata$r	SEGMENT
??_R3ModifyInfo@@8 DD 00H				; ModifyInfo::`RTTI Class Hierarchy Descriptor'
	DD	00H
	DD	02H
	DD	FLAT:??_R2ModifyInfo@@8
rdata$r	ENDS
;	COMDAT ??_R2ModifyInfo@@8
rdata$r	SEGMENT
??_R2ModifyInfo@@8 DD FLAT:??_R1A@?0A@A@ModifyInfo@@8	; ModifyInfo::`RTTI Base Class Array'
	DD	FLAT:??_R1A@?0A@A@Packet@@8
rdata$r	ENDS
;	COMDAT ??_R1A@?0A@A@ModifyInfo@@8
rdata$r	SEGMENT
??_R1A@?0A@A@ModifyInfo@@8 DD FLAT:??_R0?AVModifyInfo@@@8 ; ModifyInfo::`RTTI Base Class Descriptor at (0,-1,0,0)'
	DD	01H
	DD	00H
	DD	0ffffffffH
	DD	00H
	DD	00H
; Function compile flags: /Ogsy
; File c:\darkeden\designed_common\project\client\packet\modifyinfo.cpp
rdata$r	ENDS
;	COMDAT ??0ModifyInfo@@QAE@XZ
_TEXT	SEGMENT
$T103656 = -1						; size = 1
$T103655 = -1						; size = 1
??0ModifyInfo@@QAE@XZ PROC NEAR				; ModifyInfo::ModifyInfo, COMDAT
; _this$ = ecx

; 15   : {

  00000	55		 push	 ebp
  00001	8b ec		 mov	 ebp, esp
  00003	51		 push	 ecx
  00004	56		 push	 esi
  00005	8b f1		 mov	 esi, ecx
  00007	8d 45 ff	 lea	 eax, DWORD PTR $T103655[ebp]
  0000a	50		 push	 eax
  0000b	8d 4e 08	 lea	 ecx, DWORD PTR [esi+8]
  0000e	c7 06 00 00 00
	00		 mov	 DWORD PTR [esi], OFFSET FLAT:??_7ModifyInfo@@6B@
  00014	e8 00 00 00 00	 call	 ??0?$list@U_SHORTDATA@@V?$allocator@U_SHORTDATA@@@_STL@@@_STL@@QAE@ABV?$allocator@U_SHORTDATA@@@1@@Z ; _STL::list<_SHORTDATA,_STL::allocator<_SHORTDATA> >::list<_SHORTDATA,_STL::allocator<_SHORTDATA> >
  00019	8d 45 ff	 lea	 eax, DWORD PTR $T103656[ebp]
  0001c	50		 push	 eax
  0001d	8d 4e 10	 lea	 ecx, DWORD PTR [esi+16]
  00020	e8 00 00 00 00	 call	 ??0?$list@U_LONGDATA@@V?$allocator@U_LONGDATA@@@_STL@@@_STL@@QAE@ABV?$allocator@U_LONGDATA@@@1@@Z ; _STL::list<_LONGDATA,_STL::allocator<_LONGDATA> >::list<_LONGDATA,_STL::allocator<_LONGDATA> >

; 16   : 	__BEGIN_TRY
; 17   : 
; 18   : 	m_ShortCount = 0;

  00025	c6 46 04 00	 mov	 BYTE PTR [esi+4], 0

; 19   : 	m_LongCount = 0;

  00029	c6 46 0c 00	 mov	 BYTE PTR [esi+12], 0

; 20   : 
; 21   : 	__END_CATCH
; 22   : }

  0002d	8b c6		 mov	 eax, esi
  0002f	5e		 pop	 esi
  00030	c9		 leave
  00031	c3		 ret	 0
??0ModifyInfo@@QAE@XZ ENDP				; ModifyInfo::ModifyInfo
; Function compile flags: /Ogsy
; File c:\darkeden\designed_common\project\client\packet\modifyinfo.h
_TEXT	ENDS
;	COMDAT ?getPacketSize@ModifyInfo@@UBEIXZ
_TEXT	SEGMENT
?getPacketSize@ModifyInfo@@UBEIXZ PROC NEAR		; ModifyInfo::getPacketSize, COMDAT
; _this$ = ecx

; 238  : 	PacketSize_t getPacketSize () const throw () { return szBYTE*2 + m_ShortCount*(szBYTE+szshort) + m_LongCount*(szBYTE+szlong); }

  00000	0f b6 41 0c	 movzx	 eax, BYTE PTR [ecx+12]
  00004	8d 14 80	 lea	 edx, DWORD PTR [eax+eax*4]
  00007	0f b6 41 04	 movzx	 eax, BYTE PTR [ecx+4]
  0000b	8d 04 40	 lea	 eax, DWORD PTR [eax+eax*2]
  0000e	8d 44 02 02	 lea	 eax, DWORD PTR [edx+eax+2]
  00012	c3		 ret	 0
?getPacketSize@ModifyInfo@@UBEIXZ ENDP			; ModifyInfo::getPacketSize
_TEXT	ENDS
PUBLIC	??1ModifyInfo@@UAE@XZ				; ModifyInfo::~ModifyInfo
; Function compile flags: /Ogsy
; File c:\darkeden\designed_common\project\client\packet\modifyinfo.cpp
;	COMDAT ??1ModifyInfo@@UAE@XZ
_TEXT	SEGMENT
??1ModifyInfo@@UAE@XZ PROC NEAR				; ModifyInfo::~ModifyInfo, COMDAT
; _this$ = ecx

; 29   : {

  00000	53		 push	 ebx
  00001	56		 push	 esi
  00002	8b f1		 mov	 esi, ecx
  00004	57		 push	 edi

; 30   : 	__BEGIN_TRY
; 31   : 
; 32   : 	m_ShortList.clear();

  00005	8d 7e 08	 lea	 edi, DWORD PTR [esi+8]
  00008	8b cf		 mov	 ecx, edi
  0000a	c7 06 00 00 00
	00		 mov	 DWORD PTR [esi], OFFSET FLAT:??_7ModifyInfo@@6B@
  00010	e8 00 00 00 00	 call	 ?clear@?$_List_base@U_SHORTDATA@@V?$allocator@U_SHORTDATA@@@_STL@@@_STL@@QAEXXZ ; _STL::_List_base<_SHORTDATA,_STL::allocator<_SHORTDATA> >::clear

; 33   : 	m_LongList.clear();

  00015	8d 5e 10	 lea	 ebx, DWORD PTR [esi+16]
  00018	8b cb		 mov	 ecx, ebx
  0001a	e8 00 00 00 00	 call	 ?clear@?$_List_base@U_LONGDATA@@V?$allocator@U_LONGDATA@@@_STL@@@_STL@@QAEXXZ ; _STL::_List_base<_LONGDATA,_STL::allocator<_LONGDATA> >::clear

; 34   : 
; 35   : 	__END_CATCH
; 36   : }

  0001f	8b cb		 mov	 ecx, ebx
  00021	e8 00 00 00 00	 call	 ??1?$list@U_LONGDATA@@V?$allocator@U_LONGDATA@@@_STL@@@_STL@@QAE@XZ ; _STL::list<_LONGDATA,_STL::allocator<_LONGDATA> >::~list<_LONGDATA,_STL::allocator<_LONGDATA> >
  00026	8b cf		 mov	 ecx, edi
  00028	e8 00 00 00 00	 call	 ??1?$list@U_SHORTDATA@@V?$allocator@U_SHORTDATA@@@_STL@@@_STL@@QAE@XZ ; _STL::list<_SHORTDATA,_STL::allocator<_SHORTDATA> >::~list<_SHORTDATA,_STL::allocator<_SHORTDATA> >
  0002d	5f		 pop	 edi
  0002e	c7 06 00 00 00
	00		 mov	 DWORD PTR [esi], OFFSET FLAT:??_7Packet@@6B@
  00034	5e		 pop	 esi
  00035	5b		 pop	 ebx
  00036	c3		 ret	 0
??1ModifyInfo@@UAE@XZ ENDP				; ModifyInfo::~ModifyInfo
_TEXT	ENDS
PUBLIC	?popShortData@ModifyInfo@@QAEXAAU_SHORTDATA@@@Z	; ModifyInfo::popShortData
; Function compile flags: /Ogsy
;	COMDAT ?popShortData@ModifyInfo@@QAEXAAU_SHORTDATA@@@Z
_TEXT	SEGMENT
_short_data$ = -4					; size = 4
_rData$ = 8						; size = 4
?popShortData@ModifyInfo@@QAEXAAU_SHORTDATA@@@Z PROC NEAR ; ModifyInfo::popShortData, COMDAT
; _this$ = ecx

; 183  : {

  00000	55		 push	 ebp
  00001	8b ec		 mov	 ebp, esp
  00003	51		 push	 ecx

; 184  : 	__BEGIN_TRY
; 185  : 
; 186  : 	SHORTDATA short_data = m_ShortList.front();
; 187  : 
; 188  : 	rData.type = short_data.type;

  00004	8b 55 08	 mov	 edx, DWORD PTR _rData$[ebp]
  00007	56		 push	 esi
  00008	8b f1		 mov	 esi, ecx
  0000a	8d 4e 08	 lea	 ecx, DWORD PTR [esi+8]
  0000d	8b 01		 mov	 eax, DWORD PTR [ecx]
  0000f	8b 00		 mov	 eax, DWORD PTR [eax]
  00011	8b 40 08	 mov	 eax, DWORD PTR [eax+8]
  00014	89 45 fc	 mov	 DWORD PTR _short_data$[ebp], eax
  00017	88 02		 mov	 BYTE PTR [edx], al

; 189  : 	rData.value = short_data.value;

  00019	66 8b 45 fe	 mov	 ax, WORD PTR _short_data$[ebp+2]
  0001d	66 89 42 02	 mov	 WORD PTR [edx+2], ax

; 190  : 
; 191  : 	m_ShortList.pop_front();

  00021	e8 00 00 00 00	 call	 ?pop_front@?$list@U_SHORTDATA@@V?$allocator@U_SHORTDATA@@@_STL@@@_STL@@QAEXXZ ; _STL::list<_SHORTDATA,_STL::allocator<_SHORTDATA> >::pop_front

; 192  : 	m_ShortCount--;

  00026	fe 4e 04	 dec	 BYTE PTR [esi+4]
  00029	5e		 pop	 esi

; 193  : 
; 194  : 	__END_CATCH
; 195  : }

  0002a	c9		 leave
  0002b	c2 04 00	 ret	 4
?popShortData@ModifyInfo@@QAEXAAU_SHORTDATA@@@Z ENDP	; ModifyInfo::popShortData
_TEXT	ENDS
PUBLIC	?popLongData@ModifyInfo@@QAEXAAU_LONGDATA@@@Z	; ModifyInfo::popLongData
; Function compile flags: /Ogsy
;	COMDAT ?popLongData@ModifyInfo@@QAEXAAU_LONGDATA@@@Z
_TEXT	SEGMENT
_rData$ = 8						; size = 4
?popLongData@ModifyInfo@@QAEXAAU_LONGDATA@@@Z PROC NEAR	; ModifyInfo::popLongData, COMDAT
; _this$ = ecx

; 201  : {

  00000	56		 push	 esi
  00001	8b f1		 mov	 esi, ecx

; 202  : 	__BEGIN_TRY
; 203  : 
; 204  : 	LONGDATA long_data = m_LongList.front();

  00003	8d 4e 10	 lea	 ecx, DWORD PTR [esi+16]
  00006	8b 01		 mov	 eax, DWORD PTR [ecx]
  00008	8b 00		 mov	 eax, DWORD PTR [eax]
  0000a	8b 50 08	 mov	 edx, DWORD PTR [eax+8]
  0000d	8b 40 0c	 mov	 eax, DWORD PTR [eax+12]
  00010	57		 push	 edi

; 205  : 
; 206  : 	rData.type = long_data.type;

  00011	8b 7c 24 0c	 mov	 edi, DWORD PTR _rData$[esp+4]
  00015	88 17		 mov	 BYTE PTR [edi], dl

; 207  : 	rData.value = long_data.value;

  00017	89 47 04	 mov	 DWORD PTR [edi+4], eax

; 208  : 
; 209  : 	m_LongList.pop_front();

  0001a	e8 00 00 00 00	 call	 ?pop_front@?$list@U_LONGDATA@@V?$allocator@U_LONGDATA@@@_STL@@@_STL@@QAEXXZ ; _STL::list<_LONGDATA,_STL::allocator<_LONGDATA> >::pop_front

; 210  : 	m_LongCount--;

  0001f	fe 4e 0c	 dec	 BYTE PTR [esi+12]
  00022	5f		 pop	 edi
  00023	5e		 pop	 esi

; 211  : 
; 212  : 	__END_CATCH
; 213  : }

  00024	c2 04 00	 ret	 4
?popLongData@ModifyInfo@@QAEXAAU_LONGDATA@@@Z ENDP	; ModifyInfo::popLongData
_TEXT	ENDS
PUBLIC	?push_back@?$list@U_SHORTDATA@@V?$allocator@U_SHORTDATA@@@_STL@@@_STL@@QAEXABU_SHORTDATA@@@Z ; _STL::list<_SHORTDATA,_STL::allocator<_SHORTDATA> >::push_back
; Function compile flags: /Ogsy
; File c:\stlport-4.6.1\stlport\stl\_list.h
;	COMDAT ?push_back@?$list@U_SHORTDATA@@V?$allocator@U_SHORTDATA@@@_STL@@@_STL@@QAEXABU_SHORTDATA@@@Z
_TEXT	SEGMENT
$T103753 = 8						; size = 4
___x$ = 8						; size = 4
?push_back@?$list@U_SHORTDATA@@V?$allocator@U_SHORTDATA@@@_STL@@@_STL@@QAEXABU_SHORTDATA@@@Z PROC NEAR ; _STL::list<_SHORTDATA,_STL::allocator<_SHORTDATA> >::push_back, COMDAT
; _this$ = ecx

; 345  :   void push_back(const _Tp& __x) { insert(end(), __x); }

  00000	55		 push	 ebp
  00001	8b ec		 mov	 ebp, esp
  00003	ff 75 08	 push	 DWORD PTR ___x$[ebp]
  00006	8b 11		 mov	 edx, DWORD PTR [ecx]
  00008	51		 push	 ecx
  00009	8b c4		 mov	 eax, esp
  0000b	89 10		 mov	 DWORD PTR [eax], edx
  0000d	8d 45 08	 lea	 eax, DWORD PTR $T103753[ebp]
  00010	50		 push	 eax
  00011	e8 00 00 00 00	 call	 ?insert@?$list@U_SHORTDATA@@V?$allocator@U_SHORTDATA@@@_STL@@@_STL@@QAE?AU?$_List_iterator@U_SHORTDATA@@U?$_Nonconst_traits@U_SHORTDATA@@@_STL@@@2@U32@ABU_SHORTDATA@@@Z ; _STL::list<_SHORTDATA,_STL::allocator<_SHORTDATA> >::insert
  00016	5d		 pop	 ebp
  00017	c2 04 00	 ret	 4
?push_back@?$list@U_SHORTDATA@@V?$allocator@U_SHORTDATA@@@_STL@@@_STL@@QAEXABU_SHORTDATA@@@Z ENDP ; _STL::list<_SHORTDATA,_STL::allocator<_SHORTDATA> >::push_back
_TEXT	ENDS
PUBLIC	?push_back@?$list@U_LONGDATA@@V?$allocator@U_LONGDATA@@@_STL@@@_STL@@QAEXABU_LONGDATA@@@Z ; _STL::list<_LONGDATA,_STL::allocator<_LONGDATA> >::push_back
; Function compile flags: /Ogsy
;	COMDAT ?push_back@?$list@U_LONGDATA@@V?$allocator@U_LONGDATA@@@_STL@@@_STL@@QAEXABU_LONGDATA@@@Z
_TEXT	SEGMENT
$T103774 = 8						; size = 4
___x$ = 8						; size = 4
?push_back@?$list@U_LONGDATA@@V?$allocator@U_LONGDATA@@@_STL@@@_STL@@QAEXABU_LONGDATA@@@Z PROC NEAR ; _STL::list<_LONGDATA,_STL::allocator<_LONGDATA> >::push_back, COMDAT
; _this$ = ecx

; 345  :   void push_back(const _Tp& __x) { insert(end(), __x); }

  00000	55		 push	 ebp
  00001	8b ec		 mov	 ebp, esp
  00003	ff 75 08	 push	 DWORD PTR ___x$[ebp]
  00006	8b 11		 mov	 edx, DWORD PTR [ecx]
  00008	51		 push	 ecx
  00009	8b c4		 mov	 eax, esp
  0000b	89 10		 mov	 DWORD PTR [eax], edx
  0000d	8d 45 08	 lea	 eax, DWORD PTR $T103774[ebp]
  00010	50		 push	 eax
  00011	e8 00 00 00 00	 call	 ?insert@?$list@U_LONGDATA@@V?$allocator@U_LONGDATA@@@_STL@@@_STL@@QAE?AU?$_List_iterator@U_LONGDATA@@U?$_Nonconst_traits@U_LONGDATA@@@_STL@@@2@U32@ABU_LONGDATA@@@Z ; _STL::list<_LONGDATA,_STL::allocator<_LONGDATA> >::insert
  00016	5d		 pop	 ebp
  00017	c2 04 00	 ret	 4
?push_back@?$list@U_LONGDATA@@V?$allocator@U_LONGDATA@@@_STL@@@_STL@@QAEXABU_LONGDATA@@@Z ENDP ; _STL::list<_LONGDATA,_STL::allocator<_LONGDATA> >::push_back
_TEXT	ENDS
PUBLIC	??1?$basic_string@DV?$char_traits@D@_STL@@V?$allocator@D@2@@_STL@@QAE@XZ ; _STL::basic_string<char,_STL::char_traits<char>,_STL::allocator<char> >::~basic_string<char,_STL::char_traits<char>,_STL::allocator<char> >
; Function compile flags: /Ogsy
; File c:\stlport-4.6.1\stlport\stl\_string.h
;	COMDAT ??1?$basic_string@DV?$char_traits@D@_STL@@V?$allocator@D@2@@_STL@@QAE@XZ
_TEXT	SEGMENT
??1?$basic_string@DV?$char_traits@D@_STL@@V?$allocator@D@2@@_STL@@QAE@XZ PROC NEAR ; _STL::basic_string<char,_STL::char_traits<char>,_STL::allocator<char> >::~basic_string<char,_STL::char_traits<char>,_STL::allocator<char> >, COMDAT
; _this$ = ecx

; 305  :   ~basic_string() { _STLP_STD::_Destroy(this->_M_start, this->_M_finish + 1); }

  00000	e9 00 00 00 00	 jmp	 ?_M_deallocate_block@?$_String_base@DV?$allocator@D@_STL@@@_STL@@QAEXXZ ; _STL::_String_base<char,_STL::allocator<char> >::_M_deallocate_block
??1?$basic_string@DV?$char_traits@D@_STL@@V?$allocator@D@2@@_STL@@QAE@XZ ENDP ; _STL::basic_string<char,_STL::char_traits<char>,_STL::allocator<char> >::~basic_string<char,_STL::char_traits<char>,_STL::allocator<char> >
; Function compile flags: /Ogsy
_TEXT	ENDS
;	COMDAT ??_GModifyInfo@@UAEPAXI@Z
_TEXT	SEGMENT
___flags$ = 8						; size = 4
??_GModifyInfo@@UAEPAXI@Z PROC NEAR			; ModifyInfo::`scalar deleting destructor', COMDAT
; _this$ = ecx
  00000	56		 push	 esi
  00001	8b f1		 mov	 esi, ecx
  00003	e8 00 00 00 00	 call	 ??1ModifyInfo@@UAE@XZ	; ModifyInfo::~ModifyInfo
  00008	f6 44 24 08 01	 test	 BYTE PTR ___flags$[esp], 1
  0000d	74 07		 je	 SHORT $L101390
  0000f	56		 push	 esi
  00010	e8 00 00 00 00	 call	 ??3@YAXPAX@Z		; operator delete
  00015	59		 pop	 ecx
$L101390:
  00016	8b c6		 mov	 eax, esi
  00018	5e		 pop	 esi
  00019	c2 04 00	 ret	 4
??_GModifyInfo@@UAEPAXI@Z ENDP				; ModifyInfo::`scalar deleting destructor'
; Function compile flags: /Ogsy
; File c:\darkeden\designed_common\project\client\packet\modifyinfo.cpp
_TEXT	ENDS
;	COMDAT ?read@ModifyInfo@@UAEXAAVSocketInputStream@@@Z
_TEXT	SEGMENT
_long_data$ = -12					; size = 8
_short_data$ = -4					; size = 4
_iStream$ = 8						; size = 4
_s$101405 = 11						; size = 1
?read@ModifyInfo@@UAEXAAVSocketInputStream@@@Z PROC NEAR ; ModifyInfo::read, COMDAT
; _this$ = ecx

; 43   : {

  00000	55		 push	 ebp
  00001	8b ec		 mov	 ebp, esp
  00003	83 ec 0c	 sub	 esp, 12			; 0000000cH
  00006	53		 push	 ebx

; 44   : 	__BEGIN_TRY
; 45   : 		
; 46   : 	SHORTDATA short_data;
; 47   : 	LONGDATA  long_data;
; 48   : 
; 49   : 	iStream.read(m_ShortCount);

  00007	8b 5d 08	 mov	 ebx, DWORD PTR _iStream$[ebp]
  0000a	56		 push	 esi
  0000b	57		 push	 edi
  0000c	8b f9		 mov	 edi, ecx
  0000e	6a 01		 push	 1
  00010	8d 77 04	 lea	 esi, DWORD PTR [edi+4]
  00013	56		 push	 esi
  00014	8b cb		 mov	 ecx, ebx
  00016	e8 00 00 00 00	 call	 ?read@SocketInputStream@@QAEIPADI@Z ; SocketInputStream::read

; 50   : 
; 51   : 	for (BYTE s=0; s<m_ShortCount; s++)

  0001b	80 3e 00	 cmp	 BYTE PTR [esi], 0
  0001e	c6 45 0b 00	 mov	 BYTE PTR _s$101405[ebp], 0
  00022	76 30		 jbe	 SHORT $L101408
$L101406:

; 52   : 	{
; 53   : 		iStream.read(short_data.type);

  00024	6a 01		 push	 1
  00026	8d 45 fc	 lea	 eax, DWORD PTR _short_data$[ebp]
  00029	50		 push	 eax
  0002a	8b cb		 mov	 ecx, ebx
  0002c	e8 00 00 00 00	 call	 ?read@SocketInputStream@@QAEIPADI@Z ; SocketInputStream::read

; 54   : 		iStream.read(short_data.value);

  00031	6a 02		 push	 2
  00033	8d 45 fe	 lea	 eax, DWORD PTR _short_data$[ebp+2]
  00036	50		 push	 eax
  00037	8b cb		 mov	 ecx, ebx
  00039	e8 00 00 00 00	 call	 ?read@SocketInputStream@@QAEIPADI@Z ; SocketInputStream::read

; 55   : 
; 56   : 		m_ShortList.push_back(short_data);

  0003e	8d 45 fc	 lea	 eax, DWORD PTR _short_data$[ebp]
  00041	50		 push	 eax
  00042	8d 4f 08	 lea	 ecx, DWORD PTR [edi+8]
  00045	e8 00 00 00 00	 call	 ?push_back@?$list@U_SHORTDATA@@V?$allocator@U_SHORTDATA@@@_STL@@@_STL@@QAEXABU_SHORTDATA@@@Z ; _STL::list<_SHORTDATA,_STL::allocator<_SHORTDATA> >::push_back
  0004a	fe 45 0b	 inc	 BYTE PTR _s$101405[ebp]
  0004d	8a 45 0b	 mov	 al, BYTE PTR _s$101405[ebp]
  00050	3a 06		 cmp	 al, BYTE PTR [esi]
  00052	72 d0		 jb	 SHORT $L101406
$L101408:

; 57   : 	}
; 58   : 
; 59   : 	iStream.read(m_LongCount);

  00054	6a 01		 push	 1
  00056	8d 77 0c	 lea	 esi, DWORD PTR [edi+12]
  00059	56		 push	 esi
  0005a	8b cb		 mov	 ecx, ebx
  0005c	e8 00 00 00 00	 call	 ?read@SocketInputStream@@QAEIPADI@Z ; SocketInputStream::read

; 60   : 
; 61   : 	for (s=0; s<m_LongCount; s++)

  00061	80 3e 00	 cmp	 BYTE PTR [esi], 0
  00064	c6 45 0b 00	 mov	 BYTE PTR _s$101405[ebp], 0
  00068	76 32		 jbe	 SHORT $L101411
  0006a	83 c7 10	 add	 edi, 16			; 00000010H
$L101409:

; 62   : 	{
; 63   : 		iStream.read(long_data.type);

  0006d	6a 01		 push	 1
  0006f	8d 45 f4	 lea	 eax, DWORD PTR _long_data$[ebp]
  00072	50		 push	 eax
  00073	8b cb		 mov	 ecx, ebx
  00075	e8 00 00 00 00	 call	 ?read@SocketInputStream@@QAEIPADI@Z ; SocketInputStream::read

; 64   : 		iStream.read(long_data.value);

  0007a	6a 04		 push	 4
  0007c	8d 45 f8	 lea	 eax, DWORD PTR _long_data$[ebp+4]
  0007f	50		 push	 eax
  00080	8b cb		 mov	 ecx, ebx
  00082	e8 00 00 00 00	 call	 ?read@SocketInputStream@@QAEIPADI@Z ; SocketInputStream::read

; 65   : 
; 66   : 		m_LongList.push_back(long_data);

  00087	8d 45 f4	 lea	 eax, DWORD PTR _long_data$[ebp]
  0008a	50		 push	 eax
  0008b	8b cf		 mov	 ecx, edi
  0008d	e8 00 00 00 00	 call	 ?push_back@?$list@U_LONGDATA@@V?$allocator@U_LONGDATA@@@_STL@@@_STL@@QAEXABU_LONGDATA@@@Z ; _STL::list<_LONGDATA,_STL::allocator<_LONGDATA> >::push_back
  00092	fe 45 0b	 inc	 BYTE PTR _s$101405[ebp]
  00095	8a 45 0b	 mov	 al, BYTE PTR _s$101405[ebp]
  00098	3a 06		 cmp	 al, BYTE PTR [esi]
  0009a	72 d1		 jb	 SHORT $L101409
$L101411:
  0009c	5f		 pop	 edi
  0009d	5e		 pop	 esi
  0009e	5b		 pop	 ebx

; 67   : 	}
; 68   : 
; 69   : 	__END_CATCH
; 70   : }

  0009f	c9		 leave
  000a0	c2 04 00	 ret	 4
?read@ModifyInfo@@UAEXAAVSocketInputStream@@@Z ENDP	; ModifyInfo::read
_TEXT	ENDS
PUBLIC	?addShortData@ModifyInfo@@QAEXW4ModifyType@@G@Z	; ModifyInfo::addShortData
; Function compile flags: /Ogsy
;	COMDAT ?addShortData@ModifyInfo@@QAEXW4ModifyType@@G@Z
_TEXT	SEGMENT
_short_data$ = 8					; size = 4
_type$ = 8						; size = 4
_value$ = 12						; size = 2
?addShortData@ModifyInfo@@QAEXW4ModifyType@@G@Z PROC NEAR ; ModifyInfo::addShortData, COMDAT
; _this$ = ecx

; 147  : {

  00000	55		 push	 ebp
  00001	8b ec		 mov	 ebp, esp

; 148  : 	__BEGIN_TRY
; 149  : 
; 150  : 	SHORTDATA short_data;
; 151  : 	short_data.type = type;

  00003	8a 45 08	 mov	 al, BYTE PTR _type$[ebp]
  00006	88 45 08	 mov	 BYTE PTR _short_data$[ebp], al

; 152  : 	short_data.value = value;

  00009	66 8b 45 0c	 mov	 ax, WORD PTR _value$[ebp]
  0000d	56		 push	 esi
  0000e	66 89 45 0a	 mov	 WORD PTR _short_data$[ebp+2], ax
  00012	8b f1		 mov	 esi, ecx

; 153  : 
; 154  : 	m_ShortList.push_back(short_data);

  00014	8d 45 08	 lea	 eax, DWORD PTR _short_data$[ebp]
  00017	50		 push	 eax
  00018	8d 4e 08	 lea	 ecx, DWORD PTR [esi+8]
  0001b	e8 00 00 00 00	 call	 ?push_back@?$list@U_SHORTDATA@@V?$allocator@U_SHORTDATA@@@_STL@@@_STL@@QAEXABU_SHORTDATA@@@Z ; _STL::list<_SHORTDATA,_STL::allocator<_SHORTDATA> >::push_back

; 155  : 
; 156  : 	m_ShortCount++;

  00020	fe 46 04	 inc	 BYTE PTR [esi+4]
  00023	5e		 pop	 esi

; 157  : 
; 158  : 	__END_CATCH
; 159  : }

  00024	5d		 pop	 ebp
  00025	c2 08 00	 ret	 8
?addShortData@ModifyInfo@@QAEXW4ModifyType@@G@Z ENDP	; ModifyInfo::addShortData
_TEXT	ENDS
PUBLIC	?addLongData@ModifyInfo@@QAEXW4ModifyType@@K@Z	; ModifyInfo::addLongData
; Function compile flags: /Ogsy
;	COMDAT ?addLongData@ModifyInfo@@QAEXW4ModifyType@@K@Z
_TEXT	SEGMENT
_long_data$ = -8					; size = 8
_type$ = 8						; size = 4
_value$ = 12						; size = 4
?addLongData@ModifyInfo@@QAEXW4ModifyType@@K@Z PROC NEAR ; ModifyInfo::addLongData, COMDAT
; _this$ = ecx

; 165  : {

  00000	55		 push	 ebp
  00001	8b ec		 mov	 ebp, esp
  00003	51		 push	 ecx
  00004	51		 push	 ecx

; 166  : 	__BEGIN_TRY
; 167  : 
; 168  : 	LONGDATA long_data;
; 169  : 	long_data.type = type;

  00005	8a 45 08	 mov	 al, BYTE PTR _type$[ebp]
  00008	88 45 f8	 mov	 BYTE PTR _long_data$[ebp], al

; 170  : 	long_data.value = value;

  0000b	8b 45 0c	 mov	 eax, DWORD PTR _value$[ebp]
  0000e	56		 push	 esi
  0000f	89 45 fc	 mov	 DWORD PTR _long_data$[ebp+4], eax
  00012	8b f1		 mov	 esi, ecx

; 171  : 
; 172  : 	m_LongList.push_back(long_data);

  00014	8d 45 f8	 lea	 eax, DWORD PTR _long_data$[ebp]
  00017	50		 push	 eax
  00018	8d 4e 10	 lea	 ecx, DWORD PTR [esi+16]
  0001b	e8 00 00 00 00	 call	 ?push_back@?$list@U_LONGDATA@@V?$allocator@U_LONGDATA@@@_STL@@@_STL@@QAEXABU_LONGDATA@@@Z ; _STL::list<_LONGDATA,_STL::allocator<_LONGDATA> >::push_back

; 173  : 
; 174  : 	m_LongCount++;

  00020	fe 46 0c	 inc	 BYTE PTR [esi+12]
  00023	5e		 pop	 esi

; 175  : 
; 176  : 	__END_CATCH
; 177  : }

  00024	c9		 leave
  00025	c2 08 00	 ret	 8
?addLongData@ModifyInfo@@QAEXW4ModifyType@@K@Z ENDP	; ModifyInfo::addLongData
_TEXT	ENDS
PUBLIC	__TI3?AVUnsupportedError@@
PUBLIC	__CTA3?AVUnsupportedError@@
PUBLIC	__CT??_R0?AVUnsupportedError@@@8??0UnsupportedError@@QAE@ABV0@@Z20
PUBLIC	__CT??_R0?AVError@@@8??0Error@@QAE@ABV0@@Z20
PUBLIC	__CT??_R0?AVThrowable@@@8??0Throwable@@QAE@ABV0@@Z20
PUBLIC	??0Error@@QAE@ABV0@@Z				; Error::Error
PUBLIC	??0UnsupportedError@@QAE@XZ			; UnsupportedError::UnsupportedError
PUBLIC	??1UnsupportedError@@UAE@XZ			; UnsupportedError::~UnsupportedError
PUBLIC	??0UnsupportedError@@QAE@ABV0@@Z		; UnsupportedError::UnsupportedError
PUBLIC	??_R0?AVError@@@8				; Error `RTTI Type Descriptor'
PUBLIC	??_R0?AVThrowable@@@8				; Throwable `RTTI Type Descriptor'
PUBLIC	??0Throwable@@QAE@ABV0@@Z			; Throwable::Throwable
PUBLIC	??_R0?AVUnsupportedError@@@8			; UnsupportedError `RTTI Type Descriptor'
;	COMDAT __TI3?AVUnsupportedError@@
; File c:\darkeden\designed_common\project\client\packet\packet.h
xdata$x	SEGMENT
__TI3?AVUnsupportedError@@ DD 00H
	DD	FLAT:??1UnsupportedError@@UAE@XZ
	DD	00H
	DD	FLAT:__CTA3?AVUnsupportedError@@
xdata$x	ENDS
;	COMDAT __CTA3?AVUnsupportedError@@
xdata$x	SEGMENT
__CTA3?AVUnsupportedError@@ DD 03H
	DD	FLAT:__CT??_R0?AVUnsupportedError@@@8??0UnsupportedError@@QAE@ABV0@@Z20
	DD	FLAT:__CT??_R0?AVError@@@8??0Error@@QAE@ABV0@@Z20
	DD	FLAT:__CT??_R0?AVThrowable@@@8??0Throwable@@QAE@ABV0@@Z20
xdata$x	ENDS
;	COMDAT __CT??_R0?AVUnsupportedError@@@8??0UnsupportedError@@QAE@ABV0@@Z20
xdata$x	SEGMENT
__CT??_R0?AVUnsupportedError@@@8??0UnsupportedError@@QAE@ABV0@@Z20 DD 00H
	DD	FLAT:??_R0?AVUnsupportedError@@@8
	DD	00H
	DD	0ffffffffH
	ORG $+4
	DD	014H
	DD	FLAT:??0UnsupportedError@@QAE@ABV0@@Z
xdata$x	ENDS
;	COMDAT ??_R0?AVUnsupportedError@@@8
_DATA	SEGMENT
??_R0?AVUnsupportedError@@@8 DD FLAT:??_7type_info@@6B@	; UnsupportedError `RTTI Type Descriptor'
	DD	00H
	DB	'.?AVUnsupportedError@@', 00H
	ORG $-31
	DD	FLAT:??_7type_info@@6B@
	DD	00H
	DB	'.?AVUnsupportedError@@', 00H
_DATA	ENDS
;	COMDAT __CT??_R0?AVError@@@8??0Error@@QAE@ABV0@@Z20
xdata$x	SEGMENT
__CT??_R0?AVError@@@8??0Error@@QAE@ABV0@@Z20 DD 00H
	DD	FLAT:??_R0?AVError@@@8
	DD	00H
	DD	0ffffffffH
	ORG $+4
	DD	014H
	DD	FLAT:??0Error@@QAE@ABV0@@Z
xdata$x	ENDS
;	COMDAT ??_R0?AVError@@@8
_DATA	SEGMENT
??_R0?AVError@@@8 DD FLAT:??_7type_info@@6B@		; Error `RTTI Type Descriptor'
	DD	00H
	DB	'.?AVError@@', 00H
	ORG $-20
	DD	FLAT:??_7type_info@@6B@
	DD	00H
	DB	'.?AVError@@', 00H
_DATA	ENDS
;	COMDAT __CT??_R0?AVThrowable@@@8??0Throwable@@QAE@ABV0@@Z20
xdata$x	SEGMENT
__CT??_R0?AVThrowable@@@8??0Throwable@@QAE@ABV0@@Z20 DD 00H
	DD	FLAT:??_R0?AVThrowable@@@8
	DD	00H
	DD	0ffffffffH
	ORG $+4
	DD	014H
	DD	FLAT:??0Throwable@@QAE@ABV0@@Z
xdata$x	ENDS
;	COMDAT ??_R0?AVThrowable@@@8
_DATA	SEGMENT
??_R0?AVThrowable@@@8 DD FLAT:??_7type_info@@6B@	; Throwable `RTTI Type Descriptor'
	DD	00H
	DB	'.?AVThrowable@@', 00H
	ORG $-24
	DD	FLAT:??_7type_info@@6B@
	DD	00H
	DB	'.?AVThrowable@@', 00H
; Function compile flags: /Ogsy
_DATA	ENDS
;	COMDAT ?read@Packet@@UAEXPAVSocket@@@Z
_TEXT	SEGMENT
$T103847 = -20						; size = 20
_pSocket$ = 8						; size = 4
?read@Packet@@UAEXPAVSocket@@@Z PROC NEAR		; Packet::read, COMDAT
; _this$ = ecx

; 732  : 	virtual void read (Socket* pSocket) throw (ProtocolException, Error) { throw UnsupportedError(); }	

  00000	55		 push	 ebp
  00001	8b ec		 mov	 ebp, esp
  00003	83 ec 14	 sub	 esp, 20			; 00000014H
  00006	8d 4d ec	 lea	 ecx, DWORD PTR $T103847[ebp]
  00009	e8 00 00 00 00	 call	 ??0UnsupportedError@@QAE@XZ ; UnsupportedError::UnsupportedError
  0000e	68 00 00 00 00	 push	 OFFSET FLAT:__TI3?AVUnsupportedError@@
  00013	8d 45 ec	 lea	 eax, DWORD PTR $T103847[ebp]
  00016	50		 push	 eax
  00017	e8 00 00 00 00	 call	 __CxxThrowException@8
$L103849:
$L103848:
  0001c	cc		 int	 3
?read@Packet@@UAEXPAVSocket@@@Z ENDP			; Packet::read
_TEXT	ENDS
PUBLIC	??0Error@@QAE@XZ				; Error::Error
PUBLIC	?getName@UnsupportedError@@UBE?AV?$basic_string@DV?$char_traits@D@_STL@@V?$allocator@D@2@@_STL@@XZ ; UnsupportedError::getName
PUBLIC	??_7UnsupportedError@@6B@			; UnsupportedError::`vftable'
PUBLIC	??_GUnsupportedError@@UAEPAXI@Z			; UnsupportedError::`scalar deleting destructor'
PUBLIC	??_R1A@?0A@A@Error@@8				; Error::`RTTI Base Class Descriptor at (0,-1,0,0)'
PUBLIC	??_R1A@?0A@A@Throwable@@8			; Throwable::`RTTI Base Class Descriptor at (0,-1,0,0)'
PUBLIC	?toString@Throwable@@UBE?AV?$basic_string@DV?$char_traits@D@_STL@@V?$allocator@D@2@@_STL@@XZ ; Throwable::toString
PUBLIC	??_R4UnsupportedError@@6B@			; UnsupportedError::`RTTI Complete Object Locator'
PUBLIC	??_R3UnsupportedError@@8			; UnsupportedError::`RTTI Class Hierarchy Descriptor'
PUBLIC	??_R2UnsupportedError@@8			; UnsupportedError::`RTTI Base Class Array'
PUBLIC	??_R1A@?0A@A@UnsupportedError@@8		; UnsupportedError::`RTTI Base Class Descriptor at (0,-1,0,0)'
EXTRN	??_EUnsupportedError@@UAEPAXI@Z:NEAR		; UnsupportedError::`vector deleting destructor'
;	COMDAT ??_7UnsupportedError@@6B@
; File c:\darkeden\designed_common\project\client\packet\exception.h
CONST	SEGMENT
??_7UnsupportedError@@6B@ DD FLAT:??_R4UnsupportedError@@6B@ ; UnsupportedError::`vftable'
	DD	FLAT:??_EUnsupportedError@@UAEPAXI@Z
	DD	FLAT:?getName@UnsupportedError@@UBE?AV?$basic_string@DV?$char_traits@D@_STL@@V?$allocator@D@2@@_STL@@XZ
	DD	FLAT:?toString@Throwable@@UBE?AV?$basic_string@DV?$char_traits@D@_STL@@V?$allocator@D@2@@_STL@@XZ
CONST	ENDS
;	COMDAT ??_R4UnsupportedError@@6B@
rdata$r	SEGMENT
??_R4UnsupportedError@@6B@ DD 00H			; UnsupportedError::`RTTI Complete Object Locator'
	DD	00H
	DD	00H
	DD	FLAT:??_R0?AVUnsupportedError@@@8
	DD	FLAT:??_R3UnsupportedError@@8
rdata$r	ENDS
;	COMDAT ??_R3UnsupportedError@@8
rdata$r	SEGMENT
??_R3UnsupportedError@@8 DD 00H				; UnsupportedError::`RTTI Class Hierarchy Descriptor'
	DD	00H
	DD	03H
	DD	FLAT:??_R2UnsupportedError@@8
rdata$r	ENDS
;	COMDAT ??_R2UnsupportedError@@8
rdata$r	SEGMENT
??_R2UnsupportedError@@8 DD FLAT:??_R1A@?0A@A@UnsupportedError@@8 ; UnsupportedError::`RTTI Base Class Array'
	DD	FLAT:??_R1A@?0A@A@Error@@8
	DD	FLAT:??_R1A@?0A@A@Throwable@@8
rdata$r	ENDS
;	COMDAT ??_R1A@?0A@A@UnsupportedError@@8
rdata$r	SEGMENT
??_R1A@?0A@A@UnsupportedError@@8 DD FLAT:??_R0?AVUnsupportedError@@@8 ; UnsupportedError::`RTTI Base Class Descriptor at (0,-1,0,0)'
	DD	02H
	DD	00H
	DD	0ffffffffH
	DD	00H
	DD	00H
rdata$r	ENDS
;	COMDAT ??_R1A@?0A@A@Error@@8
rdata$r	SEGMENT
??_R1A@?0A@A@Error@@8 DD FLAT:??_R0?AVError@@@8		; Error::`RTTI Base Class Descriptor at (0,-1,0,0)'
	DD	01H
	DD	00H
	DD	0ffffffffH
	DD	00H
	DD	00H
rdata$r	ENDS
;	COMDAT ??_R1A@?0A@A@Throwable@@8
rdata$r	SEGMENT
??_R1A@?0A@A@Throwable@@8 DD FLAT:??_R0?AVThrowable@@@8	; Throwable::`RTTI Base Class Descriptor at (0,-1,0,0)'
	DD	00H
	DD	00H
	DD	0ffffffffH
	DD	00H
	DD	00H
; Function compile flags: /Ogsy
rdata$r	ENDS
;	COMDAT ??0UnsupportedError@@QAE@XZ
_TEXT	SEGMENT
??0UnsupportedError@@QAE@XZ PROC NEAR			; UnsupportedError::UnsupportedError, COMDAT
; _this$ = ecx

; 711  : 		UnsupportedError () throw () : Error () {}

  00000	56		 push	 esi
  00001	8b f1		 mov	 esi, ecx
  00003	e8 00 00 00 00	 call	 ??0Error@@QAE@XZ	; Error::Error
  00008	c7 06 00 00 00
	00		 mov	 DWORD PTR [esi], OFFSET FLAT:??_7UnsupportedError@@6B@
  0000e	8b c6		 mov	 eax, esi
  00010	5e		 pop	 esi
  00011	c3		 ret	 0
??0UnsupportedError@@QAE@XZ ENDP			; UnsupportedError::UnsupportedError
_TEXT	ENDS
PUBLIC	??_C@_0BB@EOCHEBED@UnsupportedError?$AA@	; `string'
;	COMDAT ??_C@_0BB@EOCHEBED@UnsupportedError?$AA@
; File c:\stlport-4.6.1\stlport\stl\_alloc.h
CONST	SEGMENT
??_C@_0BB@EOCHEBED@UnsupportedError?$AA@ DB 'UnsupportedError', 00H ; `string'
; Function compile flags: /Ogsy
; File c:\darkeden\designed_common\project\client\packet\exception.h
CONST	ENDS
;	COMDAT ?getName@UnsupportedError@@UBE?AV?$basic_string@DV?$char_traits@D@_STL@@V?$allocator@D@2@@_STL@@XZ
_TEXT	SEGMENT
___$ReturnUdt$ = 8					; size = 4
$T103855 = 11						; size = 1
?getName@UnsupportedError@@UBE?AV?$basic_string@DV?$char_traits@D@_STL@@V?$allocator@D@2@@_STL@@XZ PROC NEAR ; UnsupportedError::getName, COMDAT
; _this$ = ecx

; 713  : 		std::string getName () const throw () { return "UnsupportedError"; }

  00000	55		 push	 ebp
  00001	8b ec		 mov	 ebp, esp
  00003	8b 4d 08	 mov	 ecx, DWORD PTR ___$ReturnUdt$[ebp]
  00006	8d 45 0b	 lea	 eax, DWORD PTR $T103855[ebp]
  00009	50		 push	 eax
  0000a	68 00 00 00 00	 push	 OFFSET FLAT:??_C@_0BB@EOCHEBED@UnsupportedError?$AA@
  0000f	e8 00 00 00 00	 call	 ??0?$basic_string@DV?$char_traits@D@_STL@@V?$allocator@D@2@@_STL@@QAE@PBDABV?$allocator@D@1@@Z ; _STL::basic_string<char,_STL::char_traits<char>,_STL::allocator<char> >::basic_string<char,_STL::char_traits<char>,_STL::allocator<char> >
  00014	8b 45 08	 mov	 eax, DWORD PTR ___$ReturnUdt$[ebp]
  00017	5d		 pop	 ebp
  00018	c2 04 00	 ret	 4
?getName@UnsupportedError@@UBE?AV?$basic_string@DV?$char_traits@D@_STL@@V?$allocator@D@2@@_STL@@XZ ENDP ; UnsupportedError::getName
_TEXT	ENDS
PUBLIC	??0?$basic_string@DV?$char_traits@D@_STL@@V?$allocator@D@2@@_STL@@QAE@ABV01@@Z ; _STL::basic_string<char,_STL::char_traits<char>,_STL::allocator<char> >::basic_string<char,_STL::char_traits<char>,_STL::allocator<char> >
PUBLIC	?getStackTrace@Throwable@@QBE?AV?$basic_string@DV?$char_traits@D@_STL@@V?$allocator@D@2@@_STL@@XZ ; Throwable::getStackTrace
PUBLIC	??_C@_03MCPBMLDJ@?5?3?5?$AA@			; `string'
EXTRN	??0StringStream@@QAE@XZ:NEAR			; StringStream::StringStream
EXTRN	??1StringStream@@QAE@XZ:NEAR			; StringStream::~StringStream
EXTRN	??6StringStream@@QAEAAV0@D@Z:NEAR		; StringStream::operator<<
EXTRN	??6StringStream@@QAEAAV0@PBD@Z:NEAR		; StringStream::operator<<
EXTRN	??6StringStream@@QAEAAV0@ABV?$basic_string@DV?$char_traits@D@_STL@@V?$allocator@D@2@@_STL@@@Z:NEAR ; StringStream::operator<<
EXTRN	?toString@StringStream@@QBE?AV?$basic_string@DV?$char_traits@D@_STL@@V?$allocator@D@2@@_STL@@XZ:NEAR ; StringStream::toString
;	COMDAT ??_C@_03MCPBMLDJ@?5?3?5?$AA@
CONST	SEGMENT
??_C@_03MCPBMLDJ@?5?3?5?$AA@ DB ' : ', 00H		; `string'
; Function compile flags: /Ogsy
CONST	ENDS
;	COMDAT ?toString@Throwable@@UBE?AV?$basic_string@DV?$char_traits@D@_STL@@V?$allocator@D@2@@_STL@@XZ
_TEXT	SEGMENT
_buf$ = -44						; size = 20
$T103866 = -24						; size = 12
$T103865 = -24						; size = 12
$T103864 = -12						; size = 12
___$ReturnUdt$ = 8					; size = 4
?toString@Throwable@@UBE?AV?$basic_string@DV?$char_traits@D@_STL@@V?$allocator@D@2@@_STL@@XZ PROC NEAR ; Throwable::toString, COMDAT
; _this$ = ecx

; 79   : 	{

  00000	55		 push	 ebp
  00001	8b ec		 mov	 ebp, esp
  00003	83 ec 2c	 sub	 esp, 44			; 0000002cH
  00006	56		 push	 esi
  00007	8b f1		 mov	 esi, ecx

; 80   : 		StringStream buf;

  00009	8d 4d d4	 lea	 ecx, DWORD PTR _buf$[ebp]
  0000c	e8 00 00 00 00	 call	 ??0StringStream@@QAE@XZ	; StringStream::StringStream

; 81   : 		buf << getName() << " : " << m_Message << '\n'
; 82   : 			<< getStackTrace () ;

  00011	8d 45 e8	 lea	 eax, DWORD PTR $T103865[ebp]
  00014	50		 push	 eax
  00015	8b ce		 mov	 ecx, esi
  00017	e8 00 00 00 00	 call	 ?getStackTrace@Throwable@@QBE?AV?$basic_string@DV?$char_traits@D@_STL@@V?$allocator@D@2@@_STL@@XZ ; Throwable::getStackTrace
  0001c	50		 push	 eax
  0001d	6a 0a		 push	 10			; 0000000aH
  0001f	8d 46 04	 lea	 eax, DWORD PTR [esi+4]
  00022	50		 push	 eax
  00023	8b 06		 mov	 eax, DWORD PTR [esi]
  00025	68 00 00 00 00	 push	 OFFSET FLAT:??_C@_03MCPBMLDJ@?5?3?5?$AA@
  0002a	8d 4d f4	 lea	 ecx, DWORD PTR $T103864[ebp]
  0002d	51		 push	 ecx
  0002e	8b ce		 mov	 ecx, esi
  00030	ff 50 04	 call	 DWORD PTR [eax+4]
  00033	50		 push	 eax
  00034	8d 4d d4	 lea	 ecx, DWORD PTR _buf$[ebp]
  00037	e8 00 00 00 00	 call	 ??6StringStream@@QAEAAV0@ABV?$basic_string@DV?$char_traits@D@_STL@@V?$allocator@D@2@@_STL@@@Z ; StringStream::operator<<
  0003c	8b c8		 mov	 ecx, eax
  0003e	e8 00 00 00 00	 call	 ??6StringStream@@QAEAAV0@PBD@Z ; StringStream::operator<<
  00043	8b c8		 mov	 ecx, eax
  00045	e8 00 00 00 00	 call	 ??6StringStream@@QAEAAV0@ABV?$basic_string@DV?$char_traits@D@_STL@@V?$allocator@D@2@@_STL@@@Z ; StringStream::operator<<
  0004a	8b c8		 mov	 ecx, eax
  0004c	e8 00 00 00 00	 call	 ??6StringStream@@QAEAAV0@D@Z ; StringStream::operator<<
  00051	8b c8		 mov	 ecx, eax
  00053	e8 00 00 00 00	 call	 ??6StringStream@@QAEAAV0@ABV?$basic_string@DV?$char_traits@D@_STL@@V?$allocator@D@2@@_STL@@@Z ; StringStream::operator<<
  00058	8d 4d f4	 lea	 ecx, DWORD PTR $T103864[ebp]
  0005b	e8 00 00 00 00	 call	 ??1?$basic_string@DV?$char_traits@D@_STL@@V?$allocator@D@2@@_STL@@QAE@XZ ; _STL::basic_string<char,_STL::char_traits<char>,_STL::allocator<char> >::~basic_string<char,_STL::char_traits<char>,_STL::allocator<char> >
  00060	8d 4d e8	 lea	 ecx, DWORD PTR $T103865[ebp]
  00063	e8 00 00 00 00	 call	 ??1?$basic_string@DV?$char_traits@D@_STL@@V?$allocator@D@2@@_STL@@QAE@XZ ; _STL::basic_string<char,_STL::char_traits<char>,_STL::allocator<char> >::~basic_string<char,_STL::char_traits<char>,_STL::allocator<char> >

; 83   : 		
; 84   : 		return std::string( buf.toString() );

  00068	8d 45 e8	 lea	 eax, DWORD PTR $T103866[ebp]
  0006b	50		 push	 eax
  0006c	8d 4d d4	 lea	 ecx, DWORD PTR _buf$[ebp]
  0006f	e8 00 00 00 00	 call	 ?toString@StringStream@@QBE?AV?$basic_string@DV?$char_traits@D@_STL@@V?$allocator@D@2@@_STL@@XZ ; StringStream::toString
  00074	8b 4d 08	 mov	 ecx, DWORD PTR ___$ReturnUdt$[ebp]
  00077	50		 push	 eax
  00078	e8 00 00 00 00	 call	 ??0?$basic_string@DV?$char_traits@D@_STL@@V?$allocator@D@2@@_STL@@QAE@ABV01@@Z ; _STL::basic_string<char,_STL::char_traits<char>,_STL::allocator<char> >::basic_string<char,_STL::char_traits<char>,_STL::allocator<char> >
  0007d	8d 4d e8	 lea	 ecx, DWORD PTR $T103866[ebp]
  00080	e8 00 00 00 00	 call	 ??1?$basic_string@DV?$char_traits@D@_STL@@V?$allocator@D@2@@_STL@@QAE@XZ ; _STL::basic_string<char,_STL::char_traits<char>,_STL::allocator<char> >::~basic_string<char,_STL::char_traits<char>,_STL::allocator<char> >
  00085	8d 4d d4	 lea	 ecx, DWORD PTR _buf$[ebp]
  00088	e8 00 00 00 00	 call	 ??1StringStream@@QAE@XZ	; StringStream::~StringStream
  0008d	8b 45 08	 mov	 eax, DWORD PTR ___$ReturnUdt$[ebp]
  00090	5e		 pop	 esi

; 85   : 	}

  00091	c9		 leave
  00092	c2 04 00	 ret	 4
?toString@Throwable@@UBE?AV?$basic_string@DV?$char_traits@D@_STL@@V?$allocator@D@2@@_STL@@XZ ENDP ; Throwable::toString
_TEXT	ENDS
PUBLIC	??$_M_range_initialize@PAD@?$basic_string@DV?$char_traits@D@_STL@@V?$allocator@D@2@@_STL@@AAEXPAD0ABUforward_iterator_tag@1@@Z ; _STL::basic_string<char,_STL::char_traits<char>,_STL::allocator<char> >::_M_range_initialize<char *>
PUBLIC	?get_allocator@?$basic_string@DV?$char_traits@D@_STL@@V?$allocator@D@2@@_STL@@QBE?AV?$allocator@D@2@XZ ; _STL::basic_string<char,_STL::char_traits<char>,_STL::allocator<char> >::get_allocator
;	COMDAT xdata$x
; File c:\stlport-4.6.1\stlport\stl\_string.h
xdata$x	SEGMENT
$T103948 DD	0ffffffffH
	DD	FLAT:$L103870
$T103946 DD	019930520H
	DD	01H
	DD	FLAT:$T103948
	DD	2 DUP(00H)
	DD	2 DUP(00H)
; Function compile flags: /Ogsy
; File c:\stlport-4.6.1\stlport\stl\_string.c
xdata$x	ENDS
;	COMDAT ??0?$basic_string@DV?$char_traits@D@_STL@@V?$allocator@D@2@@_STL@@QAE@ABV01@@Z
_TEXT	SEGMENT
_this$ = -20						; size = 4
$T103941 = -13						; size = 1
__$EHRec$ = -12						; size = 12
___s$ = 8						; size = 4
$T103869 = 11						; size = 1
??0?$basic_string@DV?$char_traits@D@_STL@@V?$allocator@D@2@@_STL@@QAE@ABV01@@Z PROC NEAR ; _STL::basic_string<char,_STL::char_traits<char>,_STL::allocator<char> >::basic_string<char,_STL::char_traits<char>,_STL::allocator<char> >, COMDAT
; _this$ = ecx

; 560  : {  

  00000	b8 00 00 00 00	 mov	 eax, __ehhandler$??0?$basic_string@DV?$char_traits@D@_STL@@V?$allocator@D@2@@_STL@@QAE@ABV01@@Z
  00005	e8 00 00 00 00	 call	 __EH_prolog
  0000a	51		 push	 ecx
  0000b	51		 push	 ecx
  0000c	56		 push	 esi
  0000d	8b 75 08	 mov	 esi, DWORD PTR ___s$[ebp]
  00010	57		 push	 edi
  00011	8b f9		 mov	 edi, ecx
  00013	8d 45 0b	 lea	 eax, DWORD PTR $T103869[ebp]
  00016	50		 push	 eax
  00017	8b ce		 mov	 ecx, esi
  00019	89 7d ec	 mov	 DWORD PTR _this$[ebp], edi
  0001c	e8 00 00 00 00	 call	 ?get_allocator@?$basic_string@DV?$char_traits@D@_STL@@V?$allocator@D@2@@_STL@@QBE?AV?$allocator@D@2@XZ ; _STL::basic_string<char,_STL::char_traits<char>,_STL::allocator<char> >::get_allocator
  00021	50		 push	 eax
  00022	8b cf		 mov	 ecx, edi
  00024	e8 00 00 00 00	 call	 ??0?$_String_base@DV?$allocator@D@_STL@@@_STL@@QAE@ABV?$allocator@D@1@@Z ; _STL::_String_base<char,_STL::allocator<char> >::_String_base<char,_STL::allocator<char> >
  00029	83 65 fc 00	 and	 DWORD PTR __$EHRec$[ebp+8], 0

; 561  :   _M_range_initialize(__s._M_start, __s._M_finish);  

  0002d	8d 45 f3	 lea	 eax, DWORD PTR $T103941[ebp]
  00030	50		 push	 eax
  00031	ff 76 04	 push	 DWORD PTR [esi+4]
  00034	8b cf		 mov	 ecx, edi
  00036	ff 36		 push	 DWORD PTR [esi]
  00038	e8 00 00 00 00	 call	 ??$_M_range_initialize@PAD@?$basic_string@DV?$char_traits@D@_STL@@V?$allocator@D@2@@_STL@@AAEXPAD0ABUforward_iterator_tag@1@@Z ; _STL::basic_string<char,_STL::char_traits<char>,_STL::allocator<char> >::_M_range_initialize<char *>

; 562  : } 

  0003d	8b 4d f4	 mov	 ecx, DWORD PTR __$EHRec$[ebp]
  00040	8b c7		 mov	 eax, edi
  00042	5f		 pop	 edi
  00043	5e		 pop	 esi
  00044	64 89 0d 00 00
	00 00		 mov	 DWORD PTR fs:__except_list, ecx
  0004b	c9		 leave
  0004c	c2 04 00	 ret	 4
_TEXT	ENDS
;	COMDAT text$x
text$x	SEGMENT
$L103870:
  00000	8b 4d ec	 mov	 ecx, DWORD PTR _this$[ebp]
  00003	e9 00 00 00 00	 jmp	 ??1?$_String_base@DV?$allocator@D@_STL@@@_STL@@QAE@XZ ; _STL::_String_base<char,_STL::allocator<char> >::~_String_base<char,_STL::allocator<char> >
__ehhandler$??0?$basic_string@DV?$char_traits@D@_STL@@V?$allocator@D@2@@_STL@@QAE@ABV01@@Z:
  00008	b8 00 00 00 00	 mov	 eax, OFFSET FLAT:$T103946
  0000d	e9 00 00 00 00	 jmp	 ___CxxFrameHandler
text$x	ENDS
??0?$basic_string@DV?$char_traits@D@_STL@@V?$allocator@D@2@@_STL@@QAE@ABV01@@Z ENDP ; _STL::basic_string<char,_STL::char_traits<char>,_STL::allocator<char> >::basic_string<char,_STL::char_traits<char>,_STL::allocator<char> >
; Function compile flags: /Ogsy
; File c:\stlport-4.6.1\stlport\stl\_string.h
;	COMDAT ?get_allocator@?$basic_string@DV?$char_traits@D@_STL@@V?$allocator@D@2@@_STL@@QBE?AV?$allocator@D@2@XZ
_TEXT	SEGMENT
___$ReturnUdt$ = 8					; size = 4
?get_allocator@?$basic_string@DV?$char_traits@D@_STL@@V?$allocator@D@2@@_STL@@QBE?AV?$allocator@D@2@XZ PROC NEAR ; _STL::basic_string<char,_STL::char_traits<char>,_STL::allocator<char> >::get_allocator, COMDAT
; _this$ = ecx

; 216  :     return _STLP_CONVERT_ALLOCATOR((const allocator_type&)this->_M_end_of_storage, _CharT);

  00000	8b 44 24 04	 mov	 eax, DWORD PTR ___$ReturnUdt$[esp-4]

; 217  :   }

  00004	c2 04 00	 ret	 4
?get_allocator@?$basic_string@DV?$char_traits@D@_STL@@V?$allocator@D@2@@_STL@@QBE?AV?$allocator@D@2@XZ ENDP ; _STL::basic_string<char,_STL::char_traits<char>,_STL::allocator<char> >::get_allocator
_TEXT	ENDS
PUBLIC	??$__uninitialized_copy@PADPAD@_STL@@YAPADPAD00ABU__true_type@0@@Z ; _STL::__uninitialized_copy<char *,char *>
; Function compile flags: /Ogsy
;	COMDAT ??$_M_range_initialize@PAD@?$basic_string@DV?$char_traits@D@_STL@@V?$allocator@D@2@@_STL@@AAEXPAD0ABUforward_iterator_tag@1@@Z
_TEXT	SEGMENT
$T104004 = -1						; size = 1
___f$ = 8						; size = 4
___l$ = 12						; size = 4
___formal$ = 16						; size = 4
??$_M_range_initialize@PAD@?$basic_string@DV?$char_traits@D@_STL@@V?$allocator@D@2@@_STL@@AAEXPAD0ABUforward_iterator_tag@1@@Z PROC NEAR ; _STL::basic_string<char,_STL::char_traits<char>,_STL::allocator<char> >::_M_range_initialize<char *>, COMDAT
; _this$ = ecx

; 382  :   template <class _ForwardIter> void _M_range_initialize(_ForwardIter __f, _ForwardIter __l, 

  00000	55		 push	 ebp
  00001	8b ec		 mov	 ebp, esp
  00003	51		 push	 ecx

; 383  :                            const forward_iterator_tag &) {
; 384  :     difference_type __n = distance(__f, __l);
; 385  :     this->_M_allocate_block(__n + 1);

  00004	8b 45 0c	 mov	 eax, DWORD PTR ___l$[ebp]
  00007	2b 45 08	 sub	 eax, DWORD PTR ___f$[ebp]
  0000a	56		 push	 esi
  0000b	57		 push	 edi
  0000c	40		 inc	 eax
  0000d	50		 push	 eax
  0000e	8b f1		 mov	 esi, ecx
  00010	e8 00 00 00 00	 call	 ?_M_allocate_block@?$_String_base@DV?$allocator@D@_STL@@@_STL@@QAEXI@Z ; _STL::_String_base<char,_STL::allocator<char> >::_M_allocate_block

; 386  :     this->_M_finish = uninitialized_copy(__f, __l, this->_M_start);

  00015	8b 0e		 mov	 ecx, DWORD PTR [esi]
  00017	33 c0		 xor	 eax, eax
  00019	8d 7d ff	 lea	 edi, DWORD PTR $T104004[ebp]
  0001c	aa		 stosb
  0001d	8d 45 ff	 lea	 eax, DWORD PTR $T104004[ebp]
  00020	50		 push	 eax
  00021	51		 push	 ecx
  00022	ff 75 0c	 push	 DWORD PTR ___l$[ebp]
  00025	ff 75 08	 push	 DWORD PTR ___f$[ebp]
  00028	e8 00 00 00 00	 call	 ??$__uninitialized_copy@PADPAD@_STL@@YAPADPAD00ABU__true_type@0@@Z ; _STL::__uninitialized_copy<char *,char *>
  0002d	83 c4 10	 add	 esp, 16			; 00000010H
  00030	89 46 04	 mov	 DWORD PTR [esi+4], eax
  00033	5f		 pop	 edi

; 387  :     _M_terminate_string();

  00034	c6 00 00	 mov	 BYTE PTR [eax], 0
  00037	5e		 pop	 esi

; 388  :   }

  00038	c9		 leave
  00039	c2 0c 00	 ret	 12			; 0000000cH
??$_M_range_initialize@PAD@?$basic_string@DV?$char_traits@D@_STL@@V?$allocator@D@2@@_STL@@AAEXPAD0ABUforward_iterator_tag@1@@Z ENDP ; _STL::basic_string<char,_STL::char_traits<char>,_STL::allocator<char> >::_M_range_initialize<char *>
; Function compile flags: /Ogsy
; File c:\stlport-4.6.1\stlport\stl\_uninitialized.h
_TEXT	ENDS
;	COMDAT ??$__uninitialized_copy@PADPAD@_STL@@YAPADPAD00ABU__true_type@0@@Z
_TEXT	SEGMENT
___first$ = 8						; size = 4
___last$ = 12						; size = 4
___result$ = 16						; size = 4
___formal$ = 20						; size = 4
??$__uninitialized_copy@PADPAD@_STL@@YAPADPAD00ABU__true_type@0@@Z PROC NEAR ; _STL::__uninitialized_copy<char *,char *>, COMDAT

; 55   :   return __copy_aux(__first, __last, __result, _BothPtrType< _InputIter, _ForwardIter> :: _Ret());

  00000	ff 74 24 0c	 push	 DWORD PTR ___result$[esp-4]
  00004	ff 74 24 0c	 push	 DWORD PTR ___last$[esp]
  00008	ff 74 24 0c	 push	 DWORD PTR ___first$[esp+4]
  0000c	e8 00 00 00 00	 call	 ?__copy_trivial@_STL@@YAPAXPBX0PAX@Z ; _STL::__copy_trivial
  00011	83 c4 0c	 add	 esp, 12			; 0000000cH

; 56   : }

  00014	c3		 ret	 0
??$__uninitialized_copy@PADPAD@_STL@@YAPADPAD00ABU__true_type@0@@Z ENDP ; _STL::__uninitialized_copy<char *,char *>
_TEXT	ENDS
PUBLIC	??_C@_01CLKCMJKC@?5?$AA@			; `string'
;	COMDAT ??_C@_01CLKCMJKC@?5?$AA@
; File c:\stlport-4.6.1\stlport\stl\_list.h
CONST	SEGMENT
??_C@_01CLKCMJKC@?5?$AA@ DB ' ', 00H			; `string'
; Function compile flags: /Ogsy
; File c:\darkeden\designed_common\project\client\packet\exception.h
CONST	ENDS
;	COMDAT ?getStackTrace@Throwable@@QBE?AV?$basic_string@DV?$char_traits@D@_STL@@V?$allocator@D@2@@_STL@@XZ
_TEXT	SEGMENT
_buf$ = -36						; size = 20
$T104060 = -16						; size = 12
tv90 = -4						; size = 4
___$ReturnUdt$ = 8					; size = 4
?getStackTrace@Throwable@@QBE?AV?$basic_string@DV?$char_traits@D@_STL@@V?$allocator@D@2@@_STL@@XZ PROC NEAR ; Throwable::getStackTrace, COMDAT
; _this$ = ecx

; 56   : 	{

  00000	55		 push	 ebp
  00001	8b ec		 mov	 ebp, esp
  00003	83 ec 24	 sub	 esp, 36			; 00000024H
  00006	53		 push	 ebx
  00007	56		 push	 esi
  00008	57		 push	 edi
  00009	8b f9		 mov	 edi, ecx

; 57   : 		StringStream buf;

  0000b	8d 4d dc	 lea	 ecx, DWORD PTR _buf$[ebp]
  0000e	e8 00 00 00 00	 call	 ??0StringStream@@QAE@XZ	; StringStream::StringStream

; 58   : 		int i = 1;
; 59   : 
; 60   : 		for ( std::list<std::string>::const_iterator itr = m_Stacks.begin() ;

  00013	8b 47 10	 mov	 eax, DWORD PTR [edi+16]
  00016	8b 30		 mov	 esi, DWORD PTR [eax]
  00018	33 db		 xor	 ebx, ebx
  0001a	43		 inc	 ebx

; 61   : 			  itr != m_Stacks.end() ;
; 62   : 			  itr ++ , i ++ ) {

  0001b	3b f0		 cmp	 esi, eax
  0001d	74 36		 je	 SHORT $L88001
$L87999:

; 63   : 			for ( int j = 0 ; j < i ; j ++ )

  0001f	85 db		 test	 ebx, ebx
  00021	7e 15		 jle	 SHORT $L88005
  00023	89 5d fc	 mov	 DWORD PTR tv90[ebp], ebx
$L88003:

; 64   : 				buf << " ";

  00026	68 00 00 00 00	 push	 OFFSET FLAT:??_C@_01CLKCMJKC@?5?$AA@
  0002b	8d 4d dc	 lea	 ecx, DWORD PTR _buf$[ebp]
  0002e	e8 00 00 00 00	 call	 ??6StringStream@@QAEAAV0@PBD@Z ; StringStream::operator<<
  00033	ff 4d fc	 dec	 DWORD PTR tv90[ebp]
  00036	75 ee		 jne	 SHORT $L88003
$L88005:

; 65   : 			buf << *itr << '\n' ;

  00038	6a 0a		 push	 10			; 0000000aH
  0003a	8d 46 08	 lea	 eax, DWORD PTR [esi+8]
  0003d	50		 push	 eax
  0003e	8d 4d dc	 lea	 ecx, DWORD PTR _buf$[ebp]
  00041	e8 00 00 00 00	 call	 ??6StringStream@@QAEAAV0@ABV?$basic_string@DV?$char_traits@D@_STL@@V?$allocator@D@2@@_STL@@@Z ; StringStream::operator<<
  00046	8b c8		 mov	 ecx, eax
  00048	e8 00 00 00 00	 call	 ??6StringStream@@QAEAAV0@D@Z ; StringStream::operator<<
  0004d	8b 36		 mov	 esi, DWORD PTR [esi]
  0004f	43		 inc	 ebx
  00050	3b 77 10	 cmp	 esi, DWORD PTR [edi+16]
  00053	75 ca		 jne	 SHORT $L87999
$L88001:

; 66   : 		}
; 67   : 		
; 68   : 		return std::string( buf.toString() );

  00055	8d 45 f0	 lea	 eax, DWORD PTR $T104060[ebp]
  00058	50		 push	 eax
  00059	8d 4d dc	 lea	 ecx, DWORD PTR _buf$[ebp]
  0005c	e8 00 00 00 00	 call	 ?toString@StringStream@@QBE?AV?$basic_string@DV?$char_traits@D@_STL@@V?$allocator@D@2@@_STL@@XZ ; StringStream::toString
  00061	8b 4d 08	 mov	 ecx, DWORD PTR ___$ReturnUdt$[ebp]
  00064	50		 push	 eax
  00065	e8 00 00 00 00	 call	 ??0?$basic_string@DV?$char_traits@D@_STL@@V?$allocator@D@2@@_STL@@QAE@ABV01@@Z ; _STL::basic_string<char,_STL::char_traits<char>,_STL::allocator<char> >::basic_string<char,_STL::char_traits<char>,_STL::allocator<char> >
  0006a	8d 4d f0	 lea	 ecx, DWORD PTR $T104060[ebp]
  0006d	e8 00 00 00 00	 call	 ??1?$basic_string@DV?$char_traits@D@_STL@@V?$allocator@D@2@@_STL@@QAE@XZ ; _STL::basic_string<char,_STL::char_traits<char>,_STL::allocator<char> >::~basic_string<char,_STL::char_traits<char>,_STL::allocator<char> >
  00072	8d 4d dc	 lea	 ecx, DWORD PTR _buf$[ebp]
  00075	e8 00 00 00 00	 call	 ??1StringStream@@QAE@XZ	; StringStream::~StringStream
  0007a	8b 45 08	 mov	 eax, DWORD PTR ___$ReturnUdt$[ebp]
  0007d	5f		 pop	 edi
  0007e	5e		 pop	 esi
  0007f	5b		 pop	 ebx

; 69   : 	}

  00080	c9		 leave
  00081	c2 04 00	 ret	 4
?getStackTrace@Throwable@@QBE?AV?$basic_string@DV?$char_traits@D@_STL@@V?$allocator@D@2@@_STL@@XZ ENDP ; Throwable::getStackTrace
_TEXT	ENDS
PUBLIC	?getName@Error@@UBE?AV?$basic_string@DV?$char_traits@D@_STL@@V?$allocator@D@2@@_STL@@XZ ; Error::getName
PUBLIC	??_7Error@@6B@					; Error::`vftable'
PUBLIC	??_GError@@UAEPAXI@Z				; Error::`scalar deleting destructor'
PUBLIC	??_R4Error@@6B@					; Error::`RTTI Complete Object Locator'
PUBLIC	??_R3Error@@8					; Error::`RTTI Class Hierarchy Descriptor'
PUBLIC	??_R2Error@@8					; Error::`RTTI Base Class Array'
PUBLIC	??0Throwable@@QAE@XZ				; Throwable::Throwable
EXTRN	??_EError@@UAEPAXI@Z:NEAR			; Error::`vector deleting destructor'
;	COMDAT ??_7Error@@6B@
CONST	SEGMENT
??_7Error@@6B@ DD FLAT:??_R4Error@@6B@			; Error::`vftable'
	DD	FLAT:??_EError@@UAEPAXI@Z
	DD	FLAT:?getName@Error@@UBE?AV?$basic_string@DV?$char_traits@D@_STL@@V?$allocator@D@2@@_STL@@XZ
	DD	FLAT:?toString@Throwable@@UBE?AV?$basic_string@DV?$char_traits@D@_STL@@V?$allocator@D@2@@_STL@@XZ
CONST	ENDS
;	COMDAT ??_R4Error@@6B@
rdata$r	SEGMENT
??_R4Error@@6B@ DD 00H					; Error::`RTTI Complete Object Locator'
	DD	00H
	DD	00H
	DD	FLAT:??_R0?AVError@@@8
	DD	FLAT:??_R3Error@@8
rdata$r	ENDS
;	COMDAT ??_R3Error@@8
rdata$r	SEGMENT
??_R3Error@@8 DD 00H					; Error::`RTTI Class Hierarchy Descriptor'
	DD	00H
	DD	02H
	DD	FLAT:??_R2Error@@8
rdata$r	ENDS
;	COMDAT ??_R2Error@@8
rdata$r	SEGMENT
??_R2Error@@8 DD FLAT:??_R1A@?0A@A@Error@@8		; Error::`RTTI Base Class Array'
	DD	FLAT:??_R1A@?0A@A@Throwable@@8
; Function compile flags: /Ogsy
rdata$r	ENDS
;	COMDAT ??0Error@@QAE@XZ
_TEXT	SEGMENT
??0Error@@QAE@XZ PROC NEAR				; Error::Error, COMDAT
; _this$ = ecx

; 675  : 	Error () throw () : Throwable() {}

  00000	56		 push	 esi
  00001	8b f1		 mov	 esi, ecx
  00003	e8 00 00 00 00	 call	 ??0Throwable@@QAE@XZ	; Throwable::Throwable
  00008	c7 06 00 00 00
	00		 mov	 DWORD PTR [esi], OFFSET FLAT:??_7Error@@6B@
  0000e	8b c6		 mov	 eax, esi
  00010	5e		 pop	 esi
  00011	c3		 ret	 0
??0Error@@QAE@XZ ENDP					; Error::Error
_TEXT	ENDS
PUBLIC	??_C@_05NAOIJFC@Error?$AA@			; `string'
;	COMDAT ??_C@_05NAOIJFC@Error?$AA@
; File c:\stlport-4.6.1\stlport\stl\_alloc.h
CONST	SEGMENT
??_C@_05NAOIJFC@Error?$AA@ DB 'Error', 00H		; `string'
; Function compile flags: /Ogsy
; File c:\darkeden\designed_common\project\client\packet\exception.h
CONST	ENDS
;	COMDAT ?getName@Error@@UBE?AV?$basic_string@DV?$char_traits@D@_STL@@V?$allocator@D@2@@_STL@@XZ
_TEXT	SEGMENT
___$ReturnUdt$ = 8					; size = 4
$T104117 = 11						; size = 1
?getName@Error@@UBE?AV?$basic_string@DV?$char_traits@D@_STL@@V?$allocator@D@2@@_STL@@XZ PROC NEAR ; Error::getName, COMDAT
; _this$ = ecx

; 677  : 	std::string getName () const throw () { return "Error"; }

  00000	55		 push	 ebp
  00001	8b ec		 mov	 ebp, esp
  00003	8b 4d 08	 mov	 ecx, DWORD PTR ___$ReturnUdt$[ebp]
  00006	8d 45 0b	 lea	 eax, DWORD PTR $T104117[ebp]
  00009	50		 push	 eax
  0000a	68 00 00 00 00	 push	 OFFSET FLAT:??_C@_05NAOIJFC@Error?$AA@
  0000f	e8 00 00 00 00	 call	 ??0?$basic_string@DV?$char_traits@D@_STL@@V?$allocator@D@2@@_STL@@QAE@PBDABV?$allocator@D@1@@Z ; _STL::basic_string<char,_STL::char_traits<char>,_STL::allocator<char> >::basic_string<char,_STL::char_traits<char>,_STL::allocator<char> >
  00014	8b 45 08	 mov	 eax, DWORD PTR ___$ReturnUdt$[ebp]
  00017	5d		 pop	 ebp
  00018	c2 04 00	 ret	 4
?getName@Error@@UBE?AV?$basic_string@DV?$char_traits@D@_STL@@V?$allocator@D@2@@_STL@@XZ ENDP ; Error::getName
_TEXT	ENDS
PUBLIC	??0?$list@V?$basic_string@DV?$char_traits@D@_STL@@V?$allocator@D@2@@_STL@@V?$allocator@V?$basic_string@DV?$char_traits@D@_STL@@V?$allocator@D@2@@_STL@@@2@@_STL@@QAE@ABV?$allocator@V?$basic_string@DV?$char_traits@D@_STL@@V?$allocator@D@2@@_STL@@@1@@Z ; _STL::list<_STL::basic_string<char,_STL::char_traits<char>,_STL::allocator<char> >,_STL::allocator<_STL::basic_string<char,_STL::char_traits<char>,_STL::allocator<char> > > >::list<_STL::basic_string<char,_STL::char_traits<char>,_STL::allocator<char> >,_STL::allocator<_STL::basic_string<char,_STL::char_traits<char>,_STL::allocator<char> > > >
PUBLIC	??0?$basic_string@DV?$char_traits@D@_STL@@V?$allocator@D@2@@_STL@@QAE@XZ ; _STL::basic_string<char,_STL::char_traits<char>,_STL::allocator<char> >::basic_string<char,_STL::char_traits<char>,_STL::allocator<char> >
PUBLIC	?getName@Throwable@@UBE?AV?$basic_string@DV?$char_traits@D@_STL@@V?$allocator@D@2@@_STL@@XZ ; Throwable::getName
PUBLIC	??_R4Throwable@@6B@				; Throwable::`RTTI Complete Object Locator'
PUBLIC	??_R3Throwable@@8				; Throwable::`RTTI Class Hierarchy Descriptor'
PUBLIC	??_R2Throwable@@8				; Throwable::`RTTI Base Class Array'
PUBLIC	??_7Throwable@@6B@				; Throwable::`vftable'
PUBLIC	??_GThrowable@@UAEPAXI@Z			; Throwable::`scalar deleting destructor'
EXTRN	??_EThrowable@@UAEPAXI@Z:NEAR			; Throwable::`vector deleting destructor'
;	COMDAT ??_7Throwable@@6B@
; File c:\stlport-4.6.1\stlport\stl\_alloc.h
CONST	SEGMENT
??_7Throwable@@6B@ DD FLAT:??_R4Throwable@@6B@		; Throwable::`vftable'
	DD	FLAT:??_EThrowable@@UAEPAXI@Z
	DD	FLAT:?getName@Throwable@@UBE?AV?$basic_string@DV?$char_traits@D@_STL@@V?$allocator@D@2@@_STL@@XZ
	DD	FLAT:?toString@Throwable@@UBE?AV?$basic_string@DV?$char_traits@D@_STL@@V?$allocator@D@2@@_STL@@XZ
CONST	ENDS
;	COMDAT ??_R4Throwable@@6B@
rdata$r	SEGMENT
??_R4Throwable@@6B@ DD 00H				; Throwable::`RTTI Complete Object Locator'
	DD	00H
	DD	00H
	DD	FLAT:??_R0?AVThrowable@@@8
	DD	FLAT:??_R3Throwable@@8
rdata$r	ENDS
;	COMDAT ??_R3Throwable@@8
rdata$r	SEGMENT
??_R3Throwable@@8 DD 00H				; Throwable::`RTTI Class Hierarchy Descriptor'
	DD	00H
	DD	01H
	DD	FLAT:??_R2Throwable@@8
rdata$r	ENDS
;	COMDAT ??_R2Throwable@@8
rdata$r	SEGMENT
??_R2Throwable@@8 DD FLAT:??_R1A@?0A@A@Throwable@@8	; Throwable::`RTTI Base Class Array'
; Function compile flags: /Ogsy
; File c:\darkeden\designed_common\project\client\packet\exception.h
rdata$r	ENDS
;	COMDAT ??0Throwable@@QAE@XZ
_TEXT	SEGMENT
$T104126 = -1						; size = 1
??0Throwable@@QAE@XZ PROC NEAR				; Throwable::Throwable, COMDAT
; _this$ = ecx

; 37   : 	Throwable () throw () {}

  00000	51		 push	 ecx
  00001	56		 push	 esi
  00002	8b f1		 mov	 esi, ecx
  00004	8d 4e 04	 lea	 ecx, DWORD PTR [esi+4]
  00007	c7 06 00 00 00
	00		 mov	 DWORD PTR [esi], OFFSET FLAT:??_7Throwable@@6B@
  0000d	e8 00 00 00 00	 call	 ??0?$basic_string@DV?$char_traits@D@_STL@@V?$allocator@D@2@@_STL@@QAE@XZ ; _STL::basic_string<char,_STL::char_traits<char>,_STL::allocator<char> >::basic_string<char,_STL::char_traits<char>,_STL::allocator<char> >
  00012	8d 44 24 07	 lea	 eax, DWORD PTR $T104126[esp+8]
  00016	50		 push	 eax
  00017	8d 4e 10	 lea	 ecx, DWORD PTR [esi+16]
  0001a	e8 00 00 00 00	 call	 ??0?$list@V?$basic_string@DV?$char_traits@D@_STL@@V?$allocator@D@2@@_STL@@V?$allocator@V?$basic_string@DV?$char_traits@D@_STL@@V?$allocator@D@2@@_STL@@@2@@_STL@@QAE@ABV?$allocator@V?$basic_string@DV?$char_traits@D@_STL@@V?$allocator@D@2@@_STL@@@1@@Z ; _STL::list<_STL::basic_string<char,_STL::char_traits<char>,_STL::allocator<char> >,_STL::allocator<_STL::basic_string<char,_STL::char_traits<char>,_STL::allocator<char> > > >::list<_STL::basic_string<char,_STL::char_traits<char>,_STL::allocator<char> >,_STL::allocator<_STL::basic_string<char,_STL::char_traits<char>,_STL::allocator<char> > > >
  0001f	8b c6		 mov	 eax, esi
  00021	5e		 pop	 esi
  00022	59		 pop	 ecx
  00023	c3		 ret	 0
??0Throwable@@QAE@XZ ENDP				; Throwable::Throwable
_TEXT	ENDS
;	COMDAT xdata$x
; File c:\stlport-4.6.1\stlport\stl\_string.h
xdata$x	SEGMENT
$T104182 DD	0ffffffffH
	DD	FLAT:$L104137
$T104180 DD	019930520H
	DD	01H
	DD	FLAT:$T104182
	DD	2 DUP(00H)
	DD	2 DUP(00H)
; Function compile flags: /Ogsy
; File c:\stlport-4.6.1\stlport\stl\_string.c
xdata$x	ENDS
;	COMDAT ??0?$basic_string@DV?$char_traits@D@_STL@@V?$allocator@D@2@@_STL@@QAE@XZ
_TEXT	SEGMENT
_this$ = -20						; size = 4
$T104136 = -13						; size = 1
__$EHRec$ = -12						; size = 12
??0?$basic_string@DV?$char_traits@D@_STL@@V?$allocator@D@2@@_STL@@QAE@XZ PROC NEAR ; _STL::basic_string<char,_STL::char_traits<char>,_STL::allocator<char> >::basic_string<char,_STL::char_traits<char>,_STL::allocator<char> >, COMDAT
; _this$ = ecx

; 541  :   : _String_base<_CharT,_Alloc>(allocator_type()) {  

  00000	b8 00 00 00 00	 mov	 eax, __ehhandler$??0?$basic_string@DV?$char_traits@D@_STL@@V?$allocator@D@2@@_STL@@QAE@XZ
  00005	e8 00 00 00 00	 call	 __EH_prolog
  0000a	51		 push	 ecx
  0000b	51		 push	 ecx
  0000c	56		 push	 esi
  0000d	8d 45 f3	 lea	 eax, DWORD PTR $T104136[ebp]
  00010	8b f1		 mov	 esi, ecx
  00012	50		 push	 eax
  00013	89 75 ec	 mov	 DWORD PTR _this$[ebp], esi
  00016	e8 00 00 00 00	 call	 ??0?$_String_base@DV?$allocator@D@_STL@@@_STL@@QAE@ABV?$allocator@D@1@@Z ; _STL::_String_base<char,_STL::allocator<char> >::_String_base<char,_STL::allocator<char> >
  0001b	83 65 fc 00	 and	 DWORD PTR __$EHRec$[ebp+8], 0

; 542  :   this->_M_start = this->_M_end_of_storage.allocate(8); 

  0001f	6a 08		 push	 8
  00021	e8 00 00 00 00	 call	 ?_M_allocate@?$__node_alloc@$00$0A@@_STL@@CAPAXI@Z ; _STL::__node_alloc<1,0>::_M_allocate
  00026	59		 pop	 ecx

; 543  :   this->_M_finish = this->_M_start; 
; 544  :   this->_M_end_of_storage._M_data = this->_M_start + 8; 

  00027	8d 48 08	 lea	 ecx, DWORD PTR [eax+8]
  0002a	89 06		 mov	 DWORD PTR [esi], eax
  0002c	89 46 04	 mov	 DWORD PTR [esi+4], eax
  0002f	89 4e 08	 mov	 DWORD PTR [esi+8], ecx

; 545  :   _M_terminate_string();  
; 546  : } 

  00032	8b 4d f4	 mov	 ecx, DWORD PTR __$EHRec$[ebp]
  00035	c6 00 00	 mov	 BYTE PTR [eax], 0
  00038	8b c6		 mov	 eax, esi
  0003a	5e		 pop	 esi
  0003b	64 89 0d 00 00
	00 00		 mov	 DWORD PTR fs:__except_list, ecx
  00042	c9		 leave
  00043	c3		 ret	 0
_TEXT	ENDS
;	COMDAT text$x
text$x	SEGMENT
$L104137:
  00000	8b 4d ec	 mov	 ecx, DWORD PTR _this$[ebp]
  00003	e9 00 00 00 00	 jmp	 ??1?$_String_base@DV?$allocator@D@_STL@@@_STL@@QAE@XZ ; _STL::_String_base<char,_STL::allocator<char> >::~_String_base<char,_STL::allocator<char> >
__ehhandler$??0?$basic_string@DV?$char_traits@D@_STL@@V?$allocator@D@2@@_STL@@QAE@XZ:
  00008	b8 00 00 00 00	 mov	 eax, OFFSET FLAT:$T104180
  0000d	e9 00 00 00 00	 jmp	 ___CxxFrameHandler
text$x	ENDS
??0?$basic_string@DV?$char_traits@D@_STL@@V?$allocator@D@2@@_STL@@QAE@XZ ENDP ; _STL::basic_string<char,_STL::char_traits<char>,_STL::allocator<char> >::basic_string<char,_STL::char_traits<char>,_STL::allocator<char> >
PUBLIC	??_C@_09KCKHMJEM@Throwable?$AA@			; `string'
;	COMDAT ??_C@_09KCKHMJEM@Throwable?$AA@
; File c:\stlport-4.6.1\stlport\stl\_alloc.h
CONST	SEGMENT
??_C@_09KCKHMJEM@Throwable?$AA@ DB 'Throwable', 00H	; `string'
; Function compile flags: /Ogsy
; File c:\darkeden\designed_common\project\client\packet\exception.h
CONST	ENDS
;	COMDAT ?getName@Throwable@@UBE?AV?$basic_string@DV?$char_traits@D@_STL@@V?$allocator@D@2@@_STL@@XZ
_TEXT	SEGMENT
___$ReturnUdt$ = 8					; size = 4
$T104187 = 11						; size = 1
?getName@Throwable@@UBE?AV?$basic_string@DV?$char_traits@D@_STL@@V?$allocator@D@2@@_STL@@XZ PROC NEAR ; Throwable::getName, COMDAT
; _this$ = ecx

; 46   : 	virtual std::string getName () const throw () { return "Throwable"; }

  00000	55		 push	 ebp
  00001	8b ec		 mov	 ebp, esp
  00003	8b 4d 08	 mov	 ecx, DWORD PTR ___$ReturnUdt$[ebp]
  00006	8d 45 0b	 lea	 eax, DWORD PTR $T104187[ebp]
  00009	50		 push	 eax
  0000a	68 00 00 00 00	 push	 OFFSET FLAT:??_C@_09KCKHMJEM@Throwable?$AA@
  0000f	e8 00 00 00 00	 call	 ??0?$basic_string@DV?$char_traits@D@_STL@@V?$allocator@D@2@@_STL@@QAE@PBDABV?$allocator@D@1@@Z ; _STL::basic_string<char,_STL::char_traits<char>,_STL::allocator<char> >::basic_string<char,_STL::char_traits<char>,_STL::allocator<char> >
  00014	8b 45 08	 mov	 eax, DWORD PTR ___$ReturnUdt$[ebp]
  00017	5d		 pop	 ebp
  00018	c2 04 00	 ret	 4
?getName@Throwable@@UBE?AV?$basic_string@DV?$char_traits@D@_STL@@V?$allocator@D@2@@_STL@@XZ ENDP ; Throwable::getName
_TEXT	ENDS
PUBLIC	??0?$_List_base@V?$basic_string@DV?$char_traits@D@_STL@@V?$allocator@D@2@@_STL@@V?$allocator@V?$basic_string@DV?$char_traits@D@_STL@@V?$allocator@D@2@@_STL@@@2@@_STL@@QAE@ABV?$allocator@V?$basic_string@DV?$char_traits@D@_STL@@V?$allocator@D@2@@_STL@@@1@@Z ; _STL::_List_base<_STL::basic_string<char,_STL::char_traits<char>,_STL::allocator<char> >,_STL::allocator<_STL::basic_string<char,_STL::char_traits<char>,_STL::allocator<char> > > >::_List_base<_STL::basic_string<char,_STL::char_traits<char>,_STL::allocator<char> >,_STL::allocator<_STL::basic_string<char,_STL::char_traits<char>,_STL::allocator<char> > > >
; Function compile flags: /Ogsy
; File c:\stlport-4.6.1\stlport\stl\_list.h
;	COMDAT ??0?$list@V?$basic_string@DV?$char_traits@D@_STL@@V?$allocator@D@2@@_STL@@V?$allocator@V?$basic_string@DV?$char_traits@D@_STL@@V?$allocator@D@2@@_STL@@@2@@_STL@@QAE@ABV?$allocator@V?$basic_string@DV?$char_traits@D@_STL@@V?$allocator@D@2@@_STL@@@1@@Z
_TEXT	SEGMENT
___a$ = 8						; size = 4
??0?$list@V?$basic_string@DV?$char_traits@D@_STL@@V?$allocator@D@2@@_STL@@V?$allocator@V?$basic_string@DV?$char_traits@D@_STL@@V?$allocator@D@2@@_STL@@@2@@_STL@@QAE@ABV?$allocator@V?$basic_string@DV?$char_traits@D@_STL@@V?$allocator@D@2@@_STL@@@1@@Z PROC NEAR ; _STL::list<_STL::basic_string<char,_STL::char_traits<char>,_STL::allocator<char> >,_STL::allocator<_STL::basic_string<char,_STL::char_traits<char>,_STL::allocator<char> > > >::list<_STL::basic_string<char,_STL::char_traits<char>,_STL::allocator<char> >,_STL::allocator<_STL::basic_string<char,_STL::char_traits<char>,_STL::allocator<char> > > >, COMDAT
; _this$ = ecx

; 264  :     _List_base<_Tp, _Alloc>(__a) {}

  00000	56		 push	 esi
  00001	ff 74 24 08	 push	 DWORD PTR ___a$[esp]
  00005	8b f1		 mov	 esi, ecx
  00007	e8 00 00 00 00	 call	 ??0?$_List_base@V?$basic_string@DV?$char_traits@D@_STL@@V?$allocator@D@2@@_STL@@V?$allocator@V?$basic_string@DV?$char_traits@D@_STL@@V?$allocator@D@2@@_STL@@@2@@_STL@@QAE@ABV?$allocator@V?$basic_string@DV?$char_traits@D@_STL@@V?$allocator@D@2@@_STL@@@1@@Z ; _STL::_List_base<_STL::basic_string<char,_STL::char_traits<char>,_STL::allocator<char> >,_STL::allocator<_STL::basic_string<char,_STL::char_traits<char>,_STL::allocator<char> > > >::_List_base<_STL::basic_string<char,_STL::char_traits<char>,_STL::allocator<char> >,_STL::allocator<_STL::basic_string<char,_STL::char_traits<char>,_STL::allocator<char> > > >
  0000c	8b c6		 mov	 eax, esi
  0000e	5e		 pop	 esi
  0000f	c2 04 00	 ret	 4
??0?$list@V?$basic_string@DV?$char_traits@D@_STL@@V?$allocator@D@2@@_STL@@V?$allocator@V?$basic_string@DV?$char_traits@D@_STL@@V?$allocator@D@2@@_STL@@@2@@_STL@@QAE@ABV?$allocator@V?$basic_string@DV?$char_traits@D@_STL@@V?$allocator@D@2@@_STL@@@1@@Z ENDP ; _STL::list<_STL::basic_string<char,_STL::char_traits<char>,_STL::allocator<char> >,_STL::allocator<_STL::basic_string<char,_STL::char_traits<char>,_STL::allocator<char> > > >::list<_STL::basic_string<char,_STL::char_traits<char>,_STL::allocator<char> >,_STL::allocator<_STL::basic_string<char,_STL::char_traits<char>,_STL::allocator<char> > > >
_TEXT	ENDS
PUBLIC	??1?$_STLP_alloc_proxy@PAU?$_List_node@V?$basic_string@DV?$char_traits@D@_STL@@V?$allocator@D@2@@_STL@@@_STL@@U12@V?$allocator@U?$_List_node@V?$basic_string@DV?$char_traits@D@_STL@@V?$allocator@D@2@@_STL@@@_STL@@@2@@_STL@@QAE@XZ ; _STL::_STLP_alloc_proxy<_STL::_List_node<_STL::basic_string<char,_STL::char_traits<char>,_STL::allocator<char> > > *,_STL::_List_node<_STL::basic_string<char,_STL::char_traits<char>,_STL::allocator<char> > >,_STL::allocator<_STL::_List_node<_STL::basic_string<char,_STL::char_traits<char>,_STL::allocator<char> > > > >::~_STLP_alloc_proxy<_STL::_List_node<_STL::basic_string<char,_STL::char_traits<char>,_STL::allocator<char> > > *,_STL::_List_node<_STL::basic_string<char,_STL::char_traits<char>,_STL::allocator<char> > >,_STL::allocator<_STL::_List_node<_STL::basic_string<char,_STL::char_traits<char>,_STL::allocator<char> > > > >
;	COMDAT xdata$x
; File c:\stlport-4.6.1\stlport\stl\_alloc.h
xdata$x	SEGMENT
$T104254 DD	0ffffffffH
	DD	FLAT:$L104228
$T104252 DD	019930520H
	DD	01H
	DD	FLAT:$T104254
	DD	2 DUP(00H)
	DD	2 DUP(00H)
; Function compile flags: /Ogsy
; File c:\stlport-4.6.1\stlport\stl\_list.h
xdata$x	ENDS
;	COMDAT ??0?$_List_base@V?$basic_string@DV?$char_traits@D@_STL@@V?$allocator@D@2@@_STL@@V?$allocator@V?$basic_string@DV?$char_traits@D@_STL@@V?$allocator@D@2@@_STL@@@2@@_STL@@QAE@ABV?$allocator@V?$basic_string@DV?$char_traits@D@_STL@@V?$allocator@D@2@@_STL@@@1@@Z
_TEXT	SEGMENT
_this$ = -16						; size = 4
__$EHRec$ = -12						; size = 12
___a$ = 8						; size = 4
??0?$_List_base@V?$basic_string@DV?$char_traits@D@_STL@@V?$allocator@D@2@@_STL@@V?$allocator@V?$basic_string@DV?$char_traits@D@_STL@@V?$allocator@D@2@@_STL@@@2@@_STL@@QAE@ABV?$allocator@V?$basic_string@DV?$char_traits@D@_STL@@V?$allocator@D@2@@_STL@@@1@@Z PROC NEAR ; _STL::_List_base<_STL::basic_string<char,_STL::char_traits<char>,_STL::allocator<char> >,_STL::allocator<_STL::basic_string<char,_STL::char_traits<char>,_STL::allocator<char> > > >::_List_base<_STL::basic_string<char,_STL::char_traits<char>,_STL::allocator<char> >,_STL::allocator<_STL::basic_string<char,_STL::char_traits<char>,_STL::allocator<char> > > >, COMDAT
; _this$ = ecx

; 182  :   _List_base(const allocator_type& __a) : _M_node(_STLP_CONVERT_ALLOCATOR(__a, _Node), (_Node*)0) {

  00000	b8 00 00 00 00	 mov	 eax, __ehhandler$??0?$_List_base@V?$basic_string@DV?$char_traits@D@_STL@@V?$allocator@D@2@@_STL@@V?$allocator@V?$basic_string@DV?$char_traits@D@_STL@@V?$allocator@D@2@@_STL@@@2@@_STL@@QAE@ABV?$allocator@V?$basic_string@DV?$char_traits@D@_STL@@V?$allocator@D@2@@_STL@@@1@@Z
  00005	e8 00 00 00 00	 call	 __EH_prolog
  0000a	51		 push	 ecx
  0000b	56		 push	 esi
  0000c	8b f1		 mov	 esi, ecx
  0000e	83 26 00	 and	 DWORD PTR [esi], 0
  00011	89 75 f0	 mov	 DWORD PTR _this$[ebp], esi
  00014	83 65 fc 00	 and	 DWORD PTR __$EHRec$[ebp+8], 0

; 183  :     _Node* __n = _M_node.allocate(1);

  00018	6a 14		 push	 20			; 00000014H
  0001a	e8 00 00 00 00	 call	 ?allocate@?$__node_alloc@$00$0A@@_STL@@SAPAXI@Z ; _STL::__node_alloc<1,0>::allocate

; 184  :     __n->_M_next = __n;

  0001f	89 00		 mov	 DWORD PTR [eax], eax

; 185  :     __n->_M_prev = __n;

  00021	89 40 04	 mov	 DWORD PTR [eax+4], eax
  00024	59		 pop	 ecx

; 186  :     _M_node._M_data = __n;
; 187  :   }

  00025	8b 4d f4	 mov	 ecx, DWORD PTR __$EHRec$[ebp]
  00028	89 06		 mov	 DWORD PTR [esi], eax
  0002a	8b c6		 mov	 eax, esi
  0002c	5e		 pop	 esi
  0002d	64 89 0d 00 00
	00 00		 mov	 DWORD PTR fs:__except_list, ecx
  00034	c9		 leave
  00035	c2 04 00	 ret	 4
_TEXT	ENDS
;	COMDAT text$x
text$x	SEGMENT
$L104228:
  00000	8b 4d f0	 mov	 ecx, DWORD PTR _this$[ebp]
  00003	e9 00 00 00 00	 jmp	 ??1?$_STLP_alloc_proxy@PAU?$_List_node@V?$basic_string@DV?$char_traits@D@_STL@@V?$allocator@D@2@@_STL@@@_STL@@U12@V?$allocator@U?$_List_node@V?$basic_string@DV?$char_traits@D@_STL@@V?$allocator@D@2@@_STL@@@_STL@@@2@@_STL@@QAE@XZ
__ehhandler$??0?$_List_base@V?$basic_string@DV?$char_traits@D@_STL@@V?$allocator@D@2@@_STL@@V?$allocator@V?$basic_string@DV?$char_traits@D@_STL@@V?$allocator@D@2@@_STL@@@2@@_STL@@QAE@ABV?$allocator@V?$basic_string@DV?$char_traits@D@_STL@@V?$allocator@D@2@@_STL@@@1@@Z:
  00008	b8 00 00 00 00	 mov	 eax, OFFSET FLAT:$T104252
  0000d	e9 00 00 00 00	 jmp	 ___CxxFrameHandler
text$x	ENDS
??0?$_List_base@V?$basic_string@DV?$char_traits@D@_STL@@V?$allocator@D@2@@_STL@@V?$allocator@V?$basic_string@DV?$char_traits@D@_STL@@V?$allocator@D@2@@_STL@@@2@@_STL@@QAE@ABV?$allocator@V?$basic_string@DV?$char_traits@D@_STL@@V?$allocator@D@2@@_STL@@@1@@Z ENDP ; _STL::_List_base<_STL::basic_string<char,_STL::char_traits<char>,_STL::allocator<char> >,_STL::allocator<_STL::basic_string<char,_STL::char_traits<char>,_STL::allocator<char> > > >::_List_base<_STL::basic_string<char,_STL::char_traits<char>,_STL::allocator<char> >,_STL::allocator<_STL::basic_string<char,_STL::char_traits<char>,_STL::allocator<char> > > >
; Function compile flags: /Ogsy
;	COMDAT ??1?$_STLP_alloc_proxy@PAU?$_List_node@V?$basic_string@DV?$char_traits@D@_STL@@V?$allocator@D@2@@_STL@@@_STL@@U12@V?$allocator@U?$_List_node@V?$basic_string@DV?$char_traits@D@_STL@@V?$allocator@D@2@@_STL@@@_STL@@@2@@_STL@@QAE@XZ
_TEXT	SEGMENT
??1?$_STLP_alloc_proxy@PAU?$_List_node@V?$basic_string@DV?$char_traits@D@_STL@@V?$allocator@D@2@@_STL@@@_STL@@U12@V?$allocator@U?$_List_node@V?$basic_string@DV?$char_traits@D@_STL@@V?$allocator@D@2@@_STL@@@_STL@@@2@@_STL@@QAE@XZ PROC NEAR ; _STL::_STLP_alloc_proxy<_STL::_List_node<_STL::basic_string<char,_STL::char_traits<char>,_STL::allocator<char> > > *,_STL::_List_node<_STL::basic_string<char,_STL::char_traits<char>,_STL::allocator<char> > >,_STL::allocator<_STL::_List_node<_STL::basic_string<char,_STL::char_traits<char>,_STL::allocator<char> > > > >::~_STLP_alloc_proxy<_STL::_List_node<_STL::basic_string<char,_STL::char_traits<char>,_STL::allocator<char> > > *,_STL::_List_node<_STL::basic_string<char,_STL::char_traits<char>,_STL::allocator<char> > >,_STL::allocator<_STL::_List_node<_STL::basic_string<char,_STL::char_traits<char>,_STL::allocator<char> > > > >, COMDAT
; _this$ = ecx
  00000	c3		 ret	 0
??1?$_STLP_alloc_proxy@PAU?$_List_node@V?$basic_string@DV?$char_traits@D@_STL@@V?$allocator@D@2@@_STL@@@_STL@@U12@V?$allocator@U?$_List_node@V?$basic_string@DV?$char_traits@D@_STL@@V?$allocator@D@2@@_STL@@@_STL@@@2@@_STL@@QAE@XZ ENDP ; _STL::_STLP_alloc_proxy<_STL::_List_node<_STL::basic_string<char,_STL::char_traits<char>,_STL::allocator<char> > > *,_STL::_List_node<_STL::basic_string<char,_STL::char_traits<char>,_STL::allocator<char> > >,_STL::allocator<_STL::_List_node<_STL::basic_string<char,_STL::char_traits<char>,_STL::allocator<char> > > > >::~_STLP_alloc_proxy<_STL::_List_node<_STL::basic_string<char,_STL::char_traits<char>,_STL::allocator<char> > > *,_STL::_List_node<_STL::basic_string<char,_STL::char_traits<char>,_STL::allocator<char> > >,_STL::allocator<_STL::_List_node<_STL::basic_string<char,_STL::char_traits<char>,_STL::allocator<char> > > > >
_TEXT	ENDS
PUBLIC	??1Throwable@@UAE@XZ				; Throwable::~Throwable
; Function compile flags: /Ogsy
;	COMDAT ??_GThrowable@@UAEPAXI@Z
_TEXT	SEGMENT
___flags$ = 8						; size = 4
??_GThrowable@@UAEPAXI@Z PROC NEAR			; Throwable::`scalar deleting destructor', COMDAT
; _this$ = ecx
  00000	56		 push	 esi
  00001	8b f1		 mov	 esi, ecx
  00003	e8 00 00 00 00	 call	 ??1Throwable@@UAE@XZ	; Throwable::~Throwable
  00008	f6 44 24 08 01	 test	 BYTE PTR ___flags$[esp], 1
  0000d	74 07		 je	 SHORT $L88026
  0000f	56		 push	 esi
  00010	e8 00 00 00 00	 call	 ??3@YAXPAX@Z		; operator delete
  00015	59		 pop	 ecx
$L88026:
  00016	8b c6		 mov	 eax, esi
  00018	5e		 pop	 esi
  00019	c2 04 00	 ret	 4
??_GThrowable@@UAEPAXI@Z ENDP				; Throwable::`scalar deleting destructor'
_TEXT	ENDS
PUBLIC	??1?$list@V?$basic_string@DV?$char_traits@D@_STL@@V?$allocator@D@2@@_STL@@V?$allocator@V?$basic_string@DV?$char_traits@D@_STL@@V?$allocator@D@2@@_STL@@@2@@_STL@@QAE@XZ ; _STL::list<_STL::basic_string<char,_STL::char_traits<char>,_STL::allocator<char> >,_STL::allocator<_STL::basic_string<char,_STL::char_traits<char>,_STL::allocator<char> > > >::~list<_STL::basic_string<char,_STL::char_traits<char>,_STL::allocator<char> >,_STL::allocator<_STL::basic_string<char,_STL::char_traits<char>,_STL::allocator<char> > > >
; Function compile flags: /Ogsy
; File c:\darkeden\designed_common\project\client\packet\exception.h
;	COMDAT ??1Throwable@@UAE@XZ
_TEXT	SEGMENT
??1Throwable@@UAE@XZ PROC NEAR				; Throwable::~Throwable, COMDAT
; _this$ = ecx

; 43   : 	virtual ~Throwable () throw () {}

  00000	56		 push	 esi
  00001	8b f1		 mov	 esi, ecx
  00003	8d 4e 10	 lea	 ecx, DWORD PTR [esi+16]
  00006	c7 06 00 00 00
	00		 mov	 DWORD PTR [esi], OFFSET FLAT:??_7Throwable@@6B@
  0000c	e8 00 00 00 00	 call	 ??1?$list@V?$basic_string@DV?$char_traits@D@_STL@@V?$allocator@D@2@@_STL@@V?$allocator@V?$basic_string@DV?$char_traits@D@_STL@@V?$allocator@D@2@@_STL@@@2@@_STL@@QAE@XZ ; _STL::list<_STL::basic_string<char,_STL::char_traits<char>,_STL::allocator<char> >,_STL::allocator<_STL::basic_string<char,_STL::char_traits<char>,_STL::allocator<char> > > >::~list<_STL::basic_string<char,_STL::char_traits<char>,_STL::allocator<char> >,_STL::allocator<_STL::basic_string<char,_STL::char_traits<char>,_STL::allocator<char> > > >
  00011	8d 4e 04	 lea	 ecx, DWORD PTR [esi+4]
  00014	5e		 pop	 esi
  00015	e9 00 00 00 00	 jmp	 ??1?$basic_string@DV?$char_traits@D@_STL@@V?$allocator@D@2@@_STL@@QAE@XZ ; _STL::basic_string<char,_STL::char_traits<char>,_STL::allocator<char> >::~basic_string<char,_STL::char_traits<char>,_STL::allocator<char> >
??1Throwable@@UAE@XZ ENDP				; Throwable::~Throwable
_TEXT	ENDS
PUBLIC	??1?$_List_base@V?$basic_string@DV?$char_traits@D@_STL@@V?$allocator@D@2@@_STL@@V?$allocator@V?$basic_string@DV?$char_traits@D@_STL@@V?$allocator@D@2@@_STL@@@2@@_STL@@QAE@XZ ; _STL::_List_base<_STL::basic_string<char,_STL::char_traits<char>,_STL::allocator<char> >,_STL::allocator<_STL::basic_string<char,_STL::char_traits<char>,_STL::allocator<char> > > >::~_List_base<_STL::basic_string<char,_STL::char_traits<char>,_STL::allocator<char> >,_STL::allocator<_STL::basic_string<char,_STL::char_traits<char>,_STL::allocator<char> > > >
; Function compile flags: /Ogsy
; File c:\stlport-4.6.1\stlport\stl\_list.h
;	COMDAT ??1?$list@V?$basic_string@DV?$char_traits@D@_STL@@V?$allocator@D@2@@_STL@@V?$allocator@V?$basic_string@DV?$char_traits@D@_STL@@V?$allocator@D@2@@_STL@@@2@@_STL@@QAE@XZ
_TEXT	SEGMENT
??1?$list@V?$basic_string@DV?$char_traits@D@_STL@@V?$allocator@D@2@@_STL@@V?$allocator@V?$basic_string@DV?$char_traits@D@_STL@@V?$allocator@D@2@@_STL@@@2@@_STL@@QAE@XZ PROC NEAR ; _STL::list<_STL::basic_string<char,_STL::char_traits<char>,_STL::allocator<char> >,_STL::allocator<_STL::basic_string<char,_STL::char_traits<char>,_STL::allocator<char> > > >::~list<_STL::basic_string<char,_STL::char_traits<char>,_STL::allocator<char> >,_STL::allocator<_STL::basic_string<char,_STL::char_traits<char>,_STL::allocator<char> > > >, COMDAT
; _this$ = ecx

; 416  :   ~list() { }

  00000	e9 00 00 00 00	 jmp	 ??1?$_List_base@V?$basic_string@DV?$char_traits@D@_STL@@V?$allocator@D@2@@_STL@@V?$allocator@V?$basic_string@DV?$char_traits@D@_STL@@V?$allocator@D@2@@_STL@@@2@@_STL@@QAE@XZ ; _STL::_List_base<_STL::basic_string<char,_STL::char_traits<char>,_STL::allocator<char> >,_STL::allocator<_STL::basic_string<char,_STL::char_traits<char>,_STL::allocator<char> > > >::~_List_base<_STL::basic_string<char,_STL::char_traits<char>,_STL::allocator<char> >,_STL::allocator<_STL::basic_string<char,_STL::char_traits<char>,_STL::allocator<char> > > >
??1?$list@V?$basic_string@DV?$char_traits@D@_STL@@V?$allocator@D@2@@_STL@@V?$allocator@V?$basic_string@DV?$char_traits@D@_STL@@V?$allocator@D@2@@_STL@@@2@@_STL@@QAE@XZ ENDP ; _STL::list<_STL::basic_string<char,_STL::char_traits<char>,_STL::allocator<char> >,_STL::allocator<_STL::basic_string<char,_STL::char_traits<char>,_STL::allocator<char> > > >::~list<_STL::basic_string<char,_STL::char_traits<char>,_STL::allocator<char> >,_STL::allocator<_STL::basic_string<char,_STL::char_traits<char>,_STL::allocator<char> > > >
_TEXT	ENDS
PUBLIC	?clear@?$_List_base@V?$basic_string@DV?$char_traits@D@_STL@@V?$allocator@D@2@@_STL@@V?$allocator@V?$basic_string@DV?$char_traits@D@_STL@@V?$allocator@D@2@@_STL@@@2@@_STL@@QAEXXZ ; _STL::_List_base<_STL::basic_string<char,_STL::char_traits<char>,_STL::allocator<char> >,_STL::allocator<_STL::basic_string<char,_STL::char_traits<char>,_STL::allocator<char> > > >::clear
; Function compile flags: /Ogsy
;	COMDAT ??1?$_List_base@V?$basic_string@DV?$char_traits@D@_STL@@V?$allocator@D@2@@_STL@@V?$allocator@V?$basic_string@DV?$char_traits@D@_STL@@V?$allocator@D@2@@_STL@@@2@@_STL@@QAE@XZ
_TEXT	SEGMENT
??1?$_List_base@V?$basic_string@DV?$char_traits@D@_STL@@V?$allocator@D@2@@_STL@@V?$allocator@V?$basic_string@DV?$char_traits@D@_STL@@V?$allocator@D@2@@_STL@@@2@@_STL@@QAE@XZ PROC NEAR ; _STL::_List_base<_STL::basic_string<char,_STL::char_traits<char>,_STL::allocator<char> >,_STL::allocator<_STL::basic_string<char,_STL::char_traits<char>,_STL::allocator<char> > > >::~_List_base<_STL::basic_string<char,_STL::char_traits<char>,_STL::allocator<char> >,_STL::allocator<_STL::basic_string<char,_STL::char_traits<char>,_STL::allocator<char> > > >, COMDAT
; _this$ = ecx

; 188  :   ~_List_base() {

  00000	56		 push	 esi
  00001	8b f1		 mov	 esi, ecx

; 189  :     clear();

  00003	e8 00 00 00 00	 call	 ?clear@?$_List_base@V?$basic_string@DV?$char_traits@D@_STL@@V?$allocator@D@2@@_STL@@V?$allocator@V?$basic_string@DV?$char_traits@D@_STL@@V?$allocator@D@2@@_STL@@@2@@_STL@@QAEXXZ ; _STL::_List_base<_STL::basic_string<char,_STL::char_traits<char>,_STL::allocator<char> >,_STL::allocator<_STL::basic_string<char,_STL::char_traits<char>,_STL::allocator<char> > > >::clear

; 190  :     _M_node.deallocate(_M_node._M_data, 1);

  00008	8b 36		 mov	 esi, DWORD PTR [esi]
  0000a	85 f6		 test	 esi, esi
  0000c	74 0a		 je	 SHORT $L104375
  0000e	6a 14		 push	 20			; 00000014H
  00010	56		 push	 esi
  00011	e8 00 00 00 00	 call	 ?deallocate@?$__node_alloc@$00$0A@@_STL@@SAXPAXI@Z ; _STL::__node_alloc<1,0>::deallocate
  00016	59		 pop	 ecx
  00017	59		 pop	 ecx
$L104375:
  00018	5e		 pop	 esi

; 191  :   }

  00019	c3		 ret	 0
??1?$_List_base@V?$basic_string@DV?$char_traits@D@_STL@@V?$allocator@D@2@@_STL@@V?$allocator@V?$basic_string@DV?$char_traits@D@_STL@@V?$allocator@D@2@@_STL@@@2@@_STL@@QAE@XZ ENDP ; _STL::_List_base<_STL::basic_string<char,_STL::char_traits<char>,_STL::allocator<char> >,_STL::allocator<_STL::basic_string<char,_STL::char_traits<char>,_STL::allocator<char> > > >::~_List_base<_STL::basic_string<char,_STL::char_traits<char>,_STL::allocator<char> >,_STL::allocator<_STL::basic_string<char,_STL::char_traits<char>,_STL::allocator<char> > > >
; Function compile flags: /Ogsy
; File c:\stlport-4.6.1\stlport\stl\_list.c
_TEXT	ENDS
;	COMDAT ?clear@?$_List_base@V?$basic_string@DV?$char_traits@D@_STL@@V?$allocator@D@2@@_STL@@V?$allocator@V?$basic_string@DV?$char_traits@D@_STL@@V?$allocator@D@2@@_STL@@@2@@_STL@@QAEXXZ
_TEXT	SEGMENT
?clear@?$_List_base@V?$basic_string@DV?$char_traits@D@_STL@@V?$allocator@D@2@@_STL@@V?$allocator@V?$basic_string@DV?$char_traits@D@_STL@@V?$allocator@D@2@@_STL@@@2@@_STL@@QAEXXZ PROC NEAR ; _STL::_List_base<_STL::basic_string<char,_STL::char_traits<char>,_STL::allocator<char> >,_STL::allocator<_STL::basic_string<char,_STL::char_traits<char>,_STL::allocator<char> > > >::clear, COMDAT
; _this$ = ecx

; 68   : {

  00000	56		 push	 esi
  00001	57		 push	 edi
  00002	8b f9		 mov	 edi, ecx

; 69   :   _List_node<_Tp>* __cur = (_List_node<_Tp>*) this->_M_node._M_data->_M_next;

  00004	8b 07		 mov	 eax, DWORD PTR [edi]
  00006	8b 30		 mov	 esi, DWORD PTR [eax]

; 70   :   while (__cur != this->_M_node._M_data) {

  00008	3b f0		 cmp	 esi, eax
  0000a	74 1c		 je	 SHORT $L98971
  0000c	53		 push	 ebx
$L98970:

; 71   :     _List_node<_Tp>* __tmp = __cur;

  0000d	8b de		 mov	 ebx, esi

; 72   :     __cur = (_List_node<_Tp>*) __cur->_M_next;

  0000f	8b 36		 mov	 esi, DWORD PTR [esi]

; 73   :     _STLP_STD::_Destroy(&__tmp->_M_data);

  00011	8d 4b 08	 lea	 ecx, DWORD PTR [ebx+8]
  00014	e8 00 00 00 00	 call	 ??1?$basic_string@DV?$char_traits@D@_STL@@V?$allocator@D@2@@_STL@@QAE@XZ ; _STL::basic_string<char,_STL::char_traits<char>,_STL::allocator<char> >::~basic_string<char,_STL::char_traits<char>,_STL::allocator<char> >

; 74   :     this->_M_node.deallocate(__tmp, 1);

  00019	6a 14		 push	 20			; 00000014H
  0001b	53		 push	 ebx
  0001c	e8 00 00 00 00	 call	 ?deallocate@?$__node_alloc@$00$0A@@_STL@@SAXPAXI@Z ; _STL::__node_alloc<1,0>::deallocate
  00021	3b 37		 cmp	 esi, DWORD PTR [edi]
  00023	59		 pop	 ecx
  00024	59		 pop	 ecx
  00025	75 e6		 jne	 SHORT $L98970
  00027	5b		 pop	 ebx
$L98971:

; 75   :   }
; 76   :   this->_M_node._M_data->_M_next = this->_M_node._M_data;

  00028	8b 07		 mov	 eax, DWORD PTR [edi]
  0002a	89 00		 mov	 DWORD PTR [eax], eax

; 77   :   this->_M_node._M_data->_M_prev = this->_M_node._M_data;

  0002c	8b 3f		 mov	 edi, DWORD PTR [edi]
  0002e	89 7f 04	 mov	 DWORD PTR [edi+4], edi
  00031	5f		 pop	 edi
  00032	5e		 pop	 esi

; 78   : }

  00033	c3		 ret	 0
?clear@?$_List_base@V?$basic_string@DV?$char_traits@D@_STL@@V?$allocator@D@2@@_STL@@V?$allocator@V?$basic_string@DV?$char_traits@D@_STL@@V?$allocator@D@2@@_STL@@@2@@_STL@@QAEXXZ ENDP ; _STL::_List_base<_STL::basic_string<char,_STL::char_traits<char>,_STL::allocator<char> >,_STL::allocator<_STL::basic_string<char,_STL::char_traits<char>,_STL::allocator<char> > > >::clear
_TEXT	ENDS
PUBLIC	??1Error@@UAE@XZ				; Error::~Error
; Function compile flags: /Ogsy
;	COMDAT ??1UnsupportedError@@UAE@XZ
_TEXT	SEGMENT
??1UnsupportedError@@UAE@XZ PROC NEAR			; UnsupportedError::~UnsupportedError, COMDAT
; _this$ = ecx
  00000	e9 00 00 00 00	 jmp	 ??1Error@@UAE@XZ
??1UnsupportedError@@UAE@XZ ENDP			; UnsupportedError::~UnsupportedError
; Function compile flags: /Ogsy
_TEXT	ENDS
;	COMDAT ??1Error@@UAE@XZ
_TEXT	SEGMENT
??1Error@@UAE@XZ PROC NEAR				; Error::~Error, COMDAT
; _this$ = ecx
  00000	e9 00 00 00 00	 jmp	 ??1Throwable@@UAE@XZ	; Throwable::~Throwable
??1Error@@UAE@XZ ENDP					; Error::~Error
; Function compile flags: /Ogsy
; File c:\darkeden\designed_common\project\client\packet\packet.h
_TEXT	ENDS
;	COMDAT ?write@Packet@@UBEXPAVSocket@@@Z
_TEXT	SEGMENT
$T104406 = -20						; size = 20
_pSocket$ = 8						; size = 4
?write@Packet@@UBEXPAVSocket@@@Z PROC NEAR		; Packet::write, COMDAT
; _this$ = ecx

; 738  : 	virtual void write (Socket* pSocket) const throw (ProtocolException, Error) { throw UnsupportedError(); }	

  00000	55		 push	 ebp
  00001	8b ec		 mov	 ebp, esp
  00003	83 ec 14	 sub	 esp, 20			; 00000014H
  00006	8d 4d ec	 lea	 ecx, DWORD PTR $T104406[ebp]
  00009	e8 00 00 00 00	 call	 ??0UnsupportedError@@QAE@XZ ; UnsupportedError::UnsupportedError
  0000e	68 00 00 00 00	 push	 OFFSET FLAT:__TI3?AVUnsupportedError@@
  00013	8d 45 ec	 lea	 eax, DWORD PTR $T104406[ebp]
  00016	50		 push	 eax
  00017	e8 00 00 00 00	 call	 __CxxThrowException@8
$L104408:
$L104407:
  0001c	cc		 int	 3
?write@Packet@@UBEXPAVSocket@@@Z ENDP			; Packet::write
; Function compile flags: /Ogsy
_TEXT	ENDS
;	COMDAT ??_GError@@UAEPAXI@Z
_TEXT	SEGMENT
___flags$ = 8						; size = 4
??_GError@@UAEPAXI@Z PROC NEAR				; Error::`scalar deleting destructor', COMDAT
; _this$ = ecx
  00000	56		 push	 esi
  00001	8b f1		 mov	 esi, ecx
  00003	e8 00 00 00 00	 call	 ??1Error@@UAE@XZ
  00008	f6 44 24 08 01	 test	 BYTE PTR ___flags$[esp], 1
  0000d	74 07		 je	 SHORT $L89237
  0000f	56		 push	 esi
  00010	e8 00 00 00 00	 call	 ??3@YAXPAX@Z		; operator delete
  00015	59		 pop	 ecx
$L89237:
  00016	8b c6		 mov	 eax, esi
  00018	5e		 pop	 esi
  00019	c2 04 00	 ret	 4
??_GError@@UAEPAXI@Z ENDP				; Error::`scalar deleting destructor'
; Function compile flags: /Ogsy
_TEXT	ENDS
;	COMDAT ??_GUnsupportedError@@UAEPAXI@Z
_TEXT	SEGMENT
___flags$ = 8						; size = 4
??_GUnsupportedError@@UAEPAXI@Z PROC NEAR		; UnsupportedError::`scalar deleting destructor', COMDAT
; _this$ = ecx
  00000	56		 push	 esi
  00001	8b f1		 mov	 esi, ecx
  00003	e8 00 00 00 00	 call	 ??1UnsupportedError@@UAE@XZ
  00008	f6 44 24 08 01	 test	 BYTE PTR ___flags$[esp], 1
  0000d	74 07		 je	 SHORT $L89333
  0000f	56		 push	 esi
  00010	e8 00 00 00 00	 call	 ??3@YAXPAX@Z		; operator delete
  00015	59		 pop	 ecx
$L89333:
  00016	8b c6		 mov	 eax, esi
  00018	5e		 pop	 esi
  00019	c2 04 00	 ret	 4
??_GUnsupportedError@@UAEPAXI@Z ENDP			; UnsupportedError::`scalar deleting destructor'
_TEXT	ENDS
PUBLIC	??0?$list@V?$basic_string@DV?$char_traits@D@_STL@@V?$allocator@D@2@@_STL@@V?$allocator@V?$basic_string@DV?$char_traits@D@_STL@@V?$allocator@D@2@@_STL@@@2@@_STL@@QAE@ABV01@@Z ; _STL::list<_STL::basic_string<char,_STL::char_traits<char>,_STL::allocator<char> >,_STL::allocator<_STL::basic_string<char,_STL::char_traits<char>,_STL::allocator<char> > > >::list<_STL::basic_string<char,_STL::char_traits<char>,_STL::allocator<char> >,_STL::allocator<_STL::basic_string<char,_STL::char_traits<char>,_STL::allocator<char> > > >
;	COMDAT xdata$x
xdata$x	SEGMENT
$T104422 DD	0ffffffffH
	DD	FLAT:$L104417
$T104420 DD	019930520H
	DD	01H
	DD	FLAT:$T104422
	DD	2 DUP(00H)
	DD	2 DUP(00H)
; Function compile flags: /Ogsy
xdata$x	ENDS
;	COMDAT ??0Throwable@@QAE@ABV0@@Z
_TEXT	SEGMENT
_this$ = -16						; size = 4
__$EHRec$ = -12						; size = 12
___that$ = 8						; size = 4
??0Throwable@@QAE@ABV0@@Z PROC NEAR			; Throwable::Throwable, COMDAT
; _this$ = ecx
  00000	b8 00 00 00 00	 mov	 eax, __ehhandler$??0Throwable@@QAE@ABV0@@Z
  00005	e8 00 00 00 00	 call	 __EH_prolog
  0000a	51		 push	 ecx
  0000b	56		 push	 esi
  0000c	57		 push	 edi
  0000d	8b 7d 08	 mov	 edi, DWORD PTR ___that$[ebp]
  00010	8b f1		 mov	 esi, ecx
  00012	8d 47 04	 lea	 eax, DWORD PTR [edi+4]
  00015	50		 push	 eax
  00016	8d 4e 04	 lea	 ecx, DWORD PTR [esi+4]
  00019	89 75 f0	 mov	 DWORD PTR _this$[ebp], esi
  0001c	c7 06 00 00 00
	00		 mov	 DWORD PTR [esi], OFFSET FLAT:??_7Throwable@@6B@
  00022	e8 00 00 00 00	 call	 ??0?$basic_string@DV?$char_traits@D@_STL@@V?$allocator@D@2@@_STL@@QAE@ABV01@@Z ; _STL::basic_string<char,_STL::char_traits<char>,_STL::allocator<char> >::basic_string<char,_STL::char_traits<char>,_STL::allocator<char> >
  00027	83 65 fc 00	 and	 DWORD PTR __$EHRec$[ebp+8], 0
  0002b	83 c7 10	 add	 edi, 16			; 00000010H
  0002e	57		 push	 edi
  0002f	8d 4e 10	 lea	 ecx, DWORD PTR [esi+16]
  00032	e8 00 00 00 00	 call	 ??0?$list@V?$basic_string@DV?$char_traits@D@_STL@@V?$allocator@D@2@@_STL@@V?$allocator@V?$basic_string@DV?$char_traits@D@_STL@@V?$allocator@D@2@@_STL@@@2@@_STL@@QAE@ABV01@@Z ; _STL::list<_STL::basic_string<char,_STL::char_traits<char>,_STL::allocator<char> >,_STL::allocator<_STL::basic_string<char,_STL::char_traits<char>,_STL::allocator<char> > > >::list<_STL::basic_string<char,_STL::char_traits<char>,_STL::allocator<char> >,_STL::allocator<_STL::basic_string<char,_STL::char_traits<char>,_STL::allocator<char> > > >
  00037	8b 4d f4	 mov	 ecx, DWORD PTR __$EHRec$[ebp]
  0003a	5f		 pop	 edi
  0003b	8b c6		 mov	 eax, esi
  0003d	5e		 pop	 esi
  0003e	64 89 0d 00 00
	00 00		 mov	 DWORD PTR fs:__except_list, ecx
  00045	c9		 leave
  00046	c2 04 00	 ret	 4
_TEXT	ENDS
;	COMDAT text$x
text$x	SEGMENT
$L104417:
  00000	8b 4d f0	 mov	 ecx, DWORD PTR _this$[ebp]
  00003	83 c1 04	 add	 ecx, 4
  00006	e9 00 00 00 00	 jmp	 ??1?$basic_string@DV?$char_traits@D@_STL@@V?$allocator@D@2@@_STL@@QAE@XZ ; _STL::basic_string<char,_STL::char_traits<char>,_STL::allocator<char> >::~basic_string<char,_STL::char_traits<char>,_STL::allocator<char> >
__ehhandler$??0Throwable@@QAE@ABV0@@Z:
  0000b	b8 00 00 00 00	 mov	 eax, OFFSET FLAT:$T104420
  00010	e9 00 00 00 00	 jmp	 ___CxxFrameHandler
text$x	ENDS
??0Throwable@@QAE@ABV0@@Z ENDP				; Throwable::Throwable
PUBLIC	??$insert@U?$_List_iterator@V?$basic_string@DV?$char_traits@D@_STL@@V?$allocator@D@2@@_STL@@U?$_Const_traits@V?$basic_string@DV?$char_traits@D@_STL@@V?$allocator@D@2@@_STL@@@2@@_STL@@@?$list@V?$basic_string@DV?$char_traits@D@_STL@@V?$allocator@D@2@@_STL@@V?$allocator@V?$basic_string@DV?$char_traits@D@_STL@@V?$allocator@D@2@@_STL@@@2@@_STL@@QAEXU?$_List_iterator@V?$basic_string@DV?$char_traits@D@_STL@@V?$allocator@D@2@@_STL@@U?$_Nonconst_traits@V?$basic_string@DV?$char_traits@D@_STL@@V?$allocator@D@2@@_STL@@@2@@1@U?$_List_iterator@V?$basic_string@DV?$char_traits@D@_STL@@V?$allocator@D@2@@_STL@@U?$_Const_traits@V?$basic_string@DV?$char_traits@D@_STL@@V?$allocator@D@2@@_STL@@@2@@1@1@Z ; _STL::list<_STL::basic_string<char,_STL::char_traits<char>,_STL::allocator<char> >,_STL::allocator<_STL::basic_string<char,_STL::char_traits<char>,_STL::allocator<char> > > >::insert<_STL::_List_iterator<_STL::basic_string<char,_STL::char_traits<char>,_STL::allocator<char> >,_STL::_Const_traits<_STL::basic_string<char,_STL::char_traits<char>,_STL::allocator<char> > > > >
PUBLIC	??1?$allocator@V?$basic_string@DV?$char_traits@D@_STL@@V?$allocator@D@2@@_STL@@@_STL@@QAE@XZ ; _STL::allocator<_STL::basic_string<char,_STL::char_traits<char>,_STL::allocator<char> > >::~allocator<_STL::basic_string<char,_STL::char_traits<char>,_STL::allocator<char> > >
PUBLIC	?get_allocator@?$_List_base@V?$basic_string@DV?$char_traits@D@_STL@@V?$allocator@D@2@@_STL@@V?$allocator@V?$basic_string@DV?$char_traits@D@_STL@@V?$allocator@D@2@@_STL@@@2@@_STL@@QBE?AV?$allocator@V?$basic_string@DV?$char_traits@D@_STL@@V?$allocator@D@2@@_STL@@@2@XZ ; _STL::_List_base<_STL::basic_string<char,_STL::char_traits<char>,_STL::allocator<char> >,_STL::allocator<_STL::basic_string<char,_STL::char_traits<char>,_STL::allocator<char> > > >::get_allocator
;	COMDAT xdata$x
; File c:\stlport-4.6.1\stlport\stl\_list.h
xdata$x	SEGMENT
$T104548 DD	0ffffffffH
	DD	FLAT:$L104431
	DD	00H
	DD	FLAT:$L104432
	DD	0ffffffffH
	DD	FLAT:$L104432
$T104546 DD	019930520H
	DD	03H
	DD	FLAT:$T104548
	DD	2 DUP(00H)
	DD	2 DUP(00H)
; Function compile flags: /Ogsy
xdata$x	ENDS
;	COMDAT ??0?$list@V?$basic_string@DV?$char_traits@D@_STL@@V?$allocator@D@2@@_STL@@V?$allocator@V?$basic_string@DV?$char_traits@D@_STL@@V?$allocator@D@2@@_STL@@@2@@_STL@@QAE@ABV01@@Z
_TEXT	SEGMENT
$T104430 = -20						; size = 4
_this$ = -16						; size = 4
__$EHRec$ = -12						; size = 12
___x$ = 8						; size = 4
$T104427 = 11						; size = 1
??0?$list@V?$basic_string@DV?$char_traits@D@_STL@@V?$allocator@D@2@@_STL@@V?$allocator@V?$basic_string@DV?$char_traits@D@_STL@@V?$allocator@D@2@@_STL@@@2@@_STL@@QAE@ABV01@@Z PROC NEAR ; _STL::list<_STL::basic_string<char,_STL::char_traits<char>,_STL::allocator<char> >,_STL::allocator<_STL::basic_string<char,_STL::char_traits<char>,_STL::allocator<char> > > >::list<_STL::basic_string<char,_STL::char_traits<char>,_STL::allocator<char> >,_STL::allocator<_STL::basic_string<char,_STL::char_traits<char>,_STL::allocator<char> > > >, COMDAT
; _this$ = ecx

; 414  :     { insert(begin(), __x.begin(), __x.end()); }

  00000	b8 00 00 00 00	 mov	 eax, __ehhandler$??0?$list@V?$basic_string@DV?$char_traits@D@_STL@@V?$allocator@D@2@@_STL@@V?$allocator@V?$basic_string@DV?$char_traits@D@_STL@@V?$allocator@D@2@@_STL@@@2@@_STL@@QAE@ABV01@@Z
  00005	e8 00 00 00 00	 call	 __EH_prolog
  0000a	51		 push	 ecx
  0000b	51		 push	 ecx
  0000c	56		 push	 esi
  0000d	57		 push	 edi
  0000e	8b 7d 08	 mov	 edi, DWORD PTR ___x$[ebp]
  00011	8b f1		 mov	 esi, ecx
  00013	8d 45 0b	 lea	 eax, DWORD PTR $T104427[ebp]
  00016	50		 push	 eax
  00017	8b cf		 mov	 ecx, edi
  00019	89 75 f0	 mov	 DWORD PTR _this$[ebp], esi
  0001c	e8 00 00 00 00	 call	 ?get_allocator@?$_List_base@V?$basic_string@DV?$char_traits@D@_STL@@V?$allocator@D@2@@_STL@@V?$allocator@V?$basic_string@DV?$char_traits@D@_STL@@V?$allocator@D@2@@_STL@@@2@@_STL@@QBE?AV?$allocator@V?$basic_string@DV?$char_traits@D@_STL@@V?$allocator@D@2@@_STL@@@2@XZ ; _STL::_List_base<_STL::basic_string<char,_STL::char_traits<char>,_STL::allocator<char> >,_STL::allocator<_STL::basic_string<char,_STL::char_traits<char>,_STL::allocator<char> > > >::get_allocator
  00021	83 65 fc 00	 and	 DWORD PTR __$EHRec$[ebp+8], 0
  00025	50		 push	 eax
  00026	8b ce		 mov	 ecx, esi
  00028	e8 00 00 00 00	 call	 ??0?$_List_base@V?$basic_string@DV?$char_traits@D@_STL@@V?$allocator@D@2@@_STL@@V?$allocator@V?$basic_string@DV?$char_traits@D@_STL@@V?$allocator@D@2@@_STL@@@2@@_STL@@QAE@ABV?$allocator@V?$basic_string@DV?$char_traits@D@_STL@@V?$allocator@D@2@@_STL@@@1@@Z ; _STL::_List_base<_STL::basic_string<char,_STL::char_traits<char>,_STL::allocator<char> >,_STL::allocator<_STL::basic_string<char,_STL::char_traits<char>,_STL::allocator<char> > > >::_List_base<_STL::basic_string<char,_STL::char_traits<char>,_STL::allocator<char> >,_STL::allocator<_STL::basic_string<char,_STL::char_traits<char>,_STL::allocator<char> > > >
  0002d	8b 07		 mov	 eax, DWORD PTR [edi]
  0002f	8b 08		 mov	 ecx, DWORD PTR [eax]
  00031	50		 push	 eax
  00032	51		 push	 ecx
  00033	51		 push	 ecx
  00034	8b 0e		 mov	 ecx, DWORD PTR [esi]
  00036	8b 09		 mov	 ecx, DWORD PTR [ecx]
  00038	8b c4		 mov	 eax, esp
  0003a	89 08		 mov	 DWORD PTR [eax], ecx
  0003c	8b ce		 mov	 ecx, esi
  0003e	c6 45 fc 02	 mov	 BYTE PTR __$EHRec$[ebp+8], 2
  00042	89 65 ec	 mov	 DWORD PTR $T104430[ebp], esp
  00045	e8 00 00 00 00	 call	 ??$insert@U?$_List_iterator@V?$basic_string@DV?$char_traits@D@_STL@@V?$allocator@D@2@@_STL@@U?$_Const_traits@V?$basic_string@DV?$char_traits@D@_STL@@V?$allocator@D@2@@_STL@@@2@@_STL@@@?$list@V?$basic_string@DV?$char_traits@D@_STL@@V?$allocator@D@2@@_STL@@V?$allocator@V?$basic_string@DV?$char_traits@D@_STL@@V?$allocator@D@2@@_STL@@@2@@_STL@@QAEXU?$_List_iterator@V?$basic_string@DV?$char_traits@D@_STL@@V?$allocator@D@2@@_STL@@U?$_Nonconst_traits@V?$basic_string@DV?$char_traits@D@_STL@@V?$allocator@D@2@@_STL@@@2@@1@U?$_List_iterator@V?$basic_string@DV?$char_traits@D@_STL@@V?$allocator@D@2@@_STL@@U?$_Const_traits@V?$basic_string@DV?$char_traits@D@_STL@@V?$allocator@D@2@@_STL@@@2@@1@1@Z ; _STL::list<_STL::basic_string<char,_STL::char_traits<char>,_STL::allocator<char> >,_STL::allocator<_STL::basic_string<char,_STL::char_traits<char>,_STL::allocator<char> > > >::insert<_STL::_List_iterator<_STL::basic_string<char,_STL::char_traits<char>,_STL::allocator<char> >,_STL::_Const_traits<_STL::basic_string<char,_STL::char_traits<char>,_STL::allocator<char> > > > >
  0004a	8b 4d f4	 mov	 ecx, DWORD PTR __$EHRec$[ebp]
  0004d	5f		 pop	 edi
  0004e	8b c6		 mov	 eax, esi
  00050	64 89 0d 00 00
	00 00		 mov	 DWORD PTR fs:__except_list, ecx
  00057	5e		 pop	 esi
  00058	c9		 leave
  00059	c2 04 00	 ret	 4
_TEXT	ENDS
;	COMDAT text$x
text$x	SEGMENT
$L104431:
  00000	8d 4d 0b	 lea	 ecx, DWORD PTR $T104427[ebp]
  00003	e9 00 00 00 00	 jmp	 ??1?$allocator@V?$basic_string@DV?$char_traits@D@_STL@@V?$allocator@D@2@@_STL@@@_STL@@QAE@XZ ; _STL::allocator<_STL::basic_string<char,_STL::char_traits<char>,_STL::allocator<char> > >::~allocator<_STL::basic_string<char,_STL::char_traits<char>,_STL::allocator<char> > >
$L104432:
  00008	8b 4d f0	 mov	 ecx, DWORD PTR _this$[ebp]
  0000b	e9 00 00 00 00	 jmp	 ??1?$_List_base@V?$basic_string@DV?$char_traits@D@_STL@@V?$allocator@D@2@@_STL@@V?$allocator@V?$basic_string@DV?$char_traits@D@_STL@@V?$allocator@D@2@@_STL@@@2@@_STL@@QAE@XZ ; _STL::_List_base<_STL::basic_string<char,_STL::char_traits<char>,_STL::allocator<char> >,_STL::allocator<_STL::basic_string<char,_STL::char_traits<char>,_STL::allocator<char> > > >::~_List_base<_STL::basic_string<char,_STL::char_traits<char>,_STL::allocator<char> >,_STL::allocator<_STL::basic_string<char,_STL::char_traits<char>,_STL::allocator<char> > > >
__ehhandler$??0?$list@V?$basic_string@DV?$char_traits@D@_STL@@V?$allocator@D@2@@_STL@@V?$allocator@V?$basic_string@DV?$char_traits@D@_STL@@V?$allocator@D@2@@_STL@@@2@@_STL@@QAE@ABV01@@Z:
  00010	b8 00 00 00 00	 mov	 eax, OFFSET FLAT:$T104546
  00015	e9 00 00 00 00	 jmp	 ___CxxFrameHandler
text$x	ENDS
??0?$list@V?$basic_string@DV?$char_traits@D@_STL@@V?$allocator@D@2@@_STL@@V?$allocator@V?$basic_string@DV?$char_traits@D@_STL@@V?$allocator@D@2@@_STL@@@2@@_STL@@QAE@ABV01@@Z ENDP ; _STL::list<_STL::basic_string<char,_STL::char_traits<char>,_STL::allocator<char> >,_STL::allocator<_STL::basic_string<char,_STL::char_traits<char>,_STL::allocator<char> > > >::list<_STL::basic_string<char,_STL::char_traits<char>,_STL::allocator<char> >,_STL::allocator<_STL::basic_string<char,_STL::char_traits<char>,_STL::allocator<char> > > >
; Function compile flags: /Ogsy
; File c:\stlport-4.6.1\stlport\stl\_alloc.h
;	COMDAT ??1?$allocator@V?$basic_string@DV?$char_traits@D@_STL@@V?$allocator@D@2@@_STL@@@_STL@@QAE@XZ
_TEXT	SEGMENT
??1?$allocator@V?$basic_string@DV?$char_traits@D@_STL@@V?$allocator@D@2@@_STL@@@_STL@@QAE@XZ PROC NEAR ; _STL::allocator<_STL::basic_string<char,_STL::char_traits<char>,_STL::allocator<char> > >::~allocator<_STL::basic_string<char,_STL::char_traits<char>,_STL::allocator<char> > >, COMDAT
; _this$ = ecx

; 350  :   ~allocator() _STLP_NOTHROW {}

  00000	c3		 ret	 0
??1?$allocator@V?$basic_string@DV?$char_traits@D@_STL@@V?$allocator@D@2@@_STL@@@_STL@@QAE@XZ ENDP ; _STL::allocator<_STL::basic_string<char,_STL::char_traits<char>,_STL::allocator<char> > >::~allocator<_STL::basic_string<char,_STL::char_traits<char>,_STL::allocator<char> > >
; Function compile flags: /Ogsy
; File c:\stlport-4.6.1\stlport\stl\_list.h
_TEXT	ENDS
;	COMDAT ?get_allocator@?$_List_base@V?$basic_string@DV?$char_traits@D@_STL@@V?$allocator@D@2@@_STL@@V?$allocator@V?$basic_string@DV?$char_traits@D@_STL@@V?$allocator@D@2@@_STL@@@2@@_STL@@QBE?AV?$allocator@V?$basic_string@DV?$char_traits@D@_STL@@V?$allocator@D@2@@_STL@@@2@XZ
_TEXT	SEGMENT
___$ReturnUdt$ = 8					; size = 4
?get_allocator@?$_List_base@V?$basic_string@DV?$char_traits@D@_STL@@V?$allocator@D@2@@_STL@@V?$allocator@V?$basic_string@DV?$char_traits@D@_STL@@V?$allocator@D@2@@_STL@@@2@@_STL@@QBE?AV?$allocator@V?$basic_string@DV?$char_traits@D@_STL@@V?$allocator@D@2@@_STL@@@2@XZ PROC NEAR ; _STL::_List_base<_STL::basic_string<char,_STL::char_traits<char>,_STL::allocator<char> >,_STL::allocator<_STL::basic_string<char,_STL::char_traits<char>,_STL::allocator<char> > > >::get_allocator, COMDAT
; _this$ = ecx

; 179  :     return _STLP_CONVERT_ALLOCATOR((const _Node_allocator_type&)_M_node, _Tp);

  00000	8b 44 24 04	 mov	 eax, DWORD PTR ___$ReturnUdt$[esp-4]

; 180  :   }

  00004	c2 04 00	 ret	 4
?get_allocator@?$_List_base@V?$basic_string@DV?$char_traits@D@_STL@@V?$allocator@D@2@@_STL@@V?$allocator@V?$basic_string@DV?$char_traits@D@_STL@@V?$allocator@D@2@@_STL@@@2@@_STL@@QBE?AV?$allocator@V?$basic_string@DV?$char_traits@D@_STL@@V?$allocator@D@2@@_STL@@@2@XZ ENDP ; _STL::_List_base<_STL::basic_string<char,_STL::char_traits<char>,_STL::allocator<char> >,_STL::allocator<_STL::basic_string<char,_STL::char_traits<char>,_STL::allocator<char> > > >::get_allocator
_TEXT	ENDS
PUBLIC	??$_M_insert_dispatch@U?$_List_iterator@V?$basic_string@DV?$char_traits@D@_STL@@V?$allocator@D@2@@_STL@@U?$_Const_traits@V?$basic_string@DV?$char_traits@D@_STL@@V?$allocator@D@2@@_STL@@@2@@_STL@@@?$list@V?$basic_string@DV?$char_traits@D@_STL@@V?$allocator@D@2@@_STL@@V?$allocator@V?$basic_string@DV?$char_traits@D@_STL@@V?$allocator@D@2@@_STL@@@2@@_STL@@QAEXU?$_List_iterator@V?$basic_string@DV?$char_traits@D@_STL@@V?$allocator@D@2@@_STL@@U?$_Nonconst_traits@V?$basic_string@DV?$char_traits@D@_STL@@V?$allocator@D@2@@_STL@@@2@@1@U?$_List_iterator@V?$basic_string@DV?$char_traits@D@_STL@@V?$allocator@D@2@@_STL@@U?$_Const_traits@V?$basic_string@DV?$char_traits@D@_STL@@V?$allocator@D@2@@_STL@@@2@@1@1ABU__false_type@1@@Z ; _STL::list<_STL::basic_string<char,_STL::char_traits<char>,_STL::allocator<char> >,_STL::allocator<_STL::basic_string<char,_STL::char_traits<char>,_STL::allocator<char> > > >::_M_insert_dispatch<_STL::_List_iterator<_STL::basic_string<char,_STL::char_traits<char>,_STL::allocator<char> >,_STL::_Const_traits<_STL::basic_string<char,_STL::char_traits<char>,_STL::allocator<char> > > > >
; Function compile flags: /Ogsy
;	COMDAT ??$insert@U?$_List_iterator@V?$basic_string@DV?$char_traits@D@_STL@@V?$allocator@D@2@@_STL@@U?$_Const_traits@V?$basic_string@DV?$char_traits@D@_STL@@V?$allocator@D@2@@_STL@@@2@@_STL@@@?$list@V?$basic_string@DV?$char_traits@D@_STL@@V?$allocator@D@2@@_STL@@V?$allocator@V?$basic_string@DV?$char_traits@D@_STL@@V?$allocator@D@2@@_STL@@@2@@_STL@@QAEXU?$_List_iterator@V?$basic_string@DV?$char_traits@D@_STL@@V?$allocator@D@2@@_STL@@U?$_Nonconst_traits@V?$basic_string@DV?$char_traits@D@_STL@@V?$allocator@D@2@@_STL@@@2@@1@U?$_List_iterator@V?$basic_string@DV?$char_traits@D@_STL@@V?$allocator@D@2@@_STL@@U?$_Const_traits@V?$basic_string@DV?$char_traits@D@_STL@@V?$allocator@D@2@@_STL@@@2@@1@1@Z
_TEXT	SEGMENT
$T104562 = -1						; size = 1
___pos$ = 8						; size = 4
___first$ = 12						; size = 4
___last$ = 16						; size = 4
??$insert@U?$_List_iterator@V?$basic_string@DV?$char_traits@D@_STL@@V?$allocator@D@2@@_STL@@U?$_Const_traits@V?$basic_string@DV?$char_traits@D@_STL@@V?$allocator@D@2@@_STL@@@2@@_STL@@@?$list@V?$basic_string@DV?$char_traits@D@_STL@@V?$allocator@D@2@@_STL@@V?$allocator@V?$basic_string@DV?$char_traits@D@_STL@@V?$allocator@D@2@@_STL@@@2@@_STL@@QAEXU?$_List_iterator@V?$basic_string@DV?$char_traits@D@_STL@@V?$allocator@D@2@@_STL@@U?$_Nonconst_traits@V?$basic_string@DV?$char_traits@D@_STL@@V?$allocator@D@2@@_STL@@@2@@1@U?$_List_iterator@V?$basic_string@DV?$char_traits@D@_STL@@V?$allocator@D@2@@_STL@@U?$_Const_traits@V?$basic_string@DV?$char_traits@D@_STL@@V?$allocator@D@2@@_STL@@@2@@1@1@Z PROC NEAR ; _STL::list<_STL::basic_string<char,_STL::char_traits<char>,_STL::allocator<char> >,_STL::allocator<_STL::basic_string<char,_STL::char_traits<char>,_STL::allocator<char> > > >::insert<_STL::_List_iterator<_STL::basic_string<char,_STL::char_traits<char>,_STL::allocator<char> >,_STL::_Const_traits<_STL::basic_string<char,_STL::char_traits<char>,_STL::allocator<char> > > > >, COMDAT
; _this$ = ecx

; 312  :   void insert(iterator __pos, _InputIterator __first, _InputIterator __last) {

  00000	55		 push	 ebp
  00001	8b ec		 mov	 ebp, esp
  00003	51		 push	 ecx

; 313  :     typedef typename _Is_integer<_InputIterator>::_Integral _Integral;
; 314  :     _M_insert_dispatch(__pos, __first, __last, _Integral());

  00004	8b 55 08	 mov	 edx, DWORD PTR ___pos$[ebp]
  00007	57		 push	 edi
  00008	33 c0		 xor	 eax, eax
  0000a	8d 7d ff	 lea	 edi, DWORD PTR $T104562[ebp]
  0000d	aa		 stosb
  0000e	8d 45 ff	 lea	 eax, DWORD PTR $T104562[ebp]
  00011	50		 push	 eax
  00012	ff 75 10	 push	 DWORD PTR ___last$[ebp]
  00015	ff 75 0c	 push	 DWORD PTR ___first$[ebp]
  00018	51		 push	 ecx
  00019	8b c4		 mov	 eax, esp
  0001b	89 10		 mov	 DWORD PTR [eax], edx
  0001d	e8 00 00 00 00	 call	 ??$_M_insert_dispatch@U?$_List_iterator@V?$basic_string@DV?$char_traits@D@_STL@@V?$allocator@D@2@@_STL@@U?$_Const_traits@V?$basic_string@DV?$char_traits@D@_STL@@V?$allocator@D@2@@_STL@@@2@@_STL@@@?$list@V?$basic_string@DV?$char_traits@D@_STL@@V?$allocator@D@2@@_STL@@V?$allocator@V?$basic_string@DV?$char_traits@D@_STL@@V?$allocator@D@2@@_STL@@@2@@_STL@@QAEXU?$_List_iterator@V?$basic_string@DV?$char_traits@D@_STL@@V?$allocator@D@2@@_STL@@U?$_Nonconst_traits@V?$basic_string@DV?$char_traits@D@_STL@@V?$allocator@D@2@@_STL@@@2@@1@U?$_List_iterator@V?$basic_string@DV?$char_traits@D@_STL@@V?$allocator@D@2@@_STL@@U?$_Const_traits@V?$basic_string@DV?$char_traits@D@_STL@@V?$allocator@D@2@@_STL@@@2@@1@1ABU__false_type@1@@Z ; _STL::list<_STL::basic_string<char,_STL::char_traits<char>,_STL::allocator<char> >,_STL::allocator<_STL::basic_string<char,_STL::char_traits<char>,_STL::allocator<char> > > >::_M_insert_dispatch<_STL::_List_iterator<_STL::basic_string<char,_STL::char_traits<char>,_STL::allocator<char> >,_STL::_Const_traits<_STL::basic_string<char,_STL::char_traits<char>,_STL::allocator<char> > > > >

; 315  :   }

  00022	5f		 pop	 edi
  00023	c9		 leave
  00024	c2 0c 00	 ret	 12			; 0000000cH
??$insert@U?$_List_iterator@V?$basic_string@DV?$char_traits@D@_STL@@V?$allocator@D@2@@_STL@@U?$_Const_traits@V?$basic_string@DV?$char_traits@D@_STL@@V?$allocator@D@2@@_STL@@@2@@_STL@@@?$list@V?$basic_string@DV?$char_traits@D@_STL@@V?$allocator@D@2@@_STL@@V?$allocator@V?$basic_string@DV?$char_traits@D@_STL@@V?$allocator@D@2@@_STL@@@2@@_STL@@QAEXU?$_List_iterator@V?$basic_string@DV?$char_traits@D@_STL@@V?$allocator@D@2@@_STL@@U?$_Nonconst_traits@V?$basic_string@DV?$char_traits@D@_STL@@V?$allocator@D@2@@_STL@@@2@@1@U?$_List_iterator@V?$basic_string@DV?$char_traits@D@_STL@@V?$allocator@D@2@@_STL@@U?$_Const_traits@V?$basic_string@DV?$char_traits@D@_STL@@V?$allocator@D@2@@_STL@@@2@@1@1@Z ENDP ; _STL::list<_STL::basic_string<char,_STL::char_traits<char>,_STL::allocator<char> >,_STL::allocator<_STL::basic_string<char,_STL::char_traits<char>,_STL::allocator<char> > > >::insert<_STL::_List_iterator<_STL::basic_string<char,_STL::char_traits<char>,_STL::allocator<char> >,_STL::_Const_traits<_STL::basic_string<char,_STL::char_traits<char>,_STL::allocator<char> > > > >
_TEXT	ENDS
PUBLIC	?_M_create_node@?$list@V?$basic_string@DV?$char_traits@D@_STL@@V?$allocator@D@2@@_STL@@V?$allocator@V?$basic_string@DV?$char_traits@D@_STL@@V?$allocator@D@2@@_STL@@@2@@_STL@@IAEPAU?$_List_node@V?$basic_string@DV?$char_traits@D@_STL@@V?$allocator@D@2@@_STL@@@2@ABV?$basic_string@DV?$char_traits@D@_STL@@V?$allocator@D@2@@2@@Z ; _STL::list<_STL::basic_string<char,_STL::char_traits<char>,_STL::allocator<char> >,_STL::allocator<_STL::basic_string<char,_STL::char_traits<char>,_STL::allocator<char> > > >::_M_create_node
; Function compile flags: /Ogsy
;	COMDAT ??$_M_insert_dispatch@U?$_List_iterator@V?$basic_string@DV?$char_traits@D@_STL@@V?$allocator@D@2@@_STL@@U?$_Const_traits@V?$basic_string@DV?$char_traits@D@_STL@@V?$allocator@D@2@@_STL@@@2@@_STL@@@?$list@V?$basic_string@DV?$char_traits@D@_STL@@V?$allocator@D@2@@_STL@@V?$allocator@V?$basic_string@DV?$char_traits@D@_STL@@V?$allocator@D@2@@_STL@@@2@@_STL@@QAEXU?$_List_iterator@V?$basic_string@DV?$char_traits@D@_STL@@V?$allocator@D@2@@_STL@@U?$_Nonconst_traits@V?$basic_string@DV?$char_traits@D@_STL@@V?$allocator@D@2@@_STL@@@2@@1@U?$_List_iterator@V?$basic_string@DV?$char_traits@D@_STL@@V?$allocator@D@2@@_STL@@U?$_Const_traits@V?$basic_string@DV?$char_traits@D@_STL@@V?$allocator@D@2@@_STL@@@2@@1@1ABU__false_type@1@@Z
_TEXT	SEGMENT
___position$ = 8					; size = 4
___first$ = 12						; size = 4
___last$ = 16						; size = 4
___formal$ = 20						; size = 4
??$_M_insert_dispatch@U?$_List_iterator@V?$basic_string@DV?$char_traits@D@_STL@@V?$allocator@D@2@@_STL@@U?$_Const_traits@V?$basic_string@DV?$char_traits@D@_STL@@V?$allocator@D@2@@_STL@@@2@@_STL@@@?$list@V?$basic_string@DV?$char_traits@D@_STL@@V?$allocator@D@2@@_STL@@V?$allocator@V?$basic_string@DV?$char_traits@D@_STL@@V?$allocator@D@2@@_STL@@@2@@_STL@@QAEXU?$_List_iterator@V?$basic_string@DV?$char_traits@D@_STL@@V?$allocator@D@2@@_STL@@U?$_Nonconst_traits@V?$basic_string@DV?$char_traits@D@_STL@@V?$allocator@D@2@@_STL@@@2@@1@U?$_List_iterator@V?$basic_string@DV?$char_traits@D@_STL@@V?$allocator@D@2@@_STL@@U?$_Const_traits@V?$basic_string@DV?$char_traits@D@_STL@@V?$allocator@D@2@@_STL@@@2@@1@1ABU__false_type@1@@Z PROC NEAR ; _STL::list<_STL::basic_string<char,_STL::char_traits<char>,_STL::allocator<char> >,_STL::allocator<_STL::basic_string<char,_STL::char_traits<char>,_STL::allocator<char> > > >::_M_insert_dispatch<_STL::_List_iterator<_STL::basic_string<char,_STL::char_traits<char>,_STL::allocator<char> >,_STL::_Const_traits<_STL::basic_string<char,_STL::char_traits<char>,_STL::allocator<char> > > > >, COMDAT
; _this$ = ecx

; 323  :   void 

  00000	53		 push	 ebx
  00001	56		 push	 esi

; 324  :   _M_insert_dispatch(iterator __position,
; 325  : 		     _InputIter __first, _InputIter __last,
; 326  : 		     const __false_type&) 
; 327  : #else /* _STLP_MEMBER_TEMPLATES */
; 328  :   void insert(iterator __position, const _Tp* __first, const _Tp* __last) {
; 329  :     for ( ; __first != __last; ++__first)
; 330  :       insert(__position, *__first);
; 331  :   }
; 332  :   void insert(iterator __position, const_iterator __first, const_iterator __last)
; 333  : #endif /* _STLP_MEMBER_TEMPLATES */
; 334  :   {
; 335  :     for ( ; __first != __last; ++__first)

  00002	8b 74 24 10	 mov	 esi, DWORD PTR ___first$[esp+4]
  00006	3b 74 24 14	 cmp	 esi, DWORD PTR ___last$[esp+4]
  0000a	57		 push	 edi
  0000b	8b d9		 mov	 ebx, ecx
  0000d	74 24		 je	 SHORT $L102243
  0000f	8b 7c 24 10	 mov	 edi, DWORD PTR ___position$[esp+8]
$L104632:

; 336  :       insert(__position, *__first);

  00013	8d 46 08	 lea	 eax, DWORD PTR [esi+8]
  00016	50		 push	 eax
  00017	8b cb		 mov	 ecx, ebx
  00019	e8 00 00 00 00	 call	 ?_M_create_node@?$list@V?$basic_string@DV?$char_traits@D@_STL@@V?$allocator@D@2@@_STL@@V?$allocator@V?$basic_string@DV?$char_traits@D@_STL@@V?$allocator@D@2@@_STL@@@2@@_STL@@IAEPAU?$_List_node@V?$basic_string@DV?$char_traits@D@_STL@@V?$allocator@D@2@@_STL@@@2@ABV?$basic_string@DV?$char_traits@D@_STL@@V?$allocator@D@2@@2@@Z ; _STL::list<_STL::basic_string<char,_STL::char_traits<char>,_STL::allocator<char> >,_STL::allocator<_STL::basic_string<char,_STL::char_traits<char>,_STL::allocator<char> > > >::_M_create_node
  0001e	8b 4f 04	 mov	 ecx, DWORD PTR [edi+4]
  00021	89 38		 mov	 DWORD PTR [eax], edi
  00023	89 48 04	 mov	 DWORD PTR [eax+4], ecx
  00026	89 01		 mov	 DWORD PTR [ecx], eax
  00028	89 47 04	 mov	 DWORD PTR [edi+4], eax
  0002b	8b 36		 mov	 esi, DWORD PTR [esi]
  0002d	3b 74 24 18	 cmp	 esi, DWORD PTR ___last$[esp+8]
  00031	75 e0		 jne	 SHORT $L104632
$L102243:

; 337  :   }

  00033	5f		 pop	 edi
  00034	5e		 pop	 esi
  00035	5b		 pop	 ebx
  00036	c2 10 00	 ret	 16			; 00000010H
??$_M_insert_dispatch@U?$_List_iterator@V?$basic_string@DV?$char_traits@D@_STL@@V?$allocator@D@2@@_STL@@U?$_Const_traits@V?$basic_string@DV?$char_traits@D@_STL@@V?$allocator@D@2@@_STL@@@2@@_STL@@@?$list@V?$basic_string@DV?$char_traits@D@_STL@@V?$allocator@D@2@@_STL@@V?$allocator@V?$basic_string@DV?$char_traits@D@_STL@@V?$allocator@D@2@@_STL@@@2@@_STL@@QAEXU?$_List_iterator@V?$basic_string@DV?$char_traits@D@_STL@@V?$allocator@D@2@@_STL@@U?$_Nonconst_traits@V?$basic_string@DV?$char_traits@D@_STL@@V?$allocator@D@2@@_STL@@@2@@1@U?$_List_iterator@V?$basic_string@DV?$char_traits@D@_STL@@V?$allocator@D@2@@_STL@@U?$_Const_traits@V?$basic_string@DV?$char_traits@D@_STL@@V?$allocator@D@2@@_STL@@@2@@1@1ABU__false_type@1@@Z ENDP ; _STL::list<_STL::basic_string<char,_STL::char_traits<char>,_STL::allocator<char> >,_STL::allocator<_STL::basic_string<char,_STL::char_traits<char>,_STL::allocator<char> > > >::_M_insert_dispatch<_STL::_List_iterator<_STL::basic_string<char,_STL::char_traits<char>,_STL::allocator<char> >,_STL::_Const_traits<_STL::basic_string<char,_STL::char_traits<char>,_STL::allocator<char> > > > >
_TEXT	ENDS
PUBLIC	??3@YAXPAX0@Z					; operator delete
;	COMDAT xdata$x
; File c:\stlport-4.6.1\stlport\stl\_alloc.h
xdata$x	SEGMENT
$T104708 DD	0ffffffffH
	DD	00H
	DD	00H
	DD	FLAT:$L104687
	DD	0ffffffffH
	DD	00H
$T104710 DD	00H
	DD	00H
	DD	00H
	DD	FLAT:$L104674
$T104709 DD	00H
	DD	01H
	DD	02H
	DD	01H
	DD	FLAT:$T104710
$T104705 DD	019930520H
	DD	03H
	DD	FLAT:$T104708
	DD	01H
	DD	FLAT:$T104709
	DD	2 DUP(00H)
; Function compile flags: /Ogsy
; File c:\stlport-4.6.1\stlport\stl\_list.h
xdata$x	ENDS
;	COMDAT ?_M_create_node@?$list@V?$basic_string@DV?$char_traits@D@_STL@@V?$allocator@D@2@@_STL@@V?$allocator@V?$basic_string@DV?$char_traits@D@_STL@@V?$allocator@D@2@@_STL@@@2@@_STL@@IAEPAU?$_List_node@V?$basic_string@DV?$char_traits@D@_STL@@V?$allocator@D@2@@_STL@@@2@ABV?$basic_string@DV?$char_traits@D@_STL@@V?$allocator@D@2@@2@@Z
_TEXT	SEGMENT
$T104693 = -28						; size = 4
$T104699 = -24						; size = 4
___p$ = -20						; size = 4
__$EHRec$ = -16						; size = 16
___x$ = 8						; size = 4
?_M_create_node@?$list@V?$basic_string@DV?$char_traits@D@_STL@@V?$allocator@D@2@@_STL@@V?$allocator@V?$basic_string@DV?$char_traits@D@_STL@@V?$allocator@D@2@@_STL@@@2@@_STL@@IAEPAU?$_List_node@V?$basic_string@DV?$char_traits@D@_STL@@V?$allocator@D@2@@_STL@@@2@ABV?$basic_string@DV?$char_traits@D@_STL@@V?$allocator@D@2@@2@@Z PROC NEAR ; _STL::list<_STL::basic_string<char,_STL::char_traits<char>,_STL::allocator<char> >,_STL::allocator<_STL::basic_string<char,_STL::char_traits<char>,_STL::allocator<char> > > >::_M_create_node, COMDAT
; _this$ = ecx

; 240  :   {

  00000	b8 00 00 00 00	 mov	 eax, __ehhandler$?_M_create_node@?$list@V?$basic_string@DV?$char_traits@D@_STL@@V?$allocator@D@2@@_STL@@V?$allocator@V?$basic_string@DV?$char_traits@D@_STL@@V?$allocator@D@2@@_STL@@@2@@_STL@@IAEPAU?$_List_node@V?$basic_string@DV?$char_traits@D@_STL@@V?$allocator@D@2@@_STL@@@2@ABV?$basic_string@DV?$char_traits@D@_STL@@V?$allocator@D@2@@2@@Z
  00005	e8 00 00 00 00	 call	 __EH_prolog
  0000a	83 ec 10	 sub	 esp, 16			; 00000010H
  0000d	53		 push	 ebx
  0000e	56		 push	 esi
  0000f	57		 push	 edi
  00010	89 65 f0	 mov	 DWORD PTR __$EHRec$[ebp], esp

; 241  :     _Node* __p = this->_M_node.allocate(1);

  00013	6a 14		 push	 20			; 00000014H
  00015	e8 00 00 00 00	 call	 ?allocate@?$__node_alloc@$00$0A@@_STL@@SAPAXI@Z ; _STL::__node_alloc<1,0>::allocate

; 242  :     _STLP_TRY {

  0001a	83 65 fc 00	 and	 DWORD PTR __$EHRec$[ebp+12], 0
  0001e	8b f0		 mov	 esi, eax
  00020	59		 pop	 ecx

; 243  :       _Construct(&__p->_M_data, __x);

  00021	8d 4e 08	 lea	 ecx, DWORD PTR [esi+8]
  00024	89 75 ec	 mov	 DWORD PTR ___p$[ebp], esi
  00027	89 4d e8	 mov	 DWORD PTR $T104699[ebp], ecx
  0002a	89 4d e4	 mov	 DWORD PTR $T104693[ebp], ecx
  0002d	85 c9		 test	 ecx, ecx
  0002f	c6 45 fc 01	 mov	 BYTE PTR __$EHRec$[ebp+12], 1
  00033	74 08		 je	 SHORT $L104694
  00035	ff 75 08	 push	 DWORD PTR ___x$[ebp]
  00038	e8 00 00 00 00	 call	 ??0?$basic_string@DV?$char_traits@D@_STL@@V?$allocator@D@2@@_STL@@QAE@ABV01@@Z ; _STL::basic_string<char,_STL::char_traits<char>,_STL::allocator<char> >::basic_string<char,_STL::char_traits<char>,_STL::allocator<char> >
$L104694:

; 246  :     return __p;
; 247  :   }

  0003d	8b 4d f4	 mov	 ecx, DWORD PTR __$EHRec$[ebp+4]
  00040	5f		 pop	 edi
  00041	8b c6		 mov	 eax, esi
  00043	5e		 pop	 esi
  00044	64 89 0d 00 00
	00 00		 mov	 DWORD PTR fs:__except_list, ecx
  0004b	5b		 pop	 ebx
  0004c	c9		 leave
  0004d	c2 04 00	 ret	 4
$L104674:

; 244  :     }
; 245  :     _STLP_UNWIND(this->_M_node.deallocate(__p, 1));

  00050	83 7d ec 00	 cmp	 DWORD PTR ___p$[ebp], 0
  00054	74 0c		 je	 SHORT $L104703
  00056	6a 14		 push	 20			; 00000014H
  00058	ff 75 ec	 push	 DWORD PTR ___p$[ebp]
  0005b	e8 00 00 00 00	 call	 ?deallocate@?$__node_alloc@$00$0A@@_STL@@SAXPAXI@Z ; _STL::__node_alloc<1,0>::deallocate
  00060	59		 pop	 ecx
  00061	59		 pop	 ecx
$L104703:
  00062	6a 00		 push	 0
  00064	6a 00		 push	 0
  00066	e8 00 00 00 00	 call	 __CxxThrowException@8
$L104711:
$L104707:
  0006b	cc		 int	 3
_TEXT	ENDS
;	COMDAT text$x
text$x	SEGMENT
$L104687:
  00000	ff 75 e8	 push	 DWORD PTR $T104699[ebp]
  00003	ff 75 e4	 push	 DWORD PTR $T104693[ebp]
  00006	e8 00 00 00 00	 call	 ??3@YAXPAX0@Z		; operator delete
  0000b	59		 pop	 ecx
  0000c	59		 pop	 ecx
  0000d	c3		 ret	 0
__ehhandler$?_M_create_node@?$list@V?$basic_string@DV?$char_traits@D@_STL@@V?$allocator@D@2@@_STL@@V?$allocator@V?$basic_string@DV?$char_traits@D@_STL@@V?$allocator@D@2@@_STL@@@2@@_STL@@IAEPAU?$_List_node@V?$basic_string@DV?$char_traits@D@_STL@@V?$allocator@D@2@@_STL@@@2@ABV?$basic_string@DV?$char_traits@D@_STL@@V?$allocator@D@2@@2@@Z:
  0000e	b8 00 00 00 00	 mov	 eax, OFFSET FLAT:$T104705
  00013	e9 00 00 00 00	 jmp	 ___CxxFrameHandler
text$x	ENDS
?_M_create_node@?$list@V?$basic_string@DV?$char_traits@D@_STL@@V?$allocator@D@2@@_STL@@V?$allocator@V?$basic_string@DV?$char_traits@D@_STL@@V?$allocator@D@2@@_STL@@@2@@_STL@@IAEPAU?$_List_node@V?$basic_string@DV?$char_traits@D@_STL@@V?$allocator@D@2@@_STL@@@2@ABV?$basic_string@DV?$char_traits@D@_STL@@V?$allocator@D@2@@2@@Z ENDP ; _STL::list<_STL::basic_string<char,_STL::char_traits<char>,_STL::allocator<char> >,_STL::allocator<_STL::basic_string<char,_STL::char_traits<char>,_STL::allocator<char> > > >::_M_create_node
; Function compile flags: /Ogsy
; File c:\program files\microsoft visual studio .net 2003\vc7\include\new
;	COMDAT ??3@YAXPAX0@Z
_TEXT	SEGMENT
___formal$ = 8						; size = 4
___formal$ = 12						; size = 4
??3@YAXPAX0@Z PROC NEAR					; operator delete, COMDAT

; 69   : 	}

  00000	c3		 ret	 0
??3@YAXPAX0@Z ENDP					; operator delete
; Function compile flags: /Ogsy
_TEXT	ENDS
;	COMDAT ??0Error@@QAE@ABV0@@Z
_TEXT	SEGMENT
___that$ = 8						; size = 4
??0Error@@QAE@ABV0@@Z PROC NEAR				; Error::Error, COMDAT
; _this$ = ecx
  00000	56		 push	 esi
  00001	ff 74 24 08	 push	 DWORD PTR ___that$[esp]
  00005	8b f1		 mov	 esi, ecx
  00007	e8 00 00 00 00	 call	 ??0Throwable@@QAE@ABV0@@Z
  0000c	c7 06 00 00 00
	00		 mov	 DWORD PTR [esi], OFFSET FLAT:??_7Error@@6B@
  00012	8b c6		 mov	 eax, esi
  00014	5e		 pop	 esi
  00015	c2 04 00	 ret	 4
??0Error@@QAE@ABV0@@Z ENDP				; Error::Error
; Function compile flags: /Ogsy
_TEXT	ENDS
;	COMDAT ??0UnsupportedError@@QAE@ABV0@@Z
_TEXT	SEGMENT
___that$ = 8						; size = 4
??0UnsupportedError@@QAE@ABV0@@Z PROC NEAR		; UnsupportedError::UnsupportedError, COMDAT
; _this$ = ecx
  00000	56		 push	 esi
  00001	ff 74 24 08	 push	 DWORD PTR ___that$[esp]
  00005	8b f1		 mov	 esi, ecx
  00007	e8 00 00 00 00	 call	 ??0Error@@QAE@ABV0@@Z
  0000c	c7 06 00 00 00
	00		 mov	 DWORD PTR [esi], OFFSET FLAT:??_7UnsupportedError@@6B@
  00012	8b c6		 mov	 eax, esi
  00014	5e		 pop	 esi
  00015	c2 04 00	 ret	 4
??0UnsupportedError@@QAE@ABV0@@Z ENDP			; UnsupportedError::UnsupportedError
_TEXT	ENDS
PUBLIC	??_C@_09EMOGKKPB@BASIC_STR?$AA@			; `string'
PUBLIC	??_C@_0M@EJOONLND@CURRENT_STR?$AA@		; `string'
PUBLIC	??_C@_07KKCHECBB@MAX_STR?$AA@			; `string'
PUBLIC	??_C@_0P@CEHLLGLK@STR_EXP_REMAIN?$AA@		; `string'
PUBLIC	??_C@_09GGCDOEBK@BASIC_DEX?$AA@			; `string'
PUBLIC	??_C@_0M@GDCLJFDI@CURRENT_DEX?$AA@		; `string'
PUBLIC	??_C@_07IAOCAMPK@MAX_DEX?$AA@			; `string'
PUBLIC	??_C@_0P@DKPKJNND@DEX_EXP_REMAIN?$AA@		; `string'
PUBLIC	??_C@_09DEKJJMCK@BASIC_INT?$AA@			; `string'
PUBLIC	??_C@_0M@DBKBONAI@CURRENT_INT?$AA@		; `string'
PUBLIC	??_C@_07NCGIHEMK@MAX_INT?$AA@			; `string'
PUBLIC	??_C@_0P@BDHGGNMJ@INT_EXP_REMAIN?$AA@		; `string'
PUBLIC	??_C@_0L@HGOGCHKL@CURRENT_HP?$AA@		; `string'
PUBLIC	??_C@_06NMHEPHCD@MAX_HP?$AA@			; `string'
PUBLIC	??_C@_0L@HACNOFEA@CURRENT_MP?$AA@		; `string'
PUBLIC	??_C@_06NKLPDFMI@MAX_MP?$AA@			; `string'
PUBLIC	??_C@_0L@HOANAEGI@MIN_DAMAGE?$AA@		; `string'
PUBLIC	??_C@_0L@LCAAHPGH@MAX_DAMAGE?$AA@		; `string'
PUBLIC	??_C@_07PABEIMLA@DEFENSE?$AA@			; `string'
PUBLIC	??_C@_0L@CACMAAHO@PROTECTION?$AA@		; `string'
PUBLIC	??_C@_05PMLNIFOI@TOHIT?$AA@			; `string'
PUBLIC	??_C@_06IGFCKNHC@VISION?$AA@			; `string'
PUBLIC	??_C@_04DIIKDPIA@FAME?$AA@			; `string'
PUBLIC	??_C@_04PNOMDKHF@GOLD?$AA@			; `string'
PUBLIC	??_C@_0BD@KMGAIODB@SWORD_DOMAIN_LEVEL?$AA@	; `string'
PUBLIC	??_C@_0BI@BGNAADGH@SWORD_DOMAIN_EXP_REMAIN?$AA@	; `string'
PUBLIC	??_C@_0BG@IGGENAK@SWORD_DOMAIN_GOAL_EXP?$AA@	; `string'
PUBLIC	??_C@_0BD@PGNNGOBB@BLADE_DOMAIN_LEVEL?$AA@	; `string'
PUBLIC	??_C@_0BI@IMLMLFMG@BLADE_DOMAIN_EXP_REMAIN?$AA@	; `string'
PUBLIC	??_C@_0BG@NLIFDHGN@BLADE_DOMAIN_GOAL_EXP?$AA@	; `string'
PUBLIC	??_C@_0BC@GPJLIFK@HEAL_DOMAIN_LEVEL?$AA@	; `string'
PUBLIC	??_C@_0BH@ILFIDFFK@HEAL_DOMAIN_EXP_REMAIN?$AA@	; `string'
PUBLIC	??_C@_0BF@EMCLNDPE@HEAL_DOMAIN_GOAL_EXP?$AA@	; `string'
PUBLIC	??_C@_0BF@ONHDOKIF@ENCHANT_DOMAIN_LEVEL?$AA@	; `string'
PUBLIC	??_C@_0BK@LANBKOIK@ENCHANT_DOMAIN_EXP_REMAIN?$AA@ ; `string'
PUBLIC	??_C@_0BI@EPBOPEPK@ENCHANT_DOMAIN_GOAL_EXP?$AA@	; `string'
PUBLIC	??_C@_0BB@ELHNALIJ@GUN_DOMAIN_LEVEL?$AA@	; `string'
PUBLIC	??_C@_0BG@OJCBFDLD@GUN_DOMAIN_EXP_REMAIN?$AA@	; `string'
PUBLIC	??_C@_0BE@OGNJOCJC@GUN_DOMAIN_GOAL_EXP?$AA@	; `string'
PUBLIC	??_C@_0BB@MNCHHIND@ETC_DOMAIN_LEVEL?$AA@	; `string'
PUBLIC	??_C@_0BG@OOPKBPAA@ETC_DOMAIN_EXP_REMAIN?$AA@	; `string'
PUBLIC	??_C@_0BE@IFONLKN@ETC_DOMAIN_GOAL_EXP?$AA@	; `string'
PUBLIC	??_C@_0M@OHHCLPDA@SKILL_LEVEL?$AA@		; `string'
PUBLIC	??_C@_05GCEPFMCO@LEVEL?$AA@			; `string'
PUBLIC	??_C@_0M@MLFPLLC@EFFECT_STAT?$AA@		; `string'
PUBLIC	??_C@_08MJLDLDGF@DURATION?$AA@			; `string'
PUBLIC	??_C@_06JADFICD@BULLET?$AA@			; `string'
PUBLIC	??_C@_0M@DPKCELMF@BONUS_POINT?$AA@		; `string'
PUBLIC	??_C@_0L@JEFHDPIL@DURABILITY?$AA@		; `string'
PUBLIC	??_C@_09EGKBMPFK@NOTORIETY?$AA@			; `string'
PUBLIC	??_C@_0BA@MAIHAHDB@VAMP_EXP_REMAIN?$AA@		; `string'
PUBLIC	??_C@_0O@ENDFFBFD@SILVER_DAMAGE?$AA@		; `string'
PUBLIC	??_C@_0N@KMAAPCII@ATTACK_SPEED?$AA@		; `string'
PUBLIC	??_C@_09HPPNPOEE@ALIGNMENT?$AA@			; `string'
PUBLIC	??_C@_0BC@BNIPJKDA@SILVER_DURABILITY?$AA@	; `string'
PUBLIC	??_C@_0L@HJJLGOIM@REGEN_RATE?$AA@		; `string'
PUBLIC	??_C@_07ICBEDALK@GUILDID?$AA@			; `string'
PUBLIC	??_C@_04DBCPJNBF@RANK?$AA@			; `string'
PUBLIC	??_C@_0BA@DLBJHHBE@RANK_EXP_REMAIN?$AA@		; `string'
PUBLIC	??_C@_0BD@BBMKLBCL@OUSTERS_EXP_REMAIN?$AA@	; `string'
PUBLIC	??_C@_0BC@IMLFGMDG@SKILL_BONUS_POINT?$AA@	; `string'
PUBLIC	??_C@_0P@PEHNMFMM@ELEMENTAL_FIRE?$AA@		; `string'
PUBLIC	??_C@_0BA@MHDKAJKL@ELEMENTAL_WATER?$AA@		; `string'
PUBLIC	??_C@_0BA@BIGMGHL@ELEMENTAL_EARTH?$AA@		; `string'
PUBLIC	??_C@_0P@KFNKBAKL@ELEMENTAL_WIND?$AA@		; `string'
PUBLIC	??_C@_09BBOPOJIN@SKILL_EXP?$AA@			; `string'
PUBLIC	??_C@_06IEBMKFDK@PET_HP?$AA@			; `string'
PUBLIC	??_C@_0P@GOFONOAE@PET_EXP_REMAIN?$AA@		; `string'
PUBLIC	??_C@_0M@KIBGPGKM@LAST_TARGET?$AA@		; `string'
PUBLIC	??_C@_07PBEOFEGM@UNIONID?$AA@			; `string'
PUBLIC	??_C@_0L@COBGECE@UNIONGRADE?$AA@		; `string'
PUBLIC	??_C@_0BI@LHEPMHDM@ADVANCEMENT_CLASS_LEVEL?$AA@	; `string'
PUBLIC	??_C@_0BL@IKNEBHFH@ADVANCEMENT_CLASS_GOAL_EXP?$AA@ ; `string'
PUBLIC	??_C@_0BJ@PIJGHHAP@ATTACK_BLOOD_BURST_POINT?$AA@ ; `string'
PUBLIC	??_C@_0BK@BJJBOCNF@DEFENSE_BLOOD_BURST_POINT?$AA@ ; `string'
PUBLIC	??_C@_0BI@MHOBEFBP@PARTY_BLOOD_BURST_POINT?$AA@	; `string'
PUBLIC	??_C@_0BD@BPOFFKFG@ADVANCED_SLAYERSTR?$AA@	; `string'
PUBLIC	??_C@_0BD@DFCABELN@ADVANCED_SLAYERDEX?$AA@	; `string'
PUBLIC	??_C@_0BD@GHKKGMIN@ADVANCED_SLAYERINT?$AA@	; `string'
PUBLIC	??_C@_0BB@JLMOMJOK@CONTRIBUTE_POINT?$AA@	; `string'
PUBLIC	??_C@_08IKEGEPEJ@DIANJUAN?$AA@			; `string'
PUBLIC	??_C@_03LEPPJAKI@MAX?$AA@			; `string'
EXTRN	_atexit:NEAR
CRT$XCU	SEGMENT
_$S81	DD	FLAT:_$E79
CRT$XCU	ENDS
;	COMDAT xdata$x
; File c:\stlport-4.6.1\stlport\stl\_alloc.h
xdata$x	SEGMENT
$T105386 DD	0ffffffffH
	DD	FLAT:$L104809
	DD	00H
	DD	FLAT:$L104810
	DD	01H
	DD	FLAT:$L104811
	DD	02H
	DD	FLAT:$L104812
	DD	03H
	DD	FLAT:$L104813
	DD	04H
	DD	FLAT:$L104814
	DD	05H
	DD	FLAT:$L104815
	DD	06H
	DD	FLAT:$L104816
	DD	07H
	DD	FLAT:$L104817
	DD	08H
	DD	FLAT:$L104818
	DD	09H
	DD	FLAT:$L104819
	DD	0aH
	DD	FLAT:$L104820
	DD	0bH
	DD	FLAT:$L104821
	DD	0cH
	DD	FLAT:$L104822
	DD	0dH
	DD	FLAT:$L104823
	DD	0eH
	DD	FLAT:$L104824
	DD	0fH
	DD	FLAT:$L104825
	DD	010H
	DD	FLAT:$L104826
	DD	011H
	DD	FLAT:$L104827
	DD	012H
	DD	FLAT:$L104828
	DD	013H
	DD	FLAT:$L104829
	DD	014H
	DD	FLAT:$L104830
	DD	015H
	DD	FLAT:$L104831
	DD	016H
	DD	FLAT:$L104832
	DD	017H
	DD	FLAT:$L104833
	DD	018H
	DD	FLAT:$L104834
	DD	019H
	DD	FLAT:$L104835
	DD	01aH
	DD	FLAT:$L104836
	DD	01bH
	DD	FLAT:$L104837
	DD	01cH
	DD	FLAT:$L104838
	DD	01dH
	DD	FLAT:$L104839
	DD	01eH
	DD	FLAT:$L104840
	DD	01fH
	DD	FLAT:$L104841
	DD	020H
	DD	FLAT:$L104842
	DD	021H
	DD	FLAT:$L104843
	DD	022H
	DD	FLAT:$L104844
	DD	023H
	DD	FLAT:$L104845
	DD	024H
	DD	FLAT:$L104846
	DD	025H
	DD	FLAT:$L104847
	DD	026H
	DD	FLAT:$L104848
	DD	027H
	DD	FLAT:$L104849
	DD	028H
	DD	FLAT:$L104850
	DD	029H
	DD	FLAT:$L104851
	DD	02aH
	DD	FLAT:$L104852
	DD	02bH
	DD	FLAT:$L104853
	DD	02cH
	DD	FLAT:$L104854
	DD	02dH
	DD	FLAT:$L104855
	DD	02eH
	DD	FLAT:$L104856
	DD	02fH
	DD	FLAT:$L104857
	DD	030H
	DD	FLAT:$L104858
	DD	031H
	DD	FLAT:$L104859
	DD	032H
	DD	FLAT:$L104860
	DD	033H
	DD	FLAT:$L104861
	DD	034H
	DD	FLAT:$L104862
	DD	035H
	DD	FLAT:$L104863
	DD	036H
	DD	FLAT:$L104864
	DD	037H
	DD	FLAT:$L104865
	DD	038H
	DD	FLAT:$L104866
	DD	039H
	DD	FLAT:$L104867
	DD	03aH
	DD	FLAT:$L104868
	DD	03bH
	DD	FLAT:$L104869
	DD	03cH
	DD	FLAT:$L104870
	DD	03dH
	DD	FLAT:$L104871
	DD	03eH
	DD	FLAT:$L104872
	DD	03fH
	DD	FLAT:$L104873
	DD	040H
	DD	FLAT:$L104874
	DD	041H
	DD	FLAT:$L104875
	DD	042H
	DD	FLAT:$L104876
	DD	043H
	DD	FLAT:$L104877
	DD	044H
	DD	FLAT:$L104878
	DD	045H
	DD	FLAT:$L104879
	DD	046H
	DD	FLAT:$L104880
	DD	047H
	DD	FLAT:$L104881
	DD	048H
	DD	FLAT:$L104882
	DD	049H
	DD	FLAT:$L104883
	DD	04aH
	DD	FLAT:$L104884
	DD	04bH
	DD	FLAT:$L104885
	DD	04cH
	DD	FLAT:$L104886
	DD	04dH
	DD	FLAT:$L104887
	DD	04eH
	DD	FLAT:$L104888
	DD	04fH
	DD	FLAT:$L104889
$T105384 DD	019930520H
	DD	051H
	DD	FLAT:$T105386
	DD	2 DUP(00H)
	DD	2 DUP(00H)
xdata$x	ENDS
;	COMDAT ??_C@_09EMOGKKPB@BASIC_STR?$AA@
CONST	SEGMENT
??_C@_09EMOGKKPB@BASIC_STR?$AA@ DB 'BASIC_STR', 00H	; `string'
CONST	ENDS
;	COMDAT ??_C@_0M@EJOONLND@CURRENT_STR?$AA@
CONST	SEGMENT
??_C@_0M@EJOONLND@CURRENT_STR?$AA@ DB 'CURRENT_STR', 00H ; `string'
CONST	ENDS
;	COMDAT ??_C@_07KKCHECBB@MAX_STR?$AA@
CONST	SEGMENT
??_C@_07KKCHECBB@MAX_STR?$AA@ DB 'MAX_STR', 00H		; `string'
CONST	ENDS
;	COMDAT ??_C@_0P@CEHLLGLK@STR_EXP_REMAIN?$AA@
CONST	SEGMENT
??_C@_0P@CEHLLGLK@STR_EXP_REMAIN?$AA@ DB 'STR_EXP_REMAIN', 00H ; `string'
CONST	ENDS
;	COMDAT ??_C@_09GGCDOEBK@BASIC_DEX?$AA@
CONST	SEGMENT
??_C@_09GGCDOEBK@BASIC_DEX?$AA@ DB 'BASIC_DEX', 00H	; `string'
CONST	ENDS
;	COMDAT ??_C@_0M@GDCLJFDI@CURRENT_DEX?$AA@
CONST	SEGMENT
??_C@_0M@GDCLJFDI@CURRENT_DEX?$AA@ DB 'CURRENT_DEX', 00H ; `string'
CONST	ENDS
;	COMDAT ??_C@_07IAOCAMPK@MAX_DEX?$AA@
CONST	SEGMENT
??_C@_07IAOCAMPK@MAX_DEX?$AA@ DB 'MAX_DEX', 00H		; `string'
CONST	ENDS
;	COMDAT ??_C@_0P@DKPKJNND@DEX_EXP_REMAIN?$AA@
CONST	SEGMENT
??_C@_0P@DKPKJNND@DEX_EXP_REMAIN?$AA@ DB 'DEX_EXP_REMAIN', 00H ; `string'
CONST	ENDS
;	COMDAT ??_C@_09DEKJJMCK@BASIC_INT?$AA@
CONST	SEGMENT
??_C@_09DEKJJMCK@BASIC_INT?$AA@ DB 'BASIC_INT', 00H	; `string'
CONST	ENDS
;	COMDAT ??_C@_0M@DBKBONAI@CURRENT_INT?$AA@
CONST	SEGMENT
??_C@_0M@DBKBONAI@CURRENT_INT?$AA@ DB 'CURRENT_INT', 00H ; `string'
CONST	ENDS
;	COMDAT ??_C@_07NCGIHEMK@MAX_INT?$AA@
CONST	SEGMENT
??_C@_07NCGIHEMK@MAX_INT?$AA@ DB 'MAX_INT', 00H		; `string'
CONST	ENDS
;	COMDAT ??_C@_0P@BDHGGNMJ@INT_EXP_REMAIN?$AA@
CONST	SEGMENT
??_C@_0P@BDHGGNMJ@INT_EXP_REMAIN?$AA@ DB 'INT_EXP_REMAIN', 00H ; `string'
CONST	ENDS
;	COMDAT ??_C@_0L@HGOGCHKL@CURRENT_HP?$AA@
CONST	SEGMENT
??_C@_0L@HGOGCHKL@CURRENT_HP?$AA@ DB 'CURRENT_HP', 00H	; `string'
CONST	ENDS
;	COMDAT ??_C@_06NMHEPHCD@MAX_HP?$AA@
CONST	SEGMENT
??_C@_06NMHEPHCD@MAX_HP?$AA@ DB 'MAX_HP', 00H		; `string'
CONST	ENDS
;	COMDAT ??_C@_0L@HACNOFEA@CURRENT_MP?$AA@
CONST	SEGMENT
??_C@_0L@HACNOFEA@CURRENT_MP?$AA@ DB 'CURRENT_MP', 00H	; `string'
CONST	ENDS
;	COMDAT ??_C@_06NKLPDFMI@MAX_MP?$AA@
CONST	SEGMENT
??_C@_06NKLPDFMI@MAX_MP?$AA@ DB 'MAX_MP', 00H		; `string'
CONST	ENDS
;	COMDAT ??_C@_0L@HOANAEGI@MIN_DAMAGE?$AA@
CONST	SEGMENT
??_C@_0L@HOANAEGI@MIN_DAMAGE?$AA@ DB 'MIN_DAMAGE', 00H	; `string'
CONST	ENDS
;	COMDAT ??_C@_0L@LCAAHPGH@MAX_DAMAGE?$AA@
CONST	SEGMENT
??_C@_0L@LCAAHPGH@MAX_DAMAGE?$AA@ DB 'MAX_DAMAGE', 00H	; `string'
CONST	ENDS
;	COMDAT ??_C@_07PABEIMLA@DEFENSE?$AA@
CONST	SEGMENT
??_C@_07PABEIMLA@DEFENSE?$AA@ DB 'DEFENSE', 00H		; `string'
CONST	ENDS
;	COMDAT ??_C@_0L@CACMAAHO@PROTECTION?$AA@
CONST	SEGMENT
??_C@_0L@CACMAAHO@PROTECTION?$AA@ DB 'PROTECTION', 00H	; `string'
CONST	ENDS
;	COMDAT ??_C@_05PMLNIFOI@TOHIT?$AA@
CONST	SEGMENT
??_C@_05PMLNIFOI@TOHIT?$AA@ DB 'TOHIT', 00H		; `string'
CONST	ENDS
;	COMDAT ??_C@_06IGFCKNHC@VISION?$AA@
CONST	SEGMENT
??_C@_06IGFCKNHC@VISION?$AA@ DB 'VISION', 00H		; `string'
CONST	ENDS
;	COMDAT ??_C@_04DIIKDPIA@FAME?$AA@
CONST	SEGMENT
??_C@_04DIIKDPIA@FAME?$AA@ DB 'FAME', 00H		; `string'
CONST	ENDS
;	COMDAT ??_C@_04PNOMDKHF@GOLD?$AA@
CONST	SEGMENT
??_C@_04PNOMDKHF@GOLD?$AA@ DB 'GOLD', 00H		; `string'
CONST	ENDS
;	COMDAT ??_C@_0BD@KMGAIODB@SWORD_DOMAIN_LEVEL?$AA@
CONST	SEGMENT
??_C@_0BD@KMGAIODB@SWORD_DOMAIN_LEVEL?$AA@ DB 'SWORD_DOMAIN_LEVEL', 00H ; `string'
CONST	ENDS
;	COMDAT ??_C@_0BI@BGNAADGH@SWORD_DOMAIN_EXP_REMAIN?$AA@
CONST	SEGMENT
??_C@_0BI@BGNAADGH@SWORD_DOMAIN_EXP_REMAIN?$AA@ DB 'SWORD_DOMAIN_EXP_REMA'
	DB	'IN', 00H					; `string'
CONST	ENDS
;	COMDAT ??_C@_0BG@IGGENAK@SWORD_DOMAIN_GOAL_EXP?$AA@
CONST	SEGMENT
??_C@_0BG@IGGENAK@SWORD_DOMAIN_GOAL_EXP?$AA@ DB 'SWORD_DOMAIN_GOAL_EXP', 00H ; `string'
CONST	ENDS
;	COMDAT ??_C@_0BD@PGNNGOBB@BLADE_DOMAIN_LEVEL?$AA@
CONST	SEGMENT
??_C@_0BD@PGNNGOBB@BLADE_DOMAIN_LEVEL?$AA@ DB 'BLADE_DOMAIN_LEVEL', 00H ; `string'
CONST	ENDS
;	COMDAT ??_C@_0BI@IMLMLFMG@BLADE_DOMAIN_EXP_REMAIN?$AA@
CONST	SEGMENT
??_C@_0BI@IMLMLFMG@BLADE_DOMAIN_EXP_REMAIN?$AA@ DB 'BLADE_DOMAIN_EXP_REMA'
	DB	'IN', 00H					; `string'
CONST	ENDS
;	COMDAT ??_C@_0BG@NLIFDHGN@BLADE_DOMAIN_GOAL_EXP?$AA@
CONST	SEGMENT
??_C@_0BG@NLIFDHGN@BLADE_DOMAIN_GOAL_EXP?$AA@ DB 'BLADE_DOMAIN_GOAL_EXP', 00H ; `string'
CONST	ENDS
;	COMDAT ??_C@_0BC@GPJLIFK@HEAL_DOMAIN_LEVEL?$AA@
CONST	SEGMENT
??_C@_0BC@GPJLIFK@HEAL_DOMAIN_LEVEL?$AA@ DB 'HEAL_DOMAIN_LEVEL', 00H ; `string'
CONST	ENDS
;	COMDAT ??_C@_0BH@ILFIDFFK@HEAL_DOMAIN_EXP_REMAIN?$AA@
CONST	SEGMENT
??_C@_0BH@ILFIDFFK@HEAL_DOMAIN_EXP_REMAIN?$AA@ DB 'HEAL_DOMAIN_EXP_REMAIN'
	DB	00H						; `string'
CONST	ENDS
;	COMDAT ??_C@_0BF@EMCLNDPE@HEAL_DOMAIN_GOAL_EXP?$AA@
CONST	SEGMENT
??_C@_0BF@EMCLNDPE@HEAL_DOMAIN_GOAL_EXP?$AA@ DB 'HEAL_DOMAIN_GOAL_EXP', 00H ; `string'
CONST	ENDS
;	COMDAT ??_C@_0BF@ONHDOKIF@ENCHANT_DOMAIN_LEVEL?$AA@
CONST	SEGMENT
??_C@_0BF@ONHDOKIF@ENCHANT_DOMAIN_LEVEL?$AA@ DB 'ENCHANT_DOMAIN_LEVEL', 00H ; `string'
CONST	ENDS
;	COMDAT ??_C@_0BK@LANBKOIK@ENCHANT_DOMAIN_EXP_REMAIN?$AA@
CONST	SEGMENT
??_C@_0BK@LANBKOIK@ENCHANT_DOMAIN_EXP_REMAIN?$AA@ DB 'ENCHANT_DOMAIN_EXP_'
	DB	'REMAIN', 00H				; `string'
CONST	ENDS
;	COMDAT ??_C@_0BI@EPBOPEPK@ENCHANT_DOMAIN_GOAL_EXP?$AA@
CONST	SEGMENT
??_C@_0BI@EPBOPEPK@ENCHANT_DOMAIN_GOAL_EXP?$AA@ DB 'ENCHANT_DOMAIN_GOAL_E'
	DB	'XP', 00H					; `string'
CONST	ENDS
;	COMDAT ??_C@_0BB@ELHNALIJ@GUN_DOMAIN_LEVEL?$AA@
CONST	SEGMENT
??_C@_0BB@ELHNALIJ@GUN_DOMAIN_LEVEL?$AA@ DB 'GUN_DOMAIN_LEVEL', 00H ; `string'
CONST	ENDS
;	COMDAT ??_C@_0BG@OJCBFDLD@GUN_DOMAIN_EXP_REMAIN?$AA@
CONST	SEGMENT
??_C@_0BG@OJCBFDLD@GUN_DOMAIN_EXP_REMAIN?$AA@ DB 'GUN_DOMAIN_EXP_REMAIN', 00H ; `string'
CONST	ENDS
;	COMDAT ??_C@_0BE@OGNJOCJC@GUN_DOMAIN_GOAL_EXP?$AA@
CONST	SEGMENT
??_C@_0BE@OGNJOCJC@GUN_DOMAIN_GOAL_EXP?$AA@ DB 'GUN_DOMAIN_GOAL_EXP', 00H ; `string'
CONST	ENDS
;	COMDAT ??_C@_0BB@MNCHHIND@ETC_DOMAIN_LEVEL?$AA@
CONST	SEGMENT
??_C@_0BB@MNCHHIND@ETC_DOMAIN_LEVEL?$AA@ DB 'ETC_DOMAIN_LEVEL', 00H ; `string'
CONST	ENDS
;	COMDAT ??_C@_0BG@OOPKBPAA@ETC_DOMAIN_EXP_REMAIN?$AA@
CONST	SEGMENT
??_C@_0BG@OOPKBPAA@ETC_DOMAIN_EXP_REMAIN?$AA@ DB 'ETC_DOMAIN_EXP_REMAIN', 00H ; `string'
CONST	ENDS
;	COMDAT ??_C@_0BE@IFONLKN@ETC_DOMAIN_GOAL_EXP?$AA@
CONST	SEGMENT
??_C@_0BE@IFONLKN@ETC_DOMAIN_GOAL_EXP?$AA@ DB 'ETC_DOMAIN_GOAL_EXP', 00H ; `string'
CONST	ENDS
;	COMDAT ??_C@_0M@OHHCLPDA@SKILL_LEVEL?$AA@
CONST	SEGMENT
??_C@_0M@OHHCLPDA@SKILL_LEVEL?$AA@ DB 'SKILL_LEVEL', 00H ; `string'
CONST	ENDS
;	COMDAT ??_C@_05GCEPFMCO@LEVEL?$AA@
CONST	SEGMENT
??_C@_05GCEPFMCO@LEVEL?$AA@ DB 'LEVEL', 00H		; `string'
CONST	ENDS
;	COMDAT ??_C@_0M@MLFPLLC@EFFECT_STAT?$AA@
CONST	SEGMENT
??_C@_0M@MLFPLLC@EFFECT_STAT?$AA@ DB 'EFFECT_STAT', 00H	; `string'
CONST	ENDS
;	COMDAT ??_C@_08MJLDLDGF@DURATION?$AA@
CONST	SEGMENT
??_C@_08MJLDLDGF@DURATION?$AA@ DB 'DURATION', 00H	; `string'
CONST	ENDS
;	COMDAT ??_C@_06JADFICD@BULLET?$AA@
CONST	SEGMENT
??_C@_06JADFICD@BULLET?$AA@ DB 'BULLET', 00H		; `string'
CONST	ENDS
;	COMDAT ??_C@_0M@DPKCELMF@BONUS_POINT?$AA@
CONST	SEGMENT
??_C@_0M@DPKCELMF@BONUS_POINT?$AA@ DB 'BONUS_POINT', 00H ; `string'
CONST	ENDS
;	COMDAT ??_C@_0L@JEFHDPIL@DURABILITY?$AA@
CONST	SEGMENT
??_C@_0L@JEFHDPIL@DURABILITY?$AA@ DB 'DURABILITY', 00H	; `string'
CONST	ENDS
;	COMDAT ??_C@_09EGKBMPFK@NOTORIETY?$AA@
CONST	SEGMENT
??_C@_09EGKBMPFK@NOTORIETY?$AA@ DB 'NOTORIETY', 00H	; `string'
CONST	ENDS
;	COMDAT ??_C@_0BA@MAIHAHDB@VAMP_EXP_REMAIN?$AA@
CONST	SEGMENT
??_C@_0BA@MAIHAHDB@VAMP_EXP_REMAIN?$AA@ DB 'VAMP_EXP_REMAIN', 00H ; `string'
CONST	ENDS
;	COMDAT ??_C@_0O@ENDFFBFD@SILVER_DAMAGE?$AA@
CONST	SEGMENT
??_C@_0O@ENDFFBFD@SILVER_DAMAGE?$AA@ DB 'SILVER_DAMAGE', 00H ; `string'
CONST	ENDS
;	COMDAT ??_C@_0N@KMAAPCII@ATTACK_SPEED?$AA@
CONST	SEGMENT
??_C@_0N@KMAAPCII@ATTACK_SPEED?$AA@ DB 'ATTACK_SPEED', 00H ; `string'
CONST	ENDS
;	COMDAT ??_C@_09HPPNPOEE@ALIGNMENT?$AA@
CONST	SEGMENT
??_C@_09HPPNPOEE@ALIGNMENT?$AA@ DB 'ALIGNMENT', 00H	; `string'
CONST	ENDS
;	COMDAT ??_C@_0BC@BNIPJKDA@SILVER_DURABILITY?$AA@
CONST	SEGMENT
??_C@_0BC@BNIPJKDA@SILVER_DURABILITY?$AA@ DB 'SILVER_DURABILITY', 00H ; `string'
CONST	ENDS
;	COMDAT ??_C@_0L@HJJLGOIM@REGEN_RATE?$AA@
CONST	SEGMENT
??_C@_0L@HJJLGOIM@REGEN_RATE?$AA@ DB 'REGEN_RATE', 00H	; `string'
CONST	ENDS
;	COMDAT ??_C@_07ICBEDALK@GUILDID?$AA@
CONST	SEGMENT
??_C@_07ICBEDALK@GUILDID?$AA@ DB 'GUILDID', 00H		; `string'
CONST	ENDS
;	COMDAT ??_C@_04DBCPJNBF@RANK?$AA@
CONST	SEGMENT
??_C@_04DBCPJNBF@RANK?$AA@ DB 'RANK', 00H		; `string'
CONST	ENDS
;	COMDAT ??_C@_0BA@DLBJHHBE@RANK_EXP_REMAIN?$AA@
CONST	SEGMENT
??_C@_0BA@DLBJHHBE@RANK_EXP_REMAIN?$AA@ DB 'RANK_EXP_REMAIN', 00H ; `string'
CONST	ENDS
;	COMDAT ??_C@_0BD@BBMKLBCL@OUSTERS_EXP_REMAIN?$AA@
CONST	SEGMENT
??_C@_0BD@BBMKLBCL@OUSTERS_EXP_REMAIN?$AA@ DB 'OUSTERS_EXP_REMAIN', 00H ; `string'
CONST	ENDS
;	COMDAT ??_C@_0BC@IMLFGMDG@SKILL_BONUS_POINT?$AA@
CONST	SEGMENT
??_C@_0BC@IMLFGMDG@SKILL_BONUS_POINT?$AA@ DB 'SKILL_BONUS_POINT', 00H ; `string'
CONST	ENDS
;	COMDAT ??_C@_0P@PEHNMFMM@ELEMENTAL_FIRE?$AA@
CONST	SEGMENT
??_C@_0P@PEHNMFMM@ELEMENTAL_FIRE?$AA@ DB 'ELEMENTAL_FIRE', 00H ; `string'
CONST	ENDS
;	COMDAT ??_C@_0BA@MHDKAJKL@ELEMENTAL_WATER?$AA@
CONST	SEGMENT
??_C@_0BA@MHDKAJKL@ELEMENTAL_WATER?$AA@ DB 'ELEMENTAL_WATER', 00H ; `string'
CONST	ENDS
;	COMDAT ??_C@_0BA@BIGMGHL@ELEMENTAL_EARTH?$AA@
CONST	SEGMENT
??_C@_0BA@BIGMGHL@ELEMENTAL_EARTH?$AA@ DB 'ELEMENTAL_EARTH', 00H ; `string'
CONST	ENDS
;	COMDAT ??_C@_0P@KFNKBAKL@ELEMENTAL_WIND?$AA@
CONST	SEGMENT
??_C@_0P@KFNKBAKL@ELEMENTAL_WIND?$AA@ DB 'ELEMENTAL_WIND', 00H ; `string'
CONST	ENDS
;	COMDAT ??_C@_09BBOPOJIN@SKILL_EXP?$AA@
CONST	SEGMENT
??_C@_09BBOPOJIN@SKILL_EXP?$AA@ DB 'SKILL_EXP', 00H	; `string'
CONST	ENDS
;	COMDAT ??_C@_06IEBMKFDK@PET_HP?$AA@
CONST	SEGMENT
??_C@_06IEBMKFDK@PET_HP?$AA@ DB 'PET_HP', 00H		; `string'
CONST	ENDS
;	COMDAT ??_C@_0P@GOFONOAE@PET_EXP_REMAIN?$AA@
CONST	SEGMENT
??_C@_0P@GOFONOAE@PET_EXP_REMAIN?$AA@ DB 'PET_EXP_REMAIN', 00H ; `string'
CONST	ENDS
;	COMDAT ??_C@_0M@KIBGPGKM@LAST_TARGET?$AA@
CONST	SEGMENT
??_C@_0M@KIBGPGKM@LAST_TARGET?$AA@ DB 'LAST_TARGET', 00H ; `string'
CONST	ENDS
;	COMDAT ??_C@_07PBEOFEGM@UNIONID?$AA@
CONST	SEGMENT
??_C@_07PBEOFEGM@UNIONID?$AA@ DB 'UNIONID', 00H		; `string'
CONST	ENDS
;	COMDAT ??_C@_0L@COBGECE@UNIONGRADE?$AA@
CONST	SEGMENT
??_C@_0L@COBGECE@UNIONGRADE?$AA@ DB 'UNIONGRADE', 00H	; `string'
CONST	ENDS
;	COMDAT ??_C@_0BI@LHEPMHDM@ADVANCEMENT_CLASS_LEVEL?$AA@
CONST	SEGMENT
??_C@_0BI@LHEPMHDM@ADVANCEMENT_CLASS_LEVEL?$AA@ DB 'ADVANCEMENT_CLASS_LEV'
	DB	'EL', 00H					; `string'
CONST	ENDS
;	COMDAT ??_C@_0BL@IKNEBHFH@ADVANCEMENT_CLASS_GOAL_EXP?$AA@
CONST	SEGMENT
??_C@_0BL@IKNEBHFH@ADVANCEMENT_CLASS_GOAL_EXP?$AA@ DB 'ADVANCEMENT_CLASS_'
	DB	'GOAL_EXP', 00H				; `string'
CONST	ENDS
;	COMDAT ??_C@_0BJ@PIJGHHAP@ATTACK_BLOOD_BURST_POINT?$AA@
CONST	SEGMENT
??_C@_0BJ@PIJGHHAP@ATTACK_BLOOD_BURST_POINT?$AA@ DB 'ATTACK_BLOOD_BURST_P'
	DB	'OINT', 00H					; `string'
CONST	ENDS
;	COMDAT ??_C@_0BK@BJJBOCNF@DEFENSE_BLOOD_BURST_POINT?$AA@
CONST	SEGMENT
??_C@_0BK@BJJBOCNF@DEFENSE_BLOOD_BURST_POINT?$AA@ DB 'DEFENSE_BLOOD_BURST'
	DB	'_POINT', 00H				; `string'
CONST	ENDS
;	COMDAT ??_C@_0BI@MHOBEFBP@PARTY_BLOOD_BURST_POINT?$AA@
CONST	SEGMENT
??_C@_0BI@MHOBEFBP@PARTY_BLOOD_BURST_POINT?$AA@ DB 'PARTY_BLOOD_BURST_POI'
	DB	'NT', 00H					; `string'
CONST	ENDS
;	COMDAT ??_C@_0BD@BPOFFKFG@ADVANCED_SLAYERSTR?$AA@
CONST	SEGMENT
??_C@_0BD@BPOFFKFG@ADVANCED_SLAYERSTR?$AA@ DB 'ADVANCED_SLAYERSTR', 00H ; `string'
CONST	ENDS
;	COMDAT ??_C@_0BD@DFCABELN@ADVANCED_SLAYERDEX?$AA@
CONST	SEGMENT
??_C@_0BD@DFCABELN@ADVANCED_SLAYERDEX?$AA@ DB 'ADVANCED_SLAYERDEX', 00H ; `string'
CONST	ENDS
;	COMDAT ??_C@_0BD@GHKKGMIN@ADVANCED_SLAYERINT?$AA@
CONST	SEGMENT
??_C@_0BD@GHKKGMIN@ADVANCED_SLAYERINT?$AA@ DB 'ADVANCED_SLAYERINT', 00H ; `string'
CONST	ENDS
;	COMDAT ??_C@_0BB@JLMOMJOK@CONTRIBUTE_POINT?$AA@
CONST	SEGMENT
??_C@_0BB@JLMOMJOK@CONTRIBUTE_POINT?$AA@ DB 'CONTRIBUTE_POINT', 00H ; `string'
CONST	ENDS
;	COMDAT ??_C@_08IKEGEPEJ@DIANJUAN?$AA@
CONST	SEGMENT
??_C@_08IKEGEPEJ@DIANJUAN?$AA@ DB 'DIANJUAN', 00H	; `string'
CONST	ENDS
;	COMDAT ??_C@_03LEPPJAKI@MAX?$AA@
CONST	SEGMENT
??_C@_03LEPPJAKI@MAX?$AA@ DB 'MAX', 00H			; `string'
; Function compile flags: /Ogsy
; File c:\darkeden\designed_common\project\client\packet\modifyinfo.h
CONST	ENDS
;	COMDAT _$E79
text$yc	SEGMENT
$T104808 = -13						; size = 1
$T104807 = -13						; size = 1
$T104806 = -13						; size = 1
$T104805 = -13						; size = 1
$T104804 = -13						; size = 1
$T104803 = -13						; size = 1
$T104802 = -13						; size = 1
$T104801 = -13						; size = 1
$T104800 = -13						; size = 1
$T104799 = -13						; size = 1
$T104798 = -13						; size = 1
$T104797 = -13						; size = 1
$T104796 = -13						; size = 1
$T104795 = -13						; size = 1
$T104794 = -13						; size = 1
$T104793 = -13						; size = 1
$T104792 = -13						; size = 1
$T104791 = -13						; size = 1
$T104790 = -13						; size = 1
$T104789 = -13						; size = 1
$T104788 = -13						; size = 1
$T104787 = -13						; size = 1
$T104786 = -13						; size = 1
$T104785 = -13						; size = 1
$T104784 = -13						; size = 1
$T104783 = -13						; size = 1
$T104782 = -13						; size = 1
$T104781 = -13						; size = 1
$T104780 = -13						; size = 1
$T104779 = -13						; size = 1
$T104778 = -13						; size = 1
$T104777 = -13						; size = 1
$T104776 = -13						; size = 1
$T104775 = -13						; size = 1
$T104774 = -13						; size = 1
$T104773 = -13						; size = 1
$T104772 = -13						; size = 1
$T104771 = -13						; size = 1
$T104770 = -13						; size = 1
$T104769 = -13						; size = 1
$T104768 = -13						; size = 1
$T104767 = -13						; size = 1
$T104766 = -13						; size = 1
$T104765 = -13						; size = 1
$T104764 = -13						; size = 1
$T104763 = -13						; size = 1
$T104762 = -13						; size = 1
$T104761 = -13						; size = 1
$T104760 = -13						; size = 1
$T104759 = -13						; size = 1
$T104758 = -13						; size = 1
$T104757 = -13						; size = 1
$T104756 = -13						; size = 1
$T104755 = -13						; size = 1
$T104754 = -13						; size = 1
$T104753 = -13						; size = 1
$T104752 = -13						; size = 1
$T104751 = -13						; size = 1
$T104750 = -13						; size = 1
$T104749 = -13						; size = 1
$T104748 = -13						; size = 1
$T104747 = -13						; size = 1
$T104746 = -13						; size = 1
$T104745 = -13						; size = 1
$T104744 = -13						; size = 1
$T104743 = -13						; size = 1
$T104742 = -13						; size = 1
$T104741 = -13						; size = 1
$T104740 = -13						; size = 1
$T104739 = -13						; size = 1
$T104738 = -13						; size = 1
$T104737 = -13						; size = 1
$T104736 = -13						; size = 1
$T104735 = -13						; size = 1
$T104734 = -13						; size = 1
$T104733 = -13						; size = 1
$T104732 = -13						; size = 1
$T104731 = -13						; size = 1
$T104730 = -13						; size = 1
$T104729 = -13						; size = 1
$T104728 = -13						; size = 1
$T104727 = -13						; size = 1
__$EHRec$ = -12						; size = 12
_$E79	PROC NEAR					; COMDAT

; 92   : {

  00000	b8 00 00 00 00	 mov	 eax, __ehhandler$_$E79
  00005	e8 00 00 00 00	 call	 __EH_prolog
  0000a	51		 push	 ecx

; 93   : 	"BASIC_STR",					//  STR 

  0000b	8d 45 f3	 lea	 eax, DWORD PTR $T104727[ebp]
  0000e	50		 push	 eax
  0000f	68 00 00 00 00	 push	 OFFSET FLAT:??_C@_09EMOGKKPB@BASIC_STR?$AA@
  00014	b9 00 00 00 00	 mov	 ecx, OFFSET FLAT:_ModifyType2String
  00019	e8 00 00 00 00	 call	 ??0?$basic_string@DV?$char_traits@D@_STL@@V?$allocator@D@2@@_STL@@QAE@PBDABV?$allocator@D@1@@Z ; _STL::basic_string<char,_STL::char_traits<char>,_STL::allocator<char> >::basic_string<char,_STL::char_traits<char>,_STL::allocator<char> >
  0001e	83 65 fc 00	 and	 DWORD PTR __$EHRec$[ebp+8], 0

; 94   : 	"CURRENT_STR",					//  STR 

  00022	8d 45 f3	 lea	 eax, DWORD PTR $T104728[ebp]
  00025	50		 push	 eax
  00026	68 00 00 00 00	 push	 OFFSET FLAT:??_C@_0M@EJOONLND@CURRENT_STR?$AA@
  0002b	b9 0c 00 00 00	 mov	 ecx, OFFSET FLAT:_ModifyType2String+12
  00030	e8 00 00 00 00	 call	 ??0?$basic_string@DV?$char_traits@D@_STL@@V?$allocator@D@2@@_STL@@QAE@PBDABV?$allocator@D@1@@Z ; _STL::basic_string<char,_STL::char_traits<char>,_STL::allocator<char> >::basic_string<char,_STL::char_traits<char>,_STL::allocator<char> >

; 95   : 	"MAX_STR",						//  STR 

  00035	8d 45 f3	 lea	 eax, DWORD PTR $T104729[ebp]
  00038	50		 push	 eax
  00039	68 00 00 00 00	 push	 OFFSET FLAT:??_C@_07KKCHECBB@MAX_STR?$AA@
  0003e	b9 18 00 00 00	 mov	 ecx, OFFSET FLAT:_ModifyType2String+24
  00043	c6 45 fc 01	 mov	 BYTE PTR __$EHRec$[ebp+8], 1
  00047	e8 00 00 00 00	 call	 ??0?$basic_string@DV?$char_traits@D@_STL@@V?$allocator@D@2@@_STL@@QAE@PBDABV?$allocator@D@1@@Z ; _STL::basic_string<char,_STL::char_traits<char>,_STL::allocator<char> >::basic_string<char,_STL::char_traits<char>,_STL::allocator<char> >

; 96   : 	"STR_EXP_REMAIN",				// STR  

  0004c	8d 45 f3	 lea	 eax, DWORD PTR $T104730[ebp]
  0004f	50		 push	 eax
  00050	68 00 00 00 00	 push	 OFFSET FLAT:??_C@_0P@CEHLLGLK@STR_EXP_REMAIN?$AA@
  00055	b9 24 00 00 00	 mov	 ecx, OFFSET FLAT:_ModifyType2String+36
  0005a	c6 45 fc 02	 mov	 BYTE PTR __$EHRec$[ebp+8], 2
  0005e	e8 00 00 00 00	 call	 ??0?$basic_string@DV?$char_traits@D@_STL@@V?$allocator@D@2@@_STL@@QAE@PBDABV?$allocator@D@1@@Z ; _STL::basic_string<char,_STL::char_traits<char>,_STL::allocator<char> >::basic_string<char,_STL::char_traits<char>,_STL::allocator<char> >

; 97   : 
; 98   : 	"BASIC_DEX",					//  DEX 

  00063	8d 45 f3	 lea	 eax, DWORD PTR $T104731[ebp]
  00066	50		 push	 eax
  00067	68 00 00 00 00	 push	 OFFSET FLAT:??_C@_09GGCDOEBK@BASIC_DEX?$AA@
  0006c	b9 30 00 00 00	 mov	 ecx, OFFSET FLAT:_ModifyType2String+48
  00071	c6 45 fc 03	 mov	 BYTE PTR __$EHRec$[ebp+8], 3
  00075	e8 00 00 00 00	 call	 ??0?$basic_string@DV?$char_traits@D@_STL@@V?$allocator@D@2@@_STL@@QAE@PBDABV?$allocator@D@1@@Z ; _STL::basic_string<char,_STL::char_traits<char>,_STL::allocator<char> >::basic_string<char,_STL::char_traits<char>,_STL::allocator<char> >

; 99   : 	"CURRENT_DEX",					//  DEX 

  0007a	8d 45 f3	 lea	 eax, DWORD PTR $T104732[ebp]
  0007d	50		 push	 eax
  0007e	68 00 00 00 00	 push	 OFFSET FLAT:??_C@_0M@GDCLJFDI@CURRENT_DEX?$AA@
  00083	b9 3c 00 00 00	 mov	 ecx, OFFSET FLAT:_ModifyType2String+60
  00088	c6 45 fc 04	 mov	 BYTE PTR __$EHRec$[ebp+8], 4
  0008c	e8 00 00 00 00	 call	 ??0?$basic_string@DV?$char_traits@D@_STL@@V?$allocator@D@2@@_STL@@QAE@PBDABV?$allocator@D@1@@Z ; _STL::basic_string<char,_STL::char_traits<char>,_STL::allocator<char> >::basic_string<char,_STL::char_traits<char>,_STL::allocator<char> >

; 100  : 	"MAX_DEX",						//  DEX 

  00091	8d 45 f3	 lea	 eax, DWORD PTR $T104733[ebp]
  00094	50		 push	 eax
  00095	68 00 00 00 00	 push	 OFFSET FLAT:??_C@_07IAOCAMPK@MAX_DEX?$AA@
  0009a	b9 48 00 00 00	 mov	 ecx, OFFSET FLAT:_ModifyType2String+72
  0009f	c6 45 fc 05	 mov	 BYTE PTR __$EHRec$[ebp+8], 5
  000a3	e8 00 00 00 00	 call	 ??0?$basic_string@DV?$char_traits@D@_STL@@V?$allocator@D@2@@_STL@@QAE@PBDABV?$allocator@D@1@@Z ; _STL::basic_string<char,_STL::char_traits<char>,_STL::allocator<char> >::basic_string<char,_STL::char_traits<char>,_STL::allocator<char> >

; 101  : 	"DEX_EXP_REMAIN",				// DEX  

  000a8	8d 45 f3	 lea	 eax, DWORD PTR $T104734[ebp]
  000ab	50		 push	 eax
  000ac	68 00 00 00 00	 push	 OFFSET FLAT:??_C@_0P@DKPKJNND@DEX_EXP_REMAIN?$AA@
  000b1	b9 54 00 00 00	 mov	 ecx, OFFSET FLAT:_ModifyType2String+84
  000b6	c6 45 fc 06	 mov	 BYTE PTR __$EHRec$[ebp+8], 6
  000ba	e8 00 00 00 00	 call	 ??0?$basic_string@DV?$char_traits@D@_STL@@V?$allocator@D@2@@_STL@@QAE@PBDABV?$allocator@D@1@@Z ; _STL::basic_string<char,_STL::char_traits<char>,_STL::allocator<char> >::basic_string<char,_STL::char_traits<char>,_STL::allocator<char> >

; 102  : 
; 103  : 	"BASIC_INT",					//  INT 

  000bf	8d 45 f3	 lea	 eax, DWORD PTR $T104735[ebp]
  000c2	50		 push	 eax
  000c3	68 00 00 00 00	 push	 OFFSET FLAT:??_C@_09DEKJJMCK@BASIC_INT?$AA@
  000c8	b9 60 00 00 00	 mov	 ecx, OFFSET FLAT:_ModifyType2String+96
  000cd	c6 45 fc 07	 mov	 BYTE PTR __$EHRec$[ebp+8], 7
  000d1	e8 00 00 00 00	 call	 ??0?$basic_string@DV?$char_traits@D@_STL@@V?$allocator@D@2@@_STL@@QAE@PBDABV?$allocator@D@1@@Z ; _STL::basic_string<char,_STL::char_traits<char>,_STL::allocator<char> >::basic_string<char,_STL::char_traits<char>,_STL::allocator<char> >

; 104  : 	"CURRENT_INT",					//  INT 

  000d6	8d 45 f3	 lea	 eax, DWORD PTR $T104736[ebp]
  000d9	50		 push	 eax
  000da	68 00 00 00 00	 push	 OFFSET FLAT:??_C@_0M@DBKBONAI@CURRENT_INT?$AA@
  000df	b9 6c 00 00 00	 mov	 ecx, OFFSET FLAT:_ModifyType2String+108
  000e4	c6 45 fc 08	 mov	 BYTE PTR __$EHRec$[ebp+8], 8
  000e8	e8 00 00 00 00	 call	 ??0?$basic_string@DV?$char_traits@D@_STL@@V?$allocator@D@2@@_STL@@QAE@PBDABV?$allocator@D@1@@Z ; _STL::basic_string<char,_STL::char_traits<char>,_STL::allocator<char> >::basic_string<char,_STL::char_traits<char>,_STL::allocator<char> >

; 105  : 	"MAX_INT",						//  INT 

  000ed	8d 45 f3	 lea	 eax, DWORD PTR $T104737[ebp]
  000f0	50		 push	 eax
  000f1	68 00 00 00 00	 push	 OFFSET FLAT:??_C@_07NCGIHEMK@MAX_INT?$AA@
  000f6	b9 78 00 00 00	 mov	 ecx, OFFSET FLAT:_ModifyType2String+120
  000fb	c6 45 fc 09	 mov	 BYTE PTR __$EHRec$[ebp+8], 9
  000ff	e8 00 00 00 00	 call	 ??0?$basic_string@DV?$char_traits@D@_STL@@V?$allocator@D@2@@_STL@@QAE@PBDABV?$allocator@D@1@@Z ; _STL::basic_string<char,_STL::char_traits<char>,_STL::allocator<char> >::basic_string<char,_STL::char_traits<char>,_STL::allocator<char> >

; 106  : 	"INT_EXP_REMAIN",				// INT  

  00104	8d 45 f3	 lea	 eax, DWORD PTR $T104738[ebp]
  00107	50		 push	 eax
  00108	c6 45 fc 0a	 mov	 BYTE PTR __$EHRec$[ebp+8], 10 ; 0000000aH
  0010c	68 00 00 00 00	 push	 OFFSET FLAT:??_C@_0P@BDHGGNMJ@INT_EXP_REMAIN?$AA@
  00111	b9 84 00 00 00	 mov	 ecx, OFFSET FLAT:_ModifyType2String+132
  00116	e8 00 00 00 00	 call	 ??0?$basic_string@DV?$char_traits@D@_STL@@V?$allocator@D@2@@_STL@@QAE@PBDABV?$allocator@D@1@@Z ; _STL::basic_string<char,_STL::char_traits<char>,_STL::allocator<char> >::basic_string<char,_STL::char_traits<char>,_STL::allocator<char> >

; 107  : 
; 108  : 	"CURRENT_HP",					//  HP 

  0011b	8d 45 f3	 lea	 eax, DWORD PTR $T104739[ebp]
  0011e	50		 push	 eax
  0011f	68 00 00 00 00	 push	 OFFSET FLAT:??_C@_0L@HGOGCHKL@CURRENT_HP?$AA@
  00124	b9 90 00 00 00	 mov	 ecx, OFFSET FLAT:_ModifyType2String+144
  00129	c6 45 fc 0b	 mov	 BYTE PTR __$EHRec$[ebp+8], 11 ; 0000000bH
  0012d	e8 00 00 00 00	 call	 ??0?$basic_string@DV?$char_traits@D@_STL@@V?$allocator@D@2@@_STL@@QAE@PBDABV?$allocator@D@1@@Z ; _STL::basic_string<char,_STL::char_traits<char>,_STL::allocator<char> >::basic_string<char,_STL::char_traits<char>,_STL::allocator<char> >

; 109  : 	"MAX_HP",						//  HP 

  00132	8d 45 f3	 lea	 eax, DWORD PTR $T104740[ebp]
  00135	50		 push	 eax
  00136	68 00 00 00 00	 push	 OFFSET FLAT:??_C@_06NMHEPHCD@MAX_HP?$AA@
  0013b	b9 9c 00 00 00	 mov	 ecx, OFFSET FLAT:_ModifyType2String+156
  00140	c6 45 fc 0c	 mov	 BYTE PTR __$EHRec$[ebp+8], 12 ; 0000000cH
  00144	e8 00 00 00 00	 call	 ??0?$basic_string@DV?$char_traits@D@_STL@@V?$allocator@D@2@@_STL@@QAE@PBDABV?$allocator@D@1@@Z ; _STL::basic_string<char,_STL::char_traits<char>,_STL::allocator<char> >::basic_string<char,_STL::char_traits<char>,_STL::allocator<char> >

; 110  : 
; 111  : 	"CURRENT_MP",					//  MP 

  00149	8d 45 f3	 lea	 eax, DWORD PTR $T104741[ebp]
  0014c	50		 push	 eax
  0014d	68 00 00 00 00	 push	 OFFSET FLAT:??_C@_0L@HACNOFEA@CURRENT_MP?$AA@
  00152	b9 a8 00 00 00	 mov	 ecx, OFFSET FLAT:_ModifyType2String+168
  00157	c6 45 fc 0d	 mov	 BYTE PTR __$EHRec$[ebp+8], 13 ; 0000000dH
  0015b	e8 00 00 00 00	 call	 ??0?$basic_string@DV?$char_traits@D@_STL@@V?$allocator@D@2@@_STL@@QAE@PBDABV?$allocator@D@1@@Z ; _STL::basic_string<char,_STL::char_traits<char>,_STL::allocator<char> >::basic_string<char,_STL::char_traits<char>,_STL::allocator<char> >

; 112  : 	"MAX_MP",						//  MP 

  00160	8d 45 f3	 lea	 eax, DWORD PTR $T104742[ebp]
  00163	50		 push	 eax
  00164	68 00 00 00 00	 push	 OFFSET FLAT:??_C@_06NKLPDFMI@MAX_MP?$AA@
  00169	b9 b4 00 00 00	 mov	 ecx, OFFSET FLAT:_ModifyType2String+180
  0016e	c6 45 fc 0e	 mov	 BYTE PTR __$EHRec$[ebp+8], 14 ; 0000000eH
  00172	e8 00 00 00 00	 call	 ??0?$basic_string@DV?$char_traits@D@_STL@@V?$allocator@D@2@@_STL@@QAE@PBDABV?$allocator@D@1@@Z ; _STL::basic_string<char,_STL::char_traits<char>,_STL::allocator<char> >::basic_string<char,_STL::char_traits<char>,_STL::allocator<char> >

; 113  : 
; 114  : 	"MIN_DAMAGE",					//   

  00177	8d 45 f3	 lea	 eax, DWORD PTR $T104743[ebp]
  0017a	50		 push	 eax
  0017b	68 00 00 00 00	 push	 OFFSET FLAT:??_C@_0L@HOANAEGI@MIN_DAMAGE?$AA@
  00180	b9 c0 00 00 00	 mov	 ecx, OFFSET FLAT:_ModifyType2String+192
  00185	c6 45 fc 0f	 mov	 BYTE PTR __$EHRec$[ebp+8], 15 ; 0000000fH
  00189	e8 00 00 00 00	 call	 ??0?$basic_string@DV?$char_traits@D@_STL@@V?$allocator@D@2@@_STL@@QAE@PBDABV?$allocator@D@1@@Z ; _STL::basic_string<char,_STL::char_traits<char>,_STL::allocator<char> >::basic_string<char,_STL::char_traits<char>,_STL::allocator<char> >

; 115  : 	"MAX_DAMAGE",					//   

  0018e	8d 45 f3	 lea	 eax, DWORD PTR $T104744[ebp]
  00191	50		 push	 eax
  00192	68 00 00 00 00	 push	 OFFSET FLAT:??_C@_0L@LCAAHPGH@MAX_DAMAGE?$AA@
  00197	b9 cc 00 00 00	 mov	 ecx, OFFSET FLAT:_ModifyType2String+204
  0019c	c6 45 fc 10	 mov	 BYTE PTR __$EHRec$[ebp+8], 16 ; 00000010H
  001a0	e8 00 00 00 00	 call	 ??0?$basic_string@DV?$char_traits@D@_STL@@V?$allocator@D@2@@_STL@@QAE@PBDABV?$allocator@D@1@@Z ; _STL::basic_string<char,_STL::char_traits<char>,_STL::allocator<char> >::basic_string<char,_STL::char_traits<char>,_STL::allocator<char> >

; 116  : 
; 117  : 	"DEFENSE",						//  

  001a5	8d 45 f3	 lea	 eax, DWORD PTR $T104745[ebp]
  001a8	50		 push	 eax
  001a9	68 00 00 00 00	 push	 OFFSET FLAT:??_C@_07PABEIMLA@DEFENSE?$AA@
  001ae	b9 d8 00 00 00	 mov	 ecx, OFFSET FLAT:_ModifyType2String+216
  001b3	c6 45 fc 11	 mov	 BYTE PTR __$EHRec$[ebp+8], 17 ; 00000011H
  001b7	e8 00 00 00 00	 call	 ??0?$basic_string@DV?$char_traits@D@_STL@@V?$allocator@D@2@@_STL@@QAE@PBDABV?$allocator@D@1@@Z ; _STL::basic_string<char,_STL::char_traits<char>,_STL::allocator<char> >::basic_string<char,_STL::char_traits<char>,_STL::allocator<char> >

; 118  : 	"PROTECTION",					//  

  001bc	8d 45 f3	 lea	 eax, DWORD PTR $T104746[ebp]
  001bf	50		 push	 eax
  001c0	68 00 00 00 00	 push	 OFFSET FLAT:??_C@_0L@CACMAAHO@PROTECTION?$AA@
  001c5	b9 e4 00 00 00	 mov	 ecx, OFFSET FLAT:_ModifyType2String+228
  001ca	c6 45 fc 12	 mov	 BYTE PTR __$EHRec$[ebp+8], 18 ; 00000012H
  001ce	e8 00 00 00 00	 call	 ??0?$basic_string@DV?$char_traits@D@_STL@@V?$allocator@D@2@@_STL@@QAE@PBDABV?$allocator@D@1@@Z ; _STL::basic_string<char,_STL::char_traits<char>,_STL::allocator<char> >::basic_string<char,_STL::char_traits<char>,_STL::allocator<char> >

; 119  : 	"TOHIT",						//  

  001d3	8d 45 f3	 lea	 eax, DWORD PTR $T104747[ebp]
  001d6	50		 push	 eax
  001d7	68 00 00 00 00	 push	 OFFSET FLAT:??_C@_05PMLNIFOI@TOHIT?$AA@
  001dc	b9 f0 00 00 00	 mov	 ecx, OFFSET FLAT:_ModifyType2String+240
  001e1	c6 45 fc 13	 mov	 BYTE PTR __$EHRec$[ebp+8], 19 ; 00000013H
  001e5	e8 00 00 00 00	 call	 ??0?$basic_string@DV?$char_traits@D@_STL@@V?$allocator@D@2@@_STL@@QAE@PBDABV?$allocator@D@1@@Z ; _STL::basic_string<char,_STL::char_traits<char>,_STL::allocator<char> >::basic_string<char,_STL::char_traits<char>,_STL::allocator<char> >

; 120  : 
; 121  : 	"VISION",						//  

  001ea	8d 45 f3	 lea	 eax, DWORD PTR $T104748[ebp]
  001ed	50		 push	 eax
  001ee	68 00 00 00 00	 push	 OFFSET FLAT:??_C@_06IGFCKNHC@VISION?$AA@
  001f3	b9 fc 00 00 00	 mov	 ecx, OFFSET FLAT:_ModifyType2String+252
  001f8	c6 45 fc 14	 mov	 BYTE PTR __$EHRec$[ebp+8], 20 ; 00000014H
  001fc	e8 00 00 00 00	 call	 ??0?$basic_string@DV?$char_traits@D@_STL@@V?$allocator@D@2@@_STL@@QAE@PBDABV?$allocator@D@1@@Z ; _STL::basic_string<char,_STL::char_traits<char>,_STL::allocator<char> >::basic_string<char,_STL::char_traits<char>,_STL::allocator<char> >

; 122  : 	"FAME",							//  

  00201	8d 45 f3	 lea	 eax, DWORD PTR $T104749[ebp]
  00204	50		 push	 eax
  00205	68 00 00 00 00	 push	 OFFSET FLAT:??_C@_04DIIKDPIA@FAME?$AA@
  0020a	b9 08 01 00 00	 mov	 ecx, OFFSET FLAT:_ModifyType2String+264
  0020f	c6 45 fc 15	 mov	 BYTE PTR __$EHRec$[ebp+8], 21 ; 00000015H
  00213	e8 00 00 00 00	 call	 ??0?$basic_string@DV?$char_traits@D@_STL@@V?$allocator@D@2@@_STL@@QAE@PBDABV?$allocator@D@1@@Z ; _STL::basic_string<char,_STL::char_traits<char>,_STL::allocator<char> >::basic_string<char,_STL::char_traits<char>,_STL::allocator<char> >
  00218	c6 45 fc 16	 mov	 BYTE PTR __$EHRec$[ebp+8], 22 ; 00000016H

; 123  : 	"GOLD",							//  

  0021c	8d 45 f3	 lea	 eax, DWORD PTR $T104750[ebp]
  0021f	50		 push	 eax
  00220	68 00 00 00 00	 push	 OFFSET FLAT:??_C@_04PNOMDKHF@GOLD?$AA@
  00225	b9 14 01 00 00	 mov	 ecx, OFFSET FLAT:_ModifyType2String+276
  0022a	e8 00 00 00 00	 call	 ??0?$basic_string@DV?$char_traits@D@_STL@@V?$allocator@D@2@@_STL@@QAE@PBDABV?$allocator@D@1@@Z ; _STL::basic_string<char,_STL::char_traits<char>,_STL::allocator<char> >::basic_string<char,_STL::char_traits<char>,_STL::allocator<char> >

; 124  : 
; 125  : 	"SWORD_DOMAIN_LEVEL",			//    

  0022f	8d 45 f3	 lea	 eax, DWORD PTR $T104751[ebp]
  00232	50		 push	 eax
  00233	68 00 00 00 00	 push	 OFFSET FLAT:??_C@_0BD@KMGAIODB@SWORD_DOMAIN_LEVEL?$AA@
  00238	b9 20 01 00 00	 mov	 ecx, OFFSET FLAT:_ModifyType2String+288
  0023d	c6 45 fc 17	 mov	 BYTE PTR __$EHRec$[ebp+8], 23 ; 00000017H
  00241	e8 00 00 00 00	 call	 ??0?$basic_string@DV?$char_traits@D@_STL@@V?$allocator@D@2@@_STL@@QAE@PBDABV?$allocator@D@1@@Z ; _STL::basic_string<char,_STL::char_traits<char>,_STL::allocator<char> >::basic_string<char,_STL::char_traits<char>,_STL::allocator<char> >

; 126  : 	"SWORD_DOMAIN_EXP_REMAIN",		//    

  00246	8d 45 f3	 lea	 eax, DWORD PTR $T104752[ebp]
  00249	50		 push	 eax
  0024a	68 00 00 00 00	 push	 OFFSET FLAT:??_C@_0BI@BGNAADGH@SWORD_DOMAIN_EXP_REMAIN?$AA@
  0024f	b9 2c 01 00 00	 mov	 ecx, OFFSET FLAT:_ModifyType2String+300
  00254	c6 45 fc 18	 mov	 BYTE PTR __$EHRec$[ebp+8], 24 ; 00000018H
  00258	e8 00 00 00 00	 call	 ??0?$basic_string@DV?$char_traits@D@_STL@@V?$allocator@D@2@@_STL@@QAE@PBDABV?$allocator@D@1@@Z ; _STL::basic_string<char,_STL::char_traits<char>,_STL::allocator<char> >::basic_string<char,_STL::char_traits<char>,_STL::allocator<char> >

; 127  : 	"SWORD_DOMAIN_GOAL_EXP",		//    

  0025d	8d 45 f3	 lea	 eax, DWORD PTR $T104753[ebp]
  00260	50		 push	 eax
  00261	68 00 00 00 00	 push	 OFFSET FLAT:??_C@_0BG@IGGENAK@SWORD_DOMAIN_GOAL_EXP?$AA@
  00266	b9 38 01 00 00	 mov	 ecx, OFFSET FLAT:_ModifyType2String+312
  0026b	c6 45 fc 19	 mov	 BYTE PTR __$EHRec$[ebp+8], 25 ; 00000019H
  0026f	e8 00 00 00 00	 call	 ??0?$basic_string@DV?$char_traits@D@_STL@@V?$allocator@D@2@@_STL@@QAE@PBDABV?$allocator@D@1@@Z ; _STL::basic_string<char,_STL::char_traits<char>,_STL::allocator<char> >::basic_string<char,_STL::char_traits<char>,_STL::allocator<char> >

; 128  : 	"BLADE_DOMAIN_LEVEL",			//    

  00274	8d 45 f3	 lea	 eax, DWORD PTR $T104754[ebp]
  00277	50		 push	 eax
  00278	68 00 00 00 00	 push	 OFFSET FLAT:??_C@_0BD@PGNNGOBB@BLADE_DOMAIN_LEVEL?$AA@
  0027d	b9 44 01 00 00	 mov	 ecx, OFFSET FLAT:_ModifyType2String+324
  00282	c6 45 fc 1a	 mov	 BYTE PTR __$EHRec$[ebp+8], 26 ; 0000001aH
  00286	e8 00 00 00 00	 call	 ??0?$basic_string@DV?$char_traits@D@_STL@@V?$allocator@D@2@@_STL@@QAE@PBDABV?$allocator@D@1@@Z ; _STL::basic_string<char,_STL::char_traits<char>,_STL::allocator<char> >::basic_string<char,_STL::char_traits<char>,_STL::allocator<char> >

; 129  : 	"BLADE_DOMAIN_EXP_REMAIN",		//    

  0028b	8d 45 f3	 lea	 eax, DWORD PTR $T104755[ebp]
  0028e	50		 push	 eax
  0028f	68 00 00 00 00	 push	 OFFSET FLAT:??_C@_0BI@IMLMLFMG@BLADE_DOMAIN_EXP_REMAIN?$AA@
  00294	b9 50 01 00 00	 mov	 ecx, OFFSET FLAT:_ModifyType2String+336
  00299	c6 45 fc 1b	 mov	 BYTE PTR __$EHRec$[ebp+8], 27 ; 0000001bH
  0029d	e8 00 00 00 00	 call	 ??0?$basic_string@DV?$char_traits@D@_STL@@V?$allocator@D@2@@_STL@@QAE@PBDABV?$allocator@D@1@@Z ; _STL::basic_string<char,_STL::char_traits<char>,_STL::allocator<char> >::basic_string<char,_STL::char_traits<char>,_STL::allocator<char> >

; 130  : 	"BLADE_DOMAIN_GOAL_EXP",		//    

  002a2	8d 45 f3	 lea	 eax, DWORD PTR $T104756[ebp]
  002a5	50		 push	 eax
  002a6	68 00 00 00 00	 push	 OFFSET FLAT:??_C@_0BG@NLIFDHGN@BLADE_DOMAIN_GOAL_EXP?$AA@
  002ab	b9 5c 01 00 00	 mov	 ecx, OFFSET FLAT:_ModifyType2String+348
  002b0	c6 45 fc 1c	 mov	 BYTE PTR __$EHRec$[ebp+8], 28 ; 0000001cH
  002b4	e8 00 00 00 00	 call	 ??0?$basic_string@DV?$char_traits@D@_STL@@V?$allocator@D@2@@_STL@@QAE@PBDABV?$allocator@D@1@@Z ; _STL::basic_string<char,_STL::char_traits<char>,_STL::allocator<char> >::basic_string<char,_STL::char_traits<char>,_STL::allocator<char> >

; 131  : 	"HEAL_DOMAIN_LEVEL",			//    

  002b9	8d 45 f3	 lea	 eax, DWORD PTR $T104757[ebp]
  002bc	50		 push	 eax
  002bd	68 00 00 00 00	 push	 OFFSET FLAT:??_C@_0BC@GPJLIFK@HEAL_DOMAIN_LEVEL?$AA@
  002c2	b9 68 01 00 00	 mov	 ecx, OFFSET FLAT:_ModifyType2String+360
  002c7	c6 45 fc 1d	 mov	 BYTE PTR __$EHRec$[ebp+8], 29 ; 0000001dH
  002cb	e8 00 00 00 00	 call	 ??0?$basic_string@DV?$char_traits@D@_STL@@V?$allocator@D@2@@_STL@@QAE@PBDABV?$allocator@D@1@@Z ; _STL::basic_string<char,_STL::char_traits<char>,_STL::allocator<char> >::basic_string<char,_STL::char_traits<char>,_STL::allocator<char> >

; 132  : 	"HEAL_DOMAIN_EXP_REMAIN",		//    

  002d0	8d 45 f3	 lea	 eax, DWORD PTR $T104758[ebp]
  002d3	50		 push	 eax
  002d4	68 00 00 00 00	 push	 OFFSET FLAT:??_C@_0BH@ILFIDFFK@HEAL_DOMAIN_EXP_REMAIN?$AA@
  002d9	b9 74 01 00 00	 mov	 ecx, OFFSET FLAT:_ModifyType2String+372
  002de	c6 45 fc 1e	 mov	 BYTE PTR __$EHRec$[ebp+8], 30 ; 0000001eH
  002e2	e8 00 00 00 00	 call	 ??0?$basic_string@DV?$char_traits@D@_STL@@V?$allocator@D@2@@_STL@@QAE@PBDABV?$allocator@D@1@@Z ; _STL::basic_string<char,_STL::char_traits<char>,_STL::allocator<char> >::basic_string<char,_STL::char_traits<char>,_STL::allocator<char> >

; 133  : 	"HEAL_DOMAIN_GOAL_EXP",			//    

  002e7	8d 45 f3	 lea	 eax, DWORD PTR $T104759[ebp]
  002ea	50		 push	 eax
  002eb	68 00 00 00 00	 push	 OFFSET FLAT:??_C@_0BF@EMCLNDPE@HEAL_DOMAIN_GOAL_EXP?$AA@
  002f0	b9 80 01 00 00	 mov	 ecx, OFFSET FLAT:_ModifyType2String+384
  002f5	c6 45 fc 1f	 mov	 BYTE PTR __$EHRec$[ebp+8], 31 ; 0000001fH
  002f9	e8 00 00 00 00	 call	 ??0?$basic_string@DV?$char_traits@D@_STL@@V?$allocator@D@2@@_STL@@QAE@PBDABV?$allocator@D@1@@Z ; _STL::basic_string<char,_STL::char_traits<char>,_STL::allocator<char> >::basic_string<char,_STL::char_traits<char>,_STL::allocator<char> >

; 134  : 	"ENCHANT_DOMAIN_LEVEL",			//    

  002fe	8d 45 f3	 lea	 eax, DWORD PTR $T104760[ebp]
  00301	50		 push	 eax
  00302	68 00 00 00 00	 push	 OFFSET FLAT:??_C@_0BF@ONHDOKIF@ENCHANT_DOMAIN_LEVEL?$AA@
  00307	b9 8c 01 00 00	 mov	 ecx, OFFSET FLAT:_ModifyType2String+396
  0030c	c6 45 fc 20	 mov	 BYTE PTR __$EHRec$[ebp+8], 32 ; 00000020H
  00310	e8 00 00 00 00	 call	 ??0?$basic_string@DV?$char_traits@D@_STL@@V?$allocator@D@2@@_STL@@QAE@PBDABV?$allocator@D@1@@Z ; _STL::basic_string<char,_STL::char_traits<char>,_STL::allocator<char> >::basic_string<char,_STL::char_traits<char>,_STL::allocator<char> >

; 135  : 	"ENCHANT_DOMAIN_EXP_REMAIN",	//    

  00315	8d 45 f3	 lea	 eax, DWORD PTR $T104761[ebp]
  00318	50		 push	 eax
  00319	68 00 00 00 00	 push	 OFFSET FLAT:??_C@_0BK@LANBKOIK@ENCHANT_DOMAIN_EXP_REMAIN?$AA@
  0031e	b9 98 01 00 00	 mov	 ecx, OFFSET FLAT:_ModifyType2String+408
  00323	c6 45 fc 21	 mov	 BYTE PTR __$EHRec$[ebp+8], 33 ; 00000021H
  00327	e8 00 00 00 00	 call	 ??0?$basic_string@DV?$char_traits@D@_STL@@V?$allocator@D@2@@_STL@@QAE@PBDABV?$allocator@D@1@@Z ; _STL::basic_string<char,_STL::char_traits<char>,_STL::allocator<char> >::basic_string<char,_STL::char_traits<char>,_STL::allocator<char> >

; 136  : 	"ENCHANT_DOMAIN_GOAL_EXP",		//    

  0032c	8d 45 f3	 lea	 eax, DWORD PTR $T104762[ebp]
  0032f	50		 push	 eax
  00330	68 00 00 00 00	 push	 OFFSET FLAT:??_C@_0BI@EPBOPEPK@ENCHANT_DOMAIN_GOAL_EXP?$AA@
  00335	b9 a4 01 00 00	 mov	 ecx, OFFSET FLAT:_ModifyType2String+420
  0033a	c6 45 fc 22	 mov	 BYTE PTR __$EHRec$[ebp+8], 34 ; 00000022H
  0033e	e8 00 00 00 00	 call	 ??0?$basic_string@DV?$char_traits@D@_STL@@V?$allocator@D@2@@_STL@@QAE@PBDABV?$allocator@D@1@@Z ; _STL::basic_string<char,_STL::char_traits<char>,_STL::allocator<char> >::basic_string<char,_STL::char_traits<char>,_STL::allocator<char> >

; 137  : 	"GUN_DOMAIN_LEVEL",				//    

  00343	8d 45 f3	 lea	 eax, DWORD PTR $T104763[ebp]
  00346	50		 push	 eax
  00347	68 00 00 00 00	 push	 OFFSET FLAT:??_C@_0BB@ELHNALIJ@GUN_DOMAIN_LEVEL?$AA@
  0034c	b9 b0 01 00 00	 mov	 ecx, OFFSET FLAT:_ModifyType2String+432
  00351	c6 45 fc 23	 mov	 BYTE PTR __$EHRec$[ebp+8], 35 ; 00000023H
  00355	e8 00 00 00 00	 call	 ??0?$basic_string@DV?$char_traits@D@_STL@@V?$allocator@D@2@@_STL@@QAE@PBDABV?$allocator@D@1@@Z ; _STL::basic_string<char,_STL::char_traits<char>,_STL::allocator<char> >::basic_string<char,_STL::char_traits<char>,_STL::allocator<char> >

; 138  : 	"GUN_DOMAIN_EXP_REMAIN",		//    

  0035a	8d 45 f3	 lea	 eax, DWORD PTR $T104764[ebp]
  0035d	50		 push	 eax
  0035e	68 00 00 00 00	 push	 OFFSET FLAT:??_C@_0BG@OJCBFDLD@GUN_DOMAIN_EXP_REMAIN?$AA@
  00363	b9 bc 01 00 00	 mov	 ecx, OFFSET FLAT:_ModifyType2String+444
  00368	c6 45 fc 24	 mov	 BYTE PTR __$EHRec$[ebp+8], 36 ; 00000024H
  0036c	e8 00 00 00 00	 call	 ??0?$basic_string@DV?$char_traits@D@_STL@@V?$allocator@D@2@@_STL@@QAE@PBDABV?$allocator@D@1@@Z ; _STL::basic_string<char,_STL::char_traits<char>,_STL::allocator<char> >::basic_string<char,_STL::char_traits<char>,_STL::allocator<char> >

; 139  : 	"GUN_DOMAIN_GOAL_EXP",			//    

  00371	8d 45 f3	 lea	 eax, DWORD PTR $T104765[ebp]
  00374	50		 push	 eax
  00375	68 00 00 00 00	 push	 OFFSET FLAT:??_C@_0BE@OGNJOCJC@GUN_DOMAIN_GOAL_EXP?$AA@
  0037a	b9 c8 01 00 00	 mov	 ecx, OFFSET FLAT:_ModifyType2String+456
  0037f	c6 45 fc 25	 mov	 BYTE PTR __$EHRec$[ebp+8], 37 ; 00000025H
  00383	e8 00 00 00 00	 call	 ??0?$basic_string@DV?$char_traits@D@_STL@@V?$allocator@D@2@@_STL@@QAE@PBDABV?$allocator@D@1@@Z ; _STL::basic_string<char,_STL::char_traits<char>,_STL::allocator<char> >::basic_string<char,_STL::char_traits<char>,_STL::allocator<char> >

; 140  : 	"ETC_DOMAIN_LEVEL",				//    

  00388	8d 45 f3	 lea	 eax, DWORD PTR $T104766[ebp]
  0038b	50		 push	 eax
  0038c	68 00 00 00 00	 push	 OFFSET FLAT:??_C@_0BB@MNCHHIND@ETC_DOMAIN_LEVEL?$AA@
  00391	b9 d4 01 00 00	 mov	 ecx, OFFSET FLAT:_ModifyType2String+468
  00396	c6 45 fc 26	 mov	 BYTE PTR __$EHRec$[ebp+8], 38 ; 00000026H
  0039a	e8 00 00 00 00	 call	 ??0?$basic_string@DV?$char_traits@D@_STL@@V?$allocator@D@2@@_STL@@QAE@PBDABV?$allocator@D@1@@Z ; _STL::basic_string<char,_STL::char_traits<char>,_STL::allocator<char> >::basic_string<char,_STL::char_traits<char>,_STL::allocator<char> >

; 141  : 	"ETC_DOMAIN_EXP_REMAIN",		//    

  0039f	8d 45 f3	 lea	 eax, DWORD PTR $T104767[ebp]
  003a2	50		 push	 eax
  003a3	68 00 00 00 00	 push	 OFFSET FLAT:??_C@_0BG@OOPKBPAA@ETC_DOMAIN_EXP_REMAIN?$AA@
  003a8	b9 e0 01 00 00	 mov	 ecx, OFFSET FLAT:_ModifyType2String+480
  003ad	c6 45 fc 27	 mov	 BYTE PTR __$EHRec$[ebp+8], 39 ; 00000027H
  003b1	e8 00 00 00 00	 call	 ??0?$basic_string@DV?$char_traits@D@_STL@@V?$allocator@D@2@@_STL@@QAE@PBDABV?$allocator@D@1@@Z ; _STL::basic_string<char,_STL::char_traits<char>,_STL::allocator<char> >::basic_string<char,_STL::char_traits<char>,_STL::allocator<char> >

; 142  : 	"ETC_DOMAIN_GOAL_EXP",			//    

  003b6	8d 45 f3	 lea	 eax, DWORD PTR $T104768[ebp]
  003b9	50		 push	 eax
  003ba	68 00 00 00 00	 push	 OFFSET FLAT:??_C@_0BE@IFONLKN@ETC_DOMAIN_GOAL_EXP?$AA@
  003bf	b9 ec 01 00 00	 mov	 ecx, OFFSET FLAT:_ModifyType2String+492
  003c4	c6 45 fc 28	 mov	 BYTE PTR __$EHRec$[ebp+8], 40 ; 00000028H
  003c8	e8 00 00 00 00	 call	 ??0?$basic_string@DV?$char_traits@D@_STL@@V?$allocator@D@2@@_STL@@QAE@PBDABV?$allocator@D@1@@Z ; _STL::basic_string<char,_STL::char_traits<char>,_STL::allocator<char> >::basic_string<char,_STL::char_traits<char>,_STL::allocator<char> >

; 143  : 
; 144  : 	"SKILL_LEVEL",					//    

  003cd	8d 45 f3	 lea	 eax, DWORD PTR $T104769[ebp]
  003d0	50		 push	 eax
  003d1	68 00 00 00 00	 push	 OFFSET FLAT:??_C@_0M@OHHCLPDA@SKILL_LEVEL?$AA@
  003d6	b9 f8 01 00 00	 mov	 ecx, OFFSET FLAT:_ModifyType2String+504
  003db	c6 45 fc 29	 mov	 BYTE PTR __$EHRec$[ebp+8], 41 ; 00000029H
  003df	e8 00 00 00 00	 call	 ??0?$basic_string@DV?$char_traits@D@_STL@@V?$allocator@D@2@@_STL@@QAE@PBDABV?$allocator@D@1@@Z ; _STL::basic_string<char,_STL::char_traits<char>,_STL::allocator<char> >::basic_string<char,_STL::char_traits<char>,_STL::allocator<char> >

; 145  : 	"LEVEL",						//   

  003e4	8d 45 f3	 lea	 eax, DWORD PTR $T104770[ebp]
  003e7	50		 push	 eax
  003e8	68 00 00 00 00	 push	 OFFSET FLAT:??_C@_05GCEPFMCO@LEVEL?$AA@
  003ed	b9 04 02 00 00	 mov	 ecx, OFFSET FLAT:_ModifyType2String+516
  003f2	c6 45 fc 2a	 mov	 BYTE PTR __$EHRec$[ebp+8], 42 ; 0000002aH
  003f6	e8 00 00 00 00	 call	 ??0?$basic_string@DV?$char_traits@D@_STL@@V?$allocator@D@2@@_STL@@QAE@PBDABV?$allocator@D@1@@Z ; _STL::basic_string<char,_STL::char_traits<char>,_STL::allocator<char> >::basic_string<char,_STL::char_traits<char>,_STL::allocator<char> >

; 146  : 	"EFFECT_STAT",					//   

  003fb	8d 45 f3	 lea	 eax, DWORD PTR $T104771[ebp]
  003fe	50		 push	 eax
  003ff	68 00 00 00 00	 push	 OFFSET FLAT:??_C@_0M@MLFPLLC@EFFECT_STAT?$AA@
  00404	b9 10 02 00 00	 mov	 ecx, OFFSET FLAT:_ModifyType2String+528
  00409	c6 45 fc 2b	 mov	 BYTE PTR __$EHRec$[ebp+8], 43 ; 0000002bH
  0040d	e8 00 00 00 00	 call	 ??0?$basic_string@DV?$char_traits@D@_STL@@V?$allocator@D@2@@_STL@@QAE@PBDABV?$allocator@D@1@@Z ; _STL::basic_string<char,_STL::char_traits<char>,_STL::allocator<char> >::basic_string<char,_STL::char_traits<char>,_STL::allocator<char> >

; 147  : 	"DURATION",						//    

  00412	8d 45 f3	 lea	 eax, DWORD PTR $T104772[ebp]
  00415	50		 push	 eax
  00416	68 00 00 00 00	 push	 OFFSET FLAT:??_C@_08MJLDLDGF@DURATION?$AA@
  0041b	b9 1c 02 00 00	 mov	 ecx, OFFSET FLAT:_ModifyType2String+540
  00420	c6 45 fc 2c	 mov	 BYTE PTR __$EHRec$[ebp+8], 44 ; 0000002cH
  00424	e8 00 00 00 00	 call	 ??0?$basic_string@DV?$char_traits@D@_STL@@V?$allocator@D@2@@_STL@@QAE@PBDABV?$allocator@D@1@@Z ; _STL::basic_string<char,_STL::char_traits<char>,_STL::allocator<char> >::basic_string<char,_STL::char_traits<char>,_STL::allocator<char> >

; 148  : 	"BULLET",						//      

  00429	8d 45 f3	 lea	 eax, DWORD PTR $T104773[ebp]
  0042c	c6 45 fc 2d	 mov	 BYTE PTR __$EHRec$[ebp+8], 45 ; 0000002dH
  00430	50		 push	 eax
  00431	68 00 00 00 00	 push	 OFFSET FLAT:??_C@_06JADFICD@BULLET?$AA@
  00436	b9 28 02 00 00	 mov	 ecx, OFFSET FLAT:_ModifyType2String+552
  0043b	e8 00 00 00 00	 call	 ??0?$basic_string@DV?$char_traits@D@_STL@@V?$allocator@D@2@@_STL@@QAE@PBDABV?$allocator@D@1@@Z ; _STL::basic_string<char,_STL::char_traits<char>,_STL::allocator<char> >::basic_string<char,_STL::char_traits<char>,_STL::allocator<char> >

; 149  : 	"BONUS_POINT",					//    

  00440	8d 45 f3	 lea	 eax, DWORD PTR $T104774[ebp]
  00443	50		 push	 eax
  00444	68 00 00 00 00	 push	 OFFSET FLAT:??_C@_0M@DPKCELMF@BONUS_POINT?$AA@
  00449	b9 34 02 00 00	 mov	 ecx, OFFSET FLAT:_ModifyType2String+564
  0044e	c6 45 fc 2e	 mov	 BYTE PTR __$EHRec$[ebp+8], 46 ; 0000002eH
  00452	e8 00 00 00 00	 call	 ??0?$basic_string@DV?$char_traits@D@_STL@@V?$allocator@D@2@@_STL@@QAE@PBDABV?$allocator@D@1@@Z ; _STL::basic_string<char,_STL::char_traits<char>,_STL::allocator<char> >::basic_string<char,_STL::char_traits<char>,_STL::allocator<char> >

; 150  : 	"DURABILITY",					//       

  00457	8d 45 f3	 lea	 eax, DWORD PTR $T104775[ebp]
  0045a	50		 push	 eax
  0045b	68 00 00 00 00	 push	 OFFSET FLAT:??_C@_0L@JEFHDPIL@DURABILITY?$AA@
  00460	b9 40 02 00 00	 mov	 ecx, OFFSET FLAT:_ModifyType2String+576
  00465	c6 45 fc 2f	 mov	 BYTE PTR __$EHRec$[ebp+8], 47 ; 0000002fH
  00469	e8 00 00 00 00	 call	 ??0?$basic_string@DV?$char_traits@D@_STL@@V?$allocator@D@2@@_STL@@QAE@PBDABV?$allocator@D@1@@Z ; _STL::basic_string<char,_STL::char_traits<char>,_STL::allocator<char> >::basic_string<char,_STL::char_traits<char>,_STL::allocator<char> >

; 151  : 	"NOTORIETY",					//  

  0046e	8d 45 f3	 lea	 eax, DWORD PTR $T104776[ebp]
  00471	50		 push	 eax
  00472	68 00 00 00 00	 push	 OFFSET FLAT:??_C@_09EGKBMPFK@NOTORIETY?$AA@
  00477	b9 4c 02 00 00	 mov	 ecx, OFFSET FLAT:_ModifyType2String+588
  0047c	c6 45 fc 30	 mov	 BYTE PTR __$EHRec$[ebp+8], 48 ; 00000030H
  00480	e8 00 00 00 00	 call	 ??0?$basic_string@DV?$char_traits@D@_STL@@V?$allocator@D@2@@_STL@@QAE@PBDABV?$allocator@D@1@@Z ; _STL::basic_string<char,_STL::char_traits<char>,_STL::allocator<char> >::basic_string<char,_STL::char_traits<char>,_STL::allocator<char> >

; 152  : 	"VAMP_EXP_REMAIN",				//   

  00485	8d 45 f3	 lea	 eax, DWORD PTR $T104777[ebp]
  00488	50		 push	 eax
  00489	68 00 00 00 00	 push	 OFFSET FLAT:??_C@_0BA@MAIHAHDB@VAMP_EXP_REMAIN?$AA@
  0048e	b9 58 02 00 00	 mov	 ecx, OFFSET FLAT:_ModifyType2String+600
  00493	c6 45 fc 31	 mov	 BYTE PTR __$EHRec$[ebp+8], 49 ; 00000031H
  00497	e8 00 00 00 00	 call	 ??0?$basic_string@DV?$char_traits@D@_STL@@V?$allocator@D@2@@_STL@@QAE@PBDABV?$allocator@D@1@@Z ; _STL::basic_string<char,_STL::char_traits<char>,_STL::allocator<char> >::basic_string<char,_STL::char_traits<char>,_STL::allocator<char> >

; 153  : 
; 154  : 	"SILVER_DAMAGE",				//   

  0049c	8d 45 f3	 lea	 eax, DWORD PTR $T104778[ebp]
  0049f	50		 push	 eax
  004a0	68 00 00 00 00	 push	 OFFSET FLAT:??_C@_0O@ENDFFBFD@SILVER_DAMAGE?$AA@
  004a5	b9 64 02 00 00	 mov	 ecx, OFFSET FLAT:_ModifyType2String+612
  004aa	c6 45 fc 32	 mov	 BYTE PTR __$EHRec$[ebp+8], 50 ; 00000032H
  004ae	e8 00 00 00 00	 call	 ??0?$basic_string@DV?$char_traits@D@_STL@@V?$allocator@D@2@@_STL@@QAE@PBDABV?$allocator@D@1@@Z ; _STL::basic_string<char,_STL::char_traits<char>,_STL::allocator<char> >::basic_string<char,_STL::char_traits<char>,_STL::allocator<char> >

; 155  : 	"ATTACK_SPEED",					//   

  004b3	8d 45 f3	 lea	 eax, DWORD PTR $T104779[ebp]
  004b6	50		 push	 eax
  004b7	68 00 00 00 00	 push	 OFFSET FLAT:??_C@_0N@KMAAPCII@ATTACK_SPEED?$AA@
  004bc	b9 70 02 00 00	 mov	 ecx, OFFSET FLAT:_ModifyType2String+624
  004c1	c6 45 fc 33	 mov	 BYTE PTR __$EHRec$[ebp+8], 51 ; 00000033H
  004c5	e8 00 00 00 00	 call	 ??0?$basic_string@DV?$char_traits@D@_STL@@V?$allocator@D@2@@_STL@@QAE@PBDABV?$allocator@D@1@@Z ; _STL::basic_string<char,_STL::char_traits<char>,_STL::allocator<char> >::basic_string<char,_STL::char_traits<char>,_STL::allocator<char> >

; 156  : 	"ALIGNMENT",					// 

  004ca	8d 45 f3	 lea	 eax, DWORD PTR $T104780[ebp]
  004cd	50		 push	 eax
  004ce	68 00 00 00 00	 push	 OFFSET FLAT:??_C@_09HPPNPOEE@ALIGNMENT?$AA@
  004d3	b9 7c 02 00 00	 mov	 ecx, OFFSET FLAT:_ModifyType2String+636
  004d8	c6 45 fc 34	 mov	 BYTE PTR __$EHRec$[ebp+8], 52 ; 00000034H
  004dc	e8 00 00 00 00	 call	 ??0?$basic_string@DV?$char_traits@D@_STL@@V?$allocator@D@2@@_STL@@QAE@PBDABV?$allocator@D@1@@Z ; _STL::basic_string<char,_STL::char_traits<char>,_STL::allocator<char> >::basic_string<char,_STL::char_traits<char>,_STL::allocator<char> >

; 157  : 
; 158  : 	"SILVER_DURABILITY",			//  ..

  004e1	8d 45 f3	 lea	 eax, DWORD PTR $T104781[ebp]
  004e4	50		 push	 eax
  004e5	68 00 00 00 00	 push	 OFFSET FLAT:??_C@_0BC@BNIPJKDA@SILVER_DURABILITY?$AA@
  004ea	b9 88 02 00 00	 mov	 ecx, OFFSET FLAT:_ModifyType2String+648
  004ef	c6 45 fc 35	 mov	 BYTE PTR __$EHRec$[ebp+8], 53 ; 00000035H
  004f3	e8 00 00 00 00	 call	 ??0?$basic_string@DV?$char_traits@D@_STL@@V?$allocator@D@2@@_STL@@QAE@PBDABV?$allocator@D@1@@Z ; _STL::basic_string<char,_STL::char_traits<char>,_STL::allocator<char> >::basic_string<char,_STL::char_traits<char>,_STL::allocator<char> >

; 159  : 
; 160  : 	"REGEN_RATE",					//     -_-

  004f8	8d 45 f3	 lea	 eax, DWORD PTR $T104782[ebp]
  004fb	50		 push	 eax
  004fc	68 00 00 00 00	 push	 OFFSET FLAT:??_C@_0L@HJJLGOIM@REGEN_RATE?$AA@
  00501	b9 94 02 00 00	 mov	 ecx, OFFSET FLAT:_ModifyType2String+660
  00506	c6 45 fc 36	 mov	 BYTE PTR __$EHRec$[ebp+8], 54 ; 00000036H
  0050a	e8 00 00 00 00	 call	 ??0?$basic_string@DV?$char_traits@D@_STL@@V?$allocator@D@2@@_STL@@QAE@PBDABV?$allocator@D@1@@Z ; _STL::basic_string<char,_STL::char_traits<char>,_STL::allocator<char> >::basic_string<char,_STL::char_traits<char>,_STL::allocator<char> >

; 161  : 	"GUILDID",						//   

  0050f	8d 45 f3	 lea	 eax, DWORD PTR $T104783[ebp]
  00512	50		 push	 eax
  00513	68 00 00 00 00	 push	 OFFSET FLAT:??_C@_07ICBEDALK@GUILDID?$AA@
  00518	b9 a0 02 00 00	 mov	 ecx, OFFSET FLAT:_ModifyType2String+672
  0051d	c6 45 fc 37	 mov	 BYTE PTR __$EHRec$[ebp+8], 55 ; 00000037H
  00521	e8 00 00 00 00	 call	 ??0?$basic_string@DV?$char_traits@D@_STL@@V?$allocator@D@2@@_STL@@QAE@PBDABV?$allocator@D@1@@Z ; _STL::basic_string<char,_STL::char_traits<char>,_STL::allocator<char> >::basic_string<char,_STL::char_traits<char>,_STL::allocator<char> >

; 162  : 
; 163  : 	"RANK",							//  

  00526	8d 45 f3	 lea	 eax, DWORD PTR $T104784[ebp]
  00529	50		 push	 eax
  0052a	68 00 00 00 00	 push	 OFFSET FLAT:??_C@_04DBCPJNBF@RANK?$AA@
  0052f	b9 ac 02 00 00	 mov	 ecx, OFFSET FLAT:_ModifyType2String+684
  00534	c6 45 fc 38	 mov	 BYTE PTR __$EHRec$[ebp+8], 56 ; 00000038H
  00538	e8 00 00 00 00	 call	 ??0?$basic_string@DV?$char_traits@D@_STL@@V?$allocator@D@2@@_STL@@QAE@PBDABV?$allocator@D@1@@Z ; _STL::basic_string<char,_STL::char_traits<char>,_STL::allocator<char> >::basic_string<char,_STL::char_traits<char>,_STL::allocator<char> >

; 164  : 	"RANK_EXP_REMAIN",				//  

  0053d	8d 45 f3	 lea	 eax, DWORD PTR $T104785[ebp]
  00540	50		 push	 eax
  00541	68 00 00 00 00	 push	 OFFSET FLAT:??_C@_0BA@DLBJHHBE@RANK_EXP_REMAIN?$AA@
  00546	b9 b8 02 00 00	 mov	 ecx, OFFSET FLAT:_ModifyType2String+696
  0054b	c6 45 fc 39	 mov	 BYTE PTR __$EHRec$[ebp+8], 57 ; 00000039H
  0054f	e8 00 00 00 00	 call	 ??0?$basic_string@DV?$char_traits@D@_STL@@V?$allocator@D@2@@_STL@@QAE@PBDABV?$allocator@D@1@@Z ; _STL::basic_string<char,_STL::char_traits<char>,_STL::allocator<char> >::basic_string<char,_STL::char_traits<char>,_STL::allocator<char> >

; 165  : 
; 166  : 	"OUSTERS_EXP_REMAIN",			//   

  00554	8d 45 f3	 lea	 eax, DWORD PTR $T104786[ebp]
  00557	50		 push	 eax
  00558	68 00 00 00 00	 push	 OFFSET FLAT:??_C@_0BD@BBMKLBCL@OUSTERS_EXP_REMAIN?$AA@
  0055d	b9 c4 02 00 00	 mov	 ecx, OFFSET FLAT:_ModifyType2String+708
  00562	c6 45 fc 3a	 mov	 BYTE PTR __$EHRec$[ebp+8], 58 ; 0000003aH
  00566	e8 00 00 00 00	 call	 ??0?$basic_string@DV?$char_traits@D@_STL@@V?$allocator@D@2@@_STL@@QAE@PBDABV?$allocator@D@1@@Z ; _STL::basic_string<char,_STL::char_traits<char>,_STL::allocator<char> >::basic_string<char,_STL::char_traits<char>,_STL::allocator<char> >

; 167  : 	"SKILL_BONUS_POINT",			//     

  0056b	8d 45 f3	 lea	 eax, DWORD PTR $T104787[ebp]
  0056e	50		 push	 eax
  0056f	68 00 00 00 00	 push	 OFFSET FLAT:??_C@_0BC@IMLFGMDG@SKILL_BONUS_POINT?$AA@
  00574	b9 d0 02 00 00	 mov	 ecx, OFFSET FLAT:_ModifyType2String+720
  00579	c6 45 fc 3b	 mov	 BYTE PTR __$EHRec$[ebp+8], 59 ; 0000003bH
  0057d	e8 00 00 00 00	 call	 ??0?$basic_string@DV?$char_traits@D@_STL@@V?$allocator@D@2@@_STL@@QAE@PBDABV?$allocator@D@1@@Z ; _STL::basic_string<char,_STL::char_traits<char>,_STL::allocator<char> >::basic_string<char,_STL::char_traits<char>,_STL::allocator<char> >

; 168  : 	
; 169  : 	"ELEMENTAL_FIRE",

  00582	8d 45 f3	 lea	 eax, DWORD PTR $T104788[ebp]
  00585	50		 push	 eax
  00586	68 00 00 00 00	 push	 OFFSET FLAT:??_C@_0P@PEHNMFMM@ELEMENTAL_FIRE?$AA@
  0058b	b9 dc 02 00 00	 mov	 ecx, OFFSET FLAT:_ModifyType2String+732
  00590	c6 45 fc 3c	 mov	 BYTE PTR __$EHRec$[ebp+8], 60 ; 0000003cH
  00594	e8 00 00 00 00	 call	 ??0?$basic_string@DV?$char_traits@D@_STL@@V?$allocator@D@2@@_STL@@QAE@PBDABV?$allocator@D@1@@Z ; _STL::basic_string<char,_STL::char_traits<char>,_STL::allocator<char> >::basic_string<char,_STL::char_traits<char>,_STL::allocator<char> >

; 170  : 	"ELEMENTAL_WATER",

  00599	8d 45 f3	 lea	 eax, DWORD PTR $T104789[ebp]
  0059c	50		 push	 eax
  0059d	68 00 00 00 00	 push	 OFFSET FLAT:??_C@_0BA@MHDKAJKL@ELEMENTAL_WATER?$AA@
  005a2	b9 e8 02 00 00	 mov	 ecx, OFFSET FLAT:_ModifyType2String+744
  005a7	c6 45 fc 3d	 mov	 BYTE PTR __$EHRec$[ebp+8], 61 ; 0000003dH
  005ab	e8 00 00 00 00	 call	 ??0?$basic_string@DV?$char_traits@D@_STL@@V?$allocator@D@2@@_STL@@QAE@PBDABV?$allocator@D@1@@Z ; _STL::basic_string<char,_STL::char_traits<char>,_STL::allocator<char> >::basic_string<char,_STL::char_traits<char>,_STL::allocator<char> >

; 171  : 	"ELEMENTAL_EARTH",

  005b0	8d 45 f3	 lea	 eax, DWORD PTR $T104790[ebp]
  005b3	50		 push	 eax
  005b4	68 00 00 00 00	 push	 OFFSET FLAT:??_C@_0BA@BIGMGHL@ELEMENTAL_EARTH?$AA@
  005b9	b9 f4 02 00 00	 mov	 ecx, OFFSET FLAT:_ModifyType2String+756
  005be	c6 45 fc 3e	 mov	 BYTE PTR __$EHRec$[ebp+8], 62 ; 0000003eH
  005c2	e8 00 00 00 00	 call	 ??0?$basic_string@DV?$char_traits@D@_STL@@V?$allocator@D@2@@_STL@@QAE@PBDABV?$allocator@D@1@@Z ; _STL::basic_string<char,_STL::char_traits<char>,_STL::allocator<char> >::basic_string<char,_STL::char_traits<char>,_STL::allocator<char> >

; 172  : 	"ELEMENTAL_WIND",

  005c7	8d 45 f3	 lea	 eax, DWORD PTR $T104791[ebp]
  005ca	50		 push	 eax
  005cb	68 00 00 00 00	 push	 OFFSET FLAT:??_C@_0P@KFNKBAKL@ELEMENTAL_WIND?$AA@
  005d0	b9 00 03 00 00	 mov	 ecx, OFFSET FLAT:_ModifyType2String+768
  005d5	c6 45 fc 3f	 mov	 BYTE PTR __$EHRec$[ebp+8], 63 ; 0000003fH
  005d9	e8 00 00 00 00	 call	 ??0?$basic_string@DV?$char_traits@D@_STL@@V?$allocator@D@2@@_STL@@QAE@PBDABV?$allocator@D@1@@Z ; _STL::basic_string<char,_STL::char_traits<char>,_STL::allocator<char> >::basic_string<char,_STL::char_traits<char>,_STL::allocator<char> >

; 173  : 	
; 174  : 	"SKILL_EXP",					//   

  005de	8d 45 f3	 lea	 eax, DWORD PTR $T104792[ebp]
  005e1	50		 push	 eax
  005e2	68 00 00 00 00	 push	 OFFSET FLAT:??_C@_09BBOPOJIN@SKILL_EXP?$AA@
  005e7	b9 0c 03 00 00	 mov	 ecx, OFFSET FLAT:_ModifyType2String+780
  005ec	c6 45 fc 40	 mov	 BYTE PTR __$EHRec$[ebp+8], 64 ; 00000040H
  005f0	e8 00 00 00 00	 call	 ??0?$basic_string@DV?$char_traits@D@_STL@@V?$allocator@D@2@@_STL@@QAE@PBDABV?$allocator@D@1@@Z ; _STL::basic_string<char,_STL::char_traits<char>,_STL::allocator<char> >::basic_string<char,_STL::char_traits<char>,_STL::allocator<char> >

; 175  : 	
; 176  :     "PET_HP",

  005f5	8d 45 f3	 lea	 eax, DWORD PTR $T104793[ebp]
  005f8	50		 push	 eax
  005f9	68 00 00 00 00	 push	 OFFSET FLAT:??_C@_06IEBMKFDK@PET_HP?$AA@
  005fe	b9 18 03 00 00	 mov	 ecx, OFFSET FLAT:_ModifyType2String+792
  00603	c6 45 fc 41	 mov	 BYTE PTR __$EHRec$[ebp+8], 65 ; 00000041H
  00607	e8 00 00 00 00	 call	 ??0?$basic_string@DV?$char_traits@D@_STL@@V?$allocator@D@2@@_STL@@QAE@PBDABV?$allocator@D@1@@Z ; _STL::basic_string<char,_STL::char_traits<char>,_STL::allocator<char> >::basic_string<char,_STL::char_traits<char>,_STL::allocator<char> >

; 177  :     "PET_EXP_REMAIN",               //  

  0060c	8d 45 f3	 lea	 eax, DWORD PTR $T104794[ebp]
  0060f	50		 push	 eax
  00610	68 00 00 00 00	 push	 OFFSET FLAT:??_C@_0P@GOFONOAE@PET_EXP_REMAIN?$AA@
  00615	b9 24 03 00 00	 mov	 ecx, OFFSET FLAT:_ModifyType2String+804
  0061a	c6 45 fc 42	 mov	 BYTE PTR __$EHRec$[ebp+8], 66 ; 00000042H
  0061e	e8 00 00 00 00	 call	 ??0?$basic_string@DV?$char_traits@D@_STL@@V?$allocator@D@2@@_STL@@QAE@PBDABV?$allocator@D@1@@Z ; _STL::basic_string<char,_STL::char_traits<char>,_STL::allocator<char> >::basic_string<char,_STL::char_traits<char>,_STL::allocator<char> >

; 178  : 	
; 179  : 	"LAST_TARGET",

  00623	8d 45 f3	 lea	 eax, DWORD PTR $T104795[ebp]
  00626	50		 push	 eax
  00627	68 00 00 00 00	 push	 OFFSET FLAT:??_C@_0M@KIBGPGKM@LAST_TARGET?$AA@
  0062c	b9 30 03 00 00	 mov	 ecx, OFFSET FLAT:_ModifyType2String+816
  00631	c6 45 fc 43	 mov	 BYTE PTR __$EHRec$[ebp+8], 67 ; 00000043H
  00635	e8 00 00 00 00	 call	 ??0?$basic_string@DV?$char_traits@D@_STL@@V?$allocator@D@2@@_STL@@QAE@PBDABV?$allocator@D@1@@Z ; _STL::basic_string<char,_STL::char_traits<char>,_STL::allocator<char> >::basic_string<char,_STL::char_traits<char>,_STL::allocator<char> >

; 180  : 
; 181  : 	"UNIONID",

  0063a	8d 45 f3	 lea	 eax, DWORD PTR $T104796[ebp]
  0063d	50		 push	 eax
  0063e	c6 45 fc 44	 mov	 BYTE PTR __$EHRec$[ebp+8], 68 ; 00000044H
  00642	68 00 00 00 00	 push	 OFFSET FLAT:??_C@_07PBEOFEGM@UNIONID?$AA@
  00647	b9 3c 03 00 00	 mov	 ecx, OFFSET FLAT:_ModifyType2String+828
  0064c	e8 00 00 00 00	 call	 ??0?$basic_string@DV?$char_traits@D@_STL@@V?$allocator@D@2@@_STL@@QAE@PBDABV?$allocator@D@1@@Z ; _STL::basic_string<char,_STL::char_traits<char>,_STL::allocator<char> >::basic_string<char,_STL::char_traits<char>,_STL::allocator<char> >

; 182  : 	"UNIONGRADE",

  00651	8d 45 f3	 lea	 eax, DWORD PTR $T104797[ebp]
  00654	50		 push	 eax
  00655	68 00 00 00 00	 push	 OFFSET FLAT:??_C@_0L@COBGECE@UNIONGRADE?$AA@
  0065a	b9 48 03 00 00	 mov	 ecx, OFFSET FLAT:_ModifyType2String+840
  0065f	c6 45 fc 45	 mov	 BYTE PTR __$EHRec$[ebp+8], 69 ; 00000045H
  00663	e8 00 00 00 00	 call	 ??0?$basic_string@DV?$char_traits@D@_STL@@V?$allocator@D@2@@_STL@@QAE@PBDABV?$allocator@D@1@@Z ; _STL::basic_string<char,_STL::char_traits<char>,_STL::allocator<char> >::basic_string<char,_STL::char_traits<char>,_STL::allocator<char> >

; 183  : 	
; 184  :     "ADVANCEMENT_CLASS_LEVEL",		//  

  00668	8d 45 f3	 lea	 eax, DWORD PTR $T104798[ebp]
  0066b	50		 push	 eax
  0066c	68 00 00 00 00	 push	 OFFSET FLAT:??_C@_0BI@LHEPMHDM@ADVANCEMENT_CLASS_LEVEL?$AA@
  00671	b9 54 03 00 00	 mov	 ecx, OFFSET FLAT:_ModifyType2String+852
  00676	c6 45 fc 46	 mov	 BYTE PTR __$EHRec$[ebp+8], 70 ; 00000046H
  0067a	e8 00 00 00 00	 call	 ??0?$basic_string@DV?$char_traits@D@_STL@@V?$allocator@D@2@@_STL@@QAE@PBDABV?$allocator@D@1@@Z ; _STL::basic_string<char,_STL::char_traits<char>,_STL::allocator<char> >::basic_string<char,_STL::char_traits<char>,_STL::allocator<char> >

; 185  :     "ADVANCEMENT_CLASS_GOAL_EXP",	//  

  0067f	8d 45 f3	 lea	 eax, DWORD PTR $T104799[ebp]
  00682	50		 push	 eax
  00683	68 00 00 00 00	 push	 OFFSET FLAT:??_C@_0BL@IKNEBHFH@ADVANCEMENT_CLASS_GOAL_EXP?$AA@
  00688	b9 60 03 00 00	 mov	 ecx, OFFSET FLAT:_ModifyType2String+864
  0068d	c6 45 fc 47	 mov	 BYTE PTR __$EHRec$[ebp+8], 71 ; 00000047H
  00691	e8 00 00 00 00	 call	 ??0?$basic_string@DV?$char_traits@D@_STL@@V?$allocator@D@2@@_STL@@QAE@PBDABV?$allocator@D@1@@Z ; _STL::basic_string<char,_STL::char_traits<char>,_STL::allocator<char> >::basic_string<char,_STL::char_traits<char>,_STL::allocator<char> >

; 186  : 
; 187  : 	"ATTACK_BLOOD_BURST_POINT",		//   

  00696	8d 45 f3	 lea	 eax, DWORD PTR $T104800[ebp]
  00699	50		 push	 eax
  0069a	68 00 00 00 00	 push	 OFFSET FLAT:??_C@_0BJ@PIJGHHAP@ATTACK_BLOOD_BURST_POINT?$AA@
  0069f	b9 6c 03 00 00	 mov	 ecx, OFFSET FLAT:_ModifyType2String+876
  006a4	c6 45 fc 48	 mov	 BYTE PTR __$EHRec$[ebp+8], 72 ; 00000048H
  006a8	e8 00 00 00 00	 call	 ??0?$basic_string@DV?$char_traits@D@_STL@@V?$allocator@D@2@@_STL@@QAE@PBDABV?$allocator@D@1@@Z ; _STL::basic_string<char,_STL::char_traits<char>,_STL::allocator<char> >::basic_string<char,_STL::char_traits<char>,_STL::allocator<char> >

; 188  : 	"DEFENSE_BLOOD_BURST_POINT",	//   

  006ad	8d 45 f3	 lea	 eax, DWORD PTR $T104801[ebp]
  006b0	50		 push	 eax
  006b1	68 00 00 00 00	 push	 OFFSET FLAT:??_C@_0BK@BJJBOCNF@DEFENSE_BLOOD_BURST_POINT?$AA@
  006b6	b9 78 03 00 00	 mov	 ecx, OFFSET FLAT:_ModifyType2String+888
  006bb	c6 45 fc 49	 mov	 BYTE PTR __$EHRec$[ebp+8], 73 ; 00000049H
  006bf	e8 00 00 00 00	 call	 ??0?$basic_string@DV?$char_traits@D@_STL@@V?$allocator@D@2@@_STL@@QAE@PBDABV?$allocator@D@1@@Z ; _STL::basic_string<char,_STL::char_traits<char>,_STL::allocator<char> >::basic_string<char,_STL::char_traits<char>,_STL::allocator<char> >

; 189  : 	"PARTY_BLOOD_BURST_POINT",		//   

  006c4	8d 45 f3	 lea	 eax, DWORD PTR $T104802[ebp]
  006c7	50		 push	 eax
  006c8	68 00 00 00 00	 push	 OFFSET FLAT:??_C@_0BI@MHOBEFBP@PARTY_BLOOD_BURST_POINT?$AA@
  006cd	b9 84 03 00 00	 mov	 ecx, OFFSET FLAT:_ModifyType2String+900
  006d2	c6 45 fc 4a	 mov	 BYTE PTR __$EHRec$[ebp+8], 74 ; 0000004aH
  006d6	e8 00 00 00 00	 call	 ??0?$basic_string@DV?$char_traits@D@_STL@@V?$allocator@D@2@@_STL@@QAE@PBDABV?$allocator@D@1@@Z ; _STL::basic_string<char,_STL::char_traits<char>,_STL::allocator<char> >::basic_string<char,_STL::char_traits<char>,_STL::allocator<char> >

; 190  : 	
; 191  : 	"ADVANCED_SLAYERSTR",

  006db	8d 45 f3	 lea	 eax, DWORD PTR $T104803[ebp]
  006de	50		 push	 eax
  006df	68 00 00 00 00	 push	 OFFSET FLAT:??_C@_0BD@BPOFFKFG@ADVANCED_SLAYERSTR?$AA@
  006e4	b9 90 03 00 00	 mov	 ecx, OFFSET FLAT:_ModifyType2String+912
  006e9	c6 45 fc 4b	 mov	 BYTE PTR __$EHRec$[ebp+8], 75 ; 0000004bH
  006ed	e8 00 00 00 00	 call	 ??0?$basic_string@DV?$char_traits@D@_STL@@V?$allocator@D@2@@_STL@@QAE@PBDABV?$allocator@D@1@@Z ; _STL::basic_string<char,_STL::char_traits<char>,_STL::allocator<char> >::basic_string<char,_STL::char_traits<char>,_STL::allocator<char> >

; 192  : 	"ADVANCED_SLAYERDEX",

  006f2	8d 45 f3	 lea	 eax, DWORD PTR $T104804[ebp]
  006f5	50		 push	 eax
  006f6	68 00 00 00 00	 push	 OFFSET FLAT:??_C@_0BD@DFCABELN@ADVANCED_SLAYERDEX?$AA@
  006fb	b9 9c 03 00 00	 mov	 ecx, OFFSET FLAT:_ModifyType2String+924
  00700	c6 45 fc 4c	 mov	 BYTE PTR __$EHRec$[ebp+8], 76 ; 0000004cH
  00704	e8 00 00 00 00	 call	 ??0?$basic_string@DV?$char_traits@D@_STL@@V?$allocator@D@2@@_STL@@QAE@PBDABV?$allocator@D@1@@Z ; _STL::basic_string<char,_STL::char_traits<char>,_STL::allocator<char> >::basic_string<char,_STL::char_traits<char>,_STL::allocator<char> >

; 193  : 	"ADVANCED_SLAYERINT",			

  00709	8d 45 f3	 lea	 eax, DWORD PTR $T104805[ebp]
  0070c	50		 push	 eax
  0070d	68 00 00 00 00	 push	 OFFSET FLAT:??_C@_0BD@GHKKGMIN@ADVANCED_SLAYERINT?$AA@
  00712	b9 a8 03 00 00	 mov	 ecx, OFFSET FLAT:_ModifyType2String+936
  00717	c6 45 fc 4d	 mov	 BYTE PTR __$EHRec$[ebp+8], 77 ; 0000004dH
  0071b	e8 00 00 00 00	 call	 ??0?$basic_string@DV?$char_traits@D@_STL@@V?$allocator@D@2@@_STL@@QAE@PBDABV?$allocator@D@1@@Z ; _STL::basic_string<char,_STL::char_traits<char>,_STL::allocator<char> >::basic_string<char,_STL::char_traits<char>,_STL::allocator<char> >

; 194  : 
; 195  : #if __CONTENTS(__CONTRIBUTE_SYSTEM)
; 196  : 	"CONTRIBUTE_POINT",				// MODIFY_CONTRIBUTE_POINT  

  00720	8d 45 f3	 lea	 eax, DWORD PTR $T104806[ebp]
  00723	50		 push	 eax
  00724	68 00 00 00 00	 push	 OFFSET FLAT:??_C@_0BB@JLMOMJOK@CONTRIBUTE_POINT?$AA@
  00729	b9 b4 03 00 00	 mov	 ecx, OFFSET FLAT:_ModifyType2String+948
  0072e	c6 45 fc 4e	 mov	 BYTE PTR __$EHRec$[ebp+8], 78 ; 0000004eH
  00732	e8 00 00 00 00	 call	 ??0?$basic_string@DV?$char_traits@D@_STL@@V?$allocator@D@2@@_STL@@QAE@PBDABV?$allocator@D@1@@Z ; _STL::basic_string<char,_STL::char_traits<char>,_STL::allocator<char> >::basic_string<char,_STL::char_traits<char>,_STL::allocator<char> >

; 197  : #endif	
; 198  : 	"DIANJUAN",

  00737	8d 45 f3	 lea	 eax, DWORD PTR $T104807[ebp]
  0073a	50		 push	 eax
  0073b	68 00 00 00 00	 push	 OFFSET FLAT:??_C@_08IKEGEPEJ@DIANJUAN?$AA@
  00740	b9 c0 03 00 00	 mov	 ecx, OFFSET FLAT:_ModifyType2String+960
  00745	c6 45 fc 4f	 mov	 BYTE PTR __$EHRec$[ebp+8], 79 ; 0000004fH
  00749	e8 00 00 00 00	 call	 ??0?$basic_string@DV?$char_traits@D@_STL@@V?$allocator@D@2@@_STL@@QAE@PBDABV?$allocator@D@1@@Z ; _STL::basic_string<char,_STL::char_traits<char>,_STL::allocator<char> >::basic_string<char,_STL::char_traits<char>,_STL::allocator<char> >
  0074e	c6 45 fc 50	 mov	 BYTE PTR __$EHRec$[ebp+8], 80 ; 00000050H

; 199  : 	"MAX"
; 200  : };

  00752	8d 45 f3	 lea	 eax, DWORD PTR $T104808[ebp]
  00755	50		 push	 eax
  00756	68 00 00 00 00	 push	 OFFSET FLAT:??_C@_03LEPPJAKI@MAX?$AA@
  0075b	b9 cc 03 00 00	 mov	 ecx, OFFSET FLAT:_ModifyType2String+972
  00760	e8 00 00 00 00	 call	 ??0?$basic_string@DV?$char_traits@D@_STL@@V?$allocator@D@2@@_STL@@QAE@PBDABV?$allocator@D@1@@Z ; _STL::basic_string<char,_STL::char_traits<char>,_STL::allocator<char> >::basic_string<char,_STL::char_traits<char>,_STL::allocator<char> >
  00765	68 00 00 00 00	 push	 OFFSET FLAT:_$E80
  0076a	e8 00 00 00 00	 call	 _atexit
  0076f	59		 pop	 ecx
  00770	8b 4d f4	 mov	 ecx, DWORD PTR __$EHRec$[ebp]
  00773	64 89 0d 00 00
	00 00		 mov	 DWORD PTR fs:__except_list, ecx
  0077a	c9		 leave
  0077b	c3		 ret	 0
text$yc	ENDS
;	COMDAT text$x
text$x	SEGMENT
$L104809:
  00000	b9 00 00 00 00	 mov	 ecx, OFFSET FLAT:_ModifyType2String
  00005	e9 00 00 00 00	 jmp	 ??1?$basic_string@DV?$char_traits@D@_STL@@V?$allocator@D@2@@_STL@@QAE@XZ ; _STL::basic_string<char,_STL::char_traits<char>,_STL::allocator<char> >::~basic_string<char,_STL::char_traits<char>,_STL::allocator<char> >
$L104810:
  0000a	b9 0c 00 00 00	 mov	 ecx, OFFSET FLAT:_ModifyType2String+12
  0000f	e9 00 00 00 00	 jmp	 ??1?$basic_string@DV?$char_traits@D@_STL@@V?$allocator@D@2@@_STL@@QAE@XZ ; _STL::basic_string<char,_STL::char_traits<char>,_STL::allocator<char> >::~basic_string<char,_STL::char_traits<char>,_STL::allocator<char> >
$L104811:
  00014	b9 18 00 00 00	 mov	 ecx, OFFSET FLAT:_ModifyType2String+24
  00019	e9 00 00 00 00	 jmp	 ??1?$basic_string@DV?$char_traits@D@_STL@@V?$allocator@D@2@@_STL@@QAE@XZ ; _STL::basic_string<char,_STL::char_traits<char>,_STL::allocator<char> >::~basic_string<char,_STL::char_traits<char>,_STL::allocator<char> >
$L104812:
  0001e	b9 24 00 00 00	 mov	 ecx, OFFSET FLAT:_ModifyType2String+36
  00023	e9 00 00 00 00	 jmp	 ??1?$basic_string@DV?$char_traits@D@_STL@@V?$allocator@D@2@@_STL@@QAE@XZ ; _STL::basic_string<char,_STL::char_traits<char>,_STL::allocator<char> >::~basic_string<char,_STL::char_traits<char>,_STL::allocator<char> >
$L104813:
  00028	b9 30 00 00 00	 mov	 ecx, OFFSET FLAT:_ModifyType2String+48
  0002d	e9 00 00 00 00	 jmp	 ??1?$basic_string@DV?$char_traits@D@_STL@@V?$allocator@D@2@@_STL@@QAE@XZ ; _STL::basic_string<char,_STL::char_traits<char>,_STL::allocator<char> >::~basic_string<char,_STL::char_traits<char>,_STL::allocator<char> >
$L104814:
  00032	b9 3c 00 00 00	 mov	 ecx, OFFSET FLAT:_ModifyType2String+60
  00037	e9 00 00 00 00	 jmp	 ??1?$basic_string@DV?$char_traits@D@_STL@@V?$allocator@D@2@@_STL@@QAE@XZ ; _STL::basic_string<char,_STL::char_traits<char>,_STL::allocator<char> >::~basic_string<char,_STL::char_traits<char>,_STL::allocator<char> >
$L104815:
  0003c	b9 48 00 00 00	 mov	 ecx, OFFSET FLAT:_ModifyType2String+72
  00041	e9 00 00 00 00	 jmp	 ??1?$basic_string@DV?$char_traits@D@_STL@@V?$allocator@D@2@@_STL@@QAE@XZ ; _STL::basic_string<char,_STL::char_traits<char>,_STL::allocator<char> >::~basic_string<char,_STL::char_traits<char>,_STL::allocator<char> >
$L104816:
  00046	b9 54 00 00 00	 mov	 ecx, OFFSET FLAT:_ModifyType2String+84
  0004b	e9 00 00 00 00	 jmp	 ??1?$basic_string@DV?$char_traits@D@_STL@@V?$allocator@D@2@@_STL@@QAE@XZ ; _STL::basic_string<char,_STL::char_traits<char>,_STL::allocator<char> >::~basic_string<char,_STL::char_traits<char>,_STL::allocator<char> >
$L104817:
  00050	b9 60 00 00 00	 mov	 ecx, OFFSET FLAT:_ModifyType2String+96
  00055	e9 00 00 00 00	 jmp	 ??1?$basic_string@DV?$char_traits@D@_STL@@V?$allocator@D@2@@_STL@@QAE@XZ ; _STL::basic_string<char,_STL::char_traits<char>,_STL::allocator<char> >::~basic_string<char,_STL::char_traits<char>,_STL::allocator<char> >
$L104818:
  0005a	b9 6c 00 00 00	 mov	 ecx, OFFSET FLAT:_ModifyType2String+108
  0005f	e9 00 00 00 00	 jmp	 ??1?$basic_string@DV?$char_traits@D@_STL@@V?$allocator@D@2@@_STL@@QAE@XZ ; _STL::basic_string<char,_STL::char_traits<char>,_STL::allocator<char> >::~basic_string<char,_STL::char_traits<char>,_STL::allocator<char> >
$L104819:
  00064	b9 78 00 00 00	 mov	 ecx, OFFSET FLAT:_ModifyType2String+120
  00069	e9 00 00 00 00	 jmp	 ??1?$basic_string@DV?$char_traits@D@_STL@@V?$allocator@D@2@@_STL@@QAE@XZ ; _STL::basic_string<char,_STL::char_traits<char>,_STL::allocator<char> >::~basic_string<char,_STL::char_traits<char>,_STL::allocator<char> >
$L104820:
  0006e	b9 84 00 00 00	 mov	 ecx, OFFSET FLAT:_ModifyType2String+132
  00073	e9 00 00 00 00	 jmp	 ??1?$basic_string@DV?$char_traits@D@_STL@@V?$allocator@D@2@@_STL@@QAE@XZ ; _STL::basic_string<char,_STL::char_traits<char>,_STL::allocator<char> >::~basic_string<char,_STL::char_traits<char>,_STL::allocator<char> >
$L104821:
  00078	b9 90 00 00 00	 mov	 ecx, OFFSET FLAT:_ModifyType2String+144
  0007d	e9 00 00 00 00	 jmp	 ??1?$basic_string@DV?$char_traits@D@_STL@@V?$allocator@D@2@@_STL@@QAE@XZ ; _STL::basic_string<char,_STL::char_traits<char>,_STL::allocator<char> >::~basic_string<char,_STL::char_traits<char>,_STL::allocator<char> >
$L104822:
  00082	b9 9c 00 00 00	 mov	 ecx, OFFSET FLAT:_ModifyType2String+156
  00087	e9 00 00 00 00	 jmp	 ??1?$basic_string@DV?$char_traits@D@_STL@@V?$allocator@D@2@@_STL@@QAE@XZ ; _STL::basic_string<char,_STL::char_traits<char>,_STL::allocator<char> >::~basic_string<char,_STL::char_traits<char>,_STL::allocator<char> >
$L104823:
  0008c	b9 a8 00 00 00	 mov	 ecx, OFFSET FLAT:_ModifyType2String+168
  00091	e9 00 00 00 00	 jmp	 ??1?$basic_string@DV?$char_traits@D@_STL@@V?$allocator@D@2@@_STL@@QAE@XZ ; _STL::basic_string<char,_STL::char_traits<char>,_STL::allocator<char> >::~basic_string<char,_STL::char_traits<char>,_STL::allocator<char> >
$L104824:
  00096	b9 b4 00 00 00	 mov	 ecx, OFFSET FLAT:_ModifyType2String+180
  0009b	e9 00 00 00 00	 jmp	 ??1?$basic_string@DV?$char_traits@D@_STL@@V?$allocator@D@2@@_STL@@QAE@XZ ; _STL::basic_string<char,_STL::char_traits<char>,_STL::allocator<char> >::~basic_string<char,_STL::char_traits<char>,_STL::allocator<char> >
$L104825:
  000a0	b9 c0 00 00 00	 mov	 ecx, OFFSET FLAT:_ModifyType2String+192
  000a5	e9 00 00 00 00	 jmp	 ??1?$basic_string@DV?$char_traits@D@_STL@@V?$allocator@D@2@@_STL@@QAE@XZ ; _STL::basic_string<char,_STL::char_traits<char>,_STL::allocator<char> >::~basic_string<char,_STL::char_traits<char>,_STL::allocator<char> >
$L104826:
  000aa	b9 cc 00 00 00	 mov	 ecx, OFFSET FLAT:_ModifyType2String+204
  000af	e9 00 00 00 00	 jmp	 ??1?$basic_string@DV?$char_traits@D@_STL@@V?$allocator@D@2@@_STL@@QAE@XZ ; _STL::basic_string<char,_STL::char_traits<char>,_STL::allocator<char> >::~basic_string<char,_STL::char_traits<char>,_STL::allocator<char> >
$L104827:
  000b4	b9 d8 00 00 00	 mov	 ecx, OFFSET FLAT:_ModifyType2String+216
  000b9	e9 00 00 00 00	 jmp	 ??1?$basic_string@DV?$char_traits@D@_STL@@V?$allocator@D@2@@_STL@@QAE@XZ ; _STL::basic_string<char,_STL::char_traits<char>,_STL::allocator<char> >::~basic_string<char,_STL::char_traits<char>,_STL::allocator<char> >
$L104828:
  000be	b9 e4 00 00 00	 mov	 ecx, OFFSET FLAT:_ModifyType2String+228
  000c3	e9 00 00 00 00	 jmp	 ??1?$basic_string@DV?$char_traits@D@_STL@@V?$allocator@D@2@@_STL@@QAE@XZ ; _STL::basic_string<char,_STL::char_traits<char>,_STL::allocator<char> >::~basic_string<char,_STL::char_traits<char>,_STL::allocator<char> >
$L104829:
  000c8	b9 f0 00 00 00	 mov	 ecx, OFFSET FLAT:_ModifyType2String+240
  000cd	e9 00 00 00 00	 jmp	 ??1?$basic_string@DV?$char_traits@D@_STL@@V?$allocator@D@2@@_STL@@QAE@XZ ; _STL::basic_string<char,_STL::char_traits<char>,_STL::allocator<char> >::~basic_string<char,_STL::char_traits<char>,_STL::allocator<char> >
$L104830:
  000d2	b9 fc 00 00 00	 mov	 ecx, OFFSET FLAT:_ModifyType2String+252
  000d7	e9 00 00 00 00	 jmp	 ??1?$basic_string@DV?$char_traits@D@_STL@@V?$allocator@D@2@@_STL@@QAE@XZ ; _STL::basic_string<char,_STL::char_traits<char>,_STL::allocator<char> >::~basic_string<char,_STL::char_traits<char>,_STL::allocator<char> >
$L104831:
  000dc	b9 08 01 00 00	 mov	 ecx, OFFSET FLAT:_ModifyType2String+264
  000e1	e9 00 00 00 00	 jmp	 ??1?$basic_string@DV?$char_traits@D@_STL@@V?$allocator@D@2@@_STL@@QAE@XZ ; _STL::basic_string<char,_STL::char_traits<char>,_STL::allocator<char> >::~basic_string<char,_STL::char_traits<char>,_STL::allocator<char> >
$L104832:
  000e6	b9 14 01 00 00	 mov	 ecx, OFFSET FLAT:_ModifyType2String+276
  000eb	e9 00 00 00 00	 jmp	 ??1?$basic_string@DV?$char_traits@D@_STL@@V?$allocator@D@2@@_STL@@QAE@XZ ; _STL::basic_string<char,_STL::char_traits<char>,_STL::allocator<char> >::~basic_string<char,_STL::char_traits<char>,_STL::allocator<char> >
$L104833:
  000f0	b9 20 01 00 00	 mov	 ecx, OFFSET FLAT:_ModifyType2String+288
  000f5	e9 00 00 00 00	 jmp	 ??1?$basic_string@DV?$char_traits@D@_STL@@V?$allocator@D@2@@_STL@@QAE@XZ ; _STL::basic_string<char,_STL::char_traits<char>,_STL::allocator<char> >::~basic_string<char,_STL::char_traits<char>,_STL::allocator<char> >
$L104834:
  000fa	b9 2c 01 00 00	 mov	 ecx, OFFSET FLAT:_ModifyType2String+300
  000ff	e9 00 00 00 00	 jmp	 ??1?$basic_string@DV?$char_traits@D@_STL@@V?$allocator@D@2@@_STL@@QAE@XZ ; _STL::basic_string<char,_STL::char_traits<char>,_STL::allocator<char> >::~basic_string<char,_STL::char_traits<char>,_STL::allocator<char> >
$L104835:
  00104	b9 38 01 00 00	 mov	 ecx, OFFSET FLAT:_ModifyType2String+312
  00109	e9 00 00 00 00	 jmp	 ??1?$basic_string@DV?$char_traits@D@_STL@@V?$allocator@D@2@@_STL@@QAE@XZ ; _STL::basic_string<char,_STL::char_traits<char>,_STL::allocator<char> >::~basic_string<char,_STL::char_traits<char>,_STL::allocator<char> >
$L104836:
  0010e	b9 44 01 00 00	 mov	 ecx, OFFSET FLAT:_ModifyType2String+324
  00113	e9 00 00 00 00	 jmp	 ??1?$basic_string@DV?$char_traits@D@_STL@@V?$allocator@D@2@@_STL@@QAE@XZ ; _STL::basic_string<char,_STL::char_traits<char>,_STL::allocator<char> >::~basic_string<char,_STL::char_traits<char>,_STL::allocator<char> >
$L104837:
  00118	b9 50 01 00 00	 mov	 ecx, OFFSET FLAT:_ModifyType2String+336
  0011d	e9 00 00 00 00	 jmp	 ??1?$basic_string@DV?$char_traits@D@_STL@@V?$allocator@D@2@@_STL@@QAE@XZ ; _STL::basic_string<char,_STL::char_traits<char>,_STL::allocator<char> >::~basic_string<char,_STL::char_traits<char>,_STL::allocator<char> >
$L104838:
  00122	b9 5c 01 00 00	 mov	 ecx, OFFSET FLAT:_ModifyType2String+348
  00127	e9 00 00 00 00	 jmp	 ??1?$basic_string@DV?$char_traits@D@_STL@@V?$allocator@D@2@@_STL@@QAE@XZ ; _STL::basic_string<char,_STL::char_traits<char>,_STL::allocator<char> >::~basic_string<char,_STL::char_traits<char>,_STL::allocator<char> >
$L104839:
  0012c	b9 68 01 00 00	 mov	 ecx, OFFSET FLAT:_ModifyType2String+360
  00131	e9 00 00 00 00	 jmp	 ??1?$basic_string@DV?$char_traits@D@_STL@@V?$allocator@D@2@@_STL@@QAE@XZ ; _STL::basic_string<char,_STL::char_traits<char>,_STL::allocator<char> >::~basic_string<char,_STL::char_traits<char>,_STL::allocator<char> >
$L104840:
  00136	b9 74 01 00 00	 mov	 ecx, OFFSET FLAT:_ModifyType2String+372
  0013b	e9 00 00 00 00	 jmp	 ??1?$basic_string@DV?$char_traits@D@_STL@@V?$allocator@D@2@@_STL@@QAE@XZ ; _STL::basic_string<char,_STL::char_traits<char>,_STL::allocator<char> >::~basic_string<char,_STL::char_traits<char>,_STL::allocator<char> >
$L104841:
  00140	b9 80 01 00 00	 mov	 ecx, OFFSET FLAT:_ModifyType2String+384
  00145	e9 00 00 00 00	 jmp	 ??1?$basic_string@DV?$char_traits@D@_STL@@V?$allocator@D@2@@_STL@@QAE@XZ ; _STL::basic_string<char,_STL::char_traits<char>,_STL::allocator<char> >::~basic_string<char,_STL::char_traits<char>,_STL::allocator<char> >
$L104842:
  0014a	b9 8c 01 00 00	 mov	 ecx, OFFSET FLAT:_ModifyType2String+396
  0014f	e9 00 00 00 00	 jmp	 ??1?$basic_string@DV?$char_traits@D@_STL@@V?$allocator@D@2@@_STL@@QAE@XZ ; _STL::basic_string<char,_STL::char_traits<char>,_STL::allocator<char> >::~basic_string<char,_STL::char_traits<char>,_STL::allocator<char> >
$L104843:
  00154	b9 98 01 00 00	 mov	 ecx, OFFSET FLAT:_ModifyType2String+408
  00159	e9 00 00 00 00	 jmp	 ??1?$basic_string@DV?$char_traits@D@_STL@@V?$allocator@D@2@@_STL@@QAE@XZ ; _STL::basic_string<char,_STL::char_traits<char>,_STL::allocator<char> >::~basic_string<char,_STL::char_traits<char>,_STL::allocator<char> >
$L104844:
  0015e	b9 a4 01 00 00	 mov	 ecx, OFFSET FLAT:_ModifyType2String+420
  00163	e9 00 00 00 00	 jmp	 ??1?$basic_string@DV?$char_traits@D@_STL@@V?$allocator@D@2@@_STL@@QAE@XZ ; _STL::basic_string<char,_STL::char_traits<char>,_STL::allocator<char> >::~basic_string<char,_STL::char_traits<char>,_STL::allocator<char> >
$L104845:
  00168	b9 b0 01 00 00	 mov	 ecx, OFFSET FLAT:_ModifyType2String+432
  0016d	e9 00 00 00 00	 jmp	 ??1?$basic_string@DV?$char_traits@D@_STL@@V?$allocator@D@2@@_STL@@QAE@XZ ; _STL::basic_string<char,_STL::char_traits<char>,_STL::allocator<char> >::~basic_string<char,_STL::char_traits<char>,_STL::allocator<char> >
$L104846:
  00172	b9 bc 01 00 00	 mov	 ecx, OFFSET FLAT:_ModifyType2String+444
  00177	e9 00 00 00 00	 jmp	 ??1?$basic_string@DV?$char_traits@D@_STL@@V?$allocator@D@2@@_STL@@QAE@XZ ; _STL::basic_string<char,_STL::char_traits<char>,_STL::allocator<char> >::~basic_string<char,_STL::char_traits<char>,_STL::allocator<char> >
$L104847:
  0017c	b9 c8 01 00 00	 mov	 ecx, OFFSET FLAT:_ModifyType2String+456
  00181	e9 00 00 00 00	 jmp	 ??1?$basic_string@DV?$char_traits@D@_STL@@V?$allocator@D@2@@_STL@@QAE@XZ ; _STL::basic_string<char,_STL::char_traits<char>,_STL::allocator<char> >::~basic_string<char,_STL::char_traits<char>,_STL::allocator<char> >
$L104848:
  00186	b9 d4 01 00 00	 mov	 ecx, OFFSET FLAT:_ModifyType2String+468
  0018b	e9 00 00 00 00	 jmp	 ??1?$basic_string@DV?$char_traits@D@_STL@@V?$allocator@D@2@@_STL@@QAE@XZ ; _STL::basic_string<char,_STL::char_traits<char>,_STL::allocator<char> >::~basic_string<char,_STL::char_traits<char>,_STL::allocator<char> >
$L104849:
  00190	b9 e0 01 00 00	 mov	 ecx, OFFSET FLAT:_ModifyType2String+480
  00195	e9 00 00 00 00	 jmp	 ??1?$basic_string@DV?$char_traits@D@_STL@@V?$allocator@D@2@@_STL@@QAE@XZ ; _STL::basic_string<char,_STL::char_traits<char>,_STL::allocator<char> >::~basic_string<char,_STL::char_traits<char>,_STL::allocator<char> >
$L104850:
  0019a	b9 ec 01 00 00	 mov	 ecx, OFFSET FLAT:_ModifyType2String+492
  0019f	e9 00 00 00 00	 jmp	 ??1?$basic_string@DV?$char_traits@D@_STL@@V?$allocator@D@2@@_STL@@QAE@XZ ; _STL::basic_string<char,_STL::char_traits<char>,_STL::allocator<char> >::~basic_string<char,_STL::char_traits<char>,_STL::allocator<char> >
$L104851:
  001a4	b9 f8 01 00 00	 mov	 ecx, OFFSET FLAT:_ModifyType2String+504
  001a9	e9 00 00 00 00	 jmp	 ??1?$basic_string@DV?$char_traits@D@_STL@@V?$allocator@D@2@@_STL@@QAE@XZ ; _STL::basic_string<char,_STL::char_traits<char>,_STL::allocator<char> >::~basic_string<char,_STL::char_traits<char>,_STL::allocator<char> >
$L104852:
  001ae	b9 04 02 00 00	 mov	 ecx, OFFSET FLAT:_ModifyType2String+516
  001b3	e9 00 00 00 00	 jmp	 ??1?$basic_string@DV?$char_traits@D@_STL@@V?$allocator@D@2@@_STL@@QAE@XZ ; _STL::basic_string<char,_STL::char_traits<char>,_STL::allocator<char> >::~basic_string<char,_STL::char_traits<char>,_STL::allocator<char> >
$L104853:
  001b8	b9 10 02 00 00	 mov	 ecx, OFFSET FLAT:_ModifyType2String+528
  001bd	e9 00 00 00 00	 jmp	 ??1?$basic_string@DV?$char_traits@D@_STL@@V?$allocator@D@2@@_STL@@QAE@XZ ; _STL::basic_string<char,_STL::char_traits<char>,_STL::allocator<char> >::~basic_string<char,_STL::char_traits<char>,_STL::allocator<char> >
$L104854:
  001c2	b9 1c 02 00 00	 mov	 ecx, OFFSET FLAT:_ModifyType2String+540
  001c7	e9 00 00 00 00	 jmp	 ??1?$basic_string@DV?$char_traits@D@_STL@@V?$allocator@D@2@@_STL@@QAE@XZ ; _STL::basic_string<char,_STL::char_traits<char>,_STL::allocator<char> >::~basic_string<char,_STL::char_traits<char>,_STL::allocator<char> >
$L104855:
  001cc	b9 28 02 00 00	 mov	 ecx, OFFSET FLAT:_ModifyType2String+552
  001d1	e9 00 00 00 00	 jmp	 ??1?$basic_string@DV?$char_traits@D@_STL@@V?$allocator@D@2@@_STL@@QAE@XZ ; _STL::basic_string<char,_STL::char_traits<char>,_STL::allocator<char> >::~basic_string<char,_STL::char_traits<char>,_STL::allocator<char> >
$L104856:
  001d6	b9 34 02 00 00	 mov	 ecx, OFFSET FLAT:_ModifyType2String+564
  001db	e9 00 00 00 00	 jmp	 ??1?$basic_string@DV?$char_traits@D@_STL@@V?$allocator@D@2@@_STL@@QAE@XZ ; _STL::basic_string<char,_STL::char_traits<char>,_STL::allocator<char> >::~basic_string<char,_STL::char_traits<char>,_STL::allocator<char> >
$L104857:
  001e0	b9 40 02 00 00	 mov	 ecx, OFFSET FLAT:_ModifyType2String+576
  001e5	e9 00 00 00 00	 jmp	 ??1?$basic_string@DV?$char_traits@D@_STL@@V?$allocator@D@2@@_STL@@QAE@XZ ; _STL::basic_string<char,_STL::char_traits<char>,_STL::allocator<char> >::~basic_string<char,_STL::char_traits<char>,_STL::allocator<char> >
$L104858:
  001ea	b9 4c 02 00 00	 mov	 ecx, OFFSET FLAT:_ModifyType2String+588
  001ef	e9 00 00 00 00	 jmp	 ??1?$basic_string@DV?$char_traits@D@_STL@@V?$allocator@D@2@@_STL@@QAE@XZ ; _STL::basic_string<char,_STL::char_traits<char>,_STL::allocator<char> >::~basic_string<char,_STL::char_traits<char>,_STL::allocator<char> >
$L104859:
  001f4	b9 58 02 00 00	 mov	 ecx, OFFSET FLAT:_ModifyType2String+600
  001f9	e9 00 00 00 00	 jmp	 ??1?$basic_string@DV?$char_traits@D@_STL@@V?$allocator@D@2@@_STL@@QAE@XZ ; _STL::basic_string<char,_STL::char_traits<char>,_STL::allocator<char> >::~basic_string<char,_STL::char_traits<char>,_STL::allocator<char> >
$L104860:
  001fe	b9 64 02 00 00	 mov	 ecx, OFFSET FLAT:_ModifyType2String+612
  00203	e9 00 00 00 00	 jmp	 ??1?$basic_string@DV?$char_traits@D@_STL@@V?$allocator@D@2@@_STL@@QAE@XZ ; _STL::basic_string<char,_STL::char_traits<char>,_STL::allocator<char> >::~basic_string<char,_STL::char_traits<char>,_STL::allocator<char> >
$L104861:
  00208	b9 70 02 00 00	 mov	 ecx, OFFSET FLAT:_ModifyType2String+624
  0020d	e9 00 00 00 00	 jmp	 ??1?$basic_string@DV?$char_traits@D@_STL@@V?$allocator@D@2@@_STL@@QAE@XZ ; _STL::basic_string<char,_STL::char_traits<char>,_STL::allocator<char> >::~basic_string<char,_STL::char_traits<char>,_STL::allocator<char> >
$L104862:
  00212	b9 7c 02 00 00	 mov	 ecx, OFFSET FLAT:_ModifyType2String+636
  00217	e9 00 00 00 00	 jmp	 ??1?$basic_string@DV?$char_traits@D@_STL@@V?$allocator@D@2@@_STL@@QAE@XZ ; _STL::basic_string<char,_STL::char_traits<char>,_STL::allocator<char> >::~basic_string<char,_STL::char_traits<char>,_STL::allocator<char> >
$L104863:
  0021c	b9 88 02 00 00	 mov	 ecx, OFFSET FLAT:_ModifyType2String+648
  00221	e9 00 00 00 00	 jmp	 ??1?$basic_string@DV?$char_traits@D@_STL@@V?$allocator@D@2@@_STL@@QAE@XZ ; _STL::basic_string<char,_STL::char_traits<char>,_STL::allocator<char> >::~basic_string<char,_STL::char_traits<char>,_STL::allocator<char> >
$L104864:
  00226	b9 94 02 00 00	 mov	 ecx, OFFSET FLAT:_ModifyType2String+660
  0022b	e9 00 00 00 00	 jmp	 ??1?$basic_string@DV?$char_traits@D@_STL@@V?$allocator@D@2@@_STL@@QAE@XZ ; _STL::basic_string<char,_STL::char_traits<char>,_STL::allocator<char> >::~basic_string<char,_STL::char_traits<char>,_STL::allocator<char> >
$L104865:
  00230	b9 a0 02 00 00	 mov	 ecx, OFFSET FLAT:_ModifyType2String+672
  00235	e9 00 00 00 00	 jmp	 ??1?$basic_string@DV?$char_traits@D@_STL@@V?$allocator@D@2@@_STL@@QAE@XZ ; _STL::basic_string<char,_STL::char_traits<char>,_STL::allocator<char> >::~basic_string<char,_STL::char_traits<char>,_STL::allocator<char> >
$L104866:
  0023a	b9 ac 02 00 00	 mov	 ecx, OFFSET FLAT:_ModifyType2String+684
  0023f	e9 00 00 00 00	 jmp	 ??1?$basic_string@DV?$char_traits@D@_STL@@V?$allocator@D@2@@_STL@@QAE@XZ ; _STL::basic_string<char,_STL::char_traits<char>,_STL::allocator<char> >::~basic_string<char,_STL::char_traits<char>,_STL::allocator<char> >
$L104867:
  00244	b9 b8 02 00 00	 mov	 ecx, OFFSET FLAT:_ModifyType2String+696
  00249	e9 00 00 00 00	 jmp	 ??1?$basic_string@DV?$char_traits@D@_STL@@V?$allocator@D@2@@_STL@@QAE@XZ ; _STL::basic_string<char,_STL::char_traits<char>,_STL::allocator<char> >::~basic_string<char,_STL::char_traits<char>,_STL::allocator<char> >
$L104868:
  0024e	b9 c4 02 00 00	 mov	 ecx, OFFSET FLAT:_ModifyType2String+708
  00253	e9 00 00 00 00	 jmp	 ??1?$basic_string@DV?$char_traits@D@_STL@@V?$allocator@D@2@@_STL@@QAE@XZ ; _STL::basic_string<char,_STL::char_traits<char>,_STL::allocator<char> >::~basic_string<char,_STL::char_traits<char>,_STL::allocator<char> >
$L104869:
  00258	b9 d0 02 00 00	 mov	 ecx, OFFSET FLAT:_ModifyType2String+720
  0025d	e9 00 00 00 00	 jmp	 ??1?$basic_string@DV?$char_traits@D@_STL@@V?$allocator@D@2@@_STL@@QAE@XZ ; _STL::basic_string<char,_STL::char_traits<char>,_STL::allocator<char> >::~basic_string<char,_STL::char_traits<char>,_STL::allocator<char> >
$L104870:
  00262	b9 dc 02 00 00	 mov	 ecx, OFFSET FLAT:_ModifyType2String+732
  00267	e9 00 00 00 00	 jmp	 ??1?$basic_string@DV?$char_traits@D@_STL@@V?$allocator@D@2@@_STL@@QAE@XZ ; _STL::basic_string<char,_STL::char_traits<char>,_STL::allocator<char> >::~basic_string<char,_STL::char_traits<char>,_STL::allocator<char> >
$L104871:
  0026c	b9 e8 02 00 00	 mov	 ecx, OFFSET FLAT:_ModifyType2String+744
  00271	e9 00 00 00 00	 jmp	 ??1?$basic_string@DV?$char_traits@D@_STL@@V?$allocator@D@2@@_STL@@QAE@XZ ; _STL::basic_string<char,_STL::char_traits<char>,_STL::allocator<char> >::~basic_string<char,_STL::char_traits<char>,_STL::allocator<char> >
$L104872:
  00276	b9 f4 02 00 00	 mov	 ecx, OFFSET FLAT:_ModifyType2String+756
  0027b	e9 00 00 00 00	 jmp	 ??1?$basic_string@DV?$char_traits@D@_STL@@V?$allocator@D@2@@_STL@@QAE@XZ ; _STL::basic_string<char,_STL::char_traits<char>,_STL::allocator<char> >::~basic_string<char,_STL::char_traits<char>,_STL::allocator<char> >
$L104873:
  00280	b9 00 03 00 00	 mov	 ecx, OFFSET FLAT:_ModifyType2String+768
  00285	e9 00 00 00 00	 jmp	 ??1?$basic_string@DV?$char_traits@D@_STL@@V?$allocator@D@2@@_STL@@QAE@XZ ; _STL::basic_string<char,_STL::char_traits<char>,_STL::allocator<char> >::~basic_string<char,_STL::char_traits<char>,_STL::allocator<char> >
$L104874:
  0028a	b9 0c 03 00 00	 mov	 ecx, OFFSET FLAT:_ModifyType2String+780
  0028f	e9 00 00 00 00	 jmp	 ??1?$basic_string@DV?$char_traits@D@_STL@@V?$allocator@D@2@@_STL@@QAE@XZ ; _STL::basic_string<char,_STL::char_traits<char>,_STL::allocator<char> >::~basic_string<char,_STL::char_traits<char>,_STL::allocator<char> >
$L104875:
  00294	b9 18 03 00 00	 mov	 ecx, OFFSET FLAT:_ModifyType2String+792
  00299	e9 00 00 00 00	 jmp	 ??1?$basic_string@DV?$char_traits@D@_STL@@V?$allocator@D@2@@_STL@@QAE@XZ ; _STL::basic_string<char,_STL::char_traits<char>,_STL::allocator<char> >::~basic_string<char,_STL::char_traits<char>,_STL::allocator<char> >
$L104876:
  0029e	b9 24 03 00 00	 mov	 ecx, OFFSET FLAT:_ModifyType2String+804
  002a3	e9 00 00 00 00	 jmp	 ??1?$basic_string@DV?$char_traits@D@_STL@@V?$allocator@D@2@@_STL@@QAE@XZ ; _STL::basic_string<char,_STL::char_traits<char>,_STL::allocator<char> >::~basic_string<char,_STL::char_traits<char>,_STL::allocator<char> >
$L104877:
  002a8	b9 30 03 00 00	 mov	 ecx, OFFSET FLAT:_ModifyType2String+816
  002ad	e9 00 00 00 00	 jmp	 ??1?$basic_string@DV?$char_traits@D@_STL@@V?$allocator@D@2@@_STL@@QAE@XZ ; _STL::basic_string<char,_STL::char_traits<char>,_STL::allocator<char> >::~basic_string<char,_STL::char_traits<char>,_STL::allocator<char> >
$L104878:
  002b2	b9 3c 03 00 00	 mov	 ecx, OFFSET FLAT:_ModifyType2String+828
  002b7	e9 00 00 00 00	 jmp	 ??1?$basic_string@DV?$char_traits@D@_STL@@V?$allocator@D@2@@_STL@@QAE@XZ ; _STL::basic_string<char,_STL::char_traits<char>,_STL::allocator<char> >::~basic_string<char,_STL::char_traits<char>,_STL::allocator<char> >
$L104879:
  002bc	b9 48 03 00 00	 mov	 ecx, OFFSET FLAT:_ModifyType2String+840
  002c1	e9 00 00 00 00	 jmp	 ??1?$basic_string@DV?$char_traits@D@_STL@@V?$allocator@D@2@@_STL@@QAE@XZ ; _STL::basic_string<char,_STL::char_traits<char>,_STL::allocator<char> >::~basic_string<char,_STL::char_traits<char>,_STL::allocator<char> >
$L104880:
  002c6	b9 54 03 00 00	 mov	 ecx, OFFSET FLAT:_ModifyType2String+852
  002cb	e9 00 00 00 00	 jmp	 ??1?$basic_string@DV?$char_traits@D@_STL@@V?$allocator@D@2@@_STL@@QAE@XZ ; _STL::basic_string<char,_STL::char_traits<char>,_STL::allocator<char> >::~basic_string<char,_STL::char_traits<char>,_STL::allocator<char> >
$L104881:
  002d0	b9 60 03 00 00	 mov	 ecx, OFFSET FLAT:_ModifyType2String+864
  002d5	e9 00 00 00 00	 jmp	 ??1?$basic_string@DV?$char_traits@D@_STL@@V?$allocator@D@2@@_STL@@QAE@XZ ; _STL::basic_string<char,_STL::char_traits<char>,_STL::allocator<char> >::~basic_string<char,_STL::char_traits<char>,_STL::allocator<char> >
$L104882:
  002da	b9 6c 03 00 00	 mov	 ecx, OFFSET FLAT:_ModifyType2String+876
  002df	e9 00 00 00 00	 jmp	 ??1?$basic_string@DV?$char_traits@D@_STL@@V?$allocator@D@2@@_STL@@QAE@XZ ; _STL::basic_string<char,_STL::char_traits<char>,_STL::allocator<char> >::~basic_string<char,_STL::char_traits<char>,_STL::allocator<char> >
$L104883:
  002e4	b9 78 03 00 00	 mov	 ecx, OFFSET FLAT:_ModifyType2String+888
  002e9	e9 00 00 00 00	 jmp	 ??1?$basic_string@DV?$char_traits@D@_STL@@V?$allocator@D@2@@_STL@@QAE@XZ ; _STL::basic_string<char,_STL::char_traits<char>,_STL::allocator<char> >::~basic_string<char,_STL::char_traits<char>,_STL::allocator<char> >
$L104884:
  002ee	b9 84 03 00 00	 mov	 ecx, OFFSET FLAT:_ModifyType2String+900
  002f3	e9 00 00 00 00	 jmp	 ??1?$basic_string@DV?$char_traits@D@_STL@@V?$allocator@D@2@@_STL@@QAE@XZ ; _STL::basic_string<char,_STL::char_traits<char>,_STL::allocator<char> >::~basic_string<char,_STL::char_traits<char>,_STL::allocator<char> >
$L104885:
  002f8	b9 90 03 00 00	 mov	 ecx, OFFSET FLAT:_ModifyType2String+912
  002fd	e9 00 00 00 00	 jmp	 ??1?$basic_string@DV?$char_traits@D@_STL@@V?$allocator@D@2@@_STL@@QAE@XZ ; _STL::basic_string<char,_STL::char_traits<char>,_STL::allocator<char> >::~basic_string<char,_STL::char_traits<char>,_STL::allocator<char> >
$L104886:
  00302	b9 9c 03 00 00	 mov	 ecx, OFFSET FLAT:_ModifyType2String+924
  00307	e9 00 00 00 00	 jmp	 ??1?$basic_string@DV?$char_traits@D@_STL@@V?$allocator@D@2@@_STL@@QAE@XZ ; _STL::basic_string<char,_STL::char_traits<char>,_STL::allocator<char> >::~basic_string<char,_STL::char_traits<char>,_STL::allocator<char> >
$L104887:
  0030c	b9 a8 03 00 00	 mov	 ecx, OFFSET FLAT:_ModifyType2String+936
  00311	e9 00 00 00 00	 jmp	 ??1?$basic_string@DV?$char_traits@D@_STL@@V?$allocator@D@2@@_STL@@QAE@XZ ; _STL::basic_string<char,_STL::char_traits<char>,_STL::allocator<char> >::~basic_string<char,_STL::char_traits<char>,_STL::allocator<char> >
$L104888:
  00316	b9 b4 03 00 00	 mov	 ecx, OFFSET FLAT:_ModifyType2String+948
  0031b	e9 00 00 00 00	 jmp	 ??1?$basic_string@DV?$char_traits@D@_STL@@V?$allocator@D@2@@_STL@@QAE@XZ ; _STL::basic_string<char,_STL::char_traits<char>,_STL::allocator<char> >::~basic_string<char,_STL::char_traits<char>,_STL::allocator<char> >
$L104889:
  00320	b9 c0 03 00 00	 mov	 ecx, OFFSET FLAT:_ModifyType2String+960
  00325	e9 00 00 00 00	 jmp	 ??1?$basic_string@DV?$char_traits@D@_STL@@V?$allocator@D@2@@_STL@@QAE@XZ ; _STL::basic_string<char,_STL::char_traits<char>,_STL::allocator<char> >::~basic_string<char,_STL::char_traits<char>,_STL::allocator<char> >
__ehhandler$_$E79:
  0032a	b8 00 00 00 00	 mov	 eax, OFFSET FLAT:$T105384
  0032f	e9 00 00 00 00	 jmp	 ___CxxFrameHandler
text$x	ENDS
_$E79	ENDP
EXTRN	??_M@YGXPAXIHP6EX0@Z@Z:NEAR			; `eh vector destructor iterator'
; Function compile flags: /Ogsy
;	COMDAT _$E80
text$yd	SEGMENT
_$E80	PROC NEAR					; COMDAT
  00000	68 00 00 00 00	 push	 OFFSET FLAT:??1?$basic_string@DV?$char_traits@D@_STL@@V?$allocator@D@2@@_STL@@QAE@XZ ; _STL::basic_string<char,_STL::char_traits<char>,_STL::allocator<char> >::~basic_string<char,_STL::char_traits<char>,_STL::allocator<char> >
  00005	6a 52		 push	 82			; 00000052H
  00007	6a 0c		 push	 12			; 0000000cH
  00009	68 00 00 00 00	 push	 OFFSET FLAT:_ModifyType2String
  0000e	e8 00 00 00 00	 call	 ??_M@YGXPAXIHP6EX0@Z@Z
  00013	c3		 ret	 0
_$E80	ENDP
text$yd	ENDS
_BSS	SEGMENT
_ModifyType2String DB 03d8H DUP (?)
_BSS	ENDS
END
