; Listing generated by Microsoft (R) Optimizing Compiler Version 13.10.3077 

	TITLE	\darkeden\Designed_Common\Project\Client\MPortal.cpp
	.386P
include listing.inc
if @Version gt 510
.model FLAT
else
_TEXT	SEGMENT PARA USE32 PUBLIC 'CODE'
_TEXT	ENDS
_DATA	SEGMENT DWORD USE32 PUBLIC 'DATA'
_DATA	ENDS
CONST	SEGMENT DWORD USE32 PUBLIC 'CONST'
CONST	ENDS
_BSS	SEGMENT DWORD USE32 PUBLIC 'BSS'
_BSS	ENDS
$$SYMBOLS	SEGMENT BYTE USE32 'DEBSYM'
$$SYMBOLS	ENDS
$$TYPES	SEGMENT BYTE USE32 'DEBTYP'
$$TYPES	ENDS
_TLS	SEGMENT DWORD USE32 PUBLIC 'TLS'
_TLS	ENDS
;	COMDAT ??_C@_0BN@ODLNCKCA@Data?2?2Info?2?2ClientConfig?4inf?$AA@
CONST	SEGMENT DWORD USE32 PUBLIC 'CONST'
CONST	ENDS
;	COMDAT ??_C@_0BM@DFPLPGPC@Data?2?2Info?2?2GuildMapper?4inf?$AA@
CONST	SEGMENT DWORD USE32 PUBLIC 'CONST'
CONST	ENDS
;	COMDAT ??_C@_0BN@LHODHNBK@Data?2?2Info?2?2GuildVersion?4inf?$AA@
CONST	SEGMENT DWORD USE32 PUBLIC 'CONST'
CONST	ENDS
;	COMDAT ??_C@_0BH@DDPLNCOL@Data?2?2Info?2?2Player?4inf?$AA@
CONST	SEGMENT DWORD USE32 PUBLIC 'CONST'
CONST	ENDS
;	COMDAT ??_C@_0BL@ILLNAPHB@Data?2?2Info?2?2Resolution?4inf?$AA@
CONST	SEGMENT DWORD USE32 PUBLIC 'CONST'
CONST	ENDS
;	COMDAT ??_C@_0CA@HEIGFDLG@Data?2?2Info?2?2SelectedChannel?4inf?$AA@
CONST	SEGMENT DWORD USE32 PUBLIC 'CONST'
CONST	ENDS
;	COMDAT ??_C@_0N@GOPDCEEB@basic_string?$AA@
CONST	SEGMENT DWORD USE32 PUBLIC 'CONST'
CONST	ENDS
rdata$r	SEGMENT DWORD USE32 PUBLIC 'CONST'
rdata$r	ENDS
text$yc	SEGMENT PARA USE32 PUBLIC 'CODE'
text$yc	ENDS
CRT$XCA	SEGMENT DWORD USE32 PUBLIC 'DATA'
CRT$XCA	ENDS
CRT$XCU	SEGMENT DWORD USE32 PUBLIC 'DATA'
CRT$XCU	ENDS
CRT$XCL	SEGMENT DWORD USE32 PUBLIC 'DATA'
CRT$XCL	ENDS
CRT$XCC	SEGMENT DWORD USE32 PUBLIC 'DATA'
CRT$XCC	ENDS
CRT$XCZ	SEGMENT DWORD USE32 PUBLIC 'DATA'
CRT$XCZ	ENDS
text$yd	SEGMENT PARA USE32 PUBLIC 'CODE'
text$yd	ENDS
;	COMDAT ?start@CNFS@@QAE_NPADH@Z
_TEXT	SEGMENT PARA USE32 PUBLIC 'CODE'
_TEXT	ENDS
;	COMDAT ?end@CNFS@@QAEXXZ
_TEXT	SEGMENT PARA USE32 PUBLIC 'CODE'
_TEXT	ENDS
;	COMDAT ?Init@VirtualFileHeader@@QAEXXZ
_TEXT	SEGMENT PARA USE32 PUBLIC 'CODE'
_TEXT	ENDS
;	COMDAT ??1IFileIO@@UAE@XZ
_TEXT	SEGMENT PARA USE32 PUBLIC 'CODE'
_TEXT	ENDS
;	COMDAT ??_GIFileIO@@UAEPAXI@Z
_TEXT	SEGMENT PARA USE32 PUBLIC 'CODE'
_TEXT	ENDS
;	COMDAT ??0iovfs_base@@QAE@XZ
_TEXT	SEGMENT PARA USE32 PUBLIC 'CODE'
_TEXT	ENDS
;	COMDAT ??_Giovfs_base@@UAEPAXI@Z
_TEXT	SEGMENT PARA USE32 PUBLIC 'CODE'
_TEXT	ENDS
;	COMDAT ??1iovfs_base@@UAE@XZ
_TEXT	SEGMENT PARA USE32 PUBLIC 'CODE'
_TEXT	ENDS
;	COMDAT ?Init@iovfs_base@@QAEXXZ
_TEXT	SEGMENT PARA USE32 PUBLIC 'CODE'
_TEXT	ENDS
;	COMDAT ??_Givfstream@@UAEPAXI@Z
_TEXT	SEGMENT PARA USE32 PUBLIC 'CODE'
_TEXT	ENDS
;	COMDAT ??1ivfstream@@UAE@XZ
_TEXT	SEGMENT PARA USE32 PUBLIC 'CODE'
_TEXT	ENDS
;	COMDAT ?open@ivfstream@@UAEXPBDH@Z
_TEXT	SEGMENT PARA USE32 PUBLIC 'CODE'
_TEXT	ENDS
;	COMDAT ?read@ivfstream@@QAEXPADI@Z
_TEXT	SEGMENT PARA USE32 PUBLIC 'CODE'
_TEXT	ENDS
;	COMDAT ??_Govfstream@@UAEPAXI@Z
_TEXT	SEGMENT PARA USE32 PUBLIC 'CODE'
_TEXT	ENDS
;	COMDAT ??1ovfstream@@UAE@XZ
_TEXT	SEGMENT PARA USE32 PUBLIC 'CODE'
_TEXT	ENDS
;	COMDAT ?open@ovfstream@@UAEXPBDH@Z
_TEXT	SEGMENT PARA USE32 PUBLIC 'CODE'
_TEXT	ENDS
;	COMDAT ?SetRect@MPortal@@QAEXEEEE@Z
_TEXT	SEGMENT PARA USE32 PUBLIC 'CODE'
_TEXT	ENDS
;	COMDAT ?SetRect@MPortal@@QAEXUP_RECT@@@Z
_TEXT	SEGMENT PARA USE32 PUBLIC 'CODE'
_TEXT	ENDS
;	COMDAT ??0MPortal@@QAE@XZ
_TEXT	SEGMENT PARA USE32 PUBLIC 'CODE'
_TEXT	ENDS
;	COMDAT ??0MPortal@@QAE@V?$vector@GV?$allocator@G@_STL@@@_STL@@UP_RECT@@E@Z
_TEXT	SEGMENT PARA USE32 PUBLIC 'CODE'
_TEXT	ENDS
;	COMDAT ??0MPortal@@QAE@V?$vector@GV?$allocator@G@_STL@@@_STL@@EEEEE@Z
_TEXT	SEGMENT PARA USE32 PUBLIC 'CODE'
_TEXT	ENDS
;	COMDAT ??1MPortal@@QAE@XZ
_TEXT	SEGMENT PARA USE32 PUBLIC 'CODE'
_TEXT	ENDS
;	COMDAT ?SaveToFile@MPortal@@QAEXAAV?$basic_ofstream@DV?$char_traits@D@_STL@@@_STL@@@Z
_TEXT	SEGMENT PARA USE32 PUBLIC 'CODE'
_TEXT	ENDS
;	COMDAT ?LoadFromFile@MPortal@@QAEXAAVivfstream@@@Z
_TEXT	SEGMENT PARA USE32 PUBLIC 'CODE'
_TEXT	ENDS
;	COMDAT ?eq@?$__char_traits_base@DH@_STL@@SA_NABD0@Z
_TEXT	SEGMENT PARA USE32 PUBLIC 'CODE'
_TEXT	ENDS
;	COMDAT ?not_eof@?$__char_traits_base@DH@_STL@@SAHABH@Z
_TEXT	SEGMENT PARA USE32 PUBLIC 'CODE'
_TEXT	ENDS
;	COMDAT ?eq_int_type@?$__char_traits_base@DH@_STL@@SA_NABH0@Z
_TEXT	SEGMENT PARA USE32 PUBLIC 'CODE'
_TEXT	ENDS
;	COMDAT ?get_allocator@?$basic_string@DV?$char_traits@D@_STL@@V?$allocator@D@2@@_STL@@QBE?AV?$allocator@D@2@XZ
_TEXT	SEGMENT PARA USE32 PUBLIC 'CODE'
_TEXT	ENDS
;	COMDAT ??4?$basic_string@DV?$char_traits@D@_STL@@V?$allocator@D@2@@_STL@@QAEAAV01@PBD@Z
_TEXT	SEGMENT PARA USE32 PUBLIC 'CODE'
_TEXT	ENDS
;	COMDAT ?_M_terminate_string@?$basic_string@DV?$char_traits@D@_STL@@V?$allocator@D@2@@_STL@@AAEXXZ
_TEXT	SEGMENT PARA USE32 PUBLIC 'CODE'
_TEXT	ENDS
;	COMDAT ??0?$_String_base@DV?$allocator@D@_STL@@@_STL@@QAE@ABV?$allocator@D@1@@Z
_TEXT	SEGMENT PARA USE32 PUBLIC 'CODE'
_TEXT	ENDS
;	COMDAT ?allocate@?$allocator@D@_STL@@QAEPADIPBX@Z
_TEXT	SEGMENT PARA USE32 PUBLIC 'CODE'
_TEXT	ENDS
;	COMDAT ??0?$allocator@G@_STL@@QAE@XZ
_TEXT	SEGMENT PARA USE32 PUBLIC 'CODE'
_TEXT	ENDS
;	COMDAT ??0?$fpos@H@_STL@@QAE@J@Z
_TEXT	SEGMENT PARA USE32 PUBLIC 'CODE'
_TEXT	ENDS
;	COMDAT ??B?$fpos@H@_STL@@QBEJXZ
_TEXT	SEGMENT PARA USE32 PUBLIC 'CODE'
_TEXT	ENDS
;	COMDAT ?state@?$fpos@H@_STL@@QBEHXZ
_TEXT	SEGMENT PARA USE32 PUBLIC 'CODE'
_TEXT	ENDS
;	COMDAT ?is_open@?$basic_filebuf@DV?$char_traits@D@_STL@@@_STL@@QBE_NXZ
_TEXT	SEGMENT PARA USE32 PUBLIC 'CODE'
_TEXT	ENDS
;	COMDAT ?_M_seek_return@?$basic_filebuf@DV?$char_traits@D@_STL@@@_STL@@AAE?AV?$fpos@H@2@JH@Z
_TEXT	SEGMENT PARA USE32 PUBLIC 'CODE'
_TEXT	ENDS
;	COMDAT ??0?$_Filebuf_Tmp_Buf@D@_STL@@QAE@H@Z
_TEXT	SEGMENT PARA USE32 PUBLIC 'CODE'
_TEXT	ENDS
;	COMDAT ??1?$_Filebuf_Tmp_Buf@D@_STL@@QAE@XZ
_TEXT	SEGMENT PARA USE32 PUBLIC 'CODE'
_TEXT	ENDS
;	COMDAT ?size@?$vector@GV?$allocator@G@_STL@@@_STL@@QBEIXZ
_TEXT	SEGMENT PARA USE32 PUBLIC 'CODE'
_TEXT	ENDS
;	COMDAT ??A?$vector@GV?$allocator@G@_STL@@@_STL@@QAEAAGI@Z
_TEXT	SEGMENT PARA USE32 PUBLIC 'CODE'
_TEXT	ENDS
;	COMDAT ??0?$vector@GV?$allocator@G@_STL@@@_STL@@QAE@ABV?$allocator@G@1@@Z
_TEXT	SEGMENT PARA USE32 PUBLIC 'CODE'
_TEXT	ENDS
;	COMDAT ??0?$vector@GV?$allocator@G@_STL@@@_STL@@QAE@ABV01@@Z
_TEXT	SEGMENT PARA USE32 PUBLIC 'CODE'
_TEXT	ENDS
;	COMDAT ??1?$vector@GV?$allocator@G@_STL@@@_STL@@QAE@XZ
_TEXT	SEGMENT PARA USE32 PUBLIC 'CODE'
_TEXT	ENDS
;	COMDAT ?push_back@?$vector@GV?$allocator@G@_STL@@@_STL@@QAEXABG@Z
_TEXT	SEGMENT PARA USE32 PUBLIC 'CODE'
_TEXT	ENDS
;	COMDAT ?clear@?$vector@GV?$allocator@G@_STL@@@_STL@@QAEXXZ
_TEXT	SEGMENT PARA USE32 PUBLIC 'CODE'
_TEXT	ENDS
;	COMDAT ??1?$basic_ofstream@DV?$char_traits@D@_STL@@@_STL@@UAE@XZ
_TEXT	SEGMENT PARA USE32 PUBLIC 'CODE'
_TEXT	ENDS
;	COMDAT ??_G?$basic_ofstream@DV?$char_traits@D@_STL@@@_STL@@UAEPAXI@Z
_TEXT	SEGMENT PARA USE32 PUBLIC 'CODE'
_TEXT	ENDS
;	COMDAT ??_D?$basic_ofstream@DV?$char_traits@D@_STL@@@_STL@@QAEXXZ
_TEXT	SEGMENT PARA USE32 PUBLIC 'CODE'
_TEXT	ENDS
;	COMDAT ?_M_terminate_string_aux@?$basic_string@DV?$char_traits@D@_STL@@V?$allocator@D@2@@_STL@@AAEXABU__true_type@2@@Z
_TEXT	SEGMENT PARA USE32 PUBLIC 'CODE'
_TEXT	ENDS
;	COMDAT ?assign@?$basic_string@DV?$char_traits@D@_STL@@V?$allocator@D@2@@_STL@@QAEAAV12@PBD0@Z
_TEXT	SEGMENT PARA USE32 PUBLIC 'CODE'
_TEXT	ENDS
;	COMDAT ??0?$allocator@D@_STL@@QAE@ABV01@@Z
_TEXT	SEGMENT PARA USE32 PUBLIC 'CODE'
_TEXT	ENDS
;	COMDAT ??0?$_STLP_alloc_proxy@PADDV?$allocator@D@_STL@@@_STL@@QAE@ABV?$allocator@D@1@PAD@Z
_TEXT	SEGMENT PARA USE32 PUBLIC 'CODE'
_TEXT	ENDS
;	COMDAT ?state@?$fpos@H@_STL@@QAEXH@Z
_TEXT	SEGMENT PARA USE32 PUBLIC 'CODE'
_TEXT	ENDS
;	COMDAT ?get_allocator@?$vector@GV?$allocator@G@_STL@@@_STL@@QBE?AV?$allocator@G@2@XZ
_TEXT	SEGMENT PARA USE32 PUBLIC 'CODE'
_TEXT	ENDS
;	COMDAT ?_M_insert_overflow@?$vector@GV?$allocator@G@_STL@@@_STL@@IAEXPAGABGABU__true_type@2@I_N@Z
_TEXT	SEGMENT PARA USE32 PUBLIC 'CODE'
_TEXT	ENDS
;	COMDAT ?begin@?$vector@GV?$allocator@G@_STL@@@_STL@@QAEPAGXZ
_TEXT	SEGMENT PARA USE32 PUBLIC 'CODE'
_TEXT	ENDS
;	COMDAT ?end@?$vector@GV?$allocator@G@_STL@@@_STL@@QAEPAGXZ
_TEXT	SEGMENT PARA USE32 PUBLIC 'CODE'
_TEXT	ENDS
;	COMDAT ?erase@?$vector@GV?$allocator@G@_STL@@@_STL@@QAEPAGPAG0@Z
_TEXT	SEGMENT PARA USE32 PUBLIC 'CODE'
_TEXT	ENDS
;	COMDAT ??0?$_Vector_base@GV?$allocator@G@_STL@@@_STL@@QAE@ABV?$allocator@G@1@@Z
_TEXT	SEGMENT PARA USE32 PUBLIC 'CODE'
_TEXT	ENDS
;	COMDAT ??0?$_Vector_base@GV?$allocator@G@_STL@@@_STL@@QAE@IABV?$allocator@G@1@@Z
_TEXT	SEGMENT PARA USE32 PUBLIC 'CODE'
_TEXT	ENDS
;	COMDAT ??1?$_Vector_base@GV?$allocator@G@_STL@@@_STL@@QAE@XZ
_TEXT	SEGMENT PARA USE32 PUBLIC 'CODE'
_TEXT	ENDS
;	COMDAT ?copy@?$__char_traits_base@DH@_STL@@SAPADPADPBDI@Z
_TEXT	SEGMENT PARA USE32 PUBLIC 'CODE'
_TEXT	ENDS
;	COMDAT ?begin@?$basic_string@DV?$char_traits@D@_STL@@V?$allocator@D@2@@_STL@@QAEPADXZ
_TEXT	SEGMENT PARA USE32 PUBLIC 'CODE'
_TEXT	ENDS
;	COMDAT ?end@?$basic_string@DV?$char_traits@D@_STL@@V?$allocator@D@2@@_STL@@QAEPADXZ
_TEXT	SEGMENT PARA USE32 PUBLIC 'CODE'
_TEXT	ENDS
;	COMDAT ?size@?$basic_string@DV?$char_traits@D@_STL@@V?$allocator@D@2@@_STL@@QBEIXZ
_TEXT	SEGMENT PARA USE32 PUBLIC 'CODE'
_TEXT	ENDS
;	COMDAT ?erase@?$basic_string@DV?$char_traits@D@_STL@@V?$allocator@D@2@@_STL@@QAEPADPAD0@Z
_TEXT	SEGMENT PARA USE32 PUBLIC 'CODE'
_TEXT	ENDS
;	COMDAT ??0?$allocator@G@_STL@@QAE@ABV01@@Z
_TEXT	SEGMENT PARA USE32 PUBLIC 'CODE'
_TEXT	ENDS
;	COMDAT ?allocate@?$allocator@G@_STL@@QAEPAGIPBX@Z
_TEXT	SEGMENT PARA USE32 PUBLIC 'CODE'
_TEXT	ENDS
;	COMDAT ??0?$_STLP_alloc_proxy@PAGGV?$allocator@G@_STL@@@_STL@@QAE@ABV?$allocator@G@1@PAG@Z
_TEXT	SEGMENT PARA USE32 PUBLIC 'CODE'
_TEXT	ENDS
;	COMDAT ?_M_clear@?$vector@GV?$allocator@G@_STL@@@_STL@@IAEXXZ
_TEXT	SEGMENT PARA USE32 PUBLIC 'CODE'
_TEXT	ENDS
;	COMDAT ?_M_set@?$vector@GV?$allocator@G@_STL@@@_STL@@IAEXPAG00@Z
_TEXT	SEGMENT PARA USE32 PUBLIC 'CODE'
_TEXT	ENDS
;	COMDAT ?move@?$__char_traits_base@DH@_STL@@SAPADPADPBDI@Z
_TEXT	SEGMENT PARA USE32 PUBLIC 'CODE'
_TEXT	ENDS
;	COMDAT ??$_M_range_initialize@PBD@?$basic_string@DV?$char_traits@D@_STL@@V?$allocator@D@2@@_STL@@AAEXPBD0@Z
_TEXT	SEGMENT PARA USE32 PUBLIC 'CODE'
_TEXT	ENDS
;	COMDAT ??$_M_range_initialize@PAD@?$basic_string@DV?$char_traits@D@_STL@@V?$allocator@D@2@@_STL@@AAEXPAD0@Z
_TEXT	SEGMENT PARA USE32 PUBLIC 'CODE'
_TEXT	ENDS
;	COMDAT ?write@?$basic_ostream@DV?$char_traits@D@_STL@@@_STL@@QAEAAV12@PBDH@Z
_TEXT	SEGMENT PARA USE32 PUBLIC 'CODE'
_TEXT	ENDS
;	COMDAT ?close@?$basic_filebuf@DV?$char_traits@D@_STL@@@_STL@@QAEPAV12@XZ
_TEXT	SEGMENT PARA USE32 PUBLIC 'CODE'
_TEXT	ENDS
;	COMDAT ?_M_exit_input_mode@?$basic_filebuf@DV?$char_traits@D@_STL@@@_STL@@AAEXXZ
_TEXT	SEGMENT PARA USE32 PUBLIC 'CODE'
_TEXT	ENDS
;	COMDAT ?_M_switch_to_output_mode@?$basic_filebuf@DV?$char_traits@D@_STL@@@_STL@@AAE_NXZ
_TEXT	SEGMENT PARA USE32 PUBLIC 'CODE'
_TEXT	ENDS
;	COMDAT ?_M_output_error@?$basic_filebuf@DV?$char_traits@D@_STL@@@_STL@@AAEHXZ
_TEXT	SEGMENT PARA USE32 PUBLIC 'CODE'
_TEXT	ENDS
;	COMDAT ?_M_allocate_buffers@?$basic_filebuf@DV?$char_traits@D@_STL@@@_STL@@AAE_NPADH@Z
_TEXT	SEGMENT PARA USE32 PUBLIC 'CODE'
_TEXT	ENDS
;	COMDAT ?_M_deallocate_buffers@?$basic_filebuf@DV?$char_traits@D@_STL@@@_STL@@AAEXXZ
_TEXT	SEGMENT PARA USE32 PUBLIC 'CODE'
_TEXT	ENDS
;	COMDAT ?_M_seek_init@?$basic_filebuf@DV?$char_traits@D@_STL@@@_STL@@AAE_N_N@Z
_TEXT	SEGMENT PARA USE32 PUBLIC 'CODE'
_TEXT	ENDS
;	COMDAT ?_M_setup_codecvt@?$basic_filebuf@DV?$char_traits@D@_STL@@@_STL@@AAEXABVlocale@2@@Z
_TEXT	SEGMENT PARA USE32 PUBLIC 'CODE'
_TEXT	ENDS
;	COMDAT ??$equal@PADPADU?$_Eq_traits@V?$char_traits@D@_STL@@@_STL@@@_STL@@YA_NPAD00U?$_Eq_traits@V?$char_traits@D@_STL@@@0@@Z
_TEXT	SEGMENT PARA USE32 PUBLIC 'CODE'
_TEXT	ENDS
;	COMDAT ??$_Destroy@V?$basic_string@DV?$char_traits@D@_STL@@V?$allocator@D@2@@_STL@@@_STL@@YAXPAV?$basic_string@DV?$char_traits@D@_STL@@V?$allocator@D@2@@0@@Z
_TEXT	SEGMENT PARA USE32 PUBLIC 'CODE'
_TEXT	ENDS
;	COMDAT ??$_M_assign_dispatch@PAD@?$basic_string@DV?$char_traits@D@_STL@@V?$allocator@D@2@@_STL@@AAEAAV01@PAD0ABU__false_type@1@@Z
_TEXT	SEGMENT PARA USE32 PUBLIC 'CODE'
_TEXT	ENDS
;	COMDAT ??4?$vector@GV?$allocator@G@_STL@@@_STL@@QAEAAV01@ABV01@@Z
_TEXT	SEGMENT PARA USE32 PUBLIC 'CODE'
_TEXT	ENDS
;	COMDAT ??$__uninitialized_copy@PBGPAG@_STL@@YAPAGPBG0PAGABU__true_type@0@@Z
_TEXT	SEGMENT PARA USE32 PUBLIC 'CODE'
_TEXT	ENDS
;	COMDAT ??$_Construct@GG@_STL@@YAXPAGABG@Z
_TEXT	SEGMENT PARA USE32 PUBLIC 'CODE'
_TEXT	ENDS
;	COMDAT ??$append@PBD@?$basic_string@DV?$char_traits@D@_STL@@V?$allocator@D@2@@_STL@@QAEAAV01@PBD0@Z
_TEXT	SEGMENT PARA USE32 PUBLIC 'CODE'
_TEXT	ENDS
;	COMDAT ??$max@I@_STL@@YAABIABI0@Z
_TEXT	SEGMENT PARA USE32 PUBLIC 'CODE'
_TEXT	ENDS
;	COMDAT ??$fill_n@PAGIG@_STL@@YAPAGPAGIABG@Z
_TEXT	SEGMENT PARA USE32 PUBLIC 'CODE'
_TEXT	ENDS
;	COMDAT ??$__copy_ptrs@PAGPAG@_STL@@YAPAGPAG00ABU__true_type@0@@Z
_TEXT	SEGMENT PARA USE32 PUBLIC 'CODE'
_TEXT	ENDS
;	COMDAT ??_G?$basic_string@DV?$char_traits@D@_STL@@V?$allocator@D@2@@_STL@@QAEPAXI@Z
_TEXT	SEGMENT PARA USE32 PUBLIC 'CODE'
_TEXT	ENDS
;	COMDAT ?rdbuf@?$basic_ios@DV?$char_traits@D@_STL@@@_STL@@QBEPAV?$basic_streambuf@DV?$char_traits@D@_STL@@@2@XZ
_TEXT	SEGMENT PARA USE32 PUBLIC 'CODE'
_TEXT	ENDS
;	COMDAT ?setstate@?$basic_ios@DV?$char_traits@D@_STL@@@_STL@@QAEXH@Z
_TEXT	SEGMENT PARA USE32 PUBLIC 'CODE'
_TEXT	ENDS
;	COMDAT ?_M_exit_putback_mode@?$basic_filebuf@DV?$char_traits@D@_STL@@@_STL@@AAEXXZ
_TEXT	SEGMENT PARA USE32 PUBLIC 'CODE'
_TEXT	ENDS
;	COMDAT ??R?$_Eq_traits@V?$char_traits@D@_STL@@@_STL@@QBE_NABD0@Z
_TEXT	SEGMENT PARA USE32 PUBLIC 'CODE'
_TEXT	ENDS
;	COMDAT ?capacity@?$vector@GV?$allocator@G@_STL@@@_STL@@QBEIXZ
_TEXT	SEGMENT PARA USE32 PUBLIC 'CODE'
_TEXT	ENDS
;	COMDAT ??0sentry@?$basic_ostream@DV?$char_traits@D@_STL@@@_STL@@QAE@AAV12@@Z
_TEXT	SEGMENT PARA USE32 PUBLIC 'CODE'
_TEXT	ENDS
;	COMDAT ??1sentry@?$basic_ostream@DV?$char_traits@D@_STL@@@_STL@@QAE@XZ
_TEXT	SEGMENT PARA USE32 PUBLIC 'CODE'
_TEXT	ENDS
;	COMDAT ??Bsentry@?$basic_ostream@DV?$char_traits@D@_STL@@@_STL@@QBE_NXZ
_TEXT	SEGMENT PARA USE32 PUBLIC 'CODE'
_TEXT	ENDS
;	COMDAT ?_Ret@?$_BothPtrType@PBGPAG@_STL@@SA?AU__true_type@2@XZ
_TEXT	SEGMENT PARA USE32 PUBLIC 'CODE'
_TEXT	ENDS
;	COMDAT ?clear@?$basic_ios@DV?$char_traits@D@_STL@@@_STL@@QAEXH@Z
_TEXT	SEGMENT PARA USE32 PUBLIC 'CODE'
_TEXT	ENDS
;	COMDAT ?flush@?$basic_ostream@DV?$char_traits@D@_STL@@@_STL@@QAEAAV12@XZ
_TEXT	SEGMENT PARA USE32 PUBLIC 'CODE'
_TEXT	ENDS
;	COMDAT ??$_M_range_initialize@PBD@?$basic_string@DV?$char_traits@D@_STL@@V?$allocator@D@2@@_STL@@AAEXPBD0ABUforward_iterator_tag@1@@Z
_TEXT	SEGMENT PARA USE32 PUBLIC 'CODE'
_TEXT	ENDS
;	COMDAT ??$_M_range_initialize@PAD@?$basic_string@DV?$char_traits@D@_STL@@V?$allocator@D@2@@_STL@@AAEXPAD0ABUforward_iterator_tag@1@@Z
_TEXT	SEGMENT PARA USE32 PUBLIC 'CODE'
_TEXT	ENDS
;	COMDAT ?_M_handle_exception@?$basic_ios@DV?$char_traits@D@_STL@@@_STL@@QAEXH@Z
_TEXT	SEGMENT PARA USE32 PUBLIC 'CODE'
_TEXT	ENDS
;	COMDAT ?_M_unshift@?$basic_filebuf@DV?$char_traits@D@_STL@@@_STL@@AAE_NXZ
_TEXT	SEGMENT PARA USE32 PUBLIC 'CODE'
_TEXT	ENDS
;	COMDAT ?_M_allocate_buffers@?$basic_filebuf@DV?$char_traits@D@_STL@@@_STL@@AAE_NXZ
_TEXT	SEGMENT PARA USE32 PUBLIC 'CODE'
_TEXT	ENDS
;	COMDAT ??$max@H@_STL@@YAABHABH0@Z
_TEXT	SEGMENT PARA USE32 PUBLIC 'CODE'
_TEXT	ENDS
;	COMDAT ??$use_facet@V?$codecvt@DDH@_STL@@@_STL@@YAABV?$codecvt@DDH@0@ABVlocale@0@@Z
_TEXT	SEGMENT PARA USE32 PUBLIC 'CODE'
_TEXT	ENDS
;	COMDAT ??$append@PAD@?$basic_string@DV?$char_traits@D@_STL@@V?$allocator@D@2@@_STL@@QAEAAV01@PAD0@Z
_TEXT	SEGMENT PARA USE32 PUBLIC 'CODE'
_TEXT	ENDS
;	COMDAT ??$_M_allocate_and_copy@PBG@?$vector@GV?$allocator@G@_STL@@@_STL@@IAEPAGIPBG0@Z
_TEXT	SEGMENT PARA USE32 PUBLIC 'CODE'
_TEXT	ENDS
;	COMDAT ??$__copy_ptrs@PBGPAG@_STL@@YAPAGPBG0PAGABU__true_type@0@@Z
_TEXT	SEGMENT PARA USE32 PUBLIC 'CODE'
_TEXT	ENDS
;	COMDAT ??$__copy_aux@PBGPAG@_STL@@YAPAGPBG0PAGABU__true_type@0@@Z
_TEXT	SEGMENT PARA USE32 PUBLIC 'CODE'
_TEXT	ENDS
;	COMDAT ??$_M_append_dispatch@PBD@?$basic_string@DV?$char_traits@D@_STL@@V?$allocator@D@2@@_STL@@AAEAAV01@PBD0ABU__false_type@1@@Z
_TEXT	SEGMENT PARA USE32 PUBLIC 'CODE'
_TEXT	ENDS
;	COMDAT ??$_M_init@DV?$char_traits@D@_STL@@@_STL@@YA_NAAV?$basic_ostream@DV?$char_traits@D@_STL@@@0@@Z
_TEXT	SEGMENT PARA USE32 PUBLIC 'CODE'
_TEXT	ENDS
;	COMDAT ?tie@?$basic_ios@DV?$char_traits@D@_STL@@@_STL@@QBEPAV?$basic_ostream@DV?$char_traits@D@_STL@@@2@XZ
_TEXT	SEGMENT PARA USE32 PUBLIC 'CODE'
_TEXT	ENDS
;	COMDAT ?_Ret@?$_OKToMemCpy@GG@_STL@@SA?AU__true_type@2@XZ
_TEXT	SEGMENT PARA USE32 PUBLIC 'CODE'
_TEXT	ENDS
;	COMDAT ??$distance@PBD@_STL@@YAHABQBD0@Z
_TEXT	SEGMENT PARA USE32 PUBLIC 'CODE'
_TEXT	ENDS
;	COMDAT ?_M_allocate_block@?$_String_base@DV?$allocator@D@_STL@@@_STL@@QAEXI@Z
_TEXT	SEGMENT PARA USE32 PUBLIC 'CODE'
_TEXT	ENDS
;	COMDAT ??$distance@PAD@_STL@@YAHABQAD0@Z
_TEXT	SEGMENT PARA USE32 PUBLIC 'CODE'
_TEXT	ENDS
;	COMDAT ??$uninitialized_copy@PADPAD@_STL@@YAPADPAD00@Z
_TEXT	SEGMENT PARA USE32 PUBLIC 'CODE'
_TEXT	ENDS
;	COMDAT ??$_M_append_dispatch@PAD@?$basic_string@DV?$char_traits@D@_STL@@V?$allocator@D@2@@_STL@@AAEAAV01@PAD0ABU__false_type@1@@Z
_TEXT	SEGMENT PARA USE32 PUBLIC 'CODE'
_TEXT	ENDS
;	COMDAT ??$_IsOKToMemCpy@GG@_STL@@YA?AU?$_OKToMemCpy@GG@0@PAG0@Z
_TEXT	SEGMENT PARA USE32 PUBLIC 'CODE'
_TEXT	ENDS
;	COMDAT ??$append@PBD@?$basic_string@DV?$char_traits@D@_STL@@V?$allocator@D@2@@_STL@@AAEAAV01@PBD0ABUforward_iterator_tag@1@@Z
_TEXT	SEGMENT PARA USE32 PUBLIC 'CODE'
_TEXT	ENDS
;	COMDAT ?_M_construct_null@?$basic_string@DV?$char_traits@D@_STL@@V?$allocator@D@2@@_STL@@AAEXPAD@Z
_TEXT	SEGMENT PARA USE32 PUBLIC 'CODE'
_TEXT	ENDS
;	COMDAT ?max_size@?$basic_string@DV?$char_traits@D@_STL@@V?$allocator@D@2@@_STL@@QBEIXZ
_TEXT	SEGMENT PARA USE32 PUBLIC 'CODE'
_TEXT	ENDS
;	COMDAT ?capacity@?$basic_string@DV?$char_traits@D@_STL@@V?$allocator@D@2@@_STL@@QBEIXZ
_TEXT	SEGMENT PARA USE32 PUBLIC 'CODE'
_TEXT	ENDS
;	COMDAT ?max_size@?$_String_base@DV?$allocator@D@_STL@@@_STL@@QBEIXZ
_TEXT	SEGMENT PARA USE32 PUBLIC 'CODE'
_TEXT	ENDS
;	COMDAT ?_M_construct_null_aux@?$basic_string@DV?$char_traits@D@_STL@@V?$allocator@D@2@@_STL@@AAEXPADABU__true_type@2@@Z
_TEXT	SEGMENT PARA USE32 PUBLIC 'CODE'
_TEXT	ENDS
;	COMDAT ??$__distance@PBD@_STL@@YAHABQBD0ABUrandom_access_iterator_tag@0@@Z
_TEXT	SEGMENT PARA USE32 PUBLIC 'CODE'
_TEXT	ENDS
;	COMDAT ?_M_throw_length_error@?$_String_base@DV?$allocator@D@_STL@@@_STL@@QBEXXZ
_TEXT	SEGMENT PARA USE32 PUBLIC 'CODE'
_TEXT	ENDS
;	COMDAT ??$__distance@PAD@_STL@@YAHABQAD0ABUrandom_access_iterator_tag@0@@Z
_TEXT	SEGMENT PARA USE32 PUBLIC 'CODE'
_TEXT	ENDS
;	COMDAT ??$__uninitialized_copy@PADPAD@_STL@@YAPADPAD00ABU__true_type@0@@Z
_TEXT	SEGMENT PARA USE32 PUBLIC 'CODE'
_TEXT	ENDS
;	COMDAT ??$append@PAD@?$basic_string@DV?$char_traits@D@_STL@@V?$allocator@D@2@@_STL@@AAEAAV01@PAD0ABUforward_iterator_tag@1@@Z
_TEXT	SEGMENT PARA USE32 PUBLIC 'CODE'
_TEXT	ENDS
;	COMDAT ?_Ret@?$_BothPtrType@PADPAD@_STL@@SA?AU__true_type@2@XZ
_TEXT	SEGMENT PARA USE32 PUBLIC 'CODE'
_TEXT	ENDS
;	COMDAT ??$__copy_aux@PADPAD@_STL@@YAPADPAD00ABU__true_type@0@@Z
_TEXT	SEGMENT PARA USE32 PUBLIC 'CODE'
_TEXT	ENDS
;	COMDAT ?_Ret@?$_OKToMemCpy@DD@_STL@@SA?AU__true_type@2@XZ
_TEXT	SEGMENT PARA USE32 PUBLIC 'CODE'
_TEXT	ENDS
;	COMDAT ??$_IsOKToMemCpy@DD@_STL@@YA?AU?$_OKToMemCpy@DD@0@PAD0@Z
_TEXT	SEGMENT PARA USE32 PUBLIC 'CODE'
_TEXT	ENDS
;	COMDAT ??$__copy_ptrs@PADPAD@_STL@@YAPADPAD00ABU__true_type@0@@Z
_TEXT	SEGMENT PARA USE32 PUBLIC 'CODE'
_TEXT	ENDS
;	COMDAT ??_R3iovfs_base@@8
rdata$r	SEGMENT DWORD USE32 PUBLIC 'CONST'
rdata$r	ENDS
;	COMDAT ??_R3?$basic_ofstream@DV?$char_traits@D@_STL@@@_STL@@8
rdata$r	SEGMENT DWORD USE32 PUBLIC 'CONST'
rdata$r	ENDS
;	COMDAT ??_R3IFileIO@@8
rdata$r	SEGMENT DWORD USE32 PUBLIC 'CONST'
rdata$r	ENDS
;	COMDAT ??_R3ovfstream@@8
rdata$r	SEGMENT DWORD USE32 PUBLIC 'CONST'
rdata$r	ENDS
;	COMDAT ??_R3MObject@@8
rdata$r	SEGMENT DWORD USE32 PUBLIC 'CONST'
rdata$r	ENDS
;	COMDAT ??_R3ivfstream@@8
rdata$r	SEGMENT DWORD USE32 PUBLIC 'CONST'
rdata$r	ENDS
;	COMDAT ??_R2iovfs_base@@8
rdata$r	SEGMENT DWORD USE32 PUBLIC 'CONST'
rdata$r	ENDS
;	COMDAT ??_R2?$basic_ofstream@DV?$char_traits@D@_STL@@@_STL@@8
rdata$r	SEGMENT DWORD USE32 PUBLIC 'CONST'
rdata$r	ENDS
;	COMDAT ??_R2IFileIO@@8
rdata$r	SEGMENT DWORD USE32 PUBLIC 'CONST'
rdata$r	ENDS
;	COMDAT ??_R2ovfstream@@8
rdata$r	SEGMENT DWORD USE32 PUBLIC 'CONST'
rdata$r	ENDS
;	COMDAT ??_R2MObject@@8
rdata$r	SEGMENT DWORD USE32 PUBLIC 'CONST'
rdata$r	ENDS
;	COMDAT ??_R2ivfstream@@8
rdata$r	SEGMENT DWORD USE32 PUBLIC 'CONST'
rdata$r	ENDS
;	COMDAT ??_R1A@A@3A@ios_base@_STL@@8
rdata$r	SEGMENT DWORD USE32 PUBLIC 'CONST'
rdata$r	ENDS
;	COMDAT ??_R0?AVios_base@_STL@@@8
_DATA	SEGMENT DWORD USE32 PUBLIC 'DATA'
_DATA	ENDS
;	COMDAT ??_R1A@A@3BA@?$basic_ios@DV?$char_traits@D@_STL@@@_STL@@8
rdata$r	SEGMENT DWORD USE32 PUBLIC 'CONST'
rdata$r	ENDS
;	COMDAT ??_R0?AV?$basic_ios@DV?$char_traits@D@_STL@@@_STL@@@8
_DATA	SEGMENT DWORD USE32 PUBLIC 'DATA'
_DATA	ENDS
;	COMDAT ??_R1A@?0A@A@?$basic_ostream@DV?$char_traits@D@_STL@@@_STL@@8
rdata$r	SEGMENT DWORD USE32 PUBLIC 'CONST'
rdata$r	ENDS
;	COMDAT ??_R0?AV?$basic_ostream@DV?$char_traits@D@_STL@@@_STL@@@8
_DATA	SEGMENT DWORD USE32 PUBLIC 'DATA'
_DATA	ENDS
;	COMDAT ??_R1A@?0A@A@?$basic_ofstream@DV?$char_traits@D@_STL@@@_STL@@8
rdata$r	SEGMENT DWORD USE32 PUBLIC 'CONST'
rdata$r	ENDS
;	COMDAT ??_R1A@?0A@A@IFileIO@@8
rdata$r	SEGMENT DWORD USE32 PUBLIC 'CONST'
rdata$r	ENDS
;	COMDAT ??_R1A@?0A@A@ovfstream@@8
rdata$r	SEGMENT DWORD USE32 PUBLIC 'CONST'
rdata$r	ENDS
;	COMDAT ??_R1A@?0A@A@MObject@@8
rdata$r	SEGMENT DWORD USE32 PUBLIC 'CONST'
rdata$r	ENDS
;	COMDAT ??_R1A@?0A@A@iovfs_base@@8
rdata$r	SEGMENT DWORD USE32 PUBLIC 'CONST'
rdata$r	ENDS
;	COMDAT ??_R1A@?0A@A@ivfstream@@8
rdata$r	SEGMENT DWORD USE32 PUBLIC 'CONST'
rdata$r	ENDS
;	COMDAT ??_R0?AV?$basic_ofstream@DV?$char_traits@D@_STL@@@_STL@@@8
_DATA	SEGMENT DWORD USE32 PUBLIC 'DATA'
_DATA	ENDS
;	COMDAT ??_R0?AVIFileIO@@@8
_DATA	SEGMENT DWORD USE32 PUBLIC 'DATA'
_DATA	ENDS
;	COMDAT ??_R0?AVovfstream@@@8
_DATA	SEGMENT DWORD USE32 PUBLIC 'DATA'
_DATA	ENDS
;	COMDAT ??_R0?AVMObject@@@8
_DATA	SEGMENT DWORD USE32 PUBLIC 'DATA'
_DATA	ENDS
;	COMDAT ??_R0?AViovfs_base@@@8
_DATA	SEGMENT DWORD USE32 PUBLIC 'DATA'
_DATA	ENDS
;	COMDAT ??_R0?AVivfstream@@@8
_DATA	SEGMENT DWORD USE32 PUBLIC 'DATA'
_DATA	ENDS
;	COMDAT ??_R4iovfs_base@@6B@
rdata$r	SEGMENT DWORD USE32 PUBLIC 'CONST'
rdata$r	ENDS
;	COMDAT ??_R4?$basic_ofstream@DV?$char_traits@D@_STL@@@_STL@@6B@
rdata$r	SEGMENT DWORD USE32 PUBLIC 'CONST'
rdata$r	ENDS
;	COMDAT ??_R4IFileIO@@6B@
rdata$r	SEGMENT DWORD USE32 PUBLIC 'CONST'
rdata$r	ENDS
;	COMDAT ??_R4ovfstream@@6B@
rdata$r	SEGMENT DWORD USE32 PUBLIC 'CONST'
rdata$r	ENDS
;	COMDAT ??_R4MObject@@6B@
rdata$r	SEGMENT DWORD USE32 PUBLIC 'CONST'
rdata$r	ENDS
;	COMDAT ??_R4ivfstream@@6B@
rdata$r	SEGMENT DWORD USE32 PUBLIC 'CONST'
rdata$r	ENDS
;	COMDAT ?_M_deallocate_block@?$_String_base@DV?$allocator@D@_STL@@@_STL@@QAEXXZ
_TEXT	SEGMENT PARA USE32 PUBLIC 'CODE'
_TEXT	ENDS
;	COMDAT ?deallocate@?$allocator@D@_STL@@QAEXPADI@Z
_TEXT	SEGMENT PARA USE32 PUBLIC 'CODE'
_TEXT	ENDS
;	COMDAT ?deallocate@?$__node_alloc@$00$0A@@_STL@@SAXPAXI@Z
_TEXT	SEGMENT PARA USE32 PUBLIC 'CODE'
_TEXT	ENDS
;	COMDAT ?__stl_delete@_STL@@YAXPAX@Z
_TEXT	SEGMENT PARA USE32 PUBLIC 'CODE'
_TEXT	ENDS
;	COMDAT ?good@ios_base@_STL@@QBE_NXZ
_TEXT	SEGMENT PARA USE32 PUBLIC 'CODE'
_TEXT	ENDS
;	COMDAT ?__page_size@_Filebuf_base@_STL@@SAIXZ
_TEXT	SEGMENT PARA USE32 PUBLIC 'CODE'
_TEXT	ENDS
;	COMDAT ?_M_write@?$basic_filebuf@DV?$char_traits@D@_STL@@@_STL@@QAE_NPADH@Z
_TEXT	SEGMENT PARA USE32 PUBLIC 'CODE'
_TEXT	ENDS
;	COMDAT ?unshift@?$codecvt@DDH@_STL@@QBE?AW4result@codecvt_base@2@AAHPAD1AAPAD@Z
_TEXT	SEGMENT PARA USE32 PUBLIC 'CODE'
_TEXT	ENDS
;	COMDAT ?_M_get_exception_mask@ios_base@_STL@@IBEHXZ
_TEXT	SEGMENT PARA USE32 PUBLIC 'CODE'
_TEXT	ENDS
;	COMDAT ?_M_setstate_nothrow@ios_base@_STL@@IAEXH@Z
_TEXT	SEGMENT PARA USE32 PUBLIC 'CODE'
_TEXT	ENDS
;	COMDAT ?uninitialized_copy@_STL@@YAPADPBD0PAD@Z
_TEXT	SEGMENT PARA USE32 PUBLIC 'CODE'
_TEXT	ENDS
;	COMDAT ?pubsync@?$basic_streambuf@DV?$char_traits@D@_STL@@@_STL@@QAEHXZ
_TEXT	SEGMENT PARA USE32 PUBLIC 'CODE'
_TEXT	ENDS
;	COMDAT ?_M_check_exception_mask@ios_base@_STL@@IAEXXZ
_TEXT	SEGMENT PARA USE32 PUBLIC 'CODE'
_TEXT	ENDS
;	COMDAT ?_M_clear_nothrow@ios_base@_STL@@IAEXH@Z
_TEXT	SEGMENT PARA USE32 PUBLIC 'CODE'
_TEXT	ENDS
;	COMDAT ?flags@ios_base@_STL@@QBEHXZ
_TEXT	SEGMENT PARA USE32 PUBLIC 'CODE'
_TEXT	ENDS
;	COMDAT ?rdstate@ios_base@_STL@@QBEHXZ
_TEXT	SEGMENT PARA USE32 PUBLIC 'CODE'
_TEXT	ENDS
;	COMDAT ??2@YAPAXIPAX@Z
_TEXT	SEGMENT PARA USE32 PUBLIC 'CODE'
_TEXT	ENDS
;	COMDAT ?assign@?$char_traits@D@_STL@@SAXAADABD@Z
_TEXT	SEGMENT PARA USE32 PUBLIC 'CODE'
_TEXT	ENDS
;	COMDAT ?always_noconv@?$codecvt@DDH@_STL@@QBE_NXZ
_TEXT	SEGMENT PARA USE32 PUBLIC 'CODE'
_TEXT	ENDS
;	COMDAT ?encoding@?$codecvt@DDH@_STL@@QBEHXZ
_TEXT	SEGMENT PARA USE32 PUBLIC 'CODE'
_TEXT	ENDS
;	COMDAT ?max_length@?$codecvt@DDH@_STL@@QBEHXZ
_TEXT	SEGMENT PARA USE32 PUBLIC 'CODE'
_TEXT	ENDS
;	COMDAT ?__o_mode@_Filebuf_base@_STL@@QBEHXZ
_TEXT	SEGMENT PARA USE32 PUBLIC 'CODE'
_TEXT	ENDS
;	COMDAT ?sputn@?$basic_streambuf@DV?$char_traits@D@_STL@@@_STL@@QAEHPBDH@Z
_TEXT	SEGMENT PARA USE32 PUBLIC 'CODE'
_TEXT	ENDS
;	COMDAT ?_Destroy@_STL@@YAXPAD0@Z
_TEXT	SEGMENT PARA USE32 PUBLIC 'CODE'
_TEXT	ENDS
;	COMDAT ?deallocate@?$allocator@G@_STL@@QAEXPAGI@Z
_TEXT	SEGMENT PARA USE32 PUBLIC 'CODE'
_TEXT	ENDS
;	COMDAT ??1?$_STLP_alloc_proxy@PAGGV?$allocator@G@_STL@@@_STL@@QAE@XZ
_TEXT	SEGMENT PARA USE32 PUBLIC 'CODE'
_TEXT	ENDS
;	COMDAT ?__copy_trivial@_STL@@YAPAXPBX0PAX@Z
_TEXT	SEGMENT PARA USE32 PUBLIC 'CODE'
_TEXT	ENDS
;	COMDAT ??1?$basic_ios@DV?$char_traits@D@_STL@@@_STL@@UAE@XZ
_TEXT	SEGMENT PARA USE32 PUBLIC 'CODE'
_TEXT	ENDS
;	COMDAT ??_7?$basic_ios@DV?$char_traits@D@_STL@@@_STL@@6B@
CONST	SEGMENT DWORD USE32 PUBLIC 'CONST'
CONST	ENDS
;	COMDAT ??_R4?$basic_ios@DV?$char_traits@D@_STL@@@_STL@@6B@
rdata$r	SEGMENT DWORD USE32 PUBLIC 'CONST'
rdata$r	ENDS
;	COMDAT ??_R3?$basic_ios@DV?$char_traits@D@_STL@@@_STL@@8
rdata$r	SEGMENT DWORD USE32 PUBLIC 'CONST'
rdata$r	ENDS
;	COMDAT ??_R2?$basic_ios@DV?$char_traits@D@_STL@@@_STL@@8
rdata$r	SEGMENT DWORD USE32 PUBLIC 'CONST'
rdata$r	ENDS
;	COMDAT ??_R1A@?0A@A@?$basic_ios@DV?$char_traits@D@_STL@@@_STL@@8
rdata$r	SEGMENT DWORD USE32 PUBLIC 'CONST'
rdata$r	ENDS
;	COMDAT ??_R1A@?0A@A@ios_base@_STL@@8
rdata$r	SEGMENT DWORD USE32 PUBLIC 'CONST'
rdata$r	ENDS
;	COMDAT ??_G?$basic_ios@DV?$char_traits@D@_STL@@@_STL@@UAEPAXI@Z
_TEXT	SEGMENT PARA USE32 PUBLIC 'CODE'
_TEXT	ENDS
;	COMDAT ??1?$basic_filebuf@DV?$char_traits@D@_STL@@@_STL@@UAE@XZ
_TEXT	SEGMENT PARA USE32 PUBLIC 'CODE'
_TEXT	ENDS
;	COMDAT ??_7?$basic_filebuf@DV?$char_traits@D@_STL@@@_STL@@6B@
CONST	SEGMENT DWORD USE32 PUBLIC 'CONST'
CONST	ENDS
;	COMDAT ??_R4?$basic_filebuf@DV?$char_traits@D@_STL@@@_STL@@6B@
rdata$r	SEGMENT DWORD USE32 PUBLIC 'CONST'
rdata$r	ENDS
;	COMDAT ??_R0?AV?$basic_filebuf@DV?$char_traits@D@_STL@@@_STL@@@8
_DATA	SEGMENT DWORD USE32 PUBLIC 'DATA'
_DATA	ENDS
;	COMDAT ??_R3?$basic_filebuf@DV?$char_traits@D@_STL@@@_STL@@8
rdata$r	SEGMENT DWORD USE32 PUBLIC 'CONST'
rdata$r	ENDS
;	COMDAT ??_R2?$basic_filebuf@DV?$char_traits@D@_STL@@@_STL@@8
rdata$r	SEGMENT DWORD USE32 PUBLIC 'CONST'
rdata$r	ENDS
;	COMDAT ??_R1A@?0A@A@?$basic_filebuf@DV?$char_traits@D@_STL@@@_STL@@8
rdata$r	SEGMENT DWORD USE32 PUBLIC 'CONST'
rdata$r	ENDS
;	COMDAT ??_R1A@?0A@A@?$basic_streambuf@DV?$char_traits@D@_STL@@@_STL@@8
rdata$r	SEGMENT DWORD USE32 PUBLIC 'CONST'
rdata$r	ENDS
;	COMDAT ??_R0?AV?$basic_streambuf@DV?$char_traits@D@_STL@@@_STL@@@8
_DATA	SEGMENT DWORD USE32 PUBLIC 'DATA'
_DATA	ENDS
;	COMDAT ??_G?$basic_filebuf@DV?$char_traits@D@_STL@@@_STL@@UAEPAXI@Z
_TEXT	SEGMENT PARA USE32 PUBLIC 'CODE'
_TEXT	ENDS
;	COMDAT ?setbuf@?$basic_filebuf@DV?$char_traits@D@_STL@@@_STL@@MAEPAV?$basic_streambuf@DV?$char_traits@D@_STL@@@2@PADH@Z
_TEXT	SEGMENT PARA USE32 PUBLIC 'CODE'
_TEXT	ENDS
;	COMDAT ?seekoff@?$basic_filebuf@DV?$char_traits@D@_STL@@@_STL@@MAE?AV?$fpos@H@2@JHH@Z
_TEXT	SEGMENT PARA USE32 PUBLIC 'CODE'
_TEXT	ENDS
;	COMDAT ?_M_in_binary_mode@_Filebuf_base@_STL@@QBE_NXZ
_TEXT	SEGMENT PARA USE32 PUBLIC 'CODE'
_TEXT	ENDS
;	COMDAT ?length@?$codecvt@DDH@_STL@@QBEHABHPBD1I@Z
_TEXT	SEGMENT PARA USE32 PUBLIC 'CODE'
_TEXT	ENDS
;	COMDAT ?in@?$codecvt@DDH@_STL@@QBE?AW4result@codecvt_base@2@AAHPBD1AAPBDPAD3AAPAD@Z
_TEXT	SEGMENT PARA USE32 PUBLIC 'CODE'
_TEXT	ENDS
;	COMDAT ?eback@?$basic_streambuf@DV?$char_traits@D@_STL@@@_STL@@IBEPADXZ
_TEXT	SEGMENT PARA USE32 PUBLIC 'CODE'
_TEXT	ENDS
;	COMDAT ?_FILE_I_begin@_STL@@YAPADPBU_iobuf@@@Z
_TEXT	SEGMENT PARA USE32 PUBLIC 'CODE'
_TEXT	ENDS
;	COMDAT ?gptr@?$basic_streambuf@DV?$char_traits@D@_STL@@@_STL@@IBEPADXZ
_TEXT	SEGMENT PARA USE32 PUBLIC 'CODE'
_TEXT	ENDS
;	COMDAT ?_FILE_I_next@_STL@@YAPADPBU_iobuf@@@Z
_TEXT	SEGMENT PARA USE32 PUBLIC 'CODE'
_TEXT	ENDS
;	COMDAT ?_M_get_offset@_Filebuf_base@_STL@@QAEJPAD0@Z
_TEXT	SEGMENT PARA USE32 PUBLIC 'CODE'
_TEXT	ENDS
;	COMDAT ??$count@PADD@_STL@@YAHPAD0ABD@Z
_TEXT	SEGMENT PARA USE32 PUBLIC 'CODE'
_TEXT	ENDS
;	COMDAT ?seekpos@?$basic_filebuf@DV?$char_traits@D@_STL@@@_STL@@MAE?AV?$fpos@H@2@V32@H@Z
_TEXT	SEGMENT PARA USE32 PUBLIC 'CODE'
_TEXT	ENDS
;	COMDAT ?sync@?$basic_filebuf@DV?$char_traits@D@_STL@@@_STL@@MAEHXZ
_TEXT	SEGMENT PARA USE32 PUBLIC 'CODE'
_TEXT	ENDS
;	COMDAT ?showmanyc@?$basic_filebuf@DV?$char_traits@D@_STL@@@_STL@@MAEHXZ
_TEXT	SEGMENT PARA USE32 PUBLIC 'CODE'
_TEXT	ENDS
;	COMDAT ?egptr@?$basic_streambuf@DV?$char_traits@D@_STL@@@_STL@@IBEPADXZ
_TEXT	SEGMENT PARA USE32 PUBLIC 'CODE'
_TEXT	ENDS
;	COMDAT ?_FILE_I_end@_STL@@YAPADPBU_iobuf@@@Z
_TEXT	SEGMENT PARA USE32 PUBLIC 'CODE'
_TEXT	ENDS
;	COMDAT ?underflow@?$basic_filebuf@DV?$char_traits@D@_STL@@@_STL@@MAEHXZ
_TEXT	SEGMENT PARA USE32 PUBLIC 'CODE'
_TEXT	ENDS
;	COMDAT ?pbackfail@?$basic_filebuf@DV?$char_traits@D@_STL@@@_STL@@MAEHH@Z
_TEXT	SEGMENT PARA USE32 PUBLIC 'CODE'
_TEXT	ENDS
;	COMDAT ?gbump@?$basic_streambuf@DV?$char_traits@D@_STL@@@_STL@@IAEXH@Z
_TEXT	SEGMENT PARA USE32 PUBLIC 'CODE'
_TEXT	ENDS
;	COMDAT ?_FILE_I_bump@_STL@@YAXPAU_iobuf@@H@Z
_TEXT	SEGMENT PARA USE32 PUBLIC 'CODE'
_TEXT	ENDS
;	COMDAT ?to_int_type@?$char_traits@D@_STL@@SAHABD@Z
_TEXT	SEGMENT PARA USE32 PUBLIC 'CODE'
_TEXT	ENDS
;	COMDAT ?to_char_type@?$char_traits@D@_STL@@SADABH@Z
_TEXT	SEGMENT PARA USE32 PUBLIC 'CODE'
_TEXT	ENDS
;	COMDAT ?overflow@?$basic_filebuf@DV?$char_traits@D@_STL@@@_STL@@MAEHH@Z
_TEXT	SEGMENT PARA USE32 PUBLIC 'CODE'
_TEXT	ENDS
;	COMDAT ?pptr@?$basic_streambuf@DV?$char_traits@D@_STL@@@_STL@@IBEPADXZ
_TEXT	SEGMENT PARA USE32 PUBLIC 'CODE'
_TEXT	ENDS
;	COMDAT ?_FILE_O_next@_STL@@YAPADPBU_iobuf@@@Z
_TEXT	SEGMENT PARA USE32 PUBLIC 'CODE'
_TEXT	ENDS
;	COMDAT ?out@?$codecvt@DDH@_STL@@QBE?AW4result@codecvt_base@2@AAHPBD1AAPBDPAD3AAPAD@Z
_TEXT	SEGMENT PARA USE32 PUBLIC 'CODE'
_TEXT	ENDS
;	COMDAT ?_M_doit@?$_Noconv_output@V?$char_traits@D@_STL@@@_STL@@SA_NPAV?$basic_filebuf@DV?$char_traits@D@_STL@@@2@PAD1@Z
_TEXT	SEGMENT PARA USE32 PUBLIC 'CODE'
_TEXT	ENDS
;	COMDAT ?imbue@?$basic_filebuf@DV?$char_traits@D@_STL@@@_STL@@MAEXABVlocale@2@@Z
_TEXT	SEGMENT PARA USE32 PUBLIC 'CODE'
_TEXT	ENDS
;	COMDAT ??1?$basic_ostream@DV?$char_traits@D@_STL@@@_STL@@UAE@XZ
_TEXT	SEGMENT PARA USE32 PUBLIC 'CODE'
_TEXT	ENDS
;	COMDAT ??_7?$basic_ostream@DV?$char_traits@D@_STL@@@_STL@@6B@
CONST	SEGMENT DWORD USE32 PUBLIC 'CONST'
CONST	ENDS
;	COMDAT ??_R4?$basic_ostream@DV?$char_traits@D@_STL@@@_STL@@6B@
rdata$r	SEGMENT DWORD USE32 PUBLIC 'CONST'
rdata$r	ENDS
;	COMDAT ??_R3?$basic_ostream@DV?$char_traits@D@_STL@@@_STL@@8
rdata$r	SEGMENT DWORD USE32 PUBLIC 'CONST'
rdata$r	ENDS
;	COMDAT ??_R2?$basic_ostream@DV?$char_traits@D@_STL@@@_STL@@8
rdata$r	SEGMENT DWORD USE32 PUBLIC 'CONST'
rdata$r	ENDS
;	COMDAT ??_G?$basic_ostream@DV?$char_traits@D@_STL@@@_STL@@UAEPAXI@Z
_TEXT	SEGMENT PARA USE32 PUBLIC 'CODE'
_TEXT	ENDS
;	COMDAT ??_D?$basic_ostream@DV?$char_traits@D@_STL@@@_STL@@QAEXXZ
_TEXT	SEGMENT PARA USE32 PUBLIC 'CODE'
_TEXT	ENDS
;	COMDAT ??_7?$basic_ofstream@DV?$char_traits@D@_STL@@@_STL@@6B@
CONST	SEGMENT DWORD USE32 PUBLIC 'CONST'
CONST	ENDS
;	COMDAT ?_Destroy@_STL@@YAXPAG0@Z
_TEXT	SEGMENT PARA USE32 PUBLIC 'CODE'
_TEXT	ENDS
;	COMDAT ?setp@?$basic_streambuf@DV?$char_traits@D@_STL@@@_STL@@IAEXPAD0@Z
_TEXT	SEGMENT PARA USE32 PUBLIC 'CODE'
_TEXT	ENDS
;	COMDAT ?_FILE_O_set@_STL@@YAXPAU_iobuf@@PAD11@Z
_TEXT	SEGMENT PARA USE32 PUBLIC 'CODE'
_TEXT	ENDS
;	COMDAT ?_FILE_I_set@_STL@@YAXPAU_iobuf@@PAD11@Z
_TEXT	SEGMENT PARA USE32 PUBLIC 'CODE'
_TEXT	ENDS
;	COMDAT ?setg@?$basic_streambuf@DV?$char_traits@D@_STL@@@_STL@@IAEXPAD00@Z
_TEXT	SEGMENT PARA USE32 PUBLIC 'CODE'
_TEXT	ENDS
;	COMDAT ?__is_open@_Filebuf_base@_STL@@QBE_NXZ
_TEXT	SEGMENT PARA USE32 PUBLIC 'CODE'
_TEXT	ENDS
;	COMDAT ?allocate@?$__node_alloc@$00$0A@@_STL@@SAPAXI@Z
_TEXT	SEGMENT PARA USE32 PUBLIC 'CODE'
_TEXT	ENDS
;	COMDAT ?__stl_new@_STL@@YAPAXI@Z
_TEXT	SEGMENT PARA USE32 PUBLIC 'CODE'
_TEXT	ENDS
;	COMDAT ??1?$_STLP_alloc_proxy@PADDV?$allocator@D@_STL@@@_STL@@QAE@XZ
_TEXT	SEGMENT PARA USE32 PUBLIC 'CODE'
_TEXT	ENDS
;	COMDAT ?length@?$char_traits@D@_STL@@SAIPBD@Z
_TEXT	SEGMENT PARA USE32 PUBLIC 'CODE'
_TEXT	ENDS
;	COMDAT ??1?$allocator@D@_STL@@QAE@XZ
_TEXT	SEGMENT PARA USE32 PUBLIC 'CODE'
_TEXT	ENDS
;	COMDAT ?eof@?$__char_traits_base@DH@_STL@@SAHXZ
_TEXT	SEGMENT PARA USE32 PUBLIC 'CODE'
_TEXT	ENDS
;	COMDAT ??1?$allocator@G@_STL@@QAE@XZ
_TEXT	SEGMENT PARA USE32 PUBLIC 'CODE'
_TEXT	ENDS
;	COMDAT ??_7MObject@@6B@
CONST	SEGMENT DWORD USE32 PUBLIC 'CONST'
CONST	ENDS
;	COMDAT ??_7ovfstream@@6B@
CONST	SEGMENT DWORD USE32 PUBLIC 'CONST'
CONST	ENDS
;	COMDAT ??_7ivfstream@@6B@
CONST	SEGMENT DWORD USE32 PUBLIC 'CONST'
CONST	ENDS
;	COMDAT ??0?$basic_string@DV?$char_traits@D@_STL@@V?$allocator@D@2@@_STL@@QAE@XZ
_TEXT	SEGMENT PARA USE32 PUBLIC 'CODE'
_TEXT	ENDS
;	COMDAT ??0?$allocator@D@_STL@@QAE@XZ
_TEXT	SEGMENT PARA USE32 PUBLIC 'CODE'
_TEXT	ENDS
;	COMDAT ??1?$_String_base@DV?$allocator@D@_STL@@@_STL@@QAE@XZ
_TEXT	SEGMENT PARA USE32 PUBLIC 'CODE'
_TEXT	ENDS
;	COMDAT ??1?$basic_string@DV?$char_traits@D@_STL@@V?$allocator@D@2@@_STL@@QAE@XZ
_TEXT	SEGMENT PARA USE32 PUBLIC 'CODE'
_TEXT	ENDS
;	COMDAT ??_7iovfs_base@@6B@
CONST	SEGMENT DWORD USE32 PUBLIC 'CONST'
CONST	ENDS
;	COMDAT ??_7IFileIO@@6B@
CONST	SEGMENT DWORD USE32 PUBLIC 'CONST'
CONST	ENDS
sxdata	SEGMENT DWORD USE32 'SXDATA'
sxdata	ENDS
FLAT	GROUP _DATA, CONST, _BSS
	ASSUME	CS: FLAT, DS: FLAT, SS: FLAT
endif

INCLUDELIB LIBCMT
INCLUDELIB OLDNAMES

PUBLIC	??2@YAPAXIPAX@Z					; operator new
; Function compile flags: /Ogsy
; File c:\program files\microsoft visual studio .net 2003\vc7\include\new
;	COMDAT ??2@YAPAXIPAX@Z
_TEXT	SEGMENT
___formal$ = 8						; size = 4
__Where$ = 12						; size = 4
??2@YAPAXIPAX@Z PROC NEAR				; operator new, COMDAT

; 64   : 	return (_Where);

  00000	8b 44 24 08	 mov	 eax, DWORD PTR __Where$[esp-4]

; 65   : 	}

  00004	c3		 ret	 0
??2@YAPAXIPAX@Z ENDP					; operator new
_TEXT	ENDS
PUBLIC	?__stl_new@_STL@@YAPAXI@Z			; _STL::__stl_new
EXTRN	??2@YAPAXI@Z:NEAR				; operator new
; Function compile flags: /Ogsy
; File c:\stlport-4.6.1\stlport\stl\_new.h
;	COMDAT ?__stl_new@_STL@@YAPAXI@Z
_TEXT	SEGMENT
___n$ = 8						; size = 4
?__stl_new@_STL@@YAPAXI@Z PROC NEAR			; _STL::__stl_new, COMDAT

; 86   : inline void*  _STLP_CALL __stl_new(size_t __n)   { _STLP_CHECK_NULL_ALLOC(::operator _STLP_NEW(__n)); }

  00000	e9 00 00 00 00	 jmp	 ??2@YAPAXI@Z		; operator new
?__stl_new@_STL@@YAPAXI@Z ENDP				; _STL::__stl_new
_TEXT	ENDS
PUBLIC	?__stl_delete@_STL@@YAXPAX@Z			; _STL::__stl_delete
EXTRN	??3@YAXPAX@Z:NEAR				; operator delete
; Function compile flags: /Ogsy
;	COMDAT ?__stl_delete@_STL@@YAXPAX@Z
_TEXT	SEGMENT
___p$ = 8						; size = 4
?__stl_delete@_STL@@YAXPAX@Z PROC NEAR			; _STL::__stl_delete, COMDAT

; 87   : inline void   _STLP_CALL __stl_delete(void* __p) { ::operator delete(__p); }

  00000	e9 00 00 00 00	 jmp	 ??3@YAXPAX@Z		; operator delete
?__stl_delete@_STL@@YAXPAX@Z ENDP			; _STL::__stl_delete
_TEXT	ENDS
PUBLIC	?_Destroy@_STL@@YAXPAG0@Z			; _STL::_Destroy
; Function compile flags: /Ogsy
; File c:\stlport-4.6.1\stlport\stl\_construct.h
;	COMDAT ?_Destroy@_STL@@YAXPAG0@Z
_TEXT	SEGMENT
___formal$ = 8						; size = 4
___formal$ = 12						; size = 4
?_Destroy@_STL@@YAXPAG0@Z PROC NEAR			; _STL::_Destroy, COMDAT

; 144  : inline void _Destroy(wchar_t*, wchar_t*) {}

  00000	c3		 ret	 0
?_Destroy@_STL@@YAXPAG0@Z ENDP				; _STL::_Destroy
_TEXT	ENDS
PUBLIC	?__copy_trivial@_STL@@YAPAXPBX0PAX@Z		; _STL::__copy_trivial
EXTRN	_memmove:NEAR
; Function compile flags: /Ogsy
; File c:\stlport-4.6.1\stlport\stl\_algobase.h
;	COMDAT ?__copy_trivial@_STL@@YAPAXPBX0PAX@Z
_TEXT	SEGMENT
___first$ = 8						; size = 4
___last$ = 12						; size = 4
___result$ = 16						; size = 4
?__copy_trivial@_STL@@YAPAXPBX0PAX@Z PROC NEAR		; _STL::__copy_trivial, COMDAT

; 147  : __copy_trivial(const void* __first, const void* __last, void* __result) {

  00000	55		 push	 ebp
  00001	8b ec		 mov	 ebp, esp
  00003	56		 push	 esi

; 148  :   return (__last == __first) ? __result : 
; 149  :     ((char*)memmove(__result, __first, ((const char*)__last - (const char*)__first))) + 
; 150  :     ((const char*)__last - (const char*)__first);

  00004	8b 75 0c	 mov	 esi, DWORD PTR ___last$[ebp]
  00007	3b 75 08	 cmp	 esi, DWORD PTR ___first$[ebp]
  0000a	75 05		 jne	 SHORT $L103163
  0000c	8b 45 10	 mov	 eax, DWORD PTR ___result$[ebp]
  0000f	eb 14		 jmp	 SHORT $L103164
$L103163:
  00011	2b 75 08	 sub	 esi, DWORD PTR ___first$[ebp]
  00014	56		 push	 esi
  00015	ff 75 08	 push	 DWORD PTR ___first$[ebp]
  00018	ff 75 10	 push	 DWORD PTR ___result$[ebp]
  0001b	e8 00 00 00 00	 call	 _memmove
  00020	83 c4 0c	 add	 esp, 12			; 0000000cH
  00023	03 c6		 add	 eax, esi
$L103164:
  00025	5e		 pop	 esi

; 151  : }

  00026	5d		 pop	 ebp
  00027	c3		 ret	 0
?__copy_trivial@_STL@@YAPAXPBX0PAX@Z ENDP		; _STL::__copy_trivial
_TEXT	ENDS
PUBLIC	?read@ivfstream@@QAEXPADI@Z			; ivfstream::read
; Function compile flags: /Ogsy
; File c:\darkeden\designed_common\project\client\virtualfilesystem\vfstream.inl
;	COMDAT ?read@ivfstream@@QAEXPADI@Z
_TEXT	SEGMENT
_buf$ = 8						; size = 4
_len$ = 12						; size = 4
?read@ivfstream@@QAEXPADI@Z PROC NEAR			; ivfstream::read, COMDAT
; _this$ = ecx

; 81   : 	if(m_pFileIO) m_pFileIO->read(buf, len);

  00000	83 79 04 00	 cmp	 DWORD PTR [ecx+4], 0
  00004	74 08		 je	 SHORT $L100689
  00006	8b 49 04	 mov	 ecx, DWORD PTR [ecx+4]
  00009	8b 01		 mov	 eax, DWORD PTR [ecx]
  0000b	ff 60 10	 jmp	 DWORD PTR [eax+16]
$L100689:

; 82   : }

  0000e	c2 08 00	 ret	 8
?read@ivfstream@@QAEXPADI@Z ENDP			; ivfstream::read
_TEXT	ENDS
PUBLIC	?SetRect@MPortal@@QAEXEEEE@Z			; MPortal::SetRect
; Function compile flags: /Ogsy
; File c:\darkeden\designed_common\project\client\mportal.h
;	COMDAT ?SetRect@MPortal@@QAEXEEEE@Z
_TEXT	SEGMENT
_left$ = 8						; size = 1
_top$ = 12						; size = 1
_right$ = 16						; size = 1
_bottom$ = 20						; size = 1
?SetRect@MPortal@@QAEXEEEE@Z PROC NEAR			; MPortal::SetRect, COMDAT
; _this$ = ecx

; 71   : 		{ m_Rect.left = left; m_Rect.top = top; m_Rect.right = right; m_Rect.bottom = bottom; }

  00000	8a 44 24 04	 mov	 al, BYTE PTR _left$[esp-4]
  00004	88 41 0c	 mov	 BYTE PTR [ecx+12], al
  00007	8a 44 24 08	 mov	 al, BYTE PTR _top$[esp-4]
  0000b	88 41 0d	 mov	 BYTE PTR [ecx+13], al
  0000e	8a 44 24 0c	 mov	 al, BYTE PTR _right$[esp-4]
  00012	88 41 0e	 mov	 BYTE PTR [ecx+14], al
  00015	8a 44 24 10	 mov	 al, BYTE PTR _bottom$[esp-4]
  00019	88 41 0f	 mov	 BYTE PTR [ecx+15], al
  0001c	c2 10 00	 ret	 16			; 00000010H
?SetRect@MPortal@@QAEXEEEE@Z ENDP			; MPortal::SetRect
_TEXT	ENDS
PUBLIC	?SetRect@MPortal@@QAEXUP_RECT@@@Z		; MPortal::SetRect
; Function compile flags: /Ogsy
;	COMDAT ?SetRect@MPortal@@QAEXUP_RECT@@@Z
_TEXT	SEGMENT
_rect$ = 8						; size = 4
?SetRect@MPortal@@QAEXUP_RECT@@@Z PROC NEAR		; MPortal::SetRect, COMDAT
; _this$ = ecx

; 72   : 		void		SetRect(P_RECT rect)		{ m_Rect = rect; }

  00000	8b 44 24 04	 mov	 eax, DWORD PTR _rect$[esp-4]
  00004	89 41 0c	 mov	 DWORD PTR [ecx+12], eax
  00007	c2 04 00	 ret	 4
?SetRect@MPortal@@QAEXUP_RECT@@@Z ENDP			; MPortal::SetRect
_TEXT	ENDS
PUBLIC	??0?$allocator@G@_STL@@QAE@XZ			; _STL::allocator<unsigned short>::allocator<unsigned short>
; Function compile flags: /Ogsy
; File c:\stlport-4.6.1\stlport\stl\_alloc.h
;	COMDAT ??0?$allocator@G@_STL@@QAE@XZ
_TEXT	SEGMENT
??0?$allocator@G@_STL@@QAE@XZ PROC NEAR			; _STL::allocator<unsigned short>::allocator<unsigned short>, COMDAT
; _this$ = ecx

; 345  :   allocator() _STLP_NOTHROW {}

  00000	8b c1		 mov	 eax, ecx
  00002	c3		 ret	 0
??0?$allocator@G@_STL@@QAE@XZ ENDP			; _STL::allocator<unsigned short>::allocator<unsigned short>
_TEXT	ENDS
PUBLIC	?size@?$vector@GV?$allocator@G@_STL@@@_STL@@QBEIXZ ; _STL::vector<unsigned short,_STL::allocator<unsigned short> >::size
; Function compile flags: /Ogsy
; File c:\stlport-4.6.1\stlport\stl\_vector.h
;	COMDAT ?size@?$vector@GV?$allocator@G@_STL@@@_STL@@QBEIXZ
_TEXT	SEGMENT
?size@?$vector@GV?$allocator@G@_STL@@@_STL@@QBEIXZ PROC NEAR ; _STL::vector<unsigned short,_STL::allocator<unsigned short> >::size, COMDAT
; _this$ = ecx

; 182  :   size_type size() const        { return size_type(this->_M_finish - this->_M_start); }

  00000	8b 41 04	 mov	 eax, DWORD PTR [ecx+4]
  00003	2b 01		 sub	 eax, DWORD PTR [ecx]
  00005	d1 f8		 sar	 eax, 1
  00007	c3		 ret	 0
?size@?$vector@GV?$allocator@G@_STL@@@_STL@@QBEIXZ ENDP	; _STL::vector<unsigned short,_STL::allocator<unsigned short> >::size
_TEXT	ENDS
PUBLIC	?begin@?$vector@GV?$allocator@G@_STL@@@_STL@@QAEPAGXZ ; _STL::vector<unsigned short,_STL::allocator<unsigned short> >::begin
; Function compile flags: /Ogsy
;	COMDAT ?begin@?$vector@GV?$allocator@G@_STL@@@_STL@@QAEPAGXZ
_TEXT	SEGMENT
?begin@?$vector@GV?$allocator@G@_STL@@@_STL@@QAEPAGXZ PROC NEAR ; _STL::vector<unsigned short,_STL::allocator<unsigned short> >::begin, COMDAT
; _this$ = ecx

; 172  :   iterator begin()             { return this->_M_start; }

  00000	8b 01		 mov	 eax, DWORD PTR [ecx]
  00002	c3		 ret	 0
?begin@?$vector@GV?$allocator@G@_STL@@@_STL@@QAEPAGXZ ENDP ; _STL::vector<unsigned short,_STL::allocator<unsigned short> >::begin
_TEXT	ENDS
PUBLIC	?end@?$vector@GV?$allocator@G@_STL@@@_STL@@QAEPAGXZ ; _STL::vector<unsigned short,_STL::allocator<unsigned short> >::end
; Function compile flags: /Ogsy
;	COMDAT ?end@?$vector@GV?$allocator@G@_STL@@@_STL@@QAEPAGXZ
_TEXT	SEGMENT
?end@?$vector@GV?$allocator@G@_STL@@@_STL@@QAEPAGXZ PROC NEAR ; _STL::vector<unsigned short,_STL::allocator<unsigned short> >::end, COMDAT
; _this$ = ecx

; 174  :   iterator end()               { return this->_M_finish; }

  00000	8b 41 04	 mov	 eax, DWORD PTR [ecx+4]
  00003	c3		 ret	 0
?end@?$vector@GV?$allocator@G@_STL@@@_STL@@QAEPAGXZ ENDP ; _STL::vector<unsigned short,_STL::allocator<unsigned short> >::end
_TEXT	ENDS
PUBLIC	?flags@ios_base@_STL@@QBEHXZ			; _STL::ios_base::flags
; Function compile flags: /Ogsy
; File c:\stlport-4.6.1\stlport\stl\_ios_base.h
;	COMDAT ?flags@ios_base@_STL@@QBEHXZ
_TEXT	SEGMENT
?flags@ios_base@_STL@@QBEHXZ PROC NEAR			; _STL::ios_base::flags, COMDAT
; _this$ = ecx

; 115  :   fmtflags flags() const { return _M_fmtflags; }

  00000	8b 41 04	 mov	 eax, DWORD PTR [ecx+4]
  00003	c3		 ret	 0
?flags@ios_base@_STL@@QBEHXZ ENDP			; _STL::ios_base::flags
_TEXT	ENDS
PUBLIC	??0?$allocator@G@_STL@@QAE@ABV01@@Z		; _STL::allocator<unsigned short>::allocator<unsigned short>
; Function compile flags: /Ogsy
; File c:\stlport-4.6.1\stlport\stl\_alloc.h
;	COMDAT ??0?$allocator@G@_STL@@QAE@ABV01@@Z
_TEXT	SEGMENT
___formal$ = 8						; size = 4
??0?$allocator@G@_STL@@QAE@ABV01@@Z PROC NEAR		; _STL::allocator<unsigned short>::allocator<unsigned short>, COMDAT
; _this$ = ecx

; 349  :   allocator(const allocator<_Tp>&) _STLP_NOTHROW {}

  00000	8b c1		 mov	 eax, ecx
  00002	c2 04 00	 ret	 4
??0?$allocator@G@_STL@@QAE@ABV01@@Z ENDP		; _STL::allocator<unsigned short>::allocator<unsigned short>
_TEXT	ENDS
PUBLIC	?rdstate@ios_base@_STL@@QBEHXZ			; _STL::ios_base::rdstate
; Function compile flags: /Ogsy
; File c:\stlport-4.6.1\stlport\stl\_ios_base.h
;	COMDAT ?rdstate@ios_base@_STL@@QBEHXZ
_TEXT	SEGMENT
?rdstate@ios_base@_STL@@QBEHXZ PROC NEAR		; _STL::ios_base::rdstate, COMDAT
; _this$ = ecx

; 178  :   iostate rdstate() const { return _M_iostate; }

  00000	8b 41 08	 mov	 eax, DWORD PTR [ecx+8]
  00003	c3		 ret	 0
?rdstate@ios_base@_STL@@QBEHXZ ENDP			; _STL::ios_base::rdstate
_TEXT	ENDS
PUBLIC	?good@ios_base@_STL@@QBE_NXZ			; _STL::ios_base::good
; Function compile flags: /Ogsy
;	COMDAT ?good@ios_base@_STL@@QBE_NXZ
_TEXT	SEGMENT
?good@ios_base@_STL@@QBE_NXZ PROC NEAR			; _STL::ios_base::good, COMDAT
; _this$ = ecx

; 180  :   bool good() const { return _M_iostate == 0; }

  00000	33 c0		 xor	 eax, eax
  00002	39 41 08	 cmp	 DWORD PTR [ecx+8], eax
  00005	0f 94 c0	 sete	 al
  00008	c3		 ret	 0
?good@ios_base@_STL@@QBE_NXZ ENDP			; _STL::ios_base::good
_TEXT	ENDS
PUBLIC	?_M_set@?$vector@GV?$allocator@G@_STL@@@_STL@@IAEXPAG00@Z ; _STL::vector<unsigned short,_STL::allocator<unsigned short> >::_M_set
; Function compile flags: /Ogsy
; File c:\stlport-4.6.1\stlport\stl\_vector.h
;	COMDAT ?_M_set@?$vector@GV?$allocator@G@_STL@@@_STL@@IAEXPAG00@Z
_TEXT	SEGMENT
___s$ = 8						; size = 4
___f$ = 12						; size = 4
___e$ = 16						; size = 4
?_M_set@?$vector@GV?$allocator@G@_STL@@@_STL@@IAEXPAG00@Z PROC NEAR ; _STL::vector<unsigned short,_STL::allocator<unsigned short> >::_M_set, COMDAT
; _this$ = ecx

; 501  :     this->_M_start = __s;

  00000	8b 44 24 04	 mov	 eax, DWORD PTR ___s$[esp-4]
  00004	89 01		 mov	 DWORD PTR [ecx], eax

; 502  :     this->_M_finish = __f;

  00006	8b 44 24 08	 mov	 eax, DWORD PTR ___f$[esp-4]
  0000a	89 41 04	 mov	 DWORD PTR [ecx+4], eax

; 503  :     this->_M_end_of_storage._M_data = __e;

  0000d	8b 44 24 0c	 mov	 eax, DWORD PTR ___e$[esp-4]
  00011	89 41 08	 mov	 DWORD PTR [ecx+8], eax

; 504  :   }

  00014	c2 0c 00	 ret	 12			; 0000000cH
?_M_set@?$vector@GV?$allocator@G@_STL@@@_STL@@IAEXPAG00@Z ENDP ; _STL::vector<unsigned short,_STL::allocator<unsigned short> >::_M_set
_TEXT	ENDS
PUBLIC	?_M_setstate_nothrow@ios_base@_STL@@IAEXH@Z	; _STL::ios_base::_M_setstate_nothrow
; Function compile flags: /Ogsy
; File c:\stlport-4.6.1\stlport\stl\_ios_base.h
;	COMDAT ?_M_setstate_nothrow@ios_base@_STL@@IAEXH@Z
_TEXT	SEGMENT
___state$ = 8						; size = 4
?_M_setstate_nothrow@ios_base@_STL@@IAEXH@Z PROC NEAR	; _STL::ios_base::_M_setstate_nothrow, COMDAT
; _this$ = ecx

; 193  :   void _M_setstate_nothrow(iostate __state) { _M_iostate |= __state; }

  00000	8b 44 24 04	 mov	 eax, DWORD PTR ___state$[esp-4]
  00004	09 41 08	 or	 DWORD PTR [ecx+8], eax
  00007	c2 04 00	 ret	 4
?_M_setstate_nothrow@ios_base@_STL@@IAEXH@Z ENDP	; _STL::ios_base::_M_setstate_nothrow
_TEXT	ENDS
PUBLIC	?_M_clear_nothrow@ios_base@_STL@@IAEXH@Z	; _STL::ios_base::_M_clear_nothrow
; Function compile flags: /Ogsy
;	COMDAT ?_M_clear_nothrow@ios_base@_STL@@IAEXH@Z
_TEXT	SEGMENT
___state$ = 8						; size = 4
?_M_clear_nothrow@ios_base@_STL@@IAEXH@Z PROC NEAR	; _STL::ios_base::_M_clear_nothrow, COMDAT
; _this$ = ecx

; 194  :   void _M_clear_nothrow(iostate __state) { _M_iostate = __state; }

  00000	8b 44 24 04	 mov	 eax, DWORD PTR ___state$[esp-4]
  00004	89 41 08	 mov	 DWORD PTR [ecx+8], eax
  00007	c2 04 00	 ret	 4
?_M_clear_nothrow@ios_base@_STL@@IAEXH@Z ENDP		; _STL::ios_base::_M_clear_nothrow
_TEXT	ENDS
PUBLIC	?_M_get_exception_mask@ios_base@_STL@@IBEHXZ	; _STL::ios_base::_M_get_exception_mask
; Function compile flags: /Ogsy
;	COMDAT ?_M_get_exception_mask@ios_base@_STL@@IBEHXZ
_TEXT	SEGMENT
?_M_get_exception_mask@ios_base@_STL@@IBEHXZ PROC NEAR	; _STL::ios_base::_M_get_exception_mask, COMDAT
; _this$ = ecx

; 195  :   iostate _M_get_exception_mask() const { return _M_exception_mask; }

  00000	8b 41 14	 mov	 eax, DWORD PTR [ecx+20]
  00003	c3		 ret	 0
?_M_get_exception_mask@ios_base@_STL@@IBEHXZ ENDP	; _STL::ios_base::_M_get_exception_mask
_TEXT	ENDS
PUBLIC	?_M_check_exception_mask@ios_base@_STL@@IAEXXZ	; _STL::ios_base::_M_check_exception_mask
EXTRN	?_M_throw_failure@ios_base@_STL@@IAEXXZ:NEAR	; _STL::ios_base::_M_throw_failure
; Function compile flags: /Ogsy
;	COMDAT ?_M_check_exception_mask@ios_base@_STL@@IAEXXZ
_TEXT	SEGMENT
?_M_check_exception_mask@ios_base@_STL@@IAEXXZ PROC NEAR ; _STL::ios_base::_M_check_exception_mask, COMDAT
; _this$ = ecx

; 198  :     if (_M_iostate & _M_exception_mask)

  00000	8b 41 14	 mov	 eax, DWORD PTR [ecx+20]
  00003	85 41 08	 test	 eax, DWORD PTR [ecx+8]
  00006	74 05		 je	 SHORT $L79498

; 199  :       _M_throw_failure(); 

  00008	e9 00 00 00 00	 jmp	 ?_M_throw_failure@ios_base@_STL@@IAEXXZ ; _STL::ios_base::_M_throw_failure
$L79498:

; 200  :   }

  0000d	c3		 ret	 0
?_M_check_exception_mask@ios_base@_STL@@IAEXXZ ENDP	; _STL::ios_base::_M_check_exception_mask
_TEXT	ENDS
PUBLIC	??$_Construct@GG@_STL@@YAXPAGABG@Z		; _STL::_Construct<unsigned short,unsigned short>
; Function compile flags: /Ogsy
; File c:\stlport-4.6.1\stlport\stl\_construct.h
;	COMDAT ??$_Construct@GG@_STL@@YAXPAGABG@Z
_TEXT	SEGMENT
___p$ = 8						; size = 4
___val$ = 12						; size = 4
??$_Construct@GG@_STL@@YAXPAGABG@Z PROC NEAR		; _STL::_Construct<unsigned short,unsigned short>, COMDAT

; 94   : # ifdef _STLP_DEBUG_UNINITIALIZED
; 95   : 	memset((char*)__p, _STLP_SHRED_BYTE, sizeof(_T1));
; 96   : # endif
; 97   :     _STLP_PLACEMENT_NEW (__p) _T1(__val);

  00000	8b 44 24 04	 mov	 eax, DWORD PTR ___p$[esp-4]
  00004	85 c0		 test	 eax, eax
  00006	74 0a		 je	 SHORT $L103216
  00008	8b 4c 24 08	 mov	 ecx, DWORD PTR ___val$[esp-4]
  0000c	66 8b 09	 mov	 cx, WORD PTR [ecx]
  0000f	66 89 08	 mov	 WORD PTR [eax], cx
$L103216:

; 98   : }

  00012	c3		 ret	 0
??$_Construct@GG@_STL@@YAXPAGABG@Z ENDP			; _STL::_Construct<unsigned short,unsigned short>
_TEXT	ENDS
PUBLIC	??$max@I@_STL@@YAABIABI0@Z			; _STL::max<unsigned int>
; Function compile flags: /Ogsy
; File c:\stlport-4.6.1\stlport\stl\_algobase.h
;	COMDAT ??$max@I@_STL@@YAABIABI0@Z
_TEXT	SEGMENT
___a$ = 8						; size = 4
___b$ = 12						; size = 4
??$max@I@_STL@@YAABIABI0@Z PROC NEAR			; _STL::max<unsigned int>, COMDAT

; 79   : inline const _Tp& (max)(const _Tp& __a, const _Tp& __b) {  return  __a < __b ? __b : __a; }

  00000	8b 44 24 04	 mov	 eax, DWORD PTR ___a$[esp-4]
  00004	8b 10		 mov	 edx, DWORD PTR [eax]
  00006	8b 4c 24 08	 mov	 ecx, DWORD PTR ___b$[esp-4]
  0000a	3b 11		 cmp	 edx, DWORD PTR [ecx]
  0000c	73 02		 jae	 SHORT $L103226
  0000e	8b c1		 mov	 eax, ecx
$L103226:
  00010	c3		 ret	 0
??$max@I@_STL@@YAABIABI0@Z ENDP				; _STL::max<unsigned int>
_TEXT	ENDS
PUBLIC	??$fill_n@PAGIG@_STL@@YAPAGPAGIABG@Z		; _STL::fill_n<unsigned short *,unsigned int,unsigned short>
; Function compile flags: /Ogsy
;	COMDAT ??$fill_n@PAGIG@_STL@@YAPAGPAGIABG@Z
_TEXT	SEGMENT
___first$ = 8						; size = 4
___n$ = 12						; size = 4
___val$ = 16						; size = 4
??$fill_n@PAGIG@_STL@@YAPAGPAGIABG@Z PROC NEAR		; _STL::fill_n<unsigned short *,unsigned int,unsigned short>, COMDAT

; 332  : _OutputIter fill_n(_OutputIter __first, _Size __n, const _Tp& __val) {

  00000	55		 push	 ebp
  00001	8b ec		 mov	 ebp, esp

; 333  :   _STLP_FIX_LITERAL_BUG(__first)
; 334  :   for ( ; __n > 0; --__n, ++__first)

  00003	8b 45 0c	 mov	 eax, DWORD PTR ___n$[ebp]
  00006	85 c0		 test	 eax, eax
  00008	76 13		 jbe	 SHORT $L102398
$L102396:

; 335  :     *__first = __val;

  0000a	8b 4d 10	 mov	 ecx, DWORD PTR ___val$[ebp]
  0000d	8b 55 08	 mov	 edx, DWORD PTR ___first$[ebp]
  00010	66 8b 09	 mov	 cx, WORD PTR [ecx]
  00013	83 45 08 02	 add	 DWORD PTR ___first$[ebp], 2
  00017	48		 dec	 eax
  00018	66 89 0a	 mov	 WORD PTR [edx], cx
  0001b	75 ed		 jne	 SHORT $L102396
$L102398:

; 336  :   return __first;

  0001d	8b 45 08	 mov	 eax, DWORD PTR ___first$[ebp]

; 337  : }

  00020	5d		 pop	 ebp
  00021	c3		 ret	 0
??$fill_n@PAGIG@_STL@@YAPAGPAGIABG@Z ENDP		; _STL::fill_n<unsigned short *,unsigned int,unsigned short>
_TEXT	ENDS
PUBLIC	??$__copy_ptrs@PAGPAG@_STL@@YAPAGPAG00ABU__true_type@0@@Z ; _STL::__copy_ptrs<unsigned short *,unsigned short *>
; Function compile flags: /Ogsy
;	COMDAT ??$__copy_ptrs@PAGPAG@_STL@@YAPAGPAG00ABU__true_type@0@@Z
_TEXT	SEGMENT
___first$ = 8						; size = 4
___last$ = 12						; size = 4
___result$ = 16						; size = 4
___formal$ = 20						; size = 4
??$__copy_ptrs@PAGPAG@_STL@@YAPAGPAG00ABU__true_type@0@@Z PROC NEAR ; _STL::__copy_ptrs<unsigned short *,unsigned short *>, COMDAT

; 195  : // we know they all pointers, so this cast is OK 
; 196  :   //  return (_OutputIter)__copy_trivial(&(*__first), &(*__last), &(*__result));
; 197  :   return (_OutputIter)__copy_trivial(__first, __last, __result);

  00000	ff 74 24 0c	 push	 DWORD PTR ___result$[esp-4]
  00004	ff 74 24 0c	 push	 DWORD PTR ___last$[esp]
  00008	ff 74 24 0c	 push	 DWORD PTR ___first$[esp+4]
  0000c	e8 00 00 00 00	 call	 ?__copy_trivial@_STL@@YAPAXPBX0PAX@Z ; _STL::__copy_trivial
  00011	83 c4 0c	 add	 esp, 12			; 0000000cH

; 198  : }

  00014	c3		 ret	 0
??$__copy_ptrs@PAGPAG@_STL@@YAPAGPAG00ABU__true_type@0@@Z ENDP ; _STL::__copy_ptrs<unsigned short *,unsigned short *>
_TEXT	ENDS
PUBLIC	?rdbuf@?$basic_ios@DV?$char_traits@D@_STL@@@_STL@@QBEPAV?$basic_streambuf@DV?$char_traits@D@_STL@@@2@XZ ; _STL::basic_ios<char,_STL::char_traits<char> >::rdbuf
; Function compile flags: /Ogsy
; File c:\stlport-4.6.1\stlport\stl\_ios.h
;	COMDAT ?rdbuf@?$basic_ios@DV?$char_traits@D@_STL@@@_STL@@QBEPAV?$basic_streambuf@DV?$char_traits@D@_STL@@@2@XZ
_TEXT	SEGMENT
?rdbuf@?$basic_ios@DV?$char_traits@D@_STL@@@_STL@@QBEPAV?$basic_streambuf@DV?$char_traits@D@_STL@@@2@XZ PROC NEAR ; _STL::basic_ios<char,_STL::char_traits<char> >::rdbuf, COMDAT
; _this$ = ecx

; 72   :     { return _M_streambuf; }

  00000	8b 41 58	 mov	 eax, DWORD PTR [ecx+88]
  00003	c3		 ret	 0
?rdbuf@?$basic_ios@DV?$char_traits@D@_STL@@@_STL@@QBEPAV?$basic_streambuf@DV?$char_traits@D@_STL@@@2@XZ ENDP ; _STL::basic_ios<char,_STL::char_traits<char> >::rdbuf
_TEXT	ENDS
PUBLIC	?capacity@?$vector@GV?$allocator@G@_STL@@@_STL@@QBEIXZ ; _STL::vector<unsigned short,_STL::allocator<unsigned short> >::capacity
; Function compile flags: /Ogsy
; File c:\stlport-4.6.1\stlport\stl\_vector.h
;	COMDAT ?capacity@?$vector@GV?$allocator@G@_STL@@@_STL@@QBEIXZ
_TEXT	SEGMENT
?capacity@?$vector@GV?$allocator@G@_STL@@@_STL@@QBEIXZ PROC NEAR ; _STL::vector<unsigned short,_STL::allocator<unsigned short> >::capacity, COMDAT
; _this$ = ecx

; 184  :   size_type capacity() const    { return size_type(this->_M_end_of_storage._M_data - this->_M_start); }

  00000	8b 41 08	 mov	 eax, DWORD PTR [ecx+8]
  00003	2b 01		 sub	 eax, DWORD PTR [ecx]
  00005	d1 f8		 sar	 eax, 1
  00007	c3		 ret	 0
?capacity@?$vector@GV?$allocator@G@_STL@@@_STL@@QBEIXZ ENDP ; _STL::vector<unsigned short,_STL::allocator<unsigned short> >::capacity
_TEXT	ENDS
PUBLIC	??Bsentry@?$basic_ostream@DV?$char_traits@D@_STL@@@_STL@@QBE_NXZ ; _STL::basic_ostream<char,_STL::char_traits<char> >::sentry::operator bool
; Function compile flags: /Ogsy
; File c:\stlport-4.6.1\stlport\stl\_ostream.h
;	COMDAT ??Bsentry@?$basic_ostream@DV?$char_traits@D@_STL@@@_STL@@QBE_NXZ
_TEXT	SEGMENT
??Bsentry@?$basic_ostream@DV?$char_traits@D@_STL@@@_STL@@QBE_NXZ PROC NEAR ; _STL::basic_ostream<char,_STL::char_traits<char> >::sentry::operator bool, COMDAT
; _this$ = ecx

; 176  :       operator bool() const { return _M_ok; }

  00000	8a 41 04	 mov	 al, BYTE PTR [ecx+4]
  00003	c3		 ret	 0
??Bsentry@?$basic_ostream@DV?$char_traits@D@_STL@@@_STL@@QBE_NXZ ENDP ; _STL::basic_ostream<char,_STL::char_traits<char> >::sentry::operator bool
_TEXT	ENDS
PUBLIC	?_Ret@?$_BothPtrType@PBGPAG@_STL@@SA?AU__true_type@2@XZ ; _STL::_BothPtrType<unsigned short const *,unsigned short *>::_Ret
; Function compile flags: /Ogsy
; File c:\stlport-4.6.1\stlport\stl\type_traits.h
;	COMDAT ?_Ret@?$_BothPtrType@PBGPAG@_STL@@SA?AU__true_type@2@XZ
_TEXT	SEGMENT
$T103247 = -1						; size = 1
?_Ret@?$_BothPtrType@PBGPAG@_STL@@SA?AU__true_type@2@XZ PROC NEAR ; _STL::_BothPtrType<unsigned short const *,unsigned short *>::_Ret, COMDAT

; 234  :   static __true_type _Ret() { return __true_type();} 

  00000	55		 push	 ebp
  00001	8b ec		 mov	 ebp, esp
  00003	51		 push	 ecx
  00004	57		 push	 edi
  00005	33 c0		 xor	 eax, eax
  00007	8d 7d ff	 lea	 edi, DWORD PTR $T103247[ebp]
  0000a	aa		 stosb
  0000b	8a 45 ff	 mov	 al, BYTE PTR $T103247[ebp]
  0000e	5f		 pop	 edi
  0000f	c9		 leave
  00010	c3		 ret	 0
?_Ret@?$_BothPtrType@PBGPAG@_STL@@SA?AU__true_type@2@XZ ENDP ; _STL::_BothPtrType<unsigned short const *,unsigned short *>::_Ret
_TEXT	ENDS
PUBLIC	?clear@?$basic_ios@DV?$char_traits@D@_STL@@@_STL@@QAEXH@Z ; _STL::basic_ios<char,_STL::char_traits<char> >::clear
; Function compile flags: /Ogsy
; File c:\stlport-4.6.1\stlport\stl\_ios.h
;	COMDAT ?clear@?$basic_ios@DV?$char_traits@D@_STL@@@_STL@@QAEXH@Z
_TEXT	SEGMENT
___state$ = 8						; size = 4
?clear@?$basic_ios@DV?$char_traits@D@_STL@@@_STL@@QAEXH@Z PROC NEAR ; _STL::basic_ios<char,_STL::char_traits<char> >::clear, COMDAT
; _this$ = ecx

; 91   :     _M_clear_nothrow(this->rdbuf() ? __state : iostate(__state|ios_base::badbit));

  00000	83 79 58 00	 cmp	 DWORD PTR [ecx+88], 0
  00004	8b 44 24 04	 mov	 eax, DWORD PTR ___state$[esp-4]
  00008	75 03		 jne	 SHORT $L103251
  0000a	83 c8 01	 or	 eax, 1
$L103251:

; 92   :     _M_check_exception_mask();

  0000d	85 41 14	 test	 DWORD PTR [ecx+20], eax
  00010	89 41 08	 mov	 DWORD PTR [ecx+8], eax
  00013	74 05		 je	 SHORT $L103262
  00015	e8 00 00 00 00	 call	 ?_M_throw_failure@ios_base@_STL@@IAEXXZ ; _STL::ios_base::_M_throw_failure
$L103262:

; 93   :   }

  0001a	c2 04 00	 ret	 4
?clear@?$basic_ios@DV?$char_traits@D@_STL@@@_STL@@QAEXH@Z ENDP ; _STL::basic_ios<char,_STL::char_traits<char> >::clear
_TEXT	ENDS
PUBLIC	?_M_handle_exception@?$basic_ios@DV?$char_traits@D@_STL@@@_STL@@QAEXH@Z ; _STL::basic_ios<char,_STL::char_traits<char> >::_M_handle_exception
EXTRN	__CxxThrowException@8:NEAR
; Function compile flags: /Ogsy
; File c:\stlport-4.6.1\stlport\stl\_ios.c
;	COMDAT ?_M_handle_exception@?$basic_ios@DV?$char_traits@D@_STL@@@_STL@@QAEXH@Z
_TEXT	SEGMENT
___flag$ = 8						; size = 4
?_M_handle_exception@?$basic_ios@DV?$char_traits@D@_STL@@@_STL@@QAEXH@Z PROC NEAR ; _STL::basic_ios<char,_STL::char_traits<char> >::_M_handle_exception, COMDAT
; _this$ = ecx

; 118  :   this->_M_setstate_nothrow(__flag);

  00000	8b 44 24 04	 mov	 eax, DWORD PTR ___flag$[esp-4]
  00004	09 41 08	 or	 DWORD PTR [ecx+8], eax

; 119  :   if (this->_M_get_exception_mask() & __flag)

  00007	85 41 14	 test	 DWORD PTR [ecx+20], eax
  0000a	74 09		 je	 SHORT $L102471

; 120  :     _STLP_RETHROW;

  0000c	6a 00		 push	 0
  0000e	6a 00		 push	 0
  00010	e8 00 00 00 00	 call	 __CxxThrowException@8
$L103276:
$L102471:

; 121  : }

  00015	c2 04 00	 ret	 4
$L103275:
?_M_handle_exception@?$basic_ios@DV?$char_traits@D@_STL@@@_STL@@QAEXH@Z ENDP ; _STL::basic_ios<char,_STL::char_traits<char> >::_M_handle_exception
_TEXT	ENDS
PUBLIC	?pubsync@?$basic_streambuf@DV?$char_traits@D@_STL@@@_STL@@QAEHXZ ; _STL::basic_streambuf<char,_STL::char_traits<char> >::pubsync
; Function compile flags: /Ogsy
; File c:\stlport-4.6.1\stlport\stl\_streambuf.h
;	COMDAT ?pubsync@?$basic_streambuf@DV?$char_traits@D@_STL@@@_STL@@QAEHXZ
_TEXT	SEGMENT
?pubsync@?$basic_streambuf@DV?$char_traits@D@_STL@@@_STL@@QAEHXZ PROC NEAR ; _STL::basic_streambuf<char,_STL::char_traits<char> >::pubsync, COMDAT
; _this$ = ecx

; 411  :   int pubsync() { return this->sync(); }

  00000	8b 01		 mov	 eax, DWORD PTR [ecx]
  00002	ff 60 10	 jmp	 DWORD PTR [eax+16]
?pubsync@?$basic_streambuf@DV?$char_traits@D@_STL@@@_STL@@QAEHXZ ENDP ; _STL::basic_streambuf<char,_STL::char_traits<char> >::pubsync
_TEXT	ENDS
PUBLIC	?sputn@?$basic_streambuf@DV?$char_traits@D@_STL@@@_STL@@QAEHPBDH@Z ; _STL::basic_streambuf<char,_STL::char_traits<char> >::sputn
; Function compile flags: /Ogsy
;	COMDAT ?sputn@?$basic_streambuf@DV?$char_traits@D@_STL@@@_STL@@QAEHPBDH@Z
_TEXT	SEGMENT
___s$ = 8						; size = 4
___n$ = 12						; size = 4
?sputn@?$basic_streambuf@DV?$char_traits@D@_STL@@@_STL@@QAEHPBDH@Z PROC NEAR ; _STL::basic_streambuf<char,_STL::char_traits<char> >::sputn, COMDAT
; _this$ = ecx

; 441  :     { return this->xsputn(__s, __n); }

  00000	8b 01		 mov	 eax, DWORD PTR [ecx]
  00002	ff 60 28	 jmp	 DWORD PTR [eax+40]
?sputn@?$basic_streambuf@DV?$char_traits@D@_STL@@@_STL@@QAEHPBDH@Z ENDP ; _STL::basic_streambuf<char,_STL::char_traits<char> >::sputn
_TEXT	ENDS
PUBLIC	??$__copy_ptrs@PBGPAG@_STL@@YAPAGPBG0PAGABU__true_type@0@@Z ; _STL::__copy_ptrs<unsigned short const *,unsigned short *>
; Function compile flags: /Ogsy
; File c:\stlport-4.6.1\stlport\stl\_algobase.h
;	COMDAT ??$__copy_ptrs@PBGPAG@_STL@@YAPAGPBG0PAGABU__true_type@0@@Z
_TEXT	SEGMENT
___first$ = 8						; size = 4
___last$ = 12						; size = 4
___result$ = 16						; size = 4
___formal$ = 20						; size = 4
??$__copy_ptrs@PBGPAG@_STL@@YAPAGPBG0PAGABU__true_type@0@@Z PROC NEAR ; _STL::__copy_ptrs<unsigned short const *,unsigned short *>, COMDAT

; 195  : // we know they all pointers, so this cast is OK 
; 196  :   //  return (_OutputIter)__copy_trivial(&(*__first), &(*__last), &(*__result));
; 197  :   return (_OutputIter)__copy_trivial(__first, __last, __result);

  00000	ff 74 24 0c	 push	 DWORD PTR ___result$[esp-4]
  00004	ff 74 24 0c	 push	 DWORD PTR ___last$[esp]
  00008	ff 74 24 0c	 push	 DWORD PTR ___first$[esp+4]
  0000c	e8 00 00 00 00	 call	 ?__copy_trivial@_STL@@YAPAXPBX0PAX@Z ; _STL::__copy_trivial
  00011	83 c4 0c	 add	 esp, 12			; 0000000cH

; 198  : }

  00014	c3		 ret	 0
??$__copy_ptrs@PBGPAG@_STL@@YAPAGPBG0PAGABU__true_type@0@@Z ENDP ; _STL::__copy_ptrs<unsigned short const *,unsigned short *>
_TEXT	ENDS
PUBLIC	?tie@?$basic_ios@DV?$char_traits@D@_STL@@@_STL@@QBEPAV?$basic_ostream@DV?$char_traits@D@_STL@@@2@XZ ; _STL::basic_ios<char,_STL::char_traits<char> >::tie
; Function compile flags: /Ogsy
; File c:\stlport-4.6.1\stlport\stl\_ios.h
;	COMDAT ?tie@?$basic_ios@DV?$char_traits@D@_STL@@@_STL@@QBEPAV?$basic_ostream@DV?$char_traits@D@_STL@@@2@XZ
_TEXT	SEGMENT
?tie@?$basic_ios@DV?$char_traits@D@_STL@@@_STL@@QBEPAV?$basic_ostream@DV?$char_traits@D@_STL@@@2@XZ PROC NEAR ; _STL::basic_ios<char,_STL::char_traits<char> >::tie, COMDAT
; _this$ = ecx

; 62   :     return _M_tied_ostream;

  00000	8b 41 5c	 mov	 eax, DWORD PTR [ecx+92]

; 63   :   }

  00003	c3		 ret	 0
?tie@?$basic_ios@DV?$char_traits@D@_STL@@@_STL@@QBEPAV?$basic_ostream@DV?$char_traits@D@_STL@@@2@XZ ENDP ; _STL::basic_ios<char,_STL::char_traits<char> >::tie
_TEXT	ENDS
PUBLIC	?_Ret@?$_OKToMemCpy@GG@_STL@@SA?AU__true_type@2@XZ ; _STL::_OKToMemCpy<unsigned short,unsigned short>::_Ret
; Function compile flags: /Ogsy
; File c:\stlport-4.6.1\stlport\stl\type_traits.h
;	COMDAT ?_Ret@?$_OKToMemCpy@GG@_STL@@SA?AU__true_type@2@XZ
_TEXT	SEGMENT
$T103294 = -1						; size = 1
?_Ret@?$_OKToMemCpy@GG@_STL@@SA?AU__true_type@2@XZ PROC NEAR ; _STL::_OKToMemCpy<unsigned short,unsigned short>::_Ret, COMDAT

; 361  :   static _Type _Ret() { return _Type(); }

  00000	55		 push	 ebp
  00001	8b ec		 mov	 ebp, esp
  00003	51		 push	 ecx
  00004	57		 push	 edi
  00005	33 c0		 xor	 eax, eax
  00007	8d 7d ff	 lea	 edi, DWORD PTR $T103294[ebp]
  0000a	aa		 stosb
  0000b	8a 45 ff	 mov	 al, BYTE PTR $T103294[ebp]
  0000e	5f		 pop	 edi
  0000f	c9		 leave
  00010	c3		 ret	 0
?_Ret@?$_OKToMemCpy@GG@_STL@@SA?AU__true_type@2@XZ ENDP	; _STL::_OKToMemCpy<unsigned short,unsigned short>::_Ret
_TEXT	ENDS
PUBLIC	??$_IsOKToMemCpy@GG@_STL@@YA?AU?$_OKToMemCpy@GG@0@PAG0@Z ; _STL::_IsOKToMemCpy<unsigned short,unsigned short>
; Function compile flags: /Ogsy
;	COMDAT ??$_IsOKToMemCpy@GG@_STL@@YA?AU?$_OKToMemCpy@GG@0@PAG0@Z
_TEXT	SEGMENT
$T103297 = -1						; size = 1
___formal$ = 8						; size = 4
___formal$ = 12						; size = 4
??$_IsOKToMemCpy@GG@_STL@@YA?AU?$_OKToMemCpy@GG@0@PAG0@Z PROC NEAR ; _STL::_IsOKToMemCpy<unsigned short,unsigned short>, COMDAT

; 365  : inline _OKToMemCpy<_Tp1, _Tp2> _IsOKToMemCpy(_Tp1*, _Tp2*)  {

  00000	55		 push	 ebp
  00001	8b ec		 mov	 ebp, esp
  00003	51		 push	 ecx
  00004	57		 push	 edi

; 366  :   return _OKToMemCpy<_Tp1, _Tp2>();

  00005	33 c0		 xor	 eax, eax
  00007	8d 7d ff	 lea	 edi, DWORD PTR $T103297[ebp]
  0000a	aa		 stosb
  0000b	8a 45 ff	 mov	 al, BYTE PTR $T103297[ebp]
  0000e	5f		 pop	 edi

; 367  : }

  0000f	c9		 leave
  00010	c3		 ret	 0
??$_IsOKToMemCpy@GG@_STL@@YA?AU?$_OKToMemCpy@GG@0@PAG0@Z ENDP ; _STL::_IsOKToMemCpy<unsigned short,unsigned short>
_TEXT	ENDS
PUBLIC	??1?$allocator@G@_STL@@QAE@XZ			; _STL::allocator<unsigned short>::~allocator<unsigned short>
; Function compile flags: /Ogsy
; File c:\stlport-4.6.1\stlport\stl\_alloc.h
;	COMDAT ??1?$allocator@G@_STL@@QAE@XZ
_TEXT	SEGMENT
??1?$allocator@G@_STL@@QAE@XZ PROC NEAR			; _STL::allocator<unsigned short>::~allocator<unsigned short>, COMDAT
; _this$ = ecx

; 350  :   ~allocator() _STLP_NOTHROW {}

  00000	c3		 ret	 0
??1?$allocator@G@_STL@@QAE@XZ ENDP			; _STL::allocator<unsigned short>::~allocator<unsigned short>
_TEXT	ENDS
PUBLIC	?allocate@?$__node_alloc@$00$0A@@_STL@@SAPAXI@Z	; _STL::__node_alloc<1,0>::allocate
EXTRN	?_M_allocate@?$__node_alloc@$00$0A@@_STL@@CAPAXI@Z:NEAR ; _STL::__node_alloc<1,0>::_M_allocate
; Function compile flags: /Ogsy
;	COMDAT ?allocate@?$__node_alloc@$00$0A@@_STL@@SAPAXI@Z
_TEXT	SEGMENT
___n$ = 8						; size = 4
?allocate@?$__node_alloc@$00$0A@@_STL@@SAPAXI@Z PROC NEAR ; _STL::__node_alloc<1,0>::allocate, COMDAT

; 251  :   static void * _STLP_CALL allocate(size_t __n) { return (__n > (size_t)_MAX_BYTES) ?  __stl_new(__n) : _M_allocate(__n); }

  00000	8b 44 24 04	 mov	 eax, DWORD PTR ___n$[esp-4]
  00004	3d 80 00 00 00	 cmp	 eax, 128		; 00000080H
  00009	50		 push	 eax
  0000a	76 07		 jbe	 SHORT $L103303
  0000c	e8 00 00 00 00	 call	 ??2@YAPAXI@Z		; operator new
  00011	59		 pop	 ecx
  00012	c3		 ret	 0
$L103303:
  00013	e8 00 00 00 00	 call	 ?_M_allocate@?$__node_alloc@$00$0A@@_STL@@CAPAXI@Z ; _STL::__node_alloc<1,0>::_M_allocate
  00018	59		 pop	 ecx
  00019	c3		 ret	 0
?allocate@?$__node_alloc@$00$0A@@_STL@@SAPAXI@Z ENDP	; _STL::__node_alloc<1,0>::allocate
_TEXT	ENDS
PUBLIC	?deallocate@?$__node_alloc@$00$0A@@_STL@@SAXPAXI@Z ; _STL::__node_alloc<1,0>::deallocate
EXTRN	?_M_deallocate@?$__node_alloc@$00$0A@@_STL@@CAXPAXI@Z:NEAR ; _STL::__node_alloc<1,0>::_M_deallocate
; Function compile flags: /Ogsy
;	COMDAT ?deallocate@?$__node_alloc@$00$0A@@_STL@@SAXPAXI@Z
_TEXT	SEGMENT
___p$ = 8						; size = 4
___n$ = 12						; size = 4
?deallocate@?$__node_alloc@$00$0A@@_STL@@SAXPAXI@Z PROC NEAR ; _STL::__node_alloc<1,0>::deallocate, COMDAT

; 253  :   static void _STLP_CALL deallocate(void *__p, size_t __n) { if (__n > (size_t)_MAX_BYTES) __stl_delete(__p); else _M_deallocate(__p, __n); }

  00000	81 7c 24 08 80
	00 00 00	 cmp	 DWORD PTR ___n$[esp-4], 128 ; 00000080H
  00008	76 0b		 jbe	 SHORT $L98677
  0000a	ff 74 24 04	 push	 DWORD PTR ___p$[esp-4]
  0000e	e8 00 00 00 00	 call	 ??3@YAXPAX@Z		; operator delete
  00013	59		 pop	 ecx
  00014	c3		 ret	 0
$L98677:
  00015	e9 00 00 00 00	 jmp	 ?_M_deallocate@?$__node_alloc@$00$0A@@_STL@@CAXPAXI@Z ; _STL::__node_alloc<1,0>::_M_deallocate
?deallocate@?$__node_alloc@$00$0A@@_STL@@SAXPAXI@Z ENDP	; _STL::__node_alloc<1,0>::deallocate
_TEXT	ENDS
PUBLIC	??A?$vector@GV?$allocator@G@_STL@@@_STL@@QAEAAGI@Z ; _STL::vector<unsigned short,_STL::allocator<unsigned short> >::operator[]
; Function compile flags: /Ogsy
; File c:\stlport-4.6.1\stlport\stl\_vector.h
;	COMDAT ??A?$vector@GV?$allocator@G@_STL@@@_STL@@QAEAAGI@Z
_TEXT	SEGMENT
___n$ = 8						; size = 4
??A?$vector@GV?$allocator@G@_STL@@@_STL@@QAEAAGI@Z PROC NEAR ; _STL::vector<unsigned short,_STL::allocator<unsigned short> >::operator[], COMDAT
; _this$ = ecx

; 187  :   reference operator[](size_type __n) { return *(begin() + __n); }

  00000	8b 01		 mov	 eax, DWORD PTR [ecx]
  00002	8b 4c 24 04	 mov	 ecx, DWORD PTR ___n$[esp-4]
  00006	8d 04 48	 lea	 eax, DWORD PTR [eax+ecx*2]
  00009	c2 04 00	 ret	 4
??A?$vector@GV?$allocator@G@_STL@@@_STL@@QAEAAGI@Z ENDP	; _STL::vector<unsigned short,_STL::allocator<unsigned short> >::operator[]
_TEXT	ENDS
PUBLIC	?erase@?$vector@GV?$allocator@G@_STL@@@_STL@@QAEPAGPAG0@Z ; _STL::vector<unsigned short,_STL::allocator<unsigned short> >::erase
; Function compile flags: /Ogsy
;	COMDAT ?erase@?$vector@GV?$allocator@G@_STL@@@_STL@@QAEPAGPAG0@Z
_TEXT	SEGMENT
___first$ = 8						; size = 4
___last$ = 12						; size = 4
?erase@?$vector@GV?$allocator@G@_STL@@@_STL@@QAEPAGPAG0@Z PROC NEAR ; _STL::vector<unsigned short,_STL::allocator<unsigned short> >::erase, COMDAT
; _this$ = ecx

; 473  :   iterator erase(iterator __first, iterator __last) {

  00000	56		 push	 esi

; 474  :     pointer __i = __copy_ptrs(__last, this->_M_finish, __first, _TrivialAss());

  00001	ff 74 24 08	 push	 DWORD PTR ___first$[esp]
  00005	8b f1		 mov	 esi, ecx
  00007	8b 46 04	 mov	 eax, DWORD PTR [esi+4]
  0000a	50		 push	 eax
  0000b	ff 74 24 14	 push	 DWORD PTR ___last$[esp+8]
  0000f	e8 00 00 00 00	 call	 ?__copy_trivial@_STL@@YAPAXPBX0PAX@Z ; _STL::__copy_trivial
  00014	83 c4 0c	 add	 esp, 12			; 0000000cH

; 475  :     _Destroy(__i, this->_M_finish);
; 476  :     this->_M_finish = __i;

  00017	89 46 04	 mov	 DWORD PTR [esi+4], eax

; 477  :     return __first;

  0001a	8b 44 24 08	 mov	 eax, DWORD PTR ___first$[esp]
  0001e	5e		 pop	 esi

; 478  :   }

  0001f	c2 08 00	 ret	 8
?erase@?$vector@GV?$allocator@G@_STL@@@_STL@@QAEPAGPAG0@Z ENDP ; _STL::vector<unsigned short,_STL::allocator<unsigned short> >::erase
_TEXT	ENDS
PUBLIC	?allocate@?$allocator@G@_STL@@QAEPAGIPBX@Z	; _STL::allocator<unsigned short>::allocate
; Function compile flags: /Ogsy
; File c:\stlport-4.6.1\stlport\stl\_alloc.h
;	COMDAT ?allocate@?$allocator@G@_STL@@QAEPAGIPBX@Z
_TEXT	SEGMENT
___n$ = 8						; size = 4
___formal$ = 12						; size = 4
?allocate@?$allocator@G@_STL@@QAEPAGIPBX@Z PROC NEAR	; _STL::allocator<unsigned short>::allocate, COMDAT
; _this$ = ecx

; 355  :     return __n != 0 ? __REINTERPRET_CAST(value_type*,__sgi_alloc::allocate(__n * sizeof(value_type))) : 0;

  00000	8b 44 24 04	 mov	 eax, DWORD PTR ___n$[esp-4]
  00004	85 c0		 test	 eax, eax
  00006	74 0b		 je	 SHORT $L103336
  00008	03 c0		 add	 eax, eax
  0000a	50		 push	 eax
  0000b	e8 00 00 00 00	 call	 ?allocate@?$__node_alloc@$00$0A@@_STL@@SAPAXI@Z ; _STL::__node_alloc<1,0>::allocate
  00010	59		 pop	 ecx
  00011	eb 02		 jmp	 SHORT $L103337
$L103336:
  00013	33 c0		 xor	 eax, eax
$L103337:

; 356  :   }

  00015	c2 08 00	 ret	 8
?allocate@?$allocator@G@_STL@@QAEPAGIPBX@Z ENDP		; _STL::allocator<unsigned short>::allocate
_TEXT	ENDS
PUBLIC	??0?$_STLP_alloc_proxy@PAGGV?$allocator@G@_STL@@@_STL@@QAE@ABV?$allocator@G@1@PAG@Z ; _STL::_STLP_alloc_proxy<unsigned short *,unsigned short,_STL::allocator<unsigned short> >::_STLP_alloc_proxy<unsigned short *,unsigned short,_STL::allocator<unsigned short> >
; Function compile flags: /Ogsy
;	COMDAT ??0?$_STLP_alloc_proxy@PAGGV?$allocator@G@_STL@@@_STL@@QAE@ABV?$allocator@G@1@PAG@Z
_TEXT	SEGMENT
___a$ = 8						; size = 4
___p$ = 12						; size = 4
??0?$_STLP_alloc_proxy@PAGGV?$allocator@G@_STL@@@_STL@@QAE@ABV?$allocator@G@1@PAG@Z PROC NEAR ; _STL::_STLP_alloc_proxy<unsigned short *,unsigned short,_STL::allocator<unsigned short> >::_STLP_alloc_proxy<unsigned short *,unsigned short,_STL::allocator<unsigned short> >, COMDAT
; _this$ = ecx

; 487  :   inline _STLP_alloc_proxy(const _MaybeReboundAlloc& __a, _Value __p) : _MaybeReboundAlloc(__a), _M_data(__p) {}

  00000	8b c1		 mov	 eax, ecx
  00002	8b 4c 24 08	 mov	 ecx, DWORD PTR ___p$[esp-4]
  00006	89 08		 mov	 DWORD PTR [eax], ecx
  00008	c2 08 00	 ret	 8
??0?$_STLP_alloc_proxy@PAGGV?$allocator@G@_STL@@@_STL@@QAE@ABV?$allocator@G@1@PAG@Z ENDP ; _STL::_STLP_alloc_proxy<unsigned short *,unsigned short,_STL::allocator<unsigned short> >::_STLP_alloc_proxy<unsigned short *,unsigned short,_STL::allocator<unsigned short> >
_TEXT	ENDS
PUBLIC	?setstate@?$basic_ios@DV?$char_traits@D@_STL@@@_STL@@QAEXH@Z ; _STL::basic_ios<char,_STL::char_traits<char> >::setstate
; Function compile flags: /Ogsy
; File c:\stlport-4.6.1\stlport\stl\_ios.h
;	COMDAT ?setstate@?$basic_ios@DV?$char_traits@D@_STL@@@_STL@@QAEXH@Z
_TEXT	SEGMENT
___state$ = 8						; size = 4
?setstate@?$basic_ios@DV?$char_traits@D@_STL@@@_STL@@QAEXH@Z PROC NEAR ; _STL::basic_ios<char,_STL::char_traits<char> >::setstate, COMDAT
; _this$ = ecx

; 94   :   void setstate(iostate __state) { this->clear(rdstate() | __state); }

  00000	8b 41 08	 mov	 eax, DWORD PTR [ecx+8]
  00003	0b 44 24 04	 or	 eax, DWORD PTR ___state$[esp-4]
  00007	50		 push	 eax
  00008	e8 00 00 00 00	 call	 ?clear@?$basic_ios@DV?$char_traits@D@_STL@@@_STL@@QAEXH@Z ; _STL::basic_ios<char,_STL::char_traits<char> >::clear
  0000d	c2 04 00	 ret	 4
?setstate@?$basic_ios@DV?$char_traits@D@_STL@@@_STL@@QAEXH@Z ENDP ; _STL::basic_ios<char,_STL::char_traits<char> >::setstate
_TEXT	ENDS
PUBLIC	?flush@?$basic_ostream@DV?$char_traits@D@_STL@@@_STL@@QAEAAV12@XZ ; _STL::basic_ostream<char,_STL::char_traits<char> >::flush
; Function compile flags: /Ogsy
; File c:\stlport-4.6.1\stlport\stl\_ostream.h
;	COMDAT ?flush@?$basic_ostream@DV?$char_traits@D@_STL@@@_STL@@QAEAAV12@XZ
_TEXT	SEGMENT
?flush@?$basic_ostream@DV?$char_traits@D@_STL@@@_STL@@QAEAAV12@XZ PROC NEAR ; _STL::basic_ostream<char,_STL::char_traits<char> >::flush, COMDAT
; _this$ = ecx

; 120  :   _Self& flush() {

  00000	56		 push	 esi
  00001	8b f1		 mov	 esi, ecx

; 121  :     if (this->rdbuf())

  00003	8b 06		 mov	 eax, DWORD PTR [esi]
  00005	8b 40 04	 mov	 eax, DWORD PTR [eax+4]
  00008	8b 4c 30 58	 mov	 ecx, DWORD PTR [eax+esi+88]
  0000c	85 c9		 test	 ecx, ecx
  0000e	74 1d		 je	 SHORT $L103367

; 122  :       if (this->rdbuf()->pubsync() == -1)

  00010	8b 01		 mov	 eax, DWORD PTR [ecx]
  00012	ff 50 10	 call	 DWORD PTR [eax+16]
  00015	83 f8 ff	 cmp	 eax, -1
  00018	75 13		 jne	 SHORT $L103367

; 123  :         this->setstate(ios_base::badbit);

  0001a	8b 06		 mov	 eax, DWORD PTR [esi]
  0001c	8b 48 04	 mov	 ecx, DWORD PTR [eax+4]
  0001f	03 ce		 add	 ecx, esi
  00021	8b 41 08	 mov	 eax, DWORD PTR [ecx+8]
  00024	83 c8 01	 or	 eax, 1
  00027	50		 push	 eax
  00028	e8 00 00 00 00	 call	 ?clear@?$basic_ios@DV?$char_traits@D@_STL@@@_STL@@QAEXH@Z ; _STL::basic_ios<char,_STL::char_traits<char> >::clear
$L103367:

; 124  :     return *this;

  0002d	8b c6		 mov	 eax, esi
  0002f	5e		 pop	 esi

; 125  :   }

  00030	c3		 ret	 0
?flush@?$basic_ostream@DV?$char_traits@D@_STL@@@_STL@@QAEAAV12@XZ ENDP ; _STL::basic_ostream<char,_STL::char_traits<char> >::flush
_TEXT	ENDS
PUBLIC	??$__copy_aux@PBGPAG@_STL@@YAPAGPBG0PAGABU__true_type@0@@Z ; _STL::__copy_aux<unsigned short const *,unsigned short *>
; Function compile flags: /Ogsy
; File c:\stlport-4.6.1\stlport\stl\_algobase.h
;	COMDAT ??$__copy_aux@PBGPAG@_STL@@YAPAGPBG0PAGABU__true_type@0@@Z
_TEXT	SEGMENT
___first$ = 8						; size = 4
___last$ = 12						; size = 4
___result$ = 16						; size = 4
___formal$ = 20						; size = 4
??$__copy_aux@PBGPAG@_STL@@YAPAGPBG0PAGABU__true_type@0@@Z PROC NEAR ; _STL::__copy_aux<unsigned short const *,unsigned short *>, COMDAT

; 202  :   return __copy_ptrs(__first, __last, __result, 
; 203  :                      _IsOKToMemCpy(_STLP_VALUE_TYPE(__first, _InputIter), 
; 204  :                                    _STLP_VALUE_TYPE(__result, _OutputIter))._Ret());

  00000	ff 74 24 0c	 push	 DWORD PTR ___result$[esp-4]
  00004	ff 74 24 0c	 push	 DWORD PTR ___last$[esp]
  00008	ff 74 24 0c	 push	 DWORD PTR ___first$[esp+4]
  0000c	e8 00 00 00 00	 call	 ?__copy_trivial@_STL@@YAPAXPBX0PAX@Z ; _STL::__copy_trivial
  00011	83 c4 0c	 add	 esp, 12			; 0000000cH

; 205  : }

  00014	c3		 ret	 0
??$__copy_aux@PBGPAG@_STL@@YAPAGPBG0PAGABU__true_type@0@@Z ENDP ; _STL::__copy_aux<unsigned short const *,unsigned short *>
_TEXT	ENDS
PUBLIC	??$_M_init@DV?$char_traits@D@_STL@@@_STL@@YA_NAAV?$basic_ostream@DV?$char_traits@D@_STL@@@0@@Z ; _STL::_M_init<char,_STL::char_traits<char> >
; Function compile flags: /Ogsy
; File c:\stlport-4.6.1\stlport\stl\_ostream.c
;	COMDAT ??$_M_init@DV?$char_traits@D@_STL@@@_STL@@YA_NAAV?$basic_ostream@DV?$char_traits@D@_STL@@@0@@Z
_TEXT	SEGMENT
___str$ = 8						; size = 4
??$_M_init@DV?$char_traits@D@_STL@@@_STL@@YA_NAAV?$basic_ostream@DV?$char_traits@D@_STL@@@0@@Z PROC NEAR ; _STL::_M_init<char,_STL::char_traits<char> >, COMDAT

; 37   : _M_init(basic_ostream<_CharT, _Traits>& __str) {

  00000	56		 push	 esi

; 38   :   if (__str.good()) {

  00001	8b 74 24 08	 mov	 esi, DWORD PTR ___str$[esp]
  00005	8b 06		 mov	 eax, DWORD PTR [esi]
  00007	8b 40 04	 mov	 eax, DWORD PTR [eax+4]
  0000a	8d 0c 30	 lea	 ecx, DWORD PTR [eax+esi]
  0000d	83 79 08 00	 cmp	 DWORD PTR [ecx+8], 0
  00011	75 36		 jne	 SHORT $L102598

; 39   :     // boris : check if this is needed !
; 40   :     if (!__str.rdbuf())

  00013	83 79 58 00	 cmp	 DWORD PTR [ecx+88], 0
  00017	75 0c		 jne	 SHORT $L103405

; 41   :       __str.setstate(ios_base::badbit);

  00019	8b 41 08	 mov	 eax, DWORD PTR [ecx+8]
  0001c	83 c8 01	 or	 eax, 1
  0001f	50		 push	 eax
  00020	e8 00 00 00 00	 call	 ?clear@?$basic_ios@DV?$char_traits@D@_STL@@@_STL@@QAEXH@Z ; _STL::basic_ios<char,_STL::char_traits<char> >::clear
$L103405:

; 42   :     if (__str.tie())

  00025	8b 06		 mov	 eax, DWORD PTR [esi]
  00027	8b 40 04	 mov	 eax, DWORD PTR [eax+4]
  0002a	8b 4c 30 5c	 mov	 ecx, DWORD PTR [eax+esi+92]
  0002e	85 c9		 test	 ecx, ecx
  00030	74 05		 je	 SHORT $L102600

; 43   :       __str.tie()->flush();

  00032	e8 00 00 00 00	 call	 ?flush@?$basic_ostream@DV?$char_traits@D@_STL@@@_STL@@QAEAAV12@XZ ; _STL::basic_ostream<char,_STL::char_traits<char> >::flush
$L102600:

; 44   :     return __str.good();

  00037	8b 06		 mov	 eax, DWORD PTR [esi]
  00039	8b 40 04	 mov	 eax, DWORD PTR [eax+4]
  0003c	33 c9		 xor	 ecx, ecx
  0003e	39 4c 30 08	 cmp	 DWORD PTR [eax+esi+8], ecx
  00042	5e		 pop	 esi
  00043	0f 94 c1	 sete	 cl
  00046	8a c1		 mov	 al, cl

; 47   : }

  00048	c3		 ret	 0
$L102598:

; 45   :   } else
; 46   :     return false;

  00049	32 c0		 xor	 al, al
  0004b	5e		 pop	 esi

; 47   : }

  0004c	c3		 ret	 0
??$_M_init@DV?$char_traits@D@_STL@@@_STL@@YA_NAAV?$basic_ostream@DV?$char_traits@D@_STL@@@0@@Z ENDP ; _STL::_M_init<char,_STL::char_traits<char> >
_TEXT	ENDS
PUBLIC	??1?$_STLP_alloc_proxy@PAGGV?$allocator@G@_STL@@@_STL@@QAE@XZ ; _STL::_STLP_alloc_proxy<unsigned short *,unsigned short,_STL::allocator<unsigned short> >::~_STLP_alloc_proxy<unsigned short *,unsigned short,_STL::allocator<unsigned short> >
; Function compile flags: /Ogsy
;	COMDAT ??1?$_STLP_alloc_proxy@PAGGV?$allocator@G@_STL@@@_STL@@QAE@XZ
_TEXT	SEGMENT
??1?$_STLP_alloc_proxy@PAGGV?$allocator@G@_STL@@@_STL@@QAE@XZ PROC NEAR ; _STL::_STLP_alloc_proxy<unsigned short *,unsigned short,_STL::allocator<unsigned short> >::~_STLP_alloc_proxy<unsigned short *,unsigned short,_STL::allocator<unsigned short> >, COMDAT
; _this$ = ecx
  00000	c3		 ret	 0
??1?$_STLP_alloc_proxy@PAGGV?$allocator@G@_STL@@@_STL@@QAE@XZ ENDP ; _STL::_STLP_alloc_proxy<unsigned short *,unsigned short,_STL::allocator<unsigned short> >::~_STLP_alloc_proxy<unsigned short *,unsigned short,_STL::allocator<unsigned short> >
_TEXT	ENDS
PUBLIC	?deallocate@?$allocator@G@_STL@@QAEXPAGI@Z	; _STL::allocator<unsigned short>::deallocate
; Function compile flags: /Ogsy
; File c:\stlport-4.6.1\stlport\stl\_alloc.h
;	COMDAT ?deallocate@?$allocator@G@_STL@@QAEXPAGI@Z
_TEXT	SEGMENT
___p$ = 8						; size = 4
___n$ = 12						; size = 4
?deallocate@?$allocator@G@_STL@@QAEXPAGI@Z PROC NEAR	; _STL::allocator<unsigned short>::deallocate, COMDAT
; _this$ = ecx

; 359  :     _STLP_ASSERT( (__p == 0) == (__n == 0) )
; 360  :       if (__p != 0) __sgi_alloc::deallocate((void*)__p, __n * sizeof(value_type));

  00000	83 7c 24 04 00	 cmp	 DWORD PTR ___p$[esp-4], 0
  00005	74 12		 je	 SHORT $L98668
  00007	8b 44 24 08	 mov	 eax, DWORD PTR ___n$[esp-4]
  0000b	03 c0		 add	 eax, eax
  0000d	50		 push	 eax
  0000e	ff 74 24 08	 push	 DWORD PTR ___p$[esp]
  00012	e8 00 00 00 00	 call	 ?deallocate@?$__node_alloc@$00$0A@@_STL@@SAXPAXI@Z ; _STL::__node_alloc<1,0>::deallocate
  00017	59		 pop	 ecx
  00018	59		 pop	 ecx
$L98668:

; 361  :   }

  00019	c2 08 00	 ret	 8
?deallocate@?$allocator@G@_STL@@QAEXPAGI@Z ENDP		; _STL::allocator<unsigned short>::deallocate
_TEXT	ENDS
PUBLIC	?clear@?$vector@GV?$allocator@G@_STL@@@_STL@@QAEXXZ ; _STL::vector<unsigned short,_STL::allocator<unsigned short> >::clear
; Function compile flags: /Ogsy
; File c:\stlport-4.6.1\stlport\stl\_vector.h
;	COMDAT ?clear@?$vector@GV?$allocator@G@_STL@@@_STL@@QAEXXZ
_TEXT	SEGMENT
?clear@?$vector@GV?$allocator@G@_STL@@@_STL@@QAEXXZ PROC NEAR ; _STL::vector<unsigned short,_STL::allocator<unsigned short> >::clear, COMDAT
; _this$ = ecx

; 488  :     erase(begin(), end());

  00000	ff 71 04	 push	 DWORD PTR [ecx+4]
  00003	ff 31		 push	 DWORD PTR [ecx]
  00005	e8 00 00 00 00	 call	 ?erase@?$vector@GV?$allocator@G@_STL@@@_STL@@QAEPAGPAG0@Z ; _STL::vector<unsigned short,_STL::allocator<unsigned short> >::erase

; 489  :   }

  0000a	c3		 ret	 0
?clear@?$vector@GV?$allocator@G@_STL@@@_STL@@QAEXXZ ENDP ; _STL::vector<unsigned short,_STL::allocator<unsigned short> >::clear
_TEXT	ENDS
PUBLIC	??0?$_Vector_base@GV?$allocator@G@_STL@@@_STL@@QAE@ABV?$allocator@G@1@@Z ; _STL::_Vector_base<unsigned short,_STL::allocator<unsigned short> >::_Vector_base<unsigned short,_STL::allocator<unsigned short> >
; Function compile flags: /Ogsy
;	COMDAT ??0?$_Vector_base@GV?$allocator@G@_STL@@@_STL@@QAE@ABV?$allocator@G@1@@Z
_TEXT	SEGMENT
___a$ = 8						; size = 4
??0?$_Vector_base@GV?$allocator@G@_STL@@@_STL@@QAE@ABV?$allocator@G@1@@Z PROC NEAR ; _STL::_Vector_base<unsigned short,_STL::allocator<unsigned short> >::_Vector_base<unsigned short,_STL::allocator<unsigned short> >, COMDAT
; _this$ = ecx

; 72   :     : _M_start(0), _M_finish(0), _M_end_of_storage(__a, 0) {

  00000	56		 push	 esi
  00001	33 c0		 xor	 eax, eax
  00003	8b f1		 mov	 esi, ecx
  00005	50		 push	 eax
  00006	ff 74 24 0c	 push	 DWORD PTR ___a$[esp+4]
  0000a	8d 4e 08	 lea	 ecx, DWORD PTR [esi+8]
  0000d	89 06		 mov	 DWORD PTR [esi], eax
  0000f	89 46 04	 mov	 DWORD PTR [esi+4], eax
  00012	e8 00 00 00 00	 call	 ??0?$_STLP_alloc_proxy@PAGGV?$allocator@G@_STL@@@_STL@@QAE@ABV?$allocator@G@1@PAG@Z ; _STL::_STLP_alloc_proxy<unsigned short *,unsigned short,_STL::allocator<unsigned short> >::_STLP_alloc_proxy<unsigned short *,unsigned short,_STL::allocator<unsigned short> >

; 73   :   }

  00017	8b c6		 mov	 eax, esi
  00019	5e		 pop	 esi
  0001a	c2 04 00	 ret	 4
??0?$_Vector_base@GV?$allocator@G@_STL@@@_STL@@QAE@ABV?$allocator@G@1@@Z ENDP ; _STL::_Vector_base<unsigned short,_STL::allocator<unsigned short> >::_Vector_base<unsigned short,_STL::allocator<unsigned short> >
_TEXT	ENDS
PUBLIC	??1?$_Vector_base@GV?$allocator@G@_STL@@@_STL@@QAE@XZ ; _STL::_Vector_base<unsigned short,_STL::allocator<unsigned short> >::~_Vector_base<unsigned short,_STL::allocator<unsigned short> >
; Function compile flags: /Ogsy
;	COMDAT ??1?$_Vector_base@GV?$allocator@G@_STL@@@_STL@@QAE@XZ
_TEXT	SEGMENT
??1?$_Vector_base@GV?$allocator@G@_STL@@@_STL@@QAE@XZ PROC NEAR ; _STL::_Vector_base<unsigned short,_STL::allocator<unsigned short> >::~_Vector_base<unsigned short,_STL::allocator<unsigned short> >, COMDAT
; _this$ = ecx

; 84   :     if (_M_start !=0) 

  00000	8b 01		 mov	 eax, DWORD PTR [ecx]
  00002	85 c0		 test	 eax, eax
  00004	74 10		 je	 SHORT $L102086

; 85   :     _M_end_of_storage.deallocate(_M_start, _M_end_of_storage._M_data - _M_start); 

  00006	83 c1 08	 add	 ecx, 8
  00009	8b 11		 mov	 edx, DWORD PTR [ecx]
  0000b	2b d0		 sub	 edx, eax
  0000d	d1 fa		 sar	 edx, 1
  0000f	52		 push	 edx
  00010	50		 push	 eax
  00011	e8 00 00 00 00	 call	 ?deallocate@?$allocator@G@_STL@@QAEXPAGI@Z ; _STL::allocator<unsigned short>::deallocate
$L102086:

; 86   :   }

  00016	c3		 ret	 0
??1?$_Vector_base@GV?$allocator@G@_STL@@@_STL@@QAE@XZ ENDP ; _STL::_Vector_base<unsigned short,_STL::allocator<unsigned short> >::~_Vector_base<unsigned short,_STL::allocator<unsigned short> >
_TEXT	ENDS
PUBLIC	?_M_clear@?$vector@GV?$allocator@G@_STL@@@_STL@@IAEXXZ ; _STL::vector<unsigned short,_STL::allocator<unsigned short> >::_M_clear
; Function compile flags: /Ogsy
;	COMDAT ?_M_clear@?$vector@GV?$allocator@G@_STL@@@_STL@@IAEXXZ
_TEXT	SEGMENT
?_M_clear@?$vector@GV?$allocator@G@_STL@@@_STL@@IAEXXZ PROC NEAR ; _STL::vector<unsigned short,_STL::allocator<unsigned short> >::_M_clear, COMDAT
; _this$ = ecx

; 493  :   void _M_clear() {

  00000	8b c1		 mov	 eax, ecx

; 494  :     //    if (this->_M_start) {
; 495  :     _Destroy(this->_M_start, this->_M_finish);
; 496  :     this->_M_end_of_storage.deallocate(this->_M_start, this->_M_end_of_storage._M_data - this->_M_start);

  00002	8d 48 08	 lea	 ecx, DWORD PTR [eax+8]
  00005	8b 00		 mov	 eax, DWORD PTR [eax]
  00007	8b 11		 mov	 edx, DWORD PTR [ecx]
  00009	2b d0		 sub	 edx, eax
  0000b	d1 fa		 sar	 edx, 1
  0000d	52		 push	 edx
  0000e	50		 push	 eax
  0000f	e8 00 00 00 00	 call	 ?deallocate@?$allocator@G@_STL@@QAEXPAGI@Z ; _STL::allocator<unsigned short>::deallocate

; 497  :     //    }
; 498  :   }

  00014	c3		 ret	 0
?_M_clear@?$vector@GV?$allocator@G@_STL@@@_STL@@IAEXXZ ENDP ; _STL::vector<unsigned short,_STL::allocator<unsigned short> >::_M_clear
_TEXT	ENDS
PUBLIC	??$__uninitialized_copy@PBGPAG@_STL@@YAPAGPBG0PAGABU__true_type@0@@Z ; _STL::__uninitialized_copy<unsigned short const *,unsigned short *>
; Function compile flags: /Ogsy
; File c:\stlport-4.6.1\stlport\stl\_uninitialized.h
;	COMDAT ??$__uninitialized_copy@PBGPAG@_STL@@YAPAGPBG0PAGABU__true_type@0@@Z
_TEXT	SEGMENT
___first$ = 8						; size = 4
___last$ = 12						; size = 4
___result$ = 16						; size = 4
___formal$ = 20						; size = 4
??$__uninitialized_copy@PBGPAG@_STL@@YAPAGPBG0PAGABU__true_type@0@@Z PROC NEAR ; _STL::__uninitialized_copy<unsigned short const *,unsigned short *>, COMDAT

; 55   :   return __copy_aux(__first, __last, __result, _BothPtrType< _InputIter, _ForwardIter> :: _Ret());

  00000	ff 74 24 0c	 push	 DWORD PTR ___result$[esp-4]
  00004	ff 74 24 0c	 push	 DWORD PTR ___last$[esp]
  00008	ff 74 24 0c	 push	 DWORD PTR ___first$[esp+4]
  0000c	e8 00 00 00 00	 call	 ?__copy_trivial@_STL@@YAPAXPBX0PAX@Z ; _STL::__copy_trivial
  00011	83 c4 0c	 add	 esp, 12			; 0000000cH

; 56   : }

  00014	c3		 ret	 0
??$__uninitialized_copy@PBGPAG@_STL@@YAPAGPBG0PAGABU__true_type@0@@Z ENDP ; _STL::__uninitialized_copy<unsigned short const *,unsigned short *>
_TEXT	ENDS
PUBLIC	??0sentry@?$basic_ostream@DV?$char_traits@D@_STL@@@_STL@@QAE@AAV12@@Z ; _STL::basic_ostream<char,_STL::char_traits<char> >::sentry::sentry
; Function compile flags: /Ogsy
; File c:\stlport-4.6.1\stlport\stl\_ostream.h
;	COMDAT ??0sentry@?$basic_ostream@DV?$char_traits@D@_STL@@@_STL@@QAE@AAV12@@Z
_TEXT	SEGMENT
___str$ = 8						; size = 4
??0sentry@?$basic_ostream@DV?$char_traits@D@_STL@@@_STL@@QAE@AAV12@@Z PROC NEAR ; _STL::basic_ostream<char,_STL::char_traits<char> >::sentry::sentry, COMDAT
; _this$ = ecx

; 165  :       {

  00000	8b 44 24 04	 mov	 eax, DWORD PTR ___str$[esp-4]
  00004	56		 push	 esi
  00005	8b f1		 mov	 esi, ecx
  00007	50		 push	 eax
  00008	89 06		 mov	 DWORD PTR [esi], eax
  0000a	e8 00 00 00 00	 call	 ??$_M_init@DV?$char_traits@D@_STL@@@_STL@@YA_NAAV?$basic_ostream@DV?$char_traits@D@_STL@@@0@@Z ; _STL::_M_init<char,_STL::char_traits<char> >
  0000f	88 46 04	 mov	 BYTE PTR [esi+4], al
  00012	59		 pop	 ecx

; 166  :       }

  00013	8b c6		 mov	 eax, esi
  00015	5e		 pop	 esi
  00016	c2 04 00	 ret	 4
??0sentry@?$basic_ostream@DV?$char_traits@D@_STL@@@_STL@@QAE@AAV12@@Z ENDP ; _STL::basic_ostream<char,_STL::char_traits<char> >::sentry::sentry
_TEXT	ENDS
PUBLIC	??1sentry@?$basic_ostream@DV?$char_traits@D@_STL@@@_STL@@QAE@XZ ; _STL::basic_ostream<char,_STL::char_traits<char> >::sentry::~sentry
; Function compile flags: /Ogsy
;	COMDAT ??1sentry@?$basic_ostream@DV?$char_traits@D@_STL@@@_STL@@QAE@XZ
_TEXT	SEGMENT
??1sentry@?$basic_ostream@DV?$char_traits@D@_STL@@@_STL@@QAE@XZ PROC NEAR ; _STL::basic_ostream<char,_STL::char_traits<char> >::sentry::~sentry, COMDAT
; _this$ = ecx

; 169  :         if (_M_str.flags() & ios_base::unitbuf)

  00000	8b 09		 mov	 ecx, DWORD PTR [ecx]
  00002	8b 01		 mov	 eax, DWORD PTR [ecx]
  00004	8b 40 04	 mov	 eax, DWORD PTR [eax+4]
  00007	f6 44 08 05 20	 test	 BYTE PTR [eax+ecx+5], 32 ; 00000020H
  0000c	74 05		 je	 SHORT $L102424

; 170  : # ifndef _STLP_INCOMPLETE_EXCEPTION_HEADER 
; 171  :           if (!_STLP_VENDOR_EXCEPT_STD::uncaught_exception())
; 172  : # endif
; 173  :             _M_str.flush();

  0000e	e9 00 00 00 00	 jmp	 ?flush@?$basic_ostream@DV?$char_traits@D@_STL@@@_STL@@QAEAAV12@XZ ; _STL::basic_ostream<char,_STL::char_traits<char> >::flush
$L102424:

; 174  :       }

  00013	c3		 ret	 0
??1sentry@?$basic_ostream@DV?$char_traits@D@_STL@@@_STL@@QAE@XZ ENDP ; _STL::basic_ostream<char,_STL::char_traits<char> >::sentry::~sentry
_TEXT	ENDS
PUBLIC	??$_M_allocate_and_copy@PBG@?$vector@GV?$allocator@G@_STL@@@_STL@@IAEPAGIPBG0@Z ; _STL::vector<unsigned short,_STL::allocator<unsigned short> >::_M_allocate_and_copy<unsigned short const *>
; Function compile flags: /Ogsy
; File c:\stlport-4.6.1\stlport\stl\_vector.h
;	COMDAT ??$_M_allocate_and_copy@PBG@?$vector@GV?$allocator@G@_STL@@@_STL@@IAEPAGIPBG0@Z
_TEXT	SEGMENT
___n$ = 8						; size = 4
___first$ = 12						; size = 4
___last$ = 16						; size = 4
??$_M_allocate_and_copy@PBG@?$vector@GV?$allocator@G@_STL@@@_STL@@IAEPAGIPBG0@Z PROC NEAR ; _STL::vector<unsigned short,_STL::allocator<unsigned short> >::_M_allocate_and_copy<unsigned short const *>, COMDAT
; _this$ = ecx

; 509  : 				_ForwardIterator __last)
; 510  : #else /* _STLP_MEMBER_TEMPLATES */
; 511  :   pointer _M_allocate_and_copy(size_type __n, const_pointer __first, 
; 512  : 			       const_pointer __last)
; 513  : #endif /* _STLP_MEMBER_TEMPLATES */
; 514  :   {
; 515  :     pointer __result = this->_M_end_of_storage.allocate(__n);

  00000	8b 44 24 04	 mov	 eax, DWORD PTR ___n$[esp-4]
  00004	85 c0		 test	 eax, eax
  00006	56		 push	 esi
  00007	74 0d		 je	 SHORT $L103510
  00009	03 c0		 add	 eax, eax
  0000b	50		 push	 eax
  0000c	e8 00 00 00 00	 call	 ?allocate@?$__node_alloc@$00$0A@@_STL@@SAPAXI@Z ; _STL::__node_alloc<1,0>::allocate
  00011	59		 pop	 ecx
  00012	8b f0		 mov	 esi, eax
  00014	eb 02		 jmp	 SHORT $L103511
$L103510:
  00016	33 f6		 xor	 esi, esi
$L103511:

; 516  :     _STLP_TRY {
; 517  : #if !defined(__MRC__)		//*TY 12/17/2000 - added workaround for MrCpp. it confuses on nested try/catch block
; 518  :       __uninitialized_copy(__first, __last, __result, _IsPODType());

  00018	56		 push	 esi
  00019	ff 74 24 14	 push	 DWORD PTR ___last$[esp+4]
  0001d	ff 74 24 14	 push	 DWORD PTR ___first$[esp+8]
  00021	e8 00 00 00 00	 call	 ?__copy_trivial@_STL@@YAPAXPBX0PAX@Z ; _STL::__copy_trivial
  00026	83 c4 0c	 add	 esp, 12			; 0000000cH

; 519  : #else
; 520  :       uninitialized_copy(__first, __last, __result);
; 521  : #endif
; 522  :       return __result;

  00029	8b c6		 mov	 eax, esi
  0002b	5e		 pop	 esi

; 523  :     }
; 524  :     _STLP_UNWIND(this->_M_end_of_storage.deallocate(__result, __n));
; 525  : # ifdef _STLP_THROW_RETURN_BUG
; 526  : 	return __result;
; 527  : # endif
; 528  :   }

  0002c	c2 0c 00	 ret	 12			; 0000000cH
??$_M_allocate_and_copy@PBG@?$vector@GV?$allocator@G@_STL@@@_STL@@IAEPAGIPBG0@Z ENDP ; _STL::vector<unsigned short,_STL::allocator<unsigned short> >::_M_allocate_and_copy<unsigned short const *>
_TEXT	ENDS
PUBLIC	??0?$vector@GV?$allocator@G@_STL@@@_STL@@QAE@ABV?$allocator@G@1@@Z ; _STL::vector<unsigned short,_STL::allocator<unsigned short> >::vector<unsigned short,_STL::allocator<unsigned short> >
; Function compile flags: /Ogsy
;	COMDAT ??0?$vector@GV?$allocator@G@_STL@@@_STL@@QAE@ABV?$allocator@G@1@@Z
_TEXT	SEGMENT
___a$ = 8						; size = 4
??0?$vector@GV?$allocator@G@_STL@@@_STL@@QAE@ABV?$allocator@G@1@@Z PROC NEAR ; _STL::vector<unsigned short,_STL::allocator<unsigned short> >::vector<unsigned short,_STL::allocator<unsigned short> >, COMDAT
; _this$ = ecx

; 199  :     _Vector_base<_Tp, _Alloc>(__a) {}

  00000	56		 push	 esi
  00001	ff 74 24 08	 push	 DWORD PTR ___a$[esp]
  00005	8b f1		 mov	 esi, ecx
  00007	e8 00 00 00 00	 call	 ??0?$_Vector_base@GV?$allocator@G@_STL@@@_STL@@QAE@ABV?$allocator@G@1@@Z ; _STL::_Vector_base<unsigned short,_STL::allocator<unsigned short> >::_Vector_base<unsigned short,_STL::allocator<unsigned short> >
  0000c	8b c6		 mov	 eax, esi
  0000e	5e		 pop	 esi
  0000f	c2 04 00	 ret	 4
??0?$vector@GV?$allocator@G@_STL@@@_STL@@QAE@ABV?$allocator@G@1@@Z ENDP ; _STL::vector<unsigned short,_STL::allocator<unsigned short> >::vector<unsigned short,_STL::allocator<unsigned short> >
_TEXT	ENDS
PUBLIC	??1?$vector@GV?$allocator@G@_STL@@@_STL@@QAE@XZ	; _STL::vector<unsigned short,_STL::allocator<unsigned short> >::~vector<unsigned short,_STL::allocator<unsigned short> >
; Function compile flags: /Ogsy
;	COMDAT ??1?$vector@GV?$allocator@G@_STL@@@_STL@@QAE@XZ
_TEXT	SEGMENT
??1?$vector@GV?$allocator@G@_STL@@@_STL@@QAE@XZ PROC NEAR ; _STL::vector<unsigned short,_STL::allocator<unsigned short> >::~vector<unsigned short,_STL::allocator<unsigned short> >, COMDAT
; _this$ = ecx

; 258  :   ~vector() { _Destroy(this->_M_start, this->_M_finish); }

  00000	e9 00 00 00 00	 jmp	 ??1?$_Vector_base@GV?$allocator@G@_STL@@@_STL@@QAE@XZ ; _STL::_Vector_base<unsigned short,_STL::allocator<unsigned short> >::~_Vector_base<unsigned short,_STL::allocator<unsigned short> >
??1?$vector@GV?$allocator@G@_STL@@@_STL@@QAE@XZ ENDP	; _STL::vector<unsigned short,_STL::allocator<unsigned short> >::~vector<unsigned short,_STL::allocator<unsigned short> >
_TEXT	ENDS
PUBLIC	?_M_insert_overflow@?$vector@GV?$allocator@G@_STL@@@_STL@@IAEXPAGABGABU__true_type@2@I_N@Z ; _STL::vector<unsigned short,_STL::allocator<unsigned short> >::_M_insert_overflow
; Function compile flags: /Ogsy
;	COMDAT ?_M_insert_overflow@?$vector@GV?$allocator@G@_STL@@@_STL@@IAEXPAGABGABU__true_type@2@I_N@Z
_TEXT	SEGMENT
___old_size$ = -4					; size = 4
___position$ = 8					; size = 4
___x$ = 12						; size = 4
___formal$ = 16						; size = 4
___new_finish$ = 20					; size = 4
___fill_len$ = 20					; size = 4
___atend$ = 24						; size = 1
?_M_insert_overflow@?$vector@GV?$allocator@G@_STL@@@_STL@@IAEXPAGABGABU__true_type@2@I_N@Z PROC NEAR ; _STL::vector<unsigned short,_STL::allocator<unsigned short> >::_M_insert_overflow, COMDAT
; _this$ = ecx

; 151  : 			  size_type __fill_len, bool __atend = false) {

  00000	55		 push	 ebp
  00001	8b ec		 mov	 ebp, esp
  00003	51		 push	 ecx
  00004	53		 push	 ebx
  00005	56		 push	 esi
  00006	8b f1		 mov	 esi, ecx

; 152  :     const size_type __old_size = size();

  00008	8b 46 04	 mov	 eax, DWORD PTR [esi+4]
  0000b	2b 06		 sub	 eax, DWORD PTR [esi]
  0000d	57		 push	 edi
  0000e	d1 f8		 sar	 eax, 1

; 153  :     const size_type __len = __old_size + (max)(__old_size, __fill_len);

  00010	3b 45 14	 cmp	 eax, DWORD PTR ___fill_len$[ebp]
  00013	89 45 fc	 mov	 DWORD PTR ___old_size$[ebp], eax
  00016	8d 4d 14	 lea	 ecx, DWORD PTR ___fill_len$[ebp]
  00019	72 03		 jb	 SHORT $L103594
  0001b	8d 4d fc	 lea	 ecx, DWORD PTR ___old_size$[ebp]
$L103594:
  0001e	8b 39		 mov	 edi, DWORD PTR [ecx]
  00020	03 f8		 add	 edi, eax

; 154  :     
; 155  :     pointer __new_start = this->_M_end_of_storage.allocate(__len);

  00022	74 0e		 je	 SHORT $L103600
  00024	8d 04 3f	 lea	 eax, DWORD PTR [edi+edi]
  00027	50		 push	 eax
  00028	e8 00 00 00 00	 call	 ?allocate@?$__node_alloc@$00$0A@@_STL@@SAPAXI@Z ; _STL::__node_alloc<1,0>::allocate
  0002d	59		 pop	 ecx
  0002e	8b d8		 mov	 ebx, eax
  00030	eb 02		 jmp	 SHORT $L103601
$L103600:
  00032	33 db		 xor	 ebx, ebx
$L103601:

; 156  :     pointer __new_finish = (pointer)__copy_trivial(this->_M_start, __position, __new_start);

  00034	53		 push	 ebx
  00035	ff 75 08	 push	 DWORD PTR ___position$[ebp]
  00038	ff 36		 push	 DWORD PTR [esi]
  0003a	e8 00 00 00 00	 call	 ?__copy_trivial@_STL@@YAPAXPBX0PAX@Z ; _STL::__copy_trivial

; 157  :       // handle insertion
; 158  :     __new_finish = fill_n(__new_finish, __fill_len, __x);

  0003f	ff 75 0c	 push	 DWORD PTR ___x$[ebp]
  00042	ff 75 14	 push	 DWORD PTR ___fill_len$[ebp]
  00045	50		 push	 eax
  00046	e8 00 00 00 00	 call	 ??$fill_n@PAGIG@_STL@@YAPAGPAGIABG@Z ; _STL::fill_n<unsigned short *,unsigned int,unsigned short>
  0004b	83 c4 18	 add	 esp, 24			; 00000018H

; 159  :     if (!__atend)

  0004e	80 7d 18 00	 cmp	 BYTE PTR ___atend$[ebp], 0
  00052	89 45 14	 mov	 DWORD PTR ___new_finish$[ebp], eax
  00055	75 12		 jne	 SHORT $L102054

; 160  :       // copy remainder
; 161  :       __new_finish = (pointer)__copy_trivial(__position, this->_M_finish, __new_finish);

  00057	50		 push	 eax
  00058	ff 76 04	 push	 DWORD PTR [esi+4]
  0005b	ff 75 08	 push	 DWORD PTR ___position$[ebp]
  0005e	e8 00 00 00 00	 call	 ?__copy_trivial@_STL@@YAPAXPBX0PAX@Z ; _STL::__copy_trivial
  00063	83 c4 0c	 add	 esp, 12			; 0000000cH
  00066	89 45 14	 mov	 DWORD PTR ___new_finish$[ebp], eax
$L102054:

; 162  :     _M_clear();

  00069	8b ce		 mov	 ecx, esi
  0006b	e8 00 00 00 00	 call	 ?_M_clear@?$vector@GV?$allocator@G@_STL@@@_STL@@IAEXXZ ; _STL::vector<unsigned short,_STL::allocator<unsigned short> >::_M_clear

; 163  :     _M_set(__new_start, __new_finish, __new_start + __len);

  00070	8b 45 14	 mov	 eax, DWORD PTR ___new_finish$[ebp]
  00073	89 46 04	 mov	 DWORD PTR [esi+4], eax
  00076	8d 04 7b	 lea	 eax, DWORD PTR [ebx+edi*2]
  00079	5f		 pop	 edi
  0007a	89 1e		 mov	 DWORD PTR [esi], ebx
  0007c	89 46 08	 mov	 DWORD PTR [esi+8], eax
  0007f	5e		 pop	 esi
  00080	5b		 pop	 ebx

; 164  :   }

  00081	c9		 leave
  00082	c2 14 00	 ret	 20			; 00000014H
?_M_insert_overflow@?$vector@GV?$allocator@G@_STL@@@_STL@@IAEXPAGABGABU__true_type@2@I_N@Z ENDP ; _STL::vector<unsigned short,_STL::allocator<unsigned short> >::_M_insert_overflow
_TEXT	ENDS
PUBLIC	?write@?$basic_ostream@DV?$char_traits@D@_STL@@@_STL@@QAEAAV12@PBDH@Z ; _STL::basic_ostream<char,_STL::char_traits<char> >::write
EXTRN	__EH_prolog:NEAR
EXTRN	__except_list:DWORD
EXTRN	___CxxFrameHandler:NEAR
;	COMDAT xdata$x
; File c:\stlport-4.6.1\stlport\stl\_ios_base.h
xdata$x	SEGMENT
$T103649 DD	0ffffffffH
	DD	FLAT:$L103611
	DD	00H
	DD	00H
	DD	00H
	DD	00H
$T103651 DD	00H
	DD	00H
	DD	00H
	DD	FLAT:$L103610
$T103650 DD	01H
	DD	01H
	DD	02H
	DD	01H
	DD	FLAT:$T103651
$T103644 DD	019930520H
	DD	03H
	DD	FLAT:$T103649
	DD	01H
	DD	FLAT:$T103650
	DD	2 DUP(00H)
; Function compile flags: /Ogsy
; File c:\stlport-4.6.1\stlport\stl\_ostream.c
xdata$x	ENDS
;	COMDAT ?write@?$basic_ostream@DV?$char_traits@D@_STL@@@_STL@@QAEAAV12@PBDH@Z
_TEXT	SEGMENT
___sentry$ = -32					; size = 8
_this$ = -24						; size = 4
___failed$ = -17					; size = 1
__$EHRec$ = -16						; size = 16
___s$ = 8						; size = 4
___n$ = 12						; size = 4
?write@?$basic_ostream@DV?$char_traits@D@_STL@@@_STL@@QAEAAV12@PBDH@Z PROC NEAR ; _STL::basic_ostream<char,_STL::char_traits<char> >::write, COMDAT
; _this$ = ecx

; 359  : {

  00000	b8 00 00 00 00	 mov	 eax, __ehhandler$?write@?$basic_ostream@DV?$char_traits@D@_STL@@@_STL@@QAEAAV12@PBDH@Z
  00005	e8 00 00 00 00	 call	 __EH_prolog
  0000a	83 ec 14	 sub	 esp, 20			; 00000014H
  0000d	53		 push	 ebx
  0000e	56		 push	 esi
  0000f	57		 push	 edi
  00010	8b f1		 mov	 esi, ecx
  00012	89 65 f0	 mov	 DWORD PTR __$EHRec$[ebp], esp

; 360  :   sentry __sentry(*this);

  00015	56		 push	 esi
  00016	8d 4d e0	 lea	 ecx, DWORD PTR ___sentry$[ebp]
  00019	89 75 e8	 mov	 DWORD PTR _this$[ebp], esi
  0001c	e8 00 00 00 00	 call	 ??0sentry@?$basic_ostream@DV?$char_traits@D@_STL@@@_STL@@QAE@AAV12@@Z ; _STL::basic_ostream<char,_STL::char_traits<char> >::sentry::sentry
  00021	83 65 fc 00	 and	 DWORD PTR __$EHRec$[ebp+12], 0

; 361  :   bool __failed = true;
; 362  : 
; 363  :   if (__sentry) {

  00025	80 7d e4 00	 cmp	 BYTE PTR ___sentry$[ebp+4], 0
  00029	c6 45 ef 01	 mov	 BYTE PTR ___failed$[ebp], 1
  0002d	74 3b		 je	 SHORT $L102181

; 364  :     _STLP_TRY {
; 365  :       __failed = this->rdbuf()->sputn(__s, __n) != __n;

  0002f	8b 06		 mov	 eax, DWORD PTR [esi]
  00031	8b 40 04	 mov	 eax, DWORD PTR [eax+4]
  00034	ff 75 0c	 push	 DWORD PTR ___n$[ebp]
  00037	8b 4c 30 58	 mov	 ecx, DWORD PTR [eax+esi+88]
  0003b	ff 75 08	 push	 DWORD PTR ___s$[ebp]
  0003e	8b 01		 mov	 eax, DWORD PTR [ecx]
  00040	c6 45 fc 01	 mov	 BYTE PTR __$EHRec$[ebp+12], 1
  00044	ff 50 28	 call	 DWORD PTR [eax+40]
  00047	3b 45 0c	 cmp	 eax, DWORD PTR ___n$[ebp]
  0004a	0f 95 45 ef	 setne	 BYTE PTR ___failed$[ebp]
  0004e	eb 1a		 jmp	 SHORT $L102181
$L103610:

; 366  :     }
; 367  :     _STLP_CATCH_ALL {
; 368  :       this->_M_handle_exception(ios_base::badbit);

  00050	8b 45 e8	 mov	 eax, DWORD PTR _this$[ebp]
  00053	8b 08		 mov	 ecx, DWORD PTR [eax]
  00055	8b 49 04	 mov	 ecx, DWORD PTR [ecx+4]
  00058	6a 01		 push	 1
  0005a	03 c8		 add	 ecx, eax
  0005c	e8 00 00 00 00	 call	 ?_M_handle_exception@?$basic_ios@DV?$char_traits@D@_STL@@@_STL@@QAEXH@Z ; _STL::basic_ios<char,_STL::char_traits<char> >::_M_handle_exception

; 369  :     }

  00061	b8 00 00 00 00	 mov	 eax, $L103645
  00066	c3		 ret	 0
$L103645:
  00067	8b 75 e8	 mov	 esi, DWORD PTR _this$[ebp]
$L102181:
  0006a	83 65 fc 00	 and	 DWORD PTR __$EHRec$[ebp+12], 0

; 370  :   }
; 371  : 
; 372  :   if (__failed)

  0006e	80 7d ef 00	 cmp	 BYTE PTR ___failed$[ebp], 0
  00072	74 13		 je	 SHORT $L103628

; 373  :     this->setstate(ios_base::badbit);

  00074	8b 06		 mov	 eax, DWORD PTR [esi]
  00076	8b 48 04	 mov	 ecx, DWORD PTR [eax+4]
  00079	03 ce		 add	 ecx, esi
  0007b	8b 41 08	 mov	 eax, DWORD PTR [ecx+8]
  0007e	83 c8 01	 or	 eax, 1
  00081	50		 push	 eax
  00082	e8 00 00 00 00	 call	 ?clear@?$basic_ios@DV?$char_traits@D@_STL@@@_STL@@QAEXH@Z ; _STL::basic_ios<char,_STL::char_traits<char> >::clear
$L103628:

; 374  : 
; 375  :   return *this;

  00087	8b 4d e0	 mov	 ecx, DWORD PTR ___sentry$[ebp]
  0008a	8b 01		 mov	 eax, DWORD PTR [ecx]
  0008c	8b 40 04	 mov	 eax, DWORD PTR [eax+4]
  0008f	83 4d fc ff	 or	 DWORD PTR __$EHRec$[ebp+12], -1
  00093	f6 44 08 05 20	 test	 BYTE PTR [eax+ecx+5], 32 ; 00000020H
  00098	74 05		 je	 SHORT $L103639
  0009a	e8 00 00 00 00	 call	 ?flush@?$basic_ostream@DV?$char_traits@D@_STL@@@_STL@@QAEAAV12@XZ ; _STL::basic_ostream<char,_STL::char_traits<char> >::flush
$L103639:

; 376  : }

  0009f	8b 4d f4	 mov	 ecx, DWORD PTR __$EHRec$[ebp+4]
  000a2	5f		 pop	 edi
  000a3	8b c6		 mov	 eax, esi
  000a5	5e		 pop	 esi
  000a6	64 89 0d 00 00
	00 00		 mov	 DWORD PTR fs:__except_list, ecx
  000ad	5b		 pop	 ebx
  000ae	c9		 leave
  000af	c2 08 00	 ret	 8
_TEXT	ENDS
;	COMDAT text$x
text$x	SEGMENT
$L103611:
  00000	8d 4d e0	 lea	 ecx, DWORD PTR ___sentry$[ebp]
  00003	e9 00 00 00 00	 jmp	 ??1sentry@?$basic_ostream@DV?$char_traits@D@_STL@@@_STL@@QAE@XZ ; _STL::basic_ostream<char,_STL::char_traits<char> >::sentry::~sentry
__ehhandler$?write@?$basic_ostream@DV?$char_traits@D@_STL@@@_STL@@QAEAAV12@PBDH@Z:
  00008	b8 00 00 00 00	 mov	 eax, OFFSET FLAT:$T103644
  0000d	e9 00 00 00 00	 jmp	 ___CxxFrameHandler
text$x	ENDS
?write@?$basic_ostream@DV?$char_traits@D@_STL@@@_STL@@QAEAAV12@PBDH@Z ENDP ; _STL::basic_ostream<char,_STL::char_traits<char> >::write
PUBLIC	??4?$vector@GV?$allocator@G@_STL@@@_STL@@QAEAAV01@ABV01@@Z ; _STL::vector<unsigned short,_STL::allocator<unsigned short> >::operator=
; Function compile flags: /Ogsy
; File c:\stlport-4.6.1\stlport\stl\_vector.c
;	COMDAT ??4?$vector@GV?$allocator@G@_STL@@@_STL@@QAEAAV01@ABV01@@Z
_TEXT	SEGMENT
tv259 = 8						; size = 4
___x$ = 8						; size = 4
??4?$vector@GV?$allocator@G@_STL@@@_STL@@QAEAAV01@ABV01@@Z PROC NEAR ; _STL::vector<unsigned short,_STL::allocator<unsigned short> >::operator=, COMDAT
; _this$ = ecx

; 91   : {

  00000	55		 push	 ebp
  00001	8b ec		 mov	 ebp, esp
  00003	53		 push	 ebx

; 92   :   if (&__x != this) {

  00004	8b 5d 08	 mov	 ebx, DWORD PTR ___x$[ebp]
  00007	56		 push	 esi
  00008	8b f1		 mov	 esi, ecx
  0000a	3b de		 cmp	 ebx, esi
  0000c	74 7f		 je	 SHORT $L102296

; 93   :     const size_type __xlen = __x.size();

  0000e	8b 0b		 mov	 ecx, DWORD PTR [ebx]

; 94   :     if (__xlen > capacity()) {

  00010	8b 16		 mov	 edx, DWORD PTR [esi]
  00012	8b 46 08	 mov	 eax, DWORD PTR [esi+8]
  00015	57		 push	 edi
  00016	8b 7b 04	 mov	 edi, DWORD PTR [ebx+4]
  00019	89 7d 08	 mov	 DWORD PTR tv259[ebp], edi
  0001c	2b f9		 sub	 edi, ecx
  0001e	2b c2		 sub	 eax, edx
  00020	d1 ff		 sar	 edi, 1
  00022	d1 f8		 sar	 eax, 1
  00024	3b f8		 cmp	 edi, eax
  00026	76 1f		 jbe	 SHORT $L102298

; 95   :       pointer __tmp = _M_allocate_and_copy(__xlen, (const_pointer)__x._M_start+0, (const_pointer)__x._M_finish+0);

  00028	ff 75 08	 push	 DWORD PTR tv259[ebp]
  0002b	51		 push	 ecx
  0002c	57		 push	 edi
  0002d	8b ce		 mov	 ecx, esi
  0002f	e8 00 00 00 00	 call	 ??$_M_allocate_and_copy@PBG@?$vector@GV?$allocator@G@_STL@@@_STL@@IAEPAGIPBG0@Z ; _STL::vector<unsigned short,_STL::allocator<unsigned short> >::_M_allocate_and_copy<unsigned short const *>

; 96   :       _M_clear();

  00034	8b ce		 mov	 ecx, esi
  00036	8b d8		 mov	 ebx, eax
  00038	e8 00 00 00 00	 call	 ?_M_clear@?$vector@GV?$allocator@G@_STL@@@_STL@@IAEXXZ ; _STL::vector<unsigned short,_STL::allocator<unsigned short> >::_M_clear

; 97   :       this->_M_start = __tmp;
; 98   :       this->_M_end_of_storage._M_data = this->_M_start + __xlen;

  0003d	8d 04 7b	 lea	 eax, DWORD PTR [ebx+edi*2]
  00040	89 1e		 mov	 DWORD PTR [esi], ebx
  00042	89 46 08	 mov	 DWORD PTR [esi+8], eax

; 99   :     }
; 100  :     else if (size() >= __xlen) {

  00045	eb 3d		 jmp	 SHORT $L103742
$L102298:
  00047	8b 46 04	 mov	 eax, DWORD PTR [esi+4]
  0004a	2b c2		 sub	 eax, edx
  0004c	d1 f8		 sar	 eax, 1
  0004e	3b c7		 cmp	 eax, edi

; 101  :       pointer __i = __copy_ptrs((const_pointer)__x._M_start+0, (const_pointer)__x._M_finish+0, (pointer)this->_M_start, _TrivialAss());

  00050	52		 push	 edx
  00051	72 0e		 jb	 SHORT $L102308
  00053	ff 75 08	 push	 DWORD PTR tv259[ebp]
  00056	51		 push	 ecx
  00057	e8 00 00 00 00	 call	 ?__copy_trivial@_STL@@YAPAXPBX0PAX@Z ; _STL::__copy_trivial
  0005c	83 c4 0c	 add	 esp, 12			; 0000000cH

; 102  :       _STLP_STD::_Destroy(__i, this->_M_finish);
; 103  :     }
; 104  :     else {

  0005f	eb 23		 jmp	 SHORT $L103742
$L102308:

; 105  :       __copy_ptrs((const_pointer)__x._M_start, (const_pointer)__x._M_start + size(), (pointer)this->_M_start, _TrivialAss());

  00061	8d 04 41	 lea	 eax, DWORD PTR [ecx+eax*2]
  00064	50		 push	 eax
  00065	51		 push	 ecx
  00066	e8 00 00 00 00	 call	 ?__copy_trivial@_STL@@YAPAXPBX0PAX@Z ; _STL::__copy_trivial

; 106  :       __uninitialized_copy((const_pointer)__x._M_start + size(), (const_pointer)__x._M_finish+0, this->_M_finish, _IsPODType());

  0006b	8b 46 04	 mov	 eax, DWORD PTR [esi+4]
  0006e	8b 0b		 mov	 ecx, DWORD PTR [ebx]
  00070	50		 push	 eax
  00071	2b 06		 sub	 eax, DWORD PTR [esi]
  00073	ff 73 04	 push	 DWORD PTR [ebx+4]
  00076	d1 f8		 sar	 eax, 1
  00078	8d 04 41	 lea	 eax, DWORD PTR [ecx+eax*2]
  0007b	50		 push	 eax
  0007c	e8 00 00 00 00	 call	 ?__copy_trivial@_STL@@YAPAXPBX0PAX@Z ; _STL::__copy_trivial
  00081	83 c4 18	 add	 esp, 24			; 00000018H
$L103742:

; 107  :     }
; 108  :     this->_M_finish = this->_M_start + __xlen;

  00084	8b 06		 mov	 eax, DWORD PTR [esi]
  00086	8d 04 78	 lea	 eax, DWORD PTR [eax+edi*2]
  00089	89 46 04	 mov	 DWORD PTR [esi+4], eax
  0008c	5f		 pop	 edi
$L102296:

; 109  :   }
; 110  :   return *this;

  0008d	8b c6		 mov	 eax, esi
  0008f	5e		 pop	 esi
  00090	5b		 pop	 ebx

; 111  : }

  00091	5d		 pop	 ebp
  00092	c2 04 00	 ret	 4
??4?$vector@GV?$allocator@G@_STL@@@_STL@@QAEAAV01@ABV01@@Z ENDP ; _STL::vector<unsigned short,_STL::allocator<unsigned short> >::operator=
_TEXT	ENDS
PUBLIC	??0MPortal@@QAE@XZ				; MPortal::MPortal
; Function compile flags: /Ogsy
; File c:\darkeden\designed_common\project\client\mportal.cpp
;	COMDAT ??0MPortal@@QAE@XZ
_TEXT	SEGMENT
$T103748 = -1						; size = 1
??0MPortal@@QAE@XZ PROC NEAR				; MPortal::MPortal, COMDAT
; _this$ = ecx

; 14   : {

  00000	51		 push	 ecx
  00001	56		 push	 esi
  00002	8d 44 24 07	 lea	 eax, DWORD PTR $T103748[esp+8]
  00006	50		 push	 eax
  00007	8b f1		 mov	 esi, ecx
  00009	e8 00 00 00 00	 call	 ??0?$_Vector_base@GV?$allocator@G@_STL@@@_STL@@QAE@ABV?$allocator@G@1@@Z ; _STL::_Vector_base<unsigned short,_STL::allocator<unsigned short> >::_Vector_base<unsigned short,_STL::allocator<unsigned short> >

; 15   : 	m_ZoneID.clear();

  0000e	ff 76 04	 push	 DWORD PTR [esi+4]
  00011	8b ce		 mov	 ecx, esi
  00013	ff 36		 push	 DWORD PTR [esi]
  00015	e8 00 00 00 00	 call	 ?erase@?$vector@GV?$allocator@G@_STL@@@_STL@@QAEPAGPAG0@Z ; _STL::vector<unsigned short,_STL::allocator<unsigned short> >::erase

; 16   : 	SetRect(0,0,0,0);

  0001a	32 c0		 xor	 al, al
  0001c	88 46 0c	 mov	 BYTE PTR [esi+12], al
  0001f	88 46 0d	 mov	 BYTE PTR [esi+13], al
  00022	88 46 0e	 mov	 BYTE PTR [esi+14], al
  00025	88 46 0f	 mov	 BYTE PTR [esi+15], al

; 17   : 	m_Type = 0;

  00028	88 46 10	 mov	 BYTE PTR [esi+16], al

; 18   : 
; 19   : }

  0002b	8b c6		 mov	 eax, esi
  0002d	5e		 pop	 esi
  0002e	59		 pop	 ecx
  0002f	c3		 ret	 0
??0MPortal@@QAE@XZ ENDP					; MPortal::MPortal
_TEXT	ENDS
PUBLIC	??0MPortal@@QAE@V?$vector@GV?$allocator@G@_STL@@@_STL@@UP_RECT@@E@Z ; MPortal::MPortal
;	COMDAT xdata$x
; File c:\stlport-4.6.1\stlport\stl\_construct.h
xdata$x	SEGMENT
$T103807 DD	0ffffffffH
	DD	FLAT:$L103781
	DD	00H
	DD	FLAT:$L103782
$T103805 DD	019930520H
	DD	02H
	DD	FLAT:$T103807
	DD	2 DUP(00H)
	DD	2 DUP(00H)
; Function compile flags: /Ogsy
; File c:\darkeden\designed_common\project\client\mportal.cpp
xdata$x	ENDS
;	COMDAT ??0MPortal@@QAE@V?$vector@GV?$allocator@G@_STL@@@_STL@@UP_RECT@@E@Z
_TEXT	SEGMENT
_this$ = -16						; size = 4
__$EHRec$ = -12						; size = 12
_ZoneID$ = 8						; size = 12
_rect$ = 20						; size = 4
_Type$ = 24						; size = 1
$T103780 = 27						; size = 1
??0MPortal@@QAE@V?$vector@GV?$allocator@G@_STL@@@_STL@@UP_RECT@@E@Z PROC NEAR ; MPortal::MPortal, COMDAT
; _this$ = ecx

; 22   : {

  00000	b8 00 00 00 00	 mov	 eax, __ehhandler$??0MPortal@@QAE@V?$vector@GV?$allocator@G@_STL@@@_STL@@UP_RECT@@E@Z
  00005	e8 00 00 00 00	 call	 __EH_prolog
  0000a	51		 push	 ecx
  0000b	56		 push	 esi
  0000c	8b f1		 mov	 esi, ecx
  0000e	89 75 f0	 mov	 DWORD PTR _this$[ebp], esi
  00011	83 65 fc 00	 and	 DWORD PTR __$EHRec$[ebp+8], 0
  00015	8d 45 1b	 lea	 eax, DWORD PTR $T103780[ebp]
  00018	50		 push	 eax
  00019	e8 00 00 00 00	 call	 ??0?$_Vector_base@GV?$allocator@G@_STL@@@_STL@@QAE@ABV?$allocator@G@1@@Z ; _STL::_Vector_base<unsigned short,_STL::allocator<unsigned short> >::_Vector_base<unsigned short,_STL::allocator<unsigned short> >

; 23   : 	m_ZoneID = ZoneID;

  0001e	8d 45 08	 lea	 eax, DWORD PTR _ZoneID$[ebp]
  00021	50		 push	 eax
  00022	8b ce		 mov	 ecx, esi
  00024	c6 45 fc 01	 mov	 BYTE PTR __$EHRec$[ebp+8], 1
  00028	e8 00 00 00 00	 call	 ??4?$vector@GV?$allocator@G@_STL@@@_STL@@QAEAAV01@ABV01@@Z ; _STL::vector<unsigned short,_STL::allocator<unsigned short> >::operator=

; 24   : 	SetRect(rect);

  0002d	8b 45 14	 mov	 eax, DWORD PTR _rect$[ebp]

; 25   : 	m_Type = Type;
; 26   : }

  00030	83 4d fc ff	 or	 DWORD PTR __$EHRec$[ebp+8], -1
  00034	89 46 0c	 mov	 DWORD PTR [esi+12], eax
  00037	8a 45 18	 mov	 al, BYTE PTR _Type$[ebp]
  0003a	8d 4d 08	 lea	 ecx, DWORD PTR _ZoneID$[ebp]
  0003d	88 46 10	 mov	 BYTE PTR [esi+16], al
  00040	e8 00 00 00 00	 call	 ??1?$_Vector_base@GV?$allocator@G@_STL@@@_STL@@QAE@XZ ; _STL::_Vector_base<unsigned short,_STL::allocator<unsigned short> >::~_Vector_base<unsigned short,_STL::allocator<unsigned short> >
  00045	8b 4d f4	 mov	 ecx, DWORD PTR __$EHRec$[ebp]
  00048	8b c6		 mov	 eax, esi
  0004a	5e		 pop	 esi
  0004b	64 89 0d 00 00
	00 00		 mov	 DWORD PTR fs:__except_list, ecx
  00052	c9		 leave
  00053	c2 14 00	 ret	 20			; 00000014H
_TEXT	ENDS
;	COMDAT text$x
text$x	SEGMENT
$L103781:
  00000	8d 4d 08	 lea	 ecx, DWORD PTR _ZoneID$[ebp]
  00003	e9 00 00 00 00	 jmp	 ??1?$vector@GV?$allocator@G@_STL@@@_STL@@QAE@XZ ; _STL::vector<unsigned short,_STL::allocator<unsigned short> >::~vector<unsigned short,_STL::allocator<unsigned short> >
$L103782:
  00008	8b 4d f0	 mov	 ecx, DWORD PTR _this$[ebp]
  0000b	e9 00 00 00 00	 jmp	 ??1?$vector@GV?$allocator@G@_STL@@@_STL@@QAE@XZ ; _STL::vector<unsigned short,_STL::allocator<unsigned short> >::~vector<unsigned short,_STL::allocator<unsigned short> >
__ehhandler$??0MPortal@@QAE@V?$vector@GV?$allocator@G@_STL@@@_STL@@UP_RECT@@E@Z:
  00010	b8 00 00 00 00	 mov	 eax, OFFSET FLAT:$T103805
  00015	e9 00 00 00 00	 jmp	 ___CxxFrameHandler
text$x	ENDS
??0MPortal@@QAE@V?$vector@GV?$allocator@G@_STL@@@_STL@@UP_RECT@@E@Z ENDP ; MPortal::MPortal
PUBLIC	??0MPortal@@QAE@V?$vector@GV?$allocator@G@_STL@@@_STL@@EEEEE@Z ; MPortal::MPortal
;	COMDAT xdata$x
; File c:\stlport-4.6.1\stlport\stl\_construct.h
xdata$x	SEGMENT
$T103839 DD	0ffffffffH
	DD	FLAT:$L103813
	DD	00H
	DD	FLAT:$L103814
$T103837 DD	019930520H
	DD	02H
	DD	FLAT:$T103839
	DD	2 DUP(00H)
	DD	2 DUP(00H)
; Function compile flags: /Ogsy
; File c:\darkeden\designed_common\project\client\mportal.cpp
xdata$x	ENDS
;	COMDAT ??0MPortal@@QAE@V?$vector@GV?$allocator@G@_STL@@@_STL@@EEEEE@Z
_TEXT	SEGMENT
_this$ = -16						; size = 4
__$EHRec$ = -12						; size = 12
_ZoneID$ = 8						; size = 12
_left$ = 20						; size = 1
$T103812 = 23						; size = 1
_top$ = 24						; size = 1
_right$ = 28						; size = 1
_bottom$ = 32						; size = 1
_Type$ = 36						; size = 1
??0MPortal@@QAE@V?$vector@GV?$allocator@G@_STL@@@_STL@@EEEEE@Z PROC NEAR ; MPortal::MPortal, COMDAT
; _this$ = ecx

; 29   : {

  00000	b8 00 00 00 00	 mov	 eax, __ehhandler$??0MPortal@@QAE@V?$vector@GV?$allocator@G@_STL@@@_STL@@EEEEE@Z
  00005	e8 00 00 00 00	 call	 __EH_prolog
  0000a	51		 push	 ecx
  0000b	56		 push	 esi
  0000c	8b f1		 mov	 esi, ecx
  0000e	89 75 f0	 mov	 DWORD PTR _this$[ebp], esi
  00011	83 65 fc 00	 and	 DWORD PTR __$EHRec$[ebp+8], 0
  00015	8d 45 17	 lea	 eax, DWORD PTR $T103812[ebp]
  00018	50		 push	 eax
  00019	e8 00 00 00 00	 call	 ??0?$_Vector_base@GV?$allocator@G@_STL@@@_STL@@QAE@ABV?$allocator@G@1@@Z ; _STL::_Vector_base<unsigned short,_STL::allocator<unsigned short> >::_Vector_base<unsigned short,_STL::allocator<unsigned short> >

; 30   : 	m_ZoneID = ZoneID;

  0001e	8d 45 08	 lea	 eax, DWORD PTR _ZoneID$[ebp]
  00021	50		 push	 eax
  00022	8b ce		 mov	 ecx, esi
  00024	c6 45 fc 01	 mov	 BYTE PTR __$EHRec$[ebp+8], 1
  00028	e8 00 00 00 00	 call	 ??4?$vector@GV?$allocator@G@_STL@@@_STL@@QAEAAV01@ABV01@@Z ; _STL::vector<unsigned short,_STL::allocator<unsigned short> >::operator=

; 31   : 	SetRect(left, top, right, bottom);

  0002d	8a 45 14	 mov	 al, BYTE PTR _left$[ebp]

; 32   : 	m_Type = Type;
; 33   : }

  00030	83 4d fc ff	 or	 DWORD PTR __$EHRec$[ebp+8], -1
  00034	88 46 0c	 mov	 BYTE PTR [esi+12], al
  00037	8a 45 18	 mov	 al, BYTE PTR _top$[ebp]
  0003a	88 46 0d	 mov	 BYTE PTR [esi+13], al
  0003d	8a 45 1c	 mov	 al, BYTE PTR _right$[ebp]
  00040	88 46 0e	 mov	 BYTE PTR [esi+14], al
  00043	8a 45 20	 mov	 al, BYTE PTR _bottom$[ebp]
  00046	88 46 0f	 mov	 BYTE PTR [esi+15], al
  00049	8a 45 24	 mov	 al, BYTE PTR _Type$[ebp]
  0004c	8d 4d 08	 lea	 ecx, DWORD PTR _ZoneID$[ebp]
  0004f	88 46 10	 mov	 BYTE PTR [esi+16], al
  00052	e8 00 00 00 00	 call	 ??1?$_Vector_base@GV?$allocator@G@_STL@@@_STL@@QAE@XZ ; _STL::_Vector_base<unsigned short,_STL::allocator<unsigned short> >::~_Vector_base<unsigned short,_STL::allocator<unsigned short> >
  00057	8b 4d f4	 mov	 ecx, DWORD PTR __$EHRec$[ebp]
  0005a	8b c6		 mov	 eax, esi
  0005c	5e		 pop	 esi
  0005d	64 89 0d 00 00
	00 00		 mov	 DWORD PTR fs:__except_list, ecx
  00064	c9		 leave
  00065	c2 20 00	 ret	 32			; 00000020H
_TEXT	ENDS
;	COMDAT text$x
text$x	SEGMENT
$L103813:
  00000	8d 4d 08	 lea	 ecx, DWORD PTR _ZoneID$[ebp]
  00003	e9 00 00 00 00	 jmp	 ??1?$vector@GV?$allocator@G@_STL@@@_STL@@QAE@XZ ; _STL::vector<unsigned short,_STL::allocator<unsigned short> >::~vector<unsigned short,_STL::allocator<unsigned short> >
$L103814:
  00008	8b 4d f0	 mov	 ecx, DWORD PTR _this$[ebp]
  0000b	e9 00 00 00 00	 jmp	 ??1?$vector@GV?$allocator@G@_STL@@@_STL@@QAE@XZ ; _STL::vector<unsigned short,_STL::allocator<unsigned short> >::~vector<unsigned short,_STL::allocator<unsigned short> >
__ehhandler$??0MPortal@@QAE@V?$vector@GV?$allocator@G@_STL@@@_STL@@EEEEE@Z:
  00010	b8 00 00 00 00	 mov	 eax, OFFSET FLAT:$T103837
  00015	e9 00 00 00 00	 jmp	 ___CxxFrameHandler
text$x	ENDS
??0MPortal@@QAE@V?$vector@GV?$allocator@G@_STL@@@_STL@@EEEEE@Z ENDP ; MPortal::MPortal
PUBLIC	??1MPortal@@QAE@XZ				; MPortal::~MPortal
; Function compile flags: /Ogsy
;	COMDAT ??1MPortal@@QAE@XZ
_TEXT	SEGMENT
??1MPortal@@QAE@XZ PROC NEAR				; MPortal::~MPortal, COMDAT
; _this$ = ecx

; 37   : }

  00000	e9 00 00 00 00	 jmp	 ??1?$_Vector_base@GV?$allocator@G@_STL@@@_STL@@QAE@XZ ; _STL::_Vector_base<unsigned short,_STL::allocator<unsigned short> >::~_Vector_base<unsigned short,_STL::allocator<unsigned short> >
??1MPortal@@QAE@XZ ENDP					; MPortal::~MPortal
_TEXT	ENDS
PUBLIC	?SaveToFile@MPortal@@QAEXAAV?$basic_ofstream@DV?$char_traits@D@_STL@@@_STL@@@Z ; MPortal::SaveToFile
; Function compile flags: /Ogsy
;	COMDAT ?SaveToFile@MPortal@@QAEXAAV?$basic_ofstream@DV?$char_traits@D@_STL@@@_STL@@@Z
_TEXT	SEGMENT
_file$ = 8						; size = 4
_size$ = 11						; size = 1
?SaveToFile@MPortal@@QAEXAAV?$basic_ofstream@DV?$char_traits@D@_STL@@@_STL@@@Z PROC NEAR ; MPortal::SaveToFile, COMDAT
; _this$ = ecx

; 51   : {

  00000	55		 push	 ebp
  00001	8b ec		 mov	 ebp, esp
  00003	53		 push	 ebx

; 52   : 	file.write((const char*)&m_Type, 1);

  00004	8b 5d 08	 mov	 ebx, DWORD PTR _file$[ebp]
  00007	56		 push	 esi
  00008	57		 push	 edi
  00009	8b f1		 mov	 esi, ecx
  0000b	6a 01		 push	 1
  0000d	8d 7e 10	 lea	 edi, DWORD PTR [esi+16]
  00010	57		 push	 edi
  00011	8b cb		 mov	 ecx, ebx
  00013	e8 00 00 00 00	 call	 ?write@?$basic_ostream@DV?$char_traits@D@_STL@@@_STL@@QAEAAV12@PBDH@Z ; _STL::basic_ostream<char,_STL::char_traits<char> >::write

; 53   : 
; 54   : 	BYTE size = m_ZoneID.size();

  00018	8b 46 04	 mov	 eax, DWORD PTR [esi+4]
  0001b	2b 06		 sub	 eax, DWORD PTR [esi]
  0001d	d1 f8		 sar	 eax, 1

; 55   : 
; 56   : 	if(m_Type == TYPE_MULTI_PORTAL)

  0001f	80 3f 03	 cmp	 BYTE PTR [edi], 3
  00022	88 45 0b	 mov	 BYTE PTR _size$[ebp], al
  00025	75 10		 jne	 SHORT $L101863

; 57   : 	{
; 58   : 		file.write((const char*)&size, 1);	

  00027	6a 01		 push	 1
  00029	8d 45 0b	 lea	 eax, DWORD PTR _size$[ebp]
  0002c	50		 push	 eax
  0002d	8b cb		 mov	 ecx, ebx
  0002f	e8 00 00 00 00	 call	 ?write@?$basic_ostream@DV?$char_traits@D@_STL@@@_STL@@QAEAAV12@PBDH@Z ; _STL::basic_ostream<char,_STL::char_traits<char> >::write
  00034	8a 45 0b	 mov	 al, BYTE PTR _size$[ebp]
$L101863:

; 59   : 	}
; 60   : 
; 61   : 	for(int i = 0; i < size; i++)

  00037	33 ff		 xor	 edi, edi
  00039	84 c0		 test	 al, al
  0003b	76 18		 jbe	 SHORT $L101868
$L101866:
  0003d	8b 06		 mov	 eax, DWORD PTR [esi]

; 62   : 		file.write((const char*)&m_ZoneID[i], 2);	

  0003f	6a 02		 push	 2
  00041	8d 04 78	 lea	 eax, DWORD PTR [eax+edi*2]
  00044	50		 push	 eax
  00045	8b cb		 mov	 ecx, ebx
  00047	e8 00 00 00 00	 call	 ?write@?$basic_ostream@DV?$char_traits@D@_STL@@@_STL@@QAEAAV12@PBDH@Z ; _STL::basic_ostream<char,_STL::char_traits<char> >::write
  0004c	0f b6 45 0b	 movzx	 eax, BYTE PTR _size$[ebp]
  00050	47		 inc	 edi
  00051	3b f8		 cmp	 edi, eax
  00053	7c e8		 jl	 SHORT $L101866
$L101868:

; 63   : 
; 64   : 	file.write((const char*)&m_Rect, SIZE_P_RECT);	

  00055	6a 04		 push	 4
  00057	83 c6 0c	 add	 esi, 12			; 0000000cH
  0005a	56		 push	 esi
  0005b	8b cb		 mov	 ecx, ebx
  0005d	e8 00 00 00 00	 call	 ?write@?$basic_ostream@DV?$char_traits@D@_STL@@@_STL@@QAEAAV12@PBDH@Z ; _STL::basic_ostream<char,_STL::char_traits<char> >::write
  00062	5f		 pop	 edi
  00063	5e		 pop	 esi
  00064	5b		 pop	 ebx

; 65   : }

  00065	5d		 pop	 ebp
  00066	c2 04 00	 ret	 4
?SaveToFile@MPortal@@QAEXAAV?$basic_ofstream@DV?$char_traits@D@_STL@@@_STL@@@Z ENDP ; MPortal::SaveToFile
_TEXT	ENDS
PUBLIC	?push_back@?$vector@GV?$allocator@G@_STL@@@_STL@@QAEXABG@Z ; _STL::vector<unsigned short,_STL::allocator<unsigned short> >::push_back
; Function compile flags: /Ogsy
; File c:\stlport-4.6.1\stlport\stl\_vector.h
;	COMDAT ?push_back@?$vector@GV?$allocator@G@_STL@@@_STL@@QAEXABG@Z
_TEXT	SEGMENT
___x$ = 8						; size = 4
$T103873 = 11						; size = 1
?push_back@?$vector@GV?$allocator@G@_STL@@@_STL@@QAEXABG@Z PROC NEAR ; _STL::vector<unsigned short,_STL::allocator<unsigned short> >::push_back, COMDAT
; _this$ = ecx

; 331  :   void push_back(const _Tp& __x) {

  00000	55		 push	 ebp
  00001	8b ec		 mov	 ebp, esp

; 332  :     if (this->_M_finish != this->_M_end_of_storage._M_data) {

  00003	8b 41 04	 mov	 eax, DWORD PTR [ecx+4]
  00006	3b 41 08	 cmp	 eax, DWORD PTR [ecx+8]
  00009	74 13		 je	 SHORT $L101972

; 333  :       _Construct(this->_M_finish, __x);

  0000b	85 c0		 test	 eax, eax
  0000d	74 09		 je	 SHORT $L103883
  0000f	8b 55 08	 mov	 edx, DWORD PTR ___x$[ebp]
  00012	66 8b 12	 mov	 dx, WORD PTR [edx]
  00015	66 89 10	 mov	 WORD PTR [eax], dx
$L103883:

; 334  :       ++this->_M_finish;

  00018	83 41 04 02	 add	 DWORD PTR [ecx+4], 2

; 335  :     }
; 336  :     else

  0001c	eb 11		 jmp	 SHORT $L101979
$L101972:

; 337  :       _M_insert_overflow(this->_M_finish, __x, _IsPODType(), 1UL, true);

  0001e	6a 01		 push	 1
  00020	6a 01		 push	 1
  00022	8d 55 0b	 lea	 edx, DWORD PTR $T103873[ebp]
  00025	52		 push	 edx
  00026	ff 75 08	 push	 DWORD PTR ___x$[ebp]
  00029	50		 push	 eax
  0002a	e8 00 00 00 00	 call	 ?_M_insert_overflow@?$vector@GV?$allocator@G@_STL@@@_STL@@IAEXPAGABGABU__true_type@2@I_N@Z ; _STL::vector<unsigned short,_STL::allocator<unsigned short> >::_M_insert_overflow
$L101979:

; 338  :   }

  0002f	5d		 pop	 ebp
  00030	c2 04 00	 ret	 4
?push_back@?$vector@GV?$allocator@G@_STL@@@_STL@@QAEXABG@Z ENDP ; _STL::vector<unsigned short,_STL::allocator<unsigned short> >::push_back
_TEXT	ENDS
PUBLIC	?LoadFromFile@MPortal@@QAEXAAVivfstream@@@Z	; MPortal::LoadFromFile
; Function compile flags: /Ogsy
; File c:\darkeden\designed_common\project\client\mportal.cpp
;	COMDAT ?LoadFromFile@MPortal@@QAEXAAVivfstream@@@Z
_TEXT	SEGMENT
_z$ = -4						; size = 2
_file$ = 8						; size = 4
_size$ = 11						; size = 1
?LoadFromFile@MPortal@@QAEXAAVivfstream@@@Z PROC NEAR	; MPortal::LoadFromFile, COMDAT
; _this$ = ecx

; 72   : {

  00000	55		 push	 ebp
  00001	8b ec		 mov	 ebp, esp
  00003	51		 push	 ecx
  00004	53		 push	 ebx
  00005	56		 push	 esi

; 73   : 	file.read((char*)&m_Type, 1);

  00006	8b 75 08	 mov	 esi, DWORD PTR _file$[ebp]
  00009	33 db		 xor	 ebx, ebx
  0000b	39 5e 04	 cmp	 DWORD PTR [esi+4], ebx
  0000e	57		 push	 edi
  0000f	8b f9		 mov	 edi, ecx
  00011	74 0e		 je	 SHORT $L103893
  00013	8b 4e 04	 mov	 ecx, DWORD PTR [esi+4]
  00016	8b 01		 mov	 eax, DWORD PTR [ecx]
  00018	6a 01		 push	 1
  0001a	8d 57 10	 lea	 edx, DWORD PTR [edi+16]
  0001d	52		 push	 edx
  0001e	ff 50 10	 call	 DWORD PTR [eax+16]
$L103893:

; 74   : 	WORD z;
; 75   : 
; 76   : 	BYTE size;
; 77   : 
; 78   : 	if(m_Type == TYPE_MULTI_PORTAL)

  00021	80 7f 10 03	 cmp	 BYTE PTR [edi+16], 3
  00025	75 15		 jne	 SHORT $L101879

; 79   : 		file.read((char*)&size, 1);	

  00027	39 5e 04	 cmp	 DWORD PTR [esi+4], ebx
  0002a	74 14		 je	 SHORT $L101881
  0002c	8b 4e 04	 mov	 ecx, DWORD PTR [esi+4]
  0002f	8b 01		 mov	 eax, DWORD PTR [ecx]
  00031	6a 01		 push	 1
  00033	8d 55 0b	 lea	 edx, DWORD PTR _size$[ebp]
  00036	52		 push	 edx
  00037	ff 50 10	 call	 DWORD PTR [eax+16]

; 80   : 	else size = 1;

  0003a	eb 04		 jmp	 SHORT $L101881
$L101879:
  0003c	c6 45 0b 01	 mov	 BYTE PTR _size$[ebp], 1
$L101881:

; 81   : 
; 82   : 	m_ZoneID.clear();

  00040	ff 77 04	 push	 DWORD PTR [edi+4]
  00043	8b cf		 mov	 ecx, edi
  00045	ff 37		 push	 DWORD PTR [edi]
  00047	e8 00 00 00 00	 call	 ?erase@?$vector@GV?$allocator@G@_STL@@@_STL@@QAEPAGPAG0@Z ; _STL::vector<unsigned short,_STL::allocator<unsigned short> >::erase

; 83   : 	for(int i = 0; i < size; i++)

  0004c	80 7d 0b 00	 cmp	 BYTE PTR _size$[ebp], 0
  00050	76 28		 jbe	 SHORT $L101885
$L101883:

; 84   : 	{
; 85   : 		file.read((char*)&z, 2);	

  00052	83 7e 04 00	 cmp	 DWORD PTR [esi+4], 0
  00056	74 0e		 je	 SHORT $L103918
  00058	8b 4e 04	 mov	 ecx, DWORD PTR [esi+4]
  0005b	8b 01		 mov	 eax, DWORD PTR [ecx]
  0005d	6a 02		 push	 2
  0005f	8d 55 fc	 lea	 edx, DWORD PTR _z$[ebp]
  00062	52		 push	 edx
  00063	ff 50 10	 call	 DWORD PTR [eax+16]
$L103918:

; 86   : 		m_ZoneID.push_back(z);

  00066	8d 45 fc	 lea	 eax, DWORD PTR _z$[ebp]
  00069	50		 push	 eax
  0006a	8b cf		 mov	 ecx, edi
  0006c	e8 00 00 00 00	 call	 ?push_back@?$vector@GV?$allocator@G@_STL@@@_STL@@QAEXABG@Z ; _STL::vector<unsigned short,_STL::allocator<unsigned short> >::push_back
  00071	0f b6 45 0b	 movzx	 eax, BYTE PTR _size$[ebp]
  00075	43		 inc	 ebx
  00076	3b d8		 cmp	 ebx, eax
  00078	7c d8		 jl	 SHORT $L101883
$L101885:

; 87   : 	}
; 88   : 
; 89   : 	file.read((char*)&m_Rect, SIZE_P_RECT);	

  0007a	83 7e 04 00	 cmp	 DWORD PTR [esi+4], 0
  0007e	74 0e		 je	 SHORT $L103923
  00080	8b 4e 04	 mov	 ecx, DWORD PTR [esi+4]
  00083	8b 01		 mov	 eax, DWORD PTR [ecx]
  00085	6a 04		 push	 4
  00087	83 c7 0c	 add	 edi, 12			; 0000000cH
  0008a	57		 push	 edi
  0008b	ff 50 10	 call	 DWORD PTR [eax+16]
$L103923:
  0008e	5f		 pop	 edi
  0008f	5e		 pop	 esi
  00090	5b		 pop	 ebx

; 90   : }

  00091	c9		 leave
  00092	c2 04 00	 ret	 4
?LoadFromFile@MPortal@@QAEXAAVivfstream@@@Z ENDP	; MPortal::LoadFromFile
_TEXT	ENDS
END
