; Listing generated by Microsoft (R) Optimizing Compiler Version 13.10.3077 

	TITLE	\darkeden\Designed_Common\Project\Client\MShopTemplate.cpp
	.386P
include listing.inc
if @Version gt 510
.model FLAT
else
_TEXT	SEGMENT PARA USE32 PUBLIC 'CODE'
_TEXT	ENDS
_DATA	SEGMENT DWORD USE32 PUBLIC 'DATA'
_DATA	ENDS
CONST	SEGMENT DWORD USE32 PUBLIC 'CONST'
CONST	ENDS
_BSS	SEGMENT DWORD USE32 PUBLIC 'BSS'
_BSS	ENDS
$$SYMBOLS	SEGMENT BYTE USE32 'DEBSYM'
$$SYMBOLS	ENDS
$$TYPES	SEGMENT BYTE USE32 'DEBTYP'
$$TYPES	ENDS
_TLS	SEGMENT DWORD USE32 PUBLIC 'TLS'
_TLS	ENDS
;	COMDAT ??_C@_0BN@ODLNCKCA@Data?2?2Info?2?2ClientConfig?4inf?$AA@
CONST	SEGMENT DWORD USE32 PUBLIC 'CONST'
CONST	ENDS
;	COMDAT ??_C@_0BM@DFPLPGPC@Data?2?2Info?2?2GuildMapper?4inf?$AA@
CONST	SEGMENT DWORD USE32 PUBLIC 'CONST'
CONST	ENDS
;	COMDAT ??_C@_0BN@LHODHNBK@Data?2?2Info?2?2GuildVersion?4inf?$AA@
CONST	SEGMENT DWORD USE32 PUBLIC 'CONST'
CONST	ENDS
;	COMDAT ??_C@_0BH@DDPLNCOL@Data?2?2Info?2?2Player?4inf?$AA@
CONST	SEGMENT DWORD USE32 PUBLIC 'CONST'
CONST	ENDS
;	COMDAT ??_C@_0BL@ILLNAPHB@Data?2?2Info?2?2Resolution?4inf?$AA@
CONST	SEGMENT DWORD USE32 PUBLIC 'CONST'
CONST	ENDS
;	COMDAT ??_C@_0CA@HEIGFDLG@Data?2?2Info?2?2SelectedChannel?4inf?$AA@
CONST	SEGMENT DWORD USE32 PUBLIC 'CONST'
CONST	ENDS
;	COMDAT ??_C@_0N@GOPDCEEB@basic_string?$AA@
CONST	SEGMENT DWORD USE32 PUBLIC 'CONST'
CONST	ENDS
rdata$r	SEGMENT DWORD USE32 PUBLIC 'CONST'
rdata$r	ENDS
text$yc	SEGMENT PARA USE32 PUBLIC 'CODE'
text$yc	ENDS
CRT$XCA	SEGMENT DWORD USE32 PUBLIC 'DATA'
CRT$XCA	ENDS
CRT$XCU	SEGMENT DWORD USE32 PUBLIC 'DATA'
CRT$XCU	ENDS
CRT$XCL	SEGMENT DWORD USE32 PUBLIC 'DATA'
CRT$XCL	ENDS
CRT$XCC	SEGMENT DWORD USE32 PUBLIC 'DATA'
CRT$XCC	ENDS
CRT$XCZ	SEGMENT DWORD USE32 PUBLIC 'DATA'
CRT$XCZ	ENDS
text$yd	SEGMENT PARA USE32 PUBLIC 'CODE'
text$yd	ENDS
;	COMDAT ?start@CNFS@@QAE_NPADH@Z
_TEXT	SEGMENT PARA USE32 PUBLIC 'CODE'
_TEXT	ENDS
;	COMDAT ?end@CNFS@@QAEXXZ
_TEXT	SEGMENT PARA USE32 PUBLIC 'CODE'
_TEXT	ENDS
;	COMDAT ?Init@VirtualFileHeader@@QAEXXZ
_TEXT	SEGMENT PARA USE32 PUBLIC 'CODE'
_TEXT	ENDS
;	COMDAT ??1IFileIO@@UAE@XZ
_TEXT	SEGMENT PARA USE32 PUBLIC 'CODE'
_TEXT	ENDS
;	COMDAT ??_GIFileIO@@UAEPAXI@Z
_TEXT	SEGMENT PARA USE32 PUBLIC 'CODE'
_TEXT	ENDS
;	COMDAT ??0iovfs_base@@QAE@XZ
_TEXT	SEGMENT PARA USE32 PUBLIC 'CODE'
_TEXT	ENDS
;	COMDAT ??_Giovfs_base@@UAEPAXI@Z
_TEXT	SEGMENT PARA USE32 PUBLIC 'CODE'
_TEXT	ENDS
;	COMDAT ??1iovfs_base@@UAE@XZ
_TEXT	SEGMENT PARA USE32 PUBLIC 'CODE'
_TEXT	ENDS
;	COMDAT ?Init@iovfs_base@@QAEXXZ
_TEXT	SEGMENT PARA USE32 PUBLIC 'CODE'
_TEXT	ENDS
;	COMDAT ??_Givfstream@@UAEPAXI@Z
_TEXT	SEGMENT PARA USE32 PUBLIC 'CODE'
_TEXT	ENDS
;	COMDAT ??1ivfstream@@UAE@XZ
_TEXT	SEGMENT PARA USE32 PUBLIC 'CODE'
_TEXT	ENDS
;	COMDAT ?open@ivfstream@@UAEXPBDH@Z
_TEXT	SEGMENT PARA USE32 PUBLIC 'CODE'
_TEXT	ENDS
;	COMDAT ?read@ivfstream@@QAEXPADI@Z
_TEXT	SEGMENT PARA USE32 PUBLIC 'CODE'
_TEXT	ENDS
;	COMDAT ??_Govfstream@@UAEPAXI@Z
_TEXT	SEGMENT PARA USE32 PUBLIC 'CODE'
_TEXT	ENDS
;	COMDAT ??1ovfstream@@UAE@XZ
_TEXT	SEGMENT PARA USE32 PUBLIC 'CODE'
_TEXT	ENDS
;	COMDAT ?open@ovfstream@@UAEXPBDH@Z
_TEXT	SEGMENT PARA USE32 PUBLIC 'CODE'
_TEXT	ENDS
;	COMDAT ??0MShopTemplate@@QAE@XZ
_TEXT	SEGMENT PARA USE32 PUBLIC 'CODE'
_TEXT	ENDS
;	COMDAT ??1MShopTemplate@@QAE@XZ
_TEXT	SEGMENT PARA USE32 PUBLIC 'CODE'
_TEXT	ENDS
;	COMDAT ?SaveToFile@MShopTemplate@@QAEXAAV?$basic_ofstream@DV?$char_traits@D@_STL@@@_STL@@@Z
_TEXT	SEGMENT PARA USE32 PUBLIC 'CODE'
_TEXT	ENDS
;	COMDAT ?LoadFromFile@MShopTemplate@@QAEXAAVivfstream@@@Z
_TEXT	SEGMENT PARA USE32 PUBLIC 'CODE'
_TEXT	ENDS
;	COMDAT ??0MShopTemplateTable@@QAE@XZ
_TEXT	SEGMENT PARA USE32 PUBLIC 'CODE'
_TEXT	ENDS
;	COMDAT ??_GMShopTemplateTable@@UAEPAXI@Z
_TEXT	SEGMENT PARA USE32 PUBLIC 'CODE'
_TEXT	ENDS
;	COMDAT ??1MShopTemplateTable@@UAE@XZ
_TEXT	SEGMENT PARA USE32 PUBLIC 'CODE'
_TEXT	ENDS
;	COMDAT ?eq@?$__char_traits_base@DH@_STL@@SA_NABD0@Z
_TEXT	SEGMENT PARA USE32 PUBLIC 'CODE'
_TEXT	ENDS
;	COMDAT ?not_eof@?$__char_traits_base@DH@_STL@@SAHABH@Z
_TEXT	SEGMENT PARA USE32 PUBLIC 'CODE'
_TEXT	ENDS
;	COMDAT ?eq_int_type@?$__char_traits_base@DH@_STL@@SA_NABH0@Z
_TEXT	SEGMENT PARA USE32 PUBLIC 'CODE'
_TEXT	ENDS
;	COMDAT ?get_allocator@?$basic_string@DV?$char_traits@D@_STL@@V?$allocator@D@2@@_STL@@QBE?AV?$allocator@D@2@XZ
_TEXT	SEGMENT PARA USE32 PUBLIC 'CODE'
_TEXT	ENDS
;	COMDAT ??4?$basic_string@DV?$char_traits@D@_STL@@V?$allocator@D@2@@_STL@@QAEAAV01@PBD@Z
_TEXT	SEGMENT PARA USE32 PUBLIC 'CODE'
_TEXT	ENDS
;	COMDAT ?_M_terminate_string@?$basic_string@DV?$char_traits@D@_STL@@V?$allocator@D@2@@_STL@@AAEXXZ
_TEXT	SEGMENT PARA USE32 PUBLIC 'CODE'
_TEXT	ENDS
;	COMDAT ??0?$_String_base@DV?$allocator@D@_STL@@@_STL@@QAE@ABV?$allocator@D@1@@Z
_TEXT	SEGMENT PARA USE32 PUBLIC 'CODE'
_TEXT	ENDS
;	COMDAT ?allocate@?$allocator@D@_STL@@QAEPADIPBX@Z
_TEXT	SEGMENT PARA USE32 PUBLIC 'CODE'
_TEXT	ENDS
;	COMDAT ??0?$fpos@H@_STL@@QAE@J@Z
_TEXT	SEGMENT PARA USE32 PUBLIC 'CODE'
_TEXT	ENDS
;	COMDAT ??B?$fpos@H@_STL@@QBEJXZ
_TEXT	SEGMENT PARA USE32 PUBLIC 'CODE'
_TEXT	ENDS
;	COMDAT ?state@?$fpos@H@_STL@@QBEHXZ
_TEXT	SEGMENT PARA USE32 PUBLIC 'CODE'
_TEXT	ENDS
;	COMDAT ?is_open@?$basic_filebuf@DV?$char_traits@D@_STL@@@_STL@@QBE_NXZ
_TEXT	SEGMENT PARA USE32 PUBLIC 'CODE'
_TEXT	ENDS
;	COMDAT ?_M_seek_return@?$basic_filebuf@DV?$char_traits@D@_STL@@@_STL@@AAE?AV?$fpos@H@2@JH@Z
_TEXT	SEGMENT PARA USE32 PUBLIC 'CODE'
_TEXT	ENDS
;	COMDAT ??0?$_Filebuf_Tmp_Buf@D@_STL@@QAE@H@Z
_TEXT	SEGMENT PARA USE32 PUBLIC 'CODE'
_TEXT	ENDS
;	COMDAT ??1?$_Filebuf_Tmp_Buf@D@_STL@@QAE@XZ
_TEXT	SEGMENT PARA USE32 PUBLIC 'CODE'
_TEXT	ENDS
;	COMDAT ??1?$basic_ofstream@DV?$char_traits@D@_STL@@@_STL@@UAE@XZ
_TEXT	SEGMENT PARA USE32 PUBLIC 'CODE'
_TEXT	ENDS
;	COMDAT ??_G?$basic_ofstream@DV?$char_traits@D@_STL@@@_STL@@UAEPAXI@Z
_TEXT	SEGMENT PARA USE32 PUBLIC 'CODE'
_TEXT	ENDS
;	COMDAT ??_D?$basic_ofstream@DV?$char_traits@D@_STL@@@_STL@@QAEXXZ
_TEXT	SEGMENT PARA USE32 PUBLIC 'CODE'
_TEXT	ENDS
;	COMDAT ?_M_terminate_string_aux@?$basic_string@DV?$char_traits@D@_STL@@V?$allocator@D@2@@_STL@@AAEXABU__true_type@2@@Z
_TEXT	SEGMENT PARA USE32 PUBLIC 'CODE'
_TEXT	ENDS
;	COMDAT ?assign@?$basic_string@DV?$char_traits@D@_STL@@V?$allocator@D@2@@_STL@@QAEAAV12@PBD0@Z
_TEXT	SEGMENT PARA USE32 PUBLIC 'CODE'
_TEXT	ENDS
;	COMDAT ??0?$allocator@D@_STL@@QAE@ABV01@@Z
_TEXT	SEGMENT PARA USE32 PUBLIC 'CODE'
_TEXT	ENDS
;	COMDAT ??0?$_STLP_alloc_proxy@PADDV?$allocator@D@_STL@@@_STL@@QAE@ABV?$allocator@D@1@PAD@Z
_TEXT	SEGMENT PARA USE32 PUBLIC 'CODE'
_TEXT	ENDS
;	COMDAT ?state@?$fpos@H@_STL@@QAEXH@Z
_TEXT	SEGMENT PARA USE32 PUBLIC 'CODE'
_TEXT	ENDS
;	COMDAT ?copy@?$__char_traits_base@DH@_STL@@SAPADPADPBDI@Z
_TEXT	SEGMENT PARA USE32 PUBLIC 'CODE'
_TEXT	ENDS
;	COMDAT ?begin@?$basic_string@DV?$char_traits@D@_STL@@V?$allocator@D@2@@_STL@@QAEPADXZ
_TEXT	SEGMENT PARA USE32 PUBLIC 'CODE'
_TEXT	ENDS
;	COMDAT ?end@?$basic_string@DV?$char_traits@D@_STL@@V?$allocator@D@2@@_STL@@QAEPADXZ
_TEXT	SEGMENT PARA USE32 PUBLIC 'CODE'
_TEXT	ENDS
;	COMDAT ?size@?$basic_string@DV?$char_traits@D@_STL@@V?$allocator@D@2@@_STL@@QBEIXZ
_TEXT	SEGMENT PARA USE32 PUBLIC 'CODE'
_TEXT	ENDS
;	COMDAT ?erase@?$basic_string@DV?$char_traits@D@_STL@@V?$allocator@D@2@@_STL@@QAEPADPAD0@Z
_TEXT	SEGMENT PARA USE32 PUBLIC 'CODE'
_TEXT	ENDS
;	COMDAT ?move@?$__char_traits_base@DH@_STL@@SAPADPADPBDI@Z
_TEXT	SEGMENT PARA USE32 PUBLIC 'CODE'
_TEXT	ENDS
;	COMDAT ??$_M_range_initialize@PBD@?$basic_string@DV?$char_traits@D@_STL@@V?$allocator@D@2@@_STL@@AAEXPBD0@Z
_TEXT	SEGMENT PARA USE32 PUBLIC 'CODE'
_TEXT	ENDS
;	COMDAT ??$_M_range_initialize@PAD@?$basic_string@DV?$char_traits@D@_STL@@V?$allocator@D@2@@_STL@@AAEXPAD0@Z
_TEXT	SEGMENT PARA USE32 PUBLIC 'CODE'
_TEXT	ENDS
;	COMDAT ?write@?$basic_ostream@DV?$char_traits@D@_STL@@@_STL@@QAEAAV12@PBDH@Z
_TEXT	SEGMENT PARA USE32 PUBLIC 'CODE'
_TEXT	ENDS
;	COMDAT ?close@?$basic_filebuf@DV?$char_traits@D@_STL@@@_STL@@QAEPAV12@XZ
_TEXT	SEGMENT PARA USE32 PUBLIC 'CODE'
_TEXT	ENDS
;	COMDAT ?_M_exit_input_mode@?$basic_filebuf@DV?$char_traits@D@_STL@@@_STL@@AAEXXZ
_TEXT	SEGMENT PARA USE32 PUBLIC 'CODE'
_TEXT	ENDS
;	COMDAT ?_M_switch_to_output_mode@?$basic_filebuf@DV?$char_traits@D@_STL@@@_STL@@AAE_NXZ
_TEXT	SEGMENT PARA USE32 PUBLIC 'CODE'
_TEXT	ENDS
;	COMDAT ?_M_output_error@?$basic_filebuf@DV?$char_traits@D@_STL@@@_STL@@AAEHXZ
_TEXT	SEGMENT PARA USE32 PUBLIC 'CODE'
_TEXT	ENDS
;	COMDAT ?_M_allocate_buffers@?$basic_filebuf@DV?$char_traits@D@_STL@@@_STL@@AAE_NPADH@Z
_TEXT	SEGMENT PARA USE32 PUBLIC 'CODE'
_TEXT	ENDS
;	COMDAT ?_M_deallocate_buffers@?$basic_filebuf@DV?$char_traits@D@_STL@@@_STL@@AAEXXZ
_TEXT	SEGMENT PARA USE32 PUBLIC 'CODE'
_TEXT	ENDS
;	COMDAT ?_M_seek_init@?$basic_filebuf@DV?$char_traits@D@_STL@@@_STL@@AAE_N_N@Z
_TEXT	SEGMENT PARA USE32 PUBLIC 'CODE'
_TEXT	ENDS
;	COMDAT ?_M_setup_codecvt@?$basic_filebuf@DV?$char_traits@D@_STL@@@_STL@@AAEXABVlocale@2@@Z
_TEXT	SEGMENT PARA USE32 PUBLIC 'CODE'
_TEXT	ENDS
;	COMDAT ??$equal@PADPADU?$_Eq_traits@V?$char_traits@D@_STL@@@_STL@@@_STL@@YA_NPAD00U?$_Eq_traits@V?$char_traits@D@_STL@@@0@@Z
_TEXT	SEGMENT PARA USE32 PUBLIC 'CODE'
_TEXT	ENDS
;	COMDAT ??$_Destroy@V?$basic_string@DV?$char_traits@D@_STL@@V?$allocator@D@2@@_STL@@@_STL@@YAXPAV?$basic_string@DV?$char_traits@D@_STL@@V?$allocator@D@2@@0@@Z
_TEXT	SEGMENT PARA USE32 PUBLIC 'CODE'
_TEXT	ENDS
;	COMDAT ??$_M_assign_dispatch@PAD@?$basic_string@DV?$char_traits@D@_STL@@V?$allocator@D@2@@_STL@@AAEAAV01@PAD0ABU__false_type@1@@Z
_TEXT	SEGMENT PARA USE32 PUBLIC 'CODE'
_TEXT	ENDS
;	COMDAT ??0?$CTypeMap@VMShopTemplate@@@@QAE@XZ
_TEXT	SEGMENT PARA USE32 PUBLIC 'CODE'
_TEXT	ENDS
;	COMDAT ??1?$CTypeMap@VMShopTemplate@@@@UAE@XZ
_TEXT	SEGMENT PARA USE32 PUBLIC 'CODE'
_TEXT	ENDS
;	COMDAT ?Release@?$CTypeMap@VMShopTemplate@@@@UAEXXZ
_TEXT	SEGMENT PARA USE32 PUBLIC 'CODE'
_TEXT	ENDS
;	COMDAT ?AddData@?$CTypeMap@VMShopTemplate@@@@UAE_NIPAVMShopTemplate@@@Z
_TEXT	SEGMENT PARA USE32 PUBLIC 'CODE'
_TEXT	ENDS
;	COMDAT ?GetData@?$CTypeMap@VMShopTemplate@@@@UAEPAVMShopTemplate@@I@Z
_TEXT	SEGMENT PARA USE32 PUBLIC 'CODE'
_TEXT	ENDS
;	COMDAT ?RemoveData@?$CTypeMap@VMShopTemplate@@@@UAE_NI@Z
_TEXT	SEGMENT PARA USE32 PUBLIC 'CODE'
_TEXT	ENDS
;	COMDAT ?SaveToFile@?$CTypeMap@VMShopTemplate@@@@UAEXAAV?$basic_ofstream@DV?$char_traits@D@_STL@@@_STL@@@Z
_TEXT	SEGMENT PARA USE32 PUBLIC 'CODE'
_TEXT	ENDS
;	COMDAT ?LoadFromFile@?$CTypeMap@VMShopTemplate@@@@UAEXAAVivfstream@@@Z
_TEXT	SEGMENT PARA USE32 PUBLIC 'CODE'
_TEXT	ENDS
;	COMDAT ??$append@PBD@?$basic_string@DV?$char_traits@D@_STL@@V?$allocator@D@2@@_STL@@QAEAAV01@PBD0@Z
_TEXT	SEGMENT PARA USE32 PUBLIC 'CODE'
_TEXT	ENDS
;	COMDAT ??_G?$basic_string@DV?$char_traits@D@_STL@@V?$allocator@D@2@@_STL@@QAEPAXI@Z
_TEXT	SEGMENT PARA USE32 PUBLIC 'CODE'
_TEXT	ENDS
;	COMDAT ??_G?$CTypeMap@VMShopTemplate@@@@UAEPAXI@Z
_TEXT	SEGMENT PARA USE32 PUBLIC 'CODE'
_TEXT	ENDS
;	COMDAT ??1?$map@IPAVMShopTemplate@@U?$less@I@_STL@@V?$allocator@U?$pair@$$CBIPAVMShopTemplate@@@_STL@@@3@@_STL@@QAE@XZ
_TEXT	SEGMENT PARA USE32 PUBLIC 'CODE'
_TEXT	ENDS
;	COMDAT ??_GMShopTemplate@@QAEPAXI@Z
_TEXT	SEGMENT PARA USE32 PUBLIC 'CODE'
_TEXT	ENDS
;	COMDAT ?rdbuf@?$basic_ios@DV?$char_traits@D@_STL@@@_STL@@QBEPAV?$basic_streambuf@DV?$char_traits@D@_STL@@@2@XZ
_TEXT	SEGMENT PARA USE32 PUBLIC 'CODE'
_TEXT	ENDS
;	COMDAT ?setstate@?$basic_ios@DV?$char_traits@D@_STL@@@_STL@@QAEXH@Z
_TEXT	SEGMENT PARA USE32 PUBLIC 'CODE'
_TEXT	ENDS
;	COMDAT ?_M_exit_putback_mode@?$basic_filebuf@DV?$char_traits@D@_STL@@@_STL@@AAEXXZ
_TEXT	SEGMENT PARA USE32 PUBLIC 'CODE'
_TEXT	ENDS
;	COMDAT ??R?$_Eq_traits@V?$char_traits@D@_STL@@@_STL@@QBE_NABD0@Z
_TEXT	SEGMENT PARA USE32 PUBLIC 'CODE'
_TEXT	ENDS
;	COMDAT ??0?$map@IPAVMShopTemplate@@U?$less@I@_STL@@V?$allocator@U?$pair@$$CBIPAVMShopTemplate@@@_STL@@@3@@_STL@@QAE@XZ
_TEXT	SEGMENT PARA USE32 PUBLIC 'CODE'
_TEXT	ENDS
;	COMDAT ?begin@?$map@IPAVMShopTemplate@@U?$less@I@_STL@@V?$allocator@U?$pair@$$CBIPAVMShopTemplate@@@_STL@@@3@@_STL@@QAE?AU?$_Rb_tree_iterator@U?$pair@$$CBIPAVMShopTemplate@@@_STL@@U?$_Nonconst_traits@U?$pair@$$CBIPAVMShopTemplate@@@_STL@@@2@@2@XZ
_TEXT	SEGMENT PARA USE32 PUBLIC 'CODE'
_TEXT	ENDS
;	COMDAT ?end@?$map@IPAVMShopTemplate@@U?$less@I@_STL@@V?$allocator@U?$pair@$$CBIPAVMShopTemplate@@@_STL@@@3@@_STL@@QAE?AU?$_Rb_tree_iterator@U?$pair@$$CBIPAVMShopTemplate@@@_STL@@U?$_Nonconst_traits@U?$pair@$$CBIPAVMShopTemplate@@@_STL@@@2@@2@XZ
_TEXT	SEGMENT PARA USE32 PUBLIC 'CODE'
_TEXT	ENDS
;	COMDAT ?size@?$map@IPAVMShopTemplate@@U?$less@I@_STL@@V?$allocator@U?$pair@$$CBIPAVMShopTemplate@@@_STL@@@3@@_STL@@QBEIXZ
_TEXT	SEGMENT PARA USE32 PUBLIC 'CODE'
_TEXT	ENDS
;	COMDAT ?insert@?$map@IPAVMShopTemplate@@U?$less@I@_STL@@V?$allocator@U?$pair@$$CBIPAVMShopTemplate@@@_STL@@@3@@_STL@@QAE?AU?$pair@U?$_Rb_tree_iterator@U?$pair@$$CBIPAVMShopTemplate@@@_STL@@U?$_Nonconst_traits@U?$pair@$$CBIPAVMShopTemplate@@@_STL@@@2@@_STL@@_N@2@ABU?$pair@$$CBIPAVMShopTemplate@@@2@@Z
_TEXT	SEGMENT PARA USE32 PUBLIC 'CODE'
_TEXT	ENDS
;	COMDAT ?erase@?$map@IPAVMShopTemplate@@U?$less@I@_STL@@V?$allocator@U?$pair@$$CBIPAVMShopTemplate@@@_STL@@@3@@_STL@@QAEXU?$_Rb_tree_iterator@U?$pair@$$CBIPAVMShopTemplate@@@_STL@@U?$_Nonconst_traits@U?$pair@$$CBIPAVMShopTemplate@@@_STL@@@2@@2@@Z
_TEXT	SEGMENT PARA USE32 PUBLIC 'CODE'
_TEXT	ENDS
;	COMDAT ?clear@?$map@IPAVMShopTemplate@@U?$less@I@_STL@@V?$allocator@U?$pair@$$CBIPAVMShopTemplate@@@_STL@@@3@@_STL@@QAEXXZ
_TEXT	SEGMENT PARA USE32 PUBLIC 'CODE'
_TEXT	ENDS
;	COMDAT ?find@?$map@IPAVMShopTemplate@@U?$less@I@_STL@@V?$allocator@U?$pair@$$CBIPAVMShopTemplate@@@_STL@@@3@@_STL@@QAE?AU?$_Rb_tree_iterator@U?$pair@$$CBIPAVMShopTemplate@@@_STL@@U?$_Nonconst_traits@U?$pair@$$CBIPAVMShopTemplate@@@_STL@@@2@@2@ABI@Z
_TEXT	SEGMENT PARA USE32 PUBLIC 'CODE'
_TEXT	ENDS
;	COMDAT ??1?$_Rb_tree@IU?$pair@$$CBIPAVMShopTemplate@@@_STL@@U?$_Select1st@U?$pair@$$CBIPAVMShopTemplate@@@_STL@@@2@U?$less@I@2@V?$allocator@U?$pair@$$CBIPAVMShopTemplate@@@_STL@@@2@@_STL@@QAE@XZ
_TEXT	SEGMENT PARA USE32 PUBLIC 'CODE'
_TEXT	ENDS
;	COMDAT ??0sentry@?$basic_ostream@DV?$char_traits@D@_STL@@@_STL@@QAE@AAV12@@Z
_TEXT	SEGMENT PARA USE32 PUBLIC 'CODE'
_TEXT	ENDS
;	COMDAT ??1sentry@?$basic_ostream@DV?$char_traits@D@_STL@@@_STL@@QAE@XZ
_TEXT	SEGMENT PARA USE32 PUBLIC 'CODE'
_TEXT	ENDS
;	COMDAT ??Bsentry@?$basic_ostream@DV?$char_traits@D@_STL@@@_STL@@QBE_NXZ
_TEXT	SEGMENT PARA USE32 PUBLIC 'CODE'
_TEXT	ENDS
;	COMDAT ??0?$_Rb_tree_iterator@U?$pair@$$CBIPAVMShopTemplate@@@_STL@@U?$_Nonconst_traits@U?$pair@$$CBIPAVMShopTemplate@@@_STL@@@2@@_STL@@QAE@ABU01@@Z
_TEXT	SEGMENT PARA USE32 PUBLIC 'CODE'
_TEXT	ENDS
;	COMDAT ??D?$_Rb_tree_iterator@U?$pair@$$CBIPAVMShopTemplate@@@_STL@@U?$_Nonconst_traits@U?$pair@$$CBIPAVMShopTemplate@@@_STL@@@2@@_STL@@QBEAAU?$pair@$$CBIPAVMShopTemplate@@@1@XZ
_TEXT	SEGMENT PARA USE32 PUBLIC 'CODE'
_TEXT	ENDS
;	COMDAT ??E?$_Rb_tree_iterator@U?$pair@$$CBIPAVMShopTemplate@@@_STL@@U?$_Nonconst_traits@U?$pair@$$CBIPAVMShopTemplate@@@_STL@@@2@@_STL@@QAE?AU01@H@Z
_TEXT	SEGMENT PARA USE32 PUBLIC 'CODE'
_TEXT	ENDS
;	COMDAT ??0?$pair@$$CBIPAVMShopTemplate@@@_STL@@QAE@ABIABQAVMShopTemplate@@@Z
_TEXT	SEGMENT PARA USE32 PUBLIC 'CODE'
_TEXT	ENDS
;	COMDAT ?clear@?$basic_ios@DV?$char_traits@D@_STL@@@_STL@@QAEXH@Z
_TEXT	SEGMENT PARA USE32 PUBLIC 'CODE'
_TEXT	ENDS
;	COMDAT ?flush@?$basic_ostream@DV?$char_traits@D@_STL@@@_STL@@QAEAAV12@XZ
_TEXT	SEGMENT PARA USE32 PUBLIC 'CODE'
_TEXT	ENDS
;	COMDAT ??0?$_Rb_tree@IU?$pair@$$CBIPAVMShopTemplate@@@_STL@@U?$_Select1st@U?$pair@$$CBIPAVMShopTemplate@@@_STL@@@2@U?$less@I@2@V?$allocator@U?$pair@$$CBIPAVMShopTemplate@@@_STL@@@2@@_STL@@QAE@ABU?$less@I@1@ABV?$allocator@U?$pair@$$CBIPAVMShopTemplate@@@_STL@@@1@@Z
_TEXT	SEGMENT PARA USE32 PUBLIC 'CODE'
_TEXT	ENDS
;	COMDAT ?begin@?$_Rb_tree@IU?$pair@$$CBIPAVMShopTemplate@@@_STL@@U?$_Select1st@U?$pair@$$CBIPAVMShopTemplate@@@_STL@@@2@U?$less@I@2@V?$allocator@U?$pair@$$CBIPAVMShopTemplate@@@_STL@@@2@@_STL@@QAE?AU?$_Rb_tree_iterator@U?$pair@$$CBIPAVMShopTemplate@@@_STL@@U?$_Nonconst_traits@U?$pair@$$CBIPAVMShopTemplate@@@_STL@@@2@@2@XZ
_TEXT	SEGMENT PARA USE32 PUBLIC 'CODE'
_TEXT	ENDS
;	COMDAT ?end@?$_Rb_tree@IU?$pair@$$CBIPAVMShopTemplate@@@_STL@@U?$_Select1st@U?$pair@$$CBIPAVMShopTemplate@@@_STL@@@2@U?$less@I@2@V?$allocator@U?$pair@$$CBIPAVMShopTemplate@@@_STL@@@2@@_STL@@QAE?AU?$_Rb_tree_iterator@U?$pair@$$CBIPAVMShopTemplate@@@_STL@@U?$_Nonconst_traits@U?$pair@$$CBIPAVMShopTemplate@@@_STL@@@2@@2@XZ
_TEXT	SEGMENT PARA USE32 PUBLIC 'CODE'
_TEXT	ENDS
;	COMDAT ?size@?$_Rb_tree@IU?$pair@$$CBIPAVMShopTemplate@@@_STL@@U?$_Select1st@U?$pair@$$CBIPAVMShopTemplate@@@_STL@@@2@U?$less@I@2@V?$allocator@U?$pair@$$CBIPAVMShopTemplate@@@_STL@@@2@@_STL@@QBEIXZ
_TEXT	SEGMENT PARA USE32 PUBLIC 'CODE'
_TEXT	ENDS
;	COMDAT ?erase@?$_Rb_tree@IU?$pair@$$CBIPAVMShopTemplate@@@_STL@@U?$_Select1st@U?$pair@$$CBIPAVMShopTemplate@@@_STL@@@2@U?$less@I@2@V?$allocator@U?$pair@$$CBIPAVMShopTemplate@@@_STL@@@2@@_STL@@QAEXU?$_Rb_tree_iterator@U?$pair@$$CBIPAVMShopTemplate@@@_STL@@U?$_Nonconst_traits@U?$pair@$$CBIPAVMShopTemplate@@@_STL@@@2@@2@@Z
_TEXT	SEGMENT PARA USE32 PUBLIC 'CODE'
_TEXT	ENDS
;	COMDAT ?clear@?$_Rb_tree@IU?$pair@$$CBIPAVMShopTemplate@@@_STL@@U?$_Select1st@U?$pair@$$CBIPAVMShopTemplate@@@_STL@@@2@U?$less@I@2@V?$allocator@U?$pair@$$CBIPAVMShopTemplate@@@_STL@@@2@@_STL@@QAEXXZ
_TEXT	SEGMENT PARA USE32 PUBLIC 'CODE'
_TEXT	ENDS
;	COMDAT ??1?$_Rb_tree_base@U?$pair@$$CBIPAVMShopTemplate@@@_STL@@V?$allocator@U?$pair@$$CBIPAVMShopTemplate@@@_STL@@@2@@_STL@@QAE@XZ
_TEXT	SEGMENT PARA USE32 PUBLIC 'CODE'
_TEXT	ENDS
;	COMDAT ??0?$allocator@U?$pair@$$CBIPAVMShopTemplate@@@_STL@@@_STL@@QAE@XZ
_TEXT	SEGMENT PARA USE32 PUBLIC 'CODE'
_TEXT	ENDS
;	COMDAT ??1?$allocator@U?$pair@$$CBIPAVMShopTemplate@@@_STL@@@_STL@@QAE@XZ
_TEXT	SEGMENT PARA USE32 PUBLIC 'CODE'
_TEXT	ENDS
;	COMDAT ??1?$_STLP_alloc_proxy@PAU?$_Rb_tree_node@U?$pair@$$CBIPAVMShopTemplate@@@_STL@@@_STL@@U12@V?$allocator@U?$_Rb_tree_node@U?$pair@$$CBIPAVMShopTemplate@@@_STL@@@_STL@@@2@@_STL@@QAE@XZ
_TEXT	SEGMENT PARA USE32 PUBLIC 'CODE'
_TEXT	ENDS
;	COMDAT ?_M_root@?$_Rb_tree@IU?$pair@$$CBIPAVMShopTemplate@@@_STL@@U?$_Select1st@U?$pair@$$CBIPAVMShopTemplate@@@_STL@@@2@U?$less@I@2@V?$allocator@U?$pair@$$CBIPAVMShopTemplate@@@_STL@@@2@@_STL@@IBEAAPAU?$_Rb_tree_node@U?$pair@$$CBIPAVMShopTemplate@@@_STL@@@2@XZ
_TEXT	SEGMENT PARA USE32 PUBLIC 'CODE'
_TEXT	ENDS
;	COMDAT ?_M_leftmost@?$_Rb_tree@IU?$pair@$$CBIPAVMShopTemplate@@@_STL@@U?$_Select1st@U?$pair@$$CBIPAVMShopTemplate@@@_STL@@@2@U?$less@I@2@V?$allocator@U?$pair@$$CBIPAVMShopTemplate@@@_STL@@@2@@_STL@@IBEAAPAU?$_Rb_tree_node@U?$pair@$$CBIPAVMShopTemplate@@@_STL@@@2@XZ
_TEXT	SEGMENT PARA USE32 PUBLIC 'CODE'
_TEXT	ENDS
;	COMDAT ?_M_rightmost@?$_Rb_tree@IU?$pair@$$CBIPAVMShopTemplate@@@_STL@@U?$_Select1st@U?$pair@$$CBIPAVMShopTemplate@@@_STL@@@2@U?$less@I@2@V?$allocator@U?$pair@$$CBIPAVMShopTemplate@@@_STL@@@2@@_STL@@IBEAAPAU?$_Rb_tree_node@U?$pair@$$CBIPAVMShopTemplate@@@_STL@@@2@XZ
_TEXT	SEGMENT PARA USE32 PUBLIC 'CODE'
_TEXT	ENDS
;	COMDAT ?_M_empty_initialize@?$_Rb_tree@IU?$pair@$$CBIPAVMShopTemplate@@@_STL@@U?$_Select1st@U?$pair@$$CBIPAVMShopTemplate@@@_STL@@@2@U?$less@I@2@V?$allocator@U?$pair@$$CBIPAVMShopTemplate@@@_STL@@@2@@_STL@@AAEXXZ
_TEXT	SEGMENT PARA USE32 PUBLIC 'CODE'
_TEXT	ENDS
;	COMDAT ??0?$_Rb_tree_base@U?$pair@$$CBIPAVMShopTemplate@@@_STL@@V?$allocator@U?$pair@$$CBIPAVMShopTemplate@@@_STL@@@2@@_STL@@QAE@ABV?$allocator@U?$pair@$$CBIPAVMShopTemplate@@@_STL@@@1@@Z
_TEXT	SEGMENT PARA USE32 PUBLIC 'CODE'
_TEXT	ENDS
;	COMDAT ??1?$allocator@U?$_Rb_tree_node@U?$pair@$$CBIPAVMShopTemplate@@@_STL@@@_STL@@@_STL@@QAE@XZ
_TEXT	SEGMENT PARA USE32 PUBLIC 'CODE'
_TEXT	ENDS
;	COMDAT ?deallocate@?$allocator@U?$_Rb_tree_node@U?$pair@$$CBIPAVMShopTemplate@@@_STL@@@_STL@@@_STL@@QAEXPAU?$_Rb_tree_node@U?$pair@$$CBIPAVMShopTemplate@@@_STL@@@2@I@Z
_TEXT	SEGMENT PARA USE32 PUBLIC 'CODE'
_TEXT	ENDS
;	COMDAT ??0?$_Rb_tree_iterator@U?$pair@$$CBIPAVMShopTemplate@@@_STL@@U?$_Nonconst_traits@U?$pair@$$CBIPAVMShopTemplate@@@_STL@@@2@@_STL@@QAE@PAU?$_Rb_tree_node@U?$pair@$$CBIPAVMShopTemplate@@@_STL@@@1@@Z
_TEXT	SEGMENT PARA USE32 PUBLIC 'CODE'
_TEXT	ENDS
;	COMDAT ?_S_color@?$_Rb_tree@IU?$pair@$$CBIPAVMShopTemplate@@@_STL@@U?$_Select1st@U?$pair@$$CBIPAVMShopTemplate@@@_STL@@@2@U?$less@I@2@V?$allocator@U?$pair@$$CBIPAVMShopTemplate@@@_STL@@@2@@_STL@@KAAA_NPAU?$_Rb_tree_node@U?$pair@$$CBIPAVMShopTemplate@@@_STL@@@2@@Z
_TEXT	SEGMENT PARA USE32 PUBLIC 'CODE'
_TEXT	ENDS
;	COMDAT ??0?$_STLP_alloc_proxy@PAU?$_Rb_tree_node@U?$pair@$$CBIPAVMShopTemplate@@@_STL@@@_STL@@U12@V?$allocator@U?$_Rb_tree_node@U?$pair@$$CBIPAVMShopTemplate@@@_STL@@@_STL@@@2@@_STL@@QAE@ABV?$allocator@U?$_Rb_tree_node@U?$pair@$$CBIPAVMShopTemplate@@@_STL@@@_STL@@@1@PAU?$_Rb_tree_node@U?$pair@$$CBIPAVMShopTemplate@@@_STL@@@1@@Z
_TEXT	SEGMENT PARA USE32 PUBLIC 'CODE'
_TEXT	ENDS
;	COMDAT ?allocate@?$allocator@U?$_Rb_tree_node@U?$pair@$$CBIPAVMShopTemplate@@@_STL@@@_STL@@@_STL@@QAEPAU?$_Rb_tree_node@U?$pair@$$CBIPAVMShopTemplate@@@_STL@@@2@IPBX@Z
_TEXT	SEGMENT PARA USE32 PUBLIC 'CODE'
_TEXT	ENDS
;	COMDAT ??0?$allocator@U?$_Rb_tree_node@U?$pair@$$CBIPAVMShopTemplate@@@_STL@@@_STL@@@_STL@@QAE@ABV01@@Z
_TEXT	SEGMENT PARA USE32 PUBLIC 'CODE'
_TEXT	ENDS
;	COMDAT ??$_M_range_initialize@PBD@?$basic_string@DV?$char_traits@D@_STL@@V?$allocator@D@2@@_STL@@AAEXPBD0ABUforward_iterator_tag@1@@Z
_TEXT	SEGMENT PARA USE32 PUBLIC 'CODE'
_TEXT	ENDS
;	COMDAT ??$_M_range_initialize@PAD@?$basic_string@DV?$char_traits@D@_STL@@V?$allocator@D@2@@_STL@@AAEXPAD0ABUforward_iterator_tag@1@@Z
_TEXT	SEGMENT PARA USE32 PUBLIC 'CODE'
_TEXT	ENDS
;	COMDAT ?_M_handle_exception@?$basic_ios@DV?$char_traits@D@_STL@@@_STL@@QAEXH@Z
_TEXT	SEGMENT PARA USE32 PUBLIC 'CODE'
_TEXT	ENDS
;	COMDAT ?_M_unshift@?$basic_filebuf@DV?$char_traits@D@_STL@@@_STL@@AAE_NXZ
_TEXT	SEGMENT PARA USE32 PUBLIC 'CODE'
_TEXT	ENDS
;	COMDAT ?_M_allocate_buffers@?$basic_filebuf@DV?$char_traits@D@_STL@@@_STL@@AAE_NXZ
_TEXT	SEGMENT PARA USE32 PUBLIC 'CODE'
_TEXT	ENDS
;	COMDAT ??$max@H@_STL@@YAABHABH0@Z
_TEXT	SEGMENT PARA USE32 PUBLIC 'CODE'
_TEXT	ENDS
;	COMDAT ??$use_facet@V?$codecvt@DDH@_STL@@@_STL@@YAABV?$codecvt@DDH@0@ABVlocale@0@@Z
_TEXT	SEGMENT PARA USE32 PUBLIC 'CODE'
_TEXT	ENDS
;	COMDAT ??$append@PAD@?$basic_string@DV?$char_traits@D@_STL@@V?$allocator@D@2@@_STL@@QAEAAV01@PAD0@Z
_TEXT	SEGMENT PARA USE32 PUBLIC 'CODE'
_TEXT	ENDS
;	COMDAT ??$_M_append_dispatch@PBD@?$basic_string@DV?$char_traits@D@_STL@@V?$allocator@D@2@@_STL@@AAEAAV01@PBD0ABU__false_type@1@@Z
_TEXT	SEGMENT PARA USE32 PUBLIC 'CODE'
_TEXT	ENDS
;	COMDAT ?_M_erase@?$_Rb_tree@IU?$pair@$$CBIPAVMShopTemplate@@@_STL@@U?$_Select1st@U?$pair@$$CBIPAVMShopTemplate@@@_STL@@@2@U?$less@I@2@V?$allocator@U?$pair@$$CBIPAVMShopTemplate@@@_STL@@@2@@_STL@@AAEXPAU?$_Rb_tree_node@U?$pair@$$CBIPAVMShopTemplate@@@_STL@@@2@@Z
_TEXT	SEGMENT PARA USE32 PUBLIC 'CODE'
_TEXT	ENDS
;	COMDAT ?insert_unique@?$_Rb_tree@IU?$pair@$$CBIPAVMShopTemplate@@@_STL@@U?$_Select1st@U?$pair@$$CBIPAVMShopTemplate@@@_STL@@@2@U?$less@I@2@V?$allocator@U?$pair@$$CBIPAVMShopTemplate@@@_STL@@@2@@_STL@@QAE?AU?$pair@U?$_Rb_tree_iterator@U?$pair@$$CBIPAVMShopTemplate@@@_STL@@U?$_Nonconst_traits@U?$pair@$$CBIPAVMShopTemplate@@@_STL@@@2@@_STL@@_N@2@ABU?$pair@$$CBIPAVMShopTemplate@@@2@@Z
_TEXT	SEGMENT PARA USE32 PUBLIC 'CODE'
_TEXT	ENDS
;	COMDAT ??$find@I@?$_Rb_tree@IU?$pair@$$CBIPAVMShopTemplate@@@_STL@@U?$_Select1st@U?$pair@$$CBIPAVMShopTemplate@@@_STL@@@2@U?$less@I@2@V?$allocator@U?$pair@$$CBIPAVMShopTemplate@@@_STL@@@2@@_STL@@QAE?AU?$_Rb_tree_iterator@U?$pair@$$CBIPAVMShopTemplate@@@_STL@@U?$_Nonconst_traits@U?$pair@$$CBIPAVMShopTemplate@@@_STL@@@2@@1@ABI@Z
_TEXT	SEGMENT PARA USE32 PUBLIC 'CODE'
_TEXT	ENDS
;	COMDAT ??$_M_init@DV?$char_traits@D@_STL@@@_STL@@YA_NAAV?$basic_ostream@DV?$char_traits@D@_STL@@@0@@Z
_TEXT	SEGMENT PARA USE32 PUBLIC 'CODE'
_TEXT	ENDS
;	COMDAT ??$_Destroy@U?$pair@$$CBIPAVMShopTemplate@@@_STL@@@_STL@@YAXPAU?$pair@$$CBIPAVMShopTemplate@@@0@@Z
_TEXT	SEGMENT PARA USE32 PUBLIC 'CODE'
_TEXT	ENDS
;	COMDAT ??$?0U?$pair@$$CBIPAVMShopTemplate@@@_STL@@@?$allocator@U?$_Rb_tree_node@U?$pair@$$CBIPAVMShopTemplate@@@_STL@@@_STL@@@_STL@@QAE@ABV?$allocator@U?$pair@$$CBIPAVMShopTemplate@@@_STL@@@1@@Z
_TEXT	SEGMENT PARA USE32 PUBLIC 'CODE'
_TEXT	ENDS
;	COMDAT ?tie@?$basic_ios@DV?$char_traits@D@_STL@@@_STL@@QBEPAV?$basic_ostream@DV?$char_traits@D@_STL@@@2@XZ
_TEXT	SEGMENT PARA USE32 PUBLIC 'CODE'
_TEXT	ENDS
;	COMDAT ?_S_left@?$_Rb_tree@IU?$pair@$$CBIPAVMShopTemplate@@@_STL@@U?$_Select1st@U?$pair@$$CBIPAVMShopTemplate@@@_STL@@@2@U?$less@I@2@V?$allocator@U?$pair@$$CBIPAVMShopTemplate@@@_STL@@@2@@_STL@@KAAAPAU?$_Rb_tree_node@U?$pair@$$CBIPAVMShopTemplate@@@_STL@@@2@PAU32@@Z
_TEXT	SEGMENT PARA USE32 PUBLIC 'CODE'
_TEXT	ENDS
;	COMDAT ?_S_right@?$_Rb_tree@IU?$pair@$$CBIPAVMShopTemplate@@@_STL@@U?$_Select1st@U?$pair@$$CBIPAVMShopTemplate@@@_STL@@@2@U?$less@I@2@V?$allocator@U?$pair@$$CBIPAVMShopTemplate@@@_STL@@@2@@_STL@@KAAAPAU?$_Rb_tree_node@U?$pair@$$CBIPAVMShopTemplate@@@_STL@@@2@PAU32@@Z
_TEXT	SEGMENT PARA USE32 PUBLIC 'CODE'
_TEXT	ENDS
;	COMDAT ?_S_key@?$_Rb_tree@IU?$pair@$$CBIPAVMShopTemplate@@@_STL@@U?$_Select1st@U?$pair@$$CBIPAVMShopTemplate@@@_STL@@@2@U?$less@I@2@V?$allocator@U?$pair@$$CBIPAVMShopTemplate@@@_STL@@@2@@_STL@@KAABIPAU?$_Rb_tree_node@U?$pair@$$CBIPAVMShopTemplate@@@_STL@@@2@@Z
_TEXT	SEGMENT PARA USE32 PUBLIC 'CODE'
_TEXT	ENDS
;	COMDAT ?_S_key@?$_Rb_tree@IU?$pair@$$CBIPAVMShopTemplate@@@_STL@@U?$_Select1st@U?$pair@$$CBIPAVMShopTemplate@@@_STL@@@2@U?$less@I@2@V?$allocator@U?$pair@$$CBIPAVMShopTemplate@@@_STL@@@2@@_STL@@KAABIPAU_Rb_tree_node_base@2@@Z
_TEXT	SEGMENT PARA USE32 PUBLIC 'CODE'
_TEXT	ENDS
;	COMDAT ??R?$less@I@_STL@@QBE_NABI0@Z
_TEXT	SEGMENT PARA USE32 PUBLIC 'CODE'
_TEXT	ENDS
;	COMDAT ??F?$_Rb_tree_iterator@U?$pair@$$CBIPAVMShopTemplate@@@_STL@@U?$_Nonconst_traits@U?$pair@$$CBIPAVMShopTemplate@@@_STL@@@2@@_STL@@QAEAAU01@XZ
_TEXT	SEGMENT PARA USE32 PUBLIC 'CODE'
_TEXT	ENDS
;	COMDAT ??0?$pair@U?$_Rb_tree_iterator@U?$pair@$$CBIPAVMShopTemplate@@@_STL@@U?$_Nonconst_traits@U?$pair@$$CBIPAVMShopTemplate@@@_STL@@@2@@_STL@@_N@_STL@@QAE@ABU?$_Rb_tree_iterator@U?$pair@$$CBIPAVMShopTemplate@@@_STL@@U?$_Nonconst_traits@U?$pair@$$CBIPAVMShopTemplate@@@_STL@@@2@@1@AB_N@Z
_TEXT	SEGMENT PARA USE32 PUBLIC 'CODE'
_TEXT	ENDS
;	COMDAT ??R?$_Select1st@U?$pair@$$CBIPAVMShopTemplate@@@_STL@@@_STL@@QBEABIABU?$pair@$$CBIPAVMShopTemplate@@@1@@Z
_TEXT	SEGMENT PARA USE32 PUBLIC 'CODE'
_TEXT	ENDS
;	COMDAT ?_S_value@?$_Rb_tree@IU?$pair@$$CBIPAVMShopTemplate@@@_STL@@U?$_Select1st@U?$pair@$$CBIPAVMShopTemplate@@@_STL@@@2@U?$less@I@2@V?$allocator@U?$pair@$$CBIPAVMShopTemplate@@@_STL@@@2@@_STL@@KAAAU?$pair@$$CBIPAVMShopTemplate@@@2@PAU?$_Rb_tree_node@U?$pair@$$CBIPAVMShopTemplate@@@_STL@@@2@@Z
_TEXT	SEGMENT PARA USE32 PUBLIC 'CODE'
_TEXT	ENDS
;	COMDAT ??$distance@PBD@_STL@@YAHABQBD0@Z
_TEXT	SEGMENT PARA USE32 PUBLIC 'CODE'
_TEXT	ENDS
;	COMDAT ?_M_allocate_block@?$_String_base@DV?$allocator@D@_STL@@@_STL@@QAEXI@Z
_TEXT	SEGMENT PARA USE32 PUBLIC 'CODE'
_TEXT	ENDS
;	COMDAT ??$distance@PAD@_STL@@YAHABQAD0@Z
_TEXT	SEGMENT PARA USE32 PUBLIC 'CODE'
_TEXT	ENDS
;	COMDAT ??$uninitialized_copy@PADPAD@_STL@@YAPADPAD00@Z
_TEXT	SEGMENT PARA USE32 PUBLIC 'CODE'
_TEXT	ENDS
;	COMDAT ??$_M_append_dispatch@PAD@?$basic_string@DV?$char_traits@D@_STL@@V?$allocator@D@2@@_STL@@AAEAAV01@PAD0ABU__false_type@1@@Z
_TEXT	SEGMENT PARA USE32 PUBLIC 'CODE'
_TEXT	ENDS
;	COMDAT ??$append@PBD@?$basic_string@DV?$char_traits@D@_STL@@V?$allocator@D@2@@_STL@@AAEAAV01@PBD0ABUforward_iterator_tag@1@@Z
_TEXT	SEGMENT PARA USE32 PUBLIC 'CODE'
_TEXT	ENDS
;	COMDAT ?_M_insert@?$_Rb_tree@IU?$pair@$$CBIPAVMShopTemplate@@@_STL@@U?$_Select1st@U?$pair@$$CBIPAVMShopTemplate@@@_STL@@@2@U?$less@I@2@V?$allocator@U?$pair@$$CBIPAVMShopTemplate@@@_STL@@@2@@_STL@@AAE?AU?$_Rb_tree_iterator@U?$pair@$$CBIPAVMShopTemplate@@@_STL@@U?$_Nonconst_traits@U?$pair@$$CBIPAVMShopTemplate@@@_STL@@@2@@2@PAU_Rb_tree_node_base@2@0ABU?$pair@$$CBIPAVMShopTemplate@@@2@0@Z
_TEXT	SEGMENT PARA USE32 PUBLIC 'CODE'
_TEXT	ENDS
;	COMDAT ??$_M_find@I@?$_Rb_tree@IU?$pair@$$CBIPAVMShopTemplate@@@_STL@@U?$_Select1st@U?$pair@$$CBIPAVMShopTemplate@@@_STL@@@2@U?$less@I@2@V?$allocator@U?$pair@$$CBIPAVMShopTemplate@@@_STL@@@2@@_STL@@ABEPAU?$_Rb_tree_node@U?$pair@$$CBIPAVMShopTemplate@@@_STL@@@1@ABI@Z
_TEXT	SEGMENT PARA USE32 PUBLIC 'CODE'
_TEXT	ENDS
;	COMDAT ?_M_construct_null@?$basic_string@DV?$char_traits@D@_STL@@V?$allocator@D@2@@_STL@@AAEXPAD@Z
_TEXT	SEGMENT PARA USE32 PUBLIC 'CODE'
_TEXT	ENDS
;	COMDAT ?max_size@?$basic_string@DV?$char_traits@D@_STL@@V?$allocator@D@2@@_STL@@QBEIXZ
_TEXT	SEGMENT PARA USE32 PUBLIC 'CODE'
_TEXT	ENDS
;	COMDAT ?capacity@?$basic_string@DV?$char_traits@D@_STL@@V?$allocator@D@2@@_STL@@QBEIXZ
_TEXT	SEGMENT PARA USE32 PUBLIC 'CODE'
_TEXT	ENDS
;	COMDAT ?max_size@?$_String_base@DV?$allocator@D@_STL@@@_STL@@QBEIXZ
_TEXT	SEGMENT PARA USE32 PUBLIC 'CODE'
_TEXT	ENDS
;	COMDAT ?_M_create_node@?$_Rb_tree@IU?$pair@$$CBIPAVMShopTemplate@@@_STL@@U?$_Select1st@U?$pair@$$CBIPAVMShopTemplate@@@_STL@@@2@U?$less@I@2@V?$allocator@U?$pair@$$CBIPAVMShopTemplate@@@_STL@@@2@@_STL@@IAEPAU?$_Rb_tree_node@U?$pair@$$CBIPAVMShopTemplate@@@_STL@@@2@ABU?$pair@$$CBIPAVMShopTemplate@@@2@@Z
_TEXT	SEGMENT PARA USE32 PUBLIC 'CODE'
_TEXT	ENDS
;	COMDAT ?_S_parent@?$_Rb_tree@IU?$pair@$$CBIPAVMShopTemplate@@@_STL@@U?$_Select1st@U?$pair@$$CBIPAVMShopTemplate@@@_STL@@@2@U?$less@I@2@V?$allocator@U?$pair@$$CBIPAVMShopTemplate@@@_STL@@@2@@_STL@@KAAAPAU?$_Rb_tree_node@U?$pair@$$CBIPAVMShopTemplate@@@_STL@@@2@PAU32@@Z
_TEXT	SEGMENT PARA USE32 PUBLIC 'CODE'
_TEXT	ENDS
;	COMDAT ?_M_construct_null_aux@?$basic_string@DV?$char_traits@D@_STL@@V?$allocator@D@2@@_STL@@AAEXPADABU__true_type@2@@Z
_TEXT	SEGMENT PARA USE32 PUBLIC 'CODE'
_TEXT	ENDS
;	COMDAT ??$__distance@PBD@_STL@@YAHABQBD0ABUrandom_access_iterator_tag@0@@Z
_TEXT	SEGMENT PARA USE32 PUBLIC 'CODE'
_TEXT	ENDS
;	COMDAT ?_M_throw_length_error@?$_String_base@DV?$allocator@D@_STL@@@_STL@@QBEXXZ
_TEXT	SEGMENT PARA USE32 PUBLIC 'CODE'
_TEXT	ENDS
;	COMDAT ??$__distance@PAD@_STL@@YAHABQAD0ABUrandom_access_iterator_tag@0@@Z
_TEXT	SEGMENT PARA USE32 PUBLIC 'CODE'
_TEXT	ENDS
;	COMDAT ??$__uninitialized_copy@PADPAD@_STL@@YAPADPAD00ABU__true_type@0@@Z
_TEXT	SEGMENT PARA USE32 PUBLIC 'CODE'
_TEXT	ENDS
;	COMDAT ??$append@PAD@?$basic_string@DV?$char_traits@D@_STL@@V?$allocator@D@2@@_STL@@AAEAAV01@PAD0ABUforward_iterator_tag@1@@Z
_TEXT	SEGMENT PARA USE32 PUBLIC 'CODE'
_TEXT	ENDS
;	COMDAT ??$max@I@_STL@@YAABIABI0@Z
_TEXT	SEGMENT PARA USE32 PUBLIC 'CODE'
_TEXT	ENDS
;	COMDAT ??$_Construct@U?$pair@$$CBIPAVMShopTemplate@@@_STL@@U12@@_STL@@YAXPAU?$pair@$$CBIPAVMShopTemplate@@@0@ABU10@@Z
_TEXT	SEGMENT PARA USE32 PUBLIC 'CODE'
_TEXT	ENDS
;	COMDAT ??0?$pair@$$CBIPAVMShopTemplate@@@_STL@@QAE@ABU01@@Z
_TEXT	SEGMENT PARA USE32 PUBLIC 'CODE'
_TEXT	ENDS
;	COMDAT ?_Ret@?$_BothPtrType@PADPAD@_STL@@SA?AU__true_type@2@XZ
_TEXT	SEGMENT PARA USE32 PUBLIC 'CODE'
_TEXT	ENDS
;	COMDAT ??$__copy_aux@PADPAD@_STL@@YAPADPAD00ABU__true_type@0@@Z
_TEXT	SEGMENT PARA USE32 PUBLIC 'CODE'
_TEXT	ENDS
;	COMDAT ?_Ret@?$_OKToMemCpy@DD@_STL@@SA?AU__true_type@2@XZ
_TEXT	SEGMENT PARA USE32 PUBLIC 'CODE'
_TEXT	ENDS
;	COMDAT ??$_IsOKToMemCpy@DD@_STL@@YA?AU?$_OKToMemCpy@DD@0@PAD0@Z
_TEXT	SEGMENT PARA USE32 PUBLIC 'CODE'
_TEXT	ENDS
;	COMDAT ??$__copy_ptrs@PADPAD@_STL@@YAPADPAD00ABU__true_type@0@@Z
_TEXT	SEGMENT PARA USE32 PUBLIC 'CODE'
_TEXT	ENDS
;	COMDAT ??_R3IFileIO@@8
rdata$r	SEGMENT DWORD USE32 PUBLIC 'CONST'
rdata$r	ENDS
;	COMDAT ??_R3?$basic_ofstream@DV?$char_traits@D@_STL@@@_STL@@8
rdata$r	SEGMENT DWORD USE32 PUBLIC 'CONST'
rdata$r	ENDS
;	COMDAT ??_R3ovfstream@@8
rdata$r	SEGMENT DWORD USE32 PUBLIC 'CONST'
rdata$r	ENDS
;	COMDAT ??_R3ivfstream@@8
rdata$r	SEGMENT DWORD USE32 PUBLIC 'CONST'
rdata$r	ENDS
;	COMDAT ??_R3?$CTypeMap@VMShopTemplate@@@@8
rdata$r	SEGMENT DWORD USE32 PUBLIC 'CONST'
rdata$r	ENDS
;	COMDAT ??_R3MShopTemplateTable@@8
rdata$r	SEGMENT DWORD USE32 PUBLIC 'CONST'
rdata$r	ENDS
;	COMDAT ??_R3iovfs_base@@8
rdata$r	SEGMENT DWORD USE32 PUBLIC 'CONST'
rdata$r	ENDS
;	COMDAT ??_R2IFileIO@@8
rdata$r	SEGMENT DWORD USE32 PUBLIC 'CONST'
rdata$r	ENDS
;	COMDAT ??_R2?$basic_ofstream@DV?$char_traits@D@_STL@@@_STL@@8
rdata$r	SEGMENT DWORD USE32 PUBLIC 'CONST'
rdata$r	ENDS
;	COMDAT ??_R2ovfstream@@8
rdata$r	SEGMENT DWORD USE32 PUBLIC 'CONST'
rdata$r	ENDS
;	COMDAT ??_R2ivfstream@@8
rdata$r	SEGMENT DWORD USE32 PUBLIC 'CONST'
rdata$r	ENDS
;	COMDAT ??_R2?$CTypeMap@VMShopTemplate@@@@8
rdata$r	SEGMENT DWORD USE32 PUBLIC 'CONST'
rdata$r	ENDS
;	COMDAT ??_R2MShopTemplateTable@@8
rdata$r	SEGMENT DWORD USE32 PUBLIC 'CONST'
rdata$r	ENDS
;	COMDAT ??_R2iovfs_base@@8
rdata$r	SEGMENT DWORD USE32 PUBLIC 'CONST'
rdata$r	ENDS
;	COMDAT ??_R1A@?0A@A@IFileIO@@8
rdata$r	SEGMENT DWORD USE32 PUBLIC 'CONST'
rdata$r	ENDS
;	COMDAT ??_R1A@A@3A@ios_base@_STL@@8
rdata$r	SEGMENT DWORD USE32 PUBLIC 'CONST'
rdata$r	ENDS
;	COMDAT ??_R0?AVios_base@_STL@@@8
_DATA	SEGMENT DWORD USE32 PUBLIC 'DATA'
_DATA	ENDS
;	COMDAT ??_R1A@A@3BA@?$basic_ios@DV?$char_traits@D@_STL@@@_STL@@8
rdata$r	SEGMENT DWORD USE32 PUBLIC 'CONST'
rdata$r	ENDS
;	COMDAT ??_R0?AV?$basic_ios@DV?$char_traits@D@_STL@@@_STL@@@8
_DATA	SEGMENT DWORD USE32 PUBLIC 'DATA'
_DATA	ENDS
;	COMDAT ??_R1A@?0A@A@?$basic_ostream@DV?$char_traits@D@_STL@@@_STL@@8
rdata$r	SEGMENT DWORD USE32 PUBLIC 'CONST'
rdata$r	ENDS
;	COMDAT ??_R0?AV?$basic_ostream@DV?$char_traits@D@_STL@@@_STL@@@8
_DATA	SEGMENT DWORD USE32 PUBLIC 'DATA'
_DATA	ENDS
;	COMDAT ??_R1A@?0A@A@?$basic_ofstream@DV?$char_traits@D@_STL@@@_STL@@8
rdata$r	SEGMENT DWORD USE32 PUBLIC 'CONST'
rdata$r	ENDS
;	COMDAT ??_R1A@?0A@A@ovfstream@@8
rdata$r	SEGMENT DWORD USE32 PUBLIC 'CONST'
rdata$r	ENDS
;	COMDAT ??_R1A@?0A@A@ivfstream@@8
rdata$r	SEGMENT DWORD USE32 PUBLIC 'CONST'
rdata$r	ENDS
;	COMDAT ??_R13?0A@A@?$map@IPAVMShopTemplate@@U?$less@I@_STL@@V?$allocator@U?$pair@$$CBIPAVMShopTemplate@@@_STL@@@3@@_STL@@8
rdata$r	SEGMENT DWORD USE32 PUBLIC 'CONST'
rdata$r	ENDS
;	COMDAT ??_R1A@?0A@A@?$CTypeMap@VMShopTemplate@@@@8
rdata$r	SEGMENT DWORD USE32 PUBLIC 'CONST'
rdata$r	ENDS
;	COMDAT ??_R1A@?0A@A@MShopTemplateTable@@8
rdata$r	SEGMENT DWORD USE32 PUBLIC 'CONST'
rdata$r	ENDS
;	COMDAT ??_R1A@?0A@A@iovfs_base@@8
rdata$r	SEGMENT DWORD USE32 PUBLIC 'CONST'
rdata$r	ENDS
;	COMDAT ??_R0?AVIFileIO@@@8
_DATA	SEGMENT DWORD USE32 PUBLIC 'DATA'
_DATA	ENDS
;	COMDAT ??_R0?AV?$basic_ofstream@DV?$char_traits@D@_STL@@@_STL@@@8
_DATA	SEGMENT DWORD USE32 PUBLIC 'DATA'
_DATA	ENDS
;	COMDAT ??_R0?AVovfstream@@@8
_DATA	SEGMENT DWORD USE32 PUBLIC 'DATA'
_DATA	ENDS
;	COMDAT ??_R0?AVivfstream@@@8
_DATA	SEGMENT DWORD USE32 PUBLIC 'DATA'
_DATA	ENDS
;	COMDAT ??_R0?AV?$map@IPAVMShopTemplate@@U?$less@I@_STL@@V?$allocator@U?$pair@$$CBIPAVMShopTemplate@@@_STL@@@3@@_STL@@@8
_DATA	SEGMENT DWORD USE32 PUBLIC 'DATA'
_DATA	ENDS
;	COMDAT ??_R0?AV?$CTypeMap@VMShopTemplate@@@@@8
_DATA	SEGMENT DWORD USE32 PUBLIC 'DATA'
_DATA	ENDS
;	COMDAT ??_R0?AVMShopTemplateTable@@@8
_DATA	SEGMENT DWORD USE32 PUBLIC 'DATA'
_DATA	ENDS
;	COMDAT ??_R0?AViovfs_base@@@8
_DATA	SEGMENT DWORD USE32 PUBLIC 'DATA'
_DATA	ENDS
;	COMDAT ??_R4IFileIO@@6B@
rdata$r	SEGMENT DWORD USE32 PUBLIC 'CONST'
rdata$r	ENDS
;	COMDAT ??_R4?$basic_ofstream@DV?$char_traits@D@_STL@@@_STL@@6B@
rdata$r	SEGMENT DWORD USE32 PUBLIC 'CONST'
rdata$r	ENDS
;	COMDAT ??_R4ovfstream@@6B@
rdata$r	SEGMENT DWORD USE32 PUBLIC 'CONST'
rdata$r	ENDS
;	COMDAT ??_R4ivfstream@@6B@
rdata$r	SEGMENT DWORD USE32 PUBLIC 'CONST'
rdata$r	ENDS
;	COMDAT ??_R4?$CTypeMap@VMShopTemplate@@@@6B@
rdata$r	SEGMENT DWORD USE32 PUBLIC 'CONST'
rdata$r	ENDS
;	COMDAT ??_R4MShopTemplateTable@@6B@
rdata$r	SEGMENT DWORD USE32 PUBLIC 'CONST'
rdata$r	ENDS
;	COMDAT ??_R4iovfs_base@@6B@
rdata$r	SEGMENT DWORD USE32 PUBLIC 'CONST'
rdata$r	ENDS
;	COMDAT ?__copy_trivial@_STL@@YAPAXPBX0PAX@Z
_TEXT	SEGMENT PARA USE32 PUBLIC 'CODE'
_TEXT	ENDS
;	COMDAT ??3@YAXPAX0@Z
_TEXT	SEGMENT PARA USE32 PUBLIC 'CODE'
_TEXT	ENDS
;	COMDAT ??2@YAPAXIPAX@Z
_TEXT	SEGMENT PARA USE32 PUBLIC 'CODE'
_TEXT	ENDS
;	COMDAT ?_M_deallocate_block@?$_String_base@DV?$allocator@D@_STL@@@_STL@@QAEXXZ
_TEXT	SEGMENT PARA USE32 PUBLIC 'CODE'
_TEXT	ENDS
;	COMDAT ?deallocate@?$allocator@D@_STL@@QAEXPADI@Z
_TEXT	SEGMENT PARA USE32 PUBLIC 'CODE'
_TEXT	ENDS
;	COMDAT ?good@ios_base@_STL@@QBE_NXZ
_TEXT	SEGMENT PARA USE32 PUBLIC 'CODE'
_TEXT	ENDS
;	COMDAT ?__page_size@_Filebuf_base@_STL@@SAIXZ
_TEXT	SEGMENT PARA USE32 PUBLIC 'CODE'
_TEXT	ENDS
;	COMDAT ?_M_write@?$basic_filebuf@DV?$char_traits@D@_STL@@@_STL@@QAE_NPADH@Z
_TEXT	SEGMENT PARA USE32 PUBLIC 'CODE'
_TEXT	ENDS
;	COMDAT ?unshift@?$codecvt@DDH@_STL@@QBE?AW4result@codecvt_base@2@AAHPAD1AAPAD@Z
_TEXT	SEGMENT PARA USE32 PUBLIC 'CODE'
_TEXT	ENDS
;	COMDAT ?_M_get_exception_mask@ios_base@_STL@@IBEHXZ
_TEXT	SEGMENT PARA USE32 PUBLIC 'CODE'
_TEXT	ENDS
;	COMDAT ?_M_setstate_nothrow@ios_base@_STL@@IAEXH@Z
_TEXT	SEGMENT PARA USE32 PUBLIC 'CODE'
_TEXT	ENDS
;	COMDAT ?uninitialized_copy@_STL@@YAPADPBD0PAD@Z
_TEXT	SEGMENT PARA USE32 PUBLIC 'CODE'
_TEXT	ENDS
;	COMDAT ?deallocate@?$__node_alloc@$00$0A@@_STL@@SAXPAXI@Z
_TEXT	SEGMENT PARA USE32 PUBLIC 'CODE'
_TEXT	ENDS
;	COMDAT ?__stl_delete@_STL@@YAXPAX@Z
_TEXT	SEGMENT PARA USE32 PUBLIC 'CODE'
_TEXT	ENDS
;	COMDAT ?pubsync@?$basic_streambuf@DV?$char_traits@D@_STL@@@_STL@@QAEHXZ
_TEXT	SEGMENT PARA USE32 PUBLIC 'CODE'
_TEXT	ENDS
;	COMDAT ?_M_check_exception_mask@ios_base@_STL@@IAEXXZ
_TEXT	SEGMENT PARA USE32 PUBLIC 'CODE'
_TEXT	ENDS
;	COMDAT ?_M_clear_nothrow@ios_base@_STL@@IAEXH@Z
_TEXT	SEGMENT PARA USE32 PUBLIC 'CODE'
_TEXT	ENDS
;	COMDAT ?flags@ios_base@_STL@@QBEHXZ
_TEXT	SEGMENT PARA USE32 PUBLIC 'CODE'
_TEXT	ENDS
;	COMDAT ?rdstate@ios_base@_STL@@QBEHXZ
_TEXT	SEGMENT PARA USE32 PUBLIC 'CODE'
_TEXT	ENDS
;	COMDAT ??8_Rb_tree_base_iterator@_STL@@QBE_NABU01@@Z
_TEXT	SEGMENT PARA USE32 PUBLIC 'CODE'
_TEXT	ENDS
;	COMDAT ??9_Rb_tree_base_iterator@_STL@@QBE_NABU01@@Z
_TEXT	SEGMENT PARA USE32 PUBLIC 'CODE'
_TEXT	ENDS
;	COMDAT ??_7?$CTypeMap@VMShopTemplate@@@@6B@
CONST	SEGMENT DWORD USE32 PUBLIC 'CONST'
CONST	ENDS
;	COMDAT ?assign@?$char_traits@D@_STL@@SAXAADABD@Z
_TEXT	SEGMENT PARA USE32 PUBLIC 'CODE'
_TEXT	ENDS
;	COMDAT ?always_noconv@?$codecvt@DDH@_STL@@QBE_NXZ
_TEXT	SEGMENT PARA USE32 PUBLIC 'CODE'
_TEXT	ENDS
;	COMDAT ?encoding@?$codecvt@DDH@_STL@@QBEHXZ
_TEXT	SEGMENT PARA USE32 PUBLIC 'CODE'
_TEXT	ENDS
;	COMDAT ?max_length@?$codecvt@DDH@_STL@@QBEHXZ
_TEXT	SEGMENT PARA USE32 PUBLIC 'CODE'
_TEXT	ENDS
;	COMDAT ?__o_mode@_Filebuf_base@_STL@@QBEHXZ
_TEXT	SEGMENT PARA USE32 PUBLIC 'CODE'
_TEXT	ENDS
;	COMDAT ?sputn@?$basic_streambuf@DV?$char_traits@D@_STL@@@_STL@@QAEHPBDH@Z
_TEXT	SEGMENT PARA USE32 PUBLIC 'CODE'
_TEXT	ENDS
;	COMDAT ?_Destroy@_STL@@YAXPAD0@Z
_TEXT	SEGMENT PARA USE32 PUBLIC 'CODE'
_TEXT	ENDS
;	COMDAT ??1?$basic_ios@DV?$char_traits@D@_STL@@@_STL@@UAE@XZ
_TEXT	SEGMENT PARA USE32 PUBLIC 'CODE'
_TEXT	ENDS
;	COMDAT ??_7?$basic_ios@DV?$char_traits@D@_STL@@@_STL@@6B@
CONST	SEGMENT DWORD USE32 PUBLIC 'CONST'
CONST	ENDS
;	COMDAT ??_R4?$basic_ios@DV?$char_traits@D@_STL@@@_STL@@6B@
rdata$r	SEGMENT DWORD USE32 PUBLIC 'CONST'
rdata$r	ENDS
;	COMDAT ??_R3?$basic_ios@DV?$char_traits@D@_STL@@@_STL@@8
rdata$r	SEGMENT DWORD USE32 PUBLIC 'CONST'
rdata$r	ENDS
;	COMDAT ??_R2?$basic_ios@DV?$char_traits@D@_STL@@@_STL@@8
rdata$r	SEGMENT DWORD USE32 PUBLIC 'CONST'
rdata$r	ENDS
;	COMDAT ??_R1A@?0A@A@?$basic_ios@DV?$char_traits@D@_STL@@@_STL@@8
rdata$r	SEGMENT DWORD USE32 PUBLIC 'CONST'
rdata$r	ENDS
;	COMDAT ??_R1A@?0A@A@ios_base@_STL@@8
rdata$r	SEGMENT DWORD USE32 PUBLIC 'CONST'
rdata$r	ENDS
;	COMDAT ??_G?$basic_ios@DV?$char_traits@D@_STL@@@_STL@@UAEPAXI@Z
_TEXT	SEGMENT PARA USE32 PUBLIC 'CODE'
_TEXT	ENDS
;	COMDAT ??1?$basic_filebuf@DV?$char_traits@D@_STL@@@_STL@@UAE@XZ
_TEXT	SEGMENT PARA USE32 PUBLIC 'CODE'
_TEXT	ENDS
;	COMDAT ??_7?$basic_filebuf@DV?$char_traits@D@_STL@@@_STL@@6B@
CONST	SEGMENT DWORD USE32 PUBLIC 'CONST'
CONST	ENDS
;	COMDAT ??_R4?$basic_filebuf@DV?$char_traits@D@_STL@@@_STL@@6B@
rdata$r	SEGMENT DWORD USE32 PUBLIC 'CONST'
rdata$r	ENDS
;	COMDAT ??_R0?AV?$basic_filebuf@DV?$char_traits@D@_STL@@@_STL@@@8
_DATA	SEGMENT DWORD USE32 PUBLIC 'DATA'
_DATA	ENDS
;	COMDAT ??_R3?$basic_filebuf@DV?$char_traits@D@_STL@@@_STL@@8
rdata$r	SEGMENT DWORD USE32 PUBLIC 'CONST'
rdata$r	ENDS
;	COMDAT ??_R2?$basic_filebuf@DV?$char_traits@D@_STL@@@_STL@@8
rdata$r	SEGMENT DWORD USE32 PUBLIC 'CONST'
rdata$r	ENDS
;	COMDAT ??_R1A@?0A@A@?$basic_filebuf@DV?$char_traits@D@_STL@@@_STL@@8
rdata$r	SEGMENT DWORD USE32 PUBLIC 'CONST'
rdata$r	ENDS
;	COMDAT ??_R1A@?0A@A@?$basic_streambuf@DV?$char_traits@D@_STL@@@_STL@@8
rdata$r	SEGMENT DWORD USE32 PUBLIC 'CONST'
rdata$r	ENDS
;	COMDAT ??_R0?AV?$basic_streambuf@DV?$char_traits@D@_STL@@@_STL@@@8
_DATA	SEGMENT DWORD USE32 PUBLIC 'DATA'
_DATA	ENDS
;	COMDAT ??_G?$basic_filebuf@DV?$char_traits@D@_STL@@@_STL@@UAEPAXI@Z
_TEXT	SEGMENT PARA USE32 PUBLIC 'CODE'
_TEXT	ENDS
;	COMDAT ?setbuf@?$basic_filebuf@DV?$char_traits@D@_STL@@@_STL@@MAEPAV?$basic_streambuf@DV?$char_traits@D@_STL@@@2@PADH@Z
_TEXT	SEGMENT PARA USE32 PUBLIC 'CODE'
_TEXT	ENDS
;	COMDAT ?seekoff@?$basic_filebuf@DV?$char_traits@D@_STL@@@_STL@@MAE?AV?$fpos@H@2@JHH@Z
_TEXT	SEGMENT PARA USE32 PUBLIC 'CODE'
_TEXT	ENDS
;	COMDAT ?_M_in_binary_mode@_Filebuf_base@_STL@@QBE_NXZ
_TEXT	SEGMENT PARA USE32 PUBLIC 'CODE'
_TEXT	ENDS
;	COMDAT ?length@?$codecvt@DDH@_STL@@QBEHABHPBD1I@Z
_TEXT	SEGMENT PARA USE32 PUBLIC 'CODE'
_TEXT	ENDS
;	COMDAT ?in@?$codecvt@DDH@_STL@@QBE?AW4result@codecvt_base@2@AAHPBD1AAPBDPAD3AAPAD@Z
_TEXT	SEGMENT PARA USE32 PUBLIC 'CODE'
_TEXT	ENDS
;	COMDAT ?eback@?$basic_streambuf@DV?$char_traits@D@_STL@@@_STL@@IBEPADXZ
_TEXT	SEGMENT PARA USE32 PUBLIC 'CODE'
_TEXT	ENDS
;	COMDAT ?_FILE_I_begin@_STL@@YAPADPBU_iobuf@@@Z
_TEXT	SEGMENT PARA USE32 PUBLIC 'CODE'
_TEXT	ENDS
;	COMDAT ?gptr@?$basic_streambuf@DV?$char_traits@D@_STL@@@_STL@@IBEPADXZ
_TEXT	SEGMENT PARA USE32 PUBLIC 'CODE'
_TEXT	ENDS
;	COMDAT ?_FILE_I_next@_STL@@YAPADPBU_iobuf@@@Z
_TEXT	SEGMENT PARA USE32 PUBLIC 'CODE'
_TEXT	ENDS
;	COMDAT ?_M_get_offset@_Filebuf_base@_STL@@QAEJPAD0@Z
_TEXT	SEGMENT PARA USE32 PUBLIC 'CODE'
_TEXT	ENDS
;	COMDAT ??$count@PADD@_STL@@YAHPAD0ABD@Z
_TEXT	SEGMENT PARA USE32 PUBLIC 'CODE'
_TEXT	ENDS
;	COMDAT ?seekpos@?$basic_filebuf@DV?$char_traits@D@_STL@@@_STL@@MAE?AV?$fpos@H@2@V32@H@Z
_TEXT	SEGMENT PARA USE32 PUBLIC 'CODE'
_TEXT	ENDS
;	COMDAT ?sync@?$basic_filebuf@DV?$char_traits@D@_STL@@@_STL@@MAEHXZ
_TEXT	SEGMENT PARA USE32 PUBLIC 'CODE'
_TEXT	ENDS
;	COMDAT ?showmanyc@?$basic_filebuf@DV?$char_traits@D@_STL@@@_STL@@MAEHXZ
_TEXT	SEGMENT PARA USE32 PUBLIC 'CODE'
_TEXT	ENDS
;	COMDAT ?egptr@?$basic_streambuf@DV?$char_traits@D@_STL@@@_STL@@IBEPADXZ
_TEXT	SEGMENT PARA USE32 PUBLIC 'CODE'
_TEXT	ENDS
;	COMDAT ?_FILE_I_end@_STL@@YAPADPBU_iobuf@@@Z
_TEXT	SEGMENT PARA USE32 PUBLIC 'CODE'
_TEXT	ENDS
;	COMDAT ?underflow@?$basic_filebuf@DV?$char_traits@D@_STL@@@_STL@@MAEHXZ
_TEXT	SEGMENT PARA USE32 PUBLIC 'CODE'
_TEXT	ENDS
;	COMDAT ?pbackfail@?$basic_filebuf@DV?$char_traits@D@_STL@@@_STL@@MAEHH@Z
_TEXT	SEGMENT PARA USE32 PUBLIC 'CODE'
_TEXT	ENDS
;	COMDAT ?gbump@?$basic_streambuf@DV?$char_traits@D@_STL@@@_STL@@IAEXH@Z
_TEXT	SEGMENT PARA USE32 PUBLIC 'CODE'
_TEXT	ENDS
;	COMDAT ?_FILE_I_bump@_STL@@YAXPAU_iobuf@@H@Z
_TEXT	SEGMENT PARA USE32 PUBLIC 'CODE'
_TEXT	ENDS
;	COMDAT ?to_int_type@?$char_traits@D@_STL@@SAHABD@Z
_TEXT	SEGMENT PARA USE32 PUBLIC 'CODE'
_TEXT	ENDS
;	COMDAT ?to_char_type@?$char_traits@D@_STL@@SADABH@Z
_TEXT	SEGMENT PARA USE32 PUBLIC 'CODE'
_TEXT	ENDS
;	COMDAT ?overflow@?$basic_filebuf@DV?$char_traits@D@_STL@@@_STL@@MAEHH@Z
_TEXT	SEGMENT PARA USE32 PUBLIC 'CODE'
_TEXT	ENDS
;	COMDAT ?pptr@?$basic_streambuf@DV?$char_traits@D@_STL@@@_STL@@IBEPADXZ
_TEXT	SEGMENT PARA USE32 PUBLIC 'CODE'
_TEXT	ENDS
;	COMDAT ?_FILE_O_next@_STL@@YAPADPBU_iobuf@@@Z
_TEXT	SEGMENT PARA USE32 PUBLIC 'CODE'
_TEXT	ENDS
;	COMDAT ?out@?$codecvt@DDH@_STL@@QBE?AW4result@codecvt_base@2@AAHPBD1AAPBDPAD3AAPAD@Z
_TEXT	SEGMENT PARA USE32 PUBLIC 'CODE'
_TEXT	ENDS
;	COMDAT ?_M_doit@?$_Noconv_output@V?$char_traits@D@_STL@@@_STL@@SA_NPAV?$basic_filebuf@DV?$char_traits@D@_STL@@@2@PAD1@Z
_TEXT	SEGMENT PARA USE32 PUBLIC 'CODE'
_TEXT	ENDS
;	COMDAT ?imbue@?$basic_filebuf@DV?$char_traits@D@_STL@@@_STL@@MAEXABVlocale@2@@Z
_TEXT	SEGMENT PARA USE32 PUBLIC 'CODE'
_TEXT	ENDS
;	COMDAT ??1?$basic_ostream@DV?$char_traits@D@_STL@@@_STL@@UAE@XZ
_TEXT	SEGMENT PARA USE32 PUBLIC 'CODE'
_TEXT	ENDS
;	COMDAT ??_7?$basic_ostream@DV?$char_traits@D@_STL@@@_STL@@6B@
CONST	SEGMENT DWORD USE32 PUBLIC 'CONST'
CONST	ENDS
;	COMDAT ??_R4?$basic_ostream@DV?$char_traits@D@_STL@@@_STL@@6B@
rdata$r	SEGMENT DWORD USE32 PUBLIC 'CONST'
rdata$r	ENDS
;	COMDAT ??_R3?$basic_ostream@DV?$char_traits@D@_STL@@@_STL@@8
rdata$r	SEGMENT DWORD USE32 PUBLIC 'CONST'
rdata$r	ENDS
;	COMDAT ??_R2?$basic_ostream@DV?$char_traits@D@_STL@@@_STL@@8
rdata$r	SEGMENT DWORD USE32 PUBLIC 'CONST'
rdata$r	ENDS
;	COMDAT ??_G?$basic_ostream@DV?$char_traits@D@_STL@@@_STL@@UAEPAXI@Z
_TEXT	SEGMENT PARA USE32 PUBLIC 'CODE'
_TEXT	ENDS
;	COMDAT ??_D?$basic_ostream@DV?$char_traits@D@_STL@@@_STL@@QAEXXZ
_TEXT	SEGMENT PARA USE32 PUBLIC 'CODE'
_TEXT	ENDS
;	COMDAT ??_7?$basic_ofstream@DV?$char_traits@D@_STL@@@_STL@@6B@
CONST	SEGMENT DWORD USE32 PUBLIC 'CONST'
CONST	ENDS
;	COMDAT ?setp@?$basic_streambuf@DV?$char_traits@D@_STL@@@_STL@@IAEXPAD0@Z
_TEXT	SEGMENT PARA USE32 PUBLIC 'CODE'
_TEXT	ENDS
;	COMDAT ?_FILE_O_set@_STL@@YAXPAU_iobuf@@PAD11@Z
_TEXT	SEGMENT PARA USE32 PUBLIC 'CODE'
_TEXT	ENDS
;	COMDAT ?_FILE_I_set@_STL@@YAXPAU_iobuf@@PAD11@Z
_TEXT	SEGMENT PARA USE32 PUBLIC 'CODE'
_TEXT	ENDS
;	COMDAT ?setg@?$basic_streambuf@DV?$char_traits@D@_STL@@@_STL@@IAEXPAD00@Z
_TEXT	SEGMENT PARA USE32 PUBLIC 'CODE'
_TEXT	ENDS
;	COMDAT ?__is_open@_Filebuf_base@_STL@@QBE_NXZ
_TEXT	SEGMENT PARA USE32 PUBLIC 'CODE'
_TEXT	ENDS
;	COMDAT ?allocate@?$__node_alloc@$00$0A@@_STL@@SAPAXI@Z
_TEXT	SEGMENT PARA USE32 PUBLIC 'CODE'
_TEXT	ENDS
;	COMDAT ?__stl_new@_STL@@YAPAXI@Z
_TEXT	SEGMENT PARA USE32 PUBLIC 'CODE'
_TEXT	ENDS
;	COMDAT ??1?$_STLP_alloc_proxy@PADDV?$allocator@D@_STL@@@_STL@@QAE@XZ
_TEXT	SEGMENT PARA USE32 PUBLIC 'CODE'
_TEXT	ENDS
;	COMDAT ?length@?$char_traits@D@_STL@@SAIPBD@Z
_TEXT	SEGMENT PARA USE32 PUBLIC 'CODE'
_TEXT	ENDS
;	COMDAT ??1?$allocator@D@_STL@@QAE@XZ
_TEXT	SEGMENT PARA USE32 PUBLIC 'CODE'
_TEXT	ENDS
;	COMDAT ?eof@?$__char_traits_base@DH@_STL@@SAHXZ
_TEXT	SEGMENT PARA USE32 PUBLIC 'CODE'
_TEXT	ENDS
;	COMDAT ??_7MShopTemplateTable@@6B@
CONST	SEGMENT DWORD USE32 PUBLIC 'CONST'
CONST	ENDS
;	COMDAT ??_7ovfstream@@6B@
CONST	SEGMENT DWORD USE32 PUBLIC 'CONST'
CONST	ENDS
;	COMDAT ??_7ivfstream@@6B@
CONST	SEGMENT DWORD USE32 PUBLIC 'CONST'
CONST	ENDS
;	COMDAT ??0?$basic_string@DV?$char_traits@D@_STL@@V?$allocator@D@2@@_STL@@QAE@XZ
_TEXT	SEGMENT PARA USE32 PUBLIC 'CODE'
_TEXT	ENDS
;	COMDAT ??0?$allocator@D@_STL@@QAE@XZ
_TEXT	SEGMENT PARA USE32 PUBLIC 'CODE'
_TEXT	ENDS
;	COMDAT ??1?$_String_base@DV?$allocator@D@_STL@@@_STL@@QAE@XZ
_TEXT	SEGMENT PARA USE32 PUBLIC 'CODE'
_TEXT	ENDS
;	COMDAT ??1?$basic_string@DV?$char_traits@D@_STL@@V?$allocator@D@2@@_STL@@QAE@XZ
_TEXT	SEGMENT PARA USE32 PUBLIC 'CODE'
_TEXT	ENDS
;	COMDAT ??_7iovfs_base@@6B@
CONST	SEGMENT DWORD USE32 PUBLIC 'CONST'
CONST	ENDS
;	COMDAT ??_7IFileIO@@6B@
CONST	SEGMENT DWORD USE32 PUBLIC 'CONST'
CONST	ENDS
sxdata	SEGMENT DWORD USE32 'SXDATA'
sxdata	ENDS
FLAT	GROUP _DATA, CONST, _BSS
	ASSUME	CS: FLAT, DS: FLAT, SS: FLAT
endif

INCLUDELIB LIBCMT
INCLUDELIB OLDNAMES

PUBLIC	?g_pShopTemplateTable@@3PAVMShopTemplateTable@@A ; g_pShopTemplateTable
_BSS	SEGMENT
?g_pShopTemplateTable@@3PAVMShopTemplateTable@@A DD 01H DUP (?) ; g_pShopTemplateTable
_BSS	ENDS
PUBLIC	?__stl_new@_STL@@YAPAXI@Z			; _STL::__stl_new
EXTRN	??2@YAPAXI@Z:NEAR				; operator new
; Function compile flags: /Ogsy
; File c:\stlport-4.6.1\stlport\stl\_new.h
;	COMDAT ?__stl_new@_STL@@YAPAXI@Z
_TEXT	SEGMENT
___n$ = 8						; size = 4
?__stl_new@_STL@@YAPAXI@Z PROC NEAR			; _STL::__stl_new, COMDAT

; 86   : inline void*  _STLP_CALL __stl_new(size_t __n)   { _STLP_CHECK_NULL_ALLOC(::operator _STLP_NEW(__n)); }

  00000	e9 00 00 00 00	 jmp	 ??2@YAPAXI@Z		; operator new
?__stl_new@_STL@@YAPAXI@Z ENDP				; _STL::__stl_new
_TEXT	ENDS
PUBLIC	?__stl_delete@_STL@@YAXPAX@Z			; _STL::__stl_delete
EXTRN	??3@YAXPAX@Z:NEAR				; operator delete
; Function compile flags: /Ogsy
;	COMDAT ?__stl_delete@_STL@@YAXPAX@Z
_TEXT	SEGMENT
___p$ = 8						; size = 4
?__stl_delete@_STL@@YAXPAX@Z PROC NEAR			; _STL::__stl_delete, COMDAT

; 87   : inline void   _STLP_CALL __stl_delete(void* __p) { ::operator delete(__p); }

  00000	e9 00 00 00 00	 jmp	 ??3@YAXPAX@Z		; operator delete
?__stl_delete@_STL@@YAXPAX@Z ENDP			; _STL::__stl_delete
_TEXT	ENDS
PUBLIC	?read@ivfstream@@QAEXPADI@Z			; ivfstream::read
; Function compile flags: /Ogsy
; File c:\darkeden\designed_common\project\client\virtualfilesystem\vfstream.inl
;	COMDAT ?read@ivfstream@@QAEXPADI@Z
_TEXT	SEGMENT
_buf$ = 8						; size = 4
_len$ = 12						; size = 4
?read@ivfstream@@QAEXPADI@Z PROC NEAR			; ivfstream::read, COMDAT
; _this$ = ecx

; 81   : 	if(m_pFileIO) m_pFileIO->read(buf, len);

  00000	83 79 04 00	 cmp	 DWORD PTR [ecx+4], 0
  00004	74 08		 je	 SHORT $L100361
  00006	8b 49 04	 mov	 ecx, DWORD PTR [ecx+4]
  00009	8b 01		 mov	 eax, DWORD PTR [ecx]
  0000b	ff 60 10	 jmp	 DWORD PTR [eax+16]
$L100361:

; 82   : }

  0000e	c2 08 00	 ret	 8
?read@ivfstream@@QAEXPADI@Z ENDP			; ivfstream::read
_TEXT	ENDS
PUBLIC	??0MShopTemplate@@QAE@XZ			; MShopTemplate::MShopTemplate
; Function compile flags: /Ogsy
; File c:\darkeden\designed_common\project\client\mshoptemplate.cpp
;	COMDAT ??0MShopTemplate@@QAE@XZ
_TEXT	SEGMENT
??0MShopTemplate@@QAE@XZ PROC NEAR			; MShopTemplate::MShopTemplate, COMDAT
; _this$ = ecx

; 18   : {

  00000	8b c1		 mov	 eax, ecx

; 19   : }

  00002	c3		 ret	 0
??0MShopTemplate@@QAE@XZ ENDP				; MShopTemplate::MShopTemplate
_TEXT	ENDS
PUBLIC	??1MShopTemplate@@QAE@XZ			; MShopTemplate::~MShopTemplate
; Function compile flags: /Ogsy
;	COMDAT ??1MShopTemplate@@QAE@XZ
_TEXT	SEGMENT
??1MShopTemplate@@QAE@XZ PROC NEAR			; MShopTemplate::~MShopTemplate, COMDAT
; _this$ = ecx

; 23   : }

  00000	c3		 ret	 0
??1MShopTemplate@@QAE@XZ ENDP				; MShopTemplate::~MShopTemplate
_TEXT	ENDS
PUBLIC	?LoadFromFile@MShopTemplate@@QAEXAAVivfstream@@@Z ; MShopTemplate::LoadFromFile
; Function compile flags: /Ogsy
;	COMDAT ?LoadFromFile@MShopTemplate@@QAEXAAVivfstream@@@Z
_TEXT	SEGMENT
_file$ = 8						; size = 4
?LoadFromFile@MShopTemplate@@QAEXAAVivfstream@@@Z PROC NEAR ; MShopTemplate::LoadFromFile, COMDAT
; _this$ = ecx

; 46   : {

  00000	53		 push	 ebx
  00001	56		 push	 esi

; 47   : 	//file.read((char*)&m_ID,        szShopTemplateID);
; 48   : 	file.read((char*)&Type,      1);

  00002	8b 74 24 0c	 mov	 esi, DWORD PTR _file$[esp+4]
  00006	33 db		 xor	 ebx, ebx
  00008	39 5e 04	 cmp	 DWORD PTR [esi+4], ebx
  0000b	57		 push	 edi
  0000c	8b f9		 mov	 edi, ecx
  0000e	74 6a		 je	 SHORT $L102621
  00010	8b 4e 04	 mov	 ecx, DWORD PTR [esi+4]
  00013	8b 01		 mov	 eax, DWORD PTR [ecx]
  00015	6a 01		 push	 1
  00017	57		 push	 edi
  00018	ff 50 10	 call	 DWORD PTR [eax+16]

; 49   : 	file.read((char*)&Class,     4);

  0001b	39 5e 04	 cmp	 DWORD PTR [esi+4], ebx
  0001e	74 5a		 je	 SHORT $L102621
  00020	8b 4e 04	 mov	 ecx, DWORD PTR [esi+4]
  00023	8b 01		 mov	 eax, DWORD PTR [ecx]
  00025	6a 04		 push	 4
  00027	8d 57 04	 lea	 edx, DWORD PTR [edi+4]
  0002a	52		 push	 edx
  0002b	ff 50 10	 call	 DWORD PTR [eax+16]

; 50   : 	file.read((char*)&MinType,   2);

  0002e	39 5e 04	 cmp	 DWORD PTR [esi+4], ebx
  00031	74 47		 je	 SHORT $L102621
  00033	8b 4e 04	 mov	 ecx, DWORD PTR [esi+4]
  00036	8b 01		 mov	 eax, DWORD PTR [ecx]
  00038	6a 02		 push	 2
  0003a	8d 57 08	 lea	 edx, DWORD PTR [edi+8]
  0003d	52		 push	 edx
  0003e	ff 50 10	 call	 DWORD PTR [eax+16]

; 51   : 	file.read((char*)&MaxType,   2);

  00041	39 5e 04	 cmp	 DWORD PTR [esi+4], ebx
  00044	74 34		 je	 SHORT $L102621
  00046	8b 4e 04	 mov	 ecx, DWORD PTR [esi+4]
  00049	8b 01		 mov	 eax, DWORD PTR [ecx]
  0004b	6a 02		 push	 2
  0004d	8d 57 0a	 lea	 edx, DWORD PTR [edi+10]
  00050	52		 push	 edx
  00051	ff 50 10	 call	 DWORD PTR [eax+16]

; 52   : 	file.read((char*)&MinOption, 1);

  00054	39 5e 04	 cmp	 DWORD PTR [esi+4], ebx
  00057	74 21		 je	 SHORT $L102621
  00059	8b 4e 04	 mov	 ecx, DWORD PTR [esi+4]
  0005c	8b 01		 mov	 eax, DWORD PTR [ecx]
  0005e	6a 01		 push	 1
  00060	8d 57 0c	 lea	 edx, DWORD PTR [edi+12]
  00063	52		 push	 edx
  00064	ff 50 10	 call	 DWORD PTR [eax+16]

; 53   : 	file.read((char*)&MaxOption, 1);

  00067	39 5e 04	 cmp	 DWORD PTR [esi+4], ebx
  0006a	74 0e		 je	 SHORT $L102621
  0006c	8b 4e 04	 mov	 ecx, DWORD PTR [esi+4]
  0006f	8b 01		 mov	 eax, DWORD PTR [ecx]
  00071	6a 01		 push	 1
  00073	83 c7 0d	 add	 edi, 13			; 0000000dH
  00076	57		 push	 edi
  00077	ff 50 10	 call	 DWORD PTR [eax+16]
$L102621:
  0007a	5f		 pop	 edi
  0007b	5e		 pop	 esi
  0007c	5b		 pop	 ebx

; 54   : }

  0007d	c2 04 00	 ret	 4
?LoadFromFile@MShopTemplate@@QAEXAAVivfstream@@@Z ENDP	; MShopTemplate::LoadFromFile
_TEXT	ENDS
PUBLIC	?flags@ios_base@_STL@@QBEHXZ			; _STL::ios_base::flags
; Function compile flags: /Ogsy
; File c:\stlport-4.6.1\stlport\stl\_ios_base.h
;	COMDAT ?flags@ios_base@_STL@@QBEHXZ
_TEXT	SEGMENT
?flags@ios_base@_STL@@QBEHXZ PROC NEAR			; _STL::ios_base::flags, COMDAT
; _this$ = ecx

; 115  :   fmtflags flags() const { return _M_fmtflags; }

  00000	8b 41 04	 mov	 eax, DWORD PTR [ecx+4]
  00003	c3		 ret	 0
?flags@ios_base@_STL@@QBEHXZ ENDP			; _STL::ios_base::flags
_TEXT	ENDS
PUBLIC	??_GMShopTemplate@@QAEPAXI@Z			; MShopTemplate::`scalar deleting destructor'
; Function compile flags: /Ogsy
;	COMDAT ??_GMShopTemplate@@QAEPAXI@Z
_TEXT	SEGMENT
___flags$ = 8						; size = 4
??_GMShopTemplate@@QAEPAXI@Z PROC NEAR			; MShopTemplate::`scalar deleting destructor', COMDAT
; _this$ = ecx
  00000	f6 44 24 04 01	 test	 BYTE PTR ___flags$[esp-4], 1
  00005	56		 push	 esi
  00006	8b f1		 mov	 esi, ecx
  00008	74 07		 je	 SHORT $L101544
  0000a	56		 push	 esi
  0000b	e8 00 00 00 00	 call	 ??3@YAXPAX@Z		; operator delete
  00010	59		 pop	 ecx
$L101544:
  00011	8b c6		 mov	 eax, esi
  00013	5e		 pop	 esi
  00014	c2 04 00	 ret	 4
??_GMShopTemplate@@QAEPAXI@Z ENDP			; MShopTemplate::`scalar deleting destructor'
_TEXT	ENDS
PUBLIC	?rdbuf@?$basic_ios@DV?$char_traits@D@_STL@@@_STL@@QBEPAV?$basic_streambuf@DV?$char_traits@D@_STL@@@2@XZ ; _STL::basic_ios<char,_STL::char_traits<char> >::rdbuf
; Function compile flags: /Ogsy
; File c:\stlport-4.6.1\stlport\stl\_ios.h
;	COMDAT ?rdbuf@?$basic_ios@DV?$char_traits@D@_STL@@@_STL@@QBEPAV?$basic_streambuf@DV?$char_traits@D@_STL@@@2@XZ
_TEXT	SEGMENT
?rdbuf@?$basic_ios@DV?$char_traits@D@_STL@@@_STL@@QBEPAV?$basic_streambuf@DV?$char_traits@D@_STL@@@2@XZ PROC NEAR ; _STL::basic_ios<char,_STL::char_traits<char> >::rdbuf, COMDAT
; _this$ = ecx

; 72   :     { return _M_streambuf; }

  00000	8b 41 58	 mov	 eax, DWORD PTR [ecx+88]
  00003	c3		 ret	 0
?rdbuf@?$basic_ios@DV?$char_traits@D@_STL@@@_STL@@QBEPAV?$basic_streambuf@DV?$char_traits@D@_STL@@@2@XZ ENDP ; _STL::basic_ios<char,_STL::char_traits<char> >::rdbuf
_TEXT	ENDS
PUBLIC	?rdstate@ios_base@_STL@@QBEHXZ			; _STL::ios_base::rdstate
; Function compile flags: /Ogsy
; File c:\stlport-4.6.1\stlport\stl\_ios_base.h
;	COMDAT ?rdstate@ios_base@_STL@@QBEHXZ
_TEXT	SEGMENT
?rdstate@ios_base@_STL@@QBEHXZ PROC NEAR		; _STL::ios_base::rdstate, COMDAT
; _this$ = ecx

; 178  :   iostate rdstate() const { return _M_iostate; }

  00000	8b 41 08	 mov	 eax, DWORD PTR [ecx+8]
  00003	c3		 ret	 0
?rdstate@ios_base@_STL@@QBEHXZ ENDP			; _STL::ios_base::rdstate
_TEXT	ENDS
PUBLIC	?good@ios_base@_STL@@QBE_NXZ			; _STL::ios_base::good
; Function compile flags: /Ogsy
;	COMDAT ?good@ios_base@_STL@@QBE_NXZ
_TEXT	SEGMENT
?good@ios_base@_STL@@QBE_NXZ PROC NEAR			; _STL::ios_base::good, COMDAT
; _this$ = ecx

; 180  :   bool good() const { return _M_iostate == 0; }

  00000	33 c0		 xor	 eax, eax
  00002	39 41 08	 cmp	 DWORD PTR [ecx+8], eax
  00005	0f 94 c0	 sete	 al
  00008	c3		 ret	 0
?good@ios_base@_STL@@QBE_NXZ ENDP			; _STL::ios_base::good
_TEXT	ENDS
PUBLIC	?_M_setstate_nothrow@ios_base@_STL@@IAEXH@Z	; _STL::ios_base::_M_setstate_nothrow
; Function compile flags: /Ogsy
;	COMDAT ?_M_setstate_nothrow@ios_base@_STL@@IAEXH@Z
_TEXT	SEGMENT
___state$ = 8						; size = 4
?_M_setstate_nothrow@ios_base@_STL@@IAEXH@Z PROC NEAR	; _STL::ios_base::_M_setstate_nothrow, COMDAT
; _this$ = ecx

; 193  :   void _M_setstate_nothrow(iostate __state) { _M_iostate |= __state; }

  00000	8b 44 24 04	 mov	 eax, DWORD PTR ___state$[esp-4]
  00004	09 41 08	 or	 DWORD PTR [ecx+8], eax
  00007	c2 04 00	 ret	 4
?_M_setstate_nothrow@ios_base@_STL@@IAEXH@Z ENDP	; _STL::ios_base::_M_setstate_nothrow
_TEXT	ENDS
PUBLIC	?_M_clear_nothrow@ios_base@_STL@@IAEXH@Z	; _STL::ios_base::_M_clear_nothrow
; Function compile flags: /Ogsy
;	COMDAT ?_M_clear_nothrow@ios_base@_STL@@IAEXH@Z
_TEXT	SEGMENT
___state$ = 8						; size = 4
?_M_clear_nothrow@ios_base@_STL@@IAEXH@Z PROC NEAR	; _STL::ios_base::_M_clear_nothrow, COMDAT
; _this$ = ecx

; 194  :   void _M_clear_nothrow(iostate __state) { _M_iostate = __state; }

  00000	8b 44 24 04	 mov	 eax, DWORD PTR ___state$[esp-4]
  00004	89 41 08	 mov	 DWORD PTR [ecx+8], eax
  00007	c2 04 00	 ret	 4
?_M_clear_nothrow@ios_base@_STL@@IAEXH@Z ENDP		; _STL::ios_base::_M_clear_nothrow
_TEXT	ENDS
PUBLIC	?_M_get_exception_mask@ios_base@_STL@@IBEHXZ	; _STL::ios_base::_M_get_exception_mask
; Function compile flags: /Ogsy
;	COMDAT ?_M_get_exception_mask@ios_base@_STL@@IBEHXZ
_TEXT	SEGMENT
?_M_get_exception_mask@ios_base@_STL@@IBEHXZ PROC NEAR	; _STL::ios_base::_M_get_exception_mask, COMDAT
; _this$ = ecx

; 195  :   iostate _M_get_exception_mask() const { return _M_exception_mask; }

  00000	8b 41 14	 mov	 eax, DWORD PTR [ecx+20]
  00003	c3		 ret	 0
?_M_get_exception_mask@ios_base@_STL@@IBEHXZ ENDP	; _STL::ios_base::_M_get_exception_mask
_TEXT	ENDS
PUBLIC	?_M_check_exception_mask@ios_base@_STL@@IAEXXZ	; _STL::ios_base::_M_check_exception_mask
EXTRN	?_M_throw_failure@ios_base@_STL@@IAEXXZ:NEAR	; _STL::ios_base::_M_throw_failure
; Function compile flags: /Ogsy
;	COMDAT ?_M_check_exception_mask@ios_base@_STL@@IAEXXZ
_TEXT	SEGMENT
?_M_check_exception_mask@ios_base@_STL@@IAEXXZ PROC NEAR ; _STL::ios_base::_M_check_exception_mask, COMDAT
; _this$ = ecx

; 198  :     if (_M_iostate & _M_exception_mask)

  00000	8b 41 14	 mov	 eax, DWORD PTR [ecx+20]
  00003	85 41 08	 test	 eax, DWORD PTR [ecx+8]
  00006	74 05		 je	 SHORT $L79498

; 199  :       _M_throw_failure(); 

  00008	e9 00 00 00 00	 jmp	 ?_M_throw_failure@ios_base@_STL@@IAEXXZ ; _STL::ios_base::_M_throw_failure
$L79498:

; 200  :   }

  0000d	c3		 ret	 0
?_M_check_exception_mask@ios_base@_STL@@IAEXXZ ENDP	; _STL::ios_base::_M_check_exception_mask
_TEXT	ENDS
PUBLIC	??Bsentry@?$basic_ostream@DV?$char_traits@D@_STL@@@_STL@@QBE_NXZ ; _STL::basic_ostream<char,_STL::char_traits<char> >::sentry::operator bool
; Function compile flags: /Ogsy
; File c:\stlport-4.6.1\stlport\stl\_ostream.h
;	COMDAT ??Bsentry@?$basic_ostream@DV?$char_traits@D@_STL@@@_STL@@QBE_NXZ
_TEXT	SEGMENT
??Bsentry@?$basic_ostream@DV?$char_traits@D@_STL@@@_STL@@QBE_NXZ PROC NEAR ; _STL::basic_ostream<char,_STL::char_traits<char> >::sentry::operator bool, COMDAT
; _this$ = ecx

; 176  :       operator bool() const { return _M_ok; }

  00000	8a 41 04	 mov	 al, BYTE PTR [ecx+4]
  00003	c3		 ret	 0
??Bsentry@?$basic_ostream@DV?$char_traits@D@_STL@@@_STL@@QBE_NXZ ENDP ; _STL::basic_ostream<char,_STL::char_traits<char> >::sentry::operator bool
_TEXT	ENDS
PUBLIC	??0?$_Rb_tree_iterator@U?$pair@$$CBIPAVMShopTemplate@@@_STL@@U?$_Nonconst_traits@U?$pair@$$CBIPAVMShopTemplate@@@_STL@@@2@@_STL@@QAE@ABU01@@Z ; _STL::_Rb_tree_iterator<_STL::pair<unsigned int const ,MShopTemplate *>,_STL::_Nonconst_traits<_STL::pair<unsigned int const ,MShopTemplate *> > >::_Rb_tree_iterator<_STL::pair<unsigned int const ,MShopTemplate *>,_STL::_Nonconst_traits<_STL::pair<unsigned int const ,MShopTemplate *> > >
; Function compile flags: /Ogsy
; File c:\stlport-4.6.1\stlport\stl\_tree.h
;	COMDAT ??0?$_Rb_tree_iterator@U?$pair@$$CBIPAVMShopTemplate@@@_STL@@U?$_Nonconst_traits@U?$pair@$$CBIPAVMShopTemplate@@@_STL@@@2@@_STL@@QAE@ABU01@@Z
_TEXT	SEGMENT
___it$ = 8						; size = 4
??0?$_Rb_tree_iterator@U?$pair@$$CBIPAVMShopTemplate@@@_STL@@U?$_Nonconst_traits@U?$pair@$$CBIPAVMShopTemplate@@@_STL@@@2@@_STL@@QAE@ABU01@@Z PROC NEAR ; _STL::_Rb_tree_iterator<_STL::pair<unsigned int const ,MShopTemplate *>,_STL::_Nonconst_traits<_STL::pair<unsigned int const ,MShopTemplate *> > >::_Rb_tree_iterator<_STL::pair<unsigned int const ,MShopTemplate *>,_STL::_Nonconst_traits<_STL::pair<unsigned int const ,MShopTemplate *> > >, COMDAT
; _this$ = ecx

; 165  :   _Rb_tree_iterator(const _Rb_tree_iterator<_Value, 

  00000	8b c1		 mov	 eax, ecx
  00002	8b 4c 24 04	 mov	 ecx, DWORD PTR ___it$[esp-4]
  00006	8b 09		 mov	 ecx, DWORD PTR [ecx]
  00008	89 08		 mov	 DWORD PTR [eax], ecx

; 166  :                     _Nonconst_traits<_Value> >& __it) { _M_node = __it._M_node; }

  0000a	c2 04 00	 ret	 4
??0?$_Rb_tree_iterator@U?$pair@$$CBIPAVMShopTemplate@@@_STL@@U?$_Nonconst_traits@U?$pair@$$CBIPAVMShopTemplate@@@_STL@@@2@@_STL@@QAE@ABU01@@Z ENDP ; _STL::_Rb_tree_iterator<_STL::pair<unsigned int const ,MShopTemplate *>,_STL::_Nonconst_traits<_STL::pair<unsigned int const ,MShopTemplate *> > >::_Rb_tree_iterator<_STL::pair<unsigned int const ,MShopTemplate *>,_STL::_Nonconst_traits<_STL::pair<unsigned int const ,MShopTemplate *> > >
_TEXT	ENDS
PUBLIC	??D?$_Rb_tree_iterator@U?$pair@$$CBIPAVMShopTemplate@@@_STL@@U?$_Nonconst_traits@U?$pair@$$CBIPAVMShopTemplate@@@_STL@@@2@@_STL@@QBEAAU?$pair@$$CBIPAVMShopTemplate@@@1@XZ ; _STL::_Rb_tree_iterator<_STL::pair<unsigned int const ,MShopTemplate *>,_STL::_Nonconst_traits<_STL::pair<unsigned int const ,MShopTemplate *> > >::operator*
; Function compile flags: /Ogsy
;	COMDAT ??D?$_Rb_tree_iterator@U?$pair@$$CBIPAVMShopTemplate@@@_STL@@U?$_Nonconst_traits@U?$pair@$$CBIPAVMShopTemplate@@@_STL@@@2@@_STL@@QBEAAU?$pair@$$CBIPAVMShopTemplate@@@1@XZ
_TEXT	SEGMENT
??D?$_Rb_tree_iterator@U?$pair@$$CBIPAVMShopTemplate@@@_STL@@U?$_Nonconst_traits@U?$pair@$$CBIPAVMShopTemplate@@@_STL@@@2@@_STL@@QBEAAU?$pair@$$CBIPAVMShopTemplate@@@1@XZ PROC NEAR ; _STL::_Rb_tree_iterator<_STL::pair<unsigned int const ,MShopTemplate *>,_STL::_Nonconst_traits<_STL::pair<unsigned int const ,MShopTemplate *> > >::operator*, COMDAT
; _this$ = ecx

; 169  :     return _Link_type(_M_node)->_M_value_field; 

  00000	8b 01		 mov	 eax, DWORD PTR [ecx]
  00002	83 c0 10	 add	 eax, 16			; 00000010H

; 170  :   }

  00005	c3		 ret	 0
??D?$_Rb_tree_iterator@U?$pair@$$CBIPAVMShopTemplate@@@_STL@@U?$_Nonconst_traits@U?$pair@$$CBIPAVMShopTemplate@@@_STL@@@2@@_STL@@QBEAAU?$pair@$$CBIPAVMShopTemplate@@@1@XZ ENDP ; _STL::_Rb_tree_iterator<_STL::pair<unsigned int const ,MShopTemplate *>,_STL::_Nonconst_traits<_STL::pair<unsigned int const ,MShopTemplate *> > >::operator*
_TEXT	ENDS
PUBLIC	??E?$_Rb_tree_iterator@U?$pair@$$CBIPAVMShopTemplate@@@_STL@@U?$_Nonconst_traits@U?$pair@$$CBIPAVMShopTemplate@@@_STL@@@2@@_STL@@QAE?AU01@H@Z ; _STL::_Rb_tree_iterator<_STL::pair<unsigned int const ,MShopTemplate *>,_STL::_Nonconst_traits<_STL::pair<unsigned int const ,MShopTemplate *> > >::operator++
EXTRN	?_M_increment@?$_Rb_global@_N@_STL@@SAPAU_Rb_tree_node_base@2@PAU32@@Z:NEAR ; _STL::_Rb_global<bool>::_M_increment
; Function compile flags: /Ogsy
;	COMDAT ??E?$_Rb_tree_iterator@U?$pair@$$CBIPAVMShopTemplate@@@_STL@@U?$_Nonconst_traits@U?$pair@$$CBIPAVMShopTemplate@@@_STL@@@2@@_STL@@QAE?AU01@H@Z
_TEXT	SEGMENT
___$ReturnUdt$ = 8					; size = 4
___formal$ = 12						; size = 4
??E?$_Rb_tree_iterator@U?$pair@$$CBIPAVMShopTemplate@@@_STL@@U?$_Nonconst_traits@U?$pair@$$CBIPAVMShopTemplate@@@_STL@@@2@@_STL@@QAE?AU01@H@Z PROC NEAR ; _STL::_Rb_tree_iterator<_STL::pair<unsigned int const ,MShopTemplate *>,_STL::_Nonconst_traits<_STL::pair<unsigned int const ,MShopTemplate *> > >::operator++, COMDAT
; _this$ = ecx

; 175  :   _Self operator++(int) {

  00000	56		 push	 esi
  00001	8b f1		 mov	 esi, ecx
  00003	57		 push	 edi

; 176  :     _Self __tmp = *this;

  00004	8b 3e		 mov	 edi, DWORD PTR [esi]

; 177  :     _M_node = _Rb_global_inst::_M_increment(_M_node);

  00006	57		 push	 edi
  00007	e8 00 00 00 00	 call	 ?_M_increment@?$_Rb_global@_N@_STL@@SAPAU_Rb_tree_node_base@2@PAU32@@Z ; _STL::_Rb_global<bool>::_M_increment
  0000c	89 06		 mov	 DWORD PTR [esi], eax

; 178  :     return __tmp;

  0000e	8b 44 24 10	 mov	 eax, DWORD PTR ___$ReturnUdt$[esp+8]
  00012	59		 pop	 ecx
  00013	89 38		 mov	 DWORD PTR [eax], edi
  00015	5f		 pop	 edi
  00016	5e		 pop	 esi

; 179  :   }

  00017	c2 08 00	 ret	 8
??E?$_Rb_tree_iterator@U?$pair@$$CBIPAVMShopTemplate@@@_STL@@U?$_Nonconst_traits@U?$pair@$$CBIPAVMShopTemplate@@@_STL@@@2@@_STL@@QAE?AU01@H@Z ENDP ; _STL::_Rb_tree_iterator<_STL::pair<unsigned int const ,MShopTemplate *>,_STL::_Nonconst_traits<_STL::pair<unsigned int const ,MShopTemplate *> > >::operator++
_TEXT	ENDS
PUBLIC	?clear@?$basic_ios@DV?$char_traits@D@_STL@@@_STL@@QAEXH@Z ; _STL::basic_ios<char,_STL::char_traits<char> >::clear
; Function compile flags: /Ogsy
; File c:\stlport-4.6.1\stlport\stl\_ios.h
;	COMDAT ?clear@?$basic_ios@DV?$char_traits@D@_STL@@@_STL@@QAEXH@Z
_TEXT	SEGMENT
___state$ = 8						; size = 4
?clear@?$basic_ios@DV?$char_traits@D@_STL@@@_STL@@QAEXH@Z PROC NEAR ; _STL::basic_ios<char,_STL::char_traits<char> >::clear, COMDAT
; _this$ = ecx

; 91   :     _M_clear_nothrow(this->rdbuf() ? __state : iostate(__state|ios_base::badbit));

  00000	83 79 58 00	 cmp	 DWORD PTR [ecx+88], 0
  00004	8b 44 24 04	 mov	 eax, DWORD PTR ___state$[esp-4]
  00008	75 03		 jne	 SHORT $L102681
  0000a	83 c8 01	 or	 eax, 1
$L102681:

; 92   :     _M_check_exception_mask();

  0000d	85 41 14	 test	 DWORD PTR [ecx+20], eax
  00010	89 41 08	 mov	 DWORD PTR [ecx+8], eax
  00013	74 05		 je	 SHORT $L102693
  00015	e8 00 00 00 00	 call	 ?_M_throw_failure@ios_base@_STL@@IAEXXZ ; _STL::ios_base::_M_throw_failure
$L102693:

; 93   :   }

  0001a	c2 04 00	 ret	 4
?clear@?$basic_ios@DV?$char_traits@D@_STL@@@_STL@@QAEXH@Z ENDP ; _STL::basic_ios<char,_STL::char_traits<char> >::clear
_TEXT	ENDS
PUBLIC	??0?$allocator@U?$pair@$$CBIPAVMShopTemplate@@@_STL@@@_STL@@QAE@XZ ; _STL::allocator<_STL::pair<unsigned int const ,MShopTemplate *> >::allocator<_STL::pair<unsigned int const ,MShopTemplate *> >
; Function compile flags: /Ogsy
; File c:\stlport-4.6.1\stlport\stl\_alloc.h
;	COMDAT ??0?$allocator@U?$pair@$$CBIPAVMShopTemplate@@@_STL@@@_STL@@QAE@XZ
_TEXT	SEGMENT
??0?$allocator@U?$pair@$$CBIPAVMShopTemplate@@@_STL@@@_STL@@QAE@XZ PROC NEAR ; _STL::allocator<_STL::pair<unsigned int const ,MShopTemplate *> >::allocator<_STL::pair<unsigned int const ,MShopTemplate *> >, COMDAT
; _this$ = ecx

; 345  :   allocator() _STLP_NOTHROW {}

  00000	8b c1		 mov	 eax, ecx
  00002	c3		 ret	 0
??0?$allocator@U?$pair@$$CBIPAVMShopTemplate@@@_STL@@@_STL@@QAE@XZ ENDP ; _STL::allocator<_STL::pair<unsigned int const ,MShopTemplate *> >::allocator<_STL::pair<unsigned int const ,MShopTemplate *> >
_TEXT	ENDS
PUBLIC	??1?$allocator@U?$pair@$$CBIPAVMShopTemplate@@@_STL@@@_STL@@QAE@XZ ; _STL::allocator<_STL::pair<unsigned int const ,MShopTemplate *> >::~allocator<_STL::pair<unsigned int const ,MShopTemplate *> >
; Function compile flags: /Ogsy
;	COMDAT ??1?$allocator@U?$pair@$$CBIPAVMShopTemplate@@@_STL@@@_STL@@QAE@XZ
_TEXT	SEGMENT
??1?$allocator@U?$pair@$$CBIPAVMShopTemplate@@@_STL@@@_STL@@QAE@XZ PROC NEAR ; _STL::allocator<_STL::pair<unsigned int const ,MShopTemplate *> >::~allocator<_STL::pair<unsigned int const ,MShopTemplate *> >, COMDAT
; _this$ = ecx

; 350  :   ~allocator() _STLP_NOTHROW {}

  00000	c3		 ret	 0
??1?$allocator@U?$pair@$$CBIPAVMShopTemplate@@@_STL@@@_STL@@QAE@XZ ENDP ; _STL::allocator<_STL::pair<unsigned int const ,MShopTemplate *> >::~allocator<_STL::pair<unsigned int const ,MShopTemplate *> >
_TEXT	ENDS
PUBLIC	?_M_root@?$_Rb_tree@IU?$pair@$$CBIPAVMShopTemplate@@@_STL@@U?$_Select1st@U?$pair@$$CBIPAVMShopTemplate@@@_STL@@@2@U?$less@I@2@V?$allocator@U?$pair@$$CBIPAVMShopTemplate@@@_STL@@@2@@_STL@@IBEAAPAU?$_Rb_tree_node@U?$pair@$$CBIPAVMShopTemplate@@@_STL@@@2@XZ ; _STL::_Rb_tree<unsigned int,_STL::pair<unsigned int const ,MShopTemplate *>,_STL::_Select1st<_STL::pair<unsigned int const ,MShopTemplate *> >,_STL::less<unsigned int>,_STL::allocator<_STL::pair<unsigned int const ,MShopTemplate *> > >::_M_root
; Function compile flags: /Ogsy
; File c:\stlport-4.6.1\stlport\stl\_tree.h
;	COMDAT ?_M_root@?$_Rb_tree@IU?$pair@$$CBIPAVMShopTemplate@@@_STL@@U?$_Select1st@U?$pair@$$CBIPAVMShopTemplate@@@_STL@@@2@U?$less@I@2@V?$allocator@U?$pair@$$CBIPAVMShopTemplate@@@_STL@@@2@@_STL@@IBEAAPAU?$_Rb_tree_node@U?$pair@$$CBIPAVMShopTemplate@@@_STL@@@2@XZ
_TEXT	SEGMENT
?_M_root@?$_Rb_tree@IU?$pair@$$CBIPAVMShopTemplate@@@_STL@@U?$_Select1st@U?$pair@$$CBIPAVMShopTemplate@@@_STL@@@2@U?$less@I@2@V?$allocator@U?$pair@$$CBIPAVMShopTemplate@@@_STL@@@2@@_STL@@IBEAAPAU?$_Rb_tree_node@U?$pair@$$CBIPAVMShopTemplate@@@_STL@@@2@XZ PROC NEAR ; _STL::_Rb_tree<unsigned int,_STL::pair<unsigned int const ,MShopTemplate *>,_STL::_Select1st<_STL::pair<unsigned int const ,MShopTemplate *> >,_STL::less<unsigned int>,_STL::allocator<_STL::pair<unsigned int const ,MShopTemplate *> > >::_M_root, COMDAT
; _this$ = ecx

; 265  :     { return (_Link_type&) this->_M_header._M_data->_M_parent; }

  00000	8b 01		 mov	 eax, DWORD PTR [ecx]
  00002	83 c0 04	 add	 eax, 4
  00005	c3		 ret	 0
?_M_root@?$_Rb_tree@IU?$pair@$$CBIPAVMShopTemplate@@@_STL@@U?$_Select1st@U?$pair@$$CBIPAVMShopTemplate@@@_STL@@@2@U?$less@I@2@V?$allocator@U?$pair@$$CBIPAVMShopTemplate@@@_STL@@@2@@_STL@@IBEAAPAU?$_Rb_tree_node@U?$pair@$$CBIPAVMShopTemplate@@@_STL@@@2@XZ ENDP ; _STL::_Rb_tree<unsigned int,_STL::pair<unsigned int const ,MShopTemplate *>,_STL::_Select1st<_STL::pair<unsigned int const ,MShopTemplate *> >,_STL::less<unsigned int>,_STL::allocator<_STL::pair<unsigned int const ,MShopTemplate *> > >::_M_root
_TEXT	ENDS
PUBLIC	?_M_leftmost@?$_Rb_tree@IU?$pair@$$CBIPAVMShopTemplate@@@_STL@@U?$_Select1st@U?$pair@$$CBIPAVMShopTemplate@@@_STL@@@2@U?$less@I@2@V?$allocator@U?$pair@$$CBIPAVMShopTemplate@@@_STL@@@2@@_STL@@IBEAAPAU?$_Rb_tree_node@U?$pair@$$CBIPAVMShopTemplate@@@_STL@@@2@XZ ; _STL::_Rb_tree<unsigned int,_STL::pair<unsigned int const ,MShopTemplate *>,_STL::_Select1st<_STL::pair<unsigned int const ,MShopTemplate *> >,_STL::less<unsigned int>,_STL::allocator<_STL::pair<unsigned int const ,MShopTemplate *> > >::_M_leftmost
; Function compile flags: /Ogsy
;	COMDAT ?_M_leftmost@?$_Rb_tree@IU?$pair@$$CBIPAVMShopTemplate@@@_STL@@U?$_Select1st@U?$pair@$$CBIPAVMShopTemplate@@@_STL@@@2@U?$less@I@2@V?$allocator@U?$pair@$$CBIPAVMShopTemplate@@@_STL@@@2@@_STL@@IBEAAPAU?$_Rb_tree_node@U?$pair@$$CBIPAVMShopTemplate@@@_STL@@@2@XZ
_TEXT	SEGMENT
?_M_leftmost@?$_Rb_tree@IU?$pair@$$CBIPAVMShopTemplate@@@_STL@@U?$_Select1st@U?$pair@$$CBIPAVMShopTemplate@@@_STL@@@2@U?$less@I@2@V?$allocator@U?$pair@$$CBIPAVMShopTemplate@@@_STL@@@2@@_STL@@IBEAAPAU?$_Rb_tree_node@U?$pair@$$CBIPAVMShopTemplate@@@_STL@@@2@XZ PROC NEAR ; _STL::_Rb_tree<unsigned int,_STL::pair<unsigned int const ,MShopTemplate *>,_STL::_Select1st<_STL::pair<unsigned int const ,MShopTemplate *> >,_STL::less<unsigned int>,_STL::allocator<_STL::pair<unsigned int const ,MShopTemplate *> > >::_M_leftmost, COMDAT
; _this$ = ecx

; 267  :     { return (_Link_type&) this->_M_header._M_data->_M_left; }

  00000	8b 01		 mov	 eax, DWORD PTR [ecx]
  00002	83 c0 08	 add	 eax, 8
  00005	c3		 ret	 0
?_M_leftmost@?$_Rb_tree@IU?$pair@$$CBIPAVMShopTemplate@@@_STL@@U?$_Select1st@U?$pair@$$CBIPAVMShopTemplate@@@_STL@@@2@U?$less@I@2@V?$allocator@U?$pair@$$CBIPAVMShopTemplate@@@_STL@@@2@@_STL@@IBEAAPAU?$_Rb_tree_node@U?$pair@$$CBIPAVMShopTemplate@@@_STL@@@2@XZ ENDP ; _STL::_Rb_tree<unsigned int,_STL::pair<unsigned int const ,MShopTemplate *>,_STL::_Select1st<_STL::pair<unsigned int const ,MShopTemplate *> >,_STL::less<unsigned int>,_STL::allocator<_STL::pair<unsigned int const ,MShopTemplate *> > >::_M_leftmost
_TEXT	ENDS
PUBLIC	?_M_rightmost@?$_Rb_tree@IU?$pair@$$CBIPAVMShopTemplate@@@_STL@@U?$_Select1st@U?$pair@$$CBIPAVMShopTemplate@@@_STL@@@2@U?$less@I@2@V?$allocator@U?$pair@$$CBIPAVMShopTemplate@@@_STL@@@2@@_STL@@IBEAAPAU?$_Rb_tree_node@U?$pair@$$CBIPAVMShopTemplate@@@_STL@@@2@XZ ; _STL::_Rb_tree<unsigned int,_STL::pair<unsigned int const ,MShopTemplate *>,_STL::_Select1st<_STL::pair<unsigned int const ,MShopTemplate *> >,_STL::less<unsigned int>,_STL::allocator<_STL::pair<unsigned int const ,MShopTemplate *> > >::_M_rightmost
; Function compile flags: /Ogsy
;	COMDAT ?_M_rightmost@?$_Rb_tree@IU?$pair@$$CBIPAVMShopTemplate@@@_STL@@U?$_Select1st@U?$pair@$$CBIPAVMShopTemplate@@@_STL@@@2@U?$less@I@2@V?$allocator@U?$pair@$$CBIPAVMShopTemplate@@@_STL@@@2@@_STL@@IBEAAPAU?$_Rb_tree_node@U?$pair@$$CBIPAVMShopTemplate@@@_STL@@@2@XZ
_TEXT	SEGMENT
?_M_rightmost@?$_Rb_tree@IU?$pair@$$CBIPAVMShopTemplate@@@_STL@@U?$_Select1st@U?$pair@$$CBIPAVMShopTemplate@@@_STL@@@2@U?$less@I@2@V?$allocator@U?$pair@$$CBIPAVMShopTemplate@@@_STL@@@2@@_STL@@IBEAAPAU?$_Rb_tree_node@U?$pair@$$CBIPAVMShopTemplate@@@_STL@@@2@XZ PROC NEAR ; _STL::_Rb_tree<unsigned int,_STL::pair<unsigned int const ,MShopTemplate *>,_STL::_Select1st<_STL::pair<unsigned int const ,MShopTemplate *> >,_STL::less<unsigned int>,_STL::allocator<_STL::pair<unsigned int const ,MShopTemplate *> > >::_M_rightmost, COMDAT
; _this$ = ecx

; 269  :     { return (_Link_type&) this->_M_header._M_data->_M_right; }

  00000	8b 01		 mov	 eax, DWORD PTR [ecx]
  00002	83 c0 0c	 add	 eax, 12			; 0000000cH
  00005	c3		 ret	 0
?_M_rightmost@?$_Rb_tree@IU?$pair@$$CBIPAVMShopTemplate@@@_STL@@U?$_Select1st@U?$pair@$$CBIPAVMShopTemplate@@@_STL@@@2@U?$less@I@2@V?$allocator@U?$pair@$$CBIPAVMShopTemplate@@@_STL@@@2@@_STL@@IBEAAPAU?$_Rb_tree_node@U?$pair@$$CBIPAVMShopTemplate@@@_STL@@@2@XZ ENDP ; _STL::_Rb_tree<unsigned int,_STL::pair<unsigned int const ,MShopTemplate *>,_STL::_Select1st<_STL::pair<unsigned int const ,MShopTemplate *> >,_STL::less<unsigned int>,_STL::allocator<_STL::pair<unsigned int const ,MShopTemplate *> > >::_M_rightmost
_TEXT	ENDS
PUBLIC	??1?$allocator@U?$_Rb_tree_node@U?$pair@$$CBIPAVMShopTemplate@@@_STL@@@_STL@@@_STL@@QAE@XZ ; _STL::allocator<_STL::_Rb_tree_node<_STL::pair<unsigned int const ,MShopTemplate *> > >::~allocator<_STL::_Rb_tree_node<_STL::pair<unsigned int const ,MShopTemplate *> > >
; Function compile flags: /Ogsy
; File c:\stlport-4.6.1\stlport\stl\_alloc.h
;	COMDAT ??1?$allocator@U?$_Rb_tree_node@U?$pair@$$CBIPAVMShopTemplate@@@_STL@@@_STL@@@_STL@@QAE@XZ
_TEXT	SEGMENT
??1?$allocator@U?$_Rb_tree_node@U?$pair@$$CBIPAVMShopTemplate@@@_STL@@@_STL@@@_STL@@QAE@XZ PROC NEAR ; _STL::allocator<_STL::_Rb_tree_node<_STL::pair<unsigned int const ,MShopTemplate *> > >::~allocator<_STL::_Rb_tree_node<_STL::pair<unsigned int const ,MShopTemplate *> > >, COMDAT
; _this$ = ecx

; 350  :   ~allocator() _STLP_NOTHROW {}

  00000	c3		 ret	 0
??1?$allocator@U?$_Rb_tree_node@U?$pair@$$CBIPAVMShopTemplate@@@_STL@@@_STL@@@_STL@@QAE@XZ ENDP ; _STL::allocator<_STL::_Rb_tree_node<_STL::pair<unsigned int const ,MShopTemplate *> > >::~allocator<_STL::_Rb_tree_node<_STL::pair<unsigned int const ,MShopTemplate *> > >
_TEXT	ENDS
PUBLIC	??0?$_Rb_tree_iterator@U?$pair@$$CBIPAVMShopTemplate@@@_STL@@U?$_Nonconst_traits@U?$pair@$$CBIPAVMShopTemplate@@@_STL@@@2@@_STL@@QAE@PAU?$_Rb_tree_node@U?$pair@$$CBIPAVMShopTemplate@@@_STL@@@1@@Z ; _STL::_Rb_tree_iterator<_STL::pair<unsigned int const ,MShopTemplate *>,_STL::_Nonconst_traits<_STL::pair<unsigned int const ,MShopTemplate *> > >::_Rb_tree_iterator<_STL::pair<unsigned int const ,MShopTemplate *>,_STL::_Nonconst_traits<_STL::pair<unsigned int const ,MShopTemplate *> > >
; Function compile flags: /Ogsy
; File c:\stlport-4.6.1\stlport\stl\_tree.h
;	COMDAT ??0?$_Rb_tree_iterator@U?$pair@$$CBIPAVMShopTemplate@@@_STL@@U?$_Nonconst_traits@U?$pair@$$CBIPAVMShopTemplate@@@_STL@@@2@@_STL@@QAE@PAU?$_Rb_tree_node@U?$pair@$$CBIPAVMShopTemplate@@@_STL@@@1@@Z
_TEXT	SEGMENT
___x$ = 8						; size = 4
??0?$_Rb_tree_iterator@U?$pair@$$CBIPAVMShopTemplate@@@_STL@@U?$_Nonconst_traits@U?$pair@$$CBIPAVMShopTemplate@@@_STL@@@2@@_STL@@QAE@PAU?$_Rb_tree_node@U?$pair@$$CBIPAVMShopTemplate@@@_STL@@@1@@Z PROC NEAR ; _STL::_Rb_tree_iterator<_STL::pair<unsigned int const ,MShopTemplate *>,_STL::_Nonconst_traits<_STL::pair<unsigned int const ,MShopTemplate *> > >::_Rb_tree_iterator<_STL::pair<unsigned int const ,MShopTemplate *>,_STL::_Nonconst_traits<_STL::pair<unsigned int const ,MShopTemplate *> > >, COMDAT
; _this$ = ecx

; 164  :   _Rb_tree_iterator(_Link_type __x) { _M_node = __x; }

  00000	8b c1		 mov	 eax, ecx
  00002	8b 4c 24 04	 mov	 ecx, DWORD PTR ___x$[esp-4]
  00006	89 08		 mov	 DWORD PTR [eax], ecx
  00008	c2 04 00	 ret	 4
??0?$_Rb_tree_iterator@U?$pair@$$CBIPAVMShopTemplate@@@_STL@@U?$_Nonconst_traits@U?$pair@$$CBIPAVMShopTemplate@@@_STL@@@2@@_STL@@QAE@PAU?$_Rb_tree_node@U?$pair@$$CBIPAVMShopTemplate@@@_STL@@@1@@Z ENDP ; _STL::_Rb_tree_iterator<_STL::pair<unsigned int const ,MShopTemplate *>,_STL::_Nonconst_traits<_STL::pair<unsigned int const ,MShopTemplate *> > >::_Rb_tree_iterator<_STL::pair<unsigned int const ,MShopTemplate *>,_STL::_Nonconst_traits<_STL::pair<unsigned int const ,MShopTemplate *> > >
_TEXT	ENDS
PUBLIC	?_S_color@?$_Rb_tree@IU?$pair@$$CBIPAVMShopTemplate@@@_STL@@U?$_Select1st@U?$pair@$$CBIPAVMShopTemplate@@@_STL@@@2@U?$less@I@2@V?$allocator@U?$pair@$$CBIPAVMShopTemplate@@@_STL@@@2@@_STL@@KAAA_NPAU?$_Rb_tree_node@U?$pair@$$CBIPAVMShopTemplate@@@_STL@@@2@@Z ; _STL::_Rb_tree<unsigned int,_STL::pair<unsigned int const ,MShopTemplate *>,_STL::_Select1st<_STL::pair<unsigned int const ,MShopTemplate *> >,_STL::less<unsigned int>,_STL::allocator<_STL::pair<unsigned int const ,MShopTemplate *> > >::_S_color
; Function compile flags: /Ogsy
;	COMDAT ?_S_color@?$_Rb_tree@IU?$pair@$$CBIPAVMShopTemplate@@@_STL@@U?$_Select1st@U?$pair@$$CBIPAVMShopTemplate@@@_STL@@@2@U?$less@I@2@V?$allocator@U?$pair@$$CBIPAVMShopTemplate@@@_STL@@@2@@_STL@@KAAA_NPAU?$_Rb_tree_node@U?$pair@$$CBIPAVMShopTemplate@@@_STL@@@2@@Z
_TEXT	SEGMENT
___x$ = 8						; size = 4
?_S_color@?$_Rb_tree@IU?$pair@$$CBIPAVMShopTemplate@@@_STL@@U?$_Select1st@U?$pair@$$CBIPAVMShopTemplate@@@_STL@@@2@U?$less@I@2@V?$allocator@U?$pair@$$CBIPAVMShopTemplate@@@_STL@@@2@@_STL@@KAAA_NPAU?$_Rb_tree_node@U?$pair@$$CBIPAVMShopTemplate@@@_STL@@@2@@Z PROC NEAR ; _STL::_Rb_tree<unsigned int,_STL::pair<unsigned int const ,MShopTemplate *>,_STL::_Select1st<_STL::pair<unsigned int const ,MShopTemplate *> >,_STL::less<unsigned int>,_STL::allocator<_STL::pair<unsigned int const ,MShopTemplate *> > >::_S_color, COMDAT

; 282  :     { return (_Color_type&)(__x->_M_color); }

  00000	8b 44 24 04	 mov	 eax, DWORD PTR ___x$[esp-4]
  00004	c3		 ret	 0
?_S_color@?$_Rb_tree@IU?$pair@$$CBIPAVMShopTemplate@@@_STL@@U?$_Select1st@U?$pair@$$CBIPAVMShopTemplate@@@_STL@@@2@U?$less@I@2@V?$allocator@U?$pair@$$CBIPAVMShopTemplate@@@_STL@@@2@@_STL@@KAAA_NPAU?$_Rb_tree_node@U?$pair@$$CBIPAVMShopTemplate@@@_STL@@@2@@Z ENDP ; _STL::_Rb_tree<unsigned int,_STL::pair<unsigned int const ,MShopTemplate *>,_STL::_Select1st<_STL::pair<unsigned int const ,MShopTemplate *> >,_STL::less<unsigned int>,_STL::allocator<_STL::pair<unsigned int const ,MShopTemplate *> > >::_S_color
_TEXT	ENDS
PUBLIC	??0?$allocator@U?$_Rb_tree_node@U?$pair@$$CBIPAVMShopTemplate@@@_STL@@@_STL@@@_STL@@QAE@ABV01@@Z ; _STL::allocator<_STL::_Rb_tree_node<_STL::pair<unsigned int const ,MShopTemplate *> > >::allocator<_STL::_Rb_tree_node<_STL::pair<unsigned int const ,MShopTemplate *> > >
; Function compile flags: /Ogsy
; File c:\stlport-4.6.1\stlport\stl\_alloc.h
;	COMDAT ??0?$allocator@U?$_Rb_tree_node@U?$pair@$$CBIPAVMShopTemplate@@@_STL@@@_STL@@@_STL@@QAE@ABV01@@Z
_TEXT	SEGMENT
___formal$ = 8						; size = 4
??0?$allocator@U?$_Rb_tree_node@U?$pair@$$CBIPAVMShopTemplate@@@_STL@@@_STL@@@_STL@@QAE@ABV01@@Z PROC NEAR ; _STL::allocator<_STL::_Rb_tree_node<_STL::pair<unsigned int const ,MShopTemplate *> > >::allocator<_STL::_Rb_tree_node<_STL::pair<unsigned int const ,MShopTemplate *> > >, COMDAT
; _this$ = ecx

; 349  :   allocator(const allocator<_Tp>&) _STLP_NOTHROW {}

  00000	8b c1		 mov	 eax, ecx
  00002	c2 04 00	 ret	 4
??0?$allocator@U?$_Rb_tree_node@U?$pair@$$CBIPAVMShopTemplate@@@_STL@@@_STL@@@_STL@@QAE@ABV01@@Z ENDP ; _STL::allocator<_STL::_Rb_tree_node<_STL::pair<unsigned int const ,MShopTemplate *> > >::allocator<_STL::_Rb_tree_node<_STL::pair<unsigned int const ,MShopTemplate *> > >
_TEXT	ENDS
PUBLIC	?_M_handle_exception@?$basic_ios@DV?$char_traits@D@_STL@@@_STL@@QAEXH@Z ; _STL::basic_ios<char,_STL::char_traits<char> >::_M_handle_exception
EXTRN	__CxxThrowException@8:NEAR
; Function compile flags: /Ogsy
; File c:\stlport-4.6.1\stlport\stl\_ios.c
;	COMDAT ?_M_handle_exception@?$basic_ios@DV?$char_traits@D@_STL@@@_STL@@QAEXH@Z
_TEXT	SEGMENT
___flag$ = 8						; size = 4
?_M_handle_exception@?$basic_ios@DV?$char_traits@D@_STL@@@_STL@@QAEXH@Z PROC NEAR ; _STL::basic_ios<char,_STL::char_traits<char> >::_M_handle_exception, COMDAT
; _this$ = ecx

; 118  :   this->_M_setstate_nothrow(__flag);

  00000	8b 44 24 04	 mov	 eax, DWORD PTR ___flag$[esp-4]
  00004	09 41 08	 or	 DWORD PTR [ecx+8], eax

; 119  :   if (this->_M_get_exception_mask() & __flag)

  00007	85 41 14	 test	 DWORD PTR [ecx+20], eax
  0000a	74 09		 je	 SHORT $L101759

; 120  :     _STLP_RETHROW;

  0000c	6a 00		 push	 0
  0000e	6a 00		 push	 0
  00010	e8 00 00 00 00	 call	 __CxxThrowException@8
$L102733:
$L101759:

; 121  : }

  00015	c2 04 00	 ret	 4
$L102732:
?_M_handle_exception@?$basic_ios@DV?$char_traits@D@_STL@@@_STL@@QAEXH@Z ENDP ; _STL::basic_ios<char,_STL::char_traits<char> >::_M_handle_exception
_TEXT	ENDS
PUBLIC	??$_Destroy@U?$pair@$$CBIPAVMShopTemplate@@@_STL@@@_STL@@YAXPAU?$pair@$$CBIPAVMShopTemplate@@@0@@Z ; _STL::_Destroy<_STL::pair<unsigned int const ,MShopTemplate *> >
; Function compile flags: /Ogsy
; File c:\stlport-4.6.1\stlport\stl\_construct.h
;	COMDAT ??$_Destroy@U?$pair@$$CBIPAVMShopTemplate@@@_STL@@@_STL@@YAXPAU?$pair@$$CBIPAVMShopTemplate@@@0@@Z
_TEXT	SEGMENT
___pointer$ = 8						; size = 4
??$_Destroy@U?$pair@$$CBIPAVMShopTemplate@@@_STL@@@_STL@@YAXPAU?$pair@$$CBIPAVMShopTemplate@@@0@@Z PROC NEAR ; _STL::_Destroy<_STL::pair<unsigned int const ,MShopTemplate *> >, COMDAT

; 57   : # if _MSC_VER >= 1010
; 58   :   __pointer;
; 59   : # endif	// _MSC_VER >= 1000
; 60   : # ifdef _STLP_TRIVIAL_DESTRUCTOR_BUG
; 61   :   typedef typename __type_traits<_Tp>::has_trivial_destructor _Trivial_destructor;
; 62   :   __destroy_aux(__pointer, _Trivial_destructor());
; 63   : # else
; 64   : #  if ( defined (__BORLANDC__) && ( __BORLANDC__ < 0x500 ) )
; 65   :     __pointer->_Tp::~_Tp();
; 66   : #  else
; 67   :     __pointer->~_Tp();
; 68   : #  endif
; 69   : # endif
; 70   : # ifdef _STLP_DEBUG_UNINITIALIZED
; 71   : 	memset((char*)__pointer, _STLP_SHRED_BYTE, sizeof(_Tp));
; 72   : # endif
; 73   : }

  00000	c3		 ret	 0
??$_Destroy@U?$pair@$$CBIPAVMShopTemplate@@@_STL@@@_STL@@YAXPAU?$pair@$$CBIPAVMShopTemplate@@@0@@Z ENDP ; _STL::_Destroy<_STL::pair<unsigned int const ,MShopTemplate *> >
_TEXT	ENDS
PUBLIC	??$?0U?$pair@$$CBIPAVMShopTemplate@@@_STL@@@?$allocator@U?$_Rb_tree_node@U?$pair@$$CBIPAVMShopTemplate@@@_STL@@@_STL@@@_STL@@QAE@ABV?$allocator@U?$pair@$$CBIPAVMShopTemplate@@@_STL@@@1@@Z ; _STL::allocator<_STL::_Rb_tree_node<_STL::pair<unsigned int const ,MShopTemplate *> > >::allocator<_STL::_Rb_tree_node<_STL::pair<unsigned int const ,MShopTemplate *> > ><_STL::pair<unsigned int const ,MShopTemplate *> >
; Function compile flags: /Ogsy
; File c:\stlport-4.6.1\stlport\stl\_alloc.h
;	COMDAT ??$?0U?$pair@$$CBIPAVMShopTemplate@@@_STL@@@?$allocator@U?$_Rb_tree_node@U?$pair@$$CBIPAVMShopTemplate@@@_STL@@@_STL@@@_STL@@QAE@ABV?$allocator@U?$pair@$$CBIPAVMShopTemplate@@@_STL@@@1@@Z
_TEXT	SEGMENT
___formal$ = 8						; size = 4
??$?0U?$pair@$$CBIPAVMShopTemplate@@@_STL@@@?$allocator@U?$_Rb_tree_node@U?$pair@$$CBIPAVMShopTemplate@@@_STL@@@_STL@@@_STL@@QAE@ABV?$allocator@U?$pair@$$CBIPAVMShopTemplate@@@_STL@@@1@@Z PROC NEAR ; _STL::allocator<_STL::_Rb_tree_node<_STL::pair<unsigned int const ,MShopTemplate *> > >::allocator<_STL::_Rb_tree_node<_STL::pair<unsigned int const ,MShopTemplate *> > ><_STL::pair<unsigned int const ,MShopTemplate *> >, COMDAT
; _this$ = ecx

; 347  :   template <class _Tp1> allocator(const allocator<_Tp1>&) _STLP_NOTHROW {}

  00000	8b c1		 mov	 eax, ecx
  00002	c2 04 00	 ret	 4
??$?0U?$pair@$$CBIPAVMShopTemplate@@@_STL@@@?$allocator@U?$_Rb_tree_node@U?$pair@$$CBIPAVMShopTemplate@@@_STL@@@_STL@@@_STL@@QAE@ABV?$allocator@U?$pair@$$CBIPAVMShopTemplate@@@_STL@@@1@@Z ENDP ; _STL::allocator<_STL::_Rb_tree_node<_STL::pair<unsigned int const ,MShopTemplate *> > >::allocator<_STL::_Rb_tree_node<_STL::pair<unsigned int const ,MShopTemplate *> > ><_STL::pair<unsigned int const ,MShopTemplate *> >
_TEXT	ENDS
PUBLIC	?tie@?$basic_ios@DV?$char_traits@D@_STL@@@_STL@@QBEPAV?$basic_ostream@DV?$char_traits@D@_STL@@@2@XZ ; _STL::basic_ios<char,_STL::char_traits<char> >::tie
; Function compile flags: /Ogsy
; File c:\stlport-4.6.1\stlport\stl\_ios.h
;	COMDAT ?tie@?$basic_ios@DV?$char_traits@D@_STL@@@_STL@@QBEPAV?$basic_ostream@DV?$char_traits@D@_STL@@@2@XZ
_TEXT	SEGMENT
?tie@?$basic_ios@DV?$char_traits@D@_STL@@@_STL@@QBEPAV?$basic_ostream@DV?$char_traits@D@_STL@@@2@XZ PROC NEAR ; _STL::basic_ios<char,_STL::char_traits<char> >::tie, COMDAT
; _this$ = ecx

; 62   :     return _M_tied_ostream;

  00000	8b 41 5c	 mov	 eax, DWORD PTR [ecx+92]

; 63   :   }

  00003	c3		 ret	 0
?tie@?$basic_ios@DV?$char_traits@D@_STL@@@_STL@@QBEPAV?$basic_ostream@DV?$char_traits@D@_STL@@@2@XZ ENDP ; _STL::basic_ios<char,_STL::char_traits<char> >::tie
_TEXT	ENDS
PUBLIC	?_S_left@?$_Rb_tree@IU?$pair@$$CBIPAVMShopTemplate@@@_STL@@U?$_Select1st@U?$pair@$$CBIPAVMShopTemplate@@@_STL@@@2@U?$less@I@2@V?$allocator@U?$pair@$$CBIPAVMShopTemplate@@@_STL@@@2@@_STL@@KAAAPAU?$_Rb_tree_node@U?$pair@$$CBIPAVMShopTemplate@@@_STL@@@2@PAU32@@Z ; _STL::_Rb_tree<unsigned int,_STL::pair<unsigned int const ,MShopTemplate *>,_STL::_Select1st<_STL::pair<unsigned int const ,MShopTemplate *> >,_STL::less<unsigned int>,_STL::allocator<_STL::pair<unsigned int const ,MShopTemplate *> > >::_S_left
; Function compile flags: /Ogsy
; File c:\stlport-4.6.1\stlport\stl\_tree.h
;	COMDAT ?_S_left@?$_Rb_tree@IU?$pair@$$CBIPAVMShopTemplate@@@_STL@@U?$_Select1st@U?$pair@$$CBIPAVMShopTemplate@@@_STL@@@2@U?$less@I@2@V?$allocator@U?$pair@$$CBIPAVMShopTemplate@@@_STL@@@2@@_STL@@KAAAPAU?$_Rb_tree_node@U?$pair@$$CBIPAVMShopTemplate@@@_STL@@@2@PAU32@@Z
_TEXT	SEGMENT
___x$ = 8						; size = 4
?_S_left@?$_Rb_tree@IU?$pair@$$CBIPAVMShopTemplate@@@_STL@@U?$_Select1st@U?$pair@$$CBIPAVMShopTemplate@@@_STL@@@2@U?$less@I@2@V?$allocator@U?$pair@$$CBIPAVMShopTemplate@@@_STL@@@2@@_STL@@KAAAPAU?$_Rb_tree_node@U?$pair@$$CBIPAVMShopTemplate@@@_STL@@@2@PAU32@@Z PROC NEAR ; _STL::_Rb_tree<unsigned int,_STL::pair<unsigned int const ,MShopTemplate *>,_STL::_Select1st<_STL::pair<unsigned int const ,MShopTemplate *> >,_STL::less<unsigned int>,_STL::allocator<_STL::pair<unsigned int const ,MShopTemplate *> > >::_S_left, COMDAT

; 272  :     { return (_Link_type&)(__x->_M_left); }

  00000	8b 44 24 04	 mov	 eax, DWORD PTR ___x$[esp-4]
  00004	83 c0 08	 add	 eax, 8
  00007	c3		 ret	 0
?_S_left@?$_Rb_tree@IU?$pair@$$CBIPAVMShopTemplate@@@_STL@@U?$_Select1st@U?$pair@$$CBIPAVMShopTemplate@@@_STL@@@2@U?$less@I@2@V?$allocator@U?$pair@$$CBIPAVMShopTemplate@@@_STL@@@2@@_STL@@KAAAPAU?$_Rb_tree_node@U?$pair@$$CBIPAVMShopTemplate@@@_STL@@@2@PAU32@@Z ENDP ; _STL::_Rb_tree<unsigned int,_STL::pair<unsigned int const ,MShopTemplate *>,_STL::_Select1st<_STL::pair<unsigned int const ,MShopTemplate *> >,_STL::less<unsigned int>,_STL::allocator<_STL::pair<unsigned int const ,MShopTemplate *> > >::_S_left
_TEXT	ENDS
PUBLIC	?_S_right@?$_Rb_tree@IU?$pair@$$CBIPAVMShopTemplate@@@_STL@@U?$_Select1st@U?$pair@$$CBIPAVMShopTemplate@@@_STL@@@2@U?$less@I@2@V?$allocator@U?$pair@$$CBIPAVMShopTemplate@@@_STL@@@2@@_STL@@KAAAPAU?$_Rb_tree_node@U?$pair@$$CBIPAVMShopTemplate@@@_STL@@@2@PAU32@@Z ; _STL::_Rb_tree<unsigned int,_STL::pair<unsigned int const ,MShopTemplate *>,_STL::_Select1st<_STL::pair<unsigned int const ,MShopTemplate *> >,_STL::less<unsigned int>,_STL::allocator<_STL::pair<unsigned int const ,MShopTemplate *> > >::_S_right
; Function compile flags: /Ogsy
;	COMDAT ?_S_right@?$_Rb_tree@IU?$pair@$$CBIPAVMShopTemplate@@@_STL@@U?$_Select1st@U?$pair@$$CBIPAVMShopTemplate@@@_STL@@@2@U?$less@I@2@V?$allocator@U?$pair@$$CBIPAVMShopTemplate@@@_STL@@@2@@_STL@@KAAAPAU?$_Rb_tree_node@U?$pair@$$CBIPAVMShopTemplate@@@_STL@@@2@PAU32@@Z
_TEXT	SEGMENT
___x$ = 8						; size = 4
?_S_right@?$_Rb_tree@IU?$pair@$$CBIPAVMShopTemplate@@@_STL@@U?$_Select1st@U?$pair@$$CBIPAVMShopTemplate@@@_STL@@@2@U?$less@I@2@V?$allocator@U?$pair@$$CBIPAVMShopTemplate@@@_STL@@@2@@_STL@@KAAAPAU?$_Rb_tree_node@U?$pair@$$CBIPAVMShopTemplate@@@_STL@@@2@PAU32@@Z PROC NEAR ; _STL::_Rb_tree<unsigned int,_STL::pair<unsigned int const ,MShopTemplate *>,_STL::_Select1st<_STL::pair<unsigned int const ,MShopTemplate *> >,_STL::less<unsigned int>,_STL::allocator<_STL::pair<unsigned int const ,MShopTemplate *> > >::_S_right, COMDAT

; 274  :     { return (_Link_type&)(__x->_M_right); }

  00000	8b 44 24 04	 mov	 eax, DWORD PTR ___x$[esp-4]
  00004	83 c0 0c	 add	 eax, 12			; 0000000cH
  00007	c3		 ret	 0
?_S_right@?$_Rb_tree@IU?$pair@$$CBIPAVMShopTemplate@@@_STL@@U?$_Select1st@U?$pair@$$CBIPAVMShopTemplate@@@_STL@@@2@U?$less@I@2@V?$allocator@U?$pair@$$CBIPAVMShopTemplate@@@_STL@@@2@@_STL@@KAAAPAU?$_Rb_tree_node@U?$pair@$$CBIPAVMShopTemplate@@@_STL@@@2@PAU32@@Z ENDP ; _STL::_Rb_tree<unsigned int,_STL::pair<unsigned int const ,MShopTemplate *>,_STL::_Select1st<_STL::pair<unsigned int const ,MShopTemplate *> >,_STL::less<unsigned int>,_STL::allocator<_STL::pair<unsigned int const ,MShopTemplate *> > >::_S_right
_TEXT	ENDS
PUBLIC	?pubsync@?$basic_streambuf@DV?$char_traits@D@_STL@@@_STL@@QAEHXZ ; _STL::basic_streambuf<char,_STL::char_traits<char> >::pubsync
; Function compile flags: /Ogsy
; File c:\stlport-4.6.1\stlport\stl\_streambuf.h
;	COMDAT ?pubsync@?$basic_streambuf@DV?$char_traits@D@_STL@@@_STL@@QAEHXZ
_TEXT	SEGMENT
?pubsync@?$basic_streambuf@DV?$char_traits@D@_STL@@@_STL@@QAEHXZ PROC NEAR ; _STL::basic_streambuf<char,_STL::char_traits<char> >::pubsync, COMDAT
; _this$ = ecx

; 411  :   int pubsync() { return this->sync(); }

  00000	8b 01		 mov	 eax, DWORD PTR [ecx]
  00002	ff 60 10	 jmp	 DWORD PTR [eax+16]
?pubsync@?$basic_streambuf@DV?$char_traits@D@_STL@@@_STL@@QAEHXZ ENDP ; _STL::basic_streambuf<char,_STL::char_traits<char> >::pubsync
_TEXT	ENDS
PUBLIC	?sputn@?$basic_streambuf@DV?$char_traits@D@_STL@@@_STL@@QAEHPBDH@Z ; _STL::basic_streambuf<char,_STL::char_traits<char> >::sputn
; Function compile flags: /Ogsy
;	COMDAT ?sputn@?$basic_streambuf@DV?$char_traits@D@_STL@@@_STL@@QAEHPBDH@Z
_TEXT	SEGMENT
___s$ = 8						; size = 4
___n$ = 12						; size = 4
?sputn@?$basic_streambuf@DV?$char_traits@D@_STL@@@_STL@@QAEHPBDH@Z PROC NEAR ; _STL::basic_streambuf<char,_STL::char_traits<char> >::sputn, COMDAT
; _this$ = ecx

; 441  :     { return this->xsputn(__s, __n); }

  00000	8b 01		 mov	 eax, DWORD PTR [ecx]
  00002	ff 60 28	 jmp	 DWORD PTR [eax+40]
?sputn@?$basic_streambuf@DV?$char_traits@D@_STL@@@_STL@@QAEHPBDH@Z ENDP ; _STL::basic_streambuf<char,_STL::char_traits<char> >::sputn
_TEXT	ENDS
PUBLIC	??9_Rb_tree_base_iterator@_STL@@QBE_NABU01@@Z	; _STL::_Rb_tree_base_iterator::operator!=
; Function compile flags: /Ogsy
; File c:\stlport-4.6.1\stlport\stl\_tree.h
;	COMDAT ??9_Rb_tree_base_iterator@_STL@@QBE_NABU01@@Z
_TEXT	SEGMENT
___y$ = 8						; size = 4
??9_Rb_tree_base_iterator@_STL@@QBE_NABU01@@Z PROC NEAR	; _STL::_Rb_tree_base_iterator::operator!=, COMDAT
; _this$ = ecx

; 150  :     return _M_node != __y._M_node;

  00000	8b 01		 mov	 eax, DWORD PTR [ecx]
  00002	8b 54 24 04	 mov	 edx, DWORD PTR ___y$[esp-4]
  00006	33 c9		 xor	 ecx, ecx
  00008	3b 02		 cmp	 eax, DWORD PTR [edx]
  0000a	0f 95 c1	 setne	 cl
  0000d	8a c1		 mov	 al, cl

; 151  :   }

  0000f	c2 04 00	 ret	 4
??9_Rb_tree_base_iterator@_STL@@QBE_NABU01@@Z ENDP	; _STL::_Rb_tree_base_iterator::operator!=
_TEXT	ENDS
PUBLIC	?allocate@?$__node_alloc@$00$0A@@_STL@@SAPAXI@Z	; _STL::__node_alloc<1,0>::allocate
EXTRN	?_M_allocate@?$__node_alloc@$00$0A@@_STL@@CAPAXI@Z:NEAR ; _STL::__node_alloc<1,0>::_M_allocate
; Function compile flags: /Ogsy
; File c:\stlport-4.6.1\stlport\stl\_alloc.h
;	COMDAT ?allocate@?$__node_alloc@$00$0A@@_STL@@SAPAXI@Z
_TEXT	SEGMENT
___n$ = 8						; size = 4
?allocate@?$__node_alloc@$00$0A@@_STL@@SAPAXI@Z PROC NEAR ; _STL::__node_alloc<1,0>::allocate, COMDAT

; 251  :   static void * _STLP_CALL allocate(size_t __n) { return (__n > (size_t)_MAX_BYTES) ?  __stl_new(__n) : _M_allocate(__n); }

  00000	8b 44 24 04	 mov	 eax, DWORD PTR ___n$[esp-4]
  00004	3d 80 00 00 00	 cmp	 eax, 128		; 00000080H
  00009	50		 push	 eax
  0000a	76 07		 jbe	 SHORT $L102763
  0000c	e8 00 00 00 00	 call	 ??2@YAPAXI@Z		; operator new
  00011	59		 pop	 ecx
  00012	c3		 ret	 0
$L102763:
  00013	e8 00 00 00 00	 call	 ?_M_allocate@?$__node_alloc@$00$0A@@_STL@@CAPAXI@Z ; _STL::__node_alloc<1,0>::_M_allocate
  00018	59		 pop	 ecx
  00019	c3		 ret	 0
?allocate@?$__node_alloc@$00$0A@@_STL@@SAPAXI@Z ENDP	; _STL::__node_alloc<1,0>::allocate
_TEXT	ENDS
PUBLIC	?deallocate@?$__node_alloc@$00$0A@@_STL@@SAXPAXI@Z ; _STL::__node_alloc<1,0>::deallocate
EXTRN	?_M_deallocate@?$__node_alloc@$00$0A@@_STL@@CAXPAXI@Z:NEAR ; _STL::__node_alloc<1,0>::_M_deallocate
; Function compile flags: /Ogsy
;	COMDAT ?deallocate@?$__node_alloc@$00$0A@@_STL@@SAXPAXI@Z
_TEXT	SEGMENT
___p$ = 8						; size = 4
___n$ = 12						; size = 4
?deallocate@?$__node_alloc@$00$0A@@_STL@@SAXPAXI@Z PROC NEAR ; _STL::__node_alloc<1,0>::deallocate, COMDAT

; 253  :   static void _STLP_CALL deallocate(void *__p, size_t __n) { if (__n > (size_t)_MAX_BYTES) __stl_delete(__p); else _M_deallocate(__p, __n); }

  00000	81 7c 24 08 80
	00 00 00	 cmp	 DWORD PTR ___n$[esp-4], 128 ; 00000080H
  00008	76 0b		 jbe	 SHORT $L98677
  0000a	ff 74 24 04	 push	 DWORD PTR ___p$[esp-4]
  0000e	e8 00 00 00 00	 call	 ??3@YAXPAX@Z		; operator delete
  00013	59		 pop	 ecx
  00014	c3		 ret	 0
$L98677:
  00015	e9 00 00 00 00	 jmp	 ?_M_deallocate@?$__node_alloc@$00$0A@@_STL@@CAXPAXI@Z ; _STL::__node_alloc<1,0>::_M_deallocate
?deallocate@?$__node_alloc@$00$0A@@_STL@@SAXPAXI@Z ENDP	; _STL::__node_alloc<1,0>::deallocate
_TEXT	ENDS
PUBLIC	?setstate@?$basic_ios@DV?$char_traits@D@_STL@@@_STL@@QAEXH@Z ; _STL::basic_ios<char,_STL::char_traits<char> >::setstate
; Function compile flags: /Ogsy
; File c:\stlport-4.6.1\stlport\stl\_ios.h
;	COMDAT ?setstate@?$basic_ios@DV?$char_traits@D@_STL@@@_STL@@QAEXH@Z
_TEXT	SEGMENT
___state$ = 8						; size = 4
?setstate@?$basic_ios@DV?$char_traits@D@_STL@@@_STL@@QAEXH@Z PROC NEAR ; _STL::basic_ios<char,_STL::char_traits<char> >::setstate, COMDAT
; _this$ = ecx

; 94   :   void setstate(iostate __state) { this->clear(rdstate() | __state); }

  00000	8b 41 08	 mov	 eax, DWORD PTR [ecx+8]
  00003	0b 44 24 04	 or	 eax, DWORD PTR ___state$[esp-4]
  00007	50		 push	 eax
  00008	e8 00 00 00 00	 call	 ?clear@?$basic_ios@DV?$char_traits@D@_STL@@@_STL@@QAEXH@Z ; _STL::basic_ios<char,_STL::char_traits<char> >::clear
  0000d	c2 04 00	 ret	 4
?setstate@?$basic_ios@DV?$char_traits@D@_STL@@@_STL@@QAEXH@Z ENDP ; _STL::basic_ios<char,_STL::char_traits<char> >::setstate
_TEXT	ENDS
PUBLIC	?flush@?$basic_ostream@DV?$char_traits@D@_STL@@@_STL@@QAEAAV12@XZ ; _STL::basic_ostream<char,_STL::char_traits<char> >::flush
; Function compile flags: /Ogsy
; File c:\stlport-4.6.1\stlport\stl\_ostream.h
;	COMDAT ?flush@?$basic_ostream@DV?$char_traits@D@_STL@@@_STL@@QAEAAV12@XZ
_TEXT	SEGMENT
?flush@?$basic_ostream@DV?$char_traits@D@_STL@@@_STL@@QAEAAV12@XZ PROC NEAR ; _STL::basic_ostream<char,_STL::char_traits<char> >::flush, COMDAT
; _this$ = ecx

; 120  :   _Self& flush() {

  00000	56		 push	 esi
  00001	8b f1		 mov	 esi, ecx

; 121  :     if (this->rdbuf())

  00003	8b 06		 mov	 eax, DWORD PTR [esi]
  00005	8b 40 04	 mov	 eax, DWORD PTR [eax+4]
  00008	8b 4c 30 58	 mov	 ecx, DWORD PTR [eax+esi+88]
  0000c	85 c9		 test	 ecx, ecx
  0000e	74 1d		 je	 SHORT $L102801

; 122  :       if (this->rdbuf()->pubsync() == -1)

  00010	8b 01		 mov	 eax, DWORD PTR [ecx]
  00012	ff 50 10	 call	 DWORD PTR [eax+16]
  00015	83 f8 ff	 cmp	 eax, -1
  00018	75 13		 jne	 SHORT $L102801

; 123  :         this->setstate(ios_base::badbit);

  0001a	8b 06		 mov	 eax, DWORD PTR [esi]
  0001c	8b 48 04	 mov	 ecx, DWORD PTR [eax+4]
  0001f	03 ce		 add	 ecx, esi
  00021	8b 41 08	 mov	 eax, DWORD PTR [ecx+8]
  00024	83 c8 01	 or	 eax, 1
  00027	50		 push	 eax
  00028	e8 00 00 00 00	 call	 ?clear@?$basic_ios@DV?$char_traits@D@_STL@@@_STL@@QAEXH@Z ; _STL::basic_ios<char,_STL::char_traits<char> >::clear
$L102801:

; 124  :     return *this;

  0002d	8b c6		 mov	 eax, esi
  0002f	5e		 pop	 esi

; 125  :   }

  00030	c3		 ret	 0
?flush@?$basic_ostream@DV?$char_traits@D@_STL@@@_STL@@QAEAAV12@XZ ENDP ; _STL::basic_ostream<char,_STL::char_traits<char> >::flush
_TEXT	ENDS
PUBLIC	?begin@?$_Rb_tree@IU?$pair@$$CBIPAVMShopTemplate@@@_STL@@U?$_Select1st@U?$pair@$$CBIPAVMShopTemplate@@@_STL@@@2@U?$less@I@2@V?$allocator@U?$pair@$$CBIPAVMShopTemplate@@@_STL@@@2@@_STL@@QAE?AU?$_Rb_tree_iterator@U?$pair@$$CBIPAVMShopTemplate@@@_STL@@U?$_Nonconst_traits@U?$pair@$$CBIPAVMShopTemplate@@@_STL@@@2@@2@XZ ; _STL::_Rb_tree<unsigned int,_STL::pair<unsigned int const ,MShopTemplate *>,_STL::_Select1st<_STL::pair<unsigned int const ,MShopTemplate *> >,_STL::less<unsigned int>,_STL::allocator<_STL::pair<unsigned int const ,MShopTemplate *> > >::begin
; Function compile flags: /Ogsy
; File c:\stlport-4.6.1\stlport\stl\_tree.h
;	COMDAT ?begin@?$_Rb_tree@IU?$pair@$$CBIPAVMShopTemplate@@@_STL@@U?$_Select1st@U?$pair@$$CBIPAVMShopTemplate@@@_STL@@@2@U?$less@I@2@V?$allocator@U?$pair@$$CBIPAVMShopTemplate@@@_STL@@@2@@_STL@@QAE?AU?$_Rb_tree_iterator@U?$pair@$$CBIPAVMShopTemplate@@@_STL@@U?$_Nonconst_traits@U?$pair@$$CBIPAVMShopTemplate@@@_STL@@@2@@2@XZ
_TEXT	SEGMENT
___$ReturnUdt$ = 8					; size = 4
?begin@?$_Rb_tree@IU?$pair@$$CBIPAVMShopTemplate@@@_STL@@U?$_Select1st@U?$pair@$$CBIPAVMShopTemplate@@@_STL@@@2@U?$less@I@2@V?$allocator@U?$pair@$$CBIPAVMShopTemplate@@@_STL@@@2@@_STL@@QAE?AU?$_Rb_tree_iterator@U?$pair@$$CBIPAVMShopTemplate@@@_STL@@U?$_Nonconst_traits@U?$pair@$$CBIPAVMShopTemplate@@@_STL@@@2@@2@XZ PROC NEAR ; _STL::_Rb_tree<unsigned int,_STL::pair<unsigned int const ,MShopTemplate *>,_STL::_Select1st<_STL::pair<unsigned int const ,MShopTemplate *> >,_STL::less<unsigned int>,_STL::allocator<_STL::pair<unsigned int const ,MShopTemplate *> > >::begin, COMDAT
; _this$ = ecx

; 357  :   iterator begin() { return iterator(_M_leftmost()); }

  00000	8b 01		 mov	 eax, DWORD PTR [ecx]
  00002	8b 48 08	 mov	 ecx, DWORD PTR [eax+8]
  00005	8b 44 24 04	 mov	 eax, DWORD PTR ___$ReturnUdt$[esp-4]
  00009	89 08		 mov	 DWORD PTR [eax], ecx
  0000b	c2 04 00	 ret	 4
?begin@?$_Rb_tree@IU?$pair@$$CBIPAVMShopTemplate@@@_STL@@U?$_Select1st@U?$pair@$$CBIPAVMShopTemplate@@@_STL@@@2@U?$less@I@2@V?$allocator@U?$pair@$$CBIPAVMShopTemplate@@@_STL@@@2@@_STL@@QAE?AU?$_Rb_tree_iterator@U?$pair@$$CBIPAVMShopTemplate@@@_STL@@U?$_Nonconst_traits@U?$pair@$$CBIPAVMShopTemplate@@@_STL@@@2@@2@XZ ENDP ; _STL::_Rb_tree<unsigned int,_STL::pair<unsigned int const ,MShopTemplate *>,_STL::_Select1st<_STL::pair<unsigned int const ,MShopTemplate *> >,_STL::less<unsigned int>,_STL::allocator<_STL::pair<unsigned int const ,MShopTemplate *> > >::begin
_TEXT	ENDS
PUBLIC	?end@?$_Rb_tree@IU?$pair@$$CBIPAVMShopTemplate@@@_STL@@U?$_Select1st@U?$pair@$$CBIPAVMShopTemplate@@@_STL@@@2@U?$less@I@2@V?$allocator@U?$pair@$$CBIPAVMShopTemplate@@@_STL@@@2@@_STL@@QAE?AU?$_Rb_tree_iterator@U?$pair@$$CBIPAVMShopTemplate@@@_STL@@U?$_Nonconst_traits@U?$pair@$$CBIPAVMShopTemplate@@@_STL@@@2@@2@XZ ; _STL::_Rb_tree<unsigned int,_STL::pair<unsigned int const ,MShopTemplate *>,_STL::_Select1st<_STL::pair<unsigned int const ,MShopTemplate *> >,_STL::less<unsigned int>,_STL::allocator<_STL::pair<unsigned int const ,MShopTemplate *> > >::end
; Function compile flags: /Ogsy
;	COMDAT ?end@?$_Rb_tree@IU?$pair@$$CBIPAVMShopTemplate@@@_STL@@U?$_Select1st@U?$pair@$$CBIPAVMShopTemplate@@@_STL@@@2@U?$less@I@2@V?$allocator@U?$pair@$$CBIPAVMShopTemplate@@@_STL@@@2@@_STL@@QAE?AU?$_Rb_tree_iterator@U?$pair@$$CBIPAVMShopTemplate@@@_STL@@U?$_Nonconst_traits@U?$pair@$$CBIPAVMShopTemplate@@@_STL@@@2@@2@XZ
_TEXT	SEGMENT
___$ReturnUdt$ = 8					; size = 4
?end@?$_Rb_tree@IU?$pair@$$CBIPAVMShopTemplate@@@_STL@@U?$_Select1st@U?$pair@$$CBIPAVMShopTemplate@@@_STL@@@2@U?$less@I@2@V?$allocator@U?$pair@$$CBIPAVMShopTemplate@@@_STL@@@2@@_STL@@QAE?AU?$_Rb_tree_iterator@U?$pair@$$CBIPAVMShopTemplate@@@_STL@@U?$_Nonconst_traits@U?$pair@$$CBIPAVMShopTemplate@@@_STL@@@2@@2@XZ PROC NEAR ; _STL::_Rb_tree<unsigned int,_STL::pair<unsigned int const ,MShopTemplate *>,_STL::_Select1st<_STL::pair<unsigned int const ,MShopTemplate *> >,_STL::less<unsigned int>,_STL::allocator<_STL::pair<unsigned int const ,MShopTemplate *> > >::end, COMDAT
; _this$ = ecx

; 359  :   iterator end() { return iterator(this->_M_header._M_data); }

  00000	8b 09		 mov	 ecx, DWORD PTR [ecx]
  00002	8b 44 24 04	 mov	 eax, DWORD PTR ___$ReturnUdt$[esp-4]
  00006	89 08		 mov	 DWORD PTR [eax], ecx
  00008	c2 04 00	 ret	 4
?end@?$_Rb_tree@IU?$pair@$$CBIPAVMShopTemplate@@@_STL@@U?$_Select1st@U?$pair@$$CBIPAVMShopTemplate@@@_STL@@@2@U?$less@I@2@V?$allocator@U?$pair@$$CBIPAVMShopTemplate@@@_STL@@@2@@_STL@@QAE?AU?$_Rb_tree_iterator@U?$pair@$$CBIPAVMShopTemplate@@@_STL@@U?$_Nonconst_traits@U?$pair@$$CBIPAVMShopTemplate@@@_STL@@@2@@2@XZ ENDP ; _STL::_Rb_tree<unsigned int,_STL::pair<unsigned int const ,MShopTemplate *>,_STL::_Select1st<_STL::pair<unsigned int const ,MShopTemplate *> >,_STL::less<unsigned int>,_STL::allocator<_STL::pair<unsigned int const ,MShopTemplate *> > >::end
_TEXT	ENDS
PUBLIC	??1?$_STLP_alloc_proxy@PAU?$_Rb_tree_node@U?$pair@$$CBIPAVMShopTemplate@@@_STL@@@_STL@@U12@V?$allocator@U?$_Rb_tree_node@U?$pair@$$CBIPAVMShopTemplate@@@_STL@@@_STL@@@2@@_STL@@QAE@XZ ; _STL::_STLP_alloc_proxy<_STL::_Rb_tree_node<_STL::pair<unsigned int const ,MShopTemplate *> > *,_STL::_Rb_tree_node<_STL::pair<unsigned int const ,MShopTemplate *> >,_STL::allocator<_STL::_Rb_tree_node<_STL::pair<unsigned int const ,MShopTemplate *> > > >::~_STLP_alloc_proxy<_STL::_Rb_tree_node<_STL::pair<unsigned int const ,MShopTemplate *> > *,_STL::_Rb_tree_node<_STL::pair<unsigned int const ,MShopTemplate *> >,_STL::allocator<_STL::_Rb_tree_node<_STL::pair<unsigned int const ,MShopTemplate *> > > >
; Function compile flags: /Ogsy
;	COMDAT ??1?$_STLP_alloc_proxy@PAU?$_Rb_tree_node@U?$pair@$$CBIPAVMShopTemplate@@@_STL@@@_STL@@U12@V?$allocator@U?$_Rb_tree_node@U?$pair@$$CBIPAVMShopTemplate@@@_STL@@@_STL@@@2@@_STL@@QAE@XZ
_TEXT	SEGMENT
??1?$_STLP_alloc_proxy@PAU?$_Rb_tree_node@U?$pair@$$CBIPAVMShopTemplate@@@_STL@@@_STL@@U12@V?$allocator@U?$_Rb_tree_node@U?$pair@$$CBIPAVMShopTemplate@@@_STL@@@_STL@@@2@@_STL@@QAE@XZ PROC NEAR ; _STL::_STLP_alloc_proxy<_STL::_Rb_tree_node<_STL::pair<unsigned int const ,MShopTemplate *> > *,_STL::_Rb_tree_node<_STL::pair<unsigned int const ,MShopTemplate *> >,_STL::allocator<_STL::_Rb_tree_node<_STL::pair<unsigned int const ,MShopTemplate *> > > >::~_STLP_alloc_proxy<_STL::_Rb_tree_node<_STL::pair<unsigned int const ,MShopTemplate *> > *,_STL::_Rb_tree_node<_STL::pair<unsigned int const ,MShopTemplate *> >,_STL::allocator<_STL::_Rb_tree_node<_STL::pair<unsigned int const ,MShopTemplate *> > > >, COMDAT
; _this$ = ecx
  00000	c3		 ret	 0
??1?$_STLP_alloc_proxy@PAU?$_Rb_tree_node@U?$pair@$$CBIPAVMShopTemplate@@@_STL@@@_STL@@U12@V?$allocator@U?$_Rb_tree_node@U?$pair@$$CBIPAVMShopTemplate@@@_STL@@@_STL@@@2@@_STL@@QAE@XZ ENDP ; _STL::_STLP_alloc_proxy<_STL::_Rb_tree_node<_STL::pair<unsigned int const ,MShopTemplate *> > *,_STL::_Rb_tree_node<_STL::pair<unsigned int const ,MShopTemplate *> >,_STL::allocator<_STL::_Rb_tree_node<_STL::pair<unsigned int const ,MShopTemplate *> > > >::~_STLP_alloc_proxy<_STL::_Rb_tree_node<_STL::pair<unsigned int const ,MShopTemplate *> > *,_STL::_Rb_tree_node<_STL::pair<unsigned int const ,MShopTemplate *> >,_STL::allocator<_STL::_Rb_tree_node<_STL::pair<unsigned int const ,MShopTemplate *> > > >
_TEXT	ENDS
PUBLIC	?_M_empty_initialize@?$_Rb_tree@IU?$pair@$$CBIPAVMShopTemplate@@@_STL@@U?$_Select1st@U?$pair@$$CBIPAVMShopTemplate@@@_STL@@@2@U?$less@I@2@V?$allocator@U?$pair@$$CBIPAVMShopTemplate@@@_STL@@@2@@_STL@@AAEXXZ ; _STL::_Rb_tree<unsigned int,_STL::pair<unsigned int const ,MShopTemplate *>,_STL::_Select1st<_STL::pair<unsigned int const ,MShopTemplate *> >,_STL::less<unsigned int>,_STL::allocator<_STL::pair<unsigned int const ,MShopTemplate *> > >::_M_empty_initialize
; Function compile flags: /Ogsy
;	COMDAT ?_M_empty_initialize@?$_Rb_tree@IU?$pair@$$CBIPAVMShopTemplate@@@_STL@@U?$_Select1st@U?$pair@$$CBIPAVMShopTemplate@@@_STL@@@2@U?$less@I@2@V?$allocator@U?$pair@$$CBIPAVMShopTemplate@@@_STL@@@2@@_STL@@AAEXXZ
_TEXT	SEGMENT
?_M_empty_initialize@?$_Rb_tree@IU?$pair@$$CBIPAVMShopTemplate@@@_STL@@U?$_Select1st@U?$pair@$$CBIPAVMShopTemplate@@@_STL@@@2@U?$less@I@2@V?$allocator@U?$pair@$$CBIPAVMShopTemplate@@@_STL@@@2@@_STL@@AAEXXZ PROC NEAR ; _STL::_Rb_tree<unsigned int,_STL::pair<unsigned int const ,MShopTemplate *>,_STL::_Select1st<_STL::pair<unsigned int const ,MShopTemplate *> >,_STL::less<unsigned int>,_STL::allocator<_STL::pair<unsigned int const ,MShopTemplate *> > >::_M_empty_initialize, COMDAT
; _this$ = ecx

; 346  :     _S_color(this->_M_header._M_data) = _S_rb_tree_red; // used to distinguish header from 

  00000	8b 01		 mov	 eax, DWORD PTR [ecx]
  00002	c6 00 00	 mov	 BYTE PTR [eax], 0

; 347  :                                           // __root, in iterator.operator++
; 348  :     _M_root() = 0;

  00005	8b 01		 mov	 eax, DWORD PTR [ecx]
  00007	83 60 04 00	 and	 DWORD PTR [eax+4], 0

; 349  :     _M_leftmost() = this->_M_header._M_data;

  0000b	8b 01		 mov	 eax, DWORD PTR [ecx]
  0000d	89 40 08	 mov	 DWORD PTR [eax+8], eax

; 350  :     _M_rightmost() = this->_M_header._M_data;

  00010	8b 09		 mov	 ecx, DWORD PTR [ecx]
  00012	89 49 0c	 mov	 DWORD PTR [ecx+12], ecx

; 351  :   }

  00015	c3		 ret	 0
?_M_empty_initialize@?$_Rb_tree@IU?$pair@$$CBIPAVMShopTemplate@@@_STL@@U?$_Select1st@U?$pair@$$CBIPAVMShopTemplate@@@_STL@@@2@U?$less@I@2@V?$allocator@U?$pair@$$CBIPAVMShopTemplate@@@_STL@@@2@@_STL@@AAEXXZ ENDP ; _STL::_Rb_tree<unsigned int,_STL::pair<unsigned int const ,MShopTemplate *>,_STL::_Select1st<_STL::pair<unsigned int const ,MShopTemplate *> >,_STL::less<unsigned int>,_STL::allocator<_STL::pair<unsigned int const ,MShopTemplate *> > >::_M_empty_initialize
_TEXT	ENDS
PUBLIC	?deallocate@?$allocator@U?$_Rb_tree_node@U?$pair@$$CBIPAVMShopTemplate@@@_STL@@@_STL@@@_STL@@QAEXPAU?$_Rb_tree_node@U?$pair@$$CBIPAVMShopTemplate@@@_STL@@@2@I@Z ; _STL::allocator<_STL::_Rb_tree_node<_STL::pair<unsigned int const ,MShopTemplate *> > >::deallocate
; Function compile flags: /Ogsy
; File c:\stlport-4.6.1\stlport\stl\_alloc.h
;	COMDAT ?deallocate@?$allocator@U?$_Rb_tree_node@U?$pair@$$CBIPAVMShopTemplate@@@_STL@@@_STL@@@_STL@@QAEXPAU?$_Rb_tree_node@U?$pair@$$CBIPAVMShopTemplate@@@_STL@@@2@I@Z
_TEXT	SEGMENT
___p$ = 8						; size = 4
___n$ = 12						; size = 4
?deallocate@?$allocator@U?$_Rb_tree_node@U?$pair@$$CBIPAVMShopTemplate@@@_STL@@@_STL@@@_STL@@QAEXPAU?$_Rb_tree_node@U?$pair@$$CBIPAVMShopTemplate@@@_STL@@@2@I@Z PROC NEAR ; _STL::allocator<_STL::_Rb_tree_node<_STL::pair<unsigned int const ,MShopTemplate *> > >::deallocate, COMDAT
; _this$ = ecx

; 359  :     _STLP_ASSERT( (__p == 0) == (__n == 0) )
; 360  :       if (__p != 0) __sgi_alloc::deallocate((void*)__p, __n * sizeof(value_type));

  00000	83 7c 24 04 00	 cmp	 DWORD PTR ___p$[esp-4], 0
  00005	74 16		 je	 SHORT $L101705
  00007	8b 44 24 08	 mov	 eax, DWORD PTR ___n$[esp-4]
  0000b	8d 04 40	 lea	 eax, DWORD PTR [eax+eax*2]
  0000e	c1 e0 03	 shl	 eax, 3
  00011	50		 push	 eax
  00012	ff 74 24 08	 push	 DWORD PTR ___p$[esp]
  00016	e8 00 00 00 00	 call	 ?deallocate@?$__node_alloc@$00$0A@@_STL@@SAXPAXI@Z ; _STL::__node_alloc<1,0>::deallocate
  0001b	59		 pop	 ecx
  0001c	59		 pop	 ecx
$L101705:

; 361  :   }

  0001d	c2 08 00	 ret	 8
?deallocate@?$allocator@U?$_Rb_tree_node@U?$pair@$$CBIPAVMShopTemplate@@@_STL@@@_STL@@@_STL@@QAEXPAU?$_Rb_tree_node@U?$pair@$$CBIPAVMShopTemplate@@@_STL@@@2@I@Z ENDP ; _STL::allocator<_STL::_Rb_tree_node<_STL::pair<unsigned int const ,MShopTemplate *> > >::deallocate
_TEXT	ENDS
PUBLIC	??0?$_STLP_alloc_proxy@PAU?$_Rb_tree_node@U?$pair@$$CBIPAVMShopTemplate@@@_STL@@@_STL@@U12@V?$allocator@U?$_Rb_tree_node@U?$pair@$$CBIPAVMShopTemplate@@@_STL@@@_STL@@@2@@_STL@@QAE@ABV?$allocator@U?$_Rb_tree_node@U?$pair@$$CBIPAVMShopTemplate@@@_STL@@@_STL@@@1@PAU?$_Rb_tree_node@U?$pair@$$CBIPAVMShopTemplate@@@_STL@@@1@@Z ; _STL::_STLP_alloc_proxy<_STL::_Rb_tree_node<_STL::pair<unsigned int const ,MShopTemplate *> > *,_STL::_Rb_tree_node<_STL::pair<unsigned int const ,MShopTemplate *> >,_STL::allocator<_STL::_Rb_tree_node<_STL::pair<unsigned int const ,MShopTemplate *> > > >::_STLP_alloc_proxy<_STL::_Rb_tree_node<_STL::pair<unsigned int const ,MShopTemplate *> > *,_STL::_Rb_tree_node<_STL::pair<unsigned int const ,MShopTemplate *> >,_STL::allocator<_STL::_Rb_tree_node<_STL::pair<unsigned int const ,MShopTemplate *> > > >
; Function compile flags: /Ogsy
;	COMDAT ??0?$_STLP_alloc_proxy@PAU?$_Rb_tree_node@U?$pair@$$CBIPAVMShopTemplate@@@_STL@@@_STL@@U12@V?$allocator@U?$_Rb_tree_node@U?$pair@$$CBIPAVMShopTemplate@@@_STL@@@_STL@@@2@@_STL@@QAE@ABV?$allocator@U?$_Rb_tree_node@U?$pair@$$CBIPAVMShopTemplate@@@_STL@@@_STL@@@1@PAU?$_Rb_tree_node@U?$pair@$$CBIPAVMShopTemplate@@@_STL@@@1@@Z
_TEXT	SEGMENT
___a$ = 8						; size = 4
___p$ = 12						; size = 4
??0?$_STLP_alloc_proxy@PAU?$_Rb_tree_node@U?$pair@$$CBIPAVMShopTemplate@@@_STL@@@_STL@@U12@V?$allocator@U?$_Rb_tree_node@U?$pair@$$CBIPAVMShopTemplate@@@_STL@@@_STL@@@2@@_STL@@QAE@ABV?$allocator@U?$_Rb_tree_node@U?$pair@$$CBIPAVMShopTemplate@@@_STL@@@_STL@@@1@PAU?$_Rb_tree_node@U?$pair@$$CBIPAVMShopTemplate@@@_STL@@@1@@Z PROC NEAR ; _STL::_STLP_alloc_proxy<_STL::_Rb_tree_node<_STL::pair<unsigned int const ,MShopTemplate *> > *,_STL::_Rb_tree_node<_STL::pair<unsigned int const ,MShopTemplate *> >,_STL::allocator<_STL::_Rb_tree_node<_STL::pair<unsigned int const ,MShopTemplate *> > > >::_STLP_alloc_proxy<_STL::_Rb_tree_node<_STL::pair<unsigned int const ,MShopTemplate *> > *,_STL::_Rb_tree_node<_STL::pair<unsigned int const ,MShopTemplate *> >,_STL::allocator<_STL::_Rb_tree_node<_STL::pair<unsigned int const ,MShopTemplate *> > > >, COMDAT
; _this$ = ecx

; 487  :   inline _STLP_alloc_proxy(const _MaybeReboundAlloc& __a, _Value __p) : _MaybeReboundAlloc(__a), _M_data(__p) {}

  00000	8b c1		 mov	 eax, ecx
  00002	8b 4c 24 08	 mov	 ecx, DWORD PTR ___p$[esp-4]
  00006	89 08		 mov	 DWORD PTR [eax], ecx
  00008	c2 08 00	 ret	 8
??0?$_STLP_alloc_proxy@PAU?$_Rb_tree_node@U?$pair@$$CBIPAVMShopTemplate@@@_STL@@@_STL@@U12@V?$allocator@U?$_Rb_tree_node@U?$pair@$$CBIPAVMShopTemplate@@@_STL@@@_STL@@@2@@_STL@@QAE@ABV?$allocator@U?$_Rb_tree_node@U?$pair@$$CBIPAVMShopTemplate@@@_STL@@@_STL@@@1@PAU?$_Rb_tree_node@U?$pair@$$CBIPAVMShopTemplate@@@_STL@@@1@@Z ENDP ; _STL::_STLP_alloc_proxy<_STL::_Rb_tree_node<_STL::pair<unsigned int const ,MShopTemplate *> > *,_STL::_Rb_tree_node<_STL::pair<unsigned int const ,MShopTemplate *> >,_STL::allocator<_STL::_Rb_tree_node<_STL::pair<unsigned int const ,MShopTemplate *> > > >::_STLP_alloc_proxy<_STL::_Rb_tree_node<_STL::pair<unsigned int const ,MShopTemplate *> > *,_STL::_Rb_tree_node<_STL::pair<unsigned int const ,MShopTemplate *> >,_STL::allocator<_STL::_Rb_tree_node<_STL::pair<unsigned int const ,MShopTemplate *> > > >
_TEXT	ENDS
PUBLIC	?allocate@?$allocator@U?$_Rb_tree_node@U?$pair@$$CBIPAVMShopTemplate@@@_STL@@@_STL@@@_STL@@QAEPAU?$_Rb_tree_node@U?$pair@$$CBIPAVMShopTemplate@@@_STL@@@2@IPBX@Z ; _STL::allocator<_STL::_Rb_tree_node<_STL::pair<unsigned int const ,MShopTemplate *> > >::allocate
; Function compile flags: /Ogsy
;	COMDAT ?allocate@?$allocator@U?$_Rb_tree_node@U?$pair@$$CBIPAVMShopTemplate@@@_STL@@@_STL@@@_STL@@QAEPAU?$_Rb_tree_node@U?$pair@$$CBIPAVMShopTemplate@@@_STL@@@2@IPBX@Z
_TEXT	SEGMENT
___n$ = 8						; size = 4
___formal$ = 12						; size = 4
?allocate@?$allocator@U?$_Rb_tree_node@U?$pair@$$CBIPAVMShopTemplate@@@_STL@@@_STL@@@_STL@@QAEPAU?$_Rb_tree_node@U?$pair@$$CBIPAVMShopTemplate@@@_STL@@@2@IPBX@Z PROC NEAR ; _STL::allocator<_STL::_Rb_tree_node<_STL::pair<unsigned int const ,MShopTemplate *> > >::allocate, COMDAT
; _this$ = ecx

; 355  :     return __n != 0 ? __REINTERPRET_CAST(value_type*,__sgi_alloc::allocate(__n * sizeof(value_type))) : 0;

  00000	8b 44 24 04	 mov	 eax, DWORD PTR ___n$[esp-4]
  00004	85 c0		 test	 eax, eax
  00006	74 0f		 je	 SHORT $L102854
  00008	8d 04 40	 lea	 eax, DWORD PTR [eax+eax*2]
  0000b	c1 e0 03	 shl	 eax, 3
  0000e	50		 push	 eax
  0000f	e8 00 00 00 00	 call	 ?allocate@?$__node_alloc@$00$0A@@_STL@@SAPAXI@Z ; _STL::__node_alloc<1,0>::allocate
  00014	59		 pop	 ecx
  00015	eb 02		 jmp	 SHORT $L102855
$L102854:
  00017	33 c0		 xor	 eax, eax
$L102855:

; 356  :   }

  00019	c2 08 00	 ret	 8
?allocate@?$allocator@U?$_Rb_tree_node@U?$pair@$$CBIPAVMShopTemplate@@@_STL@@@_STL@@@_STL@@QAEPAU?$_Rb_tree_node@U?$pair@$$CBIPAVMShopTemplate@@@_STL@@@2@IPBX@Z ENDP ; _STL::allocator<_STL::_Rb_tree_node<_STL::pair<unsigned int const ,MShopTemplate *> > >::allocate
_TEXT	ENDS
PUBLIC	?_M_erase@?$_Rb_tree@IU?$pair@$$CBIPAVMShopTemplate@@@_STL@@U?$_Select1st@U?$pair@$$CBIPAVMShopTemplate@@@_STL@@@2@U?$less@I@2@V?$allocator@U?$pair@$$CBIPAVMShopTemplate@@@_STL@@@2@@_STL@@AAEXPAU?$_Rb_tree_node@U?$pair@$$CBIPAVMShopTemplate@@@_STL@@@2@@Z ; _STL::_Rb_tree<unsigned int,_STL::pair<unsigned int const ,MShopTemplate *>,_STL::_Select1st<_STL::pair<unsigned int const ,MShopTemplate *> >,_STL::less<unsigned int>,_STL::allocator<_STL::pair<unsigned int const ,MShopTemplate *> > >::_M_erase
; Function compile flags: /Ogsy
; File c:\stlport-4.6.1\stlport\stl\_tree.c
;	COMDAT ?_M_erase@?$_Rb_tree@IU?$pair@$$CBIPAVMShopTemplate@@@_STL@@U?$_Select1st@U?$pair@$$CBIPAVMShopTemplate@@@_STL@@@2@U?$less@I@2@V?$allocator@U?$pair@$$CBIPAVMShopTemplate@@@_STL@@@2@@_STL@@AAEXPAU?$_Rb_tree_node@U?$pair@$$CBIPAVMShopTemplate@@@_STL@@@2@@Z
_TEXT	SEGMENT
___x$ = 8						; size = 4
?_M_erase@?$_Rb_tree@IU?$pair@$$CBIPAVMShopTemplate@@@_STL@@U?$_Select1st@U?$pair@$$CBIPAVMShopTemplate@@@_STL@@@2@U?$less@I@2@V?$allocator@U?$pair@$$CBIPAVMShopTemplate@@@_STL@@@2@@_STL@@AAEXPAU?$_Rb_tree_node@U?$pair@$$CBIPAVMShopTemplate@@@_STL@@@2@@Z PROC NEAR ; _STL::_Rb_tree<unsigned int,_STL::pair<unsigned int const ,MShopTemplate *>,_STL::_Select1st<_STL::pair<unsigned int const ,MShopTemplate *> >,_STL::less<unsigned int>,_STL::allocator<_STL::pair<unsigned int const ,MShopTemplate *> > >::_M_erase, COMDAT
; _this$ = ecx

; 637  : {

  00000	53		 push	 ebx
  00001	56		 push	 esi

; 638  :                                 // erase without rebalancing
; 639  :   while (__x != 0) {

  00002	8b 74 24 0c	 mov	 esi, DWORD PTR ___x$[esp+4]
  00006	85 f6		 test	 esi, esi
  00008	8b d9		 mov	 ebx, ecx
  0000a	74 1f		 je	 SHORT $L101826
  0000c	57		 push	 edi
$L101825:

; 640  :     _M_erase(_S_right(__x));

  0000d	ff 76 0c	 push	 DWORD PTR [esi+12]
  00010	8b cb		 mov	 ecx, ebx
  00012	e8 00 00 00 00	 call	 ?_M_erase@?$_Rb_tree@IU?$pair@$$CBIPAVMShopTemplate@@@_STL@@U?$_Select1st@U?$pair@$$CBIPAVMShopTemplate@@@_STL@@@2@U?$less@I@2@V?$allocator@U?$pair@$$CBIPAVMShopTemplate@@@_STL@@@2@@_STL@@AAEXPAU?$_Rb_tree_node@U?$pair@$$CBIPAVMShopTemplate@@@_STL@@@2@@Z ; _STL::_Rb_tree<unsigned int,_STL::pair<unsigned int const ,MShopTemplate *>,_STL::_Select1st<_STL::pair<unsigned int const ,MShopTemplate *> >,_STL::less<unsigned int>,_STL::allocator<_STL::pair<unsigned int const ,MShopTemplate *> > >::_M_erase

; 641  :     _Link_type __y = _S_left(__x);

  00017	8b 7e 08	 mov	 edi, DWORD PTR [esi+8]

; 642  :     _STLP_STD::_Destroy(&__x->_M_value_field);
; 643  :     this->_M_header.deallocate(__x,1);

  0001a	6a 01		 push	 1
  0001c	56		 push	 esi
  0001d	8b cb		 mov	 ecx, ebx
  0001f	e8 00 00 00 00	 call	 ?deallocate@?$allocator@U?$_Rb_tree_node@U?$pair@$$CBIPAVMShopTemplate@@@_STL@@@_STL@@@_STL@@QAEXPAU?$_Rb_tree_node@U?$pair@$$CBIPAVMShopTemplate@@@_STL@@@2@I@Z ; _STL::allocator<_STL::_Rb_tree_node<_STL::pair<unsigned int const ,MShopTemplate *> > >::deallocate
  00024	85 ff		 test	 edi, edi

; 644  :     __x = __y;

  00026	8b f7		 mov	 esi, edi
  00028	75 e3		 jne	 SHORT $L101825
  0002a	5f		 pop	 edi
$L101826:
  0002b	5e		 pop	 esi
  0002c	5b		 pop	 ebx

; 645  :   }
; 646  : }

  0002d	c2 04 00	 ret	 4
?_M_erase@?$_Rb_tree@IU?$pair@$$CBIPAVMShopTemplate@@@_STL@@U?$_Select1st@U?$pair@$$CBIPAVMShopTemplate@@@_STL@@@2@U?$less@I@2@V?$allocator@U?$pair@$$CBIPAVMShopTemplate@@@_STL@@@2@@_STL@@AAEXPAU?$_Rb_tree_node@U?$pair@$$CBIPAVMShopTemplate@@@_STL@@@2@@Z ENDP ; _STL::_Rb_tree<unsigned int,_STL::pair<unsigned int const ,MShopTemplate *>,_STL::_Select1st<_STL::pair<unsigned int const ,MShopTemplate *> >,_STL::less<unsigned int>,_STL::allocator<_STL::pair<unsigned int const ,MShopTemplate *> > >::_M_erase
_TEXT	ENDS
PUBLIC	??$_M_init@DV?$char_traits@D@_STL@@@_STL@@YA_NAAV?$basic_ostream@DV?$char_traits@D@_STL@@@0@@Z ; _STL::_M_init<char,_STL::char_traits<char> >
; Function compile flags: /Ogsy
; File c:\stlport-4.6.1\stlport\stl\_ostream.c
;	COMDAT ??$_M_init@DV?$char_traits@D@_STL@@@_STL@@YA_NAAV?$basic_ostream@DV?$char_traits@D@_STL@@@0@@Z
_TEXT	SEGMENT
___str$ = 8						; size = 4
??$_M_init@DV?$char_traits@D@_STL@@@_STL@@YA_NAAV?$basic_ostream@DV?$char_traits@D@_STL@@@0@@Z PROC NEAR ; _STL::_M_init<char,_STL::char_traits<char> >, COMDAT

; 37   : _M_init(basic_ostream<_CharT, _Traits>& __str) {

  00000	56		 push	 esi

; 38   :   if (__str.good()) {

  00001	8b 74 24 08	 mov	 esi, DWORD PTR ___str$[esp]
  00005	8b 06		 mov	 eax, DWORD PTR [esi]
  00007	8b 40 04	 mov	 eax, DWORD PTR [eax+4]
  0000a	8d 0c 30	 lea	 ecx, DWORD PTR [eax+esi]
  0000d	83 79 08 00	 cmp	 DWORD PTR [ecx+8], 0
  00011	75 36		 jne	 SHORT $L101891

; 39   :     // boris : check if this is needed !
; 40   :     if (!__str.rdbuf())

  00013	83 79 58 00	 cmp	 DWORD PTR [ecx+88], 0
  00017	75 0c		 jne	 SHORT $L102885

; 41   :       __str.setstate(ios_base::badbit);

  00019	8b 41 08	 mov	 eax, DWORD PTR [ecx+8]
  0001c	83 c8 01	 or	 eax, 1
  0001f	50		 push	 eax
  00020	e8 00 00 00 00	 call	 ?clear@?$basic_ios@DV?$char_traits@D@_STL@@@_STL@@QAEXH@Z ; _STL::basic_ios<char,_STL::char_traits<char> >::clear
$L102885:

; 42   :     if (__str.tie())

  00025	8b 06		 mov	 eax, DWORD PTR [esi]
  00027	8b 40 04	 mov	 eax, DWORD PTR [eax+4]
  0002a	8b 4c 30 5c	 mov	 ecx, DWORD PTR [eax+esi+92]
  0002e	85 c9		 test	 ecx, ecx
  00030	74 05		 je	 SHORT $L101893

; 43   :       __str.tie()->flush();

  00032	e8 00 00 00 00	 call	 ?flush@?$basic_ostream@DV?$char_traits@D@_STL@@@_STL@@QAEAAV12@XZ ; _STL::basic_ostream<char,_STL::char_traits<char> >::flush
$L101893:

; 44   :     return __str.good();

  00037	8b 06		 mov	 eax, DWORD PTR [esi]
  00039	8b 40 04	 mov	 eax, DWORD PTR [eax+4]
  0003c	33 c9		 xor	 ecx, ecx
  0003e	39 4c 30 08	 cmp	 DWORD PTR [eax+esi+8], ecx
  00042	5e		 pop	 esi
  00043	0f 94 c1	 sete	 cl
  00046	8a c1		 mov	 al, cl

; 47   : }

  00048	c3		 ret	 0
$L101891:

; 45   :   } else
; 46   :     return false;

  00049	32 c0		 xor	 al, al
  0004b	5e		 pop	 esi

; 47   : }

  0004c	c3		 ret	 0
??$_M_init@DV?$char_traits@D@_STL@@@_STL@@YA_NAAV?$basic_ostream@DV?$char_traits@D@_STL@@@0@@Z ENDP ; _STL::_M_init<char,_STL::char_traits<char> >
_TEXT	ENDS
PUBLIC	?begin@?$map@IPAVMShopTemplate@@U?$less@I@_STL@@V?$allocator@U?$pair@$$CBIPAVMShopTemplate@@@_STL@@@3@@_STL@@QAE?AU?$_Rb_tree_iterator@U?$pair@$$CBIPAVMShopTemplate@@@_STL@@U?$_Nonconst_traits@U?$pair@$$CBIPAVMShopTemplate@@@_STL@@@2@@2@XZ ; _STL::map<unsigned int,MShopTemplate *,_STL::less<unsigned int>,_STL::allocator<_STL::pair<unsigned int const ,MShopTemplate *> > >::begin
; Function compile flags: /Ogsy
; File c:\stlport-4.6.1\stlport\stl\_map.h
;	COMDAT ?begin@?$map@IPAVMShopTemplate@@U?$less@I@_STL@@V?$allocator@U?$pair@$$CBIPAVMShopTemplate@@@_STL@@@3@@_STL@@QAE?AU?$_Rb_tree_iterator@U?$pair@$$CBIPAVMShopTemplate@@@_STL@@U?$_Nonconst_traits@U?$pair@$$CBIPAVMShopTemplate@@@_STL@@@2@@2@XZ
_TEXT	SEGMENT
___$ReturnUdt$ = 8					; size = 4
?begin@?$map@IPAVMShopTemplate@@U?$less@I@_STL@@V?$allocator@U?$pair@$$CBIPAVMShopTemplate@@@_STL@@@3@@_STL@@QAE?AU?$_Rb_tree_iterator@U?$pair@$$CBIPAVMShopTemplate@@@_STL@@U?$_Nonconst_traits@U?$pair@$$CBIPAVMShopTemplate@@@_STL@@@2@@2@XZ PROC NEAR ; _STL::map<unsigned int,MShopTemplate *,_STL::less<unsigned int>,_STL::allocator<_STL::pair<unsigned int const ,MShopTemplate *> > >::begin, COMDAT
; _this$ = ecx

; 147  :   iterator begin() { return _M_t.begin(); }

  00000	8b 01		 mov	 eax, DWORD PTR [ecx]
  00002	8b 48 08	 mov	 ecx, DWORD PTR [eax+8]
  00005	8b 44 24 04	 mov	 eax, DWORD PTR ___$ReturnUdt$[esp-4]
  00009	89 08		 mov	 DWORD PTR [eax], ecx
  0000b	c2 04 00	 ret	 4
?begin@?$map@IPAVMShopTemplate@@U?$less@I@_STL@@V?$allocator@U?$pair@$$CBIPAVMShopTemplate@@@_STL@@@3@@_STL@@QAE?AU?$_Rb_tree_iterator@U?$pair@$$CBIPAVMShopTemplate@@@_STL@@U?$_Nonconst_traits@U?$pair@$$CBIPAVMShopTemplate@@@_STL@@@2@@2@XZ ENDP ; _STL::map<unsigned int,MShopTemplate *,_STL::less<unsigned int>,_STL::allocator<_STL::pair<unsigned int const ,MShopTemplate *> > >::begin
_TEXT	ENDS
PUBLIC	?end@?$map@IPAVMShopTemplate@@U?$less@I@_STL@@V?$allocator@U?$pair@$$CBIPAVMShopTemplate@@@_STL@@@3@@_STL@@QAE?AU?$_Rb_tree_iterator@U?$pair@$$CBIPAVMShopTemplate@@@_STL@@U?$_Nonconst_traits@U?$pair@$$CBIPAVMShopTemplate@@@_STL@@@2@@2@XZ ; _STL::map<unsigned int,MShopTemplate *,_STL::less<unsigned int>,_STL::allocator<_STL::pair<unsigned int const ,MShopTemplate *> > >::end
; Function compile flags: /Ogsy
;	COMDAT ?end@?$map@IPAVMShopTemplate@@U?$less@I@_STL@@V?$allocator@U?$pair@$$CBIPAVMShopTemplate@@@_STL@@@3@@_STL@@QAE?AU?$_Rb_tree_iterator@U?$pair@$$CBIPAVMShopTemplate@@@_STL@@U?$_Nonconst_traits@U?$pair@$$CBIPAVMShopTemplate@@@_STL@@@2@@2@XZ
_TEXT	SEGMENT
___$ReturnUdt$ = 8					; size = 4
?end@?$map@IPAVMShopTemplate@@U?$less@I@_STL@@V?$allocator@U?$pair@$$CBIPAVMShopTemplate@@@_STL@@@3@@_STL@@QAE?AU?$_Rb_tree_iterator@U?$pair@$$CBIPAVMShopTemplate@@@_STL@@U?$_Nonconst_traits@U?$pair@$$CBIPAVMShopTemplate@@@_STL@@@2@@2@XZ PROC NEAR ; _STL::map<unsigned int,MShopTemplate *,_STL::less<unsigned int>,_STL::allocator<_STL::pair<unsigned int const ,MShopTemplate *> > >::end, COMDAT
; _this$ = ecx

; 149  :   iterator end() { return _M_t.end(); }

  00000	8b 09		 mov	 ecx, DWORD PTR [ecx]
  00002	8b 44 24 04	 mov	 eax, DWORD PTR ___$ReturnUdt$[esp-4]
  00006	89 08		 mov	 DWORD PTR [eax], ecx
  00008	c2 04 00	 ret	 4
?end@?$map@IPAVMShopTemplate@@U?$less@I@_STL@@V?$allocator@U?$pair@$$CBIPAVMShopTemplate@@@_STL@@@3@@_STL@@QAE?AU?$_Rb_tree_iterator@U?$pair@$$CBIPAVMShopTemplate@@@_STL@@U?$_Nonconst_traits@U?$pair@$$CBIPAVMShopTemplate@@@_STL@@@2@@2@XZ ENDP ; _STL::map<unsigned int,MShopTemplate *,_STL::less<unsigned int>,_STL::allocator<_STL::pair<unsigned int const ,MShopTemplate *> > >::end
_TEXT	ENDS
PUBLIC	??0sentry@?$basic_ostream@DV?$char_traits@D@_STL@@@_STL@@QAE@AAV12@@Z ; _STL::basic_ostream<char,_STL::char_traits<char> >::sentry::sentry
; Function compile flags: /Ogsy
; File c:\stlport-4.6.1\stlport\stl\_ostream.h
;	COMDAT ??0sentry@?$basic_ostream@DV?$char_traits@D@_STL@@@_STL@@QAE@AAV12@@Z
_TEXT	SEGMENT
___str$ = 8						; size = 4
??0sentry@?$basic_ostream@DV?$char_traits@D@_STL@@@_STL@@QAE@AAV12@@Z PROC NEAR ; _STL::basic_ostream<char,_STL::char_traits<char> >::sentry::sentry, COMDAT
; _this$ = ecx

; 165  :       {

  00000	8b 44 24 04	 mov	 eax, DWORD PTR ___str$[esp-4]
  00004	56		 push	 esi
  00005	8b f1		 mov	 esi, ecx
  00007	50		 push	 eax
  00008	89 06		 mov	 DWORD PTR [esi], eax
  0000a	e8 00 00 00 00	 call	 ??$_M_init@DV?$char_traits@D@_STL@@@_STL@@YA_NAAV?$basic_ostream@DV?$char_traits@D@_STL@@@0@@Z ; _STL::_M_init<char,_STL::char_traits<char> >
  0000f	88 46 04	 mov	 BYTE PTR [esi+4], al
  00012	59		 pop	 ecx

; 166  :       }

  00013	8b c6		 mov	 eax, esi
  00015	5e		 pop	 esi
  00016	c2 04 00	 ret	 4
??0sentry@?$basic_ostream@DV?$char_traits@D@_STL@@@_STL@@QAE@AAV12@@Z ENDP ; _STL::basic_ostream<char,_STL::char_traits<char> >::sentry::sentry
_TEXT	ENDS
PUBLIC	??1sentry@?$basic_ostream@DV?$char_traits@D@_STL@@@_STL@@QAE@XZ ; _STL::basic_ostream<char,_STL::char_traits<char> >::sentry::~sentry
; Function compile flags: /Ogsy
;	COMDAT ??1sentry@?$basic_ostream@DV?$char_traits@D@_STL@@@_STL@@QAE@XZ
_TEXT	SEGMENT
??1sentry@?$basic_ostream@DV?$char_traits@D@_STL@@@_STL@@QAE@XZ PROC NEAR ; _STL::basic_ostream<char,_STL::char_traits<char> >::sentry::~sentry, COMDAT
; _this$ = ecx

; 169  :         if (_M_str.flags() & ios_base::unitbuf)

  00000	8b 09		 mov	 ecx, DWORD PTR [ecx]
  00002	8b 01		 mov	 eax, DWORD PTR [ecx]
  00004	8b 40 04	 mov	 eax, DWORD PTR [eax+4]
  00007	f6 44 08 05 20	 test	 BYTE PTR [eax+ecx+5], 32 ; 00000020H
  0000c	74 05		 je	 SHORT $L101601

; 170  : # ifndef _STLP_INCOMPLETE_EXCEPTION_HEADER 
; 171  :           if (!_STLP_VENDOR_EXCEPT_STD::uncaught_exception())
; 172  : # endif
; 173  :             _M_str.flush();

  0000e	e9 00 00 00 00	 jmp	 ?flush@?$basic_ostream@DV?$char_traits@D@_STL@@@_STL@@QAEAAV12@XZ ; _STL::basic_ostream<char,_STL::char_traits<char> >::flush
$L101601:

; 174  :       }

  00013	c3		 ret	 0
??1sentry@?$basic_ostream@DV?$char_traits@D@_STL@@@_STL@@QAE@XZ ENDP ; _STL::basic_ostream<char,_STL::char_traits<char> >::sentry::~sentry
_TEXT	ENDS
PUBLIC	?clear@?$_Rb_tree@IU?$pair@$$CBIPAVMShopTemplate@@@_STL@@U?$_Select1st@U?$pair@$$CBIPAVMShopTemplate@@@_STL@@@2@U?$less@I@2@V?$allocator@U?$pair@$$CBIPAVMShopTemplate@@@_STL@@@2@@_STL@@QAEXXZ ; _STL::_Rb_tree<unsigned int,_STL::pair<unsigned int const ,MShopTemplate *>,_STL::_Select1st<_STL::pair<unsigned int const ,MShopTemplate *> >,_STL::less<unsigned int>,_STL::allocator<_STL::pair<unsigned int const ,MShopTemplate *> > >::clear
; Function compile flags: /Ogsy
; File c:\stlport-4.6.1\stlport\stl\_tree.h
;	COMDAT ?clear@?$_Rb_tree@IU?$pair@$$CBIPAVMShopTemplate@@@_STL@@U?$_Select1st@U?$pair@$$CBIPAVMShopTemplate@@@_STL@@@2@U?$less@I@2@V?$allocator@U?$pair@$$CBIPAVMShopTemplate@@@_STL@@@2@@_STL@@QAEXXZ
_TEXT	SEGMENT
?clear@?$_Rb_tree@IU?$pair@$$CBIPAVMShopTemplate@@@_STL@@U?$_Select1st@U?$pair@$$CBIPAVMShopTemplate@@@_STL@@@2@U?$less@I@2@V?$allocator@U?$pair@$$CBIPAVMShopTemplate@@@_STL@@@2@@_STL@@QAEXXZ PROC NEAR ; _STL::_Rb_tree<unsigned int,_STL::pair<unsigned int const ,MShopTemplate *>,_STL::_Select1st<_STL::pair<unsigned int const ,MShopTemplate *> >,_STL::less<unsigned int>,_STL::allocator<_STL::pair<unsigned int const ,MShopTemplate *> > >::clear, COMDAT
; _this$ = ecx

; 445  :   void clear() {

  00000	56		 push	 esi
  00001	8b f1		 mov	 esi, ecx

; 446  :     if (_M_node_count != 0) {

  00003	83 7e 04 00	 cmp	 DWORD PTR [esi+4], 0
  00007	74 1e		 je	 SHORT $L101674

; 447  :       _M_erase(_M_root());

  00009	8b 06		 mov	 eax, DWORD PTR [esi]
  0000b	ff 70 04	 push	 DWORD PTR [eax+4]
  0000e	e8 00 00 00 00	 call	 ?_M_erase@?$_Rb_tree@IU?$pair@$$CBIPAVMShopTemplate@@@_STL@@U?$_Select1st@U?$pair@$$CBIPAVMShopTemplate@@@_STL@@@2@U?$less@I@2@V?$allocator@U?$pair@$$CBIPAVMShopTemplate@@@_STL@@@2@@_STL@@AAEXPAU?$_Rb_tree_node@U?$pair@$$CBIPAVMShopTemplate@@@_STL@@@2@@Z ; _STL::_Rb_tree<unsigned int,_STL::pair<unsigned int const ,MShopTemplate *>,_STL::_Select1st<_STL::pair<unsigned int const ,MShopTemplate *> >,_STL::less<unsigned int>,_STL::allocator<_STL::pair<unsigned int const ,MShopTemplate *> > >::_M_erase

; 448  :       _M_leftmost() = this->_M_header._M_data;

  00013	8b 06		 mov	 eax, DWORD PTR [esi]
  00015	89 40 08	 mov	 DWORD PTR [eax+8], eax

; 449  :       _M_root() = 0;

  00018	8b 06		 mov	 eax, DWORD PTR [esi]
  0001a	83 60 04 00	 and	 DWORD PTR [eax+4], 0

; 450  :       _M_rightmost() = this->_M_header._M_data;

  0001e	8b 06		 mov	 eax, DWORD PTR [esi]
  00020	89 40 0c	 mov	 DWORD PTR [eax+12], eax

; 451  :       _M_node_count = 0;

  00023	83 66 04 00	 and	 DWORD PTR [esi+4], 0
$L101674:
  00027	5e		 pop	 esi

; 452  :     }
; 453  :   }      

  00028	c3		 ret	 0
?clear@?$_Rb_tree@IU?$pair@$$CBIPAVMShopTemplate@@@_STL@@U?$_Select1st@U?$pair@$$CBIPAVMShopTemplate@@@_STL@@@2@U?$less@I@2@V?$allocator@U?$pair@$$CBIPAVMShopTemplate@@@_STL@@@2@@_STL@@QAEXXZ ENDP ; _STL::_Rb_tree<unsigned int,_STL::pair<unsigned int const ,MShopTemplate *>,_STL::_Select1st<_STL::pair<unsigned int const ,MShopTemplate *> >,_STL::less<unsigned int>,_STL::allocator<_STL::pair<unsigned int const ,MShopTemplate *> > >::clear
_TEXT	ENDS
PUBLIC	??1?$_Rb_tree_base@U?$pair@$$CBIPAVMShopTemplate@@@_STL@@V?$allocator@U?$pair@$$CBIPAVMShopTemplate@@@_STL@@@2@@_STL@@QAE@XZ ; _STL::_Rb_tree_base<_STL::pair<unsigned int const ,MShopTemplate *>,_STL::allocator<_STL::pair<unsigned int const ,MShopTemplate *> > >::~_Rb_tree_base<_STL::pair<unsigned int const ,MShopTemplate *>,_STL::allocator<_STL::pair<unsigned int const ,MShopTemplate *> > >
; Function compile flags: /Ogsy
;	COMDAT ??1?$_Rb_tree_base@U?$pair@$$CBIPAVMShopTemplate@@@_STL@@V?$allocator@U?$pair@$$CBIPAVMShopTemplate@@@_STL@@@2@@_STL@@QAE@XZ
_TEXT	SEGMENT
??1?$_Rb_tree_base@U?$pair@$$CBIPAVMShopTemplate@@@_STL@@V?$allocator@U?$pair@$$CBIPAVMShopTemplate@@@_STL@@@2@@_STL@@QAE@XZ PROC NEAR ; _STL::_Rb_tree_base<_STL::pair<unsigned int const ,MShopTemplate *>,_STL::allocator<_STL::pair<unsigned int const ,MShopTemplate *> > >::~_Rb_tree_base<_STL::pair<unsigned int const ,MShopTemplate *>,_STL::allocator<_STL::pair<unsigned int const ,MShopTemplate *> > >, COMDAT
; _this$ = ecx

; 208  :     _M_header.deallocate(_M_header._M_data,1); 

  00000	6a 01		 push	 1
  00002	ff 31		 push	 DWORD PTR [ecx]
  00004	e8 00 00 00 00	 call	 ?deallocate@?$allocator@U?$_Rb_tree_node@U?$pair@$$CBIPAVMShopTemplate@@@_STL@@@_STL@@@_STL@@QAEXPAU?$_Rb_tree_node@U?$pair@$$CBIPAVMShopTemplate@@@_STL@@@2@I@Z ; _STL::allocator<_STL::_Rb_tree_node<_STL::pair<unsigned int const ,MShopTemplate *> > >::deallocate

; 209  :   }

  00009	c3		 ret	 0
??1?$_Rb_tree_base@U?$pair@$$CBIPAVMShopTemplate@@@_STL@@V?$allocator@U?$pair@$$CBIPAVMShopTemplate@@@_STL@@@2@@_STL@@QAE@XZ ENDP ; _STL::_Rb_tree_base<_STL::pair<unsigned int const ,MShopTemplate *>,_STL::allocator<_STL::pair<unsigned int const ,MShopTemplate *> > >::~_Rb_tree_base<_STL::pair<unsigned int const ,MShopTemplate *>,_STL::allocator<_STL::pair<unsigned int const ,MShopTemplate *> > >
_TEXT	ENDS
PUBLIC	??0?$_Rb_tree_base@U?$pair@$$CBIPAVMShopTemplate@@@_STL@@V?$allocator@U?$pair@$$CBIPAVMShopTemplate@@@_STL@@@2@@_STL@@QAE@ABV?$allocator@U?$pair@$$CBIPAVMShopTemplate@@@_STL@@@1@@Z ; _STL::_Rb_tree_base<_STL::pair<unsigned int const ,MShopTemplate *>,_STL::allocator<_STL::pair<unsigned int const ,MShopTemplate *> > >::_Rb_tree_base<_STL::pair<unsigned int const ,MShopTemplate *>,_STL::allocator<_STL::pair<unsigned int const ,MShopTemplate *> > >
; Function compile flags: /Ogsy
;	COMDAT ??0?$_Rb_tree_base@U?$pair@$$CBIPAVMShopTemplate@@@_STL@@V?$allocator@U?$pair@$$CBIPAVMShopTemplate@@@_STL@@@2@@_STL@@QAE@ABV?$allocator@U?$pair@$$CBIPAVMShopTemplate@@@_STL@@@1@@Z
_TEXT	SEGMENT
$T102961 = -1						; size = 1
___a$ = 8						; size = 4
??0?$_Rb_tree_base@U?$pair@$$CBIPAVMShopTemplate@@@_STL@@V?$allocator@U?$pair@$$CBIPAVMShopTemplate@@@_STL@@@2@@_STL@@QAE@ABV?$allocator@U?$pair@$$CBIPAVMShopTemplate@@@_STL@@@1@@Z PROC NEAR ; _STL::_Rb_tree_base<_STL::pair<unsigned int const ,MShopTemplate *>,_STL::allocator<_STL::pair<unsigned int const ,MShopTemplate *> > >::_Rb_tree_base<_STL::pair<unsigned int const ,MShopTemplate *>,_STL::allocator<_STL::pair<unsigned int const ,MShopTemplate *> > >, COMDAT
; _this$ = ecx

; 204  :     _M_header(_STLP_CONVERT_ALLOCATOR(__a, _Node), (_Node*)0) { 

  00000	51		 push	 ecx
  00001	56		 push	 esi
  00002	6a 00		 push	 0
  00004	8d 44 24 0b	 lea	 eax, DWORD PTR $T102961[esp+12]
  00008	50		 push	 eax
  00009	8b f1		 mov	 esi, ecx
  0000b	e8 00 00 00 00	 call	 ??0?$_STLP_alloc_proxy@PAU?$_Rb_tree_node@U?$pair@$$CBIPAVMShopTemplate@@@_STL@@@_STL@@U12@V?$allocator@U?$_Rb_tree_node@U?$pair@$$CBIPAVMShopTemplate@@@_STL@@@_STL@@@2@@_STL@@QAE@ABV?$allocator@U?$_Rb_tree_node@U?$pair@$$CBIPAVMShopTemplate@@@_STL@@@_STL@@@1@PAU?$_Rb_tree_node@U?$pair@$$CBIPAVMShopTemplate@@@_STL@@@1@@Z ; _STL::_STLP_alloc_proxy<_STL::_Rb_tree_node<_STL::pair<unsigned int const ,MShopTemplate *> > *,_STL::_Rb_tree_node<_STL::pair<unsigned int const ,MShopTemplate *> >,_STL::allocator<_STL::_Rb_tree_node<_STL::pair<unsigned int const ,MShopTemplate *> > > >::_STLP_alloc_proxy<_STL::_Rb_tree_node<_STL::pair<unsigned int const ,MShopTemplate *> > *,_STL::_Rb_tree_node<_STL::pair<unsigned int const ,MShopTemplate *> >,_STL::allocator<_STL::_Rb_tree_node<_STL::pair<unsigned int const ,MShopTemplate *> > > >

; 205  :       _M_header._M_data = _M_header.allocate(1); 

  00010	6a 18		 push	 24			; 00000018H
  00012	e8 00 00 00 00	 call	 ?allocate@?$__node_alloc@$00$0A@@_STL@@SAPAXI@Z ; _STL::__node_alloc<1,0>::allocate
  00017	89 06		 mov	 DWORD PTR [esi], eax
  00019	59		 pop	 ecx

; 206  :   }

  0001a	8b c6		 mov	 eax, esi
  0001c	5e		 pop	 esi
  0001d	59		 pop	 ecx
  0001e	c2 04 00	 ret	 4
??0?$_Rb_tree_base@U?$pair@$$CBIPAVMShopTemplate@@@_STL@@V?$allocator@U?$pair@$$CBIPAVMShopTemplate@@@_STL@@@2@@_STL@@QAE@ABV?$allocator@U?$pair@$$CBIPAVMShopTemplate@@@_STL@@@1@@Z ENDP ; _STL::_Rb_tree_base<_STL::pair<unsigned int const ,MShopTemplate *>,_STL::allocator<_STL::pair<unsigned int const ,MShopTemplate *> > >::_Rb_tree_base<_STL::pair<unsigned int const ,MShopTemplate *>,_STL::allocator<_STL::pair<unsigned int const ,MShopTemplate *> > >
_TEXT	ENDS
PUBLIC	?write@?$basic_ostream@DV?$char_traits@D@_STL@@@_STL@@QAEAAV12@PBDH@Z ; _STL::basic_ostream<char,_STL::char_traits<char> >::write
EXTRN	__EH_prolog:NEAR
EXTRN	__except_list:DWORD
EXTRN	___CxxFrameHandler:NEAR
;	COMDAT xdata$x
; File c:\stlport-4.6.1\stlport\stl\_ios_base.h
xdata$x	SEGMENT
$T103018 DD	0ffffffffH
	DD	FLAT:$L102978
	DD	00H
	DD	00H
	DD	00H
	DD	00H
$T103020 DD	00H
	DD	00H
	DD	00H
	DD	FLAT:$L102977
$T103019 DD	01H
	DD	01H
	DD	02H
	DD	01H
	DD	FLAT:$T103020
$T103013 DD	019930520H
	DD	03H
	DD	FLAT:$T103018
	DD	01H
	DD	FLAT:$T103019
	DD	2 DUP(00H)
; Function compile flags: /Ogsy
; File c:\stlport-4.6.1\stlport\stl\_ostream.c
xdata$x	ENDS
;	COMDAT ?write@?$basic_ostream@DV?$char_traits@D@_STL@@@_STL@@QAEAAV12@PBDH@Z
_TEXT	SEGMENT
___sentry$ = -32					; size = 8
_this$ = -24						; size = 4
___failed$ = -17					; size = 1
__$EHRec$ = -16						; size = 16
___s$ = 8						; size = 4
___n$ = 12						; size = 4
?write@?$basic_ostream@DV?$char_traits@D@_STL@@@_STL@@QAEAAV12@PBDH@Z PROC NEAR ; _STL::basic_ostream<char,_STL::char_traits<char> >::write, COMDAT
; _this$ = ecx

; 359  : {

  00000	b8 00 00 00 00	 mov	 eax, __ehhandler$?write@?$basic_ostream@DV?$char_traits@D@_STL@@@_STL@@QAEAAV12@PBDH@Z
  00005	e8 00 00 00 00	 call	 __EH_prolog
  0000a	83 ec 14	 sub	 esp, 20			; 00000014H
  0000d	53		 push	 ebx
  0000e	56		 push	 esi
  0000f	57		 push	 edi
  00010	8b f1		 mov	 esi, ecx
  00012	89 65 f0	 mov	 DWORD PTR __$EHRec$[ebp], esp

; 360  :   sentry __sentry(*this);

  00015	56		 push	 esi
  00016	8d 4d e0	 lea	 ecx, DWORD PTR ___sentry$[ebp]
  00019	89 75 e8	 mov	 DWORD PTR _this$[ebp], esi
  0001c	e8 00 00 00 00	 call	 ??0sentry@?$basic_ostream@DV?$char_traits@D@_STL@@@_STL@@QAE@AAV12@@Z ; _STL::basic_ostream<char,_STL::char_traits<char> >::sentry::sentry
  00021	83 65 fc 00	 and	 DWORD PTR __$EHRec$[ebp+12], 0

; 361  :   bool __failed = true;
; 362  : 
; 363  :   if (__sentry) {

  00025	80 7d e4 00	 cmp	 BYTE PTR ___sentry$[ebp+4], 0
  00029	c6 45 ef 01	 mov	 BYTE PTR ___failed$[ebp], 1
  0002d	74 3b		 je	 SHORT $L101236

; 364  :     _STLP_TRY {
; 365  :       __failed = this->rdbuf()->sputn(__s, __n) != __n;

  0002f	8b 06		 mov	 eax, DWORD PTR [esi]
  00031	8b 40 04	 mov	 eax, DWORD PTR [eax+4]
  00034	ff 75 0c	 push	 DWORD PTR ___n$[ebp]
  00037	8b 4c 30 58	 mov	 ecx, DWORD PTR [eax+esi+88]
  0003b	ff 75 08	 push	 DWORD PTR ___s$[ebp]
  0003e	8b 01		 mov	 eax, DWORD PTR [ecx]
  00040	c6 45 fc 01	 mov	 BYTE PTR __$EHRec$[ebp+12], 1
  00044	ff 50 28	 call	 DWORD PTR [eax+40]
  00047	3b 45 0c	 cmp	 eax, DWORD PTR ___n$[ebp]
  0004a	0f 95 45 ef	 setne	 BYTE PTR ___failed$[ebp]
  0004e	eb 1a		 jmp	 SHORT $L101236
$L102977:

; 366  :     }
; 367  :     _STLP_CATCH_ALL {
; 368  :       this->_M_handle_exception(ios_base::badbit);

  00050	8b 45 e8	 mov	 eax, DWORD PTR _this$[ebp]
  00053	8b 08		 mov	 ecx, DWORD PTR [eax]
  00055	8b 49 04	 mov	 ecx, DWORD PTR [ecx+4]
  00058	6a 01		 push	 1
  0005a	03 c8		 add	 ecx, eax
  0005c	e8 00 00 00 00	 call	 ?_M_handle_exception@?$basic_ios@DV?$char_traits@D@_STL@@@_STL@@QAEXH@Z ; _STL::basic_ios<char,_STL::char_traits<char> >::_M_handle_exception

; 369  :     }

  00061	b8 00 00 00 00	 mov	 eax, $L103014
  00066	c3		 ret	 0
$L103014:
  00067	8b 75 e8	 mov	 esi, DWORD PTR _this$[ebp]
$L101236:
  0006a	83 65 fc 00	 and	 DWORD PTR __$EHRec$[ebp+12], 0

; 370  :   }
; 371  : 
; 372  :   if (__failed)

  0006e	80 7d ef 00	 cmp	 BYTE PTR ___failed$[ebp], 0
  00072	74 13		 je	 SHORT $L102995

; 373  :     this->setstate(ios_base::badbit);

  00074	8b 06		 mov	 eax, DWORD PTR [esi]
  00076	8b 48 04	 mov	 ecx, DWORD PTR [eax+4]
  00079	03 ce		 add	 ecx, esi
  0007b	8b 41 08	 mov	 eax, DWORD PTR [ecx+8]
  0007e	83 c8 01	 or	 eax, 1
  00081	50		 push	 eax
  00082	e8 00 00 00 00	 call	 ?clear@?$basic_ios@DV?$char_traits@D@_STL@@@_STL@@QAEXH@Z ; _STL::basic_ios<char,_STL::char_traits<char> >::clear
$L102995:

; 374  : 
; 375  :   return *this;

  00087	8b 4d e0	 mov	 ecx, DWORD PTR ___sentry$[ebp]
  0008a	8b 01		 mov	 eax, DWORD PTR [ecx]
  0008c	8b 40 04	 mov	 eax, DWORD PTR [eax+4]
  0008f	83 4d fc ff	 or	 DWORD PTR __$EHRec$[ebp+12], -1
  00093	f6 44 08 05 20	 test	 BYTE PTR [eax+ecx+5], 32 ; 00000020H
  00098	74 05		 je	 SHORT $L103006
  0009a	e8 00 00 00 00	 call	 ?flush@?$basic_ostream@DV?$char_traits@D@_STL@@@_STL@@QAEAAV12@XZ ; _STL::basic_ostream<char,_STL::char_traits<char> >::flush
$L103006:

; 376  : }

  0009f	8b 4d f4	 mov	 ecx, DWORD PTR __$EHRec$[ebp+4]
  000a2	5f		 pop	 edi
  000a3	8b c6		 mov	 eax, esi
  000a5	5e		 pop	 esi
  000a6	64 89 0d 00 00
	00 00		 mov	 DWORD PTR fs:__except_list, ecx
  000ad	5b		 pop	 ebx
  000ae	c9		 leave
  000af	c2 08 00	 ret	 8
_TEXT	ENDS
;	COMDAT text$x
text$x	SEGMENT
$L102978:
  00000	8d 4d e0	 lea	 ecx, DWORD PTR ___sentry$[ebp]
  00003	e9 00 00 00 00	 jmp	 ??1sentry@?$basic_ostream@DV?$char_traits@D@_STL@@@_STL@@QAE@XZ ; _STL::basic_ostream<char,_STL::char_traits<char> >::sentry::~sentry
__ehhandler$?write@?$basic_ostream@DV?$char_traits@D@_STL@@@_STL@@QAEAAV12@PBDH@Z:
  00008	b8 00 00 00 00	 mov	 eax, OFFSET FLAT:$T103013
  0000d	e9 00 00 00 00	 jmp	 ___CxxFrameHandler
text$x	ENDS
?write@?$basic_ostream@DV?$char_traits@D@_STL@@@_STL@@QAEAAV12@PBDH@Z ENDP ; _STL::basic_ostream<char,_STL::char_traits<char> >::write
PUBLIC	?clear@?$map@IPAVMShopTemplate@@U?$less@I@_STL@@V?$allocator@U?$pair@$$CBIPAVMShopTemplate@@@_STL@@@3@@_STL@@QAEXXZ ; _STL::map<unsigned int,MShopTemplate *,_STL::less<unsigned int>,_STL::allocator<_STL::pair<unsigned int const ,MShopTemplate *> > >::clear
; Function compile flags: /Ogsy
; File c:\stlport-4.6.1\stlport\stl\_map.h
;	COMDAT ?clear@?$map@IPAVMShopTemplate@@U?$less@I@_STL@@V?$allocator@U?$pair@$$CBIPAVMShopTemplate@@@_STL@@@3@@_STL@@QAEXXZ
_TEXT	SEGMENT
?clear@?$map@IPAVMShopTemplate@@U?$less@I@_STL@@V?$allocator@U?$pair@$$CBIPAVMShopTemplate@@@_STL@@@3@@_STL@@QAEXXZ PROC NEAR ; _STL::map<unsigned int,MShopTemplate *,_STL::less<unsigned int>,_STL::allocator<_STL::pair<unsigned int const ,MShopTemplate *> > >::clear, COMDAT
; _this$ = ecx

; 191  :   void clear() { _M_t.clear(); }

  00000	e9 00 00 00 00	 jmp	 ?clear@?$_Rb_tree@IU?$pair@$$CBIPAVMShopTemplate@@@_STL@@U?$_Select1st@U?$pair@$$CBIPAVMShopTemplate@@@_STL@@@2@U?$less@I@2@V?$allocator@U?$pair@$$CBIPAVMShopTemplate@@@_STL@@@2@@_STL@@QAEXXZ ; _STL::_Rb_tree<unsigned int,_STL::pair<unsigned int const ,MShopTemplate *>,_STL::_Select1st<_STL::pair<unsigned int const ,MShopTemplate *> >,_STL::less<unsigned int>,_STL::allocator<_STL::pair<unsigned int const ,MShopTemplate *> > >::clear
?clear@?$map@IPAVMShopTemplate@@U?$less@I@_STL@@V?$allocator@U?$pair@$$CBIPAVMShopTemplate@@@_STL@@@3@@_STL@@QAEXXZ ENDP ; _STL::map<unsigned int,MShopTemplate *,_STL::less<unsigned int>,_STL::allocator<_STL::pair<unsigned int const ,MShopTemplate *> > >::clear
_TEXT	ENDS
PUBLIC	??1?$_Rb_tree@IU?$pair@$$CBIPAVMShopTemplate@@@_STL@@U?$_Select1st@U?$pair@$$CBIPAVMShopTemplate@@@_STL@@@2@U?$less@I@2@V?$allocator@U?$pair@$$CBIPAVMShopTemplate@@@_STL@@@2@@_STL@@QAE@XZ ; _STL::_Rb_tree<unsigned int,_STL::pair<unsigned int const ,MShopTemplate *>,_STL::_Select1st<_STL::pair<unsigned int const ,MShopTemplate *> >,_STL::less<unsigned int>,_STL::allocator<_STL::pair<unsigned int const ,MShopTemplate *> > >::~_Rb_tree<unsigned int,_STL::pair<unsigned int const ,MShopTemplate *>,_STL::_Select1st<_STL::pair<unsigned int const ,MShopTemplate *> >,_STL::less<unsigned int>,_STL::allocator<_STL::pair<unsigned int const ,MShopTemplate *> > >
;	COMDAT xdata$x
; File c:\stlport-4.6.1\stlport\stl\_alloc.h
xdata$x	SEGMENT
$T103048 DD	0ffffffffH
	DD	FLAT:$L103029
$T103046 DD	019930520H
	DD	01H
	DD	FLAT:$T103048
	DD	2 DUP(00H)
	DD	2 DUP(00H)
; Function compile flags: /Ogsy
; File c:\stlport-4.6.1\stlport\stl\_tree.h
xdata$x	ENDS
;	COMDAT ??1?$_Rb_tree@IU?$pair@$$CBIPAVMShopTemplate@@@_STL@@U?$_Select1st@U?$pair@$$CBIPAVMShopTemplate@@@_STL@@@2@U?$less@I@2@V?$allocator@U?$pair@$$CBIPAVMShopTemplate@@@_STL@@@2@@_STL@@QAE@XZ
_TEXT	SEGMENT
_this$ = -16						; size = 4
__$EHRec$ = -12						; size = 12
??1?$_Rb_tree@IU?$pair@$$CBIPAVMShopTemplate@@@_STL@@U?$_Select1st@U?$pair@$$CBIPAVMShopTemplate@@@_STL@@@2@U?$less@I@2@V?$allocator@U?$pair@$$CBIPAVMShopTemplate@@@_STL@@@2@@_STL@@QAE@XZ PROC NEAR ; _STL::_Rb_tree<unsigned int,_STL::pair<unsigned int const ,MShopTemplate *>,_STL::_Select1st<_STL::pair<unsigned int const ,MShopTemplate *> >,_STL::less<unsigned int>,_STL::allocator<_STL::pair<unsigned int const ,MShopTemplate *> > >::~_Rb_tree<unsigned int,_STL::pair<unsigned int const ,MShopTemplate *>,_STL::_Select1st<_STL::pair<unsigned int const ,MShopTemplate *> >,_STL::less<unsigned int>,_STL::allocator<_STL::pair<unsigned int const ,MShopTemplate *> > >, COMDAT
; _this$ = ecx

; 341  :   ~_Rb_tree() { clear(); }

  00000	b8 00 00 00 00	 mov	 eax, __ehhandler$??1?$_Rb_tree@IU?$pair@$$CBIPAVMShopTemplate@@@_STL@@U?$_Select1st@U?$pair@$$CBIPAVMShopTemplate@@@_STL@@@2@U?$less@I@2@V?$allocator@U?$pair@$$CBIPAVMShopTemplate@@@_STL@@@2@@_STL@@QAE@XZ
  00005	e8 00 00 00 00	 call	 __EH_prolog
  0000a	51		 push	 ecx
  0000b	56		 push	 esi
  0000c	8b f1		 mov	 esi, ecx
  0000e	89 75 f0	 mov	 DWORD PTR _this$[ebp], esi
  00011	83 65 fc 00	 and	 DWORD PTR __$EHRec$[ebp+8], 0
  00015	e8 00 00 00 00	 call	 ?clear@?$_Rb_tree@IU?$pair@$$CBIPAVMShopTemplate@@@_STL@@U?$_Select1st@U?$pair@$$CBIPAVMShopTemplate@@@_STL@@@2@U?$less@I@2@V?$allocator@U?$pair@$$CBIPAVMShopTemplate@@@_STL@@@2@@_STL@@QAEXXZ ; _STL::_Rb_tree<unsigned int,_STL::pair<unsigned int const ,MShopTemplate *>,_STL::_Select1st<_STL::pair<unsigned int const ,MShopTemplate *> >,_STL::less<unsigned int>,_STL::allocator<_STL::pair<unsigned int const ,MShopTemplate *> > >::clear
  0001a	83 4d fc ff	 or	 DWORD PTR __$EHRec$[ebp+8], -1
  0001e	6a 01		 push	 1
  00020	ff 36		 push	 DWORD PTR [esi]
  00022	8b ce		 mov	 ecx, esi
  00024	e8 00 00 00 00	 call	 ?deallocate@?$allocator@U?$_Rb_tree_node@U?$pair@$$CBIPAVMShopTemplate@@@_STL@@@_STL@@@_STL@@QAEXPAU?$_Rb_tree_node@U?$pair@$$CBIPAVMShopTemplate@@@_STL@@@2@I@Z ; _STL::allocator<_STL::_Rb_tree_node<_STL::pair<unsigned int const ,MShopTemplate *> > >::deallocate
  00029	8b 4d f4	 mov	 ecx, DWORD PTR __$EHRec$[ebp]
  0002c	5e		 pop	 esi
  0002d	64 89 0d 00 00
	00 00		 mov	 DWORD PTR fs:__except_list, ecx
  00034	c9		 leave
  00035	c3		 ret	 0
_TEXT	ENDS
;	COMDAT text$x
text$x	SEGMENT
$L103029:
  00000	8b 4d f0	 mov	 ecx, DWORD PTR _this$[ebp]
  00003	e9 00 00 00 00	 jmp	 ??1?$_Rb_tree_base@U?$pair@$$CBIPAVMShopTemplate@@@_STL@@V?$allocator@U?$pair@$$CBIPAVMShopTemplate@@@_STL@@@2@@_STL@@QAE@XZ ; _STL::_Rb_tree_base<_STL::pair<unsigned int const ,MShopTemplate *>,_STL::allocator<_STL::pair<unsigned int const ,MShopTemplate *> > >::~_Rb_tree_base<_STL::pair<unsigned int const ,MShopTemplate *>,_STL::allocator<_STL::pair<unsigned int const ,MShopTemplate *> > >
__ehhandler$??1?$_Rb_tree@IU?$pair@$$CBIPAVMShopTemplate@@@_STL@@U?$_Select1st@U?$pair@$$CBIPAVMShopTemplate@@@_STL@@@2@U?$less@I@2@V?$allocator@U?$pair@$$CBIPAVMShopTemplate@@@_STL@@@2@@_STL@@QAE@XZ:
  00008	b8 00 00 00 00	 mov	 eax, OFFSET FLAT:$T103046
  0000d	e9 00 00 00 00	 jmp	 ___CxxFrameHandler
text$x	ENDS
??1?$_Rb_tree@IU?$pair@$$CBIPAVMShopTemplate@@@_STL@@U?$_Select1st@U?$pair@$$CBIPAVMShopTemplate@@@_STL@@@2@U?$less@I@2@V?$allocator@U?$pair@$$CBIPAVMShopTemplate@@@_STL@@@2@@_STL@@QAE@XZ ENDP ; _STL::_Rb_tree<unsigned int,_STL::pair<unsigned int const ,MShopTemplate *>,_STL::_Select1st<_STL::pair<unsigned int const ,MShopTemplate *> >,_STL::less<unsigned int>,_STL::allocator<_STL::pair<unsigned int const ,MShopTemplate *> > >::~_Rb_tree<unsigned int,_STL::pair<unsigned int const ,MShopTemplate *>,_STL::_Select1st<_STL::pair<unsigned int const ,MShopTemplate *> >,_STL::less<unsigned int>,_STL::allocator<_STL::pair<unsigned int const ,MShopTemplate *> > >
PUBLIC	??0?$_Rb_tree@IU?$pair@$$CBIPAVMShopTemplate@@@_STL@@U?$_Select1st@U?$pair@$$CBIPAVMShopTemplate@@@_STL@@@2@U?$less@I@2@V?$allocator@U?$pair@$$CBIPAVMShopTemplate@@@_STL@@@2@@_STL@@QAE@ABU?$less@I@1@ABV?$allocator@U?$pair@$$CBIPAVMShopTemplate@@@_STL@@@1@@Z ; _STL::_Rb_tree<unsigned int,_STL::pair<unsigned int const ,MShopTemplate *>,_STL::_Select1st<_STL::pair<unsigned int const ,MShopTemplate *> >,_STL::less<unsigned int>,_STL::allocator<_STL::pair<unsigned int const ,MShopTemplate *> > >::_Rb_tree<unsigned int,_STL::pair<unsigned int const ,MShopTemplate *>,_STL::_Select1st<_STL::pair<unsigned int const ,MShopTemplate *> >,_STL::less<unsigned int>,_STL::allocator<_STL::pair<unsigned int const ,MShopTemplate *> > >
; Function compile flags: /Ogsy
;	COMDAT ??0?$_Rb_tree@IU?$pair@$$CBIPAVMShopTemplate@@@_STL@@U?$_Select1st@U?$pair@$$CBIPAVMShopTemplate@@@_STL@@@2@U?$less@I@2@V?$allocator@U?$pair@$$CBIPAVMShopTemplate@@@_STL@@@2@@_STL@@QAE@ABU?$less@I@1@ABV?$allocator@U?$pair@$$CBIPAVMShopTemplate@@@_STL@@@1@@Z
_TEXT	SEGMENT
___comp$ = 8						; size = 4
___a$ = 12						; size = 4
??0?$_Rb_tree@IU?$pair@$$CBIPAVMShopTemplate@@@_STL@@U?$_Select1st@U?$pair@$$CBIPAVMShopTemplate@@@_STL@@@2@U?$less@I@2@V?$allocator@U?$pair@$$CBIPAVMShopTemplate@@@_STL@@@2@@_STL@@QAE@ABU?$less@I@1@ABV?$allocator@U?$pair@$$CBIPAVMShopTemplate@@@_STL@@@1@@Z PROC NEAR ; _STL::_Rb_tree<unsigned int,_STL::pair<unsigned int const ,MShopTemplate *>,_STL::_Select1st<_STL::pair<unsigned int const ,MShopTemplate *> >,_STL::less<unsigned int>,_STL::allocator<_STL::pair<unsigned int const ,MShopTemplate *> > >::_Rb_tree<unsigned int,_STL::pair<unsigned int const ,MShopTemplate *>,_STL::_Select1st<_STL::pair<unsigned int const ,MShopTemplate *> >,_STL::less<unsigned int>,_STL::allocator<_STL::pair<unsigned int const ,MShopTemplate *> > >, COMDAT
; _this$ = ecx

; 325  :     { _M_empty_initialize(); }

  00000	56		 push	 esi
  00001	ff 74 24 0c	 push	 DWORD PTR ___a$[esp]
  00005	8b f1		 mov	 esi, ecx
  00007	e8 00 00 00 00	 call	 ??0?$_Rb_tree_base@U?$pair@$$CBIPAVMShopTemplate@@@_STL@@V?$allocator@U?$pair@$$CBIPAVMShopTemplate@@@_STL@@@2@@_STL@@QAE@ABV?$allocator@U?$pair@$$CBIPAVMShopTemplate@@@_STL@@@1@@Z ; _STL::_Rb_tree_base<_STL::pair<unsigned int const ,MShopTemplate *>,_STL::allocator<_STL::pair<unsigned int const ,MShopTemplate *> > >::_Rb_tree_base<_STL::pair<unsigned int const ,MShopTemplate *>,_STL::allocator<_STL::pair<unsigned int const ,MShopTemplate *> > >
  0000c	8b 0e		 mov	 ecx, DWORD PTR [esi]
  0000e	33 c0		 xor	 eax, eax
  00010	89 46 04	 mov	 DWORD PTR [esi+4], eax
  00013	88 01		 mov	 BYTE PTR [ecx], al
  00015	8b 0e		 mov	 ecx, DWORD PTR [esi]
  00017	89 41 04	 mov	 DWORD PTR [ecx+4], eax
  0001a	8b 06		 mov	 eax, DWORD PTR [esi]
  0001c	89 40 08	 mov	 DWORD PTR [eax+8], eax
  0001f	8b 06		 mov	 eax, DWORD PTR [esi]
  00021	89 40 0c	 mov	 DWORD PTR [eax+12], eax
  00024	8b c6		 mov	 eax, esi
  00026	5e		 pop	 esi
  00027	c2 08 00	 ret	 8
??0?$_Rb_tree@IU?$pair@$$CBIPAVMShopTemplate@@@_STL@@U?$_Select1st@U?$pair@$$CBIPAVMShopTemplate@@@_STL@@@2@U?$less@I@2@V?$allocator@U?$pair@$$CBIPAVMShopTemplate@@@_STL@@@2@@_STL@@QAE@ABU?$less@I@1@ABV?$allocator@U?$pair@$$CBIPAVMShopTemplate@@@_STL@@@1@@Z ENDP ; _STL::_Rb_tree<unsigned int,_STL::pair<unsigned int const ,MShopTemplate *>,_STL::_Select1st<_STL::pair<unsigned int const ,MShopTemplate *> >,_STL::less<unsigned int>,_STL::allocator<_STL::pair<unsigned int const ,MShopTemplate *> > >::_Rb_tree<unsigned int,_STL::pair<unsigned int const ,MShopTemplate *>,_STL::_Select1st<_STL::pair<unsigned int const ,MShopTemplate *> >,_STL::less<unsigned int>,_STL::allocator<_STL::pair<unsigned int const ,MShopTemplate *> > >
_TEXT	ENDS
PUBLIC	?SaveToFile@MShopTemplate@@QAEXAAV?$basic_ofstream@DV?$char_traits@D@_STL@@@_STL@@@Z ; MShopTemplate::SaveToFile
; Function compile flags: /Ogsy
; File c:\darkeden\designed_common\project\client\mshoptemplate.cpp
;	COMDAT ?SaveToFile@MShopTemplate@@QAEXAAV?$basic_ofstream@DV?$char_traits@D@_STL@@@_STL@@@Z
_TEXT	SEGMENT
_file$ = 8						; size = 4
?SaveToFile@MShopTemplate@@QAEXAAV?$basic_ofstream@DV?$char_traits@D@_STL@@@_STL@@@Z PROC NEAR ; MShopTemplate::SaveToFile, COMDAT
; _this$ = ecx

; 31   : {

  00000	56		 push	 esi
  00001	57		 push	 edi

; 32   : 	//file.write((const char*)&m_ID,        szShopTemplateID);
; 33   : 	file.write((const char*)&Type,      1);

  00002	8b 7c 24 0c	 mov	 edi, DWORD PTR _file$[esp+4]
  00006	8b f1		 mov	 esi, ecx
  00008	6a 01		 push	 1
  0000a	56		 push	 esi
  0000b	8b cf		 mov	 ecx, edi
  0000d	e8 00 00 00 00	 call	 ?write@?$basic_ostream@DV?$char_traits@D@_STL@@@_STL@@QAEAAV12@PBDH@Z ; _STL::basic_ostream<char,_STL::char_traits<char> >::write

; 34   : 	file.write((const char*)&Class,     4);

  00012	6a 04		 push	 4
  00014	8d 46 04	 lea	 eax, DWORD PTR [esi+4]
  00017	50		 push	 eax
  00018	8b cf		 mov	 ecx, edi
  0001a	e8 00 00 00 00	 call	 ?write@?$basic_ostream@DV?$char_traits@D@_STL@@@_STL@@QAEAAV12@PBDH@Z ; _STL::basic_ostream<char,_STL::char_traits<char> >::write

; 35   : 	file.write((const char*)&MinType,   2);

  0001f	6a 02		 push	 2
  00021	8d 46 08	 lea	 eax, DWORD PTR [esi+8]
  00024	50		 push	 eax
  00025	8b cf		 mov	 ecx, edi
  00027	e8 00 00 00 00	 call	 ?write@?$basic_ostream@DV?$char_traits@D@_STL@@@_STL@@QAEAAV12@PBDH@Z ; _STL::basic_ostream<char,_STL::char_traits<char> >::write

; 36   : 	file.write((const char*)&MaxType,   2);

  0002c	6a 02		 push	 2
  0002e	8d 46 0a	 lea	 eax, DWORD PTR [esi+10]
  00031	50		 push	 eax
  00032	8b cf		 mov	 ecx, edi
  00034	e8 00 00 00 00	 call	 ?write@?$basic_ostream@DV?$char_traits@D@_STL@@@_STL@@QAEAAV12@PBDH@Z ; _STL::basic_ostream<char,_STL::char_traits<char> >::write

; 37   : 	file.write((const char*)&MinOption, 1);

  00039	6a 01		 push	 1
  0003b	8d 46 0c	 lea	 eax, DWORD PTR [esi+12]
  0003e	50		 push	 eax
  0003f	8b cf		 mov	 ecx, edi
  00041	e8 00 00 00 00	 call	 ?write@?$basic_ostream@DV?$char_traits@D@_STL@@@_STL@@QAEAAV12@PBDH@Z ; _STL::basic_ostream<char,_STL::char_traits<char> >::write

; 38   : 	file.write((const char*)&MaxOption, 1);

  00046	6a 01		 push	 1
  00048	83 c6 0d	 add	 esi, 13			; 0000000dH
  0004b	56		 push	 esi
  0004c	8b cf		 mov	 ecx, edi
  0004e	e8 00 00 00 00	 call	 ?write@?$basic_ostream@DV?$char_traits@D@_STL@@@_STL@@QAEAAV12@PBDH@Z ; _STL::basic_ostream<char,_STL::char_traits<char> >::write
  00053	5f		 pop	 edi
  00054	5e		 pop	 esi

; 39   : }

  00055	c2 04 00	 ret	 4
?SaveToFile@MShopTemplate@@QAEXAAV?$basic_ofstream@DV?$char_traits@D@_STL@@@_STL@@@Z ENDP ; MShopTemplate::SaveToFile
_TEXT	ENDS
PUBLIC	?Release@?$CTypeMap@VMShopTemplate@@@@UAEXXZ	; CTypeMap<MShopTemplate>::Release
; Function compile flags: /Ogsy
; File c:\darkeden\designed_common\project\client\ctypemap.h
;	COMDAT ?Release@?$CTypeMap@VMShopTemplate@@@@UAEXXZ
_TEXT	SEGMENT
?Release@?$CTypeMap@VMShopTemplate@@@@UAEXXZ PROC NEAR	; CTypeMap<MShopTemplate>::Release, COMDAT
; _this$ = ecx

; 72   : {

  00000	56		 push	 esi
  00001	57		 push	 edi

; 73   : 	TYPE_MAP::iterator iData = begin();

  00002	8d 79 04	 lea	 edi, DWORD PTR [ecx+4]
  00005	8b 07		 mov	 eax, DWORD PTR [edi]
  00007	8b 70 08	 mov	 esi, DWORD PTR [eax+8]

; 74   : 
; 75   : 	while (iData != end())

  0000a	3b f0		 cmp	 esi, eax
  0000c	74 1b		 je	 SHORT $L101395
$L101394:

; 76   : 	{
; 77   : 		DataType*	pData	= (*iData).second;		
; 78   : 
; 79   : 		delete pData;

  0000e	8b 46 14	 mov	 eax, DWORD PTR [esi+20]
  00011	85 c0		 test	 eax, eax
  00013	74 07		 je	 SHORT $L103087
  00015	50		 push	 eax
  00016	e8 00 00 00 00	 call	 ??3@YAXPAX@Z		; operator delete
  0001b	59		 pop	 ecx
$L103087:

; 80   : 
; 81   : 		iData ++;

  0001c	56		 push	 esi
  0001d	e8 00 00 00 00	 call	 ?_M_increment@?$_Rb_global@_N@_STL@@SAPAU_Rb_tree_node_base@2@PAU32@@Z ; _STL::_Rb_global<bool>::_M_increment
  00022	8b f0		 mov	 esi, eax
  00024	3b 37		 cmp	 esi, DWORD PTR [edi]
  00026	59		 pop	 ecx
  00027	75 e5		 jne	 SHORT $L101394
$L101395:

; 82   : 	}
; 83   : 
; 84   : 	clear();

  00029	8b cf		 mov	 ecx, edi
  0002b	5f		 pop	 edi
  0002c	5e		 pop	 esi
  0002d	e9 00 00 00 00	 jmp	 ?clear@?$_Rb_tree@IU?$pair@$$CBIPAVMShopTemplate@@@_STL@@U?$_Select1st@U?$pair@$$CBIPAVMShopTemplate@@@_STL@@@2@U?$less@I@2@V?$allocator@U?$pair@$$CBIPAVMShopTemplate@@@_STL@@@2@@_STL@@QAEXXZ ; _STL::_Rb_tree<unsigned int,_STL::pair<unsigned int const ,MShopTemplate *>,_STL::_Select1st<_STL::pair<unsigned int const ,MShopTemplate *> >,_STL::less<unsigned int>,_STL::allocator<_STL::pair<unsigned int const ,MShopTemplate *> > >::clear
?Release@?$CTypeMap@VMShopTemplate@@@@UAEXXZ ENDP	; CTypeMap<MShopTemplate>::Release
_TEXT	ENDS
PUBLIC	??1?$map@IPAVMShopTemplate@@U?$less@I@_STL@@V?$allocator@U?$pair@$$CBIPAVMShopTemplate@@@_STL@@@3@@_STL@@QAE@XZ ; _STL::map<unsigned int,MShopTemplate *,_STL::less<unsigned int>,_STL::allocator<_STL::pair<unsigned int const ,MShopTemplate *> > >::~map<unsigned int,MShopTemplate *,_STL::less<unsigned int>,_STL::allocator<_STL::pair<unsigned int const ,MShopTemplate *> > >
; Function compile flags: /Ogsy
;	COMDAT ??1?$map@IPAVMShopTemplate@@U?$less@I@_STL@@V?$allocator@U?$pair@$$CBIPAVMShopTemplate@@@_STL@@@3@@_STL@@QAE@XZ
_TEXT	SEGMENT
??1?$map@IPAVMShopTemplate@@U?$less@I@_STL@@V?$allocator@U?$pair@$$CBIPAVMShopTemplate@@@_STL@@@3@@_STL@@QAE@XZ PROC NEAR ; _STL::map<unsigned int,MShopTemplate *,_STL::less<unsigned int>,_STL::allocator<_STL::pair<unsigned int const ,MShopTemplate *> > >::~map<unsigned int,MShopTemplate *,_STL::less<unsigned int>,_STL::allocator<_STL::pair<unsigned int const ,MShopTemplate *> > >, COMDAT
; _this$ = ecx
  00000	e9 00 00 00 00	 jmp	 ??1?$_Rb_tree@IU?$pair@$$CBIPAVMShopTemplate@@@_STL@@U?$_Select1st@U?$pair@$$CBIPAVMShopTemplate@@@_STL@@@2@U?$less@I@2@V?$allocator@U?$pair@$$CBIPAVMShopTemplate@@@_STL@@@2@@_STL@@QAE@XZ ; _STL::_Rb_tree<unsigned int,_STL::pair<unsigned int const ,MShopTemplate *>,_STL::_Select1st<_STL::pair<unsigned int const ,MShopTemplate *> >,_STL::less<unsigned int>,_STL::allocator<_STL::pair<unsigned int const ,MShopTemplate *> > >::~_Rb_tree<unsigned int,_STL::pair<unsigned int const ,MShopTemplate *>,_STL::_Select1st<_STL::pair<unsigned int const ,MShopTemplate *> >,_STL::less<unsigned int>,_STL::allocator<_STL::pair<unsigned int const ,MShopTemplate *> > >
??1?$map@IPAVMShopTemplate@@U?$less@I@_STL@@V?$allocator@U?$pair@$$CBIPAVMShopTemplate@@@_STL@@@3@@_STL@@QAE@XZ ENDP ; _STL::map<unsigned int,MShopTemplate *,_STL::less<unsigned int>,_STL::allocator<_STL::pair<unsigned int const ,MShopTemplate *> > >::~map<unsigned int,MShopTemplate *,_STL::less<unsigned int>,_STL::allocator<_STL::pair<unsigned int const ,MShopTemplate *> > >
_TEXT	ENDS
PUBLIC	??0?$map@IPAVMShopTemplate@@U?$less@I@_STL@@V?$allocator@U?$pair@$$CBIPAVMShopTemplate@@@_STL@@@3@@_STL@@QAE@XZ ; _STL::map<unsigned int,MShopTemplate *,_STL::less<unsigned int>,_STL::allocator<_STL::pair<unsigned int const ,MShopTemplate *> > >::map<unsigned int,MShopTemplate *,_STL::less<unsigned int>,_STL::allocator<_STL::pair<unsigned int const ,MShopTemplate *> > >
; Function compile flags: /Ogsy
; File c:\stlport-4.6.1\stlport\stl\_map.h
;	COMDAT ??0?$map@IPAVMShopTemplate@@U?$less@I@_STL@@V?$allocator@U?$pair@$$CBIPAVMShopTemplate@@@_STL@@@3@@_STL@@QAE@XZ
_TEXT	SEGMENT
$T103171 = -1						; size = 1
$T103170 = -1						; size = 1
??0?$map@IPAVMShopTemplate@@U?$less@I@_STL@@V?$allocator@U?$pair@$$CBIPAVMShopTemplate@@@_STL@@@3@@_STL@@QAE@XZ PROC NEAR ; _STL::map<unsigned int,MShopTemplate *,_STL::less<unsigned int>,_STL::allocator<_STL::pair<unsigned int const ,MShopTemplate *> > >::map<unsigned int,MShopTemplate *,_STL::less<unsigned int>,_STL::allocator<_STL::pair<unsigned int const ,MShopTemplate *> > >, COMDAT
; _this$ = ecx

; 91   :   map() : _M_t(_Compare(), allocator_type()) {}

  00000	55		 push	 ebp
  00001	8b ec		 mov	 ebp, esp
  00003	51		 push	 ecx
  00004	56		 push	 esi
  00005	8d 45 ff	 lea	 eax, DWORD PTR $T103170[ebp]
  00008	50		 push	 eax
  00009	8d 45 ff	 lea	 eax, DWORD PTR $T103171[ebp]
  0000c	50		 push	 eax
  0000d	8b f1		 mov	 esi, ecx
  0000f	e8 00 00 00 00	 call	 ??0?$_Rb_tree@IU?$pair@$$CBIPAVMShopTemplate@@@_STL@@U?$_Select1st@U?$pair@$$CBIPAVMShopTemplate@@@_STL@@@2@U?$less@I@2@V?$allocator@U?$pair@$$CBIPAVMShopTemplate@@@_STL@@@2@@_STL@@QAE@ABU?$less@I@1@ABV?$allocator@U?$pair@$$CBIPAVMShopTemplate@@@_STL@@@1@@Z ; _STL::_Rb_tree<unsigned int,_STL::pair<unsigned int const ,MShopTemplate *>,_STL::_Select1st<_STL::pair<unsigned int const ,MShopTemplate *> >,_STL::less<unsigned int>,_STL::allocator<_STL::pair<unsigned int const ,MShopTemplate *> > >::_Rb_tree<unsigned int,_STL::pair<unsigned int const ,MShopTemplate *>,_STL::_Select1st<_STL::pair<unsigned int const ,MShopTemplate *> >,_STL::less<unsigned int>,_STL::allocator<_STL::pair<unsigned int const ,MShopTemplate *> > >
  00014	8b c6		 mov	 eax, esi
  00016	5e		 pop	 esi
  00017	c9		 leave
  00018	c3		 ret	 0
??0?$map@IPAVMShopTemplate@@U?$less@I@_STL@@V?$allocator@U?$pair@$$CBIPAVMShopTemplate@@@_STL@@@3@@_STL@@QAE@XZ ENDP ; _STL::map<unsigned int,MShopTemplate *,_STL::less<unsigned int>,_STL::allocator<_STL::pair<unsigned int const ,MShopTemplate *> > >::map<unsigned int,MShopTemplate *,_STL::less<unsigned int>,_STL::allocator<_STL::pair<unsigned int const ,MShopTemplate *> > >
_TEXT	ENDS
PUBLIC	??0?$CTypeMap@VMShopTemplate@@@@QAE@XZ		; CTypeMap<MShopTemplate>::CTypeMap<MShopTemplate>
PUBLIC	?AddData@?$CTypeMap@VMShopTemplate@@@@UAE_NIPAVMShopTemplate@@@Z ; CTypeMap<MShopTemplate>::AddData
PUBLIC	?GetData@?$CTypeMap@VMShopTemplate@@@@UAEPAVMShopTemplate@@I@Z ; CTypeMap<MShopTemplate>::GetData
PUBLIC	?RemoveData@?$CTypeMap@VMShopTemplate@@@@UAE_NI@Z ; CTypeMap<MShopTemplate>::RemoveData
PUBLIC	?SaveToFile@?$CTypeMap@VMShopTemplate@@@@UAEXAAV?$basic_ofstream@DV?$char_traits@D@_STL@@@_STL@@@Z ; CTypeMap<MShopTemplate>::SaveToFile
PUBLIC	?LoadFromFile@?$CTypeMap@VMShopTemplate@@@@UAEXAAVivfstream@@@Z ; CTypeMap<MShopTemplate>::LoadFromFile
PUBLIC	??_7?$CTypeMap@VMShopTemplate@@@@6B@		; CTypeMap<MShopTemplate>::`vftable'
PUBLIC	??_G?$CTypeMap@VMShopTemplate@@@@UAEPAXI@Z	; CTypeMap<MShopTemplate>::`scalar deleting destructor'
PUBLIC	??_R1A@?0A@A@?$CTypeMap@VMShopTemplate@@@@8	; CTypeMap<MShopTemplate>::`RTTI Base Class Descriptor at (0,-1,0,0)'
PUBLIC	??_R0?AV?$CTypeMap@VMShopTemplate@@@@@8		; CTypeMap<MShopTemplate> `RTTI Type Descriptor'
PUBLIC	??_R13?0A@A@?$map@IPAVMShopTemplate@@U?$less@I@_STL@@V?$allocator@U?$pair@$$CBIPAVMShopTemplate@@@_STL@@@3@@_STL@@8 ; _STL::map<unsigned int,MShopTemplate *,_STL::less<unsigned int>,_STL::allocator<_STL::pair<unsigned int const ,MShopTemplate *> > >::`RTTI Base Class Descriptor at (4,-1,0,0)'
PUBLIC	??_R0?AV?$map@IPAVMShopTemplate@@U?$less@I@_STL@@V?$allocator@U?$pair@$$CBIPAVMShopTemplate@@@_STL@@@3@@_STL@@@8 ; _STL::map<unsigned int,MShopTemplate *,_STL::less<unsigned int>,_STL::allocator<_STL::pair<unsigned int const ,MShopTemplate *> > > `RTTI Type Descriptor'
PUBLIC	??_R4?$CTypeMap@VMShopTemplate@@@@6B@		; CTypeMap<MShopTemplate>::`RTTI Complete Object Locator'
PUBLIC	??_R3?$CTypeMap@VMShopTemplate@@@@8		; CTypeMap<MShopTemplate>::`RTTI Class Hierarchy Descriptor'
PUBLIC	??_R2?$CTypeMap@VMShopTemplate@@@@8		; CTypeMap<MShopTemplate>::`RTTI Base Class Array'
EXTRN	??_7type_info@@6B@:QWORD			; type_info::`vftable'
EXTRN	??_E?$CTypeMap@VMShopTemplate@@@@UAEPAXI@Z:NEAR	; CTypeMap<MShopTemplate>::`vector deleting destructor'
;	COMDAT ??_7?$CTypeMap@VMShopTemplate@@@@6B@
; File c:\darkeden\designed_common\project\client\ctypemap.h
CONST	SEGMENT
??_7?$CTypeMap@VMShopTemplate@@@@6B@ DD FLAT:??_R4?$CTypeMap@VMShopTemplate@@@@6B@ ; CTypeMap<MShopTemplate>::`vftable'
	DD	FLAT:??_E?$CTypeMap@VMShopTemplate@@@@UAEPAXI@Z
	DD	FLAT:?Release@?$CTypeMap@VMShopTemplate@@@@UAEXXZ
	DD	FLAT:?AddData@?$CTypeMap@VMShopTemplate@@@@UAE_NIPAVMShopTemplate@@@Z
	DD	FLAT:?GetData@?$CTypeMap@VMShopTemplate@@@@UAEPAVMShopTemplate@@I@Z
	DD	FLAT:?RemoveData@?$CTypeMap@VMShopTemplate@@@@UAE_NI@Z
	DD	FLAT:?SaveToFile@?$CTypeMap@VMShopTemplate@@@@UAEXAAV?$basic_ofstream@DV?$char_traits@D@_STL@@@_STL@@@Z
	DD	FLAT:?LoadFromFile@?$CTypeMap@VMShopTemplate@@@@UAEXAAVivfstream@@@Z
CONST	ENDS
;	COMDAT ??_R4?$CTypeMap@VMShopTemplate@@@@6B@
rdata$r	SEGMENT
??_R4?$CTypeMap@VMShopTemplate@@@@6B@ DD 00H		; CTypeMap<MShopTemplate>::`RTTI Complete Object Locator'
	DD	00H
	DD	00H
	DD	FLAT:??_R0?AV?$CTypeMap@VMShopTemplate@@@@@8
	DD	FLAT:??_R3?$CTypeMap@VMShopTemplate@@@@8
rdata$r	ENDS
;	COMDAT ??_R0?AV?$CTypeMap@VMShopTemplate@@@@@8
_DATA	SEGMENT
??_R0?AV?$CTypeMap@VMShopTemplate@@@@@8 DD FLAT:??_7type_info@@6B@ ; CTypeMap<MShopTemplate> `RTTI Type Descriptor'
	DD	00H
	DB	'.?AV?$CTypeMap@VMShopTemplate@@@@', 00H
_DATA	ENDS
;	COMDAT ??_R3?$CTypeMap@VMShopTemplate@@@@8
rdata$r	SEGMENT
??_R3?$CTypeMap@VMShopTemplate@@@@8 DD 00H		; CTypeMap<MShopTemplate>::`RTTI Class Hierarchy Descriptor'
	DD	00H
	DD	02H
	DD	FLAT:??_R2?$CTypeMap@VMShopTemplate@@@@8
rdata$r	ENDS
;	COMDAT ??_R2?$CTypeMap@VMShopTemplate@@@@8
rdata$r	SEGMENT
??_R2?$CTypeMap@VMShopTemplate@@@@8 DD FLAT:??_R1A@?0A@A@?$CTypeMap@VMShopTemplate@@@@8 ; CTypeMap<MShopTemplate>::`RTTI Base Class Array'
	DD	FLAT:??_R13?0A@A@?$map@IPAVMShopTemplate@@U?$less@I@_STL@@V?$allocator@U?$pair@$$CBIPAVMShopTemplate@@@_STL@@@3@@_STL@@8
rdata$r	ENDS
;	COMDAT ??_R1A@?0A@A@?$CTypeMap@VMShopTemplate@@@@8
rdata$r	SEGMENT
??_R1A@?0A@A@?$CTypeMap@VMShopTemplate@@@@8 DD FLAT:??_R0?AV?$CTypeMap@VMShopTemplate@@@@@8 ; CTypeMap<MShopTemplate>::`RTTI Base Class Descriptor at (0,-1,0,0)'
	DD	01H
	DD	00H
	DD	0ffffffffH
	DD	00H
	DD	00H
rdata$r	ENDS
;	COMDAT ??_R13?0A@A@?$map@IPAVMShopTemplate@@U?$less@I@_STL@@V?$allocator@U?$pair@$$CBIPAVMShopTemplate@@@_STL@@@3@@_STL@@8
rdata$r	SEGMENT
??_R13?0A@A@?$map@IPAVMShopTemplate@@U?$less@I@_STL@@V?$allocator@U?$pair@$$CBIPAVMShopTemplate@@@_STL@@@3@@_STL@@8 DD FLAT:??_R0?AV?$map@IPAVMShopTemplate@@U?$less@I@_STL@@V?$allocator@U?$pair@$$CBIPAVMShopTemplate@@@_STL@@@3@@_STL@@@8 ; _STL::map<unsigned int,MShopTemplate *,_STL::less<unsigned int>,_STL::allocator<_STL::pair<unsigned int const ,MShopTemplate *> > >::`RTTI Base Class Descriptor at (4,-1,0,0)'
	DD	00H
	DD	04H
	DD	0ffffffffH
	DD	00H
	DD	00H
rdata$r	ENDS
;	COMDAT ??_R0?AV?$map@IPAVMShopTemplate@@U?$less@I@_STL@@V?$allocator@U?$pair@$$CBIPAVMShopTemplate@@@_STL@@@3@@_STL@@@8
_DATA	SEGMENT
??_R0?AV?$map@IPAVMShopTemplate@@U?$less@I@_STL@@V?$allocator@U?$pair@$$CBIPAVMShopTemplate@@@_STL@@@3@@_STL@@@8 DD FLAT:??_7type_info@@6B@ ; _STL::map<unsigned int,MShopTemplate *,_STL::less<unsigned int>,_STL::allocator<_STL::pair<unsigned int const ,MShopTemplate *> > > `RTTI Type Descriptor'
	DD	00H
	DB	'.?AV?$map@IPAVMShopTemplate@@U?$less@I@_STL@@V?$allocato'
	DB	'r@U?$pair@$$CBIPAVMShopTemplate@@@_STL@@@3@@_STL@@', 00H
; Function compile flags: /Ogsy
_DATA	ENDS
;	COMDAT ??0?$CTypeMap@VMShopTemplate@@@@QAE@XZ
_TEXT	SEGMENT
??0?$CTypeMap@VMShopTemplate@@@@QAE@XZ PROC NEAR	; CTypeMap<MShopTemplate>::CTypeMap<MShopTemplate>, COMDAT
; _this$ = ecx

; 57   : {

  00000	56		 push	 esi
  00001	8b f1		 mov	 esi, ecx
  00003	8d 4e 04	 lea	 ecx, DWORD PTR [esi+4]
  00006	e8 00 00 00 00	 call	 ??0?$map@IPAVMShopTemplate@@U?$less@I@_STL@@V?$allocator@U?$pair@$$CBIPAVMShopTemplate@@@_STL@@@3@@_STL@@QAE@XZ ; _STL::map<unsigned int,MShopTemplate *,_STL::less<unsigned int>,_STL::allocator<_STL::pair<unsigned int const ,MShopTemplate *> > >::map<unsigned int,MShopTemplate *,_STL::less<unsigned int>,_STL::allocator<_STL::pair<unsigned int const ,MShopTemplate *> > >
  0000b	c7 06 00 00 00
	00		 mov	 DWORD PTR [esi], OFFSET FLAT:??_7?$CTypeMap@VMShopTemplate@@@@6B@

; 58   : }

  00011	8b c6		 mov	 eax, esi
  00013	5e		 pop	 esi
  00014	c3		 ret	 0
??0?$CTypeMap@VMShopTemplate@@@@QAE@XZ ENDP		; CTypeMap<MShopTemplate>::CTypeMap<MShopTemplate>
; Function compile flags: /Ogsy
_TEXT	ENDS
;	COMDAT ?LoadFromFile@?$CTypeMap@VMShopTemplate@@@@UAEXAAVivfstream@@@Z
_TEXT	SEGMENT
_id$ = -8						; size = 4
_infoSize$ = -4						; size = 4
_i$101495 = 8						; size = 4
_file$ = 8						; size = 4
?LoadFromFile@?$CTypeMap@VMShopTemplate@@@@UAEXAAVivfstream@@@Z PROC NEAR ; CTypeMap<MShopTemplate>::LoadFromFile, COMDAT
; _this$ = ecx

; 189  : {

  00000	55		 push	 ebp
  00001	8b ec		 mov	 ebp, esp
  00003	51		 push	 ecx
  00004	51		 push	 ecx
  00005	53		 push	 ebx
  00006	56		 push	 esi
  00007	57		 push	 edi
  00008	8b f9		 mov	 edi, ecx

; 190  : 	//-----------------------------------------------------
; 191  : 	//   
; 192  : 	//-----------------------------------------------------
; 193  : 	Release();

  0000a	8b 07		 mov	 eax, DWORD PTR [edi]
  0000c	ff 50 04	 call	 DWORD PTR [eax+4]

; 194  : 
; 195  : 	//-----------------------------------------------------
; 196  : 	// size 
; 197  : 	//-----------------------------------------------------
; 198  : 	int infoSize;
; 199  : 	file.read((char*)&infoSize, 4);

  0000f	8b 75 08	 mov	 esi, DWORD PTR _file$[ebp]
  00012	33 db		 xor	 ebx, ebx
  00014	39 5e 04	 cmp	 DWORD PTR [esi+4], ebx
  00017	74 0e		 je	 SHORT $L103218
  00019	8b 4e 04	 mov	 ecx, DWORD PTR [esi+4]
  0001c	8b 01		 mov	 eax, DWORD PTR [ecx]
  0001e	6a 04		 push	 4
  00020	8d 55 fc	 lea	 edx, DWORD PTR _infoSize$[ebp]
  00023	52		 push	 edx
  00024	ff 50 10	 call	 DWORD PTR [eax+16]
$L103218:

; 200  : 
; 201  : 	//-----------------------------------------------------
; 202  : 	//  info
; 203  : 	//-----------------------------------------------------
; 204  : 	unsigned int id;
; 205  : 	for (int i=0; i<infoSize; i++)

  00027	39 5d fc	 cmp	 DWORD PTR _infoSize$[ebp], ebx
  0002a	89 5d 08	 mov	 DWORD PTR _i$101495[ebp], ebx
  0002d	7e 4b		 jle	 SHORT $L101498
$L103219:

; 206  : 	{		
; 207  : 		file.read((char*)&id, 4);

  0002f	83 7e 04 00	 cmp	 DWORD PTR [esi+4], 0
  00033	74 0e		 je	 SHORT $L103201
  00035	8b 4e 04	 mov	 ecx, DWORD PTR [esi+4]
  00038	8b 01		 mov	 eax, DWORD PTR [ecx]
  0003a	6a 04		 push	 4
  0003c	8d 55 f8	 lea	 edx, DWORD PTR _id$[ebp]
  0003f	52		 push	 edx
  00040	ff 50 10	 call	 DWORD PTR [eax+16]
$L103201:

; 208  : 		DataType*	pData = new DataType;

  00043	6a 10		 push	 16			; 00000010H
  00045	e8 00 00 00 00	 call	 ??2@YAPAXI@Z		; operator new
  0004a	59		 pop	 ecx
  0004b	8b d8		 mov	 ebx, eax

; 209  : 
; 210  : 		pData->LoadFromFile( file );

  0004d	56		 push	 esi
  0004e	8b cb		 mov	 ecx, ebx
  00050	e8 00 00 00 00	 call	 ?LoadFromFile@MShopTemplate@@QAEXAAVivfstream@@@Z ; MShopTemplate::LoadFromFile

; 211  : 
; 212  : 		//-----------------------------------------------------
; 213  : 		// map .
; 214  : 		//-----------------------------------------------------
; 215  : 		if (!AddData( id, pData ))

  00055	8b 07		 mov	 eax, DWORD PTR [edi]
  00057	53		 push	 ebx
  00058	ff 75 f8	 push	 DWORD PTR _id$[ebp]
  0005b	8b cf		 mov	 ecx, edi
  0005d	ff 50 08	 call	 DWORD PTR [eax+8]
  00060	84 c0		 test	 al, al
  00062	75 0b		 jne	 SHORT $L101497

; 216  : 		{
; 217  : 			delete pData;

  00064	85 db		 test	 ebx, ebx
  00066	74 07		 je	 SHORT $L101497
  00068	53		 push	 ebx
  00069	e8 00 00 00 00	 call	 ??3@YAXPAX@Z		; operator delete
  0006e	59		 pop	 ecx
$L101497:
  0006f	ff 45 08	 inc	 DWORD PTR _i$101495[ebp]
  00072	8b 45 08	 mov	 eax, DWORD PTR _i$101495[ebp]
  00075	3b 45 fc	 cmp	 eax, DWORD PTR _infoSize$[ebp]
  00078	7c b5		 jl	 SHORT $L103219
$L101498:
  0007a	5f		 pop	 edi
  0007b	5e		 pop	 esi
  0007c	5b		 pop	 ebx

; 218  : 		}
; 219  : 	}
; 220  : }

  0007d	c9		 leave
  0007e	c2 04 00	 ret	 4
?LoadFromFile@?$CTypeMap@VMShopTemplate@@@@UAEXAAVivfstream@@@Z ENDP ; CTypeMap<MShopTemplate>::LoadFromFile
_TEXT	ENDS
PUBLIC	??$_M_find@I@?$_Rb_tree@IU?$pair@$$CBIPAVMShopTemplate@@@_STL@@U?$_Select1st@U?$pair@$$CBIPAVMShopTemplate@@@_STL@@@2@U?$less@I@2@V?$allocator@U?$pair@$$CBIPAVMShopTemplate@@@_STL@@@2@@_STL@@ABEPAU?$_Rb_tree_node@U?$pair@$$CBIPAVMShopTemplate@@@_STL@@@1@ABI@Z ; _STL::_Rb_tree<unsigned int,_STL::pair<unsigned int const ,MShopTemplate *>,_STL::_Select1st<_STL::pair<unsigned int const ,MShopTemplate *> >,_STL::less<unsigned int>,_STL::allocator<_STL::pair<unsigned int const ,MShopTemplate *> > >::_M_find<unsigned int>
; Function compile flags: /Ogsy
;	COMDAT ?GetData@?$CTypeMap@VMShopTemplate@@@@UAEPAVMShopTemplate@@I@Z
_TEXT	SEGMENT
_id$ = 8						; size = 4
?GetData@?$CTypeMap@VMShopTemplate@@@@UAEPAVMShopTemplate@@I@Z PROC NEAR ; CTypeMap<MShopTemplate>::GetData, COMDAT
; _this$ = ecx

; 117  : {

  00000	56		 push	 esi

; 118  : 	TYPE_MAP::iterator	iData = find( id );

  00001	8d 71 04	 lea	 esi, DWORD PTR [ecx+4]
  00004	8d 44 24 08	 lea	 eax, DWORD PTR _id$[esp]
  00008	50		 push	 eax
  00009	8b ce		 mov	 ecx, esi
  0000b	e8 00 00 00 00	 call	 ??$_M_find@I@?$_Rb_tree@IU?$pair@$$CBIPAVMShopTemplate@@@_STL@@U?$_Select1st@U?$pair@$$CBIPAVMShopTemplate@@@_STL@@@2@U?$less@I@2@V?$allocator@U?$pair@$$CBIPAVMShopTemplate@@@_STL@@@2@@_STL@@ABEPAU?$_Rb_tree_node@U?$pair@$$CBIPAVMShopTemplate@@@_STL@@@1@ABI@Z ; _STL::_Rb_tree<unsigned int,_STL::pair<unsigned int const ,MShopTemplate *>,_STL::_Select1st<_STL::pair<unsigned int const ,MShopTemplate *> >,_STL::less<unsigned int>,_STL::allocator<_STL::pair<unsigned int const ,MShopTemplate *> > >::_M_find<unsigned int>

; 119  : 
; 120  : 	if (iData == end())

  00010	3b 06		 cmp	 eax, DWORD PTR [esi]
  00012	5e		 pop	 esi
  00013	75 04		 jne	 SHORT $L101457

; 121  : 	{
; 122  : 		//   
; 123  : 		return NULL;

  00015	33 c0		 xor	 eax, eax
  00017	eb 03		 jmp	 SHORT $L101453
$L101457:

; 124  : 	}
; 125  : 
; 126  : 	//  
; 127  : 	return (*iData).second;

  00019	8b 40 14	 mov	 eax, DWORD PTR [eax+20]
$L101453:

; 128  : }

  0001c	c2 04 00	 ret	 4
?GetData@?$CTypeMap@VMShopTemplate@@@@UAEPAVMShopTemplate@@I@Z ENDP ; CTypeMap<MShopTemplate>::GetData
; Function compile flags: /Ogsy
; File c:\stlport-4.6.1\stlport\stl\_tree.h
_TEXT	ENDS
;	COMDAT ??$_M_find@I@?$_Rb_tree@IU?$pair@$$CBIPAVMShopTemplate@@@_STL@@U?$_Select1st@U?$pair@$$CBIPAVMShopTemplate@@@_STL@@@2@U?$less@I@2@V?$allocator@U?$pair@$$CBIPAVMShopTemplate@@@_STL@@@2@@_STL@@ABEPAU?$_Rb_tree_node@U?$pair@$$CBIPAVMShopTemplate@@@_STL@@@1@ABI@Z
_TEXT	SEGMENT
___k$ = 8						; size = 4
??$_M_find@I@?$_Rb_tree@IU?$pair@$$CBIPAVMShopTemplate@@@_STL@@U?$_Select1st@U?$pair@$$CBIPAVMShopTemplate@@@_STL@@@2@U?$less@I@2@V?$allocator@U?$pair@$$CBIPAVMShopTemplate@@@_STL@@@2@@_STL@@ABEPAU?$_Rb_tree_node@U?$pair@$$CBIPAVMShopTemplate@@@_STL@@@1@ABI@Z PROC NEAR ; _STL::_Rb_tree<unsigned int,_STL::pair<unsigned int const ,MShopTemplate *>,_STL::_Select1st<_STL::pair<unsigned int const ,MShopTemplate *> >,_STL::less<unsigned int>,_STL::allocator<_STL::pair<unsigned int const ,MShopTemplate *> > >::_M_find<unsigned int>, COMDAT
; _this$ = ecx

; 462  : # else
; 463  :   iterator find(const key_type& __x) { return iterator(_M_find(__x)); }
; 464  :   const_iterator find(const key_type& __x) const { return const_iterator(_M_find(__x)); }
; 465  : private:
; 466  :   _Rb_tree_node<_Value>* _M_find(const key_type& __k) const
; 467  : # endif
; 468  :   {
; 469  :     _Link_type __y = this->_M_header._M_data;      // Last node which is not less than __k. 

  00000	8b 11		 mov	 edx, DWORD PTR [ecx]

; 470  :     _Link_type __x = _M_root();      // Current node. 

  00002	8b 4a 04	 mov	 ecx, DWORD PTR [edx+4]

; 471  :     
; 472  :     while (__x != 0) 

  00005	85 c9		 test	 ecx, ecx
  00007	57		 push	 edi
  00008	8b 7c 24 08	 mov	 edi, DWORD PTR ___k$[esp]
  0000c	8b c2		 mov	 eax, edx
  0000e	74 17		 je	 SHORT $L102044
  00010	56		 push	 esi
  00011	8b 37		 mov	 esi, DWORD PTR [edi]
$L102043:

; 473  :       if (!_M_key_compare(_S_key(__x), __k))

  00013	39 71 10	 cmp	 DWORD PTR [ecx+16], esi
  00016	72 07		 jb	 SHORT $L102045

; 474  : 	__y = __x, __x = _S_left(__x);

  00018	8b c1		 mov	 eax, ecx
  0001a	8b 49 08	 mov	 ecx, DWORD PTR [ecx+8]

; 475  :       else

  0001d	eb 03		 jmp	 SHORT $L102046
$L102045:

; 476  : 	__x = _S_right(__x);

  0001f	8b 49 0c	 mov	 ecx, DWORD PTR [ecx+12]
$L102046:

; 471  :     
; 472  :     while (__x != 0) 

  00022	85 c9		 test	 ecx, ecx
  00024	75 ed		 jne	 SHORT $L102043
  00026	5e		 pop	 esi
$L102044:

; 477  :     if (__y == this->_M_header._M_data || _M_key_compare(__k, _S_key(__y)))

  00027	3b c2		 cmp	 eax, edx
  00029	74 07		 je	 SHORT $L102048
  0002b	8b 0f		 mov	 ecx, DWORD PTR [edi]
  0002d	3b 48 10	 cmp	 ecx, DWORD PTR [eax+16]
  00030	73 02		 jae	 SHORT $L102047
$L102048:

; 478  :       __y = this->_M_header._M_data;

  00032	8b c2		 mov	 eax, edx
$L102047:
  00034	5f		 pop	 edi

; 479  :     return __y;
; 480  :   }

  00035	c2 04 00	 ret	 4
??$_M_find@I@?$_Rb_tree@IU?$pair@$$CBIPAVMShopTemplate@@@_STL@@U?$_Select1st@U?$pair@$$CBIPAVMShopTemplate@@@_STL@@@2@U?$less@I@2@V?$allocator@U?$pair@$$CBIPAVMShopTemplate@@@_STL@@@2@@_STL@@ABEPAU?$_Rb_tree_node@U?$pair@$$CBIPAVMShopTemplate@@@_STL@@@1@ABI@Z ENDP ; _STL::_Rb_tree<unsigned int,_STL::pair<unsigned int const ,MShopTemplate *>,_STL::_Select1st<_STL::pair<unsigned int const ,MShopTemplate *> >,_STL::less<unsigned int>,_STL::allocator<_STL::pair<unsigned int const ,MShopTemplate *> > >::_M_find<unsigned int>
_TEXT	ENDS
PUBLIC	?erase@?$_Rb_tree@IU?$pair@$$CBIPAVMShopTemplate@@@_STL@@U?$_Select1st@U?$pair@$$CBIPAVMShopTemplate@@@_STL@@@2@U?$less@I@2@V?$allocator@U?$pair@$$CBIPAVMShopTemplate@@@_STL@@@2@@_STL@@QAEXU?$_Rb_tree_iterator@U?$pair@$$CBIPAVMShopTemplate@@@_STL@@U?$_Nonconst_traits@U?$pair@$$CBIPAVMShopTemplate@@@_STL@@@2@@2@@Z ; _STL::_Rb_tree<unsigned int,_STL::pair<unsigned int const ,MShopTemplate *>,_STL::_Select1st<_STL::pair<unsigned int const ,MShopTemplate *> >,_STL::less<unsigned int>,_STL::allocator<_STL::pair<unsigned int const ,MShopTemplate *> > >::erase
; Function compile flags: /Ogsy
; File c:\darkeden\designed_common\project\client\ctypemap.h
;	COMDAT ?RemoveData@?$CTypeMap@VMShopTemplate@@@@UAE_NI@Z
_TEXT	SEGMENT
_id$ = 8						; size = 4
?RemoveData@?$CTypeMap@VMShopTemplate@@@@UAE_NI@Z PROC NEAR ; CTypeMap<MShopTemplate>::RemoveData, COMDAT
; _this$ = ecx

; 136  : {

  00000	56		 push	 esi
  00001	57		 push	 edi

; 137  : 	TYPE_MAP::iterator	iData = find( id );

  00002	8d 79 04	 lea	 edi, DWORD PTR [ecx+4]
  00005	8d 44 24 0c	 lea	 eax, DWORD PTR _id$[esp+4]
  00009	50		 push	 eax
  0000a	8b cf		 mov	 ecx, edi
  0000c	e8 00 00 00 00	 call	 ??$_M_find@I@?$_Rb_tree@IU?$pair@$$CBIPAVMShopTemplate@@@_STL@@U?$_Select1st@U?$pair@$$CBIPAVMShopTemplate@@@_STL@@@2@U?$less@I@2@V?$allocator@U?$pair@$$CBIPAVMShopTemplate@@@_STL@@@2@@_STL@@ABEPAU?$_Rb_tree_node@U?$pair@$$CBIPAVMShopTemplate@@@_STL@@@1@ABI@Z ; _STL::_Rb_tree<unsigned int,_STL::pair<unsigned int const ,MShopTemplate *>,_STL::_Select1st<_STL::pair<unsigned int const ,MShopTemplate *> >,_STL::less<unsigned int>,_STL::allocator<_STL::pair<unsigned int const ,MShopTemplate *> > >::_M_find<unsigned int>
  00011	8b f0		 mov	 esi, eax

; 138  : 
; 139  : 	if (iData == end())

  00013	3b 37		 cmp	 esi, DWORD PTR [edi]
  00015	75 04		 jne	 SHORT $L101466

; 140  : 	{
; 141  : 		//   
; 142  : 		return false;

  00017	32 c0		 xor	 al, al
  00019	eb 1c		 jmp	 SHORT $L101462
$L101466:

; 143  : 	}
; 144  : 
; 145  : 	//   .
; 146  : 	delete (*iData).second;

  0001b	8b 46 14	 mov	 eax, DWORD PTR [esi+20]
  0001e	85 c0		 test	 eax, eax
  00020	74 07		 je	 SHORT $L103316
  00022	50		 push	 eax
  00023	e8 00 00 00 00	 call	 ??3@YAXPAX@Z		; operator delete
  00028	59		 pop	 ecx
$L103316:

; 147  : 
; 148  : 	erase( iData );

  00029	51		 push	 ecx
  0002a	8b c4		 mov	 eax, esp
  0002c	8b cf		 mov	 ecx, edi
  0002e	89 30		 mov	 DWORD PTR [eax], esi
  00030	e8 00 00 00 00	 call	 ?erase@?$_Rb_tree@IU?$pair@$$CBIPAVMShopTemplate@@@_STL@@U?$_Select1st@U?$pair@$$CBIPAVMShopTemplate@@@_STL@@@2@U?$less@I@2@V?$allocator@U?$pair@$$CBIPAVMShopTemplate@@@_STL@@@2@@_STL@@QAEXU?$_Rb_tree_iterator@U?$pair@$$CBIPAVMShopTemplate@@@_STL@@U?$_Nonconst_traits@U?$pair@$$CBIPAVMShopTemplate@@@_STL@@@2@@2@@Z ; _STL::_Rb_tree<unsigned int,_STL::pair<unsigned int const ,MShopTemplate *>,_STL::_Select1st<_STL::pair<unsigned int const ,MShopTemplate *> >,_STL::less<unsigned int>,_STL::allocator<_STL::pair<unsigned int const ,MShopTemplate *> > >::erase

; 149  : 
; 150  : 	return true;

  00035	b0 01		 mov	 al, 1
$L101462:

; 151  : }

  00037	5f		 pop	 edi
  00038	5e		 pop	 esi
  00039	c2 04 00	 ret	 4
?RemoveData@?$CTypeMap@VMShopTemplate@@@@UAE_NI@Z ENDP	; CTypeMap<MShopTemplate>::RemoveData
_TEXT	ENDS
EXTRN	?_Rebalance_for_erase@?$_Rb_global@_N@_STL@@SAPAU_Rb_tree_node_base@2@PAU32@AAPAU32@11@Z:NEAR ; _STL::_Rb_global<bool>::_Rebalance_for_erase
; Function compile flags: /Ogsy
; File c:\stlport-4.6.1\stlport\stl\_tree.h
;	COMDAT ?erase@?$_Rb_tree@IU?$pair@$$CBIPAVMShopTemplate@@@_STL@@U?$_Select1st@U?$pair@$$CBIPAVMShopTemplate@@@_STL@@@2@U?$less@I@2@V?$allocator@U?$pair@$$CBIPAVMShopTemplate@@@_STL@@@2@@_STL@@QAEXU?$_Rb_tree_iterator@U?$pair@$$CBIPAVMShopTemplate@@@_STL@@U?$_Nonconst_traits@U?$pair@$$CBIPAVMShopTemplate@@@_STL@@@2@@2@@Z
_TEXT	SEGMENT
___position$ = 8					; size = 4
?erase@?$_Rb_tree@IU?$pair@$$CBIPAVMShopTemplate@@@_STL@@U?$_Select1st@U?$pair@$$CBIPAVMShopTemplate@@@_STL@@@2@U?$less@I@2@V?$allocator@U?$pair@$$CBIPAVMShopTemplate@@@_STL@@@2@@_STL@@QAEXU?$_Rb_tree_iterator@U?$pair@$$CBIPAVMShopTemplate@@@_STL@@U?$_Nonconst_traits@U?$pair@$$CBIPAVMShopTemplate@@@_STL@@@2@@2@@Z PROC NEAR ; _STL::_Rb_tree<unsigned int,_STL::pair<unsigned int const ,MShopTemplate *>,_STL::_Select1st<_STL::pair<unsigned int const ,MShopTemplate *> >,_STL::less<unsigned int>,_STL::allocator<_STL::pair<unsigned int const ,MShopTemplate *> > >::erase, COMDAT
; _this$ = ecx

; 416  :   void erase(iterator __position) {

  00000	56		 push	 esi
  00001	8b f1		 mov	 esi, ecx

; 417  :     _Link_type __y = 
; 418  :       (_Link_type) _Rb_global_inst::_Rebalance_for_erase(__position._M_node,
; 419  : 							 this->_M_header._M_data->_M_parent,
; 420  : 							 this->_M_header._M_data->_M_left,
; 421  : 							 this->_M_header._M_data->_M_right);

  00003	8b 06		 mov	 eax, DWORD PTR [esi]
  00005	8d 48 0c	 lea	 ecx, DWORD PTR [eax+12]
  00008	51		 push	 ecx
  00009	8d 48 08	 lea	 ecx, DWORD PTR [eax+8]
  0000c	51		 push	 ecx
  0000d	83 c0 04	 add	 eax, 4
  00010	50		 push	 eax
  00011	ff 74 24 14	 push	 DWORD PTR ___position$[esp+12]
  00015	e8 00 00 00 00	 call	 ?_Rebalance_for_erase@?$_Rb_global@_N@_STL@@SAPAU_Rb_tree_node_base@2@PAU32@AAPAU32@11@Z ; _STL::_Rb_global<bool>::_Rebalance_for_erase
  0001a	83 c4 10	 add	 esp, 16			; 00000010H

; 422  :     _STLP_STD::_Destroy(&__y->_M_value_field);
; 423  :     this->_M_header.deallocate(__y,1);

  0001d	6a 01		 push	 1
  0001f	50		 push	 eax
  00020	8b ce		 mov	 ecx, esi
  00022	e8 00 00 00 00	 call	 ?deallocate@?$allocator@U?$_Rb_tree_node@U?$pair@$$CBIPAVMShopTemplate@@@_STL@@@_STL@@@_STL@@QAEXPAU?$_Rb_tree_node@U?$pair@$$CBIPAVMShopTemplate@@@_STL@@@2@I@Z ; _STL::allocator<_STL::_Rb_tree_node<_STL::pair<unsigned int const ,MShopTemplate *> > >::deallocate

; 424  :     --_M_node_count;

  00027	ff 4e 04	 dec	 DWORD PTR [esi+4]
  0002a	5e		 pop	 esi

; 425  :   }

  0002b	c2 04 00	 ret	 4
?erase@?$_Rb_tree@IU?$pair@$$CBIPAVMShopTemplate@@@_STL@@U?$_Select1st@U?$pair@$$CBIPAVMShopTemplate@@@_STL@@@2@U?$less@I@2@V?$allocator@U?$pair@$$CBIPAVMShopTemplate@@@_STL@@@2@@_STL@@QAEXU?$_Rb_tree_iterator@U?$pair@$$CBIPAVMShopTemplate@@@_STL@@U?$_Nonconst_traits@U?$pair@$$CBIPAVMShopTemplate@@@_STL@@@2@@2@@Z ENDP ; _STL::_Rb_tree<unsigned int,_STL::pair<unsigned int const ,MShopTemplate *>,_STL::_Select1st<_STL::pair<unsigned int const ,MShopTemplate *> >,_STL::less<unsigned int>,_STL::allocator<_STL::pair<unsigned int const ,MShopTemplate *> > >::erase
; Function compile flags: /Ogsy
; File c:\darkeden\designed_common\project\client\ctypemap.h
_TEXT	ENDS
;	COMDAT ?SaveToFile@?$CTypeMap@VMShopTemplate@@@@UAEXAAV?$basic_ofstream@DV?$char_traits@D@_STL@@@_STL@@@Z
_TEXT	SEGMENT
_id$101483 = -8						; size = 4
_infoSize$ = -4						; size = 4
_file$ = 8						; size = 4
?SaveToFile@?$CTypeMap@VMShopTemplate@@@@UAEXAAV?$basic_ofstream@DV?$char_traits@D@_STL@@@_STL@@@Z PROC NEAR ; CTypeMap<MShopTemplate>::SaveToFile, COMDAT
; _this$ = ecx

; 159  : {

  00000	55		 push	 ebp
  00001	8b ec		 mov	 ebp, esp
  00003	51		 push	 ecx
  00004	51		 push	 ecx
  00005	56		 push	 esi
  00006	57		 push	 edi
  00007	8b f9		 mov	 edi, ecx

; 160  : 	TYPE_MAP::iterator iData = begin();

  00009	8b 47 04	 mov	 eax, DWORD PTR [edi+4]
  0000c	8b 70 08	 mov	 esi, DWORD PTR [eax+8]

; 161  : 
; 162  : 	//-----------------------------------------------------
; 163  : 	//  
; 164  : 	//-----------------------------------------------------
; 165  : 	int infoSize = size();

  0000f	8b 47 08	 mov	 eax, DWORD PTR [edi+8]

; 166  : 	file.write((const char*)&infoSize, 4);

  00012	8b 4d 08	 mov	 ecx, DWORD PTR _file$[ebp]
  00015	89 45 fc	 mov	 DWORD PTR _infoSize$[ebp], eax
  00018	6a 04		 push	 4
  0001a	8d 45 fc	 lea	 eax, DWORD PTR _infoSize$[ebp]
  0001d	50		 push	 eax
  0001e	e8 00 00 00 00	 call	 ?write@?$basic_ostream@DV?$char_traits@D@_STL@@@_STL@@QAEAAV12@PBDH@Z ; _STL::basic_ostream<char,_STL::char_traits<char> >::write

; 167  : 
; 168  : 	//-----------------------------------------------------
; 169  : 	//  info 
; 170  : 	//-----------------------------------------------------
; 171  : 	while (iData != end())

  00023	3b 77 04	 cmp	 esi, DWORD PTR [edi+4]
  00026	74 31		 je	 SHORT $L101481
  00028	53		 push	 ebx
$L101480:

; 172  : 	{
; 173  : 		unsigned int	id		= (*iData).first;

  00029	8b 46 10	 mov	 eax, DWORD PTR [esi+16]

; 174  : 		DataType*		pData	= (*iData).second;		
; 175  : 
; 176  : 		file.write((const char*)&id, 4);	// id 

  0002c	8b 4d 08	 mov	 ecx, DWORD PTR _file$[ebp]
  0002f	89 45 f8	 mov	 DWORD PTR _id$101483[ebp], eax
  00032	8b 5e 14	 mov	 ebx, DWORD PTR [esi+20]
  00035	6a 04		 push	 4
  00037	8d 45 f8	 lea	 eax, DWORD PTR _id$101483[ebp]
  0003a	50		 push	 eax
  0003b	e8 00 00 00 00	 call	 ?write@?$basic_ostream@DV?$char_traits@D@_STL@@@_STL@@QAEAAV12@PBDH@Z ; _STL::basic_ostream<char,_STL::char_traits<char> >::write

; 177  : 		pData->SaveToFile( file );			// NPC info 

  00040	ff 75 08	 push	 DWORD PTR _file$[ebp]
  00043	8b cb		 mov	 ecx, ebx
  00045	e8 00 00 00 00	 call	 ?SaveToFile@MShopTemplate@@QAEXAAV?$basic_ofstream@DV?$char_traits@D@_STL@@@_STL@@@Z ; MShopTemplate::SaveToFile

; 178  : 
; 179  : 		iData ++;

  0004a	56		 push	 esi
  0004b	e8 00 00 00 00	 call	 ?_M_increment@?$_Rb_global@_N@_STL@@SAPAU_Rb_tree_node_base@2@PAU32@@Z ; _STL::_Rb_global<bool>::_M_increment
  00050	8b f0		 mov	 esi, eax
  00052	3b 77 04	 cmp	 esi, DWORD PTR [edi+4]
  00055	59		 pop	 ecx
  00056	75 d1		 jne	 SHORT $L101480
  00058	5b		 pop	 ebx
$L101481:
  00059	5f		 pop	 edi
  0005a	5e		 pop	 esi

; 180  : 	}
; 181  : }

  0005b	c9		 leave
  0005c	c2 04 00	 ret	 4
?SaveToFile@?$CTypeMap@VMShopTemplate@@@@UAEXAAV?$basic_ofstream@DV?$char_traits@D@_STL@@@_STL@@@Z ENDP ; CTypeMap<MShopTemplate>::SaveToFile
_TEXT	ENDS
PUBLIC	??1?$CTypeMap@VMShopTemplate@@@@UAE@XZ		; CTypeMap<MShopTemplate>::~CTypeMap<MShopTemplate>
;	COMDAT xdata$x
; File c:\stlport-4.6.1\stlport\stl\char_traits.h
xdata$x	SEGMENT
$T103480 DD	0ffffffffH
	DD	FLAT:$L103471
$T103478 DD	019930520H
	DD	01H
	DD	FLAT:$T103480
	DD	2 DUP(00H)
	DD	2 DUP(00H)
; Function compile flags: /Ogsy
; File c:\darkeden\designed_common\project\client\ctypemap.h
xdata$x	ENDS
;	COMDAT ??1?$CTypeMap@VMShopTemplate@@@@UAE@XZ
_TEXT	SEGMENT
_this$ = -16						; size = 4
__$EHRec$ = -12						; size = 12
??1?$CTypeMap@VMShopTemplate@@@@UAE@XZ PROC NEAR	; CTypeMap<MShopTemplate>::~CTypeMap<MShopTemplate>, COMDAT
; _this$ = ecx

; 62   : {

  00000	b8 00 00 00 00	 mov	 eax, __ehhandler$??1?$CTypeMap@VMShopTemplate@@@@UAE@XZ
  00005	e8 00 00 00 00	 call	 __EH_prolog
  0000a	51		 push	 ecx
  0000b	56		 push	 esi
  0000c	8b f1		 mov	 esi, ecx
  0000e	89 75 f0	 mov	 DWORD PTR _this$[ebp], esi
  00011	c7 06 00 00 00
	00		 mov	 DWORD PTR [esi], OFFSET FLAT:??_7?$CTypeMap@VMShopTemplate@@@@6B@
  00017	83 65 fc 00	 and	 DWORD PTR __$EHRec$[ebp+8], 0

; 63   : 	Release();

  0001b	e8 00 00 00 00	 call	 ?Release@?$CTypeMap@VMShopTemplate@@@@UAEXXZ ; CTypeMap<MShopTemplate>::Release

; 64   : }

  00020	83 4d fc ff	 or	 DWORD PTR __$EHRec$[ebp+8], -1
  00024	8d 4e 04	 lea	 ecx, DWORD PTR [esi+4]
  00027	e8 00 00 00 00	 call	 ??1?$_Rb_tree@IU?$pair@$$CBIPAVMShopTemplate@@@_STL@@U?$_Select1st@U?$pair@$$CBIPAVMShopTemplate@@@_STL@@@2@U?$less@I@2@V?$allocator@U?$pair@$$CBIPAVMShopTemplate@@@_STL@@@2@@_STL@@QAE@XZ ; _STL::_Rb_tree<unsigned int,_STL::pair<unsigned int const ,MShopTemplate *>,_STL::_Select1st<_STL::pair<unsigned int const ,MShopTemplate *> >,_STL::less<unsigned int>,_STL::allocator<_STL::pair<unsigned int const ,MShopTemplate *> > >::~_Rb_tree<unsigned int,_STL::pair<unsigned int const ,MShopTemplate *>,_STL::_Select1st<_STL::pair<unsigned int const ,MShopTemplate *> >,_STL::less<unsigned int>,_STL::allocator<_STL::pair<unsigned int const ,MShopTemplate *> > >
  0002c	8b 4d f4	 mov	 ecx, DWORD PTR __$EHRec$[ebp]
  0002f	5e		 pop	 esi
  00030	64 89 0d 00 00
	00 00		 mov	 DWORD PTR fs:__except_list, ecx
  00037	c9		 leave
  00038	c3		 ret	 0
_TEXT	ENDS
;	COMDAT text$x
text$x	SEGMENT
$L103471:
  00000	8b 4d f0	 mov	 ecx, DWORD PTR _this$[ebp]
  00003	8b 45 f0	 mov	 eax, DWORD PTR _this$[ebp]
  00006	83 c0 04	 add	 eax, 4
  00009	f7 d9		 neg	 ecx
  0000b	1b c9		 sbb	 ecx, ecx
  0000d	23 c8		 and	 ecx, eax
  0000f	e9 00 00 00 00	 jmp	 ??1?$map@IPAVMShopTemplate@@U?$less@I@_STL@@V?$allocator@U?$pair@$$CBIPAVMShopTemplate@@@_STL@@@3@@_STL@@QAE@XZ
__ehhandler$??1?$CTypeMap@VMShopTemplate@@@@UAE@XZ:
  00014	b8 00 00 00 00	 mov	 eax, OFFSET FLAT:$T103478
  00019	e9 00 00 00 00	 jmp	 ___CxxFrameHandler
text$x	ENDS
??1?$CTypeMap@VMShopTemplate@@@@UAE@XZ ENDP		; CTypeMap<MShopTemplate>::~CTypeMap<MShopTemplate>
; Function compile flags: /Ogsy
;	COMDAT ??_G?$CTypeMap@VMShopTemplate@@@@UAEPAXI@Z
_TEXT	SEGMENT
___flags$ = 8						; size = 4
??_G?$CTypeMap@VMShopTemplate@@@@UAEPAXI@Z PROC NEAR	; CTypeMap<MShopTemplate>::`scalar deleting destructor', COMDAT
; _this$ = ecx
  00000	56		 push	 esi
  00001	8b f1		 mov	 esi, ecx
  00003	e8 00 00 00 00	 call	 ??1?$CTypeMap@VMShopTemplate@@@@UAE@XZ ; CTypeMap<MShopTemplate>::~CTypeMap<MShopTemplate>
  00008	f6 44 24 08 01	 test	 BYTE PTR ___flags$[esp], 1
  0000d	74 07		 je	 SHORT $L101539
  0000f	56		 push	 esi
  00010	e8 00 00 00 00	 call	 ??3@YAXPAX@Z		; operator delete
  00015	59		 pop	 ecx
$L101539:
  00016	8b c6		 mov	 eax, esi
  00018	5e		 pop	 esi
  00019	c2 04 00	 ret	 4
??_G?$CTypeMap@VMShopTemplate@@@@UAEPAXI@Z ENDP		; CTypeMap<MShopTemplate>::`scalar deleting destructor'
_TEXT	ENDS
PUBLIC	??0MShopTemplateTable@@QAE@XZ			; MShopTemplateTable::MShopTemplateTable
PUBLIC	??_7MShopTemplateTable@@6B@			; MShopTemplateTable::`vftable'
PUBLIC	??_GMShopTemplateTable@@UAEPAXI@Z		; MShopTemplateTable::`scalar deleting destructor'
PUBLIC	??_R4MShopTemplateTable@@6B@			; MShopTemplateTable::`RTTI Complete Object Locator'
PUBLIC	??_R0?AVMShopTemplateTable@@@8			; MShopTemplateTable `RTTI Type Descriptor'
PUBLIC	??_R3MShopTemplateTable@@8			; MShopTemplateTable::`RTTI Class Hierarchy Descriptor'
PUBLIC	??_R2MShopTemplateTable@@8			; MShopTemplateTable::`RTTI Base Class Array'
PUBLIC	??_R1A@?0A@A@MShopTemplateTable@@8		; MShopTemplateTable::`RTTI Base Class Descriptor at (0,-1,0,0)'
EXTRN	??_EMShopTemplateTable@@UAEPAXI@Z:NEAR		; MShopTemplateTable::`vector deleting destructor'
;	COMDAT ??_7MShopTemplateTable@@6B@
; File c:\darkeden\designed_common\project\client\mshoptemplate.cpp
CONST	SEGMENT
??_7MShopTemplateTable@@6B@ DD FLAT:??_R4MShopTemplateTable@@6B@ ; MShopTemplateTable::`vftable'
	DD	FLAT:??_EMShopTemplateTable@@UAEPAXI@Z
	DD	FLAT:?Release@?$CTypeMap@VMShopTemplate@@@@UAEXXZ
	DD	FLAT:?AddData@?$CTypeMap@VMShopTemplate@@@@UAE_NIPAVMShopTemplate@@@Z
	DD	FLAT:?GetData@?$CTypeMap@VMShopTemplate@@@@UAEPAVMShopTemplate@@I@Z
	DD	FLAT:?RemoveData@?$CTypeMap@VMShopTemplate@@@@UAE_NI@Z
	DD	FLAT:?SaveToFile@?$CTypeMap@VMShopTemplate@@@@UAEXAAV?$basic_ofstream@DV?$char_traits@D@_STL@@@_STL@@@Z
	DD	FLAT:?LoadFromFile@?$CTypeMap@VMShopTemplate@@@@UAEXAAVivfstream@@@Z
CONST	ENDS
;	COMDAT ??_R4MShopTemplateTable@@6B@
rdata$r	SEGMENT
??_R4MShopTemplateTable@@6B@ DD 00H			; MShopTemplateTable::`RTTI Complete Object Locator'
	DD	00H
	DD	00H
	DD	FLAT:??_R0?AVMShopTemplateTable@@@8
	DD	FLAT:??_R3MShopTemplateTable@@8
rdata$r	ENDS
;	COMDAT ??_R0?AVMShopTemplateTable@@@8
_DATA	SEGMENT
??_R0?AVMShopTemplateTable@@@8 DD FLAT:??_7type_info@@6B@ ; MShopTemplateTable `RTTI Type Descriptor'
	DD	00H
	DB	'.?AVMShopTemplateTable@@', 00H
_DATA	ENDS
;	COMDAT ??_R3MShopTemplateTable@@8
rdata$r	SEGMENT
??_R3MShopTemplateTable@@8 DD 00H			; MShopTemplateTable::`RTTI Class Hierarchy Descriptor'
	DD	00H
	DD	03H
	DD	FLAT:??_R2MShopTemplateTable@@8
rdata$r	ENDS
;	COMDAT ??_R2MShopTemplateTable@@8
rdata$r	SEGMENT
??_R2MShopTemplateTable@@8 DD FLAT:??_R1A@?0A@A@MShopTemplateTable@@8 ; MShopTemplateTable::`RTTI Base Class Array'
	DD	FLAT:??_R1A@?0A@A@?$CTypeMap@VMShopTemplate@@@@8
	DD	FLAT:??_R13?0A@A@?$map@IPAVMShopTemplate@@U?$less@I@_STL@@V?$allocator@U?$pair@$$CBIPAVMShopTemplate@@@_STL@@@3@@_STL@@8
rdata$r	ENDS
;	COMDAT ??_R1A@?0A@A@MShopTemplateTable@@8
rdata$r	SEGMENT
??_R1A@?0A@A@MShopTemplateTable@@8 DD FLAT:??_R0?AVMShopTemplateTable@@@8 ; MShopTemplateTable::`RTTI Base Class Descriptor at (0,-1,0,0)'
	DD	02H
	DD	00H
	DD	0ffffffffH
	DD	00H
	DD	00H
; Function compile flags: /Ogsy
rdata$r	ENDS
;	COMDAT ??0MShopTemplateTable@@QAE@XZ
_TEXT	SEGMENT
??0MShopTemplateTable@@QAE@XZ PROC NEAR			; MShopTemplateTable::MShopTemplateTable, COMDAT
; _this$ = ecx

; 63   : {

  00000	56		 push	 esi
  00001	8b f1		 mov	 esi, ecx
  00003	e8 00 00 00 00	 call	 ??0?$CTypeMap@VMShopTemplate@@@@QAE@XZ ; CTypeMap<MShopTemplate>::CTypeMap<MShopTemplate>
  00008	c7 06 00 00 00
	00		 mov	 DWORD PTR [esi], OFFSET FLAT:??_7MShopTemplateTable@@6B@

; 64   : }

  0000e	8b c6		 mov	 eax, esi
  00010	5e		 pop	 esi
  00011	c3		 ret	 0
??0MShopTemplateTable@@QAE@XZ ENDP			; MShopTemplateTable::MShopTemplateTable
_TEXT	ENDS
PUBLIC	??1MShopTemplateTable@@UAE@XZ			; MShopTemplateTable::~MShopTemplateTable
; Function compile flags: /Ogsy
;	COMDAT ??1MShopTemplateTable@@UAE@XZ
_TEXT	SEGMENT
??1MShopTemplateTable@@UAE@XZ PROC NEAR			; MShopTemplateTable::~MShopTemplateTable, COMDAT
; _this$ = ecx

; 67   : {

  00000	c7 01 00 00 00
	00		 mov	 DWORD PTR [ecx], OFFSET FLAT:??_7MShopTemplateTable@@6B@

; 68   : }

  00006	e9 00 00 00 00	 jmp	 ??1?$CTypeMap@VMShopTemplate@@@@UAE@XZ ; CTypeMap<MShopTemplate>::~CTypeMap<MShopTemplate>
??1MShopTemplateTable@@UAE@XZ ENDP			; MShopTemplateTable::~MShopTemplateTable
_TEXT	ENDS
PUBLIC	?insert_unique@?$_Rb_tree@IU?$pair@$$CBIPAVMShopTemplate@@@_STL@@U?$_Select1st@U?$pair@$$CBIPAVMShopTemplate@@@_STL@@@2@U?$less@I@2@V?$allocator@U?$pair@$$CBIPAVMShopTemplate@@@_STL@@@2@@_STL@@QAE?AU?$pair@U?$_Rb_tree_iterator@U?$pair@$$CBIPAVMShopTemplate@@@_STL@@U?$_Nonconst_traits@U?$pair@$$CBIPAVMShopTemplate@@@_STL@@@2@@_STL@@_N@2@ABU?$pair@$$CBIPAVMShopTemplate@@@2@@Z ; _STL::_Rb_tree<unsigned int,_STL::pair<unsigned int const ,MShopTemplate *>,_STL::_Select1st<_STL::pair<unsigned int const ,MShopTemplate *> >,_STL::less<unsigned int>,_STL::allocator<_STL::pair<unsigned int const ,MShopTemplate *> > >::insert_unique
; Function compile flags: /Ogsy
; File c:\darkeden\designed_common\project\client\ctypemap.h
;	COMDAT ?AddData@?$CTypeMap@VMShopTemplate@@@@UAE_NIPAVMShopTemplate@@@Z
_TEXT	SEGMENT
$T103498 = -16						; size = 8
$T103497 = -8						; size = 8
_id$ = 8						; size = 4
_pData$ = 12						; size = 4
?AddData@?$CTypeMap@VMShopTemplate@@@@UAE_NIPAVMShopTemplate@@@Z PROC NEAR ; CTypeMap<MShopTemplate>::AddData, COMDAT
; _this$ = ecx

; 93   : {

  00000	55		 push	 ebp
  00001	8b ec		 mov	 ebp, esp
  00003	83 ec 10	 sub	 esp, 16			; 00000010H
  00006	56		 push	 esi

; 94   : 	TYPE_MAP::iterator	iData = find( id );

  00007	8d 71 04	 lea	 esi, DWORD PTR [ecx+4]
  0000a	8d 45 08	 lea	 eax, DWORD PTR _id$[ebp]
  0000d	50		 push	 eax
  0000e	8b ce		 mov	 ecx, esi
  00010	e8 00 00 00 00	 call	 ??$_M_find@I@?$_Rb_tree@IU?$pair@$$CBIPAVMShopTemplate@@@_STL@@U?$_Select1st@U?$pair@$$CBIPAVMShopTemplate@@@_STL@@@2@U?$less@I@2@V?$allocator@U?$pair@$$CBIPAVMShopTemplate@@@_STL@@@2@@_STL@@ABEPAU?$_Rb_tree_node@U?$pair@$$CBIPAVMShopTemplate@@@_STL@@@1@ABI@Z ; _STL::_Rb_tree<unsigned int,_STL::pair<unsigned int const ,MShopTemplate *>,_STL::_Select1st<_STL::pair<unsigned int const ,MShopTemplate *> >,_STL::less<unsigned int>,_STL::allocator<_STL::pair<unsigned int const ,MShopTemplate *> > >::_M_find<unsigned int>

; 95   : 
; 96   : 	if (iData != end())

  00015	3b 06		 cmp	 eax, DWORD PTR [esi]
  00017	74 04		 je	 SHORT $L101427

; 97   : 	{
; 98   : 		//   
; 99   : 		// pData  .
; 100  : 		return false;

  00019	32 c0		 xor	 al, al
  0001b	eb 1d		 jmp	 SHORT $L101423
$L101427:

; 101  : 	}
; 102  : 
; 103  : 	//------------------------------------------------------
; 104  : 	//   --> 
; 105  : 	//------------------------------------------------------
; 106  : 	insert(TYPE_MAP::value_type(id, pData));

  0001d	8b 45 08	 mov	 eax, DWORD PTR _id$[ebp]
  00020	89 45 f8	 mov	 DWORD PTR $T103497[ebp], eax
  00023	8b 45 0c	 mov	 eax, DWORD PTR _pData$[ebp]
  00026	89 45 fc	 mov	 DWORD PTR $T103497[ebp+4], eax
  00029	8d 45 f8	 lea	 eax, DWORD PTR $T103497[ebp]
  0002c	50		 push	 eax
  0002d	8d 45 f0	 lea	 eax, DWORD PTR $T103498[ebp]
  00030	50		 push	 eax
  00031	8b ce		 mov	 ecx, esi
  00033	e8 00 00 00 00	 call	 ?insert_unique@?$_Rb_tree@IU?$pair@$$CBIPAVMShopTemplate@@@_STL@@U?$_Select1st@U?$pair@$$CBIPAVMShopTemplate@@@_STL@@@2@U?$less@I@2@V?$allocator@U?$pair@$$CBIPAVMShopTemplate@@@_STL@@@2@@_STL@@QAE?AU?$pair@U?$_Rb_tree_iterator@U?$pair@$$CBIPAVMShopTemplate@@@_STL@@U?$_Nonconst_traits@U?$pair@$$CBIPAVMShopTemplate@@@_STL@@@2@@_STL@@_N@2@ABU?$pair@$$CBIPAVMShopTemplate@@@2@@Z ; _STL::_Rb_tree<unsigned int,_STL::pair<unsigned int const ,MShopTemplate *>,_STL::_Select1st<_STL::pair<unsigned int const ,MShopTemplate *> >,_STL::less<unsigned int>,_STL::allocator<_STL::pair<unsigned int const ,MShopTemplate *> > >::insert_unique

; 107  : 
; 108  : 	return true;

  00038	b0 01		 mov	 al, 1
$L101423:
  0003a	5e		 pop	 esi

; 109  : }

  0003b	c9		 leave
  0003c	c2 08 00	 ret	 8
?AddData@?$CTypeMap@VMShopTemplate@@@@UAE_NIPAVMShopTemplate@@@Z ENDP ; CTypeMap<MShopTemplate>::AddData
_TEXT	ENDS
PUBLIC	?_M_insert@?$_Rb_tree@IU?$pair@$$CBIPAVMShopTemplate@@@_STL@@U?$_Select1st@U?$pair@$$CBIPAVMShopTemplate@@@_STL@@@2@U?$less@I@2@V?$allocator@U?$pair@$$CBIPAVMShopTemplate@@@_STL@@@2@@_STL@@AAE?AU?$_Rb_tree_iterator@U?$pair@$$CBIPAVMShopTemplate@@@_STL@@U?$_Nonconst_traits@U?$pair@$$CBIPAVMShopTemplate@@@_STL@@@2@@2@PAU_Rb_tree_node_base@2@0ABU?$pair@$$CBIPAVMShopTemplate@@@2@0@Z ; _STL::_Rb_tree<unsigned int,_STL::pair<unsigned int const ,MShopTemplate *>,_STL::_Select1st<_STL::pair<unsigned int const ,MShopTemplate *> >,_STL::less<unsigned int>,_STL::allocator<_STL::pair<unsigned int const ,MShopTemplate *> > >::_M_insert
EXTRN	?_M_decrement@?$_Rb_global@_N@_STL@@SAPAU_Rb_tree_node_base@2@PAU32@@Z:NEAR ; _STL::_Rb_global<bool>::_M_decrement
; Function compile flags: /Ogsy
; File c:\stlport-4.6.1\stlport\stl\_tree.c
;	COMDAT ?insert_unique@?$_Rb_tree@IU?$pair@$$CBIPAVMShopTemplate@@@_STL@@U?$_Select1st@U?$pair@$$CBIPAVMShopTemplate@@@_STL@@@2@U?$less@I@2@V?$allocator@U?$pair@$$CBIPAVMShopTemplate@@@_STL@@@2@@_STL@@QAE?AU?$pair@U?$_Rb_tree_iterator@U?$pair@$$CBIPAVMShopTemplate@@@_STL@@U?$_Nonconst_traits@U?$pair@$$CBIPAVMShopTemplate@@@_STL@@@2@@_STL@@_N@2@ABU?$pair@$$CBIPAVMShopTemplate@@@2@@Z
_TEXT	SEGMENT
___$ReturnUdt$ = 8					; size = 4
$T103550 = 12						; size = 4
___v$ = 12						; size = 4
?insert_unique@?$_Rb_tree@IU?$pair@$$CBIPAVMShopTemplate@@@_STL@@U?$_Select1st@U?$pair@$$CBIPAVMShopTemplate@@@_STL@@@2@U?$less@I@2@V?$allocator@U?$pair@$$CBIPAVMShopTemplate@@@_STL@@@2@@_STL@@QAE?AU?$pair@U?$_Rb_tree_iterator@U?$pair@$$CBIPAVMShopTemplate@@@_STL@@U?$_Nonconst_traits@U?$pair@$$CBIPAVMShopTemplate@@@_STL@@@2@@_STL@@_N@2@ABU?$pair@$$CBIPAVMShopTemplate@@@2@@Z PROC NEAR ; _STL::_Rb_tree<unsigned int,_STL::pair<unsigned int const ,MShopTemplate *>,_STL::_Select1st<_STL::pair<unsigned int const ,MShopTemplate *> >,_STL::less<unsigned int>,_STL::allocator<_STL::pair<unsigned int const ,MShopTemplate *> > >::insert_unique, COMDAT
; _this$ = ecx

; 401  : {

  00000	55		 push	 ebp
  00001	8b ec		 mov	 ebp, esp
  00003	53		 push	 ebx
  00004	8b d9		 mov	 ebx, ecx

; 402  :   _Link_type __y = this->_M_header._M_data;

  00006	8b 0b		 mov	 ecx, DWORD PTR [ebx]
  00008	56		 push	 esi

; 403  :   _Link_type __x = _M_root();

  00009	8b 71 04	 mov	 esi, DWORD PTR [ecx+4]

; 404  :   bool __comp = true;
; 405  :   while (__x != 0) {

  0000c	85 f6		 test	 esi, esi
  0000e	57		 push	 edi
  0000f	8b f9		 mov	 edi, ecx
  00011	b2 01		 mov	 dl, 1
  00013	74 1d		 je	 SHORT $L103654

; 417  :     return pair<iterator,bool>(_M_insert(__x, __y, __v), true);

  00015	8b 45 0c	 mov	 eax, DWORD PTR ___v$[ebp]
  00018	8b 00		 mov	 eax, DWORD PTR [eax]
$L101842:
  0001a	3b 46 10	 cmp	 eax, DWORD PTR [esi+16]
  0001d	8b fe		 mov	 edi, esi
  0001f	0f 92 c2	 setb	 dl
  00022	84 d2		 test	 dl, dl
  00024	74 05		 je	 SHORT $L103543

; 406  :     __y = __x;
; 407  :     __comp = _M_key_compare(_KeyOfValue()(__v), _S_key(__x));
; 408  :     __x = __comp ? _S_left(__x) : _S_right(__x);

  00026	8b 76 08	 mov	 esi, DWORD PTR [esi+8]
  00029	eb 03		 jmp	 SHORT $L103544
$L103543:
  0002b	8b 76 0c	 mov	 esi, DWORD PTR [esi+12]
$L103544:

; 404  :   bool __comp = true;
; 405  :   while (__x != 0) {

  0002e	85 f6		 test	 esi, esi
  00030	75 e8		 jne	 SHORT $L101842
$L103654:

; 409  :   }
; 410  :   iterator __j = iterator(__y);   
; 411  :   if (__comp)

  00032	84 d2		 test	 dl, dl
  00034	8b c7		 mov	 eax, edi
  00036	74 15		 je	 SHORT $L103655

; 412  :     if (__j == begin())     

  00038	3b 79 08	 cmp	 edi, DWORD PTR [ecx+8]
  0003b	75 09		 jne	 SHORT $L101871

; 413  :       return pair<iterator,bool>(_M_insert(/* __x*/ __y, __y, __v), true);

  0003d	6a 00		 push	 0
  0003f	ff 75 0c	 push	 DWORD PTR ___v$[ebp]
  00042	57		 push	 edi
  00043	57		 push	 edi
  00044	eb 16		 jmp	 SHORT $L103656
$L101871:

; 414  :     else
; 415  :       --__j;

  00046	57		 push	 edi
  00047	e8 00 00 00 00	 call	 ?_M_decrement@?$_Rb_global@_N@_STL@@SAPAU_Rb_tree_node_base@2@PAU32@@Z ; _STL::_Rb_global<bool>::_M_decrement
  0004c	59		 pop	 ecx
$L103655:

; 416  :   if (_M_key_compare(_S_key(__j._M_node), _KeyOfValue()(__v)))

  0004d	8b 50 10	 mov	 edx, DWORD PTR [eax+16]
  00050	8b 4d 0c	 mov	 ecx, DWORD PTR ___v$[ebp]
  00053	3b 11		 cmp	 edx, DWORD PTR [ecx]
  00055	73 1d		 jae	 SHORT $L101877

; 417  :     return pair<iterator,bool>(_M_insert(__x, __y, __v), true);

  00057	6a 00		 push	 0
  00059	51		 push	 ecx
  0005a	57		 push	 edi
  0005b	56		 push	 esi
$L103656:
  0005c	8d 45 0c	 lea	 eax, DWORD PTR $T103550[ebp]
  0005f	50		 push	 eax
  00060	8b cb		 mov	 ecx, ebx
  00062	e8 00 00 00 00	 call	 ?_M_insert@?$_Rb_tree@IU?$pair@$$CBIPAVMShopTemplate@@@_STL@@U?$_Select1st@U?$pair@$$CBIPAVMShopTemplate@@@_STL@@@2@U?$less@I@2@V?$allocator@U?$pair@$$CBIPAVMShopTemplate@@@_STL@@@2@@_STL@@AAE?AU?$_Rb_tree_iterator@U?$pair@$$CBIPAVMShopTemplate@@@_STL@@U?$_Nonconst_traits@U?$pair@$$CBIPAVMShopTemplate@@@_STL@@@2@@2@PAU_Rb_tree_node_base@2@0ABU?$pair@$$CBIPAVMShopTemplate@@@2@0@Z ; _STL::_Rb_tree<unsigned int,_STL::pair<unsigned int const ,MShopTemplate *>,_STL::_Select1st<_STL::pair<unsigned int const ,MShopTemplate *> >,_STL::less<unsigned int>,_STL::allocator<_STL::pair<unsigned int const ,MShopTemplate *> > >::_M_insert
  00067	8b 08		 mov	 ecx, DWORD PTR [eax]
  00069	8b 45 08	 mov	 eax, DWORD PTR ___$ReturnUdt$[ebp]
  0006c	89 08		 mov	 DWORD PTR [eax], ecx
  0006e	c6 40 04 01	 mov	 BYTE PTR [eax+4], 1
  00072	eb 0b		 jmp	 SHORT $L101837
$L101877:

; 418  :   return pair<iterator,bool>(__j, false);

  00074	8b 4d 08	 mov	 ecx, DWORD PTR ___$ReturnUdt$[ebp]
  00077	89 01		 mov	 DWORD PTR [ecx], eax
  00079	c6 41 04 00	 mov	 BYTE PTR [ecx+4], 0
  0007d	8b c1		 mov	 eax, ecx
$L101837:
  0007f	5f		 pop	 edi
  00080	5e		 pop	 esi
  00081	5b		 pop	 ebx

; 419  : }

  00082	5d		 pop	 ebp
  00083	c2 08 00	 ret	 8
?insert_unique@?$_Rb_tree@IU?$pair@$$CBIPAVMShopTemplate@@@_STL@@U?$_Select1st@U?$pair@$$CBIPAVMShopTemplate@@@_STL@@@2@U?$less@I@2@V?$allocator@U?$pair@$$CBIPAVMShopTemplate@@@_STL@@@2@@_STL@@QAE?AU?$pair@U?$_Rb_tree_iterator@U?$pair@$$CBIPAVMShopTemplate@@@_STL@@U?$_Nonconst_traits@U?$pair@$$CBIPAVMShopTemplate@@@_STL@@@2@@_STL@@_N@2@ABU?$pair@$$CBIPAVMShopTemplate@@@2@@Z ENDP ; _STL::_Rb_tree<unsigned int,_STL::pair<unsigned int const ,MShopTemplate *>,_STL::_Select1st<_STL::pair<unsigned int const ,MShopTemplate *> >,_STL::less<unsigned int>,_STL::allocator<_STL::pair<unsigned int const ,MShopTemplate *> > >::insert_unique
_TEXT	ENDS
PUBLIC	?_M_create_node@?$_Rb_tree@IU?$pair@$$CBIPAVMShopTemplate@@@_STL@@U?$_Select1st@U?$pair@$$CBIPAVMShopTemplate@@@_STL@@@2@U?$less@I@2@V?$allocator@U?$pair@$$CBIPAVMShopTemplate@@@_STL@@@2@@_STL@@IAEPAU?$_Rb_tree_node@U?$pair@$$CBIPAVMShopTemplate@@@_STL@@@2@ABU?$pair@$$CBIPAVMShopTemplate@@@2@@Z ; _STL::_Rb_tree<unsigned int,_STL::pair<unsigned int const ,MShopTemplate *>,_STL::_Select1st<_STL::pair<unsigned int const ,MShopTemplate *> >,_STL::less<unsigned int>,_STL::allocator<_STL::pair<unsigned int const ,MShopTemplate *> > >::_M_create_node
EXTRN	?_Rebalance@?$_Rb_global@_N@_STL@@SAXPAU_Rb_tree_node_base@2@AAPAU32@@Z:NEAR ; _STL::_Rb_global<bool>::_Rebalance
; Function compile flags: /Ogsy
;	COMDAT ?_M_insert@?$_Rb_tree@IU?$pair@$$CBIPAVMShopTemplate@@@_STL@@U?$_Select1st@U?$pair@$$CBIPAVMShopTemplate@@@_STL@@@2@U?$less@I@2@V?$allocator@U?$pair@$$CBIPAVMShopTemplate@@@_STL@@@2@@_STL@@AAE?AU?$_Rb_tree_iterator@U?$pair@$$CBIPAVMShopTemplate@@@_STL@@U?$_Nonconst_traits@U?$pair@$$CBIPAVMShopTemplate@@@_STL@@@2@@2@PAU_Rb_tree_node_base@2@0ABU?$pair@$$CBIPAVMShopTemplate@@@2@0@Z
_TEXT	SEGMENT
___$ReturnUdt$ = 8					; size = 4
___x_$ = 12						; size = 4
___y_$ = 16						; size = 4
___v$ = 20						; size = 4
___w_$ = 24						; size = 4
?_M_insert@?$_Rb_tree@IU?$pair@$$CBIPAVMShopTemplate@@@_STL@@U?$_Select1st@U?$pair@$$CBIPAVMShopTemplate@@@_STL@@@2@U?$less@I@2@V?$allocator@U?$pair@$$CBIPAVMShopTemplate@@@_STL@@@2@@_STL@@AAE?AU?$_Rb_tree_iterator@U?$pair@$$CBIPAVMShopTemplate@@@_STL@@U?$_Nonconst_traits@U?$pair@$$CBIPAVMShopTemplate@@@_STL@@@2@@2@PAU_Rb_tree_node_base@2@0ABU?$pair@$$CBIPAVMShopTemplate@@@2@0@Z PROC NEAR ; _STL::_Rb_tree<unsigned int,_STL::pair<unsigned int const ,MShopTemplate *>,_STL::_Select1st<_STL::pair<unsigned int const ,MShopTemplate *> >,_STL::less<unsigned int>,_STL::allocator<_STL::pair<unsigned int const ,MShopTemplate *> > >::_M_insert, COMDAT
; _this$ = ecx

; 347  : {

  00000	55		 push	 ebp
  00001	8b ec		 mov	 ebp, esp

; 348  :   _Link_type __w = (_Link_type) __w_;
; 349  :   _Link_type __x = (_Link_type) __x_;
; 350  :   _Link_type __y = (_Link_type) __y_;
; 351  :   _Link_type __z;
; 352  : 
; 353  :   if ( __y == this->_M_header._M_data ||
; 354  :        ( __w == 0 && // If w != 0, the remainder fails to false
; 355  :          ( __x != 0 ||     // If x != 0, the remainder succeeds to true
; 356  :            _M_key_compare( _KeyOfValue()(__v), _S_key(__y) ) )
; 357  : 	 )
; 358  :        ) {

  00003	8b 45 14	 mov	 eax, DWORD PTR ___v$[ebp]
  00006	53		 push	 ebx
  00007	8b 5d 10	 mov	 ebx, DWORD PTR ___y_$[ebp]
  0000a	56		 push	 esi
  0000b	57		 push	 edi
  0000c	8b f9		 mov	 edi, ecx
  0000e	3b 1f		 cmp	 ebx, DWORD PTR [edi]
  00010	74 2c		 je	 SHORT $L102031
  00012	83 7d 18 00	 cmp	 DWORD PTR ___w_$[ebp], 0
  00016	75 0d		 jne	 SHORT $L102029
  00018	83 7d 0c 00	 cmp	 DWORD PTR ___x_$[ebp], 0
  0001c	75 20		 jne	 SHORT $L102031
  0001e	8b 08		 mov	 ecx, DWORD PTR [eax]
  00020	3b 4b 10	 cmp	 ecx, DWORD PTR [ebx+16]
  00023	72 19		 jb	 SHORT $L102031
$L102029:

; 369  :   }
; 370  :   else {
; 371  :     __z = _M_create_node(__v);

  00025	50		 push	 eax
  00026	8b cf		 mov	 ecx, edi
  00028	e8 00 00 00 00	 call	 ?_M_create_node@?$_Rb_tree@IU?$pair@$$CBIPAVMShopTemplate@@@_STL@@U?$_Select1st@U?$pair@$$CBIPAVMShopTemplate@@@_STL@@@2@U?$less@I@2@V?$allocator@U?$pair@$$CBIPAVMShopTemplate@@@_STL@@@2@@_STL@@IAEPAU?$_Rb_tree_node@U?$pair@$$CBIPAVMShopTemplate@@@_STL@@@2@ABU?$pair@$$CBIPAVMShopTemplate@@@2@@Z ; _STL::_Rb_tree<unsigned int,_STL::pair<unsigned int const ,MShopTemplate *>,_STL::_Select1st<_STL::pair<unsigned int const ,MShopTemplate *> >,_STL::less<unsigned int>,_STL::allocator<_STL::pair<unsigned int const ,MShopTemplate *> > >::_M_create_node
  0002d	8b f0		 mov	 esi, eax

; 372  :     _S_right(__y) = __z;

  0002f	89 73 0c	 mov	 DWORD PTR [ebx+12], esi

; 373  :     if (__y == _M_rightmost())

  00032	8b 07		 mov	 eax, DWORD PTR [edi]
  00034	3b 58 0c	 cmp	 ebx, DWORD PTR [eax+12]
  00037	75 27		 jne	 SHORT $L102034
$L103717:

; 374  :       _M_rightmost() = __z;  // maintain _M_rightmost() pointing to max node

  00039	89 70 0c	 mov	 DWORD PTR [eax+12], esi
  0003c	eb 22		 jmp	 SHORT $L102034
$L102031:

; 359  :     
; 360  :     __z = _M_create_node(__v);

  0003e	50		 push	 eax
  0003f	8b cf		 mov	 ecx, edi
  00041	e8 00 00 00 00	 call	 ?_M_create_node@?$_Rb_tree@IU?$pair@$$CBIPAVMShopTemplate@@@_STL@@U?$_Select1st@U?$pair@$$CBIPAVMShopTemplate@@@_STL@@@2@U?$less@I@2@V?$allocator@U?$pair@$$CBIPAVMShopTemplate@@@_STL@@@2@@_STL@@IAEPAU?$_Rb_tree_node@U?$pair@$$CBIPAVMShopTemplate@@@_STL@@@2@ABU?$pair@$$CBIPAVMShopTemplate@@@2@@Z ; _STL::_Rb_tree<unsigned int,_STL::pair<unsigned int const ,MShopTemplate *>,_STL::_Select1st<_STL::pair<unsigned int const ,MShopTemplate *> >,_STL::less<unsigned int>,_STL::allocator<_STL::pair<unsigned int const ,MShopTemplate *> > >::_M_create_node
  00046	8b f0		 mov	 esi, eax

; 361  :     _S_left(__y) = __z;               // also makes _M_leftmost() = __z 

  00048	89 73 08	 mov	 DWORD PTR [ebx+8], esi

; 362  :                                       //    when __y == _M_header
; 363  :     if (__y == this->_M_header._M_data) {

  0004b	8b 07		 mov	 eax, DWORD PTR [edi]
  0004d	3b d8		 cmp	 ebx, eax
  0004f	75 07		 jne	 SHORT $L102032

; 364  :       _M_root() = __z;

  00051	89 70 04	 mov	 DWORD PTR [eax+4], esi

; 365  :       _M_rightmost() = __z;

  00054	8b 07		 mov	 eax, DWORD PTR [edi]

; 366  :     }
; 367  :     else if (__y == _M_leftmost())

  00056	eb e1		 jmp	 SHORT $L103717
$L102032:
  00058	3b 58 08	 cmp	 ebx, DWORD PTR [eax+8]
  0005b	75 03		 jne	 SHORT $L102034

; 368  :       _M_leftmost() = __z;   // maintain _M_leftmost() pointing to min node

  0005d	89 70 08	 mov	 DWORD PTR [eax+8], esi
$L102034:

; 375  :   }
; 376  :   _S_parent(__z) = __y;
; 377  :   _S_left(__z) = 0;

  00060	83 66 08 00	 and	 DWORD PTR [esi+8], 0

; 378  :   _S_right(__z) = 0;

  00064	83 66 0c 00	 and	 DWORD PTR [esi+12], 0
  00068	89 5e 04	 mov	 DWORD PTR [esi+4], ebx

; 379  :   _Rb_global_inst::_Rebalance(__z, this->_M_header._M_data->_M_parent);

  0006b	8b 07		 mov	 eax, DWORD PTR [edi]
  0006d	83 c0 04	 add	 eax, 4
  00070	50		 push	 eax
  00071	56		 push	 esi
  00072	e8 00 00 00 00	 call	 ?_Rebalance@?$_Rb_global@_N@_STL@@SAXPAU_Rb_tree_node_base@2@AAPAU32@@Z ; _STL::_Rb_global<bool>::_Rebalance

; 380  :   ++_M_node_count;

  00077	ff 47 04	 inc	 DWORD PTR [edi+4]

; 381  :   return iterator(__z);

  0007a	8b 45 08	 mov	 eax, DWORD PTR ___$ReturnUdt$[ebp]
  0007d	59		 pop	 ecx
  0007e	59		 pop	 ecx
  0007f	5f		 pop	 edi
  00080	89 30		 mov	 DWORD PTR [eax], esi
  00082	5e		 pop	 esi
  00083	5b		 pop	 ebx

; 382  : }

  00084	5d		 pop	 ebp
  00085	c2 14 00	 ret	 20			; 00000014H
?_M_insert@?$_Rb_tree@IU?$pair@$$CBIPAVMShopTemplate@@@_STL@@U?$_Select1st@U?$pair@$$CBIPAVMShopTemplate@@@_STL@@@2@U?$less@I@2@V?$allocator@U?$pair@$$CBIPAVMShopTemplate@@@_STL@@@2@@_STL@@AAE?AU?$_Rb_tree_iterator@U?$pair@$$CBIPAVMShopTemplate@@@_STL@@U?$_Nonconst_traits@U?$pair@$$CBIPAVMShopTemplate@@@_STL@@@2@@2@PAU_Rb_tree_node_base@2@0ABU?$pair@$$CBIPAVMShopTemplate@@@2@0@Z ENDP ; _STL::_Rb_tree<unsigned int,_STL::pair<unsigned int const ,MShopTemplate *>,_STL::_Select1st<_STL::pair<unsigned int const ,MShopTemplate *> >,_STL::less<unsigned int>,_STL::allocator<_STL::pair<unsigned int const ,MShopTemplate *> > >::_M_insert
; Function compile flags: /Ogsy
; File c:\stlport-4.6.1\stlport\stl\_tree.h
_TEXT	ENDS
;	COMDAT ?_M_create_node@?$_Rb_tree@IU?$pair@$$CBIPAVMShopTemplate@@@_STL@@U?$_Select1st@U?$pair@$$CBIPAVMShopTemplate@@@_STL@@@2@U?$less@I@2@V?$allocator@U?$pair@$$CBIPAVMShopTemplate@@@_STL@@@2@@_STL@@IAEPAU?$_Rb_tree_node@U?$pair@$$CBIPAVMShopTemplate@@@_STL@@@2@ABU?$pair@$$CBIPAVMShopTemplate@@@2@@Z
_TEXT	SEGMENT
___x$ = 8						; size = 4
?_M_create_node@?$_Rb_tree@IU?$pair@$$CBIPAVMShopTemplate@@@_STL@@U?$_Select1st@U?$pair@$$CBIPAVMShopTemplate@@@_STL@@@2@U?$less@I@2@V?$allocator@U?$pair@$$CBIPAVMShopTemplate@@@_STL@@@2@@_STL@@IAEPAU?$_Rb_tree_node@U?$pair@$$CBIPAVMShopTemplate@@@_STL@@@2@ABU?$pair@$$CBIPAVMShopTemplate@@@2@@Z PROC NEAR ; _STL::_Rb_tree<unsigned int,_STL::pair<unsigned int const ,MShopTemplate *>,_STL::_Select1st<_STL::pair<unsigned int const ,MShopTemplate *> >,_STL::less<unsigned int>,_STL::allocator<_STL::pair<unsigned int const ,MShopTemplate *> > >::_M_create_node, COMDAT
; _this$ = ecx

; 243  :     _Link_type __tmp = this->_M_header.allocate(1);

  00000	6a 18		 push	 24			; 00000018H
  00002	e8 00 00 00 00	 call	 ?allocate@?$__node_alloc@$00$0A@@_STL@@SAPAXI@Z ; _STL::__node_alloc<1,0>::allocate
  00007	59		 pop	 ecx

; 244  :     _STLP_TRY {
; 245  :       _Construct(&__tmp->_M_value_field, __x);

  00008	8d 48 10	 lea	 ecx, DWORD PTR [eax+16]
  0000b	85 c9		 test	 ecx, ecx
  0000d	74 10		 je	 SHORT $L103744
  0000f	8b 54 24 04	 mov	 edx, DWORD PTR ___x$[esp-4]
  00013	56		 push	 esi
  00014	8b 32		 mov	 esi, DWORD PTR [edx]
  00016	89 31		 mov	 DWORD PTR [ecx], esi
  00018	8b 52 04	 mov	 edx, DWORD PTR [edx+4]
  0001b	89 51 04	 mov	 DWORD PTR [ecx+4], edx
  0001e	5e		 pop	 esi
$L103744:

; 246  :     }
; 247  :     _STLP_UNWIND(this->_M_header.deallocate(__tmp,1));
; 248  :     return __tmp;
; 249  :   }

  0001f	c2 04 00	 ret	 4
?_M_create_node@?$_Rb_tree@IU?$pair@$$CBIPAVMShopTemplate@@@_STL@@U?$_Select1st@U?$pair@$$CBIPAVMShopTemplate@@@_STL@@@2@U?$less@I@2@V?$allocator@U?$pair@$$CBIPAVMShopTemplate@@@_STL@@@2@@_STL@@IAEPAU?$_Rb_tree_node@U?$pair@$$CBIPAVMShopTemplate@@@_STL@@@2@ABU?$pair@$$CBIPAVMShopTemplate@@@2@@Z ENDP ; _STL::_Rb_tree<unsigned int,_STL::pair<unsigned int const ,MShopTemplate *>,_STL::_Select1st<_STL::pair<unsigned int const ,MShopTemplate *> >,_STL::less<unsigned int>,_STL::allocator<_STL::pair<unsigned int const ,MShopTemplate *> > >::_M_create_node
; Function compile flags: /Ogsy
_TEXT	ENDS
;	COMDAT ??_GMShopTemplateTable@@UAEPAXI@Z
_TEXT	SEGMENT
___flags$ = 8						; size = 4
??_GMShopTemplateTable@@UAEPAXI@Z PROC NEAR		; MShopTemplateTable::`scalar deleting destructor', COMDAT
; _this$ = ecx
  00000	56		 push	 esi
  00001	8b f1		 mov	 esi, ecx
  00003	e8 00 00 00 00	 call	 ??1MShopTemplateTable@@UAE@XZ ; MShopTemplateTable::~MShopTemplateTable
  00008	f6 44 24 08 01	 test	 BYTE PTR ___flags$[esp], 1
  0000d	74 07		 je	 SHORT $L101075
  0000f	56		 push	 esi
  00010	e8 00 00 00 00	 call	 ??3@YAXPAX@Z		; operator delete
  00015	59		 pop	 ecx
$L101075:
  00016	8b c6		 mov	 eax, esi
  00018	5e		 pop	 esi
  00019	c2 04 00	 ret	 4
??_GMShopTemplateTable@@UAEPAXI@Z ENDP			; MShopTemplateTable::`scalar deleting destructor'
_TEXT	ENDS
END
