; Listing generated by Microsoft (R) Optimizing Compiler Version 13.10.3077 

	TITLE	\darkeden\Designed_Common\Project\Client\MSkillInfoTable.cpp
	.386P
include listing.inc
if @Version gt 510
.model FLAT
else
_TEXT	SEGMENT PARA USE32 PUBLIC 'CODE'
_TEXT	ENDS
_DATA	SEGMENT DWORD USE32 PUBLIC 'DATA'
_DATA	ENDS
CONST	SEGMENT DWORD USE32 PUBLIC 'CONST'
CONST	ENDS
_BSS	SEGMENT DWORD USE32 PUBLIC 'BSS'
_BSS	ENDS
$$SYMBOLS	SEGMENT BYTE USE32 'DEBSYM'
$$SYMBOLS	ENDS
$$TYPES	SEGMENT BYTE USE32 'DEBTYP'
$$TYPES	ENDS
_TLS	SEGMENT DWORD USE32 PUBLIC 'TLS'
_TLS	ENDS
;	COMDAT ??_C@_0BN@ODLNCKCA@Data?2?2Info?2?2ClientConfig?4inf?$AA@
CONST	SEGMENT DWORD USE32 PUBLIC 'CONST'
CONST	ENDS
;	COMDAT ??_C@_0BM@DFPLPGPC@Data?2?2Info?2?2GuildMapper?4inf?$AA@
CONST	SEGMENT DWORD USE32 PUBLIC 'CONST'
CONST	ENDS
;	COMDAT ??_C@_0BN@LHODHNBK@Data?2?2Info?2?2GuildVersion?4inf?$AA@
CONST	SEGMENT DWORD USE32 PUBLIC 'CONST'
CONST	ENDS
;	COMDAT ??_C@_0BH@DDPLNCOL@Data?2?2Info?2?2Player?4inf?$AA@
CONST	SEGMENT DWORD USE32 PUBLIC 'CONST'
CONST	ENDS
;	COMDAT ??_C@_0BL@ILLNAPHB@Data?2?2Info?2?2Resolution?4inf?$AA@
CONST	SEGMENT DWORD USE32 PUBLIC 'CONST'
CONST	ENDS
;	COMDAT ??_C@_0CA@HEIGFDLG@Data?2?2Info?2?2SelectedChannel?4inf?$AA@
CONST	SEGMENT DWORD USE32 PUBLIC 'CONST'
CONST	ENDS
;	COMDAT ??_C@_0N@GOPDCEEB@basic_string?$AA@
CONST	SEGMENT DWORD USE32 PUBLIC 'CONST'
CONST	ENDS
rdata$r	SEGMENT DWORD USE32 PUBLIC 'CONST'
rdata$r	ENDS
text$yc	SEGMENT PARA USE32 PUBLIC 'CODE'
text$yc	ENDS
CRT$XCA	SEGMENT DWORD USE32 PUBLIC 'DATA'
CRT$XCA	ENDS
CRT$XCU	SEGMENT DWORD USE32 PUBLIC 'DATA'
CRT$XCU	ENDS
CRT$XCL	SEGMENT DWORD USE32 PUBLIC 'DATA'
CRT$XCL	ENDS
CRT$XCC	SEGMENT DWORD USE32 PUBLIC 'DATA'
CRT$XCC	ENDS
CRT$XCZ	SEGMENT DWORD USE32 PUBLIC 'DATA'
CRT$XCZ	ENDS
text$yd	SEGMENT PARA USE32 PUBLIC 'CODE'
text$yd	ENDS
;	COMDAT ?start@CNFS@@QAE_NPADH@Z
_TEXT	SEGMENT PARA USE32 PUBLIC 'CODE'
_TEXT	ENDS
;	COMDAT ?end@CNFS@@QAEXXZ
_TEXT	SEGMENT PARA USE32 PUBLIC 'CODE'
_TEXT	ENDS
;	COMDAT ?Init@VirtualFileHeader@@QAEXXZ
_TEXT	SEGMENT PARA USE32 PUBLIC 'CODE'
_TEXT	ENDS
;	COMDAT ??1IFileIO@@UAE@XZ
_TEXT	SEGMENT PARA USE32 PUBLIC 'CODE'
_TEXT	ENDS
;	COMDAT ??_GIFileIO@@UAEPAXI@Z
_TEXT	SEGMENT PARA USE32 PUBLIC 'CODE'
_TEXT	ENDS
;	COMDAT ??0iovfs_base@@QAE@XZ
_TEXT	SEGMENT PARA USE32 PUBLIC 'CODE'
_TEXT	ENDS
;	COMDAT ??_Giovfs_base@@UAEPAXI@Z
_TEXT	SEGMENT PARA USE32 PUBLIC 'CODE'
_TEXT	ENDS
;	COMDAT ??1iovfs_base@@UAE@XZ
_TEXT	SEGMENT PARA USE32 PUBLIC 'CODE'
_TEXT	ENDS
;	COMDAT ?Init@iovfs_base@@QAEXXZ
_TEXT	SEGMENT PARA USE32 PUBLIC 'CODE'
_TEXT	ENDS
;	COMDAT ??_Givfstream@@UAEPAXI@Z
_TEXT	SEGMENT PARA USE32 PUBLIC 'CODE'
_TEXT	ENDS
;	COMDAT ??1ivfstream@@UAE@XZ
_TEXT	SEGMENT PARA USE32 PUBLIC 'CODE'
_TEXT	ENDS
;	COMDAT ?open@ivfstream@@UAEXPBDH@Z
_TEXT	SEGMENT PARA USE32 PUBLIC 'CODE'
_TEXT	ENDS
;	COMDAT ?read@ivfstream@@QAEXPADI@Z
_TEXT	SEGMENT PARA USE32 PUBLIC 'CODE'
_TEXT	ENDS
;	COMDAT ??_Govfstream@@UAEPAXI@Z
_TEXT	SEGMENT PARA USE32 PUBLIC 'CODE'
_TEXT	ENDS
;	COMDAT ??1ovfstream@@UAE@XZ
_TEXT	SEGMENT PARA USE32 PUBLIC 'CODE'
_TEXT	ENDS
;	COMDAT ?open@ovfstream@@UAEXPBDH@Z
_TEXT	SEGMENT PARA USE32 PUBLIC 'CODE'
_TEXT	ENDS
;	COMDAT ?GetString@MString@@QBEPADXZ
_TEXT	SEGMENT PARA USE32 PUBLIC 'CODE'
_TEXT	ENDS
;	COMDAT ??1SKILLINFO_NODE@@QAE@XZ
_TEXT	SEGMENT PARA USE32 PUBLIC 'CODE'
_TEXT	ENDS
;	COMDAT ?Set@SKILLINFO_NODE@@QAEXHPBDHHG0@Z
_TEXT	SEGMENT PARA USE32 PUBLIC 'CODE'
_TEXT	ENDS
;	COMDAT ?SetExpLevel@SKILLINFO_NODE@@QAEXH@Z
_TEXT	SEGMENT PARA USE32 PUBLIC 'CODE'
_TEXT	ENDS
;	COMDAT ?SetSkillExp@SKILLINFO_NODE@@QAEXH@Z
_TEXT	SEGMENT PARA USE32 PUBLIC 'CODE'
_TEXT	ENDS
;	COMDAT ?GetDelayGroupList@SKILLINFO_NODE@@QBEABV?$list@W4ACTIONINFO@@V?$allocator@W4ACTIONINFO@@@_STL@@@_STL@@XZ
_TEXT	SEGMENT PARA USE32 PUBLIC 'CODE'
_TEXT	ENDS
;	COMDAT ??1?$map@W4ACTIONINFO@@VSKILLID_NODE@@U?$less@W4ACTIONINFO@@@_STL@@V?$allocator@U?$pair@$$CBW4ACTIONINFO@@VSKILLID_NODE@@@_STL@@@4@@_STL@@QAE@XZ
_TEXT	SEGMENT PARA USE32 PUBLIC 'CODE'
_TEXT	ENDS
;	COMDAT ??0MSkillInfoTable@@QAE@XZ
_TEXT	SEGMENT PARA USE32 PUBLIC 'CODE'
_TEXT	ENDS
;	COMDAT ??1MSkillInfoTable@@QAE@XZ
_TEXT	SEGMENT PARA USE32 PUBLIC 'CODE'
_TEXT	ENDS
;	COMDAT ?Init@MSkillInfoTable@@QAEXXZ
_TEXT	SEGMENT PARA USE32 PUBLIC 'CODE'
_TEXT	ENDS
;	COMDAT ?LoadFromFileServerSkillInfo@MSkillInfoTable@@QAEXAAVivfstream@@@Z
_TEXT	SEGMENT PARA USE32 PUBLIC 'CODE'
_TEXT	ENDS
;	COMDAT ?SetAvailableTime@MSkillInfoTable@@QAEXGH@Z
_TEXT	SEGMENT PARA USE32 PUBLIC 'CODE'
_TEXT	ENDS
;	COMDAT ?SetNextAvailableTime@MSkillInfoTable@@QAEXG@Z
_TEXT	SEGMENT PARA USE32 PUBLIC 'CODE'
_TEXT	ENDS
;	COMDAT ?eq@?$__char_traits_base@DH@_STL@@SA_NABD0@Z
_TEXT	SEGMENT PARA USE32 PUBLIC 'CODE'
_TEXT	ENDS
;	COMDAT ?not_eof@?$__char_traits_base@DH@_STL@@SAHABH@Z
_TEXT	SEGMENT PARA USE32 PUBLIC 'CODE'
_TEXT	ENDS
;	COMDAT ?eq_int_type@?$__char_traits_base@DH@_STL@@SA_NABH0@Z
_TEXT	SEGMENT PARA USE32 PUBLIC 'CODE'
_TEXT	ENDS
;	COMDAT ?get_allocator@?$basic_string@DV?$char_traits@D@_STL@@V?$allocator@D@2@@_STL@@QBE?AV?$allocator@D@2@XZ
_TEXT	SEGMENT PARA USE32 PUBLIC 'CODE'
_TEXT	ENDS
;	COMDAT ??4?$basic_string@DV?$char_traits@D@_STL@@V?$allocator@D@2@@_STL@@QAEAAV01@PBD@Z
_TEXT	SEGMENT PARA USE32 PUBLIC 'CODE'
_TEXT	ENDS
;	COMDAT ?_M_terminate_string@?$basic_string@DV?$char_traits@D@_STL@@V?$allocator@D@2@@_STL@@AAEXXZ
_TEXT	SEGMENT PARA USE32 PUBLIC 'CODE'
_TEXT	ENDS
;	COMDAT ??0?$_String_base@DV?$allocator@D@_STL@@@_STL@@QAE@ABV?$allocator@D@1@@Z
_TEXT	SEGMENT PARA USE32 PUBLIC 'CODE'
_TEXT	ENDS
;	COMDAT ?allocate@?$allocator@D@_STL@@QAEPADIPBX@Z
_TEXT	SEGMENT PARA USE32 PUBLIC 'CODE'
_TEXT	ENDS
;	COMDAT ??0?$fpos@H@_STL@@QAE@J@Z
_TEXT	SEGMENT PARA USE32 PUBLIC 'CODE'
_TEXT	ENDS
;	COMDAT ??B?$fpos@H@_STL@@QBEJXZ
_TEXT	SEGMENT PARA USE32 PUBLIC 'CODE'
_TEXT	ENDS
;	COMDAT ?state@?$fpos@H@_STL@@QBEHXZ
_TEXT	SEGMENT PARA USE32 PUBLIC 'CODE'
_TEXT	ENDS
;	COMDAT ?is_open@?$basic_filebuf@DV?$char_traits@D@_STL@@@_STL@@QBE_NXZ
_TEXT	SEGMENT PARA USE32 PUBLIC 'CODE'
_TEXT	ENDS
;	COMDAT ?_M_seek_return@?$basic_filebuf@DV?$char_traits@D@_STL@@@_STL@@AAE?AV?$fpos@H@2@JH@Z
_TEXT	SEGMENT PARA USE32 PUBLIC 'CODE'
_TEXT	ENDS
;	COMDAT ??0?$_Filebuf_Tmp_Buf@D@_STL@@QAE@H@Z
_TEXT	SEGMENT PARA USE32 PUBLIC 'CODE'
_TEXT	ENDS
;	COMDAT ??1?$_Filebuf_Tmp_Buf@D@_STL@@QAE@XZ
_TEXT	SEGMENT PARA USE32 PUBLIC 'CODE'
_TEXT	ENDS
;	COMDAT ??0?$list@W4ACTIONINFO@@V?$allocator@W4ACTIONINFO@@@_STL@@@_STL@@QAE@ABV?$allocator@W4ACTIONINFO@@@1@@Z
_TEXT	SEGMENT PARA USE32 PUBLIC 'CODE'
_TEXT	ENDS
;	COMDAT ?begin@?$list@W4ACTIONINFO@@V?$allocator@W4ACTIONINFO@@@_STL@@@_STL@@QBE?AU?$_List_iterator@W4ACTIONINFO@@U?$_Const_traits@W4ACTIONINFO@@@_STL@@@2@XZ
_TEXT	SEGMENT PARA USE32 PUBLIC 'CODE'
_TEXT	ENDS
;	COMDAT ?end@?$list@W4ACTIONINFO@@V?$allocator@W4ACTIONINFO@@@_STL@@@_STL@@QBE?AU?$_List_iterator@W4ACTIONINFO@@U?$_Const_traits@W4ACTIONINFO@@@_STL@@@2@XZ
_TEXT	SEGMENT PARA USE32 PUBLIC 'CODE'
_TEXT	ENDS
;	COMDAT ?push_back@?$list@W4ACTIONINFO@@V?$allocator@W4ACTIONINFO@@@_STL@@@_STL@@QAEXABW4ACTIONINFO@@@Z
_TEXT	SEGMENT PARA USE32 PUBLIC 'CODE'
_TEXT	ENDS
;	COMDAT ??1?$list@W4ACTIONINFO@@V?$allocator@W4ACTIONINFO@@@_STL@@@_STL@@QAE@XZ
_TEXT	SEGMENT PARA USE32 PUBLIC 'CODE'
_TEXT	ENDS
;	COMDAT ??0?$allocator@W4ACTIONINFO@@@_STL@@QAE@XZ
_TEXT	SEGMENT PARA USE32 PUBLIC 'CODE'
_TEXT	ENDS
;	COMDAT ??1?$allocator@W4ACTIONINFO@@@_STL@@QAE@XZ
_TEXT	SEGMENT PARA USE32 PUBLIC 'CODE'
_TEXT	ENDS
;	COMDAT ??0?$list@HV?$allocator@H@_STL@@@_STL@@QAE@ABV?$allocator@H@1@@Z
_TEXT	SEGMENT PARA USE32 PUBLIC 'CODE'
_TEXT	ENDS
;	COMDAT ??1?$list@HV?$allocator@H@_STL@@@_STL@@QAE@XZ
_TEXT	SEGMENT PARA USE32 PUBLIC 'CODE'
_TEXT	ENDS
;	COMDAT ??0?$allocator@H@_STL@@QAE@XZ
_TEXT	SEGMENT PARA USE32 PUBLIC 'CODE'
_TEXT	ENDS
;	COMDAT ??1?$allocator@H@_STL@@QAE@XZ
_TEXT	SEGMENT PARA USE32 PUBLIC 'CODE'
_TEXT	ENDS
;	COMDAT ??0?$map@W4ACTIONINFO@@VSKILLID_NODE@@U?$less@W4ACTIONINFO@@@_STL@@V?$allocator@U?$pair@$$CBW4ACTIONINFO@@VSKILLID_NODE@@@_STL@@@4@@_STL@@QAE@XZ
_TEXT	SEGMENT PARA USE32 PUBLIC 'CODE'
_TEXT	ENDS
;	COMDAT ??1?$_Rb_tree@W4ACTIONINFO@@U?$pair@$$CBW4ACTIONINFO@@VSKILLID_NODE@@@_STL@@U?$_Select1st@U?$pair@$$CBW4ACTIONINFO@@VSKILLID_NODE@@@_STL@@@3@U?$less@W4ACTIONINFO@@@3@V?$allocator@U?$pair@$$CBW4ACTIONINFO@@VSKILLID_NODE@@@_STL@@@3@@_STL@@QAE@XZ
_TEXT	SEGMENT PARA USE32 PUBLIC 'CODE'
_TEXT	ENDS
;	COMDAT ?begin@?$map@W4ACTIONINFO@@W4SKILLSTATUS@MSkillDomain@@U?$less@W4ACTIONINFO@@@_STL@@V?$allocator@U?$pair@$$CBW4ACTIONINFO@@W4SKILLSTATUS@MSkillDomain@@@_STL@@@5@@_STL@@QAE?AU?$_Rb_tree_iterator@U?$pair@$$CBW4ACTIONINFO@@W4SKILLSTATUS@MSkillDomain@@@_STL@@U?$_Nonconst_traits@U?$pair@$$CBW4ACTIONINFO@@W4SKILLSTATUS@MSkillDomain@@@_STL@@@2@@2@XZ
_TEXT	SEGMENT PARA USE32 PUBLIC 'CODE'
_TEXT	ENDS
;	COMDAT ?end@?$map@W4ACTIONINFO@@W4SKILLSTATUS@MSkillDomain@@U?$less@W4ACTIONINFO@@@_STL@@V?$allocator@U?$pair@$$CBW4ACTIONINFO@@W4SKILLSTATUS@MSkillDomain@@@_STL@@@5@@_STL@@QBE?AU?$_Rb_tree_iterator@U?$pair@$$CBW4ACTIONINFO@@W4SKILLSTATUS@MSkillDomain@@@_STL@@U?$_Const_traits@U?$pair@$$CBW4ACTIONINFO@@W4SKILLSTATUS@MSkillDomain@@@_STL@@@2@@2@XZ
_TEXT	SEGMENT PARA USE32 PUBLIC 'CODE'
_TEXT	ENDS
;	COMDAT ?size@?$map@W4ACTIONINFO@@W4SKILLSTATUS@MSkillDomain@@U?$less@W4ACTIONINFO@@@_STL@@V?$allocator@U?$pair@$$CBW4ACTIONINFO@@W4SKILLSTATUS@MSkillDomain@@@_STL@@@5@@_STL@@QBEIXZ
_TEXT	SEGMENT PARA USE32 PUBLIC 'CODE'
_TEXT	ENDS
;	COMDAT ??0?$_Rb_tree_iterator@U?$pair@$$CBW4ACTIONINFO@@W4SKILLSTATUS@MSkillDomain@@@_STL@@U?$_Const_traits@U?$pair@$$CBW4ACTIONINFO@@W4SKILLSTATUS@MSkillDomain@@@_STL@@@2@@_STL@@QAE@ABU?$_Rb_tree_iterator@U?$pair@$$CBW4ACTIONINFO@@W4SKILLSTATUS@MSkillDomain@@@_STL@@U?$_Nonconst_traits@U?$pair@$$CBW4ACTIONINFO@@W4SKILLSTATUS@MSkillDomain@@@_STL@@@2@@1@@Z
_TEXT	SEGMENT PARA USE32 PUBLIC 'CODE'
_TEXT	ENDS
;	COMDAT ??D?$_Rb_tree_iterator@U?$pair@$$CBW4ACTIONINFO@@W4SKILLSTATUS@MSkillDomain@@@_STL@@U?$_Const_traits@U?$pair@$$CBW4ACTIONINFO@@W4SKILLSTATUS@MSkillDomain@@@_STL@@@2@@_STL@@QBEABU?$pair@$$CBW4ACTIONINFO@@W4SKILLSTATUS@MSkillDomain@@@1@XZ
_TEXT	SEGMENT PARA USE32 PUBLIC 'CODE'
_TEXT	ENDS
;	COMDAT ??E?$_Rb_tree_iterator@U?$pair@$$CBW4ACTIONINFO@@W4SKILLSTATUS@MSkillDomain@@@_STL@@U?$_Const_traits@U?$pair@$$CBW4ACTIONINFO@@W4SKILLSTATUS@MSkillDomain@@@_STL@@@2@@_STL@@QAE?AU01@H@Z
_TEXT	SEGMENT PARA USE32 PUBLIC 'CODE'
_TEXT	ENDS
;	COMDAT ?Get@?$CTypeTable@VSKILLINFO_NODE@@@@QAEAAVSKILLINFO_NODE@@H@Z
_TEXT	SEGMENT PARA USE32 PUBLIC 'CODE'
_TEXT	ENDS
;	COMDAT ??D?$_List_iterator@W4ACTIONINFO@@U?$_Const_traits@W4ACTIONINFO@@@_STL@@@_STL@@QBEABW4ACTIONINFO@@XZ
_TEXT	SEGMENT PARA USE32 PUBLIC 'CODE'
_TEXT	ENDS
;	COMDAT ??E?$_List_iterator@W4ACTIONINFO@@U?$_Const_traits@W4ACTIONINFO@@@_STL@@@_STL@@QAEAAU01@XZ
_TEXT	SEGMENT PARA USE32 PUBLIC 'CODE'
_TEXT	ENDS
;	COMDAT ?_M_terminate_string_aux@?$basic_string@DV?$char_traits@D@_STL@@V?$allocator@D@2@@_STL@@AAEXABU__true_type@2@@Z
_TEXT	SEGMENT PARA USE32 PUBLIC 'CODE'
_TEXT	ENDS
;	COMDAT ?assign@?$basic_string@DV?$char_traits@D@_STL@@V?$allocator@D@2@@_STL@@QAEAAV12@PBD0@Z
_TEXT	SEGMENT PARA USE32 PUBLIC 'CODE'
_TEXT	ENDS
;	COMDAT ??0?$allocator@D@_STL@@QAE@ABV01@@Z
_TEXT	SEGMENT PARA USE32 PUBLIC 'CODE'
_TEXT	ENDS
;	COMDAT ??0?$_STLP_alloc_proxy@PADDV?$allocator@D@_STL@@@_STL@@QAE@ABV?$allocator@D@1@PAD@Z
_TEXT	SEGMENT PARA USE32 PUBLIC 'CODE'
_TEXT	ENDS
;	COMDAT ?state@?$fpos@H@_STL@@QAEXH@Z
_TEXT	SEGMENT PARA USE32 PUBLIC 'CODE'
_TEXT	ENDS
;	COMDAT ?end@?$list@W4ACTIONINFO@@V?$allocator@W4ACTIONINFO@@@_STL@@@_STL@@QAE?AU?$_List_iterator@W4ACTIONINFO@@U?$_Nonconst_traits@W4ACTIONINFO@@@_STL@@@2@XZ
_TEXT	SEGMENT PARA USE32 PUBLIC 'CODE'
_TEXT	ENDS
;	COMDAT ?insert@?$list@W4ACTIONINFO@@V?$allocator@W4ACTIONINFO@@@_STL@@@_STL@@QAE?AU?$_List_iterator@W4ACTIONINFO@@U?$_Nonconst_traits@W4ACTIONINFO@@@_STL@@@2@U32@ABW4ACTIONINFO@@@Z
_TEXT	SEGMENT PARA USE32 PUBLIC 'CODE'
_TEXT	ENDS
;	COMDAT ??0?$_List_base@W4ACTIONINFO@@V?$allocator@W4ACTIONINFO@@@_STL@@@_STL@@QAE@ABV?$allocator@W4ACTIONINFO@@@1@@Z
_TEXT	SEGMENT PARA USE32 PUBLIC 'CODE'
_TEXT	ENDS
;	COMDAT ??1?$_List_base@W4ACTIONINFO@@V?$allocator@W4ACTIONINFO@@@_STL@@@_STL@@QAE@XZ
_TEXT	SEGMENT PARA USE32 PUBLIC 'CODE'
_TEXT	ENDS
;	COMDAT ??0?$_List_base@HV?$allocator@H@_STL@@@_STL@@QAE@ABV?$allocator@H@1@@Z
_TEXT	SEGMENT PARA USE32 PUBLIC 'CODE'
_TEXT	ENDS
;	COMDAT ??1?$_List_base@HV?$allocator@H@_STL@@@_STL@@QAE@XZ
_TEXT	SEGMENT PARA USE32 PUBLIC 'CODE'
_TEXT	ENDS
;	COMDAT ??0?$_Rb_tree@W4ACTIONINFO@@U?$pair@$$CBW4ACTIONINFO@@VSKILLID_NODE@@@_STL@@U?$_Select1st@U?$pair@$$CBW4ACTIONINFO@@VSKILLID_NODE@@@_STL@@@3@U?$less@W4ACTIONINFO@@@3@V?$allocator@U?$pair@$$CBW4ACTIONINFO@@VSKILLID_NODE@@@_STL@@@3@@_STL@@QAE@ABU?$less@W4ACTIONINFO@@@1@ABV?$allocator@U?$pair@$$CBW4ACTIONINFO@@VSKILLID_NODE@@@_STL@@@1@@Z
_TEXT	SEGMENT PARA USE32 PUBLIC 'CODE'
_TEXT	ENDS
;	COMDAT ?clear@?$_Rb_tree@W4ACTIONINFO@@U?$pair@$$CBW4ACTIONINFO@@VSKILLID_NODE@@@_STL@@U?$_Select1st@U?$pair@$$CBW4ACTIONINFO@@VSKILLID_NODE@@@_STL@@@3@U?$less@W4ACTIONINFO@@@3@V?$allocator@U?$pair@$$CBW4ACTIONINFO@@VSKILLID_NODE@@@_STL@@@3@@_STL@@QAEXXZ
_TEXT	SEGMENT PARA USE32 PUBLIC 'CODE'
_TEXT	ENDS
;	COMDAT ??1?$_Rb_tree_base@U?$pair@$$CBW4ACTIONINFO@@VSKILLID_NODE@@@_STL@@V?$allocator@U?$pair@$$CBW4ACTIONINFO@@VSKILLID_NODE@@@_STL@@@2@@_STL@@QAE@XZ
_TEXT	SEGMENT PARA USE32 PUBLIC 'CODE'
_TEXT	ENDS
;	COMDAT ??0?$allocator@U?$pair@$$CBW4ACTIONINFO@@VSKILLID_NODE@@@_STL@@@_STL@@QAE@XZ
_TEXT	SEGMENT PARA USE32 PUBLIC 'CODE'
_TEXT	ENDS
;	COMDAT ??1?$allocator@U?$pair@$$CBW4ACTIONINFO@@VSKILLID_NODE@@@_STL@@@_STL@@QAE@XZ
_TEXT	SEGMENT PARA USE32 PUBLIC 'CODE'
_TEXT	ENDS
;	COMDAT ?begin@?$_Rb_tree@W4ACTIONINFO@@U?$pair@$$CBW4ACTIONINFO@@W4SKILLSTATUS@MSkillDomain@@@_STL@@U?$_Select1st@U?$pair@$$CBW4ACTIONINFO@@W4SKILLSTATUS@MSkillDomain@@@_STL@@@3@U?$less@W4ACTIONINFO@@@3@V?$allocator@U?$pair@$$CBW4ACTIONINFO@@W4SKILLSTATUS@MSkillDomain@@@_STL@@@3@@_STL@@QAE?AU?$_Rb_tree_iterator@U?$pair@$$CBW4ACTIONINFO@@W4SKILLSTATUS@MSkillDomain@@@_STL@@U?$_Nonconst_traits@U?$pair@$$CBW4ACTIONINFO@@W4SKILLSTATUS@MSkillDomain@@@_STL@@@2@@2@XZ
_TEXT	SEGMENT PARA USE32 PUBLIC 'CODE'
_TEXT	ENDS
;	COMDAT ?end@?$_Rb_tree@W4ACTIONINFO@@U?$pair@$$CBW4ACTIONINFO@@W4SKILLSTATUS@MSkillDomain@@@_STL@@U?$_Select1st@U?$pair@$$CBW4ACTIONINFO@@W4SKILLSTATUS@MSkillDomain@@@_STL@@@3@U?$less@W4ACTIONINFO@@@3@V?$allocator@U?$pair@$$CBW4ACTIONINFO@@W4SKILLSTATUS@MSkillDomain@@@_STL@@@3@@_STL@@QBE?AU?$_Rb_tree_iterator@U?$pair@$$CBW4ACTIONINFO@@W4SKILLSTATUS@MSkillDomain@@@_STL@@U?$_Const_traits@U?$pair@$$CBW4ACTIONINFO@@W4SKILLSTATUS@MSkillDomain@@@_STL@@@2@@2@XZ
_TEXT	SEGMENT PARA USE32 PUBLIC 'CODE'
_TEXT	ENDS
;	COMDAT ?size@?$_Rb_tree@W4ACTIONINFO@@U?$pair@$$CBW4ACTIONINFO@@W4SKILLSTATUS@MSkillDomain@@@_STL@@U?$_Select1st@U?$pair@$$CBW4ACTIONINFO@@W4SKILLSTATUS@MSkillDomain@@@_STL@@@3@U?$less@W4ACTIONINFO@@@3@V?$allocator@U?$pair@$$CBW4ACTIONINFO@@W4SKILLSTATUS@MSkillDomain@@@_STL@@@3@@_STL@@QBEIXZ
_TEXT	SEGMENT PARA USE32 PUBLIC 'CODE'
_TEXT	ENDS
;	COMDAT ??0?$_List_iterator@W4ACTIONINFO@@U?$_Const_traits@W4ACTIONINFO@@@_STL@@@_STL@@QAE@PAU?$_List_node@W4ACTIONINFO@@@1@@Z
_TEXT	SEGMENT PARA USE32 PUBLIC 'CODE'
_TEXT	ENDS
;	COMDAT ??1?$_STLP_alloc_proxy@PAU?$_List_node@W4ACTIONINFO@@@_STL@@U12@V?$allocator@U?$_List_node@W4ACTIONINFO@@@_STL@@@2@@_STL@@QAE@XZ
_TEXT	SEGMENT PARA USE32 PUBLIC 'CODE'
_TEXT	ENDS
;	COMDAT ??1?$_STLP_alloc_proxy@PAU?$_List_node@H@_STL@@U12@V?$allocator@U?$_List_node@H@_STL@@@2@@_STL@@QAE@XZ
_TEXT	SEGMENT PARA USE32 PUBLIC 'CODE'
_TEXT	ENDS
;	COMDAT ??1?$_STLP_alloc_proxy@PAU?$_Rb_tree_node@U?$pair@$$CBW4ACTIONINFO@@VSKILLID_NODE@@@_STL@@@_STL@@U12@V?$allocator@U?$_Rb_tree_node@U?$pair@$$CBW4ACTIONINFO@@VSKILLID_NODE@@@_STL@@@_STL@@@2@@_STL@@QAE@XZ
_TEXT	SEGMENT PARA USE32 PUBLIC 'CODE'
_TEXT	ENDS
;	COMDAT ?copy@?$__char_traits_base@DH@_STL@@SAPADPADPBDI@Z
_TEXT	SEGMENT PARA USE32 PUBLIC 'CODE'
_TEXT	ENDS
;	COMDAT ?begin@?$basic_string@DV?$char_traits@D@_STL@@V?$allocator@D@2@@_STL@@QAEPADXZ
_TEXT	SEGMENT PARA USE32 PUBLIC 'CODE'
_TEXT	ENDS
;	COMDAT ?end@?$basic_string@DV?$char_traits@D@_STL@@V?$allocator@D@2@@_STL@@QAEPADXZ
_TEXT	SEGMENT PARA USE32 PUBLIC 'CODE'
_TEXT	ENDS
;	COMDAT ?size@?$basic_string@DV?$char_traits@D@_STL@@V?$allocator@D@2@@_STL@@QBEIXZ
_TEXT	SEGMENT PARA USE32 PUBLIC 'CODE'
_TEXT	ENDS
;	COMDAT ?erase@?$basic_string@DV?$char_traits@D@_STL@@V?$allocator@D@2@@_STL@@QAEPADPAD0@Z
_TEXT	SEGMENT PARA USE32 PUBLIC 'CODE'
_TEXT	ENDS
;	COMDAT ?_M_create_node@?$list@W4ACTIONINFO@@V?$allocator@W4ACTIONINFO@@@_STL@@@_STL@@IAEPAU?$_List_node@W4ACTIONINFO@@@2@ABW4ACTIONINFO@@@Z
_TEXT	SEGMENT PARA USE32 PUBLIC 'CODE'
_TEXT	ENDS
;	COMDAT ??0?$_STLP_alloc_proxy@PAU?$_List_node@W4ACTIONINFO@@@_STL@@U12@V?$allocator@U?$_List_node@W4ACTIONINFO@@@_STL@@@2@@_STL@@QAE@ABV?$allocator@U?$_List_node@W4ACTIONINFO@@@_STL@@@1@PAU?$_List_node@W4ACTIONINFO@@@1@@Z
_TEXT	SEGMENT PARA USE32 PUBLIC 'CODE'
_TEXT	ENDS
;	COMDAT ??1?$allocator@U?$_List_node@W4ACTIONINFO@@@_STL@@@_STL@@QAE@XZ
_TEXT	SEGMENT PARA USE32 PUBLIC 'CODE'
_TEXT	ENDS
;	COMDAT ?allocate@?$allocator@U?$_List_node@W4ACTIONINFO@@@_STL@@@_STL@@QAEPAU?$_List_node@W4ACTIONINFO@@@2@IPBX@Z
_TEXT	SEGMENT PARA USE32 PUBLIC 'CODE'
_TEXT	ENDS
;	COMDAT ?deallocate@?$allocator@U?$_List_node@W4ACTIONINFO@@@_STL@@@_STL@@QAEXPAU?$_List_node@W4ACTIONINFO@@@2@I@Z
_TEXT	SEGMENT PARA USE32 PUBLIC 'CODE'
_TEXT	ENDS
;	COMDAT ??0?$_STLP_alloc_proxy@PAU?$_List_node@H@_STL@@U12@V?$allocator@U?$_List_node@H@_STL@@@2@@_STL@@QAE@ABV?$allocator@U?$_List_node@H@_STL@@@1@PAU?$_List_node@H@1@@Z
_TEXT	SEGMENT PARA USE32 PUBLIC 'CODE'
_TEXT	ENDS
;	COMDAT ??1?$allocator@U?$_List_node@H@_STL@@@_STL@@QAE@XZ
_TEXT	SEGMENT PARA USE32 PUBLIC 'CODE'
_TEXT	ENDS
;	COMDAT ?allocate@?$allocator@U?$_List_node@H@_STL@@@_STL@@QAEPAU?$_List_node@H@2@IPBX@Z
_TEXT	SEGMENT PARA USE32 PUBLIC 'CODE'
_TEXT	ENDS
;	COMDAT ?deallocate@?$allocator@U?$_List_node@H@_STL@@@_STL@@QAEXPAU?$_List_node@H@2@I@Z
_TEXT	SEGMENT PARA USE32 PUBLIC 'CODE'
_TEXT	ENDS
;	COMDAT ?_M_root@?$_Rb_tree@W4ACTIONINFO@@U?$pair@$$CBW4ACTIONINFO@@VSKILLID_NODE@@@_STL@@U?$_Select1st@U?$pair@$$CBW4ACTIONINFO@@VSKILLID_NODE@@@_STL@@@3@U?$less@W4ACTIONINFO@@@3@V?$allocator@U?$pair@$$CBW4ACTIONINFO@@VSKILLID_NODE@@@_STL@@@3@@_STL@@IBEAAPAU?$_Rb_tree_node@U?$pair@$$CBW4ACTIONINFO@@VSKILLID_NODE@@@_STL@@@2@XZ
_TEXT	SEGMENT PARA USE32 PUBLIC 'CODE'
_TEXT	ENDS
;	COMDAT ?_M_leftmost@?$_Rb_tree@W4ACTIONINFO@@U?$pair@$$CBW4ACTIONINFO@@VSKILLID_NODE@@@_STL@@U?$_Select1st@U?$pair@$$CBW4ACTIONINFO@@VSKILLID_NODE@@@_STL@@@3@U?$less@W4ACTIONINFO@@@3@V?$allocator@U?$pair@$$CBW4ACTIONINFO@@VSKILLID_NODE@@@_STL@@@3@@_STL@@IBEAAPAU?$_Rb_tree_node@U?$pair@$$CBW4ACTIONINFO@@VSKILLID_NODE@@@_STL@@@2@XZ
_TEXT	SEGMENT PARA USE32 PUBLIC 'CODE'
_TEXT	ENDS
;	COMDAT ?_M_rightmost@?$_Rb_tree@W4ACTIONINFO@@U?$pair@$$CBW4ACTIONINFO@@VSKILLID_NODE@@@_STL@@U?$_Select1st@U?$pair@$$CBW4ACTIONINFO@@VSKILLID_NODE@@@_STL@@@3@U?$less@W4ACTIONINFO@@@3@V?$allocator@U?$pair@$$CBW4ACTIONINFO@@VSKILLID_NODE@@@_STL@@@3@@_STL@@IBEAAPAU?$_Rb_tree_node@U?$pair@$$CBW4ACTIONINFO@@VSKILLID_NODE@@@_STL@@@2@XZ
_TEXT	SEGMENT PARA USE32 PUBLIC 'CODE'
_TEXT	ENDS
;	COMDAT ?_M_empty_initialize@?$_Rb_tree@W4ACTIONINFO@@U?$pair@$$CBW4ACTIONINFO@@VSKILLID_NODE@@@_STL@@U?$_Select1st@U?$pair@$$CBW4ACTIONINFO@@VSKILLID_NODE@@@_STL@@@3@U?$less@W4ACTIONINFO@@@3@V?$allocator@U?$pair@$$CBW4ACTIONINFO@@VSKILLID_NODE@@@_STL@@@3@@_STL@@AAEXXZ
_TEXT	SEGMENT PARA USE32 PUBLIC 'CODE'
_TEXT	ENDS
;	COMDAT ??0?$_Rb_tree_base@U?$pair@$$CBW4ACTIONINFO@@VSKILLID_NODE@@@_STL@@V?$allocator@U?$pair@$$CBW4ACTIONINFO@@VSKILLID_NODE@@@_STL@@@2@@_STL@@QAE@ABV?$allocator@U?$pair@$$CBW4ACTIONINFO@@VSKILLID_NODE@@@_STL@@@1@@Z
_TEXT	SEGMENT PARA USE32 PUBLIC 'CODE'
_TEXT	ENDS
;	COMDAT ??1?$allocator@U?$_Rb_tree_node@U?$pair@$$CBW4ACTIONINFO@@VSKILLID_NODE@@@_STL@@@_STL@@@_STL@@QAE@XZ
_TEXT	SEGMENT PARA USE32 PUBLIC 'CODE'
_TEXT	ENDS
;	COMDAT ?deallocate@?$allocator@U?$_Rb_tree_node@U?$pair@$$CBW4ACTIONINFO@@VSKILLID_NODE@@@_STL@@@_STL@@@_STL@@QAEXPAU?$_Rb_tree_node@U?$pair@$$CBW4ACTIONINFO@@VSKILLID_NODE@@@_STL@@@2@I@Z
_TEXT	SEGMENT PARA USE32 PUBLIC 'CODE'
_TEXT	ENDS
;	COMDAT ?_M_leftmost@?$_Rb_tree@W4ACTIONINFO@@U?$pair@$$CBW4ACTIONINFO@@W4SKILLSTATUS@MSkillDomain@@@_STL@@U?$_Select1st@U?$pair@$$CBW4ACTIONINFO@@W4SKILLSTATUS@MSkillDomain@@@_STL@@@3@U?$less@W4ACTIONINFO@@@3@V?$allocator@U?$pair@$$CBW4ACTIONINFO@@W4SKILLSTATUS@MSkillDomain@@@_STL@@@3@@_STL@@IBEAAPAU?$_Rb_tree_node@U?$pair@$$CBW4ACTIONINFO@@W4SKILLSTATUS@MSkillDomain@@@_STL@@@2@XZ
_TEXT	SEGMENT PARA USE32 PUBLIC 'CODE'
_TEXT	ENDS
;	COMDAT ??0?$_Rb_tree_iterator@U?$pair@$$CBW4ACTIONINFO@@W4SKILLSTATUS@MSkillDomain@@@_STL@@U?$_Const_traits@U?$pair@$$CBW4ACTIONINFO@@W4SKILLSTATUS@MSkillDomain@@@_STL@@@2@@_STL@@QAE@PAU?$_Rb_tree_node@U?$pair@$$CBW4ACTIONINFO@@W4SKILLSTATUS@MSkillDomain@@@_STL@@@1@@Z
_TEXT	SEGMENT PARA USE32 PUBLIC 'CODE'
_TEXT	ENDS
;	COMDAT ??0?$_Rb_tree_iterator@U?$pair@$$CBW4ACTIONINFO@@W4SKILLSTATUS@MSkillDomain@@@_STL@@U?$_Nonconst_traits@U?$pair@$$CBW4ACTIONINFO@@W4SKILLSTATUS@MSkillDomain@@@_STL@@@2@@_STL@@QAE@PAU?$_Rb_tree_node@U?$pair@$$CBW4ACTIONINFO@@W4SKILLSTATUS@MSkillDomain@@@_STL@@@1@@Z
_TEXT	SEGMENT PARA USE32 PUBLIC 'CODE'
_TEXT	ENDS
;	COMDAT ??0?$_List_iterator@W4ACTIONINFO@@U?$_Nonconst_traits@W4ACTIONINFO@@@_STL@@@_STL@@QAE@PAU?$_List_node@W4ACTIONINFO@@@1@@Z
_TEXT	SEGMENT PARA USE32 PUBLIC 'CODE'
_TEXT	ENDS
;	COMDAT ?move@?$__char_traits_base@DH@_STL@@SAPADPADPBDI@Z
_TEXT	SEGMENT PARA USE32 PUBLIC 'CODE'
_TEXT	ENDS
;	COMDAT ??0?$allocator@U?$_List_node@W4ACTIONINFO@@@_STL@@@_STL@@QAE@ABV01@@Z
_TEXT	SEGMENT PARA USE32 PUBLIC 'CODE'
_TEXT	ENDS
;	COMDAT ??0?$allocator@U?$_List_node@H@_STL@@@_STL@@QAE@ABV01@@Z
_TEXT	SEGMENT PARA USE32 PUBLIC 'CODE'
_TEXT	ENDS
;	COMDAT ?_S_color@?$_Rb_tree@W4ACTIONINFO@@U?$pair@$$CBW4ACTIONINFO@@VSKILLID_NODE@@@_STL@@U?$_Select1st@U?$pair@$$CBW4ACTIONINFO@@VSKILLID_NODE@@@_STL@@@3@U?$less@W4ACTIONINFO@@@3@V?$allocator@U?$pair@$$CBW4ACTIONINFO@@VSKILLID_NODE@@@_STL@@@3@@_STL@@KAAA_NPAU?$_Rb_tree_node@U?$pair@$$CBW4ACTIONINFO@@VSKILLID_NODE@@@_STL@@@2@@Z
_TEXT	SEGMENT PARA USE32 PUBLIC 'CODE'
_TEXT	ENDS
;	COMDAT ??0?$_STLP_alloc_proxy@PAU?$_Rb_tree_node@U?$pair@$$CBW4ACTIONINFO@@VSKILLID_NODE@@@_STL@@@_STL@@U12@V?$allocator@U?$_Rb_tree_node@U?$pair@$$CBW4ACTIONINFO@@VSKILLID_NODE@@@_STL@@@_STL@@@2@@_STL@@QAE@ABV?$allocator@U?$_Rb_tree_node@U?$pair@$$CBW4ACTIONINFO@@VSKILLID_NODE@@@_STL@@@_STL@@@1@PAU?$_Rb_tree_node@U?$pair@$$CBW4ACTIONINFO@@VSKILLID_NODE@@@_STL@@@1@@Z
_TEXT	SEGMENT PARA USE32 PUBLIC 'CODE'
_TEXT	ENDS
;	COMDAT ?allocate@?$allocator@U?$_Rb_tree_node@U?$pair@$$CBW4ACTIONINFO@@VSKILLID_NODE@@@_STL@@@_STL@@@_STL@@QAEPAU?$_Rb_tree_node@U?$pair@$$CBW4ACTIONINFO@@VSKILLID_NODE@@@_STL@@@2@IPBX@Z
_TEXT	SEGMENT PARA USE32 PUBLIC 'CODE'
_TEXT	ENDS
;	COMDAT ??0?$allocator@U?$_Rb_tree_node@U?$pair@$$CBW4ACTIONINFO@@VSKILLID_NODE@@@_STL@@@_STL@@@_STL@@QAE@ABV01@@Z
_TEXT	SEGMENT PARA USE32 PUBLIC 'CODE'
_TEXT	ENDS
;	COMDAT ??$_M_range_initialize@PBD@?$basic_string@DV?$char_traits@D@_STL@@V?$allocator@D@2@@_STL@@AAEXPBD0@Z
_TEXT	SEGMENT PARA USE32 PUBLIC 'CODE'
_TEXT	ENDS
;	COMDAT ??$_M_range_initialize@PAD@?$basic_string@DV?$char_traits@D@_STL@@V?$allocator@D@2@@_STL@@AAEXPAD0@Z
_TEXT	SEGMENT PARA USE32 PUBLIC 'CODE'
_TEXT	ENDS
;	COMDAT ?close@?$basic_filebuf@DV?$char_traits@D@_STL@@@_STL@@QAEPAV12@XZ
_TEXT	SEGMENT PARA USE32 PUBLIC 'CODE'
_TEXT	ENDS
;	COMDAT ?_M_exit_input_mode@?$basic_filebuf@DV?$char_traits@D@_STL@@@_STL@@AAEXXZ
_TEXT	SEGMENT PARA USE32 PUBLIC 'CODE'
_TEXT	ENDS
;	COMDAT ?_M_switch_to_output_mode@?$basic_filebuf@DV?$char_traits@D@_STL@@@_STL@@AAE_NXZ
_TEXT	SEGMENT PARA USE32 PUBLIC 'CODE'
_TEXT	ENDS
;	COMDAT ?_M_output_error@?$basic_filebuf@DV?$char_traits@D@_STL@@@_STL@@AAEHXZ
_TEXT	SEGMENT PARA USE32 PUBLIC 'CODE'
_TEXT	ENDS
;	COMDAT ?_M_allocate_buffers@?$basic_filebuf@DV?$char_traits@D@_STL@@@_STL@@AAE_NPADH@Z
_TEXT	SEGMENT PARA USE32 PUBLIC 'CODE'
_TEXT	ENDS
;	COMDAT ?_M_deallocate_buffers@?$basic_filebuf@DV?$char_traits@D@_STL@@@_STL@@AAEXXZ
_TEXT	SEGMENT PARA USE32 PUBLIC 'CODE'
_TEXT	ENDS
;	COMDAT ?_M_seek_init@?$basic_filebuf@DV?$char_traits@D@_STL@@@_STL@@AAE_N_N@Z
_TEXT	SEGMENT PARA USE32 PUBLIC 'CODE'
_TEXT	ENDS
;	COMDAT ?_M_setup_codecvt@?$basic_filebuf@DV?$char_traits@D@_STL@@@_STL@@AAEXABVlocale@2@@Z
_TEXT	SEGMENT PARA USE32 PUBLIC 'CODE'
_TEXT	ENDS
;	COMDAT ??$equal@PADPADU?$_Eq_traits@V?$char_traits@D@_STL@@@_STL@@@_STL@@YA_NPAD00U?$_Eq_traits@V?$char_traits@D@_STL@@@0@@Z
_TEXT	SEGMENT PARA USE32 PUBLIC 'CODE'
_TEXT	ENDS
;	COMDAT ??$_Destroy@V?$basic_string@DV?$char_traits@D@_STL@@V?$allocator@D@2@@_STL@@@_STL@@YAXPAV?$basic_string@DV?$char_traits@D@_STL@@V?$allocator@D@2@@0@@Z
_TEXT	SEGMENT PARA USE32 PUBLIC 'CODE'
_TEXT	ENDS
;	COMDAT ??$_M_assign_dispatch@PAD@?$basic_string@DV?$char_traits@D@_STL@@V?$allocator@D@2@@_STL@@AAEAAV01@PAD0ABU__false_type@1@@Z
_TEXT	SEGMENT PARA USE32 PUBLIC 'CODE'
_TEXT	ENDS
;	COMDAT ?clear@?$_List_base@W4ACTIONINFO@@V?$allocator@W4ACTIONINFO@@@_STL@@@_STL@@QAEXXZ
_TEXT	SEGMENT PARA USE32 PUBLIC 'CODE'
_TEXT	ENDS
;	COMDAT ?clear@?$_List_base@HV?$allocator@H@_STL@@@_STL@@QAEXXZ
_TEXT	SEGMENT PARA USE32 PUBLIC 'CODE'
_TEXT	ENDS
;	COMDAT ?_M_erase@?$_Rb_tree@W4ACTIONINFO@@U?$pair@$$CBW4ACTIONINFO@@VSKILLID_NODE@@@_STL@@U?$_Select1st@U?$pair@$$CBW4ACTIONINFO@@VSKILLID_NODE@@@_STL@@@3@U?$less@W4ACTIONINFO@@@3@V?$allocator@U?$pair@$$CBW4ACTIONINFO@@VSKILLID_NODE@@@_STL@@@3@@_STL@@AAEXPAU?$_Rb_tree_node@U?$pair@$$CBW4ACTIONINFO@@VSKILLID_NODE@@@_STL@@@2@@Z
_TEXT	SEGMENT PARA USE32 PUBLIC 'CODE'
_TEXT	ENDS
;	COMDAT ??0?$CTypeTable@VSKILLINFO_NODE@@@@QAE@XZ
_TEXT	SEGMENT PARA USE32 PUBLIC 'CODE'
_TEXT	ENDS
;	COMDAT ??1?$CTypeTable@VSKILLINFO_NODE@@@@QAE@XZ
_TEXT	SEGMENT PARA USE32 PUBLIC 'CODE'
_TEXT	ENDS
;	COMDAT ?Init@?$CTypeTable@VSKILLINFO_NODE@@@@QAEXH@Z
_TEXT	SEGMENT PARA USE32 PUBLIC 'CODE'
_TEXT	ENDS
;	COMDAT ??$append@PBD@?$basic_string@DV?$char_traits@D@_STL@@V?$allocator@D@2@@_STL@@QAEAAV01@PBD0@Z
_TEXT	SEGMENT PARA USE32 PUBLIC 'CODE'
_TEXT	ENDS
;	COMDAT ??$?0W4ACTIONINFO@@@?$allocator@U?$_List_node@W4ACTIONINFO@@@_STL@@@_STL@@QAE@ABV?$allocator@W4ACTIONINFO@@@1@@Z
_TEXT	SEGMENT PARA USE32 PUBLIC 'CODE'
_TEXT	ENDS
;	COMDAT ??$?0H@?$allocator@U?$_List_node@H@_STL@@@_STL@@QAE@ABV?$allocator@H@1@@Z
_TEXT	SEGMENT PARA USE32 PUBLIC 'CODE'
_TEXT	ENDS
;	COMDAT ??$_Construct@W4ACTIONINFO@@W41@@_STL@@YAXPAW4ACTIONINFO@@ABW41@@Z
_TEXT	SEGMENT PARA USE32 PUBLIC 'CODE'
_TEXT	ENDS
;	COMDAT ??$?0U?$pair@$$CBW4ACTIONINFO@@VSKILLID_NODE@@@_STL@@@?$allocator@U?$_Rb_tree_node@U?$pair@$$CBW4ACTIONINFO@@VSKILLID_NODE@@@_STL@@@_STL@@@_STL@@QAE@ABV?$allocator@U?$pair@$$CBW4ACTIONINFO@@VSKILLID_NODE@@@_STL@@@1@@Z
_TEXT	SEGMENT PARA USE32 PUBLIC 'CODE'
_TEXT	ENDS
;	COMDAT ??_G?$basic_string@DV?$char_traits@D@_STL@@V?$allocator@D@2@@_STL@@QAEPAXI@Z
_TEXT	SEGMENT PARA USE32 PUBLIC 'CODE'
_TEXT	ENDS
;	COMDAT ??_ESKILLINFO_NODE@@QAEPAXI@Z
_TEXT	SEGMENT PARA USE32 PUBLIC 'CODE'
_TEXT	ENDS
;	COMDAT ?_M_exit_putback_mode@?$basic_filebuf@DV?$char_traits@D@_STL@@@_STL@@AAEXXZ
_TEXT	SEGMENT PARA USE32 PUBLIC 'CODE'
_TEXT	ENDS
;	COMDAT ??R?$_Eq_traits@V?$char_traits@D@_STL@@@_STL@@QBE_NABD0@Z
_TEXT	SEGMENT PARA USE32 PUBLIC 'CODE'
_TEXT	ENDS
;	COMDAT ?_S_left@?$_Rb_tree@W4ACTIONINFO@@U?$pair@$$CBW4ACTIONINFO@@VSKILLID_NODE@@@_STL@@U?$_Select1st@U?$pair@$$CBW4ACTIONINFO@@VSKILLID_NODE@@@_STL@@@3@U?$less@W4ACTIONINFO@@@3@V?$allocator@U?$pair@$$CBW4ACTIONINFO@@VSKILLID_NODE@@@_STL@@@3@@_STL@@KAAAPAU?$_Rb_tree_node@U?$pair@$$CBW4ACTIONINFO@@VSKILLID_NODE@@@_STL@@@2@PAU32@@Z
_TEXT	SEGMENT PARA USE32 PUBLIC 'CODE'
_TEXT	ENDS
;	COMDAT ?_S_right@?$_Rb_tree@W4ACTIONINFO@@U?$pair@$$CBW4ACTIONINFO@@VSKILLID_NODE@@@_STL@@U?$_Select1st@U?$pair@$$CBW4ACTIONINFO@@VSKILLID_NODE@@@_STL@@@3@U?$less@W4ACTIONINFO@@@3@V?$allocator@U?$pair@$$CBW4ACTIONINFO@@VSKILLID_NODE@@@_STL@@@3@@_STL@@KAAAPAU?$_Rb_tree_node@U?$pair@$$CBW4ACTIONINFO@@VSKILLID_NODE@@@_STL@@@2@PAU32@@Z
_TEXT	SEGMENT PARA USE32 PUBLIC 'CODE'
_TEXT	ENDS
;	COMDAT ??$_M_range_initialize@PBD@?$basic_string@DV?$char_traits@D@_STL@@V?$allocator@D@2@@_STL@@AAEXPBD0ABUforward_iterator_tag@1@@Z
_TEXT	SEGMENT PARA USE32 PUBLIC 'CODE'
_TEXT	ENDS
;	COMDAT ??$_M_range_initialize@PAD@?$basic_string@DV?$char_traits@D@_STL@@V?$allocator@D@2@@_STL@@AAEXPAD0ABUforward_iterator_tag@1@@Z
_TEXT	SEGMENT PARA USE32 PUBLIC 'CODE'
_TEXT	ENDS
;	COMDAT ?_M_unshift@?$basic_filebuf@DV?$char_traits@D@_STL@@@_STL@@AAE_NXZ
_TEXT	SEGMENT PARA USE32 PUBLIC 'CODE'
_TEXT	ENDS
;	COMDAT ?_M_allocate_buffers@?$basic_filebuf@DV?$char_traits@D@_STL@@@_STL@@AAE_NXZ
_TEXT	SEGMENT PARA USE32 PUBLIC 'CODE'
_TEXT	ENDS
;	COMDAT ??$max@H@_STL@@YAABHABH0@Z
_TEXT	SEGMENT PARA USE32 PUBLIC 'CODE'
_TEXT	ENDS
;	COMDAT ??$use_facet@V?$codecvt@DDH@_STL@@@_STL@@YAABV?$codecvt@DDH@0@ABVlocale@0@@Z
_TEXT	SEGMENT PARA USE32 PUBLIC 'CODE'
_TEXT	ENDS
;	COMDAT ??$append@PAD@?$basic_string@DV?$char_traits@D@_STL@@V?$allocator@D@2@@_STL@@QAEAAV01@PAD0@Z
_TEXT	SEGMENT PARA USE32 PUBLIC 'CODE'
_TEXT	ENDS
;	COMDAT ??$_Destroy@W4ACTIONINFO@@@_STL@@YAXPAW4ACTIONINFO@@@Z
_TEXT	SEGMENT PARA USE32 PUBLIC 'CODE'
_TEXT	ENDS
;	COMDAT ??$_Destroy@H@_STL@@YAXPAH@Z
_TEXT	SEGMENT PARA USE32 PUBLIC 'CODE'
_TEXT	ENDS
;	COMDAT ??$_Destroy@U?$pair@$$CBW4ACTIONINFO@@VSKILLID_NODE@@@_STL@@@_STL@@YAXPAU?$pair@$$CBW4ACTIONINFO@@VSKILLID_NODE@@@0@@Z
_TEXT	SEGMENT PARA USE32 PUBLIC 'CODE'
_TEXT	ENDS
;	COMDAT ?Release@?$CTypeTable@VSKILLINFO_NODE@@@@QAEXXZ
_TEXT	SEGMENT PARA USE32 PUBLIC 'CODE'
_TEXT	ENDS
;	COMDAT ??$_M_append_dispatch@PBD@?$basic_string@DV?$char_traits@D@_STL@@V?$allocator@D@2@@_STL@@AAEAAV01@PBD0ABU__false_type@1@@Z
_TEXT	SEGMENT PARA USE32 PUBLIC 'CODE'
_TEXT	ENDS
;	COMDAT ??$distance@PBD@_STL@@YAHABQBD0@Z
_TEXT	SEGMENT PARA USE32 PUBLIC 'CODE'
_TEXT	ENDS
;	COMDAT ?_M_allocate_block@?$_String_base@DV?$allocator@D@_STL@@@_STL@@QAEXI@Z
_TEXT	SEGMENT PARA USE32 PUBLIC 'CODE'
_TEXT	ENDS
;	COMDAT ??$distance@PAD@_STL@@YAHABQAD0@Z
_TEXT	SEGMENT PARA USE32 PUBLIC 'CODE'
_TEXT	ENDS
;	COMDAT ??$uninitialized_copy@PADPAD@_STL@@YAPADPAD00@Z
_TEXT	SEGMENT PARA USE32 PUBLIC 'CODE'
_TEXT	ENDS
;	COMDAT ??$_M_append_dispatch@PAD@?$basic_string@DV?$char_traits@D@_STL@@V?$allocator@D@2@@_STL@@AAEAAV01@PAD0ABU__false_type@1@@Z
_TEXT	SEGMENT PARA USE32 PUBLIC 'CODE'
_TEXT	ENDS
;	COMDAT ??$append@PBD@?$basic_string@DV?$char_traits@D@_STL@@V?$allocator@D@2@@_STL@@AAEAAV01@PBD0ABUforward_iterator_tag@1@@Z
_TEXT	SEGMENT PARA USE32 PUBLIC 'CODE'
_TEXT	ENDS
;	COMDAT ?_M_construct_null@?$basic_string@DV?$char_traits@D@_STL@@V?$allocator@D@2@@_STL@@AAEXPAD@Z
_TEXT	SEGMENT PARA USE32 PUBLIC 'CODE'
_TEXT	ENDS
;	COMDAT ?max_size@?$basic_string@DV?$char_traits@D@_STL@@V?$allocator@D@2@@_STL@@QBEIXZ
_TEXT	SEGMENT PARA USE32 PUBLIC 'CODE'
_TEXT	ENDS
;	COMDAT ?capacity@?$basic_string@DV?$char_traits@D@_STL@@V?$allocator@D@2@@_STL@@QBEIXZ
_TEXT	SEGMENT PARA USE32 PUBLIC 'CODE'
_TEXT	ENDS
;	COMDAT ?max_size@?$_String_base@DV?$allocator@D@_STL@@@_STL@@QBEIXZ
_TEXT	SEGMENT PARA USE32 PUBLIC 'CODE'
_TEXT	ENDS
;	COMDAT ?_M_construct_null_aux@?$basic_string@DV?$char_traits@D@_STL@@V?$allocator@D@2@@_STL@@AAEXPADABU__true_type@2@@Z
_TEXT	SEGMENT PARA USE32 PUBLIC 'CODE'
_TEXT	ENDS
;	COMDAT ??$__distance@PBD@_STL@@YAHABQBD0ABUrandom_access_iterator_tag@0@@Z
_TEXT	SEGMENT PARA USE32 PUBLIC 'CODE'
_TEXT	ENDS
;	COMDAT ?_M_throw_length_error@?$_String_base@DV?$allocator@D@_STL@@@_STL@@QBEXXZ
_TEXT	SEGMENT PARA USE32 PUBLIC 'CODE'
_TEXT	ENDS
;	COMDAT ??$__distance@PAD@_STL@@YAHABQAD0ABUrandom_access_iterator_tag@0@@Z
_TEXT	SEGMENT PARA USE32 PUBLIC 'CODE'
_TEXT	ENDS
;	COMDAT ??$__uninitialized_copy@PADPAD@_STL@@YAPADPAD00ABU__true_type@0@@Z
_TEXT	SEGMENT PARA USE32 PUBLIC 'CODE'
_TEXT	ENDS
;	COMDAT ??$append@PAD@?$basic_string@DV?$char_traits@D@_STL@@V?$allocator@D@2@@_STL@@AAEAAV01@PAD0ABUforward_iterator_tag@1@@Z
_TEXT	SEGMENT PARA USE32 PUBLIC 'CODE'
_TEXT	ENDS
;	COMDAT ??$max@I@_STL@@YAABIABI0@Z
_TEXT	SEGMENT PARA USE32 PUBLIC 'CODE'
_TEXT	ENDS
;	COMDAT ?_Ret@?$_BothPtrType@PADPAD@_STL@@SA?AU__true_type@2@XZ
_TEXT	SEGMENT PARA USE32 PUBLIC 'CODE'
_TEXT	ENDS
;	COMDAT ??$__copy_aux@PADPAD@_STL@@YAPADPAD00ABU__true_type@0@@Z
_TEXT	SEGMENT PARA USE32 PUBLIC 'CODE'
_TEXT	ENDS
;	COMDAT ?_Ret@?$_OKToMemCpy@DD@_STL@@SA?AU__true_type@2@XZ
_TEXT	SEGMENT PARA USE32 PUBLIC 'CODE'
_TEXT	ENDS
;	COMDAT ??$_IsOKToMemCpy@DD@_STL@@YA?AU?$_OKToMemCpy@DD@0@PAD0@Z
_TEXT	SEGMENT PARA USE32 PUBLIC 'CODE'
_TEXT	ENDS
;	COMDAT ??$__copy_ptrs@PADPAD@_STL@@YAPADPAD00ABU__true_type@0@@Z
_TEXT	SEGMENT PARA USE32 PUBLIC 'CODE'
_TEXT	ENDS
;	COMDAT ??_R3ovfstream@@8
rdata$r	SEGMENT DWORD USE32 PUBLIC 'CONST'
rdata$r	ENDS
;	COMDAT ??_R3ivfstream@@8
rdata$r	SEGMENT DWORD USE32 PUBLIC 'CONST'
rdata$r	ENDS
;	COMDAT ??_R3iovfs_base@@8
rdata$r	SEGMENT DWORD USE32 PUBLIC 'CONST'
rdata$r	ENDS
;	COMDAT ??_R3IFileIO@@8
rdata$r	SEGMENT DWORD USE32 PUBLIC 'CONST'
rdata$r	ENDS
;	COMDAT ??_R2ovfstream@@8
rdata$r	SEGMENT DWORD USE32 PUBLIC 'CONST'
rdata$r	ENDS
;	COMDAT ??_R2ivfstream@@8
rdata$r	SEGMENT DWORD USE32 PUBLIC 'CONST'
rdata$r	ENDS
;	COMDAT ??_R2iovfs_base@@8
rdata$r	SEGMENT DWORD USE32 PUBLIC 'CONST'
rdata$r	ENDS
;	COMDAT ??_R2IFileIO@@8
rdata$r	SEGMENT DWORD USE32 PUBLIC 'CONST'
rdata$r	ENDS
;	COMDAT ??_R1A@?0A@A@ovfstream@@8
rdata$r	SEGMENT DWORD USE32 PUBLIC 'CONST'
rdata$r	ENDS
;	COMDAT ??_R1A@?0A@A@ivfstream@@8
rdata$r	SEGMENT DWORD USE32 PUBLIC 'CONST'
rdata$r	ENDS
;	COMDAT ??_R1A@?0A@A@iovfs_base@@8
rdata$r	SEGMENT DWORD USE32 PUBLIC 'CONST'
rdata$r	ENDS
;	COMDAT ??_R1A@?0A@A@IFileIO@@8
rdata$r	SEGMENT DWORD USE32 PUBLIC 'CONST'
rdata$r	ENDS
;	COMDAT ??_R0?AVovfstream@@@8
_DATA	SEGMENT DWORD USE32 PUBLIC 'DATA'
_DATA	ENDS
;	COMDAT ??_R0?AVivfstream@@@8
_DATA	SEGMENT DWORD USE32 PUBLIC 'DATA'
_DATA	ENDS
;	COMDAT ??_R0?AViovfs_base@@@8
_DATA	SEGMENT DWORD USE32 PUBLIC 'DATA'
_DATA	ENDS
;	COMDAT ??_R0?AVIFileIO@@@8
_DATA	SEGMENT DWORD USE32 PUBLIC 'DATA'
_DATA	ENDS
;	COMDAT ??_R4ovfstream@@6B@
rdata$r	SEGMENT DWORD USE32 PUBLIC 'CONST'
rdata$r	ENDS
;	COMDAT ??_R4ivfstream@@6B@
rdata$r	SEGMENT DWORD USE32 PUBLIC 'CONST'
rdata$r	ENDS
;	COMDAT ??_R4iovfs_base@@6B@
rdata$r	SEGMENT DWORD USE32 PUBLIC 'CONST'
rdata$r	ENDS
;	COMDAT ??_R4IFileIO@@6B@
rdata$r	SEGMENT DWORD USE32 PUBLIC 'CONST'
rdata$r	ENDS
;	COMDAT ?__copy_trivial@_STL@@YAPAXPBX0PAX@Z
_TEXT	SEGMENT PARA USE32 PUBLIC 'CODE'
_TEXT	ENDS
;	COMDAT ?_M_deallocate_block@?$_String_base@DV?$allocator@D@_STL@@@_STL@@QAEXXZ
_TEXT	SEGMENT PARA USE32 PUBLIC 'CODE'
_TEXT	ENDS
;	COMDAT ?deallocate@?$allocator@D@_STL@@QAEXPADI@Z
_TEXT	SEGMENT PARA USE32 PUBLIC 'CODE'
_TEXT	ENDS
;	COMDAT ?__page_size@_Filebuf_base@_STL@@SAIXZ
_TEXT	SEGMENT PARA USE32 PUBLIC 'CODE'
_TEXT	ENDS
;	COMDAT ?_M_write@?$basic_filebuf@DV?$char_traits@D@_STL@@@_STL@@QAE_NPADH@Z
_TEXT	SEGMENT PARA USE32 PUBLIC 'CODE'
_TEXT	ENDS
;	COMDAT ?unshift@?$codecvt@DDH@_STL@@QBE?AW4result@codecvt_base@2@AAHPAD1AAPAD@Z
_TEXT	SEGMENT PARA USE32 PUBLIC 'CODE'
_TEXT	ENDS
;	COMDAT ?uninitialized_copy@_STL@@YAPADPBD0PAD@Z
_TEXT	SEGMENT PARA USE32 PUBLIC 'CODE'
_TEXT	ENDS
;	COMDAT ??2@YAPAXIPAX@Z
_TEXT	SEGMENT PARA USE32 PUBLIC 'CODE'
_TEXT	ENDS
;	COMDAT ?assign@?$char_traits@D@_STL@@SAXAADABD@Z
_TEXT	SEGMENT PARA USE32 PUBLIC 'CODE'
_TEXT	ENDS
;	COMDAT ?always_noconv@?$codecvt@DDH@_STL@@QBE_NXZ
_TEXT	SEGMENT PARA USE32 PUBLIC 'CODE'
_TEXT	ENDS
;	COMDAT ?encoding@?$codecvt@DDH@_STL@@QBEHXZ
_TEXT	SEGMENT PARA USE32 PUBLIC 'CODE'
_TEXT	ENDS
;	COMDAT ?max_length@?$codecvt@DDH@_STL@@QBEHXZ
_TEXT	SEGMENT PARA USE32 PUBLIC 'CODE'
_TEXT	ENDS
;	COMDAT ?__o_mode@_Filebuf_base@_STL@@QBEHXZ
_TEXT	SEGMENT PARA USE32 PUBLIC 'CODE'
_TEXT	ENDS
;	COMDAT ?deallocate@?$__node_alloc@$00$0A@@_STL@@SAXPAXI@Z
_TEXT	SEGMENT PARA USE32 PUBLIC 'CODE'
_TEXT	ENDS
;	COMDAT ?__stl_delete@_STL@@YAXPAX@Z
_TEXT	SEGMENT PARA USE32 PUBLIC 'CODE'
_TEXT	ENDS
;	COMDAT ?_Destroy@_STL@@YAXPAD0@Z
_TEXT	SEGMENT PARA USE32 PUBLIC 'CODE'
_TEXT	ENDS
;	COMDAT ??0_List_iterator_base@_STL@@QAE@PAU_List_node_base@1@@Z
_TEXT	SEGMENT PARA USE32 PUBLIC 'CODE'
_TEXT	ENDS
;	COMDAT ?_M_incr@_List_iterator_base@_STL@@QAEXXZ
_TEXT	SEGMENT PARA USE32 PUBLIC 'CODE'
_TEXT	ENDS
;	COMDAT ?setp@?$basic_streambuf@DV?$char_traits@D@_STL@@@_STL@@IAEXPAD0@Z
_TEXT	SEGMENT PARA USE32 PUBLIC 'CODE'
_TEXT	ENDS
;	COMDAT ?_FILE_O_set@_STL@@YAXPAU_iobuf@@PAD11@Z
_TEXT	SEGMENT PARA USE32 PUBLIC 'CODE'
_TEXT	ENDS
;	COMDAT ?_FILE_I_set@_STL@@YAXPAU_iobuf@@PAD11@Z
_TEXT	SEGMENT PARA USE32 PUBLIC 'CODE'
_TEXT	ENDS
;	COMDAT ?setg@?$basic_streambuf@DV?$char_traits@D@_STL@@@_STL@@IAEXPAD00@Z
_TEXT	SEGMENT PARA USE32 PUBLIC 'CODE'
_TEXT	ENDS
;	COMDAT ?__is_open@_Filebuf_base@_STL@@QBE_NXZ
_TEXT	SEGMENT PARA USE32 PUBLIC 'CODE'
_TEXT	ENDS
;	COMDAT ?allocate@?$__node_alloc@$00$0A@@_STL@@SAPAXI@Z
_TEXT	SEGMENT PARA USE32 PUBLIC 'CODE'
_TEXT	ENDS
;	COMDAT ?__stl_new@_STL@@YAPAXI@Z
_TEXT	SEGMENT PARA USE32 PUBLIC 'CODE'
_TEXT	ENDS
;	COMDAT ??1?$_STLP_alloc_proxy@PADDV?$allocator@D@_STL@@@_STL@@QAE@XZ
_TEXT	SEGMENT PARA USE32 PUBLIC 'CODE'
_TEXT	ENDS
;	COMDAT ?length@?$char_traits@D@_STL@@SAIPBD@Z
_TEXT	SEGMENT PARA USE32 PUBLIC 'CODE'
_TEXT	ENDS
;	COMDAT ??1?$allocator@D@_STL@@QAE@XZ
_TEXT	SEGMENT PARA USE32 PUBLIC 'CODE'
_TEXT	ENDS
;	COMDAT ?eof@?$__char_traits_base@DH@_STL@@SAHXZ
_TEXT	SEGMENT PARA USE32 PUBLIC 'CODE'
_TEXT	ENDS
;	COMDAT ??9_List_iterator_base@_STL@@QBE_NABU01@@Z
_TEXT	SEGMENT PARA USE32 PUBLIC 'CODE'
_TEXT	ENDS
;	COMDAT ??9_Rb_tree_base_iterator@_STL@@QBE_NABU01@@Z
_TEXT	SEGMENT PARA USE32 PUBLIC 'CODE'
_TEXT	ENDS
;	COMDAT ??8_Rb_tree_base_iterator@_STL@@QBE_NABU01@@Z
_TEXT	SEGMENT PARA USE32 PUBLIC 'CODE'
_TEXT	ENDS
;	COMDAT ??_7ovfstream@@6B@
CONST	SEGMENT DWORD USE32 PUBLIC 'CONST'
CONST	ENDS
;	COMDAT ??_7ivfstream@@6B@
CONST	SEGMENT DWORD USE32 PUBLIC 'CONST'
CONST	ENDS
;	COMDAT ??0?$basic_string@DV?$char_traits@D@_STL@@V?$allocator@D@2@@_STL@@QAE@XZ
_TEXT	SEGMENT PARA USE32 PUBLIC 'CODE'
_TEXT	ENDS
;	COMDAT ??0?$allocator@D@_STL@@QAE@XZ
_TEXT	SEGMENT PARA USE32 PUBLIC 'CODE'
_TEXT	ENDS
;	COMDAT ??1?$_String_base@DV?$allocator@D@_STL@@@_STL@@QAE@XZ
_TEXT	SEGMENT PARA USE32 PUBLIC 'CODE'
_TEXT	ENDS
;	COMDAT ??1?$basic_string@DV?$char_traits@D@_STL@@V?$allocator@D@2@@_STL@@QAE@XZ
_TEXT	SEGMENT PARA USE32 PUBLIC 'CODE'
_TEXT	ENDS
;	COMDAT ??_7iovfs_base@@6B@
CONST	SEGMENT DWORD USE32 PUBLIC 'CONST'
CONST	ENDS
;	COMDAT ??_7IFileIO@@6B@
CONST	SEGMENT DWORD USE32 PUBLIC 'CONST'
CONST	ENDS
sxdata	SEGMENT DWORD USE32 'SXDATA'
sxdata	ENDS
FLAT	GROUP _DATA, CONST, _BSS
	ASSUME	CS: FLAT, DS: FLAT, SS: FLAT
endif

INCLUDELIB LIBCMT
INCLUDELIB OLDNAMES

PUBLIC	?__stl_delete@_STL@@YAXPAX@Z			; _STL::__stl_delete
EXTRN	??3@YAXPAX@Z:NEAR				; operator delete
; Function compile flags: /Ogsy
; File c:\stlport-4.6.1\stlport\stl\_new.h
;	COMDAT ?__stl_delete@_STL@@YAXPAX@Z
_TEXT	SEGMENT
___p$ = 8						; size = 4
?__stl_delete@_STL@@YAXPAX@Z PROC NEAR			; _STL::__stl_delete, COMDAT

; 87   : inline void   _STLP_CALL __stl_delete(void* __p) { ::operator delete(__p); }

  00000	e9 00 00 00 00	 jmp	 ??3@YAXPAX@Z		; operator delete
?__stl_delete@_STL@@YAXPAX@Z ENDP			; _STL::__stl_delete
_TEXT	ENDS
PUBLIC	?read@ivfstream@@QAEXPADI@Z			; ivfstream::read
; Function compile flags: /Ogsy
; File c:\darkeden\designed_common\project\client\virtualfilesystem\vfstream.inl
;	COMDAT ?read@ivfstream@@QAEXPADI@Z
_TEXT	SEGMENT
_buf$ = 8						; size = 4
_len$ = 12						; size = 4
?read@ivfstream@@QAEXPADI@Z PROC NEAR			; ivfstream::read, COMDAT
; _this$ = ecx

; 81   : 	if(m_pFileIO) m_pFileIO->read(buf, len);

  00000	83 79 04 00	 cmp	 DWORD PTR [ecx+4], 0
  00004	74 08		 je	 SHORT $L102722
  00006	8b 49 04	 mov	 ecx, DWORD PTR [ecx+4]
  00009	8b 01		 mov	 eax, DWORD PTR [ecx]
  0000b	ff 60 10	 jmp	 DWORD PTR [eax+16]
$L102722:

; 82   : }

  0000e	c2 08 00	 ret	 8
?read@ivfstream@@QAEXPADI@Z ENDP			; ivfstream::read
_TEXT	ENDS
PUBLIC	?SetExpLevel@SKILLINFO_NODE@@QAEXH@Z		; SKILLINFO_NODE::SetExpLevel
; Function compile flags: /Ogsy
; File c:\darkeden\designed_common\project\client\mskillmanager.h
;	COMDAT ?SetExpLevel@SKILLINFO_NODE@@QAEXH@Z
_TEXT	SEGMENT
_lev$ = 8						; size = 4
?SetExpLevel@SKILLINFO_NODE@@QAEXH@Z PROC NEAR		; SKILLINFO_NODE::SetExpLevel, COMDAT
; _this$ = ecx

; 204  : 		void				SetExpLevel(int lev)		{ m_ExpLevel = lev; }

  00000	8b 44 24 04	 mov	 eax, DWORD PTR _lev$[esp-4]
  00004	89 41 44	 mov	 DWORD PTR [ecx+68], eax
  00007	c2 04 00	 ret	 4
?SetExpLevel@SKILLINFO_NODE@@QAEXH@Z ENDP		; SKILLINFO_NODE::SetExpLevel
_TEXT	ENDS
PUBLIC	?SetSkillExp@SKILLINFO_NODE@@QAEXH@Z		; SKILLINFO_NODE::SetSkillExp
; Function compile flags: /Ogsy
;	COMDAT ?SetSkillExp@SKILLINFO_NODE@@QAEXH@Z
_TEXT	SEGMENT
_exp$ = 8						; size = 4
?SetSkillExp@SKILLINFO_NODE@@QAEXH@Z PROC NEAR		; SKILLINFO_NODE::SetSkillExp, COMDAT
; _this$ = ecx

; 224  : 		void				SetSkillExp(int exp)		{ m_SkillExp = exp; }

  00000	8b 44 24 04	 mov	 eax, DWORD PTR _exp$[esp-4]
  00004	89 41 48	 mov	 DWORD PTR [ecx+72], eax
  00007	c2 04 00	 ret	 4
?SetSkillExp@SKILLINFO_NODE@@QAEXH@Z ENDP		; SKILLINFO_NODE::SetSkillExp
_TEXT	ENDS
PUBLIC	?GetDelayGroupList@SKILLINFO_NODE@@QBEABV?$list@W4ACTIONINFO@@V?$allocator@W4ACTIONINFO@@@_STL@@@_STL@@XZ ; SKILLINFO_NODE::GetDelayGroupList
; Function compile flags: /Ogsy
;	COMDAT ?GetDelayGroupList@SKILLINFO_NODE@@QBEABV?$list@W4ACTIONINFO@@V?$allocator@W4ACTIONINFO@@@_STL@@@_STL@@XZ
_TEXT	SEGMENT
?GetDelayGroupList@SKILLINFO_NODE@@QBEABV?$list@W4ACTIONINFO@@V?$allocator@W4ACTIONINFO@@@_STL@@@_STL@@XZ PROC NEAR ; SKILLINFO_NODE::GetDelayGroupList, COMDAT
; _this$ = ecx

; 261  : 		const SKILLID_LIST& GetDelayGroupList() const		{ return m_listDelayGroup;			}

  00000	8d 41 68	 lea	 eax, DWORD PTR [ecx+104]
  00003	c3		 ret	 0
?GetDelayGroupList@SKILLINFO_NODE@@QBEABV?$list@W4ACTIONINFO@@V?$allocator@W4ACTIONINFO@@@_STL@@@_STL@@XZ ENDP ; SKILLINFO_NODE::GetDelayGroupList
_TEXT	ENDS
PUBLIC	?Init@MSkillInfoTable@@QAEXXZ			; MSkillInfoTable::Init
EXTRN	?SetDelayTime@SKILLINFO_NODE@@QAEXK@Z:NEAR	; SKILLINFO_NODE::SetDelayTime
EXTRN	?SetEnable@SKILLINFO_NODE@@QAEX_N@Z:NEAR	; SKILLINFO_NODE::SetEnable
EXTRN	?SetAvailableTime@SKILLINFO_NODE@@IAEXH@Z:NEAR	; SKILLINFO_NODE::SetAvailableTime
; Function compile flags: /Ogsy
; File c:\darkeden\designed_common\project\client\mskillinfotable.cpp
;	COMDAT ?Init@MSkillInfoTable@@QAEXXZ
_TEXT	SEGMENT
?Init@MSkillInfoTable@@QAEXXZ PROC NEAR			; MSkillInfoTable::Init, COMDAT
; _this$ = ecx

; 3004 : {

  00000	56		 push	 esi
  00001	57		 push	 edi
  00002	8b f1		 mov	 esi, ecx

; 3005 : 	for (int i=0; i<MIN_RESULT_ACTIONINFO; i++)

  00004	33 ff		 xor	 edi, edi
$L105984:

; 3006 : 	{
; 3007 : 		m_pTypeInfo[i].SetExpLevel( 0 );

  00006	8b 46 04	 mov	 eax, DWORD PTR [esi+4]
  00009	83 64 38 44 00	 and	 DWORD PTR [eax+edi+68], 0

; 3008 : 		m_pTypeInfo[i].SetSkillExp( 0 );

  0000e	8b 46 04	 mov	 eax, DWORD PTR [esi+4]
  00011	83 64 38 48 00	 and	 DWORD PTR [eax+edi+72], 0

; 3009 : 		m_pTypeInfo[i].SetDelayTime( 0 );

  00016	8b 4e 04	 mov	 ecx, DWORD PTR [esi+4]
  00019	6a 00		 push	 0
  0001b	03 cf		 add	 ecx, edi
  0001d	e8 00 00 00 00	 call	 ?SetDelayTime@SKILLINFO_NODE@@QAEXK@Z ; SKILLINFO_NODE::SetDelayTime

; 3010 : 		m_pTypeInfo[i].SetAvailableTime();

  00022	8b 4e 04	 mov	 ecx, DWORD PTR [esi+4]
  00025	6a 00		 push	 0
  00027	03 cf		 add	 ecx, edi
  00029	e8 00 00 00 00	 call	 ?SetAvailableTime@SKILLINFO_NODE@@IAEXH@Z ; SKILLINFO_NODE::SetAvailableTime

; 3011 : 		m_pTypeInfo[i].SetEnable();

  0002e	8b 4e 04	 mov	 ecx, DWORD PTR [esi+4]
  00031	6a 01		 push	 1
  00033	03 cf		 add	 ecx, edi
  00035	e8 00 00 00 00	 call	 ?SetEnable@SKILLINFO_NODE@@QAEX_N@Z ; SKILLINFO_NODE::SetEnable
  0003a	81 c7 e8 00 00
	00		 add	 edi, 232		; 000000e8H
  00040	81 ff 80 05 04
	00		 cmp	 edi, 263552		; 00040580H
  00046	7c be		 jl	 SHORT $L105984

; 3012 : 	}
; 3013 : 
; 3014 : 	
; 3015 : 	// delay 설정
; 3016 : 	m_pTypeInfo[SUMMON_HELICOPTER].SetDelayTime( 3000 );

  00048	8b 4e 04	 mov	 ecx, DWORD PTR [esi+4]
  0004b	68 b8 0b 00 00	 push	 3000			; 00000bb8H
  00050	81 c1 00 b8 02
	00		 add	 ecx, 178176		; 0002b800H
  00056	e8 00 00 00 00	 call	 ?SetDelayTime@SKILLINFO_NODE@@QAEXK@Z ; SKILLINFO_NODE::SetDelayTime
  0005b	5f		 pop	 edi
  0005c	5e		 pop	 esi

; 3017 : //	m_pTypeInfo[MAGIC_BLOODY_TUNNEL].SetDelayTime( 3000 );
; 3018 : //	m_pTypeInfo[MAGIC_BLOODY_MARK].SetDelayTime( 3000 );
; 3019 : }

  0005d	c3		 ret	 0
?Init@MSkillInfoTable@@QAEXXZ ENDP			; MSkillInfoTable::Init
_TEXT	ENDS
PUBLIC	?LoadFromFileServerSkillInfo@MSkillInfoTable@@QAEXAAVivfstream@@@Z ; MSkillInfoTable::LoadFromFileServerSkillInfo
EXTRN	?LoadFromFileServerSkillInfo@SKILLINFO_NODE@@QAEXAAVivfstream@@@Z:NEAR ; SKILLINFO_NODE::LoadFromFileServerSkillInfo
; Function compile flags: /Ogsy
;	COMDAT ?LoadFromFileServerSkillInfo@MSkillInfoTable@@QAEXAAVivfstream@@@Z
_TEXT	SEGMENT
_skillType$ = -4					; size = 4
_num$ = 8						; size = 4
_file$ = 8						; size = 4
?LoadFromFileServerSkillInfo@MSkillInfoTable@@QAEXAAVivfstream@@@Z PROC NEAR ; MSkillInfoTable::LoadFromFileServerSkillInfo, COMDAT
; _this$ = ecx

; 3026 : {

  00000	55		 push	 ebp
  00001	8b ec		 mov	 ebp, esp
  00003	51		 push	 ecx
  00004	53		 push	 ebx
  00005	56		 push	 esi
  00006	57		 push	 edi

; 3027 : 	int num, skillType;
; 3028 : 
; 3029 : 	file.read((char*)&num, 4);

  00007	8b 7d 08	 mov	 edi, DWORD PTR _file$[ebp]
  0000a	33 db		 xor	 ebx, ebx
  0000c	39 5f 04	 cmp	 DWORD PTR [edi+4], ebx
  0000f	8b f1		 mov	 esi, ecx
  00011	74 0e		 je	 SHORT $L107366
  00013	8b 4f 04	 mov	 ecx, DWORD PTR [edi+4]
  00016	8b 01		 mov	 eax, DWORD PTR [ecx]
  00018	6a 04		 push	 4
  0001a	8d 55 08	 lea	 edx, DWORD PTR _num$[ebp]
  0001d	52		 push	 edx
  0001e	ff 50 10	 call	 DWORD PTR [eax+16]
$L107366:

; 3030 : 
; 3031 : 	for (int i=0; i<num; i++)

  00021	83 7d 08 00	 cmp	 DWORD PTR _num$[ebp], 0
  00025	7e 2c		 jle	 SHORT $L105997
$L107376:

; 3032 : 	{
; 3033 : 		file.read((char*)&skillType, 4);

  00027	83 7f 04 00	 cmp	 DWORD PTR [edi+4], 0
  0002b	74 0e		 je	 SHORT $L107371
  0002d	8b 4f 04	 mov	 ecx, DWORD PTR [edi+4]
  00030	8b 01		 mov	 eax, DWORD PTR [ecx]
  00032	6a 04		 push	 4
  00034	8d 55 fc	 lea	 edx, DWORD PTR _skillType$[ebp]
  00037	52		 push	 edx
  00038	ff 50 10	 call	 DWORD PTR [eax+16]
$L107371:

; 3034 : 
; 3035 : 		// 적절한 skillType에 loading한다.
; 3036 : 		m_pTypeInfo[skillType].LoadFromFileServerSkillInfo( file );

  0003b	8b 4d fc	 mov	 ecx, DWORD PTR _skillType$[ebp]
  0003e	69 c9 e8 00 00
	00		 imul	 ecx, 232		; 000000e8H
  00044	03 4e 04	 add	 ecx, DWORD PTR [esi+4]
  00047	57		 push	 edi
  00048	e8 00 00 00 00	 call	 ?LoadFromFileServerSkillInfo@SKILLINFO_NODE@@QAEXAAVivfstream@@@Z ; SKILLINFO_NODE::LoadFromFileServerSkillInfo
  0004d	43		 inc	 ebx
  0004e	3b 5d 08	 cmp	 ebx, DWORD PTR _num$[ebp]
  00051	7c d4		 jl	 SHORT $L107376
$L105997:

; 3037 : 	}
; 3038 : 
; 3039 : 	m_pTypeInfo[MAGIC_THROW_HOLY_WATER].minRange = 8;		// 최소 사정거리

  00053	8b 4e 04	 mov	 ecx, DWORD PTR [esi+4]
  00056	6a 08		 push	 8
  00058	58		 pop	 eax
  00059	89 81 50 64 00
	00		 mov	 DWORD PTR [ecx+25680], eax

; 3040 : 	m_pTypeInfo[MAGIC_THROW_HOLY_WATER].maxRange = 8;		// 최소 사정거리

  0005f	8b 4e 04	 mov	 ecx, DWORD PTR [esi+4]
  00062	89 81 54 64 00
	00		 mov	 DWORD PTR [ecx+25684], eax

; 3041 : 
; 3042 : 	m_pTypeInfo[BOMB_SPLINTER].minRange = 6;		// 최소 사정거리

  00068	8b 4e 04	 mov	 ecx, DWORD PTR [esi+4]
  0006b	6a 06		 push	 6
  0006d	58		 pop	 eax
  0006e	89 81 88 b9 02
	00		 mov	 DWORD PTR [ecx+178568], eax

; 3043 : 	m_pTypeInfo[BOMB_SPLINTER].maxRange = 6;		// 최소 사정거리

  00074	8b 4e 04	 mov	 ecx, DWORD PTR [esi+4]
  00077	89 81 8c b9 02
	00		 mov	 DWORD PTR [ecx+178572], eax

; 3044 : 
; 3045 : 	m_pTypeInfo[BOMB_ACER].minRange = 6;		// 최소 사정거리

  0007d	8b 4e 04	 mov	 ecx, DWORD PTR [esi+4]
  00080	89 81 70 ba 02
	00		 mov	 DWORD PTR [ecx+178800], eax

; 3046 : 	m_pTypeInfo[BOMB_ACER].maxRange = 6;		// 최소 사정거리

  00086	8b 4e 04	 mov	 ecx, DWORD PTR [esi+4]
  00089	89 81 74 ba 02
	00		 mov	 DWORD PTR [ecx+178804], eax

; 3047 : 
; 3048 : 	m_pTypeInfo[BOMB_BULLS].minRange = 6;		// 최소 사정거리

  0008f	8b 4e 04	 mov	 ecx, DWORD PTR [esi+4]
  00092	89 81 58 bb 02
	00		 mov	 DWORD PTR [ecx+179032], eax

; 3049 : 	m_pTypeInfo[BOMB_BULLS].maxRange = 6;		// 최소 사정거리

  00098	8b 4e 04	 mov	 ecx, DWORD PTR [esi+4]
  0009b	89 81 5c bb 02
	00		 mov	 DWORD PTR [ecx+179036], eax

; 3050 : 
; 3051 : 	m_pTypeInfo[BOMB_STUN].minRange = 6;		// 최소 사정거리

  000a1	8b 4e 04	 mov	 ecx, DWORD PTR [esi+4]
  000a4	89 81 40 bc 02
	00		 mov	 DWORD PTR [ecx+179264], eax

; 3052 : 	m_pTypeInfo[BOMB_STUN].maxRange = 6;		// 최소 사정거리

  000aa	8b 4e 04	 mov	 ecx, DWORD PTR [esi+4]
  000ad	89 81 44 bc 02
	00		 mov	 DWORD PTR [ecx+179268], eax

; 3053 : 
; 3054 : 	m_pTypeInfo[BOMB_CROSSBOW].minRange = 6;		// 최소 사정거리

  000b3	8b 4e 04	 mov	 ecx, DWORD PTR [esi+4]
  000b6	89 81 28 bd 02
	00		 mov	 DWORD PTR [ecx+179496], eax

; 3055 : 	m_pTypeInfo[BOMB_CROSSBOW].maxRange = 6;		// 최소 사정거리

  000bc	8b 4e 04	 mov	 ecx, DWORD PTR [esi+4]
  000bf	89 81 2c bd 02
	00		 mov	 DWORD PTR [ecx+179500], eax

; 3056 : 
; 3057 : 	m_pTypeInfo[BOMB_TWISTER].minRange = 6;		// 최소 사정거리

  000c5	8b 4e 04	 mov	 ecx, DWORD PTR [esi+4]
  000c8	89 81 10 be 02
	00		 mov	 DWORD PTR [ecx+179728], eax

; 3058 : 	m_pTypeInfo[BOMB_TWISTER].maxRange = 6;		// 최소 사정거리

  000ce	8b 4e 04	 mov	 ecx, DWORD PTR [esi+4]
  000d1	89 81 14 be 02
	00		 mov	 DWORD PTR [ecx+179732], eax

; 3059 : 
; 3060 : 	m_pTypeInfo[MAGIC_RAPID_GLIDING].minRange = 2;

  000d7	8b 4e 04	 mov	 ecx, DWORD PTR [esi+4]
  000da	c7 81 98 b8 00
	00 02 00 00 00	 mov	 DWORD PTR [ecx+47256], 2

; 3061 : 	m_pTypeInfo[MAGIC_RAPID_GLIDING].maxRange = 6;

  000e4	8b 4e 04	 mov	 ecx, DWORD PTR [esi+4]
  000e7	89 81 9c b8 00
	00		 mov	 DWORD PTR [ecx+47260], eax

; 3062 : 	
; 3063 : 	m_pTypeInfo[SKILL_ULTIMATE_BLOW].minRange = 1;

  000ed	8b 46 04	 mov	 eax, DWORD PTR [esi+4]
  000f0	c7 80 60 c4 00
	00 01 00 00 00	 mov	 DWORD PTR [eax+50272], 1

; 3064 : 	m_pTypeInfo[SKILL_ULTIMATE_BLOW].maxRange = 3;

  000fa	8b 46 04	 mov	 eax, DWORD PTR [esi+4]
  000fd	5f		 pop	 edi
  000fe	5e		 pop	 esi
  000ff	c7 80 64 c4 00
	00 03 00 00 00	 mov	 DWORD PTR [eax+50276], 3
  00109	5b		 pop	 ebx

; 3065 : }

  0010a	c9		 leave
  0010b	c2 04 00	 ret	 4
?LoadFromFileServerSkillInfo@MSkillInfoTable@@QAEXAAVivfstream@@@Z ENDP ; MSkillInfoTable::LoadFromFileServerSkillInfo
_TEXT	ENDS
PUBLIC	?Get@?$CTypeTable@VSKILLINFO_NODE@@@@QAEAAVSKILLINFO_NODE@@H@Z ; CTypeTable<SKILLINFO_NODE>::Get
; Function compile flags: /Ogsy
; File c:\darkeden\designed_common\project\client\ctypetable.h
;	COMDAT ?Get@?$CTypeTable@VSKILLINFO_NODE@@@@QAEAAVSKILLINFO_NODE@@H@Z
_TEXT	SEGMENT
_type$ = 8						; size = 4
?Get@?$CTypeTable@VSKILLINFO_NODE@@@@QAEAAVSKILLINFO_NODE@@H@Z PROC NEAR ; CTypeTable<SKILLINFO_NODE>::Get, COMDAT
; _this$ = ecx

; 39   : 		Type&	Get(int type)						{ return m_pTypeInfo[type]; }

  00000	8b 44 24 04	 mov	 eax, DWORD PTR _type$[esp-4]
  00004	69 c0 e8 00 00
	00		 imul	 eax, 232		; 000000e8H
  0000a	03 41 04	 add	 eax, DWORD PTR [ecx+4]
  0000d	c2 04 00	 ret	 4
?Get@?$CTypeTable@VSKILLINFO_NODE@@@@QAEAAVSKILLINFO_NODE@@H@Z ENDP ; CTypeTable<SKILLINFO_NODE>::Get
_TEXT	ENDS
PUBLIC	??D?$_List_iterator@W4ACTIONINFO@@U?$_Const_traits@W4ACTIONINFO@@@_STL@@@_STL@@QBEABW4ACTIONINFO@@XZ ; _STL::_List_iterator<enum ACTIONINFO,_STL::_Const_traits<enum ACTIONINFO> >::operator*
; Function compile flags: /Ogsy
; File c:\stlport-4.6.1\stlport\stl\_list.h
;	COMDAT ??D?$_List_iterator@W4ACTIONINFO@@U?$_Const_traits@W4ACTIONINFO@@@_STL@@@_STL@@QBEABW4ACTIONINFO@@XZ
_TEXT	SEGMENT
??D?$_List_iterator@W4ACTIONINFO@@U?$_Const_traits@W4ACTIONINFO@@@_STL@@@_STL@@QBEABW4ACTIONINFO@@XZ PROC NEAR ; _STL::_List_iterator<enum ACTIONINFO,_STL::_Const_traits<enum ACTIONINFO> >::operator*, COMDAT
; _this$ = ecx

; 130  :   reference operator*() const { return ((_Node*)_M_node)->_M_data; }

  00000	8b 01		 mov	 eax, DWORD PTR [ecx]
  00002	83 c0 08	 add	 eax, 8
  00005	c3		 ret	 0
??D?$_List_iterator@W4ACTIONINFO@@U?$_Const_traits@W4ACTIONINFO@@@_STL@@@_STL@@QBEABW4ACTIONINFO@@XZ ENDP ; _STL::_List_iterator<enum ACTIONINFO,_STL::_Const_traits<enum ACTIONINFO> >::operator*
_TEXT	ENDS
PUBLIC	??1?$allocator@U?$_List_node@W4ACTIONINFO@@@_STL@@@_STL@@QAE@XZ ; _STL::allocator<_STL::_List_node<enum ACTIONINFO> >::~allocator<_STL::_List_node<enum ACTIONINFO> >
; Function compile flags: /Ogsy
; File c:\stlport-4.6.1\stlport\stl\_alloc.h
;	COMDAT ??1?$allocator@U?$_List_node@W4ACTIONINFO@@@_STL@@@_STL@@QAE@XZ
_TEXT	SEGMENT
??1?$allocator@U?$_List_node@W4ACTIONINFO@@@_STL@@@_STL@@QAE@XZ PROC NEAR ; _STL::allocator<_STL::_List_node<enum ACTIONINFO> >::~allocator<_STL::_List_node<enum ACTIONINFO> >, COMDAT
; _this$ = ecx

; 350  :   ~allocator() _STLP_NOTHROW {}

  00000	c3		 ret	 0
??1?$allocator@U?$_List_node@W4ACTIONINFO@@@_STL@@@_STL@@QAE@XZ ENDP ; _STL::allocator<_STL::_List_node<enum ACTIONINFO> >::~allocator<_STL::_List_node<enum ACTIONINFO> >
_TEXT	ENDS
PUBLIC	??1?$allocator@U?$_List_node@H@_STL@@@_STL@@QAE@XZ ; _STL::allocator<_STL::_List_node<int> >::~allocator<_STL::_List_node<int> >
; Function compile flags: /Ogsy
;	COMDAT ??1?$allocator@U?$_List_node@H@_STL@@@_STL@@QAE@XZ
_TEXT	SEGMENT
??1?$allocator@U?$_List_node@H@_STL@@@_STL@@QAE@XZ PROC NEAR ; _STL::allocator<_STL::_List_node<int> >::~allocator<_STL::_List_node<int> >, COMDAT
; _this$ = ecx

; 350  :   ~allocator() _STLP_NOTHROW {}

  00000	c3		 ret	 0
??1?$allocator@U?$_List_node@H@_STL@@@_STL@@QAE@XZ ENDP	; _STL::allocator<_STL::_List_node<int> >::~allocator<_STL::_List_node<int> >
_TEXT	ENDS
PUBLIC	??0?$CTypeTable@VSKILLINFO_NODE@@@@QAE@XZ	; CTypeTable<SKILLINFO_NODE>::CTypeTable<SKILLINFO_NODE>
; Function compile flags: /Ogsy
; File c:\darkeden\designed_common\project\client\ctypetable.h
;	COMDAT ??0?$CTypeTable@VSKILLINFO_NODE@@@@QAE@XZ
_TEXT	SEGMENT
??0?$CTypeTable@VSKILLINFO_NODE@@@@QAE@XZ PROC NEAR	; CTypeTable<SKILLINFO_NODE>::CTypeTable<SKILLINFO_NODE>, COMDAT
; _this$ = ecx

; 64   : {

  00000	8b c1		 mov	 eax, ecx

; 65   : 	m_pTypeInfo	= NULL;

  00002	83 60 04 00	 and	 DWORD PTR [eax+4], 0

; 66   : 	m_Size		= 0;

  00006	83 20 00	 and	 DWORD PTR [eax], 0

; 67   : }

  00009	c3		 ret	 0
??0?$CTypeTable@VSKILLINFO_NODE@@@@QAE@XZ ENDP		; CTypeTable<SKILLINFO_NODE>::CTypeTable<SKILLINFO_NODE>
_TEXT	ENDS
PUBLIC	??$_Destroy@W4ACTIONINFO@@@_STL@@YAXPAW4ACTIONINFO@@@Z ; _STL::_Destroy<enum ACTIONINFO>
; Function compile flags: /Ogsy
; File c:\stlport-4.6.1\stlport\stl\_construct.h
;	COMDAT ??$_Destroy@W4ACTIONINFO@@@_STL@@YAXPAW4ACTIONINFO@@@Z
_TEXT	SEGMENT
___pointer$ = 8						; size = 4
??$_Destroy@W4ACTIONINFO@@@_STL@@YAXPAW4ACTIONINFO@@@Z PROC NEAR ; _STL::_Destroy<enum ACTIONINFO>, COMDAT

; 57   : # if _MSC_VER >= 1010
; 58   :   __pointer;
; 59   : # endif	// _MSC_VER >= 1000
; 60   : # ifdef _STLP_TRIVIAL_DESTRUCTOR_BUG
; 61   :   typedef typename __type_traits<_Tp>::has_trivial_destructor _Trivial_destructor;
; 62   :   __destroy_aux(__pointer, _Trivial_destructor());
; 63   : # else
; 64   : #  if ( defined (__BORLANDC__) && ( __BORLANDC__ < 0x500 ) )
; 65   :     __pointer->_Tp::~_Tp();
; 66   : #  else
; 67   :     __pointer->~_Tp();
; 68   : #  endif
; 69   : # endif
; 70   : # ifdef _STLP_DEBUG_UNINITIALIZED
; 71   : 	memset((char*)__pointer, _STLP_SHRED_BYTE, sizeof(_Tp));
; 72   : # endif
; 73   : }

  00000	c3		 ret	 0
??$_Destroy@W4ACTIONINFO@@@_STL@@YAXPAW4ACTIONINFO@@@Z ENDP ; _STL::_Destroy<enum ACTIONINFO>
_TEXT	ENDS
PUBLIC	??$_Destroy@H@_STL@@YAXPAH@Z			; _STL::_Destroy<int>
; Function compile flags: /Ogsy
;	COMDAT ??$_Destroy@H@_STL@@YAXPAH@Z
_TEXT	SEGMENT
___pointer$ = 8						; size = 4
??$_Destroy@H@_STL@@YAXPAH@Z PROC NEAR			; _STL::_Destroy<int>, COMDAT

; 57   : # if _MSC_VER >= 1010
; 58   :   __pointer;
; 59   : # endif	// _MSC_VER >= 1000
; 60   : # ifdef _STLP_TRIVIAL_DESTRUCTOR_BUG
; 61   :   typedef typename __type_traits<_Tp>::has_trivial_destructor _Trivial_destructor;
; 62   :   __destroy_aux(__pointer, _Trivial_destructor());
; 63   : # else
; 64   : #  if ( defined (__BORLANDC__) && ( __BORLANDC__ < 0x500 ) )
; 65   :     __pointer->_Tp::~_Tp();
; 66   : #  else
; 67   :     __pointer->~_Tp();
; 68   : #  endif
; 69   : # endif
; 70   : # ifdef _STLP_DEBUG_UNINITIALIZED
; 71   : 	memset((char*)__pointer, _STLP_SHRED_BYTE, sizeof(_Tp));
; 72   : # endif
; 73   : }

  00000	c3		 ret	 0
??$_Destroy@H@_STL@@YAXPAH@Z ENDP			; _STL::_Destroy<int>
_TEXT	ENDS
PUBLIC	??0_List_iterator_base@_STL@@QAE@PAU_List_node_base@1@@Z ; _STL::_List_iterator_base::_List_iterator_base
; Function compile flags: /Ogsy
; File c:\stlport-4.6.1\stlport\stl\_list.h
;	COMDAT ??0_List_iterator_base@_STL@@QAE@PAU_List_node_base@1@@Z
_TEXT	SEGMENT
___x$ = 8						; size = 4
??0_List_iterator_base@_STL@@QAE@PAU_List_node_base@1@@Z PROC NEAR ; _STL::_List_iterator_base::_List_iterator_base, COMDAT
; _this$ = ecx

; 95   :   _List_iterator_base(_List_node_base* __x) : _M_node(__x) {}

  00000	8b c1		 mov	 eax, ecx
  00002	8b 4c 24 04	 mov	 ecx, DWORD PTR ___x$[esp-4]
  00006	89 08		 mov	 DWORD PTR [eax], ecx
  00008	c2 04 00	 ret	 4
??0_List_iterator_base@_STL@@QAE@PAU_List_node_base@1@@Z ENDP ; _STL::_List_iterator_base::_List_iterator_base
_TEXT	ENDS
PUBLIC	?_M_incr@_List_iterator_base@_STL@@QAEXXZ	; _STL::_List_iterator_base::_M_incr
; Function compile flags: /Ogsy
;	COMDAT ?_M_incr@_List_iterator_base@_STL@@QAEXXZ
_TEXT	SEGMENT
?_M_incr@_List_iterator_base@_STL@@QAEXXZ PROC NEAR	; _STL::_List_iterator_base::_M_incr, COMDAT
; _this$ = ecx

; 98   :   void _M_incr() { _M_node = _M_node->_M_next; }

  00000	8b 01		 mov	 eax, DWORD PTR [ecx]
  00002	8b 00		 mov	 eax, DWORD PTR [eax]
  00004	89 01		 mov	 DWORD PTR [ecx], eax
  00006	c3		 ret	 0
?_M_incr@_List_iterator_base@_STL@@QAEXXZ ENDP		; _STL::_List_iterator_base::_M_incr
_TEXT	ENDS
PUBLIC	??9_List_iterator_base@_STL@@QBE_NABU01@@Z	; _STL::_List_iterator_base::operator!=
; Function compile flags: /Ogsy
;	COMDAT ??9_List_iterator_base@_STL@@QBE_NABU01@@Z
_TEXT	SEGMENT
___y$ = 8						; size = 4
??9_List_iterator_base@_STL@@QBE_NABU01@@Z PROC NEAR	; _STL::_List_iterator_base::operator!=, COMDAT
; _this$ = ecx

; 104  :     return _M_node != __y._M_node; 

  00000	8b 01		 mov	 eax, DWORD PTR [ecx]
  00002	8b 54 24 04	 mov	 edx, DWORD PTR ___y$[esp-4]
  00006	33 c9		 xor	 ecx, ecx
  00008	3b 02		 cmp	 eax, DWORD PTR [edx]
  0000a	0f 95 c1	 setne	 cl
  0000d	8a c1		 mov	 al, cl

; 105  :   }

  0000f	c2 04 00	 ret	 4
??9_List_iterator_base@_STL@@QBE_NABU01@@Z ENDP		; _STL::_List_iterator_base::operator!=
_TEXT	ENDS
PUBLIC	?deallocate@?$__node_alloc@$00$0A@@_STL@@SAXPAXI@Z ; _STL::__node_alloc<1,0>::deallocate
EXTRN	?_M_deallocate@?$__node_alloc@$00$0A@@_STL@@CAXPAXI@Z:NEAR ; _STL::__node_alloc<1,0>::_M_deallocate
; Function compile flags: /Ogsy
; File c:\stlport-4.6.1\stlport\stl\_alloc.h
;	COMDAT ?deallocate@?$__node_alloc@$00$0A@@_STL@@SAXPAXI@Z
_TEXT	SEGMENT
___p$ = 8						; size = 4
___n$ = 12						; size = 4
?deallocate@?$__node_alloc@$00$0A@@_STL@@SAXPAXI@Z PROC NEAR ; _STL::__node_alloc<1,0>::deallocate, COMDAT

; 253  :   static void _STLP_CALL deallocate(void *__p, size_t __n) { if (__n > (size_t)_MAX_BYTES) __stl_delete(__p); else _M_deallocate(__p, __n); }

  00000	81 7c 24 08 80
	00 00 00	 cmp	 DWORD PTR ___n$[esp-4], 128 ; 00000080H
  00008	76 0b		 jbe	 SHORT $L98677
  0000a	ff 74 24 04	 push	 DWORD PTR ___p$[esp-4]
  0000e	e8 00 00 00 00	 call	 ??3@YAXPAX@Z		; operator delete
  00013	59		 pop	 ecx
  00014	c3		 ret	 0
$L98677:
  00015	e9 00 00 00 00	 jmp	 ?_M_deallocate@?$__node_alloc@$00$0A@@_STL@@CAXPAXI@Z ; _STL::__node_alloc<1,0>::_M_deallocate
?deallocate@?$__node_alloc@$00$0A@@_STL@@SAXPAXI@Z ENDP	; _STL::__node_alloc<1,0>::deallocate
_TEXT	ENDS
PUBLIC	??E?$_List_iterator@W4ACTIONINFO@@U?$_Const_traits@W4ACTIONINFO@@@_STL@@@_STL@@QAEAAU01@XZ ; _STL::_List_iterator<enum ACTIONINFO,_STL::_Const_traits<enum ACTIONINFO> >::operator++
; Function compile flags: /Ogsy
; File c:\stlport-4.6.1\stlport\stl\_list.h
;	COMDAT ??E?$_List_iterator@W4ACTIONINFO@@U?$_Const_traits@W4ACTIONINFO@@@_STL@@@_STL@@QAEAAU01@XZ
_TEXT	SEGMENT
??E?$_List_iterator@W4ACTIONINFO@@U?$_Const_traits@W4ACTIONINFO@@@_STL@@@_STL@@QAEAAU01@XZ PROC NEAR ; _STL::_List_iterator<enum ACTIONINFO,_STL::_Const_traits<enum ACTIONINFO> >::operator++, COMDAT
; _this$ = ecx

; 134  :   _Self& operator++() { 

  00000	8b c1		 mov	 eax, ecx

; 135  :     this->_M_incr();

  00002	8b 08		 mov	 ecx, DWORD PTR [eax]
  00004	8b 09		 mov	 ecx, DWORD PTR [ecx]
  00006	89 08		 mov	 DWORD PTR [eax], ecx

; 136  :     return *this;
; 137  :   }

  00008	c3		 ret	 0
??E?$_List_iterator@W4ACTIONINFO@@U?$_Const_traits@W4ACTIONINFO@@@_STL@@@_STL@@QAEAAU01@XZ ENDP ; _STL::_List_iterator<enum ACTIONINFO,_STL::_Const_traits<enum ACTIONINFO> >::operator++
_TEXT	ENDS
PUBLIC	??0?$_List_iterator@W4ACTIONINFO@@U?$_Const_traits@W4ACTIONINFO@@@_STL@@@_STL@@QAE@PAU?$_List_node@W4ACTIONINFO@@@1@@Z ; _STL::_List_iterator<enum ACTIONINFO,_STL::_Const_traits<enum ACTIONINFO> >::_List_iterator<enum ACTIONINFO,_STL::_Const_traits<enum ACTIONINFO> >
; Function compile flags: /Ogsy
;	COMDAT ??0?$_List_iterator@W4ACTIONINFO@@U?$_Const_traits@W4ACTIONINFO@@@_STL@@@_STL@@QAE@PAU?$_List_node@W4ACTIONINFO@@@1@@Z
_TEXT	SEGMENT
___x$ = 8						; size = 4
??0?$_List_iterator@W4ACTIONINFO@@U?$_Const_traits@W4ACTIONINFO@@@_STL@@@_STL@@QAE@PAU?$_List_node@W4ACTIONINFO@@@1@@Z PROC NEAR ; _STL::_List_iterator<enum ACTIONINFO,_STL::_Const_traits<enum ACTIONINFO> >::_List_iterator<enum ACTIONINFO,_STL::_Const_traits<enum ACTIONINFO> >, COMDAT
; _this$ = ecx

; 126  :   _List_iterator(_Node* __x) : _List_iterator_base(__x) {}

  00000	8b c1		 mov	 eax, ecx
  00002	8b 4c 24 04	 mov	 ecx, DWORD PTR ___x$[esp-4]
  00006	89 08		 mov	 DWORD PTR [eax], ecx
  00008	c2 04 00	 ret	 4
??0?$_List_iterator@W4ACTIONINFO@@U?$_Const_traits@W4ACTIONINFO@@@_STL@@@_STL@@QAE@PAU?$_List_node@W4ACTIONINFO@@@1@@Z ENDP ; _STL::_List_iterator<enum ACTIONINFO,_STL::_Const_traits<enum ACTIONINFO> >::_List_iterator<enum ACTIONINFO,_STL::_Const_traits<enum ACTIONINFO> >
_TEXT	ENDS
PUBLIC	??1?$_STLP_alloc_proxy@PAU?$_List_node@W4ACTIONINFO@@@_STL@@U12@V?$allocator@U?$_List_node@W4ACTIONINFO@@@_STL@@@2@@_STL@@QAE@XZ ; _STL::_STLP_alloc_proxy<_STL::_List_node<enum ACTIONINFO> *,_STL::_List_node<enum ACTIONINFO>,_STL::allocator<_STL::_List_node<enum ACTIONINFO> > >::~_STLP_alloc_proxy<_STL::_List_node<enum ACTIONINFO> *,_STL::_List_node<enum ACTIONINFO>,_STL::allocator<_STL::_List_node<enum ACTIONINFO> > >
; Function compile flags: /Ogsy
;	COMDAT ??1?$_STLP_alloc_proxy@PAU?$_List_node@W4ACTIONINFO@@@_STL@@U12@V?$allocator@U?$_List_node@W4ACTIONINFO@@@_STL@@@2@@_STL@@QAE@XZ
_TEXT	SEGMENT
??1?$_STLP_alloc_proxy@PAU?$_List_node@W4ACTIONINFO@@@_STL@@U12@V?$allocator@U?$_List_node@W4ACTIONINFO@@@_STL@@@2@@_STL@@QAE@XZ PROC NEAR ; _STL::_STLP_alloc_proxy<_STL::_List_node<enum ACTIONINFO> *,_STL::_List_node<enum ACTIONINFO>,_STL::allocator<_STL::_List_node<enum ACTIONINFO> > >::~_STLP_alloc_proxy<_STL::_List_node<enum ACTIONINFO> *,_STL::_List_node<enum ACTIONINFO>,_STL::allocator<_STL::_List_node<enum ACTIONINFO> > >, COMDAT
; _this$ = ecx
  00000	c3		 ret	 0
??1?$_STLP_alloc_proxy@PAU?$_List_node@W4ACTIONINFO@@@_STL@@U12@V?$allocator@U?$_List_node@W4ACTIONINFO@@@_STL@@@2@@_STL@@QAE@XZ ENDP ; _STL::_STLP_alloc_proxy<_STL::_List_node<enum ACTIONINFO> *,_STL::_List_node<enum ACTIONINFO>,_STL::allocator<_STL::_List_node<enum ACTIONINFO> > >::~_STLP_alloc_proxy<_STL::_List_node<enum ACTIONINFO> *,_STL::_List_node<enum ACTIONINFO>,_STL::allocator<_STL::_List_node<enum ACTIONINFO> > >
_TEXT	ENDS
PUBLIC	??1?$_STLP_alloc_proxy@PAU?$_List_node@H@_STL@@U12@V?$allocator@U?$_List_node@H@_STL@@@2@@_STL@@QAE@XZ ; _STL::_STLP_alloc_proxy<_STL::_List_node<int> *,_STL::_List_node<int>,_STL::allocator<_STL::_List_node<int> > >::~_STLP_alloc_proxy<_STL::_List_node<int> *,_STL::_List_node<int>,_STL::allocator<_STL::_List_node<int> > >
; Function compile flags: /Ogsy
;	COMDAT ??1?$_STLP_alloc_proxy@PAU?$_List_node@H@_STL@@U12@V?$allocator@U?$_List_node@H@_STL@@@2@@_STL@@QAE@XZ
_TEXT	SEGMENT
??1?$_STLP_alloc_proxy@PAU?$_List_node@H@_STL@@U12@V?$allocator@U?$_List_node@H@_STL@@@2@@_STL@@QAE@XZ PROC NEAR ; _STL::_STLP_alloc_proxy<_STL::_List_node<int> *,_STL::_List_node<int>,_STL::allocator<_STL::_List_node<int> > >::~_STLP_alloc_proxy<_STL::_List_node<int> *,_STL::_List_node<int>,_STL::allocator<_STL::_List_node<int> > >, COMDAT
; _this$ = ecx
  00000	c3		 ret	 0
??1?$_STLP_alloc_proxy@PAU?$_List_node@H@_STL@@U12@V?$allocator@U?$_List_node@H@_STL@@@2@@_STL@@QAE@XZ ENDP ; _STL::_STLP_alloc_proxy<_STL::_List_node<int> *,_STL::_List_node<int>,_STL::allocator<_STL::_List_node<int> > >::~_STLP_alloc_proxy<_STL::_List_node<int> *,_STL::_List_node<int>,_STL::allocator<_STL::_List_node<int> > >
_TEXT	ENDS
PUBLIC	?deallocate@?$allocator@U?$_List_node@W4ACTIONINFO@@@_STL@@@_STL@@QAEXPAU?$_List_node@W4ACTIONINFO@@@2@I@Z ; _STL::allocator<_STL::_List_node<enum ACTIONINFO> >::deallocate
; Function compile flags: /Ogsy
; File c:\stlport-4.6.1\stlport\stl\_alloc.h
;	COMDAT ?deallocate@?$allocator@U?$_List_node@W4ACTIONINFO@@@_STL@@@_STL@@QAEXPAU?$_List_node@W4ACTIONINFO@@@2@I@Z
_TEXT	SEGMENT
___p$ = 8						; size = 4
___n$ = 12						; size = 4
?deallocate@?$allocator@U?$_List_node@W4ACTIONINFO@@@_STL@@@_STL@@QAEXPAU?$_List_node@W4ACTIONINFO@@@2@I@Z PROC NEAR ; _STL::allocator<_STL::_List_node<enum ACTIONINFO> >::deallocate, COMDAT
; _this$ = ecx

; 359  :     _STLP_ASSERT( (__p == 0) == (__n == 0) )
; 360  :       if (__p != 0) __sgi_alloc::deallocate((void*)__p, __n * sizeof(value_type));

  00000	83 7c 24 04 00	 cmp	 DWORD PTR ___p$[esp-4], 0
  00005	74 16		 je	 SHORT $L106375
  00007	8b 44 24 08	 mov	 eax, DWORD PTR ___n$[esp-4]
  0000b	8d 04 40	 lea	 eax, DWORD PTR [eax+eax*2]
  0000e	c1 e0 02	 shl	 eax, 2
  00011	50		 push	 eax
  00012	ff 74 24 08	 push	 DWORD PTR ___p$[esp]
  00016	e8 00 00 00 00	 call	 ?deallocate@?$__node_alloc@$00$0A@@_STL@@SAXPAXI@Z ; _STL::__node_alloc<1,0>::deallocate
  0001b	59		 pop	 ecx
  0001c	59		 pop	 ecx
$L106375:

; 361  :   }

  0001d	c2 08 00	 ret	 8
?deallocate@?$allocator@U?$_List_node@W4ACTIONINFO@@@_STL@@@_STL@@QAEXPAU?$_List_node@W4ACTIONINFO@@@2@I@Z ENDP ; _STL::allocator<_STL::_List_node<enum ACTIONINFO> >::deallocate
_TEXT	ENDS
PUBLIC	?deallocate@?$allocator@U?$_List_node@H@_STL@@@_STL@@QAEXPAU?$_List_node@H@2@I@Z ; _STL::allocator<_STL::_List_node<int> >::deallocate
; Function compile flags: /Ogsy
;	COMDAT ?deallocate@?$allocator@U?$_List_node@H@_STL@@@_STL@@QAEXPAU?$_List_node@H@2@I@Z
_TEXT	SEGMENT
___p$ = 8						; size = 4
___n$ = 12						; size = 4
?deallocate@?$allocator@U?$_List_node@H@_STL@@@_STL@@QAEXPAU?$_List_node@H@2@I@Z PROC NEAR ; _STL::allocator<_STL::_List_node<int> >::deallocate, COMDAT
; _this$ = ecx

; 359  :     _STLP_ASSERT( (__p == 0) == (__n == 0) )
; 360  :       if (__p != 0) __sgi_alloc::deallocate((void*)__p, __n * sizeof(value_type));

  00000	83 7c 24 04 00	 cmp	 DWORD PTR ___p$[esp-4], 0
  00005	74 16		 je	 SHORT $L106391
  00007	8b 44 24 08	 mov	 eax, DWORD PTR ___n$[esp-4]
  0000b	8d 04 40	 lea	 eax, DWORD PTR [eax+eax*2]
  0000e	c1 e0 02	 shl	 eax, 2
  00011	50		 push	 eax
  00012	ff 74 24 08	 push	 DWORD PTR ___p$[esp]
  00016	e8 00 00 00 00	 call	 ?deallocate@?$__node_alloc@$00$0A@@_STL@@SAXPAXI@Z ; _STL::__node_alloc<1,0>::deallocate
  0001b	59		 pop	 ecx
  0001c	59		 pop	 ecx
$L106391:

; 361  :   }

  0001d	c2 08 00	 ret	 8
?deallocate@?$allocator@U?$_List_node@H@_STL@@@_STL@@QAEXPAU?$_List_node@H@2@I@Z ENDP ; _STL::allocator<_STL::_List_node<int> >::deallocate
_TEXT	ENDS
PUBLIC	?clear@?$_List_base@W4ACTIONINFO@@V?$allocator@W4ACTIONINFO@@@_STL@@@_STL@@QAEXXZ ; _STL::_List_base<enum ACTIONINFO,_STL::allocator<enum ACTIONINFO> >::clear
; Function compile flags: /Ogsy
; File c:\stlport-4.6.1\stlport\stl\_list.c
;	COMDAT ?clear@?$_List_base@W4ACTIONINFO@@V?$allocator@W4ACTIONINFO@@@_STL@@@_STL@@QAEXXZ
_TEXT	SEGMENT
?clear@?$_List_base@W4ACTIONINFO@@V?$allocator@W4ACTIONINFO@@@_STL@@@_STL@@QAEXXZ PROC NEAR ; _STL::_List_base<enum ACTIONINFO,_STL::allocator<enum ACTIONINFO> >::clear, COMDAT
; _this$ = ecx

; 68   : {

  00000	56		 push	 esi
  00001	57		 push	 edi
  00002	8b f9		 mov	 edi, ecx

; 69   :   _List_node<_Tp>* __cur = (_List_node<_Tp>*) this->_M_node._M_data->_M_next;

  00004	8b 07		 mov	 eax, DWORD PTR [edi]
  00006	8b 30		 mov	 esi, DWORD PTR [eax]

; 70   :   while (__cur != this->_M_node._M_data) {

  00008	3b f0		 cmp	 esi, eax
  0000a	74 12		 je	 SHORT $L106627
$L106626:

; 71   :     _List_node<_Tp>* __tmp = __cur;

  0000c	8b c6		 mov	 eax, esi

; 72   :     __cur = (_List_node<_Tp>*) __cur->_M_next;

  0000e	8b 36		 mov	 esi, DWORD PTR [esi]

; 73   :     _STLP_STD::_Destroy(&__tmp->_M_data);
; 74   :     this->_M_node.deallocate(__tmp, 1);

  00010	6a 01		 push	 1
  00012	50		 push	 eax
  00013	8b cf		 mov	 ecx, edi
  00015	e8 00 00 00 00	 call	 ?deallocate@?$allocator@U?$_List_node@W4ACTIONINFO@@@_STL@@@_STL@@QAEXPAU?$_List_node@W4ACTIONINFO@@@2@I@Z ; _STL::allocator<_STL::_List_node<enum ACTIONINFO> >::deallocate
  0001a	3b 37		 cmp	 esi, DWORD PTR [edi]
  0001c	75 ee		 jne	 SHORT $L106626
$L106627:

; 75   :   }
; 76   :   this->_M_node._M_data->_M_next = this->_M_node._M_data;

  0001e	8b 07		 mov	 eax, DWORD PTR [edi]
  00020	89 00		 mov	 DWORD PTR [eax], eax

; 77   :   this->_M_node._M_data->_M_prev = this->_M_node._M_data;

  00022	8b 3f		 mov	 edi, DWORD PTR [edi]
  00024	89 7f 04	 mov	 DWORD PTR [edi+4], edi
  00027	5f		 pop	 edi
  00028	5e		 pop	 esi

; 78   : }

  00029	c3		 ret	 0
?clear@?$_List_base@W4ACTIONINFO@@V?$allocator@W4ACTIONINFO@@@_STL@@@_STL@@QAEXXZ ENDP ; _STL::_List_base<enum ACTIONINFO,_STL::allocator<enum ACTIONINFO> >::clear
_TEXT	ENDS
PUBLIC	?clear@?$_List_base@HV?$allocator@H@_STL@@@_STL@@QAEXXZ ; _STL::_List_base<int,_STL::allocator<int> >::clear
; Function compile flags: /Ogsy
;	COMDAT ?clear@?$_List_base@HV?$allocator@H@_STL@@@_STL@@QAEXXZ
_TEXT	SEGMENT
?clear@?$_List_base@HV?$allocator@H@_STL@@@_STL@@QAEXXZ PROC NEAR ; _STL::_List_base<int,_STL::allocator<int> >::clear, COMDAT
; _this$ = ecx

; 68   : {

  00000	56		 push	 esi
  00001	57		 push	 edi
  00002	8b f9		 mov	 edi, ecx

; 69   :   _List_node<_Tp>* __cur = (_List_node<_Tp>*) this->_M_node._M_data->_M_next;

  00004	8b 07		 mov	 eax, DWORD PTR [edi]
  00006	8b 30		 mov	 esi, DWORD PTR [eax]

; 70   :   while (__cur != this->_M_node._M_data) {

  00008	3b f0		 cmp	 esi, eax
  0000a	74 12		 je	 SHORT $L106643
$L106642:

; 71   :     _List_node<_Tp>* __tmp = __cur;

  0000c	8b c6		 mov	 eax, esi

; 72   :     __cur = (_List_node<_Tp>*) __cur->_M_next;

  0000e	8b 36		 mov	 esi, DWORD PTR [esi]

; 73   :     _STLP_STD::_Destroy(&__tmp->_M_data);
; 74   :     this->_M_node.deallocate(__tmp, 1);

  00010	6a 01		 push	 1
  00012	50		 push	 eax
  00013	8b cf		 mov	 ecx, edi
  00015	e8 00 00 00 00	 call	 ?deallocate@?$allocator@U?$_List_node@H@_STL@@@_STL@@QAEXPAU?$_List_node@H@2@I@Z ; _STL::allocator<_STL::_List_node<int> >::deallocate
  0001a	3b 37		 cmp	 esi, DWORD PTR [edi]
  0001c	75 ee		 jne	 SHORT $L106642
$L106643:

; 75   :   }
; 76   :   this->_M_node._M_data->_M_next = this->_M_node._M_data;

  0001e	8b 07		 mov	 eax, DWORD PTR [edi]
  00020	89 00		 mov	 DWORD PTR [eax], eax

; 77   :   this->_M_node._M_data->_M_prev = this->_M_node._M_data;

  00022	8b 3f		 mov	 edi, DWORD PTR [edi]
  00024	89 7f 04	 mov	 DWORD PTR [edi+4], edi
  00027	5f		 pop	 edi
  00028	5e		 pop	 esi

; 78   : }

  00029	c3		 ret	 0
?clear@?$_List_base@HV?$allocator@H@_STL@@@_STL@@QAEXXZ ENDP ; _STL::_List_base<int,_STL::allocator<int> >::clear
_TEXT	ENDS
PUBLIC	?begin@?$list@W4ACTIONINFO@@V?$allocator@W4ACTIONINFO@@@_STL@@@_STL@@QBE?AU?$_List_iterator@W4ACTIONINFO@@U?$_Const_traits@W4ACTIONINFO@@@_STL@@@2@XZ ; _STL::list<enum ACTIONINFO,_STL::allocator<enum ACTIONINFO> >::begin
; Function compile flags: /Ogsy
; File c:\stlport-4.6.1\stlport\stl\_list.h
;	COMDAT ?begin@?$list@W4ACTIONINFO@@V?$allocator@W4ACTIONINFO@@@_STL@@@_STL@@QBE?AU?$_List_iterator@W4ACTIONINFO@@U?$_Const_traits@W4ACTIONINFO@@@_STL@@@2@XZ
_TEXT	SEGMENT
___$ReturnUdt$ = 8					; size = 4
?begin@?$list@W4ACTIONINFO@@V?$allocator@W4ACTIONINFO@@@_STL@@@_STL@@QBE?AU?$_List_iterator@W4ACTIONINFO@@U?$_Const_traits@W4ACTIONINFO@@@_STL@@@2@XZ PROC NEAR ; _STL::list<enum ACTIONINFO,_STL::allocator<enum ACTIONINFO> >::begin, COMDAT
; _this$ = ecx

; 267  :   const_iterator begin() const { return const_iterator((_Node*)(this->_M_node._M_data->_M_next)); }

  00000	8b 01		 mov	 eax, DWORD PTR [ecx]
  00002	8b 08		 mov	 ecx, DWORD PTR [eax]
  00004	8b 44 24 04	 mov	 eax, DWORD PTR ___$ReturnUdt$[esp-4]
  00008	89 08		 mov	 DWORD PTR [eax], ecx
  0000a	c2 04 00	 ret	 4
?begin@?$list@W4ACTIONINFO@@V?$allocator@W4ACTIONINFO@@@_STL@@@_STL@@QBE?AU?$_List_iterator@W4ACTIONINFO@@U?$_Const_traits@W4ACTIONINFO@@@_STL@@@2@XZ ENDP ; _STL::list<enum ACTIONINFO,_STL::allocator<enum ACTIONINFO> >::begin
_TEXT	ENDS
PUBLIC	?end@?$list@W4ACTIONINFO@@V?$allocator@W4ACTIONINFO@@@_STL@@@_STL@@QBE?AU?$_List_iterator@W4ACTIONINFO@@U?$_Const_traits@W4ACTIONINFO@@@_STL@@@2@XZ ; _STL::list<enum ACTIONINFO,_STL::allocator<enum ACTIONINFO> >::end
; Function compile flags: /Ogsy
;	COMDAT ?end@?$list@W4ACTIONINFO@@V?$allocator@W4ACTIONINFO@@@_STL@@@_STL@@QBE?AU?$_List_iterator@W4ACTIONINFO@@U?$_Const_traits@W4ACTIONINFO@@@_STL@@@2@XZ
_TEXT	SEGMENT
___$ReturnUdt$ = 8					; size = 4
?end@?$list@W4ACTIONINFO@@V?$allocator@W4ACTIONINFO@@@_STL@@@_STL@@QBE?AU?$_List_iterator@W4ACTIONINFO@@U?$_Const_traits@W4ACTIONINFO@@@_STL@@@2@XZ PROC NEAR ; _STL::list<enum ACTIONINFO,_STL::allocator<enum ACTIONINFO> >::end, COMDAT
; _this$ = ecx

; 270  :   const_iterator end() const { return this->_M_node._M_data; }

  00000	8b 09		 mov	 ecx, DWORD PTR [ecx]
  00002	8b 44 24 04	 mov	 eax, DWORD PTR ___$ReturnUdt$[esp-4]
  00006	89 08		 mov	 DWORD PTR [eax], ecx
  00008	c2 04 00	 ret	 4
?end@?$list@W4ACTIONINFO@@V?$allocator@W4ACTIONINFO@@@_STL@@@_STL@@QBE?AU?$_List_iterator@W4ACTIONINFO@@U?$_Const_traits@W4ACTIONINFO@@@_STL@@@2@XZ ENDP ; _STL::list<enum ACTIONINFO,_STL::allocator<enum ACTIONINFO> >::end
_TEXT	ENDS
PUBLIC	??1?$_List_base@W4ACTIONINFO@@V?$allocator@W4ACTIONINFO@@@_STL@@@_STL@@QAE@XZ ; _STL::_List_base<enum ACTIONINFO,_STL::allocator<enum ACTIONINFO> >::~_List_base<enum ACTIONINFO,_STL::allocator<enum ACTIONINFO> >
; Function compile flags: /Ogsy
;	COMDAT ??1?$_List_base@W4ACTIONINFO@@V?$allocator@W4ACTIONINFO@@@_STL@@@_STL@@QAE@XZ
_TEXT	SEGMENT
??1?$_List_base@W4ACTIONINFO@@V?$allocator@W4ACTIONINFO@@@_STL@@@_STL@@QAE@XZ PROC NEAR ; _STL::_List_base<enum ACTIONINFO,_STL::allocator<enum ACTIONINFO> >::~_List_base<enum ACTIONINFO,_STL::allocator<enum ACTIONINFO> >, COMDAT
; _this$ = ecx

; 188  :   ~_List_base() {

  00000	56		 push	 esi
  00001	8b f1		 mov	 esi, ecx

; 189  :     clear();

  00003	e8 00 00 00 00	 call	 ?clear@?$_List_base@W4ACTIONINFO@@V?$allocator@W4ACTIONINFO@@@_STL@@@_STL@@QAEXXZ ; _STL::_List_base<enum ACTIONINFO,_STL::allocator<enum ACTIONINFO> >::clear

; 190  :     _M_node.deallocate(_M_node._M_data, 1);

  00008	6a 01		 push	 1
  0000a	ff 36		 push	 DWORD PTR [esi]
  0000c	8b ce		 mov	 ecx, esi
  0000e	e8 00 00 00 00	 call	 ?deallocate@?$allocator@U?$_List_node@W4ACTIONINFO@@@_STL@@@_STL@@QAEXPAU?$_List_node@W4ACTIONINFO@@@2@I@Z ; _STL::allocator<_STL::_List_node<enum ACTIONINFO> >::deallocate
  00013	5e		 pop	 esi

; 191  :   }

  00014	c3		 ret	 0
??1?$_List_base@W4ACTIONINFO@@V?$allocator@W4ACTIONINFO@@@_STL@@@_STL@@QAE@XZ ENDP ; _STL::_List_base<enum ACTIONINFO,_STL::allocator<enum ACTIONINFO> >::~_List_base<enum ACTIONINFO,_STL::allocator<enum ACTIONINFO> >
_TEXT	ENDS
PUBLIC	??1?$_List_base@HV?$allocator@H@_STL@@@_STL@@QAE@XZ ; _STL::_List_base<int,_STL::allocator<int> >::~_List_base<int,_STL::allocator<int> >
; Function compile flags: /Ogsy
;	COMDAT ??1?$_List_base@HV?$allocator@H@_STL@@@_STL@@QAE@XZ
_TEXT	SEGMENT
??1?$_List_base@HV?$allocator@H@_STL@@@_STL@@QAE@XZ PROC NEAR ; _STL::_List_base<int,_STL::allocator<int> >::~_List_base<int,_STL::allocator<int> >, COMDAT
; _this$ = ecx

; 188  :   ~_List_base() {

  00000	56		 push	 esi
  00001	8b f1		 mov	 esi, ecx

; 189  :     clear();

  00003	e8 00 00 00 00	 call	 ?clear@?$_List_base@HV?$allocator@H@_STL@@@_STL@@QAEXXZ ; _STL::_List_base<int,_STL::allocator<int> >::clear

; 190  :     _M_node.deallocate(_M_node._M_data, 1);

  00008	6a 01		 push	 1
  0000a	ff 36		 push	 DWORD PTR [esi]
  0000c	8b ce		 mov	 ecx, esi
  0000e	e8 00 00 00 00	 call	 ?deallocate@?$allocator@U?$_List_node@H@_STL@@@_STL@@QAEXPAU?$_List_node@H@2@I@Z ; _STL::allocator<_STL::_List_node<int> >::deallocate
  00013	5e		 pop	 esi

; 191  :   }

  00014	c3		 ret	 0
??1?$_List_base@HV?$allocator@H@_STL@@@_STL@@QAE@XZ ENDP ; _STL::_List_base<int,_STL::allocator<int> >::~_List_base<int,_STL::allocator<int> >
_TEXT	ENDS
PUBLIC	?SetAvailableTime@MSkillInfoTable@@QAEXGH@Z	; MSkillInfoTable::SetAvailableTime
; Function compile flags: /Ogsy
; File c:\darkeden\designed_common\project\client\mskillinfotable.cpp
;	COMDAT ?SetAvailableTime@MSkillInfoTable@@QAEXGH@Z
_TEXT	SEGMENT
_id$ = 8						; size = 2
_delay$ = 12						; size = 4
?SetAvailableTime@MSkillInfoTable@@QAEXGH@Z PROC NEAR	; MSkillInfoTable::SetAvailableTime, COMDAT
; _this$ = ecx

; 3075 : {

  00000	53		 push	 ebx
  00001	56		 push	 esi

; 3076 : #ifdef __GAME_CLIENT__
; 3077 : 	SKILLINFO_NODE& skillNode = Get(id);

  00002	0f b7 74 24 0c	 movzx	 esi, WORD PTR _id$[esp+4]
  00007	69 f6 e8 00 00
	00		 imul	 esi, 232		; 000000e8H
  0000d	8b d9		 mov	 ebx, ecx
  0000f	03 73 04	 add	 esi, DWORD PTR [ebx+4]
  00012	57		 push	 edi

; 3078 : 
; 3079 : 	skillNode.SetAvailableTime(delay);

  00013	ff 74 24 14	 push	 DWORD PTR _delay$[esp+8]
  00017	8b ce		 mov	 ecx, esi
  00019	e8 00 00 00 00	 call	 ?SetAvailableTime@SKILLINFO_NODE@@IAEXH@Z ; SKILLINFO_NODE::SetAvailableTime

; 3080 : 
; 3081 : 	const SKILLINFO_NODE::SKILLID_LIST& delayGroupList = skillNode.GetDelayGroupList();
; 3082 : 	
; 3083 : 	SKILLINFO_NODE::SKILLID_LIST::const_iterator pos = delayGroupList.begin();

  0001e	8b 46 68	 mov	 eax, DWORD PTR [esi+104]
  00021	8b 38		 mov	 edi, DWORD PTR [eax]

; 3084 : 	for(; pos != delayGroupList.end(); ++pos)

  00023	3b f8		 cmp	 edi, eax
  00025	74 1c		 je	 SHORT $L106091
$L107518:

; 3085 : 	{
; 3086 : 		SKILLINFO_NODE& delaySkillNode = Get(*pos);

  00027	8b 4f 08	 mov	 ecx, DWORD PTR [edi+8]

; 3087 : 		delaySkillNode.SetAvailableTime(delay);

  0002a	ff 74 24 14	 push	 DWORD PTR _delay$[esp+8]
  0002e	69 c9 e8 00 00
	00		 imul	 ecx, 232		; 000000e8H
  00034	03 4b 04	 add	 ecx, DWORD PTR [ebx+4]
  00037	e8 00 00 00 00	 call	 ?SetAvailableTime@SKILLINFO_NODE@@IAEXH@Z ; SKILLINFO_NODE::SetAvailableTime
  0003c	8b 3f		 mov	 edi, DWORD PTR [edi]
  0003e	3b 7e 68	 cmp	 edi, DWORD PTR [esi+104]
  00041	75 e4		 jne	 SHORT $L107518
$L106091:
  00043	5f		 pop	 edi
  00044	5e		 pop	 esi
  00045	5b		 pop	 ebx

; 3088 : 	}
; 3089 : 	
; 3090 : #endif
; 3091 : }

  00046	c2 08 00	 ret	 8
?SetAvailableTime@MSkillInfoTable@@QAEXGH@Z ENDP	; MSkillInfoTable::SetAvailableTime
_TEXT	ENDS
PUBLIC	?SetNextAvailableTime@MSkillInfoTable@@QAEXG@Z	; MSkillInfoTable::SetNextAvailableTime
EXTRN	?SetNextAvailableTime@SKILLINFO_NODE@@IAEXXZ:NEAR ; SKILLINFO_NODE::SetNextAvailableTime
; Function compile flags: /Ogsy
;	COMDAT ?SetNextAvailableTime@MSkillInfoTable@@QAEXG@Z
_TEXT	SEGMENT
_id$ = 8						; size = 2
?SetNextAvailableTime@MSkillInfoTable@@QAEXG@Z PROC NEAR ; MSkillInfoTable::SetNextAvailableTime, COMDAT
; _this$ = ecx

; 3100 : {

  00000	53		 push	 ebx
  00001	56		 push	 esi

; 3101 : #ifdef __GAME_CLIENT__
; 3102 : 	// 현재시간에서 delayTime후에는 사용 가능하다.
; 3103 : 
; 3104 : 	SKILLINFO_NODE& skillNode = Get(id);

  00002	0f b7 74 24 0c	 movzx	 esi, WORD PTR _id$[esp+4]
  00007	69 f6 e8 00 00
	00		 imul	 esi, 232		; 000000e8H
  0000d	8b d9		 mov	 ebx, ecx
  0000f	03 73 04	 add	 esi, DWORD PTR [ebx+4]
  00012	57		 push	 edi

; 3105 : 
; 3106 : 	skillNode.SetNextAvailableTime();

  00013	8b ce		 mov	 ecx, esi
  00015	e8 00 00 00 00	 call	 ?SetNextAvailableTime@SKILLINFO_NODE@@IAEXXZ ; SKILLINFO_NODE::SetNextAvailableTime

; 3107 : 
; 3108 : 	const SKILLINFO_NODE::SKILLID_LIST& delayGroupList = skillNode.GetDelayGroupList();
; 3109 : 	
; 3110 : 	SKILLINFO_NODE::SKILLID_LIST::const_iterator pos = delayGroupList.begin();

  0001a	8b 46 68	 mov	 eax, DWORD PTR [esi+104]
  0001d	8b 38		 mov	 edi, DWORD PTR [eax]

; 3111 : 	for(; pos != delayGroupList.end(); ++pos)

  0001f	3b f8		 cmp	 edi, eax
  00021	74 18		 je	 SHORT $L106104
$L107581:

; 3112 : 	{
; 3113 : 		SKILLINFO_NODE& delaySkillNode = Get(*pos);

  00023	8b 4f 08	 mov	 ecx, DWORD PTR [edi+8]
  00026	69 c9 e8 00 00
	00		 imul	 ecx, 232		; 000000e8H
  0002c	03 4b 04	 add	 ecx, DWORD PTR [ebx+4]

; 3114 : 		delaySkillNode.SetNextAvailableTime();

  0002f	e8 00 00 00 00	 call	 ?SetNextAvailableTime@SKILLINFO_NODE@@IAEXXZ ; SKILLINFO_NODE::SetNextAvailableTime
  00034	8b 3f		 mov	 edi, DWORD PTR [edi]
  00036	3b 7e 68	 cmp	 edi, DWORD PTR [esi+104]
  00039	75 e8		 jne	 SHORT $L107581
$L106104:
  0003b	5f		 pop	 edi
  0003c	5e		 pop	 esi
  0003d	5b		 pop	 ebx

; 3115 : 	}
; 3116 : 	
; 3117 : #endif
; 3118 : }

  0003e	c2 04 00	 ret	 4
?SetNextAvailableTime@MSkillInfoTable@@QAEXG@Z ENDP	; MSkillInfoTable::SetNextAvailableTime
_TEXT	ENDS
PUBLIC	??1?$list@W4ACTIONINFO@@V?$allocator@W4ACTIONINFO@@@_STL@@@_STL@@QAE@XZ ; _STL::list<enum ACTIONINFO,_STL::allocator<enum ACTIONINFO> >::~list<enum ACTIONINFO,_STL::allocator<enum ACTIONINFO> >
; Function compile flags: /Ogsy
; File c:\stlport-4.6.1\stlport\stl\_list.h
;	COMDAT ??1?$list@W4ACTIONINFO@@V?$allocator@W4ACTIONINFO@@@_STL@@@_STL@@QAE@XZ
_TEXT	SEGMENT
??1?$list@W4ACTIONINFO@@V?$allocator@W4ACTIONINFO@@@_STL@@@_STL@@QAE@XZ PROC NEAR ; _STL::list<enum ACTIONINFO,_STL::allocator<enum ACTIONINFO> >::~list<enum ACTIONINFO,_STL::allocator<enum ACTIONINFO> >, COMDAT
; _this$ = ecx

; 416  :   ~list() { }

  00000	e9 00 00 00 00	 jmp	 ??1?$_List_base@W4ACTIONINFO@@V?$allocator@W4ACTIONINFO@@@_STL@@@_STL@@QAE@XZ ; _STL::_List_base<enum ACTIONINFO,_STL::allocator<enum ACTIONINFO> >::~_List_base<enum ACTIONINFO,_STL::allocator<enum ACTIONINFO> >
??1?$list@W4ACTIONINFO@@V?$allocator@W4ACTIONINFO@@@_STL@@@_STL@@QAE@XZ ENDP ; _STL::list<enum ACTIONINFO,_STL::allocator<enum ACTIONINFO> >::~list<enum ACTIONINFO,_STL::allocator<enum ACTIONINFO> >
_TEXT	ENDS
PUBLIC	??1?$list@HV?$allocator@H@_STL@@@_STL@@QAE@XZ	; _STL::list<int,_STL::allocator<int> >::~list<int,_STL::allocator<int> >
; Function compile flags: /Ogsy
;	COMDAT ??1?$list@HV?$allocator@H@_STL@@@_STL@@QAE@XZ
_TEXT	SEGMENT
??1?$list@HV?$allocator@H@_STL@@@_STL@@QAE@XZ PROC NEAR	; _STL::list<int,_STL::allocator<int> >::~list<int,_STL::allocator<int> >, COMDAT
; _this$ = ecx

; 416  :   ~list() { }

  00000	e9 00 00 00 00	 jmp	 ??1?$_List_base@HV?$allocator@H@_STL@@@_STL@@QAE@XZ ; _STL::_List_base<int,_STL::allocator<int> >::~_List_base<int,_STL::allocator<int> >
??1?$list@HV?$allocator@H@_STL@@@_STL@@QAE@XZ ENDP	; _STL::list<int,_STL::allocator<int> >::~list<int,_STL::allocator<int> >
_TEXT	ENDS
PUBLIC	??1SKILLINFO_NODE@@QAE@XZ			; SKILLINFO_NODE::~SKILLINFO_NODE
EXTRN	__EH_prolog:NEAR
EXTRN	__except_list:DWORD
EXTRN	___CxxFrameHandler:NEAR
EXTRN	??1MString@@UAE@XZ:NEAR				; MString::~MString
;	COMDAT xdata$x
xdata$x	SEGMENT
$T107647 DD	0ffffffffH
	DD	FLAT:$L107619
	DD	00H
	DD	FLAT:$L107620
	DD	01H
	DD	FLAT:$L107621
	DD	02H
	DD	FLAT:$L107622
	DD	03H
	DD	FLAT:$L107623
$T107643 DD	019930520H
	DD	05H
	DD	FLAT:$T107647
	DD	2 DUP(00H)
	DD	2 DUP(00H)
; Function compile flags: /Ogsy
; File c:\darkeden\designed_common\project\client\mskillmanager.h
xdata$x	ENDS
;	COMDAT ??1SKILLINFO_NODE@@QAE@XZ
_TEXT	SEGMENT
_this$ = -16						; size = 4
__$EHRec$ = -12						; size = 12
??1SKILLINFO_NODE@@QAE@XZ PROC NEAR			; SKILLINFO_NODE::~SKILLINFO_NODE, COMDAT
; _this$ = ecx

; 158  : 		~SKILLINFO_NODE() {}

  00000	b8 00 00 00 00	 mov	 eax, __ehhandler$??1SKILLINFO_NODE@@QAE@XZ
  00005	e8 00 00 00 00	 call	 __EH_prolog
  0000a	51		 push	 ecx
  0000b	56		 push	 esi
  0000c	8b f1		 mov	 esi, ecx
  0000e	89 75 f0	 mov	 DWORD PTR _this$[ebp], esi
  00011	8d 8e b4 00 00
	00		 lea	 ecx, DWORD PTR [esi+180]
  00017	c7 45 fc 04 00
	00 00		 mov	 DWORD PTR __$EHRec$[ebp+8], 4
  0001e	e8 00 00 00 00	 call	 ??1?$_List_base@HV?$allocator@H@_STL@@@_STL@@QAE@XZ ; _STL::_List_base<int,_STL::allocator<int> >::~_List_base<int,_STL::allocator<int> >
  00023	8d 4e 6c	 lea	 ecx, DWORD PTR [esi+108]
  00026	c6 45 fc 03	 mov	 BYTE PTR __$EHRec$[ebp+8], 3
  0002a	e8 00 00 00 00	 call	 ??1MString@@UAE@XZ	; MString::~MString
  0002f	8d 4e 68	 lea	 ecx, DWORD PTR [esi+104]
  00032	c6 45 fc 02	 mov	 BYTE PTR __$EHRec$[ebp+8], 2
  00036	e8 00 00 00 00	 call	 ??1?$_List_base@W4ACTIONINFO@@V?$allocator@W4ACTIONINFO@@@_STL@@@_STL@@QAE@XZ ; _STL::_List_base<enum ACTIONINFO,_STL::allocator<enum ACTIONINFO> >::~_List_base<enum ACTIONINFO,_STL::allocator<enum ACTIONINFO> >
  0003b	8d 4e 3c	 lea	 ecx, DWORD PTR [esi+60]
  0003e	c6 45 fc 01	 mov	 BYTE PTR __$EHRec$[ebp+8], 1
  00042	e8 00 00 00 00	 call	 ??1?$_List_base@W4ACTIONINFO@@V?$allocator@W4ACTIONINFO@@@_STL@@@_STL@@QAE@XZ ; _STL::_List_base<enum ACTIONINFO,_STL::allocator<enum ACTIONINFO> >::~_List_base<enum ACTIONINFO,_STL::allocator<enum ACTIONINFO> >
  00047	8d 4e 14	 lea	 ecx, DWORD PTR [esi+20]
  0004a	c6 45 fc 00	 mov	 BYTE PTR __$EHRec$[ebp+8], 0
  0004e	e8 00 00 00 00	 call	 ??1MString@@UAE@XZ	; MString::~MString
  00053	83 4d fc ff	 or	 DWORD PTR __$EHRec$[ebp+8], -1
  00057	8d 4e 08	 lea	 ecx, DWORD PTR [esi+8]
  0005a	e8 00 00 00 00	 call	 ??1MString@@UAE@XZ	; MString::~MString
  0005f	8b 4d f4	 mov	 ecx, DWORD PTR __$EHRec$[ebp]
  00062	5e		 pop	 esi
  00063	64 89 0d 00 00
	00 00		 mov	 DWORD PTR fs:__except_list, ecx
  0006a	c9		 leave
  0006b	c3		 ret	 0
_TEXT	ENDS
;	COMDAT text$x
text$x	SEGMENT
$L107619:
  00000	8b 4d f0	 mov	 ecx, DWORD PTR _this$[ebp]
  00003	83 c1 08	 add	 ecx, 8
  00006	e9 00 00 00 00	 jmp	 ??1MString@@UAE@XZ	; MString::~MString
$L107620:
  0000b	8b 4d f0	 mov	 ecx, DWORD PTR _this$[ebp]
  0000e	83 c1 14	 add	 ecx, 20			; 00000014H
  00011	e9 00 00 00 00	 jmp	 ??1MString@@UAE@XZ	; MString::~MString
$L107621:
  00016	8b 4d f0	 mov	 ecx, DWORD PTR _this$[ebp]
  00019	83 c1 3c	 add	 ecx, 60			; 0000003cH
  0001c	e9 00 00 00 00	 jmp	 ??1?$list@W4ACTIONINFO@@V?$allocator@W4ACTIONINFO@@@_STL@@@_STL@@QAE@XZ ; _STL::list<enum ACTIONINFO,_STL::allocator<enum ACTIONINFO> >::~list<enum ACTIONINFO,_STL::allocator<enum ACTIONINFO> >
$L107622:
  00021	8b 4d f0	 mov	 ecx, DWORD PTR _this$[ebp]
  00024	83 c1 68	 add	 ecx, 104		; 00000068H
  00027	e9 00 00 00 00	 jmp	 ??1?$list@W4ACTIONINFO@@V?$allocator@W4ACTIONINFO@@@_STL@@@_STL@@QAE@XZ ; _STL::list<enum ACTIONINFO,_STL::allocator<enum ACTIONINFO> >::~list<enum ACTIONINFO,_STL::allocator<enum ACTIONINFO> >
$L107623:
  0002c	8b 4d f0	 mov	 ecx, DWORD PTR _this$[ebp]
  0002f	83 c1 6c	 add	 ecx, 108		; 0000006cH
  00032	e9 00 00 00 00	 jmp	 ??1MString@@UAE@XZ	; MString::~MString
__ehhandler$??1SKILLINFO_NODE@@QAE@XZ:
  00037	b8 00 00 00 00	 mov	 eax, OFFSET FLAT:$T107643
  0003c	e9 00 00 00 00	 jmp	 ___CxxFrameHandler
text$x	ENDS
??1SKILLINFO_NODE@@QAE@XZ ENDP				; SKILLINFO_NODE::~SKILLINFO_NODE
PUBLIC	??_ESKILLINFO_NODE@@QAEPAXI@Z			; SKILLINFO_NODE::`vector deleting destructor'
EXTRN	??_M@YGXPAXIHP6EX0@Z@Z:NEAR			; `eh vector destructor iterator'
EXTRN	??_V@YAXPAX@Z:NEAR				; operator delete[]
; Function compile flags: /Ogsy
;	COMDAT ??_ESKILLINFO_NODE@@QAEPAXI@Z
_TEXT	SEGMENT
___flags$ = 8						; size = 4
??_ESKILLINFO_NODE@@QAEPAXI@Z PROC NEAR			; SKILLINFO_NODE::`vector deleting destructor', COMDAT
; _this$ = ecx
  00000	53		 push	 ebx
  00001	8a 5c 24 08	 mov	 bl, BYTE PTR ___flags$[esp]
  00005	f6 c3 02	 test	 bl, 2
  00008	56		 push	 esi
  00009	8b f1		 mov	 esi, ecx
  0000b	74 27		 je	 SHORT $L106727
  0000d	57		 push	 edi
  0000e	68 00 00 00 00	 push	 OFFSET FLAT:??1SKILLINFO_NODE@@QAE@XZ ; SKILLINFO_NODE::~SKILLINFO_NODE
  00013	8d 7e fc	 lea	 edi, DWORD PTR [esi-4]
  00016	ff 37		 push	 DWORD PTR [edi]
  00018	68 e8 00 00 00	 push	 232			; 000000e8H
  0001d	56		 push	 esi
  0001e	e8 00 00 00 00	 call	 ??_M@YGXPAXIHP6EX0@Z@Z
  00023	f6 c3 01	 test	 bl, 1
  00026	74 07		 je	 SHORT $L106728
  00028	57		 push	 edi
  00029	e8 00 00 00 00	 call	 ??_V@YAXPAX@Z		; operator delete[]
  0002e	59		 pop	 ecx
$L106728:
  0002f	8b c7		 mov	 eax, edi
  00031	5f		 pop	 edi
  00032	eb 15		 jmp	 SHORT $L106726
$L106727:
  00034	8b ce		 mov	 ecx, esi
  00036	e8 00 00 00 00	 call	 ??1SKILLINFO_NODE@@QAE@XZ ; SKILLINFO_NODE::~SKILLINFO_NODE
  0003b	f6 c3 01	 test	 bl, 1
  0003e	74 07		 je	 SHORT $L106730
  00040	56		 push	 esi
  00041	e8 00 00 00 00	 call	 ??3@YAXPAX@Z		; operator delete
  00046	59		 pop	 ecx
$L106730:
  00047	8b c6		 mov	 eax, esi
$L106726:
  00049	5e		 pop	 esi
  0004a	5b		 pop	 ebx
  0004b	c2 04 00	 ret	 4
??_ESKILLINFO_NODE@@QAEPAXI@Z ENDP			; SKILLINFO_NODE::`vector deleting destructor'
_TEXT	ENDS
PUBLIC	?Release@?$CTypeTable@VSKILLINFO_NODE@@@@QAEXXZ	; CTypeTable<SKILLINFO_NODE>::Release
; Function compile flags: /Ogsy
; File c:\darkeden\designed_common\project\client\ctypetable.h
;	COMDAT ?Release@?$CTypeTable@VSKILLINFO_NODE@@@@QAEXXZ
_TEXT	SEGMENT
?Release@?$CTypeTable@VSKILLINFO_NODE@@@@QAEXXZ PROC NEAR ; CTypeTable<SKILLINFO_NODE>::Release, COMDAT
; _this$ = ecx

; 108  : {

  00000	56		 push	 esi
  00001	8b f1		 mov	 esi, ecx

; 109  : 	if (m_pTypeInfo != NULL)

  00003	8b 4e 04	 mov	 ecx, DWORD PTR [esi+4]
  00006	85 c9		 test	 ecx, ecx
  00008	74 0e		 je	 SHORT $L106818

; 110  : 	{
; 111  : 		// 모든 CSprite를 지운다.
; 112  : 		delete [] m_pTypeInfo;

  0000a	6a 03		 push	 3
  0000c	e8 00 00 00 00	 call	 ??_ESKILLINFO_NODE@@QAEPAXI@Z

; 113  : 		m_pTypeInfo = NULL;

  00011	83 66 04 00	 and	 DWORD PTR [esi+4], 0

; 114  : 		
; 115  : 		m_Size = 0;

  00015	83 26 00	 and	 DWORD PTR [esi], 0
$L106818:
  00018	5e		 pop	 esi

; 116  : 	}
; 117  : }

  00019	c3		 ret	 0
?Release@?$CTypeTable@VSKILLINFO_NODE@@@@QAEXXZ ENDP	; CTypeTable<SKILLINFO_NODE>::Release
_TEXT	ENDS
PUBLIC	??1?$CTypeTable@VSKILLINFO_NODE@@@@QAE@XZ	; CTypeTable<SKILLINFO_NODE>::~CTypeTable<SKILLINFO_NODE>
; Function compile flags: /Ogsy
;	COMDAT ??1?$CTypeTable@VSKILLINFO_NODE@@@@QAE@XZ
_TEXT	SEGMENT
??1?$CTypeTable@VSKILLINFO_NODE@@@@QAE@XZ PROC NEAR	; CTypeTable<SKILLINFO_NODE>::~CTypeTable<SKILLINFO_NODE>, COMDAT
; _this$ = ecx

; 72   : 	Release();

  00000	e9 00 00 00 00	 jmp	 ?Release@?$CTypeTable@VSKILLINFO_NODE@@@@QAEXXZ ; CTypeTable<SKILLINFO_NODE>::Release
??1?$CTypeTable@VSKILLINFO_NODE@@@@QAE@XZ ENDP		; CTypeTable<SKILLINFO_NODE>::~CTypeTable<SKILLINFO_NODE>
_TEXT	ENDS
PUBLIC	?Init@?$CTypeTable@VSKILLINFO_NODE@@@@QAEXH@Z	; CTypeTable<SKILLINFO_NODE>::Init
EXTRN	??_L@YGXPAXIHP6EX0@Z1@Z:NEAR			; `eh vector constructor iterator'
EXTRN	??_U@YAPAXI@Z:NEAR				; operator new[]
EXTRN	??0SKILLINFO_NODE@@QAE@XZ:NEAR			; SKILLINFO_NODE::SKILLINFO_NODE
;	COMDAT xdata$x
xdata$x	SEGMENT
$T107675 DD	0ffffffffH
	DD	FLAT:$L107671
$T107673 DD	019930520H
	DD	01H
	DD	FLAT:$T107675
	DD	2 DUP(00H)
	DD	2 DUP(00H)
; Function compile flags: /Ogsy
xdata$x	ENDS
;	COMDAT ?Init@?$CTypeTable@VSKILLINFO_NODE@@@@QAEXH@Z
_TEXT	SEGMENT
__$EHRec$ = -12						; size = 12
$T107668 = 8						; size = 4
_size$ = 8						; size = 4
?Init@?$CTypeTable@VSKILLINFO_NODE@@@@QAEXH@Z PROC NEAR	; CTypeTable<SKILLINFO_NODE>::Init, COMDAT
; _this$ = ecx

; 87   : {

  00000	b8 00 00 00 00	 mov	 eax, __ehhandler$?Init@?$CTypeTable@VSKILLINFO_NODE@@@@QAEXH@Z
  00005	e8 00 00 00 00	 call	 __EH_prolog
  0000a	53		 push	 ebx
  0000b	56		 push	 esi

; 88   : 	// 개수가 없을 경우 
; 89   : 	if (size==0) 

  0000c	8b 75 08	 mov	 esi, DWORD PTR _size$[ebp]
  0000f	57		 push	 edi
  00010	33 ff		 xor	 edi, edi
  00012	3b f7		 cmp	 esi, edi
  00014	8b d9		 mov	 ebx, ecx
  00016	74 41		 je	 SHORT $L106679

; 90   : 		return;
; 91   : 
; 92   : 	// 일단 해제
; 93   : 	Release();

  00018	e8 00 00 00 00	 call	 ?Release@?$CTypeTable@VSKILLINFO_NODE@@@@QAEXXZ ; CTypeTable<SKILLINFO_NODE>::Release

; 94   : 
; 95   : 	// 메모리 잡기
; 96   : 	m_Size = size;
; 97   : 	
; 98   : 	m_pTypeInfo = new Type [m_Size];	

  0001d	8b c6		 mov	 eax, esi
  0001f	69 c0 e8 00 00
	00		 imul	 eax, 232		; 000000e8H
  00025	83 c0 04	 add	 eax, 4
  00028	50		 push	 eax
  00029	89 33		 mov	 DWORD PTR [ebx], esi
  0002b	e8 00 00 00 00	 call	 ??_U@YAPAXI@Z		; operator new[]
  00030	59		 pop	 ecx
  00031	89 45 08	 mov	 DWORD PTR $T107668[ebp], eax
  00034	3b c7		 cmp	 eax, edi
  00036	89 7d fc	 mov	 DWORD PTR __$EHRec$[ebp+8], edi
  00039	74 1b		 je	 SHORT $L107670
  0003b	68 00 00 00 00	 push	 OFFSET FLAT:??1SKILLINFO_NODE@@QAE@XZ ; SKILLINFO_NODE::~SKILLINFO_NODE
  00040	68 00 00 00 00	 push	 OFFSET FLAT:??0SKILLINFO_NODE@@QAE@XZ ; SKILLINFO_NODE::SKILLINFO_NODE
  00045	56		 push	 esi
  00046	8d 78 04	 lea	 edi, DWORD PTR [eax+4]
  00049	68 e8 00 00 00	 push	 232			; 000000e8H
  0004e	57		 push	 edi
  0004f	89 30		 mov	 DWORD PTR [eax], esi
  00051	e8 00 00 00 00	 call	 ??_L@YGXPAXIHP6EX0@Z1@Z
$L107670:
  00056	89 7b 04	 mov	 DWORD PTR [ebx+4], edi
$L106679:

; 99   : }

  00059	8b 4d f4	 mov	 ecx, DWORD PTR __$EHRec$[ebp]
  0005c	5f		 pop	 edi
  0005d	5e		 pop	 esi
  0005e	5b		 pop	 ebx
  0005f	64 89 0d 00 00
	00 00		 mov	 DWORD PTR fs:__except_list, ecx
  00066	c9		 leave
  00067	c2 04 00	 ret	 4
_TEXT	ENDS
;	COMDAT text$x
text$x	SEGMENT
$L107671:
  00000	ff 75 08	 push	 DWORD PTR $T107668[ebp]
  00003	e8 00 00 00 00	 call	 ??_V@YAXPAX@Z		; operator delete[]
  00008	59		 pop	 ecx
  00009	c3		 ret	 0
__ehhandler$?Init@?$CTypeTable@VSKILLINFO_NODE@@@@QAEXH@Z:
  0000a	b8 00 00 00 00	 mov	 eax, OFFSET FLAT:$T107673
  0000f	e9 00 00 00 00	 jmp	 ___CxxFrameHandler
text$x	ENDS
?Init@?$CTypeTable@VSKILLINFO_NODE@@@@QAEXH@Z ENDP	; CTypeTable<SKILLINFO_NODE>::Init
PUBLIC	??0MSkillInfoTable@@QAE@XZ			; MSkillInfoTable::MSkillInfoTable
;	COMDAT xdata$x
xdata$x	SEGMENT
$T107687 DD	0ffffffffH
	DD	FLAT:$L107680
$T107685 DD	019930520H
	DD	01H
	DD	FLAT:$T107687
	DD	2 DUP(00H)
	DD	2 DUP(00H)
; Function compile flags: /Ogsy
; File c:\darkeden\designed_common\project\client\mskillinfotable.cpp
xdata$x	ENDS
;	COMDAT ??0MSkillInfoTable@@QAE@XZ
_TEXT	SEGMENT
_this$ = -16						; size = 4
__$EHRec$ = -12						; size = 12
??0MSkillInfoTable@@QAE@XZ PROC NEAR			; MSkillInfoTable::MSkillInfoTable, COMDAT
; _this$ = ecx

; 23   : {

  00000	b8 00 00 00 00	 mov	 eax, __ehhandler$??0MSkillInfoTable@@QAE@XZ
  00005	e8 00 00 00 00	 call	 __EH_prolog
  0000a	51		 push	 ecx
  0000b	56		 push	 esi
  0000c	8b f1		 mov	 esi, ecx
  0000e	33 c0		 xor	 eax, eax
  00010	89 75 f0	 mov	 DWORD PTR _this$[ebp], esi
  00013	89 46 04	 mov	 DWORD PTR [esi+4], eax
  00016	89 06		 mov	 DWORD PTR [esi], eax

; 24   : 	// 기술의 개수만큼..
; 25   : 	CTypeTable<SKILLINFO_NODE>::Init( MIN_RESULT_ACTIONINFO );

  00018	68 70 04 00 00	 push	 1136			; 00000470H
  0001d	89 45 fc	 mov	 DWORD PTR __$EHRec$[ebp+8], eax
  00020	e8 00 00 00 00	 call	 ?Init@?$CTypeTable@VSKILLINFO_NODE@@@@QAEXH@Z ; CTypeTable<SKILLINFO_NODE>::Init

; 26   : 
; 27   : #ifndef __GAME_CLIENT__
; 28   : 
; 29   : 	//----------------------------------------------------------------------
; 30   : 	// 일단 모든 skill에 대한 default정보 설정
; 31   : 	//----------------------------------------------------------------------
; 32   : 	for (int i=0; i<MIN_RESULT_ACTIONINFO; i++)
; 33   : 	{
; 34   : 		#ifdef __INIT_INFO__
; 35   : 			m_pTypeInfo[i].Set(0, (*g_pActionInfoTable)[i].GetName(), 0, 0, 0, "Not Defined");
; 36   : 		#else
; 37   : 			m_pTypeInfo[i].Set(0, "Not defined", 0, 0, 0,"Not Defined");
; 38   : 		#endif
; 39   : 		m_pTypeInfo[i].UnSetPassive();		
; 40   : 		m_pTypeInfo[i].UnSetActive();
; 41   : 		m_pTypeInfo[i].SetSkillStep( SKILL_STEP_NULL );
; 42   : 		m_pTypeInfo[i].SetLearnLevel( -1 );	// 초기화
; 43   : 		m_pTypeInfo[i].SetSlayerSkill();		
; 44   : 	}
; 45   : 
; 46   : 	int sid = 0;
; 47   : 
; 48   : 	//----------------------------------------------------------------------
; 49   : 	// 검계열
; 50   : 	//----------------------------------------------------------------------
; 51   : 	m_pTypeInfo[SKILL_DOUBLE_IMPACT].Set(sid++, "Double Impact", 400, 100, 0,"더블 임팩트");
; 52   : 	m_pTypeInfo[SKILL_DOUBLE_IMPACT].SetMP( 5 );	
; 53   : 	m_pTypeInfo[SKILL_DOUBLE_IMPACT].SetLearnLevel( 5 );
; 54   : 	m_pTypeInfo[SKILL_DOUBLE_IMPACT].SetSkillStep( SKILL_STEP_APPRENTICE );
; 55   : 	m_pTypeInfo[SKILL_DOUBLE_IMPACT].AddNextSkill( SKILL_TRIPLE_SLASHER );
; 56   : 	
; 57   : 	m_pTypeInfo[SKILL_TRIPLE_SLASHER].Set(sid++, "Triple Slasher", 200, 130, 1,"트리플 슬래셔");		
; 58   : 	m_pTypeInfo[SKILL_TRIPLE_SLASHER].SetMP( 8 );
; 59   : 	m_pTypeInfo[SKILL_TRIPLE_SLASHER].SetLearnLevel( 10 );
; 60   : 	m_pTypeInfo[SKILL_TRIPLE_SLASHER].SetSkillStep( SKILL_STEP_APPRENTICE );
; 61   : 	m_pTypeInfo[SKILL_TRIPLE_SLASHER].AddNextSkill( SKILL_SWORD_MASTERY );
; 62   : 
; 63   : 	m_pTypeInfo[SKILL_SWORD_MASTERY].Set(sid++, "Sword Mastery", 200, 130, 154,"소드 마스터리");
; 64   : 	m_pTypeInfo[SKILL_SWORD_MASTERY].SetMP( 8 );
; 65   : 	m_pTypeInfo[SKILL_SWORD_MASTERY].SetPassive();
; 66   : 	m_pTypeInfo[SKILL_SWORD_MASTERY].SetLearnLevel( 15 );
; 67   : 	m_pTypeInfo[SKILL_SWORD_MASTERY].SetSkillStep( SKILL_STEP_APPRENTICE );
; 68   : 	m_pTypeInfo[SKILL_SWORD_MASTERY].AddNextSkill( SKILL_DANCING_SWORD );
; 69   : 
; 70   : 	m_pTypeInfo[SKILL_DANCING_SWORD].Set(sid++, "Dancing Sword", 700, 190, 4,"댄싱 소드");
; 71   : 	m_pTypeInfo[SKILL_DANCING_SWORD].SetMP( 12 );
; 72   : 	m_pTypeInfo[SKILL_DANCING_SWORD].SetLearnLevel( 20 );
; 73   : 	m_pTypeInfo[SKILL_DANCING_SWORD].SetSkillStep( SKILL_STEP_APPRENTICE );
; 74   : 	m_pTypeInfo[SKILL_DANCING_SWORD].AddNextSkill( SKILL_THUNDER_SPARK );	
; 75   : //	m_pTypeInfo[SKILL_DANCING_SWORD].AddNextSkill( SKILL_THUNDER_SPARK );	
; 76   : 
; 77   : 	//2004,4,30,sobeit add start
; 78   : //	m_pTypeInfo[SKILL_FABULOUS_SOUL].Set(sid++, "Fabulous Soul", 600, 160, 382,"패뷸러스 소울");
; 79   : //	m_pTypeInfo[SKILL_FABULOUS_SOUL].SetMP( 0 );
; 80   : //	m_pTypeInfo[SKILL_FABULOUS_SOUL].SetPassive();
; 81   : //	m_pTypeInfo[SKILL_FABULOUS_SOUL].SetLearnLevel( 23 );
; 82   : //	m_pTypeInfo[SKILL_FABULOUS_SOUL].SetSkillStep( SKILL_STEP_APPRENTICE );
; 83   : //	m_pTypeInfo[SKILL_FABULOUS_SOUL].AddNextSkill( SKILL_THUNDER_SPARK );
; 84   : 	//2004,4,30,sobeit add end
; 85   : 
; 86   : 	m_pTypeInfo[SKILL_THUNDER_SPARK].Set(sid++, "Thunder Spark", 600, 160, 2,"썬더 스파크");
; 87   : 	m_pTypeInfo[SKILL_THUNDER_SPARK].SetMP( 10 );
; 88   : 	m_pTypeInfo[SKILL_THUNDER_SPARK].SetLearnLevel( 25 );
; 89   : 	m_pTypeInfo[SKILL_THUNDER_SPARK].SetSkillStep( SKILL_STEP_APPRENTICE );
; 90   : 	m_pTypeInfo[SKILL_THUNDER_SPARK].AddNextSkill( SKILL_SHIELD_MASTERY );
; 91   : 
; 92   : 	m_pTypeInfo[SKILL_SHIELD_MASTERY].Set(sid++, "Shield Mastery", 200, 130, 155,"쉴드 마스터리");
; 93   : 	m_pTypeInfo[SKILL_SHIELD_MASTERY].SetMP( 8 );
; 94   : 	m_pTypeInfo[SKILL_SHIELD_MASTERY].SetPassive();
; 95   : 	m_pTypeInfo[SKILL_SHIELD_MASTERY].SetLearnLevel( 30 );
; 96   : 	m_pTypeInfo[SKILL_SHIELD_MASTERY].SetSkillStep( SKILL_STEP_APPRENTICE );
; 97   : 	m_pTypeInfo[SKILL_SHIELD_MASTERY].AddNextSkill( SKILL_CROSS_COUNTER );
; 98   : 
; 99   : 	m_pTypeInfo[SKILL_CROSS_COUNTER].Set(sid++, "Cross Counter", 400, 210, 5,"크로스 카운터");
; 100  : 	m_pTypeInfo[SKILL_CROSS_COUNTER].SetMP( 15 );
; 101  : 	m_pTypeInfo[SKILL_CROSS_COUNTER].SetLearnLevel( 35 );
; 102  : 	m_pTypeInfo[SKILL_CROSS_COUNTER].SetSkillStep( SKILL_STEP_APPRENTICE );
; 103  : 	m_pTypeInfo[SKILL_CROSS_COUNTER].AddNextSkill( SKILL_RAINBOW_SLASHER );
; 104  : 	
; 105  : 	m_pTypeInfo[SKILL_RAINBOW_SLASHER].Set(sid++, "Rainbow Slasher", 200, 160, 3,"레인보우 슬래셔");
; 106  : 	m_pTypeInfo[SKILL_RAINBOW_SLASHER].SetMP( 10 );
; 107  : 	m_pTypeInfo[SKILL_RAINBOW_SLASHER].SetLearnLevel( 40 );
; 108  : 	m_pTypeInfo[SKILL_RAINBOW_SLASHER].SetSkillStep( SKILL_STEP_APPRENTICE );
; 109  : 	m_pTypeInfo[SKILL_RAINBOW_SLASHER].AddNextSkill( SKILL_FLASH_SLIDING );
; 110  : 
; 111  : 	m_pTypeInfo[SKILL_FLASH_SLIDING].Set(sid++, "Flash Sliding", 300, 240, 6,"플래쉬 슬라이딩");
; 112  : 	m_pTypeInfo[SKILL_FLASH_SLIDING].SetMP( 20 );
; 113  : 	m_pTypeInfo[SKILL_FLASH_SLIDING].SetLearnLevel( 45 );
; 114  : 	m_pTypeInfo[SKILL_FLASH_SLIDING].SetSkillStep( SKILL_STEP_APPRENTICE );
; 115  : 	m_pTypeInfo[SKILL_FLASH_SLIDING].AddNextSkill( SKILL_SNAKE_COMBO );
; 116  : 
; 117  : 	m_pTypeInfo[SKILL_SNAKE_COMBO].Set(sid++, "Snake Combo", 700, 190, 8,"스네이크 콤보");
; 118  : 	m_pTypeInfo[SKILL_SNAKE_COMBO].SetMP( 12 );
; 119  : 	m_pTypeInfo[SKILL_SNAKE_COMBO].SetLearnLevel( 50 );
; 120  : 	m_pTypeInfo[SKILL_SNAKE_COMBO].SetSkillStep( SKILL_STEP_APPRENTICE );
; 121  : 	m_pTypeInfo[SKILL_SNAKE_COMBO].AddNextSkill( SKILL_SWORD_WAVE );	
; 122  : 
; 123  : 	m_pTypeInfo[SKILL_SWORD_WAVE].Set(sid++, "Sword Wave", 500, 240,  9,"소드 웨이브");
; 124  : 	m_pTypeInfo[SKILL_SWORD_WAVE].SetMP( 20 );
; 125  : 	m_pTypeInfo[SKILL_SWORD_WAVE].SetLearnLevel( 55 );
; 126  : 	m_pTypeInfo[SKILL_SWORD_WAVE].SetSkillStep( SKILL_STEP_APPRENTICE );
; 127  : 	m_pTypeInfo[SKILL_SWORD_WAVE].AddNextSkill( SKILL_SWORD_RAY );
; 128  : 
; 129  : 	m_pTypeInfo[SKILL_SWORD_RAY].Set(sid++, "Sword Ray", 0, 0, 9 ,"소드 레이");
; 130  : 	m_pTypeInfo[SKILL_SWORD_RAY].SetMP( 25 );
; 131  : 	m_pTypeInfo[SKILL_SWORD_RAY].SetLearnLevel( 61 );
; 132  : 	m_pTypeInfo[SKILL_SWORD_RAY].SetSkillStep( SKILL_STEP_APPRENTICE );
; 133  : 	m_pTypeInfo[SKILL_SWORD_RAY].AddNextSkill( SKILL_LIGHTNING_HAND );
; 134  : 
; 135  : 	m_pTypeInfo[SKILL_LIGHTNING_HAND].Set(sid++, "Lightning Hand", 300, 270, 7,"라이트닝핸즈");
; 136  : 	m_pTypeInfo[SKILL_LIGHTNING_HAND].SetMP( 25 );
; 137  : 	m_pTypeInfo[SKILL_LIGHTNING_HAND].SetLearnLevel( 65 );
; 138  : 	m_pTypeInfo[SKILL_LIGHTNING_HAND].SetSkillStep( SKILL_STEP_APPRENTICE );
; 139  : 	m_pTypeInfo[SKILL_LIGHTNING_HAND].AddNextSkill( SKILL_REDIANCE );
; 140  : 	
; 141  : 	m_pTypeInfo[SKILL_REDIANCE].Set(sid++, "Rediance", 300, 270, 322,"레디언스");
; 142  : 	m_pTypeInfo[SKILL_REDIANCE].SetMP( 25 );
; 143  : 	m_pTypeInfo[SKILL_REDIANCE].SetLearnLevel( 68 );
; 144  : 	m_pTypeInfo[SKILL_REDIANCE].SetSkillStep( SKILL_STEP_APPRENTICE );
; 145  : 	m_pTypeInfo[SKILL_REDIANCE].AddNextSkill( SKILL_WIND_DIVIDER );
; 146  : 
; 147  : 	m_pTypeInfo[SKILL_WIND_DIVIDER].Set(sid++, "Wind Divider", 500, 240,  121,"윈드 디바이더");
; 148  : 	m_pTypeInfo[SKILL_WIND_DIVIDER].SetMP( 20 );
; 149  : 	m_pTypeInfo[SKILL_WIND_DIVIDER].SetLearnLevel( 70 );
; 150  : 	m_pTypeInfo[SKILL_WIND_DIVIDER].SetSkillStep( SKILL_STEP_APPRENTICE );
; 151  : 	m_pTypeInfo[SKILL_WIND_DIVIDER].AddNextSkill( SKILL_EXPANSION );
; 152  : 
; 153  : 	m_pTypeInfo[SKILL_EXPANSION].Set(sid++, "익스펜션", 700, 270,  11,"익스펜션");
; 154  : 	m_pTypeInfo[SKILL_EXPANSION].SetMP( 25 );
; 155  : 	m_pTypeInfo[SKILL_EXPANSION].SetLearnLevel( 75 );
; 156  : 	m_pTypeInfo[SKILL_EXPANSION].SetSkillStep( SKILL_STEP_APPRENTICE );
; 157  : 	m_pTypeInfo[SKILL_EXPANSION].AddNextSkill( SKILL_THUNDER_BOLT );
; 158  : 
; 159  : 	m_pTypeInfo[SKILL_THUNDER_BOLT].Set(sid++, "Thunder Bolt", 700, 270,  10,"썬더 볼트");
; 160  : 	m_pTypeInfo[SKILL_THUNDER_BOLT].SetMP( 25 );
; 161  : 	m_pTypeInfo[SKILL_THUNDER_BOLT].SetLearnLevel( 80 );
; 162  : 	m_pTypeInfo[SKILL_THUNDER_BOLT].SetSkillStep( SKILL_STEP_APPRENTICE );
; 163  : 	m_pTypeInfo[SKILL_THUNDER_BOLT].AddNextSkill( SKILL_MENTAL_SWORD );
; 164  : 
; 165  : 	m_pTypeInfo[SKILL_MENTAL_SWORD].Set(sid++, "Mental Sword", 700, 270,  156,"멘탈 소드");
; 166  : 	m_pTypeInfo[SKILL_MENTAL_SWORD].SetMP( 25 );
; 167  : 	m_pTypeInfo[SKILL_MENTAL_SWORD].SetLearnLevel( 85 );
; 168  : 	m_pTypeInfo[SKILL_MENTAL_SWORD].SetSkillStep( SKILL_STEP_APPRENTICE );
; 169  : 	m_pTypeInfo[SKILL_MENTAL_SWORD].AddNextSkill( SKILL_LARSLASH );
; 170  : 
; 171  : 	m_pTypeInfo[SKILL_LARSLASH].Set(sid++, "Lar Slash", 700, 270,  323,"라 슬래시");
; 172  : 	m_pTypeInfo[SKILL_LARSLASH].SetMP( 25 );
; 173  : 	m_pTypeInfo[SKILL_LARSLASH].SetLearnLevel( 88 );
; 174  : 	m_pTypeInfo[SKILL_LARSLASH].SetSkillStep( SKILL_STEP_APPRENTICE );
; 175  : 	m_pTypeInfo[SKILL_LARSLASH].AddNextSkill( SKILL_THUNDER_STORM );
; 176  : 
; 177  : 	m_pTypeInfo[SKILL_THUNDER_STORM].Set(sid++, "Thunder Storm", 700, 270,  157,"썬더 스톰");
; 178  : 	m_pTypeInfo[SKILL_THUNDER_STORM].SetMP( 25 );
; 179  : 	m_pTypeInfo[SKILL_THUNDER_STORM].SetLearnLevel( 90 );
; 180  : 	m_pTypeInfo[SKILL_THUNDER_STORM].SetSkillStep( SKILL_STEP_APPRENTICE );
; 181  : 	m_pTypeInfo[SKILL_THUNDER_STORM].AddNextSkill( SKILL_SHARP_SHIELD );
; 182  : 
; 183  : 	m_pTypeInfo[SKILL_SHARP_SHIELD].Set(sid++, "Sharp Shield", 700, 270,  216,"샤프 쉴드");
; 184  : 	m_pTypeInfo[SKILL_SHARP_SHIELD].SetMP( 25 );
; 185  : 	m_pTypeInfo[SKILL_SHARP_SHIELD].SetSkillStep( SKILL_STEP_APPRENTICE );
; 186  : 	m_pTypeInfo[SKILL_SHARP_SHIELD].SetLearnLevel( 100 );
; 187  : 	m_pTypeInfo[SKILL_SHARP_SHIELD].AddNextSkill( SKILL_WIDE_LIGHTNING );
; 188  : 
; 189  : 	m_pTypeInfo[SKILL_WIDE_LIGHTNING].Set(sid++, "Wide Lightning", 700, 270,  217,"와이드 라이트닝");
; 190  : 	m_pTypeInfo[SKILL_WIDE_LIGHTNING].SetMP( 25 );
; 191  : 	m_pTypeInfo[SKILL_WIDE_LIGHTNING].SetSkillStep( SKILL_STEP_APPRENTICE );
; 192  : 	m_pTypeInfo[SKILL_WIDE_LIGHTNING].SetLearnLevel( 100 );
; 193  : 	m_pTypeInfo[SKILL_WIDE_LIGHTNING].AddNextSkill( SKILL_BLITZ_SLIDING );
; 194  : 	
; 195  : 	m_pTypeInfo[SKILL_BLITZ_SLIDING].Set(sid++, "Blitz Sliding", 700, 270,  313,"블리츠 슬라이딩");
; 196  : 	m_pTypeInfo[SKILL_BLITZ_SLIDING].SetMP( 25 );
; 197  : 	m_pTypeInfo[SKILL_BLITZ_SLIDING].SetSkillStep( SKILL_STEP_APPRENTICE );
; 198  : 	m_pTypeInfo[SKILL_BLITZ_SLIDING].SetLearnLevel( 110 );
; 199  : 	m_pTypeInfo[SKILL_BLITZ_SLIDING].AddNextSkill( SKILL_HIT_CONVERT );
; 200  : 
; 201  : 	m_pTypeInfo[SKILL_HIT_CONVERT].Set(sid++, "Hit Convert", 700, 270,  254,"히트 컨버트");
; 202  : 	m_pTypeInfo[SKILL_HIT_CONVERT].SetMP( 40 );
; 203  : 	m_pTypeInfo[SKILL_HIT_CONVERT].SetSkillStep( SKILL_STEP_APPRENTICE );
; 204  : 	m_pTypeInfo[SKILL_HIT_CONVERT].SetLearnLevel( 120 );
; 205  : 	m_pTypeInfo[SKILL_HIT_CONVERT].AddNextSkill( SKILL_SWORD_OF_THOR );
; 206  : 
; 207  : 	// 2004, 9, 8, sobeit add start - 검 130 스킬
; 208  : 	m_pTypeInfo[SKILL_SWORD_OF_THOR].Set(sid++, "Sword of Thor", 700, 270,  387,"소드 오브 토르");
; 209  : 	m_pTypeInfo[SKILL_SWORD_OF_THOR].SetMP( 40 );
; 210  : 	m_pTypeInfo[SKILL_SWORD_OF_THOR].SetSkillStep( SKILL_STEP_APPRENTICE );
; 211  : 	m_pTypeInfo[SKILL_SWORD_OF_THOR].SetLearnLevel( 130 );
; 212  : 	m_pTypeInfo[SKILL_SWORD_OF_THOR].AddNextSkill( SKILL_INFINITY_THUNDERBOLT );
; 213  : 	// 2004, 9, 8, sobeit add end - 검 130 스킬
; 214  : 
; 215  : 	// 2004, 11, 11, sobeit add start - 검 140 스킬
; 216  : 	m_pTypeInfo[SKILL_INFINITY_THUNDERBOLT].Set(sid++, "Infinity Thunderbolt", 700, 270,  458,"인피너티 썬더볼트");
; 217  : 	m_pTypeInfo[SKILL_INFINITY_THUNDERBOLT].SetMP( 40 );
; 218  : 	m_pTypeInfo[SKILL_INFINITY_THUNDERBOLT].SetSkillStep( SKILL_STEP_APPRENTICE );
; 219  : 	m_pTypeInfo[SKILL_INFINITY_THUNDERBOLT].SetLearnLevel( 140 );
; 220  : 	m_pTypeInfo[SKILL_INFINITY_THUNDERBOLT].AddNextSkill( SKILL_BIKE_CRASH );
; 221  : 	// 2004, 11, 11, sobeit add end - 검 140 스킬
; 222  : 
; 223  : 	m_pTypeInfo[SKILL_BIKE_CRASH].Set(sid++, "Bike Crash", 700, 270,  470,"바이크 크래쉬");
; 224  : 	m_pTypeInfo[SKILL_BIKE_CRASH].SetMP( 40 );
; 225  : 	m_pTypeInfo[SKILL_BIKE_CRASH].SetSkillStep( SKILL_STEP_SLAYER_SWORD_ADVANCEMENT );
; 226  : 	m_pTypeInfo[SKILL_BIKE_CRASH].SetLearnLevel( 150 );
; 227  : 	m_pTypeInfo[SKILL_BIKE_CRASH].AddNextSkill(SKILL_SHINE_SWORD);
; 228  : 
; 229  : 	m_pTypeInfo[SKILL_SHINE_SWORD].Set(sid++, "Shine Sword", 700, 270,  497,"사인 소드");
; 230  : 	m_pTypeInfo[SKILL_SHINE_SWORD].SetMP( 50 );
; 231  : 	m_pTypeInfo[SKILL_SHINE_SWORD].SetSkillStep( SKILL_STEP_SLAYER_SWORD_ADVANCEMENT );
; 232  : 	m_pTypeInfo[SKILL_SHINE_SWORD].SetLearnLevel( 160 );
; 233  : 	m_pTypeInfo[SKILL_SHINE_SWORD].AddNextSkill(SKILL_SOUL_CHAIN);
; 234  : 
; 235  : 
; 236  : // 2006.02.20 승직기술 Sjheon Add
; 237  : //	m_pTypeInfo[SKILL_SWORD_COMBO].Set(sid++, "Sword Combo", 700, 270,  470,"검 콤보"); 
; 238  : //	m_pTypeInfo[SKILL_SWORD_COMBO].SetSkillStep( SKILL_STEP_SLAYER_SWORD_ADVANCEMENT) ;// SKILL_STEP_SLAYER_SWORD_ADVANCEMENT );
; 239  : //	m_pTypeInfo[SKILL_SWORD_COMBO].SetMP( 50 );
; 240  : //	m_pTypeInfo[SKILL_SWORD_COMBO].SetLearnLevel( 150 );
; 241  : //	m_pTypeInfo[SKILL_SWORD_COMBO].AddNextSkill(SKILL_SOUL_CHAIN) ; // SKILL_BLADE_COMBO) ; // SKILL_DESTINIES );
; 242  : // 2006.02.20 승직기술 Sjheon End
; 243  : 
; 244  : 	//----------------------------------------------------------------------
; 245  : 	// 도 계열
; 246  : 	//----------------------------------------------------------------------
; 247  : 	sid = 0;
; 248  : 	m_pTypeInfo[SKILL_SINGLE_BLOW].Set(sid++, "Single Blow", 0, 0,  13,"싱글 블로우");
; 249  : 	m_pTypeInfo[SKILL_SINGLE_BLOW].SetMP( 8 );
; 250  : 	m_pTypeInfo[SKILL_SINGLE_BLOW].SetLearnLevel( 5 );
; 251  : 	m_pTypeInfo[SKILL_SINGLE_BLOW].SetSkillStep( SKILL_STEP_APPRENTICE );
; 252  : 	m_pTypeInfo[SKILL_SINGLE_BLOW].AddNextSkill( SKILL_SPIRAL_SLAY );
; 253  : 
; 254  : 	m_pTypeInfo[SKILL_SPIRAL_SLAY].Set(sid++, "Spiral Slay", 0, 0,  14,"스파이럴 슬레이");
; 255  : 	m_pTypeInfo[SKILL_SPIRAL_SLAY].SetMP( 10 );
; 256  : 	m_pTypeInfo[SKILL_SPIRAL_SLAY].SetLearnLevel( 10 );
; 257  : 	m_pTypeInfo[SKILL_SPIRAL_SLAY].SetSkillStep( SKILL_STEP_APPRENTICE );
; 258  : 	m_pTypeInfo[SKILL_SPIRAL_SLAY].AddNextSkill( SKILL_CONCENTRATION );
; 259  : 	
; 260  : 	m_pTypeInfo[SKILL_CONCENTRATION].Set(sid++, "컨센트레이션", 200, 130, 150,"컨센트레이션");	
; 261  : 	m_pTypeInfo[SKILL_CONCENTRATION].SetMP( 8 );
; 262  : 	m_pTypeInfo[SKILL_CONCENTRATION].SetPassive();
; 263  : 	m_pTypeInfo[SKILL_CONCENTRATION].SetLearnLevel( 15 );
; 264  : 	m_pTypeInfo[SKILL_CONCENTRATION].SetSkillStep( SKILL_STEP_APPRENTICE );
; 265  : 	m_pTypeInfo[SKILL_CONCENTRATION].AddNextSkill( SKILL_GHOST_BLADE );
; 266  : 
; 267  : 	m_pTypeInfo[SKILL_GHOST_BLADE].Set(sid++, "Ghost Blade", 0, 0, 17,"고스트 블레이드");
; 268  : 	m_pTypeInfo[SKILL_GHOST_BLADE].SetMP( 12 );
; 269  : 	m_pTypeInfo[SKILL_GHOST_BLADE].SetLearnLevel( 20 );
; 270  : 	m_pTypeInfo[SKILL_GHOST_BLADE].SetSkillStep( SKILL_STEP_APPRENTICE );
; 271  : //	m_pTypeInfo[SKILL_GHOST_BLADE].AddNextSkill( SKILL_TRIPLE_BREAK );
; 272  : 	m_pTypeInfo[SKILL_GHOST_BLADE].AddNextSkill( SKILL_TRIPLE_BREAK );
; 273  : 
; 274  : 	//2004,4,30,sobeit add start
; 275  : //	m_pTypeInfo[SKILL_WILL_OF_IRON].Set(sid++, "Will Of Iron", 600, 160, 382,"윌 오브 아이언");
; 276  : //	m_pTypeInfo[SKILL_WILL_OF_IRON].SetMP( 0 );
; 277  : //	m_pTypeInfo[SKILL_WILL_OF_IRON].SetPassive();
; 278  : //	m_pTypeInfo[SKILL_WILL_OF_IRON].SetLearnLevel( 23 );
; 279  : //	m_pTypeInfo[SKILL_WILL_OF_IRON].SetSkillStep( SKILL_STEP_APPRENTICE );
; 280  : //	m_pTypeInfo[SKILL_WILL_OF_IRON].AddNextSkill( SKILL_TRIPLE_BREAK );
; 281  : 	//2004,4,30,sobeit add end
; 282  : 	
; 283  : 	m_pTypeInfo[SKILL_TRIPLE_BREAK].Set(sid++, "Triple Break", 0, 0, 15,"트리플 브레이크");
; 284  : 	m_pTypeInfo[SKILL_TRIPLE_BREAK].SetMP( 12 );
; 285  : 	m_pTypeInfo[SKILL_TRIPLE_BREAK].SetLearnLevel( 25 );
; 286  : 	m_pTypeInfo[SKILL_TRIPLE_BREAK].SetSkillStep( SKILL_STEP_APPRENTICE );
; 287  : 	m_pTypeInfo[SKILL_TRIPLE_BREAK].AddNextSkill( SKILL_EVASION );
; 288  : 	
; 289  : 	m_pTypeInfo[SKILL_EVASION].Set(sid++, "이베이션", 200, 130, 151,"이베이션");	
; 290  : 	m_pTypeInfo[SKILL_EVASION].SetMP( 8 );
; 291  : 	m_pTypeInfo[SKILL_EVASION].SetPassive();
; 292  : 	m_pTypeInfo[SKILL_EVASION].SetLearnLevel( 30 );
; 293  : 	m_pTypeInfo[SKILL_EVASION].SetSkillStep( SKILL_STEP_APPRENTICE );
; 294  : 	m_pTypeInfo[SKILL_EVASION].AddNextSkill( SKILL_WILD_SMASH );
; 295  : 
; 296  : 	m_pTypeInfo[SKILL_WILD_SMASH].Set(sid++, "Wild Smash", 0, 0, 16,"와일드 스매쉬");
; 297  : 	m_pTypeInfo[SKILL_WILD_SMASH].SetMP( 12 );
; 298  : 	m_pTypeInfo[SKILL_WILD_SMASH].SetLearnLevel( 35 );
; 299  : 	m_pTypeInfo[SKILL_WILD_SMASH].SetSkillStep( SKILL_STEP_APPRENTICE );
; 300  : 	m_pTypeInfo[SKILL_WILD_SMASH].AddNextSkill( SKILL_SHADOW_WALK );
; 301  : 
; 302  : 	m_pTypeInfo[SKILL_SHADOW_WALK].Set(sid++, "Shadow Walk", 0, 0, 19,"쉐도우 워크");
; 303  : 	m_pTypeInfo[SKILL_SHADOW_WALK].SetMP( 20 );
; 304  : 	m_pTypeInfo[SKILL_SHADOW_WALK].SetLearnLevel( 45 );
; 305  : 	m_pTypeInfo[SKILL_SHADOW_WALK].SetSkillStep( SKILL_STEP_APPRENTICE );
; 306  : 	m_pTypeInfo[SKILL_SHADOW_WALK].AddNextSkill( SKILL_POTENTIAL_EXPLOSION );
; 307  : 	
; 308  : 	m_pTypeInfo[SKILL_POTENTIAL_EXPLOSION].Set(sid++, "Potential Explosion", 0, 0, 18,"포텐셜 익스플로젼");
; 309  : 	m_pTypeInfo[SKILL_POTENTIAL_EXPLOSION].SetMP( 25 );
; 310  : 	m_pTypeInfo[SKILL_POTENTIAL_EXPLOSION].SetLearnLevel( 50 );
; 311  : 	m_pTypeInfo[SKILL_POTENTIAL_EXPLOSION].SetSkillStep( SKILL_STEP_APPRENTICE );
; 312  : 	m_pTypeInfo[SKILL_POTENTIAL_EXPLOSION].AddNextSkill( SKILL_HURRICANE_COMBO );
; 313  : 
; 314  : 	m_pTypeInfo[SKILL_HURRICANE_COMBO].Set(sid++, "Hurricane Combo", 0, 0, 21,"허리케인 콤보");
; 315  : 	m_pTypeInfo[SKILL_HURRICANE_COMBO].SetMP( 15 );
; 316  : 	m_pTypeInfo[SKILL_HURRICANE_COMBO].SetLearnLevel( 55 );
; 317  : 	m_pTypeInfo[SKILL_HURRICANE_COMBO].SetSkillStep( SKILL_STEP_APPRENTICE );
; 318  : 	m_pTypeInfo[SKILL_HURRICANE_COMBO].AddNextSkill( SKILL_TORNADO_SEVER );
; 319  : 	
; 320  : 	m_pTypeInfo[SKILL_TORNADO_SEVER].Set(sid++, "Tornado Sever", 0, 0, 22,"토네이도 세버");
; 321  : 	m_pTypeInfo[SKILL_TORNADO_SEVER].SetMP( 20 );
; 322  : 	m_pTypeInfo[SKILL_TORNADO_SEVER].SetLearnLevel( 60 );
; 323  : 	m_pTypeInfo[SKILL_TORNADO_SEVER].SetSkillStep( SKILL_STEP_APPRENTICE );
; 324  : 	m_pTypeInfo[SKILL_TORNADO_SEVER].AddNextSkill( SKILL_MULTI_AMPUTATE );
; 325  : 
; 326  : 	m_pTypeInfo[SKILL_MULTI_AMPUTATE].Set(sid++, "Multi Amputate", 0, 0, 247,"멀티 엠퓨테이트");
; 327  : 	m_pTypeInfo[SKILL_MULTI_AMPUTATE].SetMP( 20 );
; 328  : 	m_pTypeInfo[SKILL_MULTI_AMPUTATE].SetLearnLevel( 61 );
; 329  : 	m_pTypeInfo[SKILL_MULTI_AMPUTATE].SetSkillStep( SKILL_STEP_APPRENTICE );
; 330  : 	m_pTypeInfo[SKILL_MULTI_AMPUTATE].AddNextSkill( SKILL_CHARGING_POWER );
; 331  : 
; 332  : 	m_pTypeInfo[SKILL_CHARGING_POWER].Set(sid++, "Charging Power", 0, 0, 20,"챠징 파워");
; 333  : 	m_pTypeInfo[SKILL_CHARGING_POWER].SetMP( 20 );
; 334  : 	m_pTypeInfo[SKILL_CHARGING_POWER].SetLearnLevel( 65 );
; 335  : 	m_pTypeInfo[SKILL_CHARGING_POWER].SetSkillStep( SKILL_STEP_APPRENTICE );
; 336  : 	m_pTypeInfo[SKILL_CHARGING_POWER].AddNextSkill( SKILL_MOONLIGHT_SEVER );
; 337  : 	
; 338  : 	m_pTypeInfo[SKILL_MOONLIGHT_SEVER].Set(sid++, "Moonlight Sever", 0, 0, 24,"문라이트 세버");
; 339  : 	m_pTypeInfo[SKILL_MOONLIGHT_SEVER].SetMP( 25 );
; 340  : 	m_pTypeInfo[SKILL_MOONLIGHT_SEVER].SetLearnLevel( 70 );
; 341  : 	m_pTypeInfo[SKILL_MOONLIGHT_SEVER].SetSkillStep( SKILL_STEP_APPRENTICE );
; 342  : 	m_pTypeInfo[SKILL_MOONLIGHT_SEVER].AddNextSkill( SKILL_EARTHQUAKE );
; 343  : 
; 344  : 	m_pTypeInfo[SKILL_EARTHQUAKE].Set(sid++, "Earthquake", 0, 0, 118,"어스퀘이크");
; 345  : 	m_pTypeInfo[SKILL_EARTHQUAKE].SetMP( 20 );
; 346  : 	m_pTypeInfo[SKILL_EARTHQUAKE].SetLearnLevel( 75 );
; 347  : 	m_pTypeInfo[SKILL_EARTHQUAKE].SetSkillStep( SKILL_STEP_APPRENTICE );
; 348  : 	m_pTypeInfo[SKILL_EARTHQUAKE].AddNextSkill( SKILL_BERSERKER );
; 349  : 	
; 350  : 	m_pTypeInfo[SKILL_BERSERKER].Set(sid++, "버서커", 0, 0,  23,"버서커");
; 351  : 	m_pTypeInfo[SKILL_BERSERKER].SetMP( 25 );
; 352  : 	m_pTypeInfo[SKILL_BERSERKER].SetLearnLevel( 80 );
; 353  : 	m_pTypeInfo[SKILL_BERSERKER].SetSkillStep( SKILL_STEP_APPRENTICE );
; 354  : 	m_pTypeInfo[SKILL_BERSERKER].AddNextSkill( SKILL_SHADOW_DANCING );
; 355  : 		
; 356  : 	m_pTypeInfo[SKILL_SHADOW_DANCING].Set(sid++, "Shadow Dancing", 0, 0,  152,"쉐도우 댄싱");
; 357  : 	m_pTypeInfo[SKILL_SHADOW_DANCING].SetMP( 35 );
; 358  : 	m_pTypeInfo[SKILL_SHADOW_DANCING].SetLearnLevel( 85 );
; 359  : 	m_pTypeInfo[SKILL_SHADOW_DANCING].SetSkillStep( SKILL_STEP_APPRENTICE );
; 360  : 	m_pTypeInfo[SKILL_SHADOW_DANCING].AddNextSkill( SKILL_TYPHOON );
; 361  : 
; 362  : 	m_pTypeInfo[SKILL_TYPHOON].Set(sid++, "Typhoon", 0, 0, 153,"타이푼");
; 363  : 	m_pTypeInfo[SKILL_TYPHOON].SetMP( 35 );
; 364  : 	m_pTypeInfo[SKILL_TYPHOON].SetLearnLevel( 90 );
; 365  : 	m_pTypeInfo[SKILL_TYPHOON].SetSkillStep( SKILL_STEP_APPRENTICE );
; 366  : 	m_pTypeInfo[SKILL_TYPHOON].AddNextSkill( SKILL_AIR_SHIELD );
; 367  : 
; 368  : 	m_pTypeInfo[SKILL_AIR_SHIELD].Set(sid++, "Air Shield", 0, 0,  218,"에어 쉴드");
; 369  : 	m_pTypeInfo[SKILL_AIR_SHIELD].SetMP( 35 );
; 370  : 	m_pTypeInfo[SKILL_AIR_SHIELD].SetLearnLevel( 95 );
; 371  : 	m_pTypeInfo[SKILL_AIR_SHIELD].SetSkillStep( SKILL_STEP_APPRENTICE );
; 372  : 	m_pTypeInfo[SKILL_AIR_SHIELD].AddNextSkill( SKILL_POWER_OF_LAND );
; 373  : 
; 374  : 	m_pTypeInfo[SKILL_POWER_OF_LAND].Set(sid++, "Power of Land", 0, 0,  219,"파어 오브 랜드");
; 375  : 	m_pTypeInfo[SKILL_POWER_OF_LAND].SetMP( 35 );
; 376  : 	m_pTypeInfo[SKILL_POWER_OF_LAND].SetSkillStep( SKILL_STEP_APPRENTICE );
; 377  : 	m_pTypeInfo[SKILL_POWER_OF_LAND].SetLearnLevel( 100 );
; 378  : 	m_pTypeInfo[SKILL_POWER_OF_LAND].AddNextSkill( SKILL_BLAZE_WALK );
; 379  : 
; 380  : 	m_pTypeInfo[SKILL_BLAZE_WALK].Set(sid++, "Blaze Walk", 0, 0,  314,"블레이즈 워크");
; 381  : 	m_pTypeInfo[SKILL_BLAZE_WALK].SetMP( 35 );
; 382  : 	m_pTypeInfo[SKILL_BLAZE_WALK].SetSkillStep( SKILL_STEP_APPRENTICE );
; 383  : 	m_pTypeInfo[SKILL_BLAZE_WALK].SetLearnLevel( 110 );
; 384  : 	m_pTypeInfo[SKILL_BLAZE_WALK].AddNextSkill( SKILL_WILD_TYPHOON );
; 385  : 
; 386  : 	m_pTypeInfo[SKILL_WILD_TYPHOON].Set(sid++, "Wild Typhoon", 0, 0,  255,"와일드 타이푼");
; 387  : 	m_pTypeInfo[SKILL_WILD_TYPHOON].SetMP( 40 );
; 388  : 	m_pTypeInfo[SKILL_WILD_TYPHOON].SetSkillStep( SKILL_STEP_APPRENTICE );
; 389  : 	m_pTypeInfo[SKILL_WILD_TYPHOON].SetLearnLevel( 120 );
; 390  : 	m_pTypeInfo[SKILL_WILD_TYPHOON].AddNextSkill( SKILL_BURNING_SOUL_CHARGING );
; 391  : 
; 392  : 	// 2004, 9, 8, sobeit add start - 도 130 스킬
; 393  : 	m_pTypeInfo[SKILL_BURNING_SOUL_CHARGING].Set(sid++, "Burning Sol", 700, 270,  388,"버닝 솔");
; 394  : 	m_pTypeInfo[SKILL_BURNING_SOUL_CHARGING].SetMP( 40 );
; 395  : 	m_pTypeInfo[SKILL_BURNING_SOUL_CHARGING].SetSkillStep( SKILL_STEP_APPRENTICE );
; 396  : 	m_pTypeInfo[SKILL_BURNING_SOUL_CHARGING].SetLearnLevel( 130 );
; 397  : 	m_pTypeInfo[SKILL_BURNING_SOUL_CHARGING].AddNextSkill( SKILL_SPIT_STREAM );
; 398  : 	// 2004, 9, 8, sobeit add end - 도 130 스킬
; 399  : 
; 400  : 	// 2004, 11, 11, sobeit add start - 도 140 스킬
; 401  : 	m_pTypeInfo[SKILL_SPIT_STREAM].Set(sid++, "Spit Stream", 700, 270,  459,"스핏 스트림");
; 402  : 	m_pTypeInfo[SKILL_SPIT_STREAM].SetMP( 40 );
; 403  : 	m_pTypeInfo[SKILL_SPIT_STREAM].SetSkillStep( SKILL_STEP_APPRENTICE );
; 404  : 	m_pTypeInfo[SKILL_SPIT_STREAM].SetLearnLevel( 140 );
; 405  : 	m_pTypeInfo[SKILL_SPIT_STREAM].AddNextSkill( SKILL_DRAGON_TORNADO );
; 406  : 	// 2004, 11, 11, sobeit add end - 도 130 스킬
; 407  : 
; 408  : 	// by csm 최석민 
; 409  : 	m_pTypeInfo[SKILL_DRAGON_TORNADO].Set(sid++, "Dragon Tornado", 700, 270,  469,"드레곤 토네이도");
; 410  : 	m_pTypeInfo[SKILL_DRAGON_TORNADO].SetMP( 40 );
; 411  : 	m_pTypeInfo[SKILL_DRAGON_TORNADO].SetSkillStep( SKILL_STEP_SLAYER_BLADE_ADVANCEMENT );
; 412  : 	m_pTypeInfo[SKILL_DRAGON_TORNADO].SetLearnLevel( 150 );
; 413  : 	m_pTypeInfo[SKILL_DRAGON_TORNADO].AddNextSkill(SKILL_BOMB_CRASH_WALK);
; 414  : 	
; 415  : 	// 2006.10.24 sjheon Add
; 416  : 	m_pTypeInfo[SKILL_BOMB_CRASH_WALK].Set(sid++, "Bomb Crash Walk", 700, 270,  498,"범 크래쉬 워크");
; 417  : 	m_pTypeInfo[SKILL_BOMB_CRASH_WALK].SetMP( 50 );
; 418  : 	m_pTypeInfo[SKILL_BOMB_CRASH_WALK].SetSkillStep( SKILL_STEP_SLAYER_BLADE_ADVANCEMENT );
; 419  : 	m_pTypeInfo[SKILL_BOMB_CRASH_WALK].SetLearnLevel( 160 );
; 420  : 	m_pTypeInfo[SKILL_BOMB_CRASH_WALK].AddNextSkill(SKILL_SOUL_CHAIN );
; 421  : 	// 2006.10.24 sjheon End
; 422  : 
; 423  : 	//2006.02.20 승직기술 Sjheon Add
; 424  : 	
; 425  : //	m_pTypeInfo[SKILL_BLADE_COMBO].Set(sid++, "Blade Combo", 700, 270,  469,"도 콤보"); 
; 426  : //	m_pTypeInfo[SKILL_BLADE_COMBO].SetSkillStep( SKILL_STEP_SLAYER_BLADE_ADVANCEMENT );
; 427  : //	m_pTypeInfo[SKILL_BLADE_COMBO].SetMP( 50 );
; 428  : //	m_pTypeInfo[SKILL_BLADE_COMBO].SetLearnLevel( 150 );
; 429  : //	m_pTypeInfo[SKILL_BLADE_COMBO].AddNextSkill(SKILL_SOUL_CHAIN) ; // SKILL_DESTINIES );
; 430  : 
; 431  : 	// 2005.07.15 승직기술 Sjheon End
; 432  : 
; 433  : 	
; 434  : 	//----------------------------------------------------------------------     
; 435  : 	// 총
; 436  : 	//----------------------------------------------------------------------
; 437  : 	sid = 0;
; 438  : 	m_pTypeInfo[SKILL_FAST_RELOAD].Set(sid++, "Fast Reload", 0, 0,  26,"패스트 리로드");
; 439  : 	m_pTypeInfo[SKILL_FAST_RELOAD].SetMP( 0 );
; 440  : 	m_pTypeInfo[SKILL_FAST_RELOAD].SetLearnLevel( 5 );
; 441  : 	m_pTypeInfo[SKILL_FAST_RELOAD].SetPassive();
; 442  : 	m_pTypeInfo[SKILL_FAST_RELOAD].SetSkillStep( SKILL_STEP_APPRENTICE );
; 443  : 	m_pTypeInfo[SKILL_FAST_RELOAD].AddNextSkill( SKILL_DOUBLE_SHOT );
; 444  : 
; 445  : 	m_pTypeInfo[SKILL_DOUBLE_SHOT].Set(sid++, "Double Shot", 0, 0,  27,"더블 샷");
; 446  : 	m_pTypeInfo[SKILL_DOUBLE_SHOT].SetMP( 0 );
; 447  : 	m_pTypeInfo[SKILL_DOUBLE_SHOT].SetLearnLevel( 10 );
; 448  : 	m_pTypeInfo[SKILL_DOUBLE_SHOT].SetSkillStep( SKILL_STEP_APPRENTICE );
; 449  : 	m_pTypeInfo[SKILL_DOUBLE_SHOT].AddNextSkill( SKILL_HEART_CATALYST );
; 450  : 
; 451  : //	m_pTypeInfo[SKILL_SMG_MASTERY].Set(sid++, "SMG Mastery", 0, 0, 28,"SMG마스터리");
; 452  : //	m_pTypeInfo[SKILL_SMG_MASTERY].SetMP( 0 );
; 453  : //	m_pTypeInfo[SKILL_SMG_MASTERY].SetLearnLevel( 15 );
; 454  : //	m_pTypeInfo[SKILL_SMG_MASTERY].SetPassive();
; 455  : //	m_pTypeInfo[SKILL_SMG_MASTERY].SetSkillStep( SKILL_STEP_APPRENTICE );
; 456  : //	m_pTypeInfo[SKILL_SMG_MASTERY].AddNextSkill( SKILL_TRIPLE_SHOT );
; 457  : 
; 458  : 	m_pTypeInfo[SKILL_HEART_CATALYST].Set(sid++, "Heart Catalyst", 0, 0, 329,"하트 카탈리스트");
; 459  : 	m_pTypeInfo[SKILL_HEART_CATALYST].SetMP( 0 );
; 460  : 	m_pTypeInfo[SKILL_HEART_CATALYST].SetLearnLevel( 15 );
; 461  : 	m_pTypeInfo[SKILL_HEART_CATALYST].SetSkillStep( SKILL_STEP_APPRENTICE );
; 462  : 	m_pTypeInfo[SKILL_HEART_CATALYST].AddNextSkill( SKILL_TRIPLE_SHOT );
; 463  : 
; 464  : 	m_pTypeInfo[SKILL_TRIPLE_SHOT].Set(sid++, "Triple Shot", 0, 0,  27,"트리플 샷");
; 465  : 	m_pTypeInfo[SKILL_TRIPLE_SHOT].SetMP( 0 );
; 466  : 	m_pTypeInfo[SKILL_TRIPLE_SHOT].SetLearnLevel( 20 );
; 467  : 	m_pTypeInfo[SKILL_TRIPLE_SHOT].SetSkillStep( SKILL_STEP_APPRENTICE );
; 468  : 	m_pTypeInfo[SKILL_TRIPLE_SHOT].AddNextSkill( SKILL_MULTI_SHOT );
; 469  : 
; 470  : 	m_pTypeInfo[SKILL_MULTI_SHOT].Set(sid++, "Multi Shot", 0, 0,  29,"멀티 샷");
; 471  : 	m_pTypeInfo[SKILL_MULTI_SHOT].SetMP( 0 );
; 472  : 	m_pTypeInfo[SKILL_MULTI_SHOT].SetLearnLevel( 25 );
; 473  : 	m_pTypeInfo[SKILL_MULTI_SHOT].SetSkillStep( SKILL_STEP_APPRENTICE );
; 474  : 	m_pTypeInfo[SKILL_MULTI_SHOT].AddNextSkill( SKILL_HEAD_SHOT );
; 475  : 
; 476  : 	m_pTypeInfo[SKILL_HEAD_SHOT].Set(sid++, "Head Shot", 0, 0,  30,"헤드 샷");
; 477  : 	m_pTypeInfo[SKILL_HEAD_SHOT].SetMP( 0 );
; 478  : 	m_pTypeInfo[SKILL_HEAD_SHOT].SetLearnLevel( 30 );
; 479  : 	m_pTypeInfo[SKILL_HEAD_SHOT].SetSkillStep( SKILL_STEP_APPRENTICE );
; 480  : 	m_pTypeInfo[SKILL_HEAD_SHOT].AddNextSkill( SKILL_ARMS_MASTERY1 );
; 481  : 
; 482  : 	m_pTypeInfo[SKILL_ARMS_MASTERY1].Set(sid++, "Arms Mastery 1", 0, 0, 325,"암스 마스터리1");
; 483  : 	m_pTypeInfo[SKILL_ARMS_MASTERY1].SetMP( 0 );
; 484  : 	m_pTypeInfo[SKILL_ARMS_MASTERY1].SetLearnLevel( 35 );
; 485  : 	m_pTypeInfo[SKILL_ARMS_MASTERY1].SetPassive();
; 486  : 	m_pTypeInfo[SKILL_ARMS_MASTERY1].SetSkillStep( SKILL_STEP_APPRENTICE );
; 487  : 	m_pTypeInfo[SKILL_ARMS_MASTERY1].AddNextSkill( SKILL_QUICK_FIRE );
; 488  : 
; 489  : //	m_pTypeInfo[SKILL_AR_MASTERY].Set(sid++, "AR Mastery", 0, 0, 31,"AR마스터리");
; 490  : //	m_pTypeInfo[SKILL_AR_MASTERY].SetMP( 0 );
; 491  : //	m_pTypeInfo[SKILL_AR_MASTERY].SetLearnLevel( 35 );
; 492  : //	m_pTypeInfo[SKILL_AR_MASTERY].SetPassive();
; 493  : //	m_pTypeInfo[SKILL_AR_MASTERY].SetSkillStep( SKILL_STEP_APPRENTICE );
; 494  : //	m_pTypeInfo[SKILL_AR_MASTERY].AddNextSkill( SKILL_QUICK_FIRE );
; 495  : 	
; 496  : 	m_pTypeInfo[SKILL_QUICK_FIRE].Set(sid++, "Quick Fire", 0, 0,  27,"퀵 파이어");
; 497  : 	m_pTypeInfo[SKILL_QUICK_FIRE].SetMP( 0 );
; 498  : 	m_pTypeInfo[SKILL_QUICK_FIRE].SetLearnLevel( 40 );
; 499  : 	m_pTypeInfo[SKILL_QUICK_FIRE].SetSkillStep( SKILL_STEP_APPRENTICE );
; 500  : 	m_pTypeInfo[SKILL_QUICK_FIRE].AddNextSkill( SKILL_SNIPPING );
; 501  : 
; 502  : 	m_pTypeInfo[SKILL_SNIPPING].Set(sid++, "Snipping", 0, 0, 33,"스나이핑");
; 503  : 	m_pTypeInfo[SKILL_SNIPPING].SetMP( 0 );
; 504  : 	m_pTypeInfo[SKILL_SNIPPING].SetLearnLevel( 45 );
; 505  : 	m_pTypeInfo[SKILL_SNIPPING].SetSkillStep( SKILL_STEP_APPRENTICE );
; 506  : 	m_pTypeInfo[SKILL_SNIPPING].AddNextSkill( SKILL_LIVENESS );
; 507  : 
; 508  : 	m_pTypeInfo[SKILL_LIVENESS].Set(sid++, "Liveness", 0, 0, 176,"라이브니스");
; 509  : 	m_pTypeInfo[SKILL_LIVENESS].SetPassive();
; 510  : 	m_pTypeInfo[SKILL_LIVENESS].SetLearnLevel( 45 );
; 511  : 	m_pTypeInfo[SKILL_LIVENESS].SetSkillStep( SKILL_STEP_APPRENTICE );
; 512  : 	m_pTypeInfo[SKILL_LIVENESS].AddNextSkill( SKILL_PIERCING );
; 513  : 
; 514  : 	m_pTypeInfo[SKILL_PIERCING].Set(sid++, "Piercing", 0, 0, 32,"피어싱");
; 515  : 	m_pTypeInfo[SKILL_PIERCING].SetMP( 0 );
; 516  : 	m_pTypeInfo[SKILL_PIERCING].SetLearnLevel( 47 );
; 517  : 	m_pTypeInfo[SKILL_PIERCING].SetSkillStep( SKILL_STEP_APPRENTICE );
; 518  : 	m_pTypeInfo[SKILL_PIERCING].AddNextSkill( SKILL_VIVID_MAGAZINE );
; 519  : 
; 520  : 	m_pTypeInfo[SKILL_VIVID_MAGAZINE].Set(sid++, "Vivid Magazine", 0, 0, 335,"비비드 매거진");
; 521  : 	m_pTypeInfo[SKILL_VIVID_MAGAZINE].SetMP( 0 );
; 522  : 	m_pTypeInfo[SKILL_VIVID_MAGAZINE].SetLearnLevel( 50 );
; 523  : 	m_pTypeInfo[SKILL_VIVID_MAGAZINE].SetPassive();
; 524  : 	m_pTypeInfo[SKILL_VIVID_MAGAZINE].SetSkillStep( SKILL_STEP_APPRENTICE );
; 525  : 	m_pTypeInfo[SKILL_VIVID_MAGAZINE].AddNextSkill( SKILL_THROW_BOMB );
; 526  : 
; 527  : //	m_pTypeInfo[SKILL_SG_MASTERY].Set(sid++, "SG Mastery", 0, 0, 34,"SG마스터리");
; 528  : //	m_pTypeInfo[SKILL_SG_MASTERY].SetMP( 0 );
; 529  : //	m_pTypeInfo[SKILL_SG_MASTERY].SetLearnLevel( 50 );
; 530  : //	m_pTypeInfo[SKILL_SG_MASTERY].SetPassive();
; 531  : //	m_pTypeInfo[SKILL_SG_MASTERY].SetSkillStep( SKILL_STEP_APPRENTICE );
; 532  : //	m_pTypeInfo[SKILL_SG_MASTERY].AddNextSkill( SKILL_THROW_BOMB );
; 533  : 
; 534  : 	m_pTypeInfo[SKILL_THROW_BOMB].Set(sid++, "Throw Bomb", 0, 0, 36,"드로우붐");
; 535  : 	m_pTypeInfo[SKILL_THROW_BOMB].SetMP( 10 );	
; 536  : 	m_pTypeInfo[SKILL_THROW_BOMB].SetLearnLevel( 53 );
; 537  : 	//m_pTypeInfo[SKILL_THROW_BOMB].SetPassive();
; 538  : 	m_pTypeInfo[SKILL_THROW_BOMB].SetActive();
; 539  : 	m_pTypeInfo[SKILL_THROW_BOMB].SetSkillStep( SKILL_STEP_APPRENTICE );
; 540  : 	m_pTypeInfo[SKILL_THROW_BOMB].AddNextSkill( SKILL_CONCEALMENT );	
; 541  : 
; 542  : 	m_pTypeInfo[SKILL_CONCEALMENT].Set(sid++, "Concealment", 0, 0, 249,"컨실먼트");
; 543  : 	m_pTypeInfo[SKILL_CONCEALMENT].SetMP( 10 );
; 544  : 	m_pTypeInfo[SKILL_CONCEALMENT].SetLearnLevel( 55 );
; 545  : 	m_pTypeInfo[SKILL_CONCEALMENT].SetSkillStep( SKILL_STEP_APPRENTICE );
; 546  : 	m_pTypeInfo[SKILL_CONCEALMENT].AddNextSkill(SKILL_DETECT_MINE );
; 547  : 
; 548  : 	m_pTypeInfo[SKILL_DETECT_MINE].Set(sid++, "Revealer", 0, 0, 35,"리빌러");
; 549  : 	m_pTypeInfo[SKILL_DETECT_MINE].SetMP( 20 );
; 550  : 	m_pTypeInfo[SKILL_DETECT_MINE].SetLearnLevel( 57 );
; 551  : 	m_pTypeInfo[SKILL_DETECT_MINE].SetSkillStep( SKILL_STEP_APPRENTICE );
; 552  : 	m_pTypeInfo[SKILL_DETECT_MINE].AddNextSkill( SKILL_TRIDENT );
; 553  : 	m_pTypeInfo[SKILL_DETECT_MINE].SetActive();	
; 554  : 
; 555  : 	m_pTypeInfo[SKILL_TRIDENT].Set(sid++, "Trident", 0, 0, 321,"트라이던트");
; 556  : 	m_pTypeInfo[SKILL_TRIDENT].SetMP( 10 );	
; 557  : 	m_pTypeInfo[SKILL_TRIDENT].SetLearnLevel( 60 );
; 558  : 	m_pTypeInfo[SKILL_TRIDENT].SetSkillStep( SKILL_STEP_APPRENTICE );
; 559  : 	m_pTypeInfo[SKILL_TRIDENT].AddNextSkill( SKILL_ARMS_MASTERY2 );
; 560  : 	
; 561  : //	m_pTypeInfo[SKILL_MAKE_BOMB].Set(sid++, "Make Bomb", 0, 0, 37,"크리에이트붐");
; 562  : //	m_pTypeInfo[SKILL_MAKE_BOMB].SetMP( 10 );	
; 563  : //	m_pTypeInfo[SKILL_MAKE_BOMB].SetLearnLevel( 60 );
; 564  : //	m_pTypeInfo[SKILL_MAKE_BOMB].SetActive();
; 565  : //	m_pTypeInfo[SKILL_MAKE_BOMB].SetSkillStep( SKILL_STEP_APPRENTICE );
; 566  : //	m_pTypeInfo[SKILL_MAKE_BOMB].AddNextSkill( SKILL_ARMS_MASTERY2 );
; 567  : 
; 568  : 	m_pTypeInfo[SKILL_ARMS_MASTERY2].Set(sid++, "Arms Mastery 2", 0, 0, 324,"암스 마스터리 2");
; 569  : 	m_pTypeInfo[SKILL_ARMS_MASTERY2].SetMP( 0 );
; 570  : 	m_pTypeInfo[SKILL_ARMS_MASTERY2].SetLearnLevel( 65 );
; 571  : 	m_pTypeInfo[SKILL_ARMS_MASTERY2].SetPassive();
; 572  : 	m_pTypeInfo[SKILL_ARMS_MASTERY2].SetSkillStep( SKILL_STEP_APPRENTICE );
; 573  : 	m_pTypeInfo[SKILL_ARMS_MASTERY2].AddNextSkill( SKILL_INSTALL_MINE );
; 574  : 		
; 575  : //	m_pTypeInfo[SKILL_SR_MASTERY].Set(sid++, "SR Mastery", 0, 0, 38,"SR마스터리");
; 576  : //	m_pTypeInfo[SKILL_SR_MASTERY].SetMP( 0 );
; 577  : //	m_pTypeInfo[SKILL_SR_MASTERY].SetLearnLevel( 65 );
; 578  : //	m_pTypeInfo[SKILL_SR_MASTERY].SetPassive();
; 579  : //	m_pTypeInfo[SKILL_SR_MASTERY].SetSkillStep( SKILL_STEP_APPRENTICE );
; 580  : //	m_pTypeInfo[SKILL_SR_MASTERY].AddNextSkill( SKILL_INSTALL_MINE );
; 581  : 	
; 582  : 	m_pTypeInfo[SKILL_INSTALL_MINE].Set(sid++, "Install Mine", 0, 0, 39,"인스톨 마인");
; 583  : 	m_pTypeInfo[SKILL_INSTALL_MINE].SetMP( 20 );
; 584  : 	m_pTypeInfo[SKILL_INSTALL_MINE].SetLearnLevel( 70 );
; 585  :    	m_pTypeInfo[SKILL_INSTALL_MINE].SetActive();
; 586  : 	m_pTypeInfo[SKILL_INSTALL_MINE].SetSkillStep( SKILL_STEP_APPRENTICE );
; 587  : 	m_pTypeInfo[SKILL_INSTALL_MINE].AddNextSkill( SKILL_MAKE_MINE );
; 588  : 
; 589  : 	m_pTypeInfo[SKILL_MAKE_MINE].Set(sid++, "Create Mine", 0, 0, 40,"크리에이트 마인");
; 590  : 	m_pTypeInfo[SKILL_MAKE_MINE].SetMP( 20 );
; 591  : 	m_pTypeInfo[SKILL_MAKE_MINE].SetLearnLevel( 75 );
; 592  :    	m_pTypeInfo[SKILL_MAKE_MINE].SetActive();
; 593  : 	m_pTypeInfo[SKILL_MAKE_MINE].SetSkillStep( SKILL_STEP_APPRENTICE );
; 594  : 	m_pTypeInfo[SKILL_MAKE_MINE].AddNextSkill( SKILL_INSTALL_TRAP );
; 595  : 
; 596  : 	m_pTypeInfo[SKILL_INSTALL_TRAP].Set(sid++, "Install Trap", 0, 0, 331,"인스톨 트랩");
; 597  : 	m_pTypeInfo[SKILL_INSTALL_TRAP].SetMP( 20 );
; 598  : 	m_pTypeInfo[SKILL_INSTALL_TRAP].SetLearnLevel( 75 );
; 599  :    	m_pTypeInfo[SKILL_INSTALL_TRAP].SetActive();
; 600  : 	m_pTypeInfo[SKILL_INSTALL_TRAP].SetSkillStep( SKILL_STEP_APPRENTICE );
; 601  : 	m_pTypeInfo[SKILL_INSTALL_TRAP].AddNextSkill( SKILL_OBSERVING_EYE );
; 602  : 
; 603  : 	m_pTypeInfo[SKILL_OBSERVING_EYE].Set(sid++, "Observing Eye", 0, 0, 159,"옵져빙 아이");
; 604  : 	m_pTypeInfo[SKILL_OBSERVING_EYE].SetMP( 20 );
; 605  : 	m_pTypeInfo[SKILL_OBSERVING_EYE].SetLearnLevel( 85 );
; 606  : 	m_pTypeInfo[SKILL_OBSERVING_EYE].SetSkillStep( SKILL_STEP_APPRENTICE );
; 607  :    	m_pTypeInfo[SKILL_OBSERVING_EYE].AddNextSkill( SKILL_MOLE_SHOT );
; 608  : 
; 609  : 	m_pTypeInfo[SKILL_MOLE_SHOT].Set(sid++, "Mole Shot", 0, 0, 333,"모울 샷");
; 610  : 	m_pTypeInfo[SKILL_MOLE_SHOT].SetMP( 20 );
; 611  : 	m_pTypeInfo[SKILL_MOLE_SHOT].SetLearnLevel( 85 );
; 612  : 	m_pTypeInfo[SKILL_MOLE_SHOT].SetSkillStep( SKILL_STEP_APPRENTICE );
; 613  :    	m_pTypeInfo[SKILL_MOLE_SHOT].AddNextSkill( SKILL_BULLET_OF_LIGHT );
; 614  : 
; 615  : 	m_pTypeInfo[SKILL_BULLET_OF_LIGHT].Set(sid++, "Bullet of Light", 0, 0, 224,"불릿 오브 라이트");
; 616  : 	m_pTypeInfo[SKILL_BULLET_OF_LIGHT].SetMP( 20 );
; 617  : 	m_pTypeInfo[SKILL_BULLET_OF_LIGHT].SetLearnLevel( 85 );
; 618  : 	m_pTypeInfo[SKILL_BULLET_OF_LIGHT].SetSkillStep( SKILL_STEP_APPRENTICE );
; 619  :    	m_pTypeInfo[SKILL_BULLET_OF_LIGHT].AddNextSkill( SKILL_GUN_SHOT_GUIDANCE );
; 620  : 
; 621  : 	m_pTypeInfo[SKILL_GUN_SHOT_GUIDANCE].Set(sid++, "Gunshot Guidance", 0, 0, 225,"건샷 가이던스");
; 622  : 	m_pTypeInfo[SKILL_GUN_SHOT_GUIDANCE].SetMP( 20 );
; 623  : 	m_pTypeInfo[SKILL_GUN_SHOT_GUIDANCE].SetLearnLevel( 95 );
; 624  : 	m_pTypeInfo[SKILL_GUN_SHOT_GUIDANCE].SetSkillStep( SKILL_STEP_APPRENTICE );
; 625  : 	m_pTypeInfo[SKILL_GUN_SHOT_GUIDANCE].AddNextSkill( SKILL_JABBING_VEIN );
; 626  : 
; 627  : 	m_pTypeInfo[SKILL_JABBING_VEIN].Set(sid++, "Jabbing Vein", 0, 0, 315,"재빙 베인");
; 628  : 	m_pTypeInfo[SKILL_JABBING_VEIN].SetMP( 20 );
; 629  : 	m_pTypeInfo[SKILL_JABBING_VEIN].SetLearnLevel( 110 );
; 630  : 	m_pTypeInfo[SKILL_JABBING_VEIN].SetSkillStep( SKILL_STEP_APPRENTICE );
; 631  : 	m_pTypeInfo[SKILL_JABBING_VEIN].AddNextSkill( SKILL_ULTIMATE_BLOW );
; 632  : 
; 633  : 	m_pTypeInfo[SKILL_ULTIMATE_BLOW].Set(sid++, "Ultimate Blow", 0, 0, 256,"얼티메이트 블로우");
; 634  : 	m_pTypeInfo[SKILL_ULTIMATE_BLOW].SetMP( 25 );
; 635  : 	m_pTypeInfo[SKILL_ULTIMATE_BLOW].SetLearnLevel( 120 );
; 636  : 	m_pTypeInfo[SKILL_ULTIMATE_BLOW].SetSkillStep( SKILL_STEP_APPRENTICE );
; 637  : 	m_pTypeInfo[SKILL_ULTIMATE_BLOW].AddNextSkill( SKILL_INSTALL_TURRET );
; 638  : 	
; 639  : 
; 640  : 	// 2004, 9, 8, sobeit add start - 총 130 스킬
; 641  : 	m_pTypeInfo[SKILL_INSTALL_TURRET].Set(sid++, "Install Turret", 700, 270,  389,"인스톨 터렛");
; 642  : 	m_pTypeInfo[SKILL_INSTALL_TURRET].SetMP( 40 );
; 643  : 	m_pTypeInfo[SKILL_INSTALL_TURRET].SetSkillStep( SKILL_STEP_APPRENTICE );
; 644  : 	m_pTypeInfo[SKILL_INSTALL_TURRET].SetLearnLevel( 130 );
; 645  : 	m_pTypeInfo[SKILL_INSTALL_TURRET].AddNextSkill( SKILL_TURRET_FIRE );
; 646  : 	// 2004, 9, 8, sobeit add end - 총 130 스킬
; 647  : 
; 648  : 	m_pTypeInfo[SKILL_TURRET_FIRE].Set(sid++, "Install Turret Moved", 700, 270,  389,"인스톨 터렛");
; 649  : 	m_pTypeInfo[SKILL_TURRET_FIRE].SetMP( 40 );
; 650  : 	m_pTypeInfo[SKILL_TURRET_FIRE].SetSkillStep( SKILL_STEP_APPRENTICE );
; 651  : 	m_pTypeInfo[SKILL_TURRET_FIRE].SetLearnLevel( 130 );
; 652  : 	m_pTypeInfo[SKILL_TURRET_FIRE].AddNextSkill( SKILL_PLASMA_ROCKET_LAUNCHER );
; 653  : 
; 654  : 	// 2004, 11, 11, sobeit add start - 총 140 스킬
; 655  : 	m_pTypeInfo[SKILL_PLASMA_ROCKET_LAUNCHER].Set(sid++, "Plasma Rocket Luncher", 700, 270,  460,"플라즈마 로켓 런쳐");
; 656  : 	m_pTypeInfo[SKILL_PLASMA_ROCKET_LAUNCHER].SetMP( 40 );
; 657  : 	m_pTypeInfo[SKILL_PLASMA_ROCKET_LAUNCHER].SetSkillStep( SKILL_STEP_APPRENTICE );
; 658  : 	m_pTypeInfo[SKILL_PLASMA_ROCKET_LAUNCHER].SetLearnLevel( 140 );
; 659  : 	m_pTypeInfo[SKILL_PLASMA_ROCKET_LAUNCHER].AddNextSkill( SKILL_HARPOON_BOMB );
; 660  : 	// 2004, 11, 11, sobeit add end - 총 140 스킬
; 661  : 
; 662  : 	m_pTypeInfo[SKILL_HARPOON_BOMB].Set(sid++, "Harpoon Bomb", 700, 270,  471,"하푼 밤");
; 663  : 	m_pTypeInfo[SKILL_HARPOON_BOMB].SetMP( 40 );
; 664  : 	m_pTypeInfo[SKILL_HARPOON_BOMB].SetSkillStep( SKILL_STEP_SLAYER_GUN_BOMB_ADVANCEMENT );
; 665  : 	m_pTypeInfo[SKILL_HARPOON_BOMB].SetLearnLevel( 150 );
; 666  : 	m_pTypeInfo[SKILL_HARPOON_BOMB].AddNextSkill(SKILL_SATELLITE_BOMB);
; 667  : 
; 668  : 	m_pTypeInfo[SKILL_SATELLITE_BOMB].Set(sid++, "Satellite Bomb", 700, 270,  500,"세터라이트 빔");
; 669  : 	m_pTypeInfo[SKILL_SATELLITE_BOMB].SetMP( 40 );
; 670  : 	m_pTypeInfo[SKILL_SATELLITE_BOMB].SetSkillStep( SKILL_STEP_SLAYER_GUN_BOMB_ADVANCEMENT );
; 671  : 	m_pTypeInfo[SKILL_SATELLITE_BOMB].SetLearnLevel( 160 );
; 672  : 	m_pTypeInfo[SKILL_SATELLITE_BOMB].AddNextSkill( SKILL_SOUL_CHAIN );
; 673  : 
; 674  : 
; 675  : 	
; 676  : 	//----------------------------------------------------------------------     
; 677  : 	// Heal
; 678  : 	//----------------------------------------------------------------------	
; 679  : 	sid = 0;
; 680  : 	m_pTypeInfo[MAGIC_CURE_LIGHT_WOUNDS].Set(sid++, "Cure Light Wounds", 0, 0, 41,"큐어 라이트 운즈");
; 681  : 	m_pTypeInfo[MAGIC_CURE_LIGHT_WOUNDS].SetMP( 6 );
; 682  : 	m_pTypeInfo[MAGIC_CURE_LIGHT_WOUNDS].SetLearnLevel( 5 );
; 683  : 	m_pTypeInfo[MAGIC_CURE_LIGHT_WOUNDS].SetSkillStep( SKILL_STEP_APPRENTICE );
; 684  : 	m_pTypeInfo[MAGIC_CURE_LIGHT_WOUNDS].AddNextSkill( SKILL_HOLY_ARROW );	
; 685  : 	
; 686  : 	m_pTypeInfo[SKILL_HOLY_ARROW].Set(sid++, "HOLY_ARROW", 0, 0, 214,"홀리 애로우");
; 687  : 	m_pTypeInfo[SKILL_HOLY_ARROW].SetMP( 4 );
; 688  : 	m_pTypeInfo[SKILL_HOLY_ARROW].SetLearnLevel( 8 );
; 689  : 	m_pTypeInfo[SKILL_HOLY_ARROW].SetSkillStep( SKILL_STEP_APPRENTICE );
; 690  : 	m_pTypeInfo[SKILL_HOLY_ARROW].AddNextSkill( MAGIC_CURE_POISON );	
; 691  : 
; 692  : 	m_pTypeInfo[MAGIC_CURE_POISON].Set(sid++, "Cure Poison", 0, 0, 42,"큐어 포이즌");
; 693  : 	m_pTypeInfo[MAGIC_CURE_POISON].SetMP( 4 );
; 694  : 	m_pTypeInfo[MAGIC_CURE_POISON].SetLearnLevel( 10 );
; 695  : 	m_pTypeInfo[MAGIC_CURE_POISON].SetSkillStep( SKILL_STEP_APPRENTICE );
; 696  : 	m_pTypeInfo[MAGIC_CURE_POISON].AddNextSkill( MAGIC_PROTECTION_FROM_POISON );	
; 697  : 
; 698  : 	m_pTypeInfo[MAGIC_PROTECTION_FROM_POISON].Set(sid++, "Protection From Poison", 0, 0, 43,"프로텍션 프롬 포이즌");
; 699  : 	m_pTypeInfo[MAGIC_PROTECTION_FROM_POISON].SetMP( 6 );
; 700  : 	m_pTypeInfo[MAGIC_PROTECTION_FROM_POISON].SetLearnLevel( 15 );
; 701  : 	m_pTypeInfo[MAGIC_PROTECTION_FROM_POISON].SetSkillStep( SKILL_STEP_APPRENTICE );
; 702  : 	m_pTypeInfo[MAGIC_PROTECTION_FROM_POISON].AddNextSkill( MAGIC_CAUSE_LIGHT_WOUNDS );
; 703  : 		
; 704  : 	m_pTypeInfo[MAGIC_CAUSE_LIGHT_WOUNDS].Set(sid++, "Cause Light Wounds", 0, 0, 44,"커즈 라이트 운즈");
; 705  : 	m_pTypeInfo[MAGIC_CAUSE_LIGHT_WOUNDS].SetMP( 4 );
; 706  : 	m_pTypeInfo[MAGIC_CAUSE_LIGHT_WOUNDS].SetLearnLevel( 20 );
; 707  : 	m_pTypeInfo[MAGIC_CAUSE_LIGHT_WOUNDS].SetSkillStep( SKILL_STEP_APPRENTICE );
; 708  : 	m_pTypeInfo[MAGIC_CAUSE_LIGHT_WOUNDS].AddNextSkill( MAGIC_CURE_SERIOUS_WOUNDS );	
; 709  : 	
; 710  : 	m_pTypeInfo[MAGIC_CURE_SERIOUS_WOUNDS].Set(sid++, "Cure Serious Wounds", 0, 0, 45,"큐어 시리어스 운즈");
; 711  : 	m_pTypeInfo[MAGIC_CURE_SERIOUS_WOUNDS].SetMP( 4 );
; 712  : 	m_pTypeInfo[MAGIC_CURE_SERIOUS_WOUNDS].SetLearnLevel( 25 );
; 713  : 	m_pTypeInfo[MAGIC_CURE_SERIOUS_WOUNDS].SetSkillStep( SKILL_STEP_APPRENTICE );
; 714  : 	m_pTypeInfo[MAGIC_CURE_SERIOUS_WOUNDS].AddNextSkill( MAGIC_REMOVE_CURSE );	
; 715  : 	
; 716  : 	m_pTypeInfo[MAGIC_REMOVE_CURSE].Set(sid++, "Remove Curse", 0, 0, 46,"리무브 커스");
; 717  : 	m_pTypeInfo[MAGIC_REMOVE_CURSE].SetMP( 4 );
; 718  : 	m_pTypeInfo[MAGIC_REMOVE_CURSE].SetLearnLevel( 30 );
; 719  : 	m_pTypeInfo[MAGIC_REMOVE_CURSE].SetSkillStep( SKILL_STEP_APPRENTICE );
; 720  : 	m_pTypeInfo[MAGIC_REMOVE_CURSE].AddNextSkill( MAGIC_PROTECTION_FROM_CURSE );	
; 721  : 		
; 722  : 	m_pTypeInfo[MAGIC_PROTECTION_FROM_CURSE].Set(sid++, "Protection From Curse", 0, 0, 47,"프로텍션 프롬 커스");//207);
; 723  : 	m_pTypeInfo[MAGIC_PROTECTION_FROM_CURSE].SetMP( 12 );
; 724  : 	m_pTypeInfo[MAGIC_PROTECTION_FROM_CURSE].SetLearnLevel( 35 );
; 725  : 	m_pTypeInfo[MAGIC_PROTECTION_FROM_CURSE].SetSkillStep( SKILL_STEP_APPRENTICE );
; 726  : 	m_pTypeInfo[MAGIC_PROTECTION_FROM_CURSE].AddNextSkill( MAGIC_RESURRECT );	
; 727  : 	
; 728  : 	m_pTypeInfo[MAGIC_RESURRECT].Set(sid++, "Resurrect", 0, 0, 126,"리져렉트");
; 729  : 	m_pTypeInfo[MAGIC_RESURRECT].SetMP( 4 );
; 730  : 	m_pTypeInfo[MAGIC_RESURRECT].SetLearnLevel( 40 );
; 731  : 	m_pTypeInfo[MAGIC_RESURRECT].SetSkillStep( SKILL_STEP_APPRENTICE );
; 732  : 	m_pTypeInfo[MAGIC_RESURRECT].AddNextSkill( MAGIC_CAUSE_SERIOUS_WOUNDS );	
; 733  : 
; 734  : 	m_pTypeInfo[MAGIC_CAUSE_SERIOUS_WOUNDS].Set(sid++, "Cause Serious Wounds", 0, 0, 48,"커즈시리어스 운즈");
; 735  : 	m_pTypeInfo[MAGIC_CAUSE_SERIOUS_WOUNDS].SetMP( 4 );
; 736  : 	m_pTypeInfo[MAGIC_CAUSE_SERIOUS_WOUNDS].SetLearnLevel( 45 );
; 737  : 	m_pTypeInfo[MAGIC_CAUSE_SERIOUS_WOUNDS].SetSkillStep( SKILL_STEP_APPRENTICE );
; 738  : 	m_pTypeInfo[MAGIC_CAUSE_SERIOUS_WOUNDS].AddNextSkill( SKILL_CREATE_HOLY_POTION );	
; 739  : 
; 740  : 	m_pTypeInfo[SKILL_CREATE_HOLY_POTION].Set(sid++, "Create Holy Potion", 0, 0, 327,"크리에이트 홀리 포션");
; 741  : 	m_pTypeInfo[SKILL_CREATE_HOLY_POTION].SetMP( 4 );
; 742  : 	m_pTypeInfo[SKILL_CREATE_HOLY_POTION].SetLearnLevel( 47 );
; 743  : 	m_pTypeInfo[SKILL_CREATE_HOLY_POTION].SetSkillStep( SKILL_STEP_APPRENTICE );
; 744  : 	m_pTypeInfo[SKILL_CREATE_HOLY_POTION].AddNextSkill( MAGIC_CURE_CRITICAL_WOUNDS );	
; 745  : 	
; 746  : 	m_pTypeInfo[MAGIC_CURE_CRITICAL_WOUNDS].Set(sid++, "Cure Critical Wounds", 0, 0, 49,"큐어 크리티컬 운즈");
; 747  : 	m_pTypeInfo[MAGIC_CURE_CRITICAL_WOUNDS].SetMP( 4 );
; 748  : 	m_pTypeInfo[MAGIC_CURE_CRITICAL_WOUNDS].SetLearnLevel( 50 );
; 749  : 	m_pTypeInfo[MAGIC_CURE_CRITICAL_WOUNDS].SetSkillStep( SKILL_STEP_APPRENTICE );
; 750  : 	m_pTypeInfo[MAGIC_CURE_CRITICAL_WOUNDS].AddNextSkill( MAGIC_PRAYER );	
; 751  : 	
; 752  : 	m_pTypeInfo[MAGIC_PRAYER].Set(sid++, "Prayer", 0, 0, 125,"프레이어");
; 753  : 	m_pTypeInfo[MAGIC_PRAYER].SetMP( 12 );
; 754  : 	m_pTypeInfo[MAGIC_PRAYER].SetLearnLevel( 55 );
; 755  : 	m_pTypeInfo[MAGIC_PRAYER].SetPassive();
; 756  : 	m_pTypeInfo[MAGIC_PRAYER].SetSkillStep( SKILL_STEP_APPRENTICE );
; 757  : 	m_pTypeInfo[MAGIC_PRAYER].AddNextSkill( SKILL_DENIAL_MAGIC );		
; 758  : 	
; 759  : 	m_pTypeInfo[SKILL_DENIAL_MAGIC].Set(sid++, "Denial Magic", 0, 0, 248 ,"디나이얼 매직");
; 760  : 	m_pTypeInfo[SKILL_DENIAL_MAGIC].SetMP( 12 );
; 761  : 	m_pTypeInfo[SKILL_DENIAL_MAGIC].SetLearnLevel( 65 );
; 762  : 	m_pTypeInfo[SKILL_DENIAL_MAGIC].SetSkillStep( SKILL_STEP_APPRENTICE );
; 763  : 	m_pTypeInfo[SKILL_DENIAL_MAGIC].AddNextSkill( MAGIC_PROTECTION_FROM_ACID );
; 764  : 
; 765  : 	m_pTypeInfo[MAGIC_PROTECTION_FROM_ACID].Set(sid++, "Protection From Acid", 0, 0, 50,"프로텍션 프롬 애시드");
; 766  : 	m_pTypeInfo[MAGIC_PROTECTION_FROM_ACID].SetMP( 12 );
; 767  : 	m_pTypeInfo[MAGIC_PROTECTION_FROM_ACID].SetLearnLevel( 60 );
; 768  : 	m_pTypeInfo[MAGIC_PROTECTION_FROM_ACID].SetSkillStep( SKILL_STEP_APPRENTICE );
; 769  : 	m_pTypeInfo[MAGIC_PROTECTION_FROM_ACID].AddNextSkill( MAGIC_SACRIFICE );		
; 770  : 		
; 771  : 	m_pTypeInfo[MAGIC_SACRIFICE].Set(sid++, "Sacrifice", 0, 0, 51,"새크리파이스");
; 772  : 	m_pTypeInfo[MAGIC_SACRIFICE].SetMP( 12 );
; 773  : 	m_pTypeInfo[MAGIC_SACRIFICE].SetLearnLevel( 65 );
; 774  : 	m_pTypeInfo[MAGIC_SACRIFICE].SetSkillStep( SKILL_STEP_APPRENTICE );
; 775  : 	m_pTypeInfo[MAGIC_SACRIFICE].AddNextSkill( MAGIC_CAUSE_CRITICAL_WOUNDS );		
; 776  : 	
; 777  : 	m_pTypeInfo[MAGIC_CAUSE_CRITICAL_WOUNDS].Set(sid++, "Cause Critical Wounds", 0, 0, 52,"커즈 크리티컬 운즈");
; 778  : 	m_pTypeInfo[MAGIC_CAUSE_CRITICAL_WOUNDS].SetMP( 4 );
; 779  : 	m_pTypeInfo[MAGIC_CAUSE_CRITICAL_WOUNDS].SetLearnLevel( 70 );
; 780  : 	m_pTypeInfo[MAGIC_CAUSE_CRITICAL_WOUNDS].SetSkillStep( SKILL_STEP_APPRENTICE );
; 781  : 	m_pTypeInfo[MAGIC_CAUSE_CRITICAL_WOUNDS].AddNextSkill( SKILL_PROTECTION_FROM_BLOOD );	
; 782  : 
; 783  : 	m_pTypeInfo[SKILL_PROTECTION_FROM_BLOOD].Set(sid++, "Protection From Blood", 0, 0, 334,"프로택션 프롬 블러드");
; 784  : 	m_pTypeInfo[SKILL_PROTECTION_FROM_BLOOD].SetMP( 4 );
; 785  : 	m_pTypeInfo[SKILL_PROTECTION_FROM_BLOOD].SetLearnLevel( 73 );
; 786  : 	m_pTypeInfo[SKILL_PROTECTION_FROM_BLOOD].SetSkillStep( SKILL_STEP_APPRENTICE );
; 787  : 	m_pTypeInfo[SKILL_PROTECTION_FROM_BLOOD].AddNextSkill( MAGIC_CURE_ALL );	
; 788  : 
; 789  : 	m_pTypeInfo[MAGIC_CURE_ALL].Set(sid++, "Cure All", 0, 0, 53,"큐어 올");
; 790  : 	m_pTypeInfo[MAGIC_CURE_ALL].SetMP( 30 );
; 791  : 	m_pTypeInfo[MAGIC_CURE_ALL].SetLearnLevel( 75 );
; 792  : 	m_pTypeInfo[MAGIC_CURE_ALL].SetSkillStep( SKILL_STEP_APPRENTICE );
; 793  : 	m_pTypeInfo[MAGIC_CURE_ALL].AddNextSkill( SKILL_VIGOR_DROP );
; 794  : 
; 795  : 	m_pTypeInfo[SKILL_VIGOR_DROP].Set(sid++, "Vigor Drop", 0, 0, 54,"비거 드롭");
; 796  : 	m_pTypeInfo[SKILL_VIGOR_DROP].SetMP( 30 );
; 797  : 	m_pTypeInfo[SKILL_VIGOR_DROP].SetLearnLevel( 80 );
; 798  : 	m_pTypeInfo[SKILL_VIGOR_DROP].SetSkillStep( SKILL_STEP_APPRENTICE );
; 799  : 	m_pTypeInfo[SKILL_VIGOR_DROP].AddNextSkill( SKILL_PEACE );
; 800  : 
; 801  : 	m_pTypeInfo[SKILL_PEACE].Set(sid++, "Peace", 0, 0, 160,"피스");
; 802  : 	m_pTypeInfo[SKILL_PEACE].SetMP( 30 );
; 803  : 	m_pTypeInfo[SKILL_PEACE].SetLearnLevel( 85 );
; 804  : 	m_pTypeInfo[SKILL_PEACE].SetSkillStep( SKILL_STEP_APPRENTICE );
; 805  : 	m_pTypeInfo[SKILL_PEACE].AddNextSkill( SKILL_ETERNITY );
; 806  : 
; 807  : 	m_pTypeInfo[SKILL_ETERNITY].Set(sid++, "Eternity", 0, 0, 328,"이터니티");
; 808  : 	m_pTypeInfo[SKILL_ETERNITY].SetMP( 30 );
; 809  : 	m_pTypeInfo[SKILL_ETERNITY].SetLearnLevel( 88 );
; 810  : 	m_pTypeInfo[SKILL_ETERNITY].SetSkillStep( SKILL_STEP_APPRENTICE );
; 811  : 	m_pTypeInfo[SKILL_ETERNITY].AddNextSkill( SKILL_ACTIVATION );
; 812  : 	
; 813  : 	m_pTypeInfo[SKILL_ACTIVATION].Set(sid++, "Activation", 0, 0, 162,"액티베이션");
; 814  : 	m_pTypeInfo[SKILL_ACTIVATION].SetMP( 25 );
; 815  : 	m_pTypeInfo[SKILL_ACTIVATION].SetLearnLevel( 90 );
; 816  : 	m_pTypeInfo[SKILL_ACTIVATION].SetSkillStep( SKILL_STEP_APPRENTICE );
; 817  : 	m_pTypeInfo[SKILL_ACTIVATION].AddNextSkill( MAGIC_REGENERATION );
; 818  : 
; 819  : 	m_pTypeInfo[MAGIC_REGENERATION].Set(sid++, "Regeneration", 0, 0, 220,"리제너레이션");
; 820  : 	m_pTypeInfo[MAGIC_REGENERATION].SetMP( 30 );
; 821  : 	m_pTypeInfo[MAGIC_REGENERATION].SetLearnLevel( 95 );
; 822  : 	m_pTypeInfo[MAGIC_REGENERATION].SetSkillStep( SKILL_STEP_APPRENTICE );
; 823  : 	m_pTypeInfo[MAGIC_REGENERATION].AddNextSkill( SKILL_TURN_UNDEAD );
; 824  : 
; 825  : 	m_pTypeInfo[SKILL_TURN_UNDEAD].Set(sid++, "Turn Undead", 0, 0, 221,"턴 언데드");
; 826  : 	m_pTypeInfo[SKILL_TURN_UNDEAD].SetMP( 30 );
; 827  : 	m_pTypeInfo[SKILL_TURN_UNDEAD].SetSkillStep( SKILL_STEP_APPRENTICE );
; 828  : 	m_pTypeInfo[SKILL_TURN_UNDEAD].SetLearnLevel( 100 );
; 829  : 	m_pTypeInfo[SKILL_TURN_UNDEAD].AddNextSkill( SKILL_GREAT_HEAL );
; 830  : 
; 831  : 	m_pTypeInfo[SKILL_GREAT_HEAL].Set(sid++, "Great Heal", 0, 0, 316,"그레이트 힐");
; 832  : 	m_pTypeInfo[SKILL_GREAT_HEAL].SetMP( 30 );
; 833  : 	m_pTypeInfo[SKILL_GREAT_HEAL].SetSkillStep( SKILL_STEP_APPRENTICE );
; 834  : 	m_pTypeInfo[SKILL_GREAT_HEAL].SetLearnLevel( 110 );
; 835  : 	m_pTypeInfo[SKILL_GREAT_HEAL].AddNextSkill( SKILL_ILLENDUE );
; 836  : 
; 837  : 	m_pTypeInfo[SKILL_ILLENDUE].Set(sid++, "Illendue", 0, 0, 257,"일렌듀");
; 838  : 	m_pTypeInfo[SKILL_ILLENDUE].SetMP( 40 );
; 839  : 	m_pTypeInfo[SKILL_ILLENDUE].SetSkillStep( SKILL_STEP_APPRENTICE );
; 840  : 	m_pTypeInfo[SKILL_ILLENDUE].SetLearnLevel( 120 );
; 841  : 	m_pTypeInfo[SKILL_ILLENDUE].AddNextSkill( SKILL_WHITSUNTIDE );
; 842  : 	
; 843  : 	// 2004, 9, 8, sobeit add start - 힐 130 스킬
; 844  : 	m_pTypeInfo[SKILL_WHITSUNTIDE].Set(sid++, "whitsuntide", 700, 270,  390,"위트선타이드");
; 845  : 	m_pTypeInfo[SKILL_WHITSUNTIDE].SetMP( 40 );
; 846  : 	m_pTypeInfo[SKILL_WHITSUNTIDE].SetSkillStep( SKILL_STEP_APPRENTICE );
; 847  : 	m_pTypeInfo[SKILL_WHITSUNTIDE].SetLearnLevel( 130 );
; 848  : 	m_pTypeInfo[SKILL_WHITSUNTIDE].AddNextSkill( SKILL_BOMBING_STAR );
; 849  : 	// 2004, 9, 8, sobeit add end - 힐 130 스킬
; 850  : 
; 851  : 	// 2004, 11, 11, sobeit add start - 힐 140 스킬
; 852  : 	m_pTypeInfo[SKILL_BOMBING_STAR].Set(sid++, "Bombing Star", 700, 270,  461,"버밍 스타");
; 853  : 	m_pTypeInfo[SKILL_BOMBING_STAR].SetMP( 40 );
; 854  : 	m_pTypeInfo[SKILL_BOMBING_STAR].SetSkillStep( SKILL_STEP_APPRENTICE );
; 855  : 	m_pTypeInfo[SKILL_BOMBING_STAR].SetLearnLevel( 140 );
; 856  : #if __CONTENTS(__SECOND_RARE_SKILL)
; 857  : 	m_pTypeInfo[SKILL_BOMBING_STAR].AddDelayGroup( SKILL_GENESIS );
; 858  : #endif //__SECOND_RARE_SKILL
; 859  : 	m_pTypeInfo[SKILL_BOMBING_STAR].AddNextSkill( SKILL_PASSING_HEAL );
; 860  : 	// 2004, 11, 11, sobeit add end - 힐 140 스킬
; 861  : 
; 862  : 	m_pTypeInfo[SKILL_PASSING_HEAL].Set(sid++, "Passing Heal", 700, 270,  472,"패싱 힐");
; 863  : 	m_pTypeInfo[SKILL_PASSING_HEAL].SetMP( 40 );
; 864  : 	m_pTypeInfo[SKILL_PASSING_HEAL].SetSkillStep( SKILL_STEP_SLAYER_HEAL_ADVANCEMENT );
; 865  : 	m_pTypeInfo[SKILL_PASSING_HEAL].SetLearnLevel( 150 );
; 866  : 	m_pTypeInfo[SKILL_PASSING_HEAL].AddNextSkill( SKILL_ILLUSION_INVERSION);
; 867  : 
; 868  : 
; 869  : 	m_pTypeInfo[SKILL_ILLUSION_INVERSION].Set(sid++, "Illusion Inversion", 700, 270,  501,"일루전 인버스");
; 870  : 	m_pTypeInfo[SKILL_ILLUSION_INVERSION].SetMP( 40 );
; 871  : 	m_pTypeInfo[SKILL_ILLUSION_INVERSION].SetSkillStep( SKILL_STEP_SLAYER_HEAL_ADVANCEMENT );
; 872  : 	m_pTypeInfo[SKILL_ILLUSION_INVERSION].SetLearnLevel( 160 );
; 873  : 	m_pTypeInfo[SKILL_ILLUSION_INVERSION].AddNextSkill( SKILL_SOUL_CHAIN );
; 874  : 
; 875  : 		
; 876  : 	
; 877  : 
; 878  : 	//----------------------------------------------------------------------     
; 879  : 	// Enchant
; 880  : 	//----------------------------------------------------------------------	
; 881  : 	sid = 0;
; 882  : 	m_pTypeInfo[MAGIC_CREATE_HOLY_WATER].Set(sid++, "Create Holy Water", 0, 0, 57,"크리에이트 홀리 워터");
; 883  : 	m_pTypeInfo[MAGIC_CREATE_HOLY_WATER].SetMP( 6 );
; 884  : 	m_pTypeInfo[MAGIC_CREATE_HOLY_WATER].SetLearnLevel( 5 );
; 885  : 	m_pTypeInfo[MAGIC_CREATE_HOLY_WATER].SetSkillStep( SKILL_STEP_APPRENTICE );
; 886  : 	m_pTypeInfo[MAGIC_CREATE_HOLY_WATER].AddNextSkill( SKILL_LIGHT_BALL );
; 887  : 	
; 888  : 	m_pTypeInfo[SKILL_LIGHT_BALL].Set(sid++, "Light Ball", 0, 0, 215,"라이트 볼");
; 889  : 	m_pTypeInfo[SKILL_LIGHT_BALL].SetMP( 6 );
; 890  : 	m_pTypeInfo[SKILL_LIGHT_BALL].SetLearnLevel( 8 );
; 891  : 	m_pTypeInfo[SKILL_LIGHT_BALL].SetSkillStep( SKILL_STEP_APPRENTICE );
; 892  : 	m_pTypeInfo[SKILL_LIGHT_BALL].AddNextSkill( MAGIC_LIGHT );
; 893  : 	
; 894  : 	m_pTypeInfo[MAGIC_LIGHT].Set(sid++, "Light", 0, 0, 58,"라이트");
; 895  : 	m_pTypeInfo[MAGIC_LIGHT].SetMP( 4 );
; 896  : 	m_pTypeInfo[MAGIC_LIGHT].SetLearnLevel( 10 );
; 897  : 	m_pTypeInfo[MAGIC_LIGHT].SetSkillStep( SKILL_STEP_APPRENTICE );
; 898  : 	m_pTypeInfo[MAGIC_LIGHT].AddNextSkill( MAGIC_DETECT_HIDDEN );
; 899  : 
; 900  : 	m_pTypeInfo[MAGIC_DETECT_HIDDEN].Set(sid++, "Detect Hidden", 0, 0, 59,"디텍트 히든");
; 901  : 	m_pTypeInfo[MAGIC_DETECT_HIDDEN].SetMP( 4 );
; 902  : 	m_pTypeInfo[MAGIC_DETECT_HIDDEN].SetLearnLevel( 15 );
; 903  : 	m_pTypeInfo[MAGIC_DETECT_HIDDEN].SetSkillStep( SKILL_STEP_APPRENTICE );
; 904  : 	m_pTypeInfo[MAGIC_DETECT_HIDDEN].AddNextSkill( MAGIC_AURA_BALL );
; 905  : 	
; 906  : 	m_pTypeInfo[MAGIC_AURA_BALL].Set(sid++, "Aura Ball", 0, 0, 60,"오라 볼");
; 907  : 	m_pTypeInfo[MAGIC_AURA_BALL].SetMP( 6 );
; 908  : 	m_pTypeInfo[MAGIC_AURA_BALL].SetLearnLevel( 20 );
; 909  : 	m_pTypeInfo[MAGIC_AURA_BALL].SetSkillStep( SKILL_STEP_APPRENTICE );
; 910  : 	m_pTypeInfo[MAGIC_AURA_BALL].AddNextSkill( MAGIC_BLESS );
; 911  : 
; 912  : 	m_pTypeInfo[MAGIC_BLESS].Set(sid++, "Bless", 0, 0, 61,"블레스");
; 913  : 	m_pTypeInfo[MAGIC_BLESS].SetMP( 6 );
; 914  : 	m_pTypeInfo[MAGIC_BLESS].SetLearnLevel( 25 );
; 915  : 	m_pTypeInfo[MAGIC_BLESS].SetSkillStep( SKILL_STEP_APPRENTICE );
; 916  : 	m_pTypeInfo[MAGIC_BLESS].AddNextSkill( MAGIC_CONTINUAL_LIGHT );
; 917  : 			
; 918  : 	m_pTypeInfo[MAGIC_CONTINUAL_LIGHT].Set(sid++, "Continual Light", 0, 0, 62,"컨티뉴얼 라이트");
; 919  : 	m_pTypeInfo[MAGIC_CONTINUAL_LIGHT].SetMP( 10 );
; 920  : 	m_pTypeInfo[MAGIC_CONTINUAL_LIGHT].SetLearnLevel( 30 );
; 921  : 	m_pTypeInfo[MAGIC_CONTINUAL_LIGHT].SetSkillStep( SKILL_STEP_APPRENTICE );
; 922  : 	m_pTypeInfo[MAGIC_CONTINUAL_LIGHT].AddNextSkill( MAGIC_FLARE );
; 923  : 		
; 924  : 	m_pTypeInfo[MAGIC_FLARE].Set(sid++, "Flare", 0, 0, 63,"플레어");
; 925  : 	m_pTypeInfo[MAGIC_FLARE].SetMP( 10 );
; 926  : 	m_pTypeInfo[MAGIC_FLARE].SetLearnLevel( 35 );
; 927  : 	m_pTypeInfo[MAGIC_FLARE].SetSkillStep( SKILL_STEP_APPRENTICE );
; 928  : 	m_pTypeInfo[MAGIC_FLARE].AddNextSkill( MAGIC_PURIFY );
; 929  : 
; 930  : 	m_pTypeInfo[MAGIC_PURIFY].Set(sid++, "Purify", 0, 0, 64,"퓨리파이");
; 931  : 	m_pTypeInfo[MAGIC_PURIFY].SetMP( 10 );
; 932  : 	m_pTypeInfo[MAGIC_PURIFY].SetLearnLevel( 40 );
; 933  : 	m_pTypeInfo[MAGIC_PURIFY].SetSkillStep( SKILL_STEP_APPRENTICE );
; 934  : 	m_pTypeInfo[MAGIC_PURIFY].AddNextSkill( SKILL_MERCY_GROUND );
; 935  : 
; 936  : 	m_pTypeInfo[SKILL_MERCY_GROUND].Set(sid++, "Mercy Ground", 0, 0, 332,"머시 그라운드");
; 937  : 	m_pTypeInfo[SKILL_MERCY_GROUND].SetMP( 14 );
; 938  : 	m_pTypeInfo[SKILL_MERCY_GROUND].SetLearnLevel( 40 );
; 939  : 	m_pTypeInfo[SKILL_MERCY_GROUND].SetSkillStep( SKILL_STEP_APPRENTICE );
; 940  : 	m_pTypeInfo[SKILL_MERCY_GROUND].AddNextSkill( MAGIC_AURA_RING );
; 941  : 
; 942  : 	m_pTypeInfo[MAGIC_AURA_RING].Set(sid++, "Aura Ring", 0, 0, 65,"오라 링");//212);
; 943  : 	m_pTypeInfo[MAGIC_AURA_RING].SetMP( 4 );
; 944  : 	m_pTypeInfo[MAGIC_AURA_RING].SetLearnLevel( 45 );
; 945  : 	m_pTypeInfo[MAGIC_AURA_RING].SetSkillStep( SKILL_STEP_APPRENTICE );
; 946  : 	m_pTypeInfo[MAGIC_AURA_RING].AddNextSkill( MAGIC_STRIKING );
; 947  : 
; 948  : 	m_pTypeInfo[MAGIC_STRIKING].Set(sid++, "Striking", 0, 0, 66,"스트라이킹");
; 949  : 	m_pTypeInfo[MAGIC_STRIKING].SetMP( 6 );
; 950  : 	m_pTypeInfo[MAGIC_STRIKING].SetLearnLevel( 50 );
; 951  : 	m_pTypeInfo[MAGIC_STRIKING].SetSkillStep( SKILL_STEP_APPRENTICE );
; 952  : 	m_pTypeInfo[MAGIC_STRIKING].AddNextSkill( MAGIC_MEDITATION );
; 953  : 	
; 954  : 	m_pTypeInfo[MAGIC_MEDITATION].Set(sid++, "Meditation", 0, 0, 124,"메디테이션");
; 955  : 	m_pTypeInfo[MAGIC_MEDITATION].SetMP( 10 );
; 956  : 	m_pTypeInfo[MAGIC_MEDITATION].SetLearnLevel( 55 );
; 957  : 	m_pTypeInfo[MAGIC_MEDITATION].SetPassive();
; 958  : 	m_pTypeInfo[MAGIC_MEDITATION].SetSkillStep( SKILL_STEP_APPRENTICE );
; 959  : 	m_pTypeInfo[MAGIC_MEDITATION].AddNextSkill( MAGIC_DETECT_INVISIBILITY );
; 960  : 
; 961  : 	m_pTypeInfo[MAGIC_DETECT_INVISIBILITY].Set(sid++, "Detect Invisibility", 0, 0, 67,"디텍트 인비지빌리티");
; 962  : 	m_pTypeInfo[MAGIC_DETECT_INVISIBILITY].SetMP( 10 );
; 963  : 	m_pTypeInfo[MAGIC_DETECT_INVISIBILITY].SetLearnLevel( 60 );
; 964  : 	m_pTypeInfo[MAGIC_DETECT_INVISIBILITY].SetSkillStep( SKILL_STEP_APPRENTICE );
; 965  : 	m_pTypeInfo[MAGIC_DETECT_INVISIBILITY].AddNextSkill( SKILL_REQUITAL );
; 966  : 
; 967  : 	m_pTypeInfo[SKILL_REQUITAL].Set(sid++,"Requital", 0, 0, 251 ,"리퀘이틀");
; 968  : 	m_pTypeInfo[SKILL_REQUITAL].SetMP( 10 );
; 969  : 	m_pTypeInfo[SKILL_REQUITAL].SetLearnLevel( 61 );
; 970  : 	m_pTypeInfo[SKILL_REQUITAL].SetSkillStep( SKILL_STEP_APPRENTICE );
; 971  : 	m_pTypeInfo[SKILL_REQUITAL].AddNextSkill(MAGIC_AURA_SHIELD );
; 972  : 
; 973  : 	m_pTypeInfo[MAGIC_AURA_SHIELD].Set(sid++, "Aura Shield", 0, 0, 69,"오라 쉴드");
; 974  : 	m_pTypeInfo[MAGIC_AURA_SHIELD].SetMP( 12 );
; 975  : 	m_pTypeInfo[MAGIC_AURA_SHIELD].SetLearnLevel( 65 );
; 976  : 	m_pTypeInfo[MAGIC_AURA_SHIELD].SetSkillStep( SKILL_STEP_APPRENTICE );
; 977  : 	m_pTypeInfo[MAGIC_AURA_SHIELD].AddNextSkill( MAGIC_VISIBLE );
; 978  : 
; 979  : 	m_pTypeInfo[MAGIC_VISIBLE].Set(sid++, "Visible", 0, 0, 71,"비져블");
; 980  : 	m_pTypeInfo[MAGIC_VISIBLE].SetMP( 12 );
; 981  : 	m_pTypeInfo[MAGIC_VISIBLE].SetLearnLevel( 70 );
; 982  : 	m_pTypeInfo[MAGIC_VISIBLE].SetSkillStep( SKILL_STEP_APPRENTICE );
; 983  : 	m_pTypeInfo[MAGIC_VISIBLE].AddNextSkill( SKILL_ENERGY_DROP );
; 984  : 
; 985  : 	m_pTypeInfo[SKILL_ENERGY_DROP].Set(sid++, "Aura Storm", 0, 0, 54,"오라 스톰");
; 986  : 	m_pTypeInfo[SKILL_ENERGY_DROP].SetMP( 12 );
; 987  : 	m_pTypeInfo[SKILL_ENERGY_DROP].SetLearnLevel( 75 );
; 988  : 	m_pTypeInfo[SKILL_ENERGY_DROP].SetSkillStep( SKILL_STEP_APPRENTICE );
; 989  : 	m_pTypeInfo[SKILL_ENERGY_DROP].AddNextSkill( SKILL_SANCTUARY );
; 990  : 
; 991  : 	m_pTypeInfo[SKILL_SANCTUARY].Set(sid++, "Sanctuary", 0, 0, 163,"생츄어리");
; 992  : 	m_pTypeInfo[SKILL_SANCTUARY].SetMP( 12 );
; 993  : 	m_pTypeInfo[SKILL_SANCTUARY].SetLearnLevel( 85 );
; 994  : 	m_pTypeInfo[SKILL_SANCTUARY].SetSkillStep( SKILL_STEP_APPRENTICE );
; 995  : 	m_pTypeInfo[SKILL_SANCTUARY].AddNextSkill( SKILL_HOLY_ARMOR );	
; 996  : 
; 997  : 	m_pTypeInfo[SKILL_HOLY_ARMOR].Set(sid++, "Holy Armor", 0, 0, 330,"홀리 아머");
; 998  : 	m_pTypeInfo[SKILL_HOLY_ARMOR].SetMP( 38 );
; 999  : 	m_pTypeInfo[SKILL_HOLY_ARMOR].SetLearnLevel( 90 );
; 1000 : 	m_pTypeInfo[SKILL_HOLY_ARMOR].SetSkillStep( SKILL_STEP_APPRENTICE );
; 1001 : 	m_pTypeInfo[SKILL_HOLY_ARMOR].AddNextSkill( SKILL_REBUKE );	
; 1002 : //20080226 버그 수정 리플렉션은 겜에서 완전 삭제해야 함
; 1003 : //	m_pTypeInfo[SKILL_REFLECTION].Set(sid++, "Reflection", 0, 0, 165,"리플렉션");
; 1004 : //	m_pTypeInfo[SKILL_REFLECTION].SetMP( 12 );
; 1005 : //	m_pTypeInfo[SKILL_REFLECTION].SetLearnLevel( 90 );
; 1006 : //	m_pTypeInfo[SKILL_REFLECTION].SetSkillStep( SKILL_STEP_APPRENTICE );
; 1007 : //	m_pTypeInfo[SKILL_REFLECTION].AddNextSkill( SKILL_REBUKE );
; 1008 : 	
; 1009 : 	m_pTypeInfo[SKILL_REBUKE].Set(sid++, "Rebuke", 0, 0, 222,"리뷰크");
; 1010 : 	m_pTypeInfo[SKILL_REBUKE].SetMP( 12 );
; 1011 : 	m_pTypeInfo[SKILL_REBUKE].SetLearnLevel( 95 );	
; 1012 : 	m_pTypeInfo[SKILL_REBUKE].SetSkillStep( SKILL_STEP_APPRENTICE );
; 1013 : 	m_pTypeInfo[SKILL_REBUKE].AddNextSkill( SKILL_SPIRIT_GUARD );
; 1014 : 	
; 1015 : 	m_pTypeInfo[SKILL_SPIRIT_GUARD].Set(sid++, "Spirit Guard", 0, 0, 223,"스피릿 가드");
; 1016 : 	m_pTypeInfo[SKILL_SPIRIT_GUARD].SetMP( 12 );
; 1017 : 	m_pTypeInfo[SKILL_SPIRIT_GUARD].SetLearnLevel( 100 );
; 1018 : 	m_pTypeInfo[SKILL_SPIRIT_GUARD].SetSkillStep( SKILL_STEP_APPRENTICE );
; 1019 : 	m_pTypeInfo[SKILL_SPIRIT_GUARD].AddNextSkill( SKILL_DIVINE_GUIDANCE );
; 1020 : 
; 1021 : 	m_pTypeInfo[SKILL_DIVINE_GUIDANCE].Set(sid++, "Divine Guidance", 0, 0, 317,"디바인 가이던스");
; 1022 : 	m_pTypeInfo[SKILL_DIVINE_GUIDANCE].SetMP( 12 );
; 1023 : 	m_pTypeInfo[SKILL_DIVINE_GUIDANCE].SetLearnLevel( 110 );
; 1024 : 	m_pTypeInfo[SKILL_DIVINE_GUIDANCE].SetSkillStep( SKILL_STEP_APPRENTICE );
; 1025 : 	m_pTypeInfo[SKILL_DIVINE_GUIDANCE].AddNextSkill( SKILL_LIGHTNESS );
; 1026 : 
; 1027 : 	m_pTypeInfo[SKILL_LIGHTNESS].Set(sid++, "Lightness", 0, 0, 258,"라이트니스");
; 1028 : 	m_pTypeInfo[SKILL_LIGHTNESS].SetMP( 40 );
; 1029 : 	m_pTypeInfo[SKILL_LIGHTNESS].SetLearnLevel( 100 );
; 1030 : 	m_pTypeInfo[SKILL_LIGHTNESS].SetSkillStep( SKILL_STEP_APPRENTICE );
; 1031 : 	m_pTypeInfo[SKILL_LIGHTNESS].AddNextSkill( SKILL_SWEEP_VICE_1 );
; 1032 : 
; 1033 : 	// 2004, 9, 8, sobeit add start - 인챈 130 스킬
; 1034 : 	m_pTypeInfo[SKILL_SWEEP_VICE_1].Set(sid++, "Sweep vice", 700, 270,  391,"스윕 바이스");
; 1035 : 	m_pTypeInfo[SKILL_SWEEP_VICE_1].SetMP( 40 );
; 1036 : 	m_pTypeInfo[SKILL_SWEEP_VICE_1].SetSkillStep( SKILL_STEP_APPRENTICE );
; 1037 : 	m_pTypeInfo[SKILL_SWEEP_VICE_1].SetLearnLevel( 130 );
; 1038 : 	m_pTypeInfo[SKILL_SWEEP_VICE_1].AddNextSkill( SKILL_INTIMATE_GRAIL );
; 1039 : 	// 2004, 9, 8, sobeit add end - 인챈 130 스킬
; 1040 : 
; 1041 : 	// 2004, 11, 11, sobeit add start - 인챈 140 스킬
; 1042 : 	m_pTypeInfo[SKILL_INTIMATE_GRAIL].Set(sid++, "Intimate Grail", 700, 270,  462,"인터맷 그레일");
; 1043 : 	m_pTypeInfo[SKILL_INTIMATE_GRAIL].SetMP( 40 );
; 1044 : 	m_pTypeInfo[SKILL_INTIMATE_GRAIL].SetSkillStep( SKILL_STEP_APPRENTICE );
; 1045 : 	m_pTypeInfo[SKILL_INTIMATE_GRAIL].SetLearnLevel( 140 );
; 1046 : 	m_pTypeInfo[SKILL_INTIMATE_GRAIL].AddNextSkill( SKILL_ROTTEN_APPLE );
; 1047 : 	// 2004, 11, 11, sobeit add end - 인챈 140 스킬
; 1048 : 
; 1049 : 	m_pTypeInfo[SKILL_ROTTEN_APPLE].Set(sid++, "Rotten Apple", 700, 270,  473,"로튼 애플");
; 1050 : 	m_pTypeInfo[SKILL_ROTTEN_APPLE].SetMP( 40 );
; 1051 : 	m_pTypeInfo[SKILL_ROTTEN_APPLE].SetSkillStep( SKILL_STEP_SLAYER_ENCHANT_ADVANCEMENT );
; 1052 : 	m_pTypeInfo[SKILL_ROTTEN_APPLE].SetLearnLevel( 150 );
; 1053 : 	m_pTypeInfo[SKILL_ROTTEN_APPLE].AddNextSkill( SKILL_HEAVEN_GROUND);
; 1054 : 	// 2005, 1, 3, sobeit add end - 
; 1055 : 
; 1056 : 	m_pTypeInfo[SKILL_HEAVEN_GROUND].Set(sid++, "Heaven Ground", 700, 270,  502,"헤븐 그라운드");
; 1057 : 	m_pTypeInfo[SKILL_HEAVEN_GROUND].SetMP( 40 );
; 1058 : 	m_pTypeInfo[SKILL_HEAVEN_GROUND].SetSkillStep( SKILL_STEP_SLAYER_ENCHANT_ADVANCEMENT );
; 1059 : 	m_pTypeInfo[SKILL_HEAVEN_GROUND].SetLearnLevel( 160 );
; 1060 : 	m_pTypeInfo[SKILL_HEAVEN_GROUND].AddNextSkill( SKILL_SOUL_CHAIN );
; 1061 : 
; 1062 : 
; 1063 : 	//----------------------------------------------------------------------
; 1064 : 	// 뱀프마법
; 1065 : 	//----------------------------------------------------------------------
; 1066 : 	sid = 0;
; 1067 : 	m_pTypeInfo[MAGIC_HIDE].Set(sid++, "Hide", 0, 0, 96,"하이드");
; 1068 : 	m_pTypeInfo[MAGIC_HIDE].SetVampireSkill();	
; 1069 : 	m_pTypeInfo[MAGIC_HIDE].SetSkillStep( SKILL_STEP_VAMPIRE_INNATE );
; 1070 : 	m_pTypeInfo[MAGIC_HIDE].SetMP( 8 );
; 1071 : 	m_pTypeInfo[MAGIC_HIDE].SetLearnLevel( 3 );
; 1072 : 	m_pTypeInfo[MAGIC_HIDE].AddNextSkill( SKILL_HANDS_OF_WISDOM );
; 1073 : 
; 1074 : 	m_pTypeInfo[SKILL_HANDS_OF_WISDOM].Set(sid++, "Hands of Wisdom", 0, 0, 213,"핸즈 오브 위즈덤");
; 1075 : 	m_pTypeInfo[SKILL_HANDS_OF_WISDOM].SetVampireSkill();
; 1076 : 	m_pTypeInfo[SKILL_HANDS_OF_WISDOM].SetSkillStep( SKILL_STEP_VAMPIRE_INNATE );
; 1077 : 	m_pTypeInfo[SKILL_HANDS_OF_WISDOM].SetMP( 15 );
; 1078 : 	m_pTypeInfo[SKILL_HANDS_OF_WISDOM].SetLearnLevel( 5 );
; 1079 : 	m_pTypeInfo[SKILL_HANDS_OF_WISDOM].AddNextSkill( MAGIC_POISONOUS_HANDS );
; 1080 : 
; 1081 : 	m_pTypeInfo[MAGIC_POISONOUS_HANDS].Set(sid++, "Poisonous Hands", 0, 0, 74,"포이즈너스 핸즈");
; 1082 : 	m_pTypeInfo[MAGIC_POISONOUS_HANDS].SetVampireSkill();
; 1083 : 	m_pTypeInfo[MAGIC_POISONOUS_HANDS].SetSkillStep( SKILL_STEP_VAMPIRE_POISON );
; 1084 : 	m_pTypeInfo[MAGIC_POISONOUS_HANDS].SetMP( 15 );
; 1085 : 	m_pTypeInfo[MAGIC_POISONOUS_HANDS].SetLearnLevel( 6 );
; 1086 : 	m_pTypeInfo[MAGIC_POISONOUS_HANDS].AddNextSkill( MAGIC_ACID_TOUCH );
; 1087 : 
; 1088 : 	m_pTypeInfo[MAGIC_ACID_TOUCH].Set(sid++, "Acid Touch", 0, 0, 79,"애시드 터치");
; 1089 : 	m_pTypeInfo[MAGIC_ACID_TOUCH].SetVampireSkill();
; 1090 : 	m_pTypeInfo[MAGIC_ACID_TOUCH].SetSkillStep( SKILL_STEP_VAMPIRE_ACID );
; 1091 : 	m_pTypeInfo[MAGIC_ACID_TOUCH].SetMP( 20 );
; 1092 : 	m_pTypeInfo[MAGIC_ACID_TOUCH].SetLearnLevel( 9 );
; 1093 : 	m_pTypeInfo[MAGIC_ACID_TOUCH].AddNextSkill( MAGIC_GREEN_POISON );
; 1094 : 	
; 1095 : 	m_pTypeInfo[MAGIC_GREEN_POISON].Set(sid++, "Green Poison", 0, 0, 75,"그린 포이즌");
; 1096 : 	m_pTypeInfo[MAGIC_GREEN_POISON].SetVampireSkill();
; 1097 : 	m_pTypeInfo[MAGIC_GREEN_POISON].SetSkillStep( SKILL_STEP_VAMPIRE_POISON );
; 1098 : 	m_pTypeInfo[MAGIC_GREEN_POISON].SetMP( 25 );
; 1099 : 	m_pTypeInfo[MAGIC_GREEN_POISON].SetLearnLevel( 12 );
; 1100 : 	m_pTypeInfo[MAGIC_GREEN_POISON].AddNextSkill( MAGIC_DARKNESS );
; 1101 : 
; 1102 : 	m_pTypeInfo[MAGIC_DARKNESS].Set(sid++, "Darkness", 0, 0, 97,"다크니스");
; 1103 : 	m_pTypeInfo[MAGIC_DARKNESS].SetVampireSkill();
; 1104 : 	m_pTypeInfo[MAGIC_DARKNESS].SetSkillStep( SKILL_STEP_VAMPIRE_INNATE );
; 1105 : 	m_pTypeInfo[MAGIC_DARKNESS].SetMP( 10 );
; 1106 : 	m_pTypeInfo[MAGIC_DARKNESS].SetLearnLevel( 15 );
; 1107 : 	m_pTypeInfo[MAGIC_DARKNESS].AddNextSkill( MAGIC_YELLOW_POISON );
; 1108 : 
; 1109 : 	m_pTypeInfo[MAGIC_YELLOW_POISON].Set(sid++, "Yellow Poison", 0, 0, 76,"옐로우 포이즌");
; 1110 : 	m_pTypeInfo[MAGIC_YELLOW_POISON].SetVampireSkill();
; 1111 : 	m_pTypeInfo[MAGIC_YELLOW_POISON].SetSkillStep( SKILL_STEP_VAMPIRE_POISON );
; 1112 : 	m_pTypeInfo[MAGIC_YELLOW_POISON].SetMP( 30 );
; 1113 : 	m_pTypeInfo[MAGIC_YELLOW_POISON].SetLearnLevel( 18 );
; 1114 : 	m_pTypeInfo[MAGIC_YELLOW_POISON].AddNextSkill( MAGIC_TRANSFORM_TO_BAT );
; 1115 : 
; 1116 : 	m_pTypeInfo[MAGIC_TRANSFORM_TO_BAT].Set(sid++, "Transform to Bat", 0, 0, 99,"트랜스폼 투 뱃");
; 1117 : 	m_pTypeInfo[MAGIC_TRANSFORM_TO_BAT].SetVampireSkill();
; 1118 : 	m_pTypeInfo[MAGIC_TRANSFORM_TO_BAT].SetSkillStep( SKILL_STEP_VAMPIRE_INNATE );
; 1119 : 	m_pTypeInfo[MAGIC_TRANSFORM_TO_BAT].SetMP( 45 );
; 1120 : 	m_pTypeInfo[MAGIC_TRANSFORM_TO_BAT].SetLearnLevel( 45 );
; 1121 : 	m_pTypeInfo[MAGIC_TRANSFORM_TO_BAT].AddNextSkill( MAGIC_ACID_BOLT );
; 1122 : 
; 1123 : 	m_pTypeInfo[MAGIC_ACID_BOLT].Set(sid++, "Acid Bolt", 0, 0, 80,"애시드 볼트");
; 1124 : 	m_pTypeInfo[MAGIC_ACID_BOLT].SetVampireSkill();
; 1125 : 	m_pTypeInfo[MAGIC_ACID_BOLT].SetSkillStep( SKILL_STEP_VAMPIRE_ACID );
; 1126 : 	m_pTypeInfo[MAGIC_ACID_BOLT].SetMP( 30 );
; 1127 : 	m_pTypeInfo[MAGIC_ACID_BOLT].SetLearnLevel( 21 );
; 1128 : 	m_pTypeInfo[MAGIC_ACID_BOLT].AddNextSkill( MAGIC_GREEN_STALKER );
; 1129 : 	
; 1130 : 	m_pTypeInfo[MAGIC_GREEN_STALKER].Set(sid++, "Green Stalker", 0, 0, 77,"그린 스토커");
; 1131 : 	m_pTypeInfo[MAGIC_GREEN_STALKER].SetVampireSkill();
; 1132 : 	m_pTypeInfo[MAGIC_GREEN_STALKER].SetSkillStep( SKILL_STEP_VAMPIRE_POISON );
; 1133 : 	m_pTypeInfo[MAGIC_GREEN_STALKER].SetMP( 35 );
; 1134 : 	m_pTypeInfo[MAGIC_GREEN_STALKER].SetLearnLevel( 24 );
; 1135 : 	m_pTypeInfo[MAGIC_GREEN_STALKER].AddNextSkill( MAGIC_BLOODY_TUNNEL );
; 1136 : 
; 1137 : 	m_pTypeInfo[MAGIC_BLOODY_TUNNEL].Set(sid++, "Bloody Tunnel", 0, 0,  117,"블러디 터널");
; 1138 : 	m_pTypeInfo[MAGIC_BLOODY_TUNNEL].SetVampireSkill();
; 1139 : 	m_pTypeInfo[MAGIC_BLOODY_TUNNEL].SetSkillStep( SKILL_STEP_VAMPIRE_BLOOD );
; 1140 : 	m_pTypeInfo[MAGIC_BLOODY_TUNNEL].SetMP( 0 );
; 1141 : 	m_pTypeInfo[MAGIC_BLOODY_TUNNEL].SetLearnLevel( 31 );
; 1142 : 	m_pTypeInfo[MAGIC_BLOODY_TUNNEL].AddNextSkill( MAGIC_PARALYZE );
; 1143 : 
; 1144 : 
; 1145 : 	m_pTypeInfo[MAGIC_PARALYZE].Set(sid++, "Paralyze", 0, 0, 83,"페럴라이즈");
; 1146 : 	m_pTypeInfo[MAGIC_PARALYZE].SetVampireSkill();
; 1147 : 	m_pTypeInfo[MAGIC_PARALYZE].SetSkillStep( SKILL_STEP_VAMPIRE_CURSE );
; 1148 : 	m_pTypeInfo[MAGIC_PARALYZE].SetMP( 30 );
; 1149 : 	m_pTypeInfo[MAGIC_PARALYZE].SetLearnLevel( 27 );	
; 1150 : 	m_pTypeInfo[MAGIC_PARALYZE].AddNextSkill( MAGIC_BLOODY_MARK );
; 1151 : 
; 1152 : 	
; 1153 : 	m_pTypeInfo[MAGIC_BLOODY_MARK].Set(sid++, "Bloody Mark", 0, 0,  116,"블러디 마크");
; 1154 : 	m_pTypeInfo[MAGIC_BLOODY_MARK].SetVampireSkill();
; 1155 : 	m_pTypeInfo[MAGIC_BLOODY_MARK].SetSkillStep( SKILL_STEP_VAMPIRE_BLOOD );
; 1156 : 	m_pTypeInfo[MAGIC_BLOODY_MARK].SetMP( 0 );
; 1157 : 	m_pTypeInfo[MAGIC_BLOODY_MARK].SetLearnLevel( 34 );
; 1158 : 	m_pTypeInfo[MAGIC_BLOODY_MARK].AddNextSkill( MAGIC_DARKBLUE_POISON );
; 1159 : 
; 1160 : 
; 1161 : 	m_pTypeInfo[MAGIC_DARKBLUE_POISON].Set(sid++, "DarkBlue Poison", 0, 0, 78,"다크블루 포이즌");
; 1162 : 	m_pTypeInfo[MAGIC_DARKBLUE_POISON].SetVampireSkill();
; 1163 : 	m_pTypeInfo[MAGIC_DARKBLUE_POISON].SetSkillStep( SKILL_STEP_VAMPIRE_POISON );
; 1164 : 	m_pTypeInfo[MAGIC_DARKBLUE_POISON].SetMP( 43 );
; 1165 : 	m_pTypeInfo[MAGIC_DARKBLUE_POISON].SetLearnLevel( 30 );
; 1166 : 	m_pTypeInfo[MAGIC_DARKBLUE_POISON].AddNextSkill( MAGIC_TRANSFORM_TO_WOLF );
; 1167 : 
; 1168 : 	m_pTypeInfo[MAGIC_TRANSFORM_TO_WOLF].Set(sid++, "Transform to Wolf", 0, 0, 98,"트랜스폼 투 울프");
; 1169 : 	m_pTypeInfo[MAGIC_TRANSFORM_TO_WOLF].SetVampireSkill();
; 1170 : 	m_pTypeInfo[MAGIC_TRANSFORM_TO_WOLF].SetSkillStep( SKILL_STEP_VAMPIRE_INNATE );
; 1171 : 	m_pTypeInfo[MAGIC_TRANSFORM_TO_WOLF].SetMP( 45 );
; 1172 : 	m_pTypeInfo[MAGIC_TRANSFORM_TO_WOLF].SetLearnLevel( 39 );
; 1173 : 	m_pTypeInfo[MAGIC_TRANSFORM_TO_WOLF].AddNextSkill( SKILL_POISON_STRIKE );
; 1174 : 
; 1175 : 	m_pTypeInfo[SKILL_POISON_STRIKE].Set(sid++, "Poison Strike", 0, 0, 130,"포이즌 스트라이크");
; 1176 : 	m_pTypeInfo[SKILL_POISON_STRIKE].SetVampireSkill();
; 1177 : 	m_pTypeInfo[SKILL_POISON_STRIKE].SetSkillStep( SKILL_STEP_VAMPIRE_POISON );
; 1178 : 	m_pTypeInfo[SKILL_POISON_STRIKE].SetMP( 30 );
; 1179 : 	m_pTypeInfo[SKILL_POISON_STRIKE].SetLearnLevel( 36 );
; 1180 : 	m_pTypeInfo[SKILL_POISON_STRIKE].AddNextSkill( MAGIC_DOOM );
; 1181 : 
; 1182 : 	m_pTypeInfo[MAGIC_DOOM].Set(sid++, "Doom", 0, 0, 84,"둠");
; 1183 : 	m_pTypeInfo[MAGIC_DOOM].SetVampireSkill();
; 1184 : 	m_pTypeInfo[MAGIC_DOOM].SetSkillStep( SKILL_STEP_VAMPIRE_CURSE );
; 1185 : 	m_pTypeInfo[MAGIC_DOOM].SetMP( 30 );
; 1186 : 	m_pTypeInfo[MAGIC_DOOM].SetLearnLevel( 36 );
; 1187 : 	m_pTypeInfo[MAGIC_DOOM].AddNextSkill( MAGIC_ACID_BALL );
; 1188 : 	
; 1189 : 	m_pTypeInfo[MAGIC_ACID_BALL].Set(sid++, "Acid Ball", 0, 0, 81,"애시드 볼");	
; 1190 : 	m_pTypeInfo[MAGIC_ACID_BALL].SetVampireSkill();
; 1191 : 	m_pTypeInfo[MAGIC_ACID_BALL].SetSkillStep( SKILL_STEP_VAMPIRE_ACID );
; 1192 : 	m_pTypeInfo[MAGIC_ACID_BALL].SetMP( 45 );
; 1193 : 	m_pTypeInfo[MAGIC_ACID_BALL].SetLearnLevel( 42 );
; 1194 : 	m_pTypeInfo[MAGIC_ACID_BALL].AddNextSkill( MAGIC_INVISIBILITY );
; 1195 : 	
; 1196 : 	m_pTypeInfo[MAGIC_INVISIBILITY].Set(sid++, "Invisibllity", 0, 0, 100,"인비져빌리티");
; 1197 : 	m_pTypeInfo[MAGIC_INVISIBILITY].SetVampireSkill();
; 1198 : 	m_pTypeInfo[MAGIC_INVISIBILITY].SetSkillStep( SKILL_STEP_VAMPIRE_INNATE );
; 1199 : 	m_pTypeInfo[MAGIC_INVISIBILITY].SetMP( 45 );
; 1200 : 	m_pTypeInfo[MAGIC_INVISIBILITY].SetLearnLevel( 42 );
; 1201 : 	m_pTypeInfo[MAGIC_INVISIBILITY].AddNextSkill( MAGIC_RAPID_GLIDING );
; 1202 : 
; 1203 : 	m_pTypeInfo[MAGIC_RAPID_GLIDING].Set(sid++, "Rapid Gliding", 0, 0, 244,"래피드 글라이딩");	
; 1204 : 	m_pTypeInfo[MAGIC_RAPID_GLIDING].SetVampireSkill();
; 1205 : 	m_pTypeInfo[MAGIC_RAPID_GLIDING].SetSkillStep( SKILL_STEP_VAMPIRE_INNATE );
; 1206 : 	m_pTypeInfo[MAGIC_RAPID_GLIDING].SetMP( 33 );
; 1207 : 	m_pTypeInfo[MAGIC_RAPID_GLIDING].SetLearnLevel( 47 );
; 1208 : 	m_pTypeInfo[MAGIC_RAPID_GLIDING].AddNextSkill( SKILL_NAIL_MASTERY );
; 1209 : 
; 1210 : 	m_pTypeInfo[SKILL_NAIL_MASTERY].Set(sid++,"Nail Mastery", 0, 0, 246,"네일 마스터리");
; 1211 : 	m_pTypeInfo[SKILL_NAIL_MASTERY].SetSkillStep( SKILL_STEP_VAMPIRE_INNATE );
; 1212 : 	m_pTypeInfo[SKILL_NAIL_MASTERY].SetVampireSkill();
; 1213 : 	m_pTypeInfo[SKILL_NAIL_MASTERY].SetPassive();
; 1214 : 	m_pTypeInfo[SKILL_NAIL_MASTERY].SetLearnLevel( 57 );
; 1215 : 	m_pTypeInfo[SKILL_NAIL_MASTERY].AddNextSkill( SKILL_TRANSFUSION );
; 1216 : 
; 1217 : 	m_pTypeInfo[SKILL_TRANSFUSION].Set(sid++, "Transfusion", 0, 0, 167,"트렌스퓨션");
; 1218 : 	m_pTypeInfo[SKILL_TRANSFUSION].SetVampireSkill();
; 1219 : 	m_pTypeInfo[SKILL_TRANSFUSION].SetSkillStep( SKILL_STEP_VAMPIRE_BLOOD );
; 1220 : 	m_pTypeInfo[SKILL_TRANSFUSION].SetMP( 55 );
; 1221 : 	m_pTypeInfo[SKILL_TRANSFUSION].SetLearnLevel( 50 );
; 1222 : 	m_pTypeInfo[SKILL_TRANSFUSION].AddNextSkill( SKILL_ACID_STRIKE );
; 1223 : 
; 1224 : 	m_pTypeInfo[SKILL_ACID_STRIKE].Set(sid++, "Acid Strike", 0, 0, 132,"애시드 스트라이크");
; 1225 : 	m_pTypeInfo[SKILL_ACID_STRIKE].SetVampireSkill();
; 1226 : 	m_pTypeInfo[SKILL_ACID_STRIKE].SetSkillStep( SKILL_STEP_VAMPIRE_ACID );
; 1227 : 	m_pTypeInfo[SKILL_ACID_STRIKE].SetMP( 55 );
; 1228 : 	m_pTypeInfo[SKILL_ACID_STRIKE].SetLearnLevel( 65 );
; 1229 : 	m_pTypeInfo[SKILL_ACID_STRIKE].AddNextSkill( MAGIC_ACID_SWAMP );
; 1230 : 
; 1231 : 	m_pTypeInfo[MAGIC_ACID_SWAMP].Set(sid++, "Acid Swamp", 0, 0, 82,"애시드 스웜");
; 1232 : 	m_pTypeInfo[MAGIC_ACID_SWAMP].SetVampireSkill();
; 1233 : 	m_pTypeInfo[MAGIC_ACID_SWAMP].SetSkillStep( SKILL_STEP_VAMPIRE_ACID );
; 1234 : 	m_pTypeInfo[MAGIC_ACID_SWAMP].SetMP( 55 );
; 1235 : 	m_pTypeInfo[MAGIC_ACID_SWAMP].SetLearnLevel( 65 );
; 1236 : 	m_pTypeInfo[MAGIC_ACID_SWAMP].AddNextSkill( SKILL_POISON_STORM );
; 1237 : 
; 1238 : 	m_pTypeInfo[SKILL_POISON_STORM].Set(sid++, "Poison Storm", 0, 0, 131,"포이즌 스톰");
; 1239 : 	m_pTypeInfo[SKILL_POISON_STORM].SetVampireSkill();
; 1240 : 	m_pTypeInfo[SKILL_POISON_STORM].SetSkillStep( SKILL_STEP_VAMPIRE_POISON );
; 1241 : 	m_pTypeInfo[SKILL_POISON_STORM].SetMP( 30 );
; 1242 : 	m_pTypeInfo[SKILL_POISON_STORM].SetLearnLevel( 36 );
; 1243 : 	m_pTypeInfo[SKILL_POISON_STORM].AddNextSkill( MAGIC_SEDUCTION );
; 1244 : 
; 1245 : 	m_pTypeInfo[MAGIC_SEDUCTION].Set(sid++, "Seduction", 0, 0, 119,"시덕션");
; 1246 : 	m_pTypeInfo[MAGIC_SEDUCTION].SetVampireSkill();
; 1247 : 	m_pTypeInfo[MAGIC_SEDUCTION].SetSkillStep( SKILL_STEP_VAMPIRE_CURSE );
; 1248 : 	m_pTypeInfo[MAGIC_SEDUCTION].SetMP( 55 );
; 1249 : 	m_pTypeInfo[MAGIC_SEDUCTION].SetLearnLevel( 48 );
; 1250 : 	m_pTypeInfo[MAGIC_SEDUCTION].AddNextSkill( MAGIC_BLOODY_NAIL );
; 1251 : 
; 1252 : 	m_pTypeInfo[SKILL_BLOODY_WAVE].Set(sid++, "Bloody Wave", 0, 0, 174,"블러디 웨이브");
; 1253 : 	m_pTypeInfo[SKILL_BLOODY_WAVE].SetVampireSkill();
; 1254 : 	m_pTypeInfo[SKILL_BLOODY_WAVE].SetSkillStep( SKILL_STEP_VAMPIRE_BLOOD );
; 1255 : 	m_pTypeInfo[SKILL_BLOODY_WAVE].SetMP( 90 );
; 1256 : 	m_pTypeInfo[SKILL_BLOODY_WAVE].SetLearnLevel( 64 );
; 1257 : 	m_pTypeInfo[SKILL_BLOODY_WAVE].AddNextSkill( SKILL_BLOODY_STRIKE );
; 1258 : 
; 1259 : 	m_pTypeInfo[SKILL_BLOODY_STRIKE].Set(sid++, "Bloody Strike", 0, 0, 250,"블러디 스트라이크");
; 1260 : 	m_pTypeInfo[SKILL_BLOODY_STRIKE].SetVampireSkill();
; 1261 : 	m_pTypeInfo[SKILL_BLOODY_STRIKE].SetSkillStep( SKILL_STEP_VAMPIRE_BLOOD );
; 1262 : 	m_pTypeInfo[SKILL_BLOODY_STRIKE].SetMP( 76 );
; 1263 : 	m_pTypeInfo[SKILL_BLOODY_STRIKE].SetLearnLevel( 66 );
; 1264 : 	m_pTypeInfo[SKILL_BLOODY_STRIKE].AddNextSkill( SKILL_ACID_STORM );
; 1265 : 		
; 1266 : 	m_pTypeInfo[MAGIC_BLOODY_NAIL].Set(sid++, "Bloody Nail", 0, 0, 127,"블러디 네일");
; 1267 : 	m_pTypeInfo[MAGIC_BLOODY_NAIL].SetVampireSkill();
; 1268 : 	m_pTypeInfo[MAGIC_BLOODY_NAIL].SetSkillStep( SKILL_STEP_VAMPIRE_BLOOD );
; 1269 : 	m_pTypeInfo[MAGIC_BLOODY_NAIL].SetMP( 60 );
; 1270 : 	m_pTypeInfo[MAGIC_BLOODY_NAIL].SetLearnLevel( 75 );
; 1271 : 	m_pTypeInfo[MAGIC_BLOODY_NAIL].AddNextSkill( MAGIC_BLOODY_KNIFE  );
; 1272 : 
; 1273 : 	m_pTypeInfo[SKILL_ACID_STORM].Set(sid++, "Acid Storm", 0, 0, 133,"애시드 스톰");
; 1274 : 	m_pTypeInfo[SKILL_ACID_STORM].SetVampireSkill();
; 1275 : 	m_pTypeInfo[SKILL_ACID_STORM].SetSkillStep( SKILL_STEP_VAMPIRE_ACID );
; 1276 : 	m_pTypeInfo[SKILL_ACID_STORM].SetMP( 55 );
; 1277 : 	m_pTypeInfo[SKILL_ACID_STORM].SetLearnLevel( 65 );
; 1278 : 	m_pTypeInfo[SKILL_ACID_STORM].AddNextSkill( SKILL_EXTREME );
; 1279 : 
; 1280 : 	m_pTypeInfo[MAGIC_BLOODY_KNIFE].Set(sid++, "Bloody Knife", 0, 0, 128,"블러디 나이프");
; 1281 : 	m_pTypeInfo[MAGIC_BLOODY_KNIFE].SetVampireSkill();
; 1282 : 	m_pTypeInfo[MAGIC_BLOODY_KNIFE].SetSkillStep( SKILL_STEP_VAMPIRE_BLOOD );
; 1283 : 	m_pTypeInfo[MAGIC_BLOODY_KNIFE].SetMP( 63 );
; 1284 : 	m_pTypeInfo[MAGIC_BLOODY_KNIFE].SetLearnLevel( 58 );
; 1285 : 	m_pTypeInfo[MAGIC_BLOODY_KNIFE].AddNextSkill( SKILL_BLOODY_WAVE );
; 1286 : 
; 1287 : 	m_pTypeInfo[SKILL_EXTREME].Set(sid++, "Dark Revenge", 0, 0, 134,"다크 리벤지");
; 1288 : 	m_pTypeInfo[SKILL_EXTREME].SetVampireSkill();
; 1289 : 	m_pTypeInfo[SKILL_EXTREME].SetSkillStep( SKILL_STEP_VAMPIRE_INNATE );
; 1290 : 	m_pTypeInfo[SKILL_EXTREME].SetMP( 63 );
; 1291 : 	m_pTypeInfo[SKILL_EXTREME].SetLearnLevel( 63 );
; 1292 : 	m_pTypeInfo[SKILL_EXTREME].AddNextSkill( MAGIC_BLOODY_BALL );
; 1293 : 
; 1294 : 	m_pTypeInfo[MAGIC_BLOODY_BALL].Set(sid++, "Bloody Ball", 0, 0, 129,"블러디 볼");
; 1295 : 	m_pTypeInfo[MAGIC_BLOODY_BALL].SetVampireSkill();
; 1296 : 	m_pTypeInfo[MAGIC_BLOODY_BALL].SetSkillStep( SKILL_STEP_VAMPIRE_BLOOD );
; 1297 : 	m_pTypeInfo[MAGIC_BLOODY_BALL].SetMP( 65 );
; 1298 : 	m_pTypeInfo[MAGIC_BLOODY_BALL].SetLearnLevel( 66 );
; 1299 : 	m_pTypeInfo[MAGIC_BLOODY_BALL].AddNextSkill( MAGIC_SUMMON_CASKET );
; 1300 : 
; 1301 : 	m_pTypeInfo[MAGIC_SUMMON_CASKET].Set(sid++, "Summon Casket", 0, 0, 120,"서먼 캐스킷");
; 1302 : 	m_pTypeInfo[MAGIC_SUMMON_CASKET].SetVampireSkill();
; 1303 : 	m_pTypeInfo[MAGIC_SUMMON_CASKET].SetSkillStep( SKILL_STEP_VAMPIRE_SUMMON );
; 1304 : 	m_pTypeInfo[MAGIC_SUMMON_CASKET].SetMP( 70 );
; 1305 : 	m_pTypeInfo[MAGIC_SUMMON_CASKET].SetLearnLevel( 55 );
; 1306 : 	m_pTypeInfo[MAGIC_SUMMON_CASKET].AddNextSkill( SKILL_STONE_SKIN );
; 1307 : 
; 1308 : //	m_pTypeInfo[SKILL_CHARM].Set(sid++, "Kidnap", 0, 0, 135,"Kidnap");
; 1309 : //	m_pTypeInfo[SKILL_CHARM].SetVampireSkill();
; 1310 : //	m_pTypeInfo[SKILL_CHARM].SetSkillStep( SKILL_STEP_VAMPIRE_INNATE );
; 1311 : //	m_pTypeInfo[SKILL_CHARM].SetMP( 30 );
; 1312 : //	m_pTypeInfo[SKILL_CHARM].SetLearnLevel( 73 );
; 1313 : //	m_pTypeInfo[SKILL_CHARM].AddNextSkill( MAGIC_DEATH );	
; 1314 : 
; 1315 : 	m_pTypeInfo[SKILL_STONE_SKIN].Set(sid++, "Stone Skin", 0, 0, 338,"스톤 스킨");
; 1316 : 	m_pTypeInfo[SKILL_STONE_SKIN].SetVampireSkill();
; 1317 : 	m_pTypeInfo[SKILL_STONE_SKIN].SetSkillStep( SKILL_STEP_VAMPIRE_INNATE );
; 1318 : 	m_pTypeInfo[SKILL_STONE_SKIN].SetMP( 10 );
; 1319 : 	m_pTypeInfo[SKILL_STONE_SKIN].SetLearnLevel( 68 );
; 1320 : 	m_pTypeInfo[SKILL_STONE_SKIN].AddNextSkill( SKILL_TRANSFORM_TO_WERWOLF );
; 1321 : 
; 1322 : 	m_pTypeInfo[SKILL_TRANSFORM_TO_WERWOLF].Set(sid++, "Transform To Werwolf", 0, 0, 336,"트랜스폼 투 워울프");
; 1323 : 	m_pTypeInfo[SKILL_TRANSFORM_TO_WERWOLF].SetVampireSkill();
; 1324 : 	m_pTypeInfo[SKILL_TRANSFORM_TO_WERWOLF].SetSkillStep( SKILL_STEP_VAMPIRE_INNATE );
; 1325 : 	m_pTypeInfo[SKILL_TRANSFORM_TO_WERWOLF].SetMP( 10 );
; 1326 : 	m_pTypeInfo[SKILL_TRANSFORM_TO_WERWOLF].SetLearnLevel( 72 );
; 1327 : 	m_pTypeInfo[SKILL_TRANSFORM_TO_WERWOLF].AddNextSkill( SKILL_GRAY_DARKNESS );
; 1328 : 		
; 1329 : 	m_pTypeInfo[SKILL_GRAY_DARKNESS].Set(sid++, "Gray Darkness", 0, 0, 339,"그레이 다크니스");
; 1330 : 	m_pTypeInfo[SKILL_GRAY_DARKNESS].SetVampireSkill();
; 1331 : 	m_pTypeInfo[SKILL_GRAY_DARKNESS].SetSkillStep( SKILL_STEP_VAMPIRE_INNATE );
; 1332 : 	m_pTypeInfo[SKILL_GRAY_DARKNESS].SetMP( 10 );
; 1333 : 	m_pTypeInfo[SKILL_GRAY_DARKNESS].SetLearnLevel( 78 );
; 1334 : 	m_pTypeInfo[SKILL_GRAY_DARKNESS].AddNextSkill( SKILL_ACID_ERUPTION );
; 1335 : 	
; 1336 : 	m_pTypeInfo[SKILL_ACID_ERUPTION].Set(sid++, "Acid Eruption", 0, 0, 340,"엑시트 이럽션");
; 1337 : 	m_pTypeInfo[SKILL_ACID_ERUPTION].SetVampireSkill();
; 1338 : 	m_pTypeInfo[SKILL_ACID_ERUPTION].SetSkillStep( SKILL_STEP_VAMPIRE_ACID );
; 1339 : 	m_pTypeInfo[SKILL_ACID_ERUPTION].SetMP( 60 );
; 1340 : 	m_pTypeInfo[SKILL_ACID_ERUPTION].SetLearnLevel( 80 );
; 1341 : 	m_pTypeInfo[SKILL_ACID_ERUPTION].AddNextSkill( SKILL_TALON_OF_CROW );
; 1342 : 
; 1343 : 	m_pTypeInfo[SKILL_TALON_OF_CROW].Set(sid++, "Talon Of Crow", 0, 0, 337,"탈론 오브 크로우");
; 1344 : 	m_pTypeInfo[SKILL_TALON_OF_CROW].SetVampireSkill();
; 1345 : 	m_pTypeInfo[SKILL_TALON_OF_CROW].SetSkillStep( SKILL_STEP_VAMPIRE_INNATE );
; 1346 : 	m_pTypeInfo[SKILL_TALON_OF_CROW].SetMP( 20 );
; 1347 : 	m_pTypeInfo[SKILL_TALON_OF_CROW].SetLearnLevel( 86 );
; 1348 : 	m_pTypeInfo[SKILL_TALON_OF_CROW].AddNextSkill( MAGIC_HOWL );
; 1349 : 
; 1350 : 	m_pTypeInfo[MAGIC_HOWL].Set(sid++, "Howl", 0, 0, 122,"하울");
; 1351 : 	m_pTypeInfo[MAGIC_HOWL].SetVampireSkill();
; 1352 : 	m_pTypeInfo[MAGIC_HOWL].SetSkillStep( SKILL_STEP_VAMPIRE_INNATE );
; 1353 : 	m_pTypeInfo[MAGIC_HOWL].SetMP( 10 );
; 1354 : 	m_pTypeInfo[MAGIC_HOWL].SetLearnLevel( 40 );
; 1355 : 	m_pTypeInfo[MAGIC_HOWL].AddNextSkill( MAGIC_DEATH );
; 1356 : 	
; 1357 : 	m_pTypeInfo[MAGIC_DEATH].Set(sid++, "Death", 0, 0, 86,"데스");
; 1358 : 	m_pTypeInfo[MAGIC_DEATH].SetVampireSkill();
; 1359 : 	m_pTypeInfo[MAGIC_DEATH].SetSkillStep( SKILL_STEP_VAMPIRE_CURSE );
; 1360 : 	m_pTypeInfo[MAGIC_DEATH].SetMP( 55 );
; 1361 : 	m_pTypeInfo[MAGIC_DEATH].SetLearnLevel( 79 );
; 1362 : 	m_pTypeInfo[MAGIC_DEATH].AddNextSkill( MAGIC_HALLUCINATION );
; 1363 : 
; 1364 : 	m_pTypeInfo[MAGIC_HALLUCINATION].Set(sid++, "Hallucination", 0, 0, 85,"할루시네이션");
; 1365 : 	m_pTypeInfo[MAGIC_HALLUCINATION].SetVampireSkill();
; 1366 : 	m_pTypeInfo[MAGIC_HALLUCINATION].SetSkillStep( SKILL_STEP_VAMPIRE_CURSE );
; 1367 : 	m_pTypeInfo[MAGIC_HALLUCINATION].SetMP( 40 );
; 1368 : 	m_pTypeInfo[MAGIC_HALLUCINATION].SetLearnLevel( 120 );
; 1369 : 	m_pTypeInfo[MAGIC_HALLUCINATION].AddNextSkill( MAGIC_BLOODY_SPEAR );
; 1370 : 	
; 1371 : 	m_pTypeInfo[MAGIC_BLOODY_SPEAR].Set(sid++, "Bloody Spear", 0, 0, 169,"블러디 스피어");
; 1372 : 	m_pTypeInfo[MAGIC_BLOODY_SPEAR].SetVampireSkill();
; 1373 : 	m_pTypeInfo[MAGIC_BLOODY_SPEAR].SetSkillStep( SKILL_STEP_VAMPIRE_BLOOD );
; 1374 : 	m_pTypeInfo[MAGIC_BLOODY_SPEAR].SetMP( 90 );
; 1375 : 	m_pTypeInfo[MAGIC_BLOODY_SPEAR].SetLearnLevel( 94 );
; 1376 : 	m_pTypeInfo[MAGIC_BLOODY_SPEAR].AddNextSkill( MAGIC_BLOODY_WALL );
; 1377 : 
; 1378 : 	m_pTypeInfo[MAGIC_BLOODY_WALL].Set(sid++, "Bloody Wall", 0, 0, 168,"블러디 월");
; 1379 : 	m_pTypeInfo[MAGIC_BLOODY_WALL].SetVampireSkill();
; 1380 : 	m_pTypeInfo[MAGIC_BLOODY_WALL].SetSkillStep( SKILL_STEP_VAMPIRE_BLOOD );
; 1381 : 	m_pTypeInfo[MAGIC_BLOODY_WALL].SetMP( 75 );
; 1382 : 	m_pTypeInfo[MAGIC_BLOODY_WALL].SetLearnLevel( 95 );
; 1383 : 	m_pTypeInfo[MAGIC_BLOODY_WALL].AddNextSkill( SKILL_MEPHISTO );	
; 1384 : 	
; 1385 : 	m_pTypeInfo[SKILL_MEPHISTO].Set(sid++, "Mephistopheles", 0, 0, 171,"메피스토펠레스");
; 1386 : 	m_pTypeInfo[SKILL_MEPHISTO].SetVampireSkill();
; 1387 : 	m_pTypeInfo[SKILL_MEPHISTO].SetSkillStep( SKILL_STEP_VAMPIRE_SUMMON );
; 1388 : 	m_pTypeInfo[SKILL_MEPHISTO].SetMP( 90 );
; 1389 : 	m_pTypeInfo[SKILL_MEPHISTO].SetLearnLevel( 96 );
; 1390 : 	m_pTypeInfo[SKILL_MEPHISTO].AddNextSkill( MAGIC_BLOODY_BREAKER );
; 1391 : 
; 1392 : 	m_pTypeInfo[MAGIC_BLOODY_BREAKER].Set(0, "Bloody Breaker", 0, 0, 243,"블러디 브레이커");
; 1393 : 	m_pTypeInfo[MAGIC_BLOODY_BREAKER].SetSkillStep( SKILL_STEP_VAMPIRE_BLOOD );
; 1394 : 	m_pTypeInfo[MAGIC_BLOODY_BREAKER].SetVampireSkill();
; 1395 : 	m_pTypeInfo[MAGIC_BLOODY_BREAKER].SetMP( 60 );
; 1396 : 	m_pTypeInfo[MAGIC_BLOODY_BREAKER].SetLearnLevel( 99 );
; 1397 : //	m_pTypeInfo[MAGIC_BLOODY_BREAKER].AddNextSkill( SKILL_BLOODY_STRIKE );
; 1398 : 	m_pTypeInfo[MAGIC_BLOODY_BREAKER].AddNextSkill( MAGIC_BLOODY_ZENITH );
; 1399 : 
; 1400 : 	m_pTypeInfo[MAGIC_BLOODY_ZENITH].Set(0, "Bloody Zenith", 0, 0, 318,"블러디 제니스");
; 1401 : 	m_pTypeInfo[MAGIC_BLOODY_ZENITH].SetSkillStep( SKILL_STEP_VAMPIRE_BLOOD );
; 1402 : 	m_pTypeInfo[MAGIC_BLOODY_ZENITH].SetVampireSkill();
; 1403 : 	m_pTypeInfo[MAGIC_BLOODY_ZENITH].SetMP( 60 );
; 1404 : 	m_pTypeInfo[MAGIC_BLOODY_ZENITH].SetLearnLevel( 110 );
; 1405 : 	m_pTypeInfo[MAGIC_BLOODY_ZENITH].AddNextSkill( MAGIC_METEOR );
; 1406 : 
; 1407 : //	m_pTypeInfo[SKILL_BLOODY_STRIKE].Set(sid++, "Bloody Strike", 0, 0, 136,"블러디 스트라이크");
; 1408 : //	m_pTypeInfo[SKILL_BLOODY_STRIKE].SetVampireSkill();
; 1409 : //	m_pTypeInfo[SKILL_BLOODY_STRIKE].SetSkillStep( SKILL_STEP_VAMPIRE_BLOOD );
; 1410 : //	m_pTypeInfo[SKILL_BLOODY_STRIKE].SetMP( 76 );
; 1411 : //	m_pTypeInfo[SKILL_BLOODY_STRIKE].SetLearnLevel( 100 );
; 1412 : //	m_pTypeInfo[SKILL_BLOODY_STRIKE].AddNextSkill( MAGIC_METEOR );
; 1413 : 
; 1414 : //	m_pTypeInfo[MAGIC_RAISING_DEAD].Set(sid++, "Raising Dead", 0, 0, 173,"RaisingDead");
; 1415 : //	m_pTypeInfo[MAGIC_RAISING_DEAD].SetVampireSkill();
; 1416 : //	m_pTypeInfo[MAGIC_RAISING_DEAD].SetSkillStep( SKILL_STEP_VAMPIRE_SUMMON );
; 1417 : //	m_pTypeInfo[MAGIC_RAISING_DEAD].SetMP( 55 );
; 1418 : //	m_pTypeInfo[MAGIC_RAISING_DEAD].SetLearnLevel( 100 );
; 1419 : //	m_pTypeInfo[MAGIC_RAISING_DEAD].AddNextSkill( SKILL_SUMMON_BAT );
; 1420 : 
; 1421 : //	m_pTypeInfo[SKILL_SUMMON_BAT].Set(sid++, "Summon Bat", 0, 0, 87,"SummonBat");//324);
; 1422 : //	m_pTypeInfo[SKILL_SUMMON_BAT].SetVampireSkill();
; 1423 : //	m_pTypeInfo[SKILL_SUMMON_BAT].SetSkillStep( SKILL_STEP_VAMPIRE_SUMMON );
; 1424 : //	m_pTypeInfo[SKILL_SUMMON_BAT].SetMP( 90 );
; 1425 : //	m_pTypeInfo[SKILL_SUMMON_BAT].SetLearnLevel( 100 );
; 1426 : //	m_pTypeInfo[SKILL_SUMMON_BAT].AddNextSkill( MAGIC_SUMMON_SERVANT );
; 1427 : //	
; 1428 : //	m_pTypeInfo[MAGIC_SUMMON_SERVANT].Set(sid++, "Summon Servant", 0, 0, 170,"SummonServant");
; 1429 : //	m_pTypeInfo[MAGIC_SUMMON_SERVANT].SetVampireSkill();
; 1430 : //	m_pTypeInfo[MAGIC_SUMMON_SERVANT].SetSkillStep( SKILL_STEP_VAMPIRE_SUMMON );
; 1431 : //	m_pTypeInfo[MAGIC_SUMMON_SERVANT].SetMP( 93 );
; 1432 : //	m_pTypeInfo[MAGIC_SUMMON_SERVANT].SetLearnLevel( 100 );
; 1433 : //	m_pTypeInfo[MAGIC_SUMMON_SERVANT].AddNextSkill( MAGIC_METEOR );	
; 1434 : 
; 1435 : 	m_pTypeInfo[MAGIC_METEOR].Set(sid++, "Meteor Strike", 0, 0, 242,"메테오 스트라이크");
; 1436 : 	m_pTypeInfo[MAGIC_METEOR].SetVampireSkill();
; 1437 : 	m_pTypeInfo[MAGIC_METEOR].SetSkillStep( SKILL_STEP_VAMPIRE_INNATE );
; 1438 : 	m_pTypeInfo[MAGIC_METEOR].SetMP( 70 );
; 1439 : 	m_pTypeInfo[MAGIC_METEOR].SetLearnLevel( 100 );
; 1440 : 	m_pTypeInfo[MAGIC_METEOR].AddNextSkill( SKILL_VIOLENT_PHANTOM );
; 1441 : 	
; 1442 : //	m_pTypeInfo[SKILL_ARMAGEDDON].Set(sid++, "Armageddon", 0, 0, 172,"Armageddon");
; 1443 : //	m_pTypeInfo[SKILL_ARMAGEDDON].SetVampireSkill();
; 1444 : //	m_pTypeInfo[SKILL_ARMAGEDDON].SetSkillStep( SKILL_STEP_VAMPIRE_BLOOD );
; 1445 : //	m_pTypeInfo[SKILL_ARMAGEDDON].SetMP( 75 );
; 1446 : //	m_pTypeInfo[SKILL_ARMAGEDDON].SetLearnLevel( 99 );
; 1447 : //	m_pTypeInfo[SKILL_ARMAGEDDON].AddNextSkill( SKILL_BLOODY_STORM );	
; 1448 : 		
; 1449 : //	m_pTypeInfo[SKILL_BLOODY_STORM].Set(sid++, "Bloody Storm", 0, 0, 93,"BloodyStorm");
; 1450 : //	m_pTypeInfo[SKILL_BLOODY_STORM].SetVampireSkill();
; 1451 : //	m_pTypeInfo[SKILL_BLOODY_STORM].SetSkillStep( SKILL_STEP_VAMPIRE_BLOOD );
; 1452 : //	m_pTypeInfo[SKILL_BLOODY_STORM].SetMP( 75 );
; 1453 : //	m_pTypeInfo[SKILL_BLOODY_STORM].SetLearnLevel( 100 );
; 1454 : //	m_pTypeInfo[SKILL_BLOODY_STORM].AddNextSkill( SKILL_SOUL_CHAIN );
; 1455 : 
; 1456 : 	// 2004, 9, 8, sobeit add start - 뱀파이어 130 스킬
; 1457 : 	m_pTypeInfo[SKILL_VIOLENT_PHANTOM].Set(sid++, "Violent phantom", 0, 0, 392,"바이어런트 팬텀");
; 1458 : 	m_pTypeInfo[SKILL_VIOLENT_PHANTOM].SetVampireSkill();
; 1459 : 	m_pTypeInfo[SKILL_VIOLENT_PHANTOM].SetSkillStep( SKILL_STEP_VAMPIRE_INNATE );
; 1460 : 	m_pTypeInfo[SKILL_VIOLENT_PHANTOM].SetMP( 20 );
; 1461 : 	m_pTypeInfo[SKILL_VIOLENT_PHANTOM].SetLearnLevel( 130 );
; 1462 : 	m_pTypeInfo[SKILL_VIOLENT_PHANTOM].AddNextSkill( SKILL_SUMMON_GORE_GLAND );
; 1463 : 
; 1464 : 	m_pTypeInfo[SKILL_SUMMON_GORE_GLAND].Set(sid++, "Summon Gore gland", 0, 0, 393,"서먼 고어 그랜드");
; 1465 : 	m_pTypeInfo[SKILL_SUMMON_GORE_GLAND].SetVampireSkill();
; 1466 : 	m_pTypeInfo[SKILL_SUMMON_GORE_GLAND].SetSkillStep( SKILL_STEP_VAMPIRE_SUMMON );
; 1467 : 	m_pTypeInfo[SKILL_SUMMON_GORE_GLAND].SetMP( 20 );
; 1468 : 	m_pTypeInfo[SKILL_SUMMON_GORE_GLAND].SetLearnLevel( 130 );
; 1469 : 	m_pTypeInfo[SKILL_SUMMON_GORE_GLAND].AddNextSkill( SKILL_SET_AFIRE );
; 1470 : 	// 2004, 9, 8, sobeit add end - 뱀파이어 130 스킬
; 1471 : 
; 1472 : 	// 2004, 11, 11, sobeit add start - 뱀파이어 140 스킬
; 1473 : 	m_pTypeInfo[SKILL_SET_AFIRE].Set(sid++, "Set Afire", 0, 0, 463,"셋 어파이어");
; 1474 : 	m_pTypeInfo[SKILL_SET_AFIRE].SetVampireSkill();
; 1475 : 	m_pTypeInfo[SKILL_SET_AFIRE].SetSkillStep( SKILL_STEP_VAMPIRE_INNATE );
; 1476 : 	m_pTypeInfo[SKILL_SET_AFIRE].SetMP( 20 );
; 1477 : 	m_pTypeInfo[SKILL_SET_AFIRE].SetLearnLevel( 140 );
; 1478 : 	m_pTypeInfo[SKILL_SET_AFIRE].AddNextSkill( SKILL_NOOSE_OF_WRAITH );
; 1479 : 
; 1480 : 	m_pTypeInfo[SKILL_NOOSE_OF_WRAITH].Set(sid++, "Noose of Wraith", 0, 0, 464, "누스 오브 레이스");
; 1481 : 	m_pTypeInfo[SKILL_NOOSE_OF_WRAITH].SetVampireSkill();
; 1482 : 	m_pTypeInfo[SKILL_NOOSE_OF_WRAITH].SetSkillStep( SKILL_STEP_VAMPIRE_SUMMON );
; 1483 : 	m_pTypeInfo[SKILL_NOOSE_OF_WRAITH].SetMP( 20 );
; 1484 : 	m_pTypeInfo[SKILL_NOOSE_OF_WRAITH].SetLearnLevel( 140 );
; 1485 : 	m_pTypeInfo[SKILL_NOOSE_OF_WRAITH].AddNextSkill( SKILL_ABERRATION );
; 1486 : 	// 2004, 11, 11, sobeit add end - 뱀파이어 140 스킬
; 1487 : 
; 1488 : 	//2005.1.5 by csm  2차 전직 뱀파이어 스킬추가 
; 1489 : 	m_pTypeInfo[SKILL_ABERRATION].Set(sid++, "Aberration", 0, 0, 475, "에버레이션");
; 1490 : 	m_pTypeInfo[SKILL_ABERRATION].SetVampireSkill();
; 1491 : 	m_pTypeInfo[SKILL_ABERRATION].SetSkillStep( SKILL_STEP_VAMPIRE_MAGICIAN_ADVANCEMENT );
; 1492 : 	m_pTypeInfo[SKILL_ABERRATION].SetMP( 20 );
; 1493 : 	m_pTypeInfo[SKILL_ABERRATION].SetLearnLevel( 150 );
; 1494 : 	m_pTypeInfo[SKILL_ABERRATION].AddNextSkill( SKILL_WILD_WOLF) ; //SKILL_BLOODS_SYMPOSION) ; //SKILL_WILD_WOLF );
; 1495 : 
; 1496 : 	m_pTypeInfo[SKILL_WILD_WOLF].Set(sid++, "Wild Wolf", 0, 0, 474, "와일드 울프");
; 1497 : 	m_pTypeInfo[SKILL_WILD_WOLF].SetVampireSkill();
; 1498 : 	m_pTypeInfo[SKILL_WILD_WOLF].SetSkillStep( SKILL_STEP_VAMPIRE_WARRIOR_ADVANCEMENT );
; 1499 : 	m_pTypeInfo[SKILL_WILD_WOLF].SetMP( 20 );
; 1500 : 	m_pTypeInfo[SKILL_WILD_WOLF].SetLearnLevel( 150 );
; 1501 : 	m_pTypeInfo[SKILL_WILD_WOLF].AddNextSkill(SKILL_BLOODS_SYMPOSION_ATTACK);
; 1502 : 
; 1503 : 
; 1504 : 	// 2006.10.31 sjheon
; 1505 : 
; 1506 : 	// 피의 향연과 피의 저주는 연결된 스킬이다.
; 1507 : 	// 사용자가 스킬을 배울 때는 피의 향연만 보인다.
; 1508 : 	m_pTypeInfo[SKILL_BLOODS_SYMPOSION_ATTACK].Set(sid++, "Blood's Symposion Attack", 0, 0, 504, "피의 향연");
; 1509 : 	m_pTypeInfo[SKILL_BLOODS_SYMPOSION_ATTACK].SetVampireSkill();
; 1510 : 	m_pTypeInfo[SKILL_BLOODS_SYMPOSION_ATTACK].SetSkillStep( SKILL_STEP_VAMPIRE_WARRIOR_ADVANCEMENT );
; 1511 : 	m_pTypeInfo[SKILL_BLOODS_SYMPOSION_ATTACK].SetMP( 70 );
; 1512 : 	m_pTypeInfo[SKILL_BLOODS_SYMPOSION_ATTACK].SetLearnLevel( 160 );
; 1513 : 	m_pTypeInfo[SKILL_BLOODS_SYMPOSION_ATTACK].AddNextSkill( SKILL_BLOOD_CURSE) ; //SKILL_WILD_WOLF );
; 1514 : 
; 1515 : 	m_pTypeInfo[SKILL_BLOOD_CURSE].Set(0, "Blood Curse", 0, 0, 503,"피의 저주");
; 1516 : 	m_pTypeInfo[SKILL_BLOOD_CURSE].SetVampireSkill();
; 1517 : 	m_pTypeInfo[SKILL_BLOOD_CURSE].SetSkillStep( SKILL_STEP_VAMPIRE_WARRIOR_ADVANCEMENT );
; 1518 : 	m_pTypeInfo[SKILL_BLOOD_CURSE].SetLearnLevel( 160 );
; 1519 : 	m_pTypeInfo[SKILL_BLOOD_CURSE].SetMP( 60 );
; 1520 : 	m_pTypeInfo[SKILL_BLOOD_CURSE].AddNextSkill(SKILL_BLOODY_SCARIFY );
; 1521 : 
; 1522 : 
; 1523 : 	m_pTypeInfo[SKILL_BLOODY_SCARIFY].Set(sid++, "Bloody Scarify", 0, 0, 506, "블러디 스케러파이");
; 1524 : 	m_pTypeInfo[SKILL_BLOODY_SCARIFY].SetVampireSkill();
; 1525 : 	m_pTypeInfo[SKILL_BLOODY_SCARIFY].SetSkillStep( SKILL_STEP_VAMPIRE_MAGICIAN_ADVANCEMENT );
; 1526 : 	m_pTypeInfo[SKILL_BLOODY_SCARIFY].SetMP( 120 );
; 1527 : 	m_pTypeInfo[SKILL_BLOODY_SCARIFY].SetLearnLevel( 160 );
; 1528 : 	m_pTypeInfo[SKILL_BLOODY_SCARIFY].AddNextSkill(SKILL_SOUL_CHAIN );
; 1529 : 
; 1530 : 
; 1531 : 	// 2006.02.20 전직콤보 스킬 추가 
; 1532 : //	m_pTypeInfo[SKILL_VAMPIRE_COMBO].Set(sid++, "Vampire Combo", 0, 0, 474, "벰파이어콤보");
; 1533 : //	m_pTypeInfo[SKILL_VAMPIRE_COMBO].SetVampireSkill();
; 1534 : //	m_pTypeInfo[SKILL_VAMPIRE_COMBO].SetSkillStep( SKILL_STEP_VAMPIRE_ADVANCEMENT );
; 1535 : //	m_pTypeInfo[SKILL_VAMPIRE_COMBO].SetMP( 20 );
; 1536 : //	m_pTypeInfo[SKILL_VAMPIRE_COMBO].SetLearnLevel( 150 );
; 1537 : //	m_pTypeInfo[SKILL_VAMPIRE_COMBO].AddNextSkill( SKILL_SOUL_CHAIN );
; 1538 : 
; 1539 : 
; 1540 : 	//----------------------------------------------------------------------
; 1541 : 	// 아우스터즈11
; 1542 : 	//----------------------------------------------------------------------
; 1543 : 	sid = 0;
; 1544 : 	int skillID;
; 1545 : 
; 1546 : 	int NumSkillIcon = 259;
; 1547 : 	skillID = SKILL_FLOURISH;
; 1548 : 	m_pTypeInfo[skillID].Set(sid++, "FLOURISH", 7, 21, NumSkillIcon++,"FLOURISH");
; 1549 : 	m_pTypeInfo[skillID].SetOustersSkill();	
; 1550 : 	m_pTypeInfo[skillID].SetSkillStep( SKILL_STEP_OUSTERS_COMBAT );
; 1551 : 	m_pTypeInfo[skillID].AddNextSkill( SKILL_EVADE );
; 1552 : 	
; 1553 : 	skillID = SKILL_EVADE;
; 1554 : 	m_pTypeInfo[skillID].Set(sid++, "EVADE", 22, 84, NumSkillIcon++,"EVADE");
; 1555 : 	m_pTypeInfo[skillID].SetOustersSkill();	
; 1556 : 	m_pTypeInfo[skillID].SetSkillStep( SKILL_STEP_OUSTERS_COMBAT );
; 1557 : 	m_pTypeInfo[skillID].AddNextSkill( SKILL_SHARP_ROUND);
; 1558 : 	
; 1559 : 	skillID = SKILL_SHARP_ROUND;
; 1560 : 	m_pTypeInfo[skillID].Set(sid++, "SHARP_ROUND", 151, 81, NumSkillIcon++,"SHARP_ROUND");
; 1561 : 	m_pTypeInfo[skillID].SetOustersSkill();	
; 1562 : 	m_pTypeInfo[skillID].SetSkillStep( SKILL_STEP_OUSTERS_COMBAT );
; 1563 : 	m_pTypeInfo[skillID].AddNextSkill( SKILL_HIDE_SIGHT);
; 1564 : 	
; 1565 : 	skillID = SKILL_HIDE_SIGHT;
; 1566 : 	m_pTypeInfo[skillID].Set(sid++, "HIDE_SIGHT", 168, 272, NumSkillIcon++,"HIDE_SIGHT");
; 1567 : 	m_pTypeInfo[skillID].SetOustersSkill();	
; 1568 : 	m_pTypeInfo[skillID].SetPassive();
; 1569 : 	m_pTypeInfo[skillID].SetSkillStep( SKILL_STEP_OUSTERS_COMBAT );
; 1570 : 	m_pTypeInfo[skillID].AddNextSkill( SKILL_BACK_STAB);
; 1571 : 	
; 1572 : 	skillID = SKILL_BACK_STAB;
; 1573 : 	m_pTypeInfo[skillID].Set(sid++, "BACK_STAB", 17, 144, NumSkillIcon++,"BACK_STAB");
; 1574 : 	m_pTypeInfo[skillID].SetOustersSkill();	
; 1575 : 	m_pTypeInfo[skillID].SetSkillStep( SKILL_STEP_OUSTERS_COMBAT );
; 1576 : 	m_pTypeInfo[skillID].AddNextSkill( SKILL_BLUNTING);
; 1577 : 	
; 1578 : 
; 1579 : 	skillID = SKILL_BLUNTING;
; 1580 : 	m_pTypeInfo[skillID].Set(sid++, "BLUNTING", 213, 95, NumSkillIcon++,"BLUNTING");
; 1581 : 	m_pTypeInfo[skillID].SetOustersSkill();	
; 1582 : 	m_pTypeInfo[skillID].SetSkillStep( SKILL_STEP_OUSTERS_COMBAT );
; 1583 : 	m_pTypeInfo[skillID].AddNextSkill( SKILL_GAMMA_CHOP);
; 1584 : 	
; 1585 : 	skillID = SKILL_GAMMA_CHOP;
; 1586 : 	m_pTypeInfo[skillID].Set(sid++, "GAMMA_CHOP", 271, 219, NumSkillIcon++,"GAMMA_CHOP");
; 1587 : 	m_pTypeInfo[skillID].SetOustersSkill();	
; 1588 : 	m_pTypeInfo[skillID].SetSkillStep( SKILL_STEP_OUSTERS_COMBAT );
; 1589 : 	m_pTypeInfo[skillID].AddNextSkill( SKILL_CROSS_GUARD);
; 1590 : 	
; 1591 : 	skillID = SKILL_CROSS_GUARD;
; 1592 : 	m_pTypeInfo[skillID].Set(sid++, "CROSS_GUARD", 71, 199, NumSkillIcon++,"CROSS_GUARD");
; 1593 : 	m_pTypeInfo[skillID].SetOustersSkill();	
; 1594 : 	m_pTypeInfo[skillID].SetSkillStep( SKILL_STEP_OUSTERS_COMBAT );
; 1595 : 	m_pTypeInfo[skillID].AddNextSkill( SKILL_KASAS_ARROW);
; 1596 : 
; 1597 : 		
; 1598 : 	//////////////////////////////////////////////////////////////////////////
; 1599 : 	// elemental
; 1600 : 	//////////////////////////////////////////////////////////////////////////
; 1601 : 	
; 1602 : 	skillID = SKILL_KASAS_ARROW;
; 1603 : 	m_pTypeInfo[skillID].Set(sid++, "KASAS_ARROW", 298,	34, NumSkillIcon++,"KASAS_ARROW");
; 1604 : 	m_pTypeInfo[skillID].SetOustersSkill();	
; 1605 : 	m_pTypeInfo[skillID].SetSkillStep( SKILL_STEP_OUSTERS_ELEMENTAL );
; 1606 : 	m_pTypeInfo[skillID].AddNextSkill( SKILL_HANDS_OF_FIRE);
; 1607 : 	
; 1608 : 	skillID = SKILL_HANDS_OF_FIRE;
; 1609 : 	m_pTypeInfo[skillID].Set(sid++, "HANDS_OF_FIRE", 403, 153, NumSkillIcon++,"HANDS_OF_FIRE");
; 1610 : 	m_pTypeInfo[skillID].SetOustersSkill();	
; 1611 : 	m_pTypeInfo[skillID].SetSkillStep( SKILL_STEP_OUSTERS_ELEMENTAL );
; 1612 : 	m_pTypeInfo[skillID].AddNextSkill( SKILL_PROMINENCE);
; 1613 : 	
; 1614 : 	skillID = SKILL_PROMINENCE;
; 1615 : 	m_pTypeInfo[skillID].Set(sid++, "PROMINENCE", 166, 285, NumSkillIcon++,"PROMINENCE");
; 1616 : 	m_pTypeInfo[skillID].SetOustersSkill();	
; 1617 : 	m_pTypeInfo[skillID].SetSkillStep( SKILL_STEP_OUSTERS_ELEMENTAL );
; 1618 : 	m_pTypeInfo[skillID].AddNextSkill( SKILL_RING_OF_FLARE);
; 1619 : 	
; 1620 : 	skillID = SKILL_RING_OF_FLARE;
; 1621 : 	m_pTypeInfo[skillID].Set(sid++, "RING_OF_FLARE", 190, 345, NumSkillIcon++,"RING_OF_FLARE");
; 1622 : 	m_pTypeInfo[skillID].SetOustersSkill();	
; 1623 : 	m_pTypeInfo[skillID].SetSkillStep( SKILL_STEP_OUSTERS_ELEMENTAL );
; 1624 : 	m_pTypeInfo[skillID].AddNextSkill( SKILL_BLAZE_BOLT);
; 1625 : 	
; 1626 : 	skillID = SKILL_BLAZE_BOLT;
; 1627 : 	m_pTypeInfo[skillID].Set(sid++, "BLAZE_BOLT", 288, 424, NumSkillIcon++,"BLAZE_BOLT");
; 1628 : 	m_pTypeInfo[skillID].SetOustersSkill();	
; 1629 : 	m_pTypeInfo[skillID].SetSkillStep( SKILL_STEP_OUSTERS_ELEMENTAL );
; 1630 : 	m_pTypeInfo[skillID].AddNextSkill( SKILL_ICE_FIELD);
; 1631 : 	
; 1632 : 	skillID = SKILL_ICE_FIELD;
; 1633 : 	m_pTypeInfo[skillID].Set(sid++, "ICE_FIELD", 129, 157, NumSkillIcon++,"ICE_FIELD");
; 1634 : 	m_pTypeInfo[skillID].SetOustersSkill();	
; 1635 : 	m_pTypeInfo[skillID].SetSkillStep( SKILL_STEP_OUSTERS_ELEMENTAL );
; 1636 : 	m_pTypeInfo[skillID].AddNextSkill( SKILL_WATER_BARRIER);
; 1637 : 	
; 1638 : 	skillID = SKILL_WATER_BARRIER;
; 1639 : 	m_pTypeInfo[skillID].Set(sid++, "WATER_BARRIER", 112, 223, NumSkillIcon++,"WATER_BARRIER");
; 1640 : 	m_pTypeInfo[skillID].SetOustersSkill();	
; 1641 : 	m_pTypeInfo[skillID].SetSkillStep( SKILL_STEP_OUSTERS_ELEMENTAL );
; 1642 : 	m_pTypeInfo[skillID].AddNextSkill( SKILL_HANDS_OF_NIZIE);
; 1643 : 	
; 1644 : 	skillID = SKILL_HANDS_OF_NIZIE;
; 1645 : 	m_pTypeInfo[skillID].Set(sid++, "HANDS_OF_NIZIE", 357, 257, NumSkillIcon++,"HANDS_OF_NIZIE");
; 1646 : 	m_pTypeInfo[skillID].SetOustersSkill();	
; 1647 : 	m_pTypeInfo[skillID].SetSkillStep( SKILL_STEP_OUSTERS_ELEMENTAL );
; 1648 : 	m_pTypeInfo[skillID].AddNextSkill( SKILL_NYMPH_RECOVERY);
; 1649 : 	
; 1650 : 	skillID = SKILL_NYMPH_RECOVERY;
; 1651 : 	m_pTypeInfo[skillID].Set(sid++, "NYMPH_RECOVERY", 438, 289, NumSkillIcon++,"NYMPH_RECOVERY");
; 1652 : 	m_pTypeInfo[skillID].SetOustersSkill();	
; 1653 : 	m_pTypeInfo[skillID].SetSkillStep( SKILL_STEP_OUSTERS_ELEMENTAL );
; 1654 : 	m_pTypeInfo[skillID].AddNextSkill( SKILL_LIBERTY);
; 1655 : 	
; 1656 : 	skillID = SKILL_LIBERTY;
; 1657 : 	m_pTypeInfo[skillID].Set(sid++, "LIBERTY", 201, 407, NumSkillIcon++,"LIBERTY");
; 1658 : 	m_pTypeInfo[skillID].SetOustersSkill();	
; 1659 : 	m_pTypeInfo[skillID].SetSkillStep( SKILL_STEP_OUSTERS_ELEMENTAL );
; 1660 : 	m_pTypeInfo[skillID].AddNextSkill( SKILL_TENDRIL);
; 1661 : 	
; 1662 : 	skillID = SKILL_TENDRIL;
; 1663 : 	m_pTypeInfo[skillID].Set(sid++, "TENDRIL", 304, 104, NumSkillIcon++,"TENDRIL");
; 1664 : 	m_pTypeInfo[skillID].SetOustersSkill();	
; 1665 : 	m_pTypeInfo[skillID].SetSkillStep( SKILL_STEP_OUSTERS_ELEMENTAL );
; 1666 : 	m_pTypeInfo[skillID].AddNextSkill( SKILL_GNOMES_WHISPER);
; 1667 : 	
; 1668 : 	skillID = SKILL_GNOMES_WHISPER;
; 1669 : 	m_pTypeInfo[skillID].Set(sid++, "GNOMES_WHISPER", 222, 160, NumSkillIcon++,"GNOMES_WHISPER");
; 1670 : 	m_pTypeInfo[skillID].SetOustersSkill();	
; 1671 : 	m_pTypeInfo[skillID].SetSkillStep( SKILL_STEP_OUSTERS_ELEMENTAL );
; 1672 : 	m_pTypeInfo[skillID].AddNextSkill( SKILL_STONE_AUGER);
; 1673 : 	
; 1674 : 	skillID = SKILL_STONE_AUGER;
; 1675 : 	m_pTypeInfo[skillID].Set(sid++, "STONE_AUGER", 308, 161, NumSkillIcon++,"STONE_AUGER");
; 1676 : 	m_pTypeInfo[skillID].SetOustersSkill();	
; 1677 : 	m_pTypeInfo[skillID].SetSkillStep( SKILL_STEP_OUSTERS_ELEMENTAL );
; 1678 : 	m_pTypeInfo[skillID].AddNextSkill( SKILL_REFUSAL_ETHER);
; 1679 : 	
; 1680 : 	skillID = SKILL_REFUSAL_ETHER;
; 1681 : 	m_pTypeInfo[skillID].Set(sid++, "REFUSAL_ETHER", 245, 296, NumSkillIcon++,"REFUSAL_ETHER");
; 1682 : 	m_pTypeInfo[skillID].SetOustersSkill();	
; 1683 : 	m_pTypeInfo[skillID].SetSkillStep( SKILL_STEP_OUSTERS_ELEMENTAL );
; 1684 : 	m_pTypeInfo[skillID].AddNextSkill( SKILL_EARTHS_TEETH);
; 1685 : 	
; 1686 : 	skillID = SKILL_EARTHS_TEETH;
; 1687 : 	m_pTypeInfo[skillID].Set(sid++, "EARTHS_TEETH", 376, 425, NumSkillIcon++,"EARTHS_TEETH");
; 1688 : 	m_pTypeInfo[skillID].SetOustersSkill();	
; 1689 : 	m_pTypeInfo[skillID].SetSkillStep( SKILL_STEP_OUSTERS_ELEMENTAL );
; 1690 : 	m_pTypeInfo[skillID].AddNextSkill( SKILL_ABSORB_SOUL);
; 1691 : 	
; 1692 : 	skillID = SKILL_ABSORB_SOUL;
; 1693 : 	m_pTypeInfo[skillID].Set(sid++, "ABSORB_SOUL", MAKELONG(159, 13), MAKELONG(17, 14), NumSkillIcon++,"ABSORB_SOUL");
; 1694 : 	m_pTypeInfo[skillID].SetOustersSkill();	
; 1695 : 	m_pTypeInfo[skillID].SetSkillStep( SKILL_STEP_OUSTERS_ETC );
; 1696 : 	m_pTypeInfo[skillID].AddNextSkill( SKILL_SUMMON_SYLPH);
; 1697 : 	
; 1698 : 	skillID = SKILL_SUMMON_SYLPH;
; 1699 : 	m_pTypeInfo[skillID].Set(sid++, "SUMMON_SYLPH", MAKELONG(76, 148), MAKELONG(17, 30), NumSkillIcon++,"SUMMON_SYLPH");
; 1700 : 	m_pTypeInfo[skillID].SetOustersSkill();	
; 1701 : 	m_pTypeInfo[skillID].SetSkillStep( SKILL_STEP_OUSTERS_ETC );
; 1702 : 	m_pTypeInfo[skillID].AddNextSkill( SKILL_DRIFTING_SOUL);
; 1703 : 	
; 1704 : 	skillID = SKILL_DRIFTING_SOUL;
; 1705 : 	m_pTypeInfo[skillID].Set(sid++, "DRIFTING_SOUL", 266, 232, NumSkillIcon++,"DRIFTING_SOUL");
; 1706 : 	m_pTypeInfo[skillID].SetOustersSkill();	
; 1707 : 	m_pTypeInfo[skillID].SetPassive();
; 1708 : 	m_pTypeInfo[skillID].SetSkillStep( SKILL_STEP_OUSTERS_ELEMENTAL );
; 1709 : 	m_pTypeInfo[skillID].AddNextSkill( SKILL_CRITICAL_MAGIC);
; 1710 : 	
; 1711 : 	skillID = SKILL_CRITICAL_MAGIC;
; 1712 : 	m_pTypeInfo[skillID].Set(sid++, "CRITICAL_MAGIC", 240, 492, NumSkillIcon++,"CRITICAL_MAGIC");
; 1713 : 	m_pTypeInfo[skillID].SetOustersSkill();	
; 1714 : 	m_pTypeInfo[skillID].SetPassive();
; 1715 : 	m_pTypeInfo[skillID].SetSkillStep( SKILL_STEP_OUSTERS_ELEMENTAL );
; 1716 : 	m_pTypeInfo[skillID].AddNextSkill( SKILL_EMISSION_WATER);
; 1717 : 
; 1718 : 	skillID = SKILL_EMISSION_WATER;
; 1719 : 	m_pTypeInfo[skillID].Set(sid++, "SKILL_EMISSION_WATER", 71, 94, 309,"SKILL_EMISSION_WATER");
; 1720 : 	m_pTypeInfo[skillID].SetOustersSkill();	
; 1721 : 	m_pTypeInfo[skillID].SetSkillStep( SKILL_STEP_OUSTERS_ELEMENTAL );
; 1722 : 	m_pTypeInfo[skillID].AddNextSkill( SKILL_BEAT_HEAD);
; 1723 : 
; 1724 : 	skillID = SKILL_BEAT_HEAD;
; 1725 : 	m_pTypeInfo[skillID].Set(sid++, "SKILL_BEAT_HEAD", 229, 84, 310,"SKILL_BEAT_HEAD");
; 1726 : 	m_pTypeInfo[skillID].SetOustersSkill();	
; 1727 : 	m_pTypeInfo[skillID].SetSkillStep( SKILL_STEP_OUSTERS_ELEMENTAL );	
; 1728 : 	m_pTypeInfo[skillID].AddNextSkill( SKILL_FIRE_OF_SOUL_STONE);
; 1729 : 
; 1730 : 	skillID = SKILL_FIRE_OF_SOUL_STONE;
; 1731 : 	m_pTypeInfo[skillID].Set(sid++, "FIRE_OF_SOUL_STONE", 110, 138, NumSkillIcon++,"FIRE_OF_SOUL_STONE");
; 1732 : 	m_pTypeInfo[skillID].SetOustersSkill();	
; 1733 : 	m_pTypeInfo[skillID].SetPassive();
; 1734 : 	m_pTypeInfo[skillID].SetSkillStep( SKILL_STEP_OUSTERS_COMBAT );
; 1735 : 	m_pTypeInfo[skillID].AddNextSkill( SKILL_ICE_OF_SOUL_STONE);
; 1736 : 	
; 1737 : 	skillID = SKILL_ICE_OF_SOUL_STONE;
; 1738 : 	m_pTypeInfo[skillID].Set(sid++, "ICE_OF_SOUL_STONE", 94, 258, NumSkillIcon++,"ICE_OF_SOUL_STONE");
; 1739 : 	m_pTypeInfo[skillID].SetOustersSkill();	
; 1740 : 	m_pTypeInfo[skillID].SetPassive();
; 1741 : 	m_pTypeInfo[skillID].SetSkillStep( SKILL_STEP_OUSTERS_COMBAT );
; 1742 : 	m_pTypeInfo[skillID].AddNextSkill( SKILL_SAND_OF_SOUL_STONE);
; 1743 : 	
; 1744 : 	skillID = SKILL_SAND_OF_SOUL_STONE;
; 1745 : 	m_pTypeInfo[skillID].Set(sid++, "SAND_OF_SOUL_STONE", 204, 213,   NumSkillIcon++,"SAND_OF_SOUL_STONE");
; 1746 : 	m_pTypeInfo[skillID].SetOustersSkill();	
; 1747 : 	m_pTypeInfo[skillID].SetPassive();
; 1748 : 	m_pTypeInfo[skillID].SetSkillStep( SKILL_STEP_OUSTERS_COMBAT );
; 1749 : 	m_pTypeInfo[skillID].AddNextSkill( SKILL_BLOCK_HEAD);
; 1750 : 	
; 1751 : 	skillID = SKILL_BLOCK_HEAD;
; 1752 : 	m_pTypeInfo[skillID].Set(sid++, "BLOCK_HEAD", 226, 156, NumSkillIcon++,"BLOCK_HEAD");
; 1753 : 	m_pTypeInfo[skillID].SetOustersSkill();	
; 1754 : 	m_pTypeInfo[skillID].SetPassive();
; 1755 : 	m_pTypeInfo[skillID].SetSkillStep( SKILL_STEP_OUSTERS_COMBAT );
; 1756 : 	m_pTypeInfo[skillID].AddNextSkill( SKILL_DIVINE_SPIRITS );
; 1757 : 	
; 1758 : 	skillID = SKILL_DIVINE_SPIRITS;
; 1759 : 	m_pTypeInfo[skillID].Set(sid++, "DIVINE_SPIRITS", MAKELONG(85, 154), MAKELONG(78, 98),  311,"DIVINE_SPIRITS");
; 1760 : 	m_pTypeInfo[skillID].SetOustersSkill();
; 1761 : 	m_pTypeInfo[skillID].SetSkillStep( SKILL_STEP_OUSTERS_ETC );
; 1762 : 	m_pTypeInfo[skillID].AddNextSkill( SKILL_TELEPORT );
; 1763 : 
; 1764 : 	skillID = SKILL_TELEPORT;
; 1765 : 	m_pTypeInfo[skillID].Set(sid++, "SKILL_TELEPORT",  MAKELONG(141, 271),MAKELONG(195, 357) , 357,"TELEPORT");
; 1766 : 	m_pTypeInfo[skillID].SetOustersSkill();
; 1767 : 	m_pTypeInfo[skillID].SetSkillStep( SKILL_STEP_OUSTERS_ETC );
; 1768 : 	m_pTypeInfo[skillID].AddNextSkill( SKILL_SOUL_REBIRTH );
; 1769 : 
; 1770 : 	skillID = SKILL_SOUL_REBIRTH;
; 1771 : 	m_pTypeInfo[skillID].Set(sid++, "SKILL_SOUL_REBIRTH", 368, 347, 358,"REBIRTH");
; 1772 : 	m_pTypeInfo[skillID].SetOustersSkill();
; 1773 : 	m_pTypeInfo[skillID].SetSkillStep( SKILL_STEP_OUSTERS_ELEMENTAL );
; 1774 : 	m_pTypeInfo[skillID].AddNextSkill( SKILL_ICE_LANCE );
; 1775 : 
; 1776 : 	skillID = SKILL_ICE_LANCE;
; 1777 : 	m_pTypeInfo[skillID].Set(sid++, "SKILL_ICE_LANCE", 337, 515, 359,"ICE_LANCE");
; 1778 : 	m_pTypeInfo[skillID].SetOustersSkill();
; 1779 : 	m_pTypeInfo[skillID].SetSkillStep( SKILL_STEP_OUSTERS_ELEMENTAL );
; 1780 : 	m_pTypeInfo[skillID].AddNextSkill( SKILL_ICE_LANCE_MASTERY );
; 1781 : 
; 1782 : 	skillID = SKILL_ICE_LANCE_MASTERY;
; 1783 : 	m_pTypeInfo[skillID].Set(sid++, "SKILL_ICE_LANCE_MASTERY", 337, 800, 359,"ICE_LANCE_MASTERY");
; 1784 : 	m_pTypeInfo[skillID].SetOustersSkill();
; 1785 : 	m_pTypeInfo[skillID].SetPassive();
; 1786 : 	m_pTypeInfo[skillID].SetSkillStep( SKILL_STEP_OUSTERS_ELEMENTAL );
; 1787 : 	m_pTypeInfo[skillID].AddNextSkill( SKILL_EXPLOSION_WATER );
; 1788 : 
; 1789 : 	skillID = SKILL_EXPLOSION_WATER;
; 1790 : 	m_pTypeInfo[skillID].Set(sid++, "SKILL_EXPLOSION_WATER", 455, 621, 360,"EXPLOSION_WATER");
; 1791 : 	m_pTypeInfo[skillID].SetOustersSkill();
; 1792 : 	m_pTypeInfo[skillID].SetSkillStep( SKILL_STEP_OUSTERS_ELEMENTAL );
; 1793 : 	m_pTypeInfo[skillID].AddNextSkill( SKILL_FROZEN_ARMOR );
; 1794 : 
; 1795 : 	skillID = SKILL_FROZEN_ARMOR;
; 1796 : 	m_pTypeInfo[skillID].Set(sid++, "SKILL_FROZEN_ARMOR", 399, 561, 361,"FROZEN_ARMOR");
; 1797 : 	m_pTypeInfo[skillID].SetOustersSkill();
; 1798 : 	m_pTypeInfo[skillID].SetSkillStep( SKILL_STEP_OUSTERS_ELEMENTAL );
; 1799 : 	m_pTypeInfo[skillID].AddNextSkill( SKILL_FIRE_PIERCING );
; 1800 : 
; 1801 : 	skillID = SKILL_FIRE_PIERCING;
; 1802 : 	m_pTypeInfo[skillID].Set(sid++, "SKILL_FIRE_PIERCING", 233, 555, 362,"FIRE_PIERCING");
; 1803 : 	m_pTypeInfo[skillID].SetOustersSkill();
; 1804 : 	m_pTypeInfo[skillID].SetSkillStep( SKILL_STEP_OUSTERS_ELEMENTAL );
; 1805 : 	m_pTypeInfo[skillID].AddNextSkill( SKILL_SUMMON_OF_FIRE_ELEMENTAL );
; 1806 : 
; 1807 : 	skillID = SKILL_SUMMON_OF_FIRE_ELEMENTAL;
; 1808 : 	m_pTypeInfo[skillID].Set(sid++, "SKILL_SUMMON_OF_FIRE_ELEMENTAL", 199, 617, 363,"SUMMON_OF_FIRE_ELEMENTAL");
; 1809 : 	m_pTypeInfo[skillID].SetOustersSkill();
; 1810 : 	m_pTypeInfo[skillID].SetSkillStep( SKILL_STEP_OUSTERS_ELEMENTAL );
; 1811 : 	m_pTypeInfo[skillID].AddNextSkill( SKILL_MAGNUM_SPEAR );
; 1812 : 
; 1813 : 	skillID = SKILL_MAGNUM_SPEAR;
; 1814 : 	m_pTypeInfo[skillID].Set(sid++, "SKILL_MAGNUM_SPEAR",294, 591, 364,"MAGNUM_SPEAR");
; 1815 : 	m_pTypeInfo[skillID].SetOustersSkill();
; 1816 : 	m_pTypeInfo[skillID].SetSkillStep( SKILL_STEP_OUSTERS_ELEMENTAL );
; 1817 : 	m_pTypeInfo[skillID].AddNextSkill( SKILL_MAGNUM_SPEAR_MASTERY );
; 1818 : 
; 1819 : 	skillID = SKILL_MAGNUM_SPEAR_MASTERY;
; 1820 : 	m_pTypeInfo[skillID].Set(sid++, "SKILL_MAGNUM_SPEAR_MASTERY",263, 800, 364,"MAGNUM_SPEAR_MASTERY");
; 1821 : 	m_pTypeInfo[skillID].SetOustersSkill();
; 1822 : 	m_pTypeInfo[skillID].SetPassive();
; 1823 : 	m_pTypeInfo[skillID].SetSkillStep( SKILL_STEP_OUSTERS_ELEMENTAL );
; 1824 : 	m_pTypeInfo[skillID].AddNextSkill( SKILL_HELLFIRE );
; 1825 : 
; 1826 : 	skillID = SKILL_HELLFIRE;
; 1827 : 	m_pTypeInfo[skillID].Set(sid++, "SKILL_HELLFIRE", 204, 702, 365,"HELLFIRE");
; 1828 : 	m_pTypeInfo[skillID].SetOustersSkill();
; 1829 : 	m_pTypeInfo[skillID].SetSkillStep( SKILL_STEP_OUSTERS_ELEMENTAL );
; 1830 : 	m_pTypeInfo[skillID].AddDelayGroup(SKILL_FIERCE_FLAME);
; 1831 : //	m_pTypeInfo[skillID].AddNextSkill( SKILL_SUMMON_OF_WATER_ELEMENTAL );
; 1832 : 	m_pTypeInfo[skillID].AddNextSkill( SKILL_SUMMON_MIGA );
; 1833 : 
; 1834 : 	skillID = SKILL_SUMMON_MIGA;
; 1835 : 	m_pTypeInfo[skillID].Set(sid++, "SKILL_SUMMON_MIGA", 204, 860, 466,"SUMMON_MIGA");
; 1836 : 	m_pTypeInfo[skillID].SetOustersSkill();
; 1837 : 	m_pTypeInfo[skillID].SetSkillStep( SKILL_STEP_OUSTERS_ELEMENTAL );
; 1838 : 	m_pTypeInfo[skillID].AddNextSkill( SKILL_SUMMON_OF_WATER_ELEMENTAL );
; 1839 : 
; 1840 : 	skillID = SKILL_SUMMON_OF_WATER_ELEMENTAL;
; 1841 : 	m_pTypeInfo[skillID].Set(sid++, "SKILL_SUMMON_OF_WATER_ELEMENTAL", 378, 621, 366,"SUMMON_OF_WATER_ELEMENTAL");
; 1842 : 	m_pTypeInfo[skillID].SetOustersSkill();
; 1843 : 	m_pTypeInfo[skillID].SetSkillStep( SKILL_STEP_OUSTERS_ELEMENTAL );
; 1844 : 	m_pTypeInfo[skillID].AddNextSkill( SKILL_SOUL_REBIRTH_MASTERY );
; 1845 : 
; 1846 : 	skillID = SKILL_SOUL_REBIRTH_MASTERY;
; 1847 : 	m_pTypeInfo[skillID].Set(sid++, "SKILL_SOUL_REBIRTH_MASTERY", 416, 688, 367,"SOUL_REBIRTH_MASTERY");
; 1848 : 	m_pTypeInfo[skillID].SetOustersSkill();
; 1849 : 	m_pTypeInfo[skillID].SetPassive();
; 1850 : 	m_pTypeInfo[skillID].SetSkillStep( SKILL_STEP_OUSTERS_ELEMENTAL );
; 1851 : //	m_pTypeInfo[skillID].AddNextSkill( SKILL_REACTIVE_ARMOR );
; 1852 : 	m_pTypeInfo[skillID].AddNextSkill( SKILL_ICE_HORIZON );
; 1853 : 
; 1854 : 	skillID = SKILL_ICE_HORIZON;
; 1855 : 	m_pTypeInfo[skillID].Set(sid++, "SKILL_ICE_HORIZON", 416, 860, 467,"ICE_HORIZON");
; 1856 : 	m_pTypeInfo[skillID].SetOustersSkill();
; 1857 : 	m_pTypeInfo[skillID].SetSkillStep( SKILL_STEP_OUSTERS_ELEMENTAL );
; 1858 : 	m_pTypeInfo[skillID].AddNextSkill( SKILL_REACTIVE_ARMOR );
; 1859 : 
; 1860 : 	skillID = SKILL_REACTIVE_ARMOR;
; 1861 : 	m_pTypeInfo[skillID].Set(sid++, "SKILL_REACTIVE_ARMOR", 139, 521, 368,"REACTIVE_ARMOR");
; 1862 : 	m_pTypeInfo[skillID].SetOustersSkill();
; 1863 : 	m_pTypeInfo[skillID].SetSkillStep( SKILL_STEP_OUSTERS_ELEMENTAL );
; 1864 : 	m_pTypeInfo[skillID].AddNextSkill( SKILL_REACTIVE_ARMOR_MASTERY );
; 1865 : 
; 1866 : 	skillID = SKILL_REACTIVE_ARMOR_MASTERY;
; 1867 : 	m_pTypeInfo[skillID].Set(sid++, "SKILL_REACTIVE_ARMOR_MASTERY", 139, 800, 368,"REACTIVE_ARMOR_MASTERY");
; 1868 : 	m_pTypeInfo[skillID].SetOustersSkill();
; 1869 : 	m_pTypeInfo[skillID].SetPassive();
; 1870 : 	m_pTypeInfo[skillID].SetSkillStep( SKILL_STEP_OUSTERS_ELEMENTAL );
; 1871 : 	m_pTypeInfo[skillID].AddNextSkill( SKILL_GROUND_BLESS );
; 1872 : 
; 1873 : 	skillID = SKILL_GROUND_BLESS;
; 1874 : 	m_pTypeInfo[skillID].Set(sid++, "SKILL_GROUND_BLESS", 85 , 583, 369,"GROUND_BLESS");
; 1875 : 	m_pTypeInfo[skillID].SetOustersSkill();
; 1876 : 	m_pTypeInfo[skillID].SetSkillStep( SKILL_STEP_OUSTERS_ELEMENTAL );
; 1877 : 	m_pTypeInfo[skillID].AddNextSkill( SKILL_SUMMON_OF_GROUND_ELEMENTAL );
; 1878 : 
; 1879 : 	skillID = SKILL_SUMMON_OF_GROUND_ELEMENTAL;
; 1880 : 	m_pTypeInfo[skillID].Set(sid++, "SKILL_SUMMON_OF_GROUND_ELEMENTAL", 37 ,650, 370,"SUMMON_OF_GROUND_ELEMENTAL");
; 1881 : 	m_pTypeInfo[skillID].SetOustersSkill();
; 1882 : 	m_pTypeInfo[skillID].SetSkillStep( SKILL_STEP_OUSTERS_ELEMENTAL );
; 1883 : 	m_pTypeInfo[skillID].AddNextSkill( SKILL_METEOR_STORM );
; 1884 : 
; 1885 : 	skillID = SKILL_METEOR_STORM;
; 1886 : 	m_pTypeInfo[skillID].Set(sid++, "SKILL_METEOR_STORM", 100, 702, 371,"METEOR_STORM");
; 1887 : 	m_pTypeInfo[skillID].SetOustersSkill();
; 1888 : 	m_pTypeInfo[skillID].SetSkillStep( SKILL_STEP_OUSTERS_ELEMENTAL );
; 1889 : #if __CONTENTS(__SECOND_RARE_SKILL)
; 1890 : 	m_pTypeInfo[skillID].AddDelayGroup( SKILL_ASTEROID_BOMBER );
; 1891 : #endif //__SECOND_RARE_SKILL
; 1892 : //	m_pTypeInfo[skillID].AddNextSkill( SKILL_SHARP_CHAKRAM );
; 1893 : 	m_pTypeInfo[skillID].AddNextSkill( SKILL_FURY_OF_GNOME );
; 1894 : 
; 1895 : 	skillID = SKILL_FURY_OF_GNOME;
; 1896 : 	m_pTypeInfo[skillID].Set(sid++, "SKILL_FURY_OF_GNOME", 100, 860, 468,"FURY_OF_GNOME");
; 1897 : 	m_pTypeInfo[skillID].SetOustersSkill();
; 1898 : 	m_pTypeInfo[skillID].SetSkillStep( SKILL_STEP_OUSTERS_ELEMENTAL );
; 1899 : 	m_pTypeInfo[skillID].AddNextSkill( SKILL_SHARP_CHAKRAM );
; 1900 : 
; 1901 : 	skillID = SKILL_SHARP_CHAKRAM;
; 1902 : 	m_pTypeInfo[skillID].Set(sid++, "SKILL_SHARP_CHAKRAM",34, 291, 372,"SHARP_CHAKRAM");
; 1903 : 	m_pTypeInfo[skillID].SetOustersSkill();
; 1904 : 	m_pTypeInfo[skillID].SetSkillStep( SKILL_STEP_OUSTERS_COMBAT );
; 1905 : 	m_pTypeInfo[skillID].AddNextSkill( SKILL_SHIFT_BREAK );
; 1906 : 
; 1907 : 	skillID = SKILL_SHIFT_BREAK;
; 1908 : 	m_pTypeInfo[skillID].Set(sid++, "SKILL_SHIFT_BREAK", 154,331 , 373,"SHIFT_BREAK");
; 1909 : 	m_pTypeInfo[skillID].SetOustersSkill();
; 1910 : 	m_pTypeInfo[skillID].SetSkillStep( SKILL_STEP_OUSTERS_COMBAT );
; 1911 : 	m_pTypeInfo[skillID].AddNextSkill( SKILL_WATER_SHIELD );
; 1912 : 
; 1913 : 	skillID = SKILL_WATER_SHIELD;
; 1914 : 	m_pTypeInfo[skillID].Set(sid++, "SKILL_WATER_SHIELD", 263, 287, 374,"WATER_SHIELD");
; 1915 : 	m_pTypeInfo[skillID].SetOustersSkill();
; 1916 : 	m_pTypeInfo[skillID].SetPassive();
; 1917 : 	m_pTypeInfo[skillID].SetSkillStep( SKILL_STEP_OUSTERS_COMBAT );
; 1918 : 	m_pTypeInfo[skillID].AddNextSkill( SKILL_DESTRUCTION_SPEAR );
; 1919 : 
; 1920 : 	skillID = SKILL_DESTRUCTION_SPEAR;
; 1921 : 	m_pTypeInfo[skillID].Set(sid++, "SKILL_DESTRUCTION_SPEAR", 84, 352, 375,"DESTRUCTION_SPEAR");
; 1922 : 	m_pTypeInfo[skillID].SetOustersSkill();
; 1923 : 	m_pTypeInfo[skillID].SetSkillStep( SKILL_STEP_OUSTERS_COMBAT );
; 1924 : 	m_pTypeInfo[skillID].AddNextSkill( SKILL_DESTRUCTION_SPEAR_MASTERY );
; 1925 : 	
; 1926 : 	skillID = SKILL_DESTRUCTION_SPEAR_MASTERY;
; 1927 : 	m_pTypeInfo[skillID].Set(sid++, "SKILL_DESTRUCTION_SPEAR_MASTERY", 84, 510, 375,"DESTRUCTION_SPEAR_MASTERY");
; 1928 : 	m_pTypeInfo[skillID].SetOustersSkill();
; 1929 : 	m_pTypeInfo[skillID].SetPassive();
; 1930 : 	m_pTypeInfo[skillID].SetSkillStep( SKILL_STEP_OUSTERS_COMBAT );
; 1931 : 	m_pTypeInfo[skillID].AddNextSkill( SKILL_BLESS_FIRE );
; 1932 : 
; 1933 : 	skillID = SKILL_BLESS_FIRE;
; 1934 : 	m_pTypeInfo[skillID].Set(sid++, "SKILL_BLESS_FIRE", 210, 380, 376,"BLESS_FIRE");
; 1935 : 	m_pTypeInfo[skillID].SetOustersSkill();
; 1936 : 	m_pTypeInfo[skillID].SetPassive();
; 1937 : 	m_pTypeInfo[skillID].SetSkillStep( SKILL_STEP_OUSTERS_COMBAT );
; 1938 : 	m_pTypeInfo[skillID].AddNextSkill( SKILL_FATAL_SNICK );
; 1939 : 
; 1940 : 	skillID = SKILL_FATAL_SNICK;
; 1941 : 	m_pTypeInfo[skillID].Set(sid++, "SKILL_FATAL_SNICK", 340, 343, 377,"FATAL_SNICK");
; 1942 : 	m_pTypeInfo[skillID].SetOustersSkill();
; 1943 : 	m_pTypeInfo[skillID].SetSkillStep( SKILL_STEP_OUSTERS_COMBAT );
; 1944 : 	m_pTypeInfo[skillID].AddNextSkill( SKILL_FATAL_SNICK_MASTERY );
; 1945 : 
; 1946 : 	skillID = SKILL_FATAL_SNICK_MASTERY;
; 1947 : 	m_pTypeInfo[skillID].Set(sid++, "SKILL_FATAL_SNICK_MASTERY", 340, 510, 377,"FATAL_SNICK_MASTERY");
; 1948 : 	m_pTypeInfo[skillID].SetOustersSkill();
; 1949 : 	m_pTypeInfo[skillID].SetPassive();
; 1950 : 	m_pTypeInfo[skillID].SetSkillStep( SKILL_STEP_OUSTERS_COMBAT );
; 1951 : 	m_pTypeInfo[skillID].AddNextSkill( SKILL_SAND_CROSS );
; 1952 : 
; 1953 : 	skillID = SKILL_SAND_CROSS;
; 1954 : 	m_pTypeInfo[skillID].Set(sid++, "SKILL_SAND_CROSS", 47, 413, 378,"SAND_CROSS");
; 1955 : 	m_pTypeInfo[skillID].SetOustersSkill();
; 1956 : 	m_pTypeInfo[skillID].SetPassive();
; 1957 : 	m_pTypeInfo[skillID].SetSkillStep( SKILL_STEP_OUSTERS_COMBAT );
; 1958 : 	m_pTypeInfo[skillID].AddNextSkill( SKILL_DUCKING_WALLOP );
; 1959 : 
; 1960 : 	skillID = SKILL_DUCKING_WALLOP;
; 1961 : 	m_pTypeInfo[skillID].Set(sid++, "SKILL_DUCKING_WALLOP", 152, 412, 379,"DUCKING_WALLOP");
; 1962 : 	m_pTypeInfo[skillID].SetOustersSkill();
; 1963 : 	m_pTypeInfo[skillID].SetSkillStep( SKILL_STEP_OUSTERS_COMBAT );
; 1964 : 	m_pTypeInfo[skillID].AddNextSkill( SKILL_CHARGING_ATTACK );
; 1965 : 
; 1966 : 	skillID = SKILL_CHARGING_ATTACK;
; 1967 : 	m_pTypeInfo[skillID].Set(sid++, "SKILL_CHARGING_ATTACK", 285, 409, 380,"CHARGING_ATTACK");
; 1968 : 	m_pTypeInfo[skillID].SetOustersSkill();
; 1969 : 	m_pTypeInfo[skillID].SetSkillStep( SKILL_STEP_OUSTERS_COMBAT );
; 1970 : 	m_pTypeInfo[skillID].AddNextSkill( SKILL_DISTANCE_BLITZ );
; 1971 : 
; 1972 : 	skillID = SKILL_DISTANCE_BLITZ;
; 1973 : 	m_pTypeInfo[skillID].Set(sid++, "SKILL_DISTANCE_BLITZ", 224, 450, 381,"DISTANCE_BLITZ");
; 1974 : 	m_pTypeInfo[skillID].SetOustersSkill();
; 1975 : 	m_pTypeInfo[skillID].SetSkillStep( SKILL_STEP_OUSTERS_COMBAT );
; 1976 : 	m_pTypeInfo[skillID].AddNextSkill( SKILL_SHARP_HAIL );
; 1977 : 
; 1978 : 	skillID = SKILL_SHARP_HAIL;
; 1979 : 	m_pTypeInfo[skillID].Set(sid++, "SKILL_SHARP_HAIL", 224, 565, 465,"SHARP_HAIL");
; 1980 : 	m_pTypeInfo[skillID].SetOustersSkill();
; 1981 : 	m_pTypeInfo[skillID].SetSkillStep( SKILL_STEP_OUSTERS_COMBAT );
; 1982 : 	m_pTypeInfo[skillID].AddNextSkill( SKILL_SOUL_CHAIN );
; 1983 : 
; 1984 : 	//기타 계열
; 1985 : 	m_pTypeInfo[SKILL_SOUL_CHAIN].Set(sid++, "Soul Chain", MAKELONG(250, 400), MAKELONG(20,40), 175,"소울 체인");
; 1986 : //	m_pTypeInfo[SKILL_SOUL_CHAIN].SetVampireSkill();
; 1987 : 	m_pTypeInfo[SKILL_SOUL_CHAIN].SetSkillStep( SKILL_STEP_ETC );
; 1988 : //	m_pTypeInfo[SKILL_SOUL_CHAIN].SetSkillStep( SKILL_STEP_VAMPIRE_INNATE );
; 1989 : 	m_pTypeInfo[SKILL_SOUL_CHAIN].SetMP( 75 );
; 1990 : 	m_pTypeInfo[SKILL_SOUL_CHAIN].SetLearnLevel( 100 );
; 1991 : 	m_pTypeInfo[SKILL_SOUL_CHAIN].AddNextSkill( SKILL_MAGIC_ELUSION );
; 1992 : 	
; 1993 : 	m_pTypeInfo[SKILL_MAGIC_ELUSION].Set(sid++, "Magic Elusion", 0, 0, 226,"매직 엘루젼");
; 1994 : 	m_pTypeInfo[SKILL_MAGIC_ELUSION].SetSlayerSkill();
; 1995 : 	m_pTypeInfo[SKILL_MAGIC_ELUSION].SetSkillStep( SKILL_STEP_ETC );
; 1996 : 	m_pTypeInfo[SKILL_MAGIC_ELUSION].SetMP( 50 );
; 1997 : 	m_pTypeInfo[SKILL_MAGIC_ELUSION].SetLearnLevel( 0 );
; 1998 : 	m_pTypeInfo[SKILL_MAGIC_ELUSION].AddNextSkill( SKILL_ILLUSION_OF_AVENGE );
; 1999 : 
; 2000 : 	m_pTypeInfo[SKILL_ILLUSION_OF_AVENGE].Set(sid++, "Illusion Of Avenge", 0, 0, 227,"일루젼 오브 어벤지");
; 2001 : 	m_pTypeInfo[SKILL_ILLUSION_OF_AVENGE].SetSlayerSkill();
; 2002 : 	m_pTypeInfo[SKILL_ILLUSION_OF_AVENGE].SetSkillStep( SKILL_STEP_ETC );
; 2003 : 	m_pTypeInfo[SKILL_ILLUSION_OF_AVENGE].SetMP( 50 );
; 2004 : 	m_pTypeInfo[SKILL_ILLUSION_OF_AVENGE].SetLearnLevel( 0 );
; 2005 : 	m_pTypeInfo[SKILL_ILLUSION_OF_AVENGE].AddNextSkill( SKILL_POISON_MESH );
; 2006 : 
; 2007 : 	m_pTypeInfo[SKILL_POISON_MESH].Set(sid++, "Poison Mesh", 0, 0, 228,"포이즌 메쉬");
; 2008 : 	m_pTypeInfo[SKILL_POISON_MESH].SetSlayerSkill();
; 2009 : 	m_pTypeInfo[SKILL_POISON_MESH].SetSkillStep( SKILL_STEP_ETC );
; 2010 : 	m_pTypeInfo[SKILL_POISON_MESH].SetMP( 50 );
; 2011 : 	m_pTypeInfo[SKILL_POISON_MESH].SetLearnLevel( 0 );
; 2012 : 	m_pTypeInfo[SKILL_POISON_MESH].AddNextSkill( SKILL_WILL_OF_LIFE );
; 2013 : 
; 2014 : 	m_pTypeInfo[SKILL_WILL_OF_LIFE].Set(sid++, "Will Of Life", 0, 0, 229,"윌 오브 라이프");
; 2015 : 	m_pTypeInfo[SKILL_WILL_OF_LIFE].SetSlayerSkill();
; 2016 : 	m_pTypeInfo[SKILL_WILL_OF_LIFE].SetSkillStep( SKILL_STEP_ETC );
; 2017 : 	m_pTypeInfo[SKILL_WILL_OF_LIFE].SetMP( 50 );
; 2018 : 	m_pTypeInfo[SKILL_WILL_OF_LIFE].SetLearnLevel( 0 );
; 2019 : 	m_pTypeInfo[SKILL_WILL_OF_LIFE].AddNextSkill( SKILL_DELEO_EFFICIO );
; 2020 : 
; 2021 : 	// 2004, 9, 4, sobeit add start - 아우스터즈 공성전 스킬
; 2022 : 	m_pTypeInfo[SKILL_DELEO_EFFICIO].Set(sid++, "DELEO EFFICIO", 0, 0, 385,"딜레오 에피시오"); // 385
; 2023 : 	m_pTypeInfo[SKILL_DELEO_EFFICIO].SetOustersSkill();
; 2024 : 	m_pTypeInfo[SKILL_DELEO_EFFICIO].SetSkillStep( SKILL_STEP_ETC );
; 2025 : 	m_pTypeInfo[SKILL_DELEO_EFFICIO].SetMP( 50 );
; 2026 : 	m_pTypeInfo[SKILL_DELEO_EFFICIO].SetLearnLevel( 0 );
; 2027 : 	m_pTypeInfo[SKILL_DELEO_EFFICIO].AddNextSkill( SKILL_REPUTO_FACTUM );
; 2028 : 
; 2029 : 	m_pTypeInfo[SKILL_REPUTO_FACTUM].Set(sid++, "REPUTO FACTUM", 0, 0, 386,"리푸토 펙텀"); // 386
; 2030 : 	m_pTypeInfo[SKILL_REPUTO_FACTUM].SetOustersSkill();
; 2031 : 	m_pTypeInfo[SKILL_REPUTO_FACTUM].SetSkillStep( SKILL_STEP_ETC );
; 2032 : 	m_pTypeInfo[SKILL_REPUTO_FACTUM].SetMP( 50 );
; 2033 : 	m_pTypeInfo[SKILL_REPUTO_FACTUM].SetLearnLevel( 0 );
; 2034 : 	m_pTypeInfo[SKILL_REPUTO_FACTUM].AddNextSkill(SKILL_TANNING);
; 2035 : 	// 2004, 9, 4, sobeit add end - 아우스터즈 공성전 스킬
; 2036 : 
; 2037 : 
; 2038 : 	// 2006.01.19 chyaya add start - 일자코흐 프롤로그
; 2039 : 	m_pTypeInfo[SKILL_TANNING].Set(sid++, "Tanning", 0, 0, 511, "가죽 벗기기");
; 2040 : 	m_pTypeInfo[SKILL_TANNING].SetSkillStep(SKILL_STEP_ETC);
; 2041 : 	m_pTypeInfo[SKILL_TANNING].SetMP(0);
; 2042 : 	m_pTypeInfo[SKILL_TANNING].SetLearnLevel(0);
; 2043 : 	m_pTypeInfo[SKILL_TANNING].SetHideInSkillTree( true );
; 2044 : 	m_pTypeInfo[SKILL_TANNING].AddNextSkill(SKILL_MAGIC_SHIELD1);
; 2045 : 	// 2006.01.19 chyaya add end - 일자코흐 프롤로그
; 2046 : 
; 2047 : 
; 2048 : 	//----------------------------------------------------------------------
; 2049 : 	//
; 2050 : 	//							레어 기술들
; 2051 : 	//
; 2052 : 	//----------------------------------------------------------------------
; 2053 : 	// 스킬북을 사용해 배울 수 있는 레어 기술들
; 2054 : 	//----------------------------------------------------------------------
; 2055 : 	
; 2056 : 	// 슬레이어
; 2057 : 	skillID = SKILL_MAGIC_SHIELD1;
; 2058 : 	m_pTypeInfo[skillID].Set(sid++, "Magic Shield 1", 0, 0, 526, "매직 실드 1");
; 2059 : 	m_pTypeInfo[skillID].SetDescription("지속 시간 동안 마법 데미지를 일정 비율 감소.");
; 2060 : 	m_pTypeInfo[skillID].SetSlayerSkill();
; 2061 : 	m_pTypeInfo[skillID].SetSkillStep( SKILL_STEP_SLAYER_RARE );
; 2062 : 	m_pTypeInfo[skillID].SetMP( 30 );
; 2063 : 	m_pTypeInfo[skillID].SetLearnLevel( 60 );
; 2064 : 	m_pTypeInfo[skillID].SetHideInSkillTree( true );	
; 2065 : 	m_pTypeInfo[skillID].AddDelayGroup( SKILL_MAGIC_SHIELD2 );
; 2066 : 	m_pTypeInfo[skillID].AddNextSkill( SKILL_MAGIC_SHIELD2 );
; 2067 : 
; 2068 : 	skillID = SKILL_MAGIC_SHIELD2;
; 2069 : 	m_pTypeInfo[skillID].Set(sid++, "Magic Shield 2", 0, 0, 527, "매직 실드 2");
; 2070 : 	m_pTypeInfo[skillID].SetDescription("매직 쉴드1의 업그레이드 스킬, 지속 시간 동안 마법 데미지를 일정 비율 감소.");
; 2071 : 	m_pTypeInfo[skillID].SetSlayerSkill();
; 2072 : 	m_pTypeInfo[skillID].SetSkillStep( SKILL_STEP_SLAYER_RARE );
; 2073 : 	m_pTypeInfo[skillID].SetMP( 40 );
; 2074 : 	m_pTypeInfo[skillID].SetLearnLevel( 120 );
; 2075 : 	m_pTypeInfo[skillID].SetHideInSkillTree( true );
; 2076 : 	m_pTypeInfo[skillID].AddDelayGroup( SKILL_MAGIC_SHIELD1 );
; 2077 : 	m_pTypeInfo[skillID].AddNextSkill( SKILL_EAGLES_EYE1 );
; 2078 : 
; 2079 : 	skillID = SKILL_EAGLES_EYE1;
; 2080 : 	m_pTypeInfo[skillID].Set(sid++, "Eagle`s Eye 1", 0, 0, 521, "이글즈 아이 1");
; 2081 : 	m_pTypeInfo[skillID].SetDescription("");
; 2082 : 	m_pTypeInfo[skillID].SetSlayerSkill();
; 2083 : 	m_pTypeInfo[skillID].SetSkillStep( SKILL_STEP_SLAYER_RARE );
; 2084 : 	m_pTypeInfo[skillID].SetMP( 30 );
; 2085 : 	m_pTypeInfo[skillID].SetLearnLevel( 60 );
; 2086 : 	m_pTypeInfo[skillID].SetHideInSkillTree( true );
; 2087 : 	m_pTypeInfo[skillID].AddDelayGroup( SKILL_EAGLES_EYE2 );
; 2088 : 	m_pTypeInfo[skillID].AddNextSkill( SKILL_EAGLES_EYE2 );
; 2089 : 
; 2090 : 	skillID = SKILL_EAGLES_EYE2;
; 2091 : 	m_pTypeInfo[skillID].Set(sid++, "Eagle`s Eye 2", 0, 0, 522, "이글즈 아이 2");
; 2092 : 	m_pTypeInfo[skillID].SetDescription("");
; 2093 : 	m_pTypeInfo[skillID].SetSlayerSkill();
; 2094 : 	m_pTypeInfo[skillID].SetSkillStep( SKILL_STEP_SLAYER_RARE );
; 2095 : 	m_pTypeInfo[skillID].SetMP( 40 );
; 2096 : 	m_pTypeInfo[skillID].SetLearnLevel( 120 );
; 2097 : 	m_pTypeInfo[skillID].SetHideInSkillTree( true );
; 2098 : 	m_pTypeInfo[skillID].AddDelayGroup( SKILL_EAGLES_EYE1 );
; 2099 : 	m_pTypeInfo[skillID].AddNextSkill( SKILL_FREEZE_RING1 );
; 2100 : 
; 2101 : 	skillID = SKILL_FREEZE_RING1;
; 2102 : 	m_pTypeInfo[skillID].Set(sid++, "Freeze Ring 1", 0, 0, 523, "프리즈 링 1");
; 2103 : 	m_pTypeInfo[skillID].SetDescription("");
; 2104 : 	m_pTypeInfo[skillID].SetSlayerSkill();
; 2105 : 	m_pTypeInfo[skillID].SetSkillStep( SKILL_STEP_SLAYER_RARE );
; 2106 : 	m_pTypeInfo[skillID].SetMP( 20 );
; 2107 : 	m_pTypeInfo[skillID].SetLearnLevel( 20 );
; 2108 : 	m_pTypeInfo[skillID].SetHideInSkillTree( true );
; 2109 : 	m_pTypeInfo[skillID].AddDelayGroup( SKILL_FREEZE_RING2 );
; 2110 : 	m_pTypeInfo[skillID].AddNextSkill( SKILL_FREEZE_RING2 );
; 2111 : 
; 2112 : 	skillID = SKILL_FREEZE_RING2;
; 2113 : 	m_pTypeInfo[skillID].Set(sid++, "Freeze Ring 2", 0, 0, 524, "프리즈 링 2");
; 2114 : 	m_pTypeInfo[skillID].SetDescription("");
; 2115 : 	m_pTypeInfo[skillID].SetSlayerSkill();
; 2116 : 	m_pTypeInfo[skillID].SetSkillStep( SKILL_STEP_SLAYER_RARE );
; 2117 : 	m_pTypeInfo[skillID].SetMP( 30 );
; 2118 : 	m_pTypeInfo[skillID].SetLearnLevel( 80 );
; 2119 : 	m_pTypeInfo[skillID].SetHideInSkillTree( true );
; 2120 : 	m_pTypeInfo[skillID].AddDelayGroup( SKILL_FREEZE_RING1 );
; 2121 : 	m_pTypeInfo[skillID].AddNextSkill( SKILL_BAT_STORM1 );
; 2122 : 
; 2123 : 	// 뱀파이어
; 2124 : 	skillID = SKILL_BAT_STORM1;
; 2125 : 	m_pTypeInfo[skillID].Set(sid++, "Bat Storm 1", 0, 0, 513, "배트 스톰 1");
; 2126 : 	m_pTypeInfo[skillID].SetDescription("");
; 2127 : 	m_pTypeInfo[skillID].SetVampireSkill();
; 2128 : 	m_pTypeInfo[skillID].SetSkillStep( SKILL_STEP_VAMPIRE_RARE );
; 2129 : 	m_pTypeInfo[skillID].SetMP( 20 );
; 2130 : 	m_pTypeInfo[skillID].SetLearnLevel( 30 );
; 2131 : 	m_pTypeInfo[skillID].SetHideInSkillTree( true );
; 2132 : 	m_pTypeInfo[skillID].AddDelayGroup( SKILL_BAT_STORM2 );
; 2133 : 	m_pTypeInfo[skillID].AddNextSkill( SKILL_BAT_STORM2 );
; 2134 : 
; 2135 : 	skillID = SKILL_BAT_STORM2;
; 2136 : 	m_pTypeInfo[skillID].Set(sid++, "Bat Storm 2", 0, 0, 514, "배트 스톰 2");
; 2137 : 	m_pTypeInfo[skillID].SetDescription("");
; 2138 : 	m_pTypeInfo[skillID].SetVampireSkill();
; 2139 : 	m_pTypeInfo[skillID].SetSkillStep( SKILL_STEP_VAMPIRE_RARE );
; 2140 : 	m_pTypeInfo[skillID].SetMP( 20 );
; 2141 : 	m_pTypeInfo[skillID].SetLearnLevel( 100 );
; 2142 : 	m_pTypeInfo[skillID].SetHideInSkillTree( true );
; 2143 : 	m_pTypeInfo[skillID].AddDelayGroup( SKILL_BAT_STORM1 );
; 2144 : 	m_pTypeInfo[skillID].AddNextSkill( SKILL_CURSE_OF_BLOOD1 );
; 2145 : 
; 2146 : 	skillID = SKILL_CURSE_OF_BLOOD1;
; 2147 : 	m_pTypeInfo[skillID].Set(sid++, "Curse Of Blood 1", 0, 0, 518, "커스 오브 블러드 1");
; 2148 : 	m_pTypeInfo[skillID].SetDescription("");
; 2149 : 	m_pTypeInfo[skillID].SetVampireSkill();
; 2150 : 	m_pTypeInfo[skillID].SetSkillStep( SKILL_STEP_VAMPIRE_RARE );
; 2151 : 	m_pTypeInfo[skillID].SetMP( 20 );
; 2152 : 	m_pTypeInfo[skillID].SetLearnLevel( 20 );
; 2153 : 	m_pTypeInfo[skillID].SetHideInSkillTree( true );
; 2154 : 	m_pTypeInfo[skillID].AddDelayGroup( SKILL_CURSE_OF_BLOOD2 );
; 2155 : 	m_pTypeInfo[skillID].AddNextSkill( SKILL_CURSE_OF_BLOOD2 );
; 2156 : 
; 2157 : 	skillID = SKILL_CURSE_OF_BLOOD2;
; 2158 : 	m_pTypeInfo[skillID].Set(sid++, "Curse Of Blood 2", 0, 0, 519, "커스 오브 블러드 2");
; 2159 : 	m_pTypeInfo[skillID].SetDescription("");
; 2160 : 	m_pTypeInfo[skillID].SetVampireSkill();
; 2161 : 	m_pTypeInfo[skillID].SetSkillStep( SKILL_STEP_VAMPIRE_RARE );
; 2162 : 	m_pTypeInfo[skillID].SetMP( 20 );
; 2163 : 	m_pTypeInfo[skillID].SetLearnLevel( 80 );
; 2164 : 	m_pTypeInfo[skillID].SetHideInSkillTree( true );
; 2165 : 	m_pTypeInfo[skillID].AddDelayGroup( SKILL_CURSE_OF_BLOOD1 );
; 2166 : 	m_pTypeInfo[skillID].AddNextSkill( SKILL_BLOOD_DRAIN2 );
; 2167 : 
; 2168 : 	skillID = SKILL_BLOOD_DRAIN2;
; 2169 : 	m_pTypeInfo[skillID].Set(sid++, "Blood Drain 2", 0, 0, 515, "블러드 드레인 2");
; 2170 : 	m_pTypeInfo[skillID].SetDescription("");
; 2171 : 	m_pTypeInfo[skillID].SetVampireSkill();
; 2172 : 	m_pTypeInfo[skillID].SetSkillStep( SKILL_STEP_VAMPIRE_RARE );
; 2173 : 	m_pTypeInfo[skillID].SetMP( 0 );
; 2174 : 	m_pTypeInfo[skillID].SetLearnLevel( 40 );
; 2175 : 	m_pTypeInfo[skillID].SetHideInSkillTree( true );
; 2176 : 	m_pTypeInfo[skillID].AddNextSkill( SKILL_BLOODY_SHOUT1 );
; 2177 : 
; 2178 : 	skillID = SKILL_BLOODY_SHOUT1;
; 2179 : 	m_pTypeInfo[skillID].Set(sid++, "Bloody Shout 1", 0, 0, 516, "블러디 샤우트 1");
; 2180 : 	m_pTypeInfo[skillID].SetDescription("");
; 2181 : 	m_pTypeInfo[skillID].SetVampireSkill();
; 2182 : 	m_pTypeInfo[skillID].SetSkillStep( SKILL_STEP_VAMPIRE_RARE );
; 2183 : 	m_pTypeInfo[skillID].SetMP( 10 );
; 2184 : 	m_pTypeInfo[skillID].SetLearnLevel( 50 );
; 2185 : 	m_pTypeInfo[skillID].SetHideInSkillTree( true );
; 2186 : 	m_pTypeInfo[skillID].AddDelayGroup( SKILL_BLOODY_SHOUT2 );
; 2187 : 	m_pTypeInfo[skillID].AddNextSkill( SKILL_BLOODY_SHOUT2 );
; 2188 : 
; 2189 : 	skillID = SKILL_BLOODY_SHOUT2;
; 2190 : 	m_pTypeInfo[skillID].Set(sid++, "Bloody Shout 2", 0, 0, 517, "블러디 샤우트 2");
; 2191 : 	m_pTypeInfo[skillID].SetDescription("");
; 2192 : 	m_pTypeInfo[skillID].SetVampireSkill();
; 2193 : 	m_pTypeInfo[skillID].SetSkillStep( SKILL_STEP_VAMPIRE_RARE );
; 2194 : 	m_pTypeInfo[skillID].SetMP( 10 );
; 2195 : 	m_pTypeInfo[skillID].SetLearnLevel( 100 );
; 2196 : 	m_pTypeInfo[skillID].SetHideInSkillTree( true );
; 2197 : 	m_pTypeInfo[skillID].AddDelayGroup( SKILL_BLOODY_SHOUT1 );
; 2198 : 	m_pTypeInfo[skillID].AddNextSkill( SKILL_BLOODY_WINGS );
; 2199 : 
; 2200 : 	skillID = SKILL_BLOODY_WINGS;
; 2201 : 	m_pTypeInfo[skillID].Set(sid++, "Bloody Wings", 0, 0, 520, "블러디 윙즈");
; 2202 : 	m_pTypeInfo[skillID].SetDescription("");
; 2203 : 	m_pTypeInfo[skillID].SetVampireSkill();
; 2204 : 	m_pTypeInfo[skillID].SetSkillStep( SKILL_STEP_VAMPIRE_RARE );
; 2205 : 	m_pTypeInfo[skillID].SetMP( 20 );
; 2206 : 	m_pTypeInfo[skillID].SetLearnLevel( 80 );
; 2207 : 	m_pTypeInfo[skillID].SetHideInSkillTree( true );
; 2208 : 	m_pTypeInfo[skillID].AddNextSkill( SKILL_MIST_OF_SOUL1 );
; 2209 : 
; 2210 : 	// 아우스터즈
; 2211 : 	skillID = SKILL_MIST_OF_SOUL1;
; 2212 : 	m_pTypeInfo[skillID].Set(sid++, "Mist Of Soul 2", 0, 0, 529, "미스트 오브 소울 1");
; 2213 : 	m_pTypeInfo[skillID].SetDescription("");
; 2214 : 	m_pTypeInfo[skillID].SetOustersSkill();
; 2215 : 	m_pTypeInfo[skillID].SetSkillStep( SKILL_STEP_OUSTERS_RARE );
; 2216 : 	m_pTypeInfo[skillID].SetMP( 20 );
; 2217 : 	m_pTypeInfo[skillID].SetLearnLevel( 20 );
; 2218 : 	m_pTypeInfo[skillID].SetHideInSkillTree( true );
; 2219 : 	m_pTypeInfo[skillID].AddDelayGroup( SKILL_MIST_OF_SOUL2 );
; 2220 : 	m_pTypeInfo[skillID].AddNextSkill( SKILL_MIST_OF_SOUL2 );
; 2221 : 	
; 2222 : 	skillID = SKILL_MIST_OF_SOUL2;
; 2223 : 	m_pTypeInfo[skillID].Set(sid++, "Mist Of Soul 2", 0, 0, 530, "미스트 오브 소울 2");
; 2224 : 	m_pTypeInfo[skillID].SetDescription("");
; 2225 : 	m_pTypeInfo[skillID].SetOustersSkill();
; 2226 : 	m_pTypeInfo[skillID].SetSkillStep( SKILL_STEP_OUSTERS_RARE );
; 2227 : 	m_pTypeInfo[skillID].SetMP( 20 );
; 2228 : 	m_pTypeInfo[skillID].SetLearnLevel( 80 );
; 2229 : 	m_pTypeInfo[skillID].SetHideInSkillTree( true );
; 2230 : 	m_pTypeInfo[skillID].AddDelayGroup( SKILL_MIST_OF_SOUL1 );
; 2231 : 	m_pTypeInfo[skillID].AddNextSkill( SKILL_ENERGY_BURST );
; 2232 : 
; 2233 : 	skillID = SKILL_ENERGY_BURST;
; 2234 : 	m_pTypeInfo[skillID].Set(sid++, "Energy Burst", 0, 0, 528, "에너지 버스트");
; 2235 : 	m_pTypeInfo[skillID].SetDescription("");
; 2236 : 	m_pTypeInfo[skillID].SetOustersSkill();
; 2237 : 	m_pTypeInfo[skillID].SetSkillStep( SKILL_STEP_OUSTERS_RARE );
; 2238 : 	m_pTypeInfo[skillID].SetPassive();
; 2239 : 	m_pTypeInfo[skillID].SetLearnLevel( 60 );
; 2240 : 	m_pTypeInfo[skillID].SetHideInSkillTree( true );
; 2241 : 	m_pTypeInfo[skillID].AddNextSkill( SKILL_MAGIC_AVOID1 );
; 2242 : 
; 2243 : 	skillID = SKILL_MAGIC_AVOID1;
; 2244 : 	m_pTypeInfo[skillID].Set(sid++, "Magic Avoid 1", 0, 0, 525, "매직 어보이드 1");
; 2245 : 	m_pTypeInfo[skillID].SetDescription("");
; 2246 : 	m_pTypeInfo[skillID].SetOustersSkill();
; 2247 : 	m_pTypeInfo[skillID].SetSkillStep( SKILL_STEP_COMMON_RARE );
; 2248 : 	m_pTypeInfo[skillID].SetPassive();
; 2249 : 	m_pTypeInfo[skillID].SetLearnLevel( 50 );
; 2250 : 	m_pTypeInfo[skillID].SetHideInSkillTree( true );
; 2251 : 	m_pTypeInfo[skillID].AddDelayGroup( SKILL_MAGIC_AVOID2 );
; 2252 : 	m_pTypeInfo[skillID].AddDelayGroup( SKILL_MAGIC_AVOID3 );
; 2253 : 	m_pTypeInfo[skillID].AddNextSkill( SKILL_MAGIC_AVOID2 );
; 2254 : 
; 2255 : 	skillID = SKILL_MAGIC_AVOID2;
; 2256 : 	m_pTypeInfo[skillID].Set(sid++, "Magic Avoid 2", 0, 0, 531, "매직 어보이드 2");
; 2257 : 	m_pTypeInfo[skillID].SetDescription("");
; 2258 : 	m_pTypeInfo[skillID].SetOustersSkill();
; 2259 : 	m_pTypeInfo[skillID].SetSkillStep( SKILL_STEP_COMMON_RARE );
; 2260 : 	m_pTypeInfo[skillID].SetPassive();
; 2261 : 	m_pTypeInfo[skillID].SetLearnLevel( 100 );
; 2262 : 	m_pTypeInfo[skillID].SetHideInSkillTree( true );
; 2263 : 	m_pTypeInfo[skillID].AddDelayGroup( SKILL_MAGIC_AVOID1 );
; 2264 : 	m_pTypeInfo[skillID].AddDelayGroup( SKILL_MAGIC_AVOID3 );
; 2265 : 	m_pTypeInfo[skillID].AddNextSkill( SKILL_MAGIC_AVOID3 );
; 2266 : 
; 2267 : 	skillID = SKILL_MAGIC_AVOID3;
; 2268 : 	m_pTypeInfo[skillID].Set(sid++, "Magic Avoid 3", 0, 0, 532, "매직 어보이드 3");
; 2269 : 	m_pTypeInfo[skillID].SetDescription("");
; 2270 : 	m_pTypeInfo[skillID].SetOustersSkill();
; 2271 : 	m_pTypeInfo[skillID].SetSkillStep( SKILL_STEP_COMMON_RARE );
; 2272 : 	m_pTypeInfo[skillID].SetPassive();
; 2273 : 	m_pTypeInfo[skillID].SetLearnLevel( 150 );
; 2274 : 	m_pTypeInfo[skillID].SetHideInSkillTree( true );
; 2275 : 	m_pTypeInfo[skillID].AddDelayGroup( SKILL_MAGIC_AVOID2 );
; 2276 : 	m_pTypeInfo[skillID].AddDelayGroup( SKILL_MAGIC_AVOID3 );
; 2277 : #if __CONTENTS(__SECOND_RARE_SKILL)
; 2278 : 	m_pTypeInfo[skillID].AddNextSkill( SKILL_HEAVENLY_SPARK );
; 2279 : #else
; 2280 : 	m_pTypeInfo[skillID].AddNextSkill( SKILL_HALO );
; 2281 : #endif //__SECOND_RARE_SKILL
; 2282 : #if __CONTENTS(__SECOND_RARE_SKILL)
; 2283 : 	skillID = SKILL_HEAVENLY_SPARK;
; 2284 : 	m_pTypeInfo[skillID].Set(sid++, "Heavenly Spark", 0, 0, 539, "헤븐리 스파크");
; 2285 : 	m_pTypeInfo[skillID].SetDescription("");
; 2286 : 	m_pTypeInfo[skillID].SetSlayerSkill();
; 2287 : 	m_pTypeInfo[skillID].SetSkillStep(SKILL_STEP_SLAYER_RARE);
; 2288 : 	m_pTypeInfo[skillID].SetMP( 10 );
; 2289 : 	m_pTypeInfo[skillID].SetLearnLevel(161);
; 2290 : 	m_pTypeInfo[skillID].SetHideInSkillTree(true);
; 2291 : 	m_pTypeInfo[skillID].AddNextSkill(SKILL_BLADE_STORM);
; 2292 : 
; 2293 : 	skillID = SKILL_BLADE_STORM;
; 2294 : 	m_pTypeInfo[skillID].Set(sid++, "Blade Storm", 0, 0, 540, "블레이드 스톰");
; 2295 : 	m_pTypeInfo[skillID].SetDescription("");
; 2296 : 	m_pTypeInfo[skillID].SetSlayerSkill();
; 2297 : 	m_pTypeInfo[skillID].SetSkillStep(SKILL_STEP_SLAYER_RARE);
; 2298 : 	m_pTypeInfo[skillID].SetMP( 8 );
; 2299 : 	m_pTypeInfo[skillID].SetLearnLevel(161);
; 2300 : 	m_pTypeInfo[skillID].SetHideInSkillTree(true);
; 2301 : 	m_pTypeInfo[skillID].AddNextSkill(SKILL_XRL);
; 2302 : 
; 2303 : 	skillID = SKILL_XRL;
; 2304 : 	m_pTypeInfo[skillID].Set(sid++, "eXplosion Roket Launcher", 0, 0, 541, "XRL");
; 2305 : 	m_pTypeInfo[skillID].SetDescription("");
; 2306 : 	m_pTypeInfo[skillID].SetSlayerSkill();
; 2307 : 	m_pTypeInfo[skillID].SetSkillStep(SKILL_STEP_SLAYER_RARE);
; 2308 : 	m_pTypeInfo[skillID].SetMP( 10 );
; 2309 : 	m_pTypeInfo[skillID].SetLearnLevel(161);
; 2310 : 	m_pTypeInfo[skillID].SetHideInSkillTree(true);
; 2311 : 	m_pTypeInfo[skillID].AddNextSkill(SKILL_GENESIS);
; 2312 : 
; 2313 : 	skillID = SKILL_GENESIS;
; 2314 : 	m_pTypeInfo[skillID].Set(sid++, "Genesis", 0, 0, 542, "제네시스");
; 2315 : 	m_pTypeInfo[skillID].SetDescription("");
; 2316 : 	m_pTypeInfo[skillID].SetSlayerSkill();
; 2317 : 	m_pTypeInfo[skillID].SetSkillStep(SKILL_STEP_SLAYER_RARE);
; 2318 : 	m_pTypeInfo[skillID].SetMP( 30 );
; 2319 : 	m_pTypeInfo[skillID].SetLearnLevel(161);
; 2320 : 	m_pTypeInfo[skillID].SetHideInSkillTree(true);
; 2321 : 	m_pTypeInfo[skillID].AddDelayGroup( SKILL_BOMBING_STAR );
; 2322 : 	m_pTypeInfo[skillID].AddNextSkill(SKILL_THORNS);
; 2323 : 
; 2324 : 	skillID = SKILL_THORNS;
; 2325 : 	m_pTypeInfo[skillID].Set(sid++, "Thorns", 0, 0, 543, "쏜즈");
; 2326 : 	m_pTypeInfo[skillID].SetDescription("");
; 2327 : 	m_pTypeInfo[skillID].SetSlayerSkill();
; 2328 : 	m_pTypeInfo[skillID].SetSkillStep(SKILL_STEP_SLAYER_RARE);
; 2329 : 	m_pTypeInfo[skillID].SetMP( 60 );
; 2330 : 	m_pTypeInfo[skillID].SetLearnLevel(161);
; 2331 : 	m_pTypeInfo[skillID].SetHideInSkillTree(true);
; 2332 : 	m_pTypeInfo[skillID].AddNextSkill(SKILL_LETHAL_CLAW);
; 2333 : 
; 2334 : 	skillID = SKILL_LETHAL_CLAW;
; 2335 : 	m_pTypeInfo[skillID].Set(sid++, "Lethal Claw", 0, 0, 544, "리썰 클로우");
; 2336 : 	m_pTypeInfo[skillID].SetDescription("");
; 2337 : 	m_pTypeInfo[skillID].SetVampireSkill();
; 2338 : 	m_pTypeInfo[skillID].SetSkillStep(SKILL_STEP_VAMPIRE_RARE);
; 2339 : 	m_pTypeInfo[skillID].SetMP( 15 );
; 2340 : 	m_pTypeInfo[skillID].SetLearnLevel(161);
; 2341 : 	m_pTypeInfo[skillID].SetHideInSkillTree(true);
; 2342 : 	m_pTypeInfo[skillID].AddNextSkill(SKILL_VENOM_CIRCLE);
; 2343 : 
; 2344 : 	skillID = SKILL_VENOM_CIRCLE;
; 2345 : 	m_pTypeInfo[skillID].Set(sid++, "Venom Circle", 0, 0, 545, "베놈 서클");
; 2346 : 	m_pTypeInfo[skillID].SetDescription("");
; 2347 : 	m_pTypeInfo[skillID].SetVampireSkill();
; 2348 : 	m_pTypeInfo[skillID].SetSkillStep(SKILL_STEP_VAMPIRE_RARE);
; 2349 : 	m_pTypeInfo[skillID].SetMP( 30 );
; 2350 : 	m_pTypeInfo[skillID].SetLearnLevel(161);
; 2351 : 	m_pTypeInfo[skillID].SetHideInSkillTree(true);
; 2352 : 	m_pTypeInfo[skillID].AddNextSkill(SKILL_BRIONAC);
; 2353 : 
; 2354 : 	skillID = SKILL_BRIONAC;
; 2355 : 	m_pTypeInfo[skillID].Set(sid++, "Brionac", 0, 0, 546, "브류나크");
; 2356 : 	m_pTypeInfo[skillID].SetDescription("");
; 2357 : 	m_pTypeInfo[skillID].SetOustersSkill();
; 2358 : 	m_pTypeInfo[skillID].SetSkillStep(SKILL_STEP_OUSTERS_RARE);
; 2359 : 	m_pTypeInfo[skillID].SetMP( 13 );
; 2360 : 	m_pTypeInfo[skillID].SetLearnLevel(161);
; 2361 : 	m_pTypeInfo[skillID].SetHideInSkillTree(true);
; 2362 : 	m_pTypeInfo[skillID].AddDelayGroup( SKILL_DESTRUCTION_SPEAR);
; 2363 : 	m_pTypeInfo[skillID].AddNextSkill(SKILL_ASTEROID_BOMBER);
; 2364 : 
; 2365 : 	skillID = SKILL_ASTEROID_BOMBER;
; 2366 : 	m_pTypeInfo[skillID].Set(sid++, "Asteroid Bomber", 0, 0, 547, "아스테로이드 봄버");
; 2367 : 	m_pTypeInfo[skillID].SetDescription("");
; 2368 : 	m_pTypeInfo[skillID].SetOustersSkill();
; 2369 : 	m_pTypeInfo[skillID].SetSkillStep(SKILL_STEP_OUSTERS_RARE);
; 2370 : 	m_pTypeInfo[skillID].SetMP( 40 );
; 2371 : 	m_pTypeInfo[skillID].SetLearnLevel(161);
; 2372 : 	m_pTypeInfo[skillID].SetHideInSkillTree(true);
; 2373 : 	m_pTypeInfo[skillID].AddDelayGroup( SKILL_METEOR_STORM );
; 2374 : 	m_pTypeInfo[skillID].AddNextSkill(SKILL_FROZEN_GLACIER);
; 2375 : 
; 2376 : 	skillID = SKILL_FROZEN_GLACIER;
; 2377 : 	m_pTypeInfo[skillID].Set(sid++, "Frozen Glacier", 0, 0, 548, "프로즌 글레셔");
; 2378 : 	m_pTypeInfo[skillID].SetDescription("");
; 2379 : 	m_pTypeInfo[skillID].SetOustersSkill();
; 2380 : 	m_pTypeInfo[skillID].SetSkillStep(SKILL_STEP_OUSTERS_RARE);
; 2381 : 	m_pTypeInfo[skillID].SetMP( 30 );
; 2382 : 	m_pTypeInfo[skillID].SetLearnLevel(161);
; 2383 : 	m_pTypeInfo[skillID].SetHideInSkillTree(true);
; 2384 : 	m_pTypeInfo[skillID].AddDelayGroup( SKILL_ICE_LANCE );
; 2385 : 	m_pTypeInfo[skillID].AddNextSkill(SKILL_INCINERATE);
; 2386 : 
; 2387 : 	skillID = SKILL_INCINERATE;
; 2388 : 	m_pTypeInfo[skillID].Set(sid++, "Incinerate", 0, 0, 549, "인시너레이트");
; 2389 : 	m_pTypeInfo[skillID].SetDescription("");
; 2390 : 	m_pTypeInfo[skillID].SetOustersSkill();
; 2391 : 	m_pTypeInfo[skillID].SetSkillStep(SKILL_STEP_OUSTERS_RARE);
; 2392 : 	m_pTypeInfo[skillID].SetMP( 30 );
; 2393 : 	m_pTypeInfo[skillID].SetLearnLevel(161);
; 2394 : 	m_pTypeInfo[skillID].SetHideInSkillTree(true);
; 2395 : 	m_pTypeInfo[skillID].AddNextSkill(SKILL_INCREASE_OF_HEALTH1);
; 2396 : 
; 2397 : 	skillID = SKILL_INCREASE_OF_HEALTH1;
; 2398 : 	m_pTypeInfo[skillID].Set(sid++, "Increase of health1", 0, 0, 550, "인크리즈 오브 헬스1");
; 2399 : 	m_pTypeInfo[skillID].SetDescription("");
; 2400 : 	m_pTypeInfo[skillID].SetPassive();
; 2401 : 	m_pTypeInfo[skillID].SetSkillStep(SKILL_STEP_COMMON_RARE);
; 2402 : 	m_pTypeInfo[skillID].SetLearnLevel(151);
; 2403 : 	m_pTypeInfo[skillID].SetHideInSkillTree(true);
; 2404 : 	m_pTypeInfo[skillID].AddNextSkill(SKILL_INCREASE_OF_HEALTH2);
; 2405 : 
; 2406 : 	skillID = SKILL_INCREASE_OF_HEALTH2;
; 2407 : 	m_pTypeInfo[skillID].Set(sid++, "Increase of health2", 0, 0, 551, "인크리즈 오브 헬스2");
; 2408 : 	m_pTypeInfo[skillID].SetDescription("");
; 2409 : 	m_pTypeInfo[skillID].SetPassive();
; 2410 : 	m_pTypeInfo[skillID].SetSkillStep(SKILL_STEP_COMMON_RARE);
; 2411 : 	m_pTypeInfo[skillID].SetLearnLevel(161);
; 2412 : 	m_pTypeInfo[skillID].SetHideInSkillTree(true);
; 2413 : 	m_pTypeInfo[skillID].AddNextSkill(SKILL_INCREASE_OF_HEALTH3);
; 2414 : 
; 2415 : 	skillID = SKILL_INCREASE_OF_HEALTH3;
; 2416 : 	m_pTypeInfo[skillID].Set(sid++, "Increase of health3", 0, 0, 552, "인크리즈 오브 헬스3");
; 2417 : 	m_pTypeInfo[skillID].SetDescription("");
; 2418 : 	m_pTypeInfo[skillID].SetPassive();
; 2419 : 	m_pTypeInfo[skillID].SetSkillStep(SKILL_STEP_COMMON_RARE);
; 2420 : 	m_pTypeInfo[skillID].SetLearnLevel(171);
; 2421 : 	m_pTypeInfo[skillID].SetHideInSkillTree(true);
; 2422 : 	m_pTypeInfo[skillID].AddNextSkill(SKILL_INCREASE_OF_HEALTH4);
; 2423 : 
; 2424 : 	skillID = SKILL_INCREASE_OF_HEALTH4;
; 2425 : 	m_pTypeInfo[skillID].Set(sid++, "Increase of health4", 0, 0, 553, "인크리즈 오브 헬스4");
; 2426 : 	m_pTypeInfo[skillID].SetDescription("");
; 2427 : 	m_pTypeInfo[skillID].SetPassive();
; 2428 : 	m_pTypeInfo[skillID].SetSkillStep(SKILL_STEP_COMMON_RARE);
; 2429 : 	m_pTypeInfo[skillID].SetLearnLevel(181);
; 2430 : 	m_pTypeInfo[skillID].SetHideInSkillTree(true);
; 2431 : 	m_pTypeInfo[skillID].AddNextSkill(SKILL_INCREASE_OF_HEALTH5);
; 2432 : 	
; 2433 : 	skillID = SKILL_INCREASE_OF_HEALTH5;
; 2434 : 	m_pTypeInfo[skillID].Set(sid++, "Increase of health5", 0, 0, 554, "인크리즈 오브 헬스5");
; 2435 : 	m_pTypeInfo[skillID].SetDescription("");
; 2436 : 	m_pTypeInfo[skillID].SetPassive();
; 2437 : 	m_pTypeInfo[skillID].SetSkillStep(SKILL_STEP_COMMON_RARE);
; 2438 : 	m_pTypeInfo[skillID].SetLearnLevel(191);
; 2439 : 	m_pTypeInfo[skillID].SetHideInSkillTree(true);
; 2440 : 	m_pTypeInfo[skillID].AddNextSkill(SKILL_INCREASE_OF_HEALTH6);
; 2441 : 
; 2442 : 	skillID = SKILL_INCREASE_OF_HEALTH6;
; 2443 : 	m_pTypeInfo[skillID].Set(sid++, "Increase of health6", 0, 0, 555, "인크리즈 오브 헬스6");
; 2444 : 	m_pTypeInfo[skillID].SetDescription("");
; 2445 : 	m_pTypeInfo[skillID].SetPassive();
; 2446 : 	m_pTypeInfo[skillID].SetSkillStep(SKILL_STEP_COMMON_RARE);
; 2447 : 	m_pTypeInfo[skillID].SetLearnLevel(201);
; 2448 : 	m_pTypeInfo[skillID].SetHideInSkillTree(true);
; 2449 : 	m_pTypeInfo[skillID].AddNextSkill(SKILL_BLADE_MAGMA_DETONATION_1);
; 2450 : #endif //__SECOND_RARE_SKILL
; 2451 : 
; 2452 : #if __CONTENTS(__20091116_ADD_RARE_SKILL)
; 2453 : 	skillID = SKILL_BLADE_MAGMA_DETONATION_1;
; 2454 : 	m_pTypeInfo[skillID].Set(sid++, "Magma detonation 1", 0, 0, 560, "마그마 데토네이션 1");
; 2455 : 	m_pTypeInfo[skillID].SetDescription("");
; 2456 : 	m_pTypeInfo[skillID].SetSlayerSkill();
; 2457 : 	m_pTypeInfo[skillID].SetSkillStep(SKILL_STEP_SLAYER_RARE);
; 2458 : 	m_pTypeInfo[skillID].SetMP(20);
; 2459 : 	m_pTypeInfo[skillID].SetLearnLevel(50);
; 2460 : 	m_pTypeInfo[skillID].SetHideInSkillTree(true);
; 2461 : 	m_pTypeInfo[skillID].AddDelayGroup( SKILL_BLADE_MAGMA_DETONATION_2 );
; 2462 : 	m_pTypeInfo[skillID].AddNextSkill(SKILL_BLADE_MAGMA_DETONATION_2);
; 2463 : 
; 2464 : 	skillID = SKILL_BLADE_MAGMA_DETONATION_2;
; 2465 : 	m_pTypeInfo[skillID].Set(sid++, "Magma detonation 2", 0, 0, 561, "마그마 데토네이션 2");
; 2466 : 	m_pTypeInfo[skillID].SetDescription("");
; 2467 : 	m_pTypeInfo[skillID].SetSlayerSkill();
; 2468 : 	m_pTypeInfo[skillID].SetSkillStep(SKILL_STEP_SLAYER_RARE);
; 2469 : 	m_pTypeInfo[skillID].SetMP(25);
; 2470 : 	m_pTypeInfo[skillID].SetLearnLevel(100);
; 2471 : 	m_pTypeInfo[skillID].SetHideInSkillTree(true);
; 2472 : 	m_pTypeInfo[skillID].AddDelayGroup( SKILL_BLADE_MAGMA_DETONATION_1 );
; 2473 : 	m_pTypeInfo[skillID].AddNextSkill(SKILL_OUSTERS_SQUALLY_BARRIER_1);
; 2474 : 
; 2475 : 	skillID = SKILL_OUSTERS_SQUALLY_BARRIER_1;
; 2476 : 	m_pTypeInfo[skillID].Set(sid++, "Squally barrier 1", 0, 0, 562, "질풍의 베리어 1");
; 2477 : 	m_pTypeInfo[skillID].SetDescription("");
; 2478 : 	m_pTypeInfo[skillID].SetOustersSkill();
; 2479 : 	m_pTypeInfo[skillID].SetSkillStep(SKILL_STEP_OUSTERS_RARE);
; 2480 : 	m_pTypeInfo[skillID].SetMP(25);
; 2481 : 	m_pTypeInfo[skillID].SetLearnLevel(50);
; 2482 : 	m_pTypeInfo[skillID].SetHideInSkillTree(true);
; 2483 : 	m_pTypeInfo[skillID].AddDelayGroup( SKILL_OUSTERS_SQUALLY_BARRIER_2 );
; 2484 : 	m_pTypeInfo[skillID].AddNextSkill(SKILL_OUSTERS_SQUALLY_BARRIER_2);
; 2485 : 
; 2486 : 	skillID = SKILL_OUSTERS_SQUALLY_BARRIER_2;
; 2487 : 	m_pTypeInfo[skillID].Set(sid++, "Squally barrier 2", 0, 0, 563, "질풍의 베리어 2");
; 2488 : 	m_pTypeInfo[skillID].SetDescription("");
; 2489 : 	m_pTypeInfo[skillID].SetOustersSkill();
; 2490 : 	m_pTypeInfo[skillID].SetSkillStep(SKILL_STEP_OUSTERS_RARE);
; 2491 : 	m_pTypeInfo[skillID].SetMP(30);
; 2492 : 	m_pTypeInfo[skillID].SetLearnLevel(100);
; 2493 : 	m_pTypeInfo[skillID].SetHideInSkillTree(true);
; 2494 : 	m_pTypeInfo[skillID].AddDelayGroup( SKILL_OUSTERS_SQUALLY_BARRIER_1 );
; 2495 : 	m_pTypeInfo[skillID].AddNextSkill(SKILL_HALO);
; 2496 : #endif //__20091116_ADD_RARE_SKILL
; 2497 : 
; 2498 : 
; 2499 : 
; 2500 : 	// 아우스터즈 승직 스킬
; 2501 : 	// By csm 아우스터즈 승직 공통 스킬 
; 2502 : 	
; 2503 : 	// sjheon	2005.07.29 End
; 2504 : 
; 2505 : 	m_pTypeInfo[SKILL_HALO].Set(sid++, "halo", 0, 0, 476,"헤일로"); 
; 2506 : 	m_pTypeInfo[SKILL_HALO].SetOustersSkill();
; 2507 : 	m_pTypeInfo[SKILL_HALO].SetSkillStep( SKILL_STEP_OUSTERS_COMBAT_ADVANCEMENT );
; 2508 : 	m_pTypeInfo[SKILL_HALO].SetMP( 50 );
; 2509 : 	m_pTypeInfo[SKILL_HALO].SetLearnLevel( 150 );
; 2510 : 	m_pTypeInfo[SKILL_HALO].AddNextSkill(SKILL_HETER_CHAKRAM) ; // SKILL_DESTINIES );
; 2511 : 
; 2512 : 	m_pTypeInfo[SKILL_DESTINIES].Set(sid++, "Destinies", 0, 0, 477,"데스티니스"); 
; 2513 : 	m_pTypeInfo[SKILL_DESTINIES].SetOustersSkill();
; 2514 : 	m_pTypeInfo[SKILL_DESTINIES].SetSkillStep( SKILL_STEP_OUSTERS_EARTH_ADVANCEMENT );
; 2515 : 	m_pTypeInfo[SKILL_DESTINIES].SetMP( 50 );
; 2516 : 	m_pTypeInfo[SKILL_DESTINIES].SetLearnLevel( 150 );
; 2517 : 	m_pTypeInfo[SKILL_DESTINIES].AddNextSkill( SKILL_SUMMON_CLAY) ;//SKILL_FIERCE_FLAME );
; 2518 : 
; 2519 : 	m_pTypeInfo[SKILL_FIERCE_FLAME].Set(sid++, "Fierce Flame", 0, 0, 478,"피어스프레임"); 
; 2520 : 	m_pTypeInfo[SKILL_FIERCE_FLAME].SetOustersSkill();
; 2521 : 	m_pTypeInfo[SKILL_FIERCE_FLAME].SetSkillStep( SKILL_STEP_OUSTERS_FIRE_ADVANCEMENT );
; 2522 : 	m_pTypeInfo[SKILL_FIERCE_FLAME].SetMP( 50 );
; 2523 : 	m_pTypeInfo[SKILL_FIERCE_FLAME].SetLearnLevel( 150 );
; 2524 : 	m_pTypeInfo[SKILL_FIERCE_FLAME].AddDelayGroup(SKILL_HELLFIRE);
; 2525 : 	m_pTypeInfo[SKILL_FIERCE_FLAME].AddNextSkill(SKILL_DUMMY_DRAKE) ; //SKILL_SHADOW_OF_STORM );
; 2526 : 
; 2527 : 	m_pTypeInfo[SKILL_SHADOW_OF_STORM].Set(sid++, "Shadow Of Storm", 0, 0, 479,"쉐도우 오브 스톰"); 
; 2528 : 	m_pTypeInfo[SKILL_SHADOW_OF_STORM].SetOustersSkill();
; 2529 : 	m_pTypeInfo[SKILL_SHADOW_OF_STORM].SetSkillStep( SKILL_STEP_OUSTERS_WATER_ADVANCEMENT );
; 2530 : 	m_pTypeInfo[SKILL_SHADOW_OF_STORM].SetMP( 50 );
; 2531 : 	m_pTypeInfo[SKILL_SHADOW_OF_STORM].SetLearnLevel( 150 );
; 2532 : 	m_pTypeInfo[SKILL_SHADOW_OF_STORM].AddNextSkill(SKILL_HYDRO_CONVERGENCE) ;//SKILL_DRAGON_TORNADO) ; //SKILL_OUSTERS_COMBO) ; //  SKILL_DRAGON_TORNADO) ; //SKILL_OUSTERS_COMBO) ;
; 2533 : 	
; 2534 : 
; 2535 : 	// 160 스킬
; 2536 : 	m_pTypeInfo[SKILL_HETER_CHAKRAM].Set(sid++, "Heter Chakram", 0, 0, 507, "헤테르 차크람"); 
; 2537 : 	m_pTypeInfo[SKILL_HETER_CHAKRAM].SetOustersSkill();
; 2538 : 	m_pTypeInfo[SKILL_HETER_CHAKRAM].SetSkillStep( SKILL_STEP_OUSTERS_COMBAT_ADVANCEMENT );
; 2539 : 	m_pTypeInfo[SKILL_HETER_CHAKRAM].SetMP( 50 );
; 2540 : 	m_pTypeInfo[SKILL_HETER_CHAKRAM].SetLearnLevel( 160 );
; 2541 : 	m_pTypeInfo[SKILL_HETER_CHAKRAM].AddNextSkill(SKILL_DESTINIES) ; // SKILL_DESTINIES );
; 2542 : 
; 2543 : 
; 2544 : 	m_pTypeInfo[SKILL_DUMMY_DRAKE].Set(sid++, "Dummy Drake", 0, 0, 508,"더미 드레이크"); 
; 2545 : 	m_pTypeInfo[SKILL_DUMMY_DRAKE].SetOustersSkill();
; 2546 : 	m_pTypeInfo[SKILL_DUMMY_DRAKE].SetSkillStep( SKILL_STEP_OUSTERS_FIRE_ADVANCEMENT );
; 2547 : 	m_pTypeInfo[SKILL_DUMMY_DRAKE].SetMP( 50 );
; 2548 : 	m_pTypeInfo[SKILL_DUMMY_DRAKE].SetLearnLevel( 160 );
; 2549 : 	m_pTypeInfo[SKILL_DUMMY_DRAKE].AddNextSkill( SKILL_SHADOW_OF_STORM );
; 2550 : 
; 2551 : 	
; 2552 : 	m_pTypeInfo[SKILL_HYDRO_CONVERGENCE].Set(sid++, "Hydro Convergence", 0, 0, 509,"하이드로 컨버전스"); 
; 2553 : 	m_pTypeInfo[SKILL_HYDRO_CONVERGENCE].SetOustersSkill();
; 2554 : 	m_pTypeInfo[SKILL_HYDRO_CONVERGENCE].SetSkillStep( SKILL_STEP_OUSTERS_WATER_ADVANCEMENT );
; 2555 : 	m_pTypeInfo[SKILL_HYDRO_CONVERGENCE].SetMP( 50 );
; 2556 : 	m_pTypeInfo[SKILL_HYDRO_CONVERGENCE].SetLearnLevel( 160 );
; 2557 : 	m_pTypeInfo[SKILL_HYDRO_CONVERGENCE].AddNextSkill( SKILL_DRAGON_TORNADO );
; 2558 : 
; 2559 : 	
; 2560 : 	m_pTypeInfo[SKILL_SUMMON_CLAY].Set(sid++, "Summon Clay", 0, 0, 510, "서몬 클래이"); 
; 2561 : 	m_pTypeInfo[SKILL_SUMMON_CLAY].SetOustersSkill();
; 2562 : 	m_pTypeInfo[SKILL_SUMMON_CLAY].SetSkillStep( SKILL_STEP_OUSTERS_EARTH_ADVANCEMENT );
; 2563 : 	m_pTypeInfo[SKILL_SUMMON_CLAY].SetMP( 50 );
; 2564 : 	m_pTypeInfo[SKILL_SUMMON_CLAY].SetLearnLevel( 160 );
; 2565 : 	m_pTypeInfo[SKILL_SUMMON_CLAY].AddNextSkill( SKILL_FIERCE_FLAME);
; 2566 : 
; 2567 : 
; 2568 : 	// sjheon	2005.07.29 Add	
; 2569 : //	m_pTypeInfo[SKILL_OUSTERS_COMBO].Set(sid++, "Ousters Combo", 0, 0, 479,"아우스트 콤보"); 
; 2570 : //	m_pTypeInfo[SKILL_OUSTERS_COMBO].SetOustersSkill();
; 2571 : //	m_pTypeInfo[SKILL_OUSTERS_COMBO].SetSkillStep( SKILL_STEP_OUSTERS_COMBAT_ADVANCEMENT);
; 2572 : //	m_pTypeInfo[SKILL_OUSTERS_COMBO].SetMP( 50 );
; 2573 : //	m_pTypeInfo[SKILL_OUSTERS_COMBO].SetLearnLevel( 150 );
; 2574 : //	m_pTypeInfo[SKILL_OUSTERS_COMBO].AddNextSkill(SKILL_DRAGON_TORNADO) ; //SKILL_HALO) ; //SKILL_DESTINIES) ; // SKILL_HALO) ; //SKILL_DRAGON_TORNADO) ; //SKILL_DESTINIES);
; 2575 : 	// sjheon	2005.07.29 End
; 2576 : 
; 2577 : 
; 2578 : 	//----------------------------------------------------------------------
; 2579 : 	//
; 2580 : 	//							기타 기술들
; 2581 : 	//
; 2582 : 	//----------------------------------------------------------------------
; 2583 : 	// SkillTree에는 안 없지만, Icon을 선택해서 사용할 수 있는 기술들
; 2584 : 	//----------------------------------------------------------------------
; 2585 : 	
; 2586 : 	//----------------------------------------------------------------------
; 2587 : 	// 성수 던지기
; 2588 : 	//----------------------------------------------------------------------
; 2589 : 	m_pTypeInfo[MAGIC_THROW_HOLY_WATER].Set(0, "Throw Holy Water", 0, 0,  101,"성수 던지기");
; 2590 : 	m_pTypeInfo[MAGIC_THROW_HOLY_WATER].SetMP( 0 );
; 2591 : 
; 2592 : 	// 터렛 공격
; 2593 : 	m_pTypeInfo[SKILL_TURRET_FIRE].Set(0, "Turret Fire", 0, 0, 389,"터렛 파이어");
; 2594 : 	m_pTypeInfo[SKILL_TURRET_FIRE].SetMP( 0 );
; 2595 : 	//----------------------------------------------------------------------
; 2596 : 	// 포탈
; 2597 : 	//----------------------------------------------------------------------
; 2598 : 	m_pTypeInfo[SUMMON_HELICOPTER].Set(0, "Call Helicopter", 0, 0,  115,"헬리콥터 부르기");
; 2599 : 	m_pTypeInfo[SUMMON_HELICOPTER].SetMP( 0 );
; 2600 : 
; 2601 : 	//----------------------------------------------------------------------
; 2602 : 	// 흡혈
; 2603 : 	//----------------------------------------------------------------------
; 2604 : 	m_pTypeInfo[SKILL_BLOOD_DRAIN].Set(0, "Blood Drain", 0, 0,  102,"흡혈");
; 2605 : 	m_pTypeInfo[SKILL_BLOOD_DRAIN].SetVampireSkill();
; 2606 : 	m_pTypeInfo[SKILL_BLOOD_DRAIN].SetMP( 0 );
; 2607 : 
; 2608 : 	//----------------------------------------------------------------------
; 2609 : 	// 폭탄 
; 2610 : 	//----------------------------------------------------------------------	
; 2611 : 	m_pTypeInfo[BOMB_SPLINTER].Set(0, "Bomb-Splinter", 0, 0, 137,"Bomb-Splinter");
; 2612 : 	m_pTypeInfo[BOMB_SPLINTER].SetMP( 0 );
; 2613 : 
; 2614 : 	m_pTypeInfo[BOMB_ACER].Set(0, "Bomb-Acer", 0, 0, 138,"Bomb-Acer");
; 2615 : 	m_pTypeInfo[BOMB_ACER].SetMP( 0 );
; 2616 : 
; 2617 : 	m_pTypeInfo[BOMB_BULLS].Set(0, "Bomb-Bulls", 0, 0, 139,"Bomb-Bulls");
; 2618 : 	m_pTypeInfo[BOMB_BULLS].SetMP( 0 );
; 2619 : 
; 2620 : 	m_pTypeInfo[BOMB_STUN].Set(0, "Bomb-Stun", 0, 0, 140,"Bomb-Stun");
; 2621 : 	m_pTypeInfo[BOMB_STUN].SetMP( 0 );
; 2622 : 
; 2623 : 	m_pTypeInfo[BOMB_CROSSBOW].Set(0, "Bomb-Crossbow", 0, 0, 141,"Bomb-Crossbow");
; 2624 : 	m_pTypeInfo[BOMB_CROSSBOW].SetMP( 0 );
; 2625 : 
; 2626 : 	m_pTypeInfo[BOMB_TWISTER].Set(0, "Bomb-Twister", 0, 0, 142,"Bomb-Twister");
; 2627 : 	m_pTypeInfo[BOMB_TWISTER].SetMP( 0 );
; 2628 : 
; 2629 : 	//----------------------------------------------------------------------
; 2630 : 	// 지뢰
; 2631 : 	//----------------------------------------------------------------------
; 2632 : 	m_pTypeInfo[MINE_ANKLE_KILLER].Set(0, "Mine-AnkleKiller", 0, 0, 143,"Mine-AnkleKiller");
; 2633 : 	m_pTypeInfo[MINE_ANKLE_KILLER].SetMP( 0 );
; 2634 : 	
; 2635 : 	m_pTypeInfo[MINE_POMZ].Set(0, "Mine-Pomz", 0, 0, 144,"Mine-Pomz");
; 2636 : 	m_pTypeInfo[MINE_POMZ].SetMP( 0 );
; 2637 : 
; 2638 : 	m_pTypeInfo[MINE_AP_C1].Set(0, "Mine-AP-C1", 0, 0, 145,"Mine-AP-C1");
; 2639 : 	m_pTypeInfo[MINE_AP_C1].SetMP( 0 );
; 2640 : 	
; 2641 : 	m_pTypeInfo[MINE_DIAMONDBACK].Set(0, "Mine-DiamondBack", 0, 0, 146,"Mine-DiamondBack");
; 2642 : 	m_pTypeInfo[MINE_DIAMONDBACK].SetMP( 0 );
; 2643 : 
; 2644 : 	m_pTypeInfo[MINE_SWIFT_EX].Set(0, "Mine-Swift-EX", 0, 0, 147,"Mine-Swift-EX");
; 2645 : 	m_pTypeInfo[MINE_SWIFT_EX].SetMP( 0 );
; 2646 : 
; 2647 : 	m_pTypeInfo[MINE_SIDEWINDER].Set(0, "Mine-SideWinder", 0, 0, 148,"Mine-SideWinder");
; 2648 : 	m_pTypeInfo[MINE_SIDEWINDER].SetMP( 0 );
; 2649 : 
; 2650 : 	m_pTypeInfo[MINE_COBRA].Set(0, "Mine-Cobra", 0, 0, 149,"Mine-Cobra");
; 2651 : 	m_pTypeInfo[MINE_COBRA].SetMP( 0 );
; 2652 : 
