; Listing generated by Microsoft (R) Optimizing Compiler Version 13.10.3077 

	TITLE	\darkeden\Designed_Common\Project\Client\MStringMap.cpp
	.386P
include listing.inc
if @Version gt 510
.model FLAT
else
_TEXT	SEGMENT PARA USE32 PUBLIC 'CODE'
_TEXT	ENDS
_DATA	SEGMENT DWORD USE32 PUBLIC 'DATA'
_DATA	ENDS
CONST	SEGMENT DWORD USE32 PUBLIC 'CONST'
CONST	ENDS
_BSS	SEGMENT DWORD USE32 PUBLIC 'BSS'
_BSS	ENDS
$$SYMBOLS	SEGMENT BYTE USE32 'DEBSYM'
$$SYMBOLS	ENDS
$$TYPES	SEGMENT BYTE USE32 'DEBTYP'
$$TYPES	ENDS
_TLS	SEGMENT DWORD USE32 PUBLIC 'TLS'
_TLS	ENDS
;	COMDAT ??_C@_0BN@ODLNCKCA@Data?2?2Info?2?2ClientConfig?4inf?$AA@
CONST	SEGMENT DWORD USE32 PUBLIC 'CONST'
CONST	ENDS
;	COMDAT ??_C@_0BM@DFPLPGPC@Data?2?2Info?2?2GuildMapper?4inf?$AA@
CONST	SEGMENT DWORD USE32 PUBLIC 'CONST'
CONST	ENDS
;	COMDAT ??_C@_0BN@LHODHNBK@Data?2?2Info?2?2GuildVersion?4inf?$AA@
CONST	SEGMENT DWORD USE32 PUBLIC 'CONST'
CONST	ENDS
;	COMDAT ??_C@_0BH@DDPLNCOL@Data?2?2Info?2?2Player?4inf?$AA@
CONST	SEGMENT DWORD USE32 PUBLIC 'CONST'
CONST	ENDS
;	COMDAT ??_C@_0BL@ILLNAPHB@Data?2?2Info?2?2Resolution?4inf?$AA@
CONST	SEGMENT DWORD USE32 PUBLIC 'CONST'
CONST	ENDS
;	COMDAT ??_C@_0CA@HEIGFDLG@Data?2?2Info?2?2SelectedChannel?4inf?$AA@
CONST	SEGMENT DWORD USE32 PUBLIC 'CONST'
CONST	ENDS
;	COMDAT ??_C@_0N@GOPDCEEB@basic_string?$AA@
CONST	SEGMENT DWORD USE32 PUBLIC 'CONST'
CONST	ENDS
rdata$r	SEGMENT DWORD USE32 PUBLIC 'CONST'
rdata$r	ENDS
text$yc	SEGMENT PARA USE32 PUBLIC 'CODE'
text$yc	ENDS
CRT$XCA	SEGMENT DWORD USE32 PUBLIC 'DATA'
CRT$XCA	ENDS
CRT$XCU	SEGMENT DWORD USE32 PUBLIC 'DATA'
CRT$XCU	ENDS
CRT$XCL	SEGMENT DWORD USE32 PUBLIC 'DATA'
CRT$XCL	ENDS
CRT$XCC	SEGMENT DWORD USE32 PUBLIC 'DATA'
CRT$XCC	ENDS
CRT$XCZ	SEGMENT DWORD USE32 PUBLIC 'DATA'
CRT$XCZ	ENDS
text$yd	SEGMENT PARA USE32 PUBLIC 'CODE'
text$yd	ENDS
;	COMDAT ?start@CNFS@@QAE_NPADH@Z
_TEXT	SEGMENT PARA USE32 PUBLIC 'CODE'
_TEXT	ENDS
;	COMDAT ?end@CNFS@@QAEXXZ
_TEXT	SEGMENT PARA USE32 PUBLIC 'CODE'
_TEXT	ENDS
;	COMDAT ?Init@VirtualFileHeader@@QAEXXZ
_TEXT	SEGMENT PARA USE32 PUBLIC 'CODE'
_TEXT	ENDS
;	COMDAT ??1IFileIO@@UAE@XZ
_TEXT	SEGMENT PARA USE32 PUBLIC 'CODE'
_TEXT	ENDS
;	COMDAT ??_GIFileIO@@UAEPAXI@Z
_TEXT	SEGMENT PARA USE32 PUBLIC 'CODE'
_TEXT	ENDS
;	COMDAT ??0iovfs_base@@QAE@XZ
_TEXT	SEGMENT PARA USE32 PUBLIC 'CODE'
_TEXT	ENDS
;	COMDAT ??_Giovfs_base@@UAEPAXI@Z
_TEXT	SEGMENT PARA USE32 PUBLIC 'CODE'
_TEXT	ENDS
;	COMDAT ??1iovfs_base@@UAE@XZ
_TEXT	SEGMENT PARA USE32 PUBLIC 'CODE'
_TEXT	ENDS
;	COMDAT ?Init@iovfs_base@@QAEXXZ
_TEXT	SEGMENT PARA USE32 PUBLIC 'CODE'
_TEXT	ENDS
;	COMDAT ??_Givfstream@@UAEPAXI@Z
_TEXT	SEGMENT PARA USE32 PUBLIC 'CODE'
_TEXT	ENDS
;	COMDAT ??1ivfstream@@UAE@XZ
_TEXT	SEGMENT PARA USE32 PUBLIC 'CODE'
_TEXT	ENDS
;	COMDAT ?open@ivfstream@@UAEXPBDH@Z
_TEXT	SEGMENT PARA USE32 PUBLIC 'CODE'
_TEXT	ENDS
;	COMDAT ?read@ivfstream@@QAEXPADI@Z
_TEXT	SEGMENT PARA USE32 PUBLIC 'CODE'
_TEXT	ENDS
;	COMDAT ??_Govfstream@@UAEPAXI@Z
_TEXT	SEGMENT PARA USE32 PUBLIC 'CODE'
_TEXT	ENDS
;	COMDAT ??1ovfstream@@UAE@XZ
_TEXT	SEGMENT PARA USE32 PUBLIC 'CODE'
_TEXT	ENDS
;	COMDAT ?open@ovfstream@@UAEXPBDH@Z
_TEXT	SEGMENT PARA USE32 PUBLIC 'CODE'
_TEXT	ENDS
;	COMDAT ??8MString@@QAE_NABV0@@Z
_TEXT	SEGMENT PARA USE32 PUBLIC 'CODE'
_TEXT	ENDS
;	COMDAT ??MMString@@QAE_NABV0@@Z
_TEXT	SEGMENT PARA USE32 PUBLIC 'CODE'
_TEXT	ENDS
;	COMDAT ??RMStringPointerCompare@@QBE_NPAVMString@@0@Z
_TEXT	SEGMENT PARA USE32 PUBLIC 'CODE'
_TEXT	ENDS
;	COMDAT ??0MStringMap@@QAE@XZ
_TEXT	SEGMENT PARA USE32 PUBLIC 'CODE'
_TEXT	ENDS
;	COMDAT ??1?$map@PAVMString@@PAV1@VMStringPointerCompare@@V?$allocator@U?$pair@QAVMString@@PAV1@@_STL@@@_STL@@@_STL@@QAE@XZ
_TEXT	SEGMENT PARA USE32 PUBLIC 'CODE'
_TEXT	ENDS
;	COMDAT ??1MStringMap@@QAE@XZ
_TEXT	SEGMENT PARA USE32 PUBLIC 'CODE'
_TEXT	ENDS
;	COMDAT ?Release@MStringMap@@QAEXXZ
_TEXT	SEGMENT PARA USE32 PUBLIC 'CODE'
_TEXT	ENDS
;	COMDAT ?Add@MStringMap@@QAE_NPBD0@Z
_TEXT	SEGMENT PARA USE32 PUBLIC 'CODE'
_TEXT	ENDS
;	COMDAT ?Remove@MStringMap@@QAE_NPBD@Z
_TEXT	SEGMENT PARA USE32 PUBLIC 'CODE'
_TEXT	ENDS
;	COMDAT ?Get@MStringMap@@QBEPBVMString@@PBD@Z
_TEXT	SEGMENT PARA USE32 PUBLIC 'CODE'
_TEXT	ENDS
;	COMDAT ?SaveToFile@MStringMap@@QAEXAAV?$basic_ofstream@DV?$char_traits@D@_STL@@@_STL@@@Z
_TEXT	SEGMENT PARA USE32 PUBLIC 'CODE'
_TEXT	ENDS
;	COMDAT ?LoadFromFile@MStringMap@@QAEXAAVivfstream@@@Z
_TEXT	SEGMENT PARA USE32 PUBLIC 'CODE'
_TEXT	ENDS
;	COMDAT ?eq@?$__char_traits_base@DH@_STL@@SA_NABD0@Z
_TEXT	SEGMENT PARA USE32 PUBLIC 'CODE'
_TEXT	ENDS
;	COMDAT ?not_eof@?$__char_traits_base@DH@_STL@@SAHABH@Z
_TEXT	SEGMENT PARA USE32 PUBLIC 'CODE'
_TEXT	ENDS
;	COMDAT ?eq_int_type@?$__char_traits_base@DH@_STL@@SA_NABH0@Z
_TEXT	SEGMENT PARA USE32 PUBLIC 'CODE'
_TEXT	ENDS
;	COMDAT ?get_allocator@?$basic_string@DV?$char_traits@D@_STL@@V?$allocator@D@2@@_STL@@QBE?AV?$allocator@D@2@XZ
_TEXT	SEGMENT PARA USE32 PUBLIC 'CODE'
_TEXT	ENDS
;	COMDAT ??4?$basic_string@DV?$char_traits@D@_STL@@V?$allocator@D@2@@_STL@@QAEAAV01@PBD@Z
_TEXT	SEGMENT PARA USE32 PUBLIC 'CODE'
_TEXT	ENDS
;	COMDAT ?_M_terminate_string@?$basic_string@DV?$char_traits@D@_STL@@V?$allocator@D@2@@_STL@@AAEXXZ
_TEXT	SEGMENT PARA USE32 PUBLIC 'CODE'
_TEXT	ENDS
;	COMDAT ??0?$_String_base@DV?$allocator@D@_STL@@@_STL@@QAE@ABV?$allocator@D@1@@Z
_TEXT	SEGMENT PARA USE32 PUBLIC 'CODE'
_TEXT	ENDS
;	COMDAT ?allocate@?$allocator@D@_STL@@QAEPADIPBX@Z
_TEXT	SEGMENT PARA USE32 PUBLIC 'CODE'
_TEXT	ENDS
;	COMDAT ??0?$fpos@H@_STL@@QAE@J@Z
_TEXT	SEGMENT PARA USE32 PUBLIC 'CODE'
_TEXT	ENDS
;	COMDAT ??B?$fpos@H@_STL@@QBEJXZ
_TEXT	SEGMENT PARA USE32 PUBLIC 'CODE'
_TEXT	ENDS
;	COMDAT ?state@?$fpos@H@_STL@@QBEHXZ
_TEXT	SEGMENT PARA USE32 PUBLIC 'CODE'
_TEXT	ENDS
;	COMDAT ?is_open@?$basic_filebuf@DV?$char_traits@D@_STL@@@_STL@@QBE_NXZ
_TEXT	SEGMENT PARA USE32 PUBLIC 'CODE'
_TEXT	ENDS
;	COMDAT ?_M_seek_return@?$basic_filebuf@DV?$char_traits@D@_STL@@@_STL@@AAE?AV?$fpos@H@2@JH@Z
_TEXT	SEGMENT PARA USE32 PUBLIC 'CODE'
_TEXT	ENDS
;	COMDAT ??0?$_Filebuf_Tmp_Buf@D@_STL@@QAE@H@Z
_TEXT	SEGMENT PARA USE32 PUBLIC 'CODE'
_TEXT	ENDS
;	COMDAT ??1?$_Filebuf_Tmp_Buf@D@_STL@@QAE@XZ
_TEXT	SEGMENT PARA USE32 PUBLIC 'CODE'
_TEXT	ENDS
;	COMDAT ??0?$map@PAVMString@@PAV1@VMStringPointerCompare@@V?$allocator@U?$pair@QAVMString@@PAV1@@_STL@@@_STL@@@_STL@@QAE@XZ
_TEXT	SEGMENT PARA USE32 PUBLIC 'CODE'
_TEXT	ENDS
;	COMDAT ?begin@?$map@PAVMString@@PAV1@VMStringPointerCompare@@V?$allocator@U?$pair@QAVMString@@PAV1@@_STL@@@_STL@@@_STL@@QAE?AU?$_Rb_tree_iterator@U?$pair@QAVMString@@PAV1@@_STL@@U?$_Nonconst_traits@U?$pair@QAVMString@@PAV1@@_STL@@@2@@2@XZ
_TEXT	SEGMENT PARA USE32 PUBLIC 'CODE'
_TEXT	ENDS
;	COMDAT ?end@?$map@PAVMString@@PAV1@VMStringPointerCompare@@V?$allocator@U?$pair@QAVMString@@PAV1@@_STL@@@_STL@@@_STL@@QAE?AU?$_Rb_tree_iterator@U?$pair@QAVMString@@PAV1@@_STL@@U?$_Nonconst_traits@U?$pair@QAVMString@@PAV1@@_STL@@@2@@2@XZ
_TEXT	SEGMENT PARA USE32 PUBLIC 'CODE'
_TEXT	ENDS
;	COMDAT ?end@?$map@PAVMString@@PAV1@VMStringPointerCompare@@V?$allocator@U?$pair@QAVMString@@PAV1@@_STL@@@_STL@@@_STL@@QBE?AU?$_Rb_tree_iterator@U?$pair@QAVMString@@PAV1@@_STL@@U?$_Const_traits@U?$pair@QAVMString@@PAV1@@_STL@@@2@@2@XZ
_TEXT	SEGMENT PARA USE32 PUBLIC 'CODE'
_TEXT	ENDS
;	COMDAT ?size@?$map@PAVMString@@PAV1@VMStringPointerCompare@@V?$allocator@U?$pair@QAVMString@@PAV1@@_STL@@@_STL@@@_STL@@QBEIXZ
_TEXT	SEGMENT PARA USE32 PUBLIC 'CODE'
_TEXT	ENDS
;	COMDAT ?insert@?$map@PAVMString@@PAV1@VMStringPointerCompare@@V?$allocator@U?$pair@QAVMString@@PAV1@@_STL@@@_STL@@@_STL@@QAE?AU?$pair@U?$_Rb_tree_iterator@U?$pair@QAVMString@@PAV1@@_STL@@U?$_Nonconst_traits@U?$pair@QAVMString@@PAV1@@_STL@@@2@@_STL@@_N@2@ABU?$pair@QAVMString@@PAV1@@2@@Z
_TEXT	SEGMENT PARA USE32 PUBLIC 'CODE'
_TEXT	ENDS
;	COMDAT ?erase@?$map@PAVMString@@PAV1@VMStringPointerCompare@@V?$allocator@U?$pair@QAVMString@@PAV1@@_STL@@@_STL@@@_STL@@QAEXU?$_Rb_tree_iterator@U?$pair@QAVMString@@PAV1@@_STL@@U?$_Nonconst_traits@U?$pair@QAVMString@@PAV1@@_STL@@@2@@2@@Z
_TEXT	SEGMENT PARA USE32 PUBLIC 'CODE'
_TEXT	ENDS
;	COMDAT ?clear@?$map@PAVMString@@PAV1@VMStringPointerCompare@@V?$allocator@U?$pair@QAVMString@@PAV1@@_STL@@@_STL@@@_STL@@QAEXXZ
_TEXT	SEGMENT PARA USE32 PUBLIC 'CODE'
_TEXT	ENDS
;	COMDAT ?find@?$map@PAVMString@@PAV1@VMStringPointerCompare@@V?$allocator@U?$pair@QAVMString@@PAV1@@_STL@@@_STL@@@_STL@@QAE?AU?$_Rb_tree_iterator@U?$pair@QAVMString@@PAV1@@_STL@@U?$_Nonconst_traits@U?$pair@QAVMString@@PAV1@@_STL@@@2@@2@ABQAVMString@@@Z
_TEXT	SEGMENT PARA USE32 PUBLIC 'CODE'
_TEXT	ENDS
;	COMDAT ?find@?$map@PAVMString@@PAV1@VMStringPointerCompare@@V?$allocator@U?$pair@QAVMString@@PAV1@@_STL@@@_STL@@@_STL@@QBE?AU?$_Rb_tree_iterator@U?$pair@QAVMString@@PAV1@@_STL@@U?$_Const_traits@U?$pair@QAVMString@@PAV1@@_STL@@@2@@2@ABQAVMString@@@Z
_TEXT	SEGMENT PARA USE32 PUBLIC 'CODE'
_TEXT	ENDS
;	COMDAT ??1?$_Rb_tree@PAVMString@@U?$pair@QAVMString@@PAV1@@_STL@@U?$_Select1st@U?$pair@QAVMString@@PAV1@@_STL@@@3@VMStringPointerCompare@@V?$allocator@U?$pair@QAVMString@@PAV1@@_STL@@@3@@_STL@@QAE@XZ
_TEXT	SEGMENT PARA USE32 PUBLIC 'CODE'
_TEXT	ENDS
;	COMDAT ??0?$_Rb_tree_iterator@U?$pair@QAVMString@@PAV1@@_STL@@U?$_Nonconst_traits@U?$pair@QAVMString@@PAV1@@_STL@@@2@@_STL@@QAE@ABU01@@Z
_TEXT	SEGMENT PARA USE32 PUBLIC 'CODE'
_TEXT	ENDS
;	COMDAT ??C?$_Rb_tree_iterator@U?$pair@QAVMString@@PAV1@@_STL@@U?$_Nonconst_traits@U?$pair@QAVMString@@PAV1@@_STL@@@2@@_STL@@QBEPAU?$pair@QAVMString@@PAV1@@1@XZ
_TEXT	SEGMENT PARA USE32 PUBLIC 'CODE'
_TEXT	ENDS
;	COMDAT ??E?$_Rb_tree_iterator@U?$pair@QAVMString@@PAV1@@_STL@@U?$_Nonconst_traits@U?$pair@QAVMString@@PAV1@@_STL@@@2@@_STL@@QAE?AU01@H@Z
_TEXT	SEGMENT PARA USE32 PUBLIC 'CODE'
_TEXT	ENDS
;	COMDAT ??0?$pair@QAVMString@@PAV1@@_STL@@QAE@ABQAVMString@@0@Z
_TEXT	SEGMENT PARA USE32 PUBLIC 'CODE'
_TEXT	ENDS
;	COMDAT ??C?$_Rb_tree_iterator@U?$pair@QAVMString@@PAV1@@_STL@@U?$_Const_traits@U?$pair@QAVMString@@PAV1@@_STL@@@2@@_STL@@QBEPBU?$pair@QAVMString@@PAV1@@1@XZ
_TEXT	SEGMENT PARA USE32 PUBLIC 'CODE'
_TEXT	ENDS
;	COMDAT ??1?$basic_ofstream@DV?$char_traits@D@_STL@@@_STL@@UAE@XZ
_TEXT	SEGMENT PARA USE32 PUBLIC 'CODE'
_TEXT	ENDS
;	COMDAT ??_G?$basic_ofstream@DV?$char_traits@D@_STL@@@_STL@@UAEPAXI@Z
_TEXT	SEGMENT PARA USE32 PUBLIC 'CODE'
_TEXT	ENDS
;	COMDAT ??_D?$basic_ofstream@DV?$char_traits@D@_STL@@@_STL@@QAEXXZ
_TEXT	SEGMENT PARA USE32 PUBLIC 'CODE'
_TEXT	ENDS
;	COMDAT ?_M_terminate_string_aux@?$basic_string@DV?$char_traits@D@_STL@@V?$allocator@D@2@@_STL@@AAEXABU__true_type@2@@Z
_TEXT	SEGMENT PARA USE32 PUBLIC 'CODE'
_TEXT	ENDS
;	COMDAT ?assign@?$basic_string@DV?$char_traits@D@_STL@@V?$allocator@D@2@@_STL@@QAEAAV12@PBD0@Z
_TEXT	SEGMENT PARA USE32 PUBLIC 'CODE'
_TEXT	ENDS
;	COMDAT ??0?$allocator@D@_STL@@QAE@ABV01@@Z
_TEXT	SEGMENT PARA USE32 PUBLIC 'CODE'
_TEXT	ENDS
;	COMDAT ??0?$_STLP_alloc_proxy@PADDV?$allocator@D@_STL@@@_STL@@QAE@ABV?$allocator@D@1@PAD@Z
_TEXT	SEGMENT PARA USE32 PUBLIC 'CODE'
_TEXT	ENDS
;	COMDAT ?state@?$fpos@H@_STL@@QAEXH@Z
_TEXT	SEGMENT PARA USE32 PUBLIC 'CODE'
_TEXT	ENDS
;	COMDAT ??0?$_Rb_tree@PAVMString@@U?$pair@QAVMString@@PAV1@@_STL@@U?$_Select1st@U?$pair@QAVMString@@PAV1@@_STL@@@3@VMStringPointerCompare@@V?$allocator@U?$pair@QAVMString@@PAV1@@_STL@@@3@@_STL@@QAE@ABVMStringPointerCompare@@ABV?$allocator@U?$pair@QAVMString@@PAV1@@_STL@@@1@@Z
_TEXT	SEGMENT PARA USE32 PUBLIC 'CODE'
_TEXT	ENDS
;	COMDAT ?begin@?$_Rb_tree@PAVMString@@U?$pair@QAVMString@@PAV1@@_STL@@U?$_Select1st@U?$pair@QAVMString@@PAV1@@_STL@@@3@VMStringPointerCompare@@V?$allocator@U?$pair@QAVMString@@PAV1@@_STL@@@3@@_STL@@QAE?AU?$_Rb_tree_iterator@U?$pair@QAVMString@@PAV1@@_STL@@U?$_Nonconst_traits@U?$pair@QAVMString@@PAV1@@_STL@@@2@@2@XZ
_TEXT	SEGMENT PARA USE32 PUBLIC 'CODE'
_TEXT	ENDS
;	COMDAT ?end@?$_Rb_tree@PAVMString@@U?$pair@QAVMString@@PAV1@@_STL@@U?$_Select1st@U?$pair@QAVMString@@PAV1@@_STL@@@3@VMStringPointerCompare@@V?$allocator@U?$pair@QAVMString@@PAV1@@_STL@@@3@@_STL@@QAE?AU?$_Rb_tree_iterator@U?$pair@QAVMString@@PAV1@@_STL@@U?$_Nonconst_traits@U?$pair@QAVMString@@PAV1@@_STL@@@2@@2@XZ
_TEXT	SEGMENT PARA USE32 PUBLIC 'CODE'
_TEXT	ENDS
;	COMDAT ?end@?$_Rb_tree@PAVMString@@U?$pair@QAVMString@@PAV1@@_STL@@U?$_Select1st@U?$pair@QAVMString@@PAV1@@_STL@@@3@VMStringPointerCompare@@V?$allocator@U?$pair@QAVMString@@PAV1@@_STL@@@3@@_STL@@QBE?AU?$_Rb_tree_iterator@U?$pair@QAVMString@@PAV1@@_STL@@U?$_Const_traits@U?$pair@QAVMString@@PAV1@@_STL@@@2@@2@XZ
_TEXT	SEGMENT PARA USE32 PUBLIC 'CODE'
_TEXT	ENDS
;	COMDAT ?size@?$_Rb_tree@PAVMString@@U?$pair@QAVMString@@PAV1@@_STL@@U?$_Select1st@U?$pair@QAVMString@@PAV1@@_STL@@@3@VMStringPointerCompare@@V?$allocator@U?$pair@QAVMString@@PAV1@@_STL@@@3@@_STL@@QBEIXZ
_TEXT	SEGMENT PARA USE32 PUBLIC 'CODE'
_TEXT	ENDS
;	COMDAT ?erase@?$_Rb_tree@PAVMString@@U?$pair@QAVMString@@PAV1@@_STL@@U?$_Select1st@U?$pair@QAVMString@@PAV1@@_STL@@@3@VMStringPointerCompare@@V?$allocator@U?$pair@QAVMString@@PAV1@@_STL@@@3@@_STL@@QAEXU?$_Rb_tree_iterator@U?$pair@QAVMString@@PAV1@@_STL@@U?$_Nonconst_traits@U?$pair@QAVMString@@PAV1@@_STL@@@2@@2@@Z
_TEXT	SEGMENT PARA USE32 PUBLIC 'CODE'
_TEXT	ENDS
;	COMDAT ?clear@?$_Rb_tree@PAVMString@@U?$pair@QAVMString@@PAV1@@_STL@@U?$_Select1st@U?$pair@QAVMString@@PAV1@@_STL@@@3@VMStringPointerCompare@@V?$allocator@U?$pair@QAVMString@@PAV1@@_STL@@@3@@_STL@@QAEXXZ
_TEXT	SEGMENT PARA USE32 PUBLIC 'CODE'
_TEXT	ENDS
;	COMDAT ??1?$_Rb_tree_base@U?$pair@QAVMString@@PAV1@@_STL@@V?$allocator@U?$pair@QAVMString@@PAV1@@_STL@@@2@@_STL@@QAE@XZ
_TEXT	SEGMENT PARA USE32 PUBLIC 'CODE'
_TEXT	ENDS
;	COMDAT ??0?$allocator@U?$pair@QAVMString@@PAV1@@_STL@@@_STL@@QAE@XZ
_TEXT	SEGMENT PARA USE32 PUBLIC 'CODE'
_TEXT	ENDS
;	COMDAT ??1?$allocator@U?$pair@QAVMString@@PAV1@@_STL@@@_STL@@QAE@XZ
_TEXT	SEGMENT PARA USE32 PUBLIC 'CODE'
_TEXT	ENDS
;	COMDAT ??D?$_Rb_tree_iterator@U?$pair@QAVMString@@PAV1@@_STL@@U?$_Nonconst_traits@U?$pair@QAVMString@@PAV1@@_STL@@@2@@_STL@@QBEAAU?$pair@QAVMString@@PAV1@@1@XZ
_TEXT	SEGMENT PARA USE32 PUBLIC 'CODE'
_TEXT	ENDS
;	COMDAT ??D?$_Rb_tree_iterator@U?$pair@QAVMString@@PAV1@@_STL@@U?$_Const_traits@U?$pair@QAVMString@@PAV1@@_STL@@@2@@_STL@@QBEABU?$pair@QAVMString@@PAV1@@1@XZ
_TEXT	SEGMENT PARA USE32 PUBLIC 'CODE'
_TEXT	ENDS
;	COMDAT ??1?$_STLP_alloc_proxy@PAU?$_Rb_tree_node@U?$pair@QAVMString@@PAV1@@_STL@@@_STL@@U12@V?$allocator@U?$_Rb_tree_node@U?$pair@QAVMString@@PAV1@@_STL@@@_STL@@@2@@_STL@@QAE@XZ
_TEXT	SEGMENT PARA USE32 PUBLIC 'CODE'
_TEXT	ENDS
;	COMDAT ?copy@?$__char_traits_base@DH@_STL@@SAPADPADPBDI@Z
_TEXT	SEGMENT PARA USE32 PUBLIC 'CODE'
_TEXT	ENDS
;	COMDAT ?begin@?$basic_string@DV?$char_traits@D@_STL@@V?$allocator@D@2@@_STL@@QAEPADXZ
_TEXT	SEGMENT PARA USE32 PUBLIC 'CODE'
_TEXT	ENDS
;	COMDAT ?end@?$basic_string@DV?$char_traits@D@_STL@@V?$allocator@D@2@@_STL@@QAEPADXZ
_TEXT	SEGMENT PARA USE32 PUBLIC 'CODE'
_TEXT	ENDS
;	COMDAT ?size@?$basic_string@DV?$char_traits@D@_STL@@V?$allocator@D@2@@_STL@@QBEIXZ
_TEXT	SEGMENT PARA USE32 PUBLIC 'CODE'
_TEXT	ENDS
;	COMDAT ?erase@?$basic_string@DV?$char_traits@D@_STL@@V?$allocator@D@2@@_STL@@QAEPADPAD0@Z
_TEXT	SEGMENT PARA USE32 PUBLIC 'CODE'
_TEXT	ENDS
;	COMDAT ?_M_root@?$_Rb_tree@PAVMString@@U?$pair@QAVMString@@PAV1@@_STL@@U?$_Select1st@U?$pair@QAVMString@@PAV1@@_STL@@@3@VMStringPointerCompare@@V?$allocator@U?$pair@QAVMString@@PAV1@@_STL@@@3@@_STL@@IBEAAPAU?$_Rb_tree_node@U?$pair@QAVMString@@PAV1@@_STL@@@2@XZ
_TEXT	SEGMENT PARA USE32 PUBLIC 'CODE'
_TEXT	ENDS
;	COMDAT ?_M_leftmost@?$_Rb_tree@PAVMString@@U?$pair@QAVMString@@PAV1@@_STL@@U?$_Select1st@U?$pair@QAVMString@@PAV1@@_STL@@@3@VMStringPointerCompare@@V?$allocator@U?$pair@QAVMString@@PAV1@@_STL@@@3@@_STL@@IBEAAPAU?$_Rb_tree_node@U?$pair@QAVMString@@PAV1@@_STL@@@2@XZ
_TEXT	SEGMENT PARA USE32 PUBLIC 'CODE'
_TEXT	ENDS
;	COMDAT ?_M_rightmost@?$_Rb_tree@PAVMString@@U?$pair@QAVMString@@PAV1@@_STL@@U?$_Select1st@U?$pair@QAVMString@@PAV1@@_STL@@@3@VMStringPointerCompare@@V?$allocator@U?$pair@QAVMString@@PAV1@@_STL@@@3@@_STL@@IBEAAPAU?$_Rb_tree_node@U?$pair@QAVMString@@PAV1@@_STL@@@2@XZ
_TEXT	SEGMENT PARA USE32 PUBLIC 'CODE'
_TEXT	ENDS
;	COMDAT ?_M_empty_initialize@?$_Rb_tree@PAVMString@@U?$pair@QAVMString@@PAV1@@_STL@@U?$_Select1st@U?$pair@QAVMString@@PAV1@@_STL@@@3@VMStringPointerCompare@@V?$allocator@U?$pair@QAVMString@@PAV1@@_STL@@@3@@_STL@@AAEXXZ
_TEXT	SEGMENT PARA USE32 PUBLIC 'CODE'
_TEXT	ENDS
;	COMDAT ??0?$_Rb_tree_base@U?$pair@QAVMString@@PAV1@@_STL@@V?$allocator@U?$pair@QAVMString@@PAV1@@_STL@@@2@@_STL@@QAE@ABV?$allocator@U?$pair@QAVMString@@PAV1@@_STL@@@1@@Z
_TEXT	SEGMENT PARA USE32 PUBLIC 'CODE'
_TEXT	ENDS
;	COMDAT ??1?$allocator@U?$_Rb_tree_node@U?$pair@QAVMString@@PAV1@@_STL@@@_STL@@@_STL@@QAE@XZ
_TEXT	SEGMENT PARA USE32 PUBLIC 'CODE'
_TEXT	ENDS
;	COMDAT ?deallocate@?$allocator@U?$_Rb_tree_node@U?$pair@QAVMString@@PAV1@@_STL@@@_STL@@@_STL@@QAEXPAU?$_Rb_tree_node@U?$pair@QAVMString@@PAV1@@_STL@@@2@I@Z
_TEXT	SEGMENT PARA USE32 PUBLIC 'CODE'
_TEXT	ENDS
;	COMDAT ??0?$_Rb_tree_iterator@U?$pair@QAVMString@@PAV1@@_STL@@U?$_Nonconst_traits@U?$pair@QAVMString@@PAV1@@_STL@@@2@@_STL@@QAE@PAU?$_Rb_tree_node@U?$pair@QAVMString@@PAV1@@_STL@@@1@@Z
_TEXT	SEGMENT PARA USE32 PUBLIC 'CODE'
_TEXT	ENDS
;	COMDAT ??0?$_Rb_tree_iterator@U?$pair@QAVMString@@PAV1@@_STL@@U?$_Const_traits@U?$pair@QAVMString@@PAV1@@_STL@@@2@@_STL@@QAE@PAU?$_Rb_tree_node@U?$pair@QAVMString@@PAV1@@_STL@@@1@@Z
_TEXT	SEGMENT PARA USE32 PUBLIC 'CODE'
_TEXT	ENDS
;	COMDAT ?move@?$__char_traits_base@DH@_STL@@SAPADPADPBDI@Z
_TEXT	SEGMENT PARA USE32 PUBLIC 'CODE'
_TEXT	ENDS
;	COMDAT ?_S_color@?$_Rb_tree@PAVMString@@U?$pair@QAVMString@@PAV1@@_STL@@U?$_Select1st@U?$pair@QAVMString@@PAV1@@_STL@@@3@VMStringPointerCompare@@V?$allocator@U?$pair@QAVMString@@PAV1@@_STL@@@3@@_STL@@KAAA_NPAU?$_Rb_tree_node@U?$pair@QAVMString@@PAV1@@_STL@@@2@@Z
_TEXT	SEGMENT PARA USE32 PUBLIC 'CODE'
_TEXT	ENDS
;	COMDAT ??0?$_STLP_alloc_proxy@PAU?$_Rb_tree_node@U?$pair@QAVMString@@PAV1@@_STL@@@_STL@@U12@V?$allocator@U?$_Rb_tree_node@U?$pair@QAVMString@@PAV1@@_STL@@@_STL@@@2@@_STL@@QAE@ABV?$allocator@U?$_Rb_tree_node@U?$pair@QAVMString@@PAV1@@_STL@@@_STL@@@1@PAU?$_Rb_tree_node@U?$pair@QAVMString@@PAV1@@_STL@@@1@@Z
_TEXT	SEGMENT PARA USE32 PUBLIC 'CODE'
_TEXT	ENDS
;	COMDAT ?allocate@?$allocator@U?$_Rb_tree_node@U?$pair@QAVMString@@PAV1@@_STL@@@_STL@@@_STL@@QAEPAU?$_Rb_tree_node@U?$pair@QAVMString@@PAV1@@_STL@@@2@IPBX@Z
_TEXT	SEGMENT PARA USE32 PUBLIC 'CODE'
_TEXT	ENDS
;	COMDAT ??0?$allocator@U?$_Rb_tree_node@U?$pair@QAVMString@@PAV1@@_STL@@@_STL@@@_STL@@QAE@ABV01@@Z
_TEXT	SEGMENT PARA USE32 PUBLIC 'CODE'
_TEXT	ENDS
;	COMDAT ??$_M_range_initialize@PBD@?$basic_string@DV?$char_traits@D@_STL@@V?$allocator@D@2@@_STL@@AAEXPBD0@Z
_TEXT	SEGMENT PARA USE32 PUBLIC 'CODE'
_TEXT	ENDS
;	COMDAT ??$_M_range_initialize@PAD@?$basic_string@DV?$char_traits@D@_STL@@V?$allocator@D@2@@_STL@@AAEXPAD0@Z
_TEXT	SEGMENT PARA USE32 PUBLIC 'CODE'
_TEXT	ENDS
;	COMDAT ?write@?$basic_ostream@DV?$char_traits@D@_STL@@@_STL@@QAEAAV12@PBDH@Z
_TEXT	SEGMENT PARA USE32 PUBLIC 'CODE'
_TEXT	ENDS
;	COMDAT ?close@?$basic_filebuf@DV?$char_traits@D@_STL@@@_STL@@QAEPAV12@XZ
_TEXT	SEGMENT PARA USE32 PUBLIC 'CODE'
_TEXT	ENDS
;	COMDAT ?_M_exit_input_mode@?$basic_filebuf@DV?$char_traits@D@_STL@@@_STL@@AAEXXZ
_TEXT	SEGMENT PARA USE32 PUBLIC 'CODE'
_TEXT	ENDS
;	COMDAT ?_M_switch_to_output_mode@?$basic_filebuf@DV?$char_traits@D@_STL@@@_STL@@AAE_NXZ
_TEXT	SEGMENT PARA USE32 PUBLIC 'CODE'
_TEXT	ENDS
;	COMDAT ?_M_output_error@?$basic_filebuf@DV?$char_traits@D@_STL@@@_STL@@AAEHXZ
_TEXT	SEGMENT PARA USE32 PUBLIC 'CODE'
_TEXT	ENDS
;	COMDAT ?_M_allocate_buffers@?$basic_filebuf@DV?$char_traits@D@_STL@@@_STL@@AAE_NPADH@Z
_TEXT	SEGMENT PARA USE32 PUBLIC 'CODE'
_TEXT	ENDS
;	COMDAT ?_M_deallocate_buffers@?$basic_filebuf@DV?$char_traits@D@_STL@@@_STL@@AAEXXZ
_TEXT	SEGMENT PARA USE32 PUBLIC 'CODE'
_TEXT	ENDS
;	COMDAT ?_M_seek_init@?$basic_filebuf@DV?$char_traits@D@_STL@@@_STL@@AAE_N_N@Z
_TEXT	SEGMENT PARA USE32 PUBLIC 'CODE'
_TEXT	ENDS
;	COMDAT ?_M_setup_codecvt@?$basic_filebuf@DV?$char_traits@D@_STL@@@_STL@@AAEXABVlocale@2@@Z
_TEXT	SEGMENT PARA USE32 PUBLIC 'CODE'
_TEXT	ENDS
;	COMDAT ??$equal@PADPADU?$_Eq_traits@V?$char_traits@D@_STL@@@_STL@@@_STL@@YA_NPAD00U?$_Eq_traits@V?$char_traits@D@_STL@@@0@@Z
_TEXT	SEGMENT PARA USE32 PUBLIC 'CODE'
_TEXT	ENDS
;	COMDAT ??$_Destroy@V?$basic_string@DV?$char_traits@D@_STL@@V?$allocator@D@2@@_STL@@@_STL@@YAXPAV?$basic_string@DV?$char_traits@D@_STL@@V?$allocator@D@2@@0@@Z
_TEXT	SEGMENT PARA USE32 PUBLIC 'CODE'
_TEXT	ENDS
;	COMDAT ??$_M_assign_dispatch@PAD@?$basic_string@DV?$char_traits@D@_STL@@V?$allocator@D@2@@_STL@@AAEAAV01@PAD0ABU__false_type@1@@Z
_TEXT	SEGMENT PARA USE32 PUBLIC 'CODE'
_TEXT	ENDS
;	COMDAT ?_M_erase@?$_Rb_tree@PAVMString@@U?$pair@QAVMString@@PAV1@@_STL@@U?$_Select1st@U?$pair@QAVMString@@PAV1@@_STL@@@3@VMStringPointerCompare@@V?$allocator@U?$pair@QAVMString@@PAV1@@_STL@@@3@@_STL@@AAEXPAU?$_Rb_tree_node@U?$pair@QAVMString@@PAV1@@_STL@@@2@@Z
_TEXT	SEGMENT PARA USE32 PUBLIC 'CODE'
_TEXT	ENDS
;	COMDAT ?insert_unique@?$_Rb_tree@PAVMString@@U?$pair@QAVMString@@PAV1@@_STL@@U?$_Select1st@U?$pair@QAVMString@@PAV1@@_STL@@@3@VMStringPointerCompare@@V?$allocator@U?$pair@QAVMString@@PAV1@@_STL@@@3@@_STL@@QAE?AU?$pair@U?$_Rb_tree_iterator@U?$pair@QAVMString@@PAV1@@_STL@@U?$_Nonconst_traits@U?$pair@QAVMString@@PAV1@@_STL@@@2@@_STL@@_N@2@ABU?$pair@QAVMString@@PAV1@@2@@Z
_TEXT	SEGMENT PARA USE32 PUBLIC 'CODE'
_TEXT	ENDS
;	COMDAT ??$find@PAVMString@@@?$_Rb_tree@PAVMString@@U?$pair@QAVMString@@PAV1@@_STL@@U?$_Select1st@U?$pair@QAVMString@@PAV1@@_STL@@@3@VMStringPointerCompare@@V?$allocator@U?$pair@QAVMString@@PAV1@@_STL@@@3@@_STL@@QAE?AU?$_Rb_tree_iterator@U?$pair@QAVMString@@PAV1@@_STL@@U?$_Nonconst_traits@U?$pair@QAVMString@@PAV1@@_STL@@@2@@1@ABQAVMString@@@Z
_TEXT	SEGMENT PARA USE32 PUBLIC 'CODE'
_TEXT	ENDS
;	COMDAT ??$find@PAVMString@@@?$_Rb_tree@PAVMString@@U?$pair@QAVMString@@PAV1@@_STL@@U?$_Select1st@U?$pair@QAVMString@@PAV1@@_STL@@@3@VMStringPointerCompare@@V?$allocator@U?$pair@QAVMString@@PAV1@@_STL@@@3@@_STL@@QBE?AU?$_Rb_tree_iterator@U?$pair@QAVMString@@PAV1@@_STL@@U?$_Const_traits@U?$pair@QAVMString@@PAV1@@_STL@@@2@@1@ABQAVMString@@@Z
_TEXT	SEGMENT PARA USE32 PUBLIC 'CODE'
_TEXT	ENDS
;	COMDAT ??$append@PBD@?$basic_string@DV?$char_traits@D@_STL@@V?$allocator@D@2@@_STL@@QAEAAV01@PBD0@Z
_TEXT	SEGMENT PARA USE32 PUBLIC 'CODE'
_TEXT	ENDS
;	COMDAT ??$_Destroy@U?$pair@QAVMString@@PAV1@@_STL@@@_STL@@YAXPAU?$pair@QAVMString@@PAV1@@0@@Z
_TEXT	SEGMENT PARA USE32 PUBLIC 'CODE'
_TEXT	ENDS
;	COMDAT ??$?0U?$pair@QAVMString@@PAV1@@_STL@@@?$allocator@U?$_Rb_tree_node@U?$pair@QAVMString@@PAV1@@_STL@@@_STL@@@_STL@@QAE@ABV?$allocator@U?$pair@QAVMString@@PAV1@@_STL@@@1@@Z
_TEXT	SEGMENT PARA USE32 PUBLIC 'CODE'
_TEXT	ENDS
;	COMDAT ??_G?$basic_string@DV?$char_traits@D@_STL@@V?$allocator@D@2@@_STL@@QAEPAXI@Z
_TEXT	SEGMENT PARA USE32 PUBLIC 'CODE'
_TEXT	ENDS
;	COMDAT ?rdbuf@?$basic_ios@DV?$char_traits@D@_STL@@@_STL@@QBEPAV?$basic_streambuf@DV?$char_traits@D@_STL@@@2@XZ
_TEXT	SEGMENT PARA USE32 PUBLIC 'CODE'
_TEXT	ENDS
;	COMDAT ?setstate@?$basic_ios@DV?$char_traits@D@_STL@@@_STL@@QAEXH@Z
_TEXT	SEGMENT PARA USE32 PUBLIC 'CODE'
_TEXT	ENDS
;	COMDAT ?_M_exit_putback_mode@?$basic_filebuf@DV?$char_traits@D@_STL@@@_STL@@AAEXXZ
_TEXT	SEGMENT PARA USE32 PUBLIC 'CODE'
_TEXT	ENDS
;	COMDAT ??R?$_Eq_traits@V?$char_traits@D@_STL@@@_STL@@QBE_NABD0@Z
_TEXT	SEGMENT PARA USE32 PUBLIC 'CODE'
_TEXT	ENDS
;	COMDAT ?_S_left@?$_Rb_tree@PAVMString@@U?$pair@QAVMString@@PAV1@@_STL@@U?$_Select1st@U?$pair@QAVMString@@PAV1@@_STL@@@3@VMStringPointerCompare@@V?$allocator@U?$pair@QAVMString@@PAV1@@_STL@@@3@@_STL@@KAAAPAU?$_Rb_tree_node@U?$pair@QAVMString@@PAV1@@_STL@@@2@PAU32@@Z
_TEXT	SEGMENT PARA USE32 PUBLIC 'CODE'
_TEXT	ENDS
;	COMDAT ?_S_right@?$_Rb_tree@PAVMString@@U?$pair@QAVMString@@PAV1@@_STL@@U?$_Select1st@U?$pair@QAVMString@@PAV1@@_STL@@@3@VMStringPointerCompare@@V?$allocator@U?$pair@QAVMString@@PAV1@@_STL@@@3@@_STL@@KAAAPAU?$_Rb_tree_node@U?$pair@QAVMString@@PAV1@@_STL@@@2@PAU32@@Z
_TEXT	SEGMENT PARA USE32 PUBLIC 'CODE'
_TEXT	ENDS
;	COMDAT ?_S_key@?$_Rb_tree@PAVMString@@U?$pair@QAVMString@@PAV1@@_STL@@U?$_Select1st@U?$pair@QAVMString@@PAV1@@_STL@@@3@VMStringPointerCompare@@V?$allocator@U?$pair@QAVMString@@PAV1@@_STL@@@3@@_STL@@KAABQAVMString@@PAU?$_Rb_tree_node@U?$pair@QAVMString@@PAV1@@_STL@@@2@@Z
_TEXT	SEGMENT PARA USE32 PUBLIC 'CODE'
_TEXT	ENDS
;	COMDAT ?_S_key@?$_Rb_tree@PAVMString@@U?$pair@QAVMString@@PAV1@@_STL@@U?$_Select1st@U?$pair@QAVMString@@PAV1@@_STL@@@3@VMStringPointerCompare@@V?$allocator@U?$pair@QAVMString@@PAV1@@_STL@@@3@@_STL@@KAABQAVMString@@PAU_Rb_tree_node_base@2@@Z
_TEXT	SEGMENT PARA USE32 PUBLIC 'CODE'
_TEXT	ENDS
;	COMDAT ??F?$_Rb_tree_iterator@U?$pair@QAVMString@@PAV1@@_STL@@U?$_Nonconst_traits@U?$pair@QAVMString@@PAV1@@_STL@@@2@@_STL@@QAEAAU01@XZ
_TEXT	SEGMENT PARA USE32 PUBLIC 'CODE'
_TEXT	ENDS
;	COMDAT ??0?$pair@U?$_Rb_tree_iterator@U?$pair@QAVMString@@PAV1@@_STL@@U?$_Nonconst_traits@U?$pair@QAVMString@@PAV1@@_STL@@@2@@_STL@@_N@_STL@@QAE@ABU?$_Rb_tree_iterator@U?$pair@QAVMString@@PAV1@@_STL@@U?$_Nonconst_traits@U?$pair@QAVMString@@PAV1@@_STL@@@2@@1@AB_N@Z
_TEXT	SEGMENT PARA USE32 PUBLIC 'CODE'
_TEXT	ENDS
;	COMDAT ??0sentry@?$basic_ostream@DV?$char_traits@D@_STL@@@_STL@@QAE@AAV12@@Z
_TEXT	SEGMENT PARA USE32 PUBLIC 'CODE'
_TEXT	ENDS
;	COMDAT ??1sentry@?$basic_ostream@DV?$char_traits@D@_STL@@@_STL@@QAE@XZ
_TEXT	SEGMENT PARA USE32 PUBLIC 'CODE'
_TEXT	ENDS
;	COMDAT ??Bsentry@?$basic_ostream@DV?$char_traits@D@_STL@@@_STL@@QBE_NXZ
_TEXT	SEGMENT PARA USE32 PUBLIC 'CODE'
_TEXT	ENDS
;	COMDAT ??R?$_Select1st@U?$pair@QAVMString@@PAV1@@_STL@@@_STL@@QBEABQAVMString@@ABU?$pair@QAVMString@@PAV1@@1@@Z
_TEXT	SEGMENT PARA USE32 PUBLIC 'CODE'
_TEXT	ENDS
;	COMDAT ?clear@?$basic_ios@DV?$char_traits@D@_STL@@@_STL@@QAEXH@Z
_TEXT	SEGMENT PARA USE32 PUBLIC 'CODE'
_TEXT	ENDS
;	COMDAT ?flush@?$basic_ostream@DV?$char_traits@D@_STL@@@_STL@@QAEAAV12@XZ
_TEXT	SEGMENT PARA USE32 PUBLIC 'CODE'
_TEXT	ENDS
;	COMDAT ?_S_value@?$_Rb_tree@PAVMString@@U?$pair@QAVMString@@PAV1@@_STL@@U?$_Select1st@U?$pair@QAVMString@@PAV1@@_STL@@@3@VMStringPointerCompare@@V?$allocator@U?$pair@QAVMString@@PAV1@@_STL@@@3@@_STL@@KAAAU?$pair@QAVMString@@PAV1@@2@PAU?$_Rb_tree_node@U?$pair@QAVMString@@PAV1@@_STL@@@2@@Z
_TEXT	SEGMENT PARA USE32 PUBLIC 'CODE'
_TEXT	ENDS
;	COMDAT ??$_M_range_initialize@PBD@?$basic_string@DV?$char_traits@D@_STL@@V?$allocator@D@2@@_STL@@AAEXPBD0ABUforward_iterator_tag@1@@Z
_TEXT	SEGMENT PARA USE32 PUBLIC 'CODE'
_TEXT	ENDS
;	COMDAT ??$_M_range_initialize@PAD@?$basic_string@DV?$char_traits@D@_STL@@V?$allocator@D@2@@_STL@@AAEXPAD0ABUforward_iterator_tag@1@@Z
_TEXT	SEGMENT PARA USE32 PUBLIC 'CODE'
_TEXT	ENDS
;	COMDAT ?_M_handle_exception@?$basic_ios@DV?$char_traits@D@_STL@@@_STL@@QAEXH@Z
_TEXT	SEGMENT PARA USE32 PUBLIC 'CODE'
_TEXT	ENDS
;	COMDAT ?_M_unshift@?$basic_filebuf@DV?$char_traits@D@_STL@@@_STL@@AAE_NXZ
_TEXT	SEGMENT PARA USE32 PUBLIC 'CODE'
_TEXT	ENDS
;	COMDAT ?_M_allocate_buffers@?$basic_filebuf@DV?$char_traits@D@_STL@@@_STL@@AAE_NXZ
_TEXT	SEGMENT PARA USE32 PUBLIC 'CODE'
_TEXT	ENDS
;	COMDAT ??$max@H@_STL@@YAABHABH0@Z
_TEXT	SEGMENT PARA USE32 PUBLIC 'CODE'
_TEXT	ENDS
;	COMDAT ??$use_facet@V?$codecvt@DDH@_STL@@@_STL@@YAABV?$codecvt@DDH@0@ABVlocale@0@@Z
_TEXT	SEGMENT PARA USE32 PUBLIC 'CODE'
_TEXT	ENDS
;	COMDAT ??$append@PAD@?$basic_string@DV?$char_traits@D@_STL@@V?$allocator@D@2@@_STL@@QAEAAV01@PAD0@Z
_TEXT	SEGMENT PARA USE32 PUBLIC 'CODE'
_TEXT	ENDS
;	COMDAT ?_M_insert@?$_Rb_tree@PAVMString@@U?$pair@QAVMString@@PAV1@@_STL@@U?$_Select1st@U?$pair@QAVMString@@PAV1@@_STL@@@3@VMStringPointerCompare@@V?$allocator@U?$pair@QAVMString@@PAV1@@_STL@@@3@@_STL@@AAE?AU?$_Rb_tree_iterator@U?$pair@QAVMString@@PAV1@@_STL@@U?$_Nonconst_traits@U?$pair@QAVMString@@PAV1@@_STL@@@2@@2@PAU_Rb_tree_node_base@2@0ABU?$pair@QAVMString@@PAV1@@2@0@Z
_TEXT	SEGMENT PARA USE32 PUBLIC 'CODE'
_TEXT	ENDS
;	COMDAT ??$_M_find@PAVMString@@@?$_Rb_tree@PAVMString@@U?$pair@QAVMString@@PAV1@@_STL@@U?$_Select1st@U?$pair@QAVMString@@PAV1@@_STL@@@3@VMStringPointerCompare@@V?$allocator@U?$pair@QAVMString@@PAV1@@_STL@@@3@@_STL@@ABEPAU?$_Rb_tree_node@U?$pair@QAVMString@@PAV1@@_STL@@@1@ABQAVMString@@@Z
_TEXT	SEGMENT PARA USE32 PUBLIC 'CODE'
_TEXT	ENDS
;	COMDAT ??$_M_append_dispatch@PBD@?$basic_string@DV?$char_traits@D@_STL@@V?$allocator@D@2@@_STL@@AAEAAV01@PBD0ABU__false_type@1@@Z
_TEXT	SEGMENT PARA USE32 PUBLIC 'CODE'
_TEXT	ENDS
;	COMDAT ??$_M_init@DV?$char_traits@D@_STL@@@_STL@@YA_NAAV?$basic_ostream@DV?$char_traits@D@_STL@@@0@@Z
_TEXT	SEGMENT PARA USE32 PUBLIC 'CODE'
_TEXT	ENDS
;	COMDAT ?tie@?$basic_ios@DV?$char_traits@D@_STL@@@_STL@@QBEPAV?$basic_ostream@DV?$char_traits@D@_STL@@@2@XZ
_TEXT	SEGMENT PARA USE32 PUBLIC 'CODE'
_TEXT	ENDS
;	COMDAT ?_M_create_node@?$_Rb_tree@PAVMString@@U?$pair@QAVMString@@PAV1@@_STL@@U?$_Select1st@U?$pair@QAVMString@@PAV1@@_STL@@@3@VMStringPointerCompare@@V?$allocator@U?$pair@QAVMString@@PAV1@@_STL@@@3@@_STL@@IAEPAU?$_Rb_tree_node@U?$pair@QAVMString@@PAV1@@_STL@@@2@ABU?$pair@QAVMString@@PAV1@@2@@Z
_TEXT	SEGMENT PARA USE32 PUBLIC 'CODE'
_TEXT	ENDS
;	COMDAT ?_S_parent@?$_Rb_tree@PAVMString@@U?$pair@QAVMString@@PAV1@@_STL@@U?$_Select1st@U?$pair@QAVMString@@PAV1@@_STL@@@3@VMStringPointerCompare@@V?$allocator@U?$pair@QAVMString@@PAV1@@_STL@@@3@@_STL@@KAAAPAU?$_Rb_tree_node@U?$pair@QAVMString@@PAV1@@_STL@@@2@PAU32@@Z
_TEXT	SEGMENT PARA USE32 PUBLIC 'CODE'
_TEXT	ENDS
;	COMDAT ??$distance@PBD@_STL@@YAHABQBD0@Z
_TEXT	SEGMENT PARA USE32 PUBLIC 'CODE'
_TEXT	ENDS
;	COMDAT ?_M_allocate_block@?$_String_base@DV?$allocator@D@_STL@@@_STL@@QAEXI@Z
_TEXT	SEGMENT PARA USE32 PUBLIC 'CODE'
_TEXT	ENDS
;	COMDAT ??$distance@PAD@_STL@@YAHABQAD0@Z
_TEXT	SEGMENT PARA USE32 PUBLIC 'CODE'
_TEXT	ENDS
;	COMDAT ??$uninitialized_copy@PADPAD@_STL@@YAPADPAD00@Z
_TEXT	SEGMENT PARA USE32 PUBLIC 'CODE'
_TEXT	ENDS
;	COMDAT ??$_M_append_dispatch@PAD@?$basic_string@DV?$char_traits@D@_STL@@V?$allocator@D@2@@_STL@@AAEAAV01@PAD0ABU__false_type@1@@Z
_TEXT	SEGMENT PARA USE32 PUBLIC 'CODE'
_TEXT	ENDS
;	COMDAT ??$append@PBD@?$basic_string@DV?$char_traits@D@_STL@@V?$allocator@D@2@@_STL@@AAEAAV01@PBD0ABUforward_iterator_tag@1@@Z
_TEXT	SEGMENT PARA USE32 PUBLIC 'CODE'
_TEXT	ENDS
;	COMDAT ??$_Construct@U?$pair@QAVMString@@PAV1@@_STL@@U12@@_STL@@YAXPAU?$pair@QAVMString@@PAV1@@0@ABU10@@Z
_TEXT	SEGMENT PARA USE32 PUBLIC 'CODE'
_TEXT	ENDS
;	COMDAT ?_M_construct_null@?$basic_string@DV?$char_traits@D@_STL@@V?$allocator@D@2@@_STL@@AAEXPAD@Z
_TEXT	SEGMENT PARA USE32 PUBLIC 'CODE'
_TEXT	ENDS
;	COMDAT ?max_size@?$basic_string@DV?$char_traits@D@_STL@@V?$allocator@D@2@@_STL@@QBEIXZ
_TEXT	SEGMENT PARA USE32 PUBLIC 'CODE'
_TEXT	ENDS
;	COMDAT ?capacity@?$basic_string@DV?$char_traits@D@_STL@@V?$allocator@D@2@@_STL@@QBEIXZ
_TEXT	SEGMENT PARA USE32 PUBLIC 'CODE'
_TEXT	ENDS
;	COMDAT ?max_size@?$_String_base@DV?$allocator@D@_STL@@@_STL@@QBEIXZ
_TEXT	SEGMENT PARA USE32 PUBLIC 'CODE'
_TEXT	ENDS
;	COMDAT ??0?$pair@QAVMString@@PAV1@@_STL@@QAE@ABU01@@Z
_TEXT	SEGMENT PARA USE32 PUBLIC 'CODE'
_TEXT	ENDS
;	COMDAT ?_M_construct_null_aux@?$basic_string@DV?$char_traits@D@_STL@@V?$allocator@D@2@@_STL@@AAEXPADABU__true_type@2@@Z
_TEXT	SEGMENT PARA USE32 PUBLIC 'CODE'
_TEXT	ENDS
;	COMDAT ??$__distance@PBD@_STL@@YAHABQBD0ABUrandom_access_iterator_tag@0@@Z
_TEXT	SEGMENT PARA USE32 PUBLIC 'CODE'
_TEXT	ENDS
;	COMDAT ?_M_throw_length_error@?$_String_base@DV?$allocator@D@_STL@@@_STL@@QBEXXZ
_TEXT	SEGMENT PARA USE32 PUBLIC 'CODE'
_TEXT	ENDS
;	COMDAT ??$__distance@PAD@_STL@@YAHABQAD0ABUrandom_access_iterator_tag@0@@Z
_TEXT	SEGMENT PARA USE32 PUBLIC 'CODE'
_TEXT	ENDS
;	COMDAT ??$__uninitialized_copy@PADPAD@_STL@@YAPADPAD00ABU__true_type@0@@Z
_TEXT	SEGMENT PARA USE32 PUBLIC 'CODE'
_TEXT	ENDS
;	COMDAT ??$append@PAD@?$basic_string@DV?$char_traits@D@_STL@@V?$allocator@D@2@@_STL@@AAEAAV01@PAD0ABUforward_iterator_tag@1@@Z
_TEXT	SEGMENT PARA USE32 PUBLIC 'CODE'
_TEXT	ENDS
;	COMDAT ??$max@I@_STL@@YAABIABI0@Z
_TEXT	SEGMENT PARA USE32 PUBLIC 'CODE'
_TEXT	ENDS
;	COMDAT ?_Ret@?$_BothPtrType@PADPAD@_STL@@SA?AU__true_type@2@XZ
_TEXT	SEGMENT PARA USE32 PUBLIC 'CODE'
_TEXT	ENDS
;	COMDAT ??$__copy_aux@PADPAD@_STL@@YAPADPAD00ABU__true_type@0@@Z
_TEXT	SEGMENT PARA USE32 PUBLIC 'CODE'
_TEXT	ENDS
;	COMDAT ?_Ret@?$_OKToMemCpy@DD@_STL@@SA?AU__true_type@2@XZ
_TEXT	SEGMENT PARA USE32 PUBLIC 'CODE'
_TEXT	ENDS
;	COMDAT ??$_IsOKToMemCpy@DD@_STL@@YA?AU?$_OKToMemCpy@DD@0@PAD0@Z
_TEXT	SEGMENT PARA USE32 PUBLIC 'CODE'
_TEXT	ENDS
;	COMDAT ??$__copy_ptrs@PADPAD@_STL@@YAPADPAD00ABU__true_type@0@@Z
_TEXT	SEGMENT PARA USE32 PUBLIC 'CODE'
_TEXT	ENDS
;	COMDAT ??_R3IFileIO@@8
rdata$r	SEGMENT DWORD USE32 PUBLIC 'CONST'
rdata$r	ENDS
;	COMDAT ??_R3?$basic_ofstream@DV?$char_traits@D@_STL@@@_STL@@8
rdata$r	SEGMENT DWORD USE32 PUBLIC 'CONST'
rdata$r	ENDS
;	COMDAT ??_R3ovfstream@@8
rdata$r	SEGMENT DWORD USE32 PUBLIC 'CONST'
rdata$r	ENDS
;	COMDAT ??_R3ivfstream@@8
rdata$r	SEGMENT DWORD USE32 PUBLIC 'CONST'
rdata$r	ENDS
;	COMDAT ??_R3iovfs_base@@8
rdata$r	SEGMENT DWORD USE32 PUBLIC 'CONST'
rdata$r	ENDS
;	COMDAT ??_R2IFileIO@@8
rdata$r	SEGMENT DWORD USE32 PUBLIC 'CONST'
rdata$r	ENDS
;	COMDAT ??_R2?$basic_ofstream@DV?$char_traits@D@_STL@@@_STL@@8
rdata$r	SEGMENT DWORD USE32 PUBLIC 'CONST'
rdata$r	ENDS
;	COMDAT ??_R2ovfstream@@8
rdata$r	SEGMENT DWORD USE32 PUBLIC 'CONST'
rdata$r	ENDS
;	COMDAT ??_R2ivfstream@@8
rdata$r	SEGMENT DWORD USE32 PUBLIC 'CONST'
rdata$r	ENDS
;	COMDAT ??_R2iovfs_base@@8
rdata$r	SEGMENT DWORD USE32 PUBLIC 'CONST'
rdata$r	ENDS
;	COMDAT ??_R1A@?0A@A@IFileIO@@8
rdata$r	SEGMENT DWORD USE32 PUBLIC 'CONST'
rdata$r	ENDS
;	COMDAT ??_R1A@A@3A@ios_base@_STL@@8
rdata$r	SEGMENT DWORD USE32 PUBLIC 'CONST'
rdata$r	ENDS
;	COMDAT ??_R0?AVios_base@_STL@@@8
_DATA	SEGMENT DWORD USE32 PUBLIC 'DATA'
_DATA	ENDS
;	COMDAT ??_R1A@A@3BA@?$basic_ios@DV?$char_traits@D@_STL@@@_STL@@8
rdata$r	SEGMENT DWORD USE32 PUBLIC 'CONST'
rdata$r	ENDS
;	COMDAT ??_R0?AV?$basic_ios@DV?$char_traits@D@_STL@@@_STL@@@8
_DATA	SEGMENT DWORD USE32 PUBLIC 'DATA'
_DATA	ENDS
;	COMDAT ??_R1A@?0A@A@?$basic_ostream@DV?$char_traits@D@_STL@@@_STL@@8
rdata$r	SEGMENT DWORD USE32 PUBLIC 'CONST'
rdata$r	ENDS
;	COMDAT ??_R0?AV?$basic_ostream@DV?$char_traits@D@_STL@@@_STL@@@8
_DATA	SEGMENT DWORD USE32 PUBLIC 'DATA'
_DATA	ENDS
;	COMDAT ??_R1A@?0A@A@?$basic_ofstream@DV?$char_traits@D@_STL@@@_STL@@8
rdata$r	SEGMENT DWORD USE32 PUBLIC 'CONST'
rdata$r	ENDS
;	COMDAT ??_R1A@?0A@A@ovfstream@@8
rdata$r	SEGMENT DWORD USE32 PUBLIC 'CONST'
rdata$r	ENDS
;	COMDAT ??_R1A@?0A@A@ivfstream@@8
rdata$r	SEGMENT DWORD USE32 PUBLIC 'CONST'
rdata$r	ENDS
;	COMDAT ??_R1A@?0A@A@iovfs_base@@8
rdata$r	SEGMENT DWORD USE32 PUBLIC 'CONST'
rdata$r	ENDS
;	COMDAT ??_R0?AVIFileIO@@@8
_DATA	SEGMENT DWORD USE32 PUBLIC 'DATA'
_DATA	ENDS
;	COMDAT ??_R0?AV?$basic_ofstream@DV?$char_traits@D@_STL@@@_STL@@@8
_DATA	SEGMENT DWORD USE32 PUBLIC 'DATA'
_DATA	ENDS
;	COMDAT ??_R0?AVovfstream@@@8
_DATA	SEGMENT DWORD USE32 PUBLIC 'DATA'
_DATA	ENDS
;	COMDAT ??_R0?AVivfstream@@@8
_DATA	SEGMENT DWORD USE32 PUBLIC 'DATA'
_DATA	ENDS
;	COMDAT ??_R0?AViovfs_base@@@8
_DATA	SEGMENT DWORD USE32 PUBLIC 'DATA'
_DATA	ENDS
;	COMDAT ??_R4IFileIO@@6B@
rdata$r	SEGMENT DWORD USE32 PUBLIC 'CONST'
rdata$r	ENDS
;	COMDAT ??_R4?$basic_ofstream@DV?$char_traits@D@_STL@@@_STL@@6B@
rdata$r	SEGMENT DWORD USE32 PUBLIC 'CONST'
rdata$r	ENDS
;	COMDAT ??_R4ovfstream@@6B@
rdata$r	SEGMENT DWORD USE32 PUBLIC 'CONST'
rdata$r	ENDS
;	COMDAT ??_R4ivfstream@@6B@
rdata$r	SEGMENT DWORD USE32 PUBLIC 'CONST'
rdata$r	ENDS
;	COMDAT ??_R4iovfs_base@@6B@
rdata$r	SEGMENT DWORD USE32 PUBLIC 'CONST'
rdata$r	ENDS
;	COMDAT ?__copy_trivial@_STL@@YAPAXPBX0PAX@Z
_TEXT	SEGMENT PARA USE32 PUBLIC 'CODE'
_TEXT	ENDS
;	COMDAT ??3@YAXPAX0@Z
_TEXT	SEGMENT PARA USE32 PUBLIC 'CODE'
_TEXT	ENDS
;	COMDAT ??2@YAPAXIPAX@Z
_TEXT	SEGMENT PARA USE32 PUBLIC 'CODE'
_TEXT	ENDS
;	COMDAT ?_M_deallocate_block@?$_String_base@DV?$allocator@D@_STL@@@_STL@@QAEXXZ
_TEXT	SEGMENT PARA USE32 PUBLIC 'CODE'
_TEXT	ENDS
;	COMDAT ?deallocate@?$allocator@D@_STL@@QAEXPADI@Z
_TEXT	SEGMENT PARA USE32 PUBLIC 'CODE'
_TEXT	ENDS
;	COMDAT ?good@ios_base@_STL@@QBE_NXZ
_TEXT	SEGMENT PARA USE32 PUBLIC 'CODE'
_TEXT	ENDS
;	COMDAT ?__page_size@_Filebuf_base@_STL@@SAIXZ
_TEXT	SEGMENT PARA USE32 PUBLIC 'CODE'
_TEXT	ENDS
;	COMDAT ?_M_write@?$basic_filebuf@DV?$char_traits@D@_STL@@@_STL@@QAE_NPADH@Z
_TEXT	SEGMENT PARA USE32 PUBLIC 'CODE'
_TEXT	ENDS
;	COMDAT ?unshift@?$codecvt@DDH@_STL@@QBE?AW4result@codecvt_base@2@AAHPAD1AAPAD@Z
_TEXT	SEGMENT PARA USE32 PUBLIC 'CODE'
_TEXT	ENDS
;	COMDAT ?_M_get_exception_mask@ios_base@_STL@@IBEHXZ
_TEXT	SEGMENT PARA USE32 PUBLIC 'CODE'
_TEXT	ENDS
;	COMDAT ?_M_setstate_nothrow@ios_base@_STL@@IAEXH@Z
_TEXT	SEGMENT PARA USE32 PUBLIC 'CODE'
_TEXT	ENDS
;	COMDAT ?uninitialized_copy@_STL@@YAPADPBD0PAD@Z
_TEXT	SEGMENT PARA USE32 PUBLIC 'CODE'
_TEXT	ENDS
;	COMDAT ?pubsync@?$basic_streambuf@DV?$char_traits@D@_STL@@@_STL@@QAEHXZ
_TEXT	SEGMENT PARA USE32 PUBLIC 'CODE'
_TEXT	ENDS
;	COMDAT ?_M_check_exception_mask@ios_base@_STL@@IAEXXZ
_TEXT	SEGMENT PARA USE32 PUBLIC 'CODE'
_TEXT	ENDS
;	COMDAT ?_M_clear_nothrow@ios_base@_STL@@IAEXH@Z
_TEXT	SEGMENT PARA USE32 PUBLIC 'CODE'
_TEXT	ENDS
;	COMDAT ?flags@ios_base@_STL@@QBEHXZ
_TEXT	SEGMENT PARA USE32 PUBLIC 'CODE'
_TEXT	ENDS
;	COMDAT ?rdstate@ios_base@_STL@@QBEHXZ
_TEXT	SEGMENT PARA USE32 PUBLIC 'CODE'
_TEXT	ENDS
;	COMDAT ?assign@?$char_traits@D@_STL@@SAXAADABD@Z
_TEXT	SEGMENT PARA USE32 PUBLIC 'CODE'
_TEXT	ENDS
;	COMDAT ?always_noconv@?$codecvt@DDH@_STL@@QBE_NXZ
_TEXT	SEGMENT PARA USE32 PUBLIC 'CODE'
_TEXT	ENDS
;	COMDAT ?encoding@?$codecvt@DDH@_STL@@QBEHXZ
_TEXT	SEGMENT PARA USE32 PUBLIC 'CODE'
_TEXT	ENDS
;	COMDAT ?max_length@?$codecvt@DDH@_STL@@QBEHXZ
_TEXT	SEGMENT PARA USE32 PUBLIC 'CODE'
_TEXT	ENDS
;	COMDAT ?__o_mode@_Filebuf_base@_STL@@QBEHXZ
_TEXT	SEGMENT PARA USE32 PUBLIC 'CODE'
_TEXT	ENDS
;	COMDAT ?sputn@?$basic_streambuf@DV?$char_traits@D@_STL@@@_STL@@QAEHPBDH@Z
_TEXT	SEGMENT PARA USE32 PUBLIC 'CODE'
_TEXT	ENDS
;	COMDAT ?deallocate@?$__node_alloc@$00$0A@@_STL@@SAXPAXI@Z
_TEXT	SEGMENT PARA USE32 PUBLIC 'CODE'
_TEXT	ENDS
;	COMDAT ?__stl_delete@_STL@@YAXPAX@Z
_TEXT	SEGMENT PARA USE32 PUBLIC 'CODE'
_TEXT	ENDS
;	COMDAT ?_Destroy@_STL@@YAXPAD0@Z
_TEXT	SEGMENT PARA USE32 PUBLIC 'CODE'
_TEXT	ENDS
;	COMDAT ??1?$basic_ios@DV?$char_traits@D@_STL@@@_STL@@UAE@XZ
_TEXT	SEGMENT PARA USE32 PUBLIC 'CODE'
_TEXT	ENDS
;	COMDAT ??_7?$basic_ios@DV?$char_traits@D@_STL@@@_STL@@6B@
CONST	SEGMENT DWORD USE32 PUBLIC 'CONST'
CONST	ENDS
;	COMDAT ??_R4?$basic_ios@DV?$char_traits@D@_STL@@@_STL@@6B@
rdata$r	SEGMENT DWORD USE32 PUBLIC 'CONST'
rdata$r	ENDS
;	COMDAT ??_R3?$basic_ios@DV?$char_traits@D@_STL@@@_STL@@8
rdata$r	SEGMENT DWORD USE32 PUBLIC 'CONST'
rdata$r	ENDS
;	COMDAT ??_R2?$basic_ios@DV?$char_traits@D@_STL@@@_STL@@8
rdata$r	SEGMENT DWORD USE32 PUBLIC 'CONST'
rdata$r	ENDS
;	COMDAT ??_R1A@?0A@A@?$basic_ios@DV?$char_traits@D@_STL@@@_STL@@8
rdata$r	SEGMENT DWORD USE32 PUBLIC 'CONST'
rdata$r	ENDS
;	COMDAT ??_R1A@?0A@A@ios_base@_STL@@8
rdata$r	SEGMENT DWORD USE32 PUBLIC 'CONST'
rdata$r	ENDS
;	COMDAT ??_G?$basic_ios@DV?$char_traits@D@_STL@@@_STL@@UAEPAXI@Z
_TEXT	SEGMENT PARA USE32 PUBLIC 'CODE'
_TEXT	ENDS
;	COMDAT ??1?$basic_filebuf@DV?$char_traits@D@_STL@@@_STL@@UAE@XZ
_TEXT	SEGMENT PARA USE32 PUBLIC 'CODE'
_TEXT	ENDS
;	COMDAT ??_7?$basic_filebuf@DV?$char_traits@D@_STL@@@_STL@@6B@
CONST	SEGMENT DWORD USE32 PUBLIC 'CONST'
CONST	ENDS
;	COMDAT ??_R4?$basic_filebuf@DV?$char_traits@D@_STL@@@_STL@@6B@
rdata$r	SEGMENT DWORD USE32 PUBLIC 'CONST'
rdata$r	ENDS
;	COMDAT ??_R0?AV?$basic_filebuf@DV?$char_traits@D@_STL@@@_STL@@@8
_DATA	SEGMENT DWORD USE32 PUBLIC 'DATA'
_DATA	ENDS
;	COMDAT ??_R3?$basic_filebuf@DV?$char_traits@D@_STL@@@_STL@@8
rdata$r	SEGMENT DWORD USE32 PUBLIC 'CONST'
rdata$r	ENDS
;	COMDAT ??_R2?$basic_filebuf@DV?$char_traits@D@_STL@@@_STL@@8
rdata$r	SEGMENT DWORD USE32 PUBLIC 'CONST'
rdata$r	ENDS
;	COMDAT ??_R1A@?0A@A@?$basic_filebuf@DV?$char_traits@D@_STL@@@_STL@@8
rdata$r	SEGMENT DWORD USE32 PUBLIC 'CONST'
rdata$r	ENDS
;	COMDAT ??_R1A@?0A@A@?$basic_streambuf@DV?$char_traits@D@_STL@@@_STL@@8
rdata$r	SEGMENT DWORD USE32 PUBLIC 'CONST'
rdata$r	ENDS
;	COMDAT ??_R0?AV?$basic_streambuf@DV?$char_traits@D@_STL@@@_STL@@@8
_DATA	SEGMENT DWORD USE32 PUBLIC 'DATA'
_DATA	ENDS
;	COMDAT ??_G?$basic_filebuf@DV?$char_traits@D@_STL@@@_STL@@UAEPAXI@Z
_TEXT	SEGMENT PARA USE32 PUBLIC 'CODE'
_TEXT	ENDS
;	COMDAT ?setbuf@?$basic_filebuf@DV?$char_traits@D@_STL@@@_STL@@MAEPAV?$basic_streambuf@DV?$char_traits@D@_STL@@@2@PADH@Z
_TEXT	SEGMENT PARA USE32 PUBLIC 'CODE'
_TEXT	ENDS
;	COMDAT ?seekoff@?$basic_filebuf@DV?$char_traits@D@_STL@@@_STL@@MAE?AV?$fpos@H@2@JHH@Z
_TEXT	SEGMENT PARA USE32 PUBLIC 'CODE'
_TEXT	ENDS
;	COMDAT ?_M_in_binary_mode@_Filebuf_base@_STL@@QBE_NXZ
_TEXT	SEGMENT PARA USE32 PUBLIC 'CODE'
_TEXT	ENDS
;	COMDAT ?length@?$codecvt@DDH@_STL@@QBEHABHPBD1I@Z
_TEXT	SEGMENT PARA USE32 PUBLIC 'CODE'
_TEXT	ENDS
;	COMDAT ?in@?$codecvt@DDH@_STL@@QBE?AW4result@codecvt_base@2@AAHPBD1AAPBDPAD3AAPAD@Z
_TEXT	SEGMENT PARA USE32 PUBLIC 'CODE'
_TEXT	ENDS
;	COMDAT ?eback@?$basic_streambuf@DV?$char_traits@D@_STL@@@_STL@@IBEPADXZ
_TEXT	SEGMENT PARA USE32 PUBLIC 'CODE'
_TEXT	ENDS
;	COMDAT ?_FILE_I_begin@_STL@@YAPADPBU_iobuf@@@Z
_TEXT	SEGMENT PARA USE32 PUBLIC 'CODE'
_TEXT	ENDS
;	COMDAT ?gptr@?$basic_streambuf@DV?$char_traits@D@_STL@@@_STL@@IBEPADXZ
_TEXT	SEGMENT PARA USE32 PUBLIC 'CODE'
_TEXT	ENDS
;	COMDAT ?_FILE_I_next@_STL@@YAPADPBU_iobuf@@@Z
_TEXT	SEGMENT PARA USE32 PUBLIC 'CODE'
_TEXT	ENDS
;	COMDAT ?_M_get_offset@_Filebuf_base@_STL@@QAEJPAD0@Z
_TEXT	SEGMENT PARA USE32 PUBLIC 'CODE'
_TEXT	ENDS
;	COMDAT ??$count@PADD@_STL@@YAHPAD0ABD@Z
_TEXT	SEGMENT PARA USE32 PUBLIC 'CODE'
_TEXT	ENDS
;	COMDAT ?seekpos@?$basic_filebuf@DV?$char_traits@D@_STL@@@_STL@@MAE?AV?$fpos@H@2@V32@H@Z
_TEXT	SEGMENT PARA USE32 PUBLIC 'CODE'
_TEXT	ENDS
;	COMDAT ?sync@?$basic_filebuf@DV?$char_traits@D@_STL@@@_STL@@MAEHXZ
_TEXT	SEGMENT PARA USE32 PUBLIC 'CODE'
_TEXT	ENDS
;	COMDAT ?showmanyc@?$basic_filebuf@DV?$char_traits@D@_STL@@@_STL@@MAEHXZ
_TEXT	SEGMENT PARA USE32 PUBLIC 'CODE'
_TEXT	ENDS
;	COMDAT ?egptr@?$basic_streambuf@DV?$char_traits@D@_STL@@@_STL@@IBEPADXZ
_TEXT	SEGMENT PARA USE32 PUBLIC 'CODE'
_TEXT	ENDS
;	COMDAT ?_FILE_I_end@_STL@@YAPADPBU_iobuf@@@Z
_TEXT	SEGMENT PARA USE32 PUBLIC 'CODE'
_TEXT	ENDS
;	COMDAT ?underflow@?$basic_filebuf@DV?$char_traits@D@_STL@@@_STL@@MAEHXZ
_TEXT	SEGMENT PARA USE32 PUBLIC 'CODE'
_TEXT	ENDS
;	COMDAT ?pbackfail@?$basic_filebuf@DV?$char_traits@D@_STL@@@_STL@@MAEHH@Z
_TEXT	SEGMENT PARA USE32 PUBLIC 'CODE'
_TEXT	ENDS
;	COMDAT ?gbump@?$basic_streambuf@DV?$char_traits@D@_STL@@@_STL@@IAEXH@Z
_TEXT	SEGMENT PARA USE32 PUBLIC 'CODE'
_TEXT	ENDS
;	COMDAT ?_FILE_I_bump@_STL@@YAXPAU_iobuf@@H@Z
_TEXT	SEGMENT PARA USE32 PUBLIC 'CODE'
_TEXT	ENDS
;	COMDAT ?to_int_type@?$char_traits@D@_STL@@SAHABD@Z
_TEXT	SEGMENT PARA USE32 PUBLIC 'CODE'
_TEXT	ENDS
;	COMDAT ?to_char_type@?$char_traits@D@_STL@@SADABH@Z
_TEXT	SEGMENT PARA USE32 PUBLIC 'CODE'
_TEXT	ENDS
;	COMDAT ?overflow@?$basic_filebuf@DV?$char_traits@D@_STL@@@_STL@@MAEHH@Z
_TEXT	SEGMENT PARA USE32 PUBLIC 'CODE'
_TEXT	ENDS
;	COMDAT ?pptr@?$basic_streambuf@DV?$char_traits@D@_STL@@@_STL@@IBEPADXZ
_TEXT	SEGMENT PARA USE32 PUBLIC 'CODE'
_TEXT	ENDS
;	COMDAT ?_FILE_O_next@_STL@@YAPADPBU_iobuf@@@Z
_TEXT	SEGMENT PARA USE32 PUBLIC 'CODE'
_TEXT	ENDS
;	COMDAT ?out@?$codecvt@DDH@_STL@@QBE?AW4result@codecvt_base@2@AAHPBD1AAPBDPAD3AAPAD@Z
_TEXT	SEGMENT PARA USE32 PUBLIC 'CODE'
_TEXT	ENDS
;	COMDAT ?_M_doit@?$_Noconv_output@V?$char_traits@D@_STL@@@_STL@@SA_NPAV?$basic_filebuf@DV?$char_traits@D@_STL@@@2@PAD1@Z
_TEXT	SEGMENT PARA USE32 PUBLIC 'CODE'
_TEXT	ENDS
;	COMDAT ?imbue@?$basic_filebuf@DV?$char_traits@D@_STL@@@_STL@@MAEXABVlocale@2@@Z
_TEXT	SEGMENT PARA USE32 PUBLIC 'CODE'
_TEXT	ENDS
;	COMDAT ??1?$basic_ostream@DV?$char_traits@D@_STL@@@_STL@@UAE@XZ
_TEXT	SEGMENT PARA USE32 PUBLIC 'CODE'
_TEXT	ENDS
;	COMDAT ??_7?$basic_ostream@DV?$char_traits@D@_STL@@@_STL@@6B@
CONST	SEGMENT DWORD USE32 PUBLIC 'CONST'
CONST	ENDS
;	COMDAT ??_R4?$basic_ostream@DV?$char_traits@D@_STL@@@_STL@@6B@
rdata$r	SEGMENT DWORD USE32 PUBLIC 'CONST'
rdata$r	ENDS
;	COMDAT ??_R3?$basic_ostream@DV?$char_traits@D@_STL@@@_STL@@8
rdata$r	SEGMENT DWORD USE32 PUBLIC 'CONST'
rdata$r	ENDS
;	COMDAT ??_R2?$basic_ostream@DV?$char_traits@D@_STL@@@_STL@@8
rdata$r	SEGMENT DWORD USE32 PUBLIC 'CONST'
rdata$r	ENDS
;	COMDAT ??_G?$basic_ostream@DV?$char_traits@D@_STL@@@_STL@@UAEPAXI@Z
_TEXT	SEGMENT PARA USE32 PUBLIC 'CODE'
_TEXT	ENDS
;	COMDAT ??_D?$basic_ostream@DV?$char_traits@D@_STL@@@_STL@@QAEXXZ
_TEXT	SEGMENT PARA USE32 PUBLIC 'CODE'
_TEXT	ENDS
;	COMDAT ??_7?$basic_ofstream@DV?$char_traits@D@_STL@@@_STL@@6B@
CONST	SEGMENT DWORD USE32 PUBLIC 'CONST'
CONST	ENDS
;	COMDAT ?setp@?$basic_streambuf@DV?$char_traits@D@_STL@@@_STL@@IAEXPAD0@Z
_TEXT	SEGMENT PARA USE32 PUBLIC 'CODE'
_TEXT	ENDS
;	COMDAT ?_FILE_O_set@_STL@@YAXPAU_iobuf@@PAD11@Z
_TEXT	SEGMENT PARA USE32 PUBLIC 'CODE'
_TEXT	ENDS
;	COMDAT ?_FILE_I_set@_STL@@YAXPAU_iobuf@@PAD11@Z
_TEXT	SEGMENT PARA USE32 PUBLIC 'CODE'
_TEXT	ENDS
;	COMDAT ?setg@?$basic_streambuf@DV?$char_traits@D@_STL@@@_STL@@IAEXPAD00@Z
_TEXT	SEGMENT PARA USE32 PUBLIC 'CODE'
_TEXT	ENDS
;	COMDAT ?__is_open@_Filebuf_base@_STL@@QBE_NXZ
_TEXT	SEGMENT PARA USE32 PUBLIC 'CODE'
_TEXT	ENDS
;	COMDAT ?allocate@?$__node_alloc@$00$0A@@_STL@@SAPAXI@Z
_TEXT	SEGMENT PARA USE32 PUBLIC 'CODE'
_TEXT	ENDS
;	COMDAT ?__stl_new@_STL@@YAPAXI@Z
_TEXT	SEGMENT PARA USE32 PUBLIC 'CODE'
_TEXT	ENDS
;	COMDAT ??1?$_STLP_alloc_proxy@PADDV?$allocator@D@_STL@@@_STL@@QAE@XZ
_TEXT	SEGMENT PARA USE32 PUBLIC 'CODE'
_TEXT	ENDS
;	COMDAT ?length@?$char_traits@D@_STL@@SAIPBD@Z
_TEXT	SEGMENT PARA USE32 PUBLIC 'CODE'
_TEXT	ENDS
;	COMDAT ??1?$allocator@D@_STL@@QAE@XZ
_TEXT	SEGMENT PARA USE32 PUBLIC 'CODE'
_TEXT	ENDS
;	COMDAT ?eof@?$__char_traits_base@DH@_STL@@SAHXZ
_TEXT	SEGMENT PARA USE32 PUBLIC 'CODE'
_TEXT	ENDS
;	COMDAT ??8_Rb_tree_base_iterator@_STL@@QBE_NABU01@@Z
_TEXT	SEGMENT PARA USE32 PUBLIC 'CODE'
_TEXT	ENDS
;	COMDAT ??9_Rb_tree_base_iterator@_STL@@QBE_NABU01@@Z
_TEXT	SEGMENT PARA USE32 PUBLIC 'CODE'
_TEXT	ENDS
;	COMDAT ??_7ovfstream@@6B@
CONST	SEGMENT DWORD USE32 PUBLIC 'CONST'
CONST	ENDS
;	COMDAT ??_7ivfstream@@6B@
CONST	SEGMENT DWORD USE32 PUBLIC 'CONST'
CONST	ENDS
;	COMDAT ??0?$basic_string@DV?$char_traits@D@_STL@@V?$allocator@D@2@@_STL@@QAE@XZ
_TEXT	SEGMENT PARA USE32 PUBLIC 'CODE'
_TEXT	ENDS
;	COMDAT ??0?$allocator@D@_STL@@QAE@XZ
_TEXT	SEGMENT PARA USE32 PUBLIC 'CODE'
_TEXT	ENDS
;	COMDAT ??1?$_String_base@DV?$allocator@D@_STL@@@_STL@@QAE@XZ
_TEXT	SEGMENT PARA USE32 PUBLIC 'CODE'
_TEXT	ENDS
;	COMDAT ??1?$basic_string@DV?$char_traits@D@_STL@@V?$allocator@D@2@@_STL@@QAE@XZ
_TEXT	SEGMENT PARA USE32 PUBLIC 'CODE'
_TEXT	ENDS
;	COMDAT ??_7iovfs_base@@6B@
CONST	SEGMENT DWORD USE32 PUBLIC 'CONST'
CONST	ENDS
;	COMDAT ??_7IFileIO@@6B@
CONST	SEGMENT DWORD USE32 PUBLIC 'CONST'
CONST	ENDS
sxdata	SEGMENT DWORD USE32 'SXDATA'
sxdata	ENDS
FLAT	GROUP _DATA, CONST, _BSS
	ASSUME	CS: FLAT, DS: FLAT, SS: FLAT
endif

INCLUDELIB LIBCMT
INCLUDELIB OLDNAMES

PUBLIC	??2@YAPAXIPAX@Z					; operator new
; Function compile flags: /Ogsy
; File c:\program files\microsoft visual studio .net 2003\vc7\include\new
;	COMDAT ??2@YAPAXIPAX@Z
_TEXT	SEGMENT
___formal$ = 8						; size = 4
__Where$ = 12						; size = 4
??2@YAPAXIPAX@Z PROC NEAR				; operator new, COMDAT

; 64   : 	return (_Where);

  00000	8b 44 24 08	 mov	 eax, DWORD PTR __Where$[esp-4]

; 65   : 	}

  00004	c3		 ret	 0
??2@YAPAXIPAX@Z ENDP					; operator new
_TEXT	ENDS
PUBLIC	??3@YAXPAX0@Z					; operator delete
; Function compile flags: /Ogsy
;	COMDAT ??3@YAXPAX0@Z
_TEXT	SEGMENT
___formal$ = 8						; size = 4
___formal$ = 12						; size = 4
??3@YAXPAX0@Z PROC NEAR					; operator delete, COMDAT

; 69   : 	}

  00000	c3		 ret	 0
??3@YAXPAX0@Z ENDP					; operator delete
_TEXT	ENDS
PUBLIC	?__stl_new@_STL@@YAPAXI@Z			; _STL::__stl_new
EXTRN	??2@YAPAXI@Z:NEAR				; operator new
; Function compile flags: /Ogsy
; File c:\stlport-4.6.1\stlport\stl\_new.h
;	COMDAT ?__stl_new@_STL@@YAPAXI@Z
_TEXT	SEGMENT
___n$ = 8						; size = 4
?__stl_new@_STL@@YAPAXI@Z PROC NEAR			; _STL::__stl_new, COMDAT

; 86   : inline void*  _STLP_CALL __stl_new(size_t __n)   { _STLP_CHECK_NULL_ALLOC(::operator _STLP_NEW(__n)); }

  00000	e9 00 00 00 00	 jmp	 ??2@YAPAXI@Z		; operator new
?__stl_new@_STL@@YAPAXI@Z ENDP				; _STL::__stl_new
_TEXT	ENDS
PUBLIC	?__stl_delete@_STL@@YAXPAX@Z			; _STL::__stl_delete
EXTRN	??3@YAXPAX@Z:NEAR				; operator delete
; Function compile flags: /Ogsy
;	COMDAT ?__stl_delete@_STL@@YAXPAX@Z
_TEXT	SEGMENT
___p$ = 8						; size = 4
?__stl_delete@_STL@@YAXPAX@Z PROC NEAR			; _STL::__stl_delete, COMDAT

; 87   : inline void   _STLP_CALL __stl_delete(void* __p) { ::operator delete(__p); }

  00000	e9 00 00 00 00	 jmp	 ??3@YAXPAX@Z		; operator delete
?__stl_delete@_STL@@YAXPAX@Z ENDP			; _STL::__stl_delete
_TEXT	ENDS
PUBLIC	?read@ivfstream@@QAEXPADI@Z			; ivfstream::read
; Function compile flags: /Ogsy
; File c:\darkeden\designed_common\project\client\virtualfilesystem\vfstream.inl
;	COMDAT ?read@ivfstream@@QAEXPADI@Z
_TEXT	SEGMENT
_buf$ = 8						; size = 4
_len$ = 12						; size = 4
?read@ivfstream@@QAEXPADI@Z PROC NEAR			; ivfstream::read, COMDAT
; _this$ = ecx

; 81   : 	if(m_pFileIO) m_pFileIO->read(buf, len);

  00000	83 79 04 00	 cmp	 DWORD PTR [ecx+4], 0
  00004	74 08		 je	 SHORT $L100360
  00006	8b 49 04	 mov	 ecx, DWORD PTR [ecx+4]
  00009	8b 01		 mov	 eax, DWORD PTR [ecx]
  0000b	ff 60 10	 jmp	 DWORD PTR [eax+16]
$L100360:

; 82   : }

  0000e	c2 08 00	 ret	 8
?read@ivfstream@@QAEXPADI@Z ENDP			; ivfstream::read
_TEXT	ENDS
PUBLIC	??8MString@@QAE_NABV0@@Z			; MString::operator==
EXTRN	_strcmp:NEAR
; Function compile flags: /Ogsy
; File c:\darkeden\designed_common\project\client\mstring.h
;	COMDAT ??8MString@@QAE_NABV0@@Z
_TEXT	SEGMENT
_str$ = 8						; size = 4
??8MString@@QAE_NABV0@@Z PROC NEAR			; MString::operator==, COMDAT
; _this$ = ecx

; 47   : 		bool		operator == (const MString& str)	{ return strcmp(m_pString, str.m_pString)==0; }

  00000	8b 44 24 04	 mov	 eax, DWORD PTR _str$[esp-4]
  00004	ff 70 08	 push	 DWORD PTR [eax+8]
  00007	ff 71 08	 push	 DWORD PTR [ecx+8]
  0000a	e8 00 00 00 00	 call	 _strcmp
  0000f	f7 d8		 neg	 eax
  00011	59		 pop	 ecx
  00012	1b c0		 sbb	 eax, eax
  00014	59		 pop	 ecx
  00015	40		 inc	 eax
  00016	c2 04 00	 ret	 4
??8MString@@QAE_NABV0@@Z ENDP				; MString::operator==
_TEXT	ENDS
PUBLIC	??MMString@@QAE_NABV0@@Z			; MString::operator<
; Function compile flags: /Ogsy
;	COMDAT ??MMString@@QAE_NABV0@@Z
_TEXT	SEGMENT
_str$ = 8						; size = 4
??MMString@@QAE_NABV0@@Z PROC NEAR			; MString::operator<, COMDAT
; _this$ = ecx

; 51   : 		bool		operator <	(const MString& str)	{ return strcmp(m_pString, str.m_pString)<0; }

  00000	8b 44 24 04	 mov	 eax, DWORD PTR _str$[esp-4]
  00004	ff 70 08	 push	 DWORD PTR [eax+8]
  00007	ff 71 08	 push	 DWORD PTR [ecx+8]
  0000a	e8 00 00 00 00	 call	 _strcmp
  0000f	59		 pop	 ecx
  00010	59		 pop	 ecx
  00011	33 c9		 xor	 ecx, ecx
  00013	85 c0		 test	 eax, eax
  00015	0f 9c c1	 setl	 cl
  00018	8a c1		 mov	 al, cl
  0001a	c2 04 00	 ret	 4
??MMString@@QAE_NABV0@@Z ENDP				; MString::operator<
_TEXT	ENDS
PUBLIC	??RMStringPointerCompare@@QBE_NPAVMString@@0@Z	; MStringPointerCompare::operator()
; Function compile flags: /Ogsy
; File c:\darkeden\designed_common\project\client\mstringmap.h
;	COMDAT ??RMStringPointerCompare@@QBE_NPAVMString@@0@Z
_TEXT	SEGMENT
_pLeft$ = 8						; size = 4
_pRight$ = 12						; size = 4
??RMStringPointerCompare@@QBE_NPAVMString@@0@Z PROC NEAR ; MStringPointerCompare::operator(), COMDAT
; _this$ = ecx

; 29   : 			return *pLeft < *pRight;

  00000	ff 74 24 08	 push	 DWORD PTR _pRight$[esp-4]
  00004	8b 4c 24 08	 mov	 ecx, DWORD PTR _pLeft$[esp]
  00008	e8 00 00 00 00	 call	 ??MMString@@QAE_NABV0@@Z ; MString::operator<

; 30   : 		}

  0000d	c2 08 00	 ret	 8
??RMStringPointerCompare@@QBE_NPAVMString@@0@Z ENDP	; MStringPointerCompare::operator()
_TEXT	ENDS
PUBLIC	??0?$_Rb_tree_iterator@U?$pair@QAVMString@@PAV1@@_STL@@U?$_Nonconst_traits@U?$pair@QAVMString@@PAV1@@_STL@@@2@@_STL@@QAE@ABU01@@Z ; _STL::_Rb_tree_iterator<_STL::pair<MString * const,MString *>,_STL::_Nonconst_traits<_STL::pair<MString * const,MString *> > >::_Rb_tree_iterator<_STL::pair<MString * const,MString *>,_STL::_Nonconst_traits<_STL::pair<MString * const,MString *> > >
; Function compile flags: /Ogsy
; File c:\stlport-4.6.1\stlport\stl\_tree.h
;	COMDAT ??0?$_Rb_tree_iterator@U?$pair@QAVMString@@PAV1@@_STL@@U?$_Nonconst_traits@U?$pair@QAVMString@@PAV1@@_STL@@@2@@_STL@@QAE@ABU01@@Z
_TEXT	SEGMENT
___it$ = 8						; size = 4
??0?$_Rb_tree_iterator@U?$pair@QAVMString@@PAV1@@_STL@@U?$_Nonconst_traits@U?$pair@QAVMString@@PAV1@@_STL@@@2@@_STL@@QAE@ABU01@@Z PROC NEAR ; _STL::_Rb_tree_iterator<_STL::pair<MString * const,MString *>,_STL::_Nonconst_traits<_STL::pair<MString * const,MString *> > >::_Rb_tree_iterator<_STL::pair<MString * const,MString *>,_STL::_Nonconst_traits<_STL::pair<MString * const,MString *> > >, COMDAT
; _this$ = ecx

; 165  :   _Rb_tree_iterator(const _Rb_tree_iterator<_Value, 

  00000	8b c1		 mov	 eax, ecx
  00002	8b 4c 24 04	 mov	 ecx, DWORD PTR ___it$[esp-4]
  00006	8b 09		 mov	 ecx, DWORD PTR [ecx]
  00008	89 08		 mov	 DWORD PTR [eax], ecx

; 166  :                     _Nonconst_traits<_Value> >& __it) { _M_node = __it._M_node; }

  0000a	c2 04 00	 ret	 4
??0?$_Rb_tree_iterator@U?$pair@QAVMString@@PAV1@@_STL@@U?$_Nonconst_traits@U?$pair@QAVMString@@PAV1@@_STL@@@2@@_STL@@QAE@ABU01@@Z ENDP ; _STL::_Rb_tree_iterator<_STL::pair<MString * const,MString *>,_STL::_Nonconst_traits<_STL::pair<MString * const,MString *> > >::_Rb_tree_iterator<_STL::pair<MString * const,MString *>,_STL::_Nonconst_traits<_STL::pair<MString * const,MString *> > >
_TEXT	ENDS
PUBLIC	??E?$_Rb_tree_iterator@U?$pair@QAVMString@@PAV1@@_STL@@U?$_Nonconst_traits@U?$pair@QAVMString@@PAV1@@_STL@@@2@@_STL@@QAE?AU01@H@Z ; _STL::_Rb_tree_iterator<_STL::pair<MString * const,MString *>,_STL::_Nonconst_traits<_STL::pair<MString * const,MString *> > >::operator++
EXTRN	?_M_increment@?$_Rb_global@_N@_STL@@SAPAU_Rb_tree_node_base@2@PAU32@@Z:NEAR ; _STL::_Rb_global<bool>::_M_increment
; Function compile flags: /Ogsy
;	COMDAT ??E?$_Rb_tree_iterator@U?$pair@QAVMString@@PAV1@@_STL@@U?$_Nonconst_traits@U?$pair@QAVMString@@PAV1@@_STL@@@2@@_STL@@QAE?AU01@H@Z
_TEXT	SEGMENT
___$ReturnUdt$ = 8					; size = 4
___formal$ = 12						; size = 4
??E?$_Rb_tree_iterator@U?$pair@QAVMString@@PAV1@@_STL@@U?$_Nonconst_traits@U?$pair@QAVMString@@PAV1@@_STL@@@2@@_STL@@QAE?AU01@H@Z PROC NEAR ; _STL::_Rb_tree_iterator<_STL::pair<MString * const,MString *>,_STL::_Nonconst_traits<_STL::pair<MString * const,MString *> > >::operator++, COMDAT
; _this$ = ecx

; 175  :   _Self operator++(int) {

  00000	56		 push	 esi
  00001	8b f1		 mov	 esi, ecx
  00003	57		 push	 edi

; 176  :     _Self __tmp = *this;

  00004	8b 3e		 mov	 edi, DWORD PTR [esi]

; 177  :     _M_node = _Rb_global_inst::_M_increment(_M_node);

  00006	57		 push	 edi
  00007	e8 00 00 00 00	 call	 ?_M_increment@?$_Rb_global@_N@_STL@@SAPAU_Rb_tree_node_base@2@PAU32@@Z ; _STL::_Rb_global<bool>::_M_increment
  0000c	89 06		 mov	 DWORD PTR [esi], eax

; 178  :     return __tmp;

  0000e	8b 44 24 10	 mov	 eax, DWORD PTR ___$ReturnUdt$[esp+8]
  00012	59		 pop	 ecx
  00013	89 38		 mov	 DWORD PTR [eax], edi
  00015	5f		 pop	 edi
  00016	5e		 pop	 esi

; 179  :   }

  00017	c2 08 00	 ret	 8
??E?$_Rb_tree_iterator@U?$pair@QAVMString@@PAV1@@_STL@@U?$_Nonconst_traits@U?$pair@QAVMString@@PAV1@@_STL@@@2@@_STL@@QAE?AU01@H@Z ENDP ; _STL::_Rb_tree_iterator<_STL::pair<MString * const,MString *>,_STL::_Nonconst_traits<_STL::pair<MString * const,MString *> > >::operator++
_TEXT	ENDS
PUBLIC	??0?$pair@QAVMString@@PAV1@@_STL@@QAE@ABQAVMString@@0@Z ; _STL::pair<MString * const,MString *>::pair<MString * const,MString *>
; Function compile flags: /Ogsy
; File c:\stlport-4.6.1\stlport\stl\_pair.h
;	COMDAT ??0?$pair@QAVMString@@PAV1@@_STL@@QAE@ABQAVMString@@0@Z
_TEXT	SEGMENT
___a$ = 8						; size = 4
___b$ = 12						; size = 4
??0?$pair@QAVMString@@PAV1@@_STL@@QAE@ABQAVMString@@0@Z PROC NEAR ; _STL::pair<MString * const,MString *>::pair<MString * const,MString *>, COMDAT
; _this$ = ecx

; 48   :   pair(const _T1& __a, const _T2& __b) : first(__a), second(__b) {}

  00000	8b c1		 mov	 eax, ecx
  00002	8b 4c 24 04	 mov	 ecx, DWORD PTR ___a$[esp-4]
  00006	8b 09		 mov	 ecx, DWORD PTR [ecx]
  00008	89 08		 mov	 DWORD PTR [eax], ecx
  0000a	8b 4c 24 08	 mov	 ecx, DWORD PTR ___b$[esp-4]
  0000e	8b 09		 mov	 ecx, DWORD PTR [ecx]
  00010	89 48 04	 mov	 DWORD PTR [eax+4], ecx
  00013	c2 08 00	 ret	 8
??0?$pair@QAVMString@@PAV1@@_STL@@QAE@ABQAVMString@@0@Z ENDP ; _STL::pair<MString * const,MString *>::pair<MString * const,MString *>
_TEXT	ENDS
PUBLIC	?size@?$_Rb_tree@PAVMString@@U?$pair@QAVMString@@PAV1@@_STL@@U?$_Select1st@U?$pair@QAVMString@@PAV1@@_STL@@@3@VMStringPointerCompare@@V?$allocator@U?$pair@QAVMString@@PAV1@@_STL@@@3@@_STL@@QBEIXZ ; _STL::_Rb_tree<MString *,_STL::pair<MString * const,MString *>,_STL::_Select1st<_STL::pair<MString * const,MString *> >,MStringPointerCompare,_STL::allocator<_STL::pair<MString * const,MString *> > >::size
; Function compile flags: /Ogsy
; File c:\stlport-4.6.1\stlport\stl\_tree.h
;	COMDAT ?size@?$_Rb_tree@PAVMString@@U?$pair@QAVMString@@PAV1@@_STL@@U?$_Select1st@U?$pair@QAVMString@@PAV1@@_STL@@@3@VMStringPointerCompare@@V?$allocator@U?$pair@QAVMString@@PAV1@@_STL@@@3@@_STL@@QBEIXZ
_TEXT	SEGMENT
?size@?$_Rb_tree@PAVMString@@U?$pair@QAVMString@@PAV1@@_STL@@U?$_Select1st@U?$pair@QAVMString@@PAV1@@_STL@@@3@VMStringPointerCompare@@V?$allocator@U?$pair@QAVMString@@PAV1@@_STL@@@3@@_STL@@QBEIXZ PROC NEAR ; _STL::_Rb_tree<MString *,_STL::pair<MString * const,MString *>,_STL::_Select1st<_STL::pair<MString * const,MString *> >,MStringPointerCompare,_STL::allocator<_STL::pair<MString * const,MString *> > >::size, COMDAT
; _this$ = ecx

; 371  :   size_type size() const { return _M_node_count; }

  00000	8b 41 04	 mov	 eax, DWORD PTR [ecx+4]
  00003	c3		 ret	 0
?size@?$_Rb_tree@PAVMString@@U?$pair@QAVMString@@PAV1@@_STL@@U?$_Select1st@U?$pair@QAVMString@@PAV1@@_STL@@@3@VMStringPointerCompare@@V?$allocator@U?$pair@QAVMString@@PAV1@@_STL@@@3@@_STL@@QBEIXZ ENDP ; _STL::_Rb_tree<MString *,_STL::pair<MString * const,MString *>,_STL::_Select1st<_STL::pair<MString * const,MString *> >,MStringPointerCompare,_STL::allocator<_STL::pair<MString * const,MString *> > >::size
_TEXT	ENDS
PUBLIC	?flags@ios_base@_STL@@QBEHXZ			; _STL::ios_base::flags
; Function compile flags: /Ogsy
; File c:\stlport-4.6.1\stlport\stl\_ios_base.h
;	COMDAT ?flags@ios_base@_STL@@QBEHXZ
_TEXT	SEGMENT
?flags@ios_base@_STL@@QBEHXZ PROC NEAR			; _STL::ios_base::flags, COMDAT
; _this$ = ecx

; 115  :   fmtflags flags() const { return _M_fmtflags; }

  00000	8b 41 04	 mov	 eax, DWORD PTR [ecx+4]
  00003	c3		 ret	 0
?flags@ios_base@_STL@@QBEHXZ ENDP			; _STL::ios_base::flags
_TEXT	ENDS
PUBLIC	??0?$allocator@U?$pair@QAVMString@@PAV1@@_STL@@@_STL@@QAE@XZ ; _STL::allocator<_STL::pair<MString * const,MString *> >::allocator<_STL::pair<MString * const,MString *> >
; Function compile flags: /Ogsy
; File c:\stlport-4.6.1\stlport\stl\_alloc.h
;	COMDAT ??0?$allocator@U?$pair@QAVMString@@PAV1@@_STL@@@_STL@@QAE@XZ
_TEXT	SEGMENT
??0?$allocator@U?$pair@QAVMString@@PAV1@@_STL@@@_STL@@QAE@XZ PROC NEAR ; _STL::allocator<_STL::pair<MString * const,MString *> >::allocator<_STL::pair<MString * const,MString *> >, COMDAT
; _this$ = ecx

; 345  :   allocator() _STLP_NOTHROW {}

  00000	8b c1		 mov	 eax, ecx
  00002	c3		 ret	 0
??0?$allocator@U?$pair@QAVMString@@PAV1@@_STL@@@_STL@@QAE@XZ ENDP ; _STL::allocator<_STL::pair<MString * const,MString *> >::allocator<_STL::pair<MString * const,MString *> >
_TEXT	ENDS
PUBLIC	??1?$allocator@U?$pair@QAVMString@@PAV1@@_STL@@@_STL@@QAE@XZ ; _STL::allocator<_STL::pair<MString * const,MString *> >::~allocator<_STL::pair<MString * const,MString *> >
; Function compile flags: /Ogsy
;	COMDAT ??1?$allocator@U?$pair@QAVMString@@PAV1@@_STL@@@_STL@@QAE@XZ
_TEXT	SEGMENT
??1?$allocator@U?$pair@QAVMString@@PAV1@@_STL@@@_STL@@QAE@XZ PROC NEAR ; _STL::allocator<_STL::pair<MString * const,MString *> >::~allocator<_STL::pair<MString * const,MString *> >, COMDAT
; _this$ = ecx

; 350  :   ~allocator() _STLP_NOTHROW {}

  00000	c3		 ret	 0
??1?$allocator@U?$pair@QAVMString@@PAV1@@_STL@@@_STL@@QAE@XZ ENDP ; _STL::allocator<_STL::pair<MString * const,MString *> >::~allocator<_STL::pair<MString * const,MString *> >
_TEXT	ENDS
PUBLIC	??D?$_Rb_tree_iterator@U?$pair@QAVMString@@PAV1@@_STL@@U?$_Nonconst_traits@U?$pair@QAVMString@@PAV1@@_STL@@@2@@_STL@@QBEAAU?$pair@QAVMString@@PAV1@@1@XZ ; _STL::_Rb_tree_iterator<_STL::pair<MString * const,MString *>,_STL::_Nonconst_traits<_STL::pair<MString * const,MString *> > >::operator*
; Function compile flags: /Ogsy
; File c:\stlport-4.6.1\stlport\stl\_tree.h
;	COMDAT ??D?$_Rb_tree_iterator@U?$pair@QAVMString@@PAV1@@_STL@@U?$_Nonconst_traits@U?$pair@QAVMString@@PAV1@@_STL@@@2@@_STL@@QBEAAU?$pair@QAVMString@@PAV1@@1@XZ
_TEXT	SEGMENT
??D?$_Rb_tree_iterator@U?$pair@QAVMString@@PAV1@@_STL@@U?$_Nonconst_traits@U?$pair@QAVMString@@PAV1@@_STL@@@2@@_STL@@QBEAAU?$pair@QAVMString@@PAV1@@1@XZ PROC NEAR ; _STL::_Rb_tree_iterator<_STL::pair<MString * const,MString *>,_STL::_Nonconst_traits<_STL::pair<MString * const,MString *> > >::operator*, COMDAT
; _this$ = ecx

; 169  :     return _Link_type(_M_node)->_M_value_field; 

  00000	8b 01		 mov	 eax, DWORD PTR [ecx]
  00002	83 c0 10	 add	 eax, 16			; 00000010H

; 170  :   }

  00005	c3		 ret	 0
??D?$_Rb_tree_iterator@U?$pair@QAVMString@@PAV1@@_STL@@U?$_Nonconst_traits@U?$pair@QAVMString@@PAV1@@_STL@@@2@@_STL@@QBEAAU?$pair@QAVMString@@PAV1@@1@XZ ENDP ; _STL::_Rb_tree_iterator<_STL::pair<MString * const,MString *>,_STL::_Nonconst_traits<_STL::pair<MString * const,MString *> > >::operator*
_TEXT	ENDS
PUBLIC	??D?$_Rb_tree_iterator@U?$pair@QAVMString@@PAV1@@_STL@@U?$_Const_traits@U?$pair@QAVMString@@PAV1@@_STL@@@2@@_STL@@QBEABU?$pair@QAVMString@@PAV1@@1@XZ ; _STL::_Rb_tree_iterator<_STL::pair<MString * const,MString *>,_STL::_Const_traits<_STL::pair<MString * const,MString *> > >::operator*
; Function compile flags: /Ogsy
;	COMDAT ??D?$_Rb_tree_iterator@U?$pair@QAVMString@@PAV1@@_STL@@U?$_Const_traits@U?$pair@QAVMString@@PAV1@@_STL@@@2@@_STL@@QBEABU?$pair@QAVMString@@PAV1@@1@XZ
_TEXT	SEGMENT
??D?$_Rb_tree_iterator@U?$pair@QAVMString@@PAV1@@_STL@@U?$_Const_traits@U?$pair@QAVMString@@PAV1@@_STL@@@2@@_STL@@QBEABU?$pair@QAVMString@@PAV1@@1@XZ PROC NEAR ; _STL::_Rb_tree_iterator<_STL::pair<MString * const,MString *>,_STL::_Const_traits<_STL::pair<MString * const,MString *> > >::operator*, COMDAT
; _this$ = ecx

; 169  :     return _Link_type(_M_node)->_M_value_field; 

  00000	8b 01		 mov	 eax, DWORD PTR [ecx]
  00002	83 c0 10	 add	 eax, 16			; 00000010H

; 170  :   }

  00005	c3		 ret	 0
??D?$_Rb_tree_iterator@U?$pair@QAVMString@@PAV1@@_STL@@U?$_Const_traits@U?$pair@QAVMString@@PAV1@@_STL@@@2@@_STL@@QBEABU?$pair@QAVMString@@PAV1@@1@XZ ENDP ; _STL::_Rb_tree_iterator<_STL::pair<MString * const,MString *>,_STL::_Const_traits<_STL::pair<MString * const,MString *> > >::operator*
_TEXT	ENDS
PUBLIC	?rdstate@ios_base@_STL@@QBEHXZ			; _STL::ios_base::rdstate
; Function compile flags: /Ogsy
; File c:\stlport-4.6.1\stlport\stl\_ios_base.h
;	COMDAT ?rdstate@ios_base@_STL@@QBEHXZ
_TEXT	SEGMENT
?rdstate@ios_base@_STL@@QBEHXZ PROC NEAR		; _STL::ios_base::rdstate, COMDAT
; _this$ = ecx

; 178  :   iostate rdstate() const { return _M_iostate; }

  00000	8b 41 08	 mov	 eax, DWORD PTR [ecx+8]
  00003	c3		 ret	 0
?rdstate@ios_base@_STL@@QBEHXZ ENDP			; _STL::ios_base::rdstate
_TEXT	ENDS
PUBLIC	?good@ios_base@_STL@@QBE_NXZ			; _STL::ios_base::good
; Function compile flags: /Ogsy
;	COMDAT ?good@ios_base@_STL@@QBE_NXZ
_TEXT	SEGMENT
?good@ios_base@_STL@@QBE_NXZ PROC NEAR			; _STL::ios_base::good, COMDAT
; _this$ = ecx

; 180  :   bool good() const { return _M_iostate == 0; }

  00000	33 c0		 xor	 eax, eax
  00002	39 41 08	 cmp	 DWORD PTR [ecx+8], eax
  00005	0f 94 c0	 sete	 al
  00008	c3		 ret	 0
?good@ios_base@_STL@@QBE_NXZ ENDP			; _STL::ios_base::good
_TEXT	ENDS
PUBLIC	?_M_root@?$_Rb_tree@PAVMString@@U?$pair@QAVMString@@PAV1@@_STL@@U?$_Select1st@U?$pair@QAVMString@@PAV1@@_STL@@@3@VMStringPointerCompare@@V?$allocator@U?$pair@QAVMString@@PAV1@@_STL@@@3@@_STL@@IBEAAPAU?$_Rb_tree_node@U?$pair@QAVMString@@PAV1@@_STL@@@2@XZ ; _STL::_Rb_tree<MString *,_STL::pair<MString * const,MString *>,_STL::_Select1st<_STL::pair<MString * const,MString *> >,MStringPointerCompare,_STL::allocator<_STL::pair<MString * const,MString *> > >::_M_root
; Function compile flags: /Ogsy
; File c:\stlport-4.6.1\stlport\stl\_tree.h
;	COMDAT ?_M_root@?$_Rb_tree@PAVMString@@U?$pair@QAVMString@@PAV1@@_STL@@U?$_Select1st@U?$pair@QAVMString@@PAV1@@_STL@@@3@VMStringPointerCompare@@V?$allocator@U?$pair@QAVMString@@PAV1@@_STL@@@3@@_STL@@IBEAAPAU?$_Rb_tree_node@U?$pair@QAVMString@@PAV1@@_STL@@@2@XZ
_TEXT	SEGMENT
?_M_root@?$_Rb_tree@PAVMString@@U?$pair@QAVMString@@PAV1@@_STL@@U?$_Select1st@U?$pair@QAVMString@@PAV1@@_STL@@@3@VMStringPointerCompare@@V?$allocator@U?$pair@QAVMString@@PAV1@@_STL@@@3@@_STL@@IBEAAPAU?$_Rb_tree_node@U?$pair@QAVMString@@PAV1@@_STL@@@2@XZ PROC NEAR ; _STL::_Rb_tree<MString *,_STL::pair<MString * const,MString *>,_STL::_Select1st<_STL::pair<MString * const,MString *> >,MStringPointerCompare,_STL::allocator<_STL::pair<MString * const,MString *> > >::_M_root, COMDAT
; _this$ = ecx

; 265  :     { return (_Link_type&) this->_M_header._M_data->_M_parent; }

  00000	8b 01		 mov	 eax, DWORD PTR [ecx]
  00002	83 c0 04	 add	 eax, 4
  00005	c3		 ret	 0
?_M_root@?$_Rb_tree@PAVMString@@U?$pair@QAVMString@@PAV1@@_STL@@U?$_Select1st@U?$pair@QAVMString@@PAV1@@_STL@@@3@VMStringPointerCompare@@V?$allocator@U?$pair@QAVMString@@PAV1@@_STL@@@3@@_STL@@IBEAAPAU?$_Rb_tree_node@U?$pair@QAVMString@@PAV1@@_STL@@@2@XZ ENDP ; _STL::_Rb_tree<MString *,_STL::pair<MString * const,MString *>,_STL::_Select1st<_STL::pair<MString * const,MString *> >,MStringPointerCompare,_STL::allocator<_STL::pair<MString * const,MString *> > >::_M_root
_TEXT	ENDS
PUBLIC	?_M_leftmost@?$_Rb_tree@PAVMString@@U?$pair@QAVMString@@PAV1@@_STL@@U?$_Select1st@U?$pair@QAVMString@@PAV1@@_STL@@@3@VMStringPointerCompare@@V?$allocator@U?$pair@QAVMString@@PAV1@@_STL@@@3@@_STL@@IBEAAPAU?$_Rb_tree_node@U?$pair@QAVMString@@PAV1@@_STL@@@2@XZ ; _STL::_Rb_tree<MString *,_STL::pair<MString * const,MString *>,_STL::_Select1st<_STL::pair<MString * const,MString *> >,MStringPointerCompare,_STL::allocator<_STL::pair<MString * const,MString *> > >::_M_leftmost
; Function compile flags: /Ogsy
;	COMDAT ?_M_leftmost@?$_Rb_tree@PAVMString@@U?$pair@QAVMString@@PAV1@@_STL@@U?$_Select1st@U?$pair@QAVMString@@PAV1@@_STL@@@3@VMStringPointerCompare@@V?$allocator@U?$pair@QAVMString@@PAV1@@_STL@@@3@@_STL@@IBEAAPAU?$_Rb_tree_node@U?$pair@QAVMString@@PAV1@@_STL@@@2@XZ
_TEXT	SEGMENT
?_M_leftmost@?$_Rb_tree@PAVMString@@U?$pair@QAVMString@@PAV1@@_STL@@U?$_Select1st@U?$pair@QAVMString@@PAV1@@_STL@@@3@VMStringPointerCompare@@V?$allocator@U?$pair@QAVMString@@PAV1@@_STL@@@3@@_STL@@IBEAAPAU?$_Rb_tree_node@U?$pair@QAVMString@@PAV1@@_STL@@@2@XZ PROC NEAR ; _STL::_Rb_tree<MString *,_STL::pair<MString * const,MString *>,_STL::_Select1st<_STL::pair<MString * const,MString *> >,MStringPointerCompare,_STL::allocator<_STL::pair<MString * const,MString *> > >::_M_leftmost, COMDAT
; _this$ = ecx

; 267  :     { return (_Link_type&) this->_M_header._M_data->_M_left; }

  00000	8b 01		 mov	 eax, DWORD PTR [ecx]
  00002	83 c0 08	 add	 eax, 8
  00005	c3		 ret	 0
?_M_leftmost@?$_Rb_tree@PAVMString@@U?$pair@QAVMString@@PAV1@@_STL@@U?$_Select1st@U?$pair@QAVMString@@PAV1@@_STL@@@3@VMStringPointerCompare@@V?$allocator@U?$pair@QAVMString@@PAV1@@_STL@@@3@@_STL@@IBEAAPAU?$_Rb_tree_node@U?$pair@QAVMString@@PAV1@@_STL@@@2@XZ ENDP ; _STL::_Rb_tree<MString *,_STL::pair<MString * const,MString *>,_STL::_Select1st<_STL::pair<MString * const,MString *> >,MStringPointerCompare,_STL::allocator<_STL::pair<MString * const,MString *> > >::_M_leftmost
_TEXT	ENDS
PUBLIC	?_M_rightmost@?$_Rb_tree@PAVMString@@U?$pair@QAVMString@@PAV1@@_STL@@U?$_Select1st@U?$pair@QAVMString@@PAV1@@_STL@@@3@VMStringPointerCompare@@V?$allocator@U?$pair@QAVMString@@PAV1@@_STL@@@3@@_STL@@IBEAAPAU?$_Rb_tree_node@U?$pair@QAVMString@@PAV1@@_STL@@@2@XZ ; _STL::_Rb_tree<MString *,_STL::pair<MString * const,MString *>,_STL::_Select1st<_STL::pair<MString * const,MString *> >,MStringPointerCompare,_STL::allocator<_STL::pair<MString * const,MString *> > >::_M_rightmost
; Function compile flags: /Ogsy
;	COMDAT ?_M_rightmost@?$_Rb_tree@PAVMString@@U?$pair@QAVMString@@PAV1@@_STL@@U?$_Select1st@U?$pair@QAVMString@@PAV1@@_STL@@@3@VMStringPointerCompare@@V?$allocator@U?$pair@QAVMString@@PAV1@@_STL@@@3@@_STL@@IBEAAPAU?$_Rb_tree_node@U?$pair@QAVMString@@PAV1@@_STL@@@2@XZ
_TEXT	SEGMENT
?_M_rightmost@?$_Rb_tree@PAVMString@@U?$pair@QAVMString@@PAV1@@_STL@@U?$_Select1st@U?$pair@QAVMString@@PAV1@@_STL@@@3@VMStringPointerCompare@@V?$allocator@U?$pair@QAVMString@@PAV1@@_STL@@@3@@_STL@@IBEAAPAU?$_Rb_tree_node@U?$pair@QAVMString@@PAV1@@_STL@@@2@XZ PROC NEAR ; _STL::_Rb_tree<MString *,_STL::pair<MString * const,MString *>,_STL::_Select1st<_STL::pair<MString * const,MString *> >,MStringPointerCompare,_STL::allocator<_STL::pair<MString * const,MString *> > >::_M_rightmost, COMDAT
; _this$ = ecx

; 269  :     { return (_Link_type&) this->_M_header._M_data->_M_right; }

  00000	8b 01		 mov	 eax, DWORD PTR [ecx]
  00002	83 c0 0c	 add	 eax, 12			; 0000000cH
  00005	c3		 ret	 0
?_M_rightmost@?$_Rb_tree@PAVMString@@U?$pair@QAVMString@@PAV1@@_STL@@U?$_Select1st@U?$pair@QAVMString@@PAV1@@_STL@@@3@VMStringPointerCompare@@V?$allocator@U?$pair@QAVMString@@PAV1@@_STL@@@3@@_STL@@IBEAAPAU?$_Rb_tree_node@U?$pair@QAVMString@@PAV1@@_STL@@@2@XZ ENDP ; _STL::_Rb_tree<MString *,_STL::pair<MString * const,MString *>,_STL::_Select1st<_STL::pair<MString * const,MString *> >,MStringPointerCompare,_STL::allocator<_STL::pair<MString * const,MString *> > >::_M_rightmost
_TEXT	ENDS
PUBLIC	?_M_setstate_nothrow@ios_base@_STL@@IAEXH@Z	; _STL::ios_base::_M_setstate_nothrow
; Function compile flags: /Ogsy
; File c:\stlport-4.6.1\stlport\stl\_ios_base.h
;	COMDAT ?_M_setstate_nothrow@ios_base@_STL@@IAEXH@Z
_TEXT	SEGMENT
___state$ = 8						; size = 4
?_M_setstate_nothrow@ios_base@_STL@@IAEXH@Z PROC NEAR	; _STL::ios_base::_M_setstate_nothrow, COMDAT
; _this$ = ecx

; 193  :   void _M_setstate_nothrow(iostate __state) { _M_iostate |= __state; }

  00000	8b 44 24 04	 mov	 eax, DWORD PTR ___state$[esp-4]
  00004	09 41 08	 or	 DWORD PTR [ecx+8], eax
  00007	c2 04 00	 ret	 4
?_M_setstate_nothrow@ios_base@_STL@@IAEXH@Z ENDP	; _STL::ios_base::_M_setstate_nothrow
_TEXT	ENDS
PUBLIC	?_M_clear_nothrow@ios_base@_STL@@IAEXH@Z	; _STL::ios_base::_M_clear_nothrow
; Function compile flags: /Ogsy
;	COMDAT ?_M_clear_nothrow@ios_base@_STL@@IAEXH@Z
_TEXT	SEGMENT
___state$ = 8						; size = 4
?_M_clear_nothrow@ios_base@_STL@@IAEXH@Z PROC NEAR	; _STL::ios_base::_M_clear_nothrow, COMDAT
; _this$ = ecx

; 194  :   void _M_clear_nothrow(iostate __state) { _M_iostate = __state; }

  00000	8b 44 24 04	 mov	 eax, DWORD PTR ___state$[esp-4]
  00004	89 41 08	 mov	 DWORD PTR [ecx+8], eax
  00007	c2 04 00	 ret	 4
?_M_clear_nothrow@ios_base@_STL@@IAEXH@Z ENDP		; _STL::ios_base::_M_clear_nothrow
_TEXT	ENDS
PUBLIC	?_M_get_exception_mask@ios_base@_STL@@IBEHXZ	; _STL::ios_base::_M_get_exception_mask
; Function compile flags: /Ogsy
;	COMDAT ?_M_get_exception_mask@ios_base@_STL@@IBEHXZ
_TEXT	SEGMENT
?_M_get_exception_mask@ios_base@_STL@@IBEHXZ PROC NEAR	; _STL::ios_base::_M_get_exception_mask, COMDAT
; _this$ = ecx

; 195  :   iostate _M_get_exception_mask() const { return _M_exception_mask; }

  00000	8b 41 14	 mov	 eax, DWORD PTR [ecx+20]
  00003	c3		 ret	 0
?_M_get_exception_mask@ios_base@_STL@@IBEHXZ ENDP	; _STL::ios_base::_M_get_exception_mask
_TEXT	ENDS
PUBLIC	?_M_check_exception_mask@ios_base@_STL@@IAEXXZ	; _STL::ios_base::_M_check_exception_mask
EXTRN	?_M_throw_failure@ios_base@_STL@@IAEXXZ:NEAR	; _STL::ios_base::_M_throw_failure
; Function compile flags: /Ogsy
;	COMDAT ?_M_check_exception_mask@ios_base@_STL@@IAEXXZ
_TEXT	SEGMENT
?_M_check_exception_mask@ios_base@_STL@@IAEXXZ PROC NEAR ; _STL::ios_base::_M_check_exception_mask, COMDAT
; _this$ = ecx

; 198  :     if (_M_iostate & _M_exception_mask)

  00000	8b 41 14	 mov	 eax, DWORD PTR [ecx+20]
  00003	85 41 08	 test	 eax, DWORD PTR [ecx+8]
  00006	74 05		 je	 SHORT $L79498

; 199  :       _M_throw_failure(); 

  00008	e9 00 00 00 00	 jmp	 ?_M_throw_failure@ios_base@_STL@@IAEXXZ ; _STL::ios_base::_M_throw_failure
$L79498:

; 200  :   }

  0000d	c3		 ret	 0
?_M_check_exception_mask@ios_base@_STL@@IAEXXZ ENDP	; _STL::ios_base::_M_check_exception_mask
_TEXT	ENDS
PUBLIC	??1?$allocator@U?$_Rb_tree_node@U?$pair@QAVMString@@PAV1@@_STL@@@_STL@@@_STL@@QAE@XZ ; _STL::allocator<_STL::_Rb_tree_node<_STL::pair<MString * const,MString *> > >::~allocator<_STL::_Rb_tree_node<_STL::pair<MString * const,MString *> > >
; Function compile flags: /Ogsy
; File c:\stlport-4.6.1\stlport\stl\_alloc.h
;	COMDAT ??1?$allocator@U?$_Rb_tree_node@U?$pair@QAVMString@@PAV1@@_STL@@@_STL@@@_STL@@QAE@XZ
_TEXT	SEGMENT
??1?$allocator@U?$_Rb_tree_node@U?$pair@QAVMString@@PAV1@@_STL@@@_STL@@@_STL@@QAE@XZ PROC NEAR ; _STL::allocator<_STL::_Rb_tree_node<_STL::pair<MString * const,MString *> > >::~allocator<_STL::_Rb_tree_node<_STL::pair<MString * const,MString *> > >, COMDAT
; _this$ = ecx

; 350  :   ~allocator() _STLP_NOTHROW {}

  00000	c3		 ret	 0
??1?$allocator@U?$_Rb_tree_node@U?$pair@QAVMString@@PAV1@@_STL@@@_STL@@@_STL@@QAE@XZ ENDP ; _STL::allocator<_STL::_Rb_tree_node<_STL::pair<MString * const,MString *> > >::~allocator<_STL::_Rb_tree_node<_STL::pair<MString * const,MString *> > >
_TEXT	ENDS
PUBLIC	??0?$_Rb_tree_iterator@U?$pair@QAVMString@@PAV1@@_STL@@U?$_Nonconst_traits@U?$pair@QAVMString@@PAV1@@_STL@@@2@@_STL@@QAE@PAU?$_Rb_tree_node@U?$pair@QAVMString@@PAV1@@_STL@@@1@@Z ; _STL::_Rb_tree_iterator<_STL::pair<MString * const,MString *>,_STL::_Nonconst_traits<_STL::pair<MString * const,MString *> > >::_Rb_tree_iterator<_STL::pair<MString * const,MString *>,_STL::_Nonconst_traits<_STL::pair<MString * const,MString *> > >
; Function compile flags: /Ogsy
; File c:\stlport-4.6.1\stlport\stl\_tree.h
;	COMDAT ??0?$_Rb_tree_iterator@U?$pair@QAVMString@@PAV1@@_STL@@U?$_Nonconst_traits@U?$pair@QAVMString@@PAV1@@_STL@@@2@@_STL@@QAE@PAU?$_Rb_tree_node@U?$pair@QAVMString@@PAV1@@_STL@@@1@@Z
_TEXT	SEGMENT
___x$ = 8						; size = 4
??0?$_Rb_tree_iterator@U?$pair@QAVMString@@PAV1@@_STL@@U?$_Nonconst_traits@U?$pair@QAVMString@@PAV1@@_STL@@@2@@_STL@@QAE@PAU?$_Rb_tree_node@U?$pair@QAVMString@@PAV1@@_STL@@@1@@Z PROC NEAR ; _STL::_Rb_tree_iterator<_STL::pair<MString * const,MString *>,_STL::_Nonconst_traits<_STL::pair<MString * const,MString *> > >::_Rb_tree_iterator<_STL::pair<MString * const,MString *>,_STL::_Nonconst_traits<_STL::pair<MString * const,MString *> > >, COMDAT
; _this$ = ecx

; 164  :   _Rb_tree_iterator(_Link_type __x) { _M_node = __x; }

  00000	8b c1		 mov	 eax, ecx
  00002	8b 4c 24 04	 mov	 ecx, DWORD PTR ___x$[esp-4]
  00006	89 08		 mov	 DWORD PTR [eax], ecx
  00008	c2 04 00	 ret	 4
??0?$_Rb_tree_iterator@U?$pair@QAVMString@@PAV1@@_STL@@U?$_Nonconst_traits@U?$pair@QAVMString@@PAV1@@_STL@@@2@@_STL@@QAE@PAU?$_Rb_tree_node@U?$pair@QAVMString@@PAV1@@_STL@@@1@@Z ENDP ; _STL::_Rb_tree_iterator<_STL::pair<MString * const,MString *>,_STL::_Nonconst_traits<_STL::pair<MString * const,MString *> > >::_Rb_tree_iterator<_STL::pair<MString * const,MString *>,_STL::_Nonconst_traits<_STL::pair<MString * const,MString *> > >
_TEXT	ENDS
PUBLIC	??0?$_Rb_tree_iterator@U?$pair@QAVMString@@PAV1@@_STL@@U?$_Const_traits@U?$pair@QAVMString@@PAV1@@_STL@@@2@@_STL@@QAE@PAU?$_Rb_tree_node@U?$pair@QAVMString@@PAV1@@_STL@@@1@@Z ; _STL::_Rb_tree_iterator<_STL::pair<MString * const,MString *>,_STL::_Const_traits<_STL::pair<MString * const,MString *> > >::_Rb_tree_iterator<_STL::pair<MString * const,MString *>,_STL::_Const_traits<_STL::pair<MString * const,MString *> > >
; Function compile flags: /Ogsy
;	COMDAT ??0?$_Rb_tree_iterator@U?$pair@QAVMString@@PAV1@@_STL@@U?$_Const_traits@U?$pair@QAVMString@@PAV1@@_STL@@@2@@_STL@@QAE@PAU?$_Rb_tree_node@U?$pair@QAVMString@@PAV1@@_STL@@@1@@Z
_TEXT	SEGMENT
___x$ = 8						; size = 4
??0?$_Rb_tree_iterator@U?$pair@QAVMString@@PAV1@@_STL@@U?$_Const_traits@U?$pair@QAVMString@@PAV1@@_STL@@@2@@_STL@@QAE@PAU?$_Rb_tree_node@U?$pair@QAVMString@@PAV1@@_STL@@@1@@Z PROC NEAR ; _STL::_Rb_tree_iterator<_STL::pair<MString * const,MString *>,_STL::_Const_traits<_STL::pair<MString * const,MString *> > >::_Rb_tree_iterator<_STL::pair<MString * const,MString *>,_STL::_Const_traits<_STL::pair<MString * const,MString *> > >, COMDAT
; _this$ = ecx

; 164  :   _Rb_tree_iterator(_Link_type __x) { _M_node = __x; }

  00000	8b c1		 mov	 eax, ecx
  00002	8b 4c 24 04	 mov	 ecx, DWORD PTR ___x$[esp-4]
  00006	89 08		 mov	 DWORD PTR [eax], ecx
  00008	c2 04 00	 ret	 4
??0?$_Rb_tree_iterator@U?$pair@QAVMString@@PAV1@@_STL@@U?$_Const_traits@U?$pair@QAVMString@@PAV1@@_STL@@@2@@_STL@@QAE@PAU?$_Rb_tree_node@U?$pair@QAVMString@@PAV1@@_STL@@@1@@Z ENDP ; _STL::_Rb_tree_iterator<_STL::pair<MString * const,MString *>,_STL::_Const_traits<_STL::pair<MString * const,MString *> > >::_Rb_tree_iterator<_STL::pair<MString * const,MString *>,_STL::_Const_traits<_STL::pair<MString * const,MString *> > >
_TEXT	ENDS
PUBLIC	?_S_color@?$_Rb_tree@PAVMString@@U?$pair@QAVMString@@PAV1@@_STL@@U?$_Select1st@U?$pair@QAVMString@@PAV1@@_STL@@@3@VMStringPointerCompare@@V?$allocator@U?$pair@QAVMString@@PAV1@@_STL@@@3@@_STL@@KAAA_NPAU?$_Rb_tree_node@U?$pair@QAVMString@@PAV1@@_STL@@@2@@Z ; _STL::_Rb_tree<MString *,_STL::pair<MString * const,MString *>,_STL::_Select1st<_STL::pair<MString * const,MString *> >,MStringPointerCompare,_STL::allocator<_STL::pair<MString * const,MString *> > >::_S_color
; Function compile flags: /Ogsy
;	COMDAT ?_S_color@?$_Rb_tree@PAVMString@@U?$pair@QAVMString@@PAV1@@_STL@@U?$_Select1st@U?$pair@QAVMString@@PAV1@@_STL@@@3@VMStringPointerCompare@@V?$allocator@U?$pair@QAVMString@@PAV1@@_STL@@@3@@_STL@@KAAA_NPAU?$_Rb_tree_node@U?$pair@QAVMString@@PAV1@@_STL@@@2@@Z
_TEXT	SEGMENT
___x$ = 8						; size = 4
?_S_color@?$_Rb_tree@PAVMString@@U?$pair@QAVMString@@PAV1@@_STL@@U?$_Select1st@U?$pair@QAVMString@@PAV1@@_STL@@@3@VMStringPointerCompare@@V?$allocator@U?$pair@QAVMString@@PAV1@@_STL@@@3@@_STL@@KAAA_NPAU?$_Rb_tree_node@U?$pair@QAVMString@@PAV1@@_STL@@@2@@Z PROC NEAR ; _STL::_Rb_tree<MString *,_STL::pair<MString * const,MString *>,_STL::_Select1st<_STL::pair<MString * const,MString *> >,MStringPointerCompare,_STL::allocator<_STL::pair<MString * const,MString *> > >::_S_color, COMDAT

; 282  :     { return (_Color_type&)(__x->_M_color); }

  00000	8b 44 24 04	 mov	 eax, DWORD PTR ___x$[esp-4]
  00004	c3		 ret	 0
?_S_color@?$_Rb_tree@PAVMString@@U?$pair@QAVMString@@PAV1@@_STL@@U?$_Select1st@U?$pair@QAVMString@@PAV1@@_STL@@@3@VMStringPointerCompare@@V?$allocator@U?$pair@QAVMString@@PAV1@@_STL@@@3@@_STL@@KAAA_NPAU?$_Rb_tree_node@U?$pair@QAVMString@@PAV1@@_STL@@@2@@Z ENDP ; _STL::_Rb_tree<MString *,_STL::pair<MString * const,MString *>,_STL::_Select1st<_STL::pair<MString * const,MString *> >,MStringPointerCompare,_STL::allocator<_STL::pair<MString * const,MString *> > >::_S_color
_TEXT	ENDS
PUBLIC	??0?$allocator@U?$_Rb_tree_node@U?$pair@QAVMString@@PAV1@@_STL@@@_STL@@@_STL@@QAE@ABV01@@Z ; _STL::allocator<_STL::_Rb_tree_node<_STL::pair<MString * const,MString *> > >::allocator<_STL::_Rb_tree_node<_STL::pair<MString * const,MString *> > >
; Function compile flags: /Ogsy
; File c:\stlport-4.6.1\stlport\stl\_alloc.h
;	COMDAT ??0?$allocator@U?$_Rb_tree_node@U?$pair@QAVMString@@PAV1@@_STL@@@_STL@@@_STL@@QAE@ABV01@@Z
_TEXT	SEGMENT
___formal$ = 8						; size = 4
??0?$allocator@U?$_Rb_tree_node@U?$pair@QAVMString@@PAV1@@_STL@@@_STL@@@_STL@@QAE@ABV01@@Z PROC NEAR ; _STL::allocator<_STL::_Rb_tree_node<_STL::pair<MString * const,MString *> > >::allocator<_STL::_Rb_tree_node<_STL::pair<MString * const,MString *> > >, COMDAT
; _this$ = ecx

; 349  :   allocator(const allocator<_Tp>&) _STLP_NOTHROW {}

  00000	8b c1		 mov	 eax, ecx
  00002	c2 04 00	 ret	 4
??0?$allocator@U?$_Rb_tree_node@U?$pair@QAVMString@@PAV1@@_STL@@@_STL@@@_STL@@QAE@ABV01@@Z ENDP ; _STL::allocator<_STL::_Rb_tree_node<_STL::pair<MString * const,MString *> > >::allocator<_STL::_Rb_tree_node<_STL::pair<MString * const,MString *> > >
_TEXT	ENDS
PUBLIC	??$_Destroy@U?$pair@QAVMString@@PAV1@@_STL@@@_STL@@YAXPAU?$pair@QAVMString@@PAV1@@0@@Z ; _STL::_Destroy<_STL::pair<MString * const,MString *> >
; Function compile flags: /Ogsy
; File c:\stlport-4.6.1\stlport\stl\_construct.h
;	COMDAT ??$_Destroy@U?$pair@QAVMString@@PAV1@@_STL@@@_STL@@YAXPAU?$pair@QAVMString@@PAV1@@0@@Z
_TEXT	SEGMENT
___pointer$ = 8						; size = 4
??$_Destroy@U?$pair@QAVMString@@PAV1@@_STL@@@_STL@@YAXPAU?$pair@QAVMString@@PAV1@@0@@Z PROC NEAR ; _STL::_Destroy<_STL::pair<MString * const,MString *> >, COMDAT

; 57   : # if _MSC_VER >= 1010
; 58   :   __pointer;
; 59   : # endif	// _MSC_VER >= 1000
; 60   : # ifdef _STLP_TRIVIAL_DESTRUCTOR_BUG
; 61   :   typedef typename __type_traits<_Tp>::has_trivial_destructor _Trivial_destructor;
; 62   :   __destroy_aux(__pointer, _Trivial_destructor());
; 63   : # else
; 64   : #  if ( defined (__BORLANDC__) && ( __BORLANDC__ < 0x500 ) )
; 65   :     __pointer->_Tp::~_Tp();
; 66   : #  else
; 67   :     __pointer->~_Tp();
; 68   : #  endif
; 69   : # endif
; 70   : # ifdef _STLP_DEBUG_UNINITIALIZED
; 71   : 	memset((char*)__pointer, _STLP_SHRED_BYTE, sizeof(_Tp));
; 72   : # endif
; 73   : }

  00000	c3		 ret	 0
??$_Destroy@U?$pair@QAVMString@@PAV1@@_STL@@@_STL@@YAXPAU?$pair@QAVMString@@PAV1@@0@@Z ENDP ; _STL::_Destroy<_STL::pair<MString * const,MString *> >
_TEXT	ENDS
PUBLIC	??$?0U?$pair@QAVMString@@PAV1@@_STL@@@?$allocator@U?$_Rb_tree_node@U?$pair@QAVMString@@PAV1@@_STL@@@_STL@@@_STL@@QAE@ABV?$allocator@U?$pair@QAVMString@@PAV1@@_STL@@@1@@Z ; _STL::allocator<_STL::_Rb_tree_node<_STL::pair<MString * const,MString *> > >::allocator<_STL::_Rb_tree_node<_STL::pair<MString * const,MString *> > ><_STL::pair<MString * const,MString *> >
; Function compile flags: /Ogsy
; File c:\stlport-4.6.1\stlport\stl\_alloc.h
;	COMDAT ??$?0U?$pair@QAVMString@@PAV1@@_STL@@@?$allocator@U?$_Rb_tree_node@U?$pair@QAVMString@@PAV1@@_STL@@@_STL@@@_STL@@QAE@ABV?$allocator@U?$pair@QAVMString@@PAV1@@_STL@@@1@@Z
_TEXT	SEGMENT
___formal$ = 8						; size = 4
??$?0U?$pair@QAVMString@@PAV1@@_STL@@@?$allocator@U?$_Rb_tree_node@U?$pair@QAVMString@@PAV1@@_STL@@@_STL@@@_STL@@QAE@ABV?$allocator@U?$pair@QAVMString@@PAV1@@_STL@@@1@@Z PROC NEAR ; _STL::allocator<_STL::_Rb_tree_node<_STL::pair<MString * const,MString *> > >::allocator<_STL::_Rb_tree_node<_STL::pair<MString * const,MString *> > ><_STL::pair<MString * const,MString *> >, COMDAT
; _this$ = ecx

; 347  :   template <class _Tp1> allocator(const allocator<_Tp1>&) _STLP_NOTHROW {}

  00000	8b c1		 mov	 eax, ecx
  00002	c2 04 00	 ret	 4
??$?0U?$pair@QAVMString@@PAV1@@_STL@@@?$allocator@U?$_Rb_tree_node@U?$pair@QAVMString@@PAV1@@_STL@@@_STL@@@_STL@@QAE@ABV?$allocator@U?$pair@QAVMString@@PAV1@@_STL@@@1@@Z ENDP ; _STL::allocator<_STL::_Rb_tree_node<_STL::pair<MString * const,MString *> > >::allocator<_STL::_Rb_tree_node<_STL::pair<MString * const,MString *> > ><_STL::pair<MString * const,MString *> >
_TEXT	ENDS
PUBLIC	?rdbuf@?$basic_ios@DV?$char_traits@D@_STL@@@_STL@@QBEPAV?$basic_streambuf@DV?$char_traits@D@_STL@@@2@XZ ; _STL::basic_ios<char,_STL::char_traits<char> >::rdbuf
; Function compile flags: /Ogsy
; File c:\stlport-4.6.1\stlport\stl\_ios.h
;	COMDAT ?rdbuf@?$basic_ios@DV?$char_traits@D@_STL@@@_STL@@QBEPAV?$basic_streambuf@DV?$char_traits@D@_STL@@@2@XZ
_TEXT	SEGMENT
?rdbuf@?$basic_ios@DV?$char_traits@D@_STL@@@_STL@@QBEPAV?$basic_streambuf@DV?$char_traits@D@_STL@@@2@XZ PROC NEAR ; _STL::basic_ios<char,_STL::char_traits<char> >::rdbuf, COMDAT
; _this$ = ecx

; 72   :     { return _M_streambuf; }

  00000	8b 41 58	 mov	 eax, DWORD PTR [ecx+88]
  00003	c3		 ret	 0
?rdbuf@?$basic_ios@DV?$char_traits@D@_STL@@@_STL@@QBEPAV?$basic_streambuf@DV?$char_traits@D@_STL@@@2@XZ ENDP ; _STL::basic_ios<char,_STL::char_traits<char> >::rdbuf
_TEXT	ENDS
PUBLIC	?_S_left@?$_Rb_tree@PAVMString@@U?$pair@QAVMString@@PAV1@@_STL@@U?$_Select1st@U?$pair@QAVMString@@PAV1@@_STL@@@3@VMStringPointerCompare@@V?$allocator@U?$pair@QAVMString@@PAV1@@_STL@@@3@@_STL@@KAAAPAU?$_Rb_tree_node@U?$pair@QAVMString@@PAV1@@_STL@@@2@PAU32@@Z ; _STL::_Rb_tree<MString *,_STL::pair<MString * const,MString *>,_STL::_Select1st<_STL::pair<MString * const,MString *> >,MStringPointerCompare,_STL::allocator<_STL::pair<MString * const,MString *> > >::_S_left
; Function compile flags: /Ogsy
; File c:\stlport-4.6.1\stlport\stl\_tree.h
;	COMDAT ?_S_left@?$_Rb_tree@PAVMString@@U?$pair@QAVMString@@PAV1@@_STL@@U?$_Select1st@U?$pair@QAVMString@@PAV1@@_STL@@@3@VMStringPointerCompare@@V?$allocator@U?$pair@QAVMString@@PAV1@@_STL@@@3@@_STL@@KAAAPAU?$_Rb_tree_node@U?$pair@QAVMString@@PAV1@@_STL@@@2@PAU32@@Z
_TEXT	SEGMENT
___x$ = 8						; size = 4
?_S_left@?$_Rb_tree@PAVMString@@U?$pair@QAVMString@@PAV1@@_STL@@U?$_Select1st@U?$pair@QAVMString@@PAV1@@_STL@@@3@VMStringPointerCompare@@V?$allocator@U?$pair@QAVMString@@PAV1@@_STL@@@3@@_STL@@KAAAPAU?$_Rb_tree_node@U?$pair@QAVMString@@PAV1@@_STL@@@2@PAU32@@Z PROC NEAR ; _STL::_Rb_tree<MString *,_STL::pair<MString * const,MString *>,_STL::_Select1st<_STL::pair<MString * const,MString *> >,MStringPointerCompare,_STL::allocator<_STL::pair<MString * const,MString *> > >::_S_left, COMDAT

; 272  :     { return (_Link_type&)(__x->_M_left); }

  00000	8b 44 24 04	 mov	 eax, DWORD PTR ___x$[esp-4]
  00004	83 c0 08	 add	 eax, 8
  00007	c3		 ret	 0
?_S_left@?$_Rb_tree@PAVMString@@U?$pair@QAVMString@@PAV1@@_STL@@U?$_Select1st@U?$pair@QAVMString@@PAV1@@_STL@@@3@VMStringPointerCompare@@V?$allocator@U?$pair@QAVMString@@PAV1@@_STL@@@3@@_STL@@KAAAPAU?$_Rb_tree_node@U?$pair@QAVMString@@PAV1@@_STL@@@2@PAU32@@Z ENDP ; _STL::_Rb_tree<MString *,_STL::pair<MString * const,MString *>,_STL::_Select1st<_STL::pair<MString * const,MString *> >,MStringPointerCompare,_STL::allocator<_STL::pair<MString * const,MString *> > >::_S_left
_TEXT	ENDS
PUBLIC	?_S_right@?$_Rb_tree@PAVMString@@U?$pair@QAVMString@@PAV1@@_STL@@U?$_Select1st@U?$pair@QAVMString@@PAV1@@_STL@@@3@VMStringPointerCompare@@V?$allocator@U?$pair@QAVMString@@PAV1@@_STL@@@3@@_STL@@KAAAPAU?$_Rb_tree_node@U?$pair@QAVMString@@PAV1@@_STL@@@2@PAU32@@Z ; _STL::_Rb_tree<MString *,_STL::pair<MString * const,MString *>,_STL::_Select1st<_STL::pair<MString * const,MString *> >,MStringPointerCompare,_STL::allocator<_STL::pair<MString * const,MString *> > >::_S_right
; Function compile flags: /Ogsy
;	COMDAT ?_S_right@?$_Rb_tree@PAVMString@@U?$pair@QAVMString@@PAV1@@_STL@@U?$_Select1st@U?$pair@QAVMString@@PAV1@@_STL@@@3@VMStringPointerCompare@@V?$allocator@U?$pair@QAVMString@@PAV1@@_STL@@@3@@_STL@@KAAAPAU?$_Rb_tree_node@U?$pair@QAVMString@@PAV1@@_STL@@@2@PAU32@@Z
_TEXT	SEGMENT
___x$ = 8						; size = 4
?_S_right@?$_Rb_tree@PAVMString@@U?$pair@QAVMString@@PAV1@@_STL@@U?$_Select1st@U?$pair@QAVMString@@PAV1@@_STL@@@3@VMStringPointerCompare@@V?$allocator@U?$pair@QAVMString@@PAV1@@_STL@@@3@@_STL@@KAAAPAU?$_Rb_tree_node@U?$pair@QAVMString@@PAV1@@_STL@@@2@PAU32@@Z PROC NEAR ; _STL::_Rb_tree<MString *,_STL::pair<MString * const,MString *>,_STL::_Select1st<_STL::pair<MString * const,MString *> >,MStringPointerCompare,_STL::allocator<_STL::pair<MString * const,MString *> > >::_S_right, COMDAT

; 274  :     { return (_Link_type&)(__x->_M_right); }

  00000	8b 44 24 04	 mov	 eax, DWORD PTR ___x$[esp-4]
  00004	83 c0 0c	 add	 eax, 12			; 0000000cH
  00007	c3		 ret	 0
?_S_right@?$_Rb_tree@PAVMString@@U?$pair@QAVMString@@PAV1@@_STL@@U?$_Select1st@U?$pair@QAVMString@@PAV1@@_STL@@@3@VMStringPointerCompare@@V?$allocator@U?$pair@QAVMString@@PAV1@@_STL@@@3@@_STL@@KAAAPAU?$_Rb_tree_node@U?$pair@QAVMString@@PAV1@@_STL@@@2@PAU32@@Z ENDP ; _STL::_Rb_tree<MString *,_STL::pair<MString * const,MString *>,_STL::_Select1st<_STL::pair<MString * const,MString *> >,MStringPointerCompare,_STL::allocator<_STL::pair<MString * const,MString *> > >::_S_right
_TEXT	ENDS
PUBLIC	??F?$_Rb_tree_iterator@U?$pair@QAVMString@@PAV1@@_STL@@U?$_Nonconst_traits@U?$pair@QAVMString@@PAV1@@_STL@@@2@@_STL@@QAEAAU01@XZ ; _STL::_Rb_tree_iterator<_STL::pair<MString * const,MString *>,_STL::_Nonconst_traits<_STL::pair<MString * const,MString *> > >::operator--
EXTRN	?_M_decrement@?$_Rb_global@_N@_STL@@SAPAU_Rb_tree_node_base@2@PAU32@@Z:NEAR ; _STL::_Rb_global<bool>::_M_decrement
; Function compile flags: /Ogsy
;	COMDAT ??F?$_Rb_tree_iterator@U?$pair@QAVMString@@PAV1@@_STL@@U?$_Nonconst_traits@U?$pair@QAVMString@@PAV1@@_STL@@@2@@_STL@@QAEAAU01@XZ
_TEXT	SEGMENT
??F?$_Rb_tree_iterator@U?$pair@QAVMString@@PAV1@@_STL@@U?$_Nonconst_traits@U?$pair@QAVMString@@PAV1@@_STL@@@2@@_STL@@QAEAAU01@XZ PROC NEAR ; _STL::_Rb_tree_iterator<_STL::pair<MString * const,MString *>,_STL::_Nonconst_traits<_STL::pair<MString * const,MString *> > >::operator--, COMDAT
; _this$ = ecx

; 181  :   _Self& operator--() { _M_node = _Rb_global_inst::_M_decrement(_M_node); return *this; }

  00000	56		 push	 esi
  00001	8b f1		 mov	 esi, ecx
  00003	ff 36		 push	 DWORD PTR [esi]
  00005	e8 00 00 00 00	 call	 ?_M_decrement@?$_Rb_global@_N@_STL@@SAPAU_Rb_tree_node_base@2@PAU32@@Z ; _STL::_Rb_global<bool>::_M_decrement
  0000a	89 06		 mov	 DWORD PTR [esi], eax
  0000c	59		 pop	 ecx
  0000d	8b c6		 mov	 eax, esi
  0000f	5e		 pop	 esi
  00010	c3		 ret	 0
??F?$_Rb_tree_iterator@U?$pair@QAVMString@@PAV1@@_STL@@U?$_Nonconst_traits@U?$pair@QAVMString@@PAV1@@_STL@@@2@@_STL@@QAEAAU01@XZ ENDP ; _STL::_Rb_tree_iterator<_STL::pair<MString * const,MString *>,_STL::_Nonconst_traits<_STL::pair<MString * const,MString *> > >::operator--
_TEXT	ENDS
PUBLIC	??0?$pair@U?$_Rb_tree_iterator@U?$pair@QAVMString@@PAV1@@_STL@@U?$_Nonconst_traits@U?$pair@QAVMString@@PAV1@@_STL@@@2@@_STL@@_N@_STL@@QAE@ABU?$_Rb_tree_iterator@U?$pair@QAVMString@@PAV1@@_STL@@U?$_Nonconst_traits@U?$pair@QAVMString@@PAV1@@_STL@@@2@@1@AB_N@Z ; _STL::pair<_STL::_Rb_tree_iterator<_STL::pair<MString * const,MString *>,_STL::_Nonconst_traits<_STL::pair<MString * const,MString *> > >,bool>::pair<_STL::_Rb_tree_iterator<_STL::pair<MString * const,MString *>,_STL::_Nonconst_traits<_STL::pair<MString * const,MString *> > >,bool>
; Function compile flags: /Ogsy
; File c:\stlport-4.6.1\stlport\stl\_pair.h
;	COMDAT ??0?$pair@U?$_Rb_tree_iterator@U?$pair@QAVMString@@PAV1@@_STL@@U?$_Nonconst_traits@U?$pair@QAVMString@@PAV1@@_STL@@@2@@_STL@@_N@_STL@@QAE@ABU?$_Rb_tree_iterator@U?$pair@QAVMString@@PAV1@@_STL@@U?$_Nonconst_traits@U?$pair@QAVMString@@PAV1@@_STL@@@2@@1@AB_N@Z
_TEXT	SEGMENT
___a$ = 8						; size = 4
___b$ = 12						; size = 4
??0?$pair@U?$_Rb_tree_iterator@U?$pair@QAVMString@@PAV1@@_STL@@U?$_Nonconst_traits@U?$pair@QAVMString@@PAV1@@_STL@@@2@@_STL@@_N@_STL@@QAE@ABU?$_Rb_tree_iterator@U?$pair@QAVMString@@PAV1@@_STL@@U?$_Nonconst_traits@U?$pair@QAVMString@@PAV1@@_STL@@@2@@1@AB_N@Z PROC NEAR ; _STL::pair<_STL::_Rb_tree_iterator<_STL::pair<MString * const,MString *>,_STL::_Nonconst_traits<_STL::pair<MString * const,MString *> > >,bool>::pair<_STL::_Rb_tree_iterator<_STL::pair<MString * const,MString *>,_STL::_Nonconst_traits<_STL::pair<MString * const,MString *> > >,bool>, COMDAT
; _this$ = ecx

; 48   :   pair(const _T1& __a, const _T2& __b) : first(__a), second(__b) {}

  00000	8b c1		 mov	 eax, ecx
  00002	8b 4c 24 04	 mov	 ecx, DWORD PTR ___a$[esp-4]
  00006	8b 09		 mov	 ecx, DWORD PTR [ecx]
  00008	89 08		 mov	 DWORD PTR [eax], ecx
  0000a	8b 4c 24 08	 mov	 ecx, DWORD PTR ___b$[esp-4]
  0000e	8a 09		 mov	 cl, BYTE PTR [ecx]
  00010	88 48 04	 mov	 BYTE PTR [eax+4], cl
  00013	c2 08 00	 ret	 8
??0?$pair@U?$_Rb_tree_iterator@U?$pair@QAVMString@@PAV1@@_STL@@U?$_Nonconst_traits@U?$pair@QAVMString@@PAV1@@_STL@@@2@@_STL@@_N@_STL@@QAE@ABU?$_Rb_tree_iterator@U?$pair@QAVMString@@PAV1@@_STL@@U?$_Nonconst_traits@U?$pair@QAVMString@@PAV1@@_STL@@@2@@1@AB_N@Z ENDP ; _STL::pair<_STL::_Rb_tree_iterator<_STL::pair<MString * const,MString *>,_STL::_Nonconst_traits<_STL::pair<MString * const,MString *> > >,bool>::pair<_STL::_Rb_tree_iterator<_STL::pair<MString * const,MString *>,_STL::_Nonconst_traits<_STL::pair<MString * const,MString *> > >,bool>
_TEXT	ENDS
PUBLIC	??Bsentry@?$basic_ostream@DV?$char_traits@D@_STL@@@_STL@@QBE_NXZ ; _STL::basic_ostream<char,_STL::char_traits<char> >::sentry::operator bool
; Function compile flags: /Ogsy
; File c:\stlport-4.6.1\stlport\stl\_ostream.h
;	COMDAT ??Bsentry@?$basic_ostream@DV?$char_traits@D@_STL@@@_STL@@QBE_NXZ
_TEXT	SEGMENT
??Bsentry@?$basic_ostream@DV?$char_traits@D@_STL@@@_STL@@QBE_NXZ PROC NEAR ; _STL::basic_ostream<char,_STL::char_traits<char> >::sentry::operator bool, COMDAT
; _this$ = ecx

; 176  :       operator bool() const { return _M_ok; }

  00000	8a 41 04	 mov	 al, BYTE PTR [ecx+4]
  00003	c3		 ret	 0
??Bsentry@?$basic_ostream@DV?$char_traits@D@_STL@@@_STL@@QBE_NXZ ENDP ; _STL::basic_ostream<char,_STL::char_traits<char> >::sentry::operator bool
_TEXT	ENDS
PUBLIC	?pubsync@?$basic_streambuf@DV?$char_traits@D@_STL@@@_STL@@QAEHXZ ; _STL::basic_streambuf<char,_STL::char_traits<char> >::pubsync
; Function compile flags: /Ogsy
; File c:\stlport-4.6.1\stlport\stl\_streambuf.h
;	COMDAT ?pubsync@?$basic_streambuf@DV?$char_traits@D@_STL@@@_STL@@QAEHXZ
_TEXT	SEGMENT
?pubsync@?$basic_streambuf@DV?$char_traits@D@_STL@@@_STL@@QAEHXZ PROC NEAR ; _STL::basic_streambuf<char,_STL::char_traits<char> >::pubsync, COMDAT
; _this$ = ecx

; 411  :   int pubsync() { return this->sync(); }

  00000	8b 01		 mov	 eax, DWORD PTR [ecx]
  00002	ff 60 10	 jmp	 DWORD PTR [eax+16]
?pubsync@?$basic_streambuf@DV?$char_traits@D@_STL@@@_STL@@QAEHXZ ENDP ; _STL::basic_streambuf<char,_STL::char_traits<char> >::pubsync
_TEXT	ENDS
PUBLIC	??R?$_Select1st@U?$pair@QAVMString@@PAV1@@_STL@@@_STL@@QBEABQAVMString@@ABU?$pair@QAVMString@@PAV1@@1@@Z ; _STL::_Select1st<_STL::pair<MString * const,MString *> >::operator()
; Function compile flags: /Ogsy
; File c:\stlport-4.6.1\stlport\stl\_function_base.h
;	COMDAT ??R?$_Select1st@U?$pair@QAVMString@@PAV1@@_STL@@@_STL@@QBEABQAVMString@@ABU?$pair@QAVMString@@PAV1@@1@@Z
_TEXT	SEGMENT
___x$ = 8						; size = 4
??R?$_Select1st@U?$pair@QAVMString@@PAV1@@_STL@@@_STL@@QBEABQAVMString@@ABU?$pair@QAVMString@@PAV1@@1@@Z PROC NEAR ; _STL::_Select1st<_STL::pair<MString * const,MString *> >::operator(), COMDAT
; _this$ = ecx

; 153  :     return __x.first;

  00000	8b 44 24 04	 mov	 eax, DWORD PTR ___x$[esp-4]

; 154  :   }

  00004	c2 04 00	 ret	 4
??R?$_Select1st@U?$pair@QAVMString@@PAV1@@_STL@@@_STL@@QBEABQAVMString@@ABU?$pair@QAVMString@@PAV1@@1@@Z ENDP ; _STL::_Select1st<_STL::pair<MString * const,MString *> >::operator()
_TEXT	ENDS
PUBLIC	?clear@?$basic_ios@DV?$char_traits@D@_STL@@@_STL@@QAEXH@Z ; _STL::basic_ios<char,_STL::char_traits<char> >::clear
; Function compile flags: /Ogsy
; File c:\stlport-4.6.1\stlport\stl\_ios.h
;	COMDAT ?clear@?$basic_ios@DV?$char_traits@D@_STL@@@_STL@@QAEXH@Z
_TEXT	SEGMENT
___state$ = 8						; size = 4
?clear@?$basic_ios@DV?$char_traits@D@_STL@@@_STL@@QAEXH@Z PROC NEAR ; _STL::basic_ios<char,_STL::char_traits<char> >::clear, COMDAT
; _this$ = ecx

; 91   :     _M_clear_nothrow(this->rdbuf() ? __state : iostate(__state|ios_base::badbit));

  00000	83 79 58 00	 cmp	 DWORD PTR [ecx+88], 0
  00004	8b 44 24 04	 mov	 eax, DWORD PTR ___state$[esp-4]
  00008	75 03		 jne	 SHORT $L102728
  0000a	83 c8 01	 or	 eax, 1
$L102728:

; 92   :     _M_check_exception_mask();

  0000d	85 41 14	 test	 DWORD PTR [ecx+20], eax
  00010	89 41 08	 mov	 DWORD PTR [ecx+8], eax
  00013	74 05		 je	 SHORT $L102740
  00015	e8 00 00 00 00	 call	 ?_M_throw_failure@ios_base@_STL@@IAEXXZ ; _STL::ios_base::_M_throw_failure
$L102740:

; 93   :   }

  0001a	c2 04 00	 ret	 4
?clear@?$basic_ios@DV?$char_traits@D@_STL@@@_STL@@QAEXH@Z ENDP ; _STL::basic_ios<char,_STL::char_traits<char> >::clear
_TEXT	ENDS
PUBLIC	?sputn@?$basic_streambuf@DV?$char_traits@D@_STL@@@_STL@@QAEHPBDH@Z ; _STL::basic_streambuf<char,_STL::char_traits<char> >::sputn
; Function compile flags: /Ogsy
; File c:\stlport-4.6.1\stlport\stl\_streambuf.h
;	COMDAT ?sputn@?$basic_streambuf@DV?$char_traits@D@_STL@@@_STL@@QAEHPBDH@Z
_TEXT	SEGMENT
___s$ = 8						; size = 4
___n$ = 12						; size = 4
?sputn@?$basic_streambuf@DV?$char_traits@D@_STL@@@_STL@@QAEHPBDH@Z PROC NEAR ; _STL::basic_streambuf<char,_STL::char_traits<char> >::sputn, COMDAT
; _this$ = ecx

; 441  :     { return this->xsputn(__s, __n); }

  00000	8b 01		 mov	 eax, DWORD PTR [ecx]
  00002	ff 60 28	 jmp	 DWORD PTR [eax+40]
?sputn@?$basic_streambuf@DV?$char_traits@D@_STL@@@_STL@@QAEHPBDH@Z ENDP ; _STL::basic_streambuf<char,_STL::char_traits<char> >::sputn
_TEXT	ENDS
PUBLIC	?_S_value@?$_Rb_tree@PAVMString@@U?$pair@QAVMString@@PAV1@@_STL@@U?$_Select1st@U?$pair@QAVMString@@PAV1@@_STL@@@3@VMStringPointerCompare@@V?$allocator@U?$pair@QAVMString@@PAV1@@_STL@@@3@@_STL@@KAAAU?$pair@QAVMString@@PAV1@@2@PAU?$_Rb_tree_node@U?$pair@QAVMString@@PAV1@@_STL@@@2@@Z ; _STL::_Rb_tree<MString *,_STL::pair<MString * const,MString *>,_STL::_Select1st<_STL::pair<MString * const,MString *> >,MStringPointerCompare,_STL::allocator<_STL::pair<MString * const,MString *> > >::_S_value
; Function compile flags: /Ogsy
; File c:\stlport-4.6.1\stlport\stl\_tree.h
;	COMDAT ?_S_value@?$_Rb_tree@PAVMString@@U?$pair@QAVMString@@PAV1@@_STL@@U?$_Select1st@U?$pair@QAVMString@@PAV1@@_STL@@@3@VMStringPointerCompare@@V?$allocator@U?$pair@QAVMString@@PAV1@@_STL@@@3@@_STL@@KAAAU?$pair@QAVMString@@PAV1@@2@PAU?$_Rb_tree_node@U?$pair@QAVMString@@PAV1@@_STL@@@2@@Z
_TEXT	SEGMENT
___x$ = 8						; size = 4
?_S_value@?$_Rb_tree@PAVMString@@U?$pair@QAVMString@@PAV1@@_STL@@U?$_Select1st@U?$pair@QAVMString@@PAV1@@_STL@@@3@VMStringPointerCompare@@V?$allocator@U?$pair@QAVMString@@PAV1@@_STL@@@3@@_STL@@KAAAU?$pair@QAVMString@@PAV1@@2@PAU?$_Rb_tree_node@U?$pair@QAVMString@@PAV1@@_STL@@@2@@Z PROC NEAR ; _STL::_Rb_tree<MString *,_STL::pair<MString * const,MString *>,_STL::_Select1st<_STL::pair<MString * const,MString *> >,MStringPointerCompare,_STL::allocator<_STL::pair<MString * const,MString *> > >::_S_value, COMDAT

; 278  :     { return __x->_M_value_field; }

  00000	8b 44 24 04	 mov	 eax, DWORD PTR ___x$[esp-4]
  00004	83 c0 10	 add	 eax, 16			; 00000010H
  00007	c3		 ret	 0
?_S_value@?$_Rb_tree@PAVMString@@U?$pair@QAVMString@@PAV1@@_STL@@U?$_Select1st@U?$pair@QAVMString@@PAV1@@_STL@@@3@VMStringPointerCompare@@V?$allocator@U?$pair@QAVMString@@PAV1@@_STL@@@3@@_STL@@KAAAU?$pair@QAVMString@@PAV1@@2@PAU?$_Rb_tree_node@U?$pair@QAVMString@@PAV1@@_STL@@@2@@Z ENDP ; _STL::_Rb_tree<MString *,_STL::pair<MString * const,MString *>,_STL::_Select1st<_STL::pair<MString * const,MString *> >,MStringPointerCompare,_STL::allocator<_STL::pair<MString * const,MString *> > >::_S_value
_TEXT	ENDS
PUBLIC	?_M_handle_exception@?$basic_ios@DV?$char_traits@D@_STL@@@_STL@@QAEXH@Z ; _STL::basic_ios<char,_STL::char_traits<char> >::_M_handle_exception
EXTRN	__CxxThrowException@8:NEAR
; Function compile flags: /Ogsy
; File c:\stlport-4.6.1\stlport\stl\_ios.c
;	COMDAT ?_M_handle_exception@?$basic_ios@DV?$char_traits@D@_STL@@@_STL@@QAEXH@Z
_TEXT	SEGMENT
___flag$ = 8						; size = 4
?_M_handle_exception@?$basic_ios@DV?$char_traits@D@_STL@@@_STL@@QAEXH@Z PROC NEAR ; _STL::basic_ios<char,_STL::char_traits<char> >::_M_handle_exception, COMDAT
; _this$ = ecx

; 118  :   this->_M_setstate_nothrow(__flag);

  00000	8b 44 24 04	 mov	 eax, DWORD PTR ___flag$[esp-4]
  00004	09 41 08	 or	 DWORD PTR [ecx+8], eax

; 119  :   if (this->_M_get_exception_mask() & __flag)

  00007	85 41 14	 test	 DWORD PTR [ecx+20], eax
  0000a	74 09		 je	 SHORT $L101894

; 120  :     _STLP_RETHROW;

  0000c	6a 00		 push	 0
  0000e	6a 00		 push	 0
  00010	e8 00 00 00 00	 call	 __CxxThrowException@8
$L102760:
$L101894:

; 121  : }

  00015	c2 04 00	 ret	 4
$L102759:
?_M_handle_exception@?$basic_ios@DV?$char_traits@D@_STL@@@_STL@@QAEXH@Z ENDP ; _STL::basic_ios<char,_STL::char_traits<char> >::_M_handle_exception
_TEXT	ENDS
PUBLIC	?tie@?$basic_ios@DV?$char_traits@D@_STL@@@_STL@@QBEPAV?$basic_ostream@DV?$char_traits@D@_STL@@@2@XZ ; _STL::basic_ios<char,_STL::char_traits<char> >::tie
; Function compile flags: /Ogsy
; File c:\stlport-4.6.1\stlport\stl\_ios.h
;	COMDAT ?tie@?$basic_ios@DV?$char_traits@D@_STL@@@_STL@@QBEPAV?$basic_ostream@DV?$char_traits@D@_STL@@@2@XZ
_TEXT	SEGMENT
?tie@?$basic_ios@DV?$char_traits@D@_STL@@@_STL@@QBEPAV?$basic_ostream@DV?$char_traits@D@_STL@@@2@XZ PROC NEAR ; _STL::basic_ios<char,_STL::char_traits<char> >::tie, COMDAT
; _this$ = ecx

; 62   :     return _M_tied_ostream;

  00000	8b 41 5c	 mov	 eax, DWORD PTR [ecx+92]

; 63   :   }

  00003	c3		 ret	 0
?tie@?$basic_ios@DV?$char_traits@D@_STL@@@_STL@@QBEPAV?$basic_ostream@DV?$char_traits@D@_STL@@@2@XZ ENDP ; _STL::basic_ios<char,_STL::char_traits<char> >::tie
_TEXT	ENDS
PUBLIC	?_S_parent@?$_Rb_tree@PAVMString@@U?$pair@QAVMString@@PAV1@@_STL@@U?$_Select1st@U?$pair@QAVMString@@PAV1@@_STL@@@3@VMStringPointerCompare@@V?$allocator@U?$pair@QAVMString@@PAV1@@_STL@@@3@@_STL@@KAAAPAU?$_Rb_tree_node@U?$pair@QAVMString@@PAV1@@_STL@@@2@PAU32@@Z ; _STL::_Rb_tree<MString *,_STL::pair<MString * const,MString *>,_STL::_Select1st<_STL::pair<MString * const,MString *> >,MStringPointerCompare,_STL::allocator<_STL::pair<MString * const,MString *> > >::_S_parent
; Function compile flags: /Ogsy
; File c:\stlport-4.6.1\stlport\stl\_tree.h
;	COMDAT ?_S_parent@?$_Rb_tree@PAVMString@@U?$pair@QAVMString@@PAV1@@_STL@@U?$_Select1st@U?$pair@QAVMString@@PAV1@@_STL@@@3@VMStringPointerCompare@@V?$allocator@U?$pair@QAVMString@@PAV1@@_STL@@@3@@_STL@@KAAAPAU?$_Rb_tree_node@U?$pair@QAVMString@@PAV1@@_STL@@@2@PAU32@@Z
_TEXT	SEGMENT
___x$ = 8						; size = 4
?_S_parent@?$_Rb_tree@PAVMString@@U?$pair@QAVMString@@PAV1@@_STL@@U?$_Select1st@U?$pair@QAVMString@@PAV1@@_STL@@@3@VMStringPointerCompare@@V?$allocator@U?$pair@QAVMString@@PAV1@@_STL@@@3@@_STL@@KAAAPAU?$_Rb_tree_node@U?$pair@QAVMString@@PAV1@@_STL@@@2@PAU32@@Z PROC NEAR ; _STL::_Rb_tree<MString *,_STL::pair<MString * const,MString *>,_STL::_Select1st<_STL::pair<MString * const,MString *> >,MStringPointerCompare,_STL::allocator<_STL::pair<MString * const,MString *> > >::_S_parent, COMDAT

; 276  :     { return (_Link_type&)(__x->_M_parent); }

  00000	8b 44 24 04	 mov	 eax, DWORD PTR ___x$[esp-4]
  00004	83 c0 04	 add	 eax, 4
  00007	c3		 ret	 0
?_S_parent@?$_Rb_tree@PAVMString@@U?$pair@QAVMString@@PAV1@@_STL@@U?$_Select1st@U?$pair@QAVMString@@PAV1@@_STL@@@3@VMStringPointerCompare@@V?$allocator@U?$pair@QAVMString@@PAV1@@_STL@@@3@@_STL@@KAAAPAU?$_Rb_tree_node@U?$pair@QAVMString@@PAV1@@_STL@@@2@PAU32@@Z ENDP ; _STL::_Rb_tree<MString *,_STL::pair<MString * const,MString *>,_STL::_Select1st<_STL::pair<MString * const,MString *> >,MStringPointerCompare,_STL::allocator<_STL::pair<MString * const,MString *> > >::_S_parent
_TEXT	ENDS
PUBLIC	??0?$pair@QAVMString@@PAV1@@_STL@@QAE@ABU01@@Z	; _STL::pair<MString * const,MString *>::pair<MString * const,MString *>
; Function compile flags: /Ogsy
; File c:\stlport-4.6.1\stlport\stl\_pair.h
;	COMDAT ??0?$pair@QAVMString@@PAV1@@_STL@@QAE@ABU01@@Z
_TEXT	SEGMENT
___o$ = 8						; size = 4
??0?$pair@QAVMString@@PAV1@@_STL@@QAE@ABU01@@Z PROC NEAR ; _STL::pair<MString * const,MString *>::pair<MString * const,MString *>, COMDAT
; _this$ = ecx

; 54   :   pair(const pair<_T1,_T2>& __o) : first(__o.first), second(__o.second) {}

  00000	8b c1		 mov	 eax, ecx
  00002	8b 4c 24 04	 mov	 ecx, DWORD PTR ___o$[esp-4]
  00006	8b 11		 mov	 edx, DWORD PTR [ecx]
  00008	89 10		 mov	 DWORD PTR [eax], edx
  0000a	8b 49 04	 mov	 ecx, DWORD PTR [ecx+4]
  0000d	89 48 04	 mov	 DWORD PTR [eax+4], ecx
  00010	c2 04 00	 ret	 4
??0?$pair@QAVMString@@PAV1@@_STL@@QAE@ABU01@@Z ENDP	; _STL::pair<MString * const,MString *>::pair<MString * const,MString *>
_TEXT	ENDS
PUBLIC	??8_Rb_tree_base_iterator@_STL@@QBE_NABU01@@Z	; _STL::_Rb_tree_base_iterator::operator==
; Function compile flags: /Ogsy
; File c:\stlport-4.6.1\stlport\stl\_tree.h
;	COMDAT ??8_Rb_tree_base_iterator@_STL@@QBE_NABU01@@Z
_TEXT	SEGMENT
___y$ = 8						; size = 4
??8_Rb_tree_base_iterator@_STL@@QBE_NABU01@@Z PROC NEAR	; _STL::_Rb_tree_base_iterator::operator==, COMDAT
; _this$ = ecx

; 147  :     return _M_node == __y._M_node;

  00000	8b 01		 mov	 eax, DWORD PTR [ecx]
  00002	8b 4c 24 04	 mov	 ecx, DWORD PTR ___y$[esp-4]
  00006	2b 01		 sub	 eax, DWORD PTR [ecx]
  00008	f7 d8		 neg	 eax
  0000a	1b c0		 sbb	 eax, eax
  0000c	40		 inc	 eax

; 148  :   }

  0000d	c2 04 00	 ret	 4
??8_Rb_tree_base_iterator@_STL@@QBE_NABU01@@Z ENDP	; _STL::_Rb_tree_base_iterator::operator==
_TEXT	ENDS
PUBLIC	??9_Rb_tree_base_iterator@_STL@@QBE_NABU01@@Z	; _STL::_Rb_tree_base_iterator::operator!=
; Function compile flags: /Ogsy
;	COMDAT ??9_Rb_tree_base_iterator@_STL@@QBE_NABU01@@Z
_TEXT	SEGMENT
___y$ = 8						; size = 4
??9_Rb_tree_base_iterator@_STL@@QBE_NABU01@@Z PROC NEAR	; _STL::_Rb_tree_base_iterator::operator!=, COMDAT
; _this$ = ecx

; 150  :     return _M_node != __y._M_node;

  00000	8b 01		 mov	 eax, DWORD PTR [ecx]
  00002	8b 54 24 04	 mov	 edx, DWORD PTR ___y$[esp-4]
  00006	33 c9		 xor	 ecx, ecx
  00008	3b 02		 cmp	 eax, DWORD PTR [edx]
  0000a	0f 95 c1	 setne	 cl
  0000d	8a c1		 mov	 al, cl

; 151  :   }

  0000f	c2 04 00	 ret	 4
??9_Rb_tree_base_iterator@_STL@@QBE_NABU01@@Z ENDP	; _STL::_Rb_tree_base_iterator::operator!=
_TEXT	ENDS
PUBLIC	?allocate@?$__node_alloc@$00$0A@@_STL@@SAPAXI@Z	; _STL::__node_alloc<1,0>::allocate
EXTRN	?_M_allocate@?$__node_alloc@$00$0A@@_STL@@CAPAXI@Z:NEAR ; _STL::__node_alloc<1,0>::_M_allocate
; Function compile flags: /Ogsy
; File c:\stlport-4.6.1\stlport\stl\_alloc.h
;	COMDAT ?allocate@?$__node_alloc@$00$0A@@_STL@@SAPAXI@Z
_TEXT	SEGMENT
___n$ = 8						; size = 4
?allocate@?$__node_alloc@$00$0A@@_STL@@SAPAXI@Z PROC NEAR ; _STL::__node_alloc<1,0>::allocate, COMDAT

; 251  :   static void * _STLP_CALL allocate(size_t __n) { return (__n > (size_t)_MAX_BYTES) ?  __stl_new(__n) : _M_allocate(__n); }

  00000	8b 44 24 04	 mov	 eax, DWORD PTR ___n$[esp-4]
  00004	3d 80 00 00 00	 cmp	 eax, 128		; 00000080H
  00009	50		 push	 eax
  0000a	76 07		 jbe	 SHORT $L102779
  0000c	e8 00 00 00 00	 call	 ??2@YAPAXI@Z		; operator new
  00011	59		 pop	 ecx
  00012	c3		 ret	 0
$L102779:
  00013	e8 00 00 00 00	 call	 ?_M_allocate@?$__node_alloc@$00$0A@@_STL@@CAPAXI@Z ; _STL::__node_alloc<1,0>::_M_allocate
  00018	59		 pop	 ecx
  00019	c3		 ret	 0
?allocate@?$__node_alloc@$00$0A@@_STL@@SAPAXI@Z ENDP	; _STL::__node_alloc<1,0>::allocate
_TEXT	ENDS
PUBLIC	?deallocate@?$__node_alloc@$00$0A@@_STL@@SAXPAXI@Z ; _STL::__node_alloc<1,0>::deallocate
EXTRN	?_M_deallocate@?$__node_alloc@$00$0A@@_STL@@CAXPAXI@Z:NEAR ; _STL::__node_alloc<1,0>::_M_deallocate
; Function compile flags: /Ogsy
;	COMDAT ?deallocate@?$__node_alloc@$00$0A@@_STL@@SAXPAXI@Z
_TEXT	SEGMENT
___p$ = 8						; size = 4
___n$ = 12						; size = 4
?deallocate@?$__node_alloc@$00$0A@@_STL@@SAXPAXI@Z PROC NEAR ; _STL::__node_alloc<1,0>::deallocate, COMDAT

; 253  :   static void _STLP_CALL deallocate(void *__p, size_t __n) { if (__n > (size_t)_MAX_BYTES) __stl_delete(__p); else _M_deallocate(__p, __n); }

  00000	81 7c 24 08 80
	00 00 00	 cmp	 DWORD PTR ___n$[esp-4], 128 ; 00000080H
  00008	76 0b		 jbe	 SHORT $L98677
  0000a	ff 74 24 04	 push	 DWORD PTR ___p$[esp-4]
  0000e	e8 00 00 00 00	 call	 ??3@YAXPAX@Z		; operator delete
  00013	59		 pop	 ecx
  00014	c3		 ret	 0
$L98677:
  00015	e9 00 00 00 00	 jmp	 ?_M_deallocate@?$__node_alloc@$00$0A@@_STL@@CAXPAXI@Z ; _STL::__node_alloc<1,0>::_M_deallocate
?deallocate@?$__node_alloc@$00$0A@@_STL@@SAXPAXI@Z ENDP	; _STL::__node_alloc<1,0>::deallocate
_TEXT	ENDS
PUBLIC	?size@?$map@PAVMString@@PAV1@VMStringPointerCompare@@V?$allocator@U?$pair@QAVMString@@PAV1@@_STL@@@_STL@@@_STL@@QBEIXZ ; _STL::map<MString *,MString *,MStringPointerCompare,_STL::allocator<_STL::pair<MString * const,MString *> > >::size
; Function compile flags: /Ogsy
; File c:\stlport-4.6.1\stlport\stl\_map.h
;	COMDAT ?size@?$map@PAVMString@@PAV1@VMStringPointerCompare@@V?$allocator@U?$pair@QAVMString@@PAV1@@_STL@@@_STL@@@_STL@@QBEIXZ
_TEXT	SEGMENT
?size@?$map@PAVMString@@PAV1@VMStringPointerCompare@@V?$allocator@U?$pair@QAVMString@@PAV1@@_STL@@@_STL@@@_STL@@QBEIXZ PROC NEAR ; _STL::map<MString *,MString *,MStringPointerCompare,_STL::allocator<_STL::pair<MString * const,MString *> > >::size, COMDAT
; _this$ = ecx

; 156  :   size_type size() const { return _M_t.size(); }

  00000	8b 41 04	 mov	 eax, DWORD PTR [ecx+4]
  00003	c3		 ret	 0
?size@?$map@PAVMString@@PAV1@VMStringPointerCompare@@V?$allocator@U?$pair@QAVMString@@PAV1@@_STL@@@_STL@@@_STL@@QBEIXZ ENDP ; _STL::map<MString *,MString *,MStringPointerCompare,_STL::allocator<_STL::pair<MString * const,MString *> > >::size
_TEXT	ENDS
PUBLIC	??C?$_Rb_tree_iterator@U?$pair@QAVMString@@PAV1@@_STL@@U?$_Nonconst_traits@U?$pair@QAVMString@@PAV1@@_STL@@@2@@_STL@@QBEPAU?$pair@QAVMString@@PAV1@@1@XZ ; _STL::_Rb_tree_iterator<_STL::pair<MString * const,MString *>,_STL::_Nonconst_traits<_STL::pair<MString * const,MString *> > >::operator->
; Function compile flags: /Ogsy
; File c:\stlport-4.6.1\stlport\stl\_tree.h
;	COMDAT ??C?$_Rb_tree_iterator@U?$pair@QAVMString@@PAV1@@_STL@@U?$_Nonconst_traits@U?$pair@QAVMString@@PAV1@@_STL@@@2@@_STL@@QBEPAU?$pair@QAVMString@@PAV1@@1@XZ
_TEXT	SEGMENT
??C?$_Rb_tree_iterator@U?$pair@QAVMString@@PAV1@@_STL@@U?$_Nonconst_traits@U?$pair@QAVMString@@PAV1@@_STL@@@2@@_STL@@QBEPAU?$pair@QAVMString@@PAV1@@1@XZ PROC NEAR ; _STL::_Rb_tree_iterator<_STL::pair<MString * const,MString *>,_STL::_Nonconst_traits<_STL::pair<MString * const,MString *> > >::operator->, COMDAT
; _this$ = ecx

; 172  :   _STLP_DEFINE_ARROW_OPERATOR

  00000	8b 01		 mov	 eax, DWORD PTR [ecx]
  00002	83 c0 10	 add	 eax, 16			; 00000010H
  00005	c3		 ret	 0
??C?$_Rb_tree_iterator@U?$pair@QAVMString@@PAV1@@_STL@@U?$_Nonconst_traits@U?$pair@QAVMString@@PAV1@@_STL@@@2@@_STL@@QBEPAU?$pair@QAVMString@@PAV1@@1@XZ ENDP ; _STL::_Rb_tree_iterator<_STL::pair<MString * const,MString *>,_STL::_Nonconst_traits<_STL::pair<MString * const,MString *> > >::operator->
_TEXT	ENDS
PUBLIC	??C?$_Rb_tree_iterator@U?$pair@QAVMString@@PAV1@@_STL@@U?$_Const_traits@U?$pair@QAVMString@@PAV1@@_STL@@@2@@_STL@@QBEPBU?$pair@QAVMString@@PAV1@@1@XZ ; _STL::_Rb_tree_iterator<_STL::pair<MString * const,MString *>,_STL::_Const_traits<_STL::pair<MString * const,MString *> > >::operator->
; Function compile flags: /Ogsy
;	COMDAT ??C?$_Rb_tree_iterator@U?$pair@QAVMString@@PAV1@@_STL@@U?$_Const_traits@U?$pair@QAVMString@@PAV1@@_STL@@@2@@_STL@@QBEPBU?$pair@QAVMString@@PAV1@@1@XZ
_TEXT	SEGMENT
??C?$_Rb_tree_iterator@U?$pair@QAVMString@@PAV1@@_STL@@U?$_Const_traits@U?$pair@QAVMString@@PAV1@@_STL@@@2@@_STL@@QBEPBU?$pair@QAVMString@@PAV1@@1@XZ PROC NEAR ; _STL::_Rb_tree_iterator<_STL::pair<MString * const,MString *>,_STL::_Const_traits<_STL::pair<MString * const,MString *> > >::operator->, COMDAT
; _this$ = ecx

; 172  :   _STLP_DEFINE_ARROW_OPERATOR

  00000	8b 01		 mov	 eax, DWORD PTR [ecx]
  00002	83 c0 10	 add	 eax, 16			; 00000010H
  00005	c3		 ret	 0
??C?$_Rb_tree_iterator@U?$pair@QAVMString@@PAV1@@_STL@@U?$_Const_traits@U?$pair@QAVMString@@PAV1@@_STL@@@2@@_STL@@QBEPBU?$pair@QAVMString@@PAV1@@1@XZ ENDP ; _STL::_Rb_tree_iterator<_STL::pair<MString * const,MString *>,_STL::_Const_traits<_STL::pair<MString * const,MString *> > >::operator->
_TEXT	ENDS
PUBLIC	?begin@?$_Rb_tree@PAVMString@@U?$pair@QAVMString@@PAV1@@_STL@@U?$_Select1st@U?$pair@QAVMString@@PAV1@@_STL@@@3@VMStringPointerCompare@@V?$allocator@U?$pair@QAVMString@@PAV1@@_STL@@@3@@_STL@@QAE?AU?$_Rb_tree_iterator@U?$pair@QAVMString@@PAV1@@_STL@@U?$_Nonconst_traits@U?$pair@QAVMString@@PAV1@@_STL@@@2@@2@XZ ; _STL::_Rb_tree<MString *,_STL::pair<MString * const,MString *>,_STL::_Select1st<_STL::pair<MString * const,MString *> >,MStringPointerCompare,_STL::allocator<_STL::pair<MString * const,MString *> > >::begin
; Function compile flags: /Ogsy
;	COMDAT ?begin@?$_Rb_tree@PAVMString@@U?$pair@QAVMString@@PAV1@@_STL@@U?$_Select1st@U?$pair@QAVMString@@PAV1@@_STL@@@3@VMStringPointerCompare@@V?$allocator@U?$pair@QAVMString@@PAV1@@_STL@@@3@@_STL@@QAE?AU?$_Rb_tree_iterator@U?$pair@QAVMString@@PAV1@@_STL@@U?$_Nonconst_traits@U?$pair@QAVMString@@PAV1@@_STL@@@2@@2@XZ
_TEXT	SEGMENT
___$ReturnUdt$ = 8					; size = 4
?begin@?$_Rb_tree@PAVMString@@U?$pair@QAVMString@@PAV1@@_STL@@U?$_Select1st@U?$pair@QAVMString@@PAV1@@_STL@@@3@VMStringPointerCompare@@V?$allocator@U?$pair@QAVMString@@PAV1@@_STL@@@3@@_STL@@QAE?AU?$_Rb_tree_iterator@U?$pair@QAVMString@@PAV1@@_STL@@U?$_Nonconst_traits@U?$pair@QAVMString@@PAV1@@_STL@@@2@@2@XZ PROC NEAR ; _STL::_Rb_tree<MString *,_STL::pair<MString * const,MString *>,_STL::_Select1st<_STL::pair<MString * const,MString *> >,MStringPointerCompare,_STL::allocator<_STL::pair<MString * const,MString *> > >::begin, COMDAT
; _this$ = ecx

; 357  :   iterator begin() { return iterator(_M_leftmost()); }

  00000	8b 01		 mov	 eax, DWORD PTR [ecx]
  00002	8b 48 08	 mov	 ecx, DWORD PTR [eax+8]
  00005	8b 44 24 04	 mov	 eax, DWORD PTR ___$ReturnUdt$[esp-4]
  00009	89 08		 mov	 DWORD PTR [eax], ecx
  0000b	c2 04 00	 ret	 4
?begin@?$_Rb_tree@PAVMString@@U?$pair@QAVMString@@PAV1@@_STL@@U?$_Select1st@U?$pair@QAVMString@@PAV1@@_STL@@@3@VMStringPointerCompare@@V?$allocator@U?$pair@QAVMString@@PAV1@@_STL@@@3@@_STL@@QAE?AU?$_Rb_tree_iterator@U?$pair@QAVMString@@PAV1@@_STL@@U?$_Nonconst_traits@U?$pair@QAVMString@@PAV1@@_STL@@@2@@2@XZ ENDP ; _STL::_Rb_tree<MString *,_STL::pair<MString * const,MString *>,_STL::_Select1st<_STL::pair<MString * const,MString *> >,MStringPointerCompare,_STL::allocator<_STL::pair<MString * const,MString *> > >::begin
_TEXT	ENDS
PUBLIC	?end@?$_Rb_tree@PAVMString@@U?$pair@QAVMString@@PAV1@@_STL@@U?$_Select1st@U?$pair@QAVMString@@PAV1@@_STL@@@3@VMStringPointerCompare@@V?$allocator@U?$pair@QAVMString@@PAV1@@_STL@@@3@@_STL@@QAE?AU?$_Rb_tree_iterator@U?$pair@QAVMString@@PAV1@@_STL@@U?$_Nonconst_traits@U?$pair@QAVMString@@PAV1@@_STL@@@2@@2@XZ ; _STL::_Rb_tree<MString *,_STL::pair<MString * const,MString *>,_STL::_Select1st<_STL::pair<MString * const,MString *> >,MStringPointerCompare,_STL::allocator<_STL::pair<MString * const,MString *> > >::end
; Function compile flags: /Ogsy
;	COMDAT ?end@?$_Rb_tree@PAVMString@@U?$pair@QAVMString@@PAV1@@_STL@@U?$_Select1st@U?$pair@QAVMString@@PAV1@@_STL@@@3@VMStringPointerCompare@@V?$allocator@U?$pair@QAVMString@@PAV1@@_STL@@@3@@_STL@@QAE?AU?$_Rb_tree_iterator@U?$pair@QAVMString@@PAV1@@_STL@@U?$_Nonconst_traits@U?$pair@QAVMString@@PAV1@@_STL@@@2@@2@XZ
_TEXT	SEGMENT
___$ReturnUdt$ = 8					; size = 4
?end@?$_Rb_tree@PAVMString@@U?$pair@QAVMString@@PAV1@@_STL@@U?$_Select1st@U?$pair@QAVMString@@PAV1@@_STL@@@3@VMStringPointerCompare@@V?$allocator@U?$pair@QAVMString@@PAV1@@_STL@@@3@@_STL@@QAE?AU?$_Rb_tree_iterator@U?$pair@QAVMString@@PAV1@@_STL@@U?$_Nonconst_traits@U?$pair@QAVMString@@PAV1@@_STL@@@2@@2@XZ PROC NEAR ; _STL::_Rb_tree<MString *,_STL::pair<MString * const,MString *>,_STL::_Select1st<_STL::pair<MString * const,MString *> >,MStringPointerCompare,_STL::allocator<_STL::pair<MString * const,MString *> > >::end, COMDAT
; _this$ = ecx

; 359  :   iterator end() { return iterator(this->_M_header._M_data); }

  00000	8b 09		 mov	 ecx, DWORD PTR [ecx]
  00002	8b 44 24 04	 mov	 eax, DWORD PTR ___$ReturnUdt$[esp-4]
  00006	89 08		 mov	 DWORD PTR [eax], ecx
  00008	c2 04 00	 ret	 4
?end@?$_Rb_tree@PAVMString@@U?$pair@QAVMString@@PAV1@@_STL@@U?$_Select1st@U?$pair@QAVMString@@PAV1@@_STL@@@3@VMStringPointerCompare@@V?$allocator@U?$pair@QAVMString@@PAV1@@_STL@@@3@@_STL@@QAE?AU?$_Rb_tree_iterator@U?$pair@QAVMString@@PAV1@@_STL@@U?$_Nonconst_traits@U?$pair@QAVMString@@PAV1@@_STL@@@2@@2@XZ ENDP ; _STL::_Rb_tree<MString *,_STL::pair<MString * const,MString *>,_STL::_Select1st<_STL::pair<MString * const,MString *> >,MStringPointerCompare,_STL::allocator<_STL::pair<MString * const,MString *> > >::end
_TEXT	ENDS
PUBLIC	?end@?$_Rb_tree@PAVMString@@U?$pair@QAVMString@@PAV1@@_STL@@U?$_Select1st@U?$pair@QAVMString@@PAV1@@_STL@@@3@VMStringPointerCompare@@V?$allocator@U?$pair@QAVMString@@PAV1@@_STL@@@3@@_STL@@QBE?AU?$_Rb_tree_iterator@U?$pair@QAVMString@@PAV1@@_STL@@U?$_Const_traits@U?$pair@QAVMString@@PAV1@@_STL@@@2@@2@XZ ; _STL::_Rb_tree<MString *,_STL::pair<MString * const,MString *>,_STL::_Select1st<_STL::pair<MString * const,MString *> >,MStringPointerCompare,_STL::allocator<_STL::pair<MString * const,MString *> > >::end
; Function compile flags: /Ogsy
;	COMDAT ?end@?$_Rb_tree@PAVMString@@U?$pair@QAVMString@@PAV1@@_STL@@U?$_Select1st@U?$pair@QAVMString@@PAV1@@_STL@@@3@VMStringPointerCompare@@V?$allocator@U?$pair@QAVMString@@PAV1@@_STL@@@3@@_STL@@QBE?AU?$_Rb_tree_iterator@U?$pair@QAVMString@@PAV1@@_STL@@U?$_Const_traits@U?$pair@QAVMString@@PAV1@@_STL@@@2@@2@XZ
_TEXT	SEGMENT
___$ReturnUdt$ = 8					; size = 4
?end@?$_Rb_tree@PAVMString@@U?$pair@QAVMString@@PAV1@@_STL@@U?$_Select1st@U?$pair@QAVMString@@PAV1@@_STL@@@3@VMStringPointerCompare@@V?$allocator@U?$pair@QAVMString@@PAV1@@_STL@@@3@@_STL@@QBE?AU?$_Rb_tree_iterator@U?$pair@QAVMString@@PAV1@@_STL@@U?$_Const_traits@U?$pair@QAVMString@@PAV1@@_STL@@@2@@2@XZ PROC NEAR ; _STL::_Rb_tree<MString *,_STL::pair<MString * const,MString *>,_STL::_Select1st<_STL::pair<MString * const,MString *> >,MStringPointerCompare,_STL::allocator<_STL::pair<MString * const,MString *> > >::end, COMDAT
; _this$ = ecx

; 360  :   const_iterator end() const { return const_iterator(this->_M_header._M_data); }

  00000	8b 09		 mov	 ecx, DWORD PTR [ecx]
  00002	8b 44 24 04	 mov	 eax, DWORD PTR ___$ReturnUdt$[esp-4]
  00006	89 08		 mov	 DWORD PTR [eax], ecx
  00008	c2 04 00	 ret	 4
?end@?$_Rb_tree@PAVMString@@U?$pair@QAVMString@@PAV1@@_STL@@U?$_Select1st@U?$pair@QAVMString@@PAV1@@_STL@@@3@VMStringPointerCompare@@V?$allocator@U?$pair@QAVMString@@PAV1@@_STL@@@3@@_STL@@QBE?AU?$_Rb_tree_iterator@U?$pair@QAVMString@@PAV1@@_STL@@U?$_Const_traits@U?$pair@QAVMString@@PAV1@@_STL@@@2@@2@XZ ENDP ; _STL::_Rb_tree<MString *,_STL::pair<MString * const,MString *>,_STL::_Select1st<_STL::pair<MString * const,MString *> >,MStringPointerCompare,_STL::allocator<_STL::pair<MString * const,MString *> > >::end
_TEXT	ENDS
PUBLIC	??1?$_STLP_alloc_proxy@PAU?$_Rb_tree_node@U?$pair@QAVMString@@PAV1@@_STL@@@_STL@@U12@V?$allocator@U?$_Rb_tree_node@U?$pair@QAVMString@@PAV1@@_STL@@@_STL@@@2@@_STL@@QAE@XZ ; _STL::_STLP_alloc_proxy<_STL::_Rb_tree_node<_STL::pair<MString * const,MString *> > *,_STL::_Rb_tree_node<_STL::pair<MString * const,MString *> >,_STL::allocator<_STL::_Rb_tree_node<_STL::pair<MString * const,MString *> > > >::~_STLP_alloc_proxy<_STL::_Rb_tree_node<_STL::pair<MString * const,MString *> > *,_STL::_Rb_tree_node<_STL::pair<MString * const,MString *> >,_STL::allocator<_STL::_Rb_tree_node<_STL::pair<MString * const,MString *> > > >
; Function compile flags: /Ogsy
;	COMDAT ??1?$_STLP_alloc_proxy@PAU?$_Rb_tree_node@U?$pair@QAVMString@@PAV1@@_STL@@@_STL@@U12@V?$allocator@U?$_Rb_tree_node@U?$pair@QAVMString@@PAV1@@_STL@@@_STL@@@2@@_STL@@QAE@XZ
_TEXT	SEGMENT
??1?$_STLP_alloc_proxy@PAU?$_Rb_tree_node@U?$pair@QAVMString@@PAV1@@_STL@@@_STL@@U12@V?$allocator@U?$_Rb_tree_node@U?$pair@QAVMString@@PAV1@@_STL@@@_STL@@@2@@_STL@@QAE@XZ PROC NEAR ; _STL::_STLP_alloc_proxy<_STL::_Rb_tree_node<_STL::pair<MString * const,MString *> > *,_STL::_Rb_tree_node<_STL::pair<MString * const,MString *> >,_STL::allocator<_STL::_Rb_tree_node<_STL::pair<MString * const,MString *> > > >::~_STLP_alloc_proxy<_STL::_Rb_tree_node<_STL::pair<MString * const,MString *> > *,_STL::_Rb_tree_node<_STL::pair<MString * const,MString *> >,_STL::allocator<_STL::_Rb_tree_node<_STL::pair<MString * const,MString *> > > >, COMDAT
; _this$ = ecx
  00000	c3		 ret	 0
??1?$_STLP_alloc_proxy@PAU?$_Rb_tree_node@U?$pair@QAVMString@@PAV1@@_STL@@@_STL@@U12@V?$allocator@U?$_Rb_tree_node@U?$pair@QAVMString@@PAV1@@_STL@@@_STL@@@2@@_STL@@QAE@XZ ENDP ; _STL::_STLP_alloc_proxy<_STL::_Rb_tree_node<_STL::pair<MString * const,MString *> > *,_STL::_Rb_tree_node<_STL::pair<MString * const,MString *> >,_STL::allocator<_STL::_Rb_tree_node<_STL::pair<MString * const,MString *> > > >::~_STLP_alloc_proxy<_STL::_Rb_tree_node<_STL::pair<MString * const,MString *> > *,_STL::_Rb_tree_node<_STL::pair<MString * const,MString *> >,_STL::allocator<_STL::_Rb_tree_node<_STL::pair<MString * const,MString *> > > >
_TEXT	ENDS
PUBLIC	?_M_empty_initialize@?$_Rb_tree@PAVMString@@U?$pair@QAVMString@@PAV1@@_STL@@U?$_Select1st@U?$pair@QAVMString@@PAV1@@_STL@@@3@VMStringPointerCompare@@V?$allocator@U?$pair@QAVMString@@PAV1@@_STL@@@3@@_STL@@AAEXXZ ; _STL::_Rb_tree<MString *,_STL::pair<MString * const,MString *>,_STL::_Select1st<_STL::pair<MString * const,MString *> >,MStringPointerCompare,_STL::allocator<_STL::pair<MString * const,MString *> > >::_M_empty_initialize
; Function compile flags: /Ogsy
;	COMDAT ?_M_empty_initialize@?$_Rb_tree@PAVMString@@U?$pair@QAVMString@@PAV1@@_STL@@U?$_Select1st@U?$pair@QAVMString@@PAV1@@_STL@@@3@VMStringPointerCompare@@V?$allocator@U?$pair@QAVMString@@PAV1@@_STL@@@3@@_STL@@AAEXXZ
_TEXT	SEGMENT
?_M_empty_initialize@?$_Rb_tree@PAVMString@@U?$pair@QAVMString@@PAV1@@_STL@@U?$_Select1st@U?$pair@QAVMString@@PAV1@@_STL@@@3@VMStringPointerCompare@@V?$allocator@U?$pair@QAVMString@@PAV1@@_STL@@@3@@_STL@@AAEXXZ PROC NEAR ; _STL::_Rb_tree<MString *,_STL::pair<MString * const,MString *>,_STL::_Select1st<_STL::pair<MString * const,MString *> >,MStringPointerCompare,_STL::allocator<_STL::pair<MString * const,MString *> > >::_M_empty_initialize, COMDAT
; _this$ = ecx

; 346  :     _S_color(this->_M_header._M_data) = _S_rb_tree_red; // used to distinguish header from 

  00000	8b 01		 mov	 eax, DWORD PTR [ecx]
  00002	c6 00 00	 mov	 BYTE PTR [eax], 0

; 347  :                                           // __root, in iterator.operator++
; 348  :     _M_root() = 0;

  00005	8b 01		 mov	 eax, DWORD PTR [ecx]
  00007	83 60 04 00	 and	 DWORD PTR [eax+4], 0

; 349  :     _M_leftmost() = this->_M_header._M_data;

  0000b	8b 01		 mov	 eax, DWORD PTR [ecx]
  0000d	89 40 08	 mov	 DWORD PTR [eax+8], eax

; 350  :     _M_rightmost() = this->_M_header._M_data;

  00010	8b 09		 mov	 ecx, DWORD PTR [ecx]
  00012	89 49 0c	 mov	 DWORD PTR [ecx+12], ecx

; 351  :   }

  00015	c3		 ret	 0
?_M_empty_initialize@?$_Rb_tree@PAVMString@@U?$pair@QAVMString@@PAV1@@_STL@@U?$_Select1st@U?$pair@QAVMString@@PAV1@@_STL@@@3@VMStringPointerCompare@@V?$allocator@U?$pair@QAVMString@@PAV1@@_STL@@@3@@_STL@@AAEXXZ ENDP ; _STL::_Rb_tree<MString *,_STL::pair<MString * const,MString *>,_STL::_Select1st<_STL::pair<MString * const,MString *> >,MStringPointerCompare,_STL::allocator<_STL::pair<MString * const,MString *> > >::_M_empty_initialize
_TEXT	ENDS
PUBLIC	?deallocate@?$allocator@U?$_Rb_tree_node@U?$pair@QAVMString@@PAV1@@_STL@@@_STL@@@_STL@@QAEXPAU?$_Rb_tree_node@U?$pair@QAVMString@@PAV1@@_STL@@@2@I@Z ; _STL::allocator<_STL::_Rb_tree_node<_STL::pair<MString * const,MString *> > >::deallocate
; Function compile flags: /Ogsy
; File c:\stlport-4.6.1\stlport\stl\_alloc.h
;	COMDAT ?deallocate@?$allocator@U?$_Rb_tree_node@U?$pair@QAVMString@@PAV1@@_STL@@@_STL@@@_STL@@QAEXPAU?$_Rb_tree_node@U?$pair@QAVMString@@PAV1@@_STL@@@2@I@Z
_TEXT	SEGMENT
___p$ = 8						; size = 4
___n$ = 12						; size = 4
?deallocate@?$allocator@U?$_Rb_tree_node@U?$pair@QAVMString@@PAV1@@_STL@@@_STL@@@_STL@@QAEXPAU?$_Rb_tree_node@U?$pair@QAVMString@@PAV1@@_STL@@@2@I@Z PROC NEAR ; _STL::allocator<_STL::_Rb_tree_node<_STL::pair<MString * const,MString *> > >::deallocate, COMDAT
; _this$ = ecx

; 359  :     _STLP_ASSERT( (__p == 0) == (__n == 0) )
; 360  :       if (__p != 0) __sgi_alloc::deallocate((void*)__p, __n * sizeof(value_type));

  00000	83 7c 24 04 00	 cmp	 DWORD PTR ___p$[esp-4], 0
  00005	74 16		 je	 SHORT $L101510
  00007	8b 44 24 08	 mov	 eax, DWORD PTR ___n$[esp-4]
  0000b	8d 04 40	 lea	 eax, DWORD PTR [eax+eax*2]
  0000e	c1 e0 03	 shl	 eax, 3
  00011	50		 push	 eax
  00012	ff 74 24 08	 push	 DWORD PTR ___p$[esp]
  00016	e8 00 00 00 00	 call	 ?deallocate@?$__node_alloc@$00$0A@@_STL@@SAXPAXI@Z ; _STL::__node_alloc<1,0>::deallocate
  0001b	59		 pop	 ecx
  0001c	59		 pop	 ecx
$L101510:

; 361  :   }

  0001d	c2 08 00	 ret	 8
?deallocate@?$allocator@U?$_Rb_tree_node@U?$pair@QAVMString@@PAV1@@_STL@@@_STL@@@_STL@@QAEXPAU?$_Rb_tree_node@U?$pair@QAVMString@@PAV1@@_STL@@@2@I@Z ENDP ; _STL::allocator<_STL::_Rb_tree_node<_STL::pair<MString * const,MString *> > >::deallocate
_TEXT	ENDS
PUBLIC	??0?$_STLP_alloc_proxy@PAU?$_Rb_tree_node@U?$pair@QAVMString@@PAV1@@_STL@@@_STL@@U12@V?$allocator@U?$_Rb_tree_node@U?$pair@QAVMString@@PAV1@@_STL@@@_STL@@@2@@_STL@@QAE@ABV?$allocator@U?$_Rb_tree_node@U?$pair@QAVMString@@PAV1@@_STL@@@_STL@@@1@PAU?$_Rb_tree_node@U?$pair@QAVMString@@PAV1@@_STL@@@1@@Z ; _STL::_STLP_alloc_proxy<_STL::_Rb_tree_node<_STL::pair<MString * const,MString *> > *,_STL::_Rb_tree_node<_STL::pair<MString * const,MString *> >,_STL::allocator<_STL::_Rb_tree_node<_STL::pair<MString * const,MString *> > > >::_STLP_alloc_proxy<_STL::_Rb_tree_node<_STL::pair<MString * const,MString *> > *,_STL::_Rb_tree_node<_STL::pair<MString * const,MString *> >,_STL::allocator<_STL::_Rb_tree_node<_STL::pair<MString * const,MString *> > > >
; Function compile flags: /Ogsy
;	COMDAT ??0?$_STLP_alloc_proxy@PAU?$_Rb_tree_node@U?$pair@QAVMString@@PAV1@@_STL@@@_STL@@U12@V?$allocator@U?$_Rb_tree_node@U?$pair@QAVMString@@PAV1@@_STL@@@_STL@@@2@@_STL@@QAE@ABV?$allocator@U?$_Rb_tree_node@U?$pair@QAVMString@@PAV1@@_STL@@@_STL@@@1@PAU?$_Rb_tree_node@U?$pair@QAVMString@@PAV1@@_STL@@@1@@Z
_TEXT	SEGMENT
___a$ = 8						; size = 4
___p$ = 12						; size = 4
??0?$_STLP_alloc_proxy@PAU?$_Rb_tree_node@U?$pair@QAVMString@@PAV1@@_STL@@@_STL@@U12@V?$allocator@U?$_Rb_tree_node@U?$pair@QAVMString@@PAV1@@_STL@@@_STL@@@2@@_STL@@QAE@ABV?$allocator@U?$_Rb_tree_node@U?$pair@QAVMString@@PAV1@@_STL@@@_STL@@@1@PAU?$_Rb_tree_node@U?$pair@QAVMString@@PAV1@@_STL@@@1@@Z PROC NEAR ; _STL::_STLP_alloc_proxy<_STL::_Rb_tree_node<_STL::pair<MString * const,MString *> > *,_STL::_Rb_tree_node<_STL::pair<MString * const,MString *> >,_STL::allocator<_STL::_Rb_tree_node<_STL::pair<MString * const,MString *> > > >::_STLP_alloc_proxy<_STL::_Rb_tree_node<_STL::pair<MString * const,MString *> > *,_STL::_Rb_tree_node<_STL::pair<MString * const,MString *> >,_STL::allocator<_STL::_Rb_tree_node<_STL::pair<MString * const,MString *> > > >, COMDAT
; _this$ = ecx

; 487  :   inline _STLP_alloc_proxy(const _MaybeReboundAlloc& __a, _Value __p) : _MaybeReboundAlloc(__a), _M_data(__p) {}

  00000	8b c1		 mov	 eax, ecx
  00002	8b 4c 24 08	 mov	 ecx, DWORD PTR ___p$[esp-4]
  00006	89 08		 mov	 DWORD PTR [eax], ecx
  00008	c2 08 00	 ret	 8
??0?$_STLP_alloc_proxy@PAU?$_Rb_tree_node@U?$pair@QAVMString@@PAV1@@_STL@@@_STL@@U12@V?$allocator@U?$_Rb_tree_node@U?$pair@QAVMString@@PAV1@@_STL@@@_STL@@@2@@_STL@@QAE@ABV?$allocator@U?$_Rb_tree_node@U?$pair@QAVMString@@PAV1@@_STL@@@_STL@@@1@PAU?$_Rb_tree_node@U?$pair@QAVMString@@PAV1@@_STL@@@1@@Z ENDP ; _STL::_STLP_alloc_proxy<_STL::_Rb_tree_node<_STL::pair<MString * const,MString *> > *,_STL::_Rb_tree_node<_STL::pair<MString * const,MString *> >,_STL::allocator<_STL::_Rb_tree_node<_STL::pair<MString * const,MString *> > > >::_STLP_alloc_proxy<_STL::_Rb_tree_node<_STL::pair<MString * const,MString *> > *,_STL::_Rb_tree_node<_STL::pair<MString * const,MString *> >,_STL::allocator<_STL::_Rb_tree_node<_STL::pair<MString * const,MString *> > > >
_TEXT	ENDS
PUBLIC	?allocate@?$allocator@U?$_Rb_tree_node@U?$pair@QAVMString@@PAV1@@_STL@@@_STL@@@_STL@@QAEPAU?$_Rb_tree_node@U?$pair@QAVMString@@PAV1@@_STL@@@2@IPBX@Z ; _STL::allocator<_STL::_Rb_tree_node<_STL::pair<MString * const,MString *> > >::allocate
; Function compile flags: /Ogsy
;	COMDAT ?allocate@?$allocator@U?$_Rb_tree_node@U?$pair@QAVMString@@PAV1@@_STL@@@_STL@@@_STL@@QAEPAU?$_Rb_tree_node@U?$pair@QAVMString@@PAV1@@_STL@@@2@IPBX@Z
_TEXT	SEGMENT
___n$ = 8						; size = 4
___formal$ = 12						; size = 4
?allocate@?$allocator@U?$_Rb_tree_node@U?$pair@QAVMString@@PAV1@@_STL@@@_STL@@@_STL@@QAEPAU?$_Rb_tree_node@U?$pair@QAVMString@@PAV1@@_STL@@@2@IPBX@Z PROC NEAR ; _STL::allocator<_STL::_Rb_tree_node<_STL::pair<MString * const,MString *> > >::allocate, COMDAT
; _this$ = ecx

; 355  :     return __n != 0 ? __REINTERPRET_CAST(value_type*,__sgi_alloc::allocate(__n * sizeof(value_type))) : 0;

  00000	8b 44 24 04	 mov	 eax, DWORD PTR ___n$[esp-4]
  00004	85 c0		 test	 eax, eax
  00006	74 0f		 je	 SHORT $L102865
  00008	8d 04 40	 lea	 eax, DWORD PTR [eax+eax*2]
  0000b	c1 e0 03	 shl	 eax, 3
  0000e	50		 push	 eax
  0000f	e8 00 00 00 00	 call	 ?allocate@?$__node_alloc@$00$0A@@_STL@@SAPAXI@Z ; _STL::__node_alloc<1,0>::allocate
  00014	59		 pop	 ecx
  00015	eb 02		 jmp	 SHORT $L102866
$L102865:
  00017	33 c0		 xor	 eax, eax
$L102866:

; 356  :   }

  00019	c2 08 00	 ret	 8
?allocate@?$allocator@U?$_Rb_tree_node@U?$pair@QAVMString@@PAV1@@_STL@@@_STL@@@_STL@@QAEPAU?$_Rb_tree_node@U?$pair@QAVMString@@PAV1@@_STL@@@2@IPBX@Z ENDP ; _STL::allocator<_STL::_Rb_tree_node<_STL::pair<MString * const,MString *> > >::allocate
_TEXT	ENDS
PUBLIC	?_M_erase@?$_Rb_tree@PAVMString@@U?$pair@QAVMString@@PAV1@@_STL@@U?$_Select1st@U?$pair@QAVMString@@PAV1@@_STL@@@3@VMStringPointerCompare@@V?$allocator@U?$pair@QAVMString@@PAV1@@_STL@@@3@@_STL@@AAEXPAU?$_Rb_tree_node@U?$pair@QAVMString@@PAV1@@_STL@@@2@@Z ; _STL::_Rb_tree<MString *,_STL::pair<MString * const,MString *>,_STL::_Select1st<_STL::pair<MString * const,MString *> >,MStringPointerCompare,_STL::allocator<_STL::pair<MString * const,MString *> > >::_M_erase
; Function compile flags: /Ogsy
; File c:\stlport-4.6.1\stlport\stl\_tree.c
;	COMDAT ?_M_erase@?$_Rb_tree@PAVMString@@U?$pair@QAVMString@@PAV1@@_STL@@U?$_Select1st@U?$pair@QAVMString@@PAV1@@_STL@@@3@VMStringPointerCompare@@V?$allocator@U?$pair@QAVMString@@PAV1@@_STL@@@3@@_STL@@AAEXPAU?$_Rb_tree_node@U?$pair@QAVMString@@PAV1@@_STL@@@2@@Z
_TEXT	SEGMENT
___x$ = 8						; size = 4
?_M_erase@?$_Rb_tree@PAVMString@@U?$pair@QAVMString@@PAV1@@_STL@@U?$_Select1st@U?$pair@QAVMString@@PAV1@@_STL@@@3@VMStringPointerCompare@@V?$allocator@U?$pair@QAVMString@@PAV1@@_STL@@@3@@_STL@@AAEXPAU?$_Rb_tree_node@U?$pair@QAVMString@@PAV1@@_STL@@@2@@Z PROC NEAR ; _STL::_Rb_tree<MString *,_STL::pair<MString * const,MString *>,_STL::_Select1st<_STL::pair<MString * const,MString *> >,MStringPointerCompare,_STL::allocator<_STL::pair<MString * const,MString *> > >::_M_erase, COMDAT
; _this$ = ecx

; 637  : {

  00000	53		 push	 ebx
  00001	56		 push	 esi

; 638  :                                 // erase without rebalancing
; 639  :   while (__x != 0) {

  00002	8b 74 24 0c	 mov	 esi, DWORD PTR ___x$[esp+4]
  00006	85 f6		 test	 esi, esi
  00008	8b d9		 mov	 ebx, ecx
  0000a	74 1f		 je	 SHORT $L101719
  0000c	57		 push	 edi
$L101718:

; 640  :     _M_erase(_S_right(__x));

  0000d	ff 76 0c	 push	 DWORD PTR [esi+12]
  00010	8b cb		 mov	 ecx, ebx
  00012	e8 00 00 00 00	 call	 ?_M_erase@?$_Rb_tree@PAVMString@@U?$pair@QAVMString@@PAV1@@_STL@@U?$_Select1st@U?$pair@QAVMString@@PAV1@@_STL@@@3@VMStringPointerCompare@@V?$allocator@U?$pair@QAVMString@@PAV1@@_STL@@@3@@_STL@@AAEXPAU?$_Rb_tree_node@U?$pair@QAVMString@@PAV1@@_STL@@@2@@Z ; _STL::_Rb_tree<MString *,_STL::pair<MString * const,MString *>,_STL::_Select1st<_STL::pair<MString * const,MString *> >,MStringPointerCompare,_STL::allocator<_STL::pair<MString * const,MString *> > >::_M_erase

; 641  :     _Link_type __y = _S_left(__x);

  00017	8b 7e 08	 mov	 edi, DWORD PTR [esi+8]

; 642  :     _STLP_STD::_Destroy(&__x->_M_value_field);
; 643  :     this->_M_header.deallocate(__x,1);

  0001a	6a 01		 push	 1
  0001c	56		 push	 esi
  0001d	8b cb		 mov	 ecx, ebx
  0001f	e8 00 00 00 00	 call	 ?deallocate@?$allocator@U?$_Rb_tree_node@U?$pair@QAVMString@@PAV1@@_STL@@@_STL@@@_STL@@QAEXPAU?$_Rb_tree_node@U?$pair@QAVMString@@PAV1@@_STL@@@2@I@Z ; _STL::allocator<_STL::_Rb_tree_node<_STL::pair<MString * const,MString *> > >::deallocate
  00024	85 ff		 test	 edi, edi

; 644  :     __x = __y;

  00026	8b f7		 mov	 esi, edi
  00028	75 e3		 jne	 SHORT $L101718
  0002a	5f		 pop	 edi
$L101719:
  0002b	5e		 pop	 esi
  0002c	5b		 pop	 ebx

; 645  :   }
; 646  : }

  0002d	c2 04 00	 ret	 4
?_M_erase@?$_Rb_tree@PAVMString@@U?$pair@QAVMString@@PAV1@@_STL@@U?$_Select1st@U?$pair@QAVMString@@PAV1@@_STL@@@3@VMStringPointerCompare@@V?$allocator@U?$pair@QAVMString@@PAV1@@_STL@@@3@@_STL@@AAEXPAU?$_Rb_tree_node@U?$pair@QAVMString@@PAV1@@_STL@@@2@@Z ENDP ; _STL::_Rb_tree<MString *,_STL::pair<MString * const,MString *>,_STL::_Select1st<_STL::pair<MString * const,MString *> >,MStringPointerCompare,_STL::allocator<_STL::pair<MString * const,MString *> > >::_M_erase
_TEXT	ENDS
PUBLIC	?setstate@?$basic_ios@DV?$char_traits@D@_STL@@@_STL@@QAEXH@Z ; _STL::basic_ios<char,_STL::char_traits<char> >::setstate
; Function compile flags: /Ogsy
; File c:\stlport-4.6.1\stlport\stl\_ios.h
;	COMDAT ?setstate@?$basic_ios@DV?$char_traits@D@_STL@@@_STL@@QAEXH@Z
_TEXT	SEGMENT
___state$ = 8						; size = 4
?setstate@?$basic_ios@DV?$char_traits@D@_STL@@@_STL@@QAEXH@Z PROC NEAR ; _STL::basic_ios<char,_STL::char_traits<char> >::setstate, COMDAT
; _this$ = ecx

; 94   :   void setstate(iostate __state) { this->clear(rdstate() | __state); }

  00000	8b 41 08	 mov	 eax, DWORD PTR [ecx+8]
  00003	0b 44 24 04	 or	 eax, DWORD PTR ___state$[esp-4]
  00007	50		 push	 eax
  00008	e8 00 00 00 00	 call	 ?clear@?$basic_ios@DV?$char_traits@D@_STL@@@_STL@@QAEXH@Z ; _STL::basic_ios<char,_STL::char_traits<char> >::clear
  0000d	c2 04 00	 ret	 4
?setstate@?$basic_ios@DV?$char_traits@D@_STL@@@_STL@@QAEXH@Z ENDP ; _STL::basic_ios<char,_STL::char_traits<char> >::setstate
_TEXT	ENDS
PUBLIC	?_S_key@?$_Rb_tree@PAVMString@@U?$pair@QAVMString@@PAV1@@_STL@@U?$_Select1st@U?$pair@QAVMString@@PAV1@@_STL@@@3@VMStringPointerCompare@@V?$allocator@U?$pair@QAVMString@@PAV1@@_STL@@@3@@_STL@@KAABQAVMString@@PAU?$_Rb_tree_node@U?$pair@QAVMString@@PAV1@@_STL@@@2@@Z ; _STL::_Rb_tree<MString *,_STL::pair<MString * const,MString *>,_STL::_Select1st<_STL::pair<MString * const,MString *> >,MStringPointerCompare,_STL::allocator<_STL::pair<MString * const,MString *> > >::_S_key
; Function compile flags: /Ogsy
; File c:\stlport-4.6.1\stlport\stl\_tree.h
;	COMDAT ?_S_key@?$_Rb_tree@PAVMString@@U?$pair@QAVMString@@PAV1@@_STL@@U?$_Select1st@U?$pair@QAVMString@@PAV1@@_STL@@@3@VMStringPointerCompare@@V?$allocator@U?$pair@QAVMString@@PAV1@@_STL@@@3@@_STL@@KAABQAVMString@@PAU?$_Rb_tree_node@U?$pair@QAVMString@@PAV1@@_STL@@@2@@Z
_TEXT	SEGMENT
___x$ = 8						; size = 4
?_S_key@?$_Rb_tree@PAVMString@@U?$pair@QAVMString@@PAV1@@_STL@@U?$_Select1st@U?$pair@QAVMString@@PAV1@@_STL@@@3@VMStringPointerCompare@@V?$allocator@U?$pair@QAVMString@@PAV1@@_STL@@@3@@_STL@@KAABQAVMString@@PAU?$_Rb_tree_node@U?$pair@QAVMString@@PAV1@@_STL@@@2@@Z PROC NEAR ; _STL::_Rb_tree<MString *,_STL::pair<MString * const,MString *>,_STL::_Select1st<_STL::pair<MString * const,MString *> >,MStringPointerCompare,_STL::allocator<_STL::pair<MString * const,MString *> > >::_S_key, COMDAT

; 280  :     { return _KeyOfValue()(_S_value(__x)); }

  00000	8b 44 24 04	 mov	 eax, DWORD PTR ___x$[esp-4]
  00004	83 c0 10	 add	 eax, 16			; 00000010H
  00007	c3		 ret	 0
?_S_key@?$_Rb_tree@PAVMString@@U?$pair@QAVMString@@PAV1@@_STL@@U?$_Select1st@U?$pair@QAVMString@@PAV1@@_STL@@@3@VMStringPointerCompare@@V?$allocator@U?$pair@QAVMString@@PAV1@@_STL@@@3@@_STL@@KAABQAVMString@@PAU?$_Rb_tree_node@U?$pair@QAVMString@@PAV1@@_STL@@@2@@Z ENDP ; _STL::_Rb_tree<MString *,_STL::pair<MString * const,MString *>,_STL::_Select1st<_STL::pair<MString * const,MString *> >,MStringPointerCompare,_STL::allocator<_STL::pair<MString * const,MString *> > >::_S_key
_TEXT	ENDS
PUBLIC	?_S_key@?$_Rb_tree@PAVMString@@U?$pair@QAVMString@@PAV1@@_STL@@U?$_Select1st@U?$pair@QAVMString@@PAV1@@_STL@@@3@VMStringPointerCompare@@V?$allocator@U?$pair@QAVMString@@PAV1@@_STL@@@3@@_STL@@KAABQAVMString@@PAU_Rb_tree_node_base@2@@Z ; _STL::_Rb_tree<MString *,_STL::pair<MString * const,MString *>,_STL::_Select1st<_STL::pair<MString * const,MString *> >,MStringPointerCompare,_STL::allocator<_STL::pair<MString * const,MString *> > >::_S_key
; Function compile flags: /Ogsy
;	COMDAT ?_S_key@?$_Rb_tree@PAVMString@@U?$pair@QAVMString@@PAV1@@_STL@@U?$_Select1st@U?$pair@QAVMString@@PAV1@@_STL@@@3@VMStringPointerCompare@@V?$allocator@U?$pair@QAVMString@@PAV1@@_STL@@@3@@_STL@@KAABQAVMString@@PAU_Rb_tree_node_base@2@@Z
_TEXT	SEGMENT
___x$ = 8						; size = 4
?_S_key@?$_Rb_tree@PAVMString@@U?$pair@QAVMString@@PAV1@@_STL@@U?$_Select1st@U?$pair@QAVMString@@PAV1@@_STL@@@3@VMStringPointerCompare@@V?$allocator@U?$pair@QAVMString@@PAV1@@_STL@@@3@@_STL@@KAABQAVMString@@PAU_Rb_tree_node_base@2@@Z PROC NEAR ; _STL::_Rb_tree<MString *,_STL::pair<MString * const,MString *>,_STL::_Select1st<_STL::pair<MString * const,MString *> >,MStringPointerCompare,_STL::allocator<_STL::pair<MString * const,MString *> > >::_S_key, COMDAT

; 293  :     { return _KeyOfValue()(_S_value(_Link_type(__x)));} 

  00000	8b 44 24 04	 mov	 eax, DWORD PTR ___x$[esp-4]
  00004	83 c0 10	 add	 eax, 16			; 00000010H
  00007	c3		 ret	 0
?_S_key@?$_Rb_tree@PAVMString@@U?$pair@QAVMString@@PAV1@@_STL@@U?$_Select1st@U?$pair@QAVMString@@PAV1@@_STL@@@3@VMStringPointerCompare@@V?$allocator@U?$pair@QAVMString@@PAV1@@_STL@@@3@@_STL@@KAABQAVMString@@PAU_Rb_tree_node_base@2@@Z ENDP ; _STL::_Rb_tree<MString *,_STL::pair<MString * const,MString *>,_STL::_Select1st<_STL::pair<MString * const,MString *> >,MStringPointerCompare,_STL::allocator<_STL::pair<MString * const,MString *> > >::_S_key
_TEXT	ENDS
PUBLIC	?flush@?$basic_ostream@DV?$char_traits@D@_STL@@@_STL@@QAEAAV12@XZ ; _STL::basic_ostream<char,_STL::char_traits<char> >::flush
; Function compile flags: /Ogsy
; File c:\stlport-4.6.1\stlport\stl\_ostream.h
;	COMDAT ?flush@?$basic_ostream@DV?$char_traits@D@_STL@@@_STL@@QAEAAV12@XZ
_TEXT	SEGMENT
?flush@?$basic_ostream@DV?$char_traits@D@_STL@@@_STL@@QAEAAV12@XZ PROC NEAR ; _STL::basic_ostream<char,_STL::char_traits<char> >::flush, COMDAT
; _this$ = ecx

; 120  :   _Self& flush() {

  00000	56		 push	 esi
  00001	8b f1		 mov	 esi, ecx

; 121  :     if (this->rdbuf())

  00003	8b 06		 mov	 eax, DWORD PTR [esi]
  00005	8b 40 04	 mov	 eax, DWORD PTR [eax+4]
  00008	8b 4c 30 58	 mov	 ecx, DWORD PTR [eax+esi+88]
  0000c	85 c9		 test	 ecx, ecx
  0000e	74 1d		 je	 SHORT $L102927

; 122  :       if (this->rdbuf()->pubsync() == -1)

  00010	8b 01		 mov	 eax, DWORD PTR [ecx]
  00012	ff 50 10	 call	 DWORD PTR [eax+16]
  00015	83 f8 ff	 cmp	 eax, -1
  00018	75 13		 jne	 SHORT $L102927

; 123  :         this->setstate(ios_base::badbit);

  0001a	8b 06		 mov	 eax, DWORD PTR [esi]
  0001c	8b 48 04	 mov	 ecx, DWORD PTR [eax+4]
  0001f	03 ce		 add	 ecx, esi
  00021	8b 41 08	 mov	 eax, DWORD PTR [ecx+8]
  00024	83 c8 01	 or	 eax, 1
  00027	50		 push	 eax
  00028	e8 00 00 00 00	 call	 ?clear@?$basic_ios@DV?$char_traits@D@_STL@@@_STL@@QAEXH@Z ; _STL::basic_ios<char,_STL::char_traits<char> >::clear
$L102927:

; 124  :     return *this;

  0002d	8b c6		 mov	 eax, esi
  0002f	5e		 pop	 esi

; 125  :   }

  00030	c3		 ret	 0
?flush@?$basic_ostream@DV?$char_traits@D@_STL@@@_STL@@QAEAAV12@XZ ENDP ; _STL::basic_ostream<char,_STL::char_traits<char> >::flush
_TEXT	ENDS
PUBLIC	??$_M_find@PAVMString@@@?$_Rb_tree@PAVMString@@U?$pair@QAVMString@@PAV1@@_STL@@U?$_Select1st@U?$pair@QAVMString@@PAV1@@_STL@@@3@VMStringPointerCompare@@V?$allocator@U?$pair@QAVMString@@PAV1@@_STL@@@3@@_STL@@ABEPAU?$_Rb_tree_node@U?$pair@QAVMString@@PAV1@@_STL@@@1@ABQAVMString@@@Z ; _STL::_Rb_tree<MString *,_STL::pair<MString * const,MString *>,_STL::_Select1st<_STL::pair<MString * const,MString *> >,MStringPointerCompare,_STL::allocator<_STL::pair<MString * const,MString *> > >::_M_find<MString *>
; Function compile flags: /Ogsy
; File c:\stlport-4.6.1\stlport\stl\_tree.h
;	COMDAT ??$_M_find@PAVMString@@@?$_Rb_tree@PAVMString@@U?$pair@QAVMString@@PAV1@@_STL@@U?$_Select1st@U?$pair@QAVMString@@PAV1@@_STL@@@3@VMStringPointerCompare@@V?$allocator@U?$pair@QAVMString@@PAV1@@_STL@@@3@@_STL@@ABEPAU?$_Rb_tree_node@U?$pair@QAVMString@@PAV1@@_STL@@@1@ABQAVMString@@@Z
_TEXT	SEGMENT
___k$ = 8						; size = 4
??$_M_find@PAVMString@@@?$_Rb_tree@PAVMString@@U?$pair@QAVMString@@PAV1@@_STL@@U?$_Select1st@U?$pair@QAVMString@@PAV1@@_STL@@@3@VMStringPointerCompare@@V?$allocator@U?$pair@QAVMString@@PAV1@@_STL@@@3@@_STL@@ABEPAU?$_Rb_tree_node@U?$pair@QAVMString@@PAV1@@_STL@@@1@ABQAVMString@@@Z PROC NEAR ; _STL::_Rb_tree<MString *,_STL::pair<MString * const,MString *>,_STL::_Select1st<_STL::pair<MString * const,MString *> >,MStringPointerCompare,_STL::allocator<_STL::pair<MString * const,MString *> > >::_M_find<MString *>, COMDAT
; _this$ = ecx

; 461  :   template <class _KT> _Rb_tree_node<_Value>* _M_find(const _KT& __k) const

  00000	53		 push	 ebx
  00001	55		 push	 ebp

; 462  : # else
; 463  :   iterator find(const key_type& __x) { return iterator(_M_find(__x)); }
; 464  :   const_iterator find(const key_type& __x) const { return const_iterator(_M_find(__x)); }
; 465  : private:
; 466  :   _Rb_tree_node<_Value>* _M_find(const key_type& __k) const
; 467  : # endif
; 468  :   {
; 469  :     _Link_type __y = this->_M_header._M_data;      // Last node which is not less than __k. 
; 470  :     _Link_type __x = _M_root();      // Current node. 
; 471  :     
; 472  :     while (__x != 0) 

  00002	8b 6c 24 0c	 mov	 ebp, DWORD PTR ___k$[esp+4]
  00006	56		 push	 esi
  00007	8b d9		 mov	 ebx, ecx
  00009	57		 push	 edi
  0000a	8b 3b		 mov	 edi, DWORD PTR [ebx]
  0000c	8b 77 04	 mov	 esi, DWORD PTR [edi+4]
  0000f	eb 1a		 jmp	 SHORT $L102985
$L101972:

; 473  :       if (!_M_key_compare(_S_key(__x), __k))

  00011	8b 45 00	 mov	 eax, DWORD PTR [ebp]
  00014	8b 4e 10	 mov	 ecx, DWORD PTR [esi+16]
  00017	50		 push	 eax
  00018	e8 00 00 00 00	 call	 ??MMString@@QAE_NABV0@@Z ; MString::operator<
  0001d	84 c0		 test	 al, al
  0001f	75 07		 jne	 SHORT $L101974

; 474  : 	__y = __x, __x = _S_left(__x);

  00021	8b fe		 mov	 edi, esi
  00023	8b 76 08	 mov	 esi, DWORD PTR [esi+8]

; 475  :       else

  00026	eb 03		 jmp	 SHORT $L102985
$L101974:

; 476  : 	__x = _S_right(__x);

  00028	8b 76 0c	 mov	 esi, DWORD PTR [esi+12]
$L102985:

; 462  : # else
; 463  :   iterator find(const key_type& __x) { return iterator(_M_find(__x)); }
; 464  :   const_iterator find(const key_type& __x) const { return const_iterator(_M_find(__x)); }
; 465  : private:
; 466  :   _Rb_tree_node<_Value>* _M_find(const key_type& __k) const
; 467  : # endif
; 468  :   {
; 469  :     _Link_type __y = this->_M_header._M_data;      // Last node which is not less than __k. 
; 470  :     _Link_type __x = _M_root();      // Current node. 
; 471  :     
; 472  :     while (__x != 0) 

  0002b	85 f6		 test	 esi, esi
  0002d	75 e2		 jne	 SHORT $L101972

; 477  :     if (__y == this->_M_header._M_data || _M_key_compare(__k, _S_key(__y)))

  0002f	3b 3b		 cmp	 edi, DWORD PTR [ebx]
  00031	74 10		 je	 SHORT $L101977
  00033	8b 47 10	 mov	 eax, DWORD PTR [edi+16]
  00036	8b 4d 00	 mov	 ecx, DWORD PTR [ebp]
  00039	50		 push	 eax
  0003a	e8 00 00 00 00	 call	 ??MMString@@QAE_NABV0@@Z ; MString::operator<
  0003f	84 c0		 test	 al, al
  00041	74 02		 je	 SHORT $L101976
$L101977:

; 478  :       __y = this->_M_header._M_data;

  00043	8b 3b		 mov	 edi, DWORD PTR [ebx]
$L101976:

; 479  :     return __y;

  00045	8b c7		 mov	 eax, edi
  00047	5f		 pop	 edi
  00048	5e		 pop	 esi
  00049	5d		 pop	 ebp
  0004a	5b		 pop	 ebx

; 480  :   }

  0004b	c2 04 00	 ret	 4
??$_M_find@PAVMString@@@?$_Rb_tree@PAVMString@@U?$pair@QAVMString@@PAV1@@_STL@@U?$_Select1st@U?$pair@QAVMString@@PAV1@@_STL@@@3@VMStringPointerCompare@@V?$allocator@U?$pair@QAVMString@@PAV1@@_STL@@@3@@_STL@@ABEPAU?$_Rb_tree_node@U?$pair@QAVMString@@PAV1@@_STL@@@1@ABQAVMString@@@Z ENDP ; _STL::_Rb_tree<MString *,_STL::pair<MString * const,MString *>,_STL::_Select1st<_STL::pair<MString * const,MString *> >,MStringPointerCompare,_STL::allocator<_STL::pair<MString * const,MString *> > >::_M_find<MString *>
_TEXT	ENDS
PUBLIC	??$_M_init@DV?$char_traits@D@_STL@@@_STL@@YA_NAAV?$basic_ostream@DV?$char_traits@D@_STL@@@0@@Z ; _STL::_M_init<char,_STL::char_traits<char> >
; Function compile flags: /Ogsy
; File c:\stlport-4.6.1\stlport\stl\_ostream.c
;	COMDAT ??$_M_init@DV?$char_traits@D@_STL@@@_STL@@YA_NAAV?$basic_ostream@DV?$char_traits@D@_STL@@@0@@Z
_TEXT	SEGMENT
___str$ = 8						; size = 4
??$_M_init@DV?$char_traits@D@_STL@@@_STL@@YA_NAAV?$basic_ostream@DV?$char_traits@D@_STL@@@0@@Z PROC NEAR ; _STL::_M_init<char,_STL::char_traits<char> >, COMDAT

; 37   : _M_init(basic_ostream<_CharT, _Traits>& __str) {

  00000	56		 push	 esi

; 38   :   if (__str.good()) {

  00001	8b 74 24 08	 mov	 esi, DWORD PTR ___str$[esp]
  00005	8b 06		 mov	 eax, DWORD PTR [esi]
  00007	8b 40 04	 mov	 eax, DWORD PTR [eax+4]
  0000a	8d 0c 30	 lea	 ecx, DWORD PTR [eax+esi]
  0000d	83 79 08 00	 cmp	 DWORD PTR [ecx+8], 0
  00011	75 36		 jne	 SHORT $L101992

; 39   :     // boris : check if this is needed !
; 40   :     if (!__str.rdbuf())

  00013	83 79 58 00	 cmp	 DWORD PTR [ecx+88], 0
  00017	75 0c		 jne	 SHORT $L103001

; 41   :       __str.setstate(ios_base::badbit);

  00019	8b 41 08	 mov	 eax, DWORD PTR [ecx+8]
  0001c	83 c8 01	 or	 eax, 1
  0001f	50		 push	 eax
  00020	e8 00 00 00 00	 call	 ?clear@?$basic_ios@DV?$char_traits@D@_STL@@@_STL@@QAEXH@Z ; _STL::basic_ios<char,_STL::char_traits<char> >::clear
$L103001:

; 42   :     if (__str.tie())

  00025	8b 06		 mov	 eax, DWORD PTR [esi]
  00027	8b 40 04	 mov	 eax, DWORD PTR [eax+4]
  0002a	8b 4c 30 5c	 mov	 ecx, DWORD PTR [eax+esi+92]
  0002e	85 c9		 test	 ecx, ecx
  00030	74 05		 je	 SHORT $L101994

; 43   :       __str.tie()->flush();

  00032	e8 00 00 00 00	 call	 ?flush@?$basic_ostream@DV?$char_traits@D@_STL@@@_STL@@QAEAAV12@XZ ; _STL::basic_ostream<char,_STL::char_traits<char> >::flush
$L101994:

; 44   :     return __str.good();

  00037	8b 06		 mov	 eax, DWORD PTR [esi]
  00039	8b 40 04	 mov	 eax, DWORD PTR [eax+4]
  0003c	33 c9		 xor	 ecx, ecx
  0003e	39 4c 30 08	 cmp	 DWORD PTR [eax+esi+8], ecx
  00042	5e		 pop	 esi
  00043	0f 94 c1	 sete	 cl
  00046	8a c1		 mov	 al, cl

; 47   : }

  00048	c3		 ret	 0
$L101992:

; 45   :   } else
; 46   :     return false;

  00049	32 c0		 xor	 al, al
  0004b	5e		 pop	 esi

; 47   : }

  0004c	c3		 ret	 0
??$_M_init@DV?$char_traits@D@_STL@@@_STL@@YA_NAAV?$basic_ostream@DV?$char_traits@D@_STL@@@0@@Z ENDP ; _STL::_M_init<char,_STL::char_traits<char> >
_TEXT	ENDS
PUBLIC	??$_Construct@U?$pair@QAVMString@@PAV1@@_STL@@U12@@_STL@@YAXPAU?$pair@QAVMString@@PAV1@@0@ABU10@@Z ; _STL::_Construct<_STL::pair<MString * const,MString *>,_STL::pair<MString * const,MString *> >
; Function compile flags: /Ogsy
; File c:\stlport-4.6.1\stlport\stl\_construct.h
;	COMDAT ??$_Construct@U?$pair@QAVMString@@PAV1@@_STL@@U12@@_STL@@YAXPAU?$pair@QAVMString@@PAV1@@0@ABU10@@Z
_TEXT	SEGMENT
___p$ = 8						; size = 4
___val$ = 12						; size = 4
??$_Construct@U?$pair@QAVMString@@PAV1@@_STL@@U12@@_STL@@YAXPAU?$pair@QAVMString@@PAV1@@0@ABU10@@Z PROC NEAR ; _STL::_Construct<_STL::pair<MString * const,MString *>,_STL::pair<MString * const,MString *> >, COMDAT

; 94   : # ifdef _STLP_DEBUG_UNINITIALIZED
; 95   : 	memset((char*)__p, _STLP_SHRED_BYTE, sizeof(_T1));
; 96   : # endif
; 97   :     _STLP_PLACEMENT_NEW (__p) _T1(__val);

  00000	8b 44 24 04	 mov	 eax, DWORD PTR ___p$[esp-4]
  00004	85 c0		 test	 eax, eax
  00006	74 0e		 je	 SHORT $L103022
  00008	8b 4c 24 08	 mov	 ecx, DWORD PTR ___val$[esp-4]
  0000c	8b 11		 mov	 edx, DWORD PTR [ecx]
  0000e	89 10		 mov	 DWORD PTR [eax], edx
  00010	8b 49 04	 mov	 ecx, DWORD PTR [ecx+4]
  00013	89 48 04	 mov	 DWORD PTR [eax+4], ecx
$L103022:

; 98   : }

  00016	c3		 ret	 0
??$_Construct@U?$pair@QAVMString@@PAV1@@_STL@@U12@@_STL@@YAXPAU?$pair@QAVMString@@PAV1@@0@ABU10@@Z ENDP ; _STL::_Construct<_STL::pair<MString * const,MString *>,_STL::pair<MString * const,MString *> >
_TEXT	ENDS
PUBLIC	?begin@?$map@PAVMString@@PAV1@VMStringPointerCompare@@V?$allocator@U?$pair@QAVMString@@PAV1@@_STL@@@_STL@@@_STL@@QAE?AU?$_Rb_tree_iterator@U?$pair@QAVMString@@PAV1@@_STL@@U?$_Nonconst_traits@U?$pair@QAVMString@@PAV1@@_STL@@@2@@2@XZ ; _STL::map<MString *,MString *,MStringPointerCompare,_STL::allocator<_STL::pair<MString * const,MString *> > >::begin
; Function compile flags: /Ogsy
; File c:\stlport-4.6.1\stlport\stl\_map.h
;	COMDAT ?begin@?$map@PAVMString@@PAV1@VMStringPointerCompare@@V?$allocator@U?$pair@QAVMString@@PAV1@@_STL@@@_STL@@@_STL@@QAE?AU?$_Rb_tree_iterator@U?$pair@QAVMString@@PAV1@@_STL@@U?$_Nonconst_traits@U?$pair@QAVMString@@PAV1@@_STL@@@2@@2@XZ
_TEXT	SEGMENT
___$ReturnUdt$ = 8					; size = 4
?begin@?$map@PAVMString@@PAV1@VMStringPointerCompare@@V?$allocator@U?$pair@QAVMString@@PAV1@@_STL@@@_STL@@@_STL@@QAE?AU?$_Rb_tree_iterator@U?$pair@QAVMString@@PAV1@@_STL@@U?$_Nonconst_traits@U?$pair@QAVMString@@PAV1@@_STL@@@2@@2@XZ PROC NEAR ; _STL::map<MString *,MString *,MStringPointerCompare,_STL::allocator<_STL::pair<MString * const,MString *> > >::begin, COMDAT
; _this$ = ecx

; 147  :   iterator begin() { return _M_t.begin(); }

  00000	8b 01		 mov	 eax, DWORD PTR [ecx]
  00002	8b 48 08	 mov	 ecx, DWORD PTR [eax+8]
  00005	8b 44 24 04	 mov	 eax, DWORD PTR ___$ReturnUdt$[esp-4]
  00009	89 08		 mov	 DWORD PTR [eax], ecx
  0000b	c2 04 00	 ret	 4
?begin@?$map@PAVMString@@PAV1@VMStringPointerCompare@@V?$allocator@U?$pair@QAVMString@@PAV1@@_STL@@@_STL@@@_STL@@QAE?AU?$_Rb_tree_iterator@U?$pair@QAVMString@@PAV1@@_STL@@U?$_Nonconst_traits@U?$pair@QAVMString@@PAV1@@_STL@@@2@@2@XZ ENDP ; _STL::map<MString *,MString *,MStringPointerCompare,_STL::allocator<_STL::pair<MString * const,MString *> > >::begin
_TEXT	ENDS
PUBLIC	?end@?$map@PAVMString@@PAV1@VMStringPointerCompare@@V?$allocator@U?$pair@QAVMString@@PAV1@@_STL@@@_STL@@@_STL@@QAE?AU?$_Rb_tree_iterator@U?$pair@QAVMString@@PAV1@@_STL@@U?$_Nonconst_traits@U?$pair@QAVMString@@PAV1@@_STL@@@2@@2@XZ ; _STL::map<MString *,MString *,MStringPointerCompare,_STL::allocator<_STL::pair<MString * const,MString *> > >::end
; Function compile flags: /Ogsy
;	COMDAT ?end@?$map@PAVMString@@PAV1@VMStringPointerCompare@@V?$allocator@U?$pair@QAVMString@@PAV1@@_STL@@@_STL@@@_STL@@QAE?AU?$_Rb_tree_iterator@U?$pair@QAVMString@@PAV1@@_STL@@U?$_Nonconst_traits@U?$pair@QAVMString@@PAV1@@_STL@@@2@@2@XZ
_TEXT	SEGMENT
___$ReturnUdt$ = 8					; size = 4
?end@?$map@PAVMString@@PAV1@VMStringPointerCompare@@V?$allocator@U?$pair@QAVMString@@PAV1@@_STL@@@_STL@@@_STL@@QAE?AU?$_Rb_tree_iterator@U?$pair@QAVMString@@PAV1@@_STL@@U?$_Nonconst_traits@U?$pair@QAVMString@@PAV1@@_STL@@@2@@2@XZ PROC NEAR ; _STL::map<MString *,MString *,MStringPointerCompare,_STL::allocator<_STL::pair<MString * const,MString *> > >::end, COMDAT
; _this$ = ecx

; 149  :   iterator end() { return _M_t.end(); }

  00000	8b 09		 mov	 ecx, DWORD PTR [ecx]
  00002	8b 44 24 04	 mov	 eax, DWORD PTR ___$ReturnUdt$[esp-4]
  00006	89 08		 mov	 DWORD PTR [eax], ecx
  00008	c2 04 00	 ret	 4
?end@?$map@PAVMString@@PAV1@VMStringPointerCompare@@V?$allocator@U?$pair@QAVMString@@PAV1@@_STL@@@_STL@@@_STL@@QAE?AU?$_Rb_tree_iterator@U?$pair@QAVMString@@PAV1@@_STL@@U?$_Nonconst_traits@U?$pair@QAVMString@@PAV1@@_STL@@@2@@2@XZ ENDP ; _STL::map<MString *,MString *,MStringPointerCompare,_STL::allocator<_STL::pair<MString * const,MString *> > >::end
_TEXT	ENDS
PUBLIC	?end@?$map@PAVMString@@PAV1@VMStringPointerCompare@@V?$allocator@U?$pair@QAVMString@@PAV1@@_STL@@@_STL@@@_STL@@QBE?AU?$_Rb_tree_iterator@U?$pair@QAVMString@@PAV1@@_STL@@U?$_Const_traits@U?$pair@QAVMString@@PAV1@@_STL@@@2@@2@XZ ; _STL::map<MString *,MString *,MStringPointerCompare,_STL::allocator<_STL::pair<MString * const,MString *> > >::end
; Function compile flags: /Ogsy
;	COMDAT ?end@?$map@PAVMString@@PAV1@VMStringPointerCompare@@V?$allocator@U?$pair@QAVMString@@PAV1@@_STL@@@_STL@@@_STL@@QBE?AU?$_Rb_tree_iterator@U?$pair@QAVMString@@PAV1@@_STL@@U?$_Const_traits@U?$pair@QAVMString@@PAV1@@_STL@@@2@@2@XZ
_TEXT	SEGMENT
___$ReturnUdt$ = 8					; size = 4
?end@?$map@PAVMString@@PAV1@VMStringPointerCompare@@V?$allocator@U?$pair@QAVMString@@PAV1@@_STL@@@_STL@@@_STL@@QBE?AU?$_Rb_tree_iterator@U?$pair@QAVMString@@PAV1@@_STL@@U?$_Const_traits@U?$pair@QAVMString@@PAV1@@_STL@@@2@@2@XZ PROC NEAR ; _STL::map<MString *,MString *,MStringPointerCompare,_STL::allocator<_STL::pair<MString * const,MString *> > >::end, COMDAT
; _this$ = ecx

; 150  :   const_iterator end() const { return _M_t.end(); }

  00000	8b 09		 mov	 ecx, DWORD PTR [ecx]
  00002	8b 44 24 04	 mov	 eax, DWORD PTR ___$ReturnUdt$[esp-4]
  00006	89 08		 mov	 DWORD PTR [eax], ecx
  00008	c2 04 00	 ret	 4
?end@?$map@PAVMString@@PAV1@VMStringPointerCompare@@V?$allocator@U?$pair@QAVMString@@PAV1@@_STL@@@_STL@@@_STL@@QBE?AU?$_Rb_tree_iterator@U?$pair@QAVMString@@PAV1@@_STL@@U?$_Const_traits@U?$pair@QAVMString@@PAV1@@_STL@@@2@@2@XZ ENDP ; _STL::map<MString *,MString *,MStringPointerCompare,_STL::allocator<_STL::pair<MString * const,MString *> > >::end
_TEXT	ENDS
PUBLIC	?erase@?$_Rb_tree@PAVMString@@U?$pair@QAVMString@@PAV1@@_STL@@U?$_Select1st@U?$pair@QAVMString@@PAV1@@_STL@@@3@VMStringPointerCompare@@V?$allocator@U?$pair@QAVMString@@PAV1@@_STL@@@3@@_STL@@QAEXU?$_Rb_tree_iterator@U?$pair@QAVMString@@PAV1@@_STL@@U?$_Nonconst_traits@U?$pair@QAVMString@@PAV1@@_STL@@@2@@2@@Z ; _STL::_Rb_tree<MString *,_STL::pair<MString * const,MString *>,_STL::_Select1st<_STL::pair<MString * const,MString *> >,MStringPointerCompare,_STL::allocator<_STL::pair<MString * const,MString *> > >::erase
EXTRN	?_Rebalance_for_erase@?$_Rb_global@_N@_STL@@SAPAU_Rb_tree_node_base@2@PAU32@AAPAU32@11@Z:NEAR ; _STL::_Rb_global<bool>::_Rebalance_for_erase
; Function compile flags: /Ogsy
; File c:\stlport-4.6.1\stlport\stl\_tree.h
;	COMDAT ?erase@?$_Rb_tree@PAVMString@@U?$pair@QAVMString@@PAV1@@_STL@@U?$_Select1st@U?$pair@QAVMString@@PAV1@@_STL@@@3@VMStringPointerCompare@@V?$allocator@U?$pair@QAVMString@@PAV1@@_STL@@@3@@_STL@@QAEXU?$_Rb_tree_iterator@U?$pair@QAVMString@@PAV1@@_STL@@U?$_Nonconst_traits@U?$pair@QAVMString@@PAV1@@_STL@@@2@@2@@Z
_TEXT	SEGMENT
___position$ = 8					; size = 4
?erase@?$_Rb_tree@PAVMString@@U?$pair@QAVMString@@PAV1@@_STL@@U?$_Select1st@U?$pair@QAVMString@@PAV1@@_STL@@@3@VMStringPointerCompare@@V?$allocator@U?$pair@QAVMString@@PAV1@@_STL@@@3@@_STL@@QAEXU?$_Rb_tree_iterator@U?$pair@QAVMString@@PAV1@@_STL@@U?$_Nonconst_traits@U?$pair@QAVMString@@PAV1@@_STL@@@2@@2@@Z PROC NEAR ; _STL::_Rb_tree<MString *,_STL::pair<MString * const,MString *>,_STL::_Select1st<_STL::pair<MString * const,MString *> >,MStringPointerCompare,_STL::allocator<_STL::pair<MString * const,MString *> > >::erase, COMDAT
; _this$ = ecx

; 416  :   void erase(iterator __position) {

  00000	56		 push	 esi
  00001	8b f1		 mov	 esi, ecx

; 417  :     _Link_type __y = 
; 418  :       (_Link_type) _Rb_global_inst::_Rebalance_for_erase(__position._M_node,
; 419  : 							 this->_M_header._M_data->_M_parent,
; 420  : 							 this->_M_header._M_data->_M_left,
; 421  : 							 this->_M_header._M_data->_M_right);

  00003	8b 06		 mov	 eax, DWORD PTR [esi]
  00005	8d 48 0c	 lea	 ecx, DWORD PTR [eax+12]
  00008	51		 push	 ecx
  00009	8d 48 08	 lea	 ecx, DWORD PTR [eax+8]
  0000c	51		 push	 ecx
  0000d	83 c0 04	 add	 eax, 4
  00010	50		 push	 eax
  00011	ff 74 24 14	 push	 DWORD PTR ___position$[esp+12]
  00015	e8 00 00 00 00	 call	 ?_Rebalance_for_erase@?$_Rb_global@_N@_STL@@SAPAU_Rb_tree_node_base@2@PAU32@AAPAU32@11@Z ; _STL::_Rb_global<bool>::_Rebalance_for_erase
  0001a	83 c4 10	 add	 esp, 16			; 00000010H

; 422  :     _STLP_STD::_Destroy(&__y->_M_value_field);
; 423  :     this->_M_header.deallocate(__y,1);

  0001d	6a 01		 push	 1
  0001f	50		 push	 eax
  00020	8b ce		 mov	 ecx, esi
  00022	e8 00 00 00 00	 call	 ?deallocate@?$allocator@U?$_Rb_tree_node@U?$pair@QAVMString@@PAV1@@_STL@@@_STL@@@_STL@@QAEXPAU?$_Rb_tree_node@U?$pair@QAVMString@@PAV1@@_STL@@@2@I@Z ; _STL::allocator<_STL::_Rb_tree_node<_STL::pair<MString * const,MString *> > >::deallocate

; 424  :     --_M_node_count;

  00027	ff 4e 04	 dec	 DWORD PTR [esi+4]
  0002a	5e		 pop	 esi

; 425  :   }

  0002b	c2 04 00	 ret	 4
?erase@?$_Rb_tree@PAVMString@@U?$pair@QAVMString@@PAV1@@_STL@@U?$_Select1st@U?$pair@QAVMString@@PAV1@@_STL@@@3@VMStringPointerCompare@@V?$allocator@U?$pair@QAVMString@@PAV1@@_STL@@@3@@_STL@@QAEXU?$_Rb_tree_iterator@U?$pair@QAVMString@@PAV1@@_STL@@U?$_Nonconst_traits@U?$pair@QAVMString@@PAV1@@_STL@@@2@@2@@Z ENDP ; _STL::_Rb_tree<MString *,_STL::pair<MString * const,MString *>,_STL::_Select1st<_STL::pair<MString * const,MString *> >,MStringPointerCompare,_STL::allocator<_STL::pair<MString * const,MString *> > >::erase
_TEXT	ENDS
PUBLIC	?clear@?$_Rb_tree@PAVMString@@U?$pair@QAVMString@@PAV1@@_STL@@U?$_Select1st@U?$pair@QAVMString@@PAV1@@_STL@@@3@VMStringPointerCompare@@V?$allocator@U?$pair@QAVMString@@PAV1@@_STL@@@3@@_STL@@QAEXXZ ; _STL::_Rb_tree<MString *,_STL::pair<MString * const,MString *>,_STL::_Select1st<_STL::pair<MString * const,MString *> >,MStringPointerCompare,_STL::allocator<_STL::pair<MString * const,MString *> > >::clear
; Function compile flags: /Ogsy
;	COMDAT ?clear@?$_Rb_tree@PAVMString@@U?$pair@QAVMString@@PAV1@@_STL@@U?$_Select1st@U?$pair@QAVMString@@PAV1@@_STL@@@3@VMStringPointerCompare@@V?$allocator@U?$pair@QAVMString@@PAV1@@_STL@@@3@@_STL@@QAEXXZ
_TEXT	SEGMENT
?clear@?$_Rb_tree@PAVMString@@U?$pair@QAVMString@@PAV1@@_STL@@U?$_Select1st@U?$pair@QAVMString@@PAV1@@_STL@@@3@VMStringPointerCompare@@V?$allocator@U?$pair@QAVMString@@PAV1@@_STL@@@3@@_STL@@QAEXXZ PROC NEAR ; _STL::_Rb_tree<MString *,_STL::pair<MString * const,MString *>,_STL::_Select1st<_STL::pair<MString * const,MString *> >,MStringPointerCompare,_STL::allocator<_STL::pair<MString * const,MString *> > >::clear, COMDAT
; _this$ = ecx

; 445  :   void clear() {

  00000	56		 push	 esi
  00001	8b f1		 mov	 esi, ecx

; 446  :     if (_M_node_count != 0) {

  00003	83 7e 04 00	 cmp	 DWORD PTR [esi+4], 0
  00007	74 1e		 je	 SHORT $L101462

; 447  :       _M_erase(_M_root());

  00009	8b 06		 mov	 eax, DWORD PTR [esi]
  0000b	ff 70 04	 push	 DWORD PTR [eax+4]
  0000e	e8 00 00 00 00	 call	 ?_M_erase@?$_Rb_tree@PAVMString@@U?$pair@QAVMString@@PAV1@@_STL@@U?$_Select1st@U?$pair@QAVMString@@PAV1@@_STL@@@3@VMStringPointerCompare@@V?$allocator@U?$pair@QAVMString@@PAV1@@_STL@@@3@@_STL@@AAEXPAU?$_Rb_tree_node@U?$pair@QAVMString@@PAV1@@_STL@@@2@@Z ; _STL::_Rb_tree<MString *,_STL::pair<MString * const,MString *>,_STL::_Select1st<_STL::pair<MString * const,MString *> >,MStringPointerCompare,_STL::allocator<_STL::pair<MString * const,MString *> > >::_M_erase

; 448  :       _M_leftmost() = this->_M_header._M_data;

  00013	8b 06		 mov	 eax, DWORD PTR [esi]
  00015	89 40 08	 mov	 DWORD PTR [eax+8], eax

; 449  :       _M_root() = 0;

  00018	8b 06		 mov	 eax, DWORD PTR [esi]
  0001a	83 60 04 00	 and	 DWORD PTR [eax+4], 0

; 450  :       _M_rightmost() = this->_M_header._M_data;

  0001e	8b 06		 mov	 eax, DWORD PTR [esi]
  00020	89 40 0c	 mov	 DWORD PTR [eax+12], eax

; 451  :       _M_node_count = 0;

  00023	83 66 04 00	 and	 DWORD PTR [esi+4], 0
$L101462:
  00027	5e		 pop	 esi

; 452  :     }
; 453  :   }      

  00028	c3		 ret	 0
?clear@?$_Rb_tree@PAVMString@@U?$pair@QAVMString@@PAV1@@_STL@@U?$_Select1st@U?$pair@QAVMString@@PAV1@@_STL@@@3@VMStringPointerCompare@@V?$allocator@U?$pair@QAVMString@@PAV1@@_STL@@@3@@_STL@@QAEXXZ ENDP ; _STL::_Rb_tree<MString *,_STL::pair<MString * const,MString *>,_STL::_Select1st<_STL::pair<MString * const,MString *> >,MStringPointerCompare,_STL::allocator<_STL::pair<MString * const,MString *> > >::clear
_TEXT	ENDS
PUBLIC	??1?$_Rb_tree_base@U?$pair@QAVMString@@PAV1@@_STL@@V?$allocator@U?$pair@QAVMString@@PAV1@@_STL@@@2@@_STL@@QAE@XZ ; _STL::_Rb_tree_base<_STL::pair<MString * const,MString *>,_STL::allocator<_STL::pair<MString * const,MString *> > >::~_Rb_tree_base<_STL::pair<MString * const,MString *>,_STL::allocator<_STL::pair<MString * const,MString *> > >
; Function compile flags: /Ogsy
;	COMDAT ??1?$_Rb_tree_base@U?$pair@QAVMString@@PAV1@@_STL@@V?$allocator@U?$pair@QAVMString@@PAV1@@_STL@@@2@@_STL@@QAE@XZ
_TEXT	SEGMENT
??1?$_Rb_tree_base@U?$pair@QAVMString@@PAV1@@_STL@@V?$allocator@U?$pair@QAVMString@@PAV1@@_STL@@@2@@_STL@@QAE@XZ PROC NEAR ; _STL::_Rb_tree_base<_STL::pair<MString * const,MString *>,_STL::allocator<_STL::pair<MString * const,MString *> > >::~_Rb_tree_base<_STL::pair<MString * const,MString *>,_STL::allocator<_STL::pair<MString * const,MString *> > >, COMDAT
; _this$ = ecx

; 208  :     _M_header.deallocate(_M_header._M_data,1); 

  00000	6a 01		 push	 1
  00002	ff 31		 push	 DWORD PTR [ecx]
  00004	e8 00 00 00 00	 call	 ?deallocate@?$allocator@U?$_Rb_tree_node@U?$pair@QAVMString@@PAV1@@_STL@@@_STL@@@_STL@@QAEXPAU?$_Rb_tree_node@U?$pair@QAVMString@@PAV1@@_STL@@@2@I@Z ; _STL::allocator<_STL::_Rb_tree_node<_STL::pair<MString * const,MString *> > >::deallocate

; 209  :   }

  00009	c3		 ret	 0
??1?$_Rb_tree_base@U?$pair@QAVMString@@PAV1@@_STL@@V?$allocator@U?$pair@QAVMString@@PAV1@@_STL@@@2@@_STL@@QAE@XZ ENDP ; _STL::_Rb_tree_base<_STL::pair<MString * const,MString *>,_STL::allocator<_STL::pair<MString * const,MString *> > >::~_Rb_tree_base<_STL::pair<MString * const,MString *>,_STL::allocator<_STL::pair<MString * const,MString *> > >
_TEXT	ENDS
PUBLIC	??0?$_Rb_tree_base@U?$pair@QAVMString@@PAV1@@_STL@@V?$allocator@U?$pair@QAVMString@@PAV1@@_STL@@@2@@_STL@@QAE@ABV?$allocator@U?$pair@QAVMString@@PAV1@@_STL@@@1@@Z ; _STL::_Rb_tree_base<_STL::pair<MString * const,MString *>,_STL::allocator<_STL::pair<MString * const,MString *> > >::_Rb_tree_base<_STL::pair<MString * const,MString *>,_STL::allocator<_STL::pair<MString * const,MString *> > >
; Function compile flags: /Ogsy
;	COMDAT ??0?$_Rb_tree_base@U?$pair@QAVMString@@PAV1@@_STL@@V?$allocator@U?$pair@QAVMString@@PAV1@@_STL@@@2@@_STL@@QAE@ABV?$allocator@U?$pair@QAVMString@@PAV1@@_STL@@@1@@Z
_TEXT	SEGMENT
$T103099 = -1						; size = 1
___a$ = 8						; size = 4
??0?$_Rb_tree_base@U?$pair@QAVMString@@PAV1@@_STL@@V?$allocator@U?$pair@QAVMString@@PAV1@@_STL@@@2@@_STL@@QAE@ABV?$allocator@U?$pair@QAVMString@@PAV1@@_STL@@@1@@Z PROC NEAR ; _STL::_Rb_tree_base<_STL::pair<MString * const,MString *>,_STL::allocator<_STL::pair<MString * const,MString *> > >::_Rb_tree_base<_STL::pair<MString * const,MString *>,_STL::allocator<_STL::pair<MString * const,MString *> > >, COMDAT
; _this$ = ecx

; 204  :     _M_header(_STLP_CONVERT_ALLOCATOR(__a, _Node), (_Node*)0) { 

  00000	51		 push	 ecx
  00001	56		 push	 esi
  00002	6a 00		 push	 0
  00004	8d 44 24 0b	 lea	 eax, DWORD PTR $T103099[esp+12]
  00008	50		 push	 eax
  00009	8b f1		 mov	 esi, ecx
  0000b	e8 00 00 00 00	 call	 ??0?$_STLP_alloc_proxy@PAU?$_Rb_tree_node@U?$pair@QAVMString@@PAV1@@_STL@@@_STL@@U12@V?$allocator@U?$_Rb_tree_node@U?$pair@QAVMString@@PAV1@@_STL@@@_STL@@@2@@_STL@@QAE@ABV?$allocator@U?$_Rb_tree_node@U?$pair@QAVMString@@PAV1@@_STL@@@_STL@@@1@PAU?$_Rb_tree_node@U?$pair@QAVMString@@PAV1@@_STL@@@1@@Z ; _STL::_STLP_alloc_proxy<_STL::_Rb_tree_node<_STL::pair<MString * const,MString *> > *,_STL::_Rb_tree_node<_STL::pair<MString * const,MString *> >,_STL::allocator<_STL::_Rb_tree_node<_STL::pair<MString * const,MString *> > > >::_STLP_alloc_proxy<_STL::_Rb_tree_node<_STL::pair<MString * const,MString *> > *,_STL::_Rb_tree_node<_STL::pair<MString * const,MString *> >,_STL::allocator<_STL::_Rb_tree_node<_STL::pair<MString * const,MString *> > > >

; 205  :       _M_header._M_data = _M_header.allocate(1); 

  00010	6a 18		 push	 24			; 00000018H
  00012	e8 00 00 00 00	 call	 ?allocate@?$__node_alloc@$00$0A@@_STL@@SAPAXI@Z ; _STL::__node_alloc<1,0>::allocate
  00017	89 06		 mov	 DWORD PTR [esi], eax
  00019	59		 pop	 ecx

; 206  :   }

  0001a	8b c6		 mov	 eax, esi
  0001c	5e		 pop	 esi
  0001d	59		 pop	 ecx
  0001e	c2 04 00	 ret	 4
??0?$_Rb_tree_base@U?$pair@QAVMString@@PAV1@@_STL@@V?$allocator@U?$pair@QAVMString@@PAV1@@_STL@@@2@@_STL@@QAE@ABV?$allocator@U?$pair@QAVMString@@PAV1@@_STL@@@1@@Z ENDP ; _STL::_Rb_tree_base<_STL::pair<MString * const,MString *>,_STL::allocator<_STL::pair<MString * const,MString *> > >::_Rb_tree_base<_STL::pair<MString * const,MString *>,_STL::allocator<_STL::pair<MString * const,MString *> > >
_TEXT	ENDS
PUBLIC	??$find@PAVMString@@@?$_Rb_tree@PAVMString@@U?$pair@QAVMString@@PAV1@@_STL@@U?$_Select1st@U?$pair@QAVMString@@PAV1@@_STL@@@3@VMStringPointerCompare@@V?$allocator@U?$pair@QAVMString@@PAV1@@_STL@@@3@@_STL@@QAE?AU?$_Rb_tree_iterator@U?$pair@QAVMString@@PAV1@@_STL@@U?$_Nonconst_traits@U?$pair@QAVMString@@PAV1@@_STL@@@2@@1@ABQAVMString@@@Z ; _STL::_Rb_tree<MString *,_STL::pair<MString * const,MString *>,_STL::_Select1st<_STL::pair<MString * const,MString *> >,MStringPointerCompare,_STL::allocator<_STL::pair<MString * const,MString *> > >::find<MString *>
; Function compile flags: /Ogsy
;	COMDAT ??$find@PAVMString@@@?$_Rb_tree@PAVMString@@U?$pair@QAVMString@@PAV1@@_STL@@U?$_Select1st@U?$pair@QAVMString@@PAV1@@_STL@@@3@VMStringPointerCompare@@V?$allocator@U?$pair@QAVMString@@PAV1@@_STL@@@3@@_STL@@QAE?AU?$_Rb_tree_iterator@U?$pair@QAVMString@@PAV1@@_STL@@U?$_Nonconst_traits@U?$pair@QAVMString@@PAV1@@_STL@@@2@@1@ABQAVMString@@@Z
_TEXT	SEGMENT
___$ReturnUdt$ = 8					; size = 4
___x$ = 12						; size = 4
??$find@PAVMString@@@?$_Rb_tree@PAVMString@@U?$pair@QAVMString@@PAV1@@_STL@@U?$_Select1st@U?$pair@QAVMString@@PAV1@@_STL@@@3@VMStringPointerCompare@@V?$allocator@U?$pair@QAVMString@@PAV1@@_STL@@@3@@_STL@@QAE?AU?$_Rb_tree_iterator@U?$pair@QAVMString@@PAV1@@_STL@@U?$_Nonconst_traits@U?$pair@QAVMString@@PAV1@@_STL@@@2@@1@ABQAVMString@@@Z PROC NEAR ; _STL::_Rb_tree<MString *,_STL::pair<MString * const,MString *>,_STL::_Select1st<_STL::pair<MString * const,MString *> >,MStringPointerCompare,_STL::allocator<_STL::pair<MString * const,MString *> > >::find<MString *>, COMDAT
; _this$ = ecx

; 458  :   template <class _KT> iterator find(const _KT& __x) { return iterator(_M_find(__x)); }

  00000	ff 74 24 08	 push	 DWORD PTR ___x$[esp-4]
  00004	e8 00 00 00 00	 call	 ??$_M_find@PAVMString@@@?$_Rb_tree@PAVMString@@U?$pair@QAVMString@@PAV1@@_STL@@U?$_Select1st@U?$pair@QAVMString@@PAV1@@_STL@@@3@VMStringPointerCompare@@V?$allocator@U?$pair@QAVMString@@PAV1@@_STL@@@3@@_STL@@ABEPAU?$_Rb_tree_node@U?$pair@QAVMString@@PAV1@@_STL@@@1@ABQAVMString@@@Z ; _STL::_Rb_tree<MString *,_STL::pair<MString * const,MString *>,_STL::_Select1st<_STL::pair<MString * const,MString *> >,MStringPointerCompare,_STL::allocator<_STL::pair<MString * const,MString *> > >::_M_find<MString *>
  00009	8b 4c 24 04	 mov	 ecx, DWORD PTR ___$ReturnUdt$[esp-4]
  0000d	89 01		 mov	 DWORD PTR [ecx], eax
  0000f	8b c1		 mov	 eax, ecx
  00011	c2 08 00	 ret	 8
??$find@PAVMString@@@?$_Rb_tree@PAVMString@@U?$pair@QAVMString@@PAV1@@_STL@@U?$_Select1st@U?$pair@QAVMString@@PAV1@@_STL@@@3@VMStringPointerCompare@@V?$allocator@U?$pair@QAVMString@@PAV1@@_STL@@@3@@_STL@@QAE?AU?$_Rb_tree_iterator@U?$pair@QAVMString@@PAV1@@_STL@@U?$_Nonconst_traits@U?$pair@QAVMString@@PAV1@@_STL@@@2@@1@ABQAVMString@@@Z ENDP ; _STL::_Rb_tree<MString *,_STL::pair<MString * const,MString *>,_STL::_Select1st<_STL::pair<MString * const,MString *> >,MStringPointerCompare,_STL::allocator<_STL::pair<MString * const,MString *> > >::find<MString *>
_TEXT	ENDS
PUBLIC	??$find@PAVMString@@@?$_Rb_tree@PAVMString@@U?$pair@QAVMString@@PAV1@@_STL@@U?$_Select1st@U?$pair@QAVMString@@PAV1@@_STL@@@3@VMStringPointerCompare@@V?$allocator@U?$pair@QAVMString@@PAV1@@_STL@@@3@@_STL@@QBE?AU?$_Rb_tree_iterator@U?$pair@QAVMString@@PAV1@@_STL@@U?$_Const_traits@U?$pair@QAVMString@@PAV1@@_STL@@@2@@1@ABQAVMString@@@Z ; _STL::_Rb_tree<MString *,_STL::pair<MString * const,MString *>,_STL::_Select1st<_STL::pair<MString * const,MString *> >,MStringPointerCompare,_STL::allocator<_STL::pair<MString * const,MString *> > >::find<MString *>
; Function compile flags: /Ogsy
;	COMDAT ??$find@PAVMString@@@?$_Rb_tree@PAVMString@@U?$pair@QAVMString@@PAV1@@_STL@@U?$_Select1st@U?$pair@QAVMString@@PAV1@@_STL@@@3@VMStringPointerCompare@@V?$allocator@U?$pair@QAVMString@@PAV1@@_STL@@@3@@_STL@@QBE?AU?$_Rb_tree_iterator@U?$pair@QAVMString@@PAV1@@_STL@@U?$_Const_traits@U?$pair@QAVMString@@PAV1@@_STL@@@2@@1@ABQAVMString@@@Z
_TEXT	SEGMENT
___$ReturnUdt$ = 8					; size = 4
___x$ = 12						; size = 4
??$find@PAVMString@@@?$_Rb_tree@PAVMString@@U?$pair@QAVMString@@PAV1@@_STL@@U?$_Select1st@U?$pair@QAVMString@@PAV1@@_STL@@@3@VMStringPointerCompare@@V?$allocator@U?$pair@QAVMString@@PAV1@@_STL@@@3@@_STL@@QBE?AU?$_Rb_tree_iterator@U?$pair@QAVMString@@PAV1@@_STL@@U?$_Const_traits@U?$pair@QAVMString@@PAV1@@_STL@@@2@@1@ABQAVMString@@@Z PROC NEAR ; _STL::_Rb_tree<MString *,_STL::pair<MString * const,MString *>,_STL::_Select1st<_STL::pair<MString * const,MString *> >,MStringPointerCompare,_STL::allocator<_STL::pair<MString * const,MString *> > >::find<MString *>, COMDAT
; _this$ = ecx

; 459  :   template <class _KT> const_iterator find(const _KT& __x) const { return const_iterator(_M_find(__x)); }

  00000	ff 74 24 08	 push	 DWORD PTR ___x$[esp-4]
  00004	e8 00 00 00 00	 call	 ??$_M_find@PAVMString@@@?$_Rb_tree@PAVMString@@U?$pair@QAVMString@@PAV1@@_STL@@U?$_Select1st@U?$pair@QAVMString@@PAV1@@_STL@@@3@VMStringPointerCompare@@V?$allocator@U?$pair@QAVMString@@PAV1@@_STL@@@3@@_STL@@ABEPAU?$_Rb_tree_node@U?$pair@QAVMString@@PAV1@@_STL@@@1@ABQAVMString@@@Z ; _STL::_Rb_tree<MString *,_STL::pair<MString * const,MString *>,_STL::_Select1st<_STL::pair<MString * const,MString *> >,MStringPointerCompare,_STL::allocator<_STL::pair<MString * const,MString *> > >::_M_find<MString *>
  00009	8b 4c 24 04	 mov	 ecx, DWORD PTR ___$ReturnUdt$[esp-4]
  0000d	89 01		 mov	 DWORD PTR [ecx], eax
  0000f	8b c1		 mov	 eax, ecx
  00011	c2 08 00	 ret	 8
??$find@PAVMString@@@?$_Rb_tree@PAVMString@@U?$pair@QAVMString@@PAV1@@_STL@@U?$_Select1st@U?$pair@QAVMString@@PAV1@@_STL@@@3@VMStringPointerCompare@@V?$allocator@U?$pair@QAVMString@@PAV1@@_STL@@@3@@_STL@@QBE?AU?$_Rb_tree_iterator@U?$pair@QAVMString@@PAV1@@_STL@@U?$_Const_traits@U?$pair@QAVMString@@PAV1@@_STL@@@2@@1@ABQAVMString@@@Z ENDP ; _STL::_Rb_tree<MString *,_STL::pair<MString * const,MString *>,_STL::_Select1st<_STL::pair<MString * const,MString *> >,MStringPointerCompare,_STL::allocator<_STL::pair<MString * const,MString *> > >::find<MString *>
_TEXT	ENDS
PUBLIC	??0sentry@?$basic_ostream@DV?$char_traits@D@_STL@@@_STL@@QAE@AAV12@@Z ; _STL::basic_ostream<char,_STL::char_traits<char> >::sentry::sentry
; Function compile flags: /Ogsy
; File c:\stlport-4.6.1\stlport\stl\_ostream.h
;	COMDAT ??0sentry@?$basic_ostream@DV?$char_traits@D@_STL@@@_STL@@QAE@AAV12@@Z
_TEXT	SEGMENT
___str$ = 8						; size = 4
??0sentry@?$basic_ostream@DV?$char_traits@D@_STL@@@_STL@@QAE@AAV12@@Z PROC NEAR ; _STL::basic_ostream<char,_STL::char_traits<char> >::sentry::sentry, COMDAT
; _this$ = ecx

; 165  :       {

  00000	8b 44 24 04	 mov	 eax, DWORD PTR ___str$[esp-4]
  00004	56		 push	 esi
  00005	8b f1		 mov	 esi, ecx
  00007	50		 push	 eax
  00008	89 06		 mov	 DWORD PTR [esi], eax
  0000a	e8 00 00 00 00	 call	 ??$_M_init@DV?$char_traits@D@_STL@@@_STL@@YA_NAAV?$basic_ostream@DV?$char_traits@D@_STL@@@0@@Z ; _STL::_M_init<char,_STL::char_traits<char> >
  0000f	88 46 04	 mov	 BYTE PTR [esi+4], al
  00012	59		 pop	 ecx

; 166  :       }

  00013	8b c6		 mov	 eax, esi
  00015	5e		 pop	 esi
  00016	c2 04 00	 ret	 4
??0sentry@?$basic_ostream@DV?$char_traits@D@_STL@@@_STL@@QAE@AAV12@@Z ENDP ; _STL::basic_ostream<char,_STL::char_traits<char> >::sentry::sentry
_TEXT	ENDS
PUBLIC	??1sentry@?$basic_ostream@DV?$char_traits@D@_STL@@@_STL@@QAE@XZ ; _STL::basic_ostream<char,_STL::char_traits<char> >::sentry::~sentry
; Function compile flags: /Ogsy
;	COMDAT ??1sentry@?$basic_ostream@DV?$char_traits@D@_STL@@@_STL@@QAE@XZ
_TEXT	SEGMENT
??1sentry@?$basic_ostream@DV?$char_traits@D@_STL@@@_STL@@QAE@XZ PROC NEAR ; _STL::basic_ostream<char,_STL::char_traits<char> >::sentry::~sentry, COMDAT
; _this$ = ecx

; 169  :         if (_M_str.flags() & ios_base::unitbuf)

  00000	8b 09		 mov	 ecx, DWORD PTR [ecx]
  00002	8b 01		 mov	 eax, DWORD PTR [ecx]
  00004	8b 40 04	 mov	 eax, DWORD PTR [eax+4]
  00007	f6 44 08 05 20	 test	 BYTE PTR [eax+ecx+5], 32 ; 00000020H
  0000c	74 05		 je	 SHORT $L101846

; 170  : # ifndef _STLP_INCOMPLETE_EXCEPTION_HEADER 
; 171  :           if (!_STLP_VENDOR_EXCEPT_STD::uncaught_exception())
; 172  : # endif
; 173  :             _M_str.flush();

  0000e	e9 00 00 00 00	 jmp	 ?flush@?$basic_ostream@DV?$char_traits@D@_STL@@@_STL@@QAEAAV12@XZ ; _STL::basic_ostream<char,_STL::char_traits<char> >::flush
$L101846:

; 174  :       }

  00013	c3		 ret	 0
??1sentry@?$basic_ostream@DV?$char_traits@D@_STL@@@_STL@@QAE@XZ ENDP ; _STL::basic_ostream<char,_STL::char_traits<char> >::sentry::~sentry
_TEXT	ENDS
PUBLIC	?_M_create_node@?$_Rb_tree@PAVMString@@U?$pair@QAVMString@@PAV1@@_STL@@U?$_Select1st@U?$pair@QAVMString@@PAV1@@_STL@@@3@VMStringPointerCompare@@V?$allocator@U?$pair@QAVMString@@PAV1@@_STL@@@3@@_STL@@IAEPAU?$_Rb_tree_node@U?$pair@QAVMString@@PAV1@@_STL@@@2@ABU?$pair@QAVMString@@PAV1@@2@@Z ; _STL::_Rb_tree<MString *,_STL::pair<MString * const,MString *>,_STL::_Select1st<_STL::pair<MString * const,MString *> >,MStringPointerCompare,_STL::allocator<_STL::pair<MString * const,MString *> > >::_M_create_node
; Function compile flags: /Ogsy
; File c:\stlport-4.6.1\stlport\stl\_tree.h
;	COMDAT ?_M_create_node@?$_Rb_tree@PAVMString@@U?$pair@QAVMString@@PAV1@@_STL@@U?$_Select1st@U?$pair@QAVMString@@PAV1@@_STL@@@3@VMStringPointerCompare@@V?$allocator@U?$pair@QAVMString@@PAV1@@_STL@@@3@@_STL@@IAEPAU?$_Rb_tree_node@U?$pair@QAVMString@@PAV1@@_STL@@@2@ABU?$pair@QAVMString@@PAV1@@2@@Z
_TEXT	SEGMENT
___x$ = 8						; size = 4
?_M_create_node@?$_Rb_tree@PAVMString@@U?$pair@QAVMString@@PAV1@@_STL@@U?$_Select1st@U?$pair@QAVMString@@PAV1@@_STL@@@3@VMStringPointerCompare@@V?$allocator@U?$pair@QAVMString@@PAV1@@_STL@@@3@@_STL@@IAEPAU?$_Rb_tree_node@U?$pair@QAVMString@@PAV1@@_STL@@@2@ABU?$pair@QAVMString@@PAV1@@2@@Z PROC NEAR ; _STL::_Rb_tree<MString *,_STL::pair<MString * const,MString *>,_STL::_Select1st<_STL::pair<MString * const,MString *> >,MStringPointerCompare,_STL::allocator<_STL::pair<MString * const,MString *> > >::_M_create_node, COMDAT
; _this$ = ecx

; 242  :   {

  00000	56		 push	 esi

; 243  :     _Link_type __tmp = this->_M_header.allocate(1);

  00001	6a 18		 push	 24			; 00000018H
  00003	e8 00 00 00 00	 call	 ?allocate@?$__node_alloc@$00$0A@@_STL@@SAPAXI@Z ; _STL::__node_alloc<1,0>::allocate

; 244  :     _STLP_TRY {
; 245  :       _Construct(&__tmp->_M_value_field, __x);

  00008	ff 74 24 0c	 push	 DWORD PTR ___x$[esp+4]
  0000c	8b f0		 mov	 esi, eax
  0000e	8d 46 10	 lea	 eax, DWORD PTR [esi+16]
  00011	50		 push	 eax
  00012	e8 00 00 00 00	 call	 ??$_Construct@U?$pair@QAVMString@@PAV1@@_STL@@U12@@_STL@@YAXPAU?$pair@QAVMString@@PAV1@@0@ABU10@@Z ; _STL::_Construct<_STL::pair<MString * const,MString *>,_STL::pair<MString * const,MString *> >
  00017	83 c4 0c	 add	 esp, 12			; 0000000cH

; 246  :     }
; 247  :     _STLP_UNWIND(this->_M_header.deallocate(__tmp,1));
; 248  :     return __tmp;

  0001a	8b c6		 mov	 eax, esi
  0001c	5e		 pop	 esi

; 249  :   }

  0001d	c2 04 00	 ret	 4
?_M_create_node@?$_Rb_tree@PAVMString@@U?$pair@QAVMString@@PAV1@@_STL@@U?$_Select1st@U?$pair@QAVMString@@PAV1@@_STL@@@3@VMStringPointerCompare@@V?$allocator@U?$pair@QAVMString@@PAV1@@_STL@@@3@@_STL@@IAEPAU?$_Rb_tree_node@U?$pair@QAVMString@@PAV1@@_STL@@@2@ABU?$pair@QAVMString@@PAV1@@2@@Z ENDP ; _STL::_Rb_tree<MString *,_STL::pair<MString * const,MString *>,_STL::_Select1st<_STL::pair<MString * const,MString *> >,MStringPointerCompare,_STL::allocator<_STL::pair<MString * const,MString *> > >::_M_create_node
_TEXT	ENDS
PUBLIC	?erase@?$map@PAVMString@@PAV1@VMStringPointerCompare@@V?$allocator@U?$pair@QAVMString@@PAV1@@_STL@@@_STL@@@_STL@@QAEXU?$_Rb_tree_iterator@U?$pair@QAVMString@@PAV1@@_STL@@U?$_Nonconst_traits@U?$pair@QAVMString@@PAV1@@_STL@@@2@@2@@Z ; _STL::map<MString *,MString *,MStringPointerCompare,_STL::allocator<_STL::pair<MString * const,MString *> > >::erase
; Function compile flags: /Ogsy
; File c:\stlport-4.6.1\stlport\stl\_map.h
;	COMDAT ?erase@?$map@PAVMString@@PAV1@VMStringPointerCompare@@V?$allocator@U?$pair@QAVMString@@PAV1@@_STL@@@_STL@@@_STL@@QAEXU?$_Rb_tree_iterator@U?$pair@QAVMString@@PAV1@@_STL@@U?$_Nonconst_traits@U?$pair@QAVMString@@PAV1@@_STL@@@2@@2@@Z
_TEXT	SEGMENT
___position$ = 8					; size = 4
?erase@?$map@PAVMString@@PAV1@VMStringPointerCompare@@V?$allocator@U?$pair@QAVMString@@PAV1@@_STL@@@_STL@@@_STL@@QAEXU?$_Rb_tree_iterator@U?$pair@QAVMString@@PAV1@@_STL@@U?$_Nonconst_traits@U?$pair@QAVMString@@PAV1@@_STL@@@2@@2@@Z PROC NEAR ; _STL::map<MString *,MString *,MStringPointerCompare,_STL::allocator<_STL::pair<MString * const,MString *> > >::erase, COMDAT
; _this$ = ecx

; 187  :   void erase(iterator __position) { _M_t.erase(__position); }

  00000	8b 54 24 04	 mov	 edx, DWORD PTR ___position$[esp-4]
  00004	51		 push	 ecx
  00005	8b c4		 mov	 eax, esp
  00007	89 10		 mov	 DWORD PTR [eax], edx
  00009	e8 00 00 00 00	 call	 ?erase@?$_Rb_tree@PAVMString@@U?$pair@QAVMString@@PAV1@@_STL@@U?$_Select1st@U?$pair@QAVMString@@PAV1@@_STL@@@3@VMStringPointerCompare@@V?$allocator@U?$pair@QAVMString@@PAV1@@_STL@@@3@@_STL@@QAEXU?$_Rb_tree_iterator@U?$pair@QAVMString@@PAV1@@_STL@@U?$_Nonconst_traits@U?$pair@QAVMString@@PAV1@@_STL@@@2@@2@@Z ; _STL::_Rb_tree<MString *,_STL::pair<MString * const,MString *>,_STL::_Select1st<_STL::pair<MString * const,MString *> >,MStringPointerCompare,_STL::allocator<_STL::pair<MString * const,MString *> > >::erase
  0000e	c2 04 00	 ret	 4
?erase@?$map@PAVMString@@PAV1@VMStringPointerCompare@@V?$allocator@U?$pair@QAVMString@@PAV1@@_STL@@@_STL@@@_STL@@QAEXU?$_Rb_tree_iterator@U?$pair@QAVMString@@PAV1@@_STL@@U?$_Nonconst_traits@U?$pair@QAVMString@@PAV1@@_STL@@@2@@2@@Z ENDP ; _STL::map<MString *,MString *,MStringPointerCompare,_STL::allocator<_STL::pair<MString * const,MString *> > >::erase
_TEXT	ENDS
PUBLIC	?clear@?$map@PAVMString@@PAV1@VMStringPointerCompare@@V?$allocator@U?$pair@QAVMString@@PAV1@@_STL@@@_STL@@@_STL@@QAEXXZ ; _STL::map<MString *,MString *,MStringPointerCompare,_STL::allocator<_STL::pair<MString * const,MString *> > >::clear
; Function compile flags: /Ogsy
;	COMDAT ?clear@?$map@PAVMString@@PAV1@VMStringPointerCompare@@V?$allocator@U?$pair@QAVMString@@PAV1@@_STL@@@_STL@@@_STL@@QAEXXZ
_TEXT	SEGMENT
?clear@?$map@PAVMString@@PAV1@VMStringPointerCompare@@V?$allocator@U?$pair@QAVMString@@PAV1@@_STL@@@_STL@@@_STL@@QAEXXZ PROC NEAR ; _STL::map<MString *,MString *,MStringPointerCompare,_STL::allocator<_STL::pair<MString * const,MString *> > >::clear, COMDAT
; _this$ = ecx

; 191  :   void clear() { _M_t.clear(); }

  00000	e9 00 00 00 00	 jmp	 ?clear@?$_Rb_tree@PAVMString@@U?$pair@QAVMString@@PAV1@@_STL@@U?$_Select1st@U?$pair@QAVMString@@PAV1@@_STL@@@3@VMStringPointerCompare@@V?$allocator@U?$pair@QAVMString@@PAV1@@_STL@@@3@@_STL@@QAEXXZ ; _STL::_Rb_tree<MString *,_STL::pair<MString * const,MString *>,_STL::_Select1st<_STL::pair<MString * const,MString *> >,MStringPointerCompare,_STL::allocator<_STL::pair<MString * const,MString *> > >::clear
?clear@?$map@PAVMString@@PAV1@VMStringPointerCompare@@V?$allocator@U?$pair@QAVMString@@PAV1@@_STL@@@_STL@@@_STL@@QAEXXZ ENDP ; _STL::map<MString *,MString *,MStringPointerCompare,_STL::allocator<_STL::pair<MString * const,MString *> > >::clear
_TEXT	ENDS
PUBLIC	?find@?$map@PAVMString@@PAV1@VMStringPointerCompare@@V?$allocator@U?$pair@QAVMString@@PAV1@@_STL@@@_STL@@@_STL@@QAE?AU?$_Rb_tree_iterator@U?$pair@QAVMString@@PAV1@@_STL@@U?$_Nonconst_traits@U?$pair@QAVMString@@PAV1@@_STL@@@2@@2@ABQAVMString@@@Z ; _STL::map<MString *,MString *,MStringPointerCompare,_STL::allocator<_STL::pair<MString * const,MString *> > >::find
; Function compile flags: /Ogsy
;	COMDAT ?find@?$map@PAVMString@@PAV1@VMStringPointerCompare@@V?$allocator@U?$pair@QAVMString@@PAV1@@_STL@@@_STL@@@_STL@@QAE?AU?$_Rb_tree_iterator@U?$pair@QAVMString@@PAV1@@_STL@@U?$_Nonconst_traits@U?$pair@QAVMString@@PAV1@@_STL@@@2@@2@ABQAVMString@@@Z
_TEXT	SEGMENT
___$ReturnUdt$ = 8					; size = 4
___x$ = 12						; size = 4
?find@?$map@PAVMString@@PAV1@VMStringPointerCompare@@V?$allocator@U?$pair@QAVMString@@PAV1@@_STL@@@_STL@@@_STL@@QAE?AU?$_Rb_tree_iterator@U?$pair@QAVMString@@PAV1@@_STL@@U?$_Nonconst_traits@U?$pair@QAVMString@@PAV1@@_STL@@@2@@2@ABQAVMString@@@Z PROC NEAR ; _STL::map<MString *,MString *,MStringPointerCompare,_STL::allocator<_STL::pair<MString * const,MString *> > >::find, COMDAT
; _this$ = ecx

; 195  :   iterator find(const key_type& __x) { return _M_t.find(__x); }

  00000	ff 74 24 08	 push	 DWORD PTR ___x$[esp-4]
  00004	e8 00 00 00 00	 call	 ??$_M_find@PAVMString@@@?$_Rb_tree@PAVMString@@U?$pair@QAVMString@@PAV1@@_STL@@U?$_Select1st@U?$pair@QAVMString@@PAV1@@_STL@@@3@VMStringPointerCompare@@V?$allocator@U?$pair@QAVMString@@PAV1@@_STL@@@3@@_STL@@ABEPAU?$_Rb_tree_node@U?$pair@QAVMString@@PAV1@@_STL@@@1@ABQAVMString@@@Z ; _STL::_Rb_tree<MString *,_STL::pair<MString * const,MString *>,_STL::_Select1st<_STL::pair<MString * const,MString *> >,MStringPointerCompare,_STL::allocator<_STL::pair<MString * const,MString *> > >::_M_find<MString *>
  00009	8b 4c 24 04	 mov	 ecx, DWORD PTR ___$ReturnUdt$[esp-4]
  0000d	89 01		 mov	 DWORD PTR [ecx], eax
  0000f	8b c1		 mov	 eax, ecx
  00011	c2 08 00	 ret	 8
?find@?$map@PAVMString@@PAV1@VMStringPointerCompare@@V?$allocator@U?$pair@QAVMString@@PAV1@@_STL@@@_STL@@@_STL@@QAE?AU?$_Rb_tree_iterator@U?$pair@QAVMString@@PAV1@@_STL@@U?$_Nonconst_traits@U?$pair@QAVMString@@PAV1@@_STL@@@2@@2@ABQAVMString@@@Z ENDP ; _STL::map<MString *,MString *,MStringPointerCompare,_STL::allocator<_STL::pair<MString * const,MString *> > >::find
_TEXT	ENDS
PUBLIC	?find@?$map@PAVMString@@PAV1@VMStringPointerCompare@@V?$allocator@U?$pair@QAVMString@@PAV1@@_STL@@@_STL@@@_STL@@QBE?AU?$_Rb_tree_iterator@U?$pair@QAVMString@@PAV1@@_STL@@U?$_Const_traits@U?$pair@QAVMString@@PAV1@@_STL@@@2@@2@ABQAVMString@@@Z ; _STL::map<MString *,MString *,MStringPointerCompare,_STL::allocator<_STL::pair<MString * const,MString *> > >::find
; Function compile flags: /Ogsy
;	COMDAT ?find@?$map@PAVMString@@PAV1@VMStringPointerCompare@@V?$allocator@U?$pair@QAVMString@@PAV1@@_STL@@@_STL@@@_STL@@QBE?AU?$_Rb_tree_iterator@U?$pair@QAVMString@@PAV1@@_STL@@U?$_Const_traits@U?$pair@QAVMString@@PAV1@@_STL@@@2@@2@ABQAVMString@@@Z
_TEXT	SEGMENT
___$ReturnUdt$ = 8					; size = 4
___x$ = 12						; size = 4
?find@?$map@PAVMString@@PAV1@VMStringPointerCompare@@V?$allocator@U?$pair@QAVMString@@PAV1@@_STL@@@_STL@@@_STL@@QBE?AU?$_Rb_tree_iterator@U?$pair@QAVMString@@PAV1@@_STL@@U?$_Const_traits@U?$pair@QAVMString@@PAV1@@_STL@@@2@@2@ABQAVMString@@@Z PROC NEAR ; _STL::map<MString *,MString *,MStringPointerCompare,_STL::allocator<_STL::pair<MString * const,MString *> > >::find, COMDAT
; _this$ = ecx

; 196  :   const_iterator find(const key_type& __x) const { return _M_t.find(__x); }

  00000	ff 74 24 08	 push	 DWORD PTR ___x$[esp-4]
  00004	e8 00 00 00 00	 call	 ??$_M_find@PAVMString@@@?$_Rb_tree@PAVMString@@U?$pair@QAVMString@@PAV1@@_STL@@U?$_Select1st@U?$pair@QAVMString@@PAV1@@_STL@@@3@VMStringPointerCompare@@V?$allocator@U?$pair@QAVMString@@PAV1@@_STL@@@3@@_STL@@ABEPAU?$_Rb_tree_node@U?$pair@QAVMString@@PAV1@@_STL@@@1@ABQAVMString@@@Z ; _STL::_Rb_tree<MString *,_STL::pair<MString * const,MString *>,_STL::_Select1st<_STL::pair<MString * const,MString *> >,MStringPointerCompare,_STL::allocator<_STL::pair<MString * const,MString *> > >::_M_find<MString *>
  00009	8b 4c 24 04	 mov	 ecx, DWORD PTR ___$ReturnUdt$[esp-4]
  0000d	89 01		 mov	 DWORD PTR [ecx], eax
  0000f	8b c1		 mov	 eax, ecx
  00011	c2 08 00	 ret	 8
?find@?$map@PAVMString@@PAV1@VMStringPointerCompare@@V?$allocator@U?$pair@QAVMString@@PAV1@@_STL@@@_STL@@@_STL@@QBE?AU?$_Rb_tree_iterator@U?$pair@QAVMString@@PAV1@@_STL@@U?$_Const_traits@U?$pair@QAVMString@@PAV1@@_STL@@@2@@2@ABQAVMString@@@Z ENDP ; _STL::map<MString *,MString *,MStringPointerCompare,_STL::allocator<_STL::pair<MString * const,MString *> > >::find
_TEXT	ENDS
PUBLIC	??1?$_Rb_tree@PAVMString@@U?$pair@QAVMString@@PAV1@@_STL@@U?$_Select1st@U?$pair@QAVMString@@PAV1@@_STL@@@3@VMStringPointerCompare@@V?$allocator@U?$pair@QAVMString@@PAV1@@_STL@@@3@@_STL@@QAE@XZ ; _STL::_Rb_tree<MString *,_STL::pair<MString * const,MString *>,_STL::_Select1st<_STL::pair<MString * const,MString *> >,MStringPointerCompare,_STL::allocator<_STL::pair<MString * const,MString *> > >::~_Rb_tree<MString *,_STL::pair<MString * const,MString *>,_STL::_Select1st<_STL::pair<MString * const,MString *> >,MStringPointerCompare,_STL::allocator<_STL::pair<MString * const,MString *> > >
EXTRN	__EH_prolog:NEAR
EXTRN	__except_list:DWORD
EXTRN	___CxxFrameHandler:NEAR
;	COMDAT xdata$x
; File c:\stlport-4.6.1\stlport\stl\_alloc.h
xdata$x	SEGMENT
$T103209 DD	0ffffffffH
	DD	FLAT:$L103188
$T103205 DD	019930520H
	DD	01H
	DD	FLAT:$T103209
	DD	2 DUP(00H)
	DD	2 DUP(00H)
; Function compile flags: /Ogsy
; File c:\stlport-4.6.1\stlport\stl\_tree.h
xdata$x	ENDS
;	COMDAT ??1?$_Rb_tree@PAVMString@@U?$pair@QAVMString@@PAV1@@_STL@@U?$_Select1st@U?$pair@QAVMString@@PAV1@@_STL@@@3@VMStringPointerCompare@@V?$allocator@U?$pair@QAVMString@@PAV1@@_STL@@@3@@_STL@@QAE@XZ
_TEXT	SEGMENT
_this$ = -16						; size = 4
__$EHRec$ = -12						; size = 12
??1?$_Rb_tree@PAVMString@@U?$pair@QAVMString@@PAV1@@_STL@@U?$_Select1st@U?$pair@QAVMString@@PAV1@@_STL@@@3@VMStringPointerCompare@@V?$allocator@U?$pair@QAVMString@@PAV1@@_STL@@@3@@_STL@@QAE@XZ PROC NEAR ; _STL::_Rb_tree<MString *,_STL::pair<MString * const,MString *>,_STL::_Select1st<_STL::pair<MString * const,MString *> >,MStringPointerCompare,_STL::allocator<_STL::pair<MString * const,MString *> > >::~_Rb_tree<MString *,_STL::pair<MString * const,MString *>,_STL::_Select1st<_STL::pair<MString * const,MString *> >,MStringPointerCompare,_STL::allocator<_STL::pair<MString * const,MString *> > >, COMDAT
; _this$ = ecx

; 341  :   ~_Rb_tree() { clear(); }

  00000	b8 00 00 00 00	 mov	 eax, __ehhandler$??1?$_Rb_tree@PAVMString@@U?$pair@QAVMString@@PAV1@@_STL@@U?$_Select1st@U?$pair@QAVMString@@PAV1@@_STL@@@3@VMStringPointerCompare@@V?$allocator@U?$pair@QAVMString@@PAV1@@_STL@@@3@@_STL@@QAE@XZ
  00005	e8 00 00 00 00	 call	 __EH_prolog
  0000a	51		 push	 ecx
  0000b	56		 push	 esi
  0000c	8b f1		 mov	 esi, ecx
  0000e	89 75 f0	 mov	 DWORD PTR _this$[ebp], esi
  00011	83 65 fc 00	 and	 DWORD PTR __$EHRec$[ebp+8], 0
  00015	e8 00 00 00 00	 call	 ?clear@?$_Rb_tree@PAVMString@@U?$pair@QAVMString@@PAV1@@_STL@@U?$_Select1st@U?$pair@QAVMString@@PAV1@@_STL@@@3@VMStringPointerCompare@@V?$allocator@U?$pair@QAVMString@@PAV1@@_STL@@@3@@_STL@@QAEXXZ ; _STL::_Rb_tree<MString *,_STL::pair<MString * const,MString *>,_STL::_Select1st<_STL::pair<MString * const,MString *> >,MStringPointerCompare,_STL::allocator<_STL::pair<MString * const,MString *> > >::clear
  0001a	83 4d fc ff	 or	 DWORD PTR __$EHRec$[ebp+8], -1
  0001e	6a 01		 push	 1
  00020	ff 36		 push	 DWORD PTR [esi]
  00022	8b ce		 mov	 ecx, esi
  00024	e8 00 00 00 00	 call	 ?deallocate@?$allocator@U?$_Rb_tree_node@U?$pair@QAVMString@@PAV1@@_STL@@@_STL@@@_STL@@QAEXPAU?$_Rb_tree_node@U?$pair@QAVMString@@PAV1@@_STL@@@2@I@Z ; _STL::allocator<_STL::_Rb_tree_node<_STL::pair<MString * const,MString *> > >::deallocate
  00029	8b 4d f4	 mov	 ecx, DWORD PTR __$EHRec$[ebp]
  0002c	5e		 pop	 esi
  0002d	64 89 0d 00 00
	00 00		 mov	 DWORD PTR fs:__except_list, ecx
  00034	c9		 leave
  00035	c3		 ret	 0
_TEXT	ENDS
;	COMDAT text$x
text$x	SEGMENT
$L103188:
  00000	8b 4d f0	 mov	 ecx, DWORD PTR _this$[ebp]
  00003	e9 00 00 00 00	 jmp	 ??1?$_Rb_tree_base@U?$pair@QAVMString@@PAV1@@_STL@@V?$allocator@U?$pair@QAVMString@@PAV1@@_STL@@@2@@_STL@@QAE@XZ ; _STL::_Rb_tree_base<_STL::pair<MString * const,MString *>,_STL::allocator<_STL::pair<MString * const,MString *> > >::~_Rb_tree_base<_STL::pair<MString * const,MString *>,_STL::allocator<_STL::pair<MString * const,MString *> > >
__ehhandler$??1?$_Rb_tree@PAVMString@@U?$pair@QAVMString@@PAV1@@_STL@@U?$_Select1st@U?$pair@QAVMString@@PAV1@@_STL@@@3@VMStringPointerCompare@@V?$allocator@U?$pair@QAVMString@@PAV1@@_STL@@@3@@_STL@@QAE@XZ:
  00008	b8 00 00 00 00	 mov	 eax, OFFSET FLAT:$T103205
  0000d	e9 00 00 00 00	 jmp	 ___CxxFrameHandler
text$x	ENDS
??1?$_Rb_tree@PAVMString@@U?$pair@QAVMString@@PAV1@@_STL@@U?$_Select1st@U?$pair@QAVMString@@PAV1@@_STL@@@3@VMStringPointerCompare@@V?$allocator@U?$pair@QAVMString@@PAV1@@_STL@@@3@@_STL@@QAE@XZ ENDP ; _STL::_Rb_tree<MString *,_STL::pair<MString * const,MString *>,_STL::_Select1st<_STL::pair<MString * const,MString *> >,MStringPointerCompare,_STL::allocator<_STL::pair<MString * const,MString *> > >::~_Rb_tree<MString *,_STL::pair<MString * const,MString *>,_STL::_Select1st<_STL::pair<MString * const,MString *> >,MStringPointerCompare,_STL::allocator<_STL::pair<MString * const,MString *> > >
PUBLIC	??0?$_Rb_tree@PAVMString@@U?$pair@QAVMString@@PAV1@@_STL@@U?$_Select1st@U?$pair@QAVMString@@PAV1@@_STL@@@3@VMStringPointerCompare@@V?$allocator@U?$pair@QAVMString@@PAV1@@_STL@@@3@@_STL@@QAE@ABVMStringPointerCompare@@ABV?$allocator@U?$pair@QAVMString@@PAV1@@_STL@@@1@@Z ; _STL::_Rb_tree<MString *,_STL::pair<MString * const,MString *>,_STL::_Select1st<_STL::pair<MString * const,MString *> >,MStringPointerCompare,_STL::allocator<_STL::pair<MString * const,MString *> > >::_Rb_tree<MString *,_STL::pair<MString * const,MString *>,_STL::_Select1st<_STL::pair<MString * const,MString *> >,MStringPointerCompare,_STL::allocator<_STL::pair<MString * const,MString *> > >
; Function compile flags: /Ogsy
;	COMDAT ??0?$_Rb_tree@PAVMString@@U?$pair@QAVMString@@PAV1@@_STL@@U?$_Select1st@U?$pair@QAVMString@@PAV1@@_STL@@@3@VMStringPointerCompare@@V?$allocator@U?$pair@QAVMString@@PAV1@@_STL@@@3@@_STL@@QAE@ABVMStringPointerCompare@@ABV?$allocator@U?$pair@QAVMString@@PAV1@@_STL@@@1@@Z
_TEXT	SEGMENT
___comp$ = 8						; size = 4
___a$ = 12						; size = 4
??0?$_Rb_tree@PAVMString@@U?$pair@QAVMString@@PAV1@@_STL@@U?$_Select1st@U?$pair@QAVMString@@PAV1@@_STL@@@3@VMStringPointerCompare@@V?$allocator@U?$pair@QAVMString@@PAV1@@_STL@@@3@@_STL@@QAE@ABVMStringPointerCompare@@ABV?$allocator@U?$pair@QAVMString@@PAV1@@_STL@@@1@@Z PROC NEAR ; _STL::_Rb_tree<MString *,_STL::pair<MString * const,MString *>,_STL::_Select1st<_STL::pair<MString * const,MString *> >,MStringPointerCompare,_STL::allocator<_STL::pair<MString * const,MString *> > >::_Rb_tree<MString *,_STL::pair<MString * const,MString *>,_STL::_Select1st<_STL::pair<MString * const,MString *> >,MStringPointerCompare,_STL::allocator<_STL::pair<MString * const,MString *> > >, COMDAT
; _this$ = ecx

; 325  :     { _M_empty_initialize(); }

  00000	56		 push	 esi
  00001	ff 74 24 0c	 push	 DWORD PTR ___a$[esp]
  00005	8b f1		 mov	 esi, ecx
  00007	e8 00 00 00 00	 call	 ??0?$_Rb_tree_base@U?$pair@QAVMString@@PAV1@@_STL@@V?$allocator@U?$pair@QAVMString@@PAV1@@_STL@@@2@@_STL@@QAE@ABV?$allocator@U?$pair@QAVMString@@PAV1@@_STL@@@1@@Z ; _STL::_Rb_tree_base<_STL::pair<MString * const,MString *>,_STL::allocator<_STL::pair<MString * const,MString *> > >::_Rb_tree_base<_STL::pair<MString * const,MString *>,_STL::allocator<_STL::pair<MString * const,MString *> > >
  0000c	8b 0e		 mov	 ecx, DWORD PTR [esi]
  0000e	33 c0		 xor	 eax, eax
  00010	89 46 04	 mov	 DWORD PTR [esi+4], eax
  00013	88 01		 mov	 BYTE PTR [ecx], al
  00015	8b 0e		 mov	 ecx, DWORD PTR [esi]
  00017	89 41 04	 mov	 DWORD PTR [ecx+4], eax
  0001a	8b 06		 mov	 eax, DWORD PTR [esi]
  0001c	89 40 08	 mov	 DWORD PTR [eax+8], eax
  0001f	8b 06		 mov	 eax, DWORD PTR [esi]
  00021	89 40 0c	 mov	 DWORD PTR [eax+12], eax
  00024	8b c6		 mov	 eax, esi
  00026	5e		 pop	 esi
  00027	c2 08 00	 ret	 8
??0?$_Rb_tree@PAVMString@@U?$pair@QAVMString@@PAV1@@_STL@@U?$_Select1st@U?$pair@QAVMString@@PAV1@@_STL@@@3@VMStringPointerCompare@@V?$allocator@U?$pair@QAVMString@@PAV1@@_STL@@@3@@_STL@@QAE@ABVMStringPointerCompare@@ABV?$allocator@U?$pair@QAVMString@@PAV1@@_STL@@@1@@Z ENDP ; _STL::_Rb_tree<MString *,_STL::pair<MString * const,MString *>,_STL::_Select1st<_STL::pair<MString * const,MString *> >,MStringPointerCompare,_STL::allocator<_STL::pair<MString * const,MString *> > >::_Rb_tree<MString *,_STL::pair<MString * const,MString *>,_STL::_Select1st<_STL::pair<MString * const,MString *> >,MStringPointerCompare,_STL::allocator<_STL::pair<MString * const,MString *> > >
_TEXT	ENDS
PUBLIC	?write@?$basic_ostream@DV?$char_traits@D@_STL@@@_STL@@QAEAAV12@PBDH@Z ; _STL::basic_ostream<char,_STL::char_traits<char> >::write
;	COMDAT xdata$x
; File c:\stlport-4.6.1\stlport\stl\_ios_base.h
xdata$x	SEGMENT
$T103282 DD	0ffffffffH
	DD	FLAT:$L103246
	DD	00H
	DD	00H
	DD	00H
	DD	00H
$T103284 DD	00H
	DD	00H
	DD	00H
	DD	FLAT:$L103245
$T103283 DD	01H
	DD	01H
	DD	02H
	DD	01H
	DD	FLAT:$T103284
$T103279 DD	019930520H
	DD	03H
	DD	FLAT:$T103282
	DD	01H
	DD	FLAT:$T103283
	DD	2 DUP(00H)
; Function compile flags: /Ogsy
; File c:\stlport-4.6.1\stlport\stl\_ostream.c
xdata$x	ENDS
;	COMDAT ?write@?$basic_ostream@DV?$char_traits@D@_STL@@@_STL@@QAEAAV12@PBDH@Z
_TEXT	SEGMENT
___sentry$ = -32					; size = 8
_this$ = -24						; size = 4
___failed$ = -17					; size = 1
__$EHRec$ = -16						; size = 16
___s$ = 8						; size = 4
___n$ = 12						; size = 4
?write@?$basic_ostream@DV?$char_traits@D@_STL@@@_STL@@QAEAAV12@PBDH@Z PROC NEAR ; _STL::basic_ostream<char,_STL::char_traits<char> >::write, COMDAT
; _this$ = ecx

; 359  : {

  00000	b8 00 00 00 00	 mov	 eax, __ehhandler$?write@?$basic_ostream@DV?$char_traits@D@_STL@@@_STL@@QAEAAV12@PBDH@Z
  00005	e8 00 00 00 00	 call	 __EH_prolog
  0000a	83 ec 14	 sub	 esp, 20			; 00000014H
  0000d	53		 push	 ebx
  0000e	56		 push	 esi
  0000f	57		 push	 edi
  00010	8b f1		 mov	 esi, ecx
  00012	89 65 f0	 mov	 DWORD PTR __$EHRec$[ebp], esp

; 360  :   sentry __sentry(*this);

  00015	56		 push	 esi
  00016	8d 4d e0	 lea	 ecx, DWORD PTR ___sentry$[ebp]
  00019	89 75 e8	 mov	 DWORD PTR _this$[ebp], esi
  0001c	e8 00 00 00 00	 call	 ??0sentry@?$basic_ostream@DV?$char_traits@D@_STL@@@_STL@@QAE@AAV12@@Z ; _STL::basic_ostream<char,_STL::char_traits<char> >::sentry::sentry
  00021	83 65 fc 00	 and	 DWORD PTR __$EHRec$[ebp+12], 0

; 361  :   bool __failed = true;
; 362  : 
; 363  :   if (__sentry) {

  00025	80 7d e4 00	 cmp	 BYTE PTR ___sentry$[ebp+4], 0
  00029	c6 45 ef 01	 mov	 BYTE PTR ___failed$[ebp], 1
  0002d	74 3b		 je	 SHORT $L101599

; 364  :     _STLP_TRY {
; 365  :       __failed = this->rdbuf()->sputn(__s, __n) != __n;

  0002f	8b 06		 mov	 eax, DWORD PTR [esi]
  00031	8b 40 04	 mov	 eax, DWORD PTR [eax+4]
  00034	ff 75 0c	 push	 DWORD PTR ___n$[ebp]
  00037	8b 4c 30 58	 mov	 ecx, DWORD PTR [eax+esi+88]
  0003b	ff 75 08	 push	 DWORD PTR ___s$[ebp]
  0003e	8b 01		 mov	 eax, DWORD PTR [ecx]
  00040	c6 45 fc 01	 mov	 BYTE PTR __$EHRec$[ebp+12], 1
  00044	ff 50 28	 call	 DWORD PTR [eax+40]
  00047	3b 45 0c	 cmp	 eax, DWORD PTR ___n$[ebp]
  0004a	0f 95 45 ef	 setne	 BYTE PTR ___failed$[ebp]
  0004e	eb 1a		 jmp	 SHORT $L101599
$L103245:

; 366  :     }
; 367  :     _STLP_CATCH_ALL {
; 368  :       this->_M_handle_exception(ios_base::badbit);

  00050	8b 45 e8	 mov	 eax, DWORD PTR _this$[ebp]
  00053	8b 08		 mov	 ecx, DWORD PTR [eax]
  00055	8b 49 04	 mov	 ecx, DWORD PTR [ecx+4]
  00058	6a 01		 push	 1
  0005a	03 c8		 add	 ecx, eax
  0005c	e8 00 00 00 00	 call	 ?_M_handle_exception@?$basic_ios@DV?$char_traits@D@_STL@@@_STL@@QAEXH@Z ; _STL::basic_ios<char,_STL::char_traits<char> >::_M_handle_exception

; 369  :     }

  00061	b8 00 00 00 00	 mov	 eax, $L103280
  00066	c3		 ret	 0
$L103280:
  00067	8b 75 e8	 mov	 esi, DWORD PTR _this$[ebp]
$L101599:
  0006a	83 65 fc 00	 and	 DWORD PTR __$EHRec$[ebp+12], 0

; 370  :   }
; 371  : 
; 372  :   if (__failed)

  0006e	80 7d ef 00	 cmp	 BYTE PTR ___failed$[ebp], 0
  00072	74 13		 je	 SHORT $L103263

; 373  :     this->setstate(ios_base::badbit);

  00074	8b 06		 mov	 eax, DWORD PTR [esi]
  00076	8b 48 04	 mov	 ecx, DWORD PTR [eax+4]
  00079	03 ce		 add	 ecx, esi
  0007b	8b 41 08	 mov	 eax, DWORD PTR [ecx+8]
  0007e	83 c8 01	 or	 eax, 1
  00081	50		 push	 eax
  00082	e8 00 00 00 00	 call	 ?clear@?$basic_ios@DV?$char_traits@D@_STL@@@_STL@@QAEXH@Z ; _STL::basic_ios<char,_STL::char_traits<char> >::clear
$L103263:

; 374  : 
; 375  :   return *this;

  00087	8b 4d e0	 mov	 ecx, DWORD PTR ___sentry$[ebp]
  0008a	8b 01		 mov	 eax, DWORD PTR [ecx]
  0008c	8b 40 04	 mov	 eax, DWORD PTR [eax+4]
  0008f	83 4d fc ff	 or	 DWORD PTR __$EHRec$[ebp+12], -1
  00093	f6 44 08 05 20	 test	 BYTE PTR [eax+ecx+5], 32 ; 00000020H
  00098	74 05		 je	 SHORT $L103274
  0009a	e8 00 00 00 00	 call	 ?flush@?$basic_ostream@DV?$char_traits@D@_STL@@@_STL@@QAEAAV12@XZ ; _STL::basic_ostream<char,_STL::char_traits<char> >::flush
$L103274:

; 376  : }

  0009f	8b 4d f4	 mov	 ecx, DWORD PTR __$EHRec$[ebp+4]
  000a2	5f		 pop	 edi
  000a3	8b c6		 mov	 eax, esi
  000a5	5e		 pop	 esi
  000a6	64 89 0d 00 00
	00 00		 mov	 DWORD PTR fs:__except_list, ecx
  000ad	5b		 pop	 ebx
  000ae	c9		 leave
  000af	c2 08 00	 ret	 8
_TEXT	ENDS
;	COMDAT text$x
text$x	SEGMENT
$L103246:
  00000	8d 4d e0	 lea	 ecx, DWORD PTR ___sentry$[ebp]
  00003	e9 00 00 00 00	 jmp	 ??1sentry@?$basic_ostream@DV?$char_traits@D@_STL@@@_STL@@QAE@XZ ; _STL::basic_ostream<char,_STL::char_traits<char> >::sentry::~sentry
__ehhandler$?write@?$basic_ostream@DV?$char_traits@D@_STL@@@_STL@@QAEAAV12@PBDH@Z:
  00008	b8 00 00 00 00	 mov	 eax, OFFSET FLAT:$T103279
  0000d	e9 00 00 00 00	 jmp	 ___CxxFrameHandler
text$x	ENDS
?write@?$basic_ostream@DV?$char_traits@D@_STL@@@_STL@@QAEAAV12@PBDH@Z ENDP ; _STL::basic_ostream<char,_STL::char_traits<char> >::write
PUBLIC	?_M_insert@?$_Rb_tree@PAVMString@@U?$pair@QAVMString@@PAV1@@_STL@@U?$_Select1st@U?$pair@QAVMString@@PAV1@@_STL@@@3@VMStringPointerCompare@@V?$allocator@U?$pair@QAVMString@@PAV1@@_STL@@@3@@_STL@@AAE?AU?$_Rb_tree_iterator@U?$pair@QAVMString@@PAV1@@_STL@@U?$_Nonconst_traits@U?$pair@QAVMString@@PAV1@@_STL@@@2@@2@PAU_Rb_tree_node_base@2@0ABU?$pair@QAVMString@@PAV1@@2@0@Z ; _STL::_Rb_tree<MString *,_STL::pair<MString * const,MString *>,_STL::_Select1st<_STL::pair<MString * const,MString *> >,MStringPointerCompare,_STL::allocator<_STL::pair<MString * const,MString *> > >::_M_insert
EXTRN	?_Rebalance@?$_Rb_global@_N@_STL@@SAXPAU_Rb_tree_node_base@2@AAPAU32@@Z:NEAR ; _STL::_Rb_global<bool>::_Rebalance
; Function compile flags: /Ogsy
; File c:\stlport-4.6.1\stlport\stl\_tree.c
;	COMDAT ?_M_insert@?$_Rb_tree@PAVMString@@U?$pair@QAVMString@@PAV1@@_STL@@U?$_Select1st@U?$pair@QAVMString@@PAV1@@_STL@@@3@VMStringPointerCompare@@V?$allocator@U?$pair@QAVMString@@PAV1@@_STL@@@3@@_STL@@AAE?AU?$_Rb_tree_iterator@U?$pair@QAVMString@@PAV1@@_STL@@U?$_Nonconst_traits@U?$pair@QAVMString@@PAV1@@_STL@@@2@@2@PAU_Rb_tree_node_base@2@0ABU?$pair@QAVMString@@PAV1@@2@0@Z
_TEXT	SEGMENT
___$ReturnUdt$ = 8					; size = 4
___x_$ = 12						; size = 4
___y_$ = 16						; size = 4
___v$ = 20						; size = 4
___w_$ = 24						; size = 4
?_M_insert@?$_Rb_tree@PAVMString@@U?$pair@QAVMString@@PAV1@@_STL@@U?$_Select1st@U?$pair@QAVMString@@PAV1@@_STL@@@3@VMStringPointerCompare@@V?$allocator@U?$pair@QAVMString@@PAV1@@_STL@@@3@@_STL@@AAE?AU?$_Rb_tree_iterator@U?$pair@QAVMString@@PAV1@@_STL@@U?$_Nonconst_traits@U?$pair@QAVMString@@PAV1@@_STL@@@2@@2@PAU_Rb_tree_node_base@2@0ABU?$pair@QAVMString@@PAV1@@2@0@Z PROC NEAR ; _STL::_Rb_tree<MString *,_STL::pair<MString * const,MString *>,_STL::_Select1st<_STL::pair<MString * const,MString *> >,MStringPointerCompare,_STL::allocator<_STL::pair<MString * const,MString *> > >::_M_insert, COMDAT
; _this$ = ecx

; 347  : {

  00000	55		 push	 ebp
  00001	8b ec		 mov	 ebp, esp
  00003	53		 push	 ebx

; 348  :   _Link_type __w = (_Link_type) __w_;
; 349  :   _Link_type __x = (_Link_type) __x_;
; 350  :   _Link_type __y = (_Link_type) __y_;
; 351  :   _Link_type __z;
; 352  : 
; 353  :   if ( __y == this->_M_header._M_data ||
; 354  :        ( __w == 0 && // If w != 0, the remainder fails to false
; 355  :          ( __x != 0 ||     // If x != 0, the remainder succeeds to true
; 356  :            _M_key_compare( _KeyOfValue()(__v), _S_key(__y) ) )
; 357  : 	 )
; 358  :        ) {

  00004	8b 5d 10	 mov	 ebx, DWORD PTR ___y_$[ebp]
  00007	56		 push	 esi
  00008	8b 75 14	 mov	 esi, DWORD PTR ___v$[ebp]
  0000b	57		 push	 edi
  0000c	8b f9		 mov	 edi, ecx
  0000e	3b 1f		 cmp	 ebx, DWORD PTR [edi]
  00010	74 34		 je	 SHORT $L101960
  00012	83 7d 18 00	 cmp	 DWORD PTR ___w_$[ebp], 0
  00016	75 15		 jne	 SHORT $L101958
  00018	83 7d 0c 00	 cmp	 DWORD PTR ___x_$[ebp], 0
  0001c	75 28		 jne	 SHORT $L101960
  0001e	8b 43 10	 mov	 eax, DWORD PTR [ebx+16]
  00021	8b 0e		 mov	 ecx, DWORD PTR [esi]
  00023	50		 push	 eax
  00024	e8 00 00 00 00	 call	 ??MMString@@QAE_NABV0@@Z ; MString::operator<
  00029	84 c0		 test	 al, al
  0002b	75 19		 jne	 SHORT $L101960
$L101958:

; 369  :   }
; 370  :   else {
; 371  :     __z = _M_create_node(__v);

  0002d	56		 push	 esi
  0002e	8b cf		 mov	 ecx, edi
  00030	e8 00 00 00 00	 call	 ?_M_create_node@?$_Rb_tree@PAVMString@@U?$pair@QAVMString@@PAV1@@_STL@@U?$_Select1st@U?$pair@QAVMString@@PAV1@@_STL@@@3@VMStringPointerCompare@@V?$allocator@U?$pair@QAVMString@@PAV1@@_STL@@@3@@_STL@@IAEPAU?$_Rb_tree_node@U?$pair@QAVMString@@PAV1@@_STL@@@2@ABU?$pair@QAVMString@@PAV1@@2@@Z ; _STL::_Rb_tree<MString *,_STL::pair<MString * const,MString *>,_STL::_Select1st<_STL::pair<MString * const,MString *> >,MStringPointerCompare,_STL::allocator<_STL::pair<MString * const,MString *> > >::_M_create_node
  00035	8b f0		 mov	 esi, eax

; 372  :     _S_right(__y) = __z;

  00037	89 73 0c	 mov	 DWORD PTR [ebx+12], esi

; 373  :     if (__y == _M_rightmost())

  0003a	8b 07		 mov	 eax, DWORD PTR [edi]
  0003c	3b 58 0c	 cmp	 ebx, DWORD PTR [eax+12]
  0003f	75 27		 jne	 SHORT $L101963
$L103349:

; 374  :       _M_rightmost() = __z;  // maintain _M_rightmost() pointing to max node

  00041	89 70 0c	 mov	 DWORD PTR [eax+12], esi
  00044	eb 22		 jmp	 SHORT $L101963
$L101960:

; 359  :     
; 360  :     __z = _M_create_node(__v);

  00046	56		 push	 esi
  00047	8b cf		 mov	 ecx, edi
  00049	e8 00 00 00 00	 call	 ?_M_create_node@?$_Rb_tree@PAVMString@@U?$pair@QAVMString@@PAV1@@_STL@@U?$_Select1st@U?$pair@QAVMString@@PAV1@@_STL@@@3@VMStringPointerCompare@@V?$allocator@U?$pair@QAVMString@@PAV1@@_STL@@@3@@_STL@@IAEPAU?$_Rb_tree_node@U?$pair@QAVMString@@PAV1@@_STL@@@2@ABU?$pair@QAVMString@@PAV1@@2@@Z ; _STL::_Rb_tree<MString *,_STL::pair<MString * const,MString *>,_STL::_Select1st<_STL::pair<MString * const,MString *> >,MStringPointerCompare,_STL::allocator<_STL::pair<MString * const,MString *> > >::_M_create_node
  0004e	8b f0		 mov	 esi, eax

; 361  :     _S_left(__y) = __z;               // also makes _M_leftmost() = __z 

  00050	89 73 08	 mov	 DWORD PTR [ebx+8], esi

; 362  :                                       //    when __y == _M_header
; 363  :     if (__y == this->_M_header._M_data) {

  00053	8b 07		 mov	 eax, DWORD PTR [edi]
  00055	3b d8		 cmp	 ebx, eax
  00057	75 07		 jne	 SHORT $L101961

; 364  :       _M_root() = __z;

  00059	89 70 04	 mov	 DWORD PTR [eax+4], esi

; 365  :       _M_rightmost() = __z;

  0005c	8b 07		 mov	 eax, DWORD PTR [edi]

; 366  :     }
; 367  :     else if (__y == _M_leftmost())

  0005e	eb e1		 jmp	 SHORT $L103349
$L101961:
  00060	3b 58 08	 cmp	 ebx, DWORD PTR [eax+8]
  00063	75 03		 jne	 SHORT $L101963

; 368  :       _M_leftmost() = __z;   // maintain _M_leftmost() pointing to min node

  00065	89 70 08	 mov	 DWORD PTR [eax+8], esi
$L101963:

; 375  :   }
; 376  :   _S_parent(__z) = __y;
; 377  :   _S_left(__z) = 0;

  00068	83 66 08 00	 and	 DWORD PTR [esi+8], 0

; 378  :   _S_right(__z) = 0;

  0006c	83 66 0c 00	 and	 DWORD PTR [esi+12], 0
  00070	89 5e 04	 mov	 DWORD PTR [esi+4], ebx

; 379  :   _Rb_global_inst::_Rebalance(__z, this->_M_header._M_data->_M_parent);

  00073	8b 07		 mov	 eax, DWORD PTR [edi]
  00075	83 c0 04	 add	 eax, 4
  00078	50		 push	 eax
  00079	56		 push	 esi
  0007a	e8 00 00 00 00	 call	 ?_Rebalance@?$_Rb_global@_N@_STL@@SAXPAU_Rb_tree_node_base@2@AAPAU32@@Z ; _STL::_Rb_global<bool>::_Rebalance

; 380  :   ++_M_node_count;

  0007f	ff 47 04	 inc	 DWORD PTR [edi+4]

; 381  :   return iterator(__z);

  00082	8b 45 08	 mov	 eax, DWORD PTR ___$ReturnUdt$[ebp]
  00085	59		 pop	 ecx
  00086	59		 pop	 ecx
  00087	5f		 pop	 edi
  00088	89 30		 mov	 DWORD PTR [eax], esi
  0008a	5e		 pop	 esi
  0008b	5b		 pop	 ebx

; 382  : }

  0008c	5d		 pop	 ebp
  0008d	c2 14 00	 ret	 20			; 00000014H
?_M_insert@?$_Rb_tree@PAVMString@@U?$pair@QAVMString@@PAV1@@_STL@@U?$_Select1st@U?$pair@QAVMString@@PAV1@@_STL@@@3@VMStringPointerCompare@@V?$allocator@U?$pair@QAVMString@@PAV1@@_STL@@@3@@_STL@@AAE?AU?$_Rb_tree_iterator@U?$pair@QAVMString@@PAV1@@_STL@@U?$_Nonconst_traits@U?$pair@QAVMString@@PAV1@@_STL@@@2@@2@PAU_Rb_tree_node_base@2@0ABU?$pair@QAVMString@@PAV1@@2@0@Z ENDP ; _STL::_Rb_tree<MString *,_STL::pair<MString * const,MString *>,_STL::_Select1st<_STL::pair<MString * const,MString *> >,MStringPointerCompare,_STL::allocator<_STL::pair<MString * const,MString *> > >::_M_insert
_TEXT	ENDS
PUBLIC	??1?$map@PAVMString@@PAV1@VMStringPointerCompare@@V?$allocator@U?$pair@QAVMString@@PAV1@@_STL@@@_STL@@@_STL@@QAE@XZ ; _STL::map<MString *,MString *,MStringPointerCompare,_STL::allocator<_STL::pair<MString * const,MString *> > >::~map<MString *,MString *,MStringPointerCompare,_STL::allocator<_STL::pair<MString * const,MString *> > >
; Function compile flags: /Ogsy
;	COMDAT ??1?$map@PAVMString@@PAV1@VMStringPointerCompare@@V?$allocator@U?$pair@QAVMString@@PAV1@@_STL@@@_STL@@@_STL@@QAE@XZ
_TEXT	SEGMENT
??1?$map@PAVMString@@PAV1@VMStringPointerCompare@@V?$allocator@U?$pair@QAVMString@@PAV1@@_STL@@@_STL@@@_STL@@QAE@XZ PROC NEAR ; _STL::map<MString *,MString *,MStringPointerCompare,_STL::allocator<_STL::pair<MString * const,MString *> > >::~map<MString *,MString *,MStringPointerCompare,_STL::allocator<_STL::pair<MString * const,MString *> > >, COMDAT
; _this$ = ecx
  00000	e9 00 00 00 00	 jmp	 ??1?$_Rb_tree@PAVMString@@U?$pair@QAVMString@@PAV1@@_STL@@U?$_Select1st@U?$pair@QAVMString@@PAV1@@_STL@@@3@VMStringPointerCompare@@V?$allocator@U?$pair@QAVMString@@PAV1@@_STL@@@3@@_STL@@QAE@XZ ; _STL::_Rb_tree<MString *,_STL::pair<MString * const,MString *>,_STL::_Select1st<_STL::pair<MString * const,MString *> >,MStringPointerCompare,_STL::allocator<_STL::pair<MString * const,MString *> > >::~_Rb_tree<MString *,_STL::pair<MString * const,MString *>,_STL::_Select1st<_STL::pair<MString * const,MString *> >,MStringPointerCompare,_STL::allocator<_STL::pair<MString * const,MString *> > >
??1?$map@PAVMString@@PAV1@VMStringPointerCompare@@V?$allocator@U?$pair@QAVMString@@PAV1@@_STL@@@_STL@@@_STL@@QAE@XZ ENDP ; _STL::map<MString *,MString *,MStringPointerCompare,_STL::allocator<_STL::pair<MString * const,MString *> > >::~map<MString *,MString *,MStringPointerCompare,_STL::allocator<_STL::pair<MString * const,MString *> > >
_TEXT	ENDS
PUBLIC	?Release@MStringMap@@QAEXXZ			; MStringMap::Release
; Function compile flags: /Ogsy
; File c:\darkeden\designed_common\project\client\mstringmap.cpp
;	COMDAT ?Release@MStringMap@@QAEXXZ
_TEXT	SEGMENT
?Release@MStringMap@@QAEXXZ PROC NEAR			; MStringMap::Release, COMDAT
; _this$ = ecx

; 32   : {

  00000	53		 push	 ebx
  00001	8b d9		 mov	 ebx, ecx

; 33   : 	STRING_MAP::iterator iString = begin();

  00003	8b 03		 mov	 eax, DWORD PTR [ebx]
  00005	56		 push	 esi
  00006	8b 70 08	 mov	 esi, DWORD PTR [eax+8]

; 34   : 
; 35   : 	while (iString != end())

  00009	3b f0		 cmp	 esi, eax
  0000b	74 37		 je	 SHORT $L101022
  0000d	57		 push	 edi
$L101021:

; 36   : 	{
; 37   : 		MString* pKey	= iString->first;

  0000e	8b 4e 10	 mov	 ecx, DWORD PTR [esi+16]

; 38   : 		MString* pValue = iString->second;

  00011	8b 7e 14	 mov	 edi, DWORD PTR [esi+20]

; 39   : 		
; 40   : 		//--------------------------------------------------------
; 41   : 		// value key    
; 42   : 		// -->   .
; 43   : 		//--------------------------------------------------------
; 44   : 		if (pKey==pValue)

  00014	3b cf		 cmp	 ecx, edi
  00016	75 08		 jne	 SHORT $L101043

; 45   : 		{
; 46   : 			if (pKey!=NULL)

  00018	85 c9		 test	 ecx, ecx
  0001a	74 1a		 je	 SHORT $L103367

; 47   : 			{
; 48   : 				delete pKey;

  0001c	8b 01		 mov	 eax, DWORD PTR [ecx]

; 49   : 			}
; 50   : 		}
; 51   : 		//--------------------------------------------------------
; 52   : 		// key value  .
; 53   : 		//--------------------------------------------------------
; 54   : 		else

  0001e	eb 12		 jmp	 SHORT $L103447
$L101043:

; 55   : 		{
; 56   : 			if (pKey!=NULL)

  00020	85 c9		 test	 ecx, ecx
  00022	74 06		 je	 SHORT $L103363

; 57   : 			{
; 58   : 				delete pKey;

  00024	8b 01		 mov	 eax, DWORD PTR [ecx]
  00026	6a 01		 push	 1
  00028	ff 10		 call	 DWORD PTR [eax]
$L103363:

; 59   : 			}
; 60   : 
; 61   : 			if (pValue!=NULL)

  0002a	85 ff		 test	 edi, edi
  0002c	74 08		 je	 SHORT $L103367

; 62   : 			{
; 63   : 				delete pValue;

  0002e	8b 07		 mov	 eax, DWORD PTR [edi]
  00030	8b cf		 mov	 ecx, edi
$L103447:
  00032	6a 01		 push	 1
  00034	ff 10		 call	 DWORD PTR [eax]
$L103367:

; 64   : 			}
; 65   : 		}
; 66   : 
; 67   : 		iString++;

  00036	56		 push	 esi
  00037	e8 00 00 00 00	 call	 ?_M_increment@?$_Rb_global@_N@_STL@@SAPAU_Rb_tree_node_base@2@PAU32@@Z ; _STL::_Rb_global<bool>::_M_increment
  0003c	8b f0		 mov	 esi, eax
  0003e	3b 33		 cmp	 esi, DWORD PTR [ebx]
  00040	59		 pop	 ecx
  00041	75 cb		 jne	 SHORT $L101021
  00043	5f		 pop	 edi
$L101022:
  00044	5e		 pop	 esi

; 68   : 	}
; 69   : 
; 70   : 	//  ~
; 71   : 	clear();

  00045	8b cb		 mov	 ecx, ebx
  00047	5b		 pop	 ebx
  00048	e9 00 00 00 00	 jmp	 ?clear@?$_Rb_tree@PAVMString@@U?$pair@QAVMString@@PAV1@@_STL@@U?$_Select1st@U?$pair@QAVMString@@PAV1@@_STL@@@3@VMStringPointerCompare@@V?$allocator@U?$pair@QAVMString@@PAV1@@_STL@@@3@@_STL@@QAEXXZ ; _STL::_Rb_tree<MString *,_STL::pair<MString * const,MString *>,_STL::_Select1st<_STL::pair<MString * const,MString *> >,MStringPointerCompare,_STL::allocator<_STL::pair<MString * const,MString *> > >::clear
?Release@MStringMap@@QAEXXZ ENDP			; MStringMap::Release
_TEXT	ENDS
PUBLIC	?Remove@MStringMap@@QAE_NPBD@Z			; MStringMap::Remove
EXTRN	??0MString@@QAE@PBD@Z:NEAR			; MString::MString
EXTRN	??1MString@@UAE@XZ:NEAR				; MString::~MString
;	COMDAT xdata$x
; File c:\stlport-4.6.1\stlport\stl\_tree.h
xdata$x	SEGMENT
$T103565 DD	0ffffffffH
	DD	FLAT:$L103468
$T103561 DD	019930520H
	DD	01H
	DD	FLAT:$T103565
	DD	2 DUP(00H)
	DD	2 DUP(00H)
; Function compile flags: /Ogsy
; File c:\darkeden\designed_common\project\client\mstringmap.cpp
xdata$x	ENDS
;	COMDAT ?Remove@MStringMap@@QAE_NPBD@Z
_TEXT	SEGMENT
_keyString$ = -24					; size = 12
__$EHRec$ = -12						; size = 12
$T103451 = 8						; size = 4
_pKey$ = 8						; size = 4
?Remove@MStringMap@@QAE_NPBD@Z PROC NEAR		; MStringMap::Remove, COMDAT
; _this$ = ecx

; 180  : {

  00000	b8 00 00 00 00	 mov	 eax, __ehhandler$?Remove@MStringMap@@QAE_NPBD@Z
  00005	e8 00 00 00 00	 call	 __EH_prolog
  0000a	83 ec 0c	 sub	 esp, 12			; 0000000cH
  0000d	53		 push	 ebx
  0000e	56		 push	 esi
  0000f	57		 push	 edi

; 181  : 	MString keyString(pKey);

  00010	ff 75 08	 push	 DWORD PTR _pKey$[ebp]
  00013	8b f9		 mov	 edi, ecx
  00015	8d 4d e8	 lea	 ecx, DWORD PTR _keyString$[ebp]
  00018	e8 00 00 00 00	 call	 ??0MString@@QAE@PBD@Z	; MString::MString
  0001d	83 65 fc 00	 and	 DWORD PTR __$EHRec$[ebp+8], 0

; 182  : 
; 183  : 	STRING_MAP::iterator iString = find( &keyString );

  00021	8d 45 e8	 lea	 eax, DWORD PTR _keyString$[ebp]
  00024	89 45 08	 mov	 DWORD PTR $T103451[ebp], eax
  00027	8d 45 08	 lea	 eax, DWORD PTR $T103451[ebp]
  0002a	50		 push	 eax
  0002b	8b cf		 mov	 ecx, edi
  0002d	e8 00 00 00 00	 call	 ??$_M_find@PAVMString@@@?$_Rb_tree@PAVMString@@U?$pair@QAVMString@@PAV1@@_STL@@U?$_Select1st@U?$pair@QAVMString@@PAV1@@_STL@@@3@VMStringPointerCompare@@V?$allocator@U?$pair@QAVMString@@PAV1@@_STL@@@3@@_STL@@ABEPAU?$_Rb_tree_node@U?$pair@QAVMString@@PAV1@@_STL@@@1@ABQAVMString@@@Z ; _STL::_Rb_tree<MString *,_STL::pair<MString * const,MString *>,_STL::_Select1st<_STL::pair<MString * const,MString *> >,MStringPointerCompare,_STL::allocator<_STL::pair<MString * const,MString *> > >::_M_find<MString *>
  00032	8b f0		 mov	 esi, eax

; 184  : 	
; 185  : 	//---------------------------------------------------
; 186  : 	// key 
; 187  : 	//---------------------------------------------------	
; 188  : 	if (iString != end())

  00034	3b 37		 cmp	 esi, DWORD PTR [edi]
  00036	74 2e		 je	 SHORT $L101125

; 189  : 	{			
; 190  : 		//---------------------------------------------------
; 191  : 		// .
; 192  : 		//---------------------------------------------------
; 193  : 		if (iString->first == iString->second)

  00038	8b 4e 10	 mov	 ecx, DWORD PTR [esi+16]
  0003b	33 db		 xor	 ebx, ebx
  0003d	43		 inc	 ebx
  0003e	3b 4e 14	 cmp	 ecx, DWORD PTR [esi+20]

; 194  : 		{
; 195  : 			// value key     .
; 196  : 			delete iString->first;
; 197  : 		}
; 198  : 		else

  00041	74 0c		 je	 SHORT $L103564

; 199  : 		{
; 200  : 			delete iString->first;

  00043	85 c9		 test	 ecx, ecx
  00045	74 05		 je	 SHORT $L103459
  00047	8b 01		 mov	 eax, DWORD PTR [ecx]
  00049	53		 push	 ebx
  0004a	ff 10		 call	 DWORD PTR [eax]
$L103459:

; 201  : 			delete iString->second;			

  0004c	8b 4e 14	 mov	 ecx, DWORD PTR [esi+20]
$L103564:
  0004f	85 c9		 test	 ecx, ecx
  00051	74 05		 je	 SHORT $L103463
  00053	8b 01		 mov	 eax, DWORD PTR [ecx]
  00055	53		 push	 ebx
  00056	ff 10		 call	 DWORD PTR [eax]
$L103463:

; 202  : 		}
; 203  : 
; 204  : 		//---------------------------------------------------
; 205  : 		// node
; 206  : 		//---------------------------------------------------
; 207  : 		erase( iString );

  00058	51		 push	 ecx
  00059	8b c4		 mov	 eax, esp
  0005b	8b cf		 mov	 ecx, edi
  0005d	89 30		 mov	 DWORD PTR [eax], esi
  0005f	e8 00 00 00 00	 call	 ?erase@?$_Rb_tree@PAVMString@@U?$pair@QAVMString@@PAV1@@_STL@@U?$_Select1st@U?$pair@QAVMString@@PAV1@@_STL@@@3@VMStringPointerCompare@@V?$allocator@U?$pair@QAVMString@@PAV1@@_STL@@@3@@_STL@@QAEXU?$_Rb_tree_iterator@U?$pair@QAVMString@@PAV1@@_STL@@U?$_Nonconst_traits@U?$pair@QAVMString@@PAV1@@_STL@@@2@@2@@Z ; _STL::_Rb_tree<MString *,_STL::pair<MString * const,MString *>,_STL::_Select1st<_STL::pair<MString * const,MString *> >,MStringPointerCompare,_STL::allocator<_STL::pair<MString * const,MString *> > >::erase
  00064	eb 02		 jmp	 SHORT $L103562
$L101125:
  00066	32 db		 xor	 bl, bl
$L103562:

; 208  : 
; 209  : 		return true;
; 210  : 	}
; 211  : 
; 212  : 	return false;

  00068	83 4d fc ff	 or	 DWORD PTR __$EHRec$[ebp+8], -1
  0006c	8d 4d e8	 lea	 ecx, DWORD PTR _keyString$[ebp]
  0006f	e8 00 00 00 00	 call	 ??1MString@@UAE@XZ	; MString::~MString

; 213  : }

  00074	8b 4d f4	 mov	 ecx, DWORD PTR __$EHRec$[ebp]
  00077	5f		 pop	 edi
  00078	5e		 pop	 esi
  00079	8a c3		 mov	 al, bl
  0007b	64 89 0d 00 00
	00 00		 mov	 DWORD PTR fs:__except_list, ecx
  00082	5b		 pop	 ebx
  00083	c9		 leave
  00084	c2 04 00	 ret	 4
_TEXT	ENDS
;	COMDAT text$x
text$x	SEGMENT
$L103468:
  00000	8d 4d e8	 lea	 ecx, DWORD PTR _keyString$[ebp]
  00003	e9 00 00 00 00	 jmp	 ??1MString@@UAE@XZ	; MString::~MString
__ehhandler$?Remove@MStringMap@@QAE_NPBD@Z:
  00008	b8 00 00 00 00	 mov	 eax, OFFSET FLAT:$T103561
  0000d	e9 00 00 00 00	 jmp	 ___CxxFrameHandler
text$x	ENDS
?Remove@MStringMap@@QAE_NPBD@Z ENDP			; MStringMap::Remove
PUBLIC	?Get@MStringMap@@QBEPBVMString@@PBD@Z		; MStringMap::Get
;	COMDAT xdata$x
; File c:\stlport-4.6.1\stlport\stl\_tree.h
xdata$x	SEGMENT
$T103622 DD	0ffffffffH
	DD	FLAT:$L103574
$T103619 DD	019930520H
	DD	01H
	DD	FLAT:$T103622
	DD	2 DUP(00H)
	DD	2 DUP(00H)
; Function compile flags: /Ogsy
; File c:\darkeden\designed_common\project\client\mstringmap.cpp
xdata$x	ENDS
;	COMDAT ?Get@MStringMap@@QBEPBVMString@@PBD@Z
_TEXT	SEGMENT
_keyString$ = -24					; size = 12
__$EHRec$ = -12						; size = 12
$T103570 = 8						; size = 4
_pKey$ = 8						; size = 4
?Get@MStringMap@@QBEPBVMString@@PBD@Z PROC NEAR		; MStringMap::Get, COMDAT
; _this$ = ecx

; 220  : {

  00000	b8 00 00 00 00	 mov	 eax, __ehhandler$?Get@MStringMap@@QBEPBVMString@@PBD@Z
  00005	e8 00 00 00 00	 call	 __EH_prolog
  0000a	83 ec 0c	 sub	 esp, 12			; 0000000cH
  0000d	56		 push	 esi

; 221  : 	MString keyString(pKey);

  0000e	ff 75 08	 push	 DWORD PTR _pKey$[ebp]
  00011	8b f1		 mov	 esi, ecx
  00013	8d 4d e8	 lea	 ecx, DWORD PTR _keyString$[ebp]
  00016	e8 00 00 00 00	 call	 ??0MString@@QAE@PBD@Z	; MString::MString

; 222  : 	
; 223  : 	STRING_MAP::const_iterator iString = find( &keyString );

  0001b	8d 45 e8	 lea	 eax, DWORD PTR _keyString$[ebp]
  0001e	89 45 08	 mov	 DWORD PTR $T103570[ebp], eax
  00021	8d 45 08	 lea	 eax, DWORD PTR $T103570[ebp]
  00024	50		 push	 eax
  00025	8b ce		 mov	 ecx, esi
  00027	e8 00 00 00 00	 call	 ??$_M_find@PAVMString@@@?$_Rb_tree@PAVMString@@U?$pair@QAVMString@@PAV1@@_STL@@U?$_Select1st@U?$pair@QAVMString@@PAV1@@_STL@@@3@VMStringPointerCompare@@V?$allocator@U?$pair@QAVMString@@PAV1@@_STL@@@3@@_STL@@ABEPAU?$_Rb_tree_node@U?$pair@QAVMString@@PAV1@@_STL@@@1@ABQAVMString@@@Z ; _STL::_Rb_tree<MString *,_STL::pair<MString * const,MString *>,_STL::_Select1st<_STL::pair<MString * const,MString *> >,MStringPointerCompare,_STL::allocator<_STL::pair<MString * const,MString *> > >::_M_find<MString *>

; 224  : 	
; 225  : 	//---------------------------------------------------
; 226  : 	// key 
; 227  : 	//---------------------------------------------------	
; 228  : 	if (iString == end())

  0002c	3b 06		 cmp	 eax, DWORD PTR [esi]
  0002e	75 04		 jne	 SHORT $L101182
  00030	33 f6		 xor	 esi, esi
  00032	eb 03		 jmp	 SHORT $L103620
$L101182:

; 229  : 	{
; 230  : 		return NULL;
; 231  : 	}
; 232  : 
; 233  : 	//---------------------------------------------------	
; 234  : 	// value .
; 235  : 	//---------------------------------------------------	
; 236  : 	return iString->second;

  00034	8b 70 14	 mov	 esi, DWORD PTR [eax+20]
$L103620:
  00037	83 4d fc ff	 or	 DWORD PTR __$EHRec$[ebp+8], -1
  0003b	8d 4d e8	 lea	 ecx, DWORD PTR _keyString$[ebp]
  0003e	e8 00 00 00 00	 call	 ??1MString@@UAE@XZ	; MString::~MString

; 237  : }

  00043	8b 4d f4	 mov	 ecx, DWORD PTR __$EHRec$[ebp]
  00046	8b c6		 mov	 eax, esi
  00048	5e		 pop	 esi
  00049	64 89 0d 00 00
	00 00		 mov	 DWORD PTR fs:__except_list, ecx
  00050	c9		 leave
  00051	c2 04 00	 ret	 4
_TEXT	ENDS
;	COMDAT text$x
text$x	SEGMENT
$L103574:
  00000	8d 4d e8	 lea	 ecx, DWORD PTR _keyString$[ebp]
  00003	e9 00 00 00 00	 jmp	 ??1MString@@UAE@XZ	; MString::~MString
__ehhandler$?Get@MStringMap@@QBEPBVMString@@PBD@Z:
  00008	b8 00 00 00 00	 mov	 eax, OFFSET FLAT:$T103619
  0000d	e9 00 00 00 00	 jmp	 ___CxxFrameHandler
text$x	ENDS
?Get@MStringMap@@QBEPBVMString@@PBD@Z ENDP		; MStringMap::Get
PUBLIC	?SaveToFile@MStringMap@@QAEXAAV?$basic_ofstream@DV?$char_traits@D@_STL@@@_STL@@@Z ; MStringMap::SaveToFile
; Function compile flags: /Ogsy
;	COMDAT ?SaveToFile@MStringMap@@QAEXAAV?$basic_ofstream@DV?$char_traits@D@_STL@@@_STL@@@Z
_TEXT	SEGMENT
_this$ = -12						; size = 4
_num$ = -8						; size = 4
_bSame$ = -1						; size = 1
_file$ = 8						; size = 4
?SaveToFile@MStringMap@@QAEXAAV?$basic_ofstream@DV?$char_traits@D@_STL@@@_STL@@@Z PROC NEAR ; MStringMap::SaveToFile, COMDAT
; _this$ = ecx

; 244  : {

  00000	55		 push	 ebp
  00001	8b ec		 mov	 ebp, esp
  00003	83 ec 0c	 sub	 esp, 12			; 0000000cH
  00006	56		 push	 esi
  00007	8b f1		 mov	 esi, ecx

; 245  : 	int num = size();

  00009	8b 46 04	 mov	 eax, DWORD PTR [esi+4]

; 246  : 
; 247  : 	//-----------------------------------------------------
; 248  : 	// size
; 249  : 	//-----------------------------------------------------
; 250  : 	file.write((const char*)&num, 4);

  0000c	8b 4d 08	 mov	 ecx, DWORD PTR _file$[ebp]
  0000f	89 45 f8	 mov	 DWORD PTR _num$[ebp], eax
  00012	6a 04		 push	 4
  00014	8d 45 f8	 lea	 eax, DWORD PTR _num$[ebp]
  00017	50		 push	 eax
  00018	89 75 f4	 mov	 DWORD PTR _this$[ebp], esi
  0001b	e8 00 00 00 00	 call	 ?write@?$basic_ostream@DV?$char_traits@D@_STL@@@_STL@@QAEAAV12@PBDH@Z ; _STL::basic_ostream<char,_STL::char_traits<char> >::write

; 251  : 
; 252  : 	STRING_MAP::iterator iString = begin();

  00020	8b 06		 mov	 eax, DWORD PTR [esi]
  00022	8b 70 08	 mov	 esi, DWORD PTR [eax+8]

; 253  : 
; 254  : 	//-----------------------------------------------------
; 255  : 	// string 
; 256  : 	//-----------------------------------------------------
; 257  : 	bool bSame;
; 258  : 	while (iString != end())

  00025	3b f0		 cmp	 esi, eax
  00027	74 4a		 je	 SHORT $L101235
  00029	53		 push	 ebx
  0002a	57		 push	 edi
$L101234:

; 259  : 	{
; 260  : 		MString* pKeyString		= iString->first;

  0002b	8b 7e 10	 mov	 edi, DWORD PTR [esi+16]

; 261  : 		MString* pValueString	= iString->second;

  0002e	8b 5e 14	 mov	 ebx, DWORD PTR [esi+20]

; 262  : 
; 263  : 		bSame = (pKeyString==pValueString)? true : false;		
; 264  : 
; 265  : 		//---------------------------------------------------
; 266  : 		// key value    
; 267  : 		//---------------------------------------------------
; 268  : 		file.write((const char*)&bSame, 1);

  00031	8b 4d 08	 mov	 ecx, DWORD PTR _file$[ebp]
  00034	3b fb		 cmp	 edi, ebx
  00036	0f 94 c0	 sete	 al
  00039	88 45 ff	 mov	 BYTE PTR _bSame$[ebp], al
  0003c	6a 01		 push	 1
  0003e	8d 45 ff	 lea	 eax, DWORD PTR _bSame$[ebp]
  00041	50		 push	 eax
  00042	e8 00 00 00 00	 call	 ?write@?$basic_ostream@DV?$char_traits@D@_STL@@@_STL@@QAEAAV12@PBDH@Z ; _STL::basic_ostream<char,_STL::char_traits<char> >::write

; 269  : 
; 270  : 		//-----------------------------------------------------
; 271  : 		//   .
; 272  : 		//-----------------------------------------------------
; 273  : 		if (bSame)

  00047	80 7d ff 00	 cmp	 BYTE PTR _bSame$[ebp], 0

; 274  : 		{
; 275  : 			pKeyString->SaveToFile( file );

  0004b	ff 75 08	 push	 DWORD PTR _file$[ebp]
  0004e	8b 07		 mov	 eax, DWORD PTR [edi]
  00050	8b cf		 mov	 ecx, edi

; 276  : 		}
; 277  : 		//---------------------------------------------------
; 278  : 		//    
; 279  : 		//---------------------------------------------------
; 280  : 		else

  00052	75 0a		 jne	 SHORT $L103711

; 281  : 		{
; 282  : 			pKeyString->SaveToFile( file );

  00054	ff 50 04	 call	 DWORD PTR [eax+4]

; 283  : 			pValueString->SaveToFile( file );

  00057	8b 03		 mov	 eax, DWORD PTR [ebx]
  00059	ff 75 08	 push	 DWORD PTR _file$[ebp]
  0005c	8b cb		 mov	 ecx, ebx
$L103711:
  0005e	ff 50 04	 call	 DWORD PTR [eax+4]

; 284  : 		}
; 285  : 
; 286  : 		iString++;

  00061	56		 push	 esi
  00062	e8 00 00 00 00	 call	 ?_M_increment@?$_Rb_global@_N@_STL@@SAPAU_Rb_tree_node_base@2@PAU32@@Z ; _STL::_Rb_global<bool>::_M_increment
  00067	8b f0		 mov	 esi, eax
  00069	8b 45 f4	 mov	 eax, DWORD PTR _this$[ebp]
  0006c	3b 30		 cmp	 esi, DWORD PTR [eax]
  0006e	59		 pop	 ecx
  0006f	75 ba		 jne	 SHORT $L101234
  00071	5f		 pop	 edi
  00072	5b		 pop	 ebx
$L101235:
  00073	5e		 pop	 esi

; 287  : 	}
; 288  : }

  00074	c9		 leave
  00075	c2 04 00	 ret	 4
?SaveToFile@MStringMap@@QAEXAAV?$basic_ofstream@DV?$char_traits@D@_STL@@@_STL@@@Z ENDP ; MStringMap::SaveToFile
_TEXT	ENDS
PUBLIC	??0?$map@PAVMString@@PAV1@VMStringPointerCompare@@V?$allocator@U?$pair@QAVMString@@PAV1@@_STL@@@_STL@@@_STL@@QAE@XZ ; _STL::map<MString *,MString *,MStringPointerCompare,_STL::allocator<_STL::pair<MString * const,MString *> > >::map<MString *,MString *,MStringPointerCompare,_STL::allocator<_STL::pair<MString * const,MString *> > >
; Function compile flags: /Ogsy
; File c:\stlport-4.6.1\stlport\stl\_map.h
;	COMDAT ??0?$map@PAVMString@@PAV1@VMStringPointerCompare@@V?$allocator@U?$pair@QAVMString@@PAV1@@_STL@@@_STL@@@_STL@@QAE@XZ
_TEXT	SEGMENT
$T103715 = -1						; size = 1
$T103714 = -1						; size = 1
??0?$map@PAVMString@@PAV1@VMStringPointerCompare@@V?$allocator@U?$pair@QAVMString@@PAV1@@_STL@@@_STL@@@_STL@@QAE@XZ PROC NEAR ; _STL::map<MString *,MString *,MStringPointerCompare,_STL::allocator<_STL::pair<MString * const,MString *> > >::map<MString *,MString *,MStringPointerCompare,_STL::allocator<_STL::pair<MString * const,MString *> > >, COMDAT
; _this$ = ecx

; 91   :   map() : _M_t(_Compare(), allocator_type()) {}

  00000	55		 push	 ebp
  00001	8b ec		 mov	 ebp, esp
  00003	51		 push	 ecx
  00004	56		 push	 esi
  00005	8d 45 ff	 lea	 eax, DWORD PTR $T103714[ebp]
  00008	50		 push	 eax
  00009	8d 45 ff	 lea	 eax, DWORD PTR $T103715[ebp]
  0000c	50		 push	 eax
  0000d	8b f1		 mov	 esi, ecx
  0000f	e8 00 00 00 00	 call	 ??0?$_Rb_tree@PAVMString@@U?$pair@QAVMString@@PAV1@@_STL@@U?$_Select1st@U?$pair@QAVMString@@PAV1@@_STL@@@3@VMStringPointerCompare@@V?$allocator@U?$pair@QAVMString@@PAV1@@_STL@@@3@@_STL@@QAE@ABVMStringPointerCompare@@ABV?$allocator@U?$pair@QAVMString@@PAV1@@_STL@@@1@@Z ; _STL::_Rb_tree<MString *,_STL::pair<MString * const,MString *>,_STL::_Select1st<_STL::pair<MString * const,MString *> >,MStringPointerCompare,_STL::allocator<_STL::pair<MString * const,MString *> > >::_Rb_tree<MString *,_STL::pair<MString * const,MString *>,_STL::_Select1st<_STL::pair<MString * const,MString *> >,MStringPointerCompare,_STL::allocator<_STL::pair<MString * const,MString *> > >
  00014	8b c6		 mov	 eax, esi
  00016	5e		 pop	 esi
  00017	c9		 leave
  00018	c3		 ret	 0
??0?$map@PAVMString@@PAV1@VMStringPointerCompare@@V?$allocator@U?$pair@QAVMString@@PAV1@@_STL@@@_STL@@@_STL@@QAE@XZ ENDP ; _STL::map<MString *,MString *,MStringPointerCompare,_STL::allocator<_STL::pair<MString * const,MString *> > >::map<MString *,MString *,MStringPointerCompare,_STL::allocator<_STL::pair<MString * const,MString *> > >
_TEXT	ENDS
PUBLIC	?insert_unique@?$_Rb_tree@PAVMString@@U?$pair@QAVMString@@PAV1@@_STL@@U?$_Select1st@U?$pair@QAVMString@@PAV1@@_STL@@@3@VMStringPointerCompare@@V?$allocator@U?$pair@QAVMString@@PAV1@@_STL@@@3@@_STL@@QAE?AU?$pair@U?$_Rb_tree_iterator@U?$pair@QAVMString@@PAV1@@_STL@@U?$_Nonconst_traits@U?$pair@QAVMString@@PAV1@@_STL@@@2@@_STL@@_N@2@ABU?$pair@QAVMString@@PAV1@@2@@Z ; _STL::_Rb_tree<MString *,_STL::pair<MString * const,MString *>,_STL::_Select1st<_STL::pair<MString * const,MString *> >,MStringPointerCompare,_STL::allocator<_STL::pair<MString * const,MString *> > >::insert_unique
; Function compile flags: /Ogsy
; File c:\stlport-4.6.1\stlport\stl\_tree.c
;	COMDAT ?insert_unique@?$_Rb_tree@PAVMString@@U?$pair@QAVMString@@PAV1@@_STL@@U?$_Select1st@U?$pair@QAVMString@@PAV1@@_STL@@@3@VMStringPointerCompare@@V?$allocator@U?$pair@QAVMString@@PAV1@@_STL@@@3@@_STL@@QAE?AU?$pair@U?$_Rb_tree_iterator@U?$pair@QAVMString@@PAV1@@_STL@@U?$_Nonconst_traits@U?$pair@QAVMString@@PAV1@@_STL@@@2@@_STL@@_N@2@ABU?$pair@QAVMString@@PAV1@@2@@Z
_TEXT	SEGMENT
_this$ = -4						; size = 4
___$ReturnUdt$ = 8					; size = 4
$T103733 = 12						; size = 4
___j$ = 12						; size = 4
___v$ = 12						; size = 4
?insert_unique@?$_Rb_tree@PAVMString@@U?$pair@QAVMString@@PAV1@@_STL@@U?$_Select1st@U?$pair@QAVMString@@PAV1@@_STL@@@3@VMStringPointerCompare@@V?$allocator@U?$pair@QAVMString@@PAV1@@_STL@@@3@@_STL@@QAE?AU?$pair@U?$_Rb_tree_iterator@U?$pair@QAVMString@@PAV1@@_STL@@U?$_Nonconst_traits@U?$pair@QAVMString@@PAV1@@_STL@@@2@@_STL@@_N@2@ABU?$pair@QAVMString@@PAV1@@2@@Z PROC NEAR ; _STL::_Rb_tree<MString *,_STL::pair<MString * const,MString *>,_STL::_Select1st<_STL::pair<MString * const,MString *> >,MStringPointerCompare,_STL::allocator<_STL::pair<MString * const,MString *> > >::insert_unique, COMDAT
; _this$ = ecx

; 401  : {

  00000	55		 push	 ebp
  00001	8b ec		 mov	 ebp, esp
  00003	51		 push	 ecx
  00004	53		 push	 ebx

; 402  :   _Link_type __y = this->_M_header._M_data;
; 403  :   _Link_type __x = _M_root();
; 404  :   bool __comp = true;
; 405  :   while (__x != 0) {

  00005	8b 5d 0c	 mov	 ebx, DWORD PTR ___v$[ebp]
  00008	56		 push	 esi
  00009	8b 31		 mov	 esi, DWORD PTR [ecx]
  0000b	57		 push	 edi
  0000c	8b 7e 04	 mov	 edi, DWORD PTR [esi+4]
  0000f	85 ff		 test	 edi, edi
  00011	89 4d fc	 mov	 DWORD PTR _this$[ebp], ecx
  00014	b0 01		 mov	 al, 1
  00016	74 20		 je	 SHORT $L101736
$L101735:

; 406  :     __y = __x;
; 407  :     __comp = _M_key_compare(_KeyOfValue()(__v), _S_key(__x));

  00018	8b 47 10	 mov	 eax, DWORD PTR [edi+16]
  0001b	8b 0b		 mov	 ecx, DWORD PTR [ebx]
  0001d	50		 push	 eax
  0001e	8b f7		 mov	 esi, edi
  00020	e8 00 00 00 00	 call	 ??MMString@@QAE_NABV0@@Z ; MString::operator<

; 408  :     __x = __comp ? _S_left(__x) : _S_right(__x);

  00025	84 c0		 test	 al, al
  00027	74 05		 je	 SHORT $L103726
  00029	8b 7f 08	 mov	 edi, DWORD PTR [edi+8]
  0002c	eb 03		 jmp	 SHORT $L103727
$L103726:
  0002e	8b 7f 0c	 mov	 edi, DWORD PTR [edi+12]
$L103727:

; 402  :   _Link_type __y = this->_M_header._M_data;
; 403  :   _Link_type __x = _M_root();
; 404  :   bool __comp = true;
; 405  :   while (__x != 0) {

  00031	85 ff		 test	 edi, edi
  00033	75 e3		 jne	 SHORT $L101735
  00035	8b 4d fc	 mov	 ecx, DWORD PTR _this$[ebp]
$L101736:

; 409  :   }
; 410  :   iterator __j = iterator(__y);   
; 411  :   if (__comp)

  00038	84 c0		 test	 al, al
  0003a	89 75 0c	 mov	 DWORD PTR ___j$[ebp], esi
  0003d	74 18		 je	 SHORT $L103798

; 412  :     if (__j == begin())     

  0003f	8b 01		 mov	 eax, DWORD PTR [ecx]
  00041	3b 70 08	 cmp	 esi, DWORD PTR [eax+8]
  00044	75 07		 jne	 SHORT $L101764

; 413  :       return pair<iterator,bool>(_M_insert(/* __x*/ __y, __y, __v), true);

  00046	6a 00		 push	 0
  00048	53		 push	 ebx
  00049	56		 push	 esi
  0004a	56		 push	 esi
  0004b	eb 24		 jmp	 SHORT $L103843
$L101764:

; 414  :     else
; 415  :       --__j;

  0004d	56		 push	 esi
  0004e	e8 00 00 00 00	 call	 ?_M_decrement@?$_Rb_global@_N@_STL@@SAPAU_Rb_tree_node_base@2@PAU32@@Z ; _STL::_Rb_global<bool>::_M_decrement
  00053	59		 pop	 ecx
  00054	89 45 0c	 mov	 DWORD PTR ___j$[ebp], eax
$L103798:

; 416  :   if (_M_key_compare(_S_key(__j._M_node), _KeyOfValue()(__v)))

  00057	8b 03		 mov	 eax, DWORD PTR [ebx]
  00059	8b 4d 0c	 mov	 ecx, DWORD PTR ___j$[ebp]
  0005c	8b 49 10	 mov	 ecx, DWORD PTR [ecx+16]
  0005f	50		 push	 eax
  00060	e8 00 00 00 00	 call	 ??MMString@@QAE_NABV0@@Z ; MString::operator<
  00065	84 c0		 test	 al, al
  00067	74 1c		 je	 SHORT $L101770

; 417  :     return pair<iterator,bool>(_M_insert(__x, __y, __v), true);

  00069	8b 4d fc	 mov	 ecx, DWORD PTR _this$[ebp]
  0006c	6a 00		 push	 0
  0006e	53		 push	 ebx
  0006f	56		 push	 esi
  00070	57		 push	 edi
$L103843:
  00071	8d 45 0c	 lea	 eax, DWORD PTR $T103733[ebp]
  00074	50		 push	 eax
  00075	e8 00 00 00 00	 call	 ?_M_insert@?$_Rb_tree@PAVMString@@U?$pair@QAVMString@@PAV1@@_STL@@U?$_Select1st@U?$pair@QAVMString@@PAV1@@_STL@@@3@VMStringPointerCompare@@V?$allocator@U?$pair@QAVMString@@PAV1@@_STL@@@3@@_STL@@AAE?AU?$_Rb_tree_iterator@U?$pair@QAVMString@@PAV1@@_STL@@U?$_Nonconst_traits@U?$pair@QAVMString@@PAV1@@_STL@@@2@@2@PAU_Rb_tree_node_base@2@0ABU?$pair@QAVMString@@PAV1@@2@0@Z ; _STL::_Rb_tree<MString *,_STL::pair<MString * const,MString *>,_STL::_Select1st<_STL::pair<MString * const,MString *> >,MStringPointerCompare,_STL::allocator<_STL::pair<MString * const,MString *> > >::_M_insert
  0007a	8b 08		 mov	 ecx, DWORD PTR [eax]
  0007c	8b 45 08	 mov	 eax, DWORD PTR ___$ReturnUdt$[ebp]
  0007f	c6 40 04 01	 mov	 BYTE PTR [eax+4], 1
  00083	eb 0a		 jmp	 SHORT $L103841
$L101770:

; 418  :   return pair<iterator,bool>(__j, false);

  00085	8b 45 08	 mov	 eax, DWORD PTR ___$ReturnUdt$[ebp]
  00088	8b 4d 0c	 mov	 ecx, DWORD PTR ___j$[ebp]
  0008b	c6 40 04 00	 mov	 BYTE PTR [eax+4], 0
$L103841:
  0008f	5f		 pop	 edi
  00090	5e		 pop	 esi
  00091	89 08		 mov	 DWORD PTR [eax], ecx
  00093	5b		 pop	 ebx

; 419  : }

  00094	c9		 leave
  00095	c2 08 00	 ret	 8
?insert_unique@?$_Rb_tree@PAVMString@@U?$pair@QAVMString@@PAV1@@_STL@@U?$_Select1st@U?$pair@QAVMString@@PAV1@@_STL@@@3@VMStringPointerCompare@@V?$allocator@U?$pair@QAVMString@@PAV1@@_STL@@@3@@_STL@@QAE?AU?$pair@U?$_Rb_tree_iterator@U?$pair@QAVMString@@PAV1@@_STL@@U?$_Nonconst_traits@U?$pair@QAVMString@@PAV1@@_STL@@@2@@_STL@@_N@2@ABU?$pair@QAVMString@@PAV1@@2@@Z ENDP ; _STL::_Rb_tree<MString *,_STL::pair<MString * const,MString *>,_STL::_Select1st<_STL::pair<MString * const,MString *> >,MStringPointerCompare,_STL::allocator<_STL::pair<MString * const,MString *> > >::insert_unique
_TEXT	ENDS
PUBLIC	??0MStringMap@@QAE@XZ				; MStringMap::MStringMap
; Function compile flags: /Ogsy
; File c:\darkeden\designed_common\project\client\mstringmap.cpp
;	COMDAT ??0MStringMap@@QAE@XZ
_TEXT	SEGMENT
??0MStringMap@@QAE@XZ PROC NEAR				; MStringMap::MStringMap, COMDAT
; _this$ = ecx

; 14   : {

  00000	56		 push	 esi
  00001	8b f1		 mov	 esi, ecx
  00003	e8 00 00 00 00	 call	 ??0?$map@PAVMString@@PAV1@VMStringPointerCompare@@V?$allocator@U?$pair@QAVMString@@PAV1@@_STL@@@_STL@@@_STL@@QAE@XZ ; _STL::map<MString *,MString *,MStringPointerCompare,_STL::allocator<_STL::pair<MString * const,MString *> > >::map<MString *,MString *,MStringPointerCompare,_STL::allocator<_STL::pair<MString * const,MString *> > >

; 15   : }

  00008	8b c6		 mov	 eax, esi
  0000a	5e		 pop	 esi
  0000b	c3		 ret	 0
??0MStringMap@@QAE@XZ ENDP				; MStringMap::MStringMap
_TEXT	ENDS
PUBLIC	??1MStringMap@@QAE@XZ				; MStringMap::~MStringMap
;	COMDAT xdata$x
xdata$x	SEGMENT
$T103858 DD	0ffffffffH
	DD	FLAT:$L103850
$T103856 DD	019930520H
	DD	01H
	DD	FLAT:$T103858
	DD	2 DUP(00H)
	DD	2 DUP(00H)
; Function compile flags: /Ogsy
xdata$x	ENDS
;	COMDAT ??1MStringMap@@QAE@XZ
_TEXT	SEGMENT
_this$ = -16						; size = 4
__$EHRec$ = -12						; size = 12
??1MStringMap@@QAE@XZ PROC NEAR				; MStringMap::~MStringMap, COMDAT
; _this$ = ecx

; 18   : {

  00000	b8 00 00 00 00	 mov	 eax, __ehhandler$??1MStringMap@@QAE@XZ
  00005	e8 00 00 00 00	 call	 __EH_prolog
  0000a	51		 push	 ecx
  0000b	89 4d f0	 mov	 DWORD PTR _this$[ebp], ecx
  0000e	83 65 fc 00	 and	 DWORD PTR __$EHRec$[ebp+8], 0

; 19   : 	Release();

  00012	e8 00 00 00 00	 call	 ?Release@MStringMap@@QAEXXZ ; MStringMap::Release

; 20   : }

  00017	8b 4d f0	 mov	 ecx, DWORD PTR _this$[ebp]
  0001a	83 4d fc ff	 or	 DWORD PTR __$EHRec$[ebp+8], -1
  0001e	e8 00 00 00 00	 call	 ??1?$_Rb_tree@PAVMString@@U?$pair@QAVMString@@PAV1@@_STL@@U?$_Select1st@U?$pair@QAVMString@@PAV1@@_STL@@@3@VMStringPointerCompare@@V?$allocator@U?$pair@QAVMString@@PAV1@@_STL@@@3@@_STL@@QAE@XZ ; _STL::_Rb_tree<MString *,_STL::pair<MString * const,MString *>,_STL::_Select1st<_STL::pair<MString * const,MString *> >,MStringPointerCompare,_STL::allocator<_STL::pair<MString * const,MString *> > >::~_Rb_tree<MString *,_STL::pair<MString * const,MString *>,_STL::_Select1st<_STL::pair<MString * const,MString *> >,MStringPointerCompare,_STL::allocator<_STL::pair<MString * const,MString *> > >
  00023	8b 4d f4	 mov	 ecx, DWORD PTR __$EHRec$[ebp]
  00026	64 89 0d 00 00
	00 00		 mov	 DWORD PTR fs:__except_list, ecx
  0002d	c9		 leave
  0002e	c3		 ret	 0
_TEXT	ENDS
;	COMDAT text$x
text$x	SEGMENT
$L103850:
  00000	8b 4d f0	 mov	 ecx, DWORD PTR _this$[ebp]
  00003	e9 00 00 00 00	 jmp	 ??1?$map@PAVMString@@PAV1@VMStringPointerCompare@@V?$allocator@U?$pair@QAVMString@@PAV1@@_STL@@@_STL@@@_STL@@QAE@XZ
__ehhandler$??1MStringMap@@QAE@XZ:
  00008	b8 00 00 00 00	 mov	 eax, OFFSET FLAT:$T103856
  0000d	e9 00 00 00 00	 jmp	 ___CxxFrameHandler
text$x	ENDS
??1MStringMap@@QAE@XZ ENDP				; MStringMap::~MStringMap
PUBLIC	?insert@?$map@PAVMString@@PAV1@VMStringPointerCompare@@V?$allocator@U?$pair@QAVMString@@PAV1@@_STL@@@_STL@@@_STL@@QAE?AU?$pair@U?$_Rb_tree_iterator@U?$pair@QAVMString@@PAV1@@_STL@@U?$_Nonconst_traits@U?$pair@QAVMString@@PAV1@@_STL@@@2@@_STL@@_N@2@ABU?$pair@QAVMString@@PAV1@@2@@Z ; _STL::map<MString *,MString *,MStringPointerCompare,_STL::allocator<_STL::pair<MString * const,MString *> > >::insert
; Function compile flags: /Ogsy
; File c:\stlport-4.6.1\stlport\stl\_map.h
;	COMDAT ?insert@?$map@PAVMString@@PAV1@VMStringPointerCompare@@V?$allocator@U?$pair@QAVMString@@PAV1@@_STL@@@_STL@@@_STL@@QAE?AU?$pair@U?$_Rb_tree_iterator@U?$pair@QAVMString@@PAV1@@_STL@@U?$_Nonconst_traits@U?$pair@QAVMString@@PAV1@@_STL@@@2@@_STL@@_N@2@ABU?$pair@QAVMString@@PAV1@@2@@Z
_TEXT	SEGMENT
___$ReturnUdt$ = 8					; size = 4
___x$ = 12						; size = 4
?insert@?$map@PAVMString@@PAV1@VMStringPointerCompare@@V?$allocator@U?$pair@QAVMString@@PAV1@@_STL@@@_STL@@@_STL@@QAE?AU?$pair@U?$_Rb_tree_iterator@U?$pair@QAVMString@@PAV1@@_STL@@U?$_Nonconst_traits@U?$pair@QAVMString@@PAV1@@_STL@@@2@@_STL@@_N@2@ABU?$pair@QAVMString@@PAV1@@2@@Z PROC NEAR ; _STL::map<MString *,MString *,MStringPointerCompare,_STL::allocator<_STL::pair<MString * const,MString *> > >::insert, COMDAT
; _this$ = ecx

; 170  :     { return _M_t.insert_unique(__x); }

  00000	ff 74 24 08	 push	 DWORD PTR ___x$[esp-4]
  00004	ff 74 24 08	 push	 DWORD PTR ___$ReturnUdt$[esp]
  00008	e8 00 00 00 00	 call	 ?insert_unique@?$_Rb_tree@PAVMString@@U?$pair@QAVMString@@PAV1@@_STL@@U?$_Select1st@U?$pair@QAVMString@@PAV1@@_STL@@@3@VMStringPointerCompare@@V?$allocator@U?$pair@QAVMString@@PAV1@@_STL@@@3@@_STL@@QAE?AU?$pair@U?$_Rb_tree_iterator@U?$pair@QAVMString@@PAV1@@_STL@@U?$_Nonconst_traits@U?$pair@QAVMString@@PAV1@@_STL@@@2@@_STL@@_N@2@ABU?$pair@QAVMString@@PAV1@@2@@Z ; _STL::_Rb_tree<MString *,_STL::pair<MString * const,MString *>,_STL::_Select1st<_STL::pair<MString * const,MString *> >,MStringPointerCompare,_STL::allocator<_STL::pair<MString * const,MString *> > >::insert_unique
  0000d	8b 44 24 04	 mov	 eax, DWORD PTR ___$ReturnUdt$[esp-4]
  00011	c2 08 00	 ret	 8
?insert@?$map@PAVMString@@PAV1@VMStringPointerCompare@@V?$allocator@U?$pair@QAVMString@@PAV1@@_STL@@@_STL@@@_STL@@QAE?AU?$pair@U?$_Rb_tree_iterator@U?$pair@QAVMString@@PAV1@@_STL@@U?$_Nonconst_traits@U?$pair@QAVMString@@PAV1@@_STL@@@2@@_STL@@_N@2@ABU?$pair@QAVMString@@PAV1@@2@@Z ENDP ; _STL::map<MString *,MString *,MStringPointerCompare,_STL::allocator<_STL::pair<MString * const,MString *> > >::insert
_TEXT	ENDS
PUBLIC	?Add@MStringMap@@QAE_NPBD0@Z			; MStringMap::Add
;	COMDAT xdata$x
; File c:\stlport-4.6.1\stlport\stl\_tree.h
xdata$x	SEGMENT
$T104001 DD	0ffffffffH
	DD	FLAT:$L103897
	DD	0ffffffffH
	DD	FLAT:$L103898
$T103997 DD	019930520H
	DD	02H
	DD	FLAT:$T104001
	DD	2 DUP(00H)
	DD	2 DUP(00H)
; Function compile flags: /Ogsy
; File c:\darkeden\designed_common\project\client\mstringmap.cpp
xdata$x	ENDS
;	COMDAT ?Add@MStringMap@@QAE_NPBD0@Z
_TEXT	SEGMENT
$T103875 = -28						; size = 8
$T103871 = -24						; size = 4
$T103867 = -24						; size = 4
$T103876 = -20						; size = 8
_this$ = -16						; size = 4
__$EHRec$ = -12						; size = 12
_pKeyString$ = 8					; size = 4
_pKey$ = 8						; size = 4
_pValue$ = 12						; size = 4
?Add@MStringMap@@QAE_NPBD0@Z PROC NEAR			; MStringMap::Add, COMDAT
; _this$ = ecx

; 82   : {

  00000	b8 00 00 00 00	 mov	 eax, __ehhandler$?Add@MStringMap@@QAE_NPBD0@Z
  00005	e8 00 00 00 00	 call	 __EH_prolog
  0000a	83 ec 10	 sub	 esp, 16			; 00000010H
  0000d	56		 push	 esi

; 83   : 	if (pKey==NULL)

  0000e	33 f6		 xor	 esi, esi
  00010	39 75 08	 cmp	 DWORD PTR _pKey$[ebp], esi
  00013	89 4d f0	 mov	 DWORD PTR _this$[ebp], ecx
  00016	75 07		 jne	 SHORT $L101060

; 84   : 	{
; 85   : 		return false;

  00018	32 c0		 xor	 al, al
  0001a	e9 de 00 00 00	 jmp	 $L101059
$L101060:
  0001f	53		 push	 ebx
  00020	57		 push	 edi

; 86   : 	}
; 87   : 
; 88   : 	MString* pKeyString = new MString(pKey);

  00021	6a 0c		 push	 12			; 0000000cH
  00023	e8 00 00 00 00	 call	 ??2@YAPAXI@Z		; operator new
  00028	59		 pop	 ecx
  00029	89 45 e8	 mov	 DWORD PTR $T103867[ebp], eax
  0002c	3b c6		 cmp	 eax, esi
  0002e	89 75 fc	 mov	 DWORD PTR __$EHRec$[ebp+8], esi
  00031	74 0e		 je	 SHORT $L103868
  00033	ff 75 08	 push	 DWORD PTR _pKey$[ebp]
  00036	8b c8		 mov	 ecx, eax
  00038	e8 00 00 00 00	 call	 ??0MString@@QAE@PBD@Z	; MString::MString
  0003d	8b f8		 mov	 edi, eax
  0003f	eb 02		 jmp	 SHORT $L103869
$L103868:
  00041	33 ff		 xor	 edi, edi
$L103869:
  00043	83 4d fc ff	 or	 DWORD PTR __$EHRec$[ebp+8], -1

; 89   : 	MString* pValueString;
; 90   : 
; 91   : 	//---------------------------------------------------
; 92   : 	// value  key  .
; 93   : 	//---------------------------------------------------
; 94   : 	if (pValue==NULL)

  00047	39 75 0c	 cmp	 DWORD PTR _pValue$[ebp], esi
  0004a	89 7d 08	 mov	 DWORD PTR _pKeyString$[ebp], edi
  0004d	75 04		 jne	 SHORT $L101067

; 95   : 	{
; 96   : 		pValueString = pKeyString;

  0004f	8b df		 mov	 ebx, edi

; 97   : 	}
; 98   : 	//---------------------------------------------------
; 99   : 	// value  
; 100  : 	//---------------------------------------------------
; 101  : 	else

  00051	eb 2a		 jmp	 SHORT $L101068
$L101067:

; 102  : 	{
; 103  : 		pValueString = new MString(pValue);

  00053	6a 0c		 push	 12			; 0000000cH
  00055	e8 00 00 00 00	 call	 ??2@YAPAXI@Z		; operator new
  0005a	59		 pop	 ecx
  0005b	89 45 e8	 mov	 DWORD PTR $T103871[ebp], eax
  0005e	3b c6		 cmp	 eax, esi
  00060	c7 45 fc 01 00
	00 00		 mov	 DWORD PTR __$EHRec$[ebp+8], 1
  00067	74 0c		 je	 SHORT $L103872
  00069	ff 75 0c	 push	 DWORD PTR _pValue$[ebp]
  0006c	8b c8		 mov	 ecx, eax
  0006e	e8 00 00 00 00	 call	 ??0MString@@QAE@PBD@Z	; MString::MString
  00073	eb 02		 jmp	 SHORT $L103873
$L103872:
  00075	33 c0		 xor	 eax, eax
$L103873:
  00077	83 4d fc ff	 or	 DWORD PTR __$EHRec$[ebp+8], -1
  0007b	8b d8		 mov	 ebx, eax
$L101068:

; 104  : 	}
; 105  : 
; 106  : 	STRING_MAP::iterator iString = find( pKeyString );

  0007d	8b 4d f0	 mov	 ecx, DWORD PTR _this$[ebp]
  00080	8d 45 08	 lea	 eax, DWORD PTR _pKeyString$[ebp]
  00083	50		 push	 eax
  00084	e8 00 00 00 00	 call	 ??$_M_find@PAVMString@@@?$_Rb_tree@PAVMString@@U?$pair@QAVMString@@PAV1@@_STL@@U?$_Select1st@U?$pair@QAVMString@@PAV1@@_STL@@@3@VMStringPointerCompare@@V?$allocator@U?$pair@QAVMString@@PAV1@@_STL@@@3@@_STL@@ABEPAU?$_Rb_tree_node@U?$pair@QAVMString@@PAV1@@_STL@@@1@ABQAVMString@@@Z ; _STL::_Rb_tree<MString *,_STL::pair<MString * const,MString *>,_STL::_Select1st<_STL::pair<MString * const,MString *> >,MStringPointerCompare,_STL::allocator<_STL::pair<MString * const,MString *> > >::_M_find<MString *>

; 107  : 	
; 108  : 	//---------------------------------------------------
; 109  : 	// key
; 110  : 	//---------------------------------------------------	
; 111  : 	if (iString == end())

  00089	8b 4d f0	 mov	 ecx, DWORD PTR _this$[ebp]
  0008c	8b f0		 mov	 esi, eax
  0008e	3b 31		 cmp	 esi, DWORD PTR [ecx]
  00090	75 15		 jne	 SHORT $L101076

; 112  : 	{			
; 113  : 		//---------------------------------------------------
; 114  : 		// (key, value) .
; 115  : 		//---------------------------------------------------
; 116  : 		insert( STRING_MAP::value_type( pKeyString, pValueString ) );

  00092	8d 45 e4	 lea	 eax, DWORD PTR $T103875[ebp]
  00095	50		 push	 eax
  00096	8d 45 ec	 lea	 eax, DWORD PTR $T103876[ebp]
  00099	50		 push	 eax
  0009a	89 7d e4	 mov	 DWORD PTR $T103875[ebp], edi
  0009d	89 5d e8	 mov	 DWORD PTR $T103875[ebp+4], ebx
  000a0	e8 00 00 00 00	 call	 ?insert_unique@?$_Rb_tree@PAVMString@@U?$pair@QAVMString@@PAV1@@_STL@@U?$_Select1st@U?$pair@QAVMString@@PAV1@@_STL@@@3@VMStringPointerCompare@@V?$allocator@U?$pair@QAVMString@@PAV1@@_STL@@@3@@_STL@@QAE?AU?$pair@U?$_Rb_tree_iterator@U?$pair@QAVMString@@PAV1@@_STL@@U?$_Nonconst_traits@U?$pair@QAVMString@@PAV1@@_STL@@@2@@_STL@@_N@2@ABU?$pair@QAVMString@@PAV1@@2@@Z ; _STL::_Rb_tree<MString *,_STL::pair<MString * const,MString *>,_STL::_Select1st<_STL::pair<MString * const,MString *> >,MStringPointerCompare,_STL::allocator<_STL::pair<MString * const,MString *> > >::insert_unique

; 117  : 	}
; 118  : 	//---------------------------------------------------
; 119  : 	//  key 
; 120  : 	//---------------------------------------------------
; 121  : 	else

  000a5	eb 52		 jmp	 SHORT $L103895
$L101076:

; 122  : 	{
; 123  : 		if (iString->first == iString->second)

  000a7	8b 4e 14	 mov	 ecx, DWORD PTR [esi+20]
  000aa	39 4e 10	 cmp	 DWORD PTR [esi+16], ecx
  000ad	74 0a		 je	 SHORT $L103879

; 124  : 		{
; 125  : 			// value key    .			
; 126  : 		}
; 127  : 		else
; 128  : 		{			
; 129  : 			delete iString->second;			

  000af	85 c9		 test	 ecx, ecx
  000b1	74 06		 je	 SHORT $L103879
  000b3	8b 01		 mov	 eax, DWORD PTR [ecx]
  000b5	6a 01		 push	 1
  000b7	ff 10		 call	 DWORD PTR [eax]
$L103879:

; 130  : 		}
; 131  : 
; 132  : 		//---------------------------------------------------
; 133  : 		// key value  
; 134  : 		//---------------------------------------------------
; 135  : 		if (*iString->first == *pValueString)

  000b9	8b 4e 10	 mov	 ecx, DWORD PTR [esi+16]
  000bc	53		 push	 ebx
  000bd	e8 00 00 00 00	 call	 ??8MString@@QAE_NABV0@@Z ; MString::operator==
  000c2	84 c0		 test	 al, al
  000c4	74 20		 je	 SHORT $L101103

; 136  : 		{
; 137  : 			iString->second = iString->first;
; 138  : 
; 139  : 			//---------------------------------------------------
; 140  : 			//  
; 141  : 			//---------------------------------------------------
; 142  : 			if (pKeyString==pValueString)

  000c6	3b fb		 cmp	 edi, ebx
  000c8	8b 46 10	 mov	 eax, DWORD PTR [esi+16]
  000cb	89 46 14	 mov	 DWORD PTR [esi+20], eax

; 143  : 			{
; 144  : 				delete pKeyString;
; 145  : 			}
; 146  : 			else

  000ce	74 1d		 je	 SHORT $L103999

; 147  : 			{
; 148  : 				delete pKeyString;

  000d0	85 ff		 test	 edi, edi
  000d2	74 08		 je	 SHORT $L103887
  000d4	8b 07		 mov	 eax, DWORD PTR [edi]
  000d6	6a 01		 push	 1
  000d8	8b cf		 mov	 ecx, edi
  000da	ff 10		 call	 DWORD PTR [eax]
$L103887:

; 149  : 				delete pValueString;

  000dc	85 db		 test	 ebx, ebx
  000de	74 19		 je	 SHORT $L103895
  000e0	8b 03		 mov	 eax, DWORD PTR [ebx]
  000e2	8b cb		 mov	 ecx, ebx

; 150  : 			}
; 151  : 		}
; 152  : 		//---------------------------------------------------
; 153  : 		//  ..  value .
; 154  : 		//---------------------------------------------------
; 155  : 		else

  000e4	eb 0f		 jmp	 SHORT $L104000
$L101103:

; 156  : 		{
; 157  : 			//---------------------------------------------------
; 158  : 			//  value 
; 159  : 			//---------------------------------------------------		
; 160  : 			iString->second = pValueString;
; 161  : 
; 162  : 			//---------------------------------------------------
; 163  : 			//  key 
; 164  : 			//---------------------------------------------------
; 165  : 			if (pKeyString!=pValueString)

  000e6	3b fb		 cmp	 edi, ebx
  000e8	89 5e 14	 mov	 DWORD PTR [esi+20], ebx
  000eb	74 0c		 je	 SHORT $L103895
$L103999:

; 166  : 			{
; 167  : 				delete pKeyString;

  000ed	85 ff		 test	 edi, edi
  000ef	74 08		 je	 SHORT $L103895
  000f1	8b 07		 mov	 eax, DWORD PTR [edi]
  000f3	8b cf		 mov	 ecx, edi
$L104000:
  000f5	6a 01		 push	 1
  000f7	ff 10		 call	 DWORD PTR [eax]
$L103895:
  000f9	5f		 pop	 edi

; 168  : 			}
; 169  : 		}
; 170  : 	}
; 171  : 
; 172  : 	return true;

  000fa	b0 01		 mov	 al, 1
  000fc	5b		 pop	 ebx
$L101059:

; 173  : }

  000fd	8b 4d f4	 mov	 ecx, DWORD PTR __$EHRec$[ebp]
  00100	5e		 pop	 esi
  00101	64 89 0d 00 00
	00 00		 mov	 DWORD PTR fs:__except_list, ecx
  00108	c9		 leave
  00109	c2 08 00	 ret	 8
_TEXT	ENDS
;	COMDAT text$x
text$x	SEGMENT
$L103897:
  00000	ff 75 e8	 push	 DWORD PTR $T103867[ebp]
  00003	e8 00 00 00 00	 call	 ??3@YAXPAX@Z		; operator delete
  00008	59		 pop	 ecx
  00009	c3		 ret	 0
$L103898:
  0000a	ff 75 e8	 push	 DWORD PTR $T103871[ebp]
  0000d	e8 00 00 00 00	 call	 ??3@YAXPAX@Z		; operator delete
  00012	59		 pop	 ecx
  00013	c3		 ret	 0
__ehhandler$?Add@MStringMap@@QAE_NPBD0@Z:
  00014	b8 00 00 00 00	 mov	 eax, OFFSET FLAT:$T103997
  00019	e9 00 00 00 00	 jmp	 ___CxxFrameHandler
text$x	ENDS
?Add@MStringMap@@QAE_NPBD0@Z ENDP			; MStringMap::Add
PUBLIC	?LoadFromFile@MStringMap@@QAEXAAVivfstream@@@Z	; MStringMap::LoadFromFile
EXTRN	??0MString@@QAE@XZ:NEAR				; MString::MString
;	COMDAT xdata$x
; File c:\stlport-4.6.1\stlport\stl\_map.h
xdata$x	SEGMENT
$T104039 DD	0ffffffffH
	DD	FLAT:$L104016
	DD	0ffffffffH
	DD	FLAT:$L104017
$T104035 DD	019930520H
	DD	02H
	DD	FLAT:$T104039
	DD	2 DUP(00H)
	DD	2 DUP(00H)
; Function compile flags: /Ogsy
; File c:\darkeden\designed_common\project\client\mstringmap.cpp
xdata$x	ENDS
;	COMDAT ?LoadFromFile@MStringMap@@QAEXAAVivfstream@@@Z
_TEXT	SEGMENT
$T104014 = -44						; size = 8
$T104015 = -36						; size = 8
$T104011 = -32						; size = 4
$T104007 = -32						; size = 4
_this$ = -28						; size = 4
_pValueString$101260 = -24				; size = 4
_num$ = -20						; size = 4
_i$101250 = -16						; size = 4
__$EHRec$ = -12						; size = 12
_file$ = 8						; size = 4
_bSame$ = 11						; size = 1
?LoadFromFile@MStringMap@@QAEXAAVivfstream@@@Z PROC NEAR ; MStringMap::LoadFromFile, COMDAT
; _this$ = ecx

; 295  : {	

  00000	b8 00 00 00 00	 mov	 eax, __ehhandler$?LoadFromFile@MStringMap@@QAEXAAVivfstream@@@Z
  00005	e8 00 00 00 00	 call	 __EH_prolog
  0000a	83 ec 20	 sub	 esp, 32			; 00000020H
  0000d	53		 push	 ebx
  0000e	57		 push	 edi

; 296  : 	int num;
; 297  : 
; 298  : 	//---------------------------------------------------
; 299  : 	// size 
; 300  : 	//---------------------------------------------------
; 301  : 	file.read((char*)&num, 4);

  0000f	8b 7d 08	 mov	 edi, DWORD PTR _file$[ebp]
  00012	33 db		 xor	 ebx, ebx
  00014	39 5f 04	 cmp	 DWORD PTR [edi+4], ebx
  00017	89 4d e4	 mov	 DWORD PTR _this$[ebp], ecx
  0001a	74 0e		 je	 SHORT $L104020
  0001c	8b 4f 04	 mov	 ecx, DWORD PTR [edi+4]
  0001f	8b 01		 mov	 eax, DWORD PTR [ecx]
  00021	6a 04		 push	 4
  00023	8d 55 ec	 lea	 edx, DWORD PTR _num$[ebp]
  00026	52		 push	 edx
  00027	ff 50 10	 call	 DWORD PTR [eax+16]
$L104020:

; 302  : 
; 303  : 	//---------------------------------------------------
; 304  : 	//  string .
; 305  : 	//---------------------------------------------------
; 306  : 	bool bSame;
; 307  : 	for (int i=0; i<num; i++)

  0002a	39 5d ec	 cmp	 DWORD PTR _num$[ebp], ebx
  0002d	89 5d f0	 mov	 DWORD PTR _i$101250[ebp], ebx
  00030	0f 8e 9f 00 00
	00		 jle	 $L101253
  00036	56		 push	 esi
$L101251:

; 308  : 	{
; 309  : 		//---------------------------------------------------
; 310  : 		// key value    
; 311  : 		//---------------------------------------------------
; 312  : 		file.read((char*)&bSame, 1);

  00037	39 5f 04	 cmp	 DWORD PTR [edi+4], ebx
  0003a	74 0e		 je	 SHORT $L104025
  0003c	8b 4f 04	 mov	 ecx, DWORD PTR [edi+4]
  0003f	8b 01		 mov	 eax, DWORD PTR [ecx]
  00041	6a 01		 push	 1
  00043	8d 55 0b	 lea	 edx, DWORD PTR _bSame$[ebp]
  00046	52		 push	 edx
  00047	ff 50 10	 call	 DWORD PTR [eax+16]
$L104025:

; 313  : 
; 314  : 		MString* pKeyString		= new MString;

  0004a	6a 0c		 push	 12			; 0000000cH
  0004c	e8 00 00 00 00	 call	 ??2@YAPAXI@Z		; operator new
  00051	59		 pop	 ecx
  00052	8b c8		 mov	 ecx, eax
