; Listing generated by Microsoft (R) Optimizing Compiler Version 13.10.3077 

	TITLE	\darkeden\Designed_Common\Project\Client\MStringList.cpp
	.386P
include listing.inc
if @Version gt 510
.model FLAT
else
_TEXT	SEGMENT PARA USE32 PUBLIC 'CODE'
_TEXT	ENDS
_DATA	SEGMENT DWORD USE32 PUBLIC 'DATA'
_DATA	ENDS
CONST	SEGMENT DWORD USE32 PUBLIC 'CONST'
CONST	ENDS
_BSS	SEGMENT DWORD USE32 PUBLIC 'BSS'
_BSS	ENDS
$$SYMBOLS	SEGMENT BYTE USE32 'DEBSYM'
$$SYMBOLS	ENDS
$$TYPES	SEGMENT BYTE USE32 'DEBTYP'
$$TYPES	ENDS
_TLS	SEGMENT DWORD USE32 PUBLIC 'TLS'
_TLS	ENDS
;	COMDAT ??_C@_0BN@ODLNCKCA@Data?2?2Info?2?2ClientConfig?4inf?$AA@
CONST	SEGMENT DWORD USE32 PUBLIC 'CONST'
CONST	ENDS
;	COMDAT ??_C@_0BM@DFPLPGPC@Data?2?2Info?2?2GuildMapper?4inf?$AA@
CONST	SEGMENT DWORD USE32 PUBLIC 'CONST'
CONST	ENDS
;	COMDAT ??_C@_0BN@LHODHNBK@Data?2?2Info?2?2GuildVersion?4inf?$AA@
CONST	SEGMENT DWORD USE32 PUBLIC 'CONST'
CONST	ENDS
;	COMDAT ??_C@_0BH@DDPLNCOL@Data?2?2Info?2?2Player?4inf?$AA@
CONST	SEGMENT DWORD USE32 PUBLIC 'CONST'
CONST	ENDS
;	COMDAT ??_C@_0BL@ILLNAPHB@Data?2?2Info?2?2Resolution?4inf?$AA@
CONST	SEGMENT DWORD USE32 PUBLIC 'CONST'
CONST	ENDS
;	COMDAT ??_C@_0CA@HEIGFDLG@Data?2?2Info?2?2SelectedChannel?4inf?$AA@
CONST	SEGMENT DWORD USE32 PUBLIC 'CONST'
CONST	ENDS
;	COMDAT ??_C@_0N@GOPDCEEB@basic_string?$AA@
CONST	SEGMENT DWORD USE32 PUBLIC 'CONST'
CONST	ENDS
rdata$r	SEGMENT DWORD USE32 PUBLIC 'CONST'
rdata$r	ENDS
text$yc	SEGMENT PARA USE32 PUBLIC 'CODE'
text$yc	ENDS
CRT$XCA	SEGMENT DWORD USE32 PUBLIC 'DATA'
CRT$XCA	ENDS
CRT$XCU	SEGMENT DWORD USE32 PUBLIC 'DATA'
CRT$XCU	ENDS
CRT$XCL	SEGMENT DWORD USE32 PUBLIC 'DATA'
CRT$XCL	ENDS
CRT$XCC	SEGMENT DWORD USE32 PUBLIC 'DATA'
CRT$XCC	ENDS
CRT$XCZ	SEGMENT DWORD USE32 PUBLIC 'DATA'
CRT$XCZ	ENDS
text$yd	SEGMENT PARA USE32 PUBLIC 'CODE'
text$yd	ENDS
;	COMDAT ?start@CNFS@@QAE_NPADH@Z
_TEXT	SEGMENT PARA USE32 PUBLIC 'CODE'
_TEXT	ENDS
;	COMDAT ?end@CNFS@@QAEXXZ
_TEXT	SEGMENT PARA USE32 PUBLIC 'CODE'
_TEXT	ENDS
;	COMDAT ?Init@VirtualFileHeader@@QAEXXZ
_TEXT	SEGMENT PARA USE32 PUBLIC 'CODE'
_TEXT	ENDS
;	COMDAT ??1IFileIO@@UAE@XZ
_TEXT	SEGMENT PARA USE32 PUBLIC 'CODE'
_TEXT	ENDS
;	COMDAT ??_GIFileIO@@UAEPAXI@Z
_TEXT	SEGMENT PARA USE32 PUBLIC 'CODE'
_TEXT	ENDS
;	COMDAT ??0iovfs_base@@QAE@XZ
_TEXT	SEGMENT PARA USE32 PUBLIC 'CODE'
_TEXT	ENDS
;	COMDAT ??_Giovfs_base@@UAEPAXI@Z
_TEXT	SEGMENT PARA USE32 PUBLIC 'CODE'
_TEXT	ENDS
;	COMDAT ??1iovfs_base@@UAE@XZ
_TEXT	SEGMENT PARA USE32 PUBLIC 'CODE'
_TEXT	ENDS
;	COMDAT ?Init@iovfs_base@@QAEXXZ
_TEXT	SEGMENT PARA USE32 PUBLIC 'CODE'
_TEXT	ENDS
;	COMDAT ??_Givfstream@@UAEPAXI@Z
_TEXT	SEGMENT PARA USE32 PUBLIC 'CODE'
_TEXT	ENDS
;	COMDAT ??1ivfstream@@UAE@XZ
_TEXT	SEGMENT PARA USE32 PUBLIC 'CODE'
_TEXT	ENDS
;	COMDAT ?open@ivfstream@@UAEXPBDH@Z
_TEXT	SEGMENT PARA USE32 PUBLIC 'CODE'
_TEXT	ENDS
;	COMDAT ??_Govfstream@@UAEPAXI@Z
_TEXT	SEGMENT PARA USE32 PUBLIC 'CODE'
_TEXT	ENDS
;	COMDAT ??1ovfstream@@UAE@XZ
_TEXT	SEGMENT PARA USE32 PUBLIC 'CODE'
_TEXT	ENDS
;	COMDAT ?open@ovfstream@@UAEXPBDH@Z
_TEXT	SEGMENT PARA USE32 PUBLIC 'CODE'
_TEXT	ENDS
;	COMDAT ??0MStringList@@QAE@XZ
_TEXT	SEGMENT PARA USE32 PUBLIC 'CODE'
_TEXT	ENDS
;	COMDAT ??_GMStringList@@UAEPAXI@Z
_TEXT	SEGMENT PARA USE32 PUBLIC 'CODE'
_TEXT	ENDS
;	COMDAT ??1MStringList@@UAE@XZ
_TEXT	SEGMENT PARA USE32 PUBLIC 'CODE'
_TEXT	ENDS
;	COMDAT ?Release@MStringList@@QAEXXZ
_TEXT	SEGMENT PARA USE32 PUBLIC 'CODE'
_TEXT	ENDS
;	COMDAT ?AddString@MStringList@@QAEXPBD@Z
_TEXT	SEGMENT PARA USE32 PUBLIC 'CODE'
_TEXT	ENDS
;	COMDAT ?GetIterator@MStringList@@QAE?AU?$_List_iterator@PAVMString@@U?$_Nonconst_traits@PAVMString@@@_STL@@@_STL@@I@Z
_TEXT	SEGMENT PARA USE32 PUBLIC 'CODE'
_TEXT	ENDS
;	COMDAT ?eq@?$__char_traits_base@DH@_STL@@SA_NABD0@Z
_TEXT	SEGMENT PARA USE32 PUBLIC 'CODE'
_TEXT	ENDS
;	COMDAT ?not_eof@?$__char_traits_base@DH@_STL@@SAHABH@Z
_TEXT	SEGMENT PARA USE32 PUBLIC 'CODE'
_TEXT	ENDS
;	COMDAT ?eq_int_type@?$__char_traits_base@DH@_STL@@SA_NABH0@Z
_TEXT	SEGMENT PARA USE32 PUBLIC 'CODE'
_TEXT	ENDS
;	COMDAT ?get_allocator@?$basic_string@DV?$char_traits@D@_STL@@V?$allocator@D@2@@_STL@@QBE?AV?$allocator@D@2@XZ
_TEXT	SEGMENT PARA USE32 PUBLIC 'CODE'
_TEXT	ENDS
;	COMDAT ??4?$basic_string@DV?$char_traits@D@_STL@@V?$allocator@D@2@@_STL@@QAEAAV01@PBD@Z
_TEXT	SEGMENT PARA USE32 PUBLIC 'CODE'
_TEXT	ENDS
;	COMDAT ?_M_terminate_string@?$basic_string@DV?$char_traits@D@_STL@@V?$allocator@D@2@@_STL@@AAEXXZ
_TEXT	SEGMENT PARA USE32 PUBLIC 'CODE'
_TEXT	ENDS
;	COMDAT ??0?$_String_base@DV?$allocator@D@_STL@@@_STL@@QAE@ABV?$allocator@D@1@@Z
_TEXT	SEGMENT PARA USE32 PUBLIC 'CODE'
_TEXT	ENDS
;	COMDAT ?allocate@?$allocator@D@_STL@@QAEPADIPBX@Z
_TEXT	SEGMENT PARA USE32 PUBLIC 'CODE'
_TEXT	ENDS
;	COMDAT ??0?$fpos@H@_STL@@QAE@J@Z
_TEXT	SEGMENT PARA USE32 PUBLIC 'CODE'
_TEXT	ENDS
;	COMDAT ??B?$fpos@H@_STL@@QBEJXZ
_TEXT	SEGMENT PARA USE32 PUBLIC 'CODE'
_TEXT	ENDS
;	COMDAT ?state@?$fpos@H@_STL@@QBEHXZ
_TEXT	SEGMENT PARA USE32 PUBLIC 'CODE'
_TEXT	ENDS
;	COMDAT ?is_open@?$basic_filebuf@DV?$char_traits@D@_STL@@@_STL@@QBE_NXZ
_TEXT	SEGMENT PARA USE32 PUBLIC 'CODE'
_TEXT	ENDS
;	COMDAT ?_M_seek_return@?$basic_filebuf@DV?$char_traits@D@_STL@@@_STL@@AAE?AV?$fpos@H@2@JH@Z
_TEXT	SEGMENT PARA USE32 PUBLIC 'CODE'
_TEXT	ENDS
;	COMDAT ??0?$_Filebuf_Tmp_Buf@D@_STL@@QAE@H@Z
_TEXT	SEGMENT PARA USE32 PUBLIC 'CODE'
_TEXT	ENDS
;	COMDAT ??1?$_Filebuf_Tmp_Buf@D@_STL@@QAE@XZ
_TEXT	SEGMENT PARA USE32 PUBLIC 'CODE'
_TEXT	ENDS
;	COMDAT ??0?$list@PAVMString@@V?$allocator@PAVMString@@@_STL@@@_STL@@QAE@ABV?$allocator@PAVMString@@@1@@Z
_TEXT	SEGMENT PARA USE32 PUBLIC 'CODE'
_TEXT	ENDS
;	COMDAT ?begin@?$list@PAVMString@@V?$allocator@PAVMString@@@_STL@@@_STL@@QAE?AU?$_List_iterator@PAVMString@@U?$_Nonconst_traits@PAVMString@@@_STL@@@2@XZ
_TEXT	SEGMENT PARA USE32 PUBLIC 'CODE'
_TEXT	ENDS
;	COMDAT ?end@?$list@PAVMString@@V?$allocator@PAVMString@@@_STL@@@_STL@@QAE?AU?$_List_iterator@PAVMString@@U?$_Nonconst_traits@PAVMString@@@_STL@@@2@XZ
_TEXT	SEGMENT PARA USE32 PUBLIC 'CODE'
_TEXT	ENDS
;	COMDAT ?size@?$list@PAVMString@@V?$allocator@PAVMString@@@_STL@@@_STL@@QBEIXZ
_TEXT	SEGMENT PARA USE32 PUBLIC 'CODE'
_TEXT	ENDS
;	COMDAT ?push_back@?$list@PAVMString@@V?$allocator@PAVMString@@@_STL@@@_STL@@QAEXABQAVMString@@@Z
_TEXT	SEGMENT PARA USE32 PUBLIC 'CODE'
_TEXT	ENDS
;	COMDAT ??1?$list@PAVMString@@V?$allocator@PAVMString@@@_STL@@@_STL@@QAE@XZ
_TEXT	SEGMENT PARA USE32 PUBLIC 'CODE'
_TEXT	ENDS
;	COMDAT ??0?$allocator@PAVMString@@@_STL@@QAE@XZ
_TEXT	SEGMENT PARA USE32 PUBLIC 'CODE'
_TEXT	ENDS
;	COMDAT ??1?$allocator@PAVMString@@@_STL@@QAE@XZ
_TEXT	SEGMENT PARA USE32 PUBLIC 'CODE'
_TEXT	ENDS
;	COMDAT ??0?$_List_iterator@PAVMString@@U?$_Nonconst_traits@PAVMString@@@_STL@@@_STL@@QAE@ABU01@@Z
_TEXT	SEGMENT PARA USE32 PUBLIC 'CODE'
_TEXT	ENDS
;	COMDAT ??D?$_List_iterator@PAVMString@@U?$_Nonconst_traits@PAVMString@@@_STL@@@_STL@@QBEAAPAVMString@@XZ
_TEXT	SEGMENT PARA USE32 PUBLIC 'CODE'
_TEXT	ENDS
;	COMDAT ??E?$_List_iterator@PAVMString@@U?$_Nonconst_traits@PAVMString@@@_STL@@@_STL@@QAE?AU01@H@Z
_TEXT	SEGMENT PARA USE32 PUBLIC 'CODE'
_TEXT	ENDS
;	COMDAT ?_M_terminate_string_aux@?$basic_string@DV?$char_traits@D@_STL@@V?$allocator@D@2@@_STL@@AAEXABU__true_type@2@@Z
_TEXT	SEGMENT PARA USE32 PUBLIC 'CODE'
_TEXT	ENDS
;	COMDAT ?assign@?$basic_string@DV?$char_traits@D@_STL@@V?$allocator@D@2@@_STL@@QAEAAV12@PBD0@Z
_TEXT	SEGMENT PARA USE32 PUBLIC 'CODE'
_TEXT	ENDS
;	COMDAT ??0?$allocator@D@_STL@@QAE@ABV01@@Z
_TEXT	SEGMENT PARA USE32 PUBLIC 'CODE'
_TEXT	ENDS
;	COMDAT ??0?$_STLP_alloc_proxy@PADDV?$allocator@D@_STL@@@_STL@@QAE@ABV?$allocator@D@1@PAD@Z
_TEXT	SEGMENT PARA USE32 PUBLIC 'CODE'
_TEXT	ENDS
;	COMDAT ?state@?$fpos@H@_STL@@QAEXH@Z
_TEXT	SEGMENT PARA USE32 PUBLIC 'CODE'
_TEXT	ENDS
;	COMDAT ?begin@?$list@PAVMString@@V?$allocator@PAVMString@@@_STL@@@_STL@@QBE?AU?$_List_iterator@PAVMString@@U?$_Const_traits@PAVMString@@@_STL@@@2@XZ
_TEXT	SEGMENT PARA USE32 PUBLIC 'CODE'
_TEXT	ENDS
;	COMDAT ?end@?$list@PAVMString@@V?$allocator@PAVMString@@@_STL@@@_STL@@QBE?AU?$_List_iterator@PAVMString@@U?$_Const_traits@PAVMString@@@_STL@@@2@XZ
_TEXT	SEGMENT PARA USE32 PUBLIC 'CODE'
_TEXT	ENDS
;	COMDAT ?insert@?$list@PAVMString@@V?$allocator@PAVMString@@@_STL@@@_STL@@QAE?AU?$_List_iterator@PAVMString@@U?$_Nonconst_traits@PAVMString@@@_STL@@@2@U32@ABQAVMString@@@Z
_TEXT	SEGMENT PARA USE32 PUBLIC 'CODE'
_TEXT	ENDS
;	COMDAT ??0?$_List_base@PAVMString@@V?$allocator@PAVMString@@@_STL@@@_STL@@QAE@ABV?$allocator@PAVMString@@@1@@Z
_TEXT	SEGMENT PARA USE32 PUBLIC 'CODE'
_TEXT	ENDS
;	COMDAT ??1?$_List_base@PAVMString@@V?$allocator@PAVMString@@@_STL@@@_STL@@QAE@XZ
_TEXT	SEGMENT PARA USE32 PUBLIC 'CODE'
_TEXT	ENDS
;	COMDAT ??0?$_List_iterator@PAVMString@@U?$_Nonconst_traits@PAVMString@@@_STL@@@_STL@@QAE@PAU?$_List_node@PAVMString@@@1@@Z
_TEXT	SEGMENT PARA USE32 PUBLIC 'CODE'
_TEXT	ENDS
;	COMDAT ??1?$_STLP_alloc_proxy@PAU?$_List_node@PAVMString@@@_STL@@U12@V?$allocator@U?$_List_node@PAVMString@@@_STL@@@2@@_STL@@QAE@XZ
_TEXT	SEGMENT PARA USE32 PUBLIC 'CODE'
_TEXT	ENDS
;	COMDAT ?copy@?$__char_traits_base@DH@_STL@@SAPADPADPBDI@Z
_TEXT	SEGMENT PARA USE32 PUBLIC 'CODE'
_TEXT	ENDS
;	COMDAT ?begin@?$basic_string@DV?$char_traits@D@_STL@@V?$allocator@D@2@@_STL@@QAEPADXZ
_TEXT	SEGMENT PARA USE32 PUBLIC 'CODE'
_TEXT	ENDS
;	COMDAT ?end@?$basic_string@DV?$char_traits@D@_STL@@V?$allocator@D@2@@_STL@@QAEPADXZ
_TEXT	SEGMENT PARA USE32 PUBLIC 'CODE'
_TEXT	ENDS
;	COMDAT ?size@?$basic_string@DV?$char_traits@D@_STL@@V?$allocator@D@2@@_STL@@QBEIXZ
_TEXT	SEGMENT PARA USE32 PUBLIC 'CODE'
_TEXT	ENDS
;	COMDAT ?erase@?$basic_string@DV?$char_traits@D@_STL@@V?$allocator@D@2@@_STL@@QAEPADPAD0@Z
_TEXT	SEGMENT PARA USE32 PUBLIC 'CODE'
_TEXT	ENDS
;	COMDAT ?_M_create_node@?$list@PAVMString@@V?$allocator@PAVMString@@@_STL@@@_STL@@IAEPAU?$_List_node@PAVMString@@@2@ABQAVMString@@@Z
_TEXT	SEGMENT PARA USE32 PUBLIC 'CODE'
_TEXT	ENDS
;	COMDAT ??0?$_STLP_alloc_proxy@PAU?$_List_node@PAVMString@@@_STL@@U12@V?$allocator@U?$_List_node@PAVMString@@@_STL@@@2@@_STL@@QAE@ABV?$allocator@U?$_List_node@PAVMString@@@_STL@@@1@PAU?$_List_node@PAVMString@@@1@@Z
_TEXT	SEGMENT PARA USE32 PUBLIC 'CODE'
_TEXT	ENDS
;	COMDAT ??1?$allocator@U?$_List_node@PAVMString@@@_STL@@@_STL@@QAE@XZ
_TEXT	SEGMENT PARA USE32 PUBLIC 'CODE'
_TEXT	ENDS
;	COMDAT ?allocate@?$allocator@U?$_List_node@PAVMString@@@_STL@@@_STL@@QAEPAU?$_List_node@PAVMString@@@2@IPBX@Z
_TEXT	SEGMENT PARA USE32 PUBLIC 'CODE'
_TEXT	ENDS
;	COMDAT ?deallocate@?$allocator@U?$_List_node@PAVMString@@@_STL@@@_STL@@QAEXPAU?$_List_node@PAVMString@@@2@I@Z
_TEXT	SEGMENT PARA USE32 PUBLIC 'CODE'
_TEXT	ENDS
;	COMDAT ??0?$_List_iterator@PAVMString@@U?$_Const_traits@PAVMString@@@_STL@@@_STL@@QAE@PAU?$_List_node@PAVMString@@@1@@Z
_TEXT	SEGMENT PARA USE32 PUBLIC 'CODE'
_TEXT	ENDS
;	COMDAT ?move@?$__char_traits_base@DH@_STL@@SAPADPADPBDI@Z
_TEXT	SEGMENT PARA USE32 PUBLIC 'CODE'
_TEXT	ENDS
;	COMDAT ??0?$allocator@U?$_List_node@PAVMString@@@_STL@@@_STL@@QAE@ABV01@@Z
_TEXT	SEGMENT PARA USE32 PUBLIC 'CODE'
_TEXT	ENDS
;	COMDAT ??$_M_range_initialize@PBD@?$basic_string@DV?$char_traits@D@_STL@@V?$allocator@D@2@@_STL@@AAEXPBD0@Z
_TEXT	SEGMENT PARA USE32 PUBLIC 'CODE'
_TEXT	ENDS
;	COMDAT ??$_M_range_initialize@PAD@?$basic_string@DV?$char_traits@D@_STL@@V?$allocator@D@2@@_STL@@AAEXPAD0@Z
_TEXT	SEGMENT PARA USE32 PUBLIC 'CODE'
_TEXT	ENDS
;	COMDAT ?close@?$basic_filebuf@DV?$char_traits@D@_STL@@@_STL@@QAEPAV12@XZ
_TEXT	SEGMENT PARA USE32 PUBLIC 'CODE'
_TEXT	ENDS
;	COMDAT ?_M_exit_input_mode@?$basic_filebuf@DV?$char_traits@D@_STL@@@_STL@@AAEXXZ
_TEXT	SEGMENT PARA USE32 PUBLIC 'CODE'
_TEXT	ENDS
;	COMDAT ?_M_switch_to_output_mode@?$basic_filebuf@DV?$char_traits@D@_STL@@@_STL@@AAE_NXZ
_TEXT	SEGMENT PARA USE32 PUBLIC 'CODE'
_TEXT	ENDS
;	COMDAT ?_M_output_error@?$basic_filebuf@DV?$char_traits@D@_STL@@@_STL@@AAEHXZ
_TEXT	SEGMENT PARA USE32 PUBLIC 'CODE'
_TEXT	ENDS
;	COMDAT ?_M_allocate_buffers@?$basic_filebuf@DV?$char_traits@D@_STL@@@_STL@@AAE_NPADH@Z
_TEXT	SEGMENT PARA USE32 PUBLIC 'CODE'
_TEXT	ENDS
;	COMDAT ?_M_deallocate_buffers@?$basic_filebuf@DV?$char_traits@D@_STL@@@_STL@@AAEXXZ
_TEXT	SEGMENT PARA USE32 PUBLIC 'CODE'
_TEXT	ENDS
;	COMDAT ?_M_seek_init@?$basic_filebuf@DV?$char_traits@D@_STL@@@_STL@@AAE_N_N@Z
_TEXT	SEGMENT PARA USE32 PUBLIC 'CODE'
_TEXT	ENDS
;	COMDAT ?_M_setup_codecvt@?$basic_filebuf@DV?$char_traits@D@_STL@@@_STL@@AAEXABVlocale@2@@Z
_TEXT	SEGMENT PARA USE32 PUBLIC 'CODE'
_TEXT	ENDS
;	COMDAT ??$equal@PADPADU?$_Eq_traits@V?$char_traits@D@_STL@@@_STL@@@_STL@@YA_NPAD00U?$_Eq_traits@V?$char_traits@D@_STL@@@0@@Z
_TEXT	SEGMENT PARA USE32 PUBLIC 'CODE'
_TEXT	ENDS
;	COMDAT ??$_Destroy@V?$basic_string@DV?$char_traits@D@_STL@@V?$allocator@D@2@@_STL@@@_STL@@YAXPAV?$basic_string@DV?$char_traits@D@_STL@@V?$allocator@D@2@@0@@Z
_TEXT	SEGMENT PARA USE32 PUBLIC 'CODE'
_TEXT	ENDS
;	COMDAT ??$_M_assign_dispatch@PAD@?$basic_string@DV?$char_traits@D@_STL@@V?$allocator@D@2@@_STL@@AAEAAV01@PAD0ABU__false_type@1@@Z
_TEXT	SEGMENT PARA USE32 PUBLIC 'CODE'
_TEXT	ENDS
;	COMDAT ?clear@?$_List_base@PAVMString@@V?$allocator@PAVMString@@@_STL@@@_STL@@QAEXXZ
_TEXT	SEGMENT PARA USE32 PUBLIC 'CODE'
_TEXT	ENDS
;	COMDAT ??$distance@U?$_List_iterator@PAVMString@@U?$_Const_traits@PAVMString@@@_STL@@@_STL@@@_STL@@YAHABU?$_List_iterator@PAVMString@@U?$_Const_traits@PAVMString@@@_STL@@@0@0@Z
_TEXT	SEGMENT PARA USE32 PUBLIC 'CODE'
_TEXT	ENDS
;	COMDAT ??$append@PBD@?$basic_string@DV?$char_traits@D@_STL@@V?$allocator@D@2@@_STL@@QAEAAV01@PBD0@Z
_TEXT	SEGMENT PARA USE32 PUBLIC 'CODE'
_TEXT	ENDS
;	COMDAT ??$?0PAVMString@@@?$allocator@U?$_List_node@PAVMString@@@_STL@@@_STL@@QAE@ABV?$allocator@PAVMString@@@1@@Z
_TEXT	SEGMENT PARA USE32 PUBLIC 'CODE'
_TEXT	ENDS
;	COMDAT ??$_Construct@PAVMString@@PAV1@@_STL@@YAXPAPAVMString@@ABQAV1@@Z
_TEXT	SEGMENT PARA USE32 PUBLIC 'CODE'
_TEXT	ENDS
;	COMDAT ??_G?$basic_string@DV?$char_traits@D@_STL@@V?$allocator@D@2@@_STL@@QAEPAXI@Z
_TEXT	SEGMENT PARA USE32 PUBLIC 'CODE'
_TEXT	ENDS
;	COMDAT ?_M_exit_putback_mode@?$basic_filebuf@DV?$char_traits@D@_STL@@@_STL@@AAEXXZ
_TEXT	SEGMENT PARA USE32 PUBLIC 'CODE'
_TEXT	ENDS
;	COMDAT ??R?$_Eq_traits@V?$char_traits@D@_STL@@@_STL@@QBE_NABD0@Z
_TEXT	SEGMENT PARA USE32 PUBLIC 'CODE'
_TEXT	ENDS
;	COMDAT ??$_M_range_initialize@PBD@?$basic_string@DV?$char_traits@D@_STL@@V?$allocator@D@2@@_STL@@AAEXPBD0ABUforward_iterator_tag@1@@Z
_TEXT	SEGMENT PARA USE32 PUBLIC 'CODE'
_TEXT	ENDS
;	COMDAT ??$_M_range_initialize@PAD@?$basic_string@DV?$char_traits@D@_STL@@V?$allocator@D@2@@_STL@@AAEXPAD0ABUforward_iterator_tag@1@@Z
_TEXT	SEGMENT PARA USE32 PUBLIC 'CODE'
_TEXT	ENDS
;	COMDAT ?_M_unshift@?$basic_filebuf@DV?$char_traits@D@_STL@@@_STL@@AAE_NXZ
_TEXT	SEGMENT PARA USE32 PUBLIC 'CODE'
_TEXT	ENDS
;	COMDAT ?_M_allocate_buffers@?$basic_filebuf@DV?$char_traits@D@_STL@@@_STL@@AAE_NXZ
_TEXT	SEGMENT PARA USE32 PUBLIC 'CODE'
_TEXT	ENDS
;	COMDAT ??$max@H@_STL@@YAABHABH0@Z
_TEXT	SEGMENT PARA USE32 PUBLIC 'CODE'
_TEXT	ENDS
;	COMDAT ??$use_facet@V?$codecvt@DDH@_STL@@@_STL@@YAABV?$codecvt@DDH@0@ABVlocale@0@@Z
_TEXT	SEGMENT PARA USE32 PUBLIC 'CODE'
_TEXT	ENDS
;	COMDAT ??$append@PAD@?$basic_string@DV?$char_traits@D@_STL@@V?$allocator@D@2@@_STL@@QAEAAV01@PAD0@Z
_TEXT	SEGMENT PARA USE32 PUBLIC 'CODE'
_TEXT	ENDS
;	COMDAT ??$_Destroy@PAVMString@@@_STL@@YAXPAPAVMString@@@Z
_TEXT	SEGMENT PARA USE32 PUBLIC 'CODE'
_TEXT	ENDS
;	COMDAT ??$__distance@U?$_List_iterator@PAVMString@@U?$_Const_traits@PAVMString@@@_STL@@@_STL@@@_STL@@YAHABU?$_List_iterator@PAVMString@@U?$_Const_traits@PAVMString@@@_STL@@@0@0ABUinput_iterator_tag@0@@Z
_TEXT	SEGMENT PARA USE32 PUBLIC 'CODE'
_TEXT	ENDS
;	COMDAT ??$_M_append_dispatch@PBD@?$basic_string@DV?$char_traits@D@_STL@@V?$allocator@D@2@@_STL@@AAEAAV01@PBD0ABU__false_type@1@@Z
_TEXT	SEGMENT PARA USE32 PUBLIC 'CODE'
_TEXT	ENDS
;	COMDAT ??E?$_List_iterator@PAVMString@@U?$_Const_traits@PAVMString@@@_STL@@@_STL@@QAEAAU01@XZ
_TEXT	SEGMENT PARA USE32 PUBLIC 'CODE'
_TEXT	ENDS
;	COMDAT ??$distance@PBD@_STL@@YAHABQBD0@Z
_TEXT	SEGMENT PARA USE32 PUBLIC 'CODE'
_TEXT	ENDS
;	COMDAT ?_M_allocate_block@?$_String_base@DV?$allocator@D@_STL@@@_STL@@QAEXI@Z
_TEXT	SEGMENT PARA USE32 PUBLIC 'CODE'
_TEXT	ENDS
;	COMDAT ??$distance@PAD@_STL@@YAHABQAD0@Z
_TEXT	SEGMENT PARA USE32 PUBLIC 'CODE'
_TEXT	ENDS
;	COMDAT ??$uninitialized_copy@PADPAD@_STL@@YAPADPAD00@Z
_TEXT	SEGMENT PARA USE32 PUBLIC 'CODE'
_TEXT	ENDS
;	COMDAT ??$_M_append_dispatch@PAD@?$basic_string@DV?$char_traits@D@_STL@@V?$allocator@D@2@@_STL@@AAEAAV01@PAD0ABU__false_type@1@@Z
_TEXT	SEGMENT PARA USE32 PUBLIC 'CODE'
_TEXT	ENDS
;	COMDAT ??$append@PBD@?$basic_string@DV?$char_traits@D@_STL@@V?$allocator@D@2@@_STL@@AAEAAV01@PBD0ABUforward_iterator_tag@1@@Z
_TEXT	SEGMENT PARA USE32 PUBLIC 'CODE'
_TEXT	ENDS
;	COMDAT ?_M_construct_null@?$basic_string@DV?$char_traits@D@_STL@@V?$allocator@D@2@@_STL@@AAEXPAD@Z
_TEXT	SEGMENT PARA USE32 PUBLIC 'CODE'
_TEXT	ENDS
;	COMDAT ?max_size@?$basic_string@DV?$char_traits@D@_STL@@V?$allocator@D@2@@_STL@@QBEIXZ
_TEXT	SEGMENT PARA USE32 PUBLIC 'CODE'
_TEXT	ENDS
;	COMDAT ?capacity@?$basic_string@DV?$char_traits@D@_STL@@V?$allocator@D@2@@_STL@@QBEIXZ
_TEXT	SEGMENT PARA USE32 PUBLIC 'CODE'
_TEXT	ENDS
;	COMDAT ?max_size@?$_String_base@DV?$allocator@D@_STL@@@_STL@@QBEIXZ
_TEXT	SEGMENT PARA USE32 PUBLIC 'CODE'
_TEXT	ENDS
;	COMDAT ?_M_construct_null_aux@?$basic_string@DV?$char_traits@D@_STL@@V?$allocator@D@2@@_STL@@AAEXPADABU__true_type@2@@Z
_TEXT	SEGMENT PARA USE32 PUBLIC 'CODE'
_TEXT	ENDS
;	COMDAT ??$__distance@PBD@_STL@@YAHABQBD0ABUrandom_access_iterator_tag@0@@Z
_TEXT	SEGMENT PARA USE32 PUBLIC 'CODE'
_TEXT	ENDS
;	COMDAT ?_M_throw_length_error@?$_String_base@DV?$allocator@D@_STL@@@_STL@@QBEXXZ
_TEXT	SEGMENT PARA USE32 PUBLIC 'CODE'
_TEXT	ENDS
;	COMDAT ??$__distance@PAD@_STL@@YAHABQAD0ABUrandom_access_iterator_tag@0@@Z
_TEXT	SEGMENT PARA USE32 PUBLIC 'CODE'
_TEXT	ENDS
;	COMDAT ??$__uninitialized_copy@PADPAD@_STL@@YAPADPAD00ABU__true_type@0@@Z
_TEXT	SEGMENT PARA USE32 PUBLIC 'CODE'
_TEXT	ENDS
;	COMDAT ??$append@PAD@?$basic_string@DV?$char_traits@D@_STL@@V?$allocator@D@2@@_STL@@AAEAAV01@PAD0ABUforward_iterator_tag@1@@Z
_TEXT	SEGMENT PARA USE32 PUBLIC 'CODE'
_TEXT	ENDS
;	COMDAT ??$max@I@_STL@@YAABIABI0@Z
_TEXT	SEGMENT PARA USE32 PUBLIC 'CODE'
_TEXT	ENDS
;	COMDAT ?_Ret@?$_BothPtrType@PADPAD@_STL@@SA?AU__true_type@2@XZ
_TEXT	SEGMENT PARA USE32 PUBLIC 'CODE'
_TEXT	ENDS
;	COMDAT ??$__copy_aux@PADPAD@_STL@@YAPADPAD00ABU__true_type@0@@Z
_TEXT	SEGMENT PARA USE32 PUBLIC 'CODE'
_TEXT	ENDS
;	COMDAT ?_Ret@?$_OKToMemCpy@DD@_STL@@SA?AU__true_type@2@XZ
_TEXT	SEGMENT PARA USE32 PUBLIC 'CODE'
_TEXT	ENDS
;	COMDAT ??$_IsOKToMemCpy@DD@_STL@@YA?AU?$_OKToMemCpy@DD@0@PAD0@Z
_TEXT	SEGMENT PARA USE32 PUBLIC 'CODE'
_TEXT	ENDS
;	COMDAT ??$__copy_ptrs@PADPAD@_STL@@YAPADPAD00ABU__true_type@0@@Z
_TEXT	SEGMENT PARA USE32 PUBLIC 'CODE'
_TEXT	ENDS
;	COMDAT ??_R3IFileIO@@8
rdata$r	SEGMENT DWORD USE32 PUBLIC 'CONST'
rdata$r	ENDS
;	COMDAT ??_R3ovfstream@@8
rdata$r	SEGMENT DWORD USE32 PUBLIC 'CONST'
rdata$r	ENDS
;	COMDAT ??_R3ivfstream@@8
rdata$r	SEGMENT DWORD USE32 PUBLIC 'CONST'
rdata$r	ENDS
;	COMDAT ??_R3MStringList@@8
rdata$r	SEGMENT DWORD USE32 PUBLIC 'CONST'
rdata$r	ENDS
;	COMDAT ??_R3iovfs_base@@8
rdata$r	SEGMENT DWORD USE32 PUBLIC 'CONST'
rdata$r	ENDS
;	COMDAT ??_R2IFileIO@@8
rdata$r	SEGMENT DWORD USE32 PUBLIC 'CONST'
rdata$r	ENDS
;	COMDAT ??_R2ovfstream@@8
rdata$r	SEGMENT DWORD USE32 PUBLIC 'CONST'
rdata$r	ENDS
;	COMDAT ??_R2ivfstream@@8
rdata$r	SEGMENT DWORD USE32 PUBLIC 'CONST'
rdata$r	ENDS
;	COMDAT ??_R2MStringList@@8
rdata$r	SEGMENT DWORD USE32 PUBLIC 'CONST'
rdata$r	ENDS
;	COMDAT ??_R2iovfs_base@@8
rdata$r	SEGMENT DWORD USE32 PUBLIC 'CONST'
rdata$r	ENDS
;	COMDAT ??_R1A@?0A@A@IFileIO@@8
rdata$r	SEGMENT DWORD USE32 PUBLIC 'CONST'
rdata$r	ENDS
;	COMDAT ??_R1A@?0A@A@ovfstream@@8
rdata$r	SEGMENT DWORD USE32 PUBLIC 'CONST'
rdata$r	ENDS
;	COMDAT ??_R1A@?0A@A@ivfstream@@8
rdata$r	SEGMENT DWORD USE32 PUBLIC 'CONST'
rdata$r	ENDS
;	COMDAT ??_R13?0A@A@?$_List_base@PAVMString@@V?$allocator@PAVMString@@@_STL@@@_STL@@8
rdata$r	SEGMENT DWORD USE32 PUBLIC 'CONST'
rdata$r	ENDS
;	COMDAT ??_R13?0A@A@?$list@PAVMString@@V?$allocator@PAVMString@@@_STL@@@_STL@@8
rdata$r	SEGMENT DWORD USE32 PUBLIC 'CONST'
rdata$r	ENDS
;	COMDAT ??_R1A@?0A@A@MStringList@@8
rdata$r	SEGMENT DWORD USE32 PUBLIC 'CONST'
rdata$r	ENDS
;	COMDAT ??_R1A@?0A@A@iovfs_base@@8
rdata$r	SEGMENT DWORD USE32 PUBLIC 'CONST'
rdata$r	ENDS
;	COMDAT ??_R0?AVIFileIO@@@8
_DATA	SEGMENT DWORD USE32 PUBLIC 'DATA'
_DATA	ENDS
;	COMDAT ??_R0?AVovfstream@@@8
_DATA	SEGMENT DWORD USE32 PUBLIC 'DATA'
_DATA	ENDS
;	COMDAT ??_R0?AVivfstream@@@8
_DATA	SEGMENT DWORD USE32 PUBLIC 'DATA'
_DATA	ENDS
;	COMDAT ??_R0?AV?$_List_base@PAVMString@@V?$allocator@PAVMString@@@_STL@@@_STL@@@8
_DATA	SEGMENT DWORD USE32 PUBLIC 'DATA'
_DATA	ENDS
;	COMDAT ??_R0?AV?$list@PAVMString@@V?$allocator@PAVMString@@@_STL@@@_STL@@@8
_DATA	SEGMENT DWORD USE32 PUBLIC 'DATA'
_DATA	ENDS
;	COMDAT ??_R0?AVMStringList@@@8
_DATA	SEGMENT DWORD USE32 PUBLIC 'DATA'
_DATA	ENDS
;	COMDAT ??_R0?AViovfs_base@@@8
_DATA	SEGMENT DWORD USE32 PUBLIC 'DATA'
_DATA	ENDS
;	COMDAT ??_R4IFileIO@@6B@
rdata$r	SEGMENT DWORD USE32 PUBLIC 'CONST'
rdata$r	ENDS
;	COMDAT ??_R4ovfstream@@6B@
rdata$r	SEGMENT DWORD USE32 PUBLIC 'CONST'
rdata$r	ENDS
;	COMDAT ??_R4ivfstream@@6B@
rdata$r	SEGMENT DWORD USE32 PUBLIC 'CONST'
rdata$r	ENDS
;	COMDAT ??_R4MStringList@@6B@
rdata$r	SEGMENT DWORD USE32 PUBLIC 'CONST'
rdata$r	ENDS
;	COMDAT ??_R4iovfs_base@@6B@
rdata$r	SEGMENT DWORD USE32 PUBLIC 'CONST'
rdata$r	ENDS
;	COMDAT ?__copy_trivial@_STL@@YAPAXPBX0PAX@Z
_TEXT	SEGMENT PARA USE32 PUBLIC 'CODE'
_TEXT	ENDS
;	COMDAT ?_M_deallocate_block@?$_String_base@DV?$allocator@D@_STL@@@_STL@@QAEXXZ
_TEXT	SEGMENT PARA USE32 PUBLIC 'CODE'
_TEXT	ENDS
;	COMDAT ?deallocate@?$allocator@D@_STL@@QAEXPADI@Z
_TEXT	SEGMENT PARA USE32 PUBLIC 'CODE'
_TEXT	ENDS
;	COMDAT ?__page_size@_Filebuf_base@_STL@@SAIXZ
_TEXT	SEGMENT PARA USE32 PUBLIC 'CODE'
_TEXT	ENDS
;	COMDAT ?_M_write@?$basic_filebuf@DV?$char_traits@D@_STL@@@_STL@@QAE_NPADH@Z
_TEXT	SEGMENT PARA USE32 PUBLIC 'CODE'
_TEXT	ENDS
;	COMDAT ?unshift@?$codecvt@DDH@_STL@@QBE?AW4result@codecvt_base@2@AAHPAD1AAPAD@Z
_TEXT	SEGMENT PARA USE32 PUBLIC 'CODE'
_TEXT	ENDS
;	COMDAT ?uninitialized_copy@_STL@@YAPADPBD0PAD@Z
_TEXT	SEGMENT PARA USE32 PUBLIC 'CODE'
_TEXT	ENDS
;	COMDAT ??2@YAPAXIPAX@Z
_TEXT	SEGMENT PARA USE32 PUBLIC 'CODE'
_TEXT	ENDS
;	COMDAT ?assign@?$char_traits@D@_STL@@SAXAADABD@Z
_TEXT	SEGMENT PARA USE32 PUBLIC 'CODE'
_TEXT	ENDS
;	COMDAT ?always_noconv@?$codecvt@DDH@_STL@@QBE_NXZ
_TEXT	SEGMENT PARA USE32 PUBLIC 'CODE'
_TEXT	ENDS
;	COMDAT ?encoding@?$codecvt@DDH@_STL@@QBEHXZ
_TEXT	SEGMENT PARA USE32 PUBLIC 'CODE'
_TEXT	ENDS
;	COMDAT ?max_length@?$codecvt@DDH@_STL@@QBEHXZ
_TEXT	SEGMENT PARA USE32 PUBLIC 'CODE'
_TEXT	ENDS
;	COMDAT ?__o_mode@_Filebuf_base@_STL@@QBEHXZ
_TEXT	SEGMENT PARA USE32 PUBLIC 'CODE'
_TEXT	ENDS
;	COMDAT ?deallocate@?$__node_alloc@$00$0A@@_STL@@SAXPAXI@Z
_TEXT	SEGMENT PARA USE32 PUBLIC 'CODE'
_TEXT	ENDS
;	COMDAT ?__stl_delete@_STL@@YAXPAX@Z
_TEXT	SEGMENT PARA USE32 PUBLIC 'CODE'
_TEXT	ENDS
;	COMDAT ?_Destroy@_STL@@YAXPAD0@Z
_TEXT	SEGMENT PARA USE32 PUBLIC 'CODE'
_TEXT	ENDS
;	COMDAT ?_M_incr@_List_iterator_base@_STL@@QAEXXZ
_TEXT	SEGMENT PARA USE32 PUBLIC 'CODE'
_TEXT	ENDS
;	COMDAT ??0_List_iterator_base@_STL@@QAE@PAU_List_node_base@1@@Z
_TEXT	SEGMENT PARA USE32 PUBLIC 'CODE'
_TEXT	ENDS
;	COMDAT ?setp@?$basic_streambuf@DV?$char_traits@D@_STL@@@_STL@@IAEXPAD0@Z
_TEXT	SEGMENT PARA USE32 PUBLIC 'CODE'
_TEXT	ENDS
;	COMDAT ?_FILE_O_set@_STL@@YAXPAU_iobuf@@PAD11@Z
_TEXT	SEGMENT PARA USE32 PUBLIC 'CODE'
_TEXT	ENDS
;	COMDAT ?_FILE_I_set@_STL@@YAXPAU_iobuf@@PAD11@Z
_TEXT	SEGMENT PARA USE32 PUBLIC 'CODE'
_TEXT	ENDS
;	COMDAT ?setg@?$basic_streambuf@DV?$char_traits@D@_STL@@@_STL@@IAEXPAD00@Z
_TEXT	SEGMENT PARA USE32 PUBLIC 'CODE'
_TEXT	ENDS
;	COMDAT ?__is_open@_Filebuf_base@_STL@@QBE_NXZ
_TEXT	SEGMENT PARA USE32 PUBLIC 'CODE'
_TEXT	ENDS
;	COMDAT ?allocate@?$__node_alloc@$00$0A@@_STL@@SAPAXI@Z
_TEXT	SEGMENT PARA USE32 PUBLIC 'CODE'
_TEXT	ENDS
;	COMDAT ?__stl_new@_STL@@YAPAXI@Z
_TEXT	SEGMENT PARA USE32 PUBLIC 'CODE'
_TEXT	ENDS
;	COMDAT ??1?$_STLP_alloc_proxy@PADDV?$allocator@D@_STL@@@_STL@@QAE@XZ
_TEXT	SEGMENT PARA USE32 PUBLIC 'CODE'
_TEXT	ENDS
;	COMDAT ?length@?$char_traits@D@_STL@@SAIPBD@Z
_TEXT	SEGMENT PARA USE32 PUBLIC 'CODE'
_TEXT	ENDS
;	COMDAT ??1?$allocator@D@_STL@@QAE@XZ
_TEXT	SEGMENT PARA USE32 PUBLIC 'CODE'
_TEXT	ENDS
;	COMDAT ?eof@?$__char_traits_base@DH@_STL@@SAHXZ
_TEXT	SEGMENT PARA USE32 PUBLIC 'CODE'
_TEXT	ENDS
;	COMDAT ??9_List_iterator_base@_STL@@QBE_NABU01@@Z
_TEXT	SEGMENT PARA USE32 PUBLIC 'CODE'
_TEXT	ENDS
;	COMDAT ??_7MStringList@@6B@
CONST	SEGMENT DWORD USE32 PUBLIC 'CONST'
CONST	ENDS
;	COMDAT ??_7ovfstream@@6B@
CONST	SEGMENT DWORD USE32 PUBLIC 'CONST'
CONST	ENDS
;	COMDAT ??_7ivfstream@@6B@
CONST	SEGMENT DWORD USE32 PUBLIC 'CONST'
CONST	ENDS
;	COMDAT ??0?$basic_string@DV?$char_traits@D@_STL@@V?$allocator@D@2@@_STL@@QAE@XZ
_TEXT	SEGMENT PARA USE32 PUBLIC 'CODE'
_TEXT	ENDS
;	COMDAT ??0?$allocator@D@_STL@@QAE@XZ
_TEXT	SEGMENT PARA USE32 PUBLIC 'CODE'
_TEXT	ENDS
;	COMDAT ??1?$_String_base@DV?$allocator@D@_STL@@@_STL@@QAE@XZ
_TEXT	SEGMENT PARA USE32 PUBLIC 'CODE'
_TEXT	ENDS
;	COMDAT ??1?$basic_string@DV?$char_traits@D@_STL@@V?$allocator@D@2@@_STL@@QAE@XZ
_TEXT	SEGMENT PARA USE32 PUBLIC 'CODE'
_TEXT	ENDS
;	COMDAT ??_7iovfs_base@@6B@
CONST	SEGMENT DWORD USE32 PUBLIC 'CONST'
CONST	ENDS
;	COMDAT ??_7IFileIO@@6B@
CONST	SEGMENT DWORD USE32 PUBLIC 'CONST'
CONST	ENDS
sxdata	SEGMENT DWORD USE32 'SXDATA'
sxdata	ENDS
FLAT	GROUP _DATA, CONST, _BSS
	ASSUME	CS: FLAT, DS: FLAT, SS: FLAT
endif

INCLUDELIB LIBCMT
INCLUDELIB OLDNAMES

PUBLIC	??2@YAPAXIPAX@Z					; operator new
; Function compile flags: /Ogsy
; File c:\program files\microsoft visual studio .net 2003\vc7\include\new
;	COMDAT ??2@YAPAXIPAX@Z
_TEXT	SEGMENT
___formal$ = 8						; size = 4
__Where$ = 12						; size = 4
??2@YAPAXIPAX@Z PROC NEAR				; operator new, COMDAT

; 64   : 	return (_Where);

  00000	8b 44 24 08	 mov	 eax, DWORD PTR __Where$[esp-4]

; 65   : 	}

  00004	c3		 ret	 0
??2@YAPAXIPAX@Z ENDP					; operator new
_TEXT	ENDS
PUBLIC	?__stl_new@_STL@@YAPAXI@Z			; _STL::__stl_new
EXTRN	??2@YAPAXI@Z:NEAR				; operator new
; Function compile flags: /Ogsy
; File c:\stlport-4.6.1\stlport\stl\_new.h
;	COMDAT ?__stl_new@_STL@@YAPAXI@Z
_TEXT	SEGMENT
___n$ = 8						; size = 4
?__stl_new@_STL@@YAPAXI@Z PROC NEAR			; _STL::__stl_new, COMDAT

; 86   : inline void*  _STLP_CALL __stl_new(size_t __n)   { _STLP_CHECK_NULL_ALLOC(::operator _STLP_NEW(__n)); }

  00000	e9 00 00 00 00	 jmp	 ??2@YAPAXI@Z		; operator new
?__stl_new@_STL@@YAPAXI@Z ENDP				; _STL::__stl_new
_TEXT	ENDS
PUBLIC	?__stl_delete@_STL@@YAXPAX@Z			; _STL::__stl_delete
EXTRN	??3@YAXPAX@Z:NEAR				; operator delete
; Function compile flags: /Ogsy
;	COMDAT ?__stl_delete@_STL@@YAXPAX@Z
_TEXT	SEGMENT
___p$ = 8						; size = 4
?__stl_delete@_STL@@YAXPAX@Z PROC NEAR			; _STL::__stl_delete, COMDAT

; 87   : inline void   _STLP_CALL __stl_delete(void* __p) { ::operator delete(__p); }

  00000	e9 00 00 00 00	 jmp	 ??3@YAXPAX@Z		; operator delete
?__stl_delete@_STL@@YAXPAX@Z ENDP			; _STL::__stl_delete
_TEXT	ENDS
PUBLIC	??0?$allocator@PAVMString@@@_STL@@QAE@XZ	; _STL::allocator<MString *>::allocator<MString *>
; Function compile flags: /Ogsy
; File c:\stlport-4.6.1\stlport\stl\_alloc.h
;	COMDAT ??0?$allocator@PAVMString@@@_STL@@QAE@XZ
_TEXT	SEGMENT
??0?$allocator@PAVMString@@@_STL@@QAE@XZ PROC NEAR	; _STL::allocator<MString *>::allocator<MString *>, COMDAT
; _this$ = ecx

; 345  :   allocator() _STLP_NOTHROW {}

  00000	8b c1		 mov	 eax, ecx
  00002	c3		 ret	 0
??0?$allocator@PAVMString@@@_STL@@QAE@XZ ENDP		; _STL::allocator<MString *>::allocator<MString *>
_TEXT	ENDS
PUBLIC	??1?$allocator@PAVMString@@@_STL@@QAE@XZ	; _STL::allocator<MString *>::~allocator<MString *>
; Function compile flags: /Ogsy
;	COMDAT ??1?$allocator@PAVMString@@@_STL@@QAE@XZ
_TEXT	SEGMENT
??1?$allocator@PAVMString@@@_STL@@QAE@XZ PROC NEAR	; _STL::allocator<MString *>::~allocator<MString *>, COMDAT
; _this$ = ecx

; 350  :   ~allocator() _STLP_NOTHROW {}

  00000	c3		 ret	 0
??1?$allocator@PAVMString@@@_STL@@QAE@XZ ENDP		; _STL::allocator<MString *>::~allocator<MString *>
_TEXT	ENDS
PUBLIC	??D?$_List_iterator@PAVMString@@U?$_Nonconst_traits@PAVMString@@@_STL@@@_STL@@QBEAAPAVMString@@XZ ; _STL::_List_iterator<MString *,_STL::_Nonconst_traits<MString *> >::operator*
; Function compile flags: /Ogsy
; File c:\stlport-4.6.1\stlport\stl\_list.h
;	COMDAT ??D?$_List_iterator@PAVMString@@U?$_Nonconst_traits@PAVMString@@@_STL@@@_STL@@QBEAAPAVMString@@XZ
_TEXT	SEGMENT
??D?$_List_iterator@PAVMString@@U?$_Nonconst_traits@PAVMString@@@_STL@@@_STL@@QBEAAPAVMString@@XZ PROC NEAR ; _STL::_List_iterator<MString *,_STL::_Nonconst_traits<MString *> >::operator*, COMDAT
; _this$ = ecx

; 130  :   reference operator*() const { return ((_Node*)_M_node)->_M_data; }

  00000	8b 01		 mov	 eax, DWORD PTR [ecx]
  00002	83 c0 08	 add	 eax, 8
  00005	c3		 ret	 0
??D?$_List_iterator@PAVMString@@U?$_Nonconst_traits@PAVMString@@@_STL@@@_STL@@QBEAAPAVMString@@XZ ENDP ; _STL::_List_iterator<MString *,_STL::_Nonconst_traits<MString *> >::operator*
_TEXT	ENDS
PUBLIC	??1?$allocator@U?$_List_node@PAVMString@@@_STL@@@_STL@@QAE@XZ ; _STL::allocator<_STL::_List_node<MString *> >::~allocator<_STL::_List_node<MString *> >
; Function compile flags: /Ogsy
; File c:\stlport-4.6.1\stlport\stl\_alloc.h
;	COMDAT ??1?$allocator@U?$_List_node@PAVMString@@@_STL@@@_STL@@QAE@XZ
_TEXT	SEGMENT
??1?$allocator@U?$_List_node@PAVMString@@@_STL@@@_STL@@QAE@XZ PROC NEAR ; _STL::allocator<_STL::_List_node<MString *> >::~allocator<_STL::_List_node<MString *> >, COMDAT
; _this$ = ecx

; 350  :   ~allocator() _STLP_NOTHROW {}

  00000	c3		 ret	 0
??1?$allocator@U?$_List_node@PAVMString@@@_STL@@@_STL@@QAE@XZ ENDP ; _STL::allocator<_STL::_List_node<MString *> >::~allocator<_STL::_List_node<MString *> >
_TEXT	ENDS
PUBLIC	??0?$allocator@U?$_List_node@PAVMString@@@_STL@@@_STL@@QAE@ABV01@@Z ; _STL::allocator<_STL::_List_node<MString *> >::allocator<_STL::_List_node<MString *> >
; Function compile flags: /Ogsy
;	COMDAT ??0?$allocator@U?$_List_node@PAVMString@@@_STL@@@_STL@@QAE@ABV01@@Z
_TEXT	SEGMENT
___formal$ = 8						; size = 4
??0?$allocator@U?$_List_node@PAVMString@@@_STL@@@_STL@@QAE@ABV01@@Z PROC NEAR ; _STL::allocator<_STL::_List_node<MString *> >::allocator<_STL::_List_node<MString *> >, COMDAT
; _this$ = ecx

; 349  :   allocator(const allocator<_Tp>&) _STLP_NOTHROW {}

  00000	8b c1		 mov	 eax, ecx
  00002	c2 04 00	 ret	 4
??0?$allocator@U?$_List_node@PAVMString@@@_STL@@@_STL@@QAE@ABV01@@Z ENDP ; _STL::allocator<_STL::_List_node<MString *> >::allocator<_STL::_List_node<MString *> >
_TEXT	ENDS
PUBLIC	??$?0PAVMString@@@?$allocator@U?$_List_node@PAVMString@@@_STL@@@_STL@@QAE@ABV?$allocator@PAVMString@@@1@@Z ; _STL::allocator<_STL::_List_node<MString *> >::allocator<_STL::_List_node<MString *> ><MString *>
; Function compile flags: /Ogsy
;	COMDAT ??$?0PAVMString@@@?$allocator@U?$_List_node@PAVMString@@@_STL@@@_STL@@QAE@ABV?$allocator@PAVMString@@@1@@Z
_TEXT	SEGMENT
___formal$ = 8						; size = 4
??$?0PAVMString@@@?$allocator@U?$_List_node@PAVMString@@@_STL@@@_STL@@QAE@ABV?$allocator@PAVMString@@@1@@Z PROC NEAR ; _STL::allocator<_STL::_List_node<MString *> >::allocator<_STL::_List_node<MString *> ><MString *>, COMDAT
; _this$ = ecx

; 347  :   template <class _Tp1> allocator(const allocator<_Tp1>&) _STLP_NOTHROW {}

  00000	8b c1		 mov	 eax, ecx
  00002	c2 04 00	 ret	 4
??$?0PAVMString@@@?$allocator@U?$_List_node@PAVMString@@@_STL@@@_STL@@QAE@ABV?$allocator@PAVMString@@@1@@Z ENDP ; _STL::allocator<_STL::_List_node<MString *> >::allocator<_STL::_List_node<MString *> ><MString *>
_TEXT	ENDS
PUBLIC	??$_Construct@PAVMString@@PAV1@@_STL@@YAXPAPAVMString@@ABQAV1@@Z ; _STL::_Construct<MString *,MString *>
; Function compile flags: /Ogsy
; File c:\stlport-4.6.1\stlport\stl\_construct.h
;	COMDAT ??$_Construct@PAVMString@@PAV1@@_STL@@YAXPAPAVMString@@ABQAV1@@Z
_TEXT	SEGMENT
___p$ = 8						; size = 4
___val$ = 12						; size = 4
??$_Construct@PAVMString@@PAV1@@_STL@@YAXPAPAVMString@@ABQAV1@@Z PROC NEAR ; _STL::_Construct<MString *,MString *>, COMDAT

; 94   : # ifdef _STLP_DEBUG_UNINITIALIZED
; 95   : 	memset((char*)__p, _STLP_SHRED_BYTE, sizeof(_T1));
; 96   : # endif
; 97   :     _STLP_PLACEMENT_NEW (__p) _T1(__val);

  00000	8b 44 24 04	 mov	 eax, DWORD PTR ___p$[esp-4]
  00004	85 c0		 test	 eax, eax
  00006	74 08		 je	 SHORT $L101978
  00008	8b 4c 24 08	 mov	 ecx, DWORD PTR ___val$[esp-4]
  0000c	8b 09		 mov	 ecx, DWORD PTR [ecx]
  0000e	89 08		 mov	 DWORD PTR [eax], ecx
$L101978:

; 98   : }

  00010	c3		 ret	 0
??$_Construct@PAVMString@@PAV1@@_STL@@YAXPAPAVMString@@ABQAV1@@Z ENDP ; _STL::_Construct<MString *,MString *>
_TEXT	ENDS
PUBLIC	??$_Destroy@PAVMString@@@_STL@@YAXPAPAVMString@@@Z ; _STL::_Destroy<MString *>
; Function compile flags: /Ogsy
;	COMDAT ??$_Destroy@PAVMString@@@_STL@@YAXPAPAVMString@@@Z
_TEXT	SEGMENT
___pointer$ = 8						; size = 4
??$_Destroy@PAVMString@@@_STL@@YAXPAPAVMString@@@Z PROC NEAR ; _STL::_Destroy<MString *>, COMDAT

; 57   : # if _MSC_VER >= 1010
; 58   :   __pointer;
; 59   : # endif	// _MSC_VER >= 1000
; 60   : # ifdef _STLP_TRIVIAL_DESTRUCTOR_BUG
; 61   :   typedef typename __type_traits<_Tp>::has_trivial_destructor _Trivial_destructor;
; 62   :   __destroy_aux(__pointer, _Trivial_destructor());
; 63   : # else
; 64   : #  if ( defined (__BORLANDC__) && ( __BORLANDC__ < 0x500 ) )
; 65   :     __pointer->_Tp::~_Tp();
; 66   : #  else
; 67   :     __pointer->~_Tp();
; 68   : #  endif
; 69   : # endif
; 70   : # ifdef _STLP_DEBUG_UNINITIALIZED
; 71   : 	memset((char*)__pointer, _STLP_SHRED_BYTE, sizeof(_Tp));
; 72   : # endif
; 73   : }

  00000	c3		 ret	 0
??$_Destroy@PAVMString@@@_STL@@YAXPAPAVMString@@@Z ENDP	; _STL::_Destroy<MString *>
_TEXT	ENDS
PUBLIC	??0_List_iterator_base@_STL@@QAE@PAU_List_node_base@1@@Z ; _STL::_List_iterator_base::_List_iterator_base
; Function compile flags: /Ogsy
; File c:\stlport-4.6.1\stlport\stl\_list.h
;	COMDAT ??0_List_iterator_base@_STL@@QAE@PAU_List_node_base@1@@Z
_TEXT	SEGMENT
___x$ = 8						; size = 4
??0_List_iterator_base@_STL@@QAE@PAU_List_node_base@1@@Z PROC NEAR ; _STL::_List_iterator_base::_List_iterator_base, COMDAT
; _this$ = ecx

; 95   :   _List_iterator_base(_List_node_base* __x) : _M_node(__x) {}

  00000	8b c1		 mov	 eax, ecx
  00002	8b 4c 24 04	 mov	 ecx, DWORD PTR ___x$[esp-4]
  00006	89 08		 mov	 DWORD PTR [eax], ecx
  00008	c2 04 00	 ret	 4
??0_List_iterator_base@_STL@@QAE@PAU_List_node_base@1@@Z ENDP ; _STL::_List_iterator_base::_List_iterator_base
_TEXT	ENDS
PUBLIC	?_M_incr@_List_iterator_base@_STL@@QAEXXZ	; _STL::_List_iterator_base::_M_incr
; Function compile flags: /Ogsy
;	COMDAT ?_M_incr@_List_iterator_base@_STL@@QAEXXZ
_TEXT	SEGMENT
?_M_incr@_List_iterator_base@_STL@@QAEXXZ PROC NEAR	; _STL::_List_iterator_base::_M_incr, COMDAT
; _this$ = ecx

; 98   :   void _M_incr() { _M_node = _M_node->_M_next; }

  00000	8b 01		 mov	 eax, DWORD PTR [ecx]
  00002	8b 00		 mov	 eax, DWORD PTR [eax]
  00004	89 01		 mov	 DWORD PTR [ecx], eax
  00006	c3		 ret	 0
?_M_incr@_List_iterator_base@_STL@@QAEXXZ ENDP		; _STL::_List_iterator_base::_M_incr
_TEXT	ENDS
PUBLIC	??9_List_iterator_base@_STL@@QBE_NABU01@@Z	; _STL::_List_iterator_base::operator!=
; Function compile flags: /Ogsy
;	COMDAT ??9_List_iterator_base@_STL@@QBE_NABU01@@Z
_TEXT	SEGMENT
___y$ = 8						; size = 4
??9_List_iterator_base@_STL@@QBE_NABU01@@Z PROC NEAR	; _STL::_List_iterator_base::operator!=, COMDAT
; _this$ = ecx

; 104  :     return _M_node != __y._M_node; 

  00000	8b 01		 mov	 eax, DWORD PTR [ecx]
  00002	8b 54 24 04	 mov	 edx, DWORD PTR ___y$[esp-4]
  00006	33 c9		 xor	 ecx, ecx
  00008	3b 02		 cmp	 eax, DWORD PTR [edx]
  0000a	0f 95 c1	 setne	 cl
  0000d	8a c1		 mov	 al, cl

; 105  :   }

  0000f	c2 04 00	 ret	 4
??9_List_iterator_base@_STL@@QBE_NABU01@@Z ENDP		; _STL::_List_iterator_base::operator!=
_TEXT	ENDS
PUBLIC	?allocate@?$__node_alloc@$00$0A@@_STL@@SAPAXI@Z	; _STL::__node_alloc<1,0>::allocate
EXTRN	?_M_allocate@?$__node_alloc@$00$0A@@_STL@@CAPAXI@Z:NEAR ; _STL::__node_alloc<1,0>::_M_allocate
; Function compile flags: /Ogsy
; File c:\stlport-4.6.1\stlport\stl\_alloc.h
;	COMDAT ?allocate@?$__node_alloc@$00$0A@@_STL@@SAPAXI@Z
_TEXT	SEGMENT
___n$ = 8						; size = 4
?allocate@?$__node_alloc@$00$0A@@_STL@@SAPAXI@Z PROC NEAR ; _STL::__node_alloc<1,0>::allocate, COMDAT

; 251  :   static void * _STLP_CALL allocate(size_t __n) { return (__n > (size_t)_MAX_BYTES) ?  __stl_new(__n) : _M_allocate(__n); }

  00000	8b 44 24 04	 mov	 eax, DWORD PTR ___n$[esp-4]
  00004	3d 80 00 00 00	 cmp	 eax, 128		; 00000080H
  00009	50		 push	 eax
  0000a	76 07		 jbe	 SHORT $L101998
  0000c	e8 00 00 00 00	 call	 ??2@YAPAXI@Z		; operator new
  00011	59		 pop	 ecx
  00012	c3		 ret	 0
$L101998:
  00013	e8 00 00 00 00	 call	 ?_M_allocate@?$__node_alloc@$00$0A@@_STL@@CAPAXI@Z ; _STL::__node_alloc<1,0>::_M_allocate
  00018	59		 pop	 ecx
  00019	c3		 ret	 0
?allocate@?$__node_alloc@$00$0A@@_STL@@SAPAXI@Z ENDP	; _STL::__node_alloc<1,0>::allocate
_TEXT	ENDS
PUBLIC	?deallocate@?$__node_alloc@$00$0A@@_STL@@SAXPAXI@Z ; _STL::__node_alloc<1,0>::deallocate
EXTRN	?_M_deallocate@?$__node_alloc@$00$0A@@_STL@@CAXPAXI@Z:NEAR ; _STL::__node_alloc<1,0>::_M_deallocate
; Function compile flags: /Ogsy
;	COMDAT ?deallocate@?$__node_alloc@$00$0A@@_STL@@SAXPAXI@Z
_TEXT	SEGMENT
___p$ = 8						; size = 4
___n$ = 12						; size = 4
?deallocate@?$__node_alloc@$00$0A@@_STL@@SAXPAXI@Z PROC NEAR ; _STL::__node_alloc<1,0>::deallocate, COMDAT

; 253  :   static void _STLP_CALL deallocate(void *__p, size_t __n) { if (__n > (size_t)_MAX_BYTES) __stl_delete(__p); else _M_deallocate(__p, __n); }

  00000	81 7c 24 08 80
	00 00 00	 cmp	 DWORD PTR ___n$[esp-4], 128 ; 00000080H
  00008	76 0b		 jbe	 SHORT $L98677
  0000a	ff 74 24 04	 push	 DWORD PTR ___p$[esp-4]
  0000e	e8 00 00 00 00	 call	 ??3@YAXPAX@Z		; operator delete
  00013	59		 pop	 ecx
  00014	c3		 ret	 0
$L98677:
  00015	e9 00 00 00 00	 jmp	 ?_M_deallocate@?$__node_alloc@$00$0A@@_STL@@CAXPAXI@Z ; _STL::__node_alloc<1,0>::_M_deallocate
?deallocate@?$__node_alloc@$00$0A@@_STL@@SAXPAXI@Z ENDP	; _STL::__node_alloc<1,0>::deallocate
_TEXT	ENDS
PUBLIC	??0?$_List_iterator@PAVMString@@U?$_Nonconst_traits@PAVMString@@@_STL@@@_STL@@QAE@ABU01@@Z ; _STL::_List_iterator<MString *,_STL::_Nonconst_traits<MString *> >::_List_iterator<MString *,_STL::_Nonconst_traits<MString *> >
; Function compile flags: /Ogsy
; File c:\stlport-4.6.1\stlport\stl\_list.h
;	COMDAT ??0?$_List_iterator@PAVMString@@U?$_Nonconst_traits@PAVMString@@@_STL@@@_STL@@QAE@ABU01@@Z
_TEXT	SEGMENT
___x$ = 8						; size = 4
??0?$_List_iterator@PAVMString@@U?$_Nonconst_traits@PAVMString@@@_STL@@@_STL@@QAE@ABU01@@Z PROC NEAR ; _STL::_List_iterator<MString *,_STL::_Nonconst_traits<MString *> >::_List_iterator<MString *,_STL::_Nonconst_traits<MString *> >, COMDAT
; _this$ = ecx

; 128  :   _List_iterator(const iterator& __x) :  _List_iterator_base(__x._M_node) {}

  00000	8b c1		 mov	 eax, ecx
  00002	8b 4c 24 04	 mov	 ecx, DWORD PTR ___x$[esp-4]
  00006	8b 09		 mov	 ecx, DWORD PTR [ecx]
  00008	89 08		 mov	 DWORD PTR [eax], ecx
  0000a	c2 04 00	 ret	 4
??0?$_List_iterator@PAVMString@@U?$_Nonconst_traits@PAVMString@@@_STL@@@_STL@@QAE@ABU01@@Z ENDP ; _STL::_List_iterator<MString *,_STL::_Nonconst_traits<MString *> >::_List_iterator<MString *,_STL::_Nonconst_traits<MString *> >
_TEXT	ENDS
PUBLIC	??E?$_List_iterator@PAVMString@@U?$_Nonconst_traits@PAVMString@@@_STL@@@_STL@@QAE?AU01@H@Z ; _STL::_List_iterator<MString *,_STL::_Nonconst_traits<MString *> >::operator++
; Function compile flags: /Ogsy
;	COMDAT ??E?$_List_iterator@PAVMString@@U?$_Nonconst_traits@PAVMString@@@_STL@@@_STL@@QAE?AU01@H@Z
_TEXT	SEGMENT
___$ReturnUdt$ = 8					; size = 4
___formal$ = 12						; size = 4
??E?$_List_iterator@PAVMString@@U?$_Nonconst_traits@PAVMString@@@_STL@@@_STL@@QAE?AU01@H@Z PROC NEAR ; _STL::_List_iterator<MString *,_STL::_Nonconst_traits<MString *> >::operator++, COMDAT
; _this$ = ecx

; 139  :     _Self __tmp = *this;

  00000	8b 11		 mov	 edx, DWORD PTR [ecx]

; 140  :     this->_M_incr();

  00002	8b 02		 mov	 eax, DWORD PTR [edx]
  00004	89 01		 mov	 DWORD PTR [ecx], eax

; 141  :     return __tmp;

  00006	8b 44 24 04	 mov	 eax, DWORD PTR ___$ReturnUdt$[esp-4]
  0000a	89 10		 mov	 DWORD PTR [eax], edx

; 142  :   }

  0000c	c2 08 00	 ret	 8
??E?$_List_iterator@PAVMString@@U?$_Nonconst_traits@PAVMString@@@_STL@@@_STL@@QAE?AU01@H@Z ENDP ; _STL::_List_iterator<MString *,_STL::_Nonconst_traits<MString *> >::operator++
_TEXT	ENDS
PUBLIC	??0?$_List_iterator@PAVMString@@U?$_Nonconst_traits@PAVMString@@@_STL@@@_STL@@QAE@PAU?$_List_node@PAVMString@@@1@@Z ; _STL::_List_iterator<MString *,_STL::_Nonconst_traits<MString *> >::_List_iterator<MString *,_STL::_Nonconst_traits<MString *> >
; Function compile flags: /Ogsy
;	COMDAT ??0?$_List_iterator@PAVMString@@U?$_Nonconst_traits@PAVMString@@@_STL@@@_STL@@QAE@PAU?$_List_node@PAVMString@@@1@@Z
_TEXT	SEGMENT
___x$ = 8						; size = 4
??0?$_List_iterator@PAVMString@@U?$_Nonconst_traits@PAVMString@@@_STL@@@_STL@@QAE@PAU?$_List_node@PAVMString@@@1@@Z PROC NEAR ; _STL::_List_iterator<MString *,_STL::_Nonconst_traits<MString *> >::_List_iterator<MString *,_STL::_Nonconst_traits<MString *> >, COMDAT
; _this$ = ecx

; 126  :   _List_iterator(_Node* __x) : _List_iterator_base(__x) {}

  00000	8b c1		 mov	 eax, ecx
  00002	8b 4c 24 04	 mov	 ecx, DWORD PTR ___x$[esp-4]
  00006	89 08		 mov	 DWORD PTR [eax], ecx
  00008	c2 04 00	 ret	 4
??0?$_List_iterator@PAVMString@@U?$_Nonconst_traits@PAVMString@@@_STL@@@_STL@@QAE@PAU?$_List_node@PAVMString@@@1@@Z ENDP ; _STL::_List_iterator<MString *,_STL::_Nonconst_traits<MString *> >::_List_iterator<MString *,_STL::_Nonconst_traits<MString *> >
_TEXT	ENDS
PUBLIC	??1?$_STLP_alloc_proxy@PAU?$_List_node@PAVMString@@@_STL@@U12@V?$allocator@U?$_List_node@PAVMString@@@_STL@@@2@@_STL@@QAE@XZ ; _STL::_STLP_alloc_proxy<_STL::_List_node<MString *> *,_STL::_List_node<MString *>,_STL::allocator<_STL::_List_node<MString *> > >::~_STLP_alloc_proxy<_STL::_List_node<MString *> *,_STL::_List_node<MString *>,_STL::allocator<_STL::_List_node<MString *> > >
; Function compile flags: /Ogsy
;	COMDAT ??1?$_STLP_alloc_proxy@PAU?$_List_node@PAVMString@@@_STL@@U12@V?$allocator@U?$_List_node@PAVMString@@@_STL@@@2@@_STL@@QAE@XZ
_TEXT	SEGMENT
??1?$_STLP_alloc_proxy@PAU?$_List_node@PAVMString@@@_STL@@U12@V?$allocator@U?$_List_node@PAVMString@@@_STL@@@2@@_STL@@QAE@XZ PROC NEAR ; _STL::_STLP_alloc_proxy<_STL::_List_node<MString *> *,_STL::_List_node<MString *>,_STL::allocator<_STL::_List_node<MString *> > >::~_STLP_alloc_proxy<_STL::_List_node<MString *> *,_STL::_List_node<MString *>,_STL::allocator<_STL::_List_node<MString *> > >, COMDAT
; _this$ = ecx
  00000	c3		 ret	 0
??1?$_STLP_alloc_proxy@PAU?$_List_node@PAVMString@@@_STL@@U12@V?$allocator@U?$_List_node@PAVMString@@@_STL@@@2@@_STL@@QAE@XZ ENDP ; _STL::_STLP_alloc_proxy<_STL::_List_node<MString *> *,_STL::_List_node<MString *>,_STL::allocator<_STL::_List_node<MString *> > >::~_STLP_alloc_proxy<_STL::_List_node<MString *> *,_STL::_List_node<MString *>,_STL::allocator<_STL::_List_node<MString *> > >
_TEXT	ENDS
PUBLIC	??0?$_STLP_alloc_proxy@PAU?$_List_node@PAVMString@@@_STL@@U12@V?$allocator@U?$_List_node@PAVMString@@@_STL@@@2@@_STL@@QAE@ABV?$allocator@U?$_List_node@PAVMString@@@_STL@@@1@PAU?$_List_node@PAVMString@@@1@@Z ; _STL::_STLP_alloc_proxy<_STL::_List_node<MString *> *,_STL::_List_node<MString *>,_STL::allocator<_STL::_List_node<MString *> > >::_STLP_alloc_proxy<_STL::_List_node<MString *> *,_STL::_List_node<MString *>,_STL::allocator<_STL::_List_node<MString *> > >
; Function compile flags: /Ogsy
; File c:\stlport-4.6.1\stlport\stl\_alloc.h
;	COMDAT ??0?$_STLP_alloc_proxy@PAU?$_List_node@PAVMString@@@_STL@@U12@V?$allocator@U?$_List_node@PAVMString@@@_STL@@@2@@_STL@@QAE@ABV?$allocator@U?$_List_node@PAVMString@@@_STL@@@1@PAU?$_List_node@PAVMString@@@1@@Z
_TEXT	SEGMENT
___a$ = 8						; size = 4
___p$ = 12						; size = 4
??0?$_STLP_alloc_proxy@PAU?$_List_node@PAVMString@@@_STL@@U12@V?$allocator@U?$_List_node@PAVMString@@@_STL@@@2@@_STL@@QAE@ABV?$allocator@U?$_List_node@PAVMString@@@_STL@@@1@PAU?$_List_node@PAVMString@@@1@@Z PROC NEAR ; _STL::_STLP_alloc_proxy<_STL::_List_node<MString *> *,_STL::_List_node<MString *>,_STL::allocator<_STL::_List_node<MString *> > >::_STLP_alloc_proxy<_STL::_List_node<MString *> *,_STL::_List_node<MString *>,_STL::allocator<_STL::_List_node<MString *> > >, COMDAT
; _this$ = ecx

; 487  :   inline _STLP_alloc_proxy(const _MaybeReboundAlloc& __a, _Value __p) : _MaybeReboundAlloc(__a), _M_data(__p) {}

  00000	8b c1		 mov	 eax, ecx
  00002	8b 4c 24 08	 mov	 ecx, DWORD PTR ___p$[esp-4]
  00006	89 08		 mov	 DWORD PTR [eax], ecx
  00008	c2 08 00	 ret	 8
??0?$_STLP_alloc_proxy@PAU?$_List_node@PAVMString@@@_STL@@U12@V?$allocator@U?$_List_node@PAVMString@@@_STL@@@2@@_STL@@QAE@ABV?$allocator@U?$_List_node@PAVMString@@@_STL@@@1@PAU?$_List_node@PAVMString@@@1@@Z ENDP ; _STL::_STLP_alloc_proxy<_STL::_List_node<MString *> *,_STL::_List_node<MString *>,_STL::allocator<_STL::_List_node<MString *> > >::_STLP_alloc_proxy<_STL::_List_node<MString *> *,_STL::_List_node<MString *>,_STL::allocator<_STL::_List_node<MString *> > >
_TEXT	ENDS
PUBLIC	?allocate@?$allocator@U?$_List_node@PAVMString@@@_STL@@@_STL@@QAEPAU?$_List_node@PAVMString@@@2@IPBX@Z ; _STL::allocator<_STL::_List_node<MString *> >::allocate
; Function compile flags: /Ogsy
;	COMDAT ?allocate@?$allocator@U?$_List_node@PAVMString@@@_STL@@@_STL@@QAEPAU?$_List_node@PAVMString@@@2@IPBX@Z
_TEXT	SEGMENT
___n$ = 8						; size = 4
___formal$ = 12						; size = 4
?allocate@?$allocator@U?$_List_node@PAVMString@@@_STL@@@_STL@@QAEPAU?$_List_node@PAVMString@@@2@IPBX@Z PROC NEAR ; _STL::allocator<_STL::_List_node<MString *> >::allocate, COMDAT
; _this$ = ecx

; 355  :     return __n != 0 ? __REINTERPRET_CAST(value_type*,__sgi_alloc::allocate(__n * sizeof(value_type))) : 0;

  00000	8b 44 24 04	 mov	 eax, DWORD PTR ___n$[esp-4]
  00004	85 c0		 test	 eax, eax
  00006	74 0f		 je	 SHORT $L102059
  00008	8d 04 40	 lea	 eax, DWORD PTR [eax+eax*2]
  0000b	c1 e0 02	 shl	 eax, 2
  0000e	50		 push	 eax
  0000f	e8 00 00 00 00	 call	 ?allocate@?$__node_alloc@$00$0A@@_STL@@SAPAXI@Z ; _STL::__node_alloc<1,0>::allocate
  00014	59		 pop	 ecx
  00015	eb 02		 jmp	 SHORT $L102060
$L102059:
  00017	33 c0		 xor	 eax, eax
$L102060:

; 356  :   }

  00019	c2 08 00	 ret	 8
?allocate@?$allocator@U?$_List_node@PAVMString@@@_STL@@@_STL@@QAEPAU?$_List_node@PAVMString@@@2@IPBX@Z ENDP ; _STL::allocator<_STL::_List_node<MString *> >::allocate
_TEXT	ENDS
PUBLIC	?deallocate@?$allocator@U?$_List_node@PAVMString@@@_STL@@@_STL@@QAEXPAU?$_List_node@PAVMString@@@2@I@Z ; _STL::allocator<_STL::_List_node<MString *> >::deallocate
; Function compile flags: /Ogsy
;	COMDAT ?deallocate@?$allocator@U?$_List_node@PAVMString@@@_STL@@@_STL@@QAEXPAU?$_List_node@PAVMString@@@2@I@Z
_TEXT	SEGMENT
___p$ = 8						; size = 4
___n$ = 12						; size = 4
?deallocate@?$allocator@U?$_List_node@PAVMString@@@_STL@@@_STL@@QAEXPAU?$_List_node@PAVMString@@@2@I@Z PROC NEAR ; _STL::allocator<_STL::_List_node<MString *> >::deallocate, COMDAT
; _this$ = ecx

; 359  :     _STLP_ASSERT( (__p == 0) == (__n == 0) )
; 360  :       if (__p != 0) __sgi_alloc::deallocate((void*)__p, __n * sizeof(value_type));

  00000	83 7c 24 04 00	 cmp	 DWORD PTR ___p$[esp-4], 0
  00005	74 16		 je	 SHORT $L101172
  00007	8b 44 24 08	 mov	 eax, DWORD PTR ___n$[esp-4]
  0000b	8d 04 40	 lea	 eax, DWORD PTR [eax+eax*2]
  0000e	c1 e0 02	 shl	 eax, 2
  00011	50		 push	 eax
  00012	ff 74 24 08	 push	 DWORD PTR ___p$[esp]
  00016	e8 00 00 00 00	 call	 ?deallocate@?$__node_alloc@$00$0A@@_STL@@SAXPAXI@Z ; _STL::__node_alloc<1,0>::deallocate
  0001b	59		 pop	 ecx
  0001c	59		 pop	 ecx
$L101172:

; 361  :   }

  0001d	c2 08 00	 ret	 8
?deallocate@?$allocator@U?$_List_node@PAVMString@@@_STL@@@_STL@@QAEXPAU?$_List_node@PAVMString@@@2@I@Z ENDP ; _STL::allocator<_STL::_List_node<MString *> >::deallocate
_TEXT	ENDS
PUBLIC	??0?$_List_iterator@PAVMString@@U?$_Const_traits@PAVMString@@@_STL@@@_STL@@QAE@PAU?$_List_node@PAVMString@@@1@@Z ; _STL::_List_iterator<MString *,_STL::_Const_traits<MString *> >::_List_iterator<MString *,_STL::_Const_traits<MString *> >
; Function compile flags: /Ogsy
; File c:\stlport-4.6.1\stlport\stl\_list.h
;	COMDAT ??0?$_List_iterator@PAVMString@@U?$_Const_traits@PAVMString@@@_STL@@@_STL@@QAE@PAU?$_List_node@PAVMString@@@1@@Z
_TEXT	SEGMENT
___x$ = 8						; size = 4
??0?$_List_iterator@PAVMString@@U?$_Const_traits@PAVMString@@@_STL@@@_STL@@QAE@PAU?$_List_node@PAVMString@@@1@@Z PROC NEAR ; _STL::_List_iterator<MString *,_STL::_Const_traits<MString *> >::_List_iterator<MString *,_STL::_Const_traits<MString *> >, COMDAT
; _this$ = ecx

; 126  :   _List_iterator(_Node* __x) : _List_iterator_base(__x) {}

  00000	8b c1		 mov	 eax, ecx
  00002	8b 4c 24 04	 mov	 ecx, DWORD PTR ___x$[esp-4]
  00006	89 08		 mov	 DWORD PTR [eax], ecx
  00008	c2 04 00	 ret	 4
??0?$_List_iterator@PAVMString@@U?$_Const_traits@PAVMString@@@_STL@@@_STL@@QAE@PAU?$_List_node@PAVMString@@@1@@Z ENDP ; _STL::_List_iterator<MString *,_STL::_Const_traits<MString *> >::_List_iterator<MString *,_STL::_Const_traits<MString *> >
_TEXT	ENDS
PUBLIC	?clear@?$_List_base@PAVMString@@V?$allocator@PAVMString@@@_STL@@@_STL@@QAEXXZ ; _STL::_List_base<MString *,_STL::allocator<MString *> >::clear
; Function compile flags: /Ogsy
; File c:\stlport-4.6.1\stlport\stl\_list.c
;	COMDAT ?clear@?$_List_base@PAVMString@@V?$allocator@PAVMString@@@_STL@@@_STL@@QAEXXZ
_TEXT	SEGMENT
?clear@?$_List_base@PAVMString@@V?$allocator@PAVMString@@@_STL@@@_STL@@QAEXXZ PROC NEAR ; _STL::_List_base<MString *,_STL::allocator<MString *> >::clear, COMDAT
; _this$ = ecx

; 68   : {

  00000	56		 push	 esi
  00001	57		 push	 edi
  00002	8b f9		 mov	 edi, ecx

; 69   :   _List_node<_Tp>* __cur = (_List_node<_Tp>*) this->_M_node._M_data->_M_next;

  00004	8b 07		 mov	 eax, DWORD PTR [edi]
  00006	8b 30		 mov	 esi, DWORD PTR [eax]

; 70   :   while (__cur != this->_M_node._M_data) {

  00008	3b f0		 cmp	 esi, eax
  0000a	74 12		 je	 SHORT $L101338
$L101337:

; 71   :     _List_node<_Tp>* __tmp = __cur;

  0000c	8b c6		 mov	 eax, esi

; 72   :     __cur = (_List_node<_Tp>*) __cur->_M_next;

  0000e	8b 36		 mov	 esi, DWORD PTR [esi]

; 73   :     _STLP_STD::_Destroy(&__tmp->_M_data);
; 74   :     this->_M_node.deallocate(__tmp, 1);

  00010	6a 01		 push	 1
  00012	50		 push	 eax
  00013	8b cf		 mov	 ecx, edi
  00015	e8 00 00 00 00	 call	 ?deallocate@?$allocator@U?$_List_node@PAVMString@@@_STL@@@_STL@@QAEXPAU?$_List_node@PAVMString@@@2@I@Z ; _STL::allocator<_STL::_List_node<MString *> >::deallocate
  0001a	3b 37		 cmp	 esi, DWORD PTR [edi]
  0001c	75 ee		 jne	 SHORT $L101337
$L101338:

; 75   :   }
; 76   :   this->_M_node._M_data->_M_next = this->_M_node._M_data;

  0001e	8b 07		 mov	 eax, DWORD PTR [edi]
  00020	89 00		 mov	 DWORD PTR [eax], eax

; 77   :   this->_M_node._M_data->_M_prev = this->_M_node._M_data;

  00022	8b 3f		 mov	 edi, DWORD PTR [edi]
  00024	89 7f 04	 mov	 DWORD PTR [edi+4], edi
  00027	5f		 pop	 edi
  00028	5e		 pop	 esi

; 78   : }

  00029	c3		 ret	 0
?clear@?$_List_base@PAVMString@@V?$allocator@PAVMString@@@_STL@@@_STL@@QAEXXZ ENDP ; _STL::_List_base<MString *,_STL::allocator<MString *> >::clear
_TEXT	ENDS
PUBLIC	??E?$_List_iterator@PAVMString@@U?$_Const_traits@PAVMString@@@_STL@@@_STL@@QAEAAU01@XZ ; _STL::_List_iterator<MString *,_STL::_Const_traits<MString *> >::operator++
; Function compile flags: /Ogsy
; File c:\stlport-4.6.1\stlport\stl\_list.h
;	COMDAT ??E?$_List_iterator@PAVMString@@U?$_Const_traits@PAVMString@@@_STL@@@_STL@@QAEAAU01@XZ
_TEXT	SEGMENT
??E?$_List_iterator@PAVMString@@U?$_Const_traits@PAVMString@@@_STL@@@_STL@@QAEAAU01@XZ PROC NEAR ; _STL::_List_iterator<MString *,_STL::_Const_traits<MString *> >::operator++, COMDAT
; _this$ = ecx

; 134  :   _Self& operator++() { 

  00000	8b c1		 mov	 eax, ecx

; 135  :     this->_M_incr();

  00002	8b 08		 mov	 ecx, DWORD PTR [eax]
  00004	8b 09		 mov	 ecx, DWORD PTR [ecx]
  00006	89 08		 mov	 DWORD PTR [eax], ecx

; 136  :     return *this;
; 137  :   }

  00008	c3		 ret	 0
??E?$_List_iterator@PAVMString@@U?$_Const_traits@PAVMString@@@_STL@@@_STL@@QAEAAU01@XZ ENDP ; _STL::_List_iterator<MString *,_STL::_Const_traits<MString *> >::operator++
_TEXT	ENDS
PUBLIC	?begin@?$list@PAVMString@@V?$allocator@PAVMString@@@_STL@@@_STL@@QAE?AU?$_List_iterator@PAVMString@@U?$_Nonconst_traits@PAVMString@@@_STL@@@2@XZ ; _STL::list<MString *,_STL::allocator<MString *> >::begin
; Function compile flags: /Ogsy
;	COMDAT ?begin@?$list@PAVMString@@V?$allocator@PAVMString@@@_STL@@@_STL@@QAE?AU?$_List_iterator@PAVMString@@U?$_Nonconst_traits@PAVMString@@@_STL@@@2@XZ
_TEXT	SEGMENT
___$ReturnUdt$ = 8					; size = 4
?begin@?$list@PAVMString@@V?$allocator@PAVMString@@@_STL@@@_STL@@QAE?AU?$_List_iterator@PAVMString@@U?$_Nonconst_traits@PAVMString@@@_STL@@@2@XZ PROC NEAR ; _STL::list<MString *,_STL::allocator<MString *> >::begin, COMDAT
; _this$ = ecx

; 266  :   iterator begin()             { return iterator((_Node*)(this->_M_node._M_data->_M_next)); }

  00000	8b 01		 mov	 eax, DWORD PTR [ecx]
  00002	8b 08		 mov	 ecx, DWORD PTR [eax]
  00004	8b 44 24 04	 mov	 eax, DWORD PTR ___$ReturnUdt$[esp-4]
  00008	89 08		 mov	 DWORD PTR [eax], ecx
  0000a	c2 04 00	 ret	 4
?begin@?$list@PAVMString@@V?$allocator@PAVMString@@@_STL@@@_STL@@QAE?AU?$_List_iterator@PAVMString@@U?$_Nonconst_traits@PAVMString@@@_STL@@@2@XZ ENDP ; _STL::list<MString *,_STL::allocator<MString *> >::begin
_TEXT	ENDS
PUBLIC	?end@?$list@PAVMString@@V?$allocator@PAVMString@@@_STL@@@_STL@@QAE?AU?$_List_iterator@PAVMString@@U?$_Nonconst_traits@PAVMString@@@_STL@@@2@XZ ; _STL::list<MString *,_STL::allocator<MString *> >::end
; Function compile flags: /Ogsy
;	COMDAT ?end@?$list@PAVMString@@V?$allocator@PAVMString@@@_STL@@@_STL@@QAE?AU?$_List_iterator@PAVMString@@U?$_Nonconst_traits@PAVMString@@@_STL@@@2@XZ
_TEXT	SEGMENT
___$ReturnUdt$ = 8					; size = 4
?end@?$list@PAVMString@@V?$allocator@PAVMString@@@_STL@@@_STL@@QAE?AU?$_List_iterator@PAVMString@@U?$_Nonconst_traits@PAVMString@@@_STL@@@2@XZ PROC NEAR ; _STL::list<MString *,_STL::allocator<MString *> >::end, COMDAT
; _this$ = ecx

; 269  :   iterator end()             { return this->_M_node._M_data; }

  00000	8b 09		 mov	 ecx, DWORD PTR [ecx]
  00002	8b 44 24 04	 mov	 eax, DWORD PTR ___$ReturnUdt$[esp-4]
  00006	89 08		 mov	 DWORD PTR [eax], ecx
  00008	c2 04 00	 ret	 4
?end@?$list@PAVMString@@V?$allocator@PAVMString@@@_STL@@@_STL@@QAE?AU?$_List_iterator@PAVMString@@U?$_Nonconst_traits@PAVMString@@@_STL@@@2@XZ ENDP ; _STL::list<MString *,_STL::allocator<MString *> >::end
_TEXT	ENDS
PUBLIC	?begin@?$list@PAVMString@@V?$allocator@PAVMString@@@_STL@@@_STL@@QBE?AU?$_List_iterator@PAVMString@@U?$_Const_traits@PAVMString@@@_STL@@@2@XZ ; _STL::list<MString *,_STL::allocator<MString *> >::begin
; Function compile flags: /Ogsy
;	COMDAT ?begin@?$list@PAVMString@@V?$allocator@PAVMString@@@_STL@@@_STL@@QBE?AU?$_List_iterator@PAVMString@@U?$_Const_traits@PAVMString@@@_STL@@@2@XZ
_TEXT	SEGMENT
___$ReturnUdt$ = 8					; size = 4
?begin@?$list@PAVMString@@V?$allocator@PAVMString@@@_STL@@@_STL@@QBE?AU?$_List_iterator@PAVMString@@U?$_Const_traits@PAVMString@@@_STL@@@2@XZ PROC NEAR ; _STL::list<MString *,_STL::allocator<MString *> >::begin, COMDAT
; _this$ = ecx

; 267  :   const_iterator begin() const { return const_iterator((_Node*)(this->_M_node._M_data->_M_next)); }

  00000	8b 01		 mov	 eax, DWORD PTR [ecx]
  00002	8b 08		 mov	 ecx, DWORD PTR [eax]
  00004	8b 44 24 04	 mov	 eax, DWORD PTR ___$ReturnUdt$[esp-4]
  00008	89 08		 mov	 DWORD PTR [eax], ecx
  0000a	c2 04 00	 ret	 4
?begin@?$list@PAVMString@@V?$allocator@PAVMString@@@_STL@@@_STL@@QBE?AU?$_List_iterator@PAVMString@@U?$_Const_traits@PAVMString@@@_STL@@@2@XZ ENDP ; _STL::list<MString *,_STL::allocator<MString *> >::begin
_TEXT	ENDS
PUBLIC	?end@?$list@PAVMString@@V?$allocator@PAVMString@@@_STL@@@_STL@@QBE?AU?$_List_iterator@PAVMString@@U?$_Const_traits@PAVMString@@@_STL@@@2@XZ ; _STL::list<MString *,_STL::allocator<MString *> >::end
; Function compile flags: /Ogsy
;	COMDAT ?end@?$list@PAVMString@@V?$allocator@PAVMString@@@_STL@@@_STL@@QBE?AU?$_List_iterator@PAVMString@@U?$_Const_traits@PAVMString@@@_STL@@@2@XZ
_TEXT	SEGMENT
___$ReturnUdt$ = 8					; size = 4
?end@?$list@PAVMString@@V?$allocator@PAVMString@@@_STL@@@_STL@@QBE?AU?$_List_iterator@PAVMString@@U?$_Const_traits@PAVMString@@@_STL@@@2@XZ PROC NEAR ; _STL::list<MString *,_STL::allocator<MString *> >::end, COMDAT
; _this$ = ecx

; 270  :   const_iterator end() const { return this->_M_node._M_data; }

  00000	8b 09		 mov	 ecx, DWORD PTR [ecx]
  00002	8b 44 24 04	 mov	 eax, DWORD PTR ___$ReturnUdt$[esp-4]
  00006	89 08		 mov	 DWORD PTR [eax], ecx
  00008	c2 04 00	 ret	 4
?end@?$list@PAVMString@@V?$allocator@PAVMString@@@_STL@@@_STL@@QBE?AU?$_List_iterator@PAVMString@@U?$_Const_traits@PAVMString@@@_STL@@@2@XZ ENDP ; _STL::list<MString *,_STL::allocator<MString *> >::end
_TEXT	ENDS
PUBLIC	??0?$_List_base@PAVMString@@V?$allocator@PAVMString@@@_STL@@@_STL@@QAE@ABV?$allocator@PAVMString@@@1@@Z ; _STL::_List_base<MString *,_STL::allocator<MString *> >::_List_base<MString *,_STL::allocator<MString *> >
; Function compile flags: /Ogsy
;	COMDAT ??0?$_List_base@PAVMString@@V?$allocator@PAVMString@@@_STL@@@_STL@@QAE@ABV?$allocator@PAVMString@@@1@@Z
_TEXT	SEGMENT
$T102135 = -1						; size = 1
___a$ = 8						; size = 4
??0?$_List_base@PAVMString@@V?$allocator@PAVMString@@@_STL@@@_STL@@QAE@ABV?$allocator@PAVMString@@@1@@Z PROC NEAR ; _STL::_List_base<MString *,_STL::allocator<MString *> >::_List_base<MString *,_STL::allocator<MString *> >, COMDAT
; _this$ = ecx

; 182  :   _List_base(const allocator_type& __a) : _M_node(_STLP_CONVERT_ALLOCATOR(__a, _Node), (_Node*)0) {

  00000	51		 push	 ecx
  00001	56		 push	 esi
  00002	6a 00		 push	 0
  00004	8d 44 24 0b	 lea	 eax, DWORD PTR $T102135[esp+12]
  00008	50		 push	 eax
  00009	8b f1		 mov	 esi, ecx
  0000b	e8 00 00 00 00	 call	 ??0?$_STLP_alloc_proxy@PAU?$_List_node@PAVMString@@@_STL@@U12@V?$allocator@U?$_List_node@PAVMString@@@_STL@@@2@@_STL@@QAE@ABV?$allocator@U?$_List_node@PAVMString@@@_STL@@@1@PAU?$_List_node@PAVMString@@@1@@Z ; _STL::_STLP_alloc_proxy<_STL::_List_node<MString *> *,_STL::_List_node<MString *>,_STL::allocator<_STL::_List_node<MString *> > >::_STLP_alloc_proxy<_STL::_List_node<MString *> *,_STL::_List_node<MString *>,_STL::allocator<_STL::_List_node<MString *> > >

; 183  :     _Node* __n = _M_node.allocate(1);

  00010	6a 0c		 push	 12			; 0000000cH
  00012	e8 00 00 00 00	 call	 ?allocate@?$__node_alloc@$00$0A@@_STL@@SAPAXI@Z ; _STL::__node_alloc<1,0>::allocate

; 184  :     __n->_M_next = __n;

  00017	89 00		 mov	 DWORD PTR [eax], eax

; 185  :     __n->_M_prev = __n;

  00019	89 40 04	 mov	 DWORD PTR [eax+4], eax

; 186  :     _M_node._M_data = __n;

  0001c	89 06		 mov	 DWORD PTR [esi], eax
  0001e	59		 pop	 ecx

; 187  :   }

  0001f	8b c6		 mov	 eax, esi
  00021	5e		 pop	 esi
  00022	59		 pop	 ecx
  00023	c2 04 00	 ret	 4
??0?$_List_base@PAVMString@@V?$allocator@PAVMString@@@_STL@@@_STL@@QAE@ABV?$allocator@PAVMString@@@1@@Z ENDP ; _STL::_List_base<MString *,_STL::allocator<MString *> >::_List_base<MString *,_STL::allocator<MString *> >
_TEXT	ENDS
PUBLIC	??1?$_List_base@PAVMString@@V?$allocator@PAVMString@@@_STL@@@_STL@@QAE@XZ ; _STL::_List_base<MString *,_STL::allocator<MString *> >::~_List_base<MString *,_STL::allocator<MString *> >
; Function compile flags: /Ogsy
;	COMDAT ??1?$_List_base@PAVMString@@V?$allocator@PAVMString@@@_STL@@@_STL@@QAE@XZ
_TEXT	SEGMENT
??1?$_List_base@PAVMString@@V?$allocator@PAVMString@@@_STL@@@_STL@@QAE@XZ PROC NEAR ; _STL::_List_base<MString *,_STL::allocator<MString *> >::~_List_base<MString *,_STL::allocator<MString *> >, COMDAT
; _this$ = ecx

; 188  :   ~_List_base() {

  00000	56		 push	 esi
  00001	8b f1		 mov	 esi, ecx

; 189  :     clear();

  00003	e8 00 00 00 00	 call	 ?clear@?$_List_base@PAVMString@@V?$allocator@PAVMString@@@_STL@@@_STL@@QAEXXZ ; _STL::_List_base<MString *,_STL::allocator<MString *> >::clear

; 190  :     _M_node.deallocate(_M_node._M_data, 1);

  00008	6a 01		 push	 1
  0000a	ff 36		 push	 DWORD PTR [esi]
  0000c	8b ce		 mov	 ecx, esi
  0000e	e8 00 00 00 00	 call	 ?deallocate@?$allocator@U?$_List_node@PAVMString@@@_STL@@@_STL@@QAEXPAU?$_List_node@PAVMString@@@2@I@Z ; _STL::allocator<_STL::_List_node<MString *> >::deallocate
  00013	5e		 pop	 esi

; 191  :   }

  00014	c3		 ret	 0
??1?$_List_base@PAVMString@@V?$allocator@PAVMString@@@_STL@@@_STL@@QAE@XZ ENDP ; _STL::_List_base<MString *,_STL::allocator<MString *> >::~_List_base<MString *,_STL::allocator<MString *> >
_TEXT	ENDS
PUBLIC	?_M_create_node@?$list@PAVMString@@V?$allocator@PAVMString@@@_STL@@@_STL@@IAEPAU?$_List_node@PAVMString@@@2@ABQAVMString@@@Z ; _STL::list<MString *,_STL::allocator<MString *> >::_M_create_node
EXTRN	__CxxThrowException@8:NEAR
; Function compile flags: /Ogsy
;	COMDAT ?_M_create_node@?$list@PAVMString@@V?$allocator@PAVMString@@@_STL@@@_STL@@IAEPAU?$_List_node@PAVMString@@@2@ABQAVMString@@@Z
_TEXT	SEGMENT
___x$ = 8						; size = 4
?_M_create_node@?$list@PAVMString@@V?$allocator@PAVMString@@@_STL@@@_STL@@IAEPAU?$_List_node@PAVMString@@@2@ABQAVMString@@@Z PROC NEAR ; _STL::list<MString *,_STL::allocator<MString *> >::_M_create_node, COMDAT
; _this$ = ecx

; 241  :     _Node* __p = this->_M_node.allocate(1);

  00000	6a 0c		 push	 12			; 0000000cH
  00002	e8 00 00 00 00	 call	 ?allocate@?$__node_alloc@$00$0A@@_STL@@SAPAXI@Z ; _STL::__node_alloc<1,0>::allocate
  00007	59		 pop	 ecx

; 242  :     _STLP_TRY {
; 243  :       _Construct(&__p->_M_data, __x);

  00008	8d 48 08	 lea	 ecx, DWORD PTR [eax+8]
  0000b	85 c9		 test	 ecx, ecx
  0000d	74 08		 je	 SHORT $L102172
  0000f	8b 54 24 04	 mov	 edx, DWORD PTR ___x$[esp-4]
  00013	8b 12		 mov	 edx, DWORD PTR [edx]
  00015	89 11		 mov	 DWORD PTR [ecx], edx
$L102172:

; 244  :     }
; 245  :     _STLP_UNWIND(this->_M_node.deallocate(__p, 1));
; 246  :     return __p;
; 247  :   }

  00017	c2 04 00	 ret	 4
?_M_create_node@?$list@PAVMString@@V?$allocator@PAVMString@@@_STL@@@_STL@@IAEPAU?$_List_node@PAVMString@@@2@ABQAVMString@@@Z ENDP ; _STL::list<MString *,_STL::allocator<MString *> >::_M_create_node
_TEXT	ENDS
PUBLIC	??$__distance@U?$_List_iterator@PAVMString@@U?$_Const_traits@PAVMString@@@_STL@@@_STL@@@_STL@@YAHABU?$_List_iterator@PAVMString@@U?$_Const_traits@PAVMString@@@_STL@@@0@0ABUinput_iterator_tag@0@@Z ; _STL::__distance<_STL::_List_iterator<MString *,_STL::_Const_traits<MString *> > >
; Function compile flags: /Ogsy
; File c:\stlport-4.6.1\stlport\stl\_iterator_base.h
;	COMDAT ??$__distance@U?$_List_iterator@PAVMString@@U?$_Const_traits@PAVMString@@@_STL@@@_STL@@@_STL@@YAHABU?$_List_iterator@PAVMString@@U?$_Const_traits@PAVMString@@@_STL@@@0@0ABUinput_iterator_tag@0@@Z
_TEXT	SEGMENT
___first$ = 8						; size = 4
___last$ = 12						; size = 4
___formal$ = 16						; size = 4
??$__distance@U?$_List_iterator@PAVMString@@U?$_Const_traits@PAVMString@@@_STL@@@_STL@@@_STL@@YAHABU?$_List_iterator@PAVMString@@U?$_Const_traits@PAVMString@@@_STL@@@0@0ABUinput_iterator_tag@0@@Z PROC NEAR ; _STL::__distance<_STL::_List_iterator<MString *,_STL::_Const_traits<MString *> > >, COMDAT

; 323  :   _STLP_DIFFERENCE_TYPE(_InputIterator) __n = 0;
; 324  :   _InputIterator __it(__first);  
; 325  :   while (__it != __last) {

  00000	8b 54 24 08	 mov	 edx, DWORD PTR ___last$[esp-4]
  00004	8b 4c 24 04	 mov	 ecx, DWORD PTR ___first$[esp-4]
  00008	8b 12		 mov	 edx, DWORD PTR [edx]
  0000a	33 c0		 xor	 eax, eax
  0000c	eb 01		 jmp	 SHORT $L102197
$L101472:

; 326  :     ++__it; ++__n;

  0000e	40		 inc	 eax
$L102197:
  0000f	8b 09		 mov	 ecx, DWORD PTR [ecx]
  00011	3b ca		 cmp	 ecx, edx
  00013	75 f9		 jne	 SHORT $L101472

; 327  :   }
; 328  :   return __n;
; 329  : }

  00015	c3		 ret	 0
??$__distance@U?$_List_iterator@PAVMString@@U?$_Const_traits@PAVMString@@@_STL@@@_STL@@@_STL@@YAHABU?$_List_iterator@PAVMString@@U?$_Const_traits@PAVMString@@@_STL@@@0@0ABUinput_iterator_tag@0@@Z ENDP ; _STL::__distance<_STL::_List_iterator<MString *,_STL::_Const_traits<MString *> > >
_TEXT	ENDS
PUBLIC	?Release@MStringList@@QAEXXZ			; MStringList::Release
; Function compile flags: /Ogsy
; File c:\darkeden\designed_common\project\client\mstringlist.cpp
;	COMDAT ?Release@MStringList@@QAEXXZ
_TEXT	SEGMENT
?Release@MStringList@@QAEXXZ PROC NEAR			; MStringList::Release, COMDAT
; _this$ = ecx

; 32   : {

  00000	56		 push	 esi
  00001	57		 push	 edi

; 33   : 	iterator iString = begin();

  00002	8d 79 04	 lea	 edi, DWORD PTR [ecx+4]
  00005	8b 07		 mov	 eax, DWORD PTR [edi]
  00007	8b 30		 mov	 esi, DWORD PTR [eax]

; 34   : 
; 35   : 	while (iString != end())

  00009	3b f0		 cmp	 esi, eax
  0000b	74 13		 je	 SHORT $L100909
$L100908:

; 36   : 	{
; 37   : 		MString* pString = *iString;

  0000d	8b 4e 08	 mov	 ecx, DWORD PTR [esi+8]

; 38   : 
; 39   : 		if (pString!=NULL)

  00010	85 c9		 test	 ecx, ecx
  00012	74 06		 je	 SHORT $L102204

; 40   : 		{
; 41   : 			delete pString;

  00014	8b 01		 mov	 eax, DWORD PTR [ecx]
  00016	6a 01		 push	 1
  00018	ff 10		 call	 DWORD PTR [eax]
$L102204:

; 42   : 		}
; 43   : 
; 44   : 		iString++;

  0001a	8b 36		 mov	 esi, DWORD PTR [esi]
  0001c	3b 37		 cmp	 esi, DWORD PTR [edi]
  0001e	75 ed		 jne	 SHORT $L100908
$L100909:

; 45   : 	}
; 46   : 
; 47   : 	clear();

  00020	8b cf		 mov	 ecx, edi
  00022	5f		 pop	 edi
  00023	5e		 pop	 esi
  00024	e9 00 00 00 00	 jmp	 ?clear@?$_List_base@PAVMString@@V?$allocator@PAVMString@@@_STL@@@_STL@@QAEXXZ ; _STL::_List_base<MString *,_STL::allocator<MString *> >::clear
?Release@MStringList@@QAEXXZ ENDP			; MStringList::Release
_TEXT	ENDS
PUBLIC	??0?$list@PAVMString@@V?$allocator@PAVMString@@@_STL@@@_STL@@QAE@ABV?$allocator@PAVMString@@@1@@Z ; _STL::list<MString *,_STL::allocator<MString *> >::list<MString *,_STL::allocator<MString *> >
; Function compile flags: /Ogsy
; File c:\stlport-4.6.1\stlport\stl\_list.h
;	COMDAT ??0?$list@PAVMString@@V?$allocator@PAVMString@@@_STL@@@_STL@@QAE@ABV?$allocator@PAVMString@@@1@@Z
_TEXT	SEGMENT
___a$ = 8						; size = 4
??0?$list@PAVMString@@V?$allocator@PAVMString@@@_STL@@@_STL@@QAE@ABV?$allocator@PAVMString@@@1@@Z PROC NEAR ; _STL::list<MString *,_STL::allocator<MString *> >::list<MString *,_STL::allocator<MString *> >, COMDAT
; _this$ = ecx

; 264  :     _List_base<_Tp, _Alloc>(__a) {}

  00000	56		 push	 esi
  00001	ff 74 24 08	 push	 DWORD PTR ___a$[esp]
  00005	8b f1		 mov	 esi, ecx
  00007	e8 00 00 00 00	 call	 ??0?$_List_base@PAVMString@@V?$allocator@PAVMString@@@_STL@@@_STL@@QAE@ABV?$allocator@PAVMString@@@1@@Z ; _STL::_List_base<MString *,_STL::allocator<MString *> >::_List_base<MString *,_STL::allocator<MString *> >
  0000c	8b c6		 mov	 eax, esi
  0000e	5e		 pop	 esi
  0000f	c2 04 00	 ret	 4
??0?$list@PAVMString@@V?$allocator@PAVMString@@@_STL@@@_STL@@QAE@ABV?$allocator@PAVMString@@@1@@Z ENDP ; _STL::list<MString *,_STL::allocator<MString *> >::list<MString *,_STL::allocator<MString *> >
_TEXT	ENDS
PUBLIC	??1?$list@PAVMString@@V?$allocator@PAVMString@@@_STL@@@_STL@@QAE@XZ ; _STL::list<MString *,_STL::allocator<MString *> >::~list<MString *,_STL::allocator<MString *> >
; Function compile flags: /Ogsy
;	COMDAT ??1?$list@PAVMString@@V?$allocator@PAVMString@@@_STL@@@_STL@@QAE@XZ
_TEXT	SEGMENT
??1?$list@PAVMString@@V?$allocator@PAVMString@@@_STL@@@_STL@@QAE@XZ PROC NEAR ; _STL::list<MString *,_STL::allocator<MString *> >::~list<MString *,_STL::allocator<MString *> >, COMDAT
; _this$ = ecx

; 416  :   ~list() { }

  00000	e9 00 00 00 00	 jmp	 ??1?$_List_base@PAVMString@@V?$allocator@PAVMString@@@_STL@@@_STL@@QAE@XZ ; _STL::_List_base<MString *,_STL::allocator<MString *> >::~_List_base<MString *,_STL::allocator<MString *> >
??1?$list@PAVMString@@V?$allocator@PAVMString@@@_STL@@@_STL@@QAE@XZ ENDP ; _STL::list<MString *,_STL::allocator<MString *> >::~list<MString *,_STL::allocator<MString *> >
_TEXT	ENDS
PUBLIC	?insert@?$list@PAVMString@@V?$allocator@PAVMString@@@_STL@@@_STL@@QAE?AU?$_List_iterator@PAVMString@@U?$_Nonconst_traits@PAVMString@@@_STL@@@2@U32@ABQAVMString@@@Z ; _STL::list<MString *,_STL::allocator<MString *> >::insert
; Function compile flags: /Ogsy
;	COMDAT ?insert@?$list@PAVMString@@V?$allocator@PAVMString@@@_STL@@@_STL@@QAE?AU?$_List_iterator@PAVMString@@U?$_Nonconst_traits@PAVMString@@@_STL@@@2@U32@ABQAVMString@@@Z
_TEXT	SEGMENT
___$ReturnUdt$ = 8					; size = 4
___position$ = 12					; size = 4
___x$ = 16						; size = 4
?insert@?$list@PAVMString@@V?$allocator@PAVMString@@@_STL@@@_STL@@QAE?AU?$_List_iterator@PAVMString@@U?$_Nonconst_traits@PAVMString@@@_STL@@@2@U32@ABQAVMString@@@Z PROC NEAR ; _STL::list<MString *,_STL::allocator<MString *> >::insert, COMDAT
; _this$ = ecx

; 299  : 
; 300  :     _Node* __tmp = _M_create_node(__x);

  00000	ff 74 24 0c	 push	 DWORD PTR ___x$[esp-4]
  00004	e8 00 00 00 00	 call	 ?_M_create_node@?$list@PAVMString@@V?$allocator@PAVMString@@@_STL@@@_STL@@IAEPAU?$_List_node@PAVMString@@@2@ABQAVMString@@@Z ; _STL::list<MString *,_STL::allocator<MString *> >::_M_create_node

; 301  :     _List_node_base* __n = __position._M_node;
; 302  :     _List_node_base* __p = __n->_M_prev;

  00009	8b 4c 24 08	 mov	 ecx, DWORD PTR ___position$[esp-4]
  0000d	8b 51 04	 mov	 edx, DWORD PTR [ecx+4]

; 303  :     __tmp->_M_next = __n;

  00010	89 08		 mov	 DWORD PTR [eax], ecx

; 304  :     __tmp->_M_prev = __p;

  00012	89 50 04	 mov	 DWORD PTR [eax+4], edx

; 305  :     __p->_M_next = __tmp;

  00015	89 02		 mov	 DWORD PTR [edx], eax

; 306  :     __n->_M_prev = __tmp;

  00017	89 41 04	 mov	 DWORD PTR [ecx+4], eax

; 307  :     return __tmp;

  0001a	8b 4c 24 04	 mov	 ecx, DWORD PTR ___$ReturnUdt$[esp-4]
  0001e	89 01		 mov	 DWORD PTR [ecx], eax
  00020	8b c1		 mov	 eax, ecx

; 308  :   }

  00022	c2 0c 00	 ret	 12			; 0000000cH
?insert@?$list@PAVMString@@V?$allocator@PAVMString@@@_STL@@@_STL@@QAE?AU?$_List_iterator@PAVMString@@U?$_Nonconst_traits@PAVMString@@@_STL@@@2@U32@ABQAVMString@@@Z ENDP ; _STL::list<MString *,_STL::allocator<MString *> >::insert
_TEXT	ENDS
PUBLIC	??$distance@U?$_List_iterator@PAVMString@@U?$_Const_traits@PAVMString@@@_STL@@@_STL@@@_STL@@YAHABU?$_List_iterator@PAVMString@@U?$_Const_traits@PAVMString@@@_STL@@@0@0@Z ; _STL::distance<_STL::_List_iterator<MString *,_STL::_Const_traits<MString *> > >
; Function compile flags: /Ogsy
; File c:\stlport-4.6.1\stlport\stl\_iterator_base.h
;	COMDAT ??$distance@U?$_List_iterator@PAVMString@@U?$_Const_traits@PAVMString@@@_STL@@@_STL@@@_STL@@YAHABU?$_List_iterator@PAVMString@@U?$_Const_traits@PAVMString@@@_STL@@@0@0@Z
_TEXT	SEGMENT
___first$ = 8						; size = 4
___last$ = 12						; size = 4
??$distance@U?$_List_iterator@PAVMString@@U?$_Const_traits@PAVMString@@@_STL@@@_STL@@@_STL@@YAHABU?$_List_iterator@PAVMString@@U?$_Const_traits@PAVMString@@@_STL@@@0@0@Z PROC NEAR ; _STL::distance<_STL::_List_iterator<MString *,_STL::_Const_traits<MString *> > >, COMDAT

; 369  :   return __distance(__first, __last, _STLP_ITERATOR_CATEGORY(__first, _InputIterator));  

  00000	8b 54 24 08	 mov	 edx, DWORD PTR ___last$[esp-4]
  00004	8b 4c 24 04	 mov	 ecx, DWORD PTR ___first$[esp-4]
  00008	8b 12		 mov	 edx, DWORD PTR [edx]
  0000a	33 c0		 xor	 eax, eax
  0000c	eb 01		 jmp	 SHORT $L102330
$L102318:
  0000e	40		 inc	 eax
$L102330:
  0000f	8b 09		 mov	 ecx, DWORD PTR [ecx]
  00011	3b ca		 cmp	 ecx, edx
  00013	75 f9		 jne	 SHORT $L102318

; 370  : }

  00015	c3		 ret	 0
??$distance@U?$_List_iterator@PAVMString@@U?$_Const_traits@PAVMString@@@_STL@@@_STL@@@_STL@@YAHABU?$_List_iterator@PAVMString@@U?$_Const_traits@PAVMString@@@_STL@@@0@0@Z ENDP ; _STL::distance<_STL::_List_iterator<MString *,_STL::_Const_traits<MString *> > >
_TEXT	ENDS
PUBLIC	??_R4MStringList@@6B@				; MStringList::`RTTI Complete Object Locator'
PUBLIC	??_R0?AVMStringList@@@8				; MStringList `RTTI Type Descriptor'
PUBLIC	??_R3MStringList@@8				; MStringList::`RTTI Class Hierarchy Descriptor'
PUBLIC	??_R2MStringList@@8				; MStringList::`RTTI Base Class Array'
PUBLIC	??_R1A@?0A@A@MStringList@@8			; MStringList::`RTTI Base Class Descriptor at (0,-1,0,0)'
PUBLIC	??_R13?0A@A@?$list@PAVMString@@V?$allocator@PAVMString@@@_STL@@@_STL@@8 ; _STL::list<MString *,_STL::allocator<MString *> >::`RTTI Base Class Descriptor at (4,-1,0,0)'
PUBLIC	??_R0?AV?$list@PAVMString@@V?$allocator@PAVMString@@@_STL@@@_STL@@@8 ; _STL::list<MString *,_STL::allocator<MString *> > `RTTI Type Descriptor'
PUBLIC	??_R13?0A@A@?$_List_base@PAVMString@@V?$allocator@PAVMString@@@_STL@@@_STL@@8 ; _STL::_List_base<MString *,_STL::allocator<MString *> >::`RTTI Base Class Descriptor at (4,-1,0,0)'
PUBLIC	??_R0?AV?$_List_base@PAVMString@@V?$allocator@PAVMString@@@_STL@@@_STL@@@8 ; _STL::_List_base<MString *,_STL::allocator<MString *> > `RTTI Type Descriptor'
PUBLIC	??0MStringList@@QAE@XZ				; MStringList::MStringList
PUBLIC	??_7MStringList@@6B@				; MStringList::`vftable'
PUBLIC	??_GMStringList@@UAEPAXI@Z			; MStringList::`scalar deleting destructor'
EXTRN	??_7type_info@@6B@:QWORD			; type_info::`vftable'
EXTRN	??_EMStringList@@UAEPAXI@Z:NEAR			; MStringList::`vector deleting destructor'
;	COMDAT ??_7MStringList@@6B@
; File c:\stlport-4.6.1\stlport\stl\_alloc.h
CONST	SEGMENT
??_7MStringList@@6B@ DD FLAT:??_R4MStringList@@6B@	; MStringList::`vftable'
	DD	FLAT:??_EMStringList@@UAEPAXI@Z
CONST	ENDS
;	COMDAT ??_R4MStringList@@6B@
rdata$r	SEGMENT
??_R4MStringList@@6B@ DD 00H				; MStringList::`RTTI Complete Object Locator'
	DD	00H
	DD	00H
	DD	FLAT:??_R0?AVMStringList@@@8
	DD	FLAT:??_R3MStringList@@8
rdata$r	ENDS
;	COMDAT ??_R0?AVMStringList@@@8
_DATA	SEGMENT
??_R0?AVMStringList@@@8 DD FLAT:??_7type_info@@6B@	; MStringList `RTTI Type Descriptor'
	DD	00H
	DB	'.?AVMStringList@@', 00H
_DATA	ENDS
;	COMDAT ??_R3MStringList@@8
rdata$r	SEGMENT
??_R3MStringList@@8 DD 00H				; MStringList::`RTTI Class Hierarchy Descriptor'
	DD	00H
	DD	03H
	DD	FLAT:??_R2MStringList@@8
rdata$r	ENDS
;	COMDAT ??_R2MStringList@@8
rdata$r	SEGMENT
??_R2MStringList@@8 DD FLAT:??_R1A@?0A@A@MStringList@@8	; MStringList::`RTTI Base Class Array'
	DD	FLAT:??_R13?0A@A@?$list@PAVMString@@V?$allocator@PAVMString@@@_STL@@@_STL@@8
	DD	FLAT:??_R13?0A@A@?$_List_base@PAVMString@@V?$allocator@PAVMString@@@_STL@@@_STL@@8
rdata$r	ENDS
;	COMDAT ??_R1A@?0A@A@MStringList@@8
rdata$r	SEGMENT
??_R1A@?0A@A@MStringList@@8 DD FLAT:??_R0?AVMStringList@@@8 ; MStringList::`RTTI Base Class Descriptor at (0,-1,0,0)'
	DD	02H
	DD	00H
	DD	0ffffffffH
	DD	00H
	DD	00H
rdata$r	ENDS
;	COMDAT ??_R13?0A@A@?$list@PAVMString@@V?$allocator@PAVMString@@@_STL@@@_STL@@8
rdata$r	SEGMENT
??_R13?0A@A@?$list@PAVMString@@V?$allocator@PAVMString@@@_STL@@@_STL@@8 DD FLAT:??_R0?AV?$list@PAVMString@@V?$allocator@PAVMString@@@_STL@@@_STL@@@8 ; _STL::list<MString *,_STL::allocator<MString *> >::`RTTI Base Class Descriptor at (4,-1,0,0)'
	DD	01H
	DD	04H
	DD	0ffffffffH
	DD	00H
	DD	00H
rdata$r	ENDS
;	COMDAT ??_R0?AV?$list@PAVMString@@V?$allocator@PAVMString@@@_STL@@@_STL@@@8
_DATA	SEGMENT
??_R0?AV?$list@PAVMString@@V?$allocator@PAVMString@@@_STL@@@_STL@@@8 DD FLAT:??_7type_info@@6B@ ; _STL::list<MString *,_STL::allocator<MString *> > `RTTI Type Descriptor'
	DD	00H
	DB	'.?AV?$list@PAVMString@@V?$allocator@PAVMString@@@_STL@@@'
	DB	'_STL@@', 00H
_DATA	ENDS
;	COMDAT ??_R13?0A@A@?$_List_base@PAVMString@@V?$allocator@PAVMString@@@_STL@@@_STL@@8
rdata$r	SEGMENT
??_R13?0A@A@?$_List_base@PAVMString@@V?$allocator@PAVMString@@@_STL@@@_STL@@8 DD FLAT:??_R0?AV?$_List_base@PAVMString@@V?$allocator@PAVMString@@@_STL@@@_STL@@@8 ; _STL::_List_base<MString *,_STL::allocator<MString *> >::`RTTI Base Class Descriptor at (4,-1,0,0)'
	DD	00H
	DD	04H
	DD	0ffffffffH
	DD	00H
	DD	00H
rdata$r	ENDS
;	COMDAT ??_R0?AV?$_List_base@PAVMString@@V?$allocator@PAVMString@@@_STL@@@_STL@@@8
_DATA	SEGMENT
??_R0?AV?$_List_base@PAVMString@@V?$allocator@PAVMString@@@_STL@@@_STL@@@8 DD FLAT:??_7type_info@@6B@ ; _STL::_List_base<MString *,_STL::allocator<MString *> > `RTTI Type Descriptor'
	DD	00H
	DB	'.?AV?$_List_base@PAVMString@@V?$allocator@PAVMString@@@_'
	DB	'STL@@@_STL@@', 00H
; Function compile flags: /Ogsy
; File c:\darkeden\designed_common\project\client\mstringlist.cpp
_DATA	ENDS
;	COMDAT ??0MStringList@@QAE@XZ
_TEXT	SEGMENT
$T102334 = -1						; size = 1
??0MStringList@@QAE@XZ PROC NEAR			; MStringList::MStringList, COMDAT
; _this$ = ecx

; 13   : {

  00000	51		 push	 ecx
  00001	56		 push	 esi
  00002	8b f1		 mov	 esi, ecx
  00004	8d 44 24 07	 lea	 eax, DWORD PTR $T102334[esp+8]
  00008	50		 push	 eax
  00009	8d 4e 04	 lea	 ecx, DWORD PTR [esi+4]
  0000c	e8 00 00 00 00	 call	 ??0?$_List_base@PAVMString@@V?$allocator@PAVMString@@@_STL@@@_STL@@QAE@ABV?$allocator@PAVMString@@@1@@Z ; _STL::_List_base<MString *,_STL::allocator<MString *> >::_List_base<MString *,_STL::allocator<MString *> >
  00011	c7 06 00 00 00
	00		 mov	 DWORD PTR [esi], OFFSET FLAT:??_7MStringList@@6B@

; 14   : }

  00017	8b c6		 mov	 eax, esi
  00019	5e		 pop	 esi
  0001a	59		 pop	 ecx
  0001b	c3		 ret	 0
??0MStringList@@QAE@XZ ENDP				; MStringList::MStringList
_TEXT	ENDS
PUBLIC	??1MStringList@@UAE@XZ				; MStringList::~MStringList
EXTRN	__EH_prolog:NEAR
EXTRN	__except_list:DWORD
EXTRN	___CxxFrameHandler:NEAR
;	COMDAT xdata$x
; File c:\stlport-4.6.1\stlport\stl\_list.h
xdata$x	SEGMENT
$T102361 DD	0ffffffffH
	DD	FLAT:$L102350
$T102357 DD	019930520H
	DD	01H
	DD	FLAT:$T102361
	DD	2 DUP(00H)
	DD	2 DUP(00H)
; Function compile flags: /Ogsy
; File c:\darkeden\designed_common\project\client\mstringlist.cpp
xdata$x	ENDS
;	COMDAT ??1MStringList@@UAE@XZ
_TEXT	SEGMENT
_this$ = -16						; size = 4
__$EHRec$ = -12						; size = 12
??1MStringList@@UAE@XZ PROC NEAR			; MStringList::~MStringList, COMDAT
; _this$ = ecx

; 17   : {

  00000	b8 00 00 00 00	 mov	 eax, __ehhandler$??1MStringList@@UAE@XZ
  00005	e8 00 00 00 00	 call	 __EH_prolog
  0000a	51		 push	 ecx
  0000b	56		 push	 esi
  0000c	8b f1		 mov	 esi, ecx
  0000e	89 75 f0	 mov	 DWORD PTR _this$[ebp], esi
  00011	c7 06 00 00 00
	00		 mov	 DWORD PTR [esi], OFFSET FLAT:??_7MStringList@@6B@
  00017	83 65 fc 00	 and	 DWORD PTR __$EHRec$[ebp+8], 0

; 18   : 	Release();

  0001b	e8 00 00 00 00	 call	 ?Release@MStringList@@QAEXXZ ; MStringList::Release

; 19   : }

  00020	83 4d fc ff	 or	 DWORD PTR __$EHRec$[ebp+8], -1
  00024	8d 4e 04	 lea	 ecx, DWORD PTR [esi+4]
  00027	e8 00 00 00 00	 call	 ??1?$_List_base@PAVMString@@V?$allocator@PAVMString@@@_STL@@@_STL@@QAE@XZ ; _STL::_List_base<MString *,_STL::allocator<MString *> >::~_List_base<MString *,_STL::allocator<MString *> >
  0002c	8b 4d f4	 mov	 ecx, DWORD PTR __$EHRec$[ebp]
  0002f	5e		 pop	 esi
  00030	64 89 0d 00 00
	00 00		 mov	 DWORD PTR fs:__except_list, ecx
  00037	c9		 leave
  00038	c3		 ret	 0
_TEXT	ENDS
;	COMDAT text$x
text$x	SEGMENT
$L102350:
  00000	8b 4d f0	 mov	 ecx, DWORD PTR _this$[ebp]
  00003	8b 45 f0	 mov	 eax, DWORD PTR _this$[ebp]
  00006	83 c0 04	 add	 eax, 4
  00009	f7 d9		 neg	 ecx
  0000b	1b c9		 sbb	 ecx, ecx
  0000d	23 c8		 and	 ecx, eax
  0000f	e9 00 00 00 00	 jmp	 ??1?$list@PAVMString@@V?$allocator@PAVMString@@@_STL@@@_STL@@QAE@XZ ; _STL::list<MString *,_STL::allocator<MString *> >::~list<MString *,_STL::allocator<MString *> >
__ehhandler$??1MStringList@@UAE@XZ:
  00014	b8 00 00 00 00	 mov	 eax, OFFSET FLAT:$T102357
  00019	e9 00 00 00 00	 jmp	 ___CxxFrameHandler
text$x	ENDS
??1MStringList@@UAE@XZ ENDP				; MStringList::~MStringList
PUBLIC	?size@?$list@PAVMString@@V?$allocator@PAVMString@@@_STL@@@_STL@@QBEIXZ ; _STL::list<MString *,_STL::allocator<MString *> >::size
; Function compile flags: /Ogsy
; File c:\stlport-4.6.1\stlport\stl\_list.h
;	COMDAT ?size@?$list@PAVMString@@V?$allocator@PAVMString@@@_STL@@@_STL@@QBEIXZ
_TEXT	SEGMENT
?size@?$list@PAVMString@@V?$allocator@PAVMString@@@_STL@@@_STL@@QBEIXZ PROC NEAR ; _STL::list<MString *,_STL::allocator<MString *> >::size, COMDAT
; _this$ = ecx

; 284  :     size_type __result = distance(begin(), end());

  00000	8b 11		 mov	 edx, DWORD PTR [ecx]
  00002	8b 0a		 mov	 ecx, DWORD PTR [edx]
  00004	33 c0		 xor	 eax, eax
  00006	eb 03		 jmp	 SHORT $L102444
$L102439:
  00008	8b 09		 mov	 ecx, DWORD PTR [ecx]
  0000a	40		 inc	 eax
$L102444:
  0000b	3b ca		 cmp	 ecx, edx
  0000d	75 f9		 jne	 SHORT $L102439

; 285  :     return __result;
; 286  :   }

  0000f	c3		 ret	 0
?size@?$list@PAVMString@@V?$allocator@PAVMString@@@_STL@@@_STL@@QBEIXZ ENDP ; _STL::list<MString *,_STL::allocator<MString *> >::size
_TEXT	ENDS
PUBLIC	?push_back@?$list@PAVMString@@V?$allocator@PAVMString@@@_STL@@@_STL@@QAEXABQAVMString@@@Z ; _STL::list<MString *,_STL::allocator<MString *> >::push_back
; Function compile flags: /Ogsy
;	COMDAT ?push_back@?$list@PAVMString@@V?$allocator@PAVMString@@@_STL@@@_STL@@QAEXABQAVMString@@@Z
_TEXT	SEGMENT
$T102449 = 8						; size = 4
___x$ = 8						; size = 4
?push_back@?$list@PAVMString@@V?$allocator@PAVMString@@@_STL@@@_STL@@QAEXABQAVMString@@@Z PROC NEAR ; _STL::list<MString *,_STL::allocator<MString *> >::push_back, COMDAT
; _this$ = ecx

; 345  :   void push_back(const _Tp& __x) { insert(end(), __x); }

  00000	55		 push	 ebp
  00001	8b ec		 mov	 ebp, esp
  00003	ff 75 08	 push	 DWORD PTR ___x$[ebp]
  00006	8b 11		 mov	 edx, DWORD PTR [ecx]
  00008	51		 push	 ecx
  00009	8b c4		 mov	 eax, esp
  0000b	89 10		 mov	 DWORD PTR [eax], edx
  0000d	8d 45 08	 lea	 eax, DWORD PTR $T102449[ebp]
  00010	50		 push	 eax
  00011	e8 00 00 00 00	 call	 ?insert@?$list@PAVMString@@V?$allocator@PAVMString@@@_STL@@@_STL@@QAE?AU?$_List_iterator@PAVMString@@U?$_Nonconst_traits@PAVMString@@@_STL@@@2@U32@ABQAVMString@@@Z ; _STL::list<MString *,_STL::allocator<MString *> >::insert
  00016	5d		 pop	 ebp
  00017	c2 04 00	 ret	 4
?push_back@?$list@PAVMString@@V?$allocator@PAVMString@@@_STL@@@_STL@@QAEXABQAVMString@@@Z ENDP ; _STL::list<MString *,_STL::allocator<MString *> >::push_back
; Function compile flags: /Ogsy
_TEXT	ENDS
;	COMDAT ??_GMStringList@@UAEPAXI@Z
_TEXT	SEGMENT
___flags$ = 8						; size = 4
??_GMStringList@@UAEPAXI@Z PROC NEAR			; MStringList::`scalar deleting destructor', COMDAT
; _this$ = ecx
  00000	56		 push	 esi
  00001	8b f1		 mov	 esi, ecx
  00003	e8 00 00 00 00	 call	 ??1MStringList@@UAE@XZ	; MStringList::~MStringList
  00008	f6 44 24 08 01	 test	 BYTE PTR ___flags$[esp], 1
  0000d	74 07		 je	 SHORT $L100859
  0000f	56		 push	 esi
  00010	e8 00 00 00 00	 call	 ??3@YAXPAX@Z		; operator delete
  00015	59		 pop	 ecx
$L100859:
  00016	8b c6		 mov	 eax, esi
  00018	5e		 pop	 esi
  00019	c2 04 00	 ret	 4
??_GMStringList@@UAEPAXI@Z ENDP				; MStringList::`scalar deleting destructor'
_TEXT	ENDS
PUBLIC	?AddString@MStringList@@QAEXPBD@Z		; MStringList::AddString
EXTRN	??0MString@@QAE@PBD@Z:NEAR			; MString::MString
;	COMDAT xdata$x
; File c:\darkeden\designed_common\project\client\mstringlist.cpp
xdata$x	SEGMENT
$T102480 DD	0ffffffffH
	DD	FLAT:$L102476
$T102478 DD	019930520H
	DD	01H
	DD	FLAT:$T102480
	DD	2 DUP(00H)
	DD	2 DUP(00H)
; Function compile flags: /Ogsy
xdata$x	ENDS
;	COMDAT ?AddString@MStringList@@QAEXPBD@Z
_TEXT	SEGMENT
$T102473 = -16						; size = 4
__$EHRec$ = -12						; size = 12
_pString$ = 8						; size = 4
_str$ = 8						; size = 4
?AddString@MStringList@@QAEXPBD@Z PROC NEAR		; MStringList::AddString, COMDAT
; _this$ = ecx

; 57   : {

  00000	b8 00 00 00 00	 mov	 eax, __ehhandler$?AddString@MStringList@@QAEXPBD@Z
  00005	e8 00 00 00 00	 call	 __EH_prolog
  0000a	51		 push	 ecx
  0000b	56		 push	 esi

; 58   : 	MString* pString = new MString(str);

  0000c	6a 0c		 push	 12			; 0000000cH
  0000e	8b f1		 mov	 esi, ecx
  00010	e8 00 00 00 00	 call	 ??2@YAPAXI@Z		; operator new
  00015	59		 pop	 ecx
  00016	8b c8		 mov	 ecx, eax
  00018	89 4d f0	 mov	 DWORD PTR $T102473[ebp], ecx
  0001b	33 c0		 xor	 eax, eax
  0001d	3b c8		 cmp	 ecx, eax
  0001f	89 45 fc	 mov	 DWORD PTR __$EHRec$[ebp+8], eax
  00022	74 08		 je	 SHORT $L102475
  00024	ff 75 08	 push	 DWORD PTR _str$[ebp]
  00027	e8 00 00 00 00	 call	 ??0MString@@QAE@PBD@Z	; MString::MString
$L102475:
  0002c	83 4d fc ff	 or	 DWORD PTR __$EHRec$[ebp+8], -1
  00030	89 45 08	 mov	 DWORD PTR _pString$[ebp], eax

; 59   : 
; 60   : 	push_back( pString );

  00033	8d 45 08	 lea	 eax, DWORD PTR _pString$[ebp]
  00036	50		 push	 eax
  00037	8d 4e 04	 lea	 ecx, DWORD PTR [esi+4]
  0003a	e8 00 00 00 00	 call	 ?push_back@?$list@PAVMString@@V?$allocator@PAVMString@@@_STL@@@_STL@@QAEXABQAVMString@@@Z ; _STL::list<MString *,_STL::allocator<MString *> >::push_back

; 61   : }

  0003f	8b 4d f4	 mov	 ecx, DWORD PTR __$EHRec$[ebp]
  00042	5e		 pop	 esi
  00043	64 89 0d 00 00
	00 00		 mov	 DWORD PTR fs:__except_list, ecx
  0004a	c9		 leave
  0004b	c2 04 00	 ret	 4
_TEXT	ENDS
;	COMDAT text$x
text$x	SEGMENT
$L102476:
  00000	ff 75 f0	 push	 DWORD PTR $T102473[ebp]
  00003	e8 00 00 00 00	 call	 ??3@YAXPAX@Z		; operator delete
  00008	59		 pop	 ecx
  00009	c3		 ret	 0
__ehhandler$?AddString@MStringList@@QAEXPBD@Z:
  0000a	b8 00 00 00 00	 mov	 eax, OFFSET FLAT:$T102478
  0000f	e9 00 00 00 00	 jmp	 ___CxxFrameHandler
text$x	ENDS
?AddString@MStringList@@QAEXPBD@Z ENDP			; MStringList::AddString
PUBLIC	?GetIterator@MStringList@@QAE?AU?$_List_iterator@PAVMString@@U?$_Nonconst_traits@PAVMString@@@_STL@@@_STL@@I@Z ; MStringList::GetIterator
; Function compile flags: /Ogsy
;	COMDAT ?GetIterator@MStringList@@QAE?AU?$_List_iterator@PAVMString@@U?$_Nonconst_traits@PAVMString@@@_STL@@@_STL@@I@Z
_TEXT	SEGMENT
___$ReturnUdt$ = 8					; size = 4
_index$ = 12						; size = 4
?GetIterator@MStringList@@QAE?AU?$_List_iterator@PAVMString@@U?$_Nonconst_traits@PAVMString@@@_STL@@@_STL@@I@Z PROC NEAR ; MStringList::GetIterator, COMDAT
; _this$ = ecx

; 72   : 	//   
; 73   : 	if (index>=size())

  00000	8b 51 04	 mov	 edx, DWORD PTR [ecx+4]
  00003	8b 02		 mov	 eax, DWORD PTR [edx]
  00005	56		 push	 esi
  00006	33 f6		 xor	 esi, esi
  00008	3b c2		 cmp	 eax, edx
  0000a	74 0f		 je	 SHORT $L102673
$L102582:
  0000c	8b 00		 mov	 eax, DWORD PTR [eax]
  0000e	46		 inc	 esi
  0000f	3b c2		 cmp	 eax, edx
  00011	75 f9		 jne	 SHORT $L102582
  00013	8b 44 24 0c	 mov	 eax, DWORD PTR _index$[esp]
  00017	3b c6		 cmp	 eax, esi
  00019	72 05		 jb	 SHORT $L100930
$L102673:

; 74   : 	{
; 75   : 		return end();

  0001b	8b 49 04	 mov	 ecx, DWORD PTR [ecx+4]
  0001e	eb 0e		 jmp	 SHORT $L100937
$L100930:

; 76   : 	}
; 77   : 
; 78   : 	iterator iString = begin();
; 79   : 
; 80   : 	for (int i=0; i<index; i++)

  00020	85 c0		 test	 eax, eax
  00022	8b 49 04	 mov	 ecx, DWORD PTR [ecx+4]
  00025	8b 09		 mov	 ecx, DWORD PTR [ecx]
  00027	76 05		 jbe	 SHORT $L100937
$L100935:
  00029	48		 dec	 eax

; 81   : 	{
; 82   : 		iString++;

  0002a	8b 09		 mov	 ecx, DWORD PTR [ecx]
  0002c	75 fb		 jne	 SHORT $L100935
$L100937:

; 83   : 	}
; 84   : 
; 85   : 	return iString;

  0002e	8b 44 24 08	 mov	 eax, DWORD PTR ___$ReturnUdt$[esp]
  00032	89 08		 mov	 DWORD PTR [eax], ecx
  00034	5e		 pop	 esi

; 86   : }

  00035	c2 08 00	 ret	 8
?GetIterator@MStringList@@QAE?AU?$_List_iterator@PAVMString@@U?$_Nonconst_traits@PAVMString@@@_STL@@@_STL@@I@Z ENDP ; MStringList::GetIterator
_TEXT	ENDS
END
