; Listing generated by Microsoft (R) Optimizing Compiler Version 13.10.3077 

	TITLE	\darkeden\Designed_Common\Project\Client\MTimeItemManager.CPP
	.386P
include listing.inc
if @Version gt 510
.model FLAT
else
_TEXT	SEGMENT PARA USE32 PUBLIC 'CODE'
_TEXT	ENDS
_DATA	SEGMENT DWORD USE32 PUBLIC 'DATA'
_DATA	ENDS
CONST	SEGMENT DWORD USE32 PUBLIC 'CONST'
CONST	ENDS
_BSS	SEGMENT DWORD USE32 PUBLIC 'BSS'
_BSS	ENDS
$$SYMBOLS	SEGMENT BYTE USE32 'DEBSYM'
$$SYMBOLS	ENDS
$$TYPES	SEGMENT BYTE USE32 'DEBTYP'
$$TYPES	ENDS
_TLS	SEGMENT DWORD USE32 PUBLIC 'TLS'
_TLS	ENDS
;	COMDAT ??_C@_0N@GOPDCEEB@basic_string?$AA@
CONST	SEGMENT DWORD USE32 PUBLIC 'CONST'
CONST	ENDS
rdata$r	SEGMENT DWORD USE32 PUBLIC 'CONST'
rdata$r	ENDS
text$yc	SEGMENT PARA USE32 PUBLIC 'CODE'
text$yc	ENDS
CRT$XCA	SEGMENT DWORD USE32 PUBLIC 'DATA'
CRT$XCA	ENDS
CRT$XCU	SEGMENT DWORD USE32 PUBLIC 'DATA'
CRT$XCU	ENDS
CRT$XCL	SEGMENT DWORD USE32 PUBLIC 'DATA'
CRT$XCL	ENDS
CRT$XCC	SEGMENT DWORD USE32 PUBLIC 'DATA'
CRT$XCC	ENDS
CRT$XCZ	SEGMENT DWORD USE32 PUBLIC 'DATA'
CRT$XCZ	ENDS
text$yd	SEGMENT PARA USE32 PUBLIC 'CODE'
text$yd	ENDS
;	COMDAT ??0MTimeItemManager@@QAE@XZ
_TEXT	SEGMENT PARA USE32 PUBLIC 'CODE'
_TEXT	ENDS
;	COMDAT ??1?$map@IKU?$less@I@_STL@@V?$allocator@U?$pair@$$CBIK@_STL@@@2@@_STL@@QAE@XZ
_TEXT	SEGMENT PARA USE32 PUBLIC 'CODE'
_TEXT	ENDS
;	COMDAT ??1MTimeItemManager@@QAE@XZ
_TEXT	SEGMENT PARA USE32 PUBLIC 'CODE'
_TEXT	ENDS
;	COMDAT ?IsExist@MTimeItemManager@@QAE_NI@Z
_TEXT	SEGMENT PARA USE32 PUBLIC 'CODE'
_TEXT	ENDS
;	COMDAT ?AddTimeItem@MTimeItemManager@@QAE_NIK@Z
_TEXT	SEGMENT PARA USE32 PUBLIC 'CODE'
_TEXT	ENDS
;	COMDAT ?RemoveTimeItem@MTimeItemManager@@QAE_NI@Z
_TEXT	SEGMENT PARA USE32 PUBLIC 'CODE'
_TEXT	ENDS
;	COMDAT ?GetDay@MTimeItemManager@@QAEHI@Z
_TEXT	SEGMENT PARA USE32 PUBLIC 'CODE'
_TEXT	ENDS
;	COMDAT ?GetHour@MTimeItemManager@@QAEHI@Z
_TEXT	SEGMENT PARA USE32 PUBLIC 'CODE'
_TEXT	ENDS
;	COMDAT ?GetMinute@MTimeItemManager@@QAEHI@Z
_TEXT	SEGMENT PARA USE32 PUBLIC 'CODE'
_TEXT	ENDS
;	COMDAT ?GetSecond@MTimeItemManager@@QAEHI@Z
_TEXT	SEGMENT PARA USE32 PUBLIC 'CODE'
_TEXT	ENDS
;	COMDAT ?IsExpired@MTimeItemManager@@QAE_NI@Z
_TEXT	SEGMENT PARA USE32 PUBLIC 'CODE'
_TEXT	ENDS
;	COMDAT ?eq@?$__char_traits_base@DH@_STL@@SA_NABD0@Z
_TEXT	SEGMENT PARA USE32 PUBLIC 'CODE'
_TEXT	ENDS
;	COMDAT ?not_eof@?$__char_traits_base@DH@_STL@@SAHABH@Z
_TEXT	SEGMENT PARA USE32 PUBLIC 'CODE'
_TEXT	ENDS
;	COMDAT ?eq_int_type@?$__char_traits_base@DH@_STL@@SA_NABH0@Z
_TEXT	SEGMENT PARA USE32 PUBLIC 'CODE'
_TEXT	ENDS
;	COMDAT ?get_allocator@?$basic_string@DV?$char_traits@D@_STL@@V?$allocator@D@2@@_STL@@QBE?AV?$allocator@D@2@XZ
_TEXT	SEGMENT PARA USE32 PUBLIC 'CODE'
_TEXT	ENDS
;	COMDAT ?_M_terminate_string@?$basic_string@DV?$char_traits@D@_STL@@V?$allocator@D@2@@_STL@@AAEXXZ
_TEXT	SEGMENT PARA USE32 PUBLIC 'CODE'
_TEXT	ENDS
;	COMDAT ??0?$_String_base@DV?$allocator@D@_STL@@@_STL@@QAE@ABV?$allocator@D@1@@Z
_TEXT	SEGMENT PARA USE32 PUBLIC 'CODE'
_TEXT	ENDS
;	COMDAT ?allocate@?$allocator@D@_STL@@QAEPADIPBX@Z
_TEXT	SEGMENT PARA USE32 PUBLIC 'CODE'
_TEXT	ENDS
;	COMDAT ??0?$fpos@H@_STL@@QAE@J@Z
_TEXT	SEGMENT PARA USE32 PUBLIC 'CODE'
_TEXT	ENDS
;	COMDAT ??B?$fpos@H@_STL@@QBEJXZ
_TEXT	SEGMENT PARA USE32 PUBLIC 'CODE'
_TEXT	ENDS
;	COMDAT ?state@?$fpos@H@_STL@@QBEHXZ
_TEXT	SEGMENT PARA USE32 PUBLIC 'CODE'
_TEXT	ENDS
;	COMDAT ?is_open@?$basic_filebuf@DV?$char_traits@D@_STL@@@_STL@@QBE_NXZ
_TEXT	SEGMENT PARA USE32 PUBLIC 'CODE'
_TEXT	ENDS
;	COMDAT ?_M_seek_return@?$basic_filebuf@DV?$char_traits@D@_STL@@@_STL@@AAE?AV?$fpos@H@2@JH@Z
_TEXT	SEGMENT PARA USE32 PUBLIC 'CODE'
_TEXT	ENDS
;	COMDAT ??0?$_Filebuf_Tmp_Buf@D@_STL@@QAE@H@Z
_TEXT	SEGMENT PARA USE32 PUBLIC 'CODE'
_TEXT	ENDS
;	COMDAT ??1?$_Filebuf_Tmp_Buf@D@_STL@@QAE@XZ
_TEXT	SEGMENT PARA USE32 PUBLIC 'CODE'
_TEXT	ENDS
;	COMDAT ??0?$map@IKU?$less@I@_STL@@V?$allocator@U?$pair@$$CBIK@_STL@@@2@@_STL@@QAE@XZ
_TEXT	SEGMENT PARA USE32 PUBLIC 'CODE'
_TEXT	ENDS
;	COMDAT ?end@?$map@IKU?$less@I@_STL@@V?$allocator@U?$pair@$$CBIK@_STL@@@2@@_STL@@QAE?AU?$_Rb_tree_iterator@U?$pair@$$CBIK@_STL@@U?$_Nonconst_traits@U?$pair@$$CBIK@_STL@@@2@@2@XZ
_TEXT	SEGMENT PARA USE32 PUBLIC 'CODE'
_TEXT	ENDS
;	COMDAT ?empty@?$map@IKU?$less@I@_STL@@V?$allocator@U?$pair@$$CBIK@_STL@@@2@@_STL@@QBE_NXZ
_TEXT	SEGMENT PARA USE32 PUBLIC 'CODE'
_TEXT	ENDS
;	COMDAT ?insert@?$map@IKU?$less@I@_STL@@V?$allocator@U?$pair@$$CBIK@_STL@@@2@@_STL@@QAE?AU?$pair@U?$_Rb_tree_iterator@U?$pair@$$CBIK@_STL@@U?$_Nonconst_traits@U?$pair@$$CBIK@_STL@@@2@@_STL@@_N@2@ABU?$pair@$$CBIK@2@@Z
_TEXT	SEGMENT PARA USE32 PUBLIC 'CODE'
_TEXT	ENDS
;	COMDAT ?erase@?$map@IKU?$less@I@_STL@@V?$allocator@U?$pair@$$CBIK@_STL@@@2@@_STL@@QAEXU?$_Rb_tree_iterator@U?$pair@$$CBIK@_STL@@U?$_Nonconst_traits@U?$pair@$$CBIK@_STL@@@2@@2@@Z
_TEXT	SEGMENT PARA USE32 PUBLIC 'CODE'
_TEXT	ENDS
;	COMDAT ?clear@?$map@IKU?$less@I@_STL@@V?$allocator@U?$pair@$$CBIK@_STL@@@2@@_STL@@QAEXXZ
_TEXT	SEGMENT PARA USE32 PUBLIC 'CODE'
_TEXT	ENDS
;	COMDAT ?find@?$map@IKU?$less@I@_STL@@V?$allocator@U?$pair@$$CBIK@_STL@@@2@@_STL@@QAE?AU?$_Rb_tree_iterator@U?$pair@$$CBIK@_STL@@U?$_Nonconst_traits@U?$pair@$$CBIK@_STL@@@2@@2@ABI@Z
_TEXT	SEGMENT PARA USE32 PUBLIC 'CODE'
_TEXT	ENDS
;	COMDAT ??1?$_Rb_tree@IU?$pair@$$CBIK@_STL@@U?$_Select1st@U?$pair@$$CBIK@_STL@@@2@U?$less@I@2@V?$allocator@U?$pair@$$CBIK@_STL@@@2@@_STL@@QAE@XZ
_TEXT	SEGMENT PARA USE32 PUBLIC 'CODE'
_TEXT	ENDS
;	COMDAT ??0?$_Rb_tree_iterator@U?$pair@$$CBIK@_STL@@U?$_Const_traits@U?$pair@$$CBIK@_STL@@@2@@_STL@@QAE@ABU?$_Rb_tree_iterator@U?$pair@$$CBIK@_STL@@U?$_Nonconst_traits@U?$pair@$$CBIK@_STL@@@2@@1@@Z
_TEXT	SEGMENT PARA USE32 PUBLIC 'CODE'
_TEXT	ENDS
;	COMDAT ??D?$_Rb_tree_iterator@U?$pair@$$CBIK@_STL@@U?$_Const_traits@U?$pair@$$CBIK@_STL@@@2@@_STL@@QBEABU?$pair@$$CBIK@1@XZ
_TEXT	SEGMENT PARA USE32 PUBLIC 'CODE'
_TEXT	ENDS
;	COMDAT ??0?$_Rb_tree_iterator@U?$pair@$$CBIK@_STL@@U?$_Nonconst_traits@U?$pair@$$CBIK@_STL@@@2@@_STL@@QAE@ABU01@@Z
_TEXT	SEGMENT PARA USE32 PUBLIC 'CODE'
_TEXT	ENDS
;	COMDAT ??0?$pair@$$CBIK@_STL@@QAE@ABIABK@Z
_TEXT	SEGMENT PARA USE32 PUBLIC 'CODE'
_TEXT	ENDS
;	COMDAT ?_M_terminate_string_aux@?$basic_string@DV?$char_traits@D@_STL@@V?$allocator@D@2@@_STL@@AAEXABU__true_type@2@@Z
_TEXT	SEGMENT PARA USE32 PUBLIC 'CODE'
_TEXT	ENDS
;	COMDAT ??0?$allocator@D@_STL@@QAE@ABV01@@Z
_TEXT	SEGMENT PARA USE32 PUBLIC 'CODE'
_TEXT	ENDS
;	COMDAT ??0?$_STLP_alloc_proxy@PADDV?$allocator@D@_STL@@@_STL@@QAE@ABV?$allocator@D@1@PAD@Z
_TEXT	SEGMENT PARA USE32 PUBLIC 'CODE'
_TEXT	ENDS
;	COMDAT ?state@?$fpos@H@_STL@@QAEXH@Z
_TEXT	SEGMENT PARA USE32 PUBLIC 'CODE'
_TEXT	ENDS
;	COMDAT ??0?$_Rb_tree@IU?$pair@$$CBIK@_STL@@U?$_Select1st@U?$pair@$$CBIK@_STL@@@2@U?$less@I@2@V?$allocator@U?$pair@$$CBIK@_STL@@@2@@_STL@@QAE@ABU?$less@I@1@ABV?$allocator@U?$pair@$$CBIK@_STL@@@1@@Z
_TEXT	SEGMENT PARA USE32 PUBLIC 'CODE'
_TEXT	ENDS
;	COMDAT ?end@?$_Rb_tree@IU?$pair@$$CBIK@_STL@@U?$_Select1st@U?$pair@$$CBIK@_STL@@@2@U?$less@I@2@V?$allocator@U?$pair@$$CBIK@_STL@@@2@@_STL@@QAE?AU?$_Rb_tree_iterator@U?$pair@$$CBIK@_STL@@U?$_Nonconst_traits@U?$pair@$$CBIK@_STL@@@2@@2@XZ
_TEXT	SEGMENT PARA USE32 PUBLIC 'CODE'
_TEXT	ENDS
;	COMDAT ?empty@?$_Rb_tree@IU?$pair@$$CBIK@_STL@@U?$_Select1st@U?$pair@$$CBIK@_STL@@@2@U?$less@I@2@V?$allocator@U?$pair@$$CBIK@_STL@@@2@@_STL@@QBE_NXZ
_TEXT	SEGMENT PARA USE32 PUBLIC 'CODE'
_TEXT	ENDS
;	COMDAT ?erase@?$_Rb_tree@IU?$pair@$$CBIK@_STL@@U?$_Select1st@U?$pair@$$CBIK@_STL@@@2@U?$less@I@2@V?$allocator@U?$pair@$$CBIK@_STL@@@2@@_STL@@QAEXU?$_Rb_tree_iterator@U?$pair@$$CBIK@_STL@@U?$_Nonconst_traits@U?$pair@$$CBIK@_STL@@@2@@2@@Z
_TEXT	SEGMENT PARA USE32 PUBLIC 'CODE'
_TEXT	ENDS
;	COMDAT ?clear@?$_Rb_tree@IU?$pair@$$CBIK@_STL@@U?$_Select1st@U?$pair@$$CBIK@_STL@@@2@U?$less@I@2@V?$allocator@U?$pair@$$CBIK@_STL@@@2@@_STL@@QAEXXZ
_TEXT	SEGMENT PARA USE32 PUBLIC 'CODE'
_TEXT	ENDS
;	COMDAT ??1?$_Rb_tree_base@U?$pair@$$CBIK@_STL@@V?$allocator@U?$pair@$$CBIK@_STL@@@2@@_STL@@QAE@XZ
_TEXT	SEGMENT PARA USE32 PUBLIC 'CODE'
_TEXT	ENDS
;	COMDAT ??0?$allocator@U?$pair@$$CBIK@_STL@@@_STL@@QAE@XZ
_TEXT	SEGMENT PARA USE32 PUBLIC 'CODE'
_TEXT	ENDS
;	COMDAT ??1?$allocator@U?$pair@$$CBIK@_STL@@@_STL@@QAE@XZ
_TEXT	SEGMENT PARA USE32 PUBLIC 'CODE'
_TEXT	ENDS
;	COMDAT ??1?$_STLP_alloc_proxy@PAU?$_Rb_tree_node@U?$pair@$$CBIK@_STL@@@_STL@@U12@V?$allocator@U?$_Rb_tree_node@U?$pair@$$CBIK@_STL@@@_STL@@@2@@_STL@@QAE@XZ
_TEXT	SEGMENT PARA USE32 PUBLIC 'CODE'
_TEXT	ENDS
;	COMDAT ?_M_root@?$_Rb_tree@IU?$pair@$$CBIK@_STL@@U?$_Select1st@U?$pair@$$CBIK@_STL@@@2@U?$less@I@2@V?$allocator@U?$pair@$$CBIK@_STL@@@2@@_STL@@IBEAAPAU?$_Rb_tree_node@U?$pair@$$CBIK@_STL@@@2@XZ
_TEXT	SEGMENT PARA USE32 PUBLIC 'CODE'
_TEXT	ENDS
;	COMDAT ?_M_leftmost@?$_Rb_tree@IU?$pair@$$CBIK@_STL@@U?$_Select1st@U?$pair@$$CBIK@_STL@@@2@U?$less@I@2@V?$allocator@U?$pair@$$CBIK@_STL@@@2@@_STL@@IBEAAPAU?$_Rb_tree_node@U?$pair@$$CBIK@_STL@@@2@XZ
_TEXT	SEGMENT PARA USE32 PUBLIC 'CODE'
_TEXT	ENDS
;	COMDAT ?_M_rightmost@?$_Rb_tree@IU?$pair@$$CBIK@_STL@@U?$_Select1st@U?$pair@$$CBIK@_STL@@@2@U?$less@I@2@V?$allocator@U?$pair@$$CBIK@_STL@@@2@@_STL@@IBEAAPAU?$_Rb_tree_node@U?$pair@$$CBIK@_STL@@@2@XZ
_TEXT	SEGMENT PARA USE32 PUBLIC 'CODE'
_TEXT	ENDS
;	COMDAT ?_M_empty_initialize@?$_Rb_tree@IU?$pair@$$CBIK@_STL@@U?$_Select1st@U?$pair@$$CBIK@_STL@@@2@U?$less@I@2@V?$allocator@U?$pair@$$CBIK@_STL@@@2@@_STL@@AAEXXZ
_TEXT	SEGMENT PARA USE32 PUBLIC 'CODE'
_TEXT	ENDS
;	COMDAT ??0?$_Rb_tree_base@U?$pair@$$CBIK@_STL@@V?$allocator@U?$pair@$$CBIK@_STL@@@2@@_STL@@QAE@ABV?$allocator@U?$pair@$$CBIK@_STL@@@1@@Z
_TEXT	SEGMENT PARA USE32 PUBLIC 'CODE'
_TEXT	ENDS
;	COMDAT ??1?$allocator@U?$_Rb_tree_node@U?$pair@$$CBIK@_STL@@@_STL@@@_STL@@QAE@XZ
_TEXT	SEGMENT PARA USE32 PUBLIC 'CODE'
_TEXT	ENDS
;	COMDAT ?deallocate@?$allocator@U?$_Rb_tree_node@U?$pair@$$CBIK@_STL@@@_STL@@@_STL@@QAEXPAU?$_Rb_tree_node@U?$pair@$$CBIK@_STL@@@2@I@Z
_TEXT	SEGMENT PARA USE32 PUBLIC 'CODE'
_TEXT	ENDS
;	COMDAT ??0?$_Rb_tree_iterator@U?$pair@$$CBIK@_STL@@U?$_Nonconst_traits@U?$pair@$$CBIK@_STL@@@2@@_STL@@QAE@PAU?$_Rb_tree_node@U?$pair@$$CBIK@_STL@@@1@@Z
_TEXT	SEGMENT PARA USE32 PUBLIC 'CODE'
_TEXT	ENDS
;	COMDAT ?_S_color@?$_Rb_tree@IU?$pair@$$CBIK@_STL@@U?$_Select1st@U?$pair@$$CBIK@_STL@@@2@U?$less@I@2@V?$allocator@U?$pair@$$CBIK@_STL@@@2@@_STL@@KAAA_NPAU?$_Rb_tree_node@U?$pair@$$CBIK@_STL@@@2@@Z
_TEXT	SEGMENT PARA USE32 PUBLIC 'CODE'
_TEXT	ENDS
;	COMDAT ??0?$_STLP_alloc_proxy@PAU?$_Rb_tree_node@U?$pair@$$CBIK@_STL@@@_STL@@U12@V?$allocator@U?$_Rb_tree_node@U?$pair@$$CBIK@_STL@@@_STL@@@2@@_STL@@QAE@ABV?$allocator@U?$_Rb_tree_node@U?$pair@$$CBIK@_STL@@@_STL@@@1@PAU?$_Rb_tree_node@U?$pair@$$CBIK@_STL@@@1@@Z
_TEXT	SEGMENT PARA USE32 PUBLIC 'CODE'
_TEXT	ENDS
;	COMDAT ?allocate@?$allocator@U?$_Rb_tree_node@U?$pair@$$CBIK@_STL@@@_STL@@@_STL@@QAEPAU?$_Rb_tree_node@U?$pair@$$CBIK@_STL@@@2@IPBX@Z
_TEXT	SEGMENT PARA USE32 PUBLIC 'CODE'
_TEXT	ENDS
;	COMDAT ??0?$allocator@U?$_Rb_tree_node@U?$pair@$$CBIK@_STL@@@_STL@@@_STL@@QAE@ABV01@@Z
_TEXT	SEGMENT PARA USE32 PUBLIC 'CODE'
_TEXT	ENDS
;	COMDAT ??$_M_range_initialize@PBD@?$basic_string@DV?$char_traits@D@_STL@@V?$allocator@D@2@@_STL@@AAEXPBD0@Z
_TEXT	SEGMENT PARA USE32 PUBLIC 'CODE'
_TEXT	ENDS
;	COMDAT ??$_M_range_initialize@PAD@?$basic_string@DV?$char_traits@D@_STL@@V?$allocator@D@2@@_STL@@AAEXPAD0@Z
_TEXT	SEGMENT PARA USE32 PUBLIC 'CODE'
_TEXT	ENDS
;	COMDAT ?close@?$basic_filebuf@DV?$char_traits@D@_STL@@@_STL@@QAEPAV12@XZ
_TEXT	SEGMENT PARA USE32 PUBLIC 'CODE'
_TEXT	ENDS
;	COMDAT ?_M_exit_input_mode@?$basic_filebuf@DV?$char_traits@D@_STL@@@_STL@@AAEXXZ
_TEXT	SEGMENT PARA USE32 PUBLIC 'CODE'
_TEXT	ENDS
;	COMDAT ?_M_switch_to_output_mode@?$basic_filebuf@DV?$char_traits@D@_STL@@@_STL@@AAE_NXZ
_TEXT	SEGMENT PARA USE32 PUBLIC 'CODE'
_TEXT	ENDS
;	COMDAT ?_M_output_error@?$basic_filebuf@DV?$char_traits@D@_STL@@@_STL@@AAEHXZ
_TEXT	SEGMENT PARA USE32 PUBLIC 'CODE'
_TEXT	ENDS
;	COMDAT ?_M_allocate_buffers@?$basic_filebuf@DV?$char_traits@D@_STL@@@_STL@@AAE_NPADH@Z
_TEXT	SEGMENT PARA USE32 PUBLIC 'CODE'
_TEXT	ENDS
;	COMDAT ?_M_deallocate_buffers@?$basic_filebuf@DV?$char_traits@D@_STL@@@_STL@@AAEXXZ
_TEXT	SEGMENT PARA USE32 PUBLIC 'CODE'
_TEXT	ENDS
;	COMDAT ?_M_seek_init@?$basic_filebuf@DV?$char_traits@D@_STL@@@_STL@@AAE_N_N@Z
_TEXT	SEGMENT PARA USE32 PUBLIC 'CODE'
_TEXT	ENDS
;	COMDAT ?_M_setup_codecvt@?$basic_filebuf@DV?$char_traits@D@_STL@@@_STL@@AAEXABVlocale@2@@Z
_TEXT	SEGMENT PARA USE32 PUBLIC 'CODE'
_TEXT	ENDS
;	COMDAT ??$equal@PADPADU?$_Eq_traits@V?$char_traits@D@_STL@@@_STL@@@_STL@@YA_NPAD00U?$_Eq_traits@V?$char_traits@D@_STL@@@0@@Z
_TEXT	SEGMENT PARA USE32 PUBLIC 'CODE'
_TEXT	ENDS
;	COMDAT ??$_Destroy@V?$basic_string@DV?$char_traits@D@_STL@@V?$allocator@D@2@@_STL@@@_STL@@YAXPAV?$basic_string@DV?$char_traits@D@_STL@@V?$allocator@D@2@@0@@Z
_TEXT	SEGMENT PARA USE32 PUBLIC 'CODE'
_TEXT	ENDS
;	COMDAT ??$_M_assign_dispatch@PAD@?$basic_string@DV?$char_traits@D@_STL@@V?$allocator@D@2@@_STL@@AAEAAV01@PAD0ABU__false_type@1@@Z
_TEXT	SEGMENT PARA USE32 PUBLIC 'CODE'
_TEXT	ENDS
;	COMDAT ?_M_erase@?$_Rb_tree@IU?$pair@$$CBIK@_STL@@U?$_Select1st@U?$pair@$$CBIK@_STL@@@2@U?$less@I@2@V?$allocator@U?$pair@$$CBIK@_STL@@@2@@_STL@@AAEXPAU?$_Rb_tree_node@U?$pair@$$CBIK@_STL@@@2@@Z
_TEXT	SEGMENT PARA USE32 PUBLIC 'CODE'
_TEXT	ENDS
;	COMDAT ?insert_unique@?$_Rb_tree@IU?$pair@$$CBIK@_STL@@U?$_Select1st@U?$pair@$$CBIK@_STL@@@2@U?$less@I@2@V?$allocator@U?$pair@$$CBIK@_STL@@@2@@_STL@@QAE?AU?$pair@U?$_Rb_tree_iterator@U?$pair@$$CBIK@_STL@@U?$_Nonconst_traits@U?$pair@$$CBIK@_STL@@@2@@_STL@@_N@2@ABU?$pair@$$CBIK@2@@Z
_TEXT	SEGMENT PARA USE32 PUBLIC 'CODE'
_TEXT	ENDS
;	COMDAT ??$find@I@?$_Rb_tree@IU?$pair@$$CBIK@_STL@@U?$_Select1st@U?$pair@$$CBIK@_STL@@@2@U?$less@I@2@V?$allocator@U?$pair@$$CBIK@_STL@@@2@@_STL@@QAE?AU?$_Rb_tree_iterator@U?$pair@$$CBIK@_STL@@U?$_Nonconst_traits@U?$pair@$$CBIK@_STL@@@2@@1@ABI@Z
_TEXT	SEGMENT PARA USE32 PUBLIC 'CODE'
_TEXT	ENDS
;	COMDAT ??$_Destroy@U?$pair@$$CBIK@_STL@@@_STL@@YAXPAU?$pair@$$CBIK@0@@Z
_TEXT	SEGMENT PARA USE32 PUBLIC 'CODE'
_TEXT	ENDS
;	COMDAT ??$?0U?$pair@$$CBIK@_STL@@@?$allocator@U?$_Rb_tree_node@U?$pair@$$CBIK@_STL@@@_STL@@@_STL@@QAE@ABV?$allocator@U?$pair@$$CBIK@_STL@@@1@@Z
_TEXT	SEGMENT PARA USE32 PUBLIC 'CODE'
_TEXT	ENDS
;	COMDAT ??_G?$basic_string@DV?$char_traits@D@_STL@@V?$allocator@D@2@@_STL@@QAEPAXI@Z
_TEXT	SEGMENT PARA USE32 PUBLIC 'CODE'
_TEXT	ENDS
;	COMDAT ?end@?$basic_string@DV?$char_traits@D@_STL@@V?$allocator@D@2@@_STL@@QAEPADXZ
_TEXT	SEGMENT PARA USE32 PUBLIC 'CODE'
_TEXT	ENDS
;	COMDAT ?erase@?$basic_string@DV?$char_traits@D@_STL@@V?$allocator@D@2@@_STL@@QAEPADPAD0@Z
_TEXT	SEGMENT PARA USE32 PUBLIC 'CODE'
_TEXT	ENDS
;	COMDAT ?_M_exit_putback_mode@?$basic_filebuf@DV?$char_traits@D@_STL@@@_STL@@AAEXXZ
_TEXT	SEGMENT PARA USE32 PUBLIC 'CODE'
_TEXT	ENDS
;	COMDAT ??R?$_Eq_traits@V?$char_traits@D@_STL@@@_STL@@QBE_NABD0@Z
_TEXT	SEGMENT PARA USE32 PUBLIC 'CODE'
_TEXT	ENDS
;	COMDAT ?_S_left@?$_Rb_tree@IU?$pair@$$CBIK@_STL@@U?$_Select1st@U?$pair@$$CBIK@_STL@@@2@U?$less@I@2@V?$allocator@U?$pair@$$CBIK@_STL@@@2@@_STL@@KAAAPAU?$_Rb_tree_node@U?$pair@$$CBIK@_STL@@@2@PAU32@@Z
_TEXT	SEGMENT PARA USE32 PUBLIC 'CODE'
_TEXT	ENDS
;	COMDAT ?_S_right@?$_Rb_tree@IU?$pair@$$CBIK@_STL@@U?$_Select1st@U?$pair@$$CBIK@_STL@@@2@U?$less@I@2@V?$allocator@U?$pair@$$CBIK@_STL@@@2@@_STL@@KAAAPAU?$_Rb_tree_node@U?$pair@$$CBIK@_STL@@@2@PAU32@@Z
_TEXT	SEGMENT PARA USE32 PUBLIC 'CODE'
_TEXT	ENDS
;	COMDAT ?_S_key@?$_Rb_tree@IU?$pair@$$CBIK@_STL@@U?$_Select1st@U?$pair@$$CBIK@_STL@@@2@U?$less@I@2@V?$allocator@U?$pair@$$CBIK@_STL@@@2@@_STL@@KAABIPAU?$_Rb_tree_node@U?$pair@$$CBIK@_STL@@@2@@Z
_TEXT	SEGMENT PARA USE32 PUBLIC 'CODE'
_TEXT	ENDS
;	COMDAT ?_S_key@?$_Rb_tree@IU?$pair@$$CBIK@_STL@@U?$_Select1st@U?$pair@$$CBIK@_STL@@@2@U?$less@I@2@V?$allocator@U?$pair@$$CBIK@_STL@@@2@@_STL@@KAABIPAU_Rb_tree_node_base@2@@Z
_TEXT	SEGMENT PARA USE32 PUBLIC 'CODE'
_TEXT	ENDS
;	COMDAT ?begin@?$_Rb_tree@IU?$pair@$$CBIK@_STL@@U?$_Select1st@U?$pair@$$CBIK@_STL@@@2@U?$less@I@2@V?$allocator@U?$pair@$$CBIK@_STL@@@2@@_STL@@QAE?AU?$_Rb_tree_iterator@U?$pair@$$CBIK@_STL@@U?$_Nonconst_traits@U?$pair@$$CBIK@_STL@@@2@@2@XZ
_TEXT	SEGMENT PARA USE32 PUBLIC 'CODE'
_TEXT	ENDS
;	COMDAT ??R?$less@I@_STL@@QBE_NABI0@Z
_TEXT	SEGMENT PARA USE32 PUBLIC 'CODE'
_TEXT	ENDS
;	COMDAT ??F?$_Rb_tree_iterator@U?$pair@$$CBIK@_STL@@U?$_Nonconst_traits@U?$pair@$$CBIK@_STL@@@2@@_STL@@QAEAAU01@XZ
_TEXT	SEGMENT PARA USE32 PUBLIC 'CODE'
_TEXT	ENDS
;	COMDAT ??0?$pair@U?$_Rb_tree_iterator@U?$pair@$$CBIK@_STL@@U?$_Nonconst_traits@U?$pair@$$CBIK@_STL@@@2@@_STL@@_N@_STL@@QAE@ABU?$_Rb_tree_iterator@U?$pair@$$CBIK@_STL@@U?$_Nonconst_traits@U?$pair@$$CBIK@_STL@@@2@@1@AB_N@Z
_TEXT	SEGMENT PARA USE32 PUBLIC 'CODE'
_TEXT	ENDS
;	COMDAT ??R?$_Select1st@U?$pair@$$CBIK@_STL@@@_STL@@QBEABIABU?$pair@$$CBIK@1@@Z
_TEXT	SEGMENT PARA USE32 PUBLIC 'CODE'
_TEXT	ENDS
;	COMDAT ?move@?$__char_traits_base@DH@_STL@@SAPADPADPBDI@Z
_TEXT	SEGMENT PARA USE32 PUBLIC 'CODE'
_TEXT	ENDS
;	COMDAT ?_S_value@?$_Rb_tree@IU?$pair@$$CBIK@_STL@@U?$_Select1st@U?$pair@$$CBIK@_STL@@@2@U?$less@I@2@V?$allocator@U?$pair@$$CBIK@_STL@@@2@@_STL@@KAAAU?$pair@$$CBIK@2@PAU?$_Rb_tree_node@U?$pair@$$CBIK@_STL@@@2@@Z
_TEXT	SEGMENT PARA USE32 PUBLIC 'CODE'
_TEXT	ENDS
;	COMDAT ??$_M_range_initialize@PBD@?$basic_string@DV?$char_traits@D@_STL@@V?$allocator@D@2@@_STL@@AAEXPBD0ABUforward_iterator_tag@1@@Z
_TEXT	SEGMENT PARA USE32 PUBLIC 'CODE'
_TEXT	ENDS
;	COMDAT ??$_M_range_initialize@PAD@?$basic_string@DV?$char_traits@D@_STL@@V?$allocator@D@2@@_STL@@AAEXPAD0ABUforward_iterator_tag@1@@Z
_TEXT	SEGMENT PARA USE32 PUBLIC 'CODE'
_TEXT	ENDS
;	COMDAT ?_M_unshift@?$basic_filebuf@DV?$char_traits@D@_STL@@@_STL@@AAE_NXZ
_TEXT	SEGMENT PARA USE32 PUBLIC 'CODE'
_TEXT	ENDS
;	COMDAT ?_M_allocate_buffers@?$basic_filebuf@DV?$char_traits@D@_STL@@@_STL@@AAE_NXZ
_TEXT	SEGMENT PARA USE32 PUBLIC 'CODE'
_TEXT	ENDS
;	COMDAT ??$max@H@_STL@@YAABHABH0@Z
_TEXT	SEGMENT PARA USE32 PUBLIC 'CODE'
_TEXT	ENDS
;	COMDAT ??$use_facet@V?$codecvt@DDH@_STL@@@_STL@@YAABV?$codecvt@DDH@0@ABVlocale@0@@Z
_TEXT	SEGMENT PARA USE32 PUBLIC 'CODE'
_TEXT	ENDS
;	COMDAT ??$append@PAD@?$basic_string@DV?$char_traits@D@_STL@@V?$allocator@D@2@@_STL@@QAEAAV01@PAD0@Z
_TEXT	SEGMENT PARA USE32 PUBLIC 'CODE'
_TEXT	ENDS
;	COMDAT ?_M_insert@?$_Rb_tree@IU?$pair@$$CBIK@_STL@@U?$_Select1st@U?$pair@$$CBIK@_STL@@@2@U?$less@I@2@V?$allocator@U?$pair@$$CBIK@_STL@@@2@@_STL@@AAE?AU?$_Rb_tree_iterator@U?$pair@$$CBIK@_STL@@U?$_Nonconst_traits@U?$pair@$$CBIK@_STL@@@2@@2@PAU_Rb_tree_node_base@2@0ABU?$pair@$$CBIK@2@0@Z
_TEXT	SEGMENT PARA USE32 PUBLIC 'CODE'
_TEXT	ENDS
;	COMDAT ??$_M_find@I@?$_Rb_tree@IU?$pair@$$CBIK@_STL@@U?$_Select1st@U?$pair@$$CBIK@_STL@@@2@U?$less@I@2@V?$allocator@U?$pair@$$CBIK@_STL@@@2@@_STL@@ABEPAU?$_Rb_tree_node@U?$pair@$$CBIK@_STL@@@1@ABI@Z
_TEXT	SEGMENT PARA USE32 PUBLIC 'CODE'
_TEXT	ENDS
;	COMDAT ?_M_create_node@?$_Rb_tree@IU?$pair@$$CBIK@_STL@@U?$_Select1st@U?$pair@$$CBIK@_STL@@@2@U?$less@I@2@V?$allocator@U?$pair@$$CBIK@_STL@@@2@@_STL@@IAEPAU?$_Rb_tree_node@U?$pair@$$CBIK@_STL@@@2@ABU?$pair@$$CBIK@2@@Z
_TEXT	SEGMENT PARA USE32 PUBLIC 'CODE'
_TEXT	ENDS
;	COMDAT ?_S_parent@?$_Rb_tree@IU?$pair@$$CBIK@_STL@@U?$_Select1st@U?$pair@$$CBIK@_STL@@@2@U?$less@I@2@V?$allocator@U?$pair@$$CBIK@_STL@@@2@@_STL@@KAAAPAU?$_Rb_tree_node@U?$pair@$$CBIK@_STL@@@2@PAU32@@Z
_TEXT	SEGMENT PARA USE32 PUBLIC 'CODE'
_TEXT	ENDS
;	COMDAT ??$distance@PBD@_STL@@YAHABQBD0@Z
_TEXT	SEGMENT PARA USE32 PUBLIC 'CODE'
_TEXT	ENDS
;	COMDAT ?_M_allocate_block@?$_String_base@DV?$allocator@D@_STL@@@_STL@@QAEXI@Z
_TEXT	SEGMENT PARA USE32 PUBLIC 'CODE'
_TEXT	ENDS
;	COMDAT ??$distance@PAD@_STL@@YAHABQAD0@Z
_TEXT	SEGMENT PARA USE32 PUBLIC 'CODE'
_TEXT	ENDS
;	COMDAT ??$uninitialized_copy@PADPAD@_STL@@YAPADPAD00@Z
_TEXT	SEGMENT PARA USE32 PUBLIC 'CODE'
_TEXT	ENDS
;	COMDAT ??$_M_append_dispatch@PAD@?$basic_string@DV?$char_traits@D@_STL@@V?$allocator@D@2@@_STL@@AAEAAV01@PAD0ABU__false_type@1@@Z
_TEXT	SEGMENT PARA USE32 PUBLIC 'CODE'
_TEXT	ENDS
;	COMDAT ??$_Construct@U?$pair@$$CBIK@_STL@@U12@@_STL@@YAXPAU?$pair@$$CBIK@0@ABU10@@Z
_TEXT	SEGMENT PARA USE32 PUBLIC 'CODE'
_TEXT	ENDS
;	COMDAT ?max_size@?$_String_base@DV?$allocator@D@_STL@@@_STL@@QBEIXZ
_TEXT	SEGMENT PARA USE32 PUBLIC 'CODE'
_TEXT	ENDS
;	COMDAT ??0?$pair@$$CBIK@_STL@@QAE@ABU01@@Z
_TEXT	SEGMENT PARA USE32 PUBLIC 'CODE'
_TEXT	ENDS
;	COMDAT ??$__distance@PBD@_STL@@YAHABQBD0ABUrandom_access_iterator_tag@0@@Z
_TEXT	SEGMENT PARA USE32 PUBLIC 'CODE'
_TEXT	ENDS
;	COMDAT ?_M_throw_length_error@?$_String_base@DV?$allocator@D@_STL@@@_STL@@QBEXXZ
_TEXT	SEGMENT PARA USE32 PUBLIC 'CODE'
_TEXT	ENDS
;	COMDAT ??$__distance@PAD@_STL@@YAHABQAD0ABUrandom_access_iterator_tag@0@@Z
_TEXT	SEGMENT PARA USE32 PUBLIC 'CODE'
_TEXT	ENDS
;	COMDAT ??$__uninitialized_copy@PADPAD@_STL@@YAPADPAD00ABU__true_type@0@@Z
_TEXT	SEGMENT PARA USE32 PUBLIC 'CODE'
_TEXT	ENDS
;	COMDAT ??$append@PAD@?$basic_string@DV?$char_traits@D@_STL@@V?$allocator@D@2@@_STL@@AAEAAV01@PAD0ABUforward_iterator_tag@1@@Z
_TEXT	SEGMENT PARA USE32 PUBLIC 'CODE'
_TEXT	ENDS
;	COMDAT ?_M_construct_null@?$basic_string@DV?$char_traits@D@_STL@@V?$allocator@D@2@@_STL@@AAEXPAD@Z
_TEXT	SEGMENT PARA USE32 PUBLIC 'CODE'
_TEXT	ENDS
;	COMDAT ?size@?$basic_string@DV?$char_traits@D@_STL@@V?$allocator@D@2@@_STL@@QBEIXZ
_TEXT	SEGMENT PARA USE32 PUBLIC 'CODE'
_TEXT	ENDS
;	COMDAT ?max_size@?$basic_string@DV?$char_traits@D@_STL@@V?$allocator@D@2@@_STL@@QBEIXZ
_TEXT	SEGMENT PARA USE32 PUBLIC 'CODE'
_TEXT	ENDS
;	COMDAT ?capacity@?$basic_string@DV?$char_traits@D@_STL@@V?$allocator@D@2@@_STL@@QBEIXZ
_TEXT	SEGMENT PARA USE32 PUBLIC 'CODE'
_TEXT	ENDS
;	COMDAT ?_Ret@?$_BothPtrType@PADPAD@_STL@@SA?AU__true_type@2@XZ
_TEXT	SEGMENT PARA USE32 PUBLIC 'CODE'
_TEXT	ENDS
;	COMDAT ?_M_construct_null_aux@?$basic_string@DV?$char_traits@D@_STL@@V?$allocator@D@2@@_STL@@AAEXPADABU__true_type@2@@Z
_TEXT	SEGMENT PARA USE32 PUBLIC 'CODE'
_TEXT	ENDS
;	COMDAT ??$__copy_aux@PADPAD@_STL@@YAPADPAD00ABU__true_type@0@@Z
_TEXT	SEGMENT PARA USE32 PUBLIC 'CODE'
_TEXT	ENDS
;	COMDAT ??$max@I@_STL@@YAABIABI0@Z
_TEXT	SEGMENT PARA USE32 PUBLIC 'CODE'
_TEXT	ENDS
;	COMDAT ?_Ret@?$_OKToMemCpy@DD@_STL@@SA?AU__true_type@2@XZ
_TEXT	SEGMENT PARA USE32 PUBLIC 'CODE'
_TEXT	ENDS
;	COMDAT ??$_IsOKToMemCpy@DD@_STL@@YA?AU?$_OKToMemCpy@DD@0@PAD0@Z
_TEXT	SEGMENT PARA USE32 PUBLIC 'CODE'
_TEXT	ENDS
;	COMDAT ??$__copy_ptrs@PADPAD@_STL@@YAPADPAD00ABU__true_type@0@@Z
_TEXT	SEGMENT PARA USE32 PUBLIC 'CODE'
_TEXT	ENDS
;	COMDAT ?__copy_trivial@_STL@@YAPAXPBX0PAX@Z
_TEXT	SEGMENT PARA USE32 PUBLIC 'CODE'
_TEXT	ENDS
;	COMDAT ?_M_deallocate_block@?$_String_base@DV?$allocator@D@_STL@@@_STL@@QAEXXZ
_TEXT	SEGMENT PARA USE32 PUBLIC 'CODE'
_TEXT	ENDS
;	COMDAT ?deallocate@?$allocator@D@_STL@@QAEXPADI@Z
_TEXT	SEGMENT PARA USE32 PUBLIC 'CODE'
_TEXT	ENDS
;	COMDAT ??3@YAXPAX0@Z
_TEXT	SEGMENT PARA USE32 PUBLIC 'CODE'
_TEXT	ENDS
;	COMDAT ??2@YAPAXIPAX@Z
_TEXT	SEGMENT PARA USE32 PUBLIC 'CODE'
_TEXT	ENDS
;	COMDAT ?__page_size@_Filebuf_base@_STL@@SAIXZ
_TEXT	SEGMENT PARA USE32 PUBLIC 'CODE'
_TEXT	ENDS
;	COMDAT ?_M_write@?$basic_filebuf@DV?$char_traits@D@_STL@@@_STL@@QAE_NPADH@Z
_TEXT	SEGMENT PARA USE32 PUBLIC 'CODE'
_TEXT	ENDS
;	COMDAT ?unshift@?$codecvt@DDH@_STL@@QBE?AW4result@codecvt_base@2@AAHPAD1AAPAD@Z
_TEXT	SEGMENT PARA USE32 PUBLIC 'CODE'
_TEXT	ENDS
;	COMDAT ?uninitialized_copy@_STL@@YAPADPBD0PAD@Z
_TEXT	SEGMENT PARA USE32 PUBLIC 'CODE'
_TEXT	ENDS
;	COMDAT ?_Destroy@_STL@@YAXPAD0@Z
_TEXT	SEGMENT PARA USE32 PUBLIC 'CODE'
_TEXT	ENDS
;	COMDAT ??1?$basic_string@DV?$char_traits@D@_STL@@V?$allocator@D@2@@_STL@@QAE@XZ
_TEXT	SEGMENT PARA USE32 PUBLIC 'CODE'
_TEXT	ENDS
;	COMDAT ??1?$_String_base@DV?$allocator@D@_STL@@@_STL@@QAE@XZ
_TEXT	SEGMENT PARA USE32 PUBLIC 'CODE'
_TEXT	ENDS
;	COMDAT ?assign@?$char_traits@D@_STL@@SAXAADABD@Z
_TEXT	SEGMENT PARA USE32 PUBLIC 'CODE'
_TEXT	ENDS
;	COMDAT ?always_noconv@?$codecvt@DDH@_STL@@QBE_NXZ
_TEXT	SEGMENT PARA USE32 PUBLIC 'CODE'
_TEXT	ENDS
;	COMDAT ?encoding@?$codecvt@DDH@_STL@@QBEHXZ
_TEXT	SEGMENT PARA USE32 PUBLIC 'CODE'
_TEXT	ENDS
;	COMDAT ?max_length@?$codecvt@DDH@_STL@@QBEHXZ
_TEXT	SEGMENT PARA USE32 PUBLIC 'CODE'
_TEXT	ENDS
;	COMDAT ?__o_mode@_Filebuf_base@_STL@@QBEHXZ
_TEXT	SEGMENT PARA USE32 PUBLIC 'CODE'
_TEXT	ENDS
;	COMDAT ?deallocate@?$__node_alloc@$00$0A@@_STL@@SAXPAXI@Z
_TEXT	SEGMENT PARA USE32 PUBLIC 'CODE'
_TEXT	ENDS
;	COMDAT ?__stl_delete@_STL@@YAXPAX@Z
_TEXT	SEGMENT PARA USE32 PUBLIC 'CODE'
_TEXT	ENDS
;	COMDAT ?setp@?$basic_streambuf@DV?$char_traits@D@_STL@@@_STL@@IAEXPAD0@Z
_TEXT	SEGMENT PARA USE32 PUBLIC 'CODE'
_TEXT	ENDS
;	COMDAT ?_FILE_O_set@_STL@@YAXPAU_iobuf@@PAD11@Z
_TEXT	SEGMENT PARA USE32 PUBLIC 'CODE'
_TEXT	ENDS
;	COMDAT ?_FILE_I_set@_STL@@YAXPAU_iobuf@@PAD11@Z
_TEXT	SEGMENT PARA USE32 PUBLIC 'CODE'
_TEXT	ENDS
;	COMDAT ?setg@?$basic_streambuf@DV?$char_traits@D@_STL@@@_STL@@IAEXPAD00@Z
_TEXT	SEGMENT PARA USE32 PUBLIC 'CODE'
_TEXT	ENDS
;	COMDAT ?__is_open@_Filebuf_base@_STL@@QBE_NXZ
_TEXT	SEGMENT PARA USE32 PUBLIC 'CODE'
_TEXT	ENDS
;	COMDAT ?allocate@?$__node_alloc@$00$0A@@_STL@@SAPAXI@Z
_TEXT	SEGMENT PARA USE32 PUBLIC 'CODE'
_TEXT	ENDS
;	COMDAT ?__stl_new@_STL@@YAPAXI@Z
_TEXT	SEGMENT PARA USE32 PUBLIC 'CODE'
_TEXT	ENDS
;	COMDAT ??1?$_STLP_alloc_proxy@PADDV?$allocator@D@_STL@@@_STL@@QAE@XZ
_TEXT	SEGMENT PARA USE32 PUBLIC 'CODE'
_TEXT	ENDS
;	COMDAT ??1?$allocator@D@_STL@@QAE@XZ
_TEXT	SEGMENT PARA USE32 PUBLIC 'CODE'
_TEXT	ENDS
;	COMDAT ?eof@?$__char_traits_base@DH@_STL@@SAHXZ
_TEXT	SEGMENT PARA USE32 PUBLIC 'CODE'
_TEXT	ENDS
;	COMDAT ??8_Rb_tree_base_iterator@_STL@@QBE_NABU01@@Z
_TEXT	SEGMENT PARA USE32 PUBLIC 'CODE'
_TEXT	ENDS
sxdata	SEGMENT DWORD USE32 'SXDATA'
sxdata	ENDS
FLAT	GROUP _DATA, CONST, _BSS
	ASSUME	CS: FLAT, DS: FLAT, SS: FLAT
endif

INCLUDELIB LIBCMT
INCLUDELIB OLDNAMES

PUBLIC	?g_pTimeItemManager@@3PAVMTimeItemManager@@A	; g_pTimeItemManager
_BSS	SEGMENT
?g_pTimeItemManager@@3PAVMTimeItemManager@@A DD 01H DUP (?) ; g_pTimeItemManager
_BSS	ENDS
PUBLIC	??2@YAPAXIPAX@Z					; operator new
; Function compile flags: /Ogsy
; File c:\program files\microsoft visual studio .net 2003\vc7\include\new
;	COMDAT ??2@YAPAXIPAX@Z
_TEXT	SEGMENT
___formal$ = 8						; size = 4
__Where$ = 12						; size = 4
??2@YAPAXIPAX@Z PROC NEAR				; operator new, COMDAT

; 64   : 	return (_Where);

  00000	8b 44 24 08	 mov	 eax, DWORD PTR __Where$[esp-4]

; 65   : 	}

  00004	c3		 ret	 0
??2@YAPAXIPAX@Z ENDP					; operator new
_TEXT	ENDS
PUBLIC	??3@YAXPAX0@Z					; operator delete
; Function compile flags: /Ogsy
;	COMDAT ??3@YAXPAX0@Z
_TEXT	SEGMENT
___formal$ = 8						; size = 4
___formal$ = 12						; size = 4
??3@YAXPAX0@Z PROC NEAR					; operator delete, COMDAT

; 69   : 	}

  00000	c3		 ret	 0
??3@YAXPAX0@Z ENDP					; operator delete
_TEXT	ENDS
PUBLIC	?__stl_new@_STL@@YAPAXI@Z			; _STL::__stl_new
EXTRN	??2@YAPAXI@Z:NEAR				; operator new
; Function compile flags: /Ogsy
; File c:\stlport-4.6.1\stlport\stl\_new.h
;	COMDAT ?__stl_new@_STL@@YAPAXI@Z
_TEXT	SEGMENT
___n$ = 8						; size = 4
?__stl_new@_STL@@YAPAXI@Z PROC NEAR			; _STL::__stl_new, COMDAT

; 86   : inline void*  _STLP_CALL __stl_new(size_t __n)   { _STLP_CHECK_NULL_ALLOC(::operator _STLP_NEW(__n)); }

  00000	e9 00 00 00 00	 jmp	 ??2@YAPAXI@Z		; operator new
?__stl_new@_STL@@YAPAXI@Z ENDP				; _STL::__stl_new
_TEXT	ENDS
PUBLIC	?__stl_delete@_STL@@YAXPAX@Z			; _STL::__stl_delete
EXTRN	??3@YAXPAX@Z:NEAR				; operator delete
; Function compile flags: /Ogsy
;	COMDAT ?__stl_delete@_STL@@YAXPAX@Z
_TEXT	SEGMENT
___p$ = 8						; size = 4
?__stl_delete@_STL@@YAXPAX@Z PROC NEAR			; _STL::__stl_delete, COMDAT

; 87   : inline void   _STLP_CALL __stl_delete(void* __p) { ::operator delete(__p); }

  00000	e9 00 00 00 00	 jmp	 ??3@YAXPAX@Z		; operator delete
?__stl_delete@_STL@@YAXPAX@Z ENDP			; _STL::__stl_delete
_TEXT	ENDS
PUBLIC	??0?$_Rb_tree_iterator@U?$pair@$$CBIK@_STL@@U?$_Const_traits@U?$pair@$$CBIK@_STL@@@2@@_STL@@QAE@ABU?$_Rb_tree_iterator@U?$pair@$$CBIK@_STL@@U?$_Nonconst_traits@U?$pair@$$CBIK@_STL@@@2@@1@@Z ; _STL::_Rb_tree_iterator<_STL::pair<unsigned int const ,unsigned long>,_STL::_Const_traits<_STL::pair<unsigned int const ,unsigned long> > >::_Rb_tree_iterator<_STL::pair<unsigned int const ,unsigned long>,_STL::_Const_traits<_STL::pair<unsigned int const ,unsigned long> > >
; Function compile flags: /Ogsy
; File c:\stlport-4.6.1\stlport\stl\_tree.h
;	COMDAT ??0?$_Rb_tree_iterator@U?$pair@$$CBIK@_STL@@U?$_Const_traits@U?$pair@$$CBIK@_STL@@@2@@_STL@@QAE@ABU?$_Rb_tree_iterator@U?$pair@$$CBIK@_STL@@U?$_Nonconst_traits@U?$pair@$$CBIK@_STL@@@2@@1@@Z
_TEXT	SEGMENT
___it$ = 8						; size = 4
??0?$_Rb_tree_iterator@U?$pair@$$CBIK@_STL@@U?$_Const_traits@U?$pair@$$CBIK@_STL@@@2@@_STL@@QAE@ABU?$_Rb_tree_iterator@U?$pair@$$CBIK@_STL@@U?$_Nonconst_traits@U?$pair@$$CBIK@_STL@@@2@@1@@Z PROC NEAR ; _STL::_Rb_tree_iterator<_STL::pair<unsigned int const ,unsigned long>,_STL::_Const_traits<_STL::pair<unsigned int const ,unsigned long> > >::_Rb_tree_iterator<_STL::pair<unsigned int const ,unsigned long>,_STL::_Const_traits<_STL::pair<unsigned int const ,unsigned long> > >, COMDAT
; _this$ = ecx

; 165  :   _Rb_tree_iterator(const _Rb_tree_iterator<_Value, 

  00000	8b c1		 mov	 eax, ecx
  00002	8b 4c 24 04	 mov	 ecx, DWORD PTR ___it$[esp-4]
  00006	8b 09		 mov	 ecx, DWORD PTR [ecx]
  00008	89 08		 mov	 DWORD PTR [eax], ecx

; 166  :                     _Nonconst_traits<_Value> >& __it) { _M_node = __it._M_node; }

  0000a	c2 04 00	 ret	 4
??0?$_Rb_tree_iterator@U?$pair@$$CBIK@_STL@@U?$_Const_traits@U?$pair@$$CBIK@_STL@@@2@@_STL@@QAE@ABU?$_Rb_tree_iterator@U?$pair@$$CBIK@_STL@@U?$_Nonconst_traits@U?$pair@$$CBIK@_STL@@@2@@1@@Z ENDP ; _STL::_Rb_tree_iterator<_STL::pair<unsigned int const ,unsigned long>,_STL::_Const_traits<_STL::pair<unsigned int const ,unsigned long> > >::_Rb_tree_iterator<_STL::pair<unsigned int const ,unsigned long>,_STL::_Const_traits<_STL::pair<unsigned int const ,unsigned long> > >
_TEXT	ENDS
PUBLIC	??D?$_Rb_tree_iterator@U?$pair@$$CBIK@_STL@@U?$_Const_traits@U?$pair@$$CBIK@_STL@@@2@@_STL@@QBEABU?$pair@$$CBIK@1@XZ ; _STL::_Rb_tree_iterator<_STL::pair<unsigned int const ,unsigned long>,_STL::_Const_traits<_STL::pair<unsigned int const ,unsigned long> > >::operator*
; Function compile flags: /Ogsy
;	COMDAT ??D?$_Rb_tree_iterator@U?$pair@$$CBIK@_STL@@U?$_Const_traits@U?$pair@$$CBIK@_STL@@@2@@_STL@@QBEABU?$pair@$$CBIK@1@XZ
_TEXT	SEGMENT
??D?$_Rb_tree_iterator@U?$pair@$$CBIK@_STL@@U?$_Const_traits@U?$pair@$$CBIK@_STL@@@2@@_STL@@QBEABU?$pair@$$CBIK@1@XZ PROC NEAR ; _STL::_Rb_tree_iterator<_STL::pair<unsigned int const ,unsigned long>,_STL::_Const_traits<_STL::pair<unsigned int const ,unsigned long> > >::operator*, COMDAT
; _this$ = ecx

; 169  :     return _Link_type(_M_node)->_M_value_field; 

  00000	8b 01		 mov	 eax, DWORD PTR [ecx]
  00002	83 c0 10	 add	 eax, 16			; 00000010H

; 170  :   }

  00005	c3		 ret	 0
??D?$_Rb_tree_iterator@U?$pair@$$CBIK@_STL@@U?$_Const_traits@U?$pair@$$CBIK@_STL@@@2@@_STL@@QBEABU?$pair@$$CBIK@1@XZ ENDP ; _STL::_Rb_tree_iterator<_STL::pair<unsigned int const ,unsigned long>,_STL::_Const_traits<_STL::pair<unsigned int const ,unsigned long> > >::operator*
_TEXT	ENDS
PUBLIC	??0?$_Rb_tree_iterator@U?$pair@$$CBIK@_STL@@U?$_Nonconst_traits@U?$pair@$$CBIK@_STL@@@2@@_STL@@QAE@ABU01@@Z ; _STL::_Rb_tree_iterator<_STL::pair<unsigned int const ,unsigned long>,_STL::_Nonconst_traits<_STL::pair<unsigned int const ,unsigned long> > >::_Rb_tree_iterator<_STL::pair<unsigned int const ,unsigned long>,_STL::_Nonconst_traits<_STL::pair<unsigned int const ,unsigned long> > >
; Function compile flags: /Ogsy
;	COMDAT ??0?$_Rb_tree_iterator@U?$pair@$$CBIK@_STL@@U?$_Nonconst_traits@U?$pair@$$CBIK@_STL@@@2@@_STL@@QAE@ABU01@@Z
_TEXT	SEGMENT
___it$ = 8						; size = 4
??0?$_Rb_tree_iterator@U?$pair@$$CBIK@_STL@@U?$_Nonconst_traits@U?$pair@$$CBIK@_STL@@@2@@_STL@@QAE@ABU01@@Z PROC NEAR ; _STL::_Rb_tree_iterator<_STL::pair<unsigned int const ,unsigned long>,_STL::_Nonconst_traits<_STL::pair<unsigned int const ,unsigned long> > >::_Rb_tree_iterator<_STL::pair<unsigned int const ,unsigned long>,_STL::_Nonconst_traits<_STL::pair<unsigned int const ,unsigned long> > >, COMDAT
; _this$ = ecx

; 165  :   _Rb_tree_iterator(const _Rb_tree_iterator<_Value, 

  00000	8b c1		 mov	 eax, ecx
  00002	8b 4c 24 04	 mov	 ecx, DWORD PTR ___it$[esp-4]
  00006	8b 09		 mov	 ecx, DWORD PTR [ecx]
  00008	89 08		 mov	 DWORD PTR [eax], ecx

; 166  :                     _Nonconst_traits<_Value> >& __it) { _M_node = __it._M_node; }

  0000a	c2 04 00	 ret	 4
??0?$_Rb_tree_iterator@U?$pair@$$CBIK@_STL@@U?$_Nonconst_traits@U?$pair@$$CBIK@_STL@@@2@@_STL@@QAE@ABU01@@Z ENDP ; _STL::_Rb_tree_iterator<_STL::pair<unsigned int const ,unsigned long>,_STL::_Nonconst_traits<_STL::pair<unsigned int const ,unsigned long> > >::_Rb_tree_iterator<_STL::pair<unsigned int const ,unsigned long>,_STL::_Nonconst_traits<_STL::pair<unsigned int const ,unsigned long> > >
_TEXT	ENDS
PUBLIC	??0?$pair@$$CBIK@_STL@@QAE@ABIABK@Z		; _STL::pair<unsigned int const ,unsigned long>::pair<unsigned int const ,unsigned long>
; Function compile flags: /Ogsy
; File c:\stlport-4.6.1\stlport\stl\_pair.h
;	COMDAT ??0?$pair@$$CBIK@_STL@@QAE@ABIABK@Z
_TEXT	SEGMENT
___a$ = 8						; size = 4
___b$ = 12						; size = 4
??0?$pair@$$CBIK@_STL@@QAE@ABIABK@Z PROC NEAR		; _STL::pair<unsigned int const ,unsigned long>::pair<unsigned int const ,unsigned long>, COMDAT
; _this$ = ecx

; 48   :   pair(const _T1& __a, const _T2& __b) : first(__a), second(__b) {}

  00000	8b c1		 mov	 eax, ecx
  00002	8b 4c 24 04	 mov	 ecx, DWORD PTR ___a$[esp-4]
  00006	8b 09		 mov	 ecx, DWORD PTR [ecx]
  00008	89 08		 mov	 DWORD PTR [eax], ecx
  0000a	8b 4c 24 08	 mov	 ecx, DWORD PTR ___b$[esp-4]
  0000e	8b 09		 mov	 ecx, DWORD PTR [ecx]
  00010	89 48 04	 mov	 DWORD PTR [eax+4], ecx
  00013	c2 08 00	 ret	 8
??0?$pair@$$CBIK@_STL@@QAE@ABIABK@Z ENDP		; _STL::pair<unsigned int const ,unsigned long>::pair<unsigned int const ,unsigned long>
_TEXT	ENDS
PUBLIC	?empty@?$_Rb_tree@IU?$pair@$$CBIK@_STL@@U?$_Select1st@U?$pair@$$CBIK@_STL@@@2@U?$less@I@2@V?$allocator@U?$pair@$$CBIK@_STL@@@2@@_STL@@QBE_NXZ ; _STL::_Rb_tree<unsigned int,_STL::pair<unsigned int const ,unsigned long>,_STL::_Select1st<_STL::pair<unsigned int const ,unsigned long> >,_STL::less<unsigned int>,_STL::allocator<_STL::pair<unsigned int const ,unsigned long> > >::empty
; Function compile flags: /Ogsy
; File c:\stlport-4.6.1\stlport\stl\_tree.h
;	COMDAT ?empty@?$_Rb_tree@IU?$pair@$$CBIK@_STL@@U?$_Select1st@U?$pair@$$CBIK@_STL@@@2@U?$less@I@2@V?$allocator@U?$pair@$$CBIK@_STL@@@2@@_STL@@QBE_NXZ
_TEXT	SEGMENT
?empty@?$_Rb_tree@IU?$pair@$$CBIK@_STL@@U?$_Select1st@U?$pair@$$CBIK@_STL@@@2@U?$less@I@2@V?$allocator@U?$pair@$$CBIK@_STL@@@2@@_STL@@QBE_NXZ PROC NEAR ; _STL::_Rb_tree<unsigned int,_STL::pair<unsigned int const ,unsigned long>,_STL::_Select1st<_STL::pair<unsigned int const ,unsigned long> >,_STL::less<unsigned int>,_STL::allocator<_STL::pair<unsigned int const ,unsigned long> > >::empty, COMDAT
; _this$ = ecx

; 370  :   bool empty() const { return _M_node_count == 0; }

  00000	33 c0		 xor	 eax, eax
  00002	39 41 04	 cmp	 DWORD PTR [ecx+4], eax
  00005	0f 94 c0	 sete	 al
  00008	c3		 ret	 0
?empty@?$_Rb_tree@IU?$pair@$$CBIK@_STL@@U?$_Select1st@U?$pair@$$CBIK@_STL@@@2@U?$less@I@2@V?$allocator@U?$pair@$$CBIK@_STL@@@2@@_STL@@QBE_NXZ ENDP ; _STL::_Rb_tree<unsigned int,_STL::pair<unsigned int const ,unsigned long>,_STL::_Select1st<_STL::pair<unsigned int const ,unsigned long> >,_STL::less<unsigned int>,_STL::allocator<_STL::pair<unsigned int const ,unsigned long> > >::empty
_TEXT	ENDS
PUBLIC	??0?$allocator@U?$pair@$$CBIK@_STL@@@_STL@@QAE@XZ ; _STL::allocator<_STL::pair<unsigned int const ,unsigned long> >::allocator<_STL::pair<unsigned int const ,unsigned long> >
; Function compile flags: /Ogsy
; File c:\stlport-4.6.1\stlport\stl\_alloc.h
;	COMDAT ??0?$allocator@U?$pair@$$CBIK@_STL@@@_STL@@QAE@XZ
_TEXT	SEGMENT
??0?$allocator@U?$pair@$$CBIK@_STL@@@_STL@@QAE@XZ PROC NEAR ; _STL::allocator<_STL::pair<unsigned int const ,unsigned long> >::allocator<_STL::pair<unsigned int const ,unsigned long> >, COMDAT
; _this$ = ecx

; 345  :   allocator() _STLP_NOTHROW {}

  00000	8b c1		 mov	 eax, ecx
  00002	c3		 ret	 0
??0?$allocator@U?$pair@$$CBIK@_STL@@@_STL@@QAE@XZ ENDP	; _STL::allocator<_STL::pair<unsigned int const ,unsigned long> >::allocator<_STL::pair<unsigned int const ,unsigned long> >
_TEXT	ENDS
PUBLIC	??1?$allocator@U?$pair@$$CBIK@_STL@@@_STL@@QAE@XZ ; _STL::allocator<_STL::pair<unsigned int const ,unsigned long> >::~allocator<_STL::pair<unsigned int const ,unsigned long> >
; Function compile flags: /Ogsy
;	COMDAT ??1?$allocator@U?$pair@$$CBIK@_STL@@@_STL@@QAE@XZ
_TEXT	SEGMENT
??1?$allocator@U?$pair@$$CBIK@_STL@@@_STL@@QAE@XZ PROC NEAR ; _STL::allocator<_STL::pair<unsigned int const ,unsigned long> >::~allocator<_STL::pair<unsigned int const ,unsigned long> >, COMDAT
; _this$ = ecx

; 350  :   ~allocator() _STLP_NOTHROW {}

  00000	c3		 ret	 0
??1?$allocator@U?$pair@$$CBIK@_STL@@@_STL@@QAE@XZ ENDP	; _STL::allocator<_STL::pair<unsigned int const ,unsigned long> >::~allocator<_STL::pair<unsigned int const ,unsigned long> >
_TEXT	ENDS
PUBLIC	?_M_root@?$_Rb_tree@IU?$pair@$$CBIK@_STL@@U?$_Select1st@U?$pair@$$CBIK@_STL@@@2@U?$less@I@2@V?$allocator@U?$pair@$$CBIK@_STL@@@2@@_STL@@IBEAAPAU?$_Rb_tree_node@U?$pair@$$CBIK@_STL@@@2@XZ ; _STL::_Rb_tree<unsigned int,_STL::pair<unsigned int const ,unsigned long>,_STL::_Select1st<_STL::pair<unsigned int const ,unsigned long> >,_STL::less<unsigned int>,_STL::allocator<_STL::pair<unsigned int const ,unsigned long> > >::_M_root
; Function compile flags: /Ogsy
; File c:\stlport-4.6.1\stlport\stl\_tree.h
;	COMDAT ?_M_root@?$_Rb_tree@IU?$pair@$$CBIK@_STL@@U?$_Select1st@U?$pair@$$CBIK@_STL@@@2@U?$less@I@2@V?$allocator@U?$pair@$$CBIK@_STL@@@2@@_STL@@IBEAAPAU?$_Rb_tree_node@U?$pair@$$CBIK@_STL@@@2@XZ
_TEXT	SEGMENT
?_M_root@?$_Rb_tree@IU?$pair@$$CBIK@_STL@@U?$_Select1st@U?$pair@$$CBIK@_STL@@@2@U?$less@I@2@V?$allocator@U?$pair@$$CBIK@_STL@@@2@@_STL@@IBEAAPAU?$_Rb_tree_node@U?$pair@$$CBIK@_STL@@@2@XZ PROC NEAR ; _STL::_Rb_tree<unsigned int,_STL::pair<unsigned int const ,unsigned long>,_STL::_Select1st<_STL::pair<unsigned int const ,unsigned long> >,_STL::less<unsigned int>,_STL::allocator<_STL::pair<unsigned int const ,unsigned long> > >::_M_root, COMDAT
; _this$ = ecx

; 265  :     { return (_Link_type&) this->_M_header._M_data->_M_parent; }

  00000	8b 01		 mov	 eax, DWORD PTR [ecx]
  00002	83 c0 04	 add	 eax, 4
  00005	c3		 ret	 0
?_M_root@?$_Rb_tree@IU?$pair@$$CBIK@_STL@@U?$_Select1st@U?$pair@$$CBIK@_STL@@@2@U?$less@I@2@V?$allocator@U?$pair@$$CBIK@_STL@@@2@@_STL@@IBEAAPAU?$_Rb_tree_node@U?$pair@$$CBIK@_STL@@@2@XZ ENDP ; _STL::_Rb_tree<unsigned int,_STL::pair<unsigned int const ,unsigned long>,_STL::_Select1st<_STL::pair<unsigned int const ,unsigned long> >,_STL::less<unsigned int>,_STL::allocator<_STL::pair<unsigned int const ,unsigned long> > >::_M_root
_TEXT	ENDS
PUBLIC	?_M_leftmost@?$_Rb_tree@IU?$pair@$$CBIK@_STL@@U?$_Select1st@U?$pair@$$CBIK@_STL@@@2@U?$less@I@2@V?$allocator@U?$pair@$$CBIK@_STL@@@2@@_STL@@IBEAAPAU?$_Rb_tree_node@U?$pair@$$CBIK@_STL@@@2@XZ ; _STL::_Rb_tree<unsigned int,_STL::pair<unsigned int const ,unsigned long>,_STL::_Select1st<_STL::pair<unsigned int const ,unsigned long> >,_STL::less<unsigned int>,_STL::allocator<_STL::pair<unsigned int const ,unsigned long> > >::_M_leftmost
; Function compile flags: /Ogsy
;	COMDAT ?_M_leftmost@?$_Rb_tree@IU?$pair@$$CBIK@_STL@@U?$_Select1st@U?$pair@$$CBIK@_STL@@@2@U?$less@I@2@V?$allocator@U?$pair@$$CBIK@_STL@@@2@@_STL@@IBEAAPAU?$_Rb_tree_node@U?$pair@$$CBIK@_STL@@@2@XZ
_TEXT	SEGMENT
?_M_leftmost@?$_Rb_tree@IU?$pair@$$CBIK@_STL@@U?$_Select1st@U?$pair@$$CBIK@_STL@@@2@U?$less@I@2@V?$allocator@U?$pair@$$CBIK@_STL@@@2@@_STL@@IBEAAPAU?$_Rb_tree_node@U?$pair@$$CBIK@_STL@@@2@XZ PROC NEAR ; _STL::_Rb_tree<unsigned int,_STL::pair<unsigned int const ,unsigned long>,_STL::_Select1st<_STL::pair<unsigned int const ,unsigned long> >,_STL::less<unsigned int>,_STL::allocator<_STL::pair<unsigned int const ,unsigned long> > >::_M_leftmost, COMDAT
; _this$ = ecx

; 267  :     { return (_Link_type&) this->_M_header._M_data->_M_left; }

  00000	8b 01		 mov	 eax, DWORD PTR [ecx]
  00002	83 c0 08	 add	 eax, 8
  00005	c3		 ret	 0
?_M_leftmost@?$_Rb_tree@IU?$pair@$$CBIK@_STL@@U?$_Select1st@U?$pair@$$CBIK@_STL@@@2@U?$less@I@2@V?$allocator@U?$pair@$$CBIK@_STL@@@2@@_STL@@IBEAAPAU?$_Rb_tree_node@U?$pair@$$CBIK@_STL@@@2@XZ ENDP ; _STL::_Rb_tree<unsigned int,_STL::pair<unsigned int const ,unsigned long>,_STL::_Select1st<_STL::pair<unsigned int const ,unsigned long> >,_STL::less<unsigned int>,_STL::allocator<_STL::pair<unsigned int const ,unsigned long> > >::_M_leftmost
_TEXT	ENDS
PUBLIC	?_M_rightmost@?$_Rb_tree@IU?$pair@$$CBIK@_STL@@U?$_Select1st@U?$pair@$$CBIK@_STL@@@2@U?$less@I@2@V?$allocator@U?$pair@$$CBIK@_STL@@@2@@_STL@@IBEAAPAU?$_Rb_tree_node@U?$pair@$$CBIK@_STL@@@2@XZ ; _STL::_Rb_tree<unsigned int,_STL::pair<unsigned int const ,unsigned long>,_STL::_Select1st<_STL::pair<unsigned int const ,unsigned long> >,_STL::less<unsigned int>,_STL::allocator<_STL::pair<unsigned int const ,unsigned long> > >::_M_rightmost
; Function compile flags: /Ogsy
;	COMDAT ?_M_rightmost@?$_Rb_tree@IU?$pair@$$CBIK@_STL@@U?$_Select1st@U?$pair@$$CBIK@_STL@@@2@U?$less@I@2@V?$allocator@U?$pair@$$CBIK@_STL@@@2@@_STL@@IBEAAPAU?$_Rb_tree_node@U?$pair@$$CBIK@_STL@@@2@XZ
_TEXT	SEGMENT
?_M_rightmost@?$_Rb_tree@IU?$pair@$$CBIK@_STL@@U?$_Select1st@U?$pair@$$CBIK@_STL@@@2@U?$less@I@2@V?$allocator@U?$pair@$$CBIK@_STL@@@2@@_STL@@IBEAAPAU?$_Rb_tree_node@U?$pair@$$CBIK@_STL@@@2@XZ PROC NEAR ; _STL::_Rb_tree<unsigned int,_STL::pair<unsigned int const ,unsigned long>,_STL::_Select1st<_STL::pair<unsigned int const ,unsigned long> >,_STL::less<unsigned int>,_STL::allocator<_STL::pair<unsigned int const ,unsigned long> > >::_M_rightmost, COMDAT
; _this$ = ecx

; 269  :     { return (_Link_type&) this->_M_header._M_data->_M_right; }

  00000	8b 01		 mov	 eax, DWORD PTR [ecx]
  00002	83 c0 0c	 add	 eax, 12			; 0000000cH
  00005	c3		 ret	 0
?_M_rightmost@?$_Rb_tree@IU?$pair@$$CBIK@_STL@@U?$_Select1st@U?$pair@$$CBIK@_STL@@@2@U?$less@I@2@V?$allocator@U?$pair@$$CBIK@_STL@@@2@@_STL@@IBEAAPAU?$_Rb_tree_node@U?$pair@$$CBIK@_STL@@@2@XZ ENDP ; _STL::_Rb_tree<unsigned int,_STL::pair<unsigned int const ,unsigned long>,_STL::_Select1st<_STL::pair<unsigned int const ,unsigned long> >,_STL::less<unsigned int>,_STL::allocator<_STL::pair<unsigned int const ,unsigned long> > >::_M_rightmost
_TEXT	ENDS
PUBLIC	??1?$allocator@U?$_Rb_tree_node@U?$pair@$$CBIK@_STL@@@_STL@@@_STL@@QAE@XZ ; _STL::allocator<_STL::_Rb_tree_node<_STL::pair<unsigned int const ,unsigned long> > >::~allocator<_STL::_Rb_tree_node<_STL::pair<unsigned int const ,unsigned long> > >
; Function compile flags: /Ogsy
; File c:\stlport-4.6.1\stlport\stl\_alloc.h
;	COMDAT ??1?$allocator@U?$_Rb_tree_node@U?$pair@$$CBIK@_STL@@@_STL@@@_STL@@QAE@XZ
_TEXT	SEGMENT
??1?$allocator@U?$_Rb_tree_node@U?$pair@$$CBIK@_STL@@@_STL@@@_STL@@QAE@XZ PROC NEAR ; _STL::allocator<_STL::_Rb_tree_node<_STL::pair<unsigned int const ,unsigned long> > >::~allocator<_STL::_Rb_tree_node<_STL::pair<unsigned int const ,unsigned long> > >, COMDAT
; _this$ = ecx

; 350  :   ~allocator() _STLP_NOTHROW {}

  00000	c3		 ret	 0
??1?$allocator@U?$_Rb_tree_node@U?$pair@$$CBIK@_STL@@@_STL@@@_STL@@QAE@XZ ENDP ; _STL::allocator<_STL::_Rb_tree_node<_STL::pair<unsigned int const ,unsigned long> > >::~allocator<_STL::_Rb_tree_node<_STL::pair<unsigned int const ,unsigned long> > >
_TEXT	ENDS
PUBLIC	??0?$_Rb_tree_iterator@U?$pair@$$CBIK@_STL@@U?$_Nonconst_traits@U?$pair@$$CBIK@_STL@@@2@@_STL@@QAE@PAU?$_Rb_tree_node@U?$pair@$$CBIK@_STL@@@1@@Z ; _STL::_Rb_tree_iterator<_STL::pair<unsigned int const ,unsigned long>,_STL::_Nonconst_traits<_STL::pair<unsigned int const ,unsigned long> > >::_Rb_tree_iterator<_STL::pair<unsigned int const ,unsigned long>,_STL::_Nonconst_traits<_STL::pair<unsigned int const ,unsigned long> > >
; Function compile flags: /Ogsy
; File c:\stlport-4.6.1\stlport\stl\_tree.h
;	COMDAT ??0?$_Rb_tree_iterator@U?$pair@$$CBIK@_STL@@U?$_Nonconst_traits@U?$pair@$$CBIK@_STL@@@2@@_STL@@QAE@PAU?$_Rb_tree_node@U?$pair@$$CBIK@_STL@@@1@@Z
_TEXT	SEGMENT
___x$ = 8						; size = 4
??0?$_Rb_tree_iterator@U?$pair@$$CBIK@_STL@@U?$_Nonconst_traits@U?$pair@$$CBIK@_STL@@@2@@_STL@@QAE@PAU?$_Rb_tree_node@U?$pair@$$CBIK@_STL@@@1@@Z PROC NEAR ; _STL::_Rb_tree_iterator<_STL::pair<unsigned int const ,unsigned long>,_STL::_Nonconst_traits<_STL::pair<unsigned int const ,unsigned long> > >::_Rb_tree_iterator<_STL::pair<unsigned int const ,unsigned long>,_STL::_Nonconst_traits<_STL::pair<unsigned int const ,unsigned long> > >, COMDAT
; _this$ = ecx

; 164  :   _Rb_tree_iterator(_Link_type __x) { _M_node = __x; }

  00000	8b c1		 mov	 eax, ecx
  00002	8b 4c 24 04	 mov	 ecx, DWORD PTR ___x$[esp-4]
  00006	89 08		 mov	 DWORD PTR [eax], ecx
  00008	c2 04 00	 ret	 4
??0?$_Rb_tree_iterator@U?$pair@$$CBIK@_STL@@U?$_Nonconst_traits@U?$pair@$$CBIK@_STL@@@2@@_STL@@QAE@PAU?$_Rb_tree_node@U?$pair@$$CBIK@_STL@@@1@@Z ENDP ; _STL::_Rb_tree_iterator<_STL::pair<unsigned int const ,unsigned long>,_STL::_Nonconst_traits<_STL::pair<unsigned int const ,unsigned long> > >::_Rb_tree_iterator<_STL::pair<unsigned int const ,unsigned long>,_STL::_Nonconst_traits<_STL::pair<unsigned int const ,unsigned long> > >
_TEXT	ENDS
PUBLIC	?_S_color@?$_Rb_tree@IU?$pair@$$CBIK@_STL@@U?$_Select1st@U?$pair@$$CBIK@_STL@@@2@U?$less@I@2@V?$allocator@U?$pair@$$CBIK@_STL@@@2@@_STL@@KAAA_NPAU?$_Rb_tree_node@U?$pair@$$CBIK@_STL@@@2@@Z ; _STL::_Rb_tree<unsigned int,_STL::pair<unsigned int const ,unsigned long>,_STL::_Select1st<_STL::pair<unsigned int const ,unsigned long> >,_STL::less<unsigned int>,_STL::allocator<_STL::pair<unsigned int const ,unsigned long> > >::_S_color
; Function compile flags: /Ogsy
;	COMDAT ?_S_color@?$_Rb_tree@IU?$pair@$$CBIK@_STL@@U?$_Select1st@U?$pair@$$CBIK@_STL@@@2@U?$less@I@2@V?$allocator@U?$pair@$$CBIK@_STL@@@2@@_STL@@KAAA_NPAU?$_Rb_tree_node@U?$pair@$$CBIK@_STL@@@2@@Z
_TEXT	SEGMENT
___x$ = 8						; size = 4
?_S_color@?$_Rb_tree@IU?$pair@$$CBIK@_STL@@U?$_Select1st@U?$pair@$$CBIK@_STL@@@2@U?$less@I@2@V?$allocator@U?$pair@$$CBIK@_STL@@@2@@_STL@@KAAA_NPAU?$_Rb_tree_node@U?$pair@$$CBIK@_STL@@@2@@Z PROC NEAR ; _STL::_Rb_tree<unsigned int,_STL::pair<unsigned int const ,unsigned long>,_STL::_Select1st<_STL::pair<unsigned int const ,unsigned long> >,_STL::less<unsigned int>,_STL::allocator<_STL::pair<unsigned int const ,unsigned long> > >::_S_color, COMDAT

; 282  :     { return (_Color_type&)(__x->_M_color); }

  00000	8b 44 24 04	 mov	 eax, DWORD PTR ___x$[esp-4]
  00004	c3		 ret	 0
?_S_color@?$_Rb_tree@IU?$pair@$$CBIK@_STL@@U?$_Select1st@U?$pair@$$CBIK@_STL@@@2@U?$less@I@2@V?$allocator@U?$pair@$$CBIK@_STL@@@2@@_STL@@KAAA_NPAU?$_Rb_tree_node@U?$pair@$$CBIK@_STL@@@2@@Z ENDP ; _STL::_Rb_tree<unsigned int,_STL::pair<unsigned int const ,unsigned long>,_STL::_Select1st<_STL::pair<unsigned int const ,unsigned long> >,_STL::less<unsigned int>,_STL::allocator<_STL::pair<unsigned int const ,unsigned long> > >::_S_color
_TEXT	ENDS
PUBLIC	??0?$allocator@U?$_Rb_tree_node@U?$pair@$$CBIK@_STL@@@_STL@@@_STL@@QAE@ABV01@@Z ; _STL::allocator<_STL::_Rb_tree_node<_STL::pair<unsigned int const ,unsigned long> > >::allocator<_STL::_Rb_tree_node<_STL::pair<unsigned int const ,unsigned long> > >
; Function compile flags: /Ogsy
; File c:\stlport-4.6.1\stlport\stl\_alloc.h
;	COMDAT ??0?$allocator@U?$_Rb_tree_node@U?$pair@$$CBIK@_STL@@@_STL@@@_STL@@QAE@ABV01@@Z
_TEXT	SEGMENT
___formal$ = 8						; size = 4
??0?$allocator@U?$_Rb_tree_node@U?$pair@$$CBIK@_STL@@@_STL@@@_STL@@QAE@ABV01@@Z PROC NEAR ; _STL::allocator<_STL::_Rb_tree_node<_STL::pair<unsigned int const ,unsigned long> > >::allocator<_STL::_Rb_tree_node<_STL::pair<unsigned int const ,unsigned long> > >, COMDAT
; _this$ = ecx

; 349  :   allocator(const allocator<_Tp>&) _STLP_NOTHROW {}

  00000	8b c1		 mov	 eax, ecx
  00002	c2 04 00	 ret	 4
??0?$allocator@U?$_Rb_tree_node@U?$pair@$$CBIK@_STL@@@_STL@@@_STL@@QAE@ABV01@@Z ENDP ; _STL::allocator<_STL::_Rb_tree_node<_STL::pair<unsigned int const ,unsigned long> > >::allocator<_STL::_Rb_tree_node<_STL::pair<unsigned int const ,unsigned long> > >
_TEXT	ENDS
PUBLIC	??$_Destroy@U?$pair@$$CBIK@_STL@@@_STL@@YAXPAU?$pair@$$CBIK@0@@Z ; _STL::_Destroy<_STL::pair<unsigned int const ,unsigned long> >
; Function compile flags: /Ogsy
; File c:\stlport-4.6.1\stlport\stl\_construct.h
;	COMDAT ??$_Destroy@U?$pair@$$CBIK@_STL@@@_STL@@YAXPAU?$pair@$$CBIK@0@@Z
_TEXT	SEGMENT
___pointer$ = 8						; size = 4
??$_Destroy@U?$pair@$$CBIK@_STL@@@_STL@@YAXPAU?$pair@$$CBIK@0@@Z PROC NEAR ; _STL::_Destroy<_STL::pair<unsigned int const ,unsigned long> >, COMDAT

; 57   : # if _MSC_VER >= 1010
; 58   :   __pointer;
; 59   : # endif	// _MSC_VER >= 1000
; 60   : # ifdef _STLP_TRIVIAL_DESTRUCTOR_BUG
; 61   :   typedef typename __type_traits<_Tp>::has_trivial_destructor _Trivial_destructor;
; 62   :   __destroy_aux(__pointer, _Trivial_destructor());
; 63   : # else
; 64   : #  if ( defined (__BORLANDC__) && ( __BORLANDC__ < 0x500 ) )
; 65   :     __pointer->_Tp::~_Tp();
; 66   : #  else
; 67   :     __pointer->~_Tp();
; 68   : #  endif
; 69   : # endif
; 70   : # ifdef _STLP_DEBUG_UNINITIALIZED
; 71   : 	memset((char*)__pointer, _STLP_SHRED_BYTE, sizeof(_Tp));
; 72   : # endif
; 73   : }

  00000	c3		 ret	 0
??$_Destroy@U?$pair@$$CBIK@_STL@@@_STL@@YAXPAU?$pair@$$CBIK@0@@Z ENDP ; _STL::_Destroy<_STL::pair<unsigned int const ,unsigned long> >
_TEXT	ENDS
PUBLIC	??$?0U?$pair@$$CBIK@_STL@@@?$allocator@U?$_Rb_tree_node@U?$pair@$$CBIK@_STL@@@_STL@@@_STL@@QAE@ABV?$allocator@U?$pair@$$CBIK@_STL@@@1@@Z ; _STL::allocator<_STL::_Rb_tree_node<_STL::pair<unsigned int const ,unsigned long> > >::allocator<_STL::_Rb_tree_node<_STL::pair<unsigned int const ,unsigned long> > ><_STL::pair<unsigned int const ,unsigned long> >
; Function compile flags: /Ogsy
; File c:\stlport-4.6.1\stlport\stl\_alloc.h
;	COMDAT ??$?0U?$pair@$$CBIK@_STL@@@?$allocator@U?$_Rb_tree_node@U?$pair@$$CBIK@_STL@@@_STL@@@_STL@@QAE@ABV?$allocator@U?$pair@$$CBIK@_STL@@@1@@Z
_TEXT	SEGMENT
___formal$ = 8						; size = 4
??$?0U?$pair@$$CBIK@_STL@@@?$allocator@U?$_Rb_tree_node@U?$pair@$$CBIK@_STL@@@_STL@@@_STL@@QAE@ABV?$allocator@U?$pair@$$CBIK@_STL@@@1@@Z PROC NEAR ; _STL::allocator<_STL::_Rb_tree_node<_STL::pair<unsigned int const ,unsigned long> > >::allocator<_STL::_Rb_tree_node<_STL::pair<unsigned int const ,unsigned long> > ><_STL::pair<unsigned int const ,unsigned long> >, COMDAT
; _this$ = ecx

; 347  :   template <class _Tp1> allocator(const allocator<_Tp1>&) _STLP_NOTHROW {}

  00000	8b c1		 mov	 eax, ecx
  00002	c2 04 00	 ret	 4
??$?0U?$pair@$$CBIK@_STL@@@?$allocator@U?$_Rb_tree_node@U?$pair@$$CBIK@_STL@@@_STL@@@_STL@@QAE@ABV?$allocator@U?$pair@$$CBIK@_STL@@@1@@Z ENDP ; _STL::allocator<_STL::_Rb_tree_node<_STL::pair<unsigned int const ,unsigned long> > >::allocator<_STL::_Rb_tree_node<_STL::pair<unsigned int const ,unsigned long> > ><_STL::pair<unsigned int const ,unsigned long> >
_TEXT	ENDS
PUBLIC	?_S_left@?$_Rb_tree@IU?$pair@$$CBIK@_STL@@U?$_Select1st@U?$pair@$$CBIK@_STL@@@2@U?$less@I@2@V?$allocator@U?$pair@$$CBIK@_STL@@@2@@_STL@@KAAAPAU?$_Rb_tree_node@U?$pair@$$CBIK@_STL@@@2@PAU32@@Z ; _STL::_Rb_tree<unsigned int,_STL::pair<unsigned int const ,unsigned long>,_STL::_Select1st<_STL::pair<unsigned int const ,unsigned long> >,_STL::less<unsigned int>,_STL::allocator<_STL::pair<unsigned int const ,unsigned long> > >::_S_left
; Function compile flags: /Ogsy
; File c:\stlport-4.6.1\stlport\stl\_tree.h
;	COMDAT ?_S_left@?$_Rb_tree@IU?$pair@$$CBIK@_STL@@U?$_Select1st@U?$pair@$$CBIK@_STL@@@2@U?$less@I@2@V?$allocator@U?$pair@$$CBIK@_STL@@@2@@_STL@@KAAAPAU?$_Rb_tree_node@U?$pair@$$CBIK@_STL@@@2@PAU32@@Z
_TEXT	SEGMENT
___x$ = 8						; size = 4
?_S_left@?$_Rb_tree@IU?$pair@$$CBIK@_STL@@U?$_Select1st@U?$pair@$$CBIK@_STL@@@2@U?$less@I@2@V?$allocator@U?$pair@$$CBIK@_STL@@@2@@_STL@@KAAAPAU?$_Rb_tree_node@U?$pair@$$CBIK@_STL@@@2@PAU32@@Z PROC NEAR ; _STL::_Rb_tree<unsigned int,_STL::pair<unsigned int const ,unsigned long>,_STL::_Select1st<_STL::pair<unsigned int const ,unsigned long> >,_STL::less<unsigned int>,_STL::allocator<_STL::pair<unsigned int const ,unsigned long> > >::_S_left, COMDAT

; 272  :     { return (_Link_type&)(__x->_M_left); }

  00000	8b 44 24 04	 mov	 eax, DWORD PTR ___x$[esp-4]
  00004	83 c0 08	 add	 eax, 8
  00007	c3		 ret	 0
?_S_left@?$_Rb_tree@IU?$pair@$$CBIK@_STL@@U?$_Select1st@U?$pair@$$CBIK@_STL@@@2@U?$less@I@2@V?$allocator@U?$pair@$$CBIK@_STL@@@2@@_STL@@KAAAPAU?$_Rb_tree_node@U?$pair@$$CBIK@_STL@@@2@PAU32@@Z ENDP ; _STL::_Rb_tree<unsigned int,_STL::pair<unsigned int const ,unsigned long>,_STL::_Select1st<_STL::pair<unsigned int const ,unsigned long> >,_STL::less<unsigned int>,_STL::allocator<_STL::pair<unsigned int const ,unsigned long> > >::_S_left
_TEXT	ENDS
PUBLIC	?_S_right@?$_Rb_tree@IU?$pair@$$CBIK@_STL@@U?$_Select1st@U?$pair@$$CBIK@_STL@@@2@U?$less@I@2@V?$allocator@U?$pair@$$CBIK@_STL@@@2@@_STL@@KAAAPAU?$_Rb_tree_node@U?$pair@$$CBIK@_STL@@@2@PAU32@@Z ; _STL::_Rb_tree<unsigned int,_STL::pair<unsigned int const ,unsigned long>,_STL::_Select1st<_STL::pair<unsigned int const ,unsigned long> >,_STL::less<unsigned int>,_STL::allocator<_STL::pair<unsigned int const ,unsigned long> > >::_S_right
; Function compile flags: /Ogsy
;	COMDAT ?_S_right@?$_Rb_tree@IU?$pair@$$CBIK@_STL@@U?$_Select1st@U?$pair@$$CBIK@_STL@@@2@U?$less@I@2@V?$allocator@U?$pair@$$CBIK@_STL@@@2@@_STL@@KAAAPAU?$_Rb_tree_node@U?$pair@$$CBIK@_STL@@@2@PAU32@@Z
_TEXT	SEGMENT
___x$ = 8						; size = 4
?_S_right@?$_Rb_tree@IU?$pair@$$CBIK@_STL@@U?$_Select1st@U?$pair@$$CBIK@_STL@@@2@U?$less@I@2@V?$allocator@U?$pair@$$CBIK@_STL@@@2@@_STL@@KAAAPAU?$_Rb_tree_node@U?$pair@$$CBIK@_STL@@@2@PAU32@@Z PROC NEAR ; _STL::_Rb_tree<unsigned int,_STL::pair<unsigned int const ,unsigned long>,_STL::_Select1st<_STL::pair<unsigned int const ,unsigned long> >,_STL::less<unsigned int>,_STL::allocator<_STL::pair<unsigned int const ,unsigned long> > >::_S_right, COMDAT

; 274  :     { return (_Link_type&)(__x->_M_right); }

  00000	8b 44 24 04	 mov	 eax, DWORD PTR ___x$[esp-4]
  00004	83 c0 0c	 add	 eax, 12			; 0000000cH
  00007	c3		 ret	 0
?_S_right@?$_Rb_tree@IU?$pair@$$CBIK@_STL@@U?$_Select1st@U?$pair@$$CBIK@_STL@@@2@U?$less@I@2@V?$allocator@U?$pair@$$CBIK@_STL@@@2@@_STL@@KAAAPAU?$_Rb_tree_node@U?$pair@$$CBIK@_STL@@@2@PAU32@@Z ENDP ; _STL::_Rb_tree<unsigned int,_STL::pair<unsigned int const ,unsigned long>,_STL::_Select1st<_STL::pair<unsigned int const ,unsigned long> >,_STL::less<unsigned int>,_STL::allocator<_STL::pair<unsigned int const ,unsigned long> > >::_S_right
_TEXT	ENDS
PUBLIC	?begin@?$_Rb_tree@IU?$pair@$$CBIK@_STL@@U?$_Select1st@U?$pair@$$CBIK@_STL@@@2@U?$less@I@2@V?$allocator@U?$pair@$$CBIK@_STL@@@2@@_STL@@QAE?AU?$_Rb_tree_iterator@U?$pair@$$CBIK@_STL@@U?$_Nonconst_traits@U?$pair@$$CBIK@_STL@@@2@@2@XZ ; _STL::_Rb_tree<unsigned int,_STL::pair<unsigned int const ,unsigned long>,_STL::_Select1st<_STL::pair<unsigned int const ,unsigned long> >,_STL::less<unsigned int>,_STL::allocator<_STL::pair<unsigned int const ,unsigned long> > >::begin
; Function compile flags: /Ogsy
;	COMDAT ?begin@?$_Rb_tree@IU?$pair@$$CBIK@_STL@@U?$_Select1st@U?$pair@$$CBIK@_STL@@@2@U?$less@I@2@V?$allocator@U?$pair@$$CBIK@_STL@@@2@@_STL@@QAE?AU?$_Rb_tree_iterator@U?$pair@$$CBIK@_STL@@U?$_Nonconst_traits@U?$pair@$$CBIK@_STL@@@2@@2@XZ
_TEXT	SEGMENT
___$ReturnUdt$ = 8					; size = 4
?begin@?$_Rb_tree@IU?$pair@$$CBIK@_STL@@U?$_Select1st@U?$pair@$$CBIK@_STL@@@2@U?$less@I@2@V?$allocator@U?$pair@$$CBIK@_STL@@@2@@_STL@@QAE?AU?$_Rb_tree_iterator@U?$pair@$$CBIK@_STL@@U?$_Nonconst_traits@U?$pair@$$CBIK@_STL@@@2@@2@XZ PROC NEAR ; _STL::_Rb_tree<unsigned int,_STL::pair<unsigned int const ,unsigned long>,_STL::_Select1st<_STL::pair<unsigned int const ,unsigned long> >,_STL::less<unsigned int>,_STL::allocator<_STL::pair<unsigned int const ,unsigned long> > >::begin, COMDAT
; _this$ = ecx

; 357  :   iterator begin() { return iterator(_M_leftmost()); }

  00000	8b 01		 mov	 eax, DWORD PTR [ecx]
  00002	8b 48 08	 mov	 ecx, DWORD PTR [eax+8]
  00005	8b 44 24 04	 mov	 eax, DWORD PTR ___$ReturnUdt$[esp-4]
  00009	89 08		 mov	 DWORD PTR [eax], ecx
  0000b	c2 04 00	 ret	 4
?begin@?$_Rb_tree@IU?$pair@$$CBIK@_STL@@U?$_Select1st@U?$pair@$$CBIK@_STL@@@2@U?$less@I@2@V?$allocator@U?$pair@$$CBIK@_STL@@@2@@_STL@@QAE?AU?$_Rb_tree_iterator@U?$pair@$$CBIK@_STL@@U?$_Nonconst_traits@U?$pair@$$CBIK@_STL@@@2@@2@XZ ENDP ; _STL::_Rb_tree<unsigned int,_STL::pair<unsigned int const ,unsigned long>,_STL::_Select1st<_STL::pair<unsigned int const ,unsigned long> >,_STL::less<unsigned int>,_STL::allocator<_STL::pair<unsigned int const ,unsigned long> > >::begin
_TEXT	ENDS
PUBLIC	??R?$less@I@_STL@@QBE_NABI0@Z			; _STL::less<unsigned int>::operator()
; Function compile flags: /Ogsy
; File c:\stlport-4.6.1\stlport\stl\_function_base.h
;	COMDAT ??R?$less@I@_STL@@QBE_NABI0@Z
_TEXT	SEGMENT
___x$ = 8						; size = 4
___y$ = 12						; size = 4
??R?$less@I@_STL@@QBE_NABI0@Z PROC NEAR			; _STL::less<unsigned int>::operator(), COMDAT
; _this$ = ecx

; 73   :   bool operator()(const _Tp& __x, const _Tp& __y) const { return __x < __y; }

  00000	8b 44 24 04	 mov	 eax, DWORD PTR ___x$[esp-4]
  00004	8b 00		 mov	 eax, DWORD PTR [eax]
  00006	8b 4c 24 08	 mov	 ecx, DWORD PTR ___y$[esp-4]
  0000a	3b 01		 cmp	 eax, DWORD PTR [ecx]
  0000c	1b c0		 sbb	 eax, eax
  0000e	f7 d8		 neg	 eax
  00010	c2 08 00	 ret	 8
??R?$less@I@_STL@@QBE_NABI0@Z ENDP			; _STL::less<unsigned int>::operator()
_TEXT	ENDS
PUBLIC	??F?$_Rb_tree_iterator@U?$pair@$$CBIK@_STL@@U?$_Nonconst_traits@U?$pair@$$CBIK@_STL@@@2@@_STL@@QAEAAU01@XZ ; _STL::_Rb_tree_iterator<_STL::pair<unsigned int const ,unsigned long>,_STL::_Nonconst_traits<_STL::pair<unsigned int const ,unsigned long> > >::operator--
EXTRN	?_M_decrement@?$_Rb_global@_N@_STL@@SAPAU_Rb_tree_node_base@2@PAU32@@Z:NEAR ; _STL::_Rb_global<bool>::_M_decrement
; Function compile flags: /Ogsy
; File c:\stlport-4.6.1\stlport\stl\_tree.h
;	COMDAT ??F?$_Rb_tree_iterator@U?$pair@$$CBIK@_STL@@U?$_Nonconst_traits@U?$pair@$$CBIK@_STL@@@2@@_STL@@QAEAAU01@XZ
_TEXT	SEGMENT
??F?$_Rb_tree_iterator@U?$pair@$$CBIK@_STL@@U?$_Nonconst_traits@U?$pair@$$CBIK@_STL@@@2@@_STL@@QAEAAU01@XZ PROC NEAR ; _STL::_Rb_tree_iterator<_STL::pair<unsigned int const ,unsigned long>,_STL::_Nonconst_traits<_STL::pair<unsigned int const ,unsigned long> > >::operator--, COMDAT
; _this$ = ecx

; 181  :   _Self& operator--() { _M_node = _Rb_global_inst::_M_decrement(_M_node); return *this; }

  00000	56		 push	 esi
  00001	8b f1		 mov	 esi, ecx
  00003	ff 36		 push	 DWORD PTR [esi]
  00005	e8 00 00 00 00	 call	 ?_M_decrement@?$_Rb_global@_N@_STL@@SAPAU_Rb_tree_node_base@2@PAU32@@Z ; _STL::_Rb_global<bool>::_M_decrement
  0000a	89 06		 mov	 DWORD PTR [esi], eax
  0000c	59		 pop	 ecx
  0000d	8b c6		 mov	 eax, esi
  0000f	5e		 pop	 esi
  00010	c3		 ret	 0
??F?$_Rb_tree_iterator@U?$pair@$$CBIK@_STL@@U?$_Nonconst_traits@U?$pair@$$CBIK@_STL@@@2@@_STL@@QAEAAU01@XZ ENDP ; _STL::_Rb_tree_iterator<_STL::pair<unsigned int const ,unsigned long>,_STL::_Nonconst_traits<_STL::pair<unsigned int const ,unsigned long> > >::operator--
_TEXT	ENDS
PUBLIC	??0?$pair@U?$_Rb_tree_iterator@U?$pair@$$CBIK@_STL@@U?$_Nonconst_traits@U?$pair@$$CBIK@_STL@@@2@@_STL@@_N@_STL@@QAE@ABU?$_Rb_tree_iterator@U?$pair@$$CBIK@_STL@@U?$_Nonconst_traits@U?$pair@$$CBIK@_STL@@@2@@1@AB_N@Z ; _STL::pair<_STL::_Rb_tree_iterator<_STL::pair<unsigned int const ,unsigned long>,_STL::_Nonconst_traits<_STL::pair<unsigned int const ,unsigned long> > >,bool>::pair<_STL::_Rb_tree_iterator<_STL::pair<unsigned int const ,unsigned long>,_STL::_Nonconst_traits<_STL::pair<unsigned int const ,unsigned long> > >,bool>
; Function compile flags: /Ogsy
; File c:\stlport-4.6.1\stlport\stl\_pair.h
;	COMDAT ??0?$pair@U?$_Rb_tree_iterator@U?$pair@$$CBIK@_STL@@U?$_Nonconst_traits@U?$pair@$$CBIK@_STL@@@2@@_STL@@_N@_STL@@QAE@ABU?$_Rb_tree_iterator@U?$pair@$$CBIK@_STL@@U?$_Nonconst_traits@U?$pair@$$CBIK@_STL@@@2@@1@AB_N@Z
_TEXT	SEGMENT
___a$ = 8						; size = 4
___b$ = 12						; size = 4
??0?$pair@U?$_Rb_tree_iterator@U?$pair@$$CBIK@_STL@@U?$_Nonconst_traits@U?$pair@$$CBIK@_STL@@@2@@_STL@@_N@_STL@@QAE@ABU?$_Rb_tree_iterator@U?$pair@$$CBIK@_STL@@U?$_Nonconst_traits@U?$pair@$$CBIK@_STL@@@2@@1@AB_N@Z PROC NEAR ; _STL::pair<_STL::_Rb_tree_iterator<_STL::pair<unsigned int const ,unsigned long>,_STL::_Nonconst_traits<_STL::pair<unsigned int const ,unsigned long> > >,bool>::pair<_STL::_Rb_tree_iterator<_STL::pair<unsigned int const ,unsigned long>,_STL::_Nonconst_traits<_STL::pair<unsigned int const ,unsigned long> > >,bool>, COMDAT
; _this$ = ecx

; 48   :   pair(const _T1& __a, const _T2& __b) : first(__a), second(__b) {}

  00000	8b c1		 mov	 eax, ecx
  00002	8b 4c 24 04	 mov	 ecx, DWORD PTR ___a$[esp-4]
  00006	8b 09		 mov	 ecx, DWORD PTR [ecx]
  00008	89 08		 mov	 DWORD PTR [eax], ecx
  0000a	8b 4c 24 08	 mov	 ecx, DWORD PTR ___b$[esp-4]
  0000e	8a 09		 mov	 cl, BYTE PTR [ecx]
  00010	88 48 04	 mov	 BYTE PTR [eax+4], cl
  00013	c2 08 00	 ret	 8
??0?$pair@U?$_Rb_tree_iterator@U?$pair@$$CBIK@_STL@@U?$_Nonconst_traits@U?$pair@$$CBIK@_STL@@@2@@_STL@@_N@_STL@@QAE@ABU?$_Rb_tree_iterator@U?$pair@$$CBIK@_STL@@U?$_Nonconst_traits@U?$pair@$$CBIK@_STL@@@2@@1@AB_N@Z ENDP ; _STL::pair<_STL::_Rb_tree_iterator<_STL::pair<unsigned int const ,unsigned long>,_STL::_Nonconst_traits<_STL::pair<unsigned int const ,unsigned long> > >,bool>::pair<_STL::_Rb_tree_iterator<_STL::pair<unsigned int const ,unsigned long>,_STL::_Nonconst_traits<_STL::pair<unsigned int const ,unsigned long> > >,bool>
_TEXT	ENDS
PUBLIC	??R?$_Select1st@U?$pair@$$CBIK@_STL@@@_STL@@QBEABIABU?$pair@$$CBIK@1@@Z ; _STL::_Select1st<_STL::pair<unsigned int const ,unsigned long> >::operator()
; Function compile flags: /Ogsy
; File c:\stlport-4.6.1\stlport\stl\_function_base.h
;	COMDAT ??R?$_Select1st@U?$pair@$$CBIK@_STL@@@_STL@@QBEABIABU?$pair@$$CBIK@1@@Z
_TEXT	SEGMENT
___x$ = 8						; size = 4
??R?$_Select1st@U?$pair@$$CBIK@_STL@@@_STL@@QBEABIABU?$pair@$$CBIK@1@@Z PROC NEAR ; _STL::_Select1st<_STL::pair<unsigned int const ,unsigned long> >::operator(), COMDAT
; _this$ = ecx

; 153  :     return __x.first;

  00000	8b 44 24 04	 mov	 eax, DWORD PTR ___x$[esp-4]

; 154  :   }

  00004	c2 04 00	 ret	 4
??R?$_Select1st@U?$pair@$$CBIK@_STL@@@_STL@@QBEABIABU?$pair@$$CBIK@1@@Z ENDP ; _STL::_Select1st<_STL::pair<unsigned int const ,unsigned long> >::operator()
_TEXT	ENDS
PUBLIC	?_S_value@?$_Rb_tree@IU?$pair@$$CBIK@_STL@@U?$_Select1st@U?$pair@$$CBIK@_STL@@@2@U?$less@I@2@V?$allocator@U?$pair@$$CBIK@_STL@@@2@@_STL@@KAAAU?$pair@$$CBIK@2@PAU?$_Rb_tree_node@U?$pair@$$CBIK@_STL@@@2@@Z ; _STL::_Rb_tree<unsigned int,_STL::pair<unsigned int const ,unsigned long>,_STL::_Select1st<_STL::pair<unsigned int const ,unsigned long> >,_STL::less<unsigned int>,_STL::allocator<_STL::pair<unsigned int const ,unsigned long> > >::_S_value
; Function compile flags: /Ogsy
; File c:\stlport-4.6.1\stlport\stl\_tree.h
;	COMDAT ?_S_value@?$_Rb_tree@IU?$pair@$$CBIK@_STL@@U?$_Select1st@U?$pair@$$CBIK@_STL@@@2@U?$less@I@2@V?$allocator@U?$pair@$$CBIK@_STL@@@2@@_STL@@KAAAU?$pair@$$CBIK@2@PAU?$_Rb_tree_node@U?$pair@$$CBIK@_STL@@@2@@Z
_TEXT	SEGMENT
___x$ = 8						; size = 4
?_S_value@?$_Rb_tree@IU?$pair@$$CBIK@_STL@@U?$_Select1st@U?$pair@$$CBIK@_STL@@@2@U?$less@I@2@V?$allocator@U?$pair@$$CBIK@_STL@@@2@@_STL@@KAAAU?$pair@$$CBIK@2@PAU?$_Rb_tree_node@U?$pair@$$CBIK@_STL@@@2@@Z PROC NEAR ; _STL::_Rb_tree<unsigned int,_STL::pair<unsigned int const ,unsigned long>,_STL::_Select1st<_STL::pair<unsigned int const ,unsigned long> >,_STL::less<unsigned int>,_STL::allocator<_STL::pair<unsigned int const ,unsigned long> > >::_S_value, COMDAT

; 278  :     { return __x->_M_value_field; }

  00000	8b 44 24 04	 mov	 eax, DWORD PTR ___x$[esp-4]
  00004	83 c0 10	 add	 eax, 16			; 00000010H
  00007	c3		 ret	 0
?_S_value@?$_Rb_tree@IU?$pair@$$CBIK@_STL@@U?$_Select1st@U?$pair@$$CBIK@_STL@@@2@U?$less@I@2@V?$allocator@U?$pair@$$CBIK@_STL@@@2@@_STL@@KAAAU?$pair@$$CBIK@2@PAU?$_Rb_tree_node@U?$pair@$$CBIK@_STL@@@2@@Z ENDP ; _STL::_Rb_tree<unsigned int,_STL::pair<unsigned int const ,unsigned long>,_STL::_Select1st<_STL::pair<unsigned int const ,unsigned long> >,_STL::less<unsigned int>,_STL::allocator<_STL::pair<unsigned int const ,unsigned long> > >::_S_value
_TEXT	ENDS
PUBLIC	?_S_parent@?$_Rb_tree@IU?$pair@$$CBIK@_STL@@U?$_Select1st@U?$pair@$$CBIK@_STL@@@2@U?$less@I@2@V?$allocator@U?$pair@$$CBIK@_STL@@@2@@_STL@@KAAAPAU?$_Rb_tree_node@U?$pair@$$CBIK@_STL@@@2@PAU32@@Z ; _STL::_Rb_tree<unsigned int,_STL::pair<unsigned int const ,unsigned long>,_STL::_Select1st<_STL::pair<unsigned int const ,unsigned long> >,_STL::less<unsigned int>,_STL::allocator<_STL::pair<unsigned int const ,unsigned long> > >::_S_parent
; Function compile flags: /Ogsy
;	COMDAT ?_S_parent@?$_Rb_tree@IU?$pair@$$CBIK@_STL@@U?$_Select1st@U?$pair@$$CBIK@_STL@@@2@U?$less@I@2@V?$allocator@U?$pair@$$CBIK@_STL@@@2@@_STL@@KAAAPAU?$_Rb_tree_node@U?$pair@$$CBIK@_STL@@@2@PAU32@@Z
_TEXT	SEGMENT
___x$ = 8						; size = 4
?_S_parent@?$_Rb_tree@IU?$pair@$$CBIK@_STL@@U?$_Select1st@U?$pair@$$CBIK@_STL@@@2@U?$less@I@2@V?$allocator@U?$pair@$$CBIK@_STL@@@2@@_STL@@KAAAPAU?$_Rb_tree_node@U?$pair@$$CBIK@_STL@@@2@PAU32@@Z PROC NEAR ; _STL::_Rb_tree<unsigned int,_STL::pair<unsigned int const ,unsigned long>,_STL::_Select1st<_STL::pair<unsigned int const ,unsigned long> >,_STL::less<unsigned int>,_STL::allocator<_STL::pair<unsigned int const ,unsigned long> > >::_S_parent, COMDAT

; 276  :     { return (_Link_type&)(__x->_M_parent); }

  00000	8b 44 24 04	 mov	 eax, DWORD PTR ___x$[esp-4]
  00004	83 c0 04	 add	 eax, 4
  00007	c3		 ret	 0
?_S_parent@?$_Rb_tree@IU?$pair@$$CBIK@_STL@@U?$_Select1st@U?$pair@$$CBIK@_STL@@@2@U?$less@I@2@V?$allocator@U?$pair@$$CBIK@_STL@@@2@@_STL@@KAAAPAU?$_Rb_tree_node@U?$pair@$$CBIK@_STL@@@2@PAU32@@Z ENDP ; _STL::_Rb_tree<unsigned int,_STL::pair<unsigned int const ,unsigned long>,_STL::_Select1st<_STL::pair<unsigned int const ,unsigned long> >,_STL::less<unsigned int>,_STL::allocator<_STL::pair<unsigned int const ,unsigned long> > >::_S_parent
_TEXT	ENDS
PUBLIC	??0?$pair@$$CBIK@_STL@@QAE@ABU01@@Z		; _STL::pair<unsigned int const ,unsigned long>::pair<unsigned int const ,unsigned long>
; Function compile flags: /Ogsy
; File c:\stlport-4.6.1\stlport\stl\_pair.h
;	COMDAT ??0?$pair@$$CBIK@_STL@@QAE@ABU01@@Z
_TEXT	SEGMENT
___o$ = 8						; size = 4
??0?$pair@$$CBIK@_STL@@QAE@ABU01@@Z PROC NEAR		; _STL::pair<unsigned int const ,unsigned long>::pair<unsigned int const ,unsigned long>, COMDAT
; _this$ = ecx

; 54   :   pair(const pair<_T1,_T2>& __o) : first(__o.first), second(__o.second) {}

  00000	8b c1		 mov	 eax, ecx
  00002	8b 4c 24 04	 mov	 ecx, DWORD PTR ___o$[esp-4]
  00006	8b 11		 mov	 edx, DWORD PTR [ecx]
  00008	89 10		 mov	 DWORD PTR [eax], edx
  0000a	8b 49 04	 mov	 ecx, DWORD PTR [ecx+4]
  0000d	89 48 04	 mov	 DWORD PTR [eax+4], ecx
  00010	c2 04 00	 ret	 4
??0?$pair@$$CBIK@_STL@@QAE@ABU01@@Z ENDP		; _STL::pair<unsigned int const ,unsigned long>::pair<unsigned int const ,unsigned long>
_TEXT	ENDS
PUBLIC	??8_Rb_tree_base_iterator@_STL@@QBE_NABU01@@Z	; _STL::_Rb_tree_base_iterator::operator==
; Function compile flags: /Ogsy
; File c:\stlport-4.6.1\stlport\stl\_tree.h
;	COMDAT ??8_Rb_tree_base_iterator@_STL@@QBE_NABU01@@Z
_TEXT	SEGMENT
___y$ = 8						; size = 4
??8_Rb_tree_base_iterator@_STL@@QBE_NABU01@@Z PROC NEAR	; _STL::_Rb_tree_base_iterator::operator==, COMDAT
; _this$ = ecx

; 147  :     return _M_node == __y._M_node;

  00000	8b 01		 mov	 eax, DWORD PTR [ecx]
  00002	8b 4c 24 04	 mov	 ecx, DWORD PTR ___y$[esp-4]
  00006	2b 01		 sub	 eax, DWORD PTR [ecx]
  00008	f7 d8		 neg	 eax
  0000a	1b c0		 sbb	 eax, eax
  0000c	40		 inc	 eax

; 148  :   }

  0000d	c2 04 00	 ret	 4
??8_Rb_tree_base_iterator@_STL@@QBE_NABU01@@Z ENDP	; _STL::_Rb_tree_base_iterator::operator==
_TEXT	ENDS
PUBLIC	?allocate@?$__node_alloc@$00$0A@@_STL@@SAPAXI@Z	; _STL::__node_alloc<1,0>::allocate
EXTRN	?_M_allocate@?$__node_alloc@$00$0A@@_STL@@CAPAXI@Z:NEAR ; _STL::__node_alloc<1,0>::_M_allocate
; Function compile flags: /Ogsy
; File c:\stlport-4.6.1\stlport\stl\_alloc.h
;	COMDAT ?allocate@?$__node_alloc@$00$0A@@_STL@@SAPAXI@Z
_TEXT	SEGMENT
___n$ = 8						; size = 4
?allocate@?$__node_alloc@$00$0A@@_STL@@SAPAXI@Z PROC NEAR ; _STL::__node_alloc<1,0>::allocate, COMDAT

; 251  :   static void * _STLP_CALL allocate(size_t __n) { return (__n > (size_t)_MAX_BYTES) ?  __stl_new(__n) : _M_allocate(__n); }

  00000	8b 44 24 04	 mov	 eax, DWORD PTR ___n$[esp-4]
  00004	3d 80 00 00 00	 cmp	 eax, 128		; 00000080H
  00009	50		 push	 eax
  0000a	76 07		 jbe	 SHORT $L101460
  0000c	e8 00 00 00 00	 call	 ??2@YAPAXI@Z		; operator new
  00011	59		 pop	 ecx
  00012	c3		 ret	 0
$L101460:
  00013	e8 00 00 00 00	 call	 ?_M_allocate@?$__node_alloc@$00$0A@@_STL@@CAPAXI@Z ; _STL::__node_alloc<1,0>::_M_allocate
  00018	59		 pop	 ecx
  00019	c3		 ret	 0
?allocate@?$__node_alloc@$00$0A@@_STL@@SAPAXI@Z ENDP	; _STL::__node_alloc<1,0>::allocate
_TEXT	ENDS
PUBLIC	?deallocate@?$__node_alloc@$00$0A@@_STL@@SAXPAXI@Z ; _STL::__node_alloc<1,0>::deallocate
EXTRN	?_M_deallocate@?$__node_alloc@$00$0A@@_STL@@CAXPAXI@Z:NEAR ; _STL::__node_alloc<1,0>::_M_deallocate
; Function compile flags: /Ogsy
;	COMDAT ?deallocate@?$__node_alloc@$00$0A@@_STL@@SAXPAXI@Z
_TEXT	SEGMENT
___p$ = 8						; size = 4
___n$ = 12						; size = 4
?deallocate@?$__node_alloc@$00$0A@@_STL@@SAXPAXI@Z PROC NEAR ; _STL::__node_alloc<1,0>::deallocate, COMDAT

; 253  :   static void _STLP_CALL deallocate(void *__p, size_t __n) { if (__n > (size_t)_MAX_BYTES) __stl_delete(__p); else _M_deallocate(__p, __n); }

  00000	81 7c 24 08 80
	00 00 00	 cmp	 DWORD PTR ___n$[esp-4], 128 ; 00000080H
  00008	76 0b		 jbe	 SHORT $L98677
  0000a	ff 74 24 04	 push	 DWORD PTR ___p$[esp-4]
  0000e	e8 00 00 00 00	 call	 ??3@YAXPAX@Z		; operator delete
  00013	59		 pop	 ecx
  00014	c3		 ret	 0
$L98677:
  00015	e9 00 00 00 00	 jmp	 ?_M_deallocate@?$__node_alloc@$00$0A@@_STL@@CAXPAXI@Z ; _STL::__node_alloc<1,0>::_M_deallocate
?deallocate@?$__node_alloc@$00$0A@@_STL@@SAXPAXI@Z ENDP	; _STL::__node_alloc<1,0>::deallocate
_TEXT	ENDS
PUBLIC	?empty@?$map@IKU?$less@I@_STL@@V?$allocator@U?$pair@$$CBIK@_STL@@@2@@_STL@@QBE_NXZ ; _STL::map<unsigned int,unsigned long,_STL::less<unsigned int>,_STL::allocator<_STL::pair<unsigned int const ,unsigned long> > >::empty
; Function compile flags: /Ogsy
; File c:\stlport-4.6.1\stlport\stl\_map.h
;	COMDAT ?empty@?$map@IKU?$less@I@_STL@@V?$allocator@U?$pair@$$CBIK@_STL@@@2@@_STL@@QBE_NXZ
_TEXT	SEGMENT
?empty@?$map@IKU?$less@I@_STL@@V?$allocator@U?$pair@$$CBIK@_STL@@@2@@_STL@@QBE_NXZ PROC NEAR ; _STL::map<unsigned int,unsigned long,_STL::less<unsigned int>,_STL::allocator<_STL::pair<unsigned int const ,unsigned long> > >::empty, COMDAT
; _this$ = ecx

; 155  :   bool empty() const { return _M_t.empty(); }

  00000	33 c0		 xor	 eax, eax
  00002	39 41 04	 cmp	 DWORD PTR [ecx+4], eax
  00005	0f 94 c0	 sete	 al
  00008	c3		 ret	 0
?empty@?$map@IKU?$less@I@_STL@@V?$allocator@U?$pair@$$CBIK@_STL@@@2@@_STL@@QBE_NXZ ENDP ; _STL::map<unsigned int,unsigned long,_STL::less<unsigned int>,_STL::allocator<_STL::pair<unsigned int const ,unsigned long> > >::empty
_TEXT	ENDS
PUBLIC	?end@?$_Rb_tree@IU?$pair@$$CBIK@_STL@@U?$_Select1st@U?$pair@$$CBIK@_STL@@@2@U?$less@I@2@V?$allocator@U?$pair@$$CBIK@_STL@@@2@@_STL@@QAE?AU?$_Rb_tree_iterator@U?$pair@$$CBIK@_STL@@U?$_Nonconst_traits@U?$pair@$$CBIK@_STL@@@2@@2@XZ ; _STL::_Rb_tree<unsigned int,_STL::pair<unsigned int const ,unsigned long>,_STL::_Select1st<_STL::pair<unsigned int const ,unsigned long> >,_STL::less<unsigned int>,_STL::allocator<_STL::pair<unsigned int const ,unsigned long> > >::end
; Function compile flags: /Ogsy
; File c:\stlport-4.6.1\stlport\stl\_tree.h
;	COMDAT ?end@?$_Rb_tree@IU?$pair@$$CBIK@_STL@@U?$_Select1st@U?$pair@$$CBIK@_STL@@@2@U?$less@I@2@V?$allocator@U?$pair@$$CBIK@_STL@@@2@@_STL@@QAE?AU?$_Rb_tree_iterator@U?$pair@$$CBIK@_STL@@U?$_Nonconst_traits@U?$pair@$$CBIK@_STL@@@2@@2@XZ
_TEXT	SEGMENT
___$ReturnUdt$ = 8					; size = 4
?end@?$_Rb_tree@IU?$pair@$$CBIK@_STL@@U?$_Select1st@U?$pair@$$CBIK@_STL@@@2@U?$less@I@2@V?$allocator@U?$pair@$$CBIK@_STL@@@2@@_STL@@QAE?AU?$_Rb_tree_iterator@U?$pair@$$CBIK@_STL@@U?$_Nonconst_traits@U?$pair@$$CBIK@_STL@@@2@@2@XZ PROC NEAR ; _STL::_Rb_tree<unsigned int,_STL::pair<unsigned int const ,unsigned long>,_STL::_Select1st<_STL::pair<unsigned int const ,unsigned long> >,_STL::less<unsigned int>,_STL::allocator<_STL::pair<unsigned int const ,unsigned long> > >::end, COMDAT
; _this$ = ecx

; 359  :   iterator end() { return iterator(this->_M_header._M_data); }

  00000	8b 09		 mov	 ecx, DWORD PTR [ecx]
  00002	8b 44 24 04	 mov	 eax, DWORD PTR ___$ReturnUdt$[esp-4]
  00006	89 08		 mov	 DWORD PTR [eax], ecx
  00008	c2 04 00	 ret	 4
?end@?$_Rb_tree@IU?$pair@$$CBIK@_STL@@U?$_Select1st@U?$pair@$$CBIK@_STL@@@2@U?$less@I@2@V?$allocator@U?$pair@$$CBIK@_STL@@@2@@_STL@@QAE?AU?$_Rb_tree_iterator@U?$pair@$$CBIK@_STL@@U?$_Nonconst_traits@U?$pair@$$CBIK@_STL@@@2@@2@XZ ENDP ; _STL::_Rb_tree<unsigned int,_STL::pair<unsigned int const ,unsigned long>,_STL::_Select1st<_STL::pair<unsigned int const ,unsigned long> >,_STL::less<unsigned int>,_STL::allocator<_STL::pair<unsigned int const ,unsigned long> > >::end
_TEXT	ENDS
PUBLIC	??1?$_STLP_alloc_proxy@PAU?$_Rb_tree_node@U?$pair@$$CBIK@_STL@@@_STL@@U12@V?$allocator@U?$_Rb_tree_node@U?$pair@$$CBIK@_STL@@@_STL@@@2@@_STL@@QAE@XZ ; _STL::_STLP_alloc_proxy<_STL::_Rb_tree_node<_STL::pair<unsigned int const ,unsigned long> > *,_STL::_Rb_tree_node<_STL::pair<unsigned int const ,unsigned long> >,_STL::allocator<_STL::_Rb_tree_node<_STL::pair<unsigned int const ,unsigned long> > > >::~_STLP_alloc_proxy<_STL::_Rb_tree_node<_STL::pair<unsigned int const ,unsigned long> > *,_STL::_Rb_tree_node<_STL::pair<unsigned int const ,unsigned long> >,_STL::allocator<_STL::_Rb_tree_node<_STL::pair<unsigned int const ,unsigned long> > > >
; Function compile flags: /Ogsy
;	COMDAT ??1?$_STLP_alloc_proxy@PAU?$_Rb_tree_node@U?$pair@$$CBIK@_STL@@@_STL@@U12@V?$allocator@U?$_Rb_tree_node@U?$pair@$$CBIK@_STL@@@_STL@@@2@@_STL@@QAE@XZ
_TEXT	SEGMENT
??1?$_STLP_alloc_proxy@PAU?$_Rb_tree_node@U?$pair@$$CBIK@_STL@@@_STL@@U12@V?$allocator@U?$_Rb_tree_node@U?$pair@$$CBIK@_STL@@@_STL@@@2@@_STL@@QAE@XZ PROC NEAR ; _STL::_STLP_alloc_proxy<_STL::_Rb_tree_node<_STL::pair<unsigned int const ,unsigned long> > *,_STL::_Rb_tree_node<_STL::pair<unsigned int const ,unsigned long> >,_STL::allocator<_STL::_Rb_tree_node<_STL::pair<unsigned int const ,unsigned long> > > >::~_STLP_alloc_proxy<_STL::_Rb_tree_node<_STL::pair<unsigned int const ,unsigned long> > *,_STL::_Rb_tree_node<_STL::pair<unsigned int const ,unsigned long> >,_STL::allocator<_STL::_Rb_tree_node<_STL::pair<unsigned int const ,unsigned long> > > >, COMDAT
; _this$ = ecx
  00000	c3		 ret	 0
??1?$_STLP_alloc_proxy@PAU?$_Rb_tree_node@U?$pair@$$CBIK@_STL@@@_STL@@U12@V?$allocator@U?$_Rb_tree_node@U?$pair@$$CBIK@_STL@@@_STL@@@2@@_STL@@QAE@XZ ENDP ; _STL::_STLP_alloc_proxy<_STL::_Rb_tree_node<_STL::pair<unsigned int const ,unsigned long> > *,_STL::_Rb_tree_node<_STL::pair<unsigned int const ,unsigned long> >,_STL::allocator<_STL::_Rb_tree_node<_STL::pair<unsigned int const ,unsigned long> > > >::~_STLP_alloc_proxy<_STL::_Rb_tree_node<_STL::pair<unsigned int const ,unsigned long> > *,_STL::_Rb_tree_node<_STL::pair<unsigned int const ,unsigned long> >,_STL::allocator<_STL::_Rb_tree_node<_STL::pair<unsigned int const ,unsigned long> > > >
_TEXT	ENDS
PUBLIC	?_M_empty_initialize@?$_Rb_tree@IU?$pair@$$CBIK@_STL@@U?$_Select1st@U?$pair@$$CBIK@_STL@@@2@U?$less@I@2@V?$allocator@U?$pair@$$CBIK@_STL@@@2@@_STL@@AAEXXZ ; _STL::_Rb_tree<unsigned int,_STL::pair<unsigned int const ,unsigned long>,_STL::_Select1st<_STL::pair<unsigned int const ,unsigned long> >,_STL::less<unsigned int>,_STL::allocator<_STL::pair<unsigned int const ,unsigned long> > >::_M_empty_initialize
; Function compile flags: /Ogsy
;	COMDAT ?_M_empty_initialize@?$_Rb_tree@IU?$pair@$$CBIK@_STL@@U?$_Select1st@U?$pair@$$CBIK@_STL@@@2@U?$less@I@2@V?$allocator@U?$pair@$$CBIK@_STL@@@2@@_STL@@AAEXXZ
_TEXT	SEGMENT
?_M_empty_initialize@?$_Rb_tree@IU?$pair@$$CBIK@_STL@@U?$_Select1st@U?$pair@$$CBIK@_STL@@@2@U?$less@I@2@V?$allocator@U?$pair@$$CBIK@_STL@@@2@@_STL@@AAEXXZ PROC NEAR ; _STL::_Rb_tree<unsigned int,_STL::pair<unsigned int const ,unsigned long>,_STL::_Select1st<_STL::pair<unsigned int const ,unsigned long> >,_STL::less<unsigned int>,_STL::allocator<_STL::pair<unsigned int const ,unsigned long> > >::_M_empty_initialize, COMDAT
; _this$ = ecx

; 346  :     _S_color(this->_M_header._M_data) = _S_rb_tree_red; // used to distinguish header from 

  00000	8b 01		 mov	 eax, DWORD PTR [ecx]
  00002	c6 00 00	 mov	 BYTE PTR [eax], 0

; 347  :                                           // __root, in iterator.operator++
; 348  :     _M_root() = 0;

  00005	8b 01		 mov	 eax, DWORD PTR [ecx]
  00007	83 60 04 00	 and	 DWORD PTR [eax+4], 0

; 349  :     _M_leftmost() = this->_M_header._M_data;

  0000b	8b 01		 mov	 eax, DWORD PTR [ecx]
  0000d	89 40 08	 mov	 DWORD PTR [eax+8], eax

; 350  :     _M_rightmost() = this->_M_header._M_data;

  00010	8b 09		 mov	 ecx, DWORD PTR [ecx]
  00012	89 49 0c	 mov	 DWORD PTR [ecx+12], ecx

; 351  :   }

  00015	c3		 ret	 0
?_M_empty_initialize@?$_Rb_tree@IU?$pair@$$CBIK@_STL@@U?$_Select1st@U?$pair@$$CBIK@_STL@@@2@U?$less@I@2@V?$allocator@U?$pair@$$CBIK@_STL@@@2@@_STL@@AAEXXZ ENDP ; _STL::_Rb_tree<unsigned int,_STL::pair<unsigned int const ,unsigned long>,_STL::_Select1st<_STL::pair<unsigned int const ,unsigned long> >,_STL::less<unsigned int>,_STL::allocator<_STL::pair<unsigned int const ,unsigned long> > >::_M_empty_initialize
_TEXT	ENDS
PUBLIC	?deallocate@?$allocator@U?$_Rb_tree_node@U?$pair@$$CBIK@_STL@@@_STL@@@_STL@@QAEXPAU?$_Rb_tree_node@U?$pair@$$CBIK@_STL@@@2@I@Z ; _STL::allocator<_STL::_Rb_tree_node<_STL::pair<unsigned int const ,unsigned long> > >::deallocate
; Function compile flags: /Ogsy
; File c:\stlport-4.6.1\stlport\stl\_alloc.h
;	COMDAT ?deallocate@?$allocator@U?$_Rb_tree_node@U?$pair@$$CBIK@_STL@@@_STL@@@_STL@@QAEXPAU?$_Rb_tree_node@U?$pair@$$CBIK@_STL@@@2@I@Z
_TEXT	SEGMENT
___p$ = 8						; size = 4
___n$ = 12						; size = 4
?deallocate@?$allocator@U?$_Rb_tree_node@U?$pair@$$CBIK@_STL@@@_STL@@@_STL@@QAEXPAU?$_Rb_tree_node@U?$pair@$$CBIK@_STL@@@2@I@Z PROC NEAR ; _STL::allocator<_STL::_Rb_tree_node<_STL::pair<unsigned int const ,unsigned long> > >::deallocate, COMDAT
; _this$ = ecx

; 359  :     _STLP_ASSERT( (__p == 0) == (__n == 0) )
; 360  :       if (__p != 0) __sgi_alloc::deallocate((void*)__p, __n * sizeof(value_type));

  00000	83 7c 24 04 00	 cmp	 DWORD PTR ___p$[esp-4], 0
  00005	74 16		 je	 SHORT $L100562
  00007	8b 44 24 08	 mov	 eax, DWORD PTR ___n$[esp-4]
  0000b	8d 04 40	 lea	 eax, DWORD PTR [eax+eax*2]
  0000e	c1 e0 03	 shl	 eax, 3
  00011	50		 push	 eax
  00012	ff 74 24 08	 push	 DWORD PTR ___p$[esp]
  00016	e8 00 00 00 00	 call	 ?deallocate@?$__node_alloc@$00$0A@@_STL@@SAXPAXI@Z ; _STL::__node_alloc<1,0>::deallocate
  0001b	59		 pop	 ecx
  0001c	59		 pop	 ecx
$L100562:

; 361  :   }

  0001d	c2 08 00	 ret	 8
?deallocate@?$allocator@U?$_Rb_tree_node@U?$pair@$$CBIK@_STL@@@_STL@@@_STL@@QAEXPAU?$_Rb_tree_node@U?$pair@$$CBIK@_STL@@@2@I@Z ENDP ; _STL::allocator<_STL::_Rb_tree_node<_STL::pair<unsigned int const ,unsigned long> > >::deallocate
_TEXT	ENDS
PUBLIC	??0?$_STLP_alloc_proxy@PAU?$_Rb_tree_node@U?$pair@$$CBIK@_STL@@@_STL@@U12@V?$allocator@U?$_Rb_tree_node@U?$pair@$$CBIK@_STL@@@_STL@@@2@@_STL@@QAE@ABV?$allocator@U?$_Rb_tree_node@U?$pair@$$CBIK@_STL@@@_STL@@@1@PAU?$_Rb_tree_node@U?$pair@$$CBIK@_STL@@@1@@Z ; _STL::_STLP_alloc_proxy<_STL::_Rb_tree_node<_STL::pair<unsigned int const ,unsigned long> > *,_STL::_Rb_tree_node<_STL::pair<unsigned int const ,unsigned long> >,_STL::allocator<_STL::_Rb_tree_node<_STL::pair<unsigned int const ,unsigned long> > > >::_STLP_alloc_proxy<_STL::_Rb_tree_node<_STL::pair<unsigned int const ,unsigned long> > *,_STL::_Rb_tree_node<_STL::pair<unsigned int const ,unsigned long> >,_STL::allocator<_STL::_Rb_tree_node<_STL::pair<unsigned int const ,unsigned long> > > >
; Function compile flags: /Ogsy
;	COMDAT ??0?$_STLP_alloc_proxy@PAU?$_Rb_tree_node@U?$pair@$$CBIK@_STL@@@_STL@@U12@V?$allocator@U?$_Rb_tree_node@U?$pair@$$CBIK@_STL@@@_STL@@@2@@_STL@@QAE@ABV?$allocator@U?$_Rb_tree_node@U?$pair@$$CBIK@_STL@@@_STL@@@1@PAU?$_Rb_tree_node@U?$pair@$$CBIK@_STL@@@1@@Z
_TEXT	SEGMENT
___a$ = 8						; size = 4
___p$ = 12						; size = 4
??0?$_STLP_alloc_proxy@PAU?$_Rb_tree_node@U?$pair@$$CBIK@_STL@@@_STL@@U12@V?$allocator@U?$_Rb_tree_node@U?$pair@$$CBIK@_STL@@@_STL@@@2@@_STL@@QAE@ABV?$allocator@U?$_Rb_tree_node@U?$pair@$$CBIK@_STL@@@_STL@@@1@PAU?$_Rb_tree_node@U?$pair@$$CBIK@_STL@@@1@@Z PROC NEAR ; _STL::_STLP_alloc_proxy<_STL::_Rb_tree_node<_STL::pair<unsigned int const ,unsigned long> > *,_STL::_Rb_tree_node<_STL::pair<unsigned int const ,unsigned long> >,_STL::allocator<_STL::_Rb_tree_node<_STL::pair<unsigned int const ,unsigned long> > > >::_STLP_alloc_proxy<_STL::_Rb_tree_node<_STL::pair<unsigned int const ,unsigned long> > *,_STL::_Rb_tree_node<_STL::pair<unsigned int const ,unsigned long> >,_STL::allocator<_STL::_Rb_tree_node<_STL::pair<unsigned int const ,unsigned long> > > >, COMDAT
; _this$ = ecx

; 487  :   inline _STLP_alloc_proxy(const _MaybeReboundAlloc& __a, _Value __p) : _MaybeReboundAlloc(__a), _M_data(__p) {}

  00000	8b c1		 mov	 eax, ecx
  00002	8b 4c 24 08	 mov	 ecx, DWORD PTR ___p$[esp-4]
  00006	89 08		 mov	 DWORD PTR [eax], ecx
  00008	c2 08 00	 ret	 8
??0?$_STLP_alloc_proxy@PAU?$_Rb_tree_node@U?$pair@$$CBIK@_STL@@@_STL@@U12@V?$allocator@U?$_Rb_tree_node@U?$pair@$$CBIK@_STL@@@_STL@@@2@@_STL@@QAE@ABV?$allocator@U?$_Rb_tree_node@U?$pair@$$CBIK@_STL@@@_STL@@@1@PAU?$_Rb_tree_node@U?$pair@$$CBIK@_STL@@@1@@Z ENDP ; _STL::_STLP_alloc_proxy<_STL::_Rb_tree_node<_STL::pair<unsigned int const ,unsigned long> > *,_STL::_Rb_tree_node<_STL::pair<unsigned int const ,unsigned long> >,_STL::allocator<_STL::_Rb_tree_node<_STL::pair<unsigned int const ,unsigned long> > > >::_STLP_alloc_proxy<_STL::_Rb_tree_node<_STL::pair<unsigned int const ,unsigned long> > *,_STL::_Rb_tree_node<_STL::pair<unsigned int const ,unsigned long> >,_STL::allocator<_STL::_Rb_tree_node<_STL::pair<unsigned int const ,unsigned long> > > >
_TEXT	ENDS
PUBLIC	?allocate@?$allocator@U?$_Rb_tree_node@U?$pair@$$CBIK@_STL@@@_STL@@@_STL@@QAEPAU?$_Rb_tree_node@U?$pair@$$CBIK@_STL@@@2@IPBX@Z ; _STL::allocator<_STL::_Rb_tree_node<_STL::pair<unsigned int const ,unsigned long> > >::allocate
; Function compile flags: /Ogsy
;	COMDAT ?allocate@?$allocator@U?$_Rb_tree_node@U?$pair@$$CBIK@_STL@@@_STL@@@_STL@@QAEPAU?$_Rb_tree_node@U?$pair@$$CBIK@_STL@@@2@IPBX@Z
_TEXT	SEGMENT
___n$ = 8						; size = 4
___formal$ = 12						; size = 4
?allocate@?$allocator@U?$_Rb_tree_node@U?$pair@$$CBIK@_STL@@@_STL@@@_STL@@QAEPAU?$_Rb_tree_node@U?$pair@$$CBIK@_STL@@@2@IPBX@Z PROC NEAR ; _STL::allocator<_STL::_Rb_tree_node<_STL::pair<unsigned int const ,unsigned long> > >::allocate, COMDAT
; _this$ = ecx

; 355  :     return __n != 0 ? __REINTERPRET_CAST(value_type*,__sgi_alloc::allocate(__n * sizeof(value_type))) : 0;

  00000	8b 44 24 04	 mov	 eax, DWORD PTR ___n$[esp-4]
  00004	85 c0		 test	 eax, eax
  00006	74 0f		 je	 SHORT $L101516
  00008	8d 04 40	 lea	 eax, DWORD PTR [eax+eax*2]
  0000b	c1 e0 03	 shl	 eax, 3
  0000e	50		 push	 eax
  0000f	e8 00 00 00 00	 call	 ?allocate@?$__node_alloc@$00$0A@@_STL@@SAPAXI@Z ; _STL::__node_alloc<1,0>::allocate
  00014	59		 pop	 ecx
  00015	eb 02		 jmp	 SHORT $L101517
$L101516:
  00017	33 c0		 xor	 eax, eax
$L101517:

; 356  :   }

  00019	c2 08 00	 ret	 8
?allocate@?$allocator@U?$_Rb_tree_node@U?$pair@$$CBIK@_STL@@@_STL@@@_STL@@QAEPAU?$_Rb_tree_node@U?$pair@$$CBIK@_STL@@@2@IPBX@Z ENDP ; _STL::allocator<_STL::_Rb_tree_node<_STL::pair<unsigned int const ,unsigned long> > >::allocate
_TEXT	ENDS
PUBLIC	?_M_erase@?$_Rb_tree@IU?$pair@$$CBIK@_STL@@U?$_Select1st@U?$pair@$$CBIK@_STL@@@2@U?$less@I@2@V?$allocator@U?$pair@$$CBIK@_STL@@@2@@_STL@@AAEXPAU?$_Rb_tree_node@U?$pair@$$CBIK@_STL@@@2@@Z ; _STL::_Rb_tree<unsigned int,_STL::pair<unsigned int const ,unsigned long>,_STL::_Select1st<_STL::pair<unsigned int const ,unsigned long> >,_STL::less<unsigned int>,_STL::allocator<_STL::pair<unsigned int const ,unsigned long> > >::_M_erase
; Function compile flags: /Ogsy
; File c:\stlport-4.6.1\stlport\stl\_tree.c
;	COMDAT ?_M_erase@?$_Rb_tree@IU?$pair@$$CBIK@_STL@@U?$_Select1st@U?$pair@$$CBIK@_STL@@@2@U?$less@I@2@V?$allocator@U?$pair@$$CBIK@_STL@@@2@@_STL@@AAEXPAU?$_Rb_tree_node@U?$pair@$$CBIK@_STL@@@2@@Z
_TEXT	SEGMENT
___x$ = 8						; size = 4
?_M_erase@?$_Rb_tree@IU?$pair@$$CBIK@_STL@@U?$_Select1st@U?$pair@$$CBIK@_STL@@@2@U?$less@I@2@V?$allocator@U?$pair@$$CBIK@_STL@@@2@@_STL@@AAEXPAU?$_Rb_tree_node@U?$pair@$$CBIK@_STL@@@2@@Z PROC NEAR ; _STL::_Rb_tree<unsigned int,_STL::pair<unsigned int const ,unsigned long>,_STL::_Select1st<_STL::pair<unsigned int const ,unsigned long> >,_STL::less<unsigned int>,_STL::allocator<_STL::pair<unsigned int const ,unsigned long> > >::_M_erase, COMDAT
; _this$ = ecx

; 637  : {

  00000	53		 push	 ebx
  00001	56		 push	 esi

; 638  :                                 // erase without rebalancing
; 639  :   while (__x != 0) {

  00002	8b 74 24 0c	 mov	 esi, DWORD PTR ___x$[esp+4]
  00006	85 f6		 test	 esi, esi
  00008	8b d9		 mov	 ebx, ecx
  0000a	74 1f		 je	 SHORT $L100738
  0000c	57		 push	 edi
$L100737:

; 640  :     _M_erase(_S_right(__x));

  0000d	ff 76 0c	 push	 DWORD PTR [esi+12]
  00010	8b cb		 mov	 ecx, ebx
  00012	e8 00 00 00 00	 call	 ?_M_erase@?$_Rb_tree@IU?$pair@$$CBIK@_STL@@U?$_Select1st@U?$pair@$$CBIK@_STL@@@2@U?$less@I@2@V?$allocator@U?$pair@$$CBIK@_STL@@@2@@_STL@@AAEXPAU?$_Rb_tree_node@U?$pair@$$CBIK@_STL@@@2@@Z ; _STL::_Rb_tree<unsigned int,_STL::pair<unsigned int const ,unsigned long>,_STL::_Select1st<_STL::pair<unsigned int const ,unsigned long> >,_STL::less<unsigned int>,_STL::allocator<_STL::pair<unsigned int const ,unsigned long> > >::_M_erase

; 641  :     _Link_type __y = _S_left(__x);

  00017	8b 7e 08	 mov	 edi, DWORD PTR [esi+8]

; 642  :     _STLP_STD::_Destroy(&__x->_M_value_field);
; 643  :     this->_M_header.deallocate(__x,1);

  0001a	6a 01		 push	 1
  0001c	56		 push	 esi
  0001d	8b cb		 mov	 ecx, ebx
  0001f	e8 00 00 00 00	 call	 ?deallocate@?$allocator@U?$_Rb_tree_node@U?$pair@$$CBIK@_STL@@@_STL@@@_STL@@QAEXPAU?$_Rb_tree_node@U?$pair@$$CBIK@_STL@@@2@I@Z ; _STL::allocator<_STL::_Rb_tree_node<_STL::pair<unsigned int const ,unsigned long> > >::deallocate
  00024	85 ff		 test	 edi, edi

; 644  :     __x = __y;

  00026	8b f7		 mov	 esi, edi
  00028	75 e3		 jne	 SHORT $L100737
  0002a	5f		 pop	 edi
$L100738:
  0002b	5e		 pop	 esi
  0002c	5b		 pop	 ebx

; 645  :   }
; 646  : }

  0002d	c2 04 00	 ret	 4
?_M_erase@?$_Rb_tree@IU?$pair@$$CBIK@_STL@@U?$_Select1st@U?$pair@$$CBIK@_STL@@@2@U?$less@I@2@V?$allocator@U?$pair@$$CBIK@_STL@@@2@@_STL@@AAEXPAU?$_Rb_tree_node@U?$pair@$$CBIK@_STL@@@2@@Z ENDP ; _STL::_Rb_tree<unsigned int,_STL::pair<unsigned int const ,unsigned long>,_STL::_Select1st<_STL::pair<unsigned int const ,unsigned long> >,_STL::less<unsigned int>,_STL::allocator<_STL::pair<unsigned int const ,unsigned long> > >::_M_erase
_TEXT	ENDS
PUBLIC	?_S_key@?$_Rb_tree@IU?$pair@$$CBIK@_STL@@U?$_Select1st@U?$pair@$$CBIK@_STL@@@2@U?$less@I@2@V?$allocator@U?$pair@$$CBIK@_STL@@@2@@_STL@@KAABIPAU?$_Rb_tree_node@U?$pair@$$CBIK@_STL@@@2@@Z ; _STL::_Rb_tree<unsigned int,_STL::pair<unsigned int const ,unsigned long>,_STL::_Select1st<_STL::pair<unsigned int const ,unsigned long> >,_STL::less<unsigned int>,_STL::allocator<_STL::pair<unsigned int const ,unsigned long> > >::_S_key
; Function compile flags: /Ogsy
; File c:\stlport-4.6.1\stlport\stl\_tree.h
;	COMDAT ?_S_key@?$_Rb_tree@IU?$pair@$$CBIK@_STL@@U?$_Select1st@U?$pair@$$CBIK@_STL@@@2@U?$less@I@2@V?$allocator@U?$pair@$$CBIK@_STL@@@2@@_STL@@KAABIPAU?$_Rb_tree_node@U?$pair@$$CBIK@_STL@@@2@@Z
_TEXT	SEGMENT
___x$ = 8						; size = 4
?_S_key@?$_Rb_tree@IU?$pair@$$CBIK@_STL@@U?$_Select1st@U?$pair@$$CBIK@_STL@@@2@U?$less@I@2@V?$allocator@U?$pair@$$CBIK@_STL@@@2@@_STL@@KAABIPAU?$_Rb_tree_node@U?$pair@$$CBIK@_STL@@@2@@Z PROC NEAR ; _STL::_Rb_tree<unsigned int,_STL::pair<unsigned int const ,unsigned long>,_STL::_Select1st<_STL::pair<unsigned int const ,unsigned long> >,_STL::less<unsigned int>,_STL::allocator<_STL::pair<unsigned int const ,unsigned long> > >::_S_key, COMDAT

; 280  :     { return _KeyOfValue()(_S_value(__x)); }

  00000	8b 44 24 04	 mov	 eax, DWORD PTR ___x$[esp-4]
  00004	83 c0 10	 add	 eax, 16			; 00000010H
  00007	c3		 ret	 0
?_S_key@?$_Rb_tree@IU?$pair@$$CBIK@_STL@@U?$_Select1st@U?$pair@$$CBIK@_STL@@@2@U?$less@I@2@V?$allocator@U?$pair@$$CBIK@_STL@@@2@@_STL@@KAABIPAU?$_Rb_tree_node@U?$pair@$$CBIK@_STL@@@2@@Z ENDP ; _STL::_Rb_tree<unsigned int,_STL::pair<unsigned int const ,unsigned long>,_STL::_Select1st<_STL::pair<unsigned int const ,unsigned long> >,_STL::less<unsigned int>,_STL::allocator<_STL::pair<unsigned int const ,unsigned long> > >::_S_key
_TEXT	ENDS
PUBLIC	?_S_key@?$_Rb_tree@IU?$pair@$$CBIK@_STL@@U?$_Select1st@U?$pair@$$CBIK@_STL@@@2@U?$less@I@2@V?$allocator@U?$pair@$$CBIK@_STL@@@2@@_STL@@KAABIPAU_Rb_tree_node_base@2@@Z ; _STL::_Rb_tree<unsigned int,_STL::pair<unsigned int const ,unsigned long>,_STL::_Select1st<_STL::pair<unsigned int const ,unsigned long> >,_STL::less<unsigned int>,_STL::allocator<_STL::pair<unsigned int const ,unsigned long> > >::_S_key
; Function compile flags: /Ogsy
;	COMDAT ?_S_key@?$_Rb_tree@IU?$pair@$$CBIK@_STL@@U?$_Select1st@U?$pair@$$CBIK@_STL@@@2@U?$less@I@2@V?$allocator@U?$pair@$$CBIK@_STL@@@2@@_STL@@KAABIPAU_Rb_tree_node_base@2@@Z
_TEXT	SEGMENT
___x$ = 8						; size = 4
?_S_key@?$_Rb_tree@IU?$pair@$$CBIK@_STL@@U?$_Select1st@U?$pair@$$CBIK@_STL@@@2@U?$less@I@2@V?$allocator@U?$pair@$$CBIK@_STL@@@2@@_STL@@KAABIPAU_Rb_tree_node_base@2@@Z PROC NEAR ; _STL::_Rb_tree<unsigned int,_STL::pair<unsigned int const ,unsigned long>,_STL::_Select1st<_STL::pair<unsigned int const ,unsigned long> >,_STL::less<unsigned int>,_STL::allocator<_STL::pair<unsigned int const ,unsigned long> > >::_S_key, COMDAT

; 293  :     { return _KeyOfValue()(_S_value(_Link_type(__x)));} 

  00000	8b 44 24 04	 mov	 eax, DWORD PTR ___x$[esp-4]
  00004	83 c0 10	 add	 eax, 16			; 00000010H
  00007	c3		 ret	 0
?_S_key@?$_Rb_tree@IU?$pair@$$CBIK@_STL@@U?$_Select1st@U?$pair@$$CBIK@_STL@@@2@U?$less@I@2@V?$allocator@U?$pair@$$CBIK@_STL@@@2@@_STL@@KAABIPAU_Rb_tree_node_base@2@@Z ENDP ; _STL::_Rb_tree<unsigned int,_STL::pair<unsigned int const ,unsigned long>,_STL::_Select1st<_STL::pair<unsigned int const ,unsigned long> >,_STL::less<unsigned int>,_STL::allocator<_STL::pair<unsigned int const ,unsigned long> > >::_S_key
_TEXT	ENDS
PUBLIC	??$_M_find@I@?$_Rb_tree@IU?$pair@$$CBIK@_STL@@U?$_Select1st@U?$pair@$$CBIK@_STL@@@2@U?$less@I@2@V?$allocator@U?$pair@$$CBIK@_STL@@@2@@_STL@@ABEPAU?$_Rb_tree_node@U?$pair@$$CBIK@_STL@@@1@ABI@Z ; _STL::_Rb_tree<unsigned int,_STL::pair<unsigned int const ,unsigned long>,_STL::_Select1st<_STL::pair<unsigned int const ,unsigned long> >,_STL::less<unsigned int>,_STL::allocator<_STL::pair<unsigned int const ,unsigned long> > >::_M_find<unsigned int>
; Function compile flags: /Ogsy
;	COMDAT ??$_M_find@I@?$_Rb_tree@IU?$pair@$$CBIK@_STL@@U?$_Select1st@U?$pair@$$CBIK@_STL@@@2@U?$less@I@2@V?$allocator@U?$pair@$$CBIK@_STL@@@2@@_STL@@ABEPAU?$_Rb_tree_node@U?$pair@$$CBIK@_STL@@@1@ABI@Z
_TEXT	SEGMENT
___k$ = 8						; size = 4
??$_M_find@I@?$_Rb_tree@IU?$pair@$$CBIK@_STL@@U?$_Select1st@U?$pair@$$CBIK@_STL@@@2@U?$less@I@2@V?$allocator@U?$pair@$$CBIK@_STL@@@2@@_STL@@ABEPAU?$_Rb_tree_node@U?$pair@$$CBIK@_STL@@@1@ABI@Z PROC NEAR ; _STL::_Rb_tree<unsigned int,_STL::pair<unsigned int const ,unsigned long>,_STL::_Select1st<_STL::pair<unsigned int const ,unsigned long> >,_STL::less<unsigned int>,_STL::allocator<_STL::pair<unsigned int const ,unsigned long> > >::_M_find<unsigned int>, COMDAT
; _this$ = ecx

; 462  : # else
; 463  :   iterator find(const key_type& __x) { return iterator(_M_find(__x)); }
; 464  :   const_iterator find(const key_type& __x) const { return const_iterator(_M_find(__x)); }
; 465  : private:
; 466  :   _Rb_tree_node<_Value>* _M_find(const key_type& __k) const
; 467  : # endif
; 468  :   {
; 469  :     _Link_type __y = this->_M_header._M_data;      // Last node which is not less than __k. 

  00000	8b 11		 mov	 edx, DWORD PTR [ecx]

; 470  :     _Link_type __x = _M_root();      // Current node. 

  00002	8b 4a 04	 mov	 ecx, DWORD PTR [edx+4]

; 471  :     
; 472  :     while (__x != 0) 

  00005	85 c9		 test	 ecx, ecx
  00007	57		 push	 edi
  00008	8b 7c 24 08	 mov	 edi, DWORD PTR ___k$[esp]
  0000c	8b c2		 mov	 eax, edx
  0000e	74 17		 je	 SHORT $L100951
  00010	56		 push	 esi
  00011	8b 37		 mov	 esi, DWORD PTR [edi]
$L100950:

; 473  :       if (!_M_key_compare(_S_key(__x), __k))

  00013	39 71 10	 cmp	 DWORD PTR [ecx+16], esi
  00016	72 07		 jb	 SHORT $L100952

; 474  : 	__y = __x, __x = _S_left(__x);

  00018	8b c1		 mov	 eax, ecx
  0001a	8b 49 08	 mov	 ecx, DWORD PTR [ecx+8]

; 475  :       else

  0001d	eb 03		 jmp	 SHORT $L100953
$L100952:

; 476  : 	__x = _S_right(__x);

  0001f	8b 49 0c	 mov	 ecx, DWORD PTR [ecx+12]
$L100953:

; 471  :     
; 472  :     while (__x != 0) 

  00022	85 c9		 test	 ecx, ecx
  00024	75 ed		 jne	 SHORT $L100950
  00026	5e		 pop	 esi
$L100951:

; 477  :     if (__y == this->_M_header._M_data || _M_key_compare(__k, _S_key(__y)))

  00027	3b c2		 cmp	 eax, edx
  00029	74 07		 je	 SHORT $L100955
  0002b	8b 0f		 mov	 ecx, DWORD PTR [edi]
  0002d	3b 48 10	 cmp	 ecx, DWORD PTR [eax+16]
  00030	73 02		 jae	 SHORT $L100954
$L100955:

; 478  :       __y = this->_M_header._M_data;

  00032	8b c2		 mov	 eax, edx
$L100954:
  00034	5f		 pop	 edi

; 479  :     return __y;
; 480  :   }

  00035	c2 04 00	 ret	 4
??$_M_find@I@?$_Rb_tree@IU?$pair@$$CBIK@_STL@@U?$_Select1st@U?$pair@$$CBIK@_STL@@@2@U?$less@I@2@V?$allocator@U?$pair@$$CBIK@_STL@@@2@@_STL@@ABEPAU?$_Rb_tree_node@U?$pair@$$CBIK@_STL@@@1@ABI@Z ENDP ; _STL::_Rb_tree<unsigned int,_STL::pair<unsigned int const ,unsigned long>,_STL::_Select1st<_STL::pair<unsigned int const ,unsigned long> >,_STL::less<unsigned int>,_STL::allocator<_STL::pair<unsigned int const ,unsigned long> > >::_M_find<unsigned int>
_TEXT	ENDS
PUBLIC	??$_Construct@U?$pair@$$CBIK@_STL@@U12@@_STL@@YAXPAU?$pair@$$CBIK@0@ABU10@@Z ; _STL::_Construct<_STL::pair<unsigned int const ,unsigned long>,_STL::pair<unsigned int const ,unsigned long> >
; Function compile flags: /Ogsy
; File c:\stlport-4.6.1\stlport\stl\_construct.h
;	COMDAT ??$_Construct@U?$pair@$$CBIK@_STL@@U12@@_STL@@YAXPAU?$pair@$$CBIK@0@ABU10@@Z
_TEXT	SEGMENT
___p$ = 8						; size = 4
___val$ = 12						; size = 4
??$_Construct@U?$pair@$$CBIK@_STL@@U12@@_STL@@YAXPAU?$pair@$$CBIK@0@ABU10@@Z PROC NEAR ; _STL::_Construct<_STL::pair<unsigned int const ,unsigned long>,_STL::pair<unsigned int const ,unsigned long> >, COMDAT

; 94   : # ifdef _STLP_DEBUG_UNINITIALIZED
; 95   : 	memset((char*)__p, _STLP_SHRED_BYTE, sizeof(_T1));
; 96   : # endif
; 97   :     _STLP_PLACEMENT_NEW (__p) _T1(__val);

  00000	8b 44 24 04	 mov	 eax, DWORD PTR ___p$[esp-4]
  00004	85 c0		 test	 eax, eax
  00006	74 0e		 je	 SHORT $L101606
  00008	8b 4c 24 08	 mov	 ecx, DWORD PTR ___val$[esp-4]
  0000c	8b 11		 mov	 edx, DWORD PTR [ecx]
  0000e	89 10		 mov	 DWORD PTR [eax], edx
  00010	8b 49 04	 mov	 ecx, DWORD PTR [ecx+4]
  00013	89 48 04	 mov	 DWORD PTR [eax+4], ecx
$L101606:

; 98   : }

  00016	c3		 ret	 0
??$_Construct@U?$pair@$$CBIK@_STL@@U12@@_STL@@YAXPAU?$pair@$$CBIK@0@ABU10@@Z ENDP ; _STL::_Construct<_STL::pair<unsigned int const ,unsigned long>,_STL::pair<unsigned int const ,unsigned long> >
_TEXT	ENDS
PUBLIC	?end@?$map@IKU?$less@I@_STL@@V?$allocator@U?$pair@$$CBIK@_STL@@@2@@_STL@@QAE?AU?$_Rb_tree_iterator@U?$pair@$$CBIK@_STL@@U?$_Nonconst_traits@U?$pair@$$CBIK@_STL@@@2@@2@XZ ; _STL::map<unsigned int,unsigned long,_STL::less<unsigned int>,_STL::allocator<_STL::pair<unsigned int const ,unsigned long> > >::end
; Function compile flags: /Ogsy
; File c:\stlport-4.6.1\stlport\stl\_map.h
;	COMDAT ?end@?$map@IKU?$less@I@_STL@@V?$allocator@U?$pair@$$CBIK@_STL@@@2@@_STL@@QAE?AU?$_Rb_tree_iterator@U?$pair@$$CBIK@_STL@@U?$_Nonconst_traits@U?$pair@$$CBIK@_STL@@@2@@2@XZ
_TEXT	SEGMENT
___$ReturnUdt$ = 8					; size = 4
?end@?$map@IKU?$less@I@_STL@@V?$allocator@U?$pair@$$CBIK@_STL@@@2@@_STL@@QAE?AU?$_Rb_tree_iterator@U?$pair@$$CBIK@_STL@@U?$_Nonconst_traits@U?$pair@$$CBIK@_STL@@@2@@2@XZ PROC NEAR ; _STL::map<unsigned int,unsigned long,_STL::less<unsigned int>,_STL::allocator<_STL::pair<unsigned int const ,unsigned long> > >::end, COMDAT
; _this$ = ecx

; 149  :   iterator end() { return _M_t.end(); }

  00000	8b 09		 mov	 ecx, DWORD PTR [ecx]
  00002	8b 44 24 04	 mov	 eax, DWORD PTR ___$ReturnUdt$[esp-4]
  00006	89 08		 mov	 DWORD PTR [eax], ecx
  00008	c2 04 00	 ret	 4
?end@?$map@IKU?$less@I@_STL@@V?$allocator@U?$pair@$$CBIK@_STL@@@2@@_STL@@QAE?AU?$_Rb_tree_iterator@U?$pair@$$CBIK@_STL@@U?$_Nonconst_traits@U?$pair@$$CBIK@_STL@@@2@@2@XZ ENDP ; _STL::map<unsigned int,unsigned long,_STL::less<unsigned int>,_STL::allocator<_STL::pair<unsigned int const ,unsigned long> > >::end
_TEXT	ENDS
PUBLIC	?erase@?$_Rb_tree@IU?$pair@$$CBIK@_STL@@U?$_Select1st@U?$pair@$$CBIK@_STL@@@2@U?$less@I@2@V?$allocator@U?$pair@$$CBIK@_STL@@@2@@_STL@@QAEXU?$_Rb_tree_iterator@U?$pair@$$CBIK@_STL@@U?$_Nonconst_traits@U?$pair@$$CBIK@_STL@@@2@@2@@Z ; _STL::_Rb_tree<unsigned int,_STL::pair<unsigned int const ,unsigned long>,_STL::_Select1st<_STL::pair<unsigned int const ,unsigned long> >,_STL::less<unsigned int>,_STL::allocator<_STL::pair<unsigned int const ,unsigned long> > >::erase
EXTRN	?_Rebalance_for_erase@?$_Rb_global@_N@_STL@@SAPAU_Rb_tree_node_base@2@PAU32@AAPAU32@11@Z:NEAR ; _STL::_Rb_global<bool>::_Rebalance_for_erase
; Function compile flags: /Ogsy
; File c:\stlport-4.6.1\stlport\stl\_tree.h
;	COMDAT ?erase@?$_Rb_tree@IU?$pair@$$CBIK@_STL@@U?$_Select1st@U?$pair@$$CBIK@_STL@@@2@U?$less@I@2@V?$allocator@U?$pair@$$CBIK@_STL@@@2@@_STL@@QAEXU?$_Rb_tree_iterator@U?$pair@$$CBIK@_STL@@U?$_Nonconst_traits@U?$pair@$$CBIK@_STL@@@2@@2@@Z
_TEXT	SEGMENT
___position$ = 8					; size = 4
?erase@?$_Rb_tree@IU?$pair@$$CBIK@_STL@@U?$_Select1st@U?$pair@$$CBIK@_STL@@@2@U?$less@I@2@V?$allocator@U?$pair@$$CBIK@_STL@@@2@@_STL@@QAEXU?$_Rb_tree_iterator@U?$pair@$$CBIK@_STL@@U?$_Nonconst_traits@U?$pair@$$CBIK@_STL@@@2@@2@@Z PROC NEAR ; _STL::_Rb_tree<unsigned int,_STL::pair<unsigned int const ,unsigned long>,_STL::_Select1st<_STL::pair<unsigned int const ,unsigned long> >,_STL::less<unsigned int>,_STL::allocator<_STL::pair<unsigned int const ,unsigned long> > >::erase, COMDAT
; _this$ = ecx

; 416  :   void erase(iterator __position) {

  00000	56		 push	 esi
  00001	8b f1		 mov	 esi, ecx

; 417  :     _Link_type __y = 
; 418  :       (_Link_type) _Rb_global_inst::_Rebalance_for_erase(__position._M_node,
; 419  : 							 this->_M_header._M_data->_M_parent,
; 420  : 							 this->_M_header._M_data->_M_left,
; 421  : 							 this->_M_header._M_data->_M_right);

  00003	8b 06		 mov	 eax, DWORD PTR [esi]
  00005	8d 48 0c	 lea	 ecx, DWORD PTR [eax+12]
  00008	51		 push	 ecx
  00009	8d 48 08	 lea	 ecx, DWORD PTR [eax+8]
  0000c	51		 push	 ecx
  0000d	83 c0 04	 add	 eax, 4
  00010	50		 push	 eax
  00011	ff 74 24 14	 push	 DWORD PTR ___position$[esp+12]
  00015	e8 00 00 00 00	 call	 ?_Rebalance_for_erase@?$_Rb_global@_N@_STL@@SAPAU_Rb_tree_node_base@2@PAU32@AAPAU32@11@Z ; _STL::_Rb_global<bool>::_Rebalance_for_erase
  0001a	83 c4 10	 add	 esp, 16			; 00000010H

; 422  :     _STLP_STD::_Destroy(&__y->_M_value_field);
; 423  :     this->_M_header.deallocate(__y,1);

  0001d	6a 01		 push	 1
  0001f	50		 push	 eax
  00020	8b ce		 mov	 ecx, esi
  00022	e8 00 00 00 00	 call	 ?deallocate@?$allocator@U?$_Rb_tree_node@U?$pair@$$CBIK@_STL@@@_STL@@@_STL@@QAEXPAU?$_Rb_tree_node@U?$pair@$$CBIK@_STL@@@2@I@Z ; _STL::allocator<_STL::_Rb_tree_node<_STL::pair<unsigned int const ,unsigned long> > >::deallocate

; 424  :     --_M_node_count;

  00027	ff 4e 04	 dec	 DWORD PTR [esi+4]
  0002a	5e		 pop	 esi

; 425  :   }

  0002b	c2 04 00	 ret	 4
?erase@?$_Rb_tree@IU?$pair@$$CBIK@_STL@@U?$_Select1st@U?$pair@$$CBIK@_STL@@@2@U?$less@I@2@V?$allocator@U?$pair@$$CBIK@_STL@@@2@@_STL@@QAEXU?$_Rb_tree_iterator@U?$pair@$$CBIK@_STL@@U?$_Nonconst_traits@U?$pair@$$CBIK@_STL@@@2@@2@@Z ENDP ; _STL::_Rb_tree<unsigned int,_STL::pair<unsigned int const ,unsigned long>,_STL::_Select1st<_STL::pair<unsigned int const ,unsigned long> >,_STL::less<unsigned int>,_STL::allocator<_STL::pair<unsigned int const ,unsigned long> > >::erase
_TEXT	ENDS
PUBLIC	?clear@?$_Rb_tree@IU?$pair@$$CBIK@_STL@@U?$_Select1st@U?$pair@$$CBIK@_STL@@@2@U?$less@I@2@V?$allocator@U?$pair@$$CBIK@_STL@@@2@@_STL@@QAEXXZ ; _STL::_Rb_tree<unsigned int,_STL::pair<unsigned int const ,unsigned long>,_STL::_Select1st<_STL::pair<unsigned int const ,unsigned long> >,_STL::less<unsigned int>,_STL::allocator<_STL::pair<unsigned int const ,unsigned long> > >::clear
; Function compile flags: /Ogsy
;	COMDAT ?clear@?$_Rb_tree@IU?$pair@$$CBIK@_STL@@U?$_Select1st@U?$pair@$$CBIK@_STL@@@2@U?$less@I@2@V?$allocator@U?$pair@$$CBIK@_STL@@@2@@_STL@@QAEXXZ
_TEXT	SEGMENT
?clear@?$_Rb_tree@IU?$pair@$$CBIK@_STL@@U?$_Select1st@U?$pair@$$CBIK@_STL@@@2@U?$less@I@2@V?$allocator@U?$pair@$$CBIK@_STL@@@2@@_STL@@QAEXXZ PROC NEAR ; _STL::_Rb_tree<unsigned int,_STL::pair<unsigned int const ,unsigned long>,_STL::_Select1st<_STL::pair<unsigned int const ,unsigned long> >,_STL::less<unsigned int>,_STL::allocator<_STL::pair<unsigned int const ,unsigned long> > >::clear, COMDAT
; _this$ = ecx

; 445  :   void clear() {

  00000	56		 push	 esi
  00001	8b f1		 mov	 esi, ecx

; 446  :     if (_M_node_count != 0) {

  00003	83 7e 04 00	 cmp	 DWORD PTR [esi+4], 0
  00007	74 1e		 je	 SHORT $L100531

; 447  :       _M_erase(_M_root());

  00009	8b 06		 mov	 eax, DWORD PTR [esi]
  0000b	ff 70 04	 push	 DWORD PTR [eax+4]
  0000e	e8 00 00 00 00	 call	 ?_M_erase@?$_Rb_tree@IU?$pair@$$CBIK@_STL@@U?$_Select1st@U?$pair@$$CBIK@_STL@@@2@U?$less@I@2@V?$allocator@U?$pair@$$CBIK@_STL@@@2@@_STL@@AAEXPAU?$_Rb_tree_node@U?$pair@$$CBIK@_STL@@@2@@Z ; _STL::_Rb_tree<unsigned int,_STL::pair<unsigned int const ,unsigned long>,_STL::_Select1st<_STL::pair<unsigned int const ,unsigned long> >,_STL::less<unsigned int>,_STL::allocator<_STL::pair<unsigned int const ,unsigned long> > >::_M_erase

; 448  :       _M_leftmost() = this->_M_header._M_data;

  00013	8b 06		 mov	 eax, DWORD PTR [esi]
  00015	89 40 08	 mov	 DWORD PTR [eax+8], eax

; 449  :       _M_root() = 0;

  00018	8b 06		 mov	 eax, DWORD PTR [esi]
  0001a	83 60 04 00	 and	 DWORD PTR [eax+4], 0

; 450  :       _M_rightmost() = this->_M_header._M_data;

  0001e	8b 06		 mov	 eax, DWORD PTR [esi]
  00020	89 40 0c	 mov	 DWORD PTR [eax+12], eax

; 451  :       _M_node_count = 0;

  00023	83 66 04 00	 and	 DWORD PTR [esi+4], 0
$L100531:
  00027	5e		 pop	 esi

; 452  :     }
; 453  :   }      

  00028	c3		 ret	 0
?clear@?$_Rb_tree@IU?$pair@$$CBIK@_STL@@U?$_Select1st@U?$pair@$$CBIK@_STL@@@2@U?$less@I@2@V?$allocator@U?$pair@$$CBIK@_STL@@@2@@_STL@@QAEXXZ ENDP ; _STL::_Rb_tree<unsigned int,_STL::pair<unsigned int const ,unsigned long>,_STL::_Select1st<_STL::pair<unsigned int const ,unsigned long> >,_STL::less<unsigned int>,_STL::allocator<_STL::pair<unsigned int const ,unsigned long> > >::clear
_TEXT	ENDS
PUBLIC	??1?$_Rb_tree_base@U?$pair@$$CBIK@_STL@@V?$allocator@U?$pair@$$CBIK@_STL@@@2@@_STL@@QAE@XZ ; _STL::_Rb_tree_base<_STL::pair<unsigned int const ,unsigned long>,_STL::allocator<_STL::pair<unsigned int const ,unsigned long> > >::~_Rb_tree_base<_STL::pair<unsigned int const ,unsigned long>,_STL::allocator<_STL::pair<unsigned int const ,unsigned long> > >
; Function compile flags: /Ogsy
;	COMDAT ??1?$_Rb_tree_base@U?$pair@$$CBIK@_STL@@V?$allocator@U?$pair@$$CBIK@_STL@@@2@@_STL@@QAE@XZ
_TEXT	SEGMENT
??1?$_Rb_tree_base@U?$pair@$$CBIK@_STL@@V?$allocator@U?$pair@$$CBIK@_STL@@@2@@_STL@@QAE@XZ PROC NEAR ; _STL::_Rb_tree_base<_STL::pair<unsigned int const ,unsigned long>,_STL::allocator<_STL::pair<unsigned int const ,unsigned long> > >::~_Rb_tree_base<_STL::pair<unsigned int const ,unsigned long>,_STL::allocator<_STL::pair<unsigned int const ,unsigned long> > >, COMDAT
; _this$ = ecx

; 208  :     _M_header.deallocate(_M_header._M_data,1); 

  00000	6a 01		 push	 1
  00002	ff 31		 push	 DWORD PTR [ecx]
  00004	e8 00 00 00 00	 call	 ?deallocate@?$allocator@U?$_Rb_tree_node@U?$pair@$$CBIK@_STL@@@_STL@@@_STL@@QAEXPAU?$_Rb_tree_node@U?$pair@$$CBIK@_STL@@@2@I@Z ; _STL::allocator<_STL::_Rb_tree_node<_STL::pair<unsigned int const ,unsigned long> > >::deallocate

; 209  :   }

  00009	c3		 ret	 0
??1?$_Rb_tree_base@U?$pair@$$CBIK@_STL@@V?$allocator@U?$pair@$$CBIK@_STL@@@2@@_STL@@QAE@XZ ENDP ; _STL::_Rb_tree_base<_STL::pair<unsigned int const ,unsigned long>,_STL::allocator<_STL::pair<unsigned int const ,unsigned long> > >::~_Rb_tree_base<_STL::pair<unsigned int const ,unsigned long>,_STL::allocator<_STL::pair<unsigned int const ,unsigned long> > >
_TEXT	ENDS
PUBLIC	??0?$_Rb_tree_base@U?$pair@$$CBIK@_STL@@V?$allocator@U?$pair@$$CBIK@_STL@@@2@@_STL@@QAE@ABV?$allocator@U?$pair@$$CBIK@_STL@@@1@@Z ; _STL::_Rb_tree_base<_STL::pair<unsigned int const ,unsigned long>,_STL::allocator<_STL::pair<unsigned int const ,unsigned long> > >::_Rb_tree_base<_STL::pair<unsigned int const ,unsigned long>,_STL::allocator<_STL::pair<unsigned int const ,unsigned long> > >
; Function compile flags: /Ogsy
;	COMDAT ??0?$_Rb_tree_base@U?$pair@$$CBIK@_STL@@V?$allocator@U?$pair@$$CBIK@_STL@@@2@@_STL@@QAE@ABV?$allocator@U?$pair@$$CBIK@_STL@@@1@@Z
_TEXT	SEGMENT
$T101654 = -1						; size = 1
___a$ = 8						; size = 4
??0?$_Rb_tree_base@U?$pair@$$CBIK@_STL@@V?$allocator@U?$pair@$$CBIK@_STL@@@2@@_STL@@QAE@ABV?$allocator@U?$pair@$$CBIK@_STL@@@1@@Z PROC NEAR ; _STL::_Rb_tree_base<_STL::pair<unsigned int const ,unsigned long>,_STL::allocator<_STL::pair<unsigned int const ,unsigned long> > >::_Rb_tree_base<_STL::pair<unsigned int const ,unsigned long>,_STL::allocator<_STL::pair<unsigned int const ,unsigned long> > >, COMDAT
; _this$ = ecx

; 204  :     _M_header(_STLP_CONVERT_ALLOCATOR(__a, _Node), (_Node*)0) { 

  00000	51		 push	 ecx
  00001	56		 push	 esi
  00002	6a 00		 push	 0
  00004	8d 44 24 0b	 lea	 eax, DWORD PTR $T101654[esp+12]
  00008	50		 push	 eax
  00009	8b f1		 mov	 esi, ecx
  0000b	e8 00 00 00 00	 call	 ??0?$_STLP_alloc_proxy@PAU?$_Rb_tree_node@U?$pair@$$CBIK@_STL@@@_STL@@U12@V?$allocator@U?$_Rb_tree_node@U?$pair@$$CBIK@_STL@@@_STL@@@2@@_STL@@QAE@ABV?$allocator@U?$_Rb_tree_node@U?$pair@$$CBIK@_STL@@@_STL@@@1@PAU?$_Rb_tree_node@U?$pair@$$CBIK@_STL@@@1@@Z ; _STL::_STLP_alloc_proxy<_STL::_Rb_tree_node<_STL::pair<unsigned int const ,unsigned long> > *,_STL::_Rb_tree_node<_STL::pair<unsigned int const ,unsigned long> >,_STL::allocator<_STL::_Rb_tree_node<_STL::pair<unsigned int const ,unsigned long> > > >::_STLP_alloc_proxy<_STL::_Rb_tree_node<_STL::pair<unsigned int const ,unsigned long> > *,_STL::_Rb_tree_node<_STL::pair<unsigned int const ,unsigned long> >,_STL::allocator<_STL::_Rb_tree_node<_STL::pair<unsigned int const ,unsigned long> > > >

; 205  :       _M_header._M_data = _M_header.allocate(1); 

  00010	6a 18		 push	 24			; 00000018H
  00012	e8 00 00 00 00	 call	 ?allocate@?$__node_alloc@$00$0A@@_STL@@SAPAXI@Z ; _STL::__node_alloc<1,0>::allocate
  00017	89 06		 mov	 DWORD PTR [esi], eax
  00019	59		 pop	 ecx

; 206  :   }

  0001a	8b c6		 mov	 eax, esi
  0001c	5e		 pop	 esi
  0001d	59		 pop	 ecx
  0001e	c2 04 00	 ret	 4
??0?$_Rb_tree_base@U?$pair@$$CBIK@_STL@@V?$allocator@U?$pair@$$CBIK@_STL@@@2@@_STL@@QAE@ABV?$allocator@U?$pair@$$CBIK@_STL@@@1@@Z ENDP ; _STL::_Rb_tree_base<_STL::pair<unsigned int const ,unsigned long>,_STL::allocator<_STL::pair<unsigned int const ,unsigned long> > >::_Rb_tree_base<_STL::pair<unsigned int const ,unsigned long>,_STL::allocator<_STL::pair<unsigned int const ,unsigned long> > >
_TEXT	ENDS
PUBLIC	??$find@I@?$_Rb_tree@IU?$pair@$$CBIK@_STL@@U?$_Select1st@U?$pair@$$CBIK@_STL@@@2@U?$less@I@2@V?$allocator@U?$pair@$$CBIK@_STL@@@2@@_STL@@QAE?AU?$_Rb_tree_iterator@U?$pair@$$CBIK@_STL@@U?$_Nonconst_traits@U?$pair@$$CBIK@_STL@@@2@@1@ABI@Z ; _STL::_Rb_tree<unsigned int,_STL::pair<unsigned int const ,unsigned long>,_STL::_Select1st<_STL::pair<unsigned int const ,unsigned long> >,_STL::less<unsigned int>,_STL::allocator<_STL::pair<unsigned int const ,unsigned long> > >::find<unsigned int>
; Function compile flags: /Ogsy
;	COMDAT ??$find@I@?$_Rb_tree@IU?$pair@$$CBIK@_STL@@U?$_Select1st@U?$pair@$$CBIK@_STL@@@2@U?$less@I@2@V?$allocator@U?$pair@$$CBIK@_STL@@@2@@_STL@@QAE?AU?$_Rb_tree_iterator@U?$pair@$$CBIK@_STL@@U?$_Nonconst_traits@U?$pair@$$CBIK@_STL@@@2@@1@ABI@Z
_TEXT	SEGMENT
___$ReturnUdt$ = 8					; size = 4
___x$ = 12						; size = 4
??$find@I@?$_Rb_tree@IU?$pair@$$CBIK@_STL@@U?$_Select1st@U?$pair@$$CBIK@_STL@@@2@U?$less@I@2@V?$allocator@U?$pair@$$CBIK@_STL@@@2@@_STL@@QAE?AU?$_Rb_tree_iterator@U?$pair@$$CBIK@_STL@@U?$_Nonconst_traits@U?$pair@$$CBIK@_STL@@@2@@1@ABI@Z PROC NEAR ; _STL::_Rb_tree<unsigned int,_STL::pair<unsigned int const ,unsigned long>,_STL::_Select1st<_STL::pair<unsigned int const ,unsigned long> >,_STL::less<unsigned int>,_STL::allocator<_STL::pair<unsigned int const ,unsigned long> > >::find<unsigned int>, COMDAT
; _this$ = ecx

; 458  :   template <class _KT> iterator find(const _KT& __x) { return iterator(_M_find(__x)); }

  00000	ff 74 24 08	 push	 DWORD PTR ___x$[esp-4]
  00004	e8 00 00 00 00	 call	 ??$_M_find@I@?$_Rb_tree@IU?$pair@$$CBIK@_STL@@U?$_Select1st@U?$pair@$$CBIK@_STL@@@2@U?$less@I@2@V?$allocator@U?$pair@$$CBIK@_STL@@@2@@_STL@@ABEPAU?$_Rb_tree_node@U?$pair@$$CBIK@_STL@@@1@ABI@Z ; _STL::_Rb_tree<unsigned int,_STL::pair<unsigned int const ,unsigned long>,_STL::_Select1st<_STL::pair<unsigned int const ,unsigned long> >,_STL::less<unsigned int>,_STL::allocator<_STL::pair<unsigned int const ,unsigned long> > >::_M_find<unsigned int>
  00009	8b 4c 24 04	 mov	 ecx, DWORD PTR ___$ReturnUdt$[esp-4]
  0000d	89 01		 mov	 DWORD PTR [ecx], eax
  0000f	8b c1		 mov	 eax, ecx
  00011	c2 08 00	 ret	 8
??$find@I@?$_Rb_tree@IU?$pair@$$CBIK@_STL@@U?$_Select1st@U?$pair@$$CBIK@_STL@@@2@U?$less@I@2@V?$allocator@U?$pair@$$CBIK@_STL@@@2@@_STL@@QAE?AU?$_Rb_tree_iterator@U?$pair@$$CBIK@_STL@@U?$_Nonconst_traits@U?$pair@$$CBIK@_STL@@@2@@1@ABI@Z ENDP ; _STL::_Rb_tree<unsigned int,_STL::pair<unsigned int const ,unsigned long>,_STL::_Select1st<_STL::pair<unsigned int const ,unsigned long> >,_STL::less<unsigned int>,_STL::allocator<_STL::pair<unsigned int const ,unsigned long> > >::find<unsigned int>
_TEXT	ENDS
PUBLIC	?_M_create_node@?$_Rb_tree@IU?$pair@$$CBIK@_STL@@U?$_Select1st@U?$pair@$$CBIK@_STL@@@2@U?$less@I@2@V?$allocator@U?$pair@$$CBIK@_STL@@@2@@_STL@@IAEPAU?$_Rb_tree_node@U?$pair@$$CBIK@_STL@@@2@ABU?$pair@$$CBIK@2@@Z ; _STL::_Rb_tree<unsigned int,_STL::pair<unsigned int const ,unsigned long>,_STL::_Select1st<_STL::pair<unsigned int const ,unsigned long> >,_STL::less<unsigned int>,_STL::allocator<_STL::pair<unsigned int const ,unsigned long> > >::_M_create_node
EXTRN	__CxxThrowException@8:NEAR
; Function compile flags: /Ogsy
;	COMDAT ?_M_create_node@?$_Rb_tree@IU?$pair@$$CBIK@_STL@@U?$_Select1st@U?$pair@$$CBIK@_STL@@@2@U?$less@I@2@V?$allocator@U?$pair@$$CBIK@_STL@@@2@@_STL@@IAEPAU?$_Rb_tree_node@U?$pair@$$CBIK@_STL@@@2@ABU?$pair@$$CBIK@2@@Z
_TEXT	SEGMENT
___x$ = 8						; size = 4
?_M_create_node@?$_Rb_tree@IU?$pair@$$CBIK@_STL@@U?$_Select1st@U?$pair@$$CBIK@_STL@@@2@U?$less@I@2@V?$allocator@U?$pair@$$CBIK@_STL@@@2@@_STL@@IAEPAU?$_Rb_tree_node@U?$pair@$$CBIK@_STL@@@2@ABU?$pair@$$CBIK@2@@Z PROC NEAR ; _STL::_Rb_tree<unsigned int,_STL::pair<unsigned int const ,unsigned long>,_STL::_Select1st<_STL::pair<unsigned int const ,unsigned long> >,_STL::less<unsigned int>,_STL::allocator<_STL::pair<unsigned int const ,unsigned long> > >::_M_create_node, COMDAT
; _this$ = ecx

; 242  :   {

  00000	56		 push	 esi

; 243  :     _Link_type __tmp = this->_M_header.allocate(1);

  00001	6a 18		 push	 24			; 00000018H
  00003	e8 00 00 00 00	 call	 ?allocate@?$__node_alloc@$00$0A@@_STL@@SAPAXI@Z ; _STL::__node_alloc<1,0>::allocate

; 244  :     _STLP_TRY {
; 245  :       _Construct(&__tmp->_M_value_field, __x);

  00008	ff 74 24 0c	 push	 DWORD PTR ___x$[esp+4]
  0000c	8b f0		 mov	 esi, eax
  0000e	8d 46 10	 lea	 eax, DWORD PTR [esi+16]
  00011	50		 push	 eax
  00012	e8 00 00 00 00	 call	 ??$_Construct@U?$pair@$$CBIK@_STL@@U12@@_STL@@YAXPAU?$pair@$$CBIK@0@ABU10@@Z ; _STL::_Construct<_STL::pair<unsigned int const ,unsigned long>,_STL::pair<unsigned int const ,unsigned long> >
  00017	83 c4 0c	 add	 esp, 12			; 0000000cH

; 246  :     }
; 247  :     _STLP_UNWIND(this->_M_header.deallocate(__tmp,1));
; 248  :     return __tmp;

  0001a	8b c6		 mov	 eax, esi
  0001c	5e		 pop	 esi

; 249  :   }

  0001d	c2 04 00	 ret	 4
?_M_create_node@?$_Rb_tree@IU?$pair@$$CBIK@_STL@@U?$_Select1st@U?$pair@$$CBIK@_STL@@@2@U?$less@I@2@V?$allocator@U?$pair@$$CBIK@_STL@@@2@@_STL@@IAEPAU?$_Rb_tree_node@U?$pair@$$CBIK@_STL@@@2@ABU?$pair@$$CBIK@2@@Z ENDP ; _STL::_Rb_tree<unsigned int,_STL::pair<unsigned int const ,unsigned long>,_STL::_Select1st<_STL::pair<unsigned int const ,unsigned long> >,_STL::less<unsigned int>,_STL::allocator<_STL::pair<unsigned int const ,unsigned long> > >::_M_create_node
_TEXT	ENDS
PUBLIC	?erase@?$map@IKU?$less@I@_STL@@V?$allocator@U?$pair@$$CBIK@_STL@@@2@@_STL@@QAEXU?$_Rb_tree_iterator@U?$pair@$$CBIK@_STL@@U?$_Nonconst_traits@U?$pair@$$CBIK@_STL@@@2@@2@@Z ; _STL::map<unsigned int,unsigned long,_STL::less<unsigned int>,_STL::allocator<_STL::pair<unsigned int const ,unsigned long> > >::erase
; Function compile flags: /Ogsy
; File c:\stlport-4.6.1\stlport\stl\_map.h
;	COMDAT ?erase@?$map@IKU?$less@I@_STL@@V?$allocator@U?$pair@$$CBIK@_STL@@@2@@_STL@@QAEXU?$_Rb_tree_iterator@U?$pair@$$CBIK@_STL@@U?$_Nonconst_traits@U?$pair@$$CBIK@_STL@@@2@@2@@Z
_TEXT	SEGMENT
___position$ = 8					; size = 4
?erase@?$map@IKU?$less@I@_STL@@V?$allocator@U?$pair@$$CBIK@_STL@@@2@@_STL@@QAEXU?$_Rb_tree_iterator@U?$pair@$$CBIK@_STL@@U?$_Nonconst_traits@U?$pair@$$CBIK@_STL@@@2@@2@@Z PROC NEAR ; _STL::map<unsigned int,unsigned long,_STL::less<unsigned int>,_STL::allocator<_STL::pair<unsigned int const ,unsigned long> > >::erase, COMDAT
; _this$ = ecx

; 187  :   void erase(iterator __position) { _M_t.erase(__position); }

  00000	8b 54 24 04	 mov	 edx, DWORD PTR ___position$[esp-4]
  00004	51		 push	 ecx
  00005	8b c4		 mov	 eax, esp
  00007	89 10		 mov	 DWORD PTR [eax], edx
  00009	e8 00 00 00 00	 call	 ?erase@?$_Rb_tree@IU?$pair@$$CBIK@_STL@@U?$_Select1st@U?$pair@$$CBIK@_STL@@@2@U?$less@I@2@V?$allocator@U?$pair@$$CBIK@_STL@@@2@@_STL@@QAEXU?$_Rb_tree_iterator@U?$pair@$$CBIK@_STL@@U?$_Nonconst_traits@U?$pair@$$CBIK@_STL@@@2@@2@@Z ; _STL::_Rb_tree<unsigned int,_STL::pair<unsigned int const ,unsigned long>,_STL::_Select1st<_STL::pair<unsigned int const ,unsigned long> >,_STL::less<unsigned int>,_STL::allocator<_STL::pair<unsigned int const ,unsigned long> > >::erase
  0000e	c2 04 00	 ret	 4
?erase@?$map@IKU?$less@I@_STL@@V?$allocator@U?$pair@$$CBIK@_STL@@@2@@_STL@@QAEXU?$_Rb_tree_iterator@U?$pair@$$CBIK@_STL@@U?$_Nonconst_traits@U?$pair@$$CBIK@_STL@@@2@@2@@Z ENDP ; _STL::map<unsigned int,unsigned long,_STL::less<unsigned int>,_STL::allocator<_STL::pair<unsigned int const ,unsigned long> > >::erase
_TEXT	ENDS
PUBLIC	?clear@?$map@IKU?$less@I@_STL@@V?$allocator@U?$pair@$$CBIK@_STL@@@2@@_STL@@QAEXXZ ; _STL::map<unsigned int,unsigned long,_STL::less<unsigned int>,_STL::allocator<_STL::pair<unsigned int const ,unsigned long> > >::clear
; Function compile flags: /Ogsy
;	COMDAT ?clear@?$map@IKU?$less@I@_STL@@V?$allocator@U?$pair@$$CBIK@_STL@@@2@@_STL@@QAEXXZ
_TEXT	SEGMENT
?clear@?$map@IKU?$less@I@_STL@@V?$allocator@U?$pair@$$CBIK@_STL@@@2@@_STL@@QAEXXZ PROC NEAR ; _STL::map<unsigned int,unsigned long,_STL::less<unsigned int>,_STL::allocator<_STL::pair<unsigned int const ,unsigned long> > >::clear, COMDAT
; _this$ = ecx

; 191  :   void clear() { _M_t.clear(); }

  00000	e9 00 00 00 00	 jmp	 ?clear@?$_Rb_tree@IU?$pair@$$CBIK@_STL@@U?$_Select1st@U?$pair@$$CBIK@_STL@@@2@U?$less@I@2@V?$allocator@U?$pair@$$CBIK@_STL@@@2@@_STL@@QAEXXZ ; _STL::_Rb_tree<unsigned int,_STL::pair<unsigned int const ,unsigned long>,_STL::_Select1st<_STL::pair<unsigned int const ,unsigned long> >,_STL::less<unsigned int>,_STL::allocator<_STL::pair<unsigned int const ,unsigned long> > >::clear
?clear@?$map@IKU?$less@I@_STL@@V?$allocator@U?$pair@$$CBIK@_STL@@@2@@_STL@@QAEXXZ ENDP ; _STL::map<unsigned int,unsigned long,_STL::less<unsigned int>,_STL::allocator<_STL::pair<unsigned int const ,unsigned long> > >::clear
_TEXT	ENDS
PUBLIC	?find@?$map@IKU?$less@I@_STL@@V?$allocator@U?$pair@$$CBIK@_STL@@@2@@_STL@@QAE?AU?$_Rb_tree_iterator@U?$pair@$$CBIK@_STL@@U?$_Nonconst_traits@U?$pair@$$CBIK@_STL@@@2@@2@ABI@Z ; _STL::map<unsigned int,unsigned long,_STL::less<unsigned int>,_STL::allocator<_STL::pair<unsigned int const ,unsigned long> > >::find
; Function compile flags: /Ogsy
;	COMDAT ?find@?$map@IKU?$less@I@_STL@@V?$allocator@U?$pair@$$CBIK@_STL@@@2@@_STL@@QAE?AU?$_Rb_tree_iterator@U?$pair@$$CBIK@_STL@@U?$_Nonconst_traits@U?$pair@$$CBIK@_STL@@@2@@2@ABI@Z
_TEXT	SEGMENT
___$ReturnUdt$ = 8					; size = 4
___x$ = 12						; size = 4
?find@?$map@IKU?$less@I@_STL@@V?$allocator@U?$pair@$$CBIK@_STL@@@2@@_STL@@QAE?AU?$_Rb_tree_iterator@U?$pair@$$CBIK@_STL@@U?$_Nonconst_traits@U?$pair@$$CBIK@_STL@@@2@@2@ABI@Z PROC NEAR ; _STL::map<unsigned int,unsigned long,_STL::less<unsigned int>,_STL::allocator<_STL::pair<unsigned int const ,unsigned long> > >::find, COMDAT
; _this$ = ecx

; 195  :   iterator find(const key_type& __x) { return _M_t.find(__x); }

  00000	ff 74 24 08	 push	 DWORD PTR ___x$[esp-4]
  00004	e8 00 00 00 00	 call	 ??$_M_find@I@?$_Rb_tree@IU?$pair@$$CBIK@_STL@@U?$_Select1st@U?$pair@$$CBIK@_STL@@@2@U?$less@I@2@V?$allocator@U?$pair@$$CBIK@_STL@@@2@@_STL@@ABEPAU?$_Rb_tree_node@U?$pair@$$CBIK@_STL@@@1@ABI@Z ; _STL::_Rb_tree<unsigned int,_STL::pair<unsigned int const ,unsigned long>,_STL::_Select1st<_STL::pair<unsigned int const ,unsigned long> >,_STL::less<unsigned int>,_STL::allocator<_STL::pair<unsigned int const ,unsigned long> > >::_M_find<unsigned int>
  00009	8b 4c 24 04	 mov	 ecx, DWORD PTR ___$ReturnUdt$[esp-4]
  0000d	89 01		 mov	 DWORD PTR [ecx], eax
  0000f	8b c1		 mov	 eax, ecx
  00011	c2 08 00	 ret	 8
?find@?$map@IKU?$less@I@_STL@@V?$allocator@U?$pair@$$CBIK@_STL@@@2@@_STL@@QAE?AU?$_Rb_tree_iterator@U?$pair@$$CBIK@_STL@@U?$_Nonconst_traits@U?$pair@$$CBIK@_STL@@@2@@2@ABI@Z ENDP ; _STL::map<unsigned int,unsigned long,_STL::less<unsigned int>,_STL::allocator<_STL::pair<unsigned int const ,unsigned long> > >::find
_TEXT	ENDS
PUBLIC	??1?$_Rb_tree@IU?$pair@$$CBIK@_STL@@U?$_Select1st@U?$pair@$$CBIK@_STL@@@2@U?$less@I@2@V?$allocator@U?$pair@$$CBIK@_STL@@@2@@_STL@@QAE@XZ ; _STL::_Rb_tree<unsigned int,_STL::pair<unsigned int const ,unsigned long>,_STL::_Select1st<_STL::pair<unsigned int const ,unsigned long> >,_STL::less<unsigned int>,_STL::allocator<_STL::pair<unsigned int const ,unsigned long> > >::~_Rb_tree<unsigned int,_STL::pair<unsigned int const ,unsigned long>,_STL::_Select1st<_STL::pair<unsigned int const ,unsigned long> >,_STL::less<unsigned int>,_STL::allocator<_STL::pair<unsigned int const ,unsigned long> > >
EXTRN	__EH_prolog:NEAR
EXTRN	__except_list:DWORD
EXTRN	___CxxFrameHandler:NEAR
;	COMDAT xdata$x
; File c:\stlport-4.6.1\stlport\stl\_alloc.h
xdata$x	SEGMENT
$T101736 DD	0ffffffffH
	DD	FLAT:$L101715
$T101732 DD	019930520H
	DD	01H
	DD	FLAT:$T101736
	DD	2 DUP(00H)
	DD	2 DUP(00H)
; Function compile flags: /Ogsy
; File c:\stlport-4.6.1\stlport\stl\_tree.h
xdata$x	ENDS
;	COMDAT ??1?$_Rb_tree@IU?$pair@$$CBIK@_STL@@U?$_Select1st@U?$pair@$$CBIK@_STL@@@2@U?$less@I@2@V?$allocator@U?$pair@$$CBIK@_STL@@@2@@_STL@@QAE@XZ
_TEXT	SEGMENT
_this$ = -16						; size = 4
__$EHRec$ = -12						; size = 12
??1?$_Rb_tree@IU?$pair@$$CBIK@_STL@@U?$_Select1st@U?$pair@$$CBIK@_STL@@@2@U?$less@I@2@V?$allocator@U?$pair@$$CBIK@_STL@@@2@@_STL@@QAE@XZ PROC NEAR ; _STL::_Rb_tree<unsigned int,_STL::pair<unsigned int const ,unsigned long>,_STL::_Select1st<_STL::pair<unsigned int const ,unsigned long> >,_STL::less<unsigned int>,_STL::allocator<_STL::pair<unsigned int const ,unsigned long> > >::~_Rb_tree<unsigned int,_STL::pair<unsigned int const ,unsigned long>,_STL::_Select1st<_STL::pair<unsigned int const ,unsigned long> >,_STL::less<unsigned int>,_STL::allocator<_STL::pair<unsigned int const ,unsigned long> > >, COMDAT
; _this$ = ecx

; 341  :   ~_Rb_tree() { clear(); }

  00000	b8 00 00 00 00	 mov	 eax, __ehhandler$??1?$_Rb_tree@IU?$pair@$$CBIK@_STL@@U?$_Select1st@U?$pair@$$CBIK@_STL@@@2@U?$less@I@2@V?$allocator@U?$pair@$$CBIK@_STL@@@2@@_STL@@QAE@XZ
  00005	e8 00 00 00 00	 call	 __EH_prolog
  0000a	51		 push	 ecx
  0000b	56		 push	 esi
  0000c	8b f1		 mov	 esi, ecx
  0000e	89 75 f0	 mov	 DWORD PTR _this$[ebp], esi
  00011	83 65 fc 00	 and	 DWORD PTR __$EHRec$[ebp+8], 0
  00015	e8 00 00 00 00	 call	 ?clear@?$_Rb_tree@IU?$pair@$$CBIK@_STL@@U?$_Select1st@U?$pair@$$CBIK@_STL@@@2@U?$less@I@2@V?$allocator@U?$pair@$$CBIK@_STL@@@2@@_STL@@QAEXXZ ; _STL::_Rb_tree<unsigned int,_STL::pair<unsigned int const ,unsigned long>,_STL::_Select1st<_STL::pair<unsigned int const ,unsigned long> >,_STL::less<unsigned int>,_STL::allocator<_STL::pair<unsigned int const ,unsigned long> > >::clear
  0001a	83 4d fc ff	 or	 DWORD PTR __$EHRec$[ebp+8], -1
  0001e	6a 01		 push	 1
  00020	ff 36		 push	 DWORD PTR [esi]
  00022	8b ce		 mov	 ecx, esi
  00024	e8 00 00 00 00	 call	 ?deallocate@?$allocator@U?$_Rb_tree_node@U?$pair@$$CBIK@_STL@@@_STL@@@_STL@@QAEXPAU?$_Rb_tree_node@U?$pair@$$CBIK@_STL@@@2@I@Z ; _STL::allocator<_STL::_Rb_tree_node<_STL::pair<unsigned int const ,unsigned long> > >::deallocate
  00029	8b 4d f4	 mov	 ecx, DWORD PTR __$EHRec$[ebp]
  0002c	5e		 pop	 esi
  0002d	64 89 0d 00 00
	00 00		 mov	 DWORD PTR fs:__except_list, ecx
  00034	c9		 leave
  00035	c3		 ret	 0
_TEXT	ENDS
;	COMDAT text$x
text$x	SEGMENT
$L101715:
  00000	8b 4d f0	 mov	 ecx, DWORD PTR _this$[ebp]
  00003	e9 00 00 00 00	 jmp	 ??1?$_Rb_tree_base@U?$pair@$$CBIK@_STL@@V?$allocator@U?$pair@$$CBIK@_STL@@@2@@_STL@@QAE@XZ ; _STL::_Rb_tree_base<_STL::pair<unsigned int const ,unsigned long>,_STL::allocator<_STL::pair<unsigned int const ,unsigned long> > >::~_Rb_tree_base<_STL::pair<unsigned int const ,unsigned long>,_STL::allocator<_STL::pair<unsigned int const ,unsigned long> > >
__ehhandler$??1?$_Rb_tree@IU?$pair@$$CBIK@_STL@@U?$_Select1st@U?$pair@$$CBIK@_STL@@@2@U?$less@I@2@V?$allocator@U?$pair@$$CBIK@_STL@@@2@@_STL@@QAE@XZ:
  00008	b8 00 00 00 00	 mov	 eax, OFFSET FLAT:$T101732
  0000d	e9 00 00 00 00	 jmp	 ___CxxFrameHandler
text$x	ENDS
??1?$_Rb_tree@IU?$pair@$$CBIK@_STL@@U?$_Select1st@U?$pair@$$CBIK@_STL@@@2@U?$less@I@2@V?$allocator@U?$pair@$$CBIK@_STL@@@2@@_STL@@QAE@XZ ENDP ; _STL::_Rb_tree<unsigned int,_STL::pair<unsigned int const ,unsigned long>,_STL::_Select1st<_STL::pair<unsigned int const ,unsigned long> >,_STL::less<unsigned int>,_STL::allocator<_STL::pair<unsigned int const ,unsigned long> > >::~_Rb_tree<unsigned int,_STL::pair<unsigned int const ,unsigned long>,_STL::_Select1st<_STL::pair<unsigned int const ,unsigned long> >,_STL::less<unsigned int>,_STL::allocator<_STL::pair<unsigned int const ,unsigned long> > >
PUBLIC	??0?$_Rb_tree@IU?$pair@$$CBIK@_STL@@U?$_Select1st@U?$pair@$$CBIK@_STL@@@2@U?$less@I@2@V?$allocator@U?$pair@$$CBIK@_STL@@@2@@_STL@@QAE@ABU?$less@I@1@ABV?$allocator@U?$pair@$$CBIK@_STL@@@1@@Z ; _STL::_Rb_tree<unsigned int,_STL::pair<unsigned int const ,unsigned long>,_STL::_Select1st<_STL::pair<unsigned int const ,unsigned long> >,_STL::less<unsigned int>,_STL::allocator<_STL::pair<unsigned int const ,unsigned long> > >::_Rb_tree<unsigned int,_STL::pair<unsigned int const ,unsigned long>,_STL::_Select1st<_STL::pair<unsigned int const ,unsigned long> >,_STL::less<unsigned int>,_STL::allocator<_STL::pair<unsigned int const ,unsigned long> > >
; Function compile flags: /Ogsy
;	COMDAT ??0?$_Rb_tree@IU?$pair@$$CBIK@_STL@@U?$_Select1st@U?$pair@$$CBIK@_STL@@@2@U?$less@I@2@V?$allocator@U?$pair@$$CBIK@_STL@@@2@@_STL@@QAE@ABU?$less@I@1@ABV?$allocator@U?$pair@$$CBIK@_STL@@@1@@Z
_TEXT	SEGMENT
___comp$ = 8						; size = 4
___a$ = 12						; size = 4
??0?$_Rb_tree@IU?$pair@$$CBIK@_STL@@U?$_Select1st@U?$pair@$$CBIK@_STL@@@2@U?$less@I@2@V?$allocator@U?$pair@$$CBIK@_STL@@@2@@_STL@@QAE@ABU?$less@I@1@ABV?$allocator@U?$pair@$$CBIK@_STL@@@1@@Z PROC NEAR ; _STL::_Rb_tree<unsigned int,_STL::pair<unsigned int const ,unsigned long>,_STL::_Select1st<_STL::pair<unsigned int const ,unsigned long> >,_STL::less<unsigned int>,_STL::allocator<_STL::pair<unsigned int const ,unsigned long> > >::_Rb_tree<unsigned int,_STL::pair<unsigned int const ,unsigned long>,_STL::_Select1st<_STL::pair<unsigned int const ,unsigned long> >,_STL::less<unsigned int>,_STL::allocator<_STL::pair<unsigned int const ,unsigned long> > >, COMDAT
; _this$ = ecx

; 325  :     { _M_empty_initialize(); }

  00000	56		 push	 esi
  00001	ff 74 24 0c	 push	 DWORD PTR ___a$[esp]
  00005	8b f1		 mov	 esi, ecx
  00007	e8 00 00 00 00	 call	 ??0?$_Rb_tree_base@U?$pair@$$CBIK@_STL@@V?$allocator@U?$pair@$$CBIK@_STL@@@2@@_STL@@QAE@ABV?$allocator@U?$pair@$$CBIK@_STL@@@1@@Z ; _STL::_Rb_tree_base<_STL::pair<unsigned int const ,unsigned long>,_STL::allocator<_STL::pair<unsigned int const ,unsigned long> > >::_Rb_tree_base<_STL::pair<unsigned int const ,unsigned long>,_STL::allocator<_STL::pair<unsigned int const ,unsigned long> > >
  0000c	8b 0e		 mov	 ecx, DWORD PTR [esi]
  0000e	33 c0		 xor	 eax, eax
  00010	89 46 04	 mov	 DWORD PTR [esi+4], eax
  00013	88 01		 mov	 BYTE PTR [ecx], al
  00015	8b 0e		 mov	 ecx, DWORD PTR [esi]
  00017	89 41 04	 mov	 DWORD PTR [ecx+4], eax
  0001a	8b 06		 mov	 eax, DWORD PTR [esi]
  0001c	89 40 08	 mov	 DWORD PTR [eax+8], eax
  0001f	8b 06		 mov	 eax, DWORD PTR [esi]
  00021	89 40 0c	 mov	 DWORD PTR [eax+12], eax
  00024	8b c6		 mov	 eax, esi
  00026	5e		 pop	 esi
  00027	c2 08 00	 ret	 8
??0?$_Rb_tree@IU?$pair@$$CBIK@_STL@@U?$_Select1st@U?$pair@$$CBIK@_STL@@@2@U?$less@I@2@V?$allocator@U?$pair@$$CBIK@_STL@@@2@@_STL@@QAE@ABU?$less@I@1@ABV?$allocator@U?$pair@$$CBIK@_STL@@@1@@Z ENDP ; _STL::_Rb_tree<unsigned int,_STL::pair<unsigned int const ,unsigned long>,_STL::_Select1st<_STL::pair<unsigned int const ,unsigned long> >,_STL::less<unsigned int>,_STL::allocator<_STL::pair<unsigned int const ,unsigned long> > >::_Rb_tree<unsigned int,_STL::pair<unsigned int const ,unsigned long>,_STL::_Select1st<_STL::pair<unsigned int const ,unsigned long> >,_STL::less<unsigned int>,_STL::allocator<_STL::pair<unsigned int const ,unsigned long> > >
_TEXT	ENDS
PUBLIC	?_M_insert@?$_Rb_tree@IU?$pair@$$CBIK@_STL@@U?$_Select1st@U?$pair@$$CBIK@_STL@@@2@U?$less@I@2@V?$allocator@U?$pair@$$CBIK@_STL@@@2@@_STL@@AAE?AU?$_Rb_tree_iterator@U?$pair@$$CBIK@_STL@@U?$_Nonconst_traits@U?$pair@$$CBIK@_STL@@@2@@2@PAU_Rb_tree_node_base@2@0ABU?$pair@$$CBIK@2@0@Z ; _STL::_Rb_tree<unsigned int,_STL::pair<unsigned int const ,unsigned long>,_STL::_Select1st<_STL::pair<unsigned int const ,unsigned long> >,_STL::less<unsigned int>,_STL::allocator<_STL::pair<unsigned int const ,unsigned long> > >::_M_insert
EXTRN	?_Rebalance@?$_Rb_global@_N@_STL@@SAXPAU_Rb_tree_node_base@2@AAPAU32@@Z:NEAR ; _STL::_Rb_global<bool>::_Rebalance
; Function compile flags: /Ogsy
; File c:\stlport-4.6.1\stlport\stl\_tree.c
;	COMDAT ?_M_insert@?$_Rb_tree@IU?$pair@$$CBIK@_STL@@U?$_Select1st@U?$pair@$$CBIK@_STL@@@2@U?$less@I@2@V?$allocator@U?$pair@$$CBIK@_STL@@@2@@_STL@@AAE?AU?$_Rb_tree_iterator@U?$pair@$$CBIK@_STL@@U?$_Nonconst_traits@U?$pair@$$CBIK@_STL@@@2@@2@PAU_Rb_tree_node_base@2@0ABU?$pair@$$CBIK@2@0@Z
_TEXT	SEGMENT
___$ReturnUdt$ = 8					; size = 4
___x_$ = 12						; size = 4
___y_$ = 16						; size = 4
___v$ = 20						; size = 4
___w_$ = 24						; size = 4
?_M_insert@?$_Rb_tree@IU?$pair@$$CBIK@_STL@@U?$_Select1st@U?$pair@$$CBIK@_STL@@@2@U?$less@I@2@V?$allocator@U?$pair@$$CBIK@_STL@@@2@@_STL@@AAE?AU?$_Rb_tree_iterator@U?$pair@$$CBIK@_STL@@U?$_Nonconst_traits@U?$pair@$$CBIK@_STL@@@2@@2@PAU_Rb_tree_node_base@2@0ABU?$pair@$$CBIK@2@0@Z PROC NEAR ; _STL::_Rb_tree<unsigned int,_STL::pair<unsigned int const ,unsigned long>,_STL::_Select1st<_STL::pair<unsigned int const ,unsigned long> >,_STL::less<unsigned int>,_STL::allocator<_STL::pair<unsigned int const ,unsigned long> > >::_M_insert, COMDAT
; _this$ = ecx

; 347  : {

  00000	55		 push	 ebp
  00001	8b ec		 mov	 ebp, esp

; 348  :   _Link_type __w = (_Link_type) __w_;
; 349  :   _Link_type __x = (_Link_type) __x_;
; 350  :   _Link_type __y = (_Link_type) __y_;
; 351  :   _Link_type __z;
; 352  : 
; 353  :   if ( __y == this->_M_header._M_data ||
; 354  :        ( __w == 0 && // If w != 0, the remainder fails to false
; 355  :          ( __x != 0 ||     // If x != 0, the remainder succeeds to true
; 356  :            _M_key_compare( _KeyOfValue()(__v), _S_key(__y) ) )
; 357  : 	 )
; 358  :        ) {

  00003	8b 45 14	 mov	 eax, DWORD PTR ___v$[ebp]
  00006	53		 push	 ebx
  00007	8b 5d 10	 mov	 ebx, DWORD PTR ___y_$[ebp]
  0000a	56		 push	 esi
  0000b	57		 push	 edi
  0000c	8b f9		 mov	 edi, ecx
  0000e	3b 1f		 cmp	 ebx, DWORD PTR [edi]
  00010	74 2c		 je	 SHORT $L100938
  00012	83 7d 18 00	 cmp	 DWORD PTR ___w_$[ebp], 0
  00016	75 0d		 jne	 SHORT $L100936
  00018	83 7d 0c 00	 cmp	 DWORD PTR ___x_$[ebp], 0
  0001c	75 20		 jne	 SHORT $L100938
  0001e	8b 08		 mov	 ecx, DWORD PTR [eax]
  00020	3b 4b 10	 cmp	 ecx, DWORD PTR [ebx+16]
  00023	72 19		 jb	 SHORT $L100938
$L100936:

; 369  :   }
; 370  :   else {
; 371  :     __z = _M_create_node(__v);

  00025	50		 push	 eax
  00026	8b cf		 mov	 ecx, edi
  00028	e8 00 00 00 00	 call	 ?_M_create_node@?$_Rb_tree@IU?$pair@$$CBIK@_STL@@U?$_Select1st@U?$pair@$$CBIK@_STL@@@2@U?$less@I@2@V?$allocator@U?$pair@$$CBIK@_STL@@@2@@_STL@@IAEPAU?$_Rb_tree_node@U?$pair@$$CBIK@_STL@@@2@ABU?$pair@$$CBIK@2@@Z ; _STL::_Rb_tree<unsigned int,_STL::pair<unsigned int const ,unsigned long>,_STL::_Select1st<_STL::pair<unsigned int const ,unsigned long> >,_STL::less<unsigned int>,_STL::allocator<_STL::pair<unsigned int const ,unsigned long> > >::_M_create_node
  0002d	8b f0		 mov	 esi, eax

; 372  :     _S_right(__y) = __z;

  0002f	89 73 0c	 mov	 DWORD PTR [ebx+12], esi

; 373  :     if (__y == _M_rightmost())

  00032	8b 07		 mov	 eax, DWORD PTR [edi]
  00034	3b 58 0c	 cmp	 ebx, DWORD PTR [eax+12]
  00037	75 27		 jne	 SHORT $L100941
$L101828:

; 374  :       _M_rightmost() = __z;  // maintain _M_rightmost() pointing to max node

  00039	89 70 0c	 mov	 DWORD PTR [eax+12], esi
  0003c	eb 22		 jmp	 SHORT $L100941
$L100938:

; 359  :     
; 360  :     __z = _M_create_node(__v);

  0003e	50		 push	 eax
  0003f	8b cf		 mov	 ecx, edi
  00041	e8 00 00 00 00	 call	 ?_M_create_node@?$_Rb_tree@IU?$pair@$$CBIK@_STL@@U?$_Select1st@U?$pair@$$CBIK@_STL@@@2@U?$less@I@2@V?$allocator@U?$pair@$$CBIK@_STL@@@2@@_STL@@IAEPAU?$_Rb_tree_node@U?$pair@$$CBIK@_STL@@@2@ABU?$pair@$$CBIK@2@@Z ; _STL::_Rb_tree<unsigned int,_STL::pair<unsigned int const ,unsigned long>,_STL::_Select1st<_STL::pair<unsigned int const ,unsigned long> >,_STL::less<unsigned int>,_STL::allocator<_STL::pair<unsigned int const ,unsigned long> > >::_M_create_node
  00046	8b f0		 mov	 esi, eax

; 361  :     _S_left(__y) = __z;               // also makes _M_leftmost() = __z 

  00048	89 73 08	 mov	 DWORD PTR [ebx+8], esi

; 362  :                                       //    when __y == _M_header
; 363  :     if (__y == this->_M_header._M_data) {

  0004b	8b 07		 mov	 eax, DWORD PTR [edi]
  0004d	3b d8		 cmp	 ebx, eax
  0004f	75 07		 jne	 SHORT $L100939

; 364  :       _M_root() = __z;

  00051	89 70 04	 mov	 DWORD PTR [eax+4], esi

; 365  :       _M_rightmost() = __z;

  00054	8b 07		 mov	 eax, DWORD PTR [edi]

; 366  :     }
; 367  :     else if (__y == _M_leftmost())

  00056	eb e1		 jmp	 SHORT $L101828
$L100939:
  00058	3b 58 08	 cmp	 ebx, DWORD PTR [eax+8]
  0005b	75 03		 jne	 SHORT $L100941

; 368  :       _M_leftmost() = __z;   // maintain _M_leftmost() pointing to min node

  0005d	89 70 08	 mov	 DWORD PTR [eax+8], esi
$L100941:

; 375  :   }
; 376  :   _S_parent(__z) = __y;
; 377  :   _S_left(__z) = 0;

  00060	83 66 08 00	 and	 DWORD PTR [esi+8], 0

; 378  :   _S_right(__z) = 0;

  00064	83 66 0c 00	 and	 DWORD PTR [esi+12], 0
  00068	89 5e 04	 mov	 DWORD PTR [esi+4], ebx

; 379  :   _Rb_global_inst::_Rebalance(__z, this->_M_header._M_data->_M_parent);

  0006b	8b 07		 mov	 eax, DWORD PTR [edi]
  0006d	83 c0 04	 add	 eax, 4
  00070	50		 push	 eax
  00071	56		 push	 esi
  00072	e8 00 00 00 00	 call	 ?_Rebalance@?$_Rb_global@_N@_STL@@SAXPAU_Rb_tree_node_base@2@AAPAU32@@Z ; _STL::_Rb_global<bool>::_Rebalance

; 380  :   ++_M_node_count;

  00077	ff 47 04	 inc	 DWORD PTR [edi+4]

; 381  :   return iterator(__z);

  0007a	8b 45 08	 mov	 eax, DWORD PTR ___$ReturnUdt$[ebp]
  0007d	59		 pop	 ecx
  0007e	59		 pop	 ecx
  0007f	5f		 pop	 edi
  00080	89 30		 mov	 DWORD PTR [eax], esi
  00082	5e		 pop	 esi
  00083	5b		 pop	 ebx

; 382  : }

  00084	5d		 pop	 ebp
  00085	c2 14 00	 ret	 20			; 00000014H
?_M_insert@?$_Rb_tree@IU?$pair@$$CBIK@_STL@@U?$_Select1st@U?$pair@$$CBIK@_STL@@@2@U?$less@I@2@V?$allocator@U?$pair@$$CBIK@_STL@@@2@@_STL@@AAE?AU?$_Rb_tree_iterator@U?$pair@$$CBIK@_STL@@U?$_Nonconst_traits@U?$pair@$$CBIK@_STL@@@2@@2@PAU_Rb_tree_node_base@2@0ABU?$pair@$$CBIK@2@0@Z ENDP ; _STL::_Rb_tree<unsigned int,_STL::pair<unsigned int const ,unsigned long>,_STL::_Select1st<_STL::pair<unsigned int const ,unsigned long> >,_STL::less<unsigned int>,_STL::allocator<_STL::pair<unsigned int const ,unsigned long> > >::_M_insert
_TEXT	ENDS
PUBLIC	??1?$map@IKU?$less@I@_STL@@V?$allocator@U?$pair@$$CBIK@_STL@@@2@@_STL@@QAE@XZ ; _STL::map<unsigned int,unsigned long,_STL::less<unsigned int>,_STL::allocator<_STL::pair<unsigned int const ,unsigned long> > >::~map<unsigned int,unsigned long,_STL::less<unsigned int>,_STL::allocator<_STL::pair<unsigned int const ,unsigned long> > >
; Function compile flags: /Ogsy
;	COMDAT ??1?$map@IKU?$less@I@_STL@@V?$allocator@U?$pair@$$CBIK@_STL@@@2@@_STL@@QAE@XZ
_TEXT	SEGMENT
??1?$map@IKU?$less@I@_STL@@V?$allocator@U?$pair@$$CBIK@_STL@@@2@@_STL@@QAE@XZ PROC NEAR ; _STL::map<unsigned int,unsigned long,_STL::less<unsigned int>,_STL::allocator<_STL::pair<unsigned int const ,unsigned long> > >::~map<unsigned int,unsigned long,_STL::less<unsigned int>,_STL::allocator<_STL::pair<unsigned int const ,unsigned long> > >, COMDAT
; _this$ = ecx
  00000	e9 00 00 00 00	 jmp	 ??1?$_Rb_tree@IU?$pair@$$CBIK@_STL@@U?$_Select1st@U?$pair@$$CBIK@_STL@@@2@U?$less@I@2@V?$allocator@U?$pair@$$CBIK@_STL@@@2@@_STL@@QAE@XZ ; _STL::_Rb_tree<unsigned int,_STL::pair<unsigned int const ,unsigned long>,_STL::_Select1st<_STL::pair<unsigned int const ,unsigned long> >,_STL::less<unsigned int>,_STL::allocator<_STL::pair<unsigned int const ,unsigned long> > >::~_Rb_tree<unsigned int,_STL::pair<unsigned int const ,unsigned long>,_STL::_Select1st<_STL::pair<unsigned int const ,unsigned long> >,_STL::less<unsigned int>,_STL::allocator<_STL::pair<unsigned int const ,unsigned long> > >
??1?$map@IKU?$less@I@_STL@@V?$allocator@U?$pair@$$CBIK@_STL@@@2@@_STL@@QAE@XZ ENDP ; _STL::map<unsigned int,unsigned long,_STL::less<unsigned int>,_STL::allocator<_STL::pair<unsigned int const ,unsigned long> > >::~map<unsigned int,unsigned long,_STL::less<unsigned int>,_STL::allocator<_STL::pair<unsigned int const ,unsigned long> > >
_TEXT	ENDS
PUBLIC	??1MTimeItemManager@@QAE@XZ			; MTimeItemManager::~MTimeItemManager
;	COMDAT xdata$x
; File c:\darkeden\designed_common\project\client\mtimeitemmanager.cpp
xdata$x	SEGMENT
$T101846 DD	0ffffffffH
	DD	FLAT:$L101835
$T101844 DD	019930520H
	DD	01H
	DD	FLAT:$T101846
	DD	2 DUP(00H)
	DD	2 DUP(00H)
; Function compile flags: /Ogsy
xdata$x	ENDS
;	COMDAT ??1MTimeItemManager@@QAE@XZ
_TEXT	SEGMENT
_this$ = -16						; size = 4
__$EHRec$ = -12						; size = 12
??1MTimeItemManager@@QAE@XZ PROC NEAR			; MTimeItemManager::~MTimeItemManager, COMDAT
; _this$ = ecx

; 12   : {

  00000	b8 00 00 00 00	 mov	 eax, __ehhandler$??1MTimeItemManager@@QAE@XZ
  00005	e8 00 00 00 00	 call	 __EH_prolog
  0000a	51		 push	 ecx
  0000b	89 4d f0	 mov	 DWORD PTR _this$[ebp], ecx
  0000e	83 65 fc 00	 and	 DWORD PTR __$EHRec$[ebp+8], 0

; 13   : 	clear();

  00012	e8 00 00 00 00	 call	 ?clear@?$_Rb_tree@IU?$pair@$$CBIK@_STL@@U?$_Select1st@U?$pair@$$CBIK@_STL@@@2@U?$less@I@2@V?$allocator@U?$pair@$$CBIK@_STL@@@2@@_STL@@QAEXXZ ; _STL::_Rb_tree<unsigned int,_STL::pair<unsigned int const ,unsigned long>,_STL::_Select1st<_STL::pair<unsigned int const ,unsigned long> >,_STL::less<unsigned int>,_STL::allocator<_STL::pair<unsigned int const ,unsigned long> > >::clear

; 14   : }

  00017	8b 4d f0	 mov	 ecx, DWORD PTR _this$[ebp]
  0001a	83 4d fc ff	 or	 DWORD PTR __$EHRec$[ebp+8], -1
  0001e	e8 00 00 00 00	 call	 ??1?$_Rb_tree@IU?$pair@$$CBIK@_STL@@U?$_Select1st@U?$pair@$$CBIK@_STL@@@2@U?$less@I@2@V?$allocator@U?$pair@$$CBIK@_STL@@@2@@_STL@@QAE@XZ ; _STL::_Rb_tree<unsigned int,_STL::pair<unsigned int const ,unsigned long>,_STL::_Select1st<_STL::pair<unsigned int const ,unsigned long> >,_STL::less<unsigned int>,_STL::allocator<_STL::pair<unsigned int const ,unsigned long> > >::~_Rb_tree<unsigned int,_STL::pair<unsigned int const ,unsigned long>,_STL::_Select1st<_STL::pair<unsigned int const ,unsigned long> >,_STL::less<unsigned int>,_STL::allocator<_STL::pair<unsigned int const ,unsigned long> > >
  00023	8b 4d f4	 mov	 ecx, DWORD PTR __$EHRec$[ebp]
  00026	64 89 0d 00 00
	00 00		 mov	 DWORD PTR fs:__except_list, ecx
  0002d	c9		 leave
  0002e	c3		 ret	 0
_TEXT	ENDS
;	COMDAT text$x
text$x	SEGMENT
$L101835:
  00000	8b 4d f0	 mov	 ecx, DWORD PTR _this$[ebp]
  00003	e9 00 00 00 00	 jmp	 ??1?$map@IKU?$less@I@_STL@@V?$allocator@U?$pair@$$CBIK@_STL@@@2@@_STL@@QAE@XZ
__ehhandler$??1MTimeItemManager@@QAE@XZ:
  00008	b8 00 00 00 00	 mov	 eax, OFFSET FLAT:$T101844
  0000d	e9 00 00 00 00	 jmp	 ___CxxFrameHandler
text$x	ENDS
??1MTimeItemManager@@QAE@XZ ENDP			; MTimeItemManager::~MTimeItemManager
PUBLIC	?IsExist@MTimeItemManager@@QAE_NI@Z		; MTimeItemManager::IsExist
; Function compile flags: /Ogsy
;	COMDAT ?IsExist@MTimeItemManager@@QAE_NI@Z
_TEXT	SEGMENT
_objectID$ = 8						; size = 4
?IsExist@MTimeItemManager@@QAE_NI@Z PROC NEAR		; MTimeItemManager::IsExist, COMDAT
; _this$ = ecx

; 17   : {

  00000	56		 push	 esi
  00001	8b f1		 mov	 esi, ecx

; 18   : 	if( empty() )

  00003	83 7e 04 00	 cmp	 DWORD PTR [esi+4], 0
  00007	75 04		 jne	 SHORT $L100218

; 19   : 		return false;

  00009	32 c0		 xor	 al, al
  0000b	eb 11		 jmp	 SHORT $L100292
$L100218:

; 20   : 
; 21   : 	TIMEITEM_MAP::const_iterator c_itr = find( objectID );

  0000d	8d 44 24 08	 lea	 eax, DWORD PTR _objectID$[esp]
  00011	50		 push	 eax
  00012	8b ce		 mov	 ecx, esi
  00014	e8 00 00 00 00	 call	 ??$_M_find@I@?$_Rb_tree@IU?$pair@$$CBIK@_STL@@U?$_Select1st@U?$pair@$$CBIK@_STL@@@2@U?$less@I@2@V?$allocator@U?$pair@$$CBIK@_STL@@@2@@_STL@@ABEPAU?$_Rb_tree_node@U?$pair@$$CBIK@_STL@@@1@ABI@Z ; _STL::_Rb_tree<unsigned int,_STL::pair<unsigned int const ,unsigned long>,_STL::_Select1st<_STL::pair<unsigned int const ,unsigned long> >,_STL::less<unsigned int>,_STL::allocator<_STL::pair<unsigned int const ,unsigned long> > >::_M_find<unsigned int>

; 22   : 
; 23   : 	if(c_itr == end())

  00019	3b 06		 cmp	 eax, DWORD PTR [esi]
  0001b	0f 95 c0	 setne	 al
$L100292:
  0001e	5e		 pop	 esi

; 24   : 		return false;
; 25   : 
; 26   : 	return true;
; 27   : }

  0001f	c2 04 00	 ret	 4
?IsExist@MTimeItemManager@@QAE_NI@Z ENDP		; MTimeItemManager::IsExist
_TEXT	ENDS
PUBLIC	?RemoveTimeItem@MTimeItemManager@@QAE_NI@Z	; MTimeItemManager::RemoveTimeItem
; Function compile flags: /Ogsy
;	COMDAT ?RemoveTimeItem@MTimeItemManager@@QAE_NI@Z
_TEXT	SEGMENT
_objectID$ = 8						; size = 4
?RemoveTimeItem@MTimeItemManager@@QAE_NI@Z PROC NEAR	; MTimeItemManager::RemoveTimeItem, COMDAT
; _this$ = ecx

; 39   : {

  00000	56		 push	 esi

; 40   : 	if(IsExist( objectID ) )

  00001	ff 74 24 08	 push	 DWORD PTR _objectID$[esp]
  00005	8b f1		 mov	 esi, ecx
  00007	e8 00 00 00 00	 call	 ?IsExist@MTimeItemManager@@QAE_NI@Z ; MTimeItemManager::IsExist
  0000c	84 c0		 test	 al, al
  0000e	74 1c		 je	 SHORT $L100341

; 41   : 	{
; 42   : 		TIMEITEM_MAP::iterator itr = find( objectID );

  00010	8d 44 24 08	 lea	 eax, DWORD PTR _objectID$[esp]
  00014	50		 push	 eax
  00015	8b ce		 mov	 ecx, esi
  00017	e8 00 00 00 00	 call	 ??$_M_find@I@?$_Rb_tree@IU?$pair@$$CBIK@_STL@@U?$_Select1st@U?$pair@$$CBIK@_STL@@@2@U?$less@I@2@V?$allocator@U?$pair@$$CBIK@_STL@@@2@@_STL@@ABEPAU?$_Rb_tree_node@U?$pair@$$CBIK@_STL@@@1@ABI@Z ; _STL::_Rb_tree<unsigned int,_STL::pair<unsigned int const ,unsigned long>,_STL::_Select1st<_STL::pair<unsigned int const ,unsigned long> >,_STL::less<unsigned int>,_STL::allocator<_STL::pair<unsigned int const ,unsigned long> > >::_M_find<unsigned int>

; 43   : 		erase( itr );

  0001c	51		 push	 ecx
  0001d	8b cc		 mov	 ecx, esp
  0001f	89 01		 mov	 DWORD PTR [ecx], eax
  00021	8b ce		 mov	 ecx, esi
  00023	e8 00 00 00 00	 call	 ?erase@?$_Rb_tree@IU?$pair@$$CBIK@_STL@@U?$_Select1st@U?$pair@$$CBIK@_STL@@@2@U?$less@I@2@V?$allocator@U?$pair@$$CBIK@_STL@@@2@@_STL@@QAEXU?$_Rb_tree_iterator@U?$pair@$$CBIK@_STL@@U?$_Nonconst_traits@U?$pair@$$CBIK@_STL@@@2@@2@@Z ; _STL::_Rb_tree<unsigned int,_STL::pair<unsigned int const ,unsigned long>,_STL::_Select1st<_STL::pair<unsigned int const ,unsigned long> >,_STL::less<unsigned int>,_STL::allocator<_STL::pair<unsigned int const ,unsigned long> > >::erase

; 44   : 		return true;

  00028	b0 01		 mov	 al, 1
  0002a	eb 02		 jmp	 SHORT $L100340
$L100341:

; 45   : 	}
; 46   : 
; 47   : 	return false;

  0002c	32 c0		 xor	 al, al
$L100340:

; 48   : }

  0002e	5e		 pop	 esi
  0002f	c2 04 00	 ret	 4
?RemoveTimeItem@MTimeItemManager@@QAE_NI@Z ENDP		; MTimeItemManager::RemoveTimeItem
_TEXT	ENDS
PUBLIC	?GetDay@MTimeItemManager@@QAEHI@Z		; MTimeItemManager::GetDay
EXTRN	__imp__timeGetTime@0:NEAR
; Function compile flags: /Ogsy
;	COMDAT ?GetDay@MTimeItemManager@@QAEHI@Z
_TEXT	SEGMENT
_objectID$ = 8						; size = 4
?GetDay@MTimeItemManager@@QAEHI@Z PROC NEAR		; MTimeItemManager::GetDay, COMDAT
; _this$ = ecx

; 51   : {

  00000	56		 push	 esi

; 52   : 	if(! IsExist( objectID ) )

  00001	ff 74 24 08	 push	 DWORD PTR _objectID$[esp]
  00005	8b f1		 mov	 esi, ecx
  00007	e8 00 00 00 00	 call	 ?IsExist@MTimeItemManager@@QAE_NI@Z ; MTimeItemManager::IsExist
  0000c	84 c0		 test	 al, al
  0000e	75 05		 jne	 SHORT $L100349

; 53   : 		return -1;

  00010	83 c8 ff	 or	 eax, -1
  00013	eb 4d		 jmp	 SHORT $L100348
$L100349:
  00015	53		 push	 ebx
  00016	57		 push	 edi

; 54   : 
; 55   : 	TIMEITEM_MAP::const_iterator c_itr = find( objectID );

  00017	8d 44 24 10	 lea	 eax, DWORD PTR _objectID$[esp+8]
  0001b	50		 push	 eax
  0001c	8b ce		 mov	 ecx, esi
  0001e	e8 00 00 00 00	 call	 ??$_M_find@I@?$_Rb_tree@IU?$pair@$$CBIK@_STL@@U?$_Select1st@U?$pair@$$CBIK@_STL@@@2@U?$less@I@2@V?$allocator@U?$pair@$$CBIK@_STL@@@2@@_STL@@ABEPAU?$_Rb_tree_node@U?$pair@$$CBIK@_STL@@@1@ABI@Z ; _STL::_Rb_tree<unsigned int,_STL::pair<unsigned int const ,unsigned long>,_STL::_Select1st<_STL::pair<unsigned int const ,unsigned long> >,_STL::less<unsigned int>,_STL::allocator<_STL::pair<unsigned int const ,unsigned long> > >::_M_find<unsigned int>

; 56   : 	
; 57   : 	if(timeGetTime()/1000 > (*c_itr).second )

  00023	8b 35 00 00 00
	00		 mov	 esi, DWORD PTR __imp__timeGetTime@0
  00029	8b f8		 mov	 edi, eax
  0002b	ff d6		 call	 esi
  0002d	bb e8 03 00 00	 mov	 ebx, 1000		; 000003e8H
  00032	33 d2		 xor	 edx, edx
  00034	8b cb		 mov	 ecx, ebx
  00036	f7 f1		 div	 ecx
  00038	3b 47 14	 cmp	 eax, DWORD PTR [edi+20]
  0003b	76 04		 jbe	 SHORT $L100352

; 58   : 		return 0;

  0003d	33 c0		 xor	 eax, eax
  0003f	eb 1f		 jmp	 SHORT $L101965
$L100352:

; 59   : 
; 60   : 	DWORD time = (*c_itr).second - timeGetTime()/1000;

  00041	ff d6		 call	 esi
  00043	33 d2		 xor	 edx, edx
  00045	f7 f3		 div	 ebx
  00047	8b 4f 14	 mov	 ecx, DWORD PTR [edi+20]

; 61   : 	
; 62   : 	return (time/60/60/24);

  0004a	33 d2		 xor	 edx, edx
  0004c	6a 3c		 push	 60			; 0000003cH
  0004e	2b c8		 sub	 ecx, eax
  00050	8b c1		 mov	 eax, ecx
  00052	59		 pop	 ecx
  00053	f7 f1		 div	 ecx
  00055	33 d2		 xor	 edx, edx
  00057	6a 18		 push	 24			; 00000018H
  00059	f7 f1		 div	 ecx
  0005b	33 d2		 xor	 edx, edx
  0005d	59		 pop	 ecx
  0005e	f7 f1		 div	 ecx
$L101965:
  00060	5f		 pop	 edi
  00061	5b		 pop	 ebx
$L100348:
  00062	5e		 pop	 esi

; 63   : }

  00063	c2 04 00	 ret	 4
?GetDay@MTimeItemManager@@QAEHI@Z ENDP			; MTimeItemManager::GetDay
_TEXT	ENDS
PUBLIC	?GetHour@MTimeItemManager@@QAEHI@Z		; MTimeItemManager::GetHour
; Function compile flags: /Ogsy
;	COMDAT ?GetHour@MTimeItemManager@@QAEHI@Z
_TEXT	SEGMENT
_objectID$ = 8						; size = 4
?GetHour@MTimeItemManager@@QAEHI@Z PROC NEAR		; MTimeItemManager::GetHour, COMDAT
; _this$ = ecx

; 66   : {

  00000	56		 push	 esi

; 67   : 	if(! IsExist( objectID ) )

  00001	ff 74 24 08	 push	 DWORD PTR _objectID$[esp]
  00005	8b f1		 mov	 esi, ecx
  00007	e8 00 00 00 00	 call	 ?IsExist@MTimeItemManager@@QAE_NI@Z ; MTimeItemManager::IsExist
  0000c	84 c0		 test	 al, al
  0000e	75 05		 jne	 SHORT $L100358

; 68   : 		return -1;

  00010	83 c8 ff	 or	 eax, -1
  00013	eb 4f		 jmp	 SHORT $L100357
$L100358:
  00015	53		 push	 ebx
  00016	57		 push	 edi

; 69   : 
; 70   : 	TIMEITEM_MAP::const_iterator c_itr = find( objectID );

  00017	8d 44 24 10	 lea	 eax, DWORD PTR _objectID$[esp+8]
  0001b	50		 push	 eax
  0001c	8b ce		 mov	 ecx, esi
  0001e	e8 00 00 00 00	 call	 ??$_M_find@I@?$_Rb_tree@IU?$pair@$$CBIK@_STL@@U?$_Select1st@U?$pair@$$CBIK@_STL@@@2@U?$less@I@2@V?$allocator@U?$pair@$$CBIK@_STL@@@2@@_STL@@ABEPAU?$_Rb_tree_node@U?$pair@$$CBIK@_STL@@@1@ABI@Z ; _STL::_Rb_tree<unsigned int,_STL::pair<unsigned int const ,unsigned long>,_STL::_Select1st<_STL::pair<unsigned int const ,unsigned long> >,_STL::less<unsigned int>,_STL::allocator<_STL::pair<unsigned int const ,unsigned long> > >::_M_find<unsigned int>

; 71   : 
; 72   : 	if(timeGetTime()/1000 > (*c_itr).second )

  00023	8b 35 00 00 00
	00		 mov	 esi, DWORD PTR __imp__timeGetTime@0
  00029	8b f8		 mov	 edi, eax
  0002b	ff d6		 call	 esi
  0002d	bb e8 03 00 00	 mov	 ebx, 1000		; 000003e8H
  00032	33 d2		 xor	 edx, edx
  00034	8b cb		 mov	 ecx, ebx
  00036	f7 f1		 div	 ecx
  00038	3b 47 14	 cmp	 eax, DWORD PTR [edi+20]
  0003b	76 04		 jbe	 SHORT $L100361

; 73   : 		return 0;

  0003d	33 c0		 xor	 eax, eax
  0003f	eb 21		 jmp	 SHORT $L101997
$L100361:

; 74   : 
; 75   : 	DWORD time = (*c_itr).second - timeGetTime()/1000;

  00041	ff d6		 call	 esi
  00043	33 d2		 xor	 edx, edx
  00045	f7 f3		 div	 ebx
  00047	8b 4f 14	 mov	 ecx, DWORD PTR [edi+20]

; 76   : 	
; 77   : 	//time = time - ( GetDay() * 60 * 60 * 24 );
; 78   : 	
; 79   : 	// %     ...  ..
; 80   : 	return ( (time/60/60) % 24 );

  0004a	33 d2		 xor	 edx, edx
  0004c	6a 3c		 push	 60			; 0000003cH
  0004e	2b c8		 sub	 ecx, eax
  00050	8b c1		 mov	 eax, ecx
  00052	59		 pop	 ecx
  00053	f7 f1		 div	 ecx
  00055	33 d2		 xor	 edx, edx
  00057	6a 18		 push	 24			; 00000018H
  00059	f7 f1		 div	 ecx
  0005b	33 d2		 xor	 edx, edx
  0005d	59		 pop	 ecx
  0005e	f7 f1		 div	 ecx
  00060	8b c2		 mov	 eax, edx
$L101997:
  00062	5f		 pop	 edi
  00063	5b		 pop	 ebx
$L100357:
  00064	5e		 pop	 esi

; 81   : }

  00065	c2 04 00	 ret	 4
?GetHour@MTimeItemManager@@QAEHI@Z ENDP			; MTimeItemManager::GetHour
_TEXT	ENDS
PUBLIC	?GetMinute@MTimeItemManager@@QAEHI@Z		; MTimeItemManager::GetMinute
; Function compile flags: /Ogsy
;	COMDAT ?GetMinute@MTimeItemManager@@QAEHI@Z
_TEXT	SEGMENT
_objectID$ = 8						; size = 4
?GetMinute@MTimeItemManager@@QAEHI@Z PROC NEAR		; MTimeItemManager::GetMinute, COMDAT
; _this$ = ecx

; 84   : {

  00000	56		 push	 esi

; 85   : 	if(! IsExist( objectID ) )

  00001	ff 74 24 08	 push	 DWORD PTR _objectID$[esp]
  00005	8b f1		 mov	 esi, ecx
  00007	e8 00 00 00 00	 call	 ?IsExist@MTimeItemManager@@QAE_NI@Z ; MTimeItemManager::IsExist
  0000c	84 c0		 test	 al, al
  0000e	75 05		 jne	 SHORT $L100367

; 86   : 		return -1;

  00010	83 c8 ff	 or	 eax, -1
  00013	eb 48		 jmp	 SHORT $L100366
$L100367:
  00015	53		 push	 ebx
  00016	57		 push	 edi

; 87   : 
; 88   : 	TIMEITEM_MAP::const_iterator c_itr = find( objectID );

  00017	8d 44 24 10	 lea	 eax, DWORD PTR _objectID$[esp+8]
  0001b	50		 push	 eax
  0001c	8b ce		 mov	 ecx, esi
  0001e	e8 00 00 00 00	 call	 ??$_M_find@I@?$_Rb_tree@IU?$pair@$$CBIK@_STL@@U?$_Select1st@U?$pair@$$CBIK@_STL@@@2@U?$less@I@2@V?$allocator@U?$pair@$$CBIK@_STL@@@2@@_STL@@ABEPAU?$_Rb_tree_node@U?$pair@$$CBIK@_STL@@@1@ABI@Z ; _STL::_Rb_tree<unsigned int,_STL::pair<unsigned int const ,unsigned long>,_STL::_Select1st<_STL::pair<unsigned int const ,unsigned long> >,_STL::less<unsigned int>,_STL::allocator<_STL::pair<unsigned int const ,unsigned long> > >::_M_find<unsigned int>

; 89   : 
; 90   : 	if(timeGetTime()/1000 > (*c_itr).second )

  00023	8b 35 00 00 00
	00		 mov	 esi, DWORD PTR __imp__timeGetTime@0
  00029	8b f8		 mov	 edi, eax
  0002b	ff d6		 call	 esi
  0002d	bb e8 03 00 00	 mov	 ebx, 1000		; 000003e8H
  00032	33 d2		 xor	 edx, edx
  00034	8b cb		 mov	 ecx, ebx
  00036	f7 f1		 div	 ecx
  00038	3b 47 14	 cmp	 eax, DWORD PTR [edi+20]
  0003b	76 04		 jbe	 SHORT $L100370

; 91   : 		return 0;

  0003d	33 c0		 xor	 eax, eax
  0003f	eb 1a		 jmp	 SHORT $L102029
$L100370:

; 92   : 
; 93   : 	DWORD time = (*c_itr).second - timeGetTime()/1000;

  00041	ff d6		 call	 esi
  00043	33 d2		 xor	 edx, edx
  00045	f7 f3		 div	 ebx
  00047	8b 4f 14	 mov	 ecx, DWORD PTR [edi+20]

; 94   : 	
; 95   : 	// %     ...  ..
; 96   : 	return ( (time/60 ) % 60 );

  0004a	33 d2		 xor	 edx, edx
  0004c	6a 3c		 push	 60			; 0000003cH
  0004e	2b c8		 sub	 ecx, eax
  00050	8b c1		 mov	 eax, ecx
  00052	59		 pop	 ecx
  00053	f7 f1		 div	 ecx
  00055	33 d2		 xor	 edx, edx
  00057	f7 f1		 div	 ecx
  00059	8b c2		 mov	 eax, edx
$L102029:
  0005b	5f		 pop	 edi
  0005c	5b		 pop	 ebx
$L100366:
  0005d	5e		 pop	 esi

; 97   : }

  0005e	c2 04 00	 ret	 4
?GetMinute@MTimeItemManager@@QAEHI@Z ENDP		; MTimeItemManager::GetMinute
_TEXT	ENDS
PUBLIC	?GetSecond@MTimeItemManager@@QAEHI@Z		; MTimeItemManager::GetSecond
; Function compile flags: /Ogsy
;	COMDAT ?GetSecond@MTimeItemManager@@QAEHI@Z
_TEXT	SEGMENT
_objectID$ = 8						; size = 4
?GetSecond@MTimeItemManager@@QAEHI@Z PROC NEAR		; MTimeItemManager::GetSecond, COMDAT
; _this$ = ecx

; 100  : {

  00000	56		 push	 esi

; 101  : 	if(! IsExist ( objectID ) )

  00001	ff 74 24 08	 push	 DWORD PTR _objectID$[esp]
  00005	8b f1		 mov	 esi, ecx
  00007	e8 00 00 00 00	 call	 ?IsExist@MTimeItemManager@@QAE_NI@Z ; MTimeItemManager::IsExist
  0000c	84 c0		 test	 al, al
  0000e	75 05		 jne	 SHORT $L100376

; 102  : 		return -1;

  00010	83 c8 ff	 or	 eax, -1
  00013	eb 44		 jmp	 SHORT $L100375
$L100376:
  00015	53		 push	 ebx
  00016	57		 push	 edi

; 103  : 
; 104  : 	TIMEITEM_MAP::const_iterator c_itr = find( objectID );

  00017	8d 44 24 10	 lea	 eax, DWORD PTR _objectID$[esp+8]
  0001b	50		 push	 eax
  0001c	8b ce		 mov	 ecx, esi
  0001e	e8 00 00 00 00	 call	 ??$_M_find@I@?$_Rb_tree@IU?$pair@$$CBIK@_STL@@U?$_Select1st@U?$pair@$$CBIK@_STL@@@2@U?$less@I@2@V?$allocator@U?$pair@$$CBIK@_STL@@@2@@_STL@@ABEPAU?$_Rb_tree_node@U?$pair@$$CBIK@_STL@@@1@ABI@Z ; _STL::_Rb_tree<unsigned int,_STL::pair<unsigned int const ,unsigned long>,_STL::_Select1st<_STL::pair<unsigned int const ,unsigned long> >,_STL::less<unsigned int>,_STL::allocator<_STL::pair<unsigned int const ,unsigned long> > >::_M_find<unsigned int>

; 105  : 	
; 106  : 	if(timeGetTime()/1000 > (*c_itr).second )

  00023	8b 35 00 00 00
	00		 mov	 esi, DWORD PTR __imp__timeGetTime@0
  00029	8b f8		 mov	 edi, eax
  0002b	ff d6		 call	 esi
  0002d	bb e8 03 00 00	 mov	 ebx, 1000		; 000003e8H
  00032	33 d2		 xor	 edx, edx
  00034	8b cb		 mov	 ecx, ebx
  00036	f7 f1		 div	 ecx
  00038	3b 47 14	 cmp	 eax, DWORD PTR [edi+20]
  0003b	76 04		 jbe	 SHORT $L100379

; 107  : 		return 0;

  0003d	33 c0		 xor	 eax, eax
  0003f	eb 16		 jmp	 SHORT $L102061
$L100379:

; 108  : 
; 109  : 	DWORD time = (*c_itr).second - timeGetTime()/1000;

  00041	ff d6		 call	 esi
  00043	33 d2		 xor	 edx, edx
  00045	f7 f3		 div	 ebx
  00047	8b 4f 14	 mov	 ecx, DWORD PTR [edi+20]

; 110  : 
; 111  : 	// %     ...  ..
; 112  : 	return ( time % 60 );

  0004a	6a 3c		 push	 60			; 0000003cH
  0004c	33 d2		 xor	 edx, edx
  0004e	2b c8		 sub	 ecx, eax
  00050	8b c1		 mov	 eax, ecx
  00052	59		 pop	 ecx
  00053	f7 f1		 div	 ecx
  00055	8b c2		 mov	 eax, edx
$L102061:
  00057	5f		 pop	 edi
  00058	5b		 pop	 ebx
$L100375:
  00059	5e		 pop	 esi

; 113  : }

  0005a	c2 04 00	 ret	 4
?GetSecond@MTimeItemManager@@QAEHI@Z ENDP		; MTimeItemManager::GetSecond
_TEXT	ENDS
PUBLIC	?IsExpired@MTimeItemManager@@QAE_NI@Z		; MTimeItemManager::IsExpired
; Function compile flags: /Ogsy
;	COMDAT ?IsExpired@MTimeItemManager@@QAE_NI@Z
_TEXT	SEGMENT
_objectID$ = 8						; size = 4
?IsExpired@MTimeItemManager@@QAE_NI@Z PROC NEAR		; MTimeItemManager::IsExpired, COMDAT
; _this$ = ecx

; 116  : {

  00000	56		 push	 esi
  00001	57		 push	 edi

; 117  : 	if( !IsExist( objectID ) )

  00002	8b 7c 24 0c	 mov	 edi, DWORD PTR _objectID$[esp+4]
  00006	57		 push	 edi
  00007	8b f1		 mov	 esi, ecx
  00009	e8 00 00 00 00	 call	 ?IsExist@MTimeItemManager@@QAE_NI@Z ; MTimeItemManager::IsExist
  0000e	84 c0		 test	 al, al

; 118  : 		return true;

  00010	74 30		 je	 SHORT $L102066

; 119  : 
; 120  : 	if(GetDay( objectID ) == 0 && GetHour( objectID ) == 0 && GetMinute( objectID) == 0 && GetSecond( objectID ) == 0)

  00012	57		 push	 edi
  00013	8b ce		 mov	 ecx, esi
  00015	e8 00 00 00 00	 call	 ?GetDay@MTimeItemManager@@QAEHI@Z ; MTimeItemManager::GetDay
  0001a	85 c0		 test	 eax, eax
  0001c	75 28		 jne	 SHORT $L100386
  0001e	57		 push	 edi
  0001f	8b ce		 mov	 ecx, esi
  00021	e8 00 00 00 00	 call	 ?GetHour@MTimeItemManager@@QAEHI@Z ; MTimeItemManager::GetHour
  00026	85 c0		 test	 eax, eax
  00028	75 1c		 jne	 SHORT $L100386
  0002a	57		 push	 edi
  0002b	8b ce		 mov	 ecx, esi
  0002d	e8 00 00 00 00	 call	 ?GetMinute@MTimeItemManager@@QAEHI@Z ; MTimeItemManager::GetMinute
  00032	85 c0		 test	 eax, eax
  00034	75 10		 jne	 SHORT $L100386
  00036	57		 push	 edi
  00037	8b ce		 mov	 ecx, esi
  00039	e8 00 00 00 00	 call	 ?GetSecond@MTimeItemManager@@QAEHI@Z ; MTimeItemManager::GetSecond
  0003e	85 c0		 test	 eax, eax
  00040	75 04		 jne	 SHORT $L100386
$L102066:

; 121  : 	{
; 122  : 		return true;

  00042	b0 01		 mov	 al, 1
  00044	eb 02		 jmp	 SHORT $L100384
$L100386:

; 123  : 	}
; 124  : 	return false;

  00046	32 c0		 xor	 al, al
$L100384:
  00048	5f		 pop	 edi
  00049	5e		 pop	 esi

; 125  : }

  0004a	c2 04 00	 ret	 4
?IsExpired@MTimeItemManager@@QAE_NI@Z ENDP		; MTimeItemManager::IsExpired
_TEXT	ENDS
PUBLIC	??0?$map@IKU?$less@I@_STL@@V?$allocator@U?$pair@$$CBIK@_STL@@@2@@_STL@@QAE@XZ ; _STL::map<unsigned int,unsigned long,_STL::less<unsigned int>,_STL::allocator<_STL::pair<unsigned int const ,unsigned long> > >::map<unsigned int,unsigned long,_STL::less<unsigned int>,_STL::allocator<_STL::pair<unsigned int const ,unsigned long> > >
; Function compile flags: /Ogsy
; File c:\stlport-4.6.1\stlport\stl\_map.h
;	COMDAT ??0?$map@IKU?$less@I@_STL@@V?$allocator@U?$pair@$$CBIK@_STL@@@2@@_STL@@QAE@XZ
_TEXT	SEGMENT
$T102071 = -1						; size = 1
$T102070 = -1						; size = 1
??0?$map@IKU?$less@I@_STL@@V?$allocator@U?$pair@$$CBIK@_STL@@@2@@_STL@@QAE@XZ PROC NEAR ; _STL::map<unsigned int,unsigned long,_STL::less<unsigned int>,_STL::allocator<_STL::pair<unsigned int const ,unsigned long> > >::map<unsigned int,unsigned long,_STL::less<unsigned int>,_STL::allocator<_STL::pair<unsigned int const ,unsigned long> > >, COMDAT
; _this$ = ecx

; 91   :   map() : _M_t(_Compare(), allocator_type()) {}

  00000	55		 push	 ebp
  00001	8b ec		 mov	 ebp, esp
  00003	51		 push	 ecx
  00004	56		 push	 esi
  00005	8d 45 ff	 lea	 eax, DWORD PTR $T102070[ebp]
  00008	50		 push	 eax
  00009	8d 45 ff	 lea	 eax, DWORD PTR $T102071[ebp]
  0000c	50		 push	 eax
  0000d	8b f1		 mov	 esi, ecx
  0000f	e8 00 00 00 00	 call	 ??0?$_Rb_tree@IU?$pair@$$CBIK@_STL@@U?$_Select1st@U?$pair@$$CBIK@_STL@@@2@U?$less@I@2@V?$allocator@U?$pair@$$CBIK@_STL@@@2@@_STL@@QAE@ABU?$less@I@1@ABV?$allocator@U?$pair@$$CBIK@_STL@@@1@@Z ; _STL::_Rb_tree<unsigned int,_STL::pair<unsigned int const ,unsigned long>,_STL::_Select1st<_STL::pair<unsigned int const ,unsigned long> >,_STL::less<unsigned int>,_STL::allocator<_STL::pair<unsigned int const ,unsigned long> > >::_Rb_tree<unsigned int,_STL::pair<unsigned int const ,unsigned long>,_STL::_Select1st<_STL::pair<unsigned int const ,unsigned long> >,_STL::less<unsigned int>,_STL::allocator<_STL::pair<unsigned int const ,unsigned long> > >
  00014	8b c6		 mov	 eax, esi
  00016	5e		 pop	 esi
  00017	c9		 leave
  00018	c3		 ret	 0
??0?$map@IKU?$less@I@_STL@@V?$allocator@U?$pair@$$CBIK@_STL@@@2@@_STL@@QAE@XZ ENDP ; _STL::map<unsigned int,unsigned long,_STL::less<unsigned int>,_STL::allocator<_STL::pair<unsigned int const ,unsigned long> > >::map<unsigned int,unsigned long,_STL::less<unsigned int>,_STL::allocator<_STL::pair<unsigned int const ,unsigned long> > >
_TEXT	ENDS
PUBLIC	?insert_unique@?$_Rb_tree@IU?$pair@$$CBIK@_STL@@U?$_Select1st@U?$pair@$$CBIK@_STL@@@2@U?$less@I@2@V?$allocator@U?$pair@$$CBIK@_STL@@@2@@_STL@@QAE?AU?$pair@U?$_Rb_tree_iterator@U?$pair@$$CBIK@_STL@@U?$_Nonconst_traits@U?$pair@$$CBIK@_STL@@@2@@_STL@@_N@2@ABU?$pair@$$CBIK@2@@Z ; _STL::_Rb_tree<unsigned int,_STL::pair<unsigned int const ,unsigned long>,_STL::_Select1st<_STL::pair<unsigned int const ,unsigned long> >,_STL::less<unsigned int>,_STL::allocator<_STL::pair<unsigned int const ,unsigned long> > >::insert_unique
; Function compile flags: /Ogsy
; File c:\stlport-4.6.1\stlport\stl\_tree.c
;	COMDAT ?insert_unique@?$_Rb_tree@IU?$pair@$$CBIK@_STL@@U?$_Select1st@U?$pair@$$CBIK@_STL@@@2@U?$less@I@2@V?$allocator@U?$pair@$$CBIK@_STL@@@2@@_STL@@QAE?AU?$pair@U?$_Rb_tree_iterator@U?$pair@$$CBIK@_STL@@U?$_Nonconst_traits@U?$pair@$$CBIK@_STL@@@2@@_STL@@_N@2@ABU?$pair@$$CBIK@2@@Z
_TEXT	SEGMENT
___$ReturnUdt$ = 8					; size = 4
$T102089 = 12						; size = 4
___v$ = 12						; size = 4
?insert_unique@?$_Rb_tree@IU?$pair@$$CBIK@_STL@@U?$_Select1st@U?$pair@$$CBIK@_STL@@@2@U?$less@I@2@V?$allocator@U?$pair@$$CBIK@_STL@@@2@@_STL@@QAE?AU?$pair@U?$_Rb_tree_iterator@U?$pair@$$CBIK@_STL@@U?$_Nonconst_traits@U?$pair@$$CBIK@_STL@@@2@@_STL@@_N@2@ABU?$pair@$$CBIK@2@@Z PROC NEAR ; _STL::_Rb_tree<unsigned int,_STL::pair<unsigned int const ,unsigned long>,_STL::_Select1st<_STL::pair<unsigned int const ,unsigned long> >,_STL::less<unsigned int>,_STL::allocator<_STL::pair<unsigned int const ,unsigned long> > >::insert_unique, COMDAT
; _this$ = ecx

; 401  : {

  00000	55		 push	 ebp
  00001	8b ec		 mov	 ebp, esp
  00003	53		 push	 ebx
  00004	8b d9		 mov	 ebx, ecx

; 402  :   _Link_type __y = this->_M_header._M_data;

  00006	8b 0b		 mov	 ecx, DWORD PTR [ebx]
  00008	56		 push	 esi

; 403  :   _Link_type __x = _M_root();

  00009	8b 71 04	 mov	 esi, DWORD PTR [ecx+4]

; 404  :   bool __comp = true;
; 405  :   while (__x != 0) {

  0000c	85 f6		 test	 esi, esi
  0000e	57		 push	 edi
  0000f	8b f9		 mov	 edi, ecx
  00011	b2 01		 mov	 dl, 1
  00013	74 1d		 je	 SHORT $L102193

; 417  :     return pair<iterator,bool>(_M_insert(__x, __y, __v), true);

  00015	8b 45 0c	 mov	 eax, DWORD PTR ___v$[ebp]
  00018	8b 00		 mov	 eax, DWORD PTR [eax]
$L100754:
  0001a	3b 46 10	 cmp	 eax, DWORD PTR [esi+16]
  0001d	8b fe		 mov	 edi, esi
  0001f	0f 92 c2	 setb	 dl
  00022	84 d2		 test	 dl, dl
  00024	74 05		 je	 SHORT $L102082

; 406  :     __y = __x;
; 407  :     __comp = _M_key_compare(_KeyOfValue()(__v), _S_key(__x));
; 408  :     __x = __comp ? _S_left(__x) : _S_right(__x);

  00026	8b 76 08	 mov	 esi, DWORD PTR [esi+8]
  00029	eb 03		 jmp	 SHORT $L102083
$L102082:
  0002b	8b 76 0c	 mov	 esi, DWORD PTR [esi+12]
$L102083:

; 404  :   bool __comp = true;
; 405  :   while (__x != 0) {

  0002e	85 f6		 test	 esi, esi
  00030	75 e8		 jne	 SHORT $L100754
$L102193:

; 409  :   }
; 410  :   iterator __j = iterator(__y);   
; 411  :   if (__comp)

  00032	84 d2		 test	 dl, dl
  00034	8b c7		 mov	 eax, edi
  00036	74 15		 je	 SHORT $L102194

; 412  :     if (__j == begin())     

  00038	3b 79 08	 cmp	 edi, DWORD PTR [ecx+8]
  0003b	75 09		 jne	 SHORT $L100783

; 413  :       return pair<iterator,bool>(_M_insert(/* __x*/ __y, __y, __v), true);

  0003d	6a 00		 push	 0
  0003f	ff 75 0c	 push	 DWORD PTR ___v$[ebp]
  00042	57		 push	 edi
  00043	57		 push	 edi
  00044	eb 16		 jmp	 SHORT $L102195
$L100783:

; 414  :     else
; 415  :       --__j;

  00046	57		 push	 edi
  00047	e8 00 00 00 00	 call	 ?_M_decrement@?$_Rb_global@_N@_STL@@SAPAU_Rb_tree_node_base@2@PAU32@@Z ; _STL::_Rb_global<bool>::_M_decrement
  0004c	59		 pop	 ecx
$L102194:

; 416  :   if (_M_key_compare(_S_key(__j._M_node), _KeyOfValue()(__v)))

  0004d	8b 50 10	 mov	 edx, DWORD PTR [eax+16]
  00050	8b 4d 0c	 mov	 ecx, DWORD PTR ___v$[ebp]
  00053	3b 11		 cmp	 edx, DWORD PTR [ecx]
  00055	73 1d		 jae	 SHORT $L100789

; 417  :     return pair<iterator,bool>(_M_insert(__x, __y, __v), true);

  00057	6a 00		 push	 0
  00059	51		 push	 ecx
  0005a	57		 push	 edi
  0005b	56		 push	 esi
$L102195:
  0005c	8d 45 0c	 lea	 eax, DWORD PTR $T102089[ebp]
  0005f	50		 push	 eax
  00060	8b cb		 mov	 ecx, ebx
  00062	e8 00 00 00 00	 call	 ?_M_insert@?$_Rb_tree@IU?$pair@$$CBIK@_STL@@U?$_Select1st@U?$pair@$$CBIK@_STL@@@2@U?$less@I@2@V?$allocator@U?$pair@$$CBIK@_STL@@@2@@_STL@@AAE?AU?$_Rb_tree_iterator@U?$pair@$$CBIK@_STL@@U?$_Nonconst_traits@U?$pair@$$CBIK@_STL@@@2@@2@PAU_Rb_tree_node_base@2@0ABU?$pair@$$CBIK@2@0@Z ; _STL::_Rb_tree<unsigned int,_STL::pair<unsigned int const ,unsigned long>,_STL::_Select1st<_STL::pair<unsigned int const ,unsigned long> >,_STL::less<unsigned int>,_STL::allocator<_STL::pair<unsigned int const ,unsigned long> > >::_M_insert
  00067	8b 08		 mov	 ecx, DWORD PTR [eax]
  00069	8b 45 08	 mov	 eax, DWORD PTR ___$ReturnUdt$[ebp]
  0006c	89 08		 mov	 DWORD PTR [eax], ecx
  0006e	c6 40 04 01	 mov	 BYTE PTR [eax+4], 1
  00072	eb 0b		 jmp	 SHORT $L100749
$L100789:

; 418  :   return pair<iterator,bool>(__j, false);

  00074	8b 4d 08	 mov	 ecx, DWORD PTR ___$ReturnUdt$[ebp]
  00077	89 01		 mov	 DWORD PTR [ecx], eax
  00079	c6 41 04 00	 mov	 BYTE PTR [ecx+4], 0
  0007d	8b c1		 mov	 eax, ecx
$L100749:
  0007f	5f		 pop	 edi
  00080	5e		 pop	 esi
  00081	5b		 pop	 ebx

; 419  : }

  00082	5d		 pop	 ebp
  00083	c2 08 00	 ret	 8
?insert_unique@?$_Rb_tree@IU?$pair@$$CBIK@_STL@@U?$_Select1st@U?$pair@$$CBIK@_STL@@@2@U?$less@I@2@V?$allocator@U?$pair@$$CBIK@_STL@@@2@@_STL@@QAE?AU?$pair@U?$_Rb_tree_iterator@U?$pair@$$CBIK@_STL@@U?$_Nonconst_traits@U?$pair@$$CBIK@_STL@@@2@@_STL@@_N@2@ABU?$pair@$$CBIK@2@@Z ENDP ; _STL::_Rb_tree<unsigned int,_STL::pair<unsigned int const ,unsigned long>,_STL::_Select1st<_STL::pair<unsigned int const ,unsigned long> >,_STL::less<unsigned int>,_STL::allocator<_STL::pair<unsigned int const ,unsigned long> > >::insert_unique
_TEXT	ENDS
PUBLIC	??0MTimeItemManager@@QAE@XZ			; MTimeItemManager::MTimeItemManager
;	COMDAT xdata$x
; File c:\stlport-4.6.1\stlport\stl\_map.h
xdata$x	SEGMENT
$T102205 DD	0ffffffffH
	DD	FLAT:$L102198
$T102203 DD	019930520H
	DD	01H
	DD	FLAT:$T102205
	DD	2 DUP(00H)
	DD	2 DUP(00H)
; Function compile flags: /Ogsy
; File c:\darkeden\designed_common\project\client\mtimeitemmanager.cpp
xdata$x	ENDS
;	COMDAT ??0MTimeItemManager@@QAE@XZ
_TEXT	SEGMENT
_this$ = -16						; size = 4
__$EHRec$ = -12						; size = 12
??0MTimeItemManager@@QAE@XZ PROC NEAR			; MTimeItemManager::MTimeItemManager, COMDAT
; _this$ = ecx

; 7    : {

  00000	b8 00 00 00 00	 mov	 eax, __ehhandler$??0MTimeItemManager@@QAE@XZ
  00005	e8 00 00 00 00	 call	 __EH_prolog
  0000a	51		 push	 ecx
  0000b	56		 push	 esi
  0000c	8b f1		 mov	 esi, ecx
  0000e	89 75 f0	 mov	 DWORD PTR _this$[ebp], esi
  00011	e8 00 00 00 00	 call	 ??0?$map@IKU?$less@I@_STL@@V?$allocator@U?$pair@$$CBIK@_STL@@@2@@_STL@@QAE@XZ ; _STL::map<unsigned int,unsigned long,_STL::less<unsigned int>,_STL::allocator<_STL::pair<unsigned int const ,unsigned long> > >::map<unsigned int,unsigned long,_STL::less<unsigned int>,_STL::allocator<_STL::pair<unsigned int const ,unsigned long> > >
  00016	83 65 fc 00	 and	 DWORD PTR __$EHRec$[ebp+8], 0

; 8    : 	clear();

  0001a	8b ce		 mov	 ecx, esi
  0001c	e8 00 00 00 00	 call	 ?clear@?$_Rb_tree@IU?$pair@$$CBIK@_STL@@U?$_Select1st@U?$pair@$$CBIK@_STL@@@2@U?$less@I@2@V?$allocator@U?$pair@$$CBIK@_STL@@@2@@_STL@@QAEXXZ ; _STL::_Rb_tree<unsigned int,_STL::pair<unsigned int const ,unsigned long>,_STL::_Select1st<_STL::pair<unsigned int const ,unsigned long> >,_STL::less<unsigned int>,_STL::allocator<_STL::pair<unsigned int const ,unsigned long> > >::clear

; 9    : }

  00021	8b 4d f4	 mov	 ecx, DWORD PTR __$EHRec$[ebp]
  00024	8b c6		 mov	 eax, esi
  00026	5e		 pop	 esi
  00027	64 89 0d 00 00
	00 00		 mov	 DWORD PTR fs:__except_list, ecx
  0002e	c9		 leave
  0002f	c3		 ret	 0
_TEXT	ENDS
;	COMDAT text$x
text$x	SEGMENT
$L102198:
  00000	8b 4d f0	 mov	 ecx, DWORD PTR _this$[ebp]
  00003	e9 00 00 00 00	 jmp	 ??1?$map@IKU?$less@I@_STL@@V?$allocator@U?$pair@$$CBIK@_STL@@@2@@_STL@@QAE@XZ
__ehhandler$??0MTimeItemManager@@QAE@XZ:
  00008	b8 00 00 00 00	 mov	 eax, OFFSET FLAT:$T102203
  0000d	e9 00 00 00 00	 jmp	 ___CxxFrameHandler
text$x	ENDS
??0MTimeItemManager@@QAE@XZ ENDP			; MTimeItemManager::MTimeItemManager
PUBLIC	?insert@?$map@IKU?$less@I@_STL@@V?$allocator@U?$pair@$$CBIK@_STL@@@2@@_STL@@QAE?AU?$pair@U?$_Rb_tree_iterator@U?$pair@$$CBIK@_STL@@U?$_Nonconst_traits@U?$pair@$$CBIK@_STL@@@2@@_STL@@_N@2@ABU?$pair@$$CBIK@2@@Z ; _STL::map<unsigned int,unsigned long,_STL::less<unsigned int>,_STL::allocator<_STL::pair<unsigned int const ,unsigned long> > >::insert
; Function compile flags: /Ogsy
; File c:\stlport-4.6.1\stlport\stl\_map.h
;	COMDAT ?insert@?$map@IKU?$less@I@_STL@@V?$allocator@U?$pair@$$CBIK@_STL@@@2@@_STL@@QAE?AU?$pair@U?$_Rb_tree_iterator@U?$pair@$$CBIK@_STL@@U?$_Nonconst_traits@U?$pair@$$CBIK@_STL@@@2@@_STL@@_N@2@ABU?$pair@$$CBIK@2@@Z
_TEXT	SEGMENT
___$ReturnUdt$ = 8					; size = 4
___x$ = 12						; size = 4
?insert@?$map@IKU?$less@I@_STL@@V?$allocator@U?$pair@$$CBIK@_STL@@@2@@_STL@@QAE?AU?$pair@U?$_Rb_tree_iterator@U?$pair@$$CBIK@_STL@@U?$_Nonconst_traits@U?$pair@$$CBIK@_STL@@@2@@_STL@@_N@2@ABU?$pair@$$CBIK@2@@Z PROC NEAR ; _STL::map<unsigned int,unsigned long,_STL::less<unsigned int>,_STL::allocator<_STL::pair<unsigned int const ,unsigned long> > >::insert, COMDAT
; _this$ = ecx

; 170  :     { return _M_t.insert_unique(__x); }

  00000	ff 74 24 08	 push	 DWORD PTR ___x$[esp-4]
  00004	ff 74 24 08	 push	 DWORD PTR ___$ReturnUdt$[esp]
  00008	e8 00 00 00 00	 call	 ?insert_unique@?$_Rb_tree@IU?$pair@$$CBIK@_STL@@U?$_Select1st@U?$pair@$$CBIK@_STL@@@2@U?$less@I@2@V?$allocator@U?$pair@$$CBIK@_STL@@@2@@_STL@@QAE?AU?$pair@U?$_Rb_tree_iterator@U?$pair@$$CBIK@_STL@@U?$_Nonconst_traits@U?$pair@$$CBIK@_STL@@@2@@_STL@@_N@2@ABU?$pair@$$CBIK@2@@Z ; _STL::_Rb_tree<unsigned int,_STL::pair<unsigned int const ,unsigned long>,_STL::_Select1st<_STL::pair<unsigned int const ,unsigned long> >,_STL::less<unsigned int>,_STL::allocator<_STL::pair<unsigned int const ,unsigned long> > >::insert_unique
  0000d	8b 44 24 04	 mov	 eax, DWORD PTR ___$ReturnUdt$[esp-4]
  00011	c2 08 00	 ret	 8
?insert@?$map@IKU?$less@I@_STL@@V?$allocator@U?$pair@$$CBIK@_STL@@@2@@_STL@@QAE?AU?$pair@U?$_Rb_tree_iterator@U?$pair@$$CBIK@_STL@@U?$_Nonconst_traits@U?$pair@$$CBIK@_STL@@@2@@_STL@@_N@2@ABU?$pair@$$CBIK@2@@Z ENDP ; _STL::map<unsigned int,unsigned long,_STL::less<unsigned int>,_STL::allocator<_STL::pair<unsigned int const ,unsigned long> > >::insert
_TEXT	ENDS
PUBLIC	?AddTimeItem@MTimeItemManager@@QAE_NIK@Z	; MTimeItemManager::AddTimeItem
; Function compile flags: /Ogsy
; File c:\darkeden\designed_common\project\client\mtimeitemmanager.cpp
;	COMDAT ?AddTimeItem@MTimeItemManager@@QAE_NIK@Z
_TEXT	SEGMENT
$T102215 = -16						; size = 8
$T102213 = -8						; size = 8
_objectID$ = 8						; size = 4
_time$ = 12						; size = 4
?AddTimeItem@MTimeItemManager@@QAE_NIK@Z PROC NEAR	; MTimeItemManager::AddTimeItem, COMDAT
; _this$ = ecx

; 30   : {

  00000	55		 push	 ebp
  00001	8b ec		 mov	 ebp, esp
  00003	83 ec 10	 sub	 esp, 16			; 00000010H
  00006	56		 push	 esi

; 31   : 	RemoveTimeItem( objectID );

  00007	8b 75 08	 mov	 esi, DWORD PTR _objectID$[ebp]
  0000a	57		 push	 edi
  0000b	56		 push	 esi
  0000c	8b f9		 mov	 edi, ecx
  0000e	e8 00 00 00 00	 call	 ?RemoveTimeItem@MTimeItemManager@@QAE_NI@Z ; MTimeItemManager::RemoveTimeItem

; 32   : 	
; 33   : 	insert( TIMEITEM_MAP::value_type( objectID, time + timeGetTime()/1000 ) );

  00013	89 75 f8	 mov	 DWORD PTR $T102213[ebp], esi
  00016	ff 15 00 00 00
	00		 call	 DWORD PTR __imp__timeGetTime@0
  0001c	33 d2		 xor	 edx, edx
  0001e	b9 e8 03 00 00	 mov	 ecx, 1000		; 000003e8H
  00023	f7 f1		 div	 ecx
  00025	8b cf		 mov	 ecx, edi
  00027	03 45 0c	 add	 eax, DWORD PTR _time$[ebp]
  0002a	89 45 fc	 mov	 DWORD PTR $T102213[ebp+4], eax
  0002d	8d 45 f8	 lea	 eax, DWORD PTR $T102213[ebp]
  00030	50		 push	 eax
  00031	8d 45 f0	 lea	 eax, DWORD PTR $T102215[ebp]
  00034	50		 push	 eax
  00035	e8 00 00 00 00	 call	 ?insert_unique@?$_Rb_tree@IU?$pair@$$CBIK@_STL@@U?$_Select1st@U?$pair@$$CBIK@_STL@@@2@U?$less@I@2@V?$allocator@U?$pair@$$CBIK@_STL@@@2@@_STL@@QAE?AU?$pair@U?$_Rb_tree_iterator@U?$pair@$$CBIK@_STL@@U?$_Nonconst_traits@U?$pair@$$CBIK@_STL@@@2@@_STL@@_N@2@ABU?$pair@$$CBIK@2@@Z ; _STL::_Rb_tree<unsigned int,_STL::pair<unsigned int const ,unsigned long>,_STL::_Select1st<_STL::pair<unsigned int const ,unsigned long> >,_STL::less<unsigned int>,_STL::allocator<_STL::pair<unsigned int const ,unsigned long> > >::insert_unique
  0003a	5f		 pop	 edi

; 34   : 	
; 35   : 	return true;

  0003b	b0 01		 mov	 al, 1
  0003d	5e		 pop	 esi

; 36   : }

  0003e	c9		 leave
  0003f	c2 08 00	 ret	 8
?AddTimeItem@MTimeItemManager@@QAE_NIK@Z ENDP		; MTimeItemManager::AddTimeItem
_TEXT	ENDS
END
