; Listing generated by Microsoft (R) Optimizing Compiler Version 13.10.3077 

	TITLE	\darkeden\Designed_Common\Project\Client\MWorkThread.cpp
	.386P
include listing.inc
if @Version gt 510
.model FLAT
else
_TEXT	SEGMENT PARA USE32 PUBLIC 'CODE'
_TEXT	ENDS
_DATA	SEGMENT DWORD USE32 PUBLIC 'DATA'
_DATA	ENDS
CONST	SEGMENT DWORD USE32 PUBLIC 'CONST'
CONST	ENDS
_BSS	SEGMENT DWORD USE32 PUBLIC 'BSS'
_BSS	ENDS
$$SYMBOLS	SEGMENT BYTE USE32 'DEBSYM'
$$SYMBOLS	ENDS
$$TYPES	SEGMENT BYTE USE32 'DEBTYP'
$$TYPES	ENDS
_TLS	SEGMENT DWORD USE32 PUBLIC 'TLS'
_TLS	ENDS
;	COMDAT ??_C@_0N@GOPDCEEB@basic_string?$AA@
CONST	SEGMENT DWORD USE32 PUBLIC 'CONST'
CONST	ENDS
rdata$r	SEGMENT DWORD USE32 PUBLIC 'CONST'
rdata$r	ENDS
text$yc	SEGMENT PARA USE32 PUBLIC 'CODE'
text$yc	ENDS
CRT$XCA	SEGMENT DWORD USE32 PUBLIC 'DATA'
CRT$XCA	ENDS
CRT$XCU	SEGMENT DWORD USE32 PUBLIC 'DATA'
CRT$XCU	ENDS
CRT$XCL	SEGMENT DWORD USE32 PUBLIC 'DATA'
CRT$XCL	ENDS
CRT$XCC	SEGMENT DWORD USE32 PUBLIC 'DATA'
CRT$XCC	ENDS
CRT$XCZ	SEGMENT DWORD USE32 PUBLIC 'DATA'
CRT$XCZ	ENDS
text$yd	SEGMENT PARA USE32 PUBLIC 'CODE'
text$yd	ENDS
;	COMDAT ?IsTypeOf@MWorkNode@@QAEHH@Z
_TEXT	SEGMENT PARA USE32 PUBLIC 'CODE'
_TEXT	ENDS
;	COMDAT ?Stop@MWorkNode@@QAEXXZ
_TEXT	SEGMENT PARA USE32 PUBLIC 'CODE'
_TEXT	ENDS
;	COMDAT ??0AutoLock@ACriticalSection@@QAE@AAV1@@Z
_TEXT	SEGMENT PARA USE32 PUBLIC 'CODE'
_TEXT	ENDS
;	COMDAT ??1AutoLock@ACriticalSection@@QAE@XZ
_TEXT	SEGMENT PARA USE32 PUBLIC 'CODE'
_TEXT	ENDS
;	COMDAT ??BAutoLock@ACriticalSection@@QAE_NXZ
_TEXT	SEGMENT PARA USE32 PUBLIC 'CODE'
_TEXT	ENDS
;	COMDAT ??0ACriticalSection@@QAE@XZ
_TEXT	SEGMENT PARA USE32 PUBLIC 'CODE'
_TEXT	ENDS
;	COMDAT ??1ACriticalSection@@QAE@XZ
_TEXT	SEGMENT PARA USE32 PUBLIC 'CODE'
_TEXT	ENDS
;	COMDAT ?Lock@ACriticalSection@@QAEXXZ
_TEXT	SEGMENT PARA USE32 PUBLIC 'CODE'
_TEXT	ENDS
;	COMDAT ?Unlock@ACriticalSection@@QAEXXZ
_TEXT	SEGMENT PARA USE32 PUBLIC 'CODE'
_TEXT	ENDS
;	COMDAT ?IsWorking@MWorkThread@@QBEHXZ
_TEXT	SEGMENT PARA USE32 PUBLIC 'CODE'
_TEXT	ENDS
;	COMDAT ?IsFinishCurrentWork@MWorkThread@@QBEHXZ
_TEXT	SEGMENT PARA USE32 PUBLIC 'CODE'
_TEXT	ENDS
;	COMDAT ?IsStopWork@MWorkThread@@QBEHXZ
_TEXT	SEGMENT PARA USE32 PUBLIC 'CODE'
_TEXT	ENDS
;	COMDAT ?WorkThreadProc@@YGIPAX@Z
_TEXT	SEGMENT PARA USE32 PUBLIC 'CODE'
_TEXT	ENDS
;	COMDAT ??0MWorkThread@@QAE@XZ
_TEXT	SEGMENT PARA USE32 PUBLIC 'CODE'
_TEXT	ENDS
;	COMDAT ??0MWorkThread@@QAE@H@Z
_TEXT	SEGMENT PARA USE32 PUBLIC 'CODE'
_TEXT	ENDS
;	COMDAT ??1MWorkThread@@QAE@XZ
_TEXT	SEGMENT PARA USE32 PUBLIC 'CODE'
_TEXT	ENDS
;	COMDAT ?Init@MWorkThread@@QAEXH@Z
_TEXT	SEGMENT PARA USE32 PUBLIC 'CODE'
_TEXT	ENDS
;	COMDAT ?Release@MWorkThread@@QAEXXZ
_TEXT	SEGMENT PARA USE32 PUBLIC 'CODE'
_TEXT	ENDS
;	COMDAT ?ReleaseWork@MWorkThread@@QAEXXZ
_TEXT	SEGMENT PARA USE32 PUBLIC 'CODE'
_TEXT	ENDS
;	COMDAT ?Execute@MWorkThread@@QAEXXZ
_TEXT	SEGMENT PARA USE32 PUBLIC 'CODE'
_TEXT	ENDS
;	COMDAT ?Remove@MWorkThread@@QAEXH@Z
_TEXT	SEGMENT PARA USE32 PUBLIC 'CODE'
_TEXT	ENDS
;	COMDAT ?AddFirst@MWorkThread@@QAEXPAVMWorkNode@@@Z
_TEXT	SEGMENT PARA USE32 PUBLIC 'CODE'
_TEXT	ENDS
;	COMDAT ?AddLast@MWorkThread@@QAEXPAVMWorkNode@@@Z
_TEXT	SEGMENT PARA USE32 PUBLIC 'CODE'
_TEXT	ENDS
;	COMDAT ?eq@?$__char_traits_base@DH@_STL@@SA_NABD0@Z
_TEXT	SEGMENT PARA USE32 PUBLIC 'CODE'
_TEXT	ENDS
;	COMDAT ?not_eof@?$__char_traits_base@DH@_STL@@SAHABH@Z
_TEXT	SEGMENT PARA USE32 PUBLIC 'CODE'
_TEXT	ENDS
;	COMDAT ?eq_int_type@?$__char_traits_base@DH@_STL@@SA_NABH0@Z
_TEXT	SEGMENT PARA USE32 PUBLIC 'CODE'
_TEXT	ENDS
;	COMDAT ?get_allocator@?$basic_string@DV?$char_traits@D@_STL@@V?$allocator@D@2@@_STL@@QBE?AV?$allocator@D@2@XZ
_TEXT	SEGMENT PARA USE32 PUBLIC 'CODE'
_TEXT	ENDS
;	COMDAT ?_M_terminate_string@?$basic_string@DV?$char_traits@D@_STL@@V?$allocator@D@2@@_STL@@AAEXXZ
_TEXT	SEGMENT PARA USE32 PUBLIC 'CODE'
_TEXT	ENDS
;	COMDAT ??0?$_String_base@DV?$allocator@D@_STL@@@_STL@@QAE@ABV?$allocator@D@1@@Z
_TEXT	SEGMENT PARA USE32 PUBLIC 'CODE'
_TEXT	ENDS
;	COMDAT ?allocate@?$allocator@D@_STL@@QAEPADIPBX@Z
_TEXT	SEGMENT PARA USE32 PUBLIC 'CODE'
_TEXT	ENDS
;	COMDAT ??0?$fpos@H@_STL@@QAE@J@Z
_TEXT	SEGMENT PARA USE32 PUBLIC 'CODE'
_TEXT	ENDS
;	COMDAT ??B?$fpos@H@_STL@@QBEJXZ
_TEXT	SEGMENT PARA USE32 PUBLIC 'CODE'
_TEXT	ENDS
;	COMDAT ?state@?$fpos@H@_STL@@QBEHXZ
_TEXT	SEGMENT PARA USE32 PUBLIC 'CODE'
_TEXT	ENDS
;	COMDAT ?is_open@?$basic_filebuf@DV?$char_traits@D@_STL@@@_STL@@QBE_NXZ
_TEXT	SEGMENT PARA USE32 PUBLIC 'CODE'
_TEXT	ENDS
;	COMDAT ?_M_seek_return@?$basic_filebuf@DV?$char_traits@D@_STL@@@_STL@@AAE?AV?$fpos@H@2@JH@Z
_TEXT	SEGMENT PARA USE32 PUBLIC 'CODE'
_TEXT	ENDS
;	COMDAT ??0?$_Filebuf_Tmp_Buf@D@_STL@@QAE@H@Z
_TEXT	SEGMENT PARA USE32 PUBLIC 'CODE'
_TEXT	ENDS
;	COMDAT ??1?$_Filebuf_Tmp_Buf@D@_STL@@QAE@XZ
_TEXT	SEGMENT PARA USE32 PUBLIC 'CODE'
_TEXT	ENDS
;	COMDAT ??0?$list@PAVMWorkNode@@V?$allocator@PAVMWorkNode@@@_STL@@@_STL@@QAE@ABV?$allocator@PAVMWorkNode@@@1@@Z
_TEXT	SEGMENT PARA USE32 PUBLIC 'CODE'
_TEXT	ENDS
;	COMDAT ?begin@?$list@PAVMWorkNode@@V?$allocator@PAVMWorkNode@@@_STL@@@_STL@@QAE?AU?$_List_iterator@PAVMWorkNode@@U?$_Nonconst_traits@PAVMWorkNode@@@_STL@@@2@XZ
_TEXT	SEGMENT PARA USE32 PUBLIC 'CODE'
_TEXT	ENDS
;	COMDAT ?end@?$list@PAVMWorkNode@@V?$allocator@PAVMWorkNode@@@_STL@@@_STL@@QAE?AU?$_List_iterator@PAVMWorkNode@@U?$_Nonconst_traits@PAVMWorkNode@@@_STL@@@2@XZ
_TEXT	SEGMENT PARA USE32 PUBLIC 'CODE'
_TEXT	ENDS
;	COMDAT ?size@?$list@PAVMWorkNode@@V?$allocator@PAVMWorkNode@@@_STL@@@_STL@@QBEIXZ
_TEXT	SEGMENT PARA USE32 PUBLIC 'CODE'
_TEXT	ENDS
;	COMDAT ?front@?$list@PAVMWorkNode@@V?$allocator@PAVMWorkNode@@@_STL@@@_STL@@QAEAAPAVMWorkNode@@XZ
_TEXT	SEGMENT PARA USE32 PUBLIC 'CODE'
_TEXT	ENDS
;	COMDAT ?push_front@?$list@PAVMWorkNode@@V?$allocator@PAVMWorkNode@@@_STL@@@_STL@@QAEXABQAVMWorkNode@@@Z
_TEXT	SEGMENT PARA USE32 PUBLIC 'CODE'
_TEXT	ENDS
;	COMDAT ?push_back@?$list@PAVMWorkNode@@V?$allocator@PAVMWorkNode@@@_STL@@@_STL@@QAEXABQAVMWorkNode@@@Z
_TEXT	SEGMENT PARA USE32 PUBLIC 'CODE'
_TEXT	ENDS
;	COMDAT ?erase@?$list@PAVMWorkNode@@V?$allocator@PAVMWorkNode@@@_STL@@@_STL@@QAE?AU?$_List_iterator@PAVMWorkNode@@U?$_Nonconst_traits@PAVMWorkNode@@@_STL@@@2@U32@@Z
_TEXT	SEGMENT PARA USE32 PUBLIC 'CODE'
_TEXT	ENDS
;	COMDAT ?pop_front@?$list@PAVMWorkNode@@V?$allocator@PAVMWorkNode@@@_STL@@@_STL@@QAEXXZ
_TEXT	SEGMENT PARA USE32 PUBLIC 'CODE'
_TEXT	ENDS
;	COMDAT ??1?$list@PAVMWorkNode@@V?$allocator@PAVMWorkNode@@@_STL@@@_STL@@QAE@XZ
_TEXT	SEGMENT PARA USE32 PUBLIC 'CODE'
_TEXT	ENDS
;	COMDAT ??0?$allocator@PAVMWorkNode@@@_STL@@QAE@XZ
_TEXT	SEGMENT PARA USE32 PUBLIC 'CODE'
_TEXT	ENDS
;	COMDAT ??1?$allocator@PAVMWorkNode@@@_STL@@QAE@XZ
_TEXT	SEGMENT PARA USE32 PUBLIC 'CODE'
_TEXT	ENDS
;	COMDAT ??0?$_List_iterator@PAVMWorkNode@@U?$_Nonconst_traits@PAVMWorkNode@@@_STL@@@_STL@@QAE@XZ
_TEXT	SEGMENT PARA USE32 PUBLIC 'CODE'
_TEXT	ENDS
;	COMDAT ??0?$_List_iterator@PAVMWorkNode@@U?$_Nonconst_traits@PAVMWorkNode@@@_STL@@@_STL@@QAE@ABU01@@Z
_TEXT	SEGMENT PARA USE32 PUBLIC 'CODE'
_TEXT	ENDS
;	COMDAT ??D?$_List_iterator@PAVMWorkNode@@U?$_Nonconst_traits@PAVMWorkNode@@@_STL@@@_STL@@QBEAAPAVMWorkNode@@XZ
_TEXT	SEGMENT PARA USE32 PUBLIC 'CODE'
_TEXT	ENDS
;	COMDAT ??E?$_List_iterator@PAVMWorkNode@@U?$_Nonconst_traits@PAVMWorkNode@@@_STL@@@_STL@@QAE?AU01@H@Z
_TEXT	SEGMENT PARA USE32 PUBLIC 'CODE'
_TEXT	ENDS
;	COMDAT ?_M_terminate_string_aux@?$basic_string@DV?$char_traits@D@_STL@@V?$allocator@D@2@@_STL@@AAEXABU__true_type@2@@Z
_TEXT	SEGMENT PARA USE32 PUBLIC 'CODE'
_TEXT	ENDS
;	COMDAT ??0?$allocator@D@_STL@@QAE@ABV01@@Z
_TEXT	SEGMENT PARA USE32 PUBLIC 'CODE'
_TEXT	ENDS
;	COMDAT ??0?$_STLP_alloc_proxy@PADDV?$allocator@D@_STL@@@_STL@@QAE@ABV?$allocator@D@1@PAD@Z
_TEXT	SEGMENT PARA USE32 PUBLIC 'CODE'
_TEXT	ENDS
;	COMDAT ?state@?$fpos@H@_STL@@QAEXH@Z
_TEXT	SEGMENT PARA USE32 PUBLIC 'CODE'
_TEXT	ENDS
;	COMDAT ?begin@?$list@PAVMWorkNode@@V?$allocator@PAVMWorkNode@@@_STL@@@_STL@@QBE?AU?$_List_iterator@PAVMWorkNode@@U?$_Const_traits@PAVMWorkNode@@@_STL@@@2@XZ
_TEXT	SEGMENT PARA USE32 PUBLIC 'CODE'
_TEXT	ENDS
;	COMDAT ?end@?$list@PAVMWorkNode@@V?$allocator@PAVMWorkNode@@@_STL@@@_STL@@QBE?AU?$_List_iterator@PAVMWorkNode@@U?$_Const_traits@PAVMWorkNode@@@_STL@@@2@XZ
_TEXT	SEGMENT PARA USE32 PUBLIC 'CODE'
_TEXT	ENDS
;	COMDAT ?insert@?$list@PAVMWorkNode@@V?$allocator@PAVMWorkNode@@@_STL@@@_STL@@QAE?AU?$_List_iterator@PAVMWorkNode@@U?$_Nonconst_traits@PAVMWorkNode@@@_STL@@@2@U32@ABQAVMWorkNode@@@Z
_TEXT	SEGMENT PARA USE32 PUBLIC 'CODE'
_TEXT	ENDS
;	COMDAT ??0?$_List_base@PAVMWorkNode@@V?$allocator@PAVMWorkNode@@@_STL@@@_STL@@QAE@ABV?$allocator@PAVMWorkNode@@@1@@Z
_TEXT	SEGMENT PARA USE32 PUBLIC 'CODE'
_TEXT	ENDS
;	COMDAT ??1?$_List_base@PAVMWorkNode@@V?$allocator@PAVMWorkNode@@@_STL@@@_STL@@QAE@XZ
_TEXT	SEGMENT PARA USE32 PUBLIC 'CODE'
_TEXT	ENDS
;	COMDAT ?deallocate@?$allocator@U?$_List_node@PAVMWorkNode@@@_STL@@@_STL@@QAEXPAU?$_List_node@PAVMWorkNode@@@2@I@Z
_TEXT	SEGMENT PARA USE32 PUBLIC 'CODE'
_TEXT	ENDS
;	COMDAT ??0?$_List_iterator@PAVMWorkNode@@U?$_Nonconst_traits@PAVMWorkNode@@@_STL@@@_STL@@QAE@PAU?$_List_node@PAVMWorkNode@@@1@@Z
_TEXT	SEGMENT PARA USE32 PUBLIC 'CODE'
_TEXT	ENDS
;	COMDAT ??1?$_STLP_alloc_proxy@PAU?$_List_node@PAVMWorkNode@@@_STL@@U12@V?$allocator@U?$_List_node@PAVMWorkNode@@@_STL@@@2@@_STL@@QAE@XZ
_TEXT	SEGMENT PARA USE32 PUBLIC 'CODE'
_TEXT	ENDS
;	COMDAT ?_M_create_node@?$list@PAVMWorkNode@@V?$allocator@PAVMWorkNode@@@_STL@@@_STL@@IAEPAU?$_List_node@PAVMWorkNode@@@2@ABQAVMWorkNode@@@Z
_TEXT	SEGMENT PARA USE32 PUBLIC 'CODE'
_TEXT	ENDS
;	COMDAT ??0?$_STLP_alloc_proxy@PAU?$_List_node@PAVMWorkNode@@@_STL@@U12@V?$allocator@U?$_List_node@PAVMWorkNode@@@_STL@@@2@@_STL@@QAE@ABV?$allocator@U?$_List_node@PAVMWorkNode@@@_STL@@@1@PAU?$_List_node@PAVMWorkNode@@@1@@Z
_TEXT	SEGMENT PARA USE32 PUBLIC 'CODE'
_TEXT	ENDS
;	COMDAT ??1?$allocator@U?$_List_node@PAVMWorkNode@@@_STL@@@_STL@@QAE@XZ
_TEXT	SEGMENT PARA USE32 PUBLIC 'CODE'
_TEXT	ENDS
;	COMDAT ?allocate@?$allocator@U?$_List_node@PAVMWorkNode@@@_STL@@@_STL@@QAEPAU?$_List_node@PAVMWorkNode@@@2@IPBX@Z
_TEXT	SEGMENT PARA USE32 PUBLIC 'CODE'
_TEXT	ENDS
;	COMDAT ??0?$_List_iterator@PAVMWorkNode@@U?$_Const_traits@PAVMWorkNode@@@_STL@@@_STL@@QAE@PAU?$_List_node@PAVMWorkNode@@@1@@Z
_TEXT	SEGMENT PARA USE32 PUBLIC 'CODE'
_TEXT	ENDS
;	COMDAT ??0?$allocator@U?$_List_node@PAVMWorkNode@@@_STL@@@_STL@@QAE@ABV01@@Z
_TEXT	SEGMENT PARA USE32 PUBLIC 'CODE'
_TEXT	ENDS
;	COMDAT ??$_M_range_initialize@PBD@?$basic_string@DV?$char_traits@D@_STL@@V?$allocator@D@2@@_STL@@AAEXPBD0@Z
_TEXT	SEGMENT PARA USE32 PUBLIC 'CODE'
_TEXT	ENDS
;	COMDAT ??$_M_range_initialize@PAD@?$basic_string@DV?$char_traits@D@_STL@@V?$allocator@D@2@@_STL@@AAEXPAD0@Z
_TEXT	SEGMENT PARA USE32 PUBLIC 'CODE'
_TEXT	ENDS
;	COMDAT ?close@?$basic_filebuf@DV?$char_traits@D@_STL@@@_STL@@QAEPAV12@XZ
_TEXT	SEGMENT PARA USE32 PUBLIC 'CODE'
_TEXT	ENDS
;	COMDAT ?_M_exit_input_mode@?$basic_filebuf@DV?$char_traits@D@_STL@@@_STL@@AAEXXZ
_TEXT	SEGMENT PARA USE32 PUBLIC 'CODE'
_TEXT	ENDS
;	COMDAT ?_M_switch_to_output_mode@?$basic_filebuf@DV?$char_traits@D@_STL@@@_STL@@AAE_NXZ
_TEXT	SEGMENT PARA USE32 PUBLIC 'CODE'
_TEXT	ENDS
;	COMDAT ?_M_output_error@?$basic_filebuf@DV?$char_traits@D@_STL@@@_STL@@AAEHXZ
_TEXT	SEGMENT PARA USE32 PUBLIC 'CODE'
_TEXT	ENDS
;	COMDAT ?_M_allocate_buffers@?$basic_filebuf@DV?$char_traits@D@_STL@@@_STL@@AAE_NPADH@Z
_TEXT	SEGMENT PARA USE32 PUBLIC 'CODE'
_TEXT	ENDS
;	COMDAT ?_M_deallocate_buffers@?$basic_filebuf@DV?$char_traits@D@_STL@@@_STL@@AAEXXZ
_TEXT	SEGMENT PARA USE32 PUBLIC 'CODE'
_TEXT	ENDS
;	COMDAT ?_M_seek_init@?$basic_filebuf@DV?$char_traits@D@_STL@@@_STL@@AAE_N_N@Z
_TEXT	SEGMENT PARA USE32 PUBLIC 'CODE'
_TEXT	ENDS
;	COMDAT ?_M_setup_codecvt@?$basic_filebuf@DV?$char_traits@D@_STL@@@_STL@@AAEXABVlocale@2@@Z
_TEXT	SEGMENT PARA USE32 PUBLIC 'CODE'
_TEXT	ENDS
;	COMDAT ??$equal@PADPADU?$_Eq_traits@V?$char_traits@D@_STL@@@_STL@@@_STL@@YA_NPAD00U?$_Eq_traits@V?$char_traits@D@_STL@@@0@@Z
_TEXT	SEGMENT PARA USE32 PUBLIC 'CODE'
_TEXT	ENDS
;	COMDAT ??$_Destroy@V?$basic_string@DV?$char_traits@D@_STL@@V?$allocator@D@2@@_STL@@@_STL@@YAXPAV?$basic_string@DV?$char_traits@D@_STL@@V?$allocator@D@2@@0@@Z
_TEXT	SEGMENT PARA USE32 PUBLIC 'CODE'
_TEXT	ENDS
;	COMDAT ??$_M_assign_dispatch@PAD@?$basic_string@DV?$char_traits@D@_STL@@V?$allocator@D@2@@_STL@@AAEAAV01@PAD0ABU__false_type@1@@Z
_TEXT	SEGMENT PARA USE32 PUBLIC 'CODE'
_TEXT	ENDS
;	COMDAT ?clear@?$_List_base@PAVMWorkNode@@V?$allocator@PAVMWorkNode@@@_STL@@@_STL@@QAEXXZ
_TEXT	SEGMENT PARA USE32 PUBLIC 'CODE'
_TEXT	ENDS
;	COMDAT ??$distance@U?$_List_iterator@PAVMWorkNode@@U?$_Const_traits@PAVMWorkNode@@@_STL@@@_STL@@@_STL@@YAHABU?$_List_iterator@PAVMWorkNode@@U?$_Const_traits@PAVMWorkNode@@@_STL@@@0@0@Z
_TEXT	SEGMENT PARA USE32 PUBLIC 'CODE'
_TEXT	ENDS
;	COMDAT ??$_Destroy@PAVMWorkNode@@@_STL@@YAXPAPAVMWorkNode@@@Z
_TEXT	SEGMENT PARA USE32 PUBLIC 'CODE'
_TEXT	ENDS
;	COMDAT ??$?0PAVMWorkNode@@@?$allocator@U?$_List_node@PAVMWorkNode@@@_STL@@@_STL@@QAE@ABV?$allocator@PAVMWorkNode@@@1@@Z
_TEXT	SEGMENT PARA USE32 PUBLIC 'CODE'
_TEXT	ENDS
;	COMDAT ??$_Construct@PAVMWorkNode@@PAV1@@_STL@@YAXPAPAVMWorkNode@@ABQAV1@@Z
_TEXT	SEGMENT PARA USE32 PUBLIC 'CODE'
_TEXT	ENDS
;	COMDAT ??_G?$basic_string@DV?$char_traits@D@_STL@@V?$allocator@D@2@@_STL@@QAEPAXI@Z
_TEXT	SEGMENT PARA USE32 PUBLIC 'CODE'
_TEXT	ENDS
;	COMDAT ?end@?$basic_string@DV?$char_traits@D@_STL@@V?$allocator@D@2@@_STL@@QAEPADXZ
_TEXT	SEGMENT PARA USE32 PUBLIC 'CODE'
_TEXT	ENDS
;	COMDAT ?erase@?$basic_string@DV?$char_traits@D@_STL@@V?$allocator@D@2@@_STL@@QAEPADPAD0@Z
_TEXT	SEGMENT PARA USE32 PUBLIC 'CODE'
_TEXT	ENDS
;	COMDAT ?_M_exit_putback_mode@?$basic_filebuf@DV?$char_traits@D@_STL@@@_STL@@AAEXXZ
_TEXT	SEGMENT PARA USE32 PUBLIC 'CODE'
_TEXT	ENDS
;	COMDAT ??R?$_Eq_traits@V?$char_traits@D@_STL@@@_STL@@QBE_NABD0@Z
_TEXT	SEGMENT PARA USE32 PUBLIC 'CODE'
_TEXT	ENDS
;	COMDAT ?move@?$__char_traits_base@DH@_STL@@SAPADPADPBDI@Z
_TEXT	SEGMENT PARA USE32 PUBLIC 'CODE'
_TEXT	ENDS
;	COMDAT ??$_M_range_initialize@PBD@?$basic_string@DV?$char_traits@D@_STL@@V?$allocator@D@2@@_STL@@AAEXPBD0ABUforward_iterator_tag@1@@Z
_TEXT	SEGMENT PARA USE32 PUBLIC 'CODE'
_TEXT	ENDS
;	COMDAT ??$_M_range_initialize@PAD@?$basic_string@DV?$char_traits@D@_STL@@V?$allocator@D@2@@_STL@@AAEXPAD0ABUforward_iterator_tag@1@@Z
_TEXT	SEGMENT PARA USE32 PUBLIC 'CODE'
_TEXT	ENDS
;	COMDAT ?_M_unshift@?$basic_filebuf@DV?$char_traits@D@_STL@@@_STL@@AAE_NXZ
_TEXT	SEGMENT PARA USE32 PUBLIC 'CODE'
_TEXT	ENDS
;	COMDAT ?_M_allocate_buffers@?$basic_filebuf@DV?$char_traits@D@_STL@@@_STL@@AAE_NXZ
_TEXT	SEGMENT PARA USE32 PUBLIC 'CODE'
_TEXT	ENDS
;	COMDAT ??$max@H@_STL@@YAABHABH0@Z
_TEXT	SEGMENT PARA USE32 PUBLIC 'CODE'
_TEXT	ENDS
;	COMDAT ??$use_facet@V?$codecvt@DDH@_STL@@@_STL@@YAABV?$codecvt@DDH@0@ABVlocale@0@@Z
_TEXT	SEGMENT PARA USE32 PUBLIC 'CODE'
_TEXT	ENDS
;	COMDAT ??$append@PAD@?$basic_string@DV?$char_traits@D@_STL@@V?$allocator@D@2@@_STL@@QAEAAV01@PAD0@Z
_TEXT	SEGMENT PARA USE32 PUBLIC 'CODE'
_TEXT	ENDS
;	COMDAT ??$__distance@U?$_List_iterator@PAVMWorkNode@@U?$_Const_traits@PAVMWorkNode@@@_STL@@@_STL@@@_STL@@YAHABU?$_List_iterator@PAVMWorkNode@@U?$_Const_traits@PAVMWorkNode@@@_STL@@@0@0ABUinput_iterator_tag@0@@Z
_TEXT	SEGMENT PARA USE32 PUBLIC 'CODE'
_TEXT	ENDS
;	COMDAT ??E?$_List_iterator@PAVMWorkNode@@U?$_Const_traits@PAVMWorkNode@@@_STL@@@_STL@@QAEAAU01@XZ
_TEXT	SEGMENT PARA USE32 PUBLIC 'CODE'
_TEXT	ENDS
;	COMDAT ??$distance@PBD@_STL@@YAHABQBD0@Z
_TEXT	SEGMENT PARA USE32 PUBLIC 'CODE'
_TEXT	ENDS
;	COMDAT ?_M_allocate_block@?$_String_base@DV?$allocator@D@_STL@@@_STL@@QAEXI@Z
_TEXT	SEGMENT PARA USE32 PUBLIC 'CODE'
_TEXT	ENDS
;	COMDAT ??$distance@PAD@_STL@@YAHABQAD0@Z
_TEXT	SEGMENT PARA USE32 PUBLIC 'CODE'
_TEXT	ENDS
;	COMDAT ??$uninitialized_copy@PADPAD@_STL@@YAPADPAD00@Z
_TEXT	SEGMENT PARA USE32 PUBLIC 'CODE'
_TEXT	ENDS
;	COMDAT ??$_M_append_dispatch@PAD@?$basic_string@DV?$char_traits@D@_STL@@V?$allocator@D@2@@_STL@@AAEAAV01@PAD0ABU__false_type@1@@Z
_TEXT	SEGMENT PARA USE32 PUBLIC 'CODE'
_TEXT	ENDS
;	COMDAT ?max_size@?$_String_base@DV?$allocator@D@_STL@@@_STL@@QBEIXZ
_TEXT	SEGMENT PARA USE32 PUBLIC 'CODE'
_TEXT	ENDS
;	COMDAT ??$__distance@PBD@_STL@@YAHABQBD0ABUrandom_access_iterator_tag@0@@Z
_TEXT	SEGMENT PARA USE32 PUBLIC 'CODE'
_TEXT	ENDS
;	COMDAT ?_M_throw_length_error@?$_String_base@DV?$allocator@D@_STL@@@_STL@@QBEXXZ
_TEXT	SEGMENT PARA USE32 PUBLIC 'CODE'
_TEXT	ENDS
;	COMDAT ??$__distance@PAD@_STL@@YAHABQAD0ABUrandom_access_iterator_tag@0@@Z
_TEXT	SEGMENT PARA USE32 PUBLIC 'CODE'
_TEXT	ENDS
;	COMDAT ??$__uninitialized_copy@PADPAD@_STL@@YAPADPAD00ABU__true_type@0@@Z
_TEXT	SEGMENT PARA USE32 PUBLIC 'CODE'
_TEXT	ENDS
;	COMDAT ??$append@PAD@?$basic_string@DV?$char_traits@D@_STL@@V?$allocator@D@2@@_STL@@AAEAAV01@PAD0ABUforward_iterator_tag@1@@Z
_TEXT	SEGMENT PARA USE32 PUBLIC 'CODE'
_TEXT	ENDS
;	COMDAT ?_M_construct_null@?$basic_string@DV?$char_traits@D@_STL@@V?$allocator@D@2@@_STL@@AAEXPAD@Z
_TEXT	SEGMENT PARA USE32 PUBLIC 'CODE'
_TEXT	ENDS
;	COMDAT ?size@?$basic_string@DV?$char_traits@D@_STL@@V?$allocator@D@2@@_STL@@QBEIXZ
_TEXT	SEGMENT PARA USE32 PUBLIC 'CODE'
_TEXT	ENDS
;	COMDAT ?max_size@?$basic_string@DV?$char_traits@D@_STL@@V?$allocator@D@2@@_STL@@QBEIXZ
_TEXT	SEGMENT PARA USE32 PUBLIC 'CODE'
_TEXT	ENDS
;	COMDAT ?capacity@?$basic_string@DV?$char_traits@D@_STL@@V?$allocator@D@2@@_STL@@QBEIXZ
_TEXT	SEGMENT PARA USE32 PUBLIC 'CODE'
_TEXT	ENDS
;	COMDAT ?_Ret@?$_BothPtrType@PADPAD@_STL@@SA?AU__true_type@2@XZ
_TEXT	SEGMENT PARA USE32 PUBLIC 'CODE'
_TEXT	ENDS
;	COMDAT ?_M_construct_null_aux@?$basic_string@DV?$char_traits@D@_STL@@V?$allocator@D@2@@_STL@@AAEXPADABU__true_type@2@@Z
_TEXT	SEGMENT PARA USE32 PUBLIC 'CODE'
_TEXT	ENDS
;	COMDAT ??$__copy_aux@PADPAD@_STL@@YAPADPAD00ABU__true_type@0@@Z
_TEXT	SEGMENT PARA USE32 PUBLIC 'CODE'
_TEXT	ENDS
;	COMDAT ??$max@I@_STL@@YAABIABI0@Z
_TEXT	SEGMENT PARA USE32 PUBLIC 'CODE'
_TEXT	ENDS
;	COMDAT ?_Ret@?$_OKToMemCpy@DD@_STL@@SA?AU__true_type@2@XZ
_TEXT	SEGMENT PARA USE32 PUBLIC 'CODE'
_TEXT	ENDS
;	COMDAT ??$_IsOKToMemCpy@DD@_STL@@YA?AU?$_OKToMemCpy@DD@0@PAD0@Z
_TEXT	SEGMENT PARA USE32 PUBLIC 'CODE'
_TEXT	ENDS
;	COMDAT ??$__copy_ptrs@PADPAD@_STL@@YAPADPAD00ABU__true_type@0@@Z
_TEXT	SEGMENT PARA USE32 PUBLIC 'CODE'
_TEXT	ENDS
;	COMDAT ?__copy_trivial@_STL@@YAPAXPBX0PAX@Z
_TEXT	SEGMENT PARA USE32 PUBLIC 'CODE'
_TEXT	ENDS
;	COMDAT ?_M_deallocate_block@?$_String_base@DV?$allocator@D@_STL@@@_STL@@QAEXXZ
_TEXT	SEGMENT PARA USE32 PUBLIC 'CODE'
_TEXT	ENDS
;	COMDAT ?deallocate@?$allocator@D@_STL@@QAEXPADI@Z
_TEXT	SEGMENT PARA USE32 PUBLIC 'CODE'
_TEXT	ENDS
;	COMDAT ?__page_size@_Filebuf_base@_STL@@SAIXZ
_TEXT	SEGMENT PARA USE32 PUBLIC 'CODE'
_TEXT	ENDS
;	COMDAT ?_M_write@?$basic_filebuf@DV?$char_traits@D@_STL@@@_STL@@QAE_NPADH@Z
_TEXT	SEGMENT PARA USE32 PUBLIC 'CODE'
_TEXT	ENDS
;	COMDAT ?unshift@?$codecvt@DDH@_STL@@QBE?AW4result@codecvt_base@2@AAHPAD1AAPAD@Z
_TEXT	SEGMENT PARA USE32 PUBLIC 'CODE'
_TEXT	ENDS
;	COMDAT ?uninitialized_copy@_STL@@YAPADPBD0PAD@Z
_TEXT	SEGMENT PARA USE32 PUBLIC 'CODE'
_TEXT	ENDS
;	COMDAT ?_Destroy@_STL@@YAXPAD0@Z
_TEXT	SEGMENT PARA USE32 PUBLIC 'CODE'
_TEXT	ENDS
;	COMDAT ??1?$basic_string@DV?$char_traits@D@_STL@@V?$allocator@D@2@@_STL@@QAE@XZ
_TEXT	SEGMENT PARA USE32 PUBLIC 'CODE'
_TEXT	ENDS
;	COMDAT ??1?$_String_base@DV?$allocator@D@_STL@@@_STL@@QAE@XZ
_TEXT	SEGMENT PARA USE32 PUBLIC 'CODE'
_TEXT	ENDS
;	COMDAT ??2@YAPAXIPAX@Z
_TEXT	SEGMENT PARA USE32 PUBLIC 'CODE'
_TEXT	ENDS
;	COMDAT ?assign@?$char_traits@D@_STL@@SAXAADABD@Z
_TEXT	SEGMENT PARA USE32 PUBLIC 'CODE'
_TEXT	ENDS
;	COMDAT ?always_noconv@?$codecvt@DDH@_STL@@QBE_NXZ
_TEXT	SEGMENT PARA USE32 PUBLIC 'CODE'
_TEXT	ENDS
;	COMDAT ?encoding@?$codecvt@DDH@_STL@@QBEHXZ
_TEXT	SEGMENT PARA USE32 PUBLIC 'CODE'
_TEXT	ENDS
;	COMDAT ?max_length@?$codecvt@DDH@_STL@@QBEHXZ
_TEXT	SEGMENT PARA USE32 PUBLIC 'CODE'
_TEXT	ENDS
;	COMDAT ?__o_mode@_Filebuf_base@_STL@@QBEHXZ
_TEXT	SEGMENT PARA USE32 PUBLIC 'CODE'
_TEXT	ENDS
;	COMDAT ?deallocate@?$__node_alloc@$00$0A@@_STL@@SAXPAXI@Z
_TEXT	SEGMENT PARA USE32 PUBLIC 'CODE'
_TEXT	ENDS
;	COMDAT ?__stl_delete@_STL@@YAXPAX@Z
_TEXT	SEGMENT PARA USE32 PUBLIC 'CODE'
_TEXT	ENDS
;	COMDAT ?_M_incr@_List_iterator_base@_STL@@QAEXXZ
_TEXT	SEGMENT PARA USE32 PUBLIC 'CODE'
_TEXT	ENDS
;	COMDAT ??0_List_iterator_base@_STL@@QAE@PAU_List_node_base@1@@Z
_TEXT	SEGMENT PARA USE32 PUBLIC 'CODE'
_TEXT	ENDS
;	COMDAT ??0_List_iterator_base@_STL@@QAE@XZ
_TEXT	SEGMENT PARA USE32 PUBLIC 'CODE'
_TEXT	ENDS
;	COMDAT ?setp@?$basic_streambuf@DV?$char_traits@D@_STL@@@_STL@@IAEXPAD0@Z
_TEXT	SEGMENT PARA USE32 PUBLIC 'CODE'
_TEXT	ENDS
;	COMDAT ?_FILE_O_set@_STL@@YAXPAU_iobuf@@PAD11@Z
_TEXT	SEGMENT PARA USE32 PUBLIC 'CODE'
_TEXT	ENDS
;	COMDAT ?_FILE_I_set@_STL@@YAXPAU_iobuf@@PAD11@Z
_TEXT	SEGMENT PARA USE32 PUBLIC 'CODE'
_TEXT	ENDS
;	COMDAT ?setg@?$basic_streambuf@DV?$char_traits@D@_STL@@@_STL@@IAEXPAD00@Z
_TEXT	SEGMENT PARA USE32 PUBLIC 'CODE'
_TEXT	ENDS
;	COMDAT ?__is_open@_Filebuf_base@_STL@@QBE_NXZ
_TEXT	SEGMENT PARA USE32 PUBLIC 'CODE'
_TEXT	ENDS
;	COMDAT ?allocate@?$__node_alloc@$00$0A@@_STL@@SAPAXI@Z
_TEXT	SEGMENT PARA USE32 PUBLIC 'CODE'
_TEXT	ENDS
;	COMDAT ?__stl_new@_STL@@YAPAXI@Z
_TEXT	SEGMENT PARA USE32 PUBLIC 'CODE'
_TEXT	ENDS
;	COMDAT ??1?$_STLP_alloc_proxy@PADDV?$allocator@D@_STL@@@_STL@@QAE@XZ
_TEXT	SEGMENT PARA USE32 PUBLIC 'CODE'
_TEXT	ENDS
;	COMDAT ??1?$allocator@D@_STL@@QAE@XZ
_TEXT	SEGMENT PARA USE32 PUBLIC 'CODE'
_TEXT	ENDS
;	COMDAT ?eof@?$__char_traits_base@DH@_STL@@SAHXZ
_TEXT	SEGMENT PARA USE32 PUBLIC 'CODE'
_TEXT	ENDS
;	COMDAT ??9_List_iterator_base@_STL@@QBE_NABU01@@Z
_TEXT	SEGMENT PARA USE32 PUBLIC 'CODE'
_TEXT	ENDS
sxdata	SEGMENT DWORD USE32 'SXDATA'
sxdata	ENDS
FLAT	GROUP _DATA, CONST, _BSS
	ASSUME	CS: FLAT, DS: FLAT, SS: FLAT
endif

INCLUDELIB LIBCMT
INCLUDELIB OLDNAMES

PUBLIC	?IsTypeOf@MWorkNode@@QAEHH@Z			; MWorkNode::IsTypeOf
; Function compile flags: /Ogsy
; File c:\darkeden\designed_common\project\client\mworknode.h
;	COMDAT ?IsTypeOf@MWorkNode@@QAEHH@Z
_TEXT	SEGMENT
_type$ = 8						; size = 4
?IsTypeOf@MWorkNode@@QAEHH@Z PROC NEAR			; MWorkNode::IsTypeOf, COMDAT
; _this$ = ecx

; 42   : 		BOOL				IsTypeOf(int type)	{ return m_Type==type; }

  00000	8b 49 04	 mov	 ecx, DWORD PTR [ecx+4]
  00003	33 c0		 xor	 eax, eax
  00005	3b 4c 24 04	 cmp	 ecx, DWORD PTR _type$[esp-4]
  00009	0f 94 c0	 sete	 al
  0000c	c2 04 00	 ret	 4
?IsTypeOf@MWorkNode@@QAEHH@Z ENDP			; MWorkNode::IsTypeOf
_TEXT	ENDS
PUBLIC	?Stop@MWorkNode@@QAEXXZ				; MWorkNode::Stop
; Function compile flags: /Ogsy
;	COMDAT ?Stop@MWorkNode@@QAEXXZ
_TEXT	SEGMENT
?Stop@MWorkNode@@QAEXXZ PROC NEAR			; MWorkNode::Stop, COMDAT
; _this$ = ecx

; 50   : 		void				Stop()				{ m_bExecute = FALSE; }

  00000	83 61 08 00	 and	 DWORD PTR [ecx+8], 0
  00004	c3		 ret	 0
?Stop@MWorkNode@@QAEXXZ ENDP				; MWorkNode::Stop
_TEXT	ENDS
PUBLIC	??BAutoLock@ACriticalSection@@QAE_NXZ		; ACriticalSection::AutoLock::operator bool
; Function compile flags: /Ogsy
; File c:\darkeden\designed_common\project\client\acriticalsection.h
;	COMDAT ??BAutoLock@ACriticalSection@@QAE_NXZ
_TEXT	SEGMENT
??BAutoLock@ACriticalSection@@QAE_NXZ PROC NEAR		; ACriticalSection::AutoLock::operator bool, COMDAT
; _this$ = ecx

; 25   : 			return false;

  00000	32 c0		 xor	 al, al

; 26   : 		}

  00002	c3		 ret	 0
??BAutoLock@ACriticalSection@@QAE_NXZ ENDP		; ACriticalSection::AutoLock::operator bool
_TEXT	ENDS
PUBLIC	??0ACriticalSection@@QAE@XZ			; ACriticalSection::ACriticalSection
EXTRN	__imp__InitializeCriticalSection@4:NEAR
; Function compile flags: /Ogsy
;	COMDAT ??0ACriticalSection@@QAE@XZ
_TEXT	SEGMENT
??0ACriticalSection@@QAE@XZ PROC NEAR			; ACriticalSection::ACriticalSection, COMDAT
; _this$ = ecx

; 33   : 	ACriticalSection()	{ InitializeCriticalSection(&m_cs);	}

  00000	56		 push	 esi
  00001	8b f1		 mov	 esi, ecx
  00003	56		 push	 esi
  00004	ff 15 00 00 00
	00		 call	 DWORD PTR __imp__InitializeCriticalSection@4
  0000a	8b c6		 mov	 eax, esi
  0000c	5e		 pop	 esi
  0000d	c3		 ret	 0
??0ACriticalSection@@QAE@XZ ENDP			; ACriticalSection::ACriticalSection
_TEXT	ENDS
PUBLIC	??1ACriticalSection@@QAE@XZ			; ACriticalSection::~ACriticalSection
EXTRN	__imp__DeleteCriticalSection@4:NEAR
; Function compile flags: /Ogsy
;	COMDAT ??1ACriticalSection@@QAE@XZ
_TEXT	SEGMENT
??1ACriticalSection@@QAE@XZ PROC NEAR			; ACriticalSection::~ACriticalSection, COMDAT
; _this$ = ecx

; 34   : 	~ACriticalSection()	{ DeleteCriticalSection(&m_cs);		}

  00000	51		 push	 ecx
  00001	ff 15 00 00 00
	00		 call	 DWORD PTR __imp__DeleteCriticalSection@4
  00007	c3		 ret	 0
??1ACriticalSection@@QAE@XZ ENDP			; ACriticalSection::~ACriticalSection
_TEXT	ENDS
PUBLIC	?Lock@ACriticalSection@@QAEXXZ			; ACriticalSection::Lock
EXTRN	__imp__EnterCriticalSection@4:NEAR
; Function compile flags: /Ogsy
;	COMDAT ?Lock@ACriticalSection@@QAEXXZ
_TEXT	SEGMENT
?Lock@ACriticalSection@@QAEXXZ PROC NEAR		; ACriticalSection::Lock, COMDAT
; _this$ = ecx

; 36   : 	void Lock()			{ EnterCriticalSection(&m_cs);		}

  00000	51		 push	 ecx
  00001	ff 15 00 00 00
	00		 call	 DWORD PTR __imp__EnterCriticalSection@4
  00007	c3		 ret	 0
?Lock@ACriticalSection@@QAEXXZ ENDP			; ACriticalSection::Lock
_TEXT	ENDS
PUBLIC	?Unlock@ACriticalSection@@QAEXXZ		; ACriticalSection::Unlock
EXTRN	__imp__LeaveCriticalSection@4:NEAR
; Function compile flags: /Ogsy
;	COMDAT ?Unlock@ACriticalSection@@QAEXXZ
_TEXT	SEGMENT
?Unlock@ACriticalSection@@QAEXXZ PROC NEAR		; ACriticalSection::Unlock, COMDAT
; _this$ = ecx

; 37   : 	void Unlock()		{ LeaveCriticalSection(&m_cs);		}

  00000	51		 push	 ecx
  00001	ff 15 00 00 00
	00		 call	 DWORD PTR __imp__LeaveCriticalSection@4
  00007	c3		 ret	 0
?Unlock@ACriticalSection@@QAEXXZ ENDP			; ACriticalSection::Unlock
_TEXT	ENDS
PUBLIC	?IsWorking@MWorkThread@@QBEHXZ			; MWorkThread::IsWorking
EXTRN	__imp__WaitForSingleObject@8:NEAR
; Function compile flags: /Ogsy
; File c:\darkeden\designed_common\project\client\mworkthread.h
;	COMDAT ?IsWorking@MWorkThread@@QBEHXZ
_TEXT	SEGMENT
?IsWorking@MWorkThread@@QBEHXZ PROC NEAR		; MWorkThread::IsWorking, COMDAT
; _this$ = ecx

; 91   : 		BOOL				IsWorking() const			{ return WaitForSingleObject(m_hHasWorkEvent, 0) == WAIT_OBJECT_0; }

  00000	6a 00		 push	 0
  00002	ff 71 34	 push	 DWORD PTR [ecx+52]
  00005	ff 15 00 00 00
	00		 call	 DWORD PTR __imp__WaitForSingleObject@8
  0000b	f7 d8		 neg	 eax
  0000d	1b c0		 sbb	 eax, eax
  0000f	40		 inc	 eax
  00010	c3		 ret	 0
?IsWorking@MWorkThread@@QBEHXZ ENDP			; MWorkThread::IsWorking
_TEXT	ENDS
PUBLIC	?IsFinishCurrentWork@MWorkThread@@QBEHXZ	; MWorkThread::IsFinishCurrentWork
; Function compile flags: /Ogsy
;	COMDAT ?IsFinishCurrentWork@MWorkThread@@QBEHXZ
_TEXT	SEGMENT
?IsFinishCurrentWork@MWorkThread@@QBEHXZ PROC NEAR	; MWorkThread::IsFinishCurrentWork, COMDAT
; _this$ = ecx

; 92   : 		BOOL				IsFinishCurrentWork() const	{ return WaitForSingleObject(m_hEndWorkEvent, 0) == WAIT_OBJECT_0; }

  00000	6a 00		 push	 0
  00002	ff 71 38	 push	 DWORD PTR [ecx+56]
  00005	ff 15 00 00 00
	00		 call	 DWORD PTR __imp__WaitForSingleObject@8
  0000b	f7 d8		 neg	 eax
  0000d	1b c0		 sbb	 eax, eax
  0000f	40		 inc	 eax
  00010	c3		 ret	 0
?IsFinishCurrentWork@MWorkThread@@QBEHXZ ENDP		; MWorkThread::IsFinishCurrentWork
_TEXT	ENDS
PUBLIC	?IsStopWork@MWorkThread@@QBEHXZ			; MWorkThread::IsStopWork
; Function compile flags: /Ogsy
;	COMDAT ?IsStopWork@MWorkThread@@QBEHXZ
_TEXT	SEGMENT
?IsStopWork@MWorkThread@@QBEHXZ PROC NEAR		; MWorkThread::IsStopWork, COMDAT
; _this$ = ecx

; 93   : 		BOOL				IsStopWork() const			{ return WaitForSingleObject(m_hStopWorkEvent, 0) == WAIT_OBJECT_0; }

  00000	6a 00		 push	 0
  00002	ff 71 3c	 push	 DWORD PTR [ecx+60]
  00005	ff 15 00 00 00
	00		 call	 DWORD PTR __imp__WaitForSingleObject@8
  0000b	f7 d8		 neg	 eax
  0000d	1b c0		 sbb	 eax, eax
  0000f	40		 inc	 eax
  00010	c3		 ret	 0
?IsStopWork@MWorkThread@@QBEHXZ ENDP			; MWorkThread::IsStopWork
_TEXT	ENDS
PUBLIC	??2@YAPAXIPAX@Z					; operator new
; Function compile flags: /Ogsy
; File c:\program files\microsoft visual studio .net 2003\vc7\include\new
;	COMDAT ??2@YAPAXIPAX@Z
_TEXT	SEGMENT
___formal$ = 8						; size = 4
__Where$ = 12						; size = 4
??2@YAPAXIPAX@Z PROC NEAR				; operator new, COMDAT

; 64   : 	return (_Where);

  00000	8b 44 24 08	 mov	 eax, DWORD PTR __Where$[esp-4]

; 65   : 	}

  00004	c3		 ret	 0
??2@YAPAXIPAX@Z ENDP					; operator new
_TEXT	ENDS
PUBLIC	?__stl_new@_STL@@YAPAXI@Z			; _STL::__stl_new
EXTRN	??2@YAPAXI@Z:NEAR				; operator new
; Function compile flags: /Ogsy
; File c:\stlport-4.6.1\stlport\stl\_new.h
;	COMDAT ?__stl_new@_STL@@YAPAXI@Z
_TEXT	SEGMENT
___n$ = 8						; size = 4
?__stl_new@_STL@@YAPAXI@Z PROC NEAR			; _STL::__stl_new, COMDAT

; 86   : inline void*  _STLP_CALL __stl_new(size_t __n)   { _STLP_CHECK_NULL_ALLOC(::operator _STLP_NEW(__n)); }

  00000	e9 00 00 00 00	 jmp	 ??2@YAPAXI@Z		; operator new
?__stl_new@_STL@@YAPAXI@Z ENDP				; _STL::__stl_new
_TEXT	ENDS
PUBLIC	?__stl_delete@_STL@@YAXPAX@Z			; _STL::__stl_delete
EXTRN	??3@YAXPAX@Z:NEAR				; operator delete
; Function compile flags: /Ogsy
;	COMDAT ?__stl_delete@_STL@@YAXPAX@Z
_TEXT	SEGMENT
___p$ = 8						; size = 4
?__stl_delete@_STL@@YAXPAX@Z PROC NEAR			; _STL::__stl_delete, COMDAT

; 87   : inline void   _STLP_CALL __stl_delete(void* __p) { ::operator delete(__p); }

  00000	e9 00 00 00 00	 jmp	 ??3@YAXPAX@Z		; operator delete
?__stl_delete@_STL@@YAXPAX@Z ENDP			; _STL::__stl_delete
_TEXT	ENDS
PUBLIC	??0?$allocator@PAVMWorkNode@@@_STL@@QAE@XZ	; _STL::allocator<MWorkNode *>::allocator<MWorkNode *>
; Function compile flags: /Ogsy
; File c:\stlport-4.6.1\stlport\stl\_alloc.h
;	COMDAT ??0?$allocator@PAVMWorkNode@@@_STL@@QAE@XZ
_TEXT	SEGMENT
??0?$allocator@PAVMWorkNode@@@_STL@@QAE@XZ PROC NEAR	; _STL::allocator<MWorkNode *>::allocator<MWorkNode *>, COMDAT
; _this$ = ecx

; 345  :   allocator() _STLP_NOTHROW {}

  00000	8b c1		 mov	 eax, ecx
  00002	c3		 ret	 0
??0?$allocator@PAVMWorkNode@@@_STL@@QAE@XZ ENDP		; _STL::allocator<MWorkNode *>::allocator<MWorkNode *>
_TEXT	ENDS
PUBLIC	??1?$allocator@PAVMWorkNode@@@_STL@@QAE@XZ	; _STL::allocator<MWorkNode *>::~allocator<MWorkNode *>
; Function compile flags: /Ogsy
;	COMDAT ??1?$allocator@PAVMWorkNode@@@_STL@@QAE@XZ
_TEXT	SEGMENT
??1?$allocator@PAVMWorkNode@@@_STL@@QAE@XZ PROC NEAR	; _STL::allocator<MWorkNode *>::~allocator<MWorkNode *>, COMDAT
; _this$ = ecx

; 350  :   ~allocator() _STLP_NOTHROW {}

  00000	c3		 ret	 0
??1?$allocator@PAVMWorkNode@@@_STL@@QAE@XZ ENDP		; _STL::allocator<MWorkNode *>::~allocator<MWorkNode *>
_TEXT	ENDS
PUBLIC	??D?$_List_iterator@PAVMWorkNode@@U?$_Nonconst_traits@PAVMWorkNode@@@_STL@@@_STL@@QBEAAPAVMWorkNode@@XZ ; _STL::_List_iterator<MWorkNode *,_STL::_Nonconst_traits<MWorkNode *> >::operator*
; Function compile flags: /Ogsy
; File c:\stlport-4.6.1\stlport\stl\_list.h
;	COMDAT ??D?$_List_iterator@PAVMWorkNode@@U?$_Nonconst_traits@PAVMWorkNode@@@_STL@@@_STL@@QBEAAPAVMWorkNode@@XZ
_TEXT	SEGMENT
??D?$_List_iterator@PAVMWorkNode@@U?$_Nonconst_traits@PAVMWorkNode@@@_STL@@@_STL@@QBEAAPAVMWorkNode@@XZ PROC NEAR ; _STL::_List_iterator<MWorkNode *,_STL::_Nonconst_traits<MWorkNode *> >::operator*, COMDAT
; _this$ = ecx

; 130  :   reference operator*() const { return ((_Node*)_M_node)->_M_data; }

  00000	8b 01		 mov	 eax, DWORD PTR [ecx]
  00002	83 c0 08	 add	 eax, 8
  00005	c3		 ret	 0
??D?$_List_iterator@PAVMWorkNode@@U?$_Nonconst_traits@PAVMWorkNode@@@_STL@@@_STL@@QBEAAPAVMWorkNode@@XZ ENDP ; _STL::_List_iterator<MWorkNode *,_STL::_Nonconst_traits<MWorkNode *> >::operator*
_TEXT	ENDS
PUBLIC	??1?$allocator@U?$_List_node@PAVMWorkNode@@@_STL@@@_STL@@QAE@XZ ; _STL::allocator<_STL::_List_node<MWorkNode *> >::~allocator<_STL::_List_node<MWorkNode *> >
; Function compile flags: /Ogsy
; File c:\stlport-4.6.1\stlport\stl\_alloc.h
;	COMDAT ??1?$allocator@U?$_List_node@PAVMWorkNode@@@_STL@@@_STL@@QAE@XZ
_TEXT	SEGMENT
??1?$allocator@U?$_List_node@PAVMWorkNode@@@_STL@@@_STL@@QAE@XZ PROC NEAR ; _STL::allocator<_STL::_List_node<MWorkNode *> >::~allocator<_STL::_List_node<MWorkNode *> >, COMDAT
; _this$ = ecx

; 350  :   ~allocator() _STLP_NOTHROW {}

  00000	c3		 ret	 0
??1?$allocator@U?$_List_node@PAVMWorkNode@@@_STL@@@_STL@@QAE@XZ ENDP ; _STL::allocator<_STL::_List_node<MWorkNode *> >::~allocator<_STL::_List_node<MWorkNode *> >
_TEXT	ENDS
PUBLIC	??0?$allocator@U?$_List_node@PAVMWorkNode@@@_STL@@@_STL@@QAE@ABV01@@Z ; _STL::allocator<_STL::_List_node<MWorkNode *> >::allocator<_STL::_List_node<MWorkNode *> >
; Function compile flags: /Ogsy
;	COMDAT ??0?$allocator@U?$_List_node@PAVMWorkNode@@@_STL@@@_STL@@QAE@ABV01@@Z
_TEXT	SEGMENT
___formal$ = 8						; size = 4
??0?$allocator@U?$_List_node@PAVMWorkNode@@@_STL@@@_STL@@QAE@ABV01@@Z PROC NEAR ; _STL::allocator<_STL::_List_node<MWorkNode *> >::allocator<_STL::_List_node<MWorkNode *> >, COMDAT
; _this$ = ecx

; 349  :   allocator(const allocator<_Tp>&) _STLP_NOTHROW {}

  00000	8b c1		 mov	 eax, ecx
  00002	c2 04 00	 ret	 4
??0?$allocator@U?$_List_node@PAVMWorkNode@@@_STL@@@_STL@@QAE@ABV01@@Z ENDP ; _STL::allocator<_STL::_List_node<MWorkNode *> >::allocator<_STL::_List_node<MWorkNode *> >
_TEXT	ENDS
PUBLIC	??$_Destroy@PAVMWorkNode@@@_STL@@YAXPAPAVMWorkNode@@@Z ; _STL::_Destroy<MWorkNode *>
; Function compile flags: /Ogsy
; File c:\stlport-4.6.1\stlport\stl\_construct.h
;	COMDAT ??$_Destroy@PAVMWorkNode@@@_STL@@YAXPAPAVMWorkNode@@@Z
_TEXT	SEGMENT
___pointer$ = 8						; size = 4
??$_Destroy@PAVMWorkNode@@@_STL@@YAXPAPAVMWorkNode@@@Z PROC NEAR ; _STL::_Destroy<MWorkNode *>, COMDAT

; 57   : # if _MSC_VER >= 1010
; 58   :   __pointer;
; 59   : # endif	// _MSC_VER >= 1000
; 60   : # ifdef _STLP_TRIVIAL_DESTRUCTOR_BUG
; 61   :   typedef typename __type_traits<_Tp>::has_trivial_destructor _Trivial_destructor;
; 62   :   __destroy_aux(__pointer, _Trivial_destructor());
; 63   : # else
; 64   : #  if ( defined (__BORLANDC__) && ( __BORLANDC__ < 0x500 ) )
; 65   :     __pointer->_Tp::~_Tp();
; 66   : #  else
; 67   :     __pointer->~_Tp();
; 68   : #  endif
; 69   : # endif
; 70   : # ifdef _STLP_DEBUG_UNINITIALIZED
; 71   : 	memset((char*)__pointer, _STLP_SHRED_BYTE, sizeof(_Tp));
; 72   : # endif
; 73   : }

  00000	c3		 ret	 0
??$_Destroy@PAVMWorkNode@@@_STL@@YAXPAPAVMWorkNode@@@Z ENDP ; _STL::_Destroy<MWorkNode *>
_TEXT	ENDS
PUBLIC	??$?0PAVMWorkNode@@@?$allocator@U?$_List_node@PAVMWorkNode@@@_STL@@@_STL@@QAE@ABV?$allocator@PAVMWorkNode@@@1@@Z ; _STL::allocator<_STL::_List_node<MWorkNode *> >::allocator<_STL::_List_node<MWorkNode *> ><MWorkNode *>
; Function compile flags: /Ogsy
; File c:\stlport-4.6.1\stlport\stl\_alloc.h
;	COMDAT ??$?0PAVMWorkNode@@@?$allocator@U?$_List_node@PAVMWorkNode@@@_STL@@@_STL@@QAE@ABV?$allocator@PAVMWorkNode@@@1@@Z
_TEXT	SEGMENT
___formal$ = 8						; size = 4
??$?0PAVMWorkNode@@@?$allocator@U?$_List_node@PAVMWorkNode@@@_STL@@@_STL@@QAE@ABV?$allocator@PAVMWorkNode@@@1@@Z PROC NEAR ; _STL::allocator<_STL::_List_node<MWorkNode *> >::allocator<_STL::_List_node<MWorkNode *> ><MWorkNode *>, COMDAT
; _this$ = ecx

; 347  :   template <class _Tp1> allocator(const allocator<_Tp1>&) _STLP_NOTHROW {}

  00000	8b c1		 mov	 eax, ecx
  00002	c2 04 00	 ret	 4
??$?0PAVMWorkNode@@@?$allocator@U?$_List_node@PAVMWorkNode@@@_STL@@@_STL@@QAE@ABV?$allocator@PAVMWorkNode@@@1@@Z ENDP ; _STL::allocator<_STL::_List_node<MWorkNode *> >::allocator<_STL::_List_node<MWorkNode *> ><MWorkNode *>
_TEXT	ENDS
PUBLIC	??$_Construct@PAVMWorkNode@@PAV1@@_STL@@YAXPAPAVMWorkNode@@ABQAV1@@Z ; _STL::_Construct<MWorkNode *,MWorkNode *>
; Function compile flags: /Ogsy
; File c:\stlport-4.6.1\stlport\stl\_construct.h
;	COMDAT ??$_Construct@PAVMWorkNode@@PAV1@@_STL@@YAXPAPAVMWorkNode@@ABQAV1@@Z
_TEXT	SEGMENT
___p$ = 8						; size = 4
___val$ = 12						; size = 4
??$_Construct@PAVMWorkNode@@PAV1@@_STL@@YAXPAPAVMWorkNode@@ABQAV1@@Z PROC NEAR ; _STL::_Construct<MWorkNode *,MWorkNode *>, COMDAT

; 94   : # ifdef _STLP_DEBUG_UNINITIALIZED
; 95   : 	memset((char*)__p, _STLP_SHRED_BYTE, sizeof(_T1));
; 96   : # endif
; 97   :     _STLP_PLACEMENT_NEW (__p) _T1(__val);

  00000	8b 44 24 04	 mov	 eax, DWORD PTR ___p$[esp-4]
  00004	85 c0		 test	 eax, eax
  00006	74 08		 je	 SHORT $L101191
  00008	8b 4c 24 08	 mov	 ecx, DWORD PTR ___val$[esp-4]
  0000c	8b 09		 mov	 ecx, DWORD PTR [ecx]
  0000e	89 08		 mov	 DWORD PTR [eax], ecx
$L101191:

; 98   : }

  00010	c3		 ret	 0
??$_Construct@PAVMWorkNode@@PAV1@@_STL@@YAXPAPAVMWorkNode@@ABQAV1@@Z ENDP ; _STL::_Construct<MWorkNode *,MWorkNode *>
_TEXT	ENDS
PUBLIC	??0_List_iterator_base@_STL@@QAE@PAU_List_node_base@1@@Z ; _STL::_List_iterator_base::_List_iterator_base
; Function compile flags: /Ogsy
; File c:\stlport-4.6.1\stlport\stl\_list.h
;	COMDAT ??0_List_iterator_base@_STL@@QAE@PAU_List_node_base@1@@Z
_TEXT	SEGMENT
___x$ = 8						; size = 4
??0_List_iterator_base@_STL@@QAE@PAU_List_node_base@1@@Z PROC NEAR ; _STL::_List_iterator_base::_List_iterator_base, COMDAT
; _this$ = ecx

; 95   :   _List_iterator_base(_List_node_base* __x) : _M_node(__x) {}

  00000	8b c1		 mov	 eax, ecx
  00002	8b 4c 24 04	 mov	 ecx, DWORD PTR ___x$[esp-4]
  00006	89 08		 mov	 DWORD PTR [eax], ecx
  00008	c2 04 00	 ret	 4
??0_List_iterator_base@_STL@@QAE@PAU_List_node_base@1@@Z ENDP ; _STL::_List_iterator_base::_List_iterator_base
_TEXT	ENDS
PUBLIC	??0_List_iterator_base@_STL@@QAE@XZ		; _STL::_List_iterator_base::_List_iterator_base
; Function compile flags: /Ogsy
;	COMDAT ??0_List_iterator_base@_STL@@QAE@XZ
_TEXT	SEGMENT
??0_List_iterator_base@_STL@@QAE@XZ PROC NEAR		; _STL::_List_iterator_base::_List_iterator_base, COMDAT
; _this$ = ecx

; 96   :   _List_iterator_base() {}

  00000	8b c1		 mov	 eax, ecx
  00002	c3		 ret	 0
??0_List_iterator_base@_STL@@QAE@XZ ENDP		; _STL::_List_iterator_base::_List_iterator_base
_TEXT	ENDS
PUBLIC	?_M_incr@_List_iterator_base@_STL@@QAEXXZ	; _STL::_List_iterator_base::_M_incr
; Function compile flags: /Ogsy
;	COMDAT ?_M_incr@_List_iterator_base@_STL@@QAEXXZ
_TEXT	SEGMENT
?_M_incr@_List_iterator_base@_STL@@QAEXXZ PROC NEAR	; _STL::_List_iterator_base::_M_incr, COMDAT
; _this$ = ecx

; 98   :   void _M_incr() { _M_node = _M_node->_M_next; }

  00000	8b 01		 mov	 eax, DWORD PTR [ecx]
  00002	8b 00		 mov	 eax, DWORD PTR [eax]
  00004	89 01		 mov	 DWORD PTR [ecx], eax
  00006	c3		 ret	 0
?_M_incr@_List_iterator_base@_STL@@QAEXXZ ENDP		; _STL::_List_iterator_base::_M_incr
_TEXT	ENDS
PUBLIC	??9_List_iterator_base@_STL@@QBE_NABU01@@Z	; _STL::_List_iterator_base::operator!=
; Function compile flags: /Ogsy
;	COMDAT ??9_List_iterator_base@_STL@@QBE_NABU01@@Z
_TEXT	SEGMENT
___y$ = 8						; size = 4
??9_List_iterator_base@_STL@@QBE_NABU01@@Z PROC NEAR	; _STL::_List_iterator_base::operator!=, COMDAT
; _this$ = ecx

; 104  :     return _M_node != __y._M_node; 

  00000	8b 01		 mov	 eax, DWORD PTR [ecx]
  00002	8b 54 24 04	 mov	 edx, DWORD PTR ___y$[esp-4]
  00006	33 c9		 xor	 ecx, ecx
  00008	3b 02		 cmp	 eax, DWORD PTR [edx]
  0000a	0f 95 c1	 setne	 cl
  0000d	8a c1		 mov	 al, cl

; 105  :   }

  0000f	c2 04 00	 ret	 4
??9_List_iterator_base@_STL@@QBE_NABU01@@Z ENDP		; _STL::_List_iterator_base::operator!=
_TEXT	ENDS
PUBLIC	?allocate@?$__node_alloc@$00$0A@@_STL@@SAPAXI@Z	; _STL::__node_alloc<1,0>::allocate
EXTRN	?_M_allocate@?$__node_alloc@$00$0A@@_STL@@CAPAXI@Z:NEAR ; _STL::__node_alloc<1,0>::_M_allocate
; Function compile flags: /Ogsy
; File c:\stlport-4.6.1\stlport\stl\_alloc.h
;	COMDAT ?allocate@?$__node_alloc@$00$0A@@_STL@@SAPAXI@Z
_TEXT	SEGMENT
___n$ = 8						; size = 4
?allocate@?$__node_alloc@$00$0A@@_STL@@SAPAXI@Z PROC NEAR ; _STL::__node_alloc<1,0>::allocate, COMDAT

; 251  :   static void * _STLP_CALL allocate(size_t __n) { return (__n > (size_t)_MAX_BYTES) ?  __stl_new(__n) : _M_allocate(__n); }

  00000	8b 44 24 04	 mov	 eax, DWORD PTR ___n$[esp-4]
  00004	3d 80 00 00 00	 cmp	 eax, 128		; 00000080H
  00009	50		 push	 eax
  0000a	76 07		 jbe	 SHORT $L101211
  0000c	e8 00 00 00 00	 call	 ??2@YAPAXI@Z		; operator new
  00011	59		 pop	 ecx
  00012	c3		 ret	 0
$L101211:
  00013	e8 00 00 00 00	 call	 ?_M_allocate@?$__node_alloc@$00$0A@@_STL@@CAPAXI@Z ; _STL::__node_alloc<1,0>::_M_allocate
  00018	59		 pop	 ecx
  00019	c3		 ret	 0
?allocate@?$__node_alloc@$00$0A@@_STL@@SAPAXI@Z ENDP	; _STL::__node_alloc<1,0>::allocate
_TEXT	ENDS
PUBLIC	?deallocate@?$__node_alloc@$00$0A@@_STL@@SAXPAXI@Z ; _STL::__node_alloc<1,0>::deallocate
EXTRN	?_M_deallocate@?$__node_alloc@$00$0A@@_STL@@CAXPAXI@Z:NEAR ; _STL::__node_alloc<1,0>::_M_deallocate
; Function compile flags: /Ogsy
;	COMDAT ?deallocate@?$__node_alloc@$00$0A@@_STL@@SAXPAXI@Z
_TEXT	SEGMENT
___p$ = 8						; size = 4
___n$ = 12						; size = 4
?deallocate@?$__node_alloc@$00$0A@@_STL@@SAXPAXI@Z PROC NEAR ; _STL::__node_alloc<1,0>::deallocate, COMDAT

; 253  :   static void _STLP_CALL deallocate(void *__p, size_t __n) { if (__n > (size_t)_MAX_BYTES) __stl_delete(__p); else _M_deallocate(__p, __n); }

  00000	81 7c 24 08 80
	00 00 00	 cmp	 DWORD PTR ___n$[esp-4], 128 ; 00000080H
  00008	76 0b		 jbe	 SHORT $L98677
  0000a	ff 74 24 04	 push	 DWORD PTR ___p$[esp-4]
  0000e	e8 00 00 00 00	 call	 ??3@YAXPAX@Z		; operator delete
  00013	59		 pop	 ecx
  00014	c3		 ret	 0
$L98677:
  00015	e9 00 00 00 00	 jmp	 ?_M_deallocate@?$__node_alloc@$00$0A@@_STL@@CAXPAXI@Z ; _STL::__node_alloc<1,0>::_M_deallocate
?deallocate@?$__node_alloc@$00$0A@@_STL@@SAXPAXI@Z ENDP	; _STL::__node_alloc<1,0>::deallocate
_TEXT	ENDS
PUBLIC	??0AutoLock@ACriticalSection@@QAE@AAV1@@Z	; ACriticalSection::AutoLock::AutoLock
; Function compile flags: /Ogsy
; File c:\darkeden\designed_common\project\client\acriticalsection.h
;	COMDAT ??0AutoLock@ACriticalSection@@QAE@AAV1@@Z
_TEXT	SEGMENT
_cs$ = 8						; size = 4
??0AutoLock@ACriticalSection@@QAE@AAV1@@Z PROC NEAR	; ACriticalSection::AutoLock::AutoLock, COMDAT
; _this$ = ecx

; 14   : 		{

  00000	8b 44 24 04	 mov	 eax, DWORD PTR _cs$[esp-4]
  00004	56		 push	 esi
  00005	8b f1		 mov	 esi, ecx

; 15   : 			m_cs.Lock();

  00007	50		 push	 eax
  00008	89 06		 mov	 DWORD PTR [esi], eax
  0000a	ff 15 00 00 00
	00		 call	 DWORD PTR __imp__EnterCriticalSection@4

; 16   : 		}

  00010	8b c6		 mov	 eax, esi
  00012	5e		 pop	 esi
  00013	c2 04 00	 ret	 4
??0AutoLock@ACriticalSection@@QAE@AAV1@@Z ENDP		; ACriticalSection::AutoLock::AutoLock
_TEXT	ENDS
PUBLIC	??1AutoLock@ACriticalSection@@QAE@XZ		; ACriticalSection::AutoLock::~AutoLock
; Function compile flags: /Ogsy
;	COMDAT ??1AutoLock@ACriticalSection@@QAE@XZ
_TEXT	SEGMENT
??1AutoLock@ACriticalSection@@QAE@XZ PROC NEAR		; ACriticalSection::AutoLock::~AutoLock, COMDAT
; _this$ = ecx

; 20   : 			m_cs.Unlock();

  00000	ff 31		 push	 DWORD PTR [ecx]
  00002	ff 15 00 00 00
	00		 call	 DWORD PTR __imp__LeaveCriticalSection@4

; 21   : 		}

  00008	c3		 ret	 0
??1AutoLock@ACriticalSection@@QAE@XZ ENDP		; ACriticalSection::AutoLock::~AutoLock
_TEXT	ENDS
PUBLIC	??0?$_List_iterator@PAVMWorkNode@@U?$_Nonconst_traits@PAVMWorkNode@@@_STL@@@_STL@@QAE@XZ ; _STL::_List_iterator<MWorkNode *,_STL::_Nonconst_traits<MWorkNode *> >::_List_iterator<MWorkNode *,_STL::_Nonconst_traits<MWorkNode *> >
; Function compile flags: /Ogsy
; File c:\stlport-4.6.1\stlport\stl\_list.h
;	COMDAT ??0?$_List_iterator@PAVMWorkNode@@U?$_Nonconst_traits@PAVMWorkNode@@@_STL@@@_STL@@QAE@XZ
_TEXT	SEGMENT
??0?$_List_iterator@PAVMWorkNode@@U?$_Nonconst_traits@PAVMWorkNode@@@_STL@@@_STL@@QAE@XZ PROC NEAR ; _STL::_List_iterator<MWorkNode *,_STL::_Nonconst_traits<MWorkNode *> >::_List_iterator<MWorkNode *,_STL::_Nonconst_traits<MWorkNode *> >, COMDAT
; _this$ = ecx

; 127  :   _List_iterator() {}

  00000	8b c1		 mov	 eax, ecx
  00002	c3		 ret	 0
??0?$_List_iterator@PAVMWorkNode@@U?$_Nonconst_traits@PAVMWorkNode@@@_STL@@@_STL@@QAE@XZ ENDP ; _STL::_List_iterator<MWorkNode *,_STL::_Nonconst_traits<MWorkNode *> >::_List_iterator<MWorkNode *,_STL::_Nonconst_traits<MWorkNode *> >
_TEXT	ENDS
PUBLIC	??0?$_List_iterator@PAVMWorkNode@@U?$_Nonconst_traits@PAVMWorkNode@@@_STL@@@_STL@@QAE@ABU01@@Z ; _STL::_List_iterator<MWorkNode *,_STL::_Nonconst_traits<MWorkNode *> >::_List_iterator<MWorkNode *,_STL::_Nonconst_traits<MWorkNode *> >
; Function compile flags: /Ogsy
;	COMDAT ??0?$_List_iterator@PAVMWorkNode@@U?$_Nonconst_traits@PAVMWorkNode@@@_STL@@@_STL@@QAE@ABU01@@Z
_TEXT	SEGMENT
___x$ = 8						; size = 4
??0?$_List_iterator@PAVMWorkNode@@U?$_Nonconst_traits@PAVMWorkNode@@@_STL@@@_STL@@QAE@ABU01@@Z PROC NEAR ; _STL::_List_iterator<MWorkNode *,_STL::_Nonconst_traits<MWorkNode *> >::_List_iterator<MWorkNode *,_STL::_Nonconst_traits<MWorkNode *> >, COMDAT
; _this$ = ecx

; 128  :   _List_iterator(const iterator& __x) :  _List_iterator_base(__x._M_node) {}

  00000	8b c1		 mov	 eax, ecx
  00002	8b 4c 24 04	 mov	 ecx, DWORD PTR ___x$[esp-4]
  00006	8b 09		 mov	 ecx, DWORD PTR [ecx]
  00008	89 08		 mov	 DWORD PTR [eax], ecx
  0000a	c2 04 00	 ret	 4
??0?$_List_iterator@PAVMWorkNode@@U?$_Nonconst_traits@PAVMWorkNode@@@_STL@@@_STL@@QAE@ABU01@@Z ENDP ; _STL::_List_iterator<MWorkNode *,_STL::_Nonconst_traits<MWorkNode *> >::_List_iterator<MWorkNode *,_STL::_Nonconst_traits<MWorkNode *> >
_TEXT	ENDS
PUBLIC	??E?$_List_iterator@PAVMWorkNode@@U?$_Nonconst_traits@PAVMWorkNode@@@_STL@@@_STL@@QAE?AU01@H@Z ; _STL::_List_iterator<MWorkNode *,_STL::_Nonconst_traits<MWorkNode *> >::operator++
; Function compile flags: /Ogsy
;	COMDAT ??E?$_List_iterator@PAVMWorkNode@@U?$_Nonconst_traits@PAVMWorkNode@@@_STL@@@_STL@@QAE?AU01@H@Z
_TEXT	SEGMENT
___$ReturnUdt$ = 8					; size = 4
___formal$ = 12						; size = 4
??E?$_List_iterator@PAVMWorkNode@@U?$_Nonconst_traits@PAVMWorkNode@@@_STL@@@_STL@@QAE?AU01@H@Z PROC NEAR ; _STL::_List_iterator<MWorkNode *,_STL::_Nonconst_traits<MWorkNode *> >::operator++, COMDAT
; _this$ = ecx

; 139  :     _Self __tmp = *this;

  00000	8b 11		 mov	 edx, DWORD PTR [ecx]

; 140  :     this->_M_incr();

  00002	8b 02		 mov	 eax, DWORD PTR [edx]
  00004	89 01		 mov	 DWORD PTR [ecx], eax

; 141  :     return __tmp;

  00006	8b 44 24 04	 mov	 eax, DWORD PTR ___$ReturnUdt$[esp-4]
  0000a	89 10		 mov	 DWORD PTR [eax], edx

; 142  :   }

  0000c	c2 08 00	 ret	 8
??E?$_List_iterator@PAVMWorkNode@@U?$_Nonconst_traits@PAVMWorkNode@@@_STL@@@_STL@@QAE?AU01@H@Z ENDP ; _STL::_List_iterator<MWorkNode *,_STL::_Nonconst_traits<MWorkNode *> >::operator++
_TEXT	ENDS
PUBLIC	?deallocate@?$allocator@U?$_List_node@PAVMWorkNode@@@_STL@@@_STL@@QAEXPAU?$_List_node@PAVMWorkNode@@@2@I@Z ; _STL::allocator<_STL::_List_node<MWorkNode *> >::deallocate
; Function compile flags: /Ogsy
; File c:\stlport-4.6.1\stlport\stl\_alloc.h
;	COMDAT ?deallocate@?$allocator@U?$_List_node@PAVMWorkNode@@@_STL@@@_STL@@QAEXPAU?$_List_node@PAVMWorkNode@@@2@I@Z
_TEXT	SEGMENT
___p$ = 8						; size = 4
___n$ = 12						; size = 4
?deallocate@?$allocator@U?$_List_node@PAVMWorkNode@@@_STL@@@_STL@@QAEXPAU?$_List_node@PAVMWorkNode@@@2@I@Z PROC NEAR ; _STL::allocator<_STL::_List_node<MWorkNode *> >::deallocate, COMDAT
; _this$ = ecx

; 359  :     _STLP_ASSERT( (__p == 0) == (__n == 0) )
; 360  :       if (__p != 0) __sgi_alloc::deallocate((void*)__p, __n * sizeof(value_type));

  00000	83 7c 24 04 00	 cmp	 DWORD PTR ___p$[esp-4], 0
  00005	74 16		 je	 SHORT $L100438
  00007	8b 44 24 08	 mov	 eax, DWORD PTR ___n$[esp-4]
  0000b	8d 04 40	 lea	 eax, DWORD PTR [eax+eax*2]
  0000e	c1 e0 02	 shl	 eax, 2
  00011	50		 push	 eax
  00012	ff 74 24 08	 push	 DWORD PTR ___p$[esp]
  00016	e8 00 00 00 00	 call	 ?deallocate@?$__node_alloc@$00$0A@@_STL@@SAXPAXI@Z ; _STL::__node_alloc<1,0>::deallocate
  0001b	59		 pop	 ecx
  0001c	59		 pop	 ecx
$L100438:

; 361  :   }

  0001d	c2 08 00	 ret	 8
?deallocate@?$allocator@U?$_List_node@PAVMWorkNode@@@_STL@@@_STL@@QAEXPAU?$_List_node@PAVMWorkNode@@@2@I@Z ENDP ; _STL::allocator<_STL::_List_node<MWorkNode *> >::deallocate
_TEXT	ENDS
PUBLIC	??0?$_List_iterator@PAVMWorkNode@@U?$_Nonconst_traits@PAVMWorkNode@@@_STL@@@_STL@@QAE@PAU?$_List_node@PAVMWorkNode@@@1@@Z ; _STL::_List_iterator<MWorkNode *,_STL::_Nonconst_traits<MWorkNode *> >::_List_iterator<MWorkNode *,_STL::_Nonconst_traits<MWorkNode *> >
; Function compile flags: /Ogsy
; File c:\stlport-4.6.1\stlport\stl\_list.h
;	COMDAT ??0?$_List_iterator@PAVMWorkNode@@U?$_Nonconst_traits@PAVMWorkNode@@@_STL@@@_STL@@QAE@PAU?$_List_node@PAVMWorkNode@@@1@@Z
_TEXT	SEGMENT
___x$ = 8						; size = 4
??0?$_List_iterator@PAVMWorkNode@@U?$_Nonconst_traits@PAVMWorkNode@@@_STL@@@_STL@@QAE@PAU?$_List_node@PAVMWorkNode@@@1@@Z PROC NEAR ; _STL::_List_iterator<MWorkNode *,_STL::_Nonconst_traits<MWorkNode *> >::_List_iterator<MWorkNode *,_STL::_Nonconst_traits<MWorkNode *> >, COMDAT
; _this$ = ecx

; 126  :   _List_iterator(_Node* __x) : _List_iterator_base(__x) {}

  00000	8b c1		 mov	 eax, ecx
  00002	8b 4c 24 04	 mov	 ecx, DWORD PTR ___x$[esp-4]
  00006	89 08		 mov	 DWORD PTR [eax], ecx
  00008	c2 04 00	 ret	 4
??0?$_List_iterator@PAVMWorkNode@@U?$_Nonconst_traits@PAVMWorkNode@@@_STL@@@_STL@@QAE@PAU?$_List_node@PAVMWorkNode@@@1@@Z ENDP ; _STL::_List_iterator<MWorkNode *,_STL::_Nonconst_traits<MWorkNode *> >::_List_iterator<MWorkNode *,_STL::_Nonconst_traits<MWorkNode *> >
_TEXT	ENDS
PUBLIC	??1?$_STLP_alloc_proxy@PAU?$_List_node@PAVMWorkNode@@@_STL@@U12@V?$allocator@U?$_List_node@PAVMWorkNode@@@_STL@@@2@@_STL@@QAE@XZ ; _STL::_STLP_alloc_proxy<_STL::_List_node<MWorkNode *> *,_STL::_List_node<MWorkNode *>,_STL::allocator<_STL::_List_node<MWorkNode *> > >::~_STLP_alloc_proxy<_STL::_List_node<MWorkNode *> *,_STL::_List_node<MWorkNode *>,_STL::allocator<_STL::_List_node<MWorkNode *> > >
; Function compile flags: /Ogsy
;	COMDAT ??1?$_STLP_alloc_proxy@PAU?$_List_node@PAVMWorkNode@@@_STL@@U12@V?$allocator@U?$_List_node@PAVMWorkNode@@@_STL@@@2@@_STL@@QAE@XZ
_TEXT	SEGMENT
??1?$_STLP_alloc_proxy@PAU?$_List_node@PAVMWorkNode@@@_STL@@U12@V?$allocator@U?$_List_node@PAVMWorkNode@@@_STL@@@2@@_STL@@QAE@XZ PROC NEAR ; _STL::_STLP_alloc_proxy<_STL::_List_node<MWorkNode *> *,_STL::_List_node<MWorkNode *>,_STL::allocator<_STL::_List_node<MWorkNode *> > >::~_STLP_alloc_proxy<_STL::_List_node<MWorkNode *> *,_STL::_List_node<MWorkNode *>,_STL::allocator<_STL::_List_node<MWorkNode *> > >, COMDAT
; _this$ = ecx
  00000	c3		 ret	 0
??1?$_STLP_alloc_proxy@PAU?$_List_node@PAVMWorkNode@@@_STL@@U12@V?$allocator@U?$_List_node@PAVMWorkNode@@@_STL@@@2@@_STL@@QAE@XZ ENDP ; _STL::_STLP_alloc_proxy<_STL::_List_node<MWorkNode *> *,_STL::_List_node<MWorkNode *>,_STL::allocator<_STL::_List_node<MWorkNode *> > >::~_STLP_alloc_proxy<_STL::_List_node<MWorkNode *> *,_STL::_List_node<MWorkNode *>,_STL::allocator<_STL::_List_node<MWorkNode *> > >
_TEXT	ENDS
PUBLIC	??0?$_STLP_alloc_proxy@PAU?$_List_node@PAVMWorkNode@@@_STL@@U12@V?$allocator@U?$_List_node@PAVMWorkNode@@@_STL@@@2@@_STL@@QAE@ABV?$allocator@U?$_List_node@PAVMWorkNode@@@_STL@@@1@PAU?$_List_node@PAVMWorkNode@@@1@@Z ; _STL::_STLP_alloc_proxy<_STL::_List_node<MWorkNode *> *,_STL::_List_node<MWorkNode *>,_STL::allocator<_STL::_List_node<MWorkNode *> > >::_STLP_alloc_proxy<_STL::_List_node<MWorkNode *> *,_STL::_List_node<MWorkNode *>,_STL::allocator<_STL::_List_node<MWorkNode *> > >
; Function compile flags: /Ogsy
; File c:\stlport-4.6.1\stlport\stl\_alloc.h
;	COMDAT ??0?$_STLP_alloc_proxy@PAU?$_List_node@PAVMWorkNode@@@_STL@@U12@V?$allocator@U?$_List_node@PAVMWorkNode@@@_STL@@@2@@_STL@@QAE@ABV?$allocator@U?$_List_node@PAVMWorkNode@@@_STL@@@1@PAU?$_List_node@PAVMWorkNode@@@1@@Z
_TEXT	SEGMENT
___a$ = 8						; size = 4
___p$ = 12						; size = 4
??0?$_STLP_alloc_proxy@PAU?$_List_node@PAVMWorkNode@@@_STL@@U12@V?$allocator@U?$_List_node@PAVMWorkNode@@@_STL@@@2@@_STL@@QAE@ABV?$allocator@U?$_List_node@PAVMWorkNode@@@_STL@@@1@PAU?$_List_node@PAVMWorkNode@@@1@@Z PROC NEAR ; _STL::_STLP_alloc_proxy<_STL::_List_node<MWorkNode *> *,_STL::_List_node<MWorkNode *>,_STL::allocator<_STL::_List_node<MWorkNode *> > >::_STLP_alloc_proxy<_STL::_List_node<MWorkNode *> *,_STL::_List_node<MWorkNode *>,_STL::allocator<_STL::_List_node<MWorkNode *> > >, COMDAT
; _this$ = ecx

; 487  :   inline _STLP_alloc_proxy(const _MaybeReboundAlloc& __a, _Value __p) : _MaybeReboundAlloc(__a), _M_data(__p) {}

  00000	8b c1		 mov	 eax, ecx
  00002	8b 4c 24 08	 mov	 ecx, DWORD PTR ___p$[esp-4]
  00006	89 08		 mov	 DWORD PTR [eax], ecx
  00008	c2 08 00	 ret	 8
??0?$_STLP_alloc_proxy@PAU?$_List_node@PAVMWorkNode@@@_STL@@U12@V?$allocator@U?$_List_node@PAVMWorkNode@@@_STL@@@2@@_STL@@QAE@ABV?$allocator@U?$_List_node@PAVMWorkNode@@@_STL@@@1@PAU?$_List_node@PAVMWorkNode@@@1@@Z ENDP ; _STL::_STLP_alloc_proxy<_STL::_List_node<MWorkNode *> *,_STL::_List_node<MWorkNode *>,_STL::allocator<_STL::_List_node<MWorkNode *> > >::_STLP_alloc_proxy<_STL::_List_node<MWorkNode *> *,_STL::_List_node<MWorkNode *>,_STL::allocator<_STL::_List_node<MWorkNode *> > >
_TEXT	ENDS
PUBLIC	?allocate@?$allocator@U?$_List_node@PAVMWorkNode@@@_STL@@@_STL@@QAEPAU?$_List_node@PAVMWorkNode@@@2@IPBX@Z ; _STL::allocator<_STL::_List_node<MWorkNode *> >::allocate
; Function compile flags: /Ogsy
;	COMDAT ?allocate@?$allocator@U?$_List_node@PAVMWorkNode@@@_STL@@@_STL@@QAEPAU?$_List_node@PAVMWorkNode@@@2@IPBX@Z
_TEXT	SEGMENT
___n$ = 8						; size = 4
___formal$ = 12						; size = 4
?allocate@?$allocator@U?$_List_node@PAVMWorkNode@@@_STL@@@_STL@@QAEPAU?$_List_node@PAVMWorkNode@@@2@IPBX@Z PROC NEAR ; _STL::allocator<_STL::_List_node<MWorkNode *> >::allocate, COMDAT
; _this$ = ecx

; 355  :     return __n != 0 ? __REINTERPRET_CAST(value_type*,__sgi_alloc::allocate(__n * sizeof(value_type))) : 0;

  00000	8b 44 24 04	 mov	 eax, DWORD PTR ___n$[esp-4]
  00004	85 c0		 test	 eax, eax
  00006	74 0f		 je	 SHORT $L101295
  00008	8d 04 40	 lea	 eax, DWORD PTR [eax+eax*2]
  0000b	c1 e0 02	 shl	 eax, 2
  0000e	50		 push	 eax
  0000f	e8 00 00 00 00	 call	 ?allocate@?$__node_alloc@$00$0A@@_STL@@SAPAXI@Z ; _STL::__node_alloc<1,0>::allocate
  00014	59		 pop	 ecx
  00015	eb 02		 jmp	 SHORT $L101296
$L101295:
  00017	33 c0		 xor	 eax, eax
$L101296:

; 356  :   }

  00019	c2 08 00	 ret	 8
?allocate@?$allocator@U?$_List_node@PAVMWorkNode@@@_STL@@@_STL@@QAEPAU?$_List_node@PAVMWorkNode@@@2@IPBX@Z ENDP ; _STL::allocator<_STL::_List_node<MWorkNode *> >::allocate
_TEXT	ENDS
PUBLIC	??0?$_List_iterator@PAVMWorkNode@@U?$_Const_traits@PAVMWorkNode@@@_STL@@@_STL@@QAE@PAU?$_List_node@PAVMWorkNode@@@1@@Z ; _STL::_List_iterator<MWorkNode *,_STL::_Const_traits<MWorkNode *> >::_List_iterator<MWorkNode *,_STL::_Const_traits<MWorkNode *> >
; Function compile flags: /Ogsy
; File c:\stlport-4.6.1\stlport\stl\_list.h
;	COMDAT ??0?$_List_iterator@PAVMWorkNode@@U?$_Const_traits@PAVMWorkNode@@@_STL@@@_STL@@QAE@PAU?$_List_node@PAVMWorkNode@@@1@@Z
_TEXT	SEGMENT
___x$ = 8						; size = 4
??0?$_List_iterator@PAVMWorkNode@@U?$_Const_traits@PAVMWorkNode@@@_STL@@@_STL@@QAE@PAU?$_List_node@PAVMWorkNode@@@1@@Z PROC NEAR ; _STL::_List_iterator<MWorkNode *,_STL::_Const_traits<MWorkNode *> >::_List_iterator<MWorkNode *,_STL::_Const_traits<MWorkNode *> >, COMDAT
; _this$ = ecx

; 126  :   _List_iterator(_Node* __x) : _List_iterator_base(__x) {}

  00000	8b c1		 mov	 eax, ecx
  00002	8b 4c 24 04	 mov	 ecx, DWORD PTR ___x$[esp-4]
  00006	89 08		 mov	 DWORD PTR [eax], ecx
  00008	c2 04 00	 ret	 4
??0?$_List_iterator@PAVMWorkNode@@U?$_Const_traits@PAVMWorkNode@@@_STL@@@_STL@@QAE@PAU?$_List_node@PAVMWorkNode@@@1@@Z ENDP ; _STL::_List_iterator<MWorkNode *,_STL::_Const_traits<MWorkNode *> >::_List_iterator<MWorkNode *,_STL::_Const_traits<MWorkNode *> >
_TEXT	ENDS
PUBLIC	?clear@?$_List_base@PAVMWorkNode@@V?$allocator@PAVMWorkNode@@@_STL@@@_STL@@QAEXXZ ; _STL::_List_base<MWorkNode *,_STL::allocator<MWorkNode *> >::clear
; Function compile flags: /Ogsy
; File c:\stlport-4.6.1\stlport\stl\_list.c
;	COMDAT ?clear@?$_List_base@PAVMWorkNode@@V?$allocator@PAVMWorkNode@@@_STL@@@_STL@@QAEXXZ
_TEXT	SEGMENT
?clear@?$_List_base@PAVMWorkNode@@V?$allocator@PAVMWorkNode@@@_STL@@@_STL@@QAEXXZ PROC NEAR ; _STL::_List_base<MWorkNode *,_STL::allocator<MWorkNode *> >::clear, COMDAT
; _this$ = ecx

; 68   : {

  00000	56		 push	 esi
  00001	57		 push	 edi
  00002	8b f9		 mov	 edi, ecx

; 69   :   _List_node<_Tp>* __cur = (_List_node<_Tp>*) this->_M_node._M_data->_M_next;

  00004	8b 07		 mov	 eax, DWORD PTR [edi]
  00006	8b 30		 mov	 esi, DWORD PTR [eax]

; 70   :   while (__cur != this->_M_node._M_data) {

  00008	3b f0		 cmp	 esi, eax
  0000a	74 12		 je	 SHORT $L100626
$L100625:

; 71   :     _List_node<_Tp>* __tmp = __cur;

  0000c	8b c6		 mov	 eax, esi

; 72   :     __cur = (_List_node<_Tp>*) __cur->_M_next;

  0000e	8b 36		 mov	 esi, DWORD PTR [esi]

; 73   :     _STLP_STD::_Destroy(&__tmp->_M_data);
; 74   :     this->_M_node.deallocate(__tmp, 1);

  00010	6a 01		 push	 1
  00012	50		 push	 eax
  00013	8b cf		 mov	 ecx, edi
  00015	e8 00 00 00 00	 call	 ?deallocate@?$allocator@U?$_List_node@PAVMWorkNode@@@_STL@@@_STL@@QAEXPAU?$_List_node@PAVMWorkNode@@@2@I@Z ; _STL::allocator<_STL::_List_node<MWorkNode *> >::deallocate
  0001a	3b 37		 cmp	 esi, DWORD PTR [edi]
  0001c	75 ee		 jne	 SHORT $L100625
$L100626:

; 75   :   }
; 76   :   this->_M_node._M_data->_M_next = this->_M_node._M_data;

  0001e	8b 07		 mov	 eax, DWORD PTR [edi]
  00020	89 00		 mov	 DWORD PTR [eax], eax

; 77   :   this->_M_node._M_data->_M_prev = this->_M_node._M_data;

  00022	8b 3f		 mov	 edi, DWORD PTR [edi]
  00024	89 7f 04	 mov	 DWORD PTR [edi+4], edi
  00027	5f		 pop	 edi
  00028	5e		 pop	 esi

; 78   : }

  00029	c3		 ret	 0
?clear@?$_List_base@PAVMWorkNode@@V?$allocator@PAVMWorkNode@@@_STL@@@_STL@@QAEXXZ ENDP ; _STL::_List_base<MWorkNode *,_STL::allocator<MWorkNode *> >::clear
_TEXT	ENDS
PUBLIC	??E?$_List_iterator@PAVMWorkNode@@U?$_Const_traits@PAVMWorkNode@@@_STL@@@_STL@@QAEAAU01@XZ ; _STL::_List_iterator<MWorkNode *,_STL::_Const_traits<MWorkNode *> >::operator++
; Function compile flags: /Ogsy
; File c:\stlport-4.6.1\stlport\stl\_list.h
;	COMDAT ??E?$_List_iterator@PAVMWorkNode@@U?$_Const_traits@PAVMWorkNode@@@_STL@@@_STL@@QAEAAU01@XZ
_TEXT	SEGMENT
??E?$_List_iterator@PAVMWorkNode@@U?$_Const_traits@PAVMWorkNode@@@_STL@@@_STL@@QAEAAU01@XZ PROC NEAR ; _STL::_List_iterator<MWorkNode *,_STL::_Const_traits<MWorkNode *> >::operator++, COMDAT
; _this$ = ecx

; 134  :   _Self& operator++() { 

  00000	8b c1		 mov	 eax, ecx

; 135  :     this->_M_incr();

  00002	8b 08		 mov	 ecx, DWORD PTR [eax]
  00004	8b 09		 mov	 ecx, DWORD PTR [ecx]
  00006	89 08		 mov	 DWORD PTR [eax], ecx

; 136  :     return *this;
; 137  :   }

  00008	c3		 ret	 0
??E?$_List_iterator@PAVMWorkNode@@U?$_Const_traits@PAVMWorkNode@@@_STL@@@_STL@@QAEAAU01@XZ ENDP ; _STL::_List_iterator<MWorkNode *,_STL::_Const_traits<MWorkNode *> >::operator++
_TEXT	ENDS
PUBLIC	?begin@?$list@PAVMWorkNode@@V?$allocator@PAVMWorkNode@@@_STL@@@_STL@@QAE?AU?$_List_iterator@PAVMWorkNode@@U?$_Nonconst_traits@PAVMWorkNode@@@_STL@@@2@XZ ; _STL::list<MWorkNode *,_STL::allocator<MWorkNode *> >::begin
; Function compile flags: /Ogsy
;	COMDAT ?begin@?$list@PAVMWorkNode@@V?$allocator@PAVMWorkNode@@@_STL@@@_STL@@QAE?AU?$_List_iterator@PAVMWorkNode@@U?$_Nonconst_traits@PAVMWorkNode@@@_STL@@@2@XZ
_TEXT	SEGMENT
___$ReturnUdt$ = 8					; size = 4
?begin@?$list@PAVMWorkNode@@V?$allocator@PAVMWorkNode@@@_STL@@@_STL@@QAE?AU?$_List_iterator@PAVMWorkNode@@U?$_Nonconst_traits@PAVMWorkNode@@@_STL@@@2@XZ PROC NEAR ; _STL::list<MWorkNode *,_STL::allocator<MWorkNode *> >::begin, COMDAT
; _this$ = ecx

; 266  :   iterator begin()             { return iterator((_Node*)(this->_M_node._M_data->_M_next)); }

  00000	8b 01		 mov	 eax, DWORD PTR [ecx]
  00002	8b 08		 mov	 ecx, DWORD PTR [eax]
  00004	8b 44 24 04	 mov	 eax, DWORD PTR ___$ReturnUdt$[esp-4]
  00008	89 08		 mov	 DWORD PTR [eax], ecx
  0000a	c2 04 00	 ret	 4
?begin@?$list@PAVMWorkNode@@V?$allocator@PAVMWorkNode@@@_STL@@@_STL@@QAE?AU?$_List_iterator@PAVMWorkNode@@U?$_Nonconst_traits@PAVMWorkNode@@@_STL@@@2@XZ ENDP ; _STL::list<MWorkNode *,_STL::allocator<MWorkNode *> >::begin
_TEXT	ENDS
PUBLIC	?end@?$list@PAVMWorkNode@@V?$allocator@PAVMWorkNode@@@_STL@@@_STL@@QAE?AU?$_List_iterator@PAVMWorkNode@@U?$_Nonconst_traits@PAVMWorkNode@@@_STL@@@2@XZ ; _STL::list<MWorkNode *,_STL::allocator<MWorkNode *> >::end
; Function compile flags: /Ogsy
;	COMDAT ?end@?$list@PAVMWorkNode@@V?$allocator@PAVMWorkNode@@@_STL@@@_STL@@QAE?AU?$_List_iterator@PAVMWorkNode@@U?$_Nonconst_traits@PAVMWorkNode@@@_STL@@@2@XZ
_TEXT	SEGMENT
___$ReturnUdt$ = 8					; size = 4
?end@?$list@PAVMWorkNode@@V?$allocator@PAVMWorkNode@@@_STL@@@_STL@@QAE?AU?$_List_iterator@PAVMWorkNode@@U?$_Nonconst_traits@PAVMWorkNode@@@_STL@@@2@XZ PROC NEAR ; _STL::list<MWorkNode *,_STL::allocator<MWorkNode *> >::end, COMDAT
; _this$ = ecx

; 269  :   iterator end()             { return this->_M_node._M_data; }

  00000	8b 09		 mov	 ecx, DWORD PTR [ecx]
  00002	8b 44 24 04	 mov	 eax, DWORD PTR ___$ReturnUdt$[esp-4]
  00006	89 08		 mov	 DWORD PTR [eax], ecx
  00008	c2 04 00	 ret	 4
?end@?$list@PAVMWorkNode@@V?$allocator@PAVMWorkNode@@@_STL@@@_STL@@QAE?AU?$_List_iterator@PAVMWorkNode@@U?$_Nonconst_traits@PAVMWorkNode@@@_STL@@@2@XZ ENDP ; _STL::list<MWorkNode *,_STL::allocator<MWorkNode *> >::end
_TEXT	ENDS
PUBLIC	?front@?$list@PAVMWorkNode@@V?$allocator@PAVMWorkNode@@@_STL@@@_STL@@QAEAAPAVMWorkNode@@XZ ; _STL::list<MWorkNode *,_STL::allocator<MWorkNode *> >::front
; Function compile flags: /Ogsy
;	COMDAT ?front@?$list@PAVMWorkNode@@V?$allocator@PAVMWorkNode@@@_STL@@@_STL@@QAEAAPAVMWorkNode@@XZ
_TEXT	SEGMENT
?front@?$list@PAVMWorkNode@@V?$allocator@PAVMWorkNode@@@_STL@@@_STL@@QAEAAPAVMWorkNode@@XZ PROC NEAR ; _STL::list<MWorkNode *,_STL::allocator<MWorkNode *> >::front, COMDAT
; _this$ = ecx

; 289  :   reference front() { return *begin(); }

  00000	8b 01		 mov	 eax, DWORD PTR [ecx]
  00002	8b 00		 mov	 eax, DWORD PTR [eax]
  00004	83 c0 08	 add	 eax, 8
  00007	c3		 ret	 0
?front@?$list@PAVMWorkNode@@V?$allocator@PAVMWorkNode@@@_STL@@@_STL@@QAEAAPAVMWorkNode@@XZ ENDP ; _STL::list<MWorkNode *,_STL::allocator<MWorkNode *> >::front
_TEXT	ENDS
PUBLIC	?erase@?$list@PAVMWorkNode@@V?$allocator@PAVMWorkNode@@@_STL@@@_STL@@QAE?AU?$_List_iterator@PAVMWorkNode@@U?$_Nonconst_traits@PAVMWorkNode@@@_STL@@@2@U32@@Z ; _STL::list<MWorkNode *,_STL::allocator<MWorkNode *> >::erase
; Function compile flags: /Ogsy
;	COMDAT ?erase@?$list@PAVMWorkNode@@V?$allocator@PAVMWorkNode@@@_STL@@@_STL@@QAE?AU?$_List_iterator@PAVMWorkNode@@U?$_Nonconst_traits@PAVMWorkNode@@@_STL@@@2@U32@@Z
_TEXT	SEGMENT
___$ReturnUdt$ = 8					; size = 4
___position$ = 12					; size = 4
?erase@?$list@PAVMWorkNode@@V?$allocator@PAVMWorkNode@@@_STL@@@_STL@@QAE?AU?$_List_iterator@PAVMWorkNode@@U?$_Nonconst_traits@PAVMWorkNode@@@_STL@@@2@U32@@Z PROC NEAR ; _STL::list<MWorkNode *,_STL::allocator<MWorkNode *> >::erase, COMDAT
; _this$ = ecx

; 354  :     _List_node_base* __next_node = __position._M_node->_M_next;

  00000	8b 54 24 08	 mov	 edx, DWORD PTR ___position$[esp-4]

; 355  :     _List_node_base* __prev_node = __position._M_node->_M_prev;

  00004	8b 42 04	 mov	 eax, DWORD PTR [edx+4]
  00007	56		 push	 esi
  00008	8b 32		 mov	 esi, DWORD PTR [edx]

; 356  :     _Node* __n = (_Node*) __position._M_node;
; 357  :     __prev_node->_M_next = __next_node;
; 358  :     __next_node->_M_prev = __prev_node;
; 359  :     _STLP_STD::_Destroy(&__n->_M_data);
; 360  :     this->_M_node.deallocate(__n, 1);

  0000a	6a 01		 push	 1
  0000c	89 30		 mov	 DWORD PTR [eax], esi
  0000e	52		 push	 edx
  0000f	89 46 04	 mov	 DWORD PTR [esi+4], eax
  00012	e8 00 00 00 00	 call	 ?deallocate@?$allocator@U?$_List_node@PAVMWorkNode@@@_STL@@@_STL@@QAEXPAU?$_List_node@PAVMWorkNode@@@2@I@Z ; _STL::allocator<_STL::_List_node<MWorkNode *> >::deallocate

; 361  :     return iterator((_Node*)__next_node);

  00017	8b 44 24 08	 mov	 eax, DWORD PTR ___$ReturnUdt$[esp]
  0001b	89 30		 mov	 DWORD PTR [eax], esi
  0001d	5e		 pop	 esi

; 362  :     }

  0001e	c2 08 00	 ret	 8
?erase@?$list@PAVMWorkNode@@V?$allocator@PAVMWorkNode@@@_STL@@@_STL@@QAE?AU?$_List_iterator@PAVMWorkNode@@U?$_Nonconst_traits@PAVMWorkNode@@@_STL@@@2@U32@@Z ENDP ; _STL::list<MWorkNode *,_STL::allocator<MWorkNode *> >::erase
_TEXT	ENDS
PUBLIC	?pop_front@?$list@PAVMWorkNode@@V?$allocator@PAVMWorkNode@@@_STL@@@_STL@@QAEXXZ ; _STL::list<MWorkNode *,_STL::allocator<MWorkNode *> >::pop_front
; Function compile flags: /Ogsy
;	COMDAT ?pop_front@?$list@PAVMWorkNode@@V?$allocator@PAVMWorkNode@@@_STL@@@_STL@@QAEXXZ
_TEXT	SEGMENT
$T101382 = -4						; size = 4
?pop_front@?$list@PAVMWorkNode@@V?$allocator@PAVMWorkNode@@@_STL@@@_STL@@QAEXXZ PROC NEAR ; _STL::list<MWorkNode *,_STL::allocator<MWorkNode *> >::pop_front, COMDAT
; _this$ = ecx

; 373  :   void pop_front() { erase(begin()); }

  00000	51		 push	 ecx
  00001	8b 11		 mov	 edx, DWORD PTR [ecx]
  00003	8b 12		 mov	 edx, DWORD PTR [edx]
  00005	51		 push	 ecx
  00006	8b c4		 mov	 eax, esp
  00008	89 10		 mov	 DWORD PTR [eax], edx
  0000a	8d 44 24 04	 lea	 eax, DWORD PTR $T101382[esp+8]
  0000e	50		 push	 eax
  0000f	e8 00 00 00 00	 call	 ?erase@?$list@PAVMWorkNode@@V?$allocator@PAVMWorkNode@@@_STL@@@_STL@@QAE?AU?$_List_iterator@PAVMWorkNode@@U?$_Nonconst_traits@PAVMWorkNode@@@_STL@@@2@U32@@Z ; _STL::list<MWorkNode *,_STL::allocator<MWorkNode *> >::erase
  00014	59		 pop	 ecx
  00015	c3		 ret	 0
?pop_front@?$list@PAVMWorkNode@@V?$allocator@PAVMWorkNode@@@_STL@@@_STL@@QAEXXZ ENDP ; _STL::list<MWorkNode *,_STL::allocator<MWorkNode *> >::pop_front
_TEXT	ENDS
PUBLIC	?begin@?$list@PAVMWorkNode@@V?$allocator@PAVMWorkNode@@@_STL@@@_STL@@QBE?AU?$_List_iterator@PAVMWorkNode@@U?$_Const_traits@PAVMWorkNode@@@_STL@@@2@XZ ; _STL::list<MWorkNode *,_STL::allocator<MWorkNode *> >::begin
; Function compile flags: /Ogsy
;	COMDAT ?begin@?$list@PAVMWorkNode@@V?$allocator@PAVMWorkNode@@@_STL@@@_STL@@QBE?AU?$_List_iterator@PAVMWorkNode@@U?$_Const_traits@PAVMWorkNode@@@_STL@@@2@XZ
_TEXT	SEGMENT
___$ReturnUdt$ = 8					; size = 4
?begin@?$list@PAVMWorkNode@@V?$allocator@PAVMWorkNode@@@_STL@@@_STL@@QBE?AU?$_List_iterator@PAVMWorkNode@@U?$_Const_traits@PAVMWorkNode@@@_STL@@@2@XZ PROC NEAR ; _STL::list<MWorkNode *,_STL::allocator<MWorkNode *> >::begin, COMDAT
; _this$ = ecx

; 267  :   const_iterator begin() const { return const_iterator((_Node*)(this->_M_node._M_data->_M_next)); }

  00000	8b 01		 mov	 eax, DWORD PTR [ecx]
  00002	8b 08		 mov	 ecx, DWORD PTR [eax]
  00004	8b 44 24 04	 mov	 eax, DWORD PTR ___$ReturnUdt$[esp-4]
  00008	89 08		 mov	 DWORD PTR [eax], ecx
  0000a	c2 04 00	 ret	 4
?begin@?$list@PAVMWorkNode@@V?$allocator@PAVMWorkNode@@@_STL@@@_STL@@QBE?AU?$_List_iterator@PAVMWorkNode@@U?$_Const_traits@PAVMWorkNode@@@_STL@@@2@XZ ENDP ; _STL::list<MWorkNode *,_STL::allocator<MWorkNode *> >::begin
_TEXT	ENDS
PUBLIC	?end@?$list@PAVMWorkNode@@V?$allocator@PAVMWorkNode@@@_STL@@@_STL@@QBE?AU?$_List_iterator@PAVMWorkNode@@U?$_Const_traits@PAVMWorkNode@@@_STL@@@2@XZ ; _STL::list<MWorkNode *,_STL::allocator<MWorkNode *> >::end
; Function compile flags: /Ogsy
;	COMDAT ?end@?$list@PAVMWorkNode@@V?$allocator@PAVMWorkNode@@@_STL@@@_STL@@QBE?AU?$_List_iterator@PAVMWorkNode@@U?$_Const_traits@PAVMWorkNode@@@_STL@@@2@XZ
_TEXT	SEGMENT
___$ReturnUdt$ = 8					; size = 4
?end@?$list@PAVMWorkNode@@V?$allocator@PAVMWorkNode@@@_STL@@@_STL@@QBE?AU?$_List_iterator@PAVMWorkNode@@U?$_Const_traits@PAVMWorkNode@@@_STL@@@2@XZ PROC NEAR ; _STL::list<MWorkNode *,_STL::allocator<MWorkNode *> >::end, COMDAT
; _this$ = ecx

; 270  :   const_iterator end() const { return this->_M_node._M_data; }

  00000	8b 09		 mov	 ecx, DWORD PTR [ecx]
  00002	8b 44 24 04	 mov	 eax, DWORD PTR ___$ReturnUdt$[esp-4]
  00006	89 08		 mov	 DWORD PTR [eax], ecx
  00008	c2 04 00	 ret	 4
?end@?$list@PAVMWorkNode@@V?$allocator@PAVMWorkNode@@@_STL@@@_STL@@QBE?AU?$_List_iterator@PAVMWorkNode@@U?$_Const_traits@PAVMWorkNode@@@_STL@@@2@XZ ENDP ; _STL::list<MWorkNode *,_STL::allocator<MWorkNode *> >::end
_TEXT	ENDS
PUBLIC	??0?$_List_base@PAVMWorkNode@@V?$allocator@PAVMWorkNode@@@_STL@@@_STL@@QAE@ABV?$allocator@PAVMWorkNode@@@1@@Z ; _STL::_List_base<MWorkNode *,_STL::allocator<MWorkNode *> >::_List_base<MWorkNode *,_STL::allocator<MWorkNode *> >
; Function compile flags: /Ogsy
;	COMDAT ??0?$_List_base@PAVMWorkNode@@V?$allocator@PAVMWorkNode@@@_STL@@@_STL@@QAE@ABV?$allocator@PAVMWorkNode@@@1@@Z
_TEXT	SEGMENT
$T101427 = -1						; size = 1
___a$ = 8						; size = 4
??0?$_List_base@PAVMWorkNode@@V?$allocator@PAVMWorkNode@@@_STL@@@_STL@@QAE@ABV?$allocator@PAVMWorkNode@@@1@@Z PROC NEAR ; _STL::_List_base<MWorkNode *,_STL::allocator<MWorkNode *> >::_List_base<MWorkNode *,_STL::allocator<MWorkNode *> >, COMDAT
; _this$ = ecx

; 182  :   _List_base(const allocator_type& __a) : _M_node(_STLP_CONVERT_ALLOCATOR(__a, _Node), (_Node*)0) {

  00000	51		 push	 ecx
  00001	56		 push	 esi
  00002	6a 00		 push	 0
  00004	8d 44 24 0b	 lea	 eax, DWORD PTR $T101427[esp+12]
  00008	50		 push	 eax
  00009	8b f1		 mov	 esi, ecx
  0000b	e8 00 00 00 00	 call	 ??0?$_STLP_alloc_proxy@PAU?$_List_node@PAVMWorkNode@@@_STL@@U12@V?$allocator@U?$_List_node@PAVMWorkNode@@@_STL@@@2@@_STL@@QAE@ABV?$allocator@U?$_List_node@PAVMWorkNode@@@_STL@@@1@PAU?$_List_node@PAVMWorkNode@@@1@@Z ; _STL::_STLP_alloc_proxy<_STL::_List_node<MWorkNode *> *,_STL::_List_node<MWorkNode *>,_STL::allocator<_STL::_List_node<MWorkNode *> > >::_STLP_alloc_proxy<_STL::_List_node<MWorkNode *> *,_STL::_List_node<MWorkNode *>,_STL::allocator<_STL::_List_node<MWorkNode *> > >

; 183  :     _Node* __n = _M_node.allocate(1);

  00010	6a 0c		 push	 12			; 0000000cH
  00012	e8 00 00 00 00	 call	 ?allocate@?$__node_alloc@$00$0A@@_STL@@SAPAXI@Z ; _STL::__node_alloc<1,0>::allocate

; 184  :     __n->_M_next = __n;

  00017	89 00		 mov	 DWORD PTR [eax], eax

; 185  :     __n->_M_prev = __n;

  00019	89 40 04	 mov	 DWORD PTR [eax+4], eax

; 186  :     _M_node._M_data = __n;

  0001c	89 06		 mov	 DWORD PTR [esi], eax
  0001e	59		 pop	 ecx

; 187  :   }

  0001f	8b c6		 mov	 eax, esi
  00021	5e		 pop	 esi
  00022	59		 pop	 ecx
  00023	c2 04 00	 ret	 4
??0?$_List_base@PAVMWorkNode@@V?$allocator@PAVMWorkNode@@@_STL@@@_STL@@QAE@ABV?$allocator@PAVMWorkNode@@@1@@Z ENDP ; _STL::_List_base<MWorkNode *,_STL::allocator<MWorkNode *> >::_List_base<MWorkNode *,_STL::allocator<MWorkNode *> >
_TEXT	ENDS
PUBLIC	??1?$_List_base@PAVMWorkNode@@V?$allocator@PAVMWorkNode@@@_STL@@@_STL@@QAE@XZ ; _STL::_List_base<MWorkNode *,_STL::allocator<MWorkNode *> >::~_List_base<MWorkNode *,_STL::allocator<MWorkNode *> >
; Function compile flags: /Ogsy
;	COMDAT ??1?$_List_base@PAVMWorkNode@@V?$allocator@PAVMWorkNode@@@_STL@@@_STL@@QAE@XZ
_TEXT	SEGMENT
??1?$_List_base@PAVMWorkNode@@V?$allocator@PAVMWorkNode@@@_STL@@@_STL@@QAE@XZ PROC NEAR ; _STL::_List_base<MWorkNode *,_STL::allocator<MWorkNode *> >::~_List_base<MWorkNode *,_STL::allocator<MWorkNode *> >, COMDAT
; _this$ = ecx

; 188  :   ~_List_base() {

  00000	56		 push	 esi
  00001	8b f1		 mov	 esi, ecx

; 189  :     clear();

  00003	e8 00 00 00 00	 call	 ?clear@?$_List_base@PAVMWorkNode@@V?$allocator@PAVMWorkNode@@@_STL@@@_STL@@QAEXXZ ; _STL::_List_base<MWorkNode *,_STL::allocator<MWorkNode *> >::clear

; 190  :     _M_node.deallocate(_M_node._M_data, 1);

  00008	6a 01		 push	 1
  0000a	ff 36		 push	 DWORD PTR [esi]
  0000c	8b ce		 mov	 ecx, esi
  0000e	e8 00 00 00 00	 call	 ?deallocate@?$allocator@U?$_List_node@PAVMWorkNode@@@_STL@@@_STL@@QAEXPAU?$_List_node@PAVMWorkNode@@@2@I@Z ; _STL::allocator<_STL::_List_node<MWorkNode *> >::deallocate
  00013	5e		 pop	 esi

; 191  :   }

  00014	c3		 ret	 0
??1?$_List_base@PAVMWorkNode@@V?$allocator@PAVMWorkNode@@@_STL@@@_STL@@QAE@XZ ENDP ; _STL::_List_base<MWorkNode *,_STL::allocator<MWorkNode *> >::~_List_base<MWorkNode *,_STL::allocator<MWorkNode *> >
_TEXT	ENDS
PUBLIC	?_M_create_node@?$list@PAVMWorkNode@@V?$allocator@PAVMWorkNode@@@_STL@@@_STL@@IAEPAU?$_List_node@PAVMWorkNode@@@2@ABQAVMWorkNode@@@Z ; _STL::list<MWorkNode *,_STL::allocator<MWorkNode *> >::_M_create_node
EXTRN	__CxxThrowException@8:NEAR
; Function compile flags: /Ogsy
;	COMDAT ?_M_create_node@?$list@PAVMWorkNode@@V?$allocator@PAVMWorkNode@@@_STL@@@_STL@@IAEPAU?$_List_node@PAVMWorkNode@@@2@ABQAVMWorkNode@@@Z
_TEXT	SEGMENT
___x$ = 8						; size = 4
?_M_create_node@?$list@PAVMWorkNode@@V?$allocator@PAVMWorkNode@@@_STL@@@_STL@@IAEPAU?$_List_node@PAVMWorkNode@@@2@ABQAVMWorkNode@@@Z PROC NEAR ; _STL::list<MWorkNode *,_STL::allocator<MWorkNode *> >::_M_create_node, COMDAT
; _this$ = ecx

; 241  :     _Node* __p = this->_M_node.allocate(1);

  00000	6a 0c		 push	 12			; 0000000cH
  00002	e8 00 00 00 00	 call	 ?allocate@?$__node_alloc@$00$0A@@_STL@@SAPAXI@Z ; _STL::__node_alloc<1,0>::allocate
  00007	59		 pop	 ecx

; 242  :     _STLP_TRY {
; 243  :       _Construct(&__p->_M_data, __x);

  00008	8d 48 08	 lea	 ecx, DWORD PTR [eax+8]
  0000b	85 c9		 test	 ecx, ecx
  0000d	74 08		 je	 SHORT $L101463
  0000f	8b 54 24 04	 mov	 edx, DWORD PTR ___x$[esp-4]
  00013	8b 12		 mov	 edx, DWORD PTR [edx]
  00015	89 11		 mov	 DWORD PTR [ecx], edx
$L101463:

; 244  :     }
; 245  :     _STLP_UNWIND(this->_M_node.deallocate(__p, 1));
; 246  :     return __p;
; 247  :   }

  00017	c2 04 00	 ret	 4
?_M_create_node@?$list@PAVMWorkNode@@V?$allocator@PAVMWorkNode@@@_STL@@@_STL@@IAEPAU?$_List_node@PAVMWorkNode@@@2@ABQAVMWorkNode@@@Z ENDP ; _STL::list<MWorkNode *,_STL::allocator<MWorkNode *> >::_M_create_node
_TEXT	ENDS
PUBLIC	??$__distance@U?$_List_iterator@PAVMWorkNode@@U?$_Const_traits@PAVMWorkNode@@@_STL@@@_STL@@@_STL@@YAHABU?$_List_iterator@PAVMWorkNode@@U?$_Const_traits@PAVMWorkNode@@@_STL@@@0@0ABUinput_iterator_tag@0@@Z ; _STL::__distance<_STL::_List_iterator<MWorkNode *,_STL::_Const_traits<MWorkNode *> > >
; Function compile flags: /Ogsy
; File c:\stlport-4.6.1\stlport\stl\_iterator_base.h
;	COMDAT ??$__distance@U?$_List_iterator@PAVMWorkNode@@U?$_Const_traits@PAVMWorkNode@@@_STL@@@_STL@@@_STL@@YAHABU?$_List_iterator@PAVMWorkNode@@U?$_Const_traits@PAVMWorkNode@@@_STL@@@0@0ABUinput_iterator_tag@0@@Z
_TEXT	SEGMENT
___first$ = 8						; size = 4
___last$ = 12						; size = 4
___formal$ = 16						; size = 4
??$__distance@U?$_List_iterator@PAVMWorkNode@@U?$_Const_traits@PAVMWorkNode@@@_STL@@@_STL@@@_STL@@YAHABU?$_List_iterator@PAVMWorkNode@@U?$_Const_traits@PAVMWorkNode@@@_STL@@@0@0ABUinput_iterator_tag@0@@Z PROC NEAR ; _STL::__distance<_STL::_List_iterator<MWorkNode *,_STL::_Const_traits<MWorkNode *> > >, COMDAT

; 323  :   _STLP_DIFFERENCE_TYPE(_InputIterator) __n = 0;
; 324  :   _InputIterator __it(__first);  
; 325  :   while (__it != __last) {

  00000	8b 54 24 08	 mov	 edx, DWORD PTR ___last$[esp-4]
  00004	8b 4c 24 04	 mov	 ecx, DWORD PTR ___first$[esp-4]
  00008	8b 12		 mov	 edx, DWORD PTR [edx]
  0000a	33 c0		 xor	 eax, eax
  0000c	eb 01		 jmp	 SHORT $L101489
$L100742:

; 326  :     ++__it; ++__n;

  0000e	40		 inc	 eax
$L101489:
  0000f	8b 09		 mov	 ecx, DWORD PTR [ecx]
  00011	3b ca		 cmp	 ecx, edx
  00013	75 f9		 jne	 SHORT $L100742

; 327  :   }
; 328  :   return __n;
; 329  : }

  00015	c3		 ret	 0
??$__distance@U?$_List_iterator@PAVMWorkNode@@U?$_Const_traits@PAVMWorkNode@@@_STL@@@_STL@@@_STL@@YAHABU?$_List_iterator@PAVMWorkNode@@U?$_Const_traits@PAVMWorkNode@@@_STL@@@0@0ABUinput_iterator_tag@0@@Z ENDP ; _STL::__distance<_STL::_List_iterator<MWorkNode *,_STL::_Const_traits<MWorkNode *> > >
_TEXT	ENDS
PUBLIC	?ReleaseWork@MWorkThread@@QAEXXZ		; MWorkThread::ReleaseWork
EXTRN	__EH_prolog:NEAR
EXTRN	__except_list:DWORD
EXTRN	___CxxFrameHandler:NEAR
EXTRN	__imp__SetEvent@4:NEAR
EXTRN	__imp__ResetEvent@4:NEAR
;	COMDAT xdata$x
; File c:\darkeden\designed_common\project\client\acriticalsection.h
xdata$x	SEGMENT
$T101637 DD	0ffffffffH
	DD	FLAT:$L101500
$T101625 DD	019930520H
	DD	01H
	DD	FLAT:$T101637
	DD	2 DUP(00H)
	DD	2 DUP(00H)
; Function compile flags: /Ogsy
; File c:\darkeden\designed_common\project\client\mworkthread.cpp
xdata$x	ENDS
;	COMDAT ?ReleaseWork@MWorkThread@@QAEXXZ
_TEXT	SEGMENT
__syncVar$100087 = -16					; size = 4
__$EHRec$ = -12						; size = 12
?ReleaseWork@MWorkThread@@QAEXXZ PROC NEAR		; MWorkThread::ReleaseWork, COMDAT
; _this$ = ecx

; 164  : {

  00000	b8 00 00 00 00	 mov	 eax, __ehhandler$?ReleaseWork@MWorkThread@@QAEXXZ
  00005	e8 00 00 00 00	 call	 __EH_prolog
  0000a	51		 push	 ecx
  0000b	53		 push	 ebx
  0000c	55		 push	 ebp
  0000d	56		 push	 esi
  0000e	57		 push	 edi
  0000f	8b f1		 mov	 esi, ecx

; 165  : 	//-------------------------------------------------------------
; 166  : 	//   event
; 167  : 	//-------------------------------------------------------------
; 168  : 	SetEvent( m_hStopWorkEvent );

  00011	ff 76 3c	 push	 DWORD PTR [esi+60]
  00014	ff 15 00 00 00
	00		 call	 DWORD PTR __imp__SetEvent@4

; 169  : 
; 170  : 	//------------------------------------------------------------
; 171  : 	//    ..
; 172  : 	//------------------------------------------------------------
; 173  : 	if (!IsFinishCurrentWork())

  0001a	8b 2d 00 00 00
	00		 mov	 ebp, DWORD PTR __imp__WaitForSingleObject@8
  00020	6a 00		 push	 0
  00022	ff 76 38	 push	 DWORD PTR [esi+56]
  00025	ff d5		 call	 ebp
  00027	85 c0		 test	 eax, eax
  00029	8b 3d 00 00 00
	00		 mov	 edi, DWORD PTR __imp__EnterCriticalSection@4
  0002f	74 18		 je	 SHORT $L100085

; 174  : 	{
; 175  : 		//WaitUnlockCurrent();
; 176  : 		
; 177  : 		synchronized(m_csCurrent)

  00031	8d 5e 18	 lea	 ebx, DWORD PTR [esi+24]
  00034	53		 push	 ebx
  00035	ff d7		 call	 edi

; 178  : 		{
; 179  : 			if (m_pCurrentWork!=NULL)		//    

  00037	8b 46 44	 mov	 eax, DWORD PTR [esi+68]
  0003a	85 c0		 test	 eax, eax
  0003c	74 04		 je	 SHORT $L101517

; 180  : 			{
; 181  : 				// 			
; 182  : 				m_pCurrentWork->Stop();

  0003e	83 60 08 00	 and	 DWORD PTR [eax+8], 0
$L101517:

; 183  : 			}
; 184  : 		}

  00042	53		 push	 ebx
  00043	ff 15 00 00 00
	00		 call	 DWORD PTR __imp__LeaveCriticalSection@4
$L100085:

; 185  : 	}
; 186  : 
; 187  : 	//------------------------------------------------------------
; 188  : 	//   .
; 189  : 	//------------------------------------------------------------
; 190  : 	while (IsWorking());

  00049	6a 00		 push	 0
  0004b	ff 76 34	 push	 DWORD PTR [esi+52]
  0004e	ff d5		 call	 ebp
  00050	85 c0		 test	 eax, eax
  00052	74 f5		 je	 SHORT $L100085

; 191  : 
; 192  : 	//-------------------------------------------------------------
; 193  : 	// deque WorkNode  .
; 194  : 	//-------------------------------------------------------------
; 195  : 	//WaitUnlockDeque();
; 196  : 	
; 197  : 	synchronized(m_csList)

  00054	56		 push	 esi
  00055	89 74 24 14	 mov	 DWORD PTR __syncVar$100087[esp+36], esi
  00059	ff d7		 call	 edi
  0005b	83 64 24 1c 00	 and	 DWORD PTR __$EHRec$[esp+40], 0

; 198  : 	{	
; 199  : 		WORKNODE_LIST::iterator iNode = m_WorkNodeList.begin();

  00060	8d 5e 40	 lea	 ebx, DWORD PTR [esi+64]
  00063	8b 03		 mov	 eax, DWORD PTR [ebx]
  00065	8b 38		 mov	 edi, DWORD PTR [eax]

; 200  : 		
; 201  : 		while (iNode != m_WorkNodeList.end())

  00067	3b f8		 cmp	 edi, eax
  00069	74 13		 je	 SHORT $L100133
$L100132:

; 202  : 		{
; 203  : 			MWorkNode* pNode = *iNode;
; 204  : 			
; 205  : 			delete pNode;

  0006b	8b 4f 08	 mov	 ecx, DWORD PTR [edi+8]
  0006e	85 c9		 test	 ecx, ecx
  00070	74 06		 je	 SHORT $L101496
  00072	8b 01		 mov	 eax, DWORD PTR [ecx]
  00074	6a 01		 push	 1
  00076	ff 10		 call	 DWORD PTR [eax]
$L101496:

; 206  : 			
; 207  : 			iNode ++;

  00078	8b 3f		 mov	 edi, DWORD PTR [edi]
  0007a	3b 3b		 cmp	 edi, DWORD PTR [ebx]
  0007c	75 ed		 jne	 SHORT $L100132
$L100133:

; 208  : 		}
; 209  : 		
; 210  : 		m_WorkNodeList.clear();

  0007e	8b cb		 mov	 ecx, ebx
  00080	e8 00 00 00 00	 call	 ?clear@?$_List_base@PAVMWorkNode@@V?$allocator@PAVMWorkNode@@@_STL@@@_STL@@QAEXXZ ; _STL::_List_base<MWorkNode *,_STL::allocator<MWorkNode *> >::clear

; 211  : 	}

  00085	56		 push	 esi
  00086	ff 15 00 00 00
	00		 call	 DWORD PTR __imp__LeaveCriticalSection@4

; 212  : 
; 213  : 	//-------------------------------------------------------------
; 214  : 	//   event
; 215  : 	//-------------------------------------------------------------
; 216  : 	ResetEvent( m_hStopWorkEvent );

  0008c	ff 76 3c	 push	 DWORD PTR [esi+60]
  0008f	ff 15 00 00 00
	00		 call	 DWORD PTR __imp__ResetEvent@4

; 217  : }

  00095	8b 4c 24 14	 mov	 ecx, DWORD PTR __$EHRec$[esp+32]
  00099	5f		 pop	 edi
  0009a	5e		 pop	 esi
  0009b	5d		 pop	 ebp
  0009c	5b		 pop	 ebx
  0009d	64 89 0d 00 00
	00 00		 mov	 DWORD PTR fs:__except_list, ecx
  000a4	c9		 leave
  000a5	c3		 ret	 0
_TEXT	ENDS
;	COMDAT text$x
text$x	SEGMENT
$L101500:
  00000	8d 4d f0	 lea	 ecx, DWORD PTR __syncVar$100087[ebp]
  00003	e9 00 00 00 00	 jmp	 ??1AutoLock@ACriticalSection@@QAE@XZ ; ACriticalSection::AutoLock::~AutoLock
__ehhandler$?ReleaseWork@MWorkThread@@QAEXXZ:
  00008	b8 00 00 00 00	 mov	 eax, OFFSET FLAT:$T101625
  0000d	e9 00 00 00 00	 jmp	 ___CxxFrameHandler
text$x	ENDS
?ReleaseWork@MWorkThread@@QAEXXZ ENDP			; MWorkThread::ReleaseWork
PUBLIC	?Remove@MWorkThread@@QAEXH@Z			; MWorkThread::Remove
;	COMDAT xdata$x
; File c:\darkeden\designed_common\project\client\acriticalsection.h
xdata$x	SEGMENT
$T101836 DD	0ffffffffH
	DD	FLAT:$L101654
$T101833 DD	019930520H
	DD	01H
	DD	FLAT:$T101836
	DD	2 DUP(00H)
	DD	2 DUP(00H)
; Function compile flags: /Ogsy
; File c:\darkeden\designed_common\project\client\mworkthread.cpp
xdata$x	ENDS
;	COMDAT ?Remove@MWorkThread@@QAEXH@Z
_TEXT	SEGMENT
$T101651 = -24						; size = 4
$T101650 = -20						; size = 4
__syncVar$100188 = -16					; size = 4
__$EHRec$ = -12						; size = 12
_type$ = 8						; size = 4
?Remove@MWorkThread@@QAEXH@Z PROC NEAR			; MWorkThread::Remove, COMDAT
; _this$ = ecx

; 389  : {

  00000	b8 00 00 00 00	 mov	 eax, __ehhandler$?Remove@MWorkThread@@QAEXH@Z
  00005	e8 00 00 00 00	 call	 __EH_prolog
  0000a	83 ec 0c	 sub	 esp, 12			; 0000000cH
  0000d	53		 push	 ebx
  0000e	56		 push	 esi
  0000f	57		 push	 edi
  00010	8b f1		 mov	 esi, ecx

; 390  : 	//-------------------------------------------------------------
; 391  : 	//   event
; 392  : 	//-------------------------------------------------------------
; 393  : 	SetEvent( m_hStopWorkEvent );

  00012	ff 76 3c	 push	 DWORD PTR [esi+60]
  00015	ff 15 00 00 00
	00		 call	 DWORD PTR __imp__SetEvent@4

; 394  : 
; 395  : 	//------------------------------------------------------------
; 396  : 	//    
; 397  : 	//------------------------------------------------------------
; 398  : 	if (!IsFinishCurrentWork())

  0001b	8b 3d 00 00 00
	00		 mov	 edi, DWORD PTR __imp__WaitForSingleObject@8
  00021	6a 00		 push	 0
  00023	ff 76 38	 push	 DWORD PTR [esi+56]
  00026	ff d7		 call	 edi
  00028	85 c0		 test	 eax, eax
  0002a	8b 1d 00 00 00
	00		 mov	 ebx, DWORD PTR __imp__EnterCriticalSection@4
  00030	74 23		 je	 SHORT $L101684

; 399  : 	{
; 400  : 		//WaitUnlockCurrent();
; 401  : 		synchronized(m_csCurrent)

  00032	8d 46 18	 lea	 eax, DWORD PTR [esi+24]
  00035	50		 push	 eax
  00036	ff d3		 call	 ebx

; 402  : 		{
; 403  : 			if (m_pCurrentWork!=NULL)

  00038	8b 46 44	 mov	 eax, DWORD PTR [esi+68]
  0003b	85 c0		 test	 eax, eax
  0003d	74 0c		 je	 SHORT $L101674

; 404  : 			{
; 405  : 				if (m_pCurrentWork->IsTypeOf(type))

  0003f	8b 4d 08	 mov	 ecx, DWORD PTR _type$[ebp]
  00042	39 48 04	 cmp	 DWORD PTR [eax+4], ecx
  00045	75 04		 jne	 SHORT $L101674

; 406  : 				{
; 407  : 					// 
; 408  : 					m_pCurrentWork->Stop();

  00047	83 60 08 00	 and	 DWORD PTR [eax+8], 0
$L101674:

; 409  : 				}
; 410  : 			}
; 411  : 		}

  0004b	8d 46 18	 lea	 eax, DWORD PTR [esi+24]
  0004e	50		 push	 eax
  0004f	ff 15 00 00 00
	00		 call	 DWORD PTR __imp__LeaveCriticalSection@4
$L101684:

; 412  : 	}
; 413  : 
; 414  : 	//------------------------------------------------------------
; 415  : 	//   .
; 416  : 	//------------------------------------------------------------
; 417  : 	//while (IsWorking());
; 418  : 	WaitForSingleObject(m_hEndWorkEvent, INFINITE);

  00055	6a ff		 push	 -1
  00057	ff 76 38	 push	 DWORD PTR [esi+56]
  0005a	ff d7		 call	 edi

; 419  : 
; 420  : 	//-------------------------------------------------------------
; 421  : 	// type   deque WorkNode  .
; 422  : 	//-------------------------------------------------------------
; 423  : 	//WaitUnlockDeque();
; 424  : 	synchronized(m_csList)

  0005c	56		 push	 esi
  0005d	89 75 f0	 mov	 DWORD PTR __syncVar$100188[ebp], esi
  00060	ff d3		 call	 ebx
  00062	83 65 fc 00	 and	 DWORD PTR __$EHRec$[ebp+8], 0

; 425  : 	{
; 426  : 		WORKNODE_LIST::iterator iNode = m_WorkNodeList.begin();

  00066	8d 5e 40	 lea	 ebx, DWORD PTR [esi+64]
  00069	8b 03		 mov	 eax, DWORD PTR [ebx]
  0006b	8b 38		 mov	 edi, DWORD PTR [eax]

; 427  : 		WORKNODE_LIST::iterator iNodeTemp;
; 428  : 
; 429  : 		while (iNode != m_WorkNodeList.end())

  0006d	3b f8		 cmp	 edi, eax
  0006f	74 30		 je	 SHORT $L100196
$L100195:

; 430  : 		{
; 431  : 			MWorkNode* pNode = *iNode;

  00071	8b 4f 08	 mov	 ecx, DWORD PTR [edi+8]

; 432  : 
; 433  : 			//------------------------------------------
; 434  : 			//  type .
; 435  : 			//------------------------------------------
; 436  : 			if (pNode->IsTypeOf(type))

  00074	8b 45 08	 mov	 eax, DWORD PTR _type$[ebp]
  00077	39 41 04	 cmp	 DWORD PTR [ecx+4], eax
  0007a	75 1f		 jne	 SHORT $L100199

; 437  : 			{
; 438  : 				delete pNode;		

  0007c	8b 01		 mov	 eax, DWORD PTR [ecx]
  0007e	6a 01		 push	 1
  00080	ff 10		 call	 DWORD PTR [eax]

; 439  : 
; 440  : 				iNodeTemp = iNode;
; 441  : 
; 442  : 				iNode ++;
; 443  : 
; 444  : 				m_WorkNodeList.erase(iNodeTemp);

  00082	51		 push	 ecx
  00083	8b cc		 mov	 ecx, esp
  00085	8b c7		 mov	 eax, edi
  00087	8b 3f		 mov	 edi, DWORD PTR [edi]
  00089	89 01		 mov	 DWORD PTR [ecx], eax
  0008b	8d 45 e8	 lea	 eax, DWORD PTR $T101651[ebp]
  0008e	89 65 ec	 mov	 DWORD PTR $T101650[ebp], esp
  00091	50		 push	 eax
  00092	8b cb		 mov	 ecx, ebx
  00094	e8 00 00 00 00	 call	 ?erase@?$list@PAVMWorkNode@@V?$allocator@PAVMWorkNode@@@_STL@@@_STL@@QAE?AU?$_List_iterator@PAVMWorkNode@@U?$_Nonconst_traits@PAVMWorkNode@@@_STL@@@2@U32@@Z ; _STL::list<MWorkNode *,_STL::allocator<MWorkNode *> >::erase

; 445  : 			}
; 446  : 			else

  00099	eb 02		 jmp	 SHORT $L101810
$L100199:

; 447  : 			{
; 448  : 				iNode ++;

  0009b	8b 3f		 mov	 edi, DWORD PTR [edi]
$L101810:

; 427  : 		WORKNODE_LIST::iterator iNodeTemp;
; 428  : 
; 429  : 		while (iNode != m_WorkNodeList.end())

  0009d	3b 3b		 cmp	 edi, DWORD PTR [ebx]
  0009f	75 d0		 jne	 SHORT $L100195
$L100196:

; 449  : 			}
; 450  : 		}
; 451  : 	}

  000a1	56		 push	 esi
  000a2	ff 15 00 00 00
	00		 call	 DWORD PTR __imp__LeaveCriticalSection@4

; 452  : 
; 453  : 	//-------------------------------------------------------------
; 454  : 	//   ..
; 455  : 	//-------------------------------------------------------------
; 456  : 	SetEvent( m_hHasWorkEvent );

  000a8	ff 76 34	 push	 DWORD PTR [esi+52]
  000ab	ff 15 00 00 00
	00		 call	 DWORD PTR __imp__SetEvent@4

; 457  : }

  000b1	8b 4d f4	 mov	 ecx, DWORD PTR __$EHRec$[ebp]
  000b4	5f		 pop	 edi
  000b5	5e		 pop	 esi
  000b6	64 89 0d 00 00
	00 00		 mov	 DWORD PTR fs:__except_list, ecx
  000bd	5b		 pop	 ebx
  000be	c9		 leave
  000bf	c2 04 00	 ret	 4
_TEXT	ENDS
;	COMDAT text$x
text$x	SEGMENT
$L101654:
  00000	8d 4d f0	 lea	 ecx, DWORD PTR __syncVar$100188[ebp]
  00003	e9 00 00 00 00	 jmp	 ??1AutoLock@ACriticalSection@@QAE@XZ ; ACriticalSection::AutoLock::~AutoLock
__ehhandler$?Remove@MWorkThread@@QAEXH@Z:
  00008	b8 00 00 00 00	 mov	 eax, OFFSET FLAT:$T101833
  0000d	e9 00 00 00 00	 jmp	 ___CxxFrameHandler
text$x	ENDS
?Remove@MWorkThread@@QAEXH@Z ENDP			; MWorkThread::Remove
PUBLIC	??0?$list@PAVMWorkNode@@V?$allocator@PAVMWorkNode@@@_STL@@@_STL@@QAE@ABV?$allocator@PAVMWorkNode@@@1@@Z ; _STL::list<MWorkNode *,_STL::allocator<MWorkNode *> >::list<MWorkNode *,_STL::allocator<MWorkNode *> >
; Function compile flags: /Ogsy
; File c:\stlport-4.6.1\stlport\stl\_list.h
;	COMDAT ??0?$list@PAVMWorkNode@@V?$allocator@PAVMWorkNode@@@_STL@@@_STL@@QAE@ABV?$allocator@PAVMWorkNode@@@1@@Z
_TEXT	SEGMENT
___a$ = 8						; size = 4
??0?$list@PAVMWorkNode@@V?$allocator@PAVMWorkNode@@@_STL@@@_STL@@QAE@ABV?$allocator@PAVMWorkNode@@@1@@Z PROC NEAR ; _STL::list<MWorkNode *,_STL::allocator<MWorkNode *> >::list<MWorkNode *,_STL::allocator<MWorkNode *> >, COMDAT
; _this$ = ecx

; 264  :     _List_base<_Tp, _Alloc>(__a) {}

  00000	56		 push	 esi
  00001	ff 74 24 08	 push	 DWORD PTR ___a$[esp]
  00005	8b f1		 mov	 esi, ecx
  00007	e8 00 00 00 00	 call	 ??0?$_List_base@PAVMWorkNode@@V?$allocator@PAVMWorkNode@@@_STL@@@_STL@@QAE@ABV?$allocator@PAVMWorkNode@@@1@@Z ; _STL::_List_base<MWorkNode *,_STL::allocator<MWorkNode *> >::_List_base<MWorkNode *,_STL::allocator<MWorkNode *> >
  0000c	8b c6		 mov	 eax, esi
  0000e	5e		 pop	 esi
  0000f	c2 04 00	 ret	 4
??0?$list@PAVMWorkNode@@V?$allocator@PAVMWorkNode@@@_STL@@@_STL@@QAE@ABV?$allocator@PAVMWorkNode@@@1@@Z ENDP ; _STL::list<MWorkNode *,_STL::allocator<MWorkNode *> >::list<MWorkNode *,_STL::allocator<MWorkNode *> >
_TEXT	ENDS
PUBLIC	??1?$list@PAVMWorkNode@@V?$allocator@PAVMWorkNode@@@_STL@@@_STL@@QAE@XZ ; _STL::list<MWorkNode *,_STL::allocator<MWorkNode *> >::~list<MWorkNode *,_STL::allocator<MWorkNode *> >
; Function compile flags: /Ogsy
;	COMDAT ??1?$list@PAVMWorkNode@@V?$allocator@PAVMWorkNode@@@_STL@@@_STL@@QAE@XZ
_TEXT	SEGMENT
??1?$list@PAVMWorkNode@@V?$allocator@PAVMWorkNode@@@_STL@@@_STL@@QAE@XZ PROC NEAR ; _STL::list<MWorkNode *,_STL::allocator<MWorkNode *> >::~list<MWorkNode *,_STL::allocator<MWorkNode *> >, COMDAT
; _this$ = ecx

; 416  :   ~list() { }

  00000	e9 00 00 00 00	 jmp	 ??1?$_List_base@PAVMWorkNode@@V?$allocator@PAVMWorkNode@@@_STL@@@_STL@@QAE@XZ ; _STL::_List_base<MWorkNode *,_STL::allocator<MWorkNode *> >::~_List_base<MWorkNode *,_STL::allocator<MWorkNode *> >
??1?$list@PAVMWorkNode@@V?$allocator@PAVMWorkNode@@@_STL@@@_STL@@QAE@XZ ENDP ; _STL::list<MWorkNode *,_STL::allocator<MWorkNode *> >::~list<MWorkNode *,_STL::allocator<MWorkNode *> >
_TEXT	ENDS
PUBLIC	?insert@?$list@PAVMWorkNode@@V?$allocator@PAVMWorkNode@@@_STL@@@_STL@@QAE?AU?$_List_iterator@PAVMWorkNode@@U?$_Nonconst_traits@PAVMWorkNode@@@_STL@@@2@U32@ABQAVMWorkNode@@@Z ; _STL::list<MWorkNode *,_STL::allocator<MWorkNode *> >::insert
; Function compile flags: /Ogsy
;	COMDAT ?insert@?$list@PAVMWorkNode@@V?$allocator@PAVMWorkNode@@@_STL@@@_STL@@QAE?AU?$_List_iterator@PAVMWorkNode@@U?$_Nonconst_traits@PAVMWorkNode@@@_STL@@@2@U32@ABQAVMWorkNode@@@Z
_TEXT	SEGMENT
___$ReturnUdt$ = 8					; size = 4
___position$ = 12					; size = 4
___x$ = 16						; size = 4
?insert@?$list@PAVMWorkNode@@V?$allocator@PAVMWorkNode@@@_STL@@@_STL@@QAE?AU?$_List_iterator@PAVMWorkNode@@U?$_Nonconst_traits@PAVMWorkNode@@@_STL@@@2@U32@ABQAVMWorkNode@@@Z PROC NEAR ; _STL::list<MWorkNode *,_STL::allocator<MWorkNode *> >::insert, COMDAT
; _this$ = ecx

; 299  : 
; 300  :     _Node* __tmp = _M_create_node(__x);

  00000	ff 74 24 0c	 push	 DWORD PTR ___x$[esp-4]
  00004	e8 00 00 00 00	 call	 ?_M_create_node@?$list@PAVMWorkNode@@V?$allocator@PAVMWorkNode@@@_STL@@@_STL@@IAEPAU?$_List_node@PAVMWorkNode@@@2@ABQAVMWorkNode@@@Z ; _STL::list<MWorkNode *,_STL::allocator<MWorkNode *> >::_M_create_node

; 301  :     _List_node_base* __n = __position._M_node;
; 302  :     _List_node_base* __p = __n->_M_prev;

  00009	8b 4c 24 08	 mov	 ecx, DWORD PTR ___position$[esp-4]
  0000d	8b 51 04	 mov	 edx, DWORD PTR [ecx+4]

; 303  :     __tmp->_M_next = __n;

  00010	89 08		 mov	 DWORD PTR [eax], ecx

; 304  :     __tmp->_M_prev = __p;

  00012	89 50 04	 mov	 DWORD PTR [eax+4], edx

; 305  :     __p->_M_next = __tmp;

  00015	89 02		 mov	 DWORD PTR [edx], eax

; 306  :     __n->_M_prev = __tmp;

  00017	89 41 04	 mov	 DWORD PTR [ecx+4], eax

; 307  :     return __tmp;

  0001a	8b 4c 24 04	 mov	 ecx, DWORD PTR ___$ReturnUdt$[esp-4]
  0001e	89 01		 mov	 DWORD PTR [ecx], eax
  00020	8b c1		 mov	 eax, ecx

; 308  :   }

  00022	c2 0c 00	 ret	 12			; 0000000cH
?insert@?$list@PAVMWorkNode@@V?$allocator@PAVMWorkNode@@@_STL@@@_STL@@QAE?AU?$_List_iterator@PAVMWorkNode@@U?$_Nonconst_traits@PAVMWorkNode@@@_STL@@@2@U32@ABQAVMWorkNode@@@Z ENDP ; _STL::list<MWorkNode *,_STL::allocator<MWorkNode *> >::insert
_TEXT	ENDS
PUBLIC	??$distance@U?$_List_iterator@PAVMWorkNode@@U?$_Const_traits@PAVMWorkNode@@@_STL@@@_STL@@@_STL@@YAHABU?$_List_iterator@PAVMWorkNode@@U?$_Const_traits@PAVMWorkNode@@@_STL@@@0@0@Z ; _STL::distance<_STL::_List_iterator<MWorkNode *,_STL::_Const_traits<MWorkNode *> > >
; Function compile flags: /Ogsy
; File c:\stlport-4.6.1\stlport\stl\_iterator_base.h
;	COMDAT ??$distance@U?$_List_iterator@PAVMWorkNode@@U?$_Const_traits@PAVMWorkNode@@@_STL@@@_STL@@@_STL@@YAHABU?$_List_iterator@PAVMWorkNode@@U?$_Const_traits@PAVMWorkNode@@@_STL@@@0@0@Z
_TEXT	SEGMENT
___first$ = 8						; size = 4
___last$ = 12						; size = 4
??$distance@U?$_List_iterator@PAVMWorkNode@@U?$_Const_traits@PAVMWorkNode@@@_STL@@@_STL@@@_STL@@YAHABU?$_List_iterator@PAVMWorkNode@@U?$_Const_traits@PAVMWorkNode@@@_STL@@@0@0@Z PROC NEAR ; _STL::distance<_STL::_List_iterator<MWorkNode *,_STL::_Const_traits<MWorkNode *> > >, COMDAT

; 369  :   return __distance(__first, __last, _STLP_ITERATOR_CATEGORY(__first, _InputIterator));  

  00000	8b 54 24 08	 mov	 edx, DWORD PTR ___last$[esp-4]
  00004	8b 4c 24 04	 mov	 ecx, DWORD PTR ___first$[esp-4]
  00008	8b 12		 mov	 edx, DWORD PTR [edx]
  0000a	33 c0		 xor	 eax, eax
  0000c	eb 01		 jmp	 SHORT $L101888
$L101876:
  0000e	40		 inc	 eax
$L101888:
  0000f	8b 09		 mov	 ecx, DWORD PTR [ecx]
  00011	3b ca		 cmp	 ecx, edx
  00013	75 f9		 jne	 SHORT $L101876

; 370  : }

  00015	c3		 ret	 0
??$distance@U?$_List_iterator@PAVMWorkNode@@U?$_Const_traits@PAVMWorkNode@@@_STL@@@_STL@@@_STL@@YAHABU?$_List_iterator@PAVMWorkNode@@U?$_Const_traits@PAVMWorkNode@@@_STL@@@0@0@Z ENDP ; _STL::distance<_STL::_List_iterator<MWorkNode *,_STL::_Const_traits<MWorkNode *> > >
_TEXT	ENDS
PUBLIC	??0MWorkThread@@QAE@XZ				; MWorkThread::MWorkThread
;	COMDAT xdata$x
; File c:\stlport-4.6.1\stlport\stl\_alloc.h
xdata$x	SEGMENT
$T101917 DD	0ffffffffH
	DD	FLAT:$L101893
	DD	00H
	DD	FLAT:$L101894
$T101915 DD	019930520H
	DD	02H
	DD	FLAT:$T101917
	DD	2 DUP(00H)
	DD	2 DUP(00H)
; Function compile flags: /Ogsy
; File c:\darkeden\designed_common\project\client\mworkthread.cpp
xdata$x	ENDS
;	COMDAT ??0MWorkThread@@QAE@XZ
_TEXT	SEGMENT
_this$ = -20						; size = 4
$T101892 = -13						; size = 1
__$EHRec$ = -12						; size = 12
??0MWorkThread@@QAE@XZ PROC NEAR			; MWorkThread::MWorkThread, COMDAT
; _this$ = ecx

; 33   : {

  00000	b8 00 00 00 00	 mov	 eax, __ehhandler$??0MWorkThread@@QAE@XZ
  00005	e8 00 00 00 00	 call	 __EH_prolog
  0000a	51		 push	 ecx
  0000b	51		 push	 ecx
  0000c	53		 push	 ebx
  0000d	56		 push	 esi
  0000e	57		 push	 edi
  0000f	8b 3d 00 00 00
	00		 mov	 edi, DWORD PTR __imp__InitializeCriticalSection@4
  00015	8b f1		 mov	 esi, ecx
  00017	56		 push	 esi
  00018	89 75 ec	 mov	 DWORD PTR _this$[ebp], esi
  0001b	ff d7		 call	 edi
  0001d	8d 46 18	 lea	 eax, DWORD PTR [esi+24]
  00020	33 db		 xor	 ebx, ebx
  00022	50		 push	 eax
  00023	89 5d fc	 mov	 DWORD PTR __$EHRec$[ebp+8], ebx
  00026	ff d7		 call	 edi
  00028	8d 45 f3	 lea	 eax, DWORD PTR $T101892[ebp]
  0002b	50		 push	 eax
  0002c	8d 4e 40	 lea	 ecx, DWORD PTR [esi+64]
  0002f	c6 45 fc 01	 mov	 BYTE PTR __$EHRec$[ebp+8], 1
  00033	e8 00 00 00 00	 call	 ??0?$_List_base@PAVMWorkNode@@V?$allocator@PAVMWorkNode@@@_STL@@@_STL@@QAE@ABV?$allocator@PAVMWorkNode@@@1@@Z ; _STL::_List_base<MWorkNode *,_STL::allocator<MWorkNode *> >::_List_base<MWorkNode *,_STL::allocator<MWorkNode *> >

; 34   : 	m_hWorkThread = 0;
; 35   : 
; 36   : 	m_hHasWorkEvent = 0;
; 37   : 	m_hEndWorkEvent = 0;
; 38   : 	m_hStopWorkEvent = 0;
; 39   : 	//m_hDequeLock = 0;
; 40   : 	//m_hCurrentLock = 0;
; 41   : 
; 42   : 	m_pCurrentWork = NULL;
; 43   : }

  00038	8b 4d f4	 mov	 ecx, DWORD PTR __$EHRec$[ebp]
  0003b	89 5e 30	 mov	 DWORD PTR [esi+48], ebx
  0003e	89 5e 34	 mov	 DWORD PTR [esi+52], ebx
  00041	89 5e 38	 mov	 DWORD PTR [esi+56], ebx
  00044	89 5e 3c	 mov	 DWORD PTR [esi+60], ebx
  00047	89 5e 44	 mov	 DWORD PTR [esi+68], ebx
  0004a	5f		 pop	 edi
  0004b	8b c6		 mov	 eax, esi
  0004d	5e		 pop	 esi
  0004e	5b		 pop	 ebx
  0004f	64 89 0d 00 00
	00 00		 mov	 DWORD PTR fs:__except_list, ecx
  00056	c9		 leave
  00057	c3		 ret	 0
_TEXT	ENDS
;	COMDAT text$x
text$x	SEGMENT
$L101893:
  00000	8b 4d ec	 mov	 ecx, DWORD PTR _this$[ebp]
  00003	e9 00 00 00 00	 jmp	 ??1ACriticalSection@@QAE@XZ ; ACriticalSection::~ACriticalSection
$L101894:
  00008	8b 4d ec	 mov	 ecx, DWORD PTR _this$[ebp]
  0000b	83 c1 18	 add	 ecx, 24			; 00000018H
  0000e	e9 00 00 00 00	 jmp	 ??1ACriticalSection@@QAE@XZ ; ACriticalSection::~ACriticalSection
__ehhandler$??0MWorkThread@@QAE@XZ:
  00013	b8 00 00 00 00	 mov	 eax, OFFSET FLAT:$T101915
  00018	e9 00 00 00 00	 jmp	 ___CxxFrameHandler
text$x	ENDS
??0MWorkThread@@QAE@XZ ENDP				; MWorkThread::MWorkThread
PUBLIC	?Release@MWorkThread@@QAEXXZ			; MWorkThread::Release
EXTRN	__imp__CloseHandle@4:NEAR
EXTRN	__imp__TerminateThread@8:NEAR
; Function compile flags: /Ogsy
;	COMDAT ?Release@MWorkThread@@QAEXXZ
_TEXT	SEGMENT
?Release@MWorkThread@@QAEXXZ PROC NEAR			; MWorkThread::Release, COMDAT
; _this$ = ecx

; 127  : {

  00000	53		 push	 ebx
  00001	56		 push	 esi
  00002	57		 push	 edi
  00003	8b f1		 mov	 esi, ecx

; 128  : 	ReleaseWork();

  00005	e8 00 00 00 00	 call	 ?ReleaseWork@MWorkThread@@QAEXXZ ; MWorkThread::ReleaseWork
  0000a	33 db		 xor	 ebx, ebx
$L100074:

; 129  : 
; 130  : 	//-------------------------------------------------------------
; 131  : 	//   event  
; 132  : 	//-------------------------------------------------------------
; 133  : 	while (IsStopWork());

  0000c	53		 push	 ebx
  0000d	ff 76 3c	 push	 DWORD PTR [esi+60]
  00010	ff 15 00 00 00
	00		 call	 DWORD PTR __imp__WaitForSingleObject@8
  00016	85 c0		 test	 eax, eax
  00018	74 f2		 je	 SHORT $L100074

; 134  : 
; 135  : 	//--------------------------------------------
; 136  : 	// event 
; 137  : 	//--------------------------------------------
; 138  : 	CloseHandle(m_hHasWorkEvent);

  0001a	ff 76 34	 push	 DWORD PTR [esi+52]
  0001d	8b 3d 00 00 00
	00		 mov	 edi, DWORD PTR __imp__CloseHandle@4
  00023	ff d7		 call	 edi

; 139  : 	CloseHandle(m_hEndWorkEvent);

  00025	ff 76 38	 push	 DWORD PTR [esi+56]
  00028	ff d7		 call	 edi

; 140  : 	CloseHandle(m_hStopWorkEvent);

  0002a	ff 76 3c	 push	 DWORD PTR [esi+60]
  0002d	ff d7		 call	 edi

; 141  : 	//CloseHandle(m_hDequeLock);
; 142  : 	//CloseHandle(m_hCurrentLock);
; 143  : // 	DeleteCriticalSection(&m_csDeque);
; 144  : // 	DeleteCriticalSection(&m_csCurrent);
; 145  : 
; 146  : 	//--------------------------------------------
; 147  : 	// thread 
; 148  : 	//--------------------------------------------
; 149  : 	TerminateThread(m_hWorkThread, 0);

  0002f	53		 push	 ebx
  00030	ff 76 30	 push	 DWORD PTR [esi+48]
  00033	ff 15 00 00 00
	00		 call	 DWORD PTR __imp__TerminateThread@8

; 150  : 	CloseHandle( m_hWorkThread );

  00039	ff 76 30	 push	 DWORD PTR [esi+48]
  0003c	ff d7		 call	 edi
  0003e	5f		 pop	 edi

; 151  : 
; 152  : 	m_hHasWorkEvent = 0;	

  0003f	89 5e 34	 mov	 DWORD PTR [esi+52], ebx

; 153  : 	m_hEndWorkEvent = 0;	

  00042	89 5e 38	 mov	 DWORD PTR [esi+56], ebx

; 154  : 	m_hStopWorkEvent = 0;	

  00045	89 5e 3c	 mov	 DWORD PTR [esi+60], ebx
  00048	5e		 pop	 esi
  00049	5b		 pop	 ebx

; 155  : 	//m_hDequeLock = 0;
; 156  : 	//m_hCurrentLock = 0;
; 157  : }

  0004a	c3		 ret	 0
?Release@MWorkThread@@QAEXXZ ENDP			; MWorkThread::Release
_TEXT	ENDS
PUBLIC	?size@?$list@PAVMWorkNode@@V?$allocator@PAVMWorkNode@@@_STL@@@_STL@@QBEIXZ ; _STL::list<MWorkNode *,_STL::allocator<MWorkNode *> >::size
; Function compile flags: /Ogsy
; File c:\stlport-4.6.1\stlport\stl\_list.h
;	COMDAT ?size@?$list@PAVMWorkNode@@V?$allocator@PAVMWorkNode@@@_STL@@@_STL@@QBEIXZ
_TEXT	SEGMENT
?size@?$list@PAVMWorkNode@@V?$allocator@PAVMWorkNode@@@_STL@@@_STL@@QBEIXZ PROC NEAR ; _STL::list<MWorkNode *,_STL::allocator<MWorkNode *> >::size, COMDAT
; _this$ = ecx

; 284  :     size_type __result = distance(begin(), end());

  00000	8b 11		 mov	 edx, DWORD PTR [ecx]
  00002	8b 0a		 mov	 ecx, DWORD PTR [edx]
  00004	33 c0		 xor	 eax, eax
  00006	eb 03		 jmp	 SHORT $L102006
$L101995:
  00008	8b 09		 mov	 ecx, DWORD PTR [ecx]
  0000a	40		 inc	 eax
$L102006:
  0000b	3b ca		 cmp	 ecx, edx
  0000d	75 f9		 jne	 SHORT $L101995

; 285  :     return __result;
; 286  :   }

  0000f	c3		 ret	 0
?size@?$list@PAVMWorkNode@@V?$allocator@PAVMWorkNode@@@_STL@@@_STL@@QBEIXZ ENDP ; _STL::list<MWorkNode *,_STL::allocator<MWorkNode *> >::size
_TEXT	ENDS
PUBLIC	?push_front@?$list@PAVMWorkNode@@V?$allocator@PAVMWorkNode@@@_STL@@@_STL@@QAEXABQAVMWorkNode@@@Z ; _STL::list<MWorkNode *,_STL::allocator<MWorkNode *> >::push_front
; Function compile flags: /Ogsy
;	COMDAT ?push_front@?$list@PAVMWorkNode@@V?$allocator@PAVMWorkNode@@@_STL@@@_STL@@QAEXABQAVMWorkNode@@@Z
_TEXT	SEGMENT
$T102011 = 8						; size = 4
___x$ = 8						; size = 4
?push_front@?$list@PAVMWorkNode@@V?$allocator@PAVMWorkNode@@@_STL@@@_STL@@QAEXABQAVMWorkNode@@@Z PROC NEAR ; _STL::list<MWorkNode *,_STL::allocator<MWorkNode *> >::push_front, COMDAT
; _this$ = ecx

; 344  :   void push_front(const _Tp& __x) { insert(begin(), __x); }

  00000	55		 push	 ebp
  00001	8b ec		 mov	 ebp, esp
  00003	ff 75 08	 push	 DWORD PTR ___x$[ebp]
  00006	8b 11		 mov	 edx, DWORD PTR [ecx]
  00008	8b 12		 mov	 edx, DWORD PTR [edx]
  0000a	51		 push	 ecx
  0000b	8b c4		 mov	 eax, esp
  0000d	89 10		 mov	 DWORD PTR [eax], edx
  0000f	8d 45 08	 lea	 eax, DWORD PTR $T102011[ebp]
  00012	50		 push	 eax
  00013	e8 00 00 00 00	 call	 ?insert@?$list@PAVMWorkNode@@V?$allocator@PAVMWorkNode@@@_STL@@@_STL@@QAE?AU?$_List_iterator@PAVMWorkNode@@U?$_Nonconst_traits@PAVMWorkNode@@@_STL@@@2@U32@ABQAVMWorkNode@@@Z ; _STL::list<MWorkNode *,_STL::allocator<MWorkNode *> >::insert
  00018	5d		 pop	 ebp
  00019	c2 04 00	 ret	 4
?push_front@?$list@PAVMWorkNode@@V?$allocator@PAVMWorkNode@@@_STL@@@_STL@@QAEXABQAVMWorkNode@@@Z ENDP ; _STL::list<MWorkNode *,_STL::allocator<MWorkNode *> >::push_front
_TEXT	ENDS
PUBLIC	?push_back@?$list@PAVMWorkNode@@V?$allocator@PAVMWorkNode@@@_STL@@@_STL@@QAEXABQAVMWorkNode@@@Z ; _STL::list<MWorkNode *,_STL::allocator<MWorkNode *> >::push_back
; Function compile flags: /Ogsy
;	COMDAT ?push_back@?$list@PAVMWorkNode@@V?$allocator@PAVMWorkNode@@@_STL@@@_STL@@QAEXABQAVMWorkNode@@@Z
_TEXT	SEGMENT
$T102032 = 8						; size = 4
___x$ = 8						; size = 4
?push_back@?$list@PAVMWorkNode@@V?$allocator@PAVMWorkNode@@@_STL@@@_STL@@QAEXABQAVMWorkNode@@@Z PROC NEAR ; _STL::list<MWorkNode *,_STL::allocator<MWorkNode *> >::push_back, COMDAT
; _this$ = ecx

; 345  :   void push_back(const _Tp& __x) { insert(end(), __x); }

  00000	55		 push	 ebp
  00001	8b ec		 mov	 ebp, esp
  00003	ff 75 08	 push	 DWORD PTR ___x$[ebp]
  00006	8b 11		 mov	 edx, DWORD PTR [ecx]
  00008	51		 push	 ecx
  00009	8b c4		 mov	 eax, esp
  0000b	89 10		 mov	 DWORD PTR [eax], edx
  0000d	8d 45 08	 lea	 eax, DWORD PTR $T102032[ebp]
  00010	50		 push	 eax
  00011	e8 00 00 00 00	 call	 ?insert@?$list@PAVMWorkNode@@V?$allocator@PAVMWorkNode@@@_STL@@@_STL@@QAE?AU?$_List_iterator@PAVMWorkNode@@U?$_Nonconst_traits@PAVMWorkNode@@@_STL@@@2@U32@ABQAVMWorkNode@@@Z ; _STL::list<MWorkNode *,_STL::allocator<MWorkNode *> >::insert
  00016	5d		 pop	 ebp
  00017	c2 04 00	 ret	 4
?push_back@?$list@PAVMWorkNode@@V?$allocator@PAVMWorkNode@@@_STL@@@_STL@@QAEXABQAVMWorkNode@@@Z ENDP ; _STL::list<MWorkNode *,_STL::allocator<MWorkNode *> >::push_back
_TEXT	ENDS
PUBLIC	??1MWorkThread@@QAE@XZ				; MWorkThread::~MWorkThread
;	COMDAT xdata$x
; File c:\darkeden\designed_common\project\client\acriticalsection.h
xdata$x	SEGMENT
$T102069 DD	0ffffffffH
	DD	FLAT:$L102052
	DD	00H
	DD	FLAT:$L102053
	DD	01H
	DD	FLAT:$L102054
$T102067 DD	019930520H
	DD	03H
	DD	FLAT:$T102069
	DD	2 DUP(00H)
	DD	2 DUP(00H)
; Function compile flags: /Ogsy
; File c:\darkeden\designed_common\project\client\mworkthread.cpp
xdata$x	ENDS
;	COMDAT ??1MWorkThread@@QAE@XZ
_TEXT	SEGMENT
_this$ = -16						; size = 4
__$EHRec$ = -12						; size = 12
??1MWorkThread@@QAE@XZ PROC NEAR			; MWorkThread::~MWorkThread, COMDAT
; _this$ = ecx

; 61   : {

  00000	b8 00 00 00 00	 mov	 eax, __ehhandler$??1MWorkThread@@QAE@XZ
  00005	e8 00 00 00 00	 call	 __EH_prolog
  0000a	51		 push	 ecx
  0000b	56		 push	 esi
  0000c	8b f1		 mov	 esi, ecx
  0000e	57		 push	 edi
  0000f	89 75 f0	 mov	 DWORD PTR _this$[ebp], esi
  00012	c7 45 fc 02 00
	00 00		 mov	 DWORD PTR __$EHRec$[ebp+8], 2

; 62   : 	Release();

  00019	e8 00 00 00 00	 call	 ?Release@MWorkThread@@QAEXXZ ; MWorkThread::Release

; 63   : }

  0001e	8d 4e 40	 lea	 ecx, DWORD PTR [esi+64]
  00021	c6 45 fc 01	 mov	 BYTE PTR __$EHRec$[ebp+8], 1
  00025	e8 00 00 00 00	 call	 ??1?$_List_base@PAVMWorkNode@@V?$allocator@PAVMWorkNode@@@_STL@@@_STL@@QAE@XZ ; _STL::_List_base<MWorkNode *,_STL::allocator<MWorkNode *> >::~_List_base<MWorkNode *,_STL::allocator<MWorkNode *> >
  0002a	8b 3d 00 00 00
	00		 mov	 edi, DWORD PTR __imp__DeleteCriticalSection@4
  00030	8d 46 18	 lea	 eax, DWORD PTR [esi+24]
  00033	50		 push	 eax
  00034	ff d7		 call	 edi
  00036	56		 push	 esi
  00037	ff d7		 call	 edi
  00039	8b 4d f4	 mov	 ecx, DWORD PTR __$EHRec$[ebp]
  0003c	5f		 pop	 edi
  0003d	5e		 pop	 esi
  0003e	64 89 0d 00 00
	00 00		 mov	 DWORD PTR fs:__except_list, ecx
  00045	c9		 leave
  00046	c3		 ret	 0
_TEXT	ENDS
;	COMDAT text$x
text$x	SEGMENT
$L102052:
  00000	8b 4d f0	 mov	 ecx, DWORD PTR _this$[ebp]
  00003	e9 00 00 00 00	 jmp	 ??1ACriticalSection@@QAE@XZ ; ACriticalSection::~ACriticalSection
$L102053:
  00008	8b 4d f0	 mov	 ecx, DWORD PTR _this$[ebp]
  0000b	83 c1 18	 add	 ecx, 24			; 00000018H
  0000e	e9 00 00 00 00	 jmp	 ??1ACriticalSection@@QAE@XZ ; ACriticalSection::~ACriticalSection
$L102054:
  00013	8b 4d f0	 mov	 ecx, DWORD PTR _this$[ebp]
  00016	83 c1 40	 add	 ecx, 64			; 00000040H
  00019	e9 00 00 00 00	 jmp	 ??1?$list@PAVMWorkNode@@V?$allocator@PAVMWorkNode@@@_STL@@@_STL@@QAE@XZ ; _STL::list<MWorkNode *,_STL::allocator<MWorkNode *> >::~list<MWorkNode *,_STL::allocator<MWorkNode *> >
__ehhandler$??1MWorkThread@@QAE@XZ:
  0001e	b8 00 00 00 00	 mov	 eax, OFFSET FLAT:$T102067
  00023	e9 00 00 00 00	 jmp	 ___CxxFrameHandler
text$x	ENDS
??1MWorkThread@@QAE@XZ ENDP				; MWorkThread::~MWorkThread
PUBLIC	?Execute@MWorkThread@@QAEXXZ			; MWorkThread::Execute
;	COMDAT xdata$x
; File c:\darkeden\designed_common\project\client\acriticalsection.h
xdata$x	SEGMENT
$T102480 DD	0ffffffffH
	DD	FLAT:$L102083
	DD	0ffffffffH
	DD	FLAT:$L102085
$T102468 DD	019930520H
	DD	02H
	DD	FLAT:$T102480
	DD	2 DUP(00H)
	DD	2 DUP(00H)
; Function compile flags: /Ogsy
; File c:\darkeden\designed_common\project\client\mworkthread.cpp
xdata$x	ENDS
;	COMDAT ?Execute@MWorkThread@@QAEXXZ
_TEXT	SEGMENT
_pToRemove$ = -28					; size = 4
___n$102439 = -24					; size = 4
___n$102195 = -24					; size = 4
__syncVar$100163 = -24					; size = 4
_pRemainNode$100159 = -20				; size = 4
__syncVar$100153 = -16					; size = 4
__$EHRec$ = -12						; size = 12
?Execute@MWorkThread@@QAEXXZ PROC NEAR			; MWorkThread::Execute, COMDAT
; _this$ = ecx

; 225  : {

  00000	b8 00 00 00 00	 mov	 eax, __ehhandler$?Execute@MWorkThread@@QAEXXZ
  00005	e8 00 00 00 00	 call	 __EH_prolog
  0000a	83 ec 10	 sub	 esp, 16			; 00000010H
  0000d	53		 push	 ebx

; 226  : #ifdef OUTPUT_DEBUG
; 227  : 	char szOutPutDebugBuf[128];
; 228  : 	sprintf(szOutPutDebugBuf, "<<<Thread Execute Start>>>\n");
; 229  : 	OutputDebugString(szOutPutDebugBuf);
; 230  : #endif
; 231  : 
; 232  : 
; 233  : 	MWorkNode* pToRemove = NULL;

  0000e	8b 1d 00 00 00
	00		 mov	 ebx, DWORD PTR __imp__LeaveCriticalSection@4
  00014	55		 push	 ebp
  00015	56		 push	 esi
  00016	8b f1		 mov	 esi, ecx
  00018	57		 push	 edi
  00019	8b 3d 00 00 00
	00		 mov	 edi, DWORD PTR __imp__EnterCriticalSection@4
  0001f	8d 6e 40	 lea	 ebp, DWORD PTR [esi+64]
$L102479:
  00022	83 64 24 10 00	 and	 DWORD PTR _pToRemove$[esp+44], 0
$L100144:

; 234  : 
; 235  : 	while (1)
; 236  : 	{
; 237  : 		//------------------------------------------------------
; 238  : 		//     .
; 239  : 		//------------------------------------------------------
; 240  : 		WaitForSingleObject(m_hHasWorkEvent, INFINITE);

  00027	6a ff		 push	 -1
  00029	ff 76 34	 push	 DWORD PTR [esi+52]
  0002c	ff 15 00 00 00
	00		 call	 DWORD PTR __imp__WaitForSingleObject@8

; 241  : 
; 242  : 		//------------------------------------------------------
; 243  : 		// deque   .
; 244  : 		//------------------------------------------------------
; 245  : 		//WaitUnlockDeque();
; 246  : 
; 247  : 		int queueSize = 0;
; 248  : 
; 249  : 		synchronized(m_csList)

  00032	56		 push	 esi
  00033	ff d7		 call	 edi

; 250  : 		{
; 251  : 			queueSize = m_WorkNodeList.size();

  00035	8b 45 00	 mov	 eax, DWORD PTR [ebp]
  00038	8b 08		 mov	 ecx, DWORD PTR [eax]
  0003a	83 64 24 14 00	 and	 DWORD PTR ___n$102195[esp+44], 0
  0003f	eb 06		 jmp	 SHORT $L102477
$L102197:
  00041	8b 09		 mov	 ecx, DWORD PTR [ecx]
  00043	ff 44 24 14	 inc	 DWORD PTR ___n$102195[esp+44]
$L102477:
  00047	3b c8		 cmp	 ecx, eax
  00049	75 f6		 jne	 SHORT $L102197

; 252  : 		}

  0004b	56		 push	 esi
  0004c	ff d3		 call	 ebx

; 253  : 
; 254  : #ifdef OUTPUT_DEBUG
; 255  : 		sprintf(szOutPutDebugBuf, "Thread Start Working: queueSize = %d\n", queueSize);
; 256  : 		OutputDebugString(szOutPutDebugBuf);
; 257  : #endif
; 258  : 
; 259  : 		while (queueSize!=0)

  0004e	83 7c 24 14 00	 cmp	 DWORD PTR ___n$102195[esp+44], 0
  00053	0f 84 e3 00 00
	00		 je	 $L102473

; 265  : 
; 266  : 			//------------------------------------------------------
; 267  : 			//   WorkNode 
; 268  : 			//------------------------------------------------------
; 269  : 			//WaitUnlockDeque();
; 270  : 			synchronized(m_csList)

  00059	89 74 24 1c	 mov	 DWORD PTR __syncVar$100153[esp+44], esi
$L100151:

; 260  : 		{
; 261  : 			//------------------------------------------------------
; 262  : 			//   
; 263  : 			//------------------------------------------------------
; 264  : 			ResetEvent( m_hEndWorkEvent );

  0005d	ff 76 38	 push	 DWORD PTR [esi+56]
  00060	ff 15 00 00 00
	00		 call	 DWORD PTR __imp__ResetEvent@4

; 265  : 
; 266  : 			//------------------------------------------------------
; 267  : 			//   WorkNode 
; 268  : 			//------------------------------------------------------
; 269  : 			//WaitUnlockDeque();
; 270  : 			synchronized(m_csList)

  00066	56		 push	 esi
  00067	ff d7		 call	 edi
  00069	83 64 24 28 00	 and	 DWORD PTR __$EHRec$[esp+52], 0

; 271  : 			{
; 272  : 
; 273  : 				//WaitUnlockCurrent();
; 274  : 				synchronized(m_csCurrent)

  0006e	8d 46 18	 lea	 eax, DWORD PTR [esi+24]
  00071	50		 push	 eax
  00072	ff d7		 call	 edi

; 275  : 				{
; 276  : 					m_pCurrentWork = m_WorkNodeList.front();

  00074	8b 45 00	 mov	 eax, DWORD PTR [ebp]
  00077	8b 00		 mov	 eax, DWORD PTR [eax]
  00079	8b 40 08	 mov	 eax, DWORD PTR [eax+8]
  0007c	89 46 44	 mov	 DWORD PTR [esi+68], eax

; 277  : 				}

  0007f	8d 46 18	 lea	 eax, DWORD PTR [esi+24]
  00082	50		 push	 eax
  00083	ff d3		 call	 ebx

; 278  : 
; 279  : 				//  WorkNode .
; 280  : 				m_WorkNodeList.pop_front();

  00085	8b cd		 mov	 ecx, ebp
  00087	e8 00 00 00 00	 call	 ?pop_front@?$list@PAVMWorkNode@@V?$allocator@PAVMWorkNode@@@_STL@@@_STL@@QAEXXZ ; _STL::list<MWorkNode *,_STL::allocator<MWorkNode *> >::pop_front

; 281  : 
; 282  : 			}

  0008c	83 4c 24 28 ff	 or	 DWORD PTR __$EHRec$[esp+52], -1
  00091	56		 push	 esi
  00092	ff d3		 call	 ebx

; 283  : 
; 284  : 			//------------------------------------------------------
; 285  : 			// 
; 286  : 			//------------------------------------------------------
; 287  : 			// execute    . (Stop() )
; 288  : 			MWorkNode* pRemainNode = NULL;
; 289  : 			
; 290  : 			if (m_pCurrentWork->Execute(pRemainNode))

  00094	8b 4e 44	 mov	 ecx, DWORD PTR [esi+68]
  00097	83 64 24 18 00	 and	 DWORD PTR _pRemainNode$100159[esp+44], 0
  0009c	8b 01		 mov	 eax, DWORD PTR [ecx]
  0009e	8d 54 24 18	 lea	 edx, DWORD PTR _pRemainNode$100159[esp+44]
  000a2	52		 push	 edx
  000a3	ff 50 04	 call	 DWORD PTR [eax+4]
  000a6	85 c0		 test	 eax, eax
  000a8	75 29		 jne	 SHORT $L102311

; 291  : 			{
; 292  : 				//------------------------------------------------
; 293  : 				//     
; 294  : 				//------------------------------------------------				
; 295  : 			}
; 296  : 			else
; 297  : 			{
; 298  : 				//------------------------------------------------
; 299  : 				//    
; 300  : 				//------------------------------------------------
; 301  : 				//  
; 302  : 
; 303  : 
; 304  : 				//------------------------------------------------
; 305  : 				// Stop   . -    
; 306  : 				//------------------------------------------------
; 307  : 				if (pRemainNode!=NULL)

  000aa	39 44 24 18	 cmp	 DWORD PTR _pRemainNode$100159[esp+44], eax
  000ae	74 23		 je	 SHORT $L102311

; 308  : 				{
; 309  : 					//------------------------------------------------
; 310  : 					//  				
; 311  : 					//    node .
; 312  : 					//------------------------------------------------
; 313  : 					//WaitUnlockDeque();
; 314  : 					synchronized(m_csList)

  000b0	56		 push	 esi
  000b1	89 74 24 18	 mov	 DWORD PTR __syncVar$100163[esp+48], esi
  000b5	ff d7		 call	 edi

; 315  : 					{
; 316  : 						m_WorkNodeList.push_front(pRemainNode);

  000b7	8d 44 24 18	 lea	 eax, DWORD PTR _pRemainNode$100159[esp+44]
  000bb	50		 push	 eax
  000bc	8b cd		 mov	 ecx, ebp
  000be	c7 44 24 2c 01
	00 00 00	 mov	 DWORD PTR __$EHRec$[esp+56], 1
  000c6	e8 00 00 00 00	 call	 ?push_front@?$list@PAVMWorkNode@@V?$allocator@PAVMWorkNode@@@_STL@@@_STL@@QAEXABQAVMWorkNode@@@Z ; _STL::list<MWorkNode *,_STL::allocator<MWorkNode *> >::push_front

; 317  : 					}

  000cb	83 4c 24 28 ff	 or	 DWORD PTR __$EHRec$[esp+52], -1
  000d0	56		 push	 esi
  000d1	ff d3		 call	 ebx
$L102311:

; 318  : 				}
; 319  : 			}
; 320  : 
; 321  : 			//------------------------------------------------------
; 322  : 			//     
; 323  : 			//------------------------------------------------------
; 324  : 			SetEvent( m_hEndWorkEvent );

  000d3	ff 76 38	 push	 DWORD PTR [esi+56]
  000d6	ff 15 00 00 00
	00		 call	 DWORD PTR __imp__SetEvent@4

; 325  : 
; 326  : 			//------------------------------------------------------
; 327  : 			//   .
; 328  : 			//------------------------------------------------------
; 329  : 			pToRemove = m_pCurrentWork;

  000dc	8b 46 44	 mov	 eax, DWORD PTR [esi+68]
  000df	89 44 24 10	 mov	 DWORD PTR _pToRemove$[esp+44], eax

; 330  : 		
; 331  : 			//WaitUnlockCurrent();
; 332  : 			synchronized(m_csCurrent)

  000e3	8d 46 18	 lea	 eax, DWORD PTR [esi+24]
  000e6	50		 push	 eax
  000e7	ff d7		 call	 edi

; 333  : 			{
; 334  : 				m_pCurrentWork = NULL;

  000e9	83 66 44 00	 and	 DWORD PTR [esi+68], 0

; 335  : 			}

  000ed	8d 46 18	 lea	 eax, DWORD PTR [esi+24]
  000f0	50		 push	 eax
  000f1	ff d3		 call	 ebx

; 336  : 			
; 337  : 			//-------------------------------------------------------------
; 338  : 			//   event 
; 339  : 			//-------------------------------------------------------------
; 340  : 			if (IsStopWork())

  000f3	6a 00		 push	 0
  000f5	ff 76 3c	 push	 DWORD PTR [esi+60]
  000f8	ff 15 00 00 00
	00		 call	 DWORD PTR __imp__WaitForSingleObject@8
  000fe	85 c0		 test	 eax, eax
  00100	74 3a		 je	 SHORT $L102473

; 341  : 			{
; 342  : 				break;
; 343  : 			}
; 344  : 
; 345  : 			delete pToRemove;

  00102	8b 4c 24 10	 mov	 ecx, DWORD PTR _pToRemove$[esp+44]
  00106	85 c9		 test	 ecx, ecx
  00108	74 06		 je	 SHORT $L102076
  0010a	8b 01		 mov	 eax, DWORD PTR [ecx]
  0010c	6a 01		 push	 1
  0010e	ff 10		 call	 DWORD PTR [eax]
$L102076:

; 346  : 			pToRemove = NULL;

  00110	83 64 24 10 00	 and	 DWORD PTR _pToRemove$[esp+44], 0

; 347  : 
; 348  : 			//-------------------------------------------------------------
; 349  : 			//  
; 350  : 			//-------------------------------------------------------------
; 351  : 			//WaitUnlockDeque();
; 352  : 			synchronized(m_csList)

  00115	56		 push	 esi
  00116	ff d7		 call	 edi

; 353  : 			{
; 354  : 				queueSize = m_WorkNodeList.size();

  00118	8b 45 00	 mov	 eax, DWORD PTR [ebp]
  0011b	83 64 24 14 00	 and	 DWORD PTR ___n$102439[esp+44], 0
  00120	8b 08		 mov	 ecx, DWORD PTR [eax]
  00122	eb 06		 jmp	 SHORT $L102478
$L102426:
  00124	8b 09		 mov	 ecx, DWORD PTR [ecx]
  00126	ff 44 24 14	 inc	 DWORD PTR ___n$102439[esp+44]
$L102478:
  0012a	3b c8		 cmp	 ecx, eax
  0012c	75 f6		 jne	 SHORT $L102426

; 355  : 			}

  0012e	56		 push	 esi
  0012f	ff d3		 call	 ebx
  00131	83 7c 24 14 00	 cmp	 DWORD PTR ___n$102439[esp+44], 0
  00136	0f 85 21 ff ff
	ff		 jne	 $L100151
$L102473:

; 356  : 		}
; 357  : 		
; 358  : 		//------------------------------------------------------
; 359  : 		//   ..
; 360  : 		//------------------------------------------------------
; 361  : 		ResetEvent( m_hHasWorkEvent );

  0013c	ff 76 34	 push	 DWORD PTR [esi+52]
  0013f	ff 15 00 00 00
	00		 call	 DWORD PTR __imp__ResetEvent@4

; 362  : 
; 363  : 		if (pToRemove!=NULL)

  00145	83 7c 24 10 00	 cmp	 DWORD PTR _pToRemove$[esp+44], 0
  0014a	0f 84 d7 fe ff
	ff		 je	 $L100144

; 364  : 		{
; 365  : 			delete pToRemove;

  00150	8b 4c 24 10	 mov	 ecx, DWORD PTR _pToRemove$[esp+44]
  00154	8b 01		 mov	 eax, DWORD PTR [ecx]
  00156	6a 01		 push	 1
  00158	ff 10		 call	 DWORD PTR [eax]

; 366  : 			pToRemove = NULL;
; 367  : 		}
; 368  : 
; 369  : #ifdef OUTPUT_DEBUG
; 370  : 		sprintf(szOutPutDebugBuf, "Thread End Working: queueSize = %d\n", queueSize);
; 371  : 		OutputDebugString(szOutPutDebugBuf);
; 372  : #endif
; 373  : 	}

  0015a	e9 c3 fe ff ff	 jmp	 $L102479
_TEXT	ENDS
;	COMDAT text$x
text$x	SEGMENT
$L102083:
  00000	8d 4d f0	 lea	 ecx, DWORD PTR __syncVar$100153[ebp]
  00003	e9 00 00 00 00	 jmp	 ??1AutoLock@ACriticalSection@@QAE@XZ ; ACriticalSection::AutoLock::~AutoLock
$L102085:
  00008	8d 4d e8	 lea	 ecx, DWORD PTR __syncVar$100163[ebp]
  0000b	e9 00 00 00 00	 jmp	 ??1AutoLock@ACriticalSection@@QAE@XZ ; ACriticalSection::AutoLock::~AutoLock
__ehhandler$?Execute@MWorkThread@@QAEXXZ:
  00010	b8 00 00 00 00	 mov	 eax, OFFSET FLAT:$T102468
  00015	e9 00 00 00 00	 jmp	 ___CxxFrameHandler
text$x	ENDS
?Execute@MWorkThread@@QAEXXZ ENDP			; MWorkThread::Execute
PUBLIC	?AddFirst@MWorkThread@@QAEXPAVMWorkNode@@@Z	; MWorkThread::AddFirst
;	COMDAT xdata$x
; File c:\darkeden\designed_common\project\client\acriticalsection.h
xdata$x	SEGMENT
$T102547 DD	0ffffffffH
	DD	FLAT:$L102487
$T102541 DD	019930520H
	DD	01H
	DD	FLAT:$T102547
	DD	2 DUP(00H)
	DD	2 DUP(00H)
; Function compile flags: /Ogsy
; File c:\darkeden\designed_common\project\client\mworkthread.cpp
xdata$x	ENDS
;	COMDAT ?AddFirst@MWorkThread@@QAEXPAVMWorkNode@@@Z
_TEXT	SEGMENT
__syncVar$100220 = -16					; size = 4
__$EHRec$ = -12						; size = 12
_pNode$ = 8						; size = 4
?AddFirst@MWorkThread@@QAEXPAVMWorkNode@@@Z PROC NEAR	; MWorkThread::AddFirst, COMDAT
; _this$ = ecx

; 470  : {

  00000	b8 00 00 00 00	 mov	 eax, __ehhandler$?AddFirst@MWorkThread@@QAEXPAVMWorkNode@@@Z
  00005	e8 00 00 00 00	 call	 __EH_prolog
  0000a	51		 push	 ecx

; 471  : 	if (pNode==NULL)

  0000b	83 7c 24 18 00	 cmp	 DWORD PTR _pNode$[esp+16], 0
  00010	56		 push	 esi
  00011	8b f1		 mov	 esi, ecx
  00013	74 72		 je	 SHORT $L100210
  00015	55		 push	 ebp

; 472  : 	{
; 473  : 		return;
; 474  : 	}
; 475  : 
; 476  : 	//-------------------------------------------------------------
; 477  : 	//   event
; 478  : 	//-------------------------------------------------------------
; 479  : 	SetEvent( m_hStopWorkEvent );

  00016	8b 2d 00 00 00
	00		 mov	 ebp, DWORD PTR __imp__SetEvent@4
  0001c	57		 push	 edi
  0001d	ff 76 3c	 push	 DWORD PTR [esi+60]
  00020	ff d5		 call	 ebp

; 480  : 
; 481  : 	//------------------------------------------------------------
; 482  : 	//    ..
; 483  : 	//------------------------------------------------------------
; 484  : 	if (!IsFinishCurrentWork())

  00022	6a 00		 push	 0
  00024	ff 76 38	 push	 DWORD PTR [esi+56]
  00027	ff 15 00 00 00
	00		 call	 DWORD PTR __imp__WaitForSingleObject@8
  0002d	85 c0		 test	 eax, eax
  0002f	8b 3d 00 00 00
	00		 mov	 edi, DWORD PTR __imp__EnterCriticalSection@4
  00035	74 1a		 je	 SHORT $L100218
  00037	53		 push	 ebx

; 485  : 	{
; 486  : 		//WaitUnlockCurrent();
; 487  : 		synchronized(m_csCurrent)

  00038	8d 5e 18	 lea	 ebx, DWORD PTR [esi+24]
  0003b	53		 push	 ebx
  0003c	ff d7		 call	 edi

; 488  : 		{
; 489  : 			if (m_pCurrentWork!=NULL)		//    

  0003e	8b 46 44	 mov	 eax, DWORD PTR [esi+68]
  00041	85 c0		 test	 eax, eax
  00043	74 04		 je	 SHORT $L102504

; 490  : 			{
; 491  : 				// 			
; 492  : 				m_pCurrentWork->Stop();

  00045	83 60 08 00	 and	 DWORD PTR [eax+8], 0
$L102504:

; 493  : 			}
; 494  : 		}

  00049	53		 push	 ebx
  0004a	ff 15 00 00 00
	00		 call	 DWORD PTR __imp__LeaveCriticalSection@4
  00050	5b		 pop	 ebx
$L100218:

; 495  : 	}
; 496  : 
; 497  : 	//------------------------------------------------------------
; 498  : 	//   .
; 499  : 	//------------------------------------------------------------
; 500  : 	while (IsWorking());

  00051	6a 00		 push	 0
  00053	ff 76 34	 push	 DWORD PTR [esi+52]
  00056	ff 15 00 00 00
	00		 call	 DWORD PTR __imp__WaitForSingleObject@8
  0005c	85 c0		 test	 eax, eax
  0005e	74 f1		 je	 SHORT $L100218

; 501  : 
; 502  : 	//------------------------------------------------------------
; 503  : 	// deque  .
; 504  : 	//------------------------------------------------------------
; 505  : 	//WaitUnlockDeque();
; 506  : 
; 507  : 	synchronized(m_csList)

  00060	56		 push	 esi
  00061	89 74 24 10	 mov	 DWORD PTR __syncVar$100220[esp+32], esi
  00065	ff d7		 call	 edi
  00067	83 64 24 18 00	 and	 DWORD PTR __$EHRec$[esp+36], 0

; 508  : 	{
; 509  : 		m_WorkNodeList.push_front(pNode);

  0006c	8d 44 24 24	 lea	 eax, DWORD PTR _pNode$[esp+28]
  00070	50		 push	 eax
  00071	8d 4e 40	 lea	 ecx, DWORD PTR [esi+64]
  00074	e8 00 00 00 00	 call	 ?push_front@?$list@PAVMWorkNode@@V?$allocator@PAVMWorkNode@@@_STL@@@_STL@@QAEXABQAVMWorkNode@@@Z ; _STL::list<MWorkNode *,_STL::allocator<MWorkNode *> >::push_front

; 510  : 	}

  00079	56		 push	 esi
  0007a	ff 15 00 00 00
	00		 call	 DWORD PTR __imp__LeaveCriticalSection@4

; 511  : 
; 512  : 	//------------------------------------------------------------
; 513  : 	//   thread .
; 514  : 	//------------------------------------------------------------
; 515  : 	SetEvent(m_hHasWorkEvent);

  00080	ff 76 34	 push	 DWORD PTR [esi+52]
  00083	ff d5		 call	 ebp
  00085	5f		 pop	 edi
  00086	5d		 pop	 ebp
$L100210:

; 516  : }

  00087	8b 4c 24 08	 mov	 ecx, DWORD PTR __$EHRec$[esp+20]
  0008b	5e		 pop	 esi
  0008c	64 89 0d 00 00
	00 00		 mov	 DWORD PTR fs:__except_list, ecx
  00093	c9		 leave
  00094	c2 04 00	 ret	 4
_TEXT	ENDS
;	COMDAT text$x
text$x	SEGMENT
$L102487:
  00000	8d 4d f0	 lea	 ecx, DWORD PTR __syncVar$100220[ebp]
  00003	e9 00 00 00 00	 jmp	 ??1AutoLock@ACriticalSection@@QAE@XZ ; ACriticalSection::AutoLock::~AutoLock
__ehhandler$?AddFirst@MWorkThread@@QAEXPAVMWorkNode@@@Z:
  00008	b8 00 00 00 00	 mov	 eax, OFFSET FLAT:$T102541
  0000d	e9 00 00 00 00	 jmp	 ___CxxFrameHandler
text$x	ENDS
?AddFirst@MWorkThread@@QAEXPAVMWorkNode@@@Z ENDP	; MWorkThread::AddFirst
PUBLIC	?AddLast@MWorkThread@@QAEXPAVMWorkNode@@@Z	; MWorkThread::AddLast
;	COMDAT xdata$x
; File c:\darkeden\designed_common\project\client\acriticalsection.h
xdata$x	SEGMENT
$T102578 DD	0ffffffffH
	DD	FLAT:$L102553
$T102576 DD	019930520H
	DD	01H
	DD	FLAT:$T102578
	DD	2 DUP(00H)
	DD	2 DUP(00H)
; Function compile flags: /Ogsy
; File c:\darkeden\designed_common\project\client\mworkthread.cpp
xdata$x	ENDS
;	COMDAT ?AddLast@MWorkThread@@QAEXPAVMWorkNode@@@Z
_TEXT	SEGMENT
__syncVar$100228 = -16					; size = 4
__$EHRec$ = -12						; size = 12
_pNode$ = 8						; size = 4
?AddLast@MWorkThread@@QAEXPAVMWorkNode@@@Z PROC NEAR	; MWorkThread::AddLast, COMDAT
; _this$ = ecx

; 526  : {

  00000	b8 00 00 00 00	 mov	 eax, __ehhandler$?AddLast@MWorkThread@@QAEXPAVMWorkNode@@@Z
  00005	e8 00 00 00 00	 call	 __EH_prolog
  0000a	51		 push	 ecx

; 527  : 	if (pNode==NULL)

  0000b	83 7d 08 00	 cmp	 DWORD PTR _pNode$[ebp], 0
  0000f	56		 push	 esi
  00010	8b f1		 mov	 esi, ecx
  00012	74 2a		 je	 SHORT $L100226

; 528  : 	{
; 529  : 		return;
; 530  : 	}
; 531  : 
; 532  : 	//------------------------------------------------------------
; 533  : 	//  .. size 0  .
; 534  : 	//------------------------------------------------------------
; 535  : 	//WaitUnlockDeque();
; 536  : 
; 537  : 	synchronized(m_csList)

  00014	56		 push	 esi
  00015	89 75 f0	 mov	 DWORD PTR __syncVar$100228[ebp], esi
  00018	ff 15 00 00 00
	00		 call	 DWORD PTR __imp__EnterCriticalSection@4
  0001e	83 65 fc 00	 and	 DWORD PTR __$EHRec$[ebp+8], 0

; 538  : 	{
; 539  : // 		if (IsFinishCurrentWork() && m_dequeWorkNode.size()==0)
; 540  : // 		{
; 541  : // 			while (IsWorking());
; 542  : // 		}
; 543  : 
; 544  : 		//------------------------------------------------------------
; 545  : 		// deque  .
; 546  : 		//------------------------------------------------------------
; 547  : 		m_WorkNodeList.push_back(pNode);

  00022	8d 45 08	 lea	 eax, DWORD PTR _pNode$[ebp]
  00025	50		 push	 eax
  00026	8d 4e 40	 lea	 ecx, DWORD PTR [esi+64]
  00029	e8 00 00 00 00	 call	 ?push_back@?$list@PAVMWorkNode@@V?$allocator@PAVMWorkNode@@@_STL@@@_STL@@QAEXABQAVMWorkNode@@@Z ; _STL::list<MWorkNode *,_STL::allocator<MWorkNode *> >::push_back

; 548  : 	}

  0002e	56		 push	 esi
  0002f	ff 15 00 00 00
	00		 call	 DWORD PTR __imp__LeaveCriticalSection@4

; 549  : 	
; 550  : // #ifdef OUTPUT_DEBUG
; 551  : // 	char szOutPutDebugBuf[128];
; 552  : // 	sprintf(szOutPutDebugBuf, "Thread AddLast = %x\n", pNode);
; 553  : // 	OutputDebugString(szOutPutDebugBuf);
; 554  : // #endif
; 555  : 	
; 556  : 	//------------------------------------------------------------
; 557  : 	//   thread .
; 558  : 	//------------------------------------------------------------
; 559  : 	SetEvent(m_hHasWorkEvent);

  00035	ff 76 34	 push	 DWORD PTR [esi+52]
  00038	ff 15 00 00 00
	00		 call	 DWORD PTR __imp__SetEvent@4
$L100226:

; 560  : }

  0003e	8b 4d f4	 mov	 ecx, DWORD PTR __$EHRec$[ebp]
  00041	5e		 pop	 esi
  00042	64 89 0d 00 00
	00 00		 mov	 DWORD PTR fs:__except_list, ecx
  00049	c9		 leave
  0004a	c2 04 00	 ret	 4
_TEXT	ENDS
;	COMDAT text$x
text$x	SEGMENT
$L102553:
  00000	8d 4d f0	 lea	 ecx, DWORD PTR __syncVar$100228[ebp]
  00003	e9 00 00 00 00	 jmp	 ??1AutoLock@ACriticalSection@@QAE@XZ ; ACriticalSection::AutoLock::~AutoLock
__ehhandler$?AddLast@MWorkThread@@QAEXPAVMWorkNode@@@Z:
  00008	b8 00 00 00 00	 mov	 eax, OFFSET FLAT:$T102576
  0000d	e9 00 00 00 00	 jmp	 ___CxxFrameHandler
text$x	ENDS
?AddLast@MWorkThread@@QAEXPAVMWorkNode@@@Z ENDP		; MWorkThread::AddLast
PUBLIC	?WorkThreadProc@@YGIPAX@Z			; WorkThreadProc
; Function compile flags: /Ogsy
;	COMDAT ?WorkThreadProc@@YGIPAX@Z
_TEXT	SEGMENT
_arg$ = 8						; size = 4
?WorkThreadProc@@YGIPAX@Z PROC NEAR			; WorkThreadProc, COMDAT

; 16   : 	MWorkThread *pWorkThread = static_cast<MWorkThread*>(arg);
; 17   : 
; 18   : 	if (pWorkThread != NULL)

  00000	8b 4c 24 04	 mov	 ecx, DWORD PTR _arg$[esp-4]
  00004	85 c9		 test	 ecx, ecx
  00006	74 05		 je	 SHORT $L100048

; 19   : 	{
; 20   : 		pWorkThread->Execute();

  00008	e8 00 00 00 00	 call	 ?Execute@MWorkThread@@QAEXXZ ; MWorkThread::Execute
$L102584:
$L100048:

; 21   : 	}
; 22   : 	
; 23   : 	return 0L;

  0000d	33 c0		 xor	 eax, eax

; 24   : }

  0000f	c2 04 00	 ret	 4
$L102583:
?WorkThreadProc@@YGIPAX@Z ENDP				; WorkThreadProc
_TEXT	ENDS
PUBLIC	?Init@MWorkThread@@QAEXH@Z			; MWorkThread::Init
EXTRN	__beginthreadex:NEAR
EXTRN	__imp__CreateEventA@16:NEAR
EXTRN	__imp__SetThreadPriority@8:NEAR
; Function compile flags: /Ogsy
;	COMDAT ?Init@MWorkThread@@QAEXH@Z
_TEXT	SEGMENT
_dwChildThreadID$ = -4					; size = 4
_priority$ = 8						; size = 4
?Init@MWorkThread@@QAEXH@Z PROC NEAR			; MWorkThread::Init, COMDAT
; _this$ = ecx

; 75   : {

  00000	55		 push	 ebp
  00001	8b ec		 mov	 ebp, esp
  00003	51		 push	 ecx
  00004	53		 push	 ebx
  00005	56		 push	 esi
  00006	8b f1		 mov	 esi, ecx

; 76   : 	if (m_hWorkThread!=0)

  00008	33 db		 xor	 ebx, ebx
  0000a	39 5e 30	 cmp	 DWORD PTR [esi+48], ebx
  0000d	57		 push	 edi
  0000e	74 05		 je	 SHORT $L100066

; 77   : 	{
; 78   : 		Release();

  00010	e8 00 00 00 00	 call	 ?Release@MWorkThread@@QAEXXZ ; MWorkThread::Release
$L100066:

; 79   : 	}
; 80   : 
; 81   : 	DWORD	dwChildThreadID;
; 82   : 
; 83   : 	//-----------------------------------------------------------
; 84   : 	// Create Event
; 85   : 	//-----------------------------------------------------------
; 86   : 	m_hHasWorkEvent = CreateEvent(NULL, TRUE, FALSE, NULL);	// non-signaled

  00015	8b 3d 00 00 00
	00		 mov	 edi, DWORD PTR __imp__CreateEventA@16
  0001b	53		 push	 ebx
  0001c	53		 push	 ebx
  0001d	6a 01		 push	 1
  0001f	53		 push	 ebx
  00020	ff d7		 call	 edi

; 87   : 	m_hEndWorkEvent = CreateEvent(NULL, TRUE, TRUE, NULL);	// signaled

  00022	53		 push	 ebx
  00023	6a 01		 push	 1
  00025	6a 01		 push	 1
  00027	53		 push	 ebx
  00028	89 46 34	 mov	 DWORD PTR [esi+52], eax
  0002b	ff d7		 call	 edi

; 88   : 	m_hStopWorkEvent = CreateEvent(NULL, TRUE, FALSE, NULL);	// non-signaled

  0002d	53		 push	 ebx
  0002e	53		 push	 ebx
  0002f	6a 01		 push	 1
  00031	53		 push	 ebx
  00032	89 46 38	 mov	 DWORD PTR [esi+56], eax
  00035	ff d7		 call	 edi
  00037	89 46 3c	 mov	 DWORD PTR [esi+60], eax

; 89   : 	//m_hDequeLock = CreateEvent(NULL, TRUE, FALSE, NULL);	// non-signaled
; 90   : 	//m_hCurrentLock = CreateEvent(NULL, TRUE, FALSE, NULL);	// non-signaled
; 91   : 
; 92   : 
; 93   : 	//-----------------------------------------------------------
; 94   : 	// Create Thread
; 95   : 	//-----------------------------------------------------------
; 96   : // 	m_hWorkThread = CreateThread(NULL, 
; 97   : // 								0,	// default stack size
; 98   : // 								(LPTHREAD_START_ROUTINE)WorkThreadProc,
; 99   : // 								NULL,
; 100  : // 								NULL,
; 101  : // 								&dwChildThreadID);
; 102  : 
; 103  : 	m_hWorkThread = (HANDLE)_beginthreadex(NULL,
; 104  : 										0,
; 105  : 										WorkThreadProc,
; 106  : 										this,
; 107  : 										0,
; 108  : 										(unsigned int *)&dwChildThreadID);

  0003a	8d 45 fc	 lea	 eax, DWORD PTR _dwChildThreadID$[ebp]
  0003d	50		 push	 eax
  0003e	53		 push	 ebx
  0003f	56		 push	 esi
  00040	68 00 00 00 00	 push	 OFFSET FLAT:?WorkThreadProc@@YGIPAX@Z ; WorkThreadProc
  00045	53		 push	 ebx
  00046	53		 push	 ebx
  00047	e8 00 00 00 00	 call	 __beginthreadex
  0004c	83 c4 18	 add	 esp, 24			; 00000018H

; 109  : 
; 110  : 	SetThreadPriority(m_hWorkThread, 
; 111  : 						priority
; 112  : 						);

  0004f	ff 75 08	 push	 DWORD PTR _priority$[ebp]
  00052	89 46 30	 mov	 DWORD PTR [esi+48], eax
  00055	50		 push	 eax
  00056	ff 15 00 00 00
	00		 call	 DWORD PTR __imp__SetThreadPriority@8
  0005c	5f		 pop	 edi
  0005d	5e		 pop	 esi
  0005e	5b		 pop	 ebx

; 113  : 
; 114  : 
; 115  : 	//-----------------------------------------------------------
; 116  : 	// critical section object
; 117  : 	//-----------------------------------------------------------
; 118  : // 	InitializeCriticalSection(&m_csDeque);
; 119  : // 	InitializeCriticalSection(&m_csCurrent);	 
; 120  : }

  0005f	c9		 leave
  00060	c2 04 00	 ret	 4
?Init@MWorkThread@@QAEXH@Z ENDP				; MWorkThread::Init
_TEXT	ENDS
PUBLIC	??0MWorkThread@@QAE@H@Z				; MWorkThread::MWorkThread
;	COMDAT xdata$x
; File c:\stlport-4.6.1\stlport\stl\_alloc.h
xdata$x	SEGMENT
$T102615 DD	0ffffffffH
	DD	FLAT:$L102591
	DD	00H
	DD	FLAT:$L102592
	DD	01H
	DD	FLAT:$L102593
$T102613 DD	019930520H
	DD	03H
	DD	FLAT:$T102615
	DD	2 DUP(00H)
	DD	2 DUP(00H)
; Function compile flags: /Ogsy
; File c:\darkeden\designed_common\project\client\mworkthread.cpp
xdata$x	ENDS
;	COMDAT ??0MWorkThread@@QAE@H@Z
_TEXT	SEGMENT
_this$ = -16						; size = 4
__$EHRec$ = -12						; size = 12
_priority$ = 8						; size = 4
$T102590 = 11						; size = 1
??0MWorkThread@@QAE@H@Z PROC NEAR			; MWorkThread::MWorkThread, COMDAT
; _this$ = ecx

; 46   : {

  00000	b8 00 00 00 00	 mov	 eax, __ehhandler$??0MWorkThread@@QAE@H@Z
  00005	e8 00 00 00 00	 call	 __EH_prolog
  0000a	51		 push	 ecx
  0000b	53		 push	 ebx
  0000c	56		 push	 esi
  0000d	57		 push	 edi
  0000e	8b 3d 00 00 00
	00		 mov	 edi, DWORD PTR __imp__InitializeCriticalSection@4
  00014	8b f1		 mov	 esi, ecx
  00016	56		 push	 esi
  00017	89 75 f0	 mov	 DWORD PTR _this$[ebp], esi
  0001a	ff d7		 call	 edi
  0001c	8d 46 18	 lea	 eax, DWORD PTR [esi+24]
  0001f	33 db		 xor	 ebx, ebx
  00021	50		 push	 eax
  00022	89 5d fc	 mov	 DWORD PTR __$EHRec$[ebp+8], ebx
  00025	ff d7		 call	 edi
  00027	8d 45 0b	 lea	 eax, DWORD PTR $T102590[ebp]
  0002a	8d 4e 40	 lea	 ecx, DWORD PTR [esi+64]
  0002d	50		 push	 eax
  0002e	c6 45 fc 01	 mov	 BYTE PTR __$EHRec$[ebp+8], 1
  00032	e8 00 00 00 00	 call	 ??0?$_List_base@PAVMWorkNode@@V?$allocator@PAVMWorkNode@@@_STL@@@_STL@@QAE@ABV?$allocator@PAVMWorkNode@@@1@@Z ; _STL::_List_base<MWorkNode *,_STL::allocator<MWorkNode *> >::_List_base<MWorkNode *,_STL::allocator<MWorkNode *> >

; 47   : 	m_hWorkThread = 0;
; 48   : 
; 49   : 	m_hHasWorkEvent = 0;
; 50   : 	m_hEndWorkEvent = 0;
; 51   : 	m_hStopWorkEvent = 0;
; 52   : 	//m_hDequeLock = 0;
; 53   : 	//m_hCurrentLock = 0;
; 54   : 
; 55   : 	m_pCurrentWork = NULL;
; 56   : 
; 57   : 	Init(priority);

  00037	ff 75 08	 push	 DWORD PTR _priority$[ebp]
  0003a	8b ce		 mov	 ecx, esi
  0003c	c6 45 fc 02	 mov	 BYTE PTR __$EHRec$[ebp+8], 2
  00040	89 5e 30	 mov	 DWORD PTR [esi+48], ebx
  00043	89 5e 34	 mov	 DWORD PTR [esi+52], ebx
  00046	89 5e 38	 mov	 DWORD PTR [esi+56], ebx
  00049	89 5e 3c	 mov	 DWORD PTR [esi+60], ebx
  0004c	89 5e 44	 mov	 DWORD PTR [esi+68], ebx
  0004f	e8 00 00 00 00	 call	 ?Init@MWorkThread@@QAEXH@Z ; MWorkThread::Init

; 58   : }

  00054	8b 4d f4	 mov	 ecx, DWORD PTR __$EHRec$[ebp]
  00057	5f		 pop	 edi
  00058	8b c6		 mov	 eax, esi
  0005a	5e		 pop	 esi
  0005b	5b		 pop	 ebx
  0005c	64 89 0d 00 00
	00 00		 mov	 DWORD PTR fs:__except_list, ecx
  00063	c9		 leave
  00064	c2 04 00	 ret	 4
_TEXT	ENDS
;	COMDAT text$x
text$x	SEGMENT
$L102591:
  00000	8b 4d f0	 mov	 ecx, DWORD PTR _this$[ebp]
  00003	e9 00 00 00 00	 jmp	 ??1ACriticalSection@@QAE@XZ ; ACriticalSection::~ACriticalSection
$L102592:
  00008	8b 4d f0	 mov	 ecx, DWORD PTR _this$[ebp]
  0000b	83 c1 18	 add	 ecx, 24			; 00000018H
  0000e	e9 00 00 00 00	 jmp	 ??1ACriticalSection@@QAE@XZ ; ACriticalSection::~ACriticalSection
$L102593:
  00013	8b 4d f0	 mov	 ecx, DWORD PTR _this$[ebp]
  00016	83 c1 40	 add	 ecx, 64			; 00000040H
  00019	e9 00 00 00 00	 jmp	 ??1?$list@PAVMWorkNode@@V?$allocator@PAVMWorkNode@@@_STL@@@_STL@@QAE@XZ ; _STL::list<MWorkNode *,_STL::allocator<MWorkNode *> >::~list<MWorkNode *,_STL::allocator<MWorkNode *> >
__ehhandler$??0MWorkThread@@QAE@H@Z:
  0001e	b8 00 00 00 00	 mov	 eax, OFFSET FLAT:$T102613
  00023	e9 00 00 00 00	 jmp	 ___CxxFrameHandler
text$x	ENDS
??0MWorkThread@@QAE@H@Z ENDP				; MWorkThread::MWorkThread
END
