; Listing generated by Microsoft (R) Optimizing Compiler Version 13.10.3077 

	TITLE	\darkeden\Designed_Common\Project\Client\MZoneTable.cpp
	.386P
include listing.inc
if @Version gt 510
.model FLAT
else
_TEXT	SEGMENT PARA USE32 PUBLIC 'CODE'
_TEXT	ENDS
_DATA	SEGMENT DWORD USE32 PUBLIC 'DATA'
_DATA	ENDS
CONST	SEGMENT DWORD USE32 PUBLIC 'CONST'
CONST	ENDS
_BSS	SEGMENT DWORD USE32 PUBLIC 'BSS'
_BSS	ENDS
$$SYMBOLS	SEGMENT BYTE USE32 'DEBSYM'
$$SYMBOLS	ENDS
$$TYPES	SEGMENT BYTE USE32 'DEBTYP'
$$TYPES	ENDS
_TLS	SEGMENT DWORD USE32 PUBLIC 'TLS'
_TLS	ENDS
;	COMDAT ??_C@_0BN@ODLNCKCA@Data?2?2Info?2?2ClientConfig?4inf?$AA@
CONST	SEGMENT DWORD USE32 PUBLIC 'CONST'
CONST	ENDS
;	COMDAT ??_C@_0BM@DFPLPGPC@Data?2?2Info?2?2GuildMapper?4inf?$AA@
CONST	SEGMENT DWORD USE32 PUBLIC 'CONST'
CONST	ENDS
;	COMDAT ??_C@_0BN@LHODHNBK@Data?2?2Info?2?2GuildVersion?4inf?$AA@
CONST	SEGMENT DWORD USE32 PUBLIC 'CONST'
CONST	ENDS
;	COMDAT ??_C@_0BH@DDPLNCOL@Data?2?2Info?2?2Player?4inf?$AA@
CONST	SEGMENT DWORD USE32 PUBLIC 'CONST'
CONST	ENDS
;	COMDAT ??_C@_0BL@ILLNAPHB@Data?2?2Info?2?2Resolution?4inf?$AA@
CONST	SEGMENT DWORD USE32 PUBLIC 'CONST'
CONST	ENDS
;	COMDAT ??_C@_0CA@HEIGFDLG@Data?2?2Info?2?2SelectedChannel?4inf?$AA@
CONST	SEGMENT DWORD USE32 PUBLIC 'CONST'
CONST	ENDS
;	COMDAT ??_C@_0N@GOPDCEEB@basic_string?$AA@
CONST	SEGMENT DWORD USE32 PUBLIC 'CONST'
CONST	ENDS
rdata$r	SEGMENT DWORD USE32 PUBLIC 'CONST'
rdata$r	ENDS
text$yc	SEGMENT PARA USE32 PUBLIC 'CODE'
text$yc	ENDS
CRT$XCA	SEGMENT DWORD USE32 PUBLIC 'DATA'
CRT$XCA	ENDS
CRT$XCU	SEGMENT DWORD USE32 PUBLIC 'DATA'
CRT$XCU	ENDS
CRT$XCL	SEGMENT DWORD USE32 PUBLIC 'DATA'
CRT$XCL	ENDS
CRT$XCC	SEGMENT DWORD USE32 PUBLIC 'DATA'
CRT$XCC	ENDS
CRT$XCZ	SEGMENT DWORD USE32 PUBLIC 'DATA'
CRT$XCZ	ENDS
text$yd	SEGMENT PARA USE32 PUBLIC 'CODE'
text$yd	ENDS
;	COMDAT ?start@CNFS@@QAE_NPADH@Z
_TEXT	SEGMENT PARA USE32 PUBLIC 'CODE'
_TEXT	ENDS
;	COMDAT ?end@CNFS@@QAEXXZ
_TEXT	SEGMENT PARA USE32 PUBLIC 'CODE'
_TEXT	ENDS
;	COMDAT ?Init@VirtualFileHeader@@QAEXXZ
_TEXT	SEGMENT PARA USE32 PUBLIC 'CODE'
_TEXT	ENDS
;	COMDAT ??1IFileIO@@UAE@XZ
_TEXT	SEGMENT PARA USE32 PUBLIC 'CODE'
_TEXT	ENDS
;	COMDAT ??_GIFileIO@@UAEPAXI@Z
_TEXT	SEGMENT PARA USE32 PUBLIC 'CODE'
_TEXT	ENDS
;	COMDAT ??0iovfs_base@@QAE@XZ
_TEXT	SEGMENT PARA USE32 PUBLIC 'CODE'
_TEXT	ENDS
;	COMDAT ??_Giovfs_base@@UAEPAXI@Z
_TEXT	SEGMENT PARA USE32 PUBLIC 'CODE'
_TEXT	ENDS
;	COMDAT ??1iovfs_base@@UAE@XZ
_TEXT	SEGMENT PARA USE32 PUBLIC 'CODE'
_TEXT	ENDS
;	COMDAT ?Init@iovfs_base@@QAEXXZ
_TEXT	SEGMENT PARA USE32 PUBLIC 'CODE'
_TEXT	ENDS
;	COMDAT ??_Givfstream@@UAEPAXI@Z
_TEXT	SEGMENT PARA USE32 PUBLIC 'CODE'
_TEXT	ENDS
;	COMDAT ??1ivfstream@@UAE@XZ
_TEXT	SEGMENT PARA USE32 PUBLIC 'CODE'
_TEXT	ENDS
;	COMDAT ?open@ivfstream@@UAEXPBDH@Z
_TEXT	SEGMENT PARA USE32 PUBLIC 'CODE'
_TEXT	ENDS
;	COMDAT ?read@ivfstream@@QAEXPADI@Z
_TEXT	SEGMENT PARA USE32 PUBLIC 'CODE'
_TEXT	ENDS
;	COMDAT ??_Govfstream@@UAEPAXI@Z
_TEXT	SEGMENT PARA USE32 PUBLIC 'CODE'
_TEXT	ENDS
;	COMDAT ??1ovfstream@@UAE@XZ
_TEXT	SEGMENT PARA USE32 PUBLIC 'CODE'
_TEXT	ENDS
;	COMDAT ?open@ovfstream@@UAEXPBDH@Z
_TEXT	SEGMENT PARA USE32 PUBLIC 'CODE'
_TEXT	ENDS
;	COMDAT ??0WORLDMAP_INFO@@QAE@XZ
_TEXT	SEGMENT PARA USE32 PUBLIC 'CODE'
_TEXT	ENDS
;	COMDAT ?SaveToFile@WORLDMAP_INFO@@QAEXAAV?$basic_ofstream@DV?$char_traits@D@_STL@@@_STL@@@Z
_TEXT	SEGMENT PARA USE32 PUBLIC 'CODE'
_TEXT	ENDS
;	COMDAT ?LoadFromFile@WORLDMAP_INFO@@QAEXAAVivfstream@@@Z
_TEXT	SEGMENT PARA USE32 PUBLIC 'CODE'
_TEXT	ENDS
;	COMDAT ??0ZONETABLE_INFO@@QAE@XZ
_TEXT	SEGMENT PARA USE32 PUBLIC 'CODE'
_TEXT	ENDS
;	COMDAT ??1WORLDMAP_INFO@@QAE@XZ
_TEXT	SEGMENT PARA USE32 PUBLIC 'CODE'
_TEXT	ENDS
;	COMDAT ?GetRandomSoundID@ZONETABLE_INFO@@QBEGXZ
_TEXT	SEGMENT PARA USE32 PUBLIC 'CODE'
_TEXT	ENDS
;	COMDAT ?SaveToFile@ZONETABLE_INFO@@QAEXAAV?$basic_ofstream@DV?$char_traits@D@_STL@@@_STL@@@Z
_TEXT	SEGMENT PARA USE32 PUBLIC 'CODE'
_TEXT	ENDS
;	COMDAT ?LoadFromFile@ZONETABLE_INFO@@QAEXAAVivfstream@@@Z
_TEXT	SEGMENT PARA USE32 PUBLIC 'CODE'
_TEXT	ENDS
;	COMDAT ??0CZoneTable@@QAE@XZ
_TEXT	SEGMENT PARA USE32 PUBLIC 'CODE'
_TEXT	ENDS
;	COMDAT ??1?$map@GPAVZONETABLE_INFO@@U?$less@G@_STL@@V?$allocator@U?$pair@$$CBGPAVZONETABLE_INFO@@@_STL@@@3@@_STL@@QAE@XZ
_TEXT	SEGMENT PARA USE32 PUBLIC 'CODE'
_TEXT	ENDS
;	COMDAT ??1CZoneTable@@QAE@XZ
_TEXT	SEGMENT PARA USE32 PUBLIC 'CODE'
_TEXT	ENDS
;	COMDAT ?Release@CZoneTable@@QAEXXZ
_TEXT	SEGMENT PARA USE32 PUBLIC 'CODE'
_TEXT	ENDS
;	COMDAT ??_GZONETABLE_INFO@@QAEPAXI@Z
_TEXT	SEGMENT PARA USE32 PUBLIC 'CODE'
_TEXT	ENDS
;	COMDAT ??1ZONETABLE_INFO@@QAE@XZ
_TEXT	SEGMENT PARA USE32 PUBLIC 'CODE'
_TEXT	ENDS
;	COMDAT ?Add@CZoneTable@@QAE_NPAVZONETABLE_INFO@@@Z
_TEXT	SEGMENT PARA USE32 PUBLIC 'CODE'
_TEXT	ENDS
;	COMDAT ?Get@CZoneTable@@QAEPAVZONETABLE_INFO@@G@Z
_TEXT	SEGMENT PARA USE32 PUBLIC 'CODE'
_TEXT	ENDS
;	COMDAT ?SaveToFile@CZoneTable@@QAEXAAV?$basic_ofstream@DV?$char_traits@D@_STL@@@_STL@@@Z
_TEXT	SEGMENT PARA USE32 PUBLIC 'CODE'
_TEXT	ENDS
;	COMDAT ?LoadFromFile@CZoneTable@@QAEXAAVivfstream@@@Z
_TEXT	SEGMENT PARA USE32 PUBLIC 'CODE'
_TEXT	ENDS
;	COMDAT ?eq@?$__char_traits_base@DH@_STL@@SA_NABD0@Z
_TEXT	SEGMENT PARA USE32 PUBLIC 'CODE'
_TEXT	ENDS
;	COMDAT ?not_eof@?$__char_traits_base@DH@_STL@@SAHABH@Z
_TEXT	SEGMENT PARA USE32 PUBLIC 'CODE'
_TEXT	ENDS
;	COMDAT ?eq_int_type@?$__char_traits_base@DH@_STL@@SA_NABH0@Z
_TEXT	SEGMENT PARA USE32 PUBLIC 'CODE'
_TEXT	ENDS
;	COMDAT ?get_allocator@?$basic_string@DV?$char_traits@D@_STL@@V?$allocator@D@2@@_STL@@QBE?AV?$allocator@D@2@XZ
_TEXT	SEGMENT PARA USE32 PUBLIC 'CODE'
_TEXT	ENDS
;	COMDAT ??4?$basic_string@DV?$char_traits@D@_STL@@V?$allocator@D@2@@_STL@@QAEAAV01@PBD@Z
_TEXT	SEGMENT PARA USE32 PUBLIC 'CODE'
_TEXT	ENDS
;	COMDAT ?_M_terminate_string@?$basic_string@DV?$char_traits@D@_STL@@V?$allocator@D@2@@_STL@@AAEXXZ
_TEXT	SEGMENT PARA USE32 PUBLIC 'CODE'
_TEXT	ENDS
;	COMDAT ??0?$_String_base@DV?$allocator@D@_STL@@@_STL@@QAE@ABV?$allocator@D@1@@Z
_TEXT	SEGMENT PARA USE32 PUBLIC 'CODE'
_TEXT	ENDS
;	COMDAT ?allocate@?$allocator@D@_STL@@QAEPADIPBX@Z
_TEXT	SEGMENT PARA USE32 PUBLIC 'CODE'
_TEXT	ENDS
;	COMDAT ??0?$allocator@G@_STL@@QAE@XZ
_TEXT	SEGMENT PARA USE32 PUBLIC 'CODE'
_TEXT	ENDS
;	COMDAT ??0?$fpos@H@_STL@@QAE@J@Z
_TEXT	SEGMENT PARA USE32 PUBLIC 'CODE'
_TEXT	ENDS
;	COMDAT ??B?$fpos@H@_STL@@QBEJXZ
_TEXT	SEGMENT PARA USE32 PUBLIC 'CODE'
_TEXT	ENDS
;	COMDAT ?state@?$fpos@H@_STL@@QBEHXZ
_TEXT	SEGMENT PARA USE32 PUBLIC 'CODE'
_TEXT	ENDS
;	COMDAT ?is_open@?$basic_filebuf@DV?$char_traits@D@_STL@@@_STL@@QBE_NXZ
_TEXT	SEGMENT PARA USE32 PUBLIC 'CODE'
_TEXT	ENDS
;	COMDAT ?_M_seek_return@?$basic_filebuf@DV?$char_traits@D@_STL@@@_STL@@AAE?AV?$fpos@H@2@JH@Z
_TEXT	SEGMENT PARA USE32 PUBLIC 'CODE'
_TEXT	ENDS
;	COMDAT ??0?$_Filebuf_Tmp_Buf@D@_STL@@QAE@H@Z
_TEXT	SEGMENT PARA USE32 PUBLIC 'CODE'
_TEXT	ENDS
;	COMDAT ??1?$_Filebuf_Tmp_Buf@D@_STL@@QAE@XZ
_TEXT	SEGMENT PARA USE32 PUBLIC 'CODE'
_TEXT	ENDS
;	COMDAT ??0?$list@GV?$allocator@G@_STL@@@_STL@@QAE@ABV?$allocator@G@1@@Z
_TEXT	SEGMENT PARA USE32 PUBLIC 'CODE'
_TEXT	ENDS
;	COMDAT ?begin@?$list@GV?$allocator@G@_STL@@@_STL@@QAE?AU?$_List_iterator@GU?$_Nonconst_traits@G@_STL@@@2@XZ
_TEXT	SEGMENT PARA USE32 PUBLIC 'CODE'
_TEXT	ENDS
;	COMDAT ?begin@?$list@GV?$allocator@G@_STL@@@_STL@@QBE?AU?$_List_iterator@GU?$_Const_traits@G@_STL@@@2@XZ
_TEXT	SEGMENT PARA USE32 PUBLIC 'CODE'
_TEXT	ENDS
;	COMDAT ?end@?$list@GV?$allocator@G@_STL@@@_STL@@QAE?AU?$_List_iterator@GU?$_Nonconst_traits@G@_STL@@@2@XZ
_TEXT	SEGMENT PARA USE32 PUBLIC 'CODE'
_TEXT	ENDS
;	COMDAT ?size@?$list@GV?$allocator@G@_STL@@@_STL@@QBEIXZ
_TEXT	SEGMENT PARA USE32 PUBLIC 'CODE'
_TEXT	ENDS
;	COMDAT ?push_back@?$list@GV?$allocator@G@_STL@@@_STL@@QAEXABG@Z
_TEXT	SEGMENT PARA USE32 PUBLIC 'CODE'
_TEXT	ENDS
;	COMDAT ??1?$list@GV?$allocator@G@_STL@@@_STL@@QAE@XZ
_TEXT	SEGMENT PARA USE32 PUBLIC 'CODE'
_TEXT	ENDS
;	COMDAT ?begin@?$vector@VMString@@V?$allocator@VMString@@@_STL@@@_STL@@QAEPAVMString@@XZ
_TEXT	SEGMENT PARA USE32 PUBLIC 'CODE'
_TEXT	ENDS
;	COMDAT ?end@?$vector@VMString@@V?$allocator@VMString@@@_STL@@@_STL@@QAEPAVMString@@XZ
_TEXT	SEGMENT PARA USE32 PUBLIC 'CODE'
_TEXT	ENDS
;	COMDAT ?size@?$vector@VMString@@V?$allocator@VMString@@@_STL@@@_STL@@QBEIXZ
_TEXT	SEGMENT PARA USE32 PUBLIC 'CODE'
_TEXT	ENDS
;	COMDAT ??0?$vector@VMString@@V?$allocator@VMString@@@_STL@@@_STL@@QAE@ABV?$allocator@VMString@@@1@@Z
_TEXT	SEGMENT PARA USE32 PUBLIC 'CODE'
_TEXT	ENDS
;	COMDAT ??1?$vector@VMString@@V?$allocator@VMString@@@_STL@@@_STL@@QAE@XZ
_TEXT	SEGMENT PARA USE32 PUBLIC 'CODE'
_TEXT	ENDS
;	COMDAT ?push_back@?$vector@VMString@@V?$allocator@VMString@@@_STL@@@_STL@@QAEXABVMString@@@Z
_TEXT	SEGMENT PARA USE32 PUBLIC 'CODE'
_TEXT	ENDS
;	COMDAT ?clear@?$vector@VMString@@V?$allocator@VMString@@@_STL@@@_STL@@QAEXXZ
_TEXT	SEGMENT PARA USE32 PUBLIC 'CODE'
_TEXT	ENDS
;	COMDAT ??0?$allocator@VMString@@@_STL@@QAE@XZ
_TEXT	SEGMENT PARA USE32 PUBLIC 'CODE'
_TEXT	ENDS
;	COMDAT ??1?$allocator@VMString@@@_STL@@QAE@XZ
_TEXT	SEGMENT PARA USE32 PUBLIC 'CODE'
_TEXT	ENDS
;	COMDAT ??0?$map@GPAVZONETABLE_INFO@@U?$less@G@_STL@@V?$allocator@U?$pair@$$CBGPAVZONETABLE_INFO@@@_STL@@@3@@_STL@@QAE@XZ
_TEXT	SEGMENT PARA USE32 PUBLIC 'CODE'
_TEXT	ENDS
;	COMDAT ?begin@?$map@GPAVZONETABLE_INFO@@U?$less@G@_STL@@V?$allocator@U?$pair@$$CBGPAVZONETABLE_INFO@@@_STL@@@3@@_STL@@QAE?AU?$_Rb_tree_iterator@U?$pair@$$CBGPAVZONETABLE_INFO@@@_STL@@U?$_Nonconst_traits@U?$pair@$$CBGPAVZONETABLE_INFO@@@_STL@@@2@@2@XZ
_TEXT	SEGMENT PARA USE32 PUBLIC 'CODE'
_TEXT	ENDS
;	COMDAT ?end@?$map@GPAVZONETABLE_INFO@@U?$less@G@_STL@@V?$allocator@U?$pair@$$CBGPAVZONETABLE_INFO@@@_STL@@@3@@_STL@@QAE?AU?$_Rb_tree_iterator@U?$pair@$$CBGPAVZONETABLE_INFO@@@_STL@@U?$_Nonconst_traits@U?$pair@$$CBGPAVZONETABLE_INFO@@@_STL@@@2@@2@XZ
_TEXT	SEGMENT PARA USE32 PUBLIC 'CODE'
_TEXT	ENDS
;	COMDAT ?size@?$map@GPAVZONETABLE_INFO@@U?$less@G@_STL@@V?$allocator@U?$pair@$$CBGPAVZONETABLE_INFO@@@_STL@@@3@@_STL@@QBEIXZ
_TEXT	SEGMENT PARA USE32 PUBLIC 'CODE'
_TEXT	ENDS
;	COMDAT ?insert@?$map@GPAVZONETABLE_INFO@@U?$less@G@_STL@@V?$allocator@U?$pair@$$CBGPAVZONETABLE_INFO@@@_STL@@@3@@_STL@@QAE?AU?$pair@U?$_Rb_tree_iterator@U?$pair@$$CBGPAVZONETABLE_INFO@@@_STL@@U?$_Nonconst_traits@U?$pair@$$CBGPAVZONETABLE_INFO@@@_STL@@@2@@_STL@@_N@2@ABU?$pair@$$CBGPAVZONETABLE_INFO@@@2@@Z
_TEXT	SEGMENT PARA USE32 PUBLIC 'CODE'
_TEXT	ENDS
;	COMDAT ?clear@?$map@GPAVZONETABLE_INFO@@U?$less@G@_STL@@V?$allocator@U?$pair@$$CBGPAVZONETABLE_INFO@@@_STL@@@3@@_STL@@QAEXXZ
_TEXT	SEGMENT PARA USE32 PUBLIC 'CODE'
_TEXT	ENDS
;	COMDAT ?find@?$map@GPAVZONETABLE_INFO@@U?$less@G@_STL@@V?$allocator@U?$pair@$$CBGPAVZONETABLE_INFO@@@_STL@@@3@@_STL@@QAE?AU?$_Rb_tree_iterator@U?$pair@$$CBGPAVZONETABLE_INFO@@@_STL@@U?$_Nonconst_traits@U?$pair@$$CBGPAVZONETABLE_INFO@@@_STL@@@2@@2@ABG@Z
_TEXT	SEGMENT PARA USE32 PUBLIC 'CODE'
_TEXT	ENDS
;	COMDAT ??1?$_Rb_tree@GU?$pair@$$CBGPAVZONETABLE_INFO@@@_STL@@U?$_Select1st@U?$pair@$$CBGPAVZONETABLE_INFO@@@_STL@@@2@U?$less@G@2@V?$allocator@U?$pair@$$CBGPAVZONETABLE_INFO@@@_STL@@@2@@_STL@@QAE@XZ
_TEXT	SEGMENT PARA USE32 PUBLIC 'CODE'
_TEXT	ENDS
;	COMDAT ??1?$basic_ofstream@DV?$char_traits@D@_STL@@@_STL@@UAE@XZ
_TEXT	SEGMENT PARA USE32 PUBLIC 'CODE'
_TEXT	ENDS
;	COMDAT ??D?$_List_iterator@GU?$_Const_traits@G@_STL@@@_STL@@QBEABGXZ
_TEXT	SEGMENT PARA USE32 PUBLIC 'CODE'
_TEXT	ENDS
;	COMDAT ??E?$_List_iterator@GU?$_Const_traits@G@_STL@@@_STL@@QAE?AU01@H@Z
_TEXT	SEGMENT PARA USE32 PUBLIC 'CODE'
_TEXT	ENDS
;	COMDAT ??D?$_List_iterator@GU?$_Nonconst_traits@G@_STL@@@_STL@@QBEAAGXZ
_TEXT	SEGMENT PARA USE32 PUBLIC 'CODE'
_TEXT	ENDS
;	COMDAT ??E?$_List_iterator@GU?$_Nonconst_traits@G@_STL@@@_STL@@QAE?AU01@H@Z
_TEXT	SEGMENT PARA USE32 PUBLIC 'CODE'
_TEXT	ENDS
;	COMDAT ??D?$_Rb_tree_iterator@U?$pair@$$CBGPAVZONETABLE_INFO@@@_STL@@U?$_Nonconst_traits@U?$pair@$$CBGPAVZONETABLE_INFO@@@_STL@@@2@@_STL@@QBEAAU?$pair@$$CBGPAVZONETABLE_INFO@@@1@XZ
_TEXT	SEGMENT PARA USE32 PUBLIC 'CODE'
_TEXT	ENDS
;	COMDAT ??E?$_Rb_tree_iterator@U?$pair@$$CBGPAVZONETABLE_INFO@@@_STL@@U?$_Nonconst_traits@U?$pair@$$CBGPAVZONETABLE_INFO@@@_STL@@@2@@_STL@@QAE?AU01@H@Z
_TEXT	SEGMENT PARA USE32 PUBLIC 'CODE'
_TEXT	ENDS
;	COMDAT ??0?$pair@$$CBGPAVZONETABLE_INFO@@@_STL@@QAE@ABGABQAVZONETABLE_INFO@@@Z
_TEXT	SEGMENT PARA USE32 PUBLIC 'CODE'
_TEXT	ENDS
;	COMDAT ??_G?$basic_ofstream@DV?$char_traits@D@_STL@@@_STL@@UAEPAXI@Z
_TEXT	SEGMENT PARA USE32 PUBLIC 'CODE'
_TEXT	ENDS
;	COMDAT ??_D?$basic_ofstream@DV?$char_traits@D@_STL@@@_STL@@QAEXXZ
_TEXT	SEGMENT PARA USE32 PUBLIC 'CODE'
_TEXT	ENDS
;	COMDAT ?_M_terminate_string_aux@?$basic_string@DV?$char_traits@D@_STL@@V?$allocator@D@2@@_STL@@AAEXABU__true_type@2@@Z
_TEXT	SEGMENT PARA USE32 PUBLIC 'CODE'
_TEXT	ENDS
;	COMDAT ?assign@?$basic_string@DV?$char_traits@D@_STL@@V?$allocator@D@2@@_STL@@QAEAAV12@PBD0@Z
_TEXT	SEGMENT PARA USE32 PUBLIC 'CODE'
_TEXT	ENDS
;	COMDAT ??0?$allocator@D@_STL@@QAE@ABV01@@Z
_TEXT	SEGMENT PARA USE32 PUBLIC 'CODE'
_TEXT	ENDS
;	COMDAT ??0?$_STLP_alloc_proxy@PADDV?$allocator@D@_STL@@@_STL@@QAE@ABV?$allocator@D@1@PAD@Z
_TEXT	SEGMENT PARA USE32 PUBLIC 'CODE'
_TEXT	ENDS
;	COMDAT ?state@?$fpos@H@_STL@@QAEXH@Z
_TEXT	SEGMENT PARA USE32 PUBLIC 'CODE'
_TEXT	ENDS
;	COMDAT ?end@?$list@GV?$allocator@G@_STL@@@_STL@@QBE?AU?$_List_iterator@GU?$_Const_traits@G@_STL@@@2@XZ
_TEXT	SEGMENT PARA USE32 PUBLIC 'CODE'
_TEXT	ENDS
;	COMDAT ?insert@?$list@GV?$allocator@G@_STL@@@_STL@@QAE?AU?$_List_iterator@GU?$_Nonconst_traits@G@_STL@@@2@U32@ABG@Z
_TEXT	SEGMENT PARA USE32 PUBLIC 'CODE'
_TEXT	ENDS
;	COMDAT ??0?$_List_base@GV?$allocator@G@_STL@@@_STL@@QAE@ABV?$allocator@G@1@@Z
_TEXT	SEGMENT PARA USE32 PUBLIC 'CODE'
_TEXT	ENDS
;	COMDAT ??1?$_List_base@GV?$allocator@G@_STL@@@_STL@@QAE@XZ
_TEXT	SEGMENT PARA USE32 PUBLIC 'CODE'
_TEXT	ENDS
;	COMDAT ?_M_insert_overflow@?$vector@VMString@@V?$allocator@VMString@@@_STL@@@_STL@@IAEXPAVMString@@ABV3@ABU__false_type@2@I_N@Z
_TEXT	SEGMENT PARA USE32 PUBLIC 'CODE'
_TEXT	ENDS
;	COMDAT ?erase@?$vector@VMString@@V?$allocator@VMString@@@_STL@@@_STL@@QAEPAVMString@@PAV3@0@Z
_TEXT	SEGMENT PARA USE32 PUBLIC 'CODE'
_TEXT	ENDS
;	COMDAT ??0?$_Vector_base@VMString@@V?$allocator@VMString@@@_STL@@@_STL@@QAE@ABV?$allocator@VMString@@@1@@Z
_TEXT	SEGMENT PARA USE32 PUBLIC 'CODE'
_TEXT	ENDS
;	COMDAT ??1?$_Vector_base@VMString@@V?$allocator@VMString@@@_STL@@@_STL@@QAE@XZ
_TEXT	SEGMENT PARA USE32 PUBLIC 'CODE'
_TEXT	ENDS
;	COMDAT ??0?$_Rb_tree@GU?$pair@$$CBGPAVZONETABLE_INFO@@@_STL@@U?$_Select1st@U?$pair@$$CBGPAVZONETABLE_INFO@@@_STL@@@2@U?$less@G@2@V?$allocator@U?$pair@$$CBGPAVZONETABLE_INFO@@@_STL@@@2@@_STL@@QAE@ABU?$less@G@1@ABV?$allocator@U?$pair@$$CBGPAVZONETABLE_INFO@@@_STL@@@1@@Z
_TEXT	SEGMENT PARA USE32 PUBLIC 'CODE'
_TEXT	ENDS
;	COMDAT ?begin@?$_Rb_tree@GU?$pair@$$CBGPAVZONETABLE_INFO@@@_STL@@U?$_Select1st@U?$pair@$$CBGPAVZONETABLE_INFO@@@_STL@@@2@U?$less@G@2@V?$allocator@U?$pair@$$CBGPAVZONETABLE_INFO@@@_STL@@@2@@_STL@@QAE?AU?$_Rb_tree_iterator@U?$pair@$$CBGPAVZONETABLE_INFO@@@_STL@@U?$_Nonconst_traits@U?$pair@$$CBGPAVZONETABLE_INFO@@@_STL@@@2@@2@XZ
_TEXT	SEGMENT PARA USE32 PUBLIC 'CODE'
_TEXT	ENDS
;	COMDAT ?end@?$_Rb_tree@GU?$pair@$$CBGPAVZONETABLE_INFO@@@_STL@@U?$_Select1st@U?$pair@$$CBGPAVZONETABLE_INFO@@@_STL@@@2@U?$less@G@2@V?$allocator@U?$pair@$$CBGPAVZONETABLE_INFO@@@_STL@@@2@@_STL@@QAE?AU?$_Rb_tree_iterator@U?$pair@$$CBGPAVZONETABLE_INFO@@@_STL@@U?$_Nonconst_traits@U?$pair@$$CBGPAVZONETABLE_INFO@@@_STL@@@2@@2@XZ
_TEXT	SEGMENT PARA USE32 PUBLIC 'CODE'
_TEXT	ENDS
;	COMDAT ?size@?$_Rb_tree@GU?$pair@$$CBGPAVZONETABLE_INFO@@@_STL@@U?$_Select1st@U?$pair@$$CBGPAVZONETABLE_INFO@@@_STL@@@2@U?$less@G@2@V?$allocator@U?$pair@$$CBGPAVZONETABLE_INFO@@@_STL@@@2@@_STL@@QBEIXZ
_TEXT	SEGMENT PARA USE32 PUBLIC 'CODE'
_TEXT	ENDS
;	COMDAT ?clear@?$_Rb_tree@GU?$pair@$$CBGPAVZONETABLE_INFO@@@_STL@@U?$_Select1st@U?$pair@$$CBGPAVZONETABLE_INFO@@@_STL@@@2@U?$less@G@2@V?$allocator@U?$pair@$$CBGPAVZONETABLE_INFO@@@_STL@@@2@@_STL@@QAEXXZ
_TEXT	SEGMENT PARA USE32 PUBLIC 'CODE'
_TEXT	ENDS
;	COMDAT ??1?$_Rb_tree_base@U?$pair@$$CBGPAVZONETABLE_INFO@@@_STL@@V?$allocator@U?$pair@$$CBGPAVZONETABLE_INFO@@@_STL@@@2@@_STL@@QAE@XZ
_TEXT	SEGMENT PARA USE32 PUBLIC 'CODE'
_TEXT	ENDS
;	COMDAT ??0?$allocator@U?$pair@$$CBGPAVZONETABLE_INFO@@@_STL@@@_STL@@QAE@XZ
_TEXT	SEGMENT PARA USE32 PUBLIC 'CODE'
_TEXT	ENDS
;	COMDAT ??1?$allocator@U?$pair@$$CBGPAVZONETABLE_INFO@@@_STL@@@_STL@@QAE@XZ
_TEXT	SEGMENT PARA USE32 PUBLIC 'CODE'
_TEXT	ENDS
;	COMDAT ??0?$_List_iterator@GU?$_Const_traits@G@_STL@@@_STL@@QAE@PAU?$_List_node@G@1@@Z
_TEXT	SEGMENT PARA USE32 PUBLIC 'CODE'
_TEXT	ENDS
;	COMDAT ??0?$_List_iterator@GU?$_Nonconst_traits@G@_STL@@@_STL@@QAE@PAU?$_List_node@G@1@@Z
_TEXT	SEGMENT PARA USE32 PUBLIC 'CODE'
_TEXT	ENDS
;	COMDAT ??0?$_List_iterator@GU?$_Nonconst_traits@G@_STL@@@_STL@@QAE@ABU01@@Z
_TEXT	SEGMENT PARA USE32 PUBLIC 'CODE'
_TEXT	ENDS
;	COMDAT ??0?$_Rb_tree_iterator@U?$pair@$$CBGPAVZONETABLE_INFO@@@_STL@@U?$_Nonconst_traits@U?$pair@$$CBGPAVZONETABLE_INFO@@@_STL@@@2@@_STL@@QAE@ABU01@@Z
_TEXT	SEGMENT PARA USE32 PUBLIC 'CODE'
_TEXT	ENDS
;	COMDAT ??1?$_STLP_alloc_proxy@PAU?$_List_node@G@_STL@@U12@V?$allocator@U?$_List_node@G@_STL@@@2@@_STL@@QAE@XZ
_TEXT	SEGMENT PARA USE32 PUBLIC 'CODE'
_TEXT	ENDS
;	COMDAT ??1?$_STLP_alloc_proxy@PAVMString@@V1@V?$allocator@VMString@@@_STL@@@_STL@@QAE@XZ
_TEXT	SEGMENT PARA USE32 PUBLIC 'CODE'
_TEXT	ENDS
;	COMDAT ??1?$_STLP_alloc_proxy@PAU?$_Rb_tree_node@U?$pair@$$CBGPAVZONETABLE_INFO@@@_STL@@@_STL@@U12@V?$allocator@U?$_Rb_tree_node@U?$pair@$$CBGPAVZONETABLE_INFO@@@_STL@@@_STL@@@2@@_STL@@QAE@XZ
_TEXT	SEGMENT PARA USE32 PUBLIC 'CODE'
_TEXT	ENDS
;	COMDAT ?copy@?$__char_traits_base@DH@_STL@@SAPADPADPBDI@Z
_TEXT	SEGMENT PARA USE32 PUBLIC 'CODE'
_TEXT	ENDS
;	COMDAT ?begin@?$basic_string@DV?$char_traits@D@_STL@@V?$allocator@D@2@@_STL@@QAEPADXZ
_TEXT	SEGMENT PARA USE32 PUBLIC 'CODE'
_TEXT	ENDS
;	COMDAT ?end@?$basic_string@DV?$char_traits@D@_STL@@V?$allocator@D@2@@_STL@@QAEPADXZ
_TEXT	SEGMENT PARA USE32 PUBLIC 'CODE'
_TEXT	ENDS
;	COMDAT ?size@?$basic_string@DV?$char_traits@D@_STL@@V?$allocator@D@2@@_STL@@QBEIXZ
_TEXT	SEGMENT PARA USE32 PUBLIC 'CODE'
_TEXT	ENDS
;	COMDAT ?erase@?$basic_string@DV?$char_traits@D@_STL@@V?$allocator@D@2@@_STL@@QAEPADPAD0@Z
_TEXT	SEGMENT PARA USE32 PUBLIC 'CODE'
_TEXT	ENDS
;	COMDAT ?_M_create_node@?$list@GV?$allocator@G@_STL@@@_STL@@IAEPAU?$_List_node@G@2@ABG@Z
_TEXT	SEGMENT PARA USE32 PUBLIC 'CODE'
_TEXT	ENDS
;	COMDAT ??0?$_STLP_alloc_proxy@PAU?$_List_node@G@_STL@@U12@V?$allocator@U?$_List_node@G@_STL@@@2@@_STL@@QAE@ABV?$allocator@U?$_List_node@G@_STL@@@1@PAU?$_List_node@G@1@@Z
_TEXT	SEGMENT PARA USE32 PUBLIC 'CODE'
_TEXT	ENDS
;	COMDAT ??1?$allocator@U?$_List_node@G@_STL@@@_STL@@QAE@XZ
_TEXT	SEGMENT PARA USE32 PUBLIC 'CODE'
_TEXT	ENDS
;	COMDAT ?allocate@?$allocator@U?$_List_node@G@_STL@@@_STL@@QAEPAU?$_List_node@G@2@IPBX@Z
_TEXT	SEGMENT PARA USE32 PUBLIC 'CODE'
_TEXT	ENDS
;	COMDAT ?deallocate@?$allocator@U?$_List_node@G@_STL@@@_STL@@QAEXPAU?$_List_node@G@2@I@Z
_TEXT	SEGMENT PARA USE32 PUBLIC 'CODE'
_TEXT	ENDS
;	COMDAT ?_M_clear@?$vector@VMString@@V?$allocator@VMString@@@_STL@@@_STL@@IAEXXZ
_TEXT	SEGMENT PARA USE32 PUBLIC 'CODE'
_TEXT	ENDS
;	COMDAT ?_M_set@?$vector@VMString@@V?$allocator@VMString@@@_STL@@@_STL@@IAEXPAVMString@@00@Z
_TEXT	SEGMENT PARA USE32 PUBLIC 'CODE'
_TEXT	ENDS
;	COMDAT ?allocate@?$allocator@VMString@@@_STL@@QAEPAVMString@@IPBX@Z
_TEXT	SEGMENT PARA USE32 PUBLIC 'CODE'
_TEXT	ENDS
;	COMDAT ?deallocate@?$allocator@VMString@@@_STL@@QAEXPAVMString@@I@Z
_TEXT	SEGMENT PARA USE32 PUBLIC 'CODE'
_TEXT	ENDS
;	COMDAT ??0?$_STLP_alloc_proxy@PAVMString@@V1@V?$allocator@VMString@@@_STL@@@_STL@@QAE@ABV?$allocator@VMString@@@1@PAVMString@@@Z
_TEXT	SEGMENT PARA USE32 PUBLIC 'CODE'
_TEXT	ENDS
;	COMDAT ?_M_root@?$_Rb_tree@GU?$pair@$$CBGPAVZONETABLE_INFO@@@_STL@@U?$_Select1st@U?$pair@$$CBGPAVZONETABLE_INFO@@@_STL@@@2@U?$less@G@2@V?$allocator@U?$pair@$$CBGPAVZONETABLE_INFO@@@_STL@@@2@@_STL@@IBEAAPAU?$_Rb_tree_node@U?$pair@$$CBGPAVZONETABLE_INFO@@@_STL@@@2@XZ
_TEXT	SEGMENT PARA USE32 PUBLIC 'CODE'
_TEXT	ENDS
;	COMDAT ?_M_leftmost@?$_Rb_tree@GU?$pair@$$CBGPAVZONETABLE_INFO@@@_STL@@U?$_Select1st@U?$pair@$$CBGPAVZONETABLE_INFO@@@_STL@@@2@U?$less@G@2@V?$allocator@U?$pair@$$CBGPAVZONETABLE_INFO@@@_STL@@@2@@_STL@@IBEAAPAU?$_Rb_tree_node@U?$pair@$$CBGPAVZONETABLE_INFO@@@_STL@@@2@XZ
_TEXT	SEGMENT PARA USE32 PUBLIC 'CODE'
_TEXT	ENDS
;	COMDAT ?_M_rightmost@?$_Rb_tree@GU?$pair@$$CBGPAVZONETABLE_INFO@@@_STL@@U?$_Select1st@U?$pair@$$CBGPAVZONETABLE_INFO@@@_STL@@@2@U?$less@G@2@V?$allocator@U?$pair@$$CBGPAVZONETABLE_INFO@@@_STL@@@2@@_STL@@IBEAAPAU?$_Rb_tree_node@U?$pair@$$CBGPAVZONETABLE_INFO@@@_STL@@@2@XZ
_TEXT	SEGMENT PARA USE32 PUBLIC 'CODE'
_TEXT	ENDS
;	COMDAT ?_M_empty_initialize@?$_Rb_tree@GU?$pair@$$CBGPAVZONETABLE_INFO@@@_STL@@U?$_Select1st@U?$pair@$$CBGPAVZONETABLE_INFO@@@_STL@@@2@U?$less@G@2@V?$allocator@U?$pair@$$CBGPAVZONETABLE_INFO@@@_STL@@@2@@_STL@@AAEXXZ
_TEXT	SEGMENT PARA USE32 PUBLIC 'CODE'
_TEXT	ENDS
;	COMDAT ??0?$_Rb_tree_base@U?$pair@$$CBGPAVZONETABLE_INFO@@@_STL@@V?$allocator@U?$pair@$$CBGPAVZONETABLE_INFO@@@_STL@@@2@@_STL@@QAE@ABV?$allocator@U?$pair@$$CBGPAVZONETABLE_INFO@@@_STL@@@1@@Z
_TEXT	SEGMENT PARA USE32 PUBLIC 'CODE'
_TEXT	ENDS
;	COMDAT ??1?$allocator@U?$_Rb_tree_node@U?$pair@$$CBGPAVZONETABLE_INFO@@@_STL@@@_STL@@@_STL@@QAE@XZ
_TEXT	SEGMENT PARA USE32 PUBLIC 'CODE'
_TEXT	ENDS
;	COMDAT ?deallocate@?$allocator@U?$_Rb_tree_node@U?$pair@$$CBGPAVZONETABLE_INFO@@@_STL@@@_STL@@@_STL@@QAEXPAU?$_Rb_tree_node@U?$pair@$$CBGPAVZONETABLE_INFO@@@_STL@@@2@I@Z
_TEXT	SEGMENT PARA USE32 PUBLIC 'CODE'
_TEXT	ENDS
;	COMDAT ??0?$_Rb_tree_iterator@U?$pair@$$CBGPAVZONETABLE_INFO@@@_STL@@U?$_Nonconst_traits@U?$pair@$$CBGPAVZONETABLE_INFO@@@_STL@@@2@@_STL@@QAE@PAU?$_Rb_tree_node@U?$pair@$$CBGPAVZONETABLE_INFO@@@_STL@@@1@@Z
_TEXT	SEGMENT PARA USE32 PUBLIC 'CODE'
_TEXT	ENDS
;	COMDAT ?move@?$__char_traits_base@DH@_STL@@SAPADPADPBDI@Z
_TEXT	SEGMENT PARA USE32 PUBLIC 'CODE'
_TEXT	ENDS
;	COMDAT ??0?$allocator@U?$_List_node@G@_STL@@@_STL@@QAE@ABV01@@Z
_TEXT	SEGMENT PARA USE32 PUBLIC 'CODE'
_TEXT	ENDS
;	COMDAT ??0?$allocator@VMString@@@_STL@@QAE@ABV01@@Z
_TEXT	SEGMENT PARA USE32 PUBLIC 'CODE'
_TEXT	ENDS
;	COMDAT ?_S_color@?$_Rb_tree@GU?$pair@$$CBGPAVZONETABLE_INFO@@@_STL@@U?$_Select1st@U?$pair@$$CBGPAVZONETABLE_INFO@@@_STL@@@2@U?$less@G@2@V?$allocator@U?$pair@$$CBGPAVZONETABLE_INFO@@@_STL@@@2@@_STL@@KAAA_NPAU?$_Rb_tree_node@U?$pair@$$CBGPAVZONETABLE_INFO@@@_STL@@@2@@Z
_TEXT	SEGMENT PARA USE32 PUBLIC 'CODE'
_TEXT	ENDS
;	COMDAT ??0?$_STLP_alloc_proxy@PAU?$_Rb_tree_node@U?$pair@$$CBGPAVZONETABLE_INFO@@@_STL@@@_STL@@U12@V?$allocator@U?$_Rb_tree_node@U?$pair@$$CBGPAVZONETABLE_INFO@@@_STL@@@_STL@@@2@@_STL@@QAE@ABV?$allocator@U?$_Rb_tree_node@U?$pair@$$CBGPAVZONETABLE_INFO@@@_STL@@@_STL@@@1@PAU?$_Rb_tree_node@U?$pair@$$CBGPAVZONETABLE_INFO@@@_STL@@@1@@Z
_TEXT	SEGMENT PARA USE32 PUBLIC 'CODE'
_TEXT	ENDS
;	COMDAT ?allocate@?$allocator@U?$_Rb_tree_node@U?$pair@$$CBGPAVZONETABLE_INFO@@@_STL@@@_STL@@@_STL@@QAEPAU?$_Rb_tree_node@U?$pair@$$CBGPAVZONETABLE_INFO@@@_STL@@@2@IPBX@Z
_TEXT	SEGMENT PARA USE32 PUBLIC 'CODE'
_TEXT	ENDS
;	COMDAT ??0?$allocator@U?$_Rb_tree_node@U?$pair@$$CBGPAVZONETABLE_INFO@@@_STL@@@_STL@@@_STL@@QAE@ABV01@@Z
_TEXT	SEGMENT PARA USE32 PUBLIC 'CODE'
_TEXT	ENDS
;	COMDAT ??$_M_range_initialize@PBD@?$basic_string@DV?$char_traits@D@_STL@@V?$allocator@D@2@@_STL@@AAEXPBD0@Z
_TEXT	SEGMENT PARA USE32 PUBLIC 'CODE'
_TEXT	ENDS
;	COMDAT ??$_M_range_initialize@PAD@?$basic_string@DV?$char_traits@D@_STL@@V?$allocator@D@2@@_STL@@AAEXPAD0@Z
_TEXT	SEGMENT PARA USE32 PUBLIC 'CODE'
_TEXT	ENDS
;	COMDAT ?write@?$basic_ostream@DV?$char_traits@D@_STL@@@_STL@@QAEAAV12@PBDH@Z
_TEXT	SEGMENT PARA USE32 PUBLIC 'CODE'
_TEXT	ENDS
;	COMDAT ?close@?$basic_filebuf@DV?$char_traits@D@_STL@@@_STL@@QAEPAV12@XZ
_TEXT	SEGMENT PARA USE32 PUBLIC 'CODE'
_TEXT	ENDS
;	COMDAT ?_M_exit_input_mode@?$basic_filebuf@DV?$char_traits@D@_STL@@@_STL@@AAEXXZ
_TEXT	SEGMENT PARA USE32 PUBLIC 'CODE'
_TEXT	ENDS
;	COMDAT ?_M_switch_to_output_mode@?$basic_filebuf@DV?$char_traits@D@_STL@@@_STL@@AAE_NXZ
_TEXT	SEGMENT PARA USE32 PUBLIC 'CODE'
_TEXT	ENDS
;	COMDAT ?_M_output_error@?$basic_filebuf@DV?$char_traits@D@_STL@@@_STL@@AAEHXZ
_TEXT	SEGMENT PARA USE32 PUBLIC 'CODE'
_TEXT	ENDS
;	COMDAT ?_M_allocate_buffers@?$basic_filebuf@DV?$char_traits@D@_STL@@@_STL@@AAE_NPADH@Z
_TEXT	SEGMENT PARA USE32 PUBLIC 'CODE'
_TEXT	ENDS
;	COMDAT ?_M_deallocate_buffers@?$basic_filebuf@DV?$char_traits@D@_STL@@@_STL@@AAEXXZ
_TEXT	SEGMENT PARA USE32 PUBLIC 'CODE'
_TEXT	ENDS
;	COMDAT ?_M_seek_init@?$basic_filebuf@DV?$char_traits@D@_STL@@@_STL@@AAE_N_N@Z
_TEXT	SEGMENT PARA USE32 PUBLIC 'CODE'
_TEXT	ENDS
;	COMDAT ?_M_setup_codecvt@?$basic_filebuf@DV?$char_traits@D@_STL@@@_STL@@AAEXABVlocale@2@@Z
_TEXT	SEGMENT PARA USE32 PUBLIC 'CODE'
_TEXT	ENDS
;	COMDAT ??$equal@PADPADU?$_Eq_traits@V?$char_traits@D@_STL@@@_STL@@@_STL@@YA_NPAD00U?$_Eq_traits@V?$char_traits@D@_STL@@@0@@Z
_TEXT	SEGMENT PARA USE32 PUBLIC 'CODE'
_TEXT	ENDS
;	COMDAT ??$_Destroy@V?$basic_string@DV?$char_traits@D@_STL@@V?$allocator@D@2@@_STL@@@_STL@@YAXPAV?$basic_string@DV?$char_traits@D@_STL@@V?$allocator@D@2@@0@@Z
_TEXT	SEGMENT PARA USE32 PUBLIC 'CODE'
_TEXT	ENDS
;	COMDAT ??$_M_assign_dispatch@PAD@?$basic_string@DV?$char_traits@D@_STL@@V?$allocator@D@2@@_STL@@AAEAAV01@PAD0ABU__false_type@1@@Z
_TEXT	SEGMENT PARA USE32 PUBLIC 'CODE'
_TEXT	ENDS
;	COMDAT ?clear@?$_List_base@GV?$allocator@G@_STL@@@_STL@@QAEXXZ
_TEXT	SEGMENT PARA USE32 PUBLIC 'CODE'
_TEXT	ENDS
;	COMDAT ?_M_erase@?$_Rb_tree@GU?$pair@$$CBGPAVZONETABLE_INFO@@@_STL@@U?$_Select1st@U?$pair@$$CBGPAVZONETABLE_INFO@@@_STL@@@2@U?$less@G@2@V?$allocator@U?$pair@$$CBGPAVZONETABLE_INFO@@@_STL@@@2@@_STL@@AAEXPAU?$_Rb_tree_node@U?$pair@$$CBGPAVZONETABLE_INFO@@@_STL@@@2@@Z
_TEXT	SEGMENT PARA USE32 PUBLIC 'CODE'
_TEXT	ENDS
;	COMDAT ?insert_unique@?$_Rb_tree@GU?$pair@$$CBGPAVZONETABLE_INFO@@@_STL@@U?$_Select1st@U?$pair@$$CBGPAVZONETABLE_INFO@@@_STL@@@2@U?$less@G@2@V?$allocator@U?$pair@$$CBGPAVZONETABLE_INFO@@@_STL@@@2@@_STL@@QAE?AU?$pair@U?$_Rb_tree_iterator@U?$pair@$$CBGPAVZONETABLE_INFO@@@_STL@@U?$_Nonconst_traits@U?$pair@$$CBGPAVZONETABLE_INFO@@@_STL@@@2@@_STL@@_N@2@ABU?$pair@$$CBGPAVZONETABLE_INFO@@@2@@Z
_TEXT	SEGMENT PARA USE32 PUBLIC 'CODE'
_TEXT	ENDS
;	COMDAT ??$distance@U?$_List_iterator@GU?$_Const_traits@G@_STL@@@_STL@@@_STL@@YAHABU?$_List_iterator@GU?$_Const_traits@G@_STL@@@0@0@Z
_TEXT	SEGMENT PARA USE32 PUBLIC 'CODE'
_TEXT	ENDS
;	COMDAT ??$_Destroy@PAVMString@@@_STL@@YAXPAVMString@@0@Z
_TEXT	SEGMENT PARA USE32 PUBLIC 'CODE'
_TEXT	ENDS
;	COMDAT ??$_Construct@VMString@@V1@@_STL@@YAXPAVMString@@ABV1@@Z
_TEXT	SEGMENT PARA USE32 PUBLIC 'CODE'
_TEXT	ENDS
;	COMDAT ??$find@G@?$_Rb_tree@GU?$pair@$$CBGPAVZONETABLE_INFO@@@_STL@@U?$_Select1st@U?$pair@$$CBGPAVZONETABLE_INFO@@@_STL@@@2@U?$less@G@2@V?$allocator@U?$pair@$$CBGPAVZONETABLE_INFO@@@_STL@@@2@@_STL@@QAE?AU?$_Rb_tree_iterator@U?$pair@$$CBGPAVZONETABLE_INFO@@@_STL@@U?$_Nonconst_traits@U?$pair@$$CBGPAVZONETABLE_INFO@@@_STL@@@2@@1@ABG@Z
_TEXT	SEGMENT PARA USE32 PUBLIC 'CODE'
_TEXT	ENDS
;	COMDAT ??$append@PBD@?$basic_string@DV?$char_traits@D@_STL@@V?$allocator@D@2@@_STL@@QAEAAV01@PBD0@Z
_TEXT	SEGMENT PARA USE32 PUBLIC 'CODE'
_TEXT	ENDS
;	COMDAT ??$?0G@?$allocator@U?$_List_node@G@_STL@@@_STL@@QAE@ABV?$allocator@G@1@@Z
_TEXT	SEGMENT PARA USE32 PUBLIC 'CODE'
_TEXT	ENDS
;	COMDAT ??$max@I@_STL@@YAABIABI0@Z
_TEXT	SEGMENT PARA USE32 PUBLIC 'CODE'
_TEXT	ENDS
;	COMDAT ??$__uninitialized_copy@PAVMString@@PAV1@@_STL@@YAPAVMString@@PAV1@00ABU__false_type@0@@Z
_TEXT	SEGMENT PARA USE32 PUBLIC 'CODE'
_TEXT	ENDS
;	COMDAT ??$__uninitialized_fill_n@PAVMString@@IV1@@_STL@@YAPAVMString@@PAV1@IABV1@ABU__false_type@0@@Z
_TEXT	SEGMENT PARA USE32 PUBLIC 'CODE'
_TEXT	ENDS
;	COMDAT ??$__copy_ptrs@PAVMString@@PAV1@@_STL@@YAPAVMString@@PAV1@00ABU__false_type@0@@Z
_TEXT	SEGMENT PARA USE32 PUBLIC 'CODE'
_TEXT	ENDS
;	COMDAT ??$_Construct@GG@_STL@@YAXPAGABG@Z
_TEXT	SEGMENT PARA USE32 PUBLIC 'CODE'
_TEXT	ENDS
;	COMDAT ??$?0U?$pair@$$CBGPAVZONETABLE_INFO@@@_STL@@@?$allocator@U?$_Rb_tree_node@U?$pair@$$CBGPAVZONETABLE_INFO@@@_STL@@@_STL@@@_STL@@QAE@ABV?$allocator@U?$pair@$$CBGPAVZONETABLE_INFO@@@_STL@@@1@@Z
_TEXT	SEGMENT PARA USE32 PUBLIC 'CODE'
_TEXT	ENDS
;	COMDAT ??_G?$basic_string@DV?$char_traits@D@_STL@@V?$allocator@D@2@@_STL@@QAEPAXI@Z
_TEXT	SEGMENT PARA USE32 PUBLIC 'CODE'
_TEXT	ENDS
;	COMDAT ?rdbuf@?$basic_ios@DV?$char_traits@D@_STL@@@_STL@@QBEPAV?$basic_streambuf@DV?$char_traits@D@_STL@@@2@XZ
_TEXT	SEGMENT PARA USE32 PUBLIC 'CODE'
_TEXT	ENDS
;	COMDAT ?setstate@?$basic_ios@DV?$char_traits@D@_STL@@@_STL@@QAEXH@Z
_TEXT	SEGMENT PARA USE32 PUBLIC 'CODE'
_TEXT	ENDS
;	COMDAT ?_M_exit_putback_mode@?$basic_filebuf@DV?$char_traits@D@_STL@@@_STL@@AAEXXZ
_TEXT	SEGMENT PARA USE32 PUBLIC 'CODE'
_TEXT	ENDS
;	COMDAT ??R?$_Eq_traits@V?$char_traits@D@_STL@@@_STL@@QBE_NABD0@Z
_TEXT	SEGMENT PARA USE32 PUBLIC 'CODE'
_TEXT	ENDS
;	COMDAT ?_S_left@?$_Rb_tree@GU?$pair@$$CBGPAVZONETABLE_INFO@@@_STL@@U?$_Select1st@U?$pair@$$CBGPAVZONETABLE_INFO@@@_STL@@@2@U?$less@G@2@V?$allocator@U?$pair@$$CBGPAVZONETABLE_INFO@@@_STL@@@2@@_STL@@KAAAPAU?$_Rb_tree_node@U?$pair@$$CBGPAVZONETABLE_INFO@@@_STL@@@2@PAU32@@Z
_TEXT	SEGMENT PARA USE32 PUBLIC 'CODE'
_TEXT	ENDS
;	COMDAT ?_S_right@?$_Rb_tree@GU?$pair@$$CBGPAVZONETABLE_INFO@@@_STL@@U?$_Select1st@U?$pair@$$CBGPAVZONETABLE_INFO@@@_STL@@@2@U?$less@G@2@V?$allocator@U?$pair@$$CBGPAVZONETABLE_INFO@@@_STL@@@2@@_STL@@KAAAPAU?$_Rb_tree_node@U?$pair@$$CBGPAVZONETABLE_INFO@@@_STL@@@2@PAU32@@Z
_TEXT	SEGMENT PARA USE32 PUBLIC 'CODE'
_TEXT	ENDS
;	COMDAT ?_S_key@?$_Rb_tree@GU?$pair@$$CBGPAVZONETABLE_INFO@@@_STL@@U?$_Select1st@U?$pair@$$CBGPAVZONETABLE_INFO@@@_STL@@@2@U?$less@G@2@V?$allocator@U?$pair@$$CBGPAVZONETABLE_INFO@@@_STL@@@2@@_STL@@KAABGPAU?$_Rb_tree_node@U?$pair@$$CBGPAVZONETABLE_INFO@@@_STL@@@2@@Z
_TEXT	SEGMENT PARA USE32 PUBLIC 'CODE'
_TEXT	ENDS
;	COMDAT ?_S_key@?$_Rb_tree@GU?$pair@$$CBGPAVZONETABLE_INFO@@@_STL@@U?$_Select1st@U?$pair@$$CBGPAVZONETABLE_INFO@@@_STL@@@2@U?$less@G@2@V?$allocator@U?$pair@$$CBGPAVZONETABLE_INFO@@@_STL@@@2@@_STL@@KAABGPAU_Rb_tree_node_base@2@@Z
_TEXT	SEGMENT PARA USE32 PUBLIC 'CODE'
_TEXT	ENDS
;	COMDAT ??R?$less@G@_STL@@QBE_NABG0@Z
_TEXT	SEGMENT PARA USE32 PUBLIC 'CODE'
_TEXT	ENDS
;	COMDAT ??F?$_Rb_tree_iterator@U?$pair@$$CBGPAVZONETABLE_INFO@@@_STL@@U?$_Nonconst_traits@U?$pair@$$CBGPAVZONETABLE_INFO@@@_STL@@@2@@_STL@@QAEAAU01@XZ
_TEXT	SEGMENT PARA USE32 PUBLIC 'CODE'
_TEXT	ENDS
;	COMDAT ??0?$pair@U?$_Rb_tree_iterator@U?$pair@$$CBGPAVZONETABLE_INFO@@@_STL@@U?$_Nonconst_traits@U?$pair@$$CBGPAVZONETABLE_INFO@@@_STL@@@2@@_STL@@_N@_STL@@QAE@ABU?$_Rb_tree_iterator@U?$pair@$$CBGPAVZONETABLE_INFO@@@_STL@@U?$_Nonconst_traits@U?$pair@$$CBGPAVZONETABLE_INFO@@@_STL@@@2@@1@AB_N@Z
_TEXT	SEGMENT PARA USE32 PUBLIC 'CODE'
_TEXT	ENDS
;	COMDAT ??0sentry@?$basic_ostream@DV?$char_traits@D@_STL@@@_STL@@QAE@AAV12@@Z
_TEXT	SEGMENT PARA USE32 PUBLIC 'CODE'
_TEXT	ENDS
;	COMDAT ??1sentry@?$basic_ostream@DV?$char_traits@D@_STL@@@_STL@@QAE@XZ
_TEXT	SEGMENT PARA USE32 PUBLIC 'CODE'
_TEXT	ENDS
;	COMDAT ??Bsentry@?$basic_ostream@DV?$char_traits@D@_STL@@@_STL@@QBE_NXZ
_TEXT	SEGMENT PARA USE32 PUBLIC 'CODE'
_TEXT	ENDS
;	COMDAT ??R?$_Select1st@U?$pair@$$CBGPAVZONETABLE_INFO@@@_STL@@@_STL@@QBEABGABU?$pair@$$CBGPAVZONETABLE_INFO@@@1@@Z
_TEXT	SEGMENT PARA USE32 PUBLIC 'CODE'
_TEXT	ENDS
;	COMDAT ?clear@?$basic_ios@DV?$char_traits@D@_STL@@@_STL@@QAEXH@Z
_TEXT	SEGMENT PARA USE32 PUBLIC 'CODE'
_TEXT	ENDS
;	COMDAT ?flush@?$basic_ostream@DV?$char_traits@D@_STL@@@_STL@@QAEAAV12@XZ
_TEXT	SEGMENT PARA USE32 PUBLIC 'CODE'
_TEXT	ENDS
;	COMDAT ?_S_value@?$_Rb_tree@GU?$pair@$$CBGPAVZONETABLE_INFO@@@_STL@@U?$_Select1st@U?$pair@$$CBGPAVZONETABLE_INFO@@@_STL@@@2@U?$less@G@2@V?$allocator@U?$pair@$$CBGPAVZONETABLE_INFO@@@_STL@@@2@@_STL@@KAAAU?$pair@$$CBGPAVZONETABLE_INFO@@@2@PAU?$_Rb_tree_node@U?$pair@$$CBGPAVZONETABLE_INFO@@@_STL@@@2@@Z
_TEXT	SEGMENT PARA USE32 PUBLIC 'CODE'
_TEXT	ENDS
;	COMDAT ??$_M_range_initialize@PBD@?$basic_string@DV?$char_traits@D@_STL@@V?$allocator@D@2@@_STL@@AAEXPBD0ABUforward_iterator_tag@1@@Z
_TEXT	SEGMENT PARA USE32 PUBLIC 'CODE'
_TEXT	ENDS
;	COMDAT ??$_M_range_initialize@PAD@?$basic_string@DV?$char_traits@D@_STL@@V?$allocator@D@2@@_STL@@AAEXPAD0ABUforward_iterator_tag@1@@Z
_TEXT	SEGMENT PARA USE32 PUBLIC 'CODE'
_TEXT	ENDS
;	COMDAT ?_M_handle_exception@?$basic_ios@DV?$char_traits@D@_STL@@@_STL@@QAEXH@Z
_TEXT	SEGMENT PARA USE32 PUBLIC 'CODE'
_TEXT	ENDS
;	COMDAT ?_M_unshift@?$basic_filebuf@DV?$char_traits@D@_STL@@@_STL@@AAE_NXZ
_TEXT	SEGMENT PARA USE32 PUBLIC 'CODE'
_TEXT	ENDS
;	COMDAT ?_M_allocate_buffers@?$basic_filebuf@DV?$char_traits@D@_STL@@@_STL@@AAE_NXZ
_TEXT	SEGMENT PARA USE32 PUBLIC 'CODE'
_TEXT	ENDS
;	COMDAT ??$max@H@_STL@@YAABHABH0@Z
_TEXT	SEGMENT PARA USE32 PUBLIC 'CODE'
_TEXT	ENDS
;	COMDAT ??$use_facet@V?$codecvt@DDH@_STL@@@_STL@@YAABV?$codecvt@DDH@0@ABVlocale@0@@Z
_TEXT	SEGMENT PARA USE32 PUBLIC 'CODE'
_TEXT	ENDS
;	COMDAT ??$append@PAD@?$basic_string@DV?$char_traits@D@_STL@@V?$allocator@D@2@@_STL@@QAEAAV01@PAD0@Z
_TEXT	SEGMENT PARA USE32 PUBLIC 'CODE'
_TEXT	ENDS
;	COMDAT ??$_Destroy@G@_STL@@YAXPAG@Z
_TEXT	SEGMENT PARA USE32 PUBLIC 'CODE'
_TEXT	ENDS
;	COMDAT ?_M_insert@?$_Rb_tree@GU?$pair@$$CBGPAVZONETABLE_INFO@@@_STL@@U?$_Select1st@U?$pair@$$CBGPAVZONETABLE_INFO@@@_STL@@@2@U?$less@G@2@V?$allocator@U?$pair@$$CBGPAVZONETABLE_INFO@@@_STL@@@2@@_STL@@AAE?AU?$_Rb_tree_iterator@U?$pair@$$CBGPAVZONETABLE_INFO@@@_STL@@U?$_Nonconst_traits@U?$pair@$$CBGPAVZONETABLE_INFO@@@_STL@@@2@@2@PAU_Rb_tree_node_base@2@0ABU?$pair@$$CBGPAVZONETABLE_INFO@@@2@0@Z
_TEXT	SEGMENT PARA USE32 PUBLIC 'CODE'
_TEXT	ENDS
;	COMDAT ??$_Destroy@U?$pair@$$CBGPAVZONETABLE_INFO@@@_STL@@@_STL@@YAXPAU?$pair@$$CBGPAVZONETABLE_INFO@@@0@@Z
_TEXT	SEGMENT PARA USE32 PUBLIC 'CODE'
_TEXT	ENDS
;	COMDAT ??$__distance@U?$_List_iterator@GU?$_Const_traits@G@_STL@@@_STL@@@_STL@@YAHABU?$_List_iterator@GU?$_Const_traits@G@_STL@@@0@0ABUinput_iterator_tag@0@@Z
_TEXT	SEGMENT PARA USE32 PUBLIC 'CODE'
_TEXT	ENDS
;	COMDAT ??$__destroy@PAVMString@@V1@@_STL@@YAXPAVMString@@00@Z
_TEXT	SEGMENT PARA USE32 PUBLIC 'CODE'
_TEXT	ENDS
;	COMDAT ??$_M_find@G@?$_Rb_tree@GU?$pair@$$CBGPAVZONETABLE_INFO@@@_STL@@U?$_Select1st@U?$pair@$$CBGPAVZONETABLE_INFO@@@_STL@@@2@U?$less@G@2@V?$allocator@U?$pair@$$CBGPAVZONETABLE_INFO@@@_STL@@@2@@_STL@@ABEPAU?$_Rb_tree_node@U?$pair@$$CBGPAVZONETABLE_INFO@@@_STL@@@1@ABG@Z
_TEXT	SEGMENT PARA USE32 PUBLIC 'CODE'
_TEXT	ENDS
;	COMDAT ??$_M_append_dispatch@PBD@?$basic_string@DV?$char_traits@D@_STL@@V?$allocator@D@2@@_STL@@AAEAAV01@PBD0ABU__false_type@1@@Z
_TEXT	SEGMENT PARA USE32 PUBLIC 'CODE'
_TEXT	ENDS
;	COMDAT ??$__copy@PAVMString@@PAV1@H@_STL@@YAPAVMString@@PAV1@00ABUrandom_access_iterator_tag@0@PAH@Z
_TEXT	SEGMENT PARA USE32 PUBLIC 'CODE'
_TEXT	ENDS
;	COMDAT ??$_M_init@DV?$char_traits@D@_STL@@@_STL@@YA_NAAV?$basic_ostream@DV?$char_traits@D@_STL@@@0@@Z
_TEXT	SEGMENT PARA USE32 PUBLIC 'CODE'
_TEXT	ENDS
;	COMDAT ?tie@?$basic_ios@DV?$char_traits@D@_STL@@@_STL@@QBEPAV?$basic_ostream@DV?$char_traits@D@_STL@@@2@XZ
_TEXT	SEGMENT PARA USE32 PUBLIC 'CODE'
_TEXT	ENDS
;	COMDAT ?_M_create_node@?$_Rb_tree@GU?$pair@$$CBGPAVZONETABLE_INFO@@@_STL@@U?$_Select1st@U?$pair@$$CBGPAVZONETABLE_INFO@@@_STL@@@2@U?$less@G@2@V?$allocator@U?$pair@$$CBGPAVZONETABLE_INFO@@@_STL@@@2@@_STL@@IAEPAU?$_Rb_tree_node@U?$pair@$$CBGPAVZONETABLE_INFO@@@_STL@@@2@ABU?$pair@$$CBGPAVZONETABLE_INFO@@@2@@Z
_TEXT	SEGMENT PARA USE32 PUBLIC 'CODE'
_TEXT	ENDS
;	COMDAT ?_S_parent@?$_Rb_tree@GU?$pair@$$CBGPAVZONETABLE_INFO@@@_STL@@U?$_Select1st@U?$pair@$$CBGPAVZONETABLE_INFO@@@_STL@@@2@U?$less@G@2@V?$allocator@U?$pair@$$CBGPAVZONETABLE_INFO@@@_STL@@@2@@_STL@@KAAAPAU?$_Rb_tree_node@U?$pair@$$CBGPAVZONETABLE_INFO@@@_STL@@@2@PAU32@@Z
_TEXT	SEGMENT PARA USE32 PUBLIC 'CODE'
_TEXT	ENDS
;	COMDAT ??E?$_List_iterator@GU?$_Const_traits@G@_STL@@@_STL@@QAEAAU01@XZ
_TEXT	SEGMENT PARA USE32 PUBLIC 'CODE'
_TEXT	ENDS
;	COMDAT ??$distance@PBD@_STL@@YAHABQBD0@Z
_TEXT	SEGMENT PARA USE32 PUBLIC 'CODE'
_TEXT	ENDS
;	COMDAT ?_M_allocate_block@?$_String_base@DV?$allocator@D@_STL@@@_STL@@QAEXI@Z
_TEXT	SEGMENT PARA USE32 PUBLIC 'CODE'
_TEXT	ENDS
;	COMDAT ??$distance@PAD@_STL@@YAHABQAD0@Z
_TEXT	SEGMENT PARA USE32 PUBLIC 'CODE'
_TEXT	ENDS
;	COMDAT ??$uninitialized_copy@PADPAD@_STL@@YAPADPAD00@Z
_TEXT	SEGMENT PARA USE32 PUBLIC 'CODE'
_TEXT	ENDS
;	COMDAT ??$_M_append_dispatch@PAD@?$basic_string@DV?$char_traits@D@_STL@@V?$allocator@D@2@@_STL@@AAEAAV01@PAD0ABU__false_type@1@@Z
_TEXT	SEGMENT PARA USE32 PUBLIC 'CODE'
_TEXT	ENDS
;	COMDAT ??$__destroy_aux@PAVMString@@@_STL@@YAXPAVMString@@0ABU__false_type@0@@Z
_TEXT	SEGMENT PARA USE32 PUBLIC 'CODE'
_TEXT	ENDS
;	COMDAT ??$append@PBD@?$basic_string@DV?$char_traits@D@_STL@@V?$allocator@D@2@@_STL@@AAEAAV01@PBD0ABUforward_iterator_tag@1@@Z
_TEXT	SEGMENT PARA USE32 PUBLIC 'CODE'
_TEXT	ENDS
;	COMDAT ??$_Construct@U?$pair@$$CBGPAVZONETABLE_INFO@@@_STL@@U12@@_STL@@YAXPAU?$pair@$$CBGPAVZONETABLE_INFO@@@0@ABU10@@Z
_TEXT	SEGMENT PARA USE32 PUBLIC 'CODE'
_TEXT	ENDS
;	COMDAT ?_M_construct_null@?$basic_string@DV?$char_traits@D@_STL@@V?$allocator@D@2@@_STL@@AAEXPAD@Z
_TEXT	SEGMENT PARA USE32 PUBLIC 'CODE'
_TEXT	ENDS
;	COMDAT ?max_size@?$basic_string@DV?$char_traits@D@_STL@@V?$allocator@D@2@@_STL@@QBEIXZ
_TEXT	SEGMENT PARA USE32 PUBLIC 'CODE'
_TEXT	ENDS
;	COMDAT ?capacity@?$basic_string@DV?$char_traits@D@_STL@@V?$allocator@D@2@@_STL@@QBEIXZ
_TEXT	SEGMENT PARA USE32 PUBLIC 'CODE'
_TEXT	ENDS
;	COMDAT ?max_size@?$_String_base@DV?$allocator@D@_STL@@@_STL@@QBEIXZ
_TEXT	SEGMENT PARA USE32 PUBLIC 'CODE'
_TEXT	ENDS
;	COMDAT ??0?$pair@$$CBGPAVZONETABLE_INFO@@@_STL@@QAE@ABU01@@Z
_TEXT	SEGMENT PARA USE32 PUBLIC 'CODE'
_TEXT	ENDS
;	COMDAT ?_M_construct_null_aux@?$basic_string@DV?$char_traits@D@_STL@@V?$allocator@D@2@@_STL@@AAEXPADABU__true_type@2@@Z
_TEXT	SEGMENT PARA USE32 PUBLIC 'CODE'
_TEXT	ENDS
;	COMDAT ??$__distance@PBD@_STL@@YAHABQBD0ABUrandom_access_iterator_tag@0@@Z
_TEXT	SEGMENT PARA USE32 PUBLIC 'CODE'
_TEXT	ENDS
;	COMDAT ?_M_throw_length_error@?$_String_base@DV?$allocator@D@_STL@@@_STL@@QBEXXZ
_TEXT	SEGMENT PARA USE32 PUBLIC 'CODE'
_TEXT	ENDS
;	COMDAT ??$__distance@PAD@_STL@@YAHABQAD0ABUrandom_access_iterator_tag@0@@Z
_TEXT	SEGMENT PARA USE32 PUBLIC 'CODE'
_TEXT	ENDS
;	COMDAT ??$__uninitialized_copy@PADPAD@_STL@@YAPADPAD00ABU__true_type@0@@Z
_TEXT	SEGMENT PARA USE32 PUBLIC 'CODE'
_TEXT	ENDS
;	COMDAT ??$append@PAD@?$basic_string@DV?$char_traits@D@_STL@@V?$allocator@D@2@@_STL@@AAEAAV01@PAD0ABUforward_iterator_tag@1@@Z
_TEXT	SEGMENT PARA USE32 PUBLIC 'CODE'
_TEXT	ENDS
;	COMDAT ??$_Destroy@VMString@@@_STL@@YAXPAVMString@@@Z
_TEXT	SEGMENT PARA USE32 PUBLIC 'CODE'
_TEXT	ENDS
;	COMDAT ?_Ret@?$_BothPtrType@PADPAD@_STL@@SA?AU__true_type@2@XZ
_TEXT	SEGMENT PARA USE32 PUBLIC 'CODE'
_TEXT	ENDS
;	COMDAT ??$__copy_aux@PADPAD@_STL@@YAPADPAD00ABU__true_type@0@@Z
_TEXT	SEGMENT PARA USE32 PUBLIC 'CODE'
_TEXT	ENDS
;	COMDAT ?_Ret@?$_OKToMemCpy@DD@_STL@@SA?AU__true_type@2@XZ
_TEXT	SEGMENT PARA USE32 PUBLIC 'CODE'
_TEXT	ENDS
;	COMDAT ??$_IsOKToMemCpy@DD@_STL@@YA?AU?$_OKToMemCpy@DD@0@PAD0@Z
_TEXT	SEGMENT PARA USE32 PUBLIC 'CODE'
_TEXT	ENDS
;	COMDAT ??$__copy_ptrs@PADPAD@_STL@@YAPADPAD00ABU__true_type@0@@Z
_TEXT	SEGMENT PARA USE32 PUBLIC 'CODE'
_TEXT	ENDS
;	COMDAT ??_R3iovfs_base@@8
rdata$r	SEGMENT DWORD USE32 PUBLIC 'CONST'
rdata$r	ENDS
;	COMDAT ??_R3?$basic_ofstream@DV?$char_traits@D@_STL@@@_STL@@8
rdata$r	SEGMENT DWORD USE32 PUBLIC 'CONST'
rdata$r	ENDS
;	COMDAT ??_R3IFileIO@@8
rdata$r	SEGMENT DWORD USE32 PUBLIC 'CONST'
rdata$r	ENDS
;	COMDAT ??_R3ovfstream@@8
rdata$r	SEGMENT DWORD USE32 PUBLIC 'CONST'
rdata$r	ENDS
;	COMDAT ??_R3ivfstream@@8
rdata$r	SEGMENT DWORD USE32 PUBLIC 'CONST'
rdata$r	ENDS
;	COMDAT ??_R2iovfs_base@@8
rdata$r	SEGMENT DWORD USE32 PUBLIC 'CONST'
rdata$r	ENDS
;	COMDAT ??_R2?$basic_ofstream@DV?$char_traits@D@_STL@@@_STL@@8
rdata$r	SEGMENT DWORD USE32 PUBLIC 'CONST'
rdata$r	ENDS
;	COMDAT ??_R2IFileIO@@8
rdata$r	SEGMENT DWORD USE32 PUBLIC 'CONST'
rdata$r	ENDS
;	COMDAT ??_R2ovfstream@@8
rdata$r	SEGMENT DWORD USE32 PUBLIC 'CONST'
rdata$r	ENDS
;	COMDAT ??_R2ivfstream@@8
rdata$r	SEGMENT DWORD USE32 PUBLIC 'CONST'
rdata$r	ENDS
;	COMDAT ??_R1A@A@3A@ios_base@_STL@@8
rdata$r	SEGMENT DWORD USE32 PUBLIC 'CONST'
rdata$r	ENDS
;	COMDAT ??_R0?AVios_base@_STL@@@8
_DATA	SEGMENT DWORD USE32 PUBLIC 'DATA'
_DATA	ENDS
;	COMDAT ??_R1A@A@3BA@?$basic_ios@DV?$char_traits@D@_STL@@@_STL@@8
rdata$r	SEGMENT DWORD USE32 PUBLIC 'CONST'
rdata$r	ENDS
;	COMDAT ??_R0?AV?$basic_ios@DV?$char_traits@D@_STL@@@_STL@@@8
_DATA	SEGMENT DWORD USE32 PUBLIC 'DATA'
_DATA	ENDS
;	COMDAT ??_R1A@?0A@A@?$basic_ostream@DV?$char_traits@D@_STL@@@_STL@@8
rdata$r	SEGMENT DWORD USE32 PUBLIC 'CONST'
rdata$r	ENDS
;	COMDAT ??_R0?AV?$basic_ostream@DV?$char_traits@D@_STL@@@_STL@@@8
_DATA	SEGMENT DWORD USE32 PUBLIC 'DATA'
_DATA	ENDS
;	COMDAT ??_R1A@?0A@A@?$basic_ofstream@DV?$char_traits@D@_STL@@@_STL@@8
rdata$r	SEGMENT DWORD USE32 PUBLIC 'CONST'
rdata$r	ENDS
;	COMDAT ??_R1A@?0A@A@IFileIO@@8
rdata$r	SEGMENT DWORD USE32 PUBLIC 'CONST'
rdata$r	ENDS
;	COMDAT ??_R1A@?0A@A@ovfstream@@8
rdata$r	SEGMENT DWORD USE32 PUBLIC 'CONST'
rdata$r	ENDS
;	COMDAT ??_R1A@?0A@A@iovfs_base@@8
rdata$r	SEGMENT DWORD USE32 PUBLIC 'CONST'
rdata$r	ENDS
;	COMDAT ??_R1A@?0A@A@ivfstream@@8
rdata$r	SEGMENT DWORD USE32 PUBLIC 'CONST'
rdata$r	ENDS
;	COMDAT ??_R0?AV?$basic_ofstream@DV?$char_traits@D@_STL@@@_STL@@@8
_DATA	SEGMENT DWORD USE32 PUBLIC 'DATA'
_DATA	ENDS
;	COMDAT ??_R0?AVIFileIO@@@8
_DATA	SEGMENT DWORD USE32 PUBLIC 'DATA'
_DATA	ENDS
;	COMDAT ??_R0?AVovfstream@@@8
_DATA	SEGMENT DWORD USE32 PUBLIC 'DATA'
_DATA	ENDS
;	COMDAT ??_R0?AViovfs_base@@@8
_DATA	SEGMENT DWORD USE32 PUBLIC 'DATA'
_DATA	ENDS
;	COMDAT ??_R0?AVivfstream@@@8
_DATA	SEGMENT DWORD USE32 PUBLIC 'DATA'
_DATA	ENDS
;	COMDAT ??_R4iovfs_base@@6B@
rdata$r	SEGMENT DWORD USE32 PUBLIC 'CONST'
rdata$r	ENDS
;	COMDAT ??_R4?$basic_ofstream@DV?$char_traits@D@_STL@@@_STL@@6B@
rdata$r	SEGMENT DWORD USE32 PUBLIC 'CONST'
rdata$r	ENDS
;	COMDAT ??_R4IFileIO@@6B@
rdata$r	SEGMENT DWORD USE32 PUBLIC 'CONST'
rdata$r	ENDS
;	COMDAT ??_R4ovfstream@@6B@
rdata$r	SEGMENT DWORD USE32 PUBLIC 'CONST'
rdata$r	ENDS
;	COMDAT ??_R4ivfstream@@6B@
rdata$r	SEGMENT DWORD USE32 PUBLIC 'CONST'
rdata$r	ENDS
;	COMDAT ?__copy_trivial@_STL@@YAPAXPBX0PAX@Z
_TEXT	SEGMENT PARA USE32 PUBLIC 'CODE'
_TEXT	ENDS
;	COMDAT ?_M_deallocate_block@?$_String_base@DV?$allocator@D@_STL@@@_STL@@QAEXXZ
_TEXT	SEGMENT PARA USE32 PUBLIC 'CODE'
_TEXT	ENDS
;	COMDAT ?deallocate@?$allocator@D@_STL@@QAEXPADI@Z
_TEXT	SEGMENT PARA USE32 PUBLIC 'CODE'
_TEXT	ENDS
;	COMDAT ?good@ios_base@_STL@@QBE_NXZ
_TEXT	SEGMENT PARA USE32 PUBLIC 'CODE'
_TEXT	ENDS
;	COMDAT ?__page_size@_Filebuf_base@_STL@@SAIXZ
_TEXT	SEGMENT PARA USE32 PUBLIC 'CODE'
_TEXT	ENDS
;	COMDAT ?_M_write@?$basic_filebuf@DV?$char_traits@D@_STL@@@_STL@@QAE_NPADH@Z
_TEXT	SEGMENT PARA USE32 PUBLIC 'CODE'
_TEXT	ENDS
;	COMDAT ?unshift@?$codecvt@DDH@_STL@@QBE?AW4result@codecvt_base@2@AAHPAD1AAPAD@Z
_TEXT	SEGMENT PARA USE32 PUBLIC 'CODE'
_TEXT	ENDS
;	COMDAT ?_M_get_exception_mask@ios_base@_STL@@IBEHXZ
_TEXT	SEGMENT PARA USE32 PUBLIC 'CODE'
_TEXT	ENDS
;	COMDAT ?_M_setstate_nothrow@ios_base@_STL@@IAEXH@Z
_TEXT	SEGMENT PARA USE32 PUBLIC 'CODE'
_TEXT	ENDS
;	COMDAT ?uninitialized_copy@_STL@@YAPADPBD0PAD@Z
_TEXT	SEGMENT PARA USE32 PUBLIC 'CODE'
_TEXT	ENDS
;	COMDAT ?pubsync@?$basic_streambuf@DV?$char_traits@D@_STL@@@_STL@@QAEHXZ
_TEXT	SEGMENT PARA USE32 PUBLIC 'CODE'
_TEXT	ENDS
;	COMDAT ?_M_check_exception_mask@ios_base@_STL@@IAEXXZ
_TEXT	SEGMENT PARA USE32 PUBLIC 'CODE'
_TEXT	ENDS
;	COMDAT ?_M_clear_nothrow@ios_base@_STL@@IAEXH@Z
_TEXT	SEGMENT PARA USE32 PUBLIC 'CODE'
_TEXT	ENDS
;	COMDAT ?flags@ios_base@_STL@@QBEHXZ
_TEXT	SEGMENT PARA USE32 PUBLIC 'CODE'
_TEXT	ENDS
;	COMDAT ?rdstate@ios_base@_STL@@QBEHXZ
_TEXT	SEGMENT PARA USE32 PUBLIC 'CODE'
_TEXT	ENDS
;	COMDAT ??3@YAXPAX0@Z
_TEXT	SEGMENT PARA USE32 PUBLIC 'CODE'
_TEXT	ENDS
;	COMDAT ??2@YAPAXIPAX@Z
_TEXT	SEGMENT PARA USE32 PUBLIC 'CODE'
_TEXT	ENDS
;	COMDAT ?assign@?$char_traits@D@_STL@@SAXAADABD@Z
_TEXT	SEGMENT PARA USE32 PUBLIC 'CODE'
_TEXT	ENDS
;	COMDAT ?always_noconv@?$codecvt@DDH@_STL@@QBE_NXZ
_TEXT	SEGMENT PARA USE32 PUBLIC 'CODE'
_TEXT	ENDS
;	COMDAT ?encoding@?$codecvt@DDH@_STL@@QBEHXZ
_TEXT	SEGMENT PARA USE32 PUBLIC 'CODE'
_TEXT	ENDS
;	COMDAT ?max_length@?$codecvt@DDH@_STL@@QBEHXZ
_TEXT	SEGMENT PARA USE32 PUBLIC 'CODE'
_TEXT	ENDS
;	COMDAT ?__o_mode@_Filebuf_base@_STL@@QBEHXZ
_TEXT	SEGMENT PARA USE32 PUBLIC 'CODE'
_TEXT	ENDS
;	COMDAT ?sputn@?$basic_streambuf@DV?$char_traits@D@_STL@@@_STL@@QAEHPBDH@Z
_TEXT	SEGMENT PARA USE32 PUBLIC 'CODE'
_TEXT	ENDS
;	COMDAT ?deallocate@?$__node_alloc@$00$0A@@_STL@@SAXPAXI@Z
_TEXT	SEGMENT PARA USE32 PUBLIC 'CODE'
_TEXT	ENDS
;	COMDAT ?__stl_delete@_STL@@YAXPAX@Z
_TEXT	SEGMENT PARA USE32 PUBLIC 'CODE'
_TEXT	ENDS
;	COMDAT ?_Destroy@_STL@@YAXPAD0@Z
_TEXT	SEGMENT PARA USE32 PUBLIC 'CODE'
_TEXT	ENDS
;	COMDAT ??0_List_iterator_base@_STL@@QAE@PAU_List_node_base@1@@Z
_TEXT	SEGMENT PARA USE32 PUBLIC 'CODE'
_TEXT	ENDS
;	COMDAT ??1?$basic_ios@DV?$char_traits@D@_STL@@@_STL@@UAE@XZ
_TEXT	SEGMENT PARA USE32 PUBLIC 'CODE'
_TEXT	ENDS
;	COMDAT ??_7?$basic_ios@DV?$char_traits@D@_STL@@@_STL@@6B@
CONST	SEGMENT DWORD USE32 PUBLIC 'CONST'
CONST	ENDS
;	COMDAT ??_R4?$basic_ios@DV?$char_traits@D@_STL@@@_STL@@6B@
rdata$r	SEGMENT DWORD USE32 PUBLIC 'CONST'
rdata$r	ENDS
;	COMDAT ??_R3?$basic_ios@DV?$char_traits@D@_STL@@@_STL@@8
rdata$r	SEGMENT DWORD USE32 PUBLIC 'CONST'
rdata$r	ENDS
;	COMDAT ??_R2?$basic_ios@DV?$char_traits@D@_STL@@@_STL@@8
rdata$r	SEGMENT DWORD USE32 PUBLIC 'CONST'
rdata$r	ENDS
;	COMDAT ??_R1A@?0A@A@?$basic_ios@DV?$char_traits@D@_STL@@@_STL@@8
rdata$r	SEGMENT DWORD USE32 PUBLIC 'CONST'
rdata$r	ENDS
;	COMDAT ??_R1A@?0A@A@ios_base@_STL@@8
rdata$r	SEGMENT DWORD USE32 PUBLIC 'CONST'
rdata$r	ENDS
;	COMDAT ??_G?$basic_ios@DV?$char_traits@D@_STL@@@_STL@@UAEPAXI@Z
_TEXT	SEGMENT PARA USE32 PUBLIC 'CODE'
_TEXT	ENDS
;	COMDAT ?_M_incr@_List_iterator_base@_STL@@QAEXXZ
_TEXT	SEGMENT PARA USE32 PUBLIC 'CODE'
_TEXT	ENDS
;	COMDAT ??1?$basic_filebuf@DV?$char_traits@D@_STL@@@_STL@@UAE@XZ
_TEXT	SEGMENT PARA USE32 PUBLIC 'CODE'
_TEXT	ENDS
;	COMDAT ??_7?$basic_filebuf@DV?$char_traits@D@_STL@@@_STL@@6B@
CONST	SEGMENT DWORD USE32 PUBLIC 'CONST'
CONST	ENDS
;	COMDAT ??_R4?$basic_filebuf@DV?$char_traits@D@_STL@@@_STL@@6B@
rdata$r	SEGMENT DWORD USE32 PUBLIC 'CONST'
rdata$r	ENDS
;	COMDAT ??_R0?AV?$basic_filebuf@DV?$char_traits@D@_STL@@@_STL@@@8
_DATA	SEGMENT DWORD USE32 PUBLIC 'DATA'
_DATA	ENDS
;	COMDAT ??_R3?$basic_filebuf@DV?$char_traits@D@_STL@@@_STL@@8
rdata$r	SEGMENT DWORD USE32 PUBLIC 'CONST'
rdata$r	ENDS
;	COMDAT ??_R2?$basic_filebuf@DV?$char_traits@D@_STL@@@_STL@@8
rdata$r	SEGMENT DWORD USE32 PUBLIC 'CONST'
rdata$r	ENDS
;	COMDAT ??_R1A@?0A@A@?$basic_filebuf@DV?$char_traits@D@_STL@@@_STL@@8
rdata$r	SEGMENT DWORD USE32 PUBLIC 'CONST'
rdata$r	ENDS
;	COMDAT ??_R1A@?0A@A@?$basic_streambuf@DV?$char_traits@D@_STL@@@_STL@@8
rdata$r	SEGMENT DWORD USE32 PUBLIC 'CONST'
rdata$r	ENDS
;	COMDAT ??_R0?AV?$basic_streambuf@DV?$char_traits@D@_STL@@@_STL@@@8
_DATA	SEGMENT DWORD USE32 PUBLIC 'DATA'
_DATA	ENDS
;	COMDAT ??_G?$basic_filebuf@DV?$char_traits@D@_STL@@@_STL@@UAEPAXI@Z
_TEXT	SEGMENT PARA USE32 PUBLIC 'CODE'
_TEXT	ENDS
;	COMDAT ?setbuf@?$basic_filebuf@DV?$char_traits@D@_STL@@@_STL@@MAEPAV?$basic_streambuf@DV?$char_traits@D@_STL@@@2@PADH@Z
_TEXT	SEGMENT PARA USE32 PUBLIC 'CODE'
_TEXT	ENDS
;	COMDAT ?seekoff@?$basic_filebuf@DV?$char_traits@D@_STL@@@_STL@@MAE?AV?$fpos@H@2@JHH@Z
_TEXT	SEGMENT PARA USE32 PUBLIC 'CODE'
_TEXT	ENDS
;	COMDAT ?_M_in_binary_mode@_Filebuf_base@_STL@@QBE_NXZ
_TEXT	SEGMENT PARA USE32 PUBLIC 'CODE'
_TEXT	ENDS
;	COMDAT ?length@?$codecvt@DDH@_STL@@QBEHABHPBD1I@Z
_TEXT	SEGMENT PARA USE32 PUBLIC 'CODE'
_TEXT	ENDS
;	COMDAT ?in@?$codecvt@DDH@_STL@@QBE?AW4result@codecvt_base@2@AAHPBD1AAPBDPAD3AAPAD@Z
_TEXT	SEGMENT PARA USE32 PUBLIC 'CODE'
_TEXT	ENDS
;	COMDAT ?eback@?$basic_streambuf@DV?$char_traits@D@_STL@@@_STL@@IBEPADXZ
_TEXT	SEGMENT PARA USE32 PUBLIC 'CODE'
_TEXT	ENDS
;	COMDAT ?_FILE_I_begin@_STL@@YAPADPBU_iobuf@@@Z
_TEXT	SEGMENT PARA USE32 PUBLIC 'CODE'
_TEXT	ENDS
;	COMDAT ?gptr@?$basic_streambuf@DV?$char_traits@D@_STL@@@_STL@@IBEPADXZ
_TEXT	SEGMENT PARA USE32 PUBLIC 'CODE'
_TEXT	ENDS
;	COMDAT ?_FILE_I_next@_STL@@YAPADPBU_iobuf@@@Z
_TEXT	SEGMENT PARA USE32 PUBLIC 'CODE'
_TEXT	ENDS
;	COMDAT ?_M_get_offset@_Filebuf_base@_STL@@QAEJPAD0@Z
_TEXT	SEGMENT PARA USE32 PUBLIC 'CODE'
_TEXT	ENDS
;	COMDAT ??$count@PADD@_STL@@YAHPAD0ABD@Z
_TEXT	SEGMENT PARA USE32 PUBLIC 'CODE'
_TEXT	ENDS
;	COMDAT ?seekpos@?$basic_filebuf@DV?$char_traits@D@_STL@@@_STL@@MAE?AV?$fpos@H@2@V32@H@Z
_TEXT	SEGMENT PARA USE32 PUBLIC 'CODE'
_TEXT	ENDS
;	COMDAT ?sync@?$basic_filebuf@DV?$char_traits@D@_STL@@@_STL@@MAEHXZ
_TEXT	SEGMENT PARA USE32 PUBLIC 'CODE'
_TEXT	ENDS
;	COMDAT ?showmanyc@?$basic_filebuf@DV?$char_traits@D@_STL@@@_STL@@MAEHXZ
_TEXT	SEGMENT PARA USE32 PUBLIC 'CODE'
_TEXT	ENDS
;	COMDAT ?egptr@?$basic_streambuf@DV?$char_traits@D@_STL@@@_STL@@IBEPADXZ
_TEXT	SEGMENT PARA USE32 PUBLIC 'CODE'
_TEXT	ENDS
;	COMDAT ?_FILE_I_end@_STL@@YAPADPBU_iobuf@@@Z
_TEXT	SEGMENT PARA USE32 PUBLIC 'CODE'
_TEXT	ENDS
;	COMDAT ?underflow@?$basic_filebuf@DV?$char_traits@D@_STL@@@_STL@@MAEHXZ
_TEXT	SEGMENT PARA USE32 PUBLIC 'CODE'
_TEXT	ENDS
;	COMDAT ?pbackfail@?$basic_filebuf@DV?$char_traits@D@_STL@@@_STL@@MAEHH@Z
_TEXT	SEGMENT PARA USE32 PUBLIC 'CODE'
_TEXT	ENDS
;	COMDAT ?gbump@?$basic_streambuf@DV?$char_traits@D@_STL@@@_STL@@IAEXH@Z
_TEXT	SEGMENT PARA USE32 PUBLIC 'CODE'
_TEXT	ENDS
;	COMDAT ?_FILE_I_bump@_STL@@YAXPAU_iobuf@@H@Z
_TEXT	SEGMENT PARA USE32 PUBLIC 'CODE'
_TEXT	ENDS
;	COMDAT ?to_int_type@?$char_traits@D@_STL@@SAHABD@Z
_TEXT	SEGMENT PARA USE32 PUBLIC 'CODE'
_TEXT	ENDS
;	COMDAT ?to_char_type@?$char_traits@D@_STL@@SADABH@Z
_TEXT	SEGMENT PARA USE32 PUBLIC 'CODE'
_TEXT	ENDS
;	COMDAT ?overflow@?$basic_filebuf@DV?$char_traits@D@_STL@@@_STL@@MAEHH@Z
_TEXT	SEGMENT PARA USE32 PUBLIC 'CODE'
_TEXT	ENDS
;	COMDAT ?pptr@?$basic_streambuf@DV?$char_traits@D@_STL@@@_STL@@IBEPADXZ
_TEXT	SEGMENT PARA USE32 PUBLIC 'CODE'
_TEXT	ENDS
;	COMDAT ?_FILE_O_next@_STL@@YAPADPBU_iobuf@@@Z
_TEXT	SEGMENT PARA USE32 PUBLIC 'CODE'
_TEXT	ENDS
;	COMDAT ?out@?$codecvt@DDH@_STL@@QBE?AW4result@codecvt_base@2@AAHPBD1AAPBDPAD3AAPAD@Z
_TEXT	SEGMENT PARA USE32 PUBLIC 'CODE'
_TEXT	ENDS
;	COMDAT ?_M_doit@?$_Noconv_output@V?$char_traits@D@_STL@@@_STL@@SA_NPAV?$basic_filebuf@DV?$char_traits@D@_STL@@@2@PAD1@Z
_TEXT	SEGMENT PARA USE32 PUBLIC 'CODE'
_TEXT	ENDS
;	COMDAT ?imbue@?$basic_filebuf@DV?$char_traits@D@_STL@@@_STL@@MAEXABVlocale@2@@Z
_TEXT	SEGMENT PARA USE32 PUBLIC 'CODE'
_TEXT	ENDS
;	COMDAT ??1?$basic_ostream@DV?$char_traits@D@_STL@@@_STL@@UAE@XZ
_TEXT	SEGMENT PARA USE32 PUBLIC 'CODE'
_TEXT	ENDS
;	COMDAT ??_7?$basic_ostream@DV?$char_traits@D@_STL@@@_STL@@6B@
CONST	SEGMENT DWORD USE32 PUBLIC 'CONST'
CONST	ENDS
;	COMDAT ??_R4?$basic_ostream@DV?$char_traits@D@_STL@@@_STL@@6B@
rdata$r	SEGMENT DWORD USE32 PUBLIC 'CONST'
rdata$r	ENDS
;	COMDAT ??_R3?$basic_ostream@DV?$char_traits@D@_STL@@@_STL@@8
rdata$r	SEGMENT DWORD USE32 PUBLIC 'CONST'
rdata$r	ENDS
;	COMDAT ??_R2?$basic_ostream@DV?$char_traits@D@_STL@@@_STL@@8
rdata$r	SEGMENT DWORD USE32 PUBLIC 'CONST'
rdata$r	ENDS
;	COMDAT ??_G?$basic_ostream@DV?$char_traits@D@_STL@@@_STL@@UAEPAXI@Z
_TEXT	SEGMENT PARA USE32 PUBLIC 'CODE'
_TEXT	ENDS
;	COMDAT ??_D?$basic_ostream@DV?$char_traits@D@_STL@@@_STL@@QAEXXZ
_TEXT	SEGMENT PARA USE32 PUBLIC 'CODE'
_TEXT	ENDS
;	COMDAT ??_7?$basic_ofstream@DV?$char_traits@D@_STL@@@_STL@@6B@
CONST	SEGMENT DWORD USE32 PUBLIC 'CONST'
CONST	ENDS
;	COMDAT ?setp@?$basic_streambuf@DV?$char_traits@D@_STL@@@_STL@@IAEXPAD0@Z
_TEXT	SEGMENT PARA USE32 PUBLIC 'CODE'
_TEXT	ENDS
;	COMDAT ?_FILE_O_set@_STL@@YAXPAU_iobuf@@PAD11@Z
_TEXT	SEGMENT PARA USE32 PUBLIC 'CODE'
_TEXT	ENDS
;	COMDAT ?_FILE_I_set@_STL@@YAXPAU_iobuf@@PAD11@Z
_TEXT	SEGMENT PARA USE32 PUBLIC 'CODE'
_TEXT	ENDS
;	COMDAT ?setg@?$basic_streambuf@DV?$char_traits@D@_STL@@@_STL@@IAEXPAD00@Z
_TEXT	SEGMENT PARA USE32 PUBLIC 'CODE'
_TEXT	ENDS
;	COMDAT ?__is_open@_Filebuf_base@_STL@@QBE_NXZ
_TEXT	SEGMENT PARA USE32 PUBLIC 'CODE'
_TEXT	ENDS
;	COMDAT ?allocate@?$__node_alloc@$00$0A@@_STL@@SAPAXI@Z
_TEXT	SEGMENT PARA USE32 PUBLIC 'CODE'
_TEXT	ENDS
;	COMDAT ?__stl_new@_STL@@YAPAXI@Z
_TEXT	SEGMENT PARA USE32 PUBLIC 'CODE'
_TEXT	ENDS
;	COMDAT ??1?$_STLP_alloc_proxy@PADDV?$allocator@D@_STL@@@_STL@@QAE@XZ
_TEXT	SEGMENT PARA USE32 PUBLIC 'CODE'
_TEXT	ENDS
;	COMDAT ?length@?$char_traits@D@_STL@@SAIPBD@Z
_TEXT	SEGMENT PARA USE32 PUBLIC 'CODE'
_TEXT	ENDS
;	COMDAT ??1?$allocator@D@_STL@@QAE@XZ
_TEXT	SEGMENT PARA USE32 PUBLIC 'CODE'
_TEXT	ENDS
;	COMDAT ?eof@?$__char_traits_base@DH@_STL@@SAHXZ
_TEXT	SEGMENT PARA USE32 PUBLIC 'CODE'
_TEXT	ENDS
;	COMDAT ??8_Rb_tree_base_iterator@_STL@@QBE_NABU01@@Z
_TEXT	SEGMENT PARA USE32 PUBLIC 'CODE'
_TEXT	ENDS
;	COMDAT ??9_Rb_tree_base_iterator@_STL@@QBE_NABU01@@Z
_TEXT	SEGMENT PARA USE32 PUBLIC 'CODE'
_TEXT	ENDS
;	COMDAT ??9_List_iterator_base@_STL@@QBE_NABU01@@Z
_TEXT	SEGMENT PARA USE32 PUBLIC 'CODE'
_TEXT	ENDS
;	COMDAT ??1?$allocator@G@_STL@@QAE@XZ
_TEXT	SEGMENT PARA USE32 PUBLIC 'CODE'
_TEXT	ENDS
;	COMDAT ??0CRect@@QAE@XZ
_TEXT	SEGMENT PARA USE32 PUBLIC 'CODE'
_TEXT	ENDS
;	COMDAT ??_7ovfstream@@6B@
CONST	SEGMENT DWORD USE32 PUBLIC 'CONST'
CONST	ENDS
;	COMDAT ??_7ivfstream@@6B@
CONST	SEGMENT DWORD USE32 PUBLIC 'CONST'
CONST	ENDS
;	COMDAT ??0?$basic_string@DV?$char_traits@D@_STL@@V?$allocator@D@2@@_STL@@QAE@XZ
_TEXT	SEGMENT PARA USE32 PUBLIC 'CODE'
_TEXT	ENDS
;	COMDAT ??0?$allocator@D@_STL@@QAE@XZ
_TEXT	SEGMENT PARA USE32 PUBLIC 'CODE'
_TEXT	ENDS
;	COMDAT ??1?$_String_base@DV?$allocator@D@_STL@@@_STL@@QAE@XZ
_TEXT	SEGMENT PARA USE32 PUBLIC 'CODE'
_TEXT	ENDS
;	COMDAT ??1?$basic_string@DV?$char_traits@D@_STL@@V?$allocator@D@2@@_STL@@QAE@XZ
_TEXT	SEGMENT PARA USE32 PUBLIC 'CODE'
_TEXT	ENDS
;	COMDAT ??_7iovfs_base@@6B@
CONST	SEGMENT DWORD USE32 PUBLIC 'CONST'
CONST	ENDS
;	COMDAT ??_7IFileIO@@6B@
CONST	SEGMENT DWORD USE32 PUBLIC 'CONST'
CONST	ENDS
sxdata	SEGMENT DWORD USE32 'SXDATA'
sxdata	ENDS
FLAT	GROUP _DATA, CONST, _BSS
	ASSUME	CS: FLAT, DS: FLAT, SS: FLAT
endif

INCLUDELIB LIBCMT
INCLUDELIB OLDNAMES

PUBLIC	?g_pZoneTable@@3PAVCZoneTable@@A		; g_pZoneTable
_BSS	SEGMENT
?g_pZoneTable@@3PAVCZoneTable@@A DD 01H DUP (?)		; g_pZoneTable
_BSS	ENDS
PUBLIC	??2@YAPAXIPAX@Z					; operator new
; Function compile flags: /Ogsy
; File c:\program files\microsoft visual studio .net 2003\vc7\include\new
;	COMDAT ??2@YAPAXIPAX@Z
_TEXT	SEGMENT
___formal$ = 8						; size = 4
__Where$ = 12						; size = 4
??2@YAPAXIPAX@Z PROC NEAR				; operator new, COMDAT

; 64   : 	return (_Where);

  00000	8b 44 24 08	 mov	 eax, DWORD PTR __Where$[esp-4]

; 65   : 	}

  00004	c3		 ret	 0
??2@YAPAXIPAX@Z ENDP					; operator new
_TEXT	ENDS
PUBLIC	??3@YAXPAX0@Z					; operator delete
; Function compile flags: /Ogsy
;	COMDAT ??3@YAXPAX0@Z
_TEXT	SEGMENT
___formal$ = 8						; size = 4
___formal$ = 12						; size = 4
??3@YAXPAX0@Z PROC NEAR					; operator delete, COMDAT

; 69   : 	}

  00000	c3		 ret	 0
??3@YAXPAX0@Z ENDP					; operator delete
_TEXT	ENDS
PUBLIC	?__stl_new@_STL@@YAPAXI@Z			; _STL::__stl_new
EXTRN	??2@YAPAXI@Z:NEAR				; operator new
; Function compile flags: /Ogsy
; File c:\stlport-4.6.1\stlport\stl\_new.h
;	COMDAT ?__stl_new@_STL@@YAPAXI@Z
_TEXT	SEGMENT
___n$ = 8						; size = 4
?__stl_new@_STL@@YAPAXI@Z PROC NEAR			; _STL::__stl_new, COMDAT

; 86   : inline void*  _STLP_CALL __stl_new(size_t __n)   { _STLP_CHECK_NULL_ALLOC(::operator _STLP_NEW(__n)); }

  00000	e9 00 00 00 00	 jmp	 ??2@YAPAXI@Z		; operator new
?__stl_new@_STL@@YAPAXI@Z ENDP				; _STL::__stl_new
_TEXT	ENDS
PUBLIC	?__stl_delete@_STL@@YAXPAX@Z			; _STL::__stl_delete
EXTRN	??3@YAXPAX@Z:NEAR				; operator delete
; Function compile flags: /Ogsy
;	COMDAT ?__stl_delete@_STL@@YAXPAX@Z
_TEXT	SEGMENT
___p$ = 8						; size = 4
?__stl_delete@_STL@@YAXPAX@Z PROC NEAR			; _STL::__stl_delete, COMDAT

; 87   : inline void   _STLP_CALL __stl_delete(void* __p) { ::operator delete(__p); }

  00000	e9 00 00 00 00	 jmp	 ??3@YAXPAX@Z		; operator delete
?__stl_delete@_STL@@YAXPAX@Z ENDP			; _STL::__stl_delete
_TEXT	ENDS
PUBLIC	?read@ivfstream@@QAEXPADI@Z			; ivfstream::read
; Function compile flags: /Ogsy
; File c:\darkeden\designed_common\project\client\virtualfilesystem\vfstream.inl
;	COMDAT ?read@ivfstream@@QAEXPADI@Z
_TEXT	SEGMENT
_buf$ = 8						; size = 4
_len$ = 12						; size = 4
?read@ivfstream@@QAEXPADI@Z PROC NEAR			; ivfstream::read, COMDAT
; _this$ = ecx

; 81   : 	if(m_pFileIO) m_pFileIO->read(buf, len);

  00000	83 79 04 00	 cmp	 DWORD PTR [ecx+4], 0
  00004	74 08		 je	 SHORT $L100685
  00006	8b 49 04	 mov	 ecx, DWORD PTR [ecx+4]
  00009	8b 01		 mov	 eax, DWORD PTR [ecx]
  0000b	ff 60 10	 jmp	 DWORD PTR [eax+16]
$L100685:

; 82   : }

  0000e	c2 08 00	 ret	 8
?read@ivfstream@@QAEXPADI@Z ENDP			; ivfstream::read
_TEXT	ENDS
PUBLIC	?LoadFromFile@WORLDMAP_INFO@@QAEXAAVivfstream@@@Z ; WORLDMAP_INFO::LoadFromFile
; Function compile flags: /Ogsy
; File c:\darkeden\designed_common\project\client\mzonetable.cpp
;	COMDAT ?LoadFromFile@WORLDMAP_INFO@@QAEXAAVivfstream@@@Z
_TEXT	SEGMENT
_file$ = 8						; size = 4
?LoadFromFile@WORLDMAP_INFO@@QAEXAAVivfstream@@@Z PROC NEAR ; WORLDMAP_INFO::LoadFromFile, COMDAT
; _this$ = ecx

; 98   : {

  00000	53		 push	 ebx
  00001	55		 push	 ebp
  00002	56		 push	 esi

; 99   : 	file.read((char*)&WorldMapType, sizeof(WORLDMAP_TYPE));

  00003	8b 74 24 10	 mov	 esi, DWORD PTR _file$[esp+8]
  00007	33 ed		 xor	 ebp, ebp
  00009	39 6e 04	 cmp	 DWORD PTR [esi+4], ebp
  0000c	57		 push	 edi
  0000d	8b f9		 mov	 edi, ecx
  0000f	74 0b		 je	 SHORT $L104155
  00011	8b 4e 04	 mov	 ecx, DWORD PTR [esi+4]
  00014	8b 01		 mov	 eax, DWORD PTR [ecx]
  00016	6a 04		 push	 4
  00018	57		 push	 edi
  00019	ff 50 10	 call	 DWORD PTR [eax+16]
$L104155:

; 100  : 
; 101  : 	if(WorldMapType != WORLDMAP_MAX)

  0001c	33 db		 xor	 ebx, ebx
  0001e	43		 inc	 ebx
  0001f	39 1f		 cmp	 DWORD PTR [edi], ebx
  00021	0f 84 9f 00 00
	00		 je	 $L102058

; 102  : 	{
; 103  : 		file.read((char*)&PaymentType, sizeof(PAYMENT_TYPE));

  00027	39 6e 04	 cmp	 DWORD PTR [esi+4], ebp
  0002a	0f 84 8d 00 00
	00		 je	 $L104195
  00030	8b 4e 04	 mov	 ecx, DWORD PTR [esi+4]
  00033	8b 01		 mov	 eax, DWORD PTR [ecx]
  00035	6a 04		 push	 4
  00037	8d 57 04	 lea	 edx, DWORD PTR [edi+4]
  0003a	52		 push	 edx
  0003b	ff 50 10	 call	 DWORD PTR [eax+16]

; 104  : 		file.read((char*)&WorldMapPosition, sizeof(CRect));

  0003e	39 6e 04	 cmp	 DWORD PTR [esi+4], ebp
  00041	74 7a		 je	 SHORT $L104195
  00043	8b 4e 04	 mov	 ecx, DWORD PTR [esi+4]
  00046	8b 01		 mov	 eax, DWORD PTR [ecx]
  00048	6a 10		 push	 16			; 00000010H
  0004a	8d 57 08	 lea	 edx, DWORD PTR [edi+8]
  0004d	52		 push	 edx
  0004e	ff 50 10	 call	 DWORD PTR [eax+16]

; 105  : 
; 106  : 		/*
; 107  : 		BYTE AppearCreatureSize;
; 108  : 		file.read((char*)&AppearCreatureSize, sizeof(BYTE));
; 109  : 
; 110  : 		for(int i = 0; i < AppearCreatureSize; ++i) {
; 111  : 			TYPE_CREATURETYPE creatureType;
; 112  : 			file.read((char*)&creatureType, SIZE_CREATURETYPE);
; 113  : 			AppearCreatureVec.push_back(creatureType);
; 114  : 		}
; 115  : 		*/
; 116  : 
; 117  : 		file.read((char*)&EncourageSlayerLevelMin, sizeof(BYTE));

  00051	39 6e 04	 cmp	 DWORD PTR [esi+4], ebp
  00054	74 67		 je	 SHORT $L104195
  00056	8b 4e 04	 mov	 ecx, DWORD PTR [esi+4]
  00059	8b 01		 mov	 eax, DWORD PTR [ecx]
  0005b	53		 push	 ebx
  0005c	8d 57 18	 lea	 edx, DWORD PTR [edi+24]
  0005f	52		 push	 edx
  00060	ff 50 10	 call	 DWORD PTR [eax+16]

; 118  : 		file.read((char*)&EncourageSlayerLevelMax, sizeof(BYTE));

  00063	39 6e 04	 cmp	 DWORD PTR [esi+4], ebp
  00066	74 55		 je	 SHORT $L104195
  00068	8b 4e 04	 mov	 ecx, DWORD PTR [esi+4]
  0006b	8b 01		 mov	 eax, DWORD PTR [ecx]
  0006d	53		 push	 ebx
  0006e	8d 57 19	 lea	 edx, DWORD PTR [edi+25]
  00071	52		 push	 edx
  00072	ff 50 10	 call	 DWORD PTR [eax+16]

; 119  : 
; 120  : 		file.read((char*)&EncourageVampireLevelMin, sizeof(BYTE));

  00075	39 6e 04	 cmp	 DWORD PTR [esi+4], ebp
  00078	74 43		 je	 SHORT $L104195
  0007a	8b 4e 04	 mov	 ecx, DWORD PTR [esi+4]
  0007d	8b 01		 mov	 eax, DWORD PTR [ecx]
  0007f	53		 push	 ebx
  00080	8d 57 1a	 lea	 edx, DWORD PTR [edi+26]
  00083	52		 push	 edx
  00084	ff 50 10	 call	 DWORD PTR [eax+16]

; 121  : 		file.read((char*)&EncourageVampireLevelMax, sizeof(BYTE));

  00087	39 6e 04	 cmp	 DWORD PTR [esi+4], ebp
  0008a	74 31		 je	 SHORT $L104195
  0008c	8b 4e 04	 mov	 ecx, DWORD PTR [esi+4]
  0008f	8b 01		 mov	 eax, DWORD PTR [ecx]
  00091	53		 push	 ebx
  00092	8d 57 1b	 lea	 edx, DWORD PTR [edi+27]
  00095	52		 push	 edx
  00096	ff 50 10	 call	 DWORD PTR [eax+16]

; 122  : 
; 123  : 		file.read((char*)&EncourageOustersLevelMin, sizeof(BYTE));

  00099	39 6e 04	 cmp	 DWORD PTR [esi+4], ebp
  0009c	74 1f		 je	 SHORT $L104195
  0009e	8b 4e 04	 mov	 ecx, DWORD PTR [esi+4]
  000a1	8b 01		 mov	 eax, DWORD PTR [ecx]
  000a3	53		 push	 ebx
  000a4	8d 57 1c	 lea	 edx, DWORD PTR [edi+28]
  000a7	52		 push	 edx
  000a8	ff 50 10	 call	 DWORD PTR [eax+16]

; 124  : 		file.read((char*)&EncourageOustersLevelMax, sizeof(BYTE));

  000ab	39 6e 04	 cmp	 DWORD PTR [esi+4], ebp
  000ae	74 0d		 je	 SHORT $L104195
  000b0	8b 4e 04	 mov	 ecx, DWORD PTR [esi+4]
  000b3	8b 01		 mov	 eax, DWORD PTR [ecx]
  000b5	53		 push	 ebx
  000b6	8d 57 1d	 lea	 edx, DWORD PTR [edi+29]
  000b9	52		 push	 edx
  000ba	ff 50 10	 call	 DWORD PTR [eax+16]
$L104195:

; 125  : 
; 126  : 		MiscDescription.LoadFromFile(file);

  000bd	8d 4f 20	 lea	 ecx, DWORD PTR [edi+32]
  000c0	8b 01		 mov	 eax, DWORD PTR [ecx]
  000c2	56		 push	 esi
  000c3	ff 50 08	 call	 DWORD PTR [eax+8]
$L102058:
  000c6	5f		 pop	 edi
  000c7	5e		 pop	 esi
  000c8	5d		 pop	 ebp
  000c9	5b		 pop	 ebx

; 127  : 	}
; 128  : 
; 129  : }

  000ca	c2 04 00	 ret	 4
?LoadFromFile@WORLDMAP_INFO@@QAEXAAVivfstream@@@Z ENDP	; WORLDMAP_INFO::LoadFromFile
_TEXT	ENDS
PUBLIC	??1WORLDMAP_INFO@@QAE@XZ			; WORLDMAP_INFO::~WORLDMAP_INFO
EXTRN	??1MString@@UAE@XZ:NEAR				; MString::~MString
; Function compile flags: /Ogsy
;	COMDAT ??1WORLDMAP_INFO@@QAE@XZ
_TEXT	SEGMENT
??1WORLDMAP_INFO@@QAE@XZ PROC NEAR			; WORLDMAP_INFO::~WORLDMAP_INFO, COMDAT
; _this$ = ecx
  00000	83 c1 20	 add	 ecx, 32			; 00000020H
  00003	e9 00 00 00 00	 jmp	 ??1MString@@UAE@XZ	; MString::~MString
??1WORLDMAP_INFO@@QAE@XZ ENDP				; WORLDMAP_INFO::~WORLDMAP_INFO
_TEXT	ENDS
PUBLIC	??0?$allocator@G@_STL@@QAE@XZ			; _STL::allocator<unsigned short>::allocator<unsigned short>
; Function compile flags: /Ogsy
; File c:\stlport-4.6.1\stlport\stl\_alloc.h
;	COMDAT ??0?$allocator@G@_STL@@QAE@XZ
_TEXT	SEGMENT
??0?$allocator@G@_STL@@QAE@XZ PROC NEAR			; _STL::allocator<unsigned short>::allocator<unsigned short>, COMDAT
; _this$ = ecx

; 345  :   allocator() _STLP_NOTHROW {}

  00000	8b c1		 mov	 eax, ecx
  00002	c3		 ret	 0
??0?$allocator@G@_STL@@QAE@XZ ENDP			; _STL::allocator<unsigned short>::allocator<unsigned short>
_TEXT	ENDS
PUBLIC	?begin@?$vector@VMString@@V?$allocator@VMString@@@_STL@@@_STL@@QAEPAVMString@@XZ ; _STL::vector<MString,_STL::allocator<MString> >::begin
; Function compile flags: /Ogsy
; File c:\stlport-4.6.1\stlport\stl\_vector.h
;	COMDAT ?begin@?$vector@VMString@@V?$allocator@VMString@@@_STL@@@_STL@@QAEPAVMString@@XZ
_TEXT	SEGMENT
?begin@?$vector@VMString@@V?$allocator@VMString@@@_STL@@@_STL@@QAEPAVMString@@XZ PROC NEAR ; _STL::vector<MString,_STL::allocator<MString> >::begin, COMDAT
; _this$ = ecx

; 172  :   iterator begin()             { return this->_M_start; }

  00000	8b 01		 mov	 eax, DWORD PTR [ecx]
  00002	c3		 ret	 0
?begin@?$vector@VMString@@V?$allocator@VMString@@@_STL@@@_STL@@QAEPAVMString@@XZ ENDP ; _STL::vector<MString,_STL::allocator<MString> >::begin
_TEXT	ENDS
PUBLIC	?end@?$vector@VMString@@V?$allocator@VMString@@@_STL@@@_STL@@QAEPAVMString@@XZ ; _STL::vector<MString,_STL::allocator<MString> >::end
; Function compile flags: /Ogsy
;	COMDAT ?end@?$vector@VMString@@V?$allocator@VMString@@@_STL@@@_STL@@QAEPAVMString@@XZ
_TEXT	SEGMENT
?end@?$vector@VMString@@V?$allocator@VMString@@@_STL@@@_STL@@QAEPAVMString@@XZ PROC NEAR ; _STL::vector<MString,_STL::allocator<MString> >::end, COMDAT
; _this$ = ecx

; 174  :   iterator end()               { return this->_M_finish; }

  00000	8b 41 04	 mov	 eax, DWORD PTR [ecx+4]
  00003	c3		 ret	 0
?end@?$vector@VMString@@V?$allocator@VMString@@@_STL@@@_STL@@QAEPAVMString@@XZ ENDP ; _STL::vector<MString,_STL::allocator<MString> >::end
_TEXT	ENDS
PUBLIC	?flags@ios_base@_STL@@QBEHXZ			; _STL::ios_base::flags
; Function compile flags: /Ogsy
; File c:\stlport-4.6.1\stlport\stl\_ios_base.h
;	COMDAT ?flags@ios_base@_STL@@QBEHXZ
_TEXT	SEGMENT
?flags@ios_base@_STL@@QBEHXZ PROC NEAR			; _STL::ios_base::flags, COMDAT
; _this$ = ecx

; 115  :   fmtflags flags() const { return _M_fmtflags; }

  00000	8b 41 04	 mov	 eax, DWORD PTR [ecx+4]
  00003	c3		 ret	 0
?flags@ios_base@_STL@@QBEHXZ ENDP			; _STL::ios_base::flags
_TEXT	ENDS
PUBLIC	?size@?$vector@VMString@@V?$allocator@VMString@@@_STL@@@_STL@@QBEIXZ ; _STL::vector<MString,_STL::allocator<MString> >::size
; Function compile flags: /Ogsy
; File c:\stlport-4.6.1\stlport\stl\_vector.h
;	COMDAT ?size@?$vector@VMString@@V?$allocator@VMString@@@_STL@@@_STL@@QBEIXZ
_TEXT	SEGMENT
?size@?$vector@VMString@@V?$allocator@VMString@@@_STL@@@_STL@@QBEIXZ PROC NEAR ; _STL::vector<MString,_STL::allocator<MString> >::size, COMDAT
; _this$ = ecx

; 182  :   size_type size() const        { return size_type(this->_M_finish - this->_M_start); }

  00000	8b 41 04	 mov	 eax, DWORD PTR [ecx+4]
  00003	2b 01		 sub	 eax, DWORD PTR [ecx]
  00005	6a 0c		 push	 12			; 0000000cH
  00007	99		 cdq
  00008	59		 pop	 ecx
  00009	f7 f9		 idiv	 ecx
  0000b	c3		 ret	 0
?size@?$vector@VMString@@V?$allocator@VMString@@@_STL@@@_STL@@QBEIXZ ENDP ; _STL::vector<MString,_STL::allocator<MString> >::size
_TEXT	ENDS
PUBLIC	??0?$allocator@VMString@@@_STL@@QAE@XZ		; _STL::allocator<MString>::allocator<MString>
; Function compile flags: /Ogsy
; File c:\stlport-4.6.1\stlport\stl\_alloc.h
;	COMDAT ??0?$allocator@VMString@@@_STL@@QAE@XZ
_TEXT	SEGMENT
??0?$allocator@VMString@@@_STL@@QAE@XZ PROC NEAR	; _STL::allocator<MString>::allocator<MString>, COMDAT
; _this$ = ecx

; 345  :   allocator() _STLP_NOTHROW {}

  00000	8b c1		 mov	 eax, ecx
  00002	c3		 ret	 0
??0?$allocator@VMString@@@_STL@@QAE@XZ ENDP		; _STL::allocator<MString>::allocator<MString>
_TEXT	ENDS
PUBLIC	??1?$allocator@VMString@@@_STL@@QAE@XZ		; _STL::allocator<MString>::~allocator<MString>
; Function compile flags: /Ogsy
;	COMDAT ??1?$allocator@VMString@@@_STL@@QAE@XZ
_TEXT	SEGMENT
??1?$allocator@VMString@@@_STL@@QAE@XZ PROC NEAR	; _STL::allocator<MString>::~allocator<MString>, COMDAT
; _this$ = ecx

; 350  :   ~allocator() _STLP_NOTHROW {}

  00000	c3		 ret	 0
??1?$allocator@VMString@@@_STL@@QAE@XZ ENDP		; _STL::allocator<MString>::~allocator<MString>
_TEXT	ENDS
PUBLIC	?rdstate@ios_base@_STL@@QBEHXZ			; _STL::ios_base::rdstate
; Function compile flags: /Ogsy
; File c:\stlport-4.6.1\stlport\stl\_ios_base.h
;	COMDAT ?rdstate@ios_base@_STL@@QBEHXZ
_TEXT	SEGMENT
?rdstate@ios_base@_STL@@QBEHXZ PROC NEAR		; _STL::ios_base::rdstate, COMDAT
; _this$ = ecx

; 178  :   iostate rdstate() const { return _M_iostate; }

  00000	8b 41 08	 mov	 eax, DWORD PTR [ecx+8]
  00003	c3		 ret	 0
?rdstate@ios_base@_STL@@QBEHXZ ENDP			; _STL::ios_base::rdstate
_TEXT	ENDS
PUBLIC	?good@ios_base@_STL@@QBE_NXZ			; _STL::ios_base::good
; Function compile flags: /Ogsy
;	COMDAT ?good@ios_base@_STL@@QBE_NXZ
_TEXT	SEGMENT
?good@ios_base@_STL@@QBE_NXZ PROC NEAR			; _STL::ios_base::good, COMDAT
; _this$ = ecx

; 180  :   bool good() const { return _M_iostate == 0; }

  00000	33 c0		 xor	 eax, eax
  00002	39 41 08	 cmp	 DWORD PTR [ecx+8], eax
  00005	0f 94 c0	 sete	 al
  00008	c3		 ret	 0
?good@ios_base@_STL@@QBE_NXZ ENDP			; _STL::ios_base::good
_TEXT	ENDS
PUBLIC	?_M_setstate_nothrow@ios_base@_STL@@IAEXH@Z	; _STL::ios_base::_M_setstate_nothrow
; Function compile flags: /Ogsy
;	COMDAT ?_M_setstate_nothrow@ios_base@_STL@@IAEXH@Z
_TEXT	SEGMENT
___state$ = 8						; size = 4
?_M_setstate_nothrow@ios_base@_STL@@IAEXH@Z PROC NEAR	; _STL::ios_base::_M_setstate_nothrow, COMDAT
; _this$ = ecx

; 193  :   void _M_setstate_nothrow(iostate __state) { _M_iostate |= __state; }

  00000	8b 44 24 04	 mov	 eax, DWORD PTR ___state$[esp-4]
  00004	09 41 08	 or	 DWORD PTR [ecx+8], eax
  00007	c2 04 00	 ret	 4
?_M_setstate_nothrow@ios_base@_STL@@IAEXH@Z ENDP	; _STL::ios_base::_M_setstate_nothrow
_TEXT	ENDS
PUBLIC	?_M_clear_nothrow@ios_base@_STL@@IAEXH@Z	; _STL::ios_base::_M_clear_nothrow
; Function compile flags: /Ogsy
;	COMDAT ?_M_clear_nothrow@ios_base@_STL@@IAEXH@Z
_TEXT	SEGMENT
___state$ = 8						; size = 4
?_M_clear_nothrow@ios_base@_STL@@IAEXH@Z PROC NEAR	; _STL::ios_base::_M_clear_nothrow, COMDAT
; _this$ = ecx

; 194  :   void _M_clear_nothrow(iostate __state) { _M_iostate = __state; }

  00000	8b 44 24 04	 mov	 eax, DWORD PTR ___state$[esp-4]
  00004	89 41 08	 mov	 DWORD PTR [ecx+8], eax
  00007	c2 04 00	 ret	 4
?_M_clear_nothrow@ios_base@_STL@@IAEXH@Z ENDP		; _STL::ios_base::_M_clear_nothrow
_TEXT	ENDS
PUBLIC	?_M_get_exception_mask@ios_base@_STL@@IBEHXZ	; _STL::ios_base::_M_get_exception_mask
; Function compile flags: /Ogsy
;	COMDAT ?_M_get_exception_mask@ios_base@_STL@@IBEHXZ
_TEXT	SEGMENT
?_M_get_exception_mask@ios_base@_STL@@IBEHXZ PROC NEAR	; _STL::ios_base::_M_get_exception_mask, COMDAT
; _this$ = ecx

; 195  :   iostate _M_get_exception_mask() const { return _M_exception_mask; }

  00000	8b 41 14	 mov	 eax, DWORD PTR [ecx+20]
  00003	c3		 ret	 0
?_M_get_exception_mask@ios_base@_STL@@IBEHXZ ENDP	; _STL::ios_base::_M_get_exception_mask
_TEXT	ENDS
PUBLIC	?_M_check_exception_mask@ios_base@_STL@@IAEXXZ	; _STL::ios_base::_M_check_exception_mask
EXTRN	?_M_throw_failure@ios_base@_STL@@IAEXXZ:NEAR	; _STL::ios_base::_M_throw_failure
; Function compile flags: /Ogsy
;	COMDAT ?_M_check_exception_mask@ios_base@_STL@@IAEXXZ
_TEXT	SEGMENT
?_M_check_exception_mask@ios_base@_STL@@IAEXXZ PROC NEAR ; _STL::ios_base::_M_check_exception_mask, COMDAT
; _this$ = ecx

; 198  :     if (_M_iostate & _M_exception_mask)

  00000	8b 41 14	 mov	 eax, DWORD PTR [ecx+20]
  00003	85 41 08	 test	 eax, DWORD PTR [ecx+8]
  00006	74 05		 je	 SHORT $L79498

; 199  :       _M_throw_failure(); 

  00008	e9 00 00 00 00	 jmp	 ?_M_throw_failure@ios_base@_STL@@IAEXXZ ; _STL::ios_base::_M_throw_failure
$L79498:

; 200  :   }

  0000d	c3		 ret	 0
?_M_check_exception_mask@ios_base@_STL@@IAEXXZ ENDP	; _STL::ios_base::_M_check_exception_mask
_TEXT	ENDS
PUBLIC	??D?$_List_iterator@GU?$_Const_traits@G@_STL@@@_STL@@QBEABGXZ ; _STL::_List_iterator<unsigned short,_STL::_Const_traits<unsigned short> >::operator*
; Function compile flags: /Ogsy
; File c:\stlport-4.6.1\stlport\stl\_list.h
;	COMDAT ??D?$_List_iterator@GU?$_Const_traits@G@_STL@@@_STL@@QBEABGXZ
_TEXT	SEGMENT
??D?$_List_iterator@GU?$_Const_traits@G@_STL@@@_STL@@QBEABGXZ PROC NEAR ; _STL::_List_iterator<unsigned short,_STL::_Const_traits<unsigned short> >::operator*, COMDAT
; _this$ = ecx

; 130  :   reference operator*() const { return ((_Node*)_M_node)->_M_data; }

  00000	8b 01		 mov	 eax, DWORD PTR [ecx]
  00002	83 c0 08	 add	 eax, 8
  00005	c3		 ret	 0
??D?$_List_iterator@GU?$_Const_traits@G@_STL@@@_STL@@QBEABGXZ ENDP ; _STL::_List_iterator<unsigned short,_STL::_Const_traits<unsigned short> >::operator*
_TEXT	ENDS
PUBLIC	??D?$_List_iterator@GU?$_Nonconst_traits@G@_STL@@@_STL@@QBEAAGXZ ; _STL::_List_iterator<unsigned short,_STL::_Nonconst_traits<unsigned short> >::operator*
; Function compile flags: /Ogsy
;	COMDAT ??D?$_List_iterator@GU?$_Nonconst_traits@G@_STL@@@_STL@@QBEAAGXZ
_TEXT	SEGMENT
??D?$_List_iterator@GU?$_Nonconst_traits@G@_STL@@@_STL@@QBEAAGXZ PROC NEAR ; _STL::_List_iterator<unsigned short,_STL::_Nonconst_traits<unsigned short> >::operator*, COMDAT
; _this$ = ecx

; 130  :   reference operator*() const { return ((_Node*)_M_node)->_M_data; }

  00000	8b 01		 mov	 eax, DWORD PTR [ecx]
  00002	83 c0 08	 add	 eax, 8
  00005	c3		 ret	 0
??D?$_List_iterator@GU?$_Nonconst_traits@G@_STL@@@_STL@@QBEAAGXZ ENDP ; _STL::_List_iterator<unsigned short,_STL::_Nonconst_traits<unsigned short> >::operator*
_TEXT	ENDS
PUBLIC	??D?$_Rb_tree_iterator@U?$pair@$$CBGPAVZONETABLE_INFO@@@_STL@@U?$_Nonconst_traits@U?$pair@$$CBGPAVZONETABLE_INFO@@@_STL@@@2@@_STL@@QBEAAU?$pair@$$CBGPAVZONETABLE_INFO@@@1@XZ ; _STL::_Rb_tree_iterator<_STL::pair<unsigned short const ,ZONETABLE_INFO *>,_STL::_Nonconst_traits<_STL::pair<unsigned short const ,ZONETABLE_INFO *> > >::operator*
; Function compile flags: /Ogsy
; File c:\stlport-4.6.1\stlport\stl\_tree.h
;	COMDAT ??D?$_Rb_tree_iterator@U?$pair@$$CBGPAVZONETABLE_INFO@@@_STL@@U?$_Nonconst_traits@U?$pair@$$CBGPAVZONETABLE_INFO@@@_STL@@@2@@_STL@@QBEAAU?$pair@$$CBGPAVZONETABLE_INFO@@@1@XZ
_TEXT	SEGMENT
??D?$_Rb_tree_iterator@U?$pair@$$CBGPAVZONETABLE_INFO@@@_STL@@U?$_Nonconst_traits@U?$pair@$$CBGPAVZONETABLE_INFO@@@_STL@@@2@@_STL@@QBEAAU?$pair@$$CBGPAVZONETABLE_INFO@@@1@XZ PROC NEAR ; _STL::_Rb_tree_iterator<_STL::pair<unsigned short const ,ZONETABLE_INFO *>,_STL::_Nonconst_traits<_STL::pair<unsigned short const ,ZONETABLE_INFO *> > >::operator*, COMDAT
; _this$ = ecx

; 169  :     return _Link_type(_M_node)->_M_value_field; 

  00000	8b 01		 mov	 eax, DWORD PTR [ecx]
  00002	83 c0 10	 add	 eax, 16			; 00000010H

; 170  :   }

  00005	c3		 ret	 0
??D?$_Rb_tree_iterator@U?$pair@$$CBGPAVZONETABLE_INFO@@@_STL@@U?$_Nonconst_traits@U?$pair@$$CBGPAVZONETABLE_INFO@@@_STL@@@2@@_STL@@QBEAAU?$pair@$$CBGPAVZONETABLE_INFO@@@1@XZ ENDP ; _STL::_Rb_tree_iterator<_STL::pair<unsigned short const ,ZONETABLE_INFO *>,_STL::_Nonconst_traits<_STL::pair<unsigned short const ,ZONETABLE_INFO *> > >::operator*
_TEXT	ENDS
PUBLIC	??0?$pair@$$CBGPAVZONETABLE_INFO@@@_STL@@QAE@ABGABQAVZONETABLE_INFO@@@Z ; _STL::pair<unsigned short const ,ZONETABLE_INFO *>::pair<unsigned short const ,ZONETABLE_INFO *>
; Function compile flags: /Ogsy
; File c:\stlport-4.6.1\stlport\stl\_pair.h
;	COMDAT ??0?$pair@$$CBGPAVZONETABLE_INFO@@@_STL@@QAE@ABGABQAVZONETABLE_INFO@@@Z
_TEXT	SEGMENT
___a$ = 8						; size = 4
___b$ = 12						; size = 4
??0?$pair@$$CBGPAVZONETABLE_INFO@@@_STL@@QAE@ABGABQAVZONETABLE_INFO@@@Z PROC NEAR ; _STL::pair<unsigned short const ,ZONETABLE_INFO *>::pair<unsigned short const ,ZONETABLE_INFO *>, COMDAT
; _this$ = ecx

; 48   :   pair(const _T1& __a, const _T2& __b) : first(__a), second(__b) {}

  00000	8b c1		 mov	 eax, ecx
  00002	8b 4c 24 04	 mov	 ecx, DWORD PTR ___a$[esp-4]
  00006	66 8b 09	 mov	 cx, WORD PTR [ecx]
  00009	66 89 08	 mov	 WORD PTR [eax], cx
  0000c	8b 4c 24 08	 mov	 ecx, DWORD PTR ___b$[esp-4]
  00010	8b 09		 mov	 ecx, DWORD PTR [ecx]
  00012	89 48 04	 mov	 DWORD PTR [eax+4], ecx
  00015	c2 08 00	 ret	 8
??0?$pair@$$CBGPAVZONETABLE_INFO@@@_STL@@QAE@ABGABQAVZONETABLE_INFO@@@Z ENDP ; _STL::pair<unsigned short const ,ZONETABLE_INFO *>::pair<unsigned short const ,ZONETABLE_INFO *>
_TEXT	ENDS
PUBLIC	?size@?$_Rb_tree@GU?$pair@$$CBGPAVZONETABLE_INFO@@@_STL@@U?$_Select1st@U?$pair@$$CBGPAVZONETABLE_INFO@@@_STL@@@2@U?$less@G@2@V?$allocator@U?$pair@$$CBGPAVZONETABLE_INFO@@@_STL@@@2@@_STL@@QBEIXZ ; _STL::_Rb_tree<unsigned short,_STL::pair<unsigned short const ,ZONETABLE_INFO *>,_STL::_Select1st<_STL::pair<unsigned short const ,ZONETABLE_INFO *> >,_STL::less<unsigned short>,_STL::allocator<_STL::pair<unsigned short const ,ZONETABLE_INFO *> > >::size
; Function compile flags: /Ogsy
; File c:\stlport-4.6.1\stlport\stl\_tree.h
;	COMDAT ?size@?$_Rb_tree@GU?$pair@$$CBGPAVZONETABLE_INFO@@@_STL@@U?$_Select1st@U?$pair@$$CBGPAVZONETABLE_INFO@@@_STL@@@2@U?$less@G@2@V?$allocator@U?$pair@$$CBGPAVZONETABLE_INFO@@@_STL@@@2@@_STL@@QBEIXZ
_TEXT	SEGMENT
?size@?$_Rb_tree@GU?$pair@$$CBGPAVZONETABLE_INFO@@@_STL@@U?$_Select1st@U?$pair@$$CBGPAVZONETABLE_INFO@@@_STL@@@2@U?$less@G@2@V?$allocator@U?$pair@$$CBGPAVZONETABLE_INFO@@@_STL@@@2@@_STL@@QBEIXZ PROC NEAR ; _STL::_Rb_tree<unsigned short,_STL::pair<unsigned short const ,ZONETABLE_INFO *>,_STL::_Select1st<_STL::pair<unsigned short const ,ZONETABLE_INFO *> >,_STL::less<unsigned short>,_STL::allocator<_STL::pair<unsigned short const ,ZONETABLE_INFO *> > >::size, COMDAT
; _this$ = ecx

; 371  :   size_type size() const { return _M_node_count; }

  00000	8b 41 04	 mov	 eax, DWORD PTR [ecx+4]
  00003	c3		 ret	 0
?size@?$_Rb_tree@GU?$pair@$$CBGPAVZONETABLE_INFO@@@_STL@@U?$_Select1st@U?$pair@$$CBGPAVZONETABLE_INFO@@@_STL@@@2@U?$less@G@2@V?$allocator@U?$pair@$$CBGPAVZONETABLE_INFO@@@_STL@@@2@@_STL@@QBEIXZ ENDP ; _STL::_Rb_tree<unsigned short,_STL::pair<unsigned short const ,ZONETABLE_INFO *>,_STL::_Select1st<_STL::pair<unsigned short const ,ZONETABLE_INFO *> >,_STL::less<unsigned short>,_STL::allocator<_STL::pair<unsigned short const ,ZONETABLE_INFO *> > >::size
_TEXT	ENDS
PUBLIC	??0?$allocator@U?$pair@$$CBGPAVZONETABLE_INFO@@@_STL@@@_STL@@QAE@XZ ; _STL::allocator<_STL::pair<unsigned short const ,ZONETABLE_INFO *> >::allocator<_STL::pair<unsigned short const ,ZONETABLE_INFO *> >
; Function compile flags: /Ogsy
; File c:\stlport-4.6.1\stlport\stl\_alloc.h
;	COMDAT ??0?$allocator@U?$pair@$$CBGPAVZONETABLE_INFO@@@_STL@@@_STL@@QAE@XZ
_TEXT	SEGMENT
??0?$allocator@U?$pair@$$CBGPAVZONETABLE_INFO@@@_STL@@@_STL@@QAE@XZ PROC NEAR ; _STL::allocator<_STL::pair<unsigned short const ,ZONETABLE_INFO *> >::allocator<_STL::pair<unsigned short const ,ZONETABLE_INFO *> >, COMDAT
; _this$ = ecx

; 345  :   allocator() _STLP_NOTHROW {}

  00000	8b c1		 mov	 eax, ecx
  00002	c3		 ret	 0
??0?$allocator@U?$pair@$$CBGPAVZONETABLE_INFO@@@_STL@@@_STL@@QAE@XZ ENDP ; _STL::allocator<_STL::pair<unsigned short const ,ZONETABLE_INFO *> >::allocator<_STL::pair<unsigned short const ,ZONETABLE_INFO *> >
_TEXT	ENDS
PUBLIC	??1?$allocator@U?$pair@$$CBGPAVZONETABLE_INFO@@@_STL@@@_STL@@QAE@XZ ; _STL::allocator<_STL::pair<unsigned short const ,ZONETABLE_INFO *> >::~allocator<_STL::pair<unsigned short const ,ZONETABLE_INFO *> >
; Function compile flags: /Ogsy
;	COMDAT ??1?$allocator@U?$pair@$$CBGPAVZONETABLE_INFO@@@_STL@@@_STL@@QAE@XZ
_TEXT	SEGMENT
??1?$allocator@U?$pair@$$CBGPAVZONETABLE_INFO@@@_STL@@@_STL@@QAE@XZ PROC NEAR ; _STL::allocator<_STL::pair<unsigned short const ,ZONETABLE_INFO *> >::~allocator<_STL::pair<unsigned short const ,ZONETABLE_INFO *> >, COMDAT
; _this$ = ecx

; 350  :   ~allocator() _STLP_NOTHROW {}

  00000	c3		 ret	 0
??1?$allocator@U?$pair@$$CBGPAVZONETABLE_INFO@@@_STL@@@_STL@@QAE@XZ ENDP ; _STL::allocator<_STL::pair<unsigned short const ,ZONETABLE_INFO *> >::~allocator<_STL::pair<unsigned short const ,ZONETABLE_INFO *> >
_TEXT	ENDS
PUBLIC	??0?$_Rb_tree_iterator@U?$pair@$$CBGPAVZONETABLE_INFO@@@_STL@@U?$_Nonconst_traits@U?$pair@$$CBGPAVZONETABLE_INFO@@@_STL@@@2@@_STL@@QAE@ABU01@@Z ; _STL::_Rb_tree_iterator<_STL::pair<unsigned short const ,ZONETABLE_INFO *>,_STL::_Nonconst_traits<_STL::pair<unsigned short const ,ZONETABLE_INFO *> > >::_Rb_tree_iterator<_STL::pair<unsigned short const ,ZONETABLE_INFO *>,_STL::_Nonconst_traits<_STL::pair<unsigned short const ,ZONETABLE_INFO *> > >
; Function compile flags: /Ogsy
; File c:\stlport-4.6.1\stlport\stl\_tree.h
;	COMDAT ??0?$_Rb_tree_iterator@U?$pair@$$CBGPAVZONETABLE_INFO@@@_STL@@U?$_Nonconst_traits@U?$pair@$$CBGPAVZONETABLE_INFO@@@_STL@@@2@@_STL@@QAE@ABU01@@Z
_TEXT	SEGMENT
___it$ = 8						; size = 4
??0?$_Rb_tree_iterator@U?$pair@$$CBGPAVZONETABLE_INFO@@@_STL@@U?$_Nonconst_traits@U?$pair@$$CBGPAVZONETABLE_INFO@@@_STL@@@2@@_STL@@QAE@ABU01@@Z PROC NEAR ; _STL::_Rb_tree_iterator<_STL::pair<unsigned short const ,ZONETABLE_INFO *>,_STL::_Nonconst_traits<_STL::pair<unsigned short const ,ZONETABLE_INFO *> > >::_Rb_tree_iterator<_STL::pair<unsigned short const ,ZONETABLE_INFO *>,_STL::_Nonconst_traits<_STL::pair<unsigned short const ,ZONETABLE_INFO *> > >, COMDAT
; _this$ = ecx

; 165  :   _Rb_tree_iterator(const _Rb_tree_iterator<_Value, 

  00000	8b c1		 mov	 eax, ecx
  00002	8b 4c 24 04	 mov	 ecx, DWORD PTR ___it$[esp-4]
  00006	8b 09		 mov	 ecx, DWORD PTR [ecx]
  00008	89 08		 mov	 DWORD PTR [eax], ecx

; 166  :                     _Nonconst_traits<_Value> >& __it) { _M_node = __it._M_node; }

  0000a	c2 04 00	 ret	 4
??0?$_Rb_tree_iterator@U?$pair@$$CBGPAVZONETABLE_INFO@@@_STL@@U?$_Nonconst_traits@U?$pair@$$CBGPAVZONETABLE_INFO@@@_STL@@@2@@_STL@@QAE@ABU01@@Z ENDP ; _STL::_Rb_tree_iterator<_STL::pair<unsigned short const ,ZONETABLE_INFO *>,_STL::_Nonconst_traits<_STL::pair<unsigned short const ,ZONETABLE_INFO *> > >::_Rb_tree_iterator<_STL::pair<unsigned short const ,ZONETABLE_INFO *>,_STL::_Nonconst_traits<_STL::pair<unsigned short const ,ZONETABLE_INFO *> > >
_TEXT	ENDS
PUBLIC	??1?$_STLP_alloc_proxy@PAVMString@@V1@V?$allocator@VMString@@@_STL@@@_STL@@QAE@XZ ; _STL::_STLP_alloc_proxy<MString *,MString,_STL::allocator<MString> >::~_STLP_alloc_proxy<MString *,MString,_STL::allocator<MString> >
; Function compile flags: /Ogsy
;	COMDAT ??1?$_STLP_alloc_proxy@PAVMString@@V1@V?$allocator@VMString@@@_STL@@@_STL@@QAE@XZ
_TEXT	SEGMENT
??1?$_STLP_alloc_proxy@PAVMString@@V1@V?$allocator@VMString@@@_STL@@@_STL@@QAE@XZ PROC NEAR ; _STL::_STLP_alloc_proxy<MString *,MString,_STL::allocator<MString> >::~_STLP_alloc_proxy<MString *,MString,_STL::allocator<MString> >, COMDAT
; _this$ = ecx
  00000	c3		 ret	 0
??1?$_STLP_alloc_proxy@PAVMString@@V1@V?$allocator@VMString@@@_STL@@@_STL@@QAE@XZ ENDP ; _STL::_STLP_alloc_proxy<MString *,MString,_STL::allocator<MString> >::~_STLP_alloc_proxy<MString *,MString,_STL::allocator<MString> >
_TEXT	ENDS
PUBLIC	??1?$allocator@U?$_List_node@G@_STL@@@_STL@@QAE@XZ ; _STL::allocator<_STL::_List_node<unsigned short> >::~allocator<_STL::_List_node<unsigned short> >
; Function compile flags: /Ogsy
; File c:\stlport-4.6.1\stlport\stl\_alloc.h
;	COMDAT ??1?$allocator@U?$_List_node@G@_STL@@@_STL@@QAE@XZ
_TEXT	SEGMENT
??1?$allocator@U?$_List_node@G@_STL@@@_STL@@QAE@XZ PROC NEAR ; _STL::allocator<_STL::_List_node<unsigned short> >::~allocator<_STL::_List_node<unsigned short> >, COMDAT
; _this$ = ecx

; 350  :   ~allocator() _STLP_NOTHROW {}

  00000	c3		 ret	 0
??1?$allocator@U?$_List_node@G@_STL@@@_STL@@QAE@XZ ENDP	; _STL::allocator<_STL::_List_node<unsigned short> >::~allocator<_STL::_List_node<unsigned short> >
_TEXT	ENDS
PUBLIC	?_M_set@?$vector@VMString@@V?$allocator@VMString@@@_STL@@@_STL@@IAEXPAVMString@@00@Z ; _STL::vector<MString,_STL::allocator<MString> >::_M_set
; Function compile flags: /Ogsy
; File c:\stlport-4.6.1\stlport\stl\_vector.h
;	COMDAT ?_M_set@?$vector@VMString@@V?$allocator@VMString@@@_STL@@@_STL@@IAEXPAVMString@@00@Z
_TEXT	SEGMENT
___s$ = 8						; size = 4
___f$ = 12						; size = 4
___e$ = 16						; size = 4
?_M_set@?$vector@VMString@@V?$allocator@VMString@@@_STL@@@_STL@@IAEXPAVMString@@00@Z PROC NEAR ; _STL::vector<MString,_STL::allocator<MString> >::_M_set, COMDAT
; _this$ = ecx

; 501  :     this->_M_start = __s;

  00000	8b 44 24 04	 mov	 eax, DWORD PTR ___s$[esp-4]
  00004	89 01		 mov	 DWORD PTR [ecx], eax

; 502  :     this->_M_finish = __f;

  00006	8b 44 24 08	 mov	 eax, DWORD PTR ___f$[esp-4]
  0000a	89 41 04	 mov	 DWORD PTR [ecx+4], eax

; 503  :     this->_M_end_of_storage._M_data = __e;

  0000d	8b 44 24 0c	 mov	 eax, DWORD PTR ___e$[esp-4]
  00011	89 41 08	 mov	 DWORD PTR [ecx+8], eax

; 504  :   }

  00014	c2 0c 00	 ret	 12			; 0000000cH
?_M_set@?$vector@VMString@@V?$allocator@VMString@@@_STL@@@_STL@@IAEXPAVMString@@00@Z ENDP ; _STL::vector<MString,_STL::allocator<MString> >::_M_set
_TEXT	ENDS
PUBLIC	?_M_root@?$_Rb_tree@GU?$pair@$$CBGPAVZONETABLE_INFO@@@_STL@@U?$_Select1st@U?$pair@$$CBGPAVZONETABLE_INFO@@@_STL@@@2@U?$less@G@2@V?$allocator@U?$pair@$$CBGPAVZONETABLE_INFO@@@_STL@@@2@@_STL@@IBEAAPAU?$_Rb_tree_node@U?$pair@$$CBGPAVZONETABLE_INFO@@@_STL@@@2@XZ ; _STL::_Rb_tree<unsigned short,_STL::pair<unsigned short const ,ZONETABLE_INFO *>,_STL::_Select1st<_STL::pair<unsigned short const ,ZONETABLE_INFO *> >,_STL::less<unsigned short>,_STL::allocator<_STL::pair<unsigned short const ,ZONETABLE_INFO *> > >::_M_root
; Function compile flags: /Ogsy
; File c:\stlport-4.6.1\stlport\stl\_tree.h
;	COMDAT ?_M_root@?$_Rb_tree@GU?$pair@$$CBGPAVZONETABLE_INFO@@@_STL@@U?$_Select1st@U?$pair@$$CBGPAVZONETABLE_INFO@@@_STL@@@2@U?$less@G@2@V?$allocator@U?$pair@$$CBGPAVZONETABLE_INFO@@@_STL@@@2@@_STL@@IBEAAPAU?$_Rb_tree_node@U?$pair@$$CBGPAVZONETABLE_INFO@@@_STL@@@2@XZ
_TEXT	SEGMENT
?_M_root@?$_Rb_tree@GU?$pair@$$CBGPAVZONETABLE_INFO@@@_STL@@U?$_Select1st@U?$pair@$$CBGPAVZONETABLE_INFO@@@_STL@@@2@U?$less@G@2@V?$allocator@U?$pair@$$CBGPAVZONETABLE_INFO@@@_STL@@@2@@_STL@@IBEAAPAU?$_Rb_tree_node@U?$pair@$$CBGPAVZONETABLE_INFO@@@_STL@@@2@XZ PROC NEAR ; _STL::_Rb_tree<unsigned short,_STL::pair<unsigned short const ,ZONETABLE_INFO *>,_STL::_Select1st<_STL::pair<unsigned short const ,ZONETABLE_INFO *> >,_STL::less<unsigned short>,_STL::allocator<_STL::pair<unsigned short const ,ZONETABLE_INFO *> > >::_M_root, COMDAT
; _this$ = ecx

; 265  :     { return (_Link_type&) this->_M_header._M_data->_M_parent; }

  00000	8b 01		 mov	 eax, DWORD PTR [ecx]
  00002	83 c0 04	 add	 eax, 4
  00005	c3		 ret	 0
?_M_root@?$_Rb_tree@GU?$pair@$$CBGPAVZONETABLE_INFO@@@_STL@@U?$_Select1st@U?$pair@$$CBGPAVZONETABLE_INFO@@@_STL@@@2@U?$less@G@2@V?$allocator@U?$pair@$$CBGPAVZONETABLE_INFO@@@_STL@@@2@@_STL@@IBEAAPAU?$_Rb_tree_node@U?$pair@$$CBGPAVZONETABLE_INFO@@@_STL@@@2@XZ ENDP ; _STL::_Rb_tree<unsigned short,_STL::pair<unsigned short const ,ZONETABLE_INFO *>,_STL::_Select1st<_STL::pair<unsigned short const ,ZONETABLE_INFO *> >,_STL::less<unsigned short>,_STL::allocator<_STL::pair<unsigned short const ,ZONETABLE_INFO *> > >::_M_root
_TEXT	ENDS
PUBLIC	?_M_leftmost@?$_Rb_tree@GU?$pair@$$CBGPAVZONETABLE_INFO@@@_STL@@U?$_Select1st@U?$pair@$$CBGPAVZONETABLE_INFO@@@_STL@@@2@U?$less@G@2@V?$allocator@U?$pair@$$CBGPAVZONETABLE_INFO@@@_STL@@@2@@_STL@@IBEAAPAU?$_Rb_tree_node@U?$pair@$$CBGPAVZONETABLE_INFO@@@_STL@@@2@XZ ; _STL::_Rb_tree<unsigned short,_STL::pair<unsigned short const ,ZONETABLE_INFO *>,_STL::_Select1st<_STL::pair<unsigned short const ,ZONETABLE_INFO *> >,_STL::less<unsigned short>,_STL::allocator<_STL::pair<unsigned short const ,ZONETABLE_INFO *> > >::_M_leftmost
; Function compile flags: /Ogsy
;	COMDAT ?_M_leftmost@?$_Rb_tree@GU?$pair@$$CBGPAVZONETABLE_INFO@@@_STL@@U?$_Select1st@U?$pair@$$CBGPAVZONETABLE_INFO@@@_STL@@@2@U?$less@G@2@V?$allocator@U?$pair@$$CBGPAVZONETABLE_INFO@@@_STL@@@2@@_STL@@IBEAAPAU?$_Rb_tree_node@U?$pair@$$CBGPAVZONETABLE_INFO@@@_STL@@@2@XZ
_TEXT	SEGMENT
?_M_leftmost@?$_Rb_tree@GU?$pair@$$CBGPAVZONETABLE_INFO@@@_STL@@U?$_Select1st@U?$pair@$$CBGPAVZONETABLE_INFO@@@_STL@@@2@U?$less@G@2@V?$allocator@U?$pair@$$CBGPAVZONETABLE_INFO@@@_STL@@@2@@_STL@@IBEAAPAU?$_Rb_tree_node@U?$pair@$$CBGPAVZONETABLE_INFO@@@_STL@@@2@XZ PROC NEAR ; _STL::_Rb_tree<unsigned short,_STL::pair<unsigned short const ,ZONETABLE_INFO *>,_STL::_Select1st<_STL::pair<unsigned short const ,ZONETABLE_INFO *> >,_STL::less<unsigned short>,_STL::allocator<_STL::pair<unsigned short const ,ZONETABLE_INFO *> > >::_M_leftmost, COMDAT
; _this$ = ecx

; 267  :     { return (_Link_type&) this->_M_header._M_data->_M_left; }

  00000	8b 01		 mov	 eax, DWORD PTR [ecx]
  00002	83 c0 08	 add	 eax, 8
  00005	c3		 ret	 0
?_M_leftmost@?$_Rb_tree@GU?$pair@$$CBGPAVZONETABLE_INFO@@@_STL@@U?$_Select1st@U?$pair@$$CBGPAVZONETABLE_INFO@@@_STL@@@2@U?$less@G@2@V?$allocator@U?$pair@$$CBGPAVZONETABLE_INFO@@@_STL@@@2@@_STL@@IBEAAPAU?$_Rb_tree_node@U?$pair@$$CBGPAVZONETABLE_INFO@@@_STL@@@2@XZ ENDP ; _STL::_Rb_tree<unsigned short,_STL::pair<unsigned short const ,ZONETABLE_INFO *>,_STL::_Select1st<_STL::pair<unsigned short const ,ZONETABLE_INFO *> >,_STL::less<unsigned short>,_STL::allocator<_STL::pair<unsigned short const ,ZONETABLE_INFO *> > >::_M_leftmost
_TEXT	ENDS
PUBLIC	?_M_rightmost@?$_Rb_tree@GU?$pair@$$CBGPAVZONETABLE_INFO@@@_STL@@U?$_Select1st@U?$pair@$$CBGPAVZONETABLE_INFO@@@_STL@@@2@U?$less@G@2@V?$allocator@U?$pair@$$CBGPAVZONETABLE_INFO@@@_STL@@@2@@_STL@@IBEAAPAU?$_Rb_tree_node@U?$pair@$$CBGPAVZONETABLE_INFO@@@_STL@@@2@XZ ; _STL::_Rb_tree<unsigned short,_STL::pair<unsigned short const ,ZONETABLE_INFO *>,_STL::_Select1st<_STL::pair<unsigned short const ,ZONETABLE_INFO *> >,_STL::less<unsigned short>,_STL::allocator<_STL::pair<unsigned short const ,ZONETABLE_INFO *> > >::_M_rightmost
; Function compile flags: /Ogsy
;	COMDAT ?_M_rightmost@?$_Rb_tree@GU?$pair@$$CBGPAVZONETABLE_INFO@@@_STL@@U?$_Select1st@U?$pair@$$CBGPAVZONETABLE_INFO@@@_STL@@@2@U?$less@G@2@V?$allocator@U?$pair@$$CBGPAVZONETABLE_INFO@@@_STL@@@2@@_STL@@IBEAAPAU?$_Rb_tree_node@U?$pair@$$CBGPAVZONETABLE_INFO@@@_STL@@@2@XZ
_TEXT	SEGMENT
?_M_rightmost@?$_Rb_tree@GU?$pair@$$CBGPAVZONETABLE_INFO@@@_STL@@U?$_Select1st@U?$pair@$$CBGPAVZONETABLE_INFO@@@_STL@@@2@U?$less@G@2@V?$allocator@U?$pair@$$CBGPAVZONETABLE_INFO@@@_STL@@@2@@_STL@@IBEAAPAU?$_Rb_tree_node@U?$pair@$$CBGPAVZONETABLE_INFO@@@_STL@@@2@XZ PROC NEAR ; _STL::_Rb_tree<unsigned short,_STL::pair<unsigned short const ,ZONETABLE_INFO *>,_STL::_Select1st<_STL::pair<unsigned short const ,ZONETABLE_INFO *> >,_STL::less<unsigned short>,_STL::allocator<_STL::pair<unsigned short const ,ZONETABLE_INFO *> > >::_M_rightmost, COMDAT
; _this$ = ecx

; 269  :     { return (_Link_type&) this->_M_header._M_data->_M_right; }

  00000	8b 01		 mov	 eax, DWORD PTR [ecx]
  00002	83 c0 0c	 add	 eax, 12			; 0000000cH
  00005	c3		 ret	 0
?_M_rightmost@?$_Rb_tree@GU?$pair@$$CBGPAVZONETABLE_INFO@@@_STL@@U?$_Select1st@U?$pair@$$CBGPAVZONETABLE_INFO@@@_STL@@@2@U?$less@G@2@V?$allocator@U?$pair@$$CBGPAVZONETABLE_INFO@@@_STL@@@2@@_STL@@IBEAAPAU?$_Rb_tree_node@U?$pair@$$CBGPAVZONETABLE_INFO@@@_STL@@@2@XZ ENDP ; _STL::_Rb_tree<unsigned short,_STL::pair<unsigned short const ,ZONETABLE_INFO *>,_STL::_Select1st<_STL::pair<unsigned short const ,ZONETABLE_INFO *> >,_STL::less<unsigned short>,_STL::allocator<_STL::pair<unsigned short const ,ZONETABLE_INFO *> > >::_M_rightmost
_TEXT	ENDS
PUBLIC	?pubsync@?$basic_streambuf@DV?$char_traits@D@_STL@@@_STL@@QAEHXZ ; _STL::basic_streambuf<char,_STL::char_traits<char> >::pubsync
; Function compile flags: /Ogsy
; File c:\stlport-4.6.1\stlport\stl\_streambuf.h
;	COMDAT ?pubsync@?$basic_streambuf@DV?$char_traits@D@_STL@@@_STL@@QAEHXZ
_TEXT	SEGMENT
?pubsync@?$basic_streambuf@DV?$char_traits@D@_STL@@@_STL@@QAEHXZ PROC NEAR ; _STL::basic_streambuf<char,_STL::char_traits<char> >::pubsync, COMDAT
; _this$ = ecx

; 411  :   int pubsync() { return this->sync(); }

  00000	8b 01		 mov	 eax, DWORD PTR [ecx]
  00002	ff 60 10	 jmp	 DWORD PTR [eax+16]
?pubsync@?$basic_streambuf@DV?$char_traits@D@_STL@@@_STL@@QAEHXZ ENDP ; _STL::basic_streambuf<char,_STL::char_traits<char> >::pubsync
_TEXT	ENDS
PUBLIC	?sputn@?$basic_streambuf@DV?$char_traits@D@_STL@@@_STL@@QAEHPBDH@Z ; _STL::basic_streambuf<char,_STL::char_traits<char> >::sputn
; Function compile flags: /Ogsy
;	COMDAT ?sputn@?$basic_streambuf@DV?$char_traits@D@_STL@@@_STL@@QAEHPBDH@Z
_TEXT	SEGMENT
___s$ = 8						; size = 4
___n$ = 12						; size = 4
?sputn@?$basic_streambuf@DV?$char_traits@D@_STL@@@_STL@@QAEHPBDH@Z PROC NEAR ; _STL::basic_streambuf<char,_STL::char_traits<char> >::sputn, COMDAT
; _this$ = ecx

; 441  :     { return this->xsputn(__s, __n); }

  00000	8b 01		 mov	 eax, DWORD PTR [ecx]
  00002	ff 60 28	 jmp	 DWORD PTR [eax+40]
?sputn@?$basic_streambuf@DV?$char_traits@D@_STL@@@_STL@@QAEHPBDH@Z ENDP ; _STL::basic_streambuf<char,_STL::char_traits<char> >::sputn
_TEXT	ENDS
PUBLIC	??1?$allocator@U?$_Rb_tree_node@U?$pair@$$CBGPAVZONETABLE_INFO@@@_STL@@@_STL@@@_STL@@QAE@XZ ; _STL::allocator<_STL::_Rb_tree_node<_STL::pair<unsigned short const ,ZONETABLE_INFO *> > >::~allocator<_STL::_Rb_tree_node<_STL::pair<unsigned short const ,ZONETABLE_INFO *> > >
; Function compile flags: /Ogsy
; File c:\stlport-4.6.1\stlport\stl\_alloc.h
;	COMDAT ??1?$allocator@U?$_Rb_tree_node@U?$pair@$$CBGPAVZONETABLE_INFO@@@_STL@@@_STL@@@_STL@@QAE@XZ
_TEXT	SEGMENT
??1?$allocator@U?$_Rb_tree_node@U?$pair@$$CBGPAVZONETABLE_INFO@@@_STL@@@_STL@@@_STL@@QAE@XZ PROC NEAR ; _STL::allocator<_STL::_Rb_tree_node<_STL::pair<unsigned short const ,ZONETABLE_INFO *> > >::~allocator<_STL::_Rb_tree_node<_STL::pair<unsigned short const ,ZONETABLE_INFO *> > >, COMDAT
; _this$ = ecx

; 350  :   ~allocator() _STLP_NOTHROW {}

  00000	c3		 ret	 0
??1?$allocator@U?$_Rb_tree_node@U?$pair@$$CBGPAVZONETABLE_INFO@@@_STL@@@_STL@@@_STL@@QAE@XZ ENDP ; _STL::allocator<_STL::_Rb_tree_node<_STL::pair<unsigned short const ,ZONETABLE_INFO *> > >::~allocator<_STL::_Rb_tree_node<_STL::pair<unsigned short const ,ZONETABLE_INFO *> > >
_TEXT	ENDS
PUBLIC	??0?$_Rb_tree_iterator@U?$pair@$$CBGPAVZONETABLE_INFO@@@_STL@@U?$_Nonconst_traits@U?$pair@$$CBGPAVZONETABLE_INFO@@@_STL@@@2@@_STL@@QAE@PAU?$_Rb_tree_node@U?$pair@$$CBGPAVZONETABLE_INFO@@@_STL@@@1@@Z ; _STL::_Rb_tree_iterator<_STL::pair<unsigned short const ,ZONETABLE_INFO *>,_STL::_Nonconst_traits<_STL::pair<unsigned short const ,ZONETABLE_INFO *> > >::_Rb_tree_iterator<_STL::pair<unsigned short const ,ZONETABLE_INFO *>,_STL::_Nonconst_traits<_STL::pair<unsigned short const ,ZONETABLE_INFO *> > >
; Function compile flags: /Ogsy
; File c:\stlport-4.6.1\stlport\stl\_tree.h
;	COMDAT ??0?$_Rb_tree_iterator@U?$pair@$$CBGPAVZONETABLE_INFO@@@_STL@@U?$_Nonconst_traits@U?$pair@$$CBGPAVZONETABLE_INFO@@@_STL@@@2@@_STL@@QAE@PAU?$_Rb_tree_node@U?$pair@$$CBGPAVZONETABLE_INFO@@@_STL@@@1@@Z
_TEXT	SEGMENT
___x$ = 8						; size = 4
??0?$_Rb_tree_iterator@U?$pair@$$CBGPAVZONETABLE_INFO@@@_STL@@U?$_Nonconst_traits@U?$pair@$$CBGPAVZONETABLE_INFO@@@_STL@@@2@@_STL@@QAE@PAU?$_Rb_tree_node@U?$pair@$$CBGPAVZONETABLE_INFO@@@_STL@@@1@@Z PROC NEAR ; _STL::_Rb_tree_iterator<_STL::pair<unsigned short const ,ZONETABLE_INFO *>,_STL::_Nonconst_traits<_STL::pair<unsigned short const ,ZONETABLE_INFO *> > >::_Rb_tree_iterator<_STL::pair<unsigned short const ,ZONETABLE_INFO *>,_STL::_Nonconst_traits<_STL::pair<unsigned short const ,ZONETABLE_INFO *> > >, COMDAT
; _this$ = ecx

; 164  :   _Rb_tree_iterator(_Link_type __x) { _M_node = __x; }

  00000	8b c1		 mov	 eax, ecx
  00002	8b 4c 24 04	 mov	 ecx, DWORD PTR ___x$[esp-4]
  00006	89 08		 mov	 DWORD PTR [eax], ecx
  00008	c2 04 00	 ret	 4
??0?$_Rb_tree_iterator@U?$pair@$$CBGPAVZONETABLE_INFO@@@_STL@@U?$_Nonconst_traits@U?$pair@$$CBGPAVZONETABLE_INFO@@@_STL@@@2@@_STL@@QAE@PAU?$_Rb_tree_node@U?$pair@$$CBGPAVZONETABLE_INFO@@@_STL@@@1@@Z ENDP ; _STL::_Rb_tree_iterator<_STL::pair<unsigned short const ,ZONETABLE_INFO *>,_STL::_Nonconst_traits<_STL::pair<unsigned short const ,ZONETABLE_INFO *> > >::_Rb_tree_iterator<_STL::pair<unsigned short const ,ZONETABLE_INFO *>,_STL::_Nonconst_traits<_STL::pair<unsigned short const ,ZONETABLE_INFO *> > >
_TEXT	ENDS
PUBLIC	??0?$allocator@U?$_List_node@G@_STL@@@_STL@@QAE@ABV01@@Z ; _STL::allocator<_STL::_List_node<unsigned short> >::allocator<_STL::_List_node<unsigned short> >
; Function compile flags: /Ogsy
; File c:\stlport-4.6.1\stlport\stl\_alloc.h
;	COMDAT ??0?$allocator@U?$_List_node@G@_STL@@@_STL@@QAE@ABV01@@Z
_TEXT	SEGMENT
___formal$ = 8						; size = 4
??0?$allocator@U?$_List_node@G@_STL@@@_STL@@QAE@ABV01@@Z PROC NEAR ; _STL::allocator<_STL::_List_node<unsigned short> >::allocator<_STL::_List_node<unsigned short> >, COMDAT
; _this$ = ecx

; 349  :   allocator(const allocator<_Tp>&) _STLP_NOTHROW {}

  00000	8b c1		 mov	 eax, ecx
  00002	c2 04 00	 ret	 4
??0?$allocator@U?$_List_node@G@_STL@@@_STL@@QAE@ABV01@@Z ENDP ; _STL::allocator<_STL::_List_node<unsigned short> >::allocator<_STL::_List_node<unsigned short> >
_TEXT	ENDS
PUBLIC	??0?$allocator@VMString@@@_STL@@QAE@ABV01@@Z	; _STL::allocator<MString>::allocator<MString>
; Function compile flags: /Ogsy
;	COMDAT ??0?$allocator@VMString@@@_STL@@QAE@ABV01@@Z
_TEXT	SEGMENT
___formal$ = 8						; size = 4
??0?$allocator@VMString@@@_STL@@QAE@ABV01@@Z PROC NEAR	; _STL::allocator<MString>::allocator<MString>, COMDAT
; _this$ = ecx

; 349  :   allocator(const allocator<_Tp>&) _STLP_NOTHROW {}

  00000	8b c1		 mov	 eax, ecx
  00002	c2 04 00	 ret	 4
??0?$allocator@VMString@@@_STL@@QAE@ABV01@@Z ENDP	; _STL::allocator<MString>::allocator<MString>
_TEXT	ENDS
PUBLIC	?_S_color@?$_Rb_tree@GU?$pair@$$CBGPAVZONETABLE_INFO@@@_STL@@U?$_Select1st@U?$pair@$$CBGPAVZONETABLE_INFO@@@_STL@@@2@U?$less@G@2@V?$allocator@U?$pair@$$CBGPAVZONETABLE_INFO@@@_STL@@@2@@_STL@@KAAA_NPAU?$_Rb_tree_node@U?$pair@$$CBGPAVZONETABLE_INFO@@@_STL@@@2@@Z ; _STL::_Rb_tree<unsigned short,_STL::pair<unsigned short const ,ZONETABLE_INFO *>,_STL::_Select1st<_STL::pair<unsigned short const ,ZONETABLE_INFO *> >,_STL::less<unsigned short>,_STL::allocator<_STL::pair<unsigned short const ,ZONETABLE_INFO *> > >::_S_color
; Function compile flags: /Ogsy
; File c:\stlport-4.6.1\stlport\stl\_tree.h
;	COMDAT ?_S_color@?$_Rb_tree@GU?$pair@$$CBGPAVZONETABLE_INFO@@@_STL@@U?$_Select1st@U?$pair@$$CBGPAVZONETABLE_INFO@@@_STL@@@2@U?$less@G@2@V?$allocator@U?$pair@$$CBGPAVZONETABLE_INFO@@@_STL@@@2@@_STL@@KAAA_NPAU?$_Rb_tree_node@U?$pair@$$CBGPAVZONETABLE_INFO@@@_STL@@@2@@Z
_TEXT	SEGMENT
___x$ = 8						; size = 4
?_S_color@?$_Rb_tree@GU?$pair@$$CBGPAVZONETABLE_INFO@@@_STL@@U?$_Select1st@U?$pair@$$CBGPAVZONETABLE_INFO@@@_STL@@@2@U?$less@G@2@V?$allocator@U?$pair@$$CBGPAVZONETABLE_INFO@@@_STL@@@2@@_STL@@KAAA_NPAU?$_Rb_tree_node@U?$pair@$$CBGPAVZONETABLE_INFO@@@_STL@@@2@@Z PROC NEAR ; _STL::_Rb_tree<unsigned short,_STL::pair<unsigned short const ,ZONETABLE_INFO *>,_STL::_Select1st<_STL::pair<unsigned short const ,ZONETABLE_INFO *> >,_STL::less<unsigned short>,_STL::allocator<_STL::pair<unsigned short const ,ZONETABLE_INFO *> > >::_S_color, COMDAT

; 282  :     { return (_Color_type&)(__x->_M_color); }

  00000	8b 44 24 04	 mov	 eax, DWORD PTR ___x$[esp-4]
  00004	c3		 ret	 0
?_S_color@?$_Rb_tree@GU?$pair@$$CBGPAVZONETABLE_INFO@@@_STL@@U?$_Select1st@U?$pair@$$CBGPAVZONETABLE_INFO@@@_STL@@@2@U?$less@G@2@V?$allocator@U?$pair@$$CBGPAVZONETABLE_INFO@@@_STL@@@2@@_STL@@KAAA_NPAU?$_Rb_tree_node@U?$pair@$$CBGPAVZONETABLE_INFO@@@_STL@@@2@@Z ENDP ; _STL::_Rb_tree<unsigned short,_STL::pair<unsigned short const ,ZONETABLE_INFO *>,_STL::_Select1st<_STL::pair<unsigned short const ,ZONETABLE_INFO *> >,_STL::less<unsigned short>,_STL::allocator<_STL::pair<unsigned short const ,ZONETABLE_INFO *> > >::_S_color
_TEXT	ENDS
PUBLIC	??0?$allocator@U?$_Rb_tree_node@U?$pair@$$CBGPAVZONETABLE_INFO@@@_STL@@@_STL@@@_STL@@QAE@ABV01@@Z ; _STL::allocator<_STL::_Rb_tree_node<_STL::pair<unsigned short const ,ZONETABLE_INFO *> > >::allocator<_STL::_Rb_tree_node<_STL::pair<unsigned short const ,ZONETABLE_INFO *> > >
; Function compile flags: /Ogsy
; File c:\stlport-4.6.1\stlport\stl\_alloc.h
;	COMDAT ??0?$allocator@U?$_Rb_tree_node@U?$pair@$$CBGPAVZONETABLE_INFO@@@_STL@@@_STL@@@_STL@@QAE@ABV01@@Z
_TEXT	SEGMENT
___formal$ = 8						; size = 4
??0?$allocator@U?$_Rb_tree_node@U?$pair@$$CBGPAVZONETABLE_INFO@@@_STL@@@_STL@@@_STL@@QAE@ABV01@@Z PROC NEAR ; _STL::allocator<_STL::_Rb_tree_node<_STL::pair<unsigned short const ,ZONETABLE_INFO *> > >::allocator<_STL::_Rb_tree_node<_STL::pair<unsigned short const ,ZONETABLE_INFO *> > >, COMDAT
; _this$ = ecx

; 349  :   allocator(const allocator<_Tp>&) _STLP_NOTHROW {}

  00000	8b c1		 mov	 eax, ecx
  00002	c2 04 00	 ret	 4
??0?$allocator@U?$_Rb_tree_node@U?$pair@$$CBGPAVZONETABLE_INFO@@@_STL@@@_STL@@@_STL@@QAE@ABV01@@Z ENDP ; _STL::allocator<_STL::_Rb_tree_node<_STL::pair<unsigned short const ,ZONETABLE_INFO *> > >::allocator<_STL::_Rb_tree_node<_STL::pair<unsigned short const ,ZONETABLE_INFO *> > >
_TEXT	ENDS
PUBLIC	??$_Construct@VMString@@V1@@_STL@@YAXPAVMString@@ABV1@@Z ; _STL::_Construct<MString,MString>
EXTRN	??0MString@@QAE@ABV0@@Z:NEAR			; MString::MString
EXTRN	__EH_prolog:NEAR
EXTRN	__except_list:DWORD
EXTRN	___CxxFrameHandler:NEAR
;	COMDAT xdata$x
; File c:\program files\microsoft visual studio .net 2003\vc7\include\new
xdata$x	SEGMENT
$T104337 DD	0ffffffffH
	DD	FLAT:$L104326
$T104333 DD	019930520H
	DD	01H
	DD	FLAT:$T104337
	DD	2 DUP(00H)
	DD	2 DUP(00H)
; Function compile flags: /Ogsy
; File c:\stlport-4.6.1\stlport\stl\_construct.h
xdata$x	ENDS
;	COMDAT ??$_Construct@VMString@@V1@@_STL@@YAXPAVMString@@ABV1@@Z
_TEXT	SEGMENT
$T104323 = -16						; size = 4
__$EHRec$ = -12						; size = 12
___p$ = 8						; size = 4
___val$ = 12						; size = 4
??$_Construct@VMString@@V1@@_STL@@YAXPAVMString@@ABV1@@Z PROC NEAR ; _STL::_Construct<MString,MString>, COMDAT

; 93   : inline void _Construct(_T1* __p, const _T2& __val) {

  00000	b8 00 00 00 00	 mov	 eax, __ehhandler$??$_Construct@VMString@@V1@@_STL@@YAXPAVMString@@ABV1@@Z
  00005	e8 00 00 00 00	 call	 __EH_prolog
  0000a	51		 push	 ecx

; 94   : # ifdef _STLP_DEBUG_UNINITIALIZED
; 95   : 	memset((char*)__p, _STLP_SHRED_BYTE, sizeof(_T1));
; 96   : # endif
; 97   :     _STLP_PLACEMENT_NEW (__p) _T1(__val);

  0000b	8b 4d 08	 mov	 ecx, DWORD PTR ___p$[ebp]
  0000e	89 4d f0	 mov	 DWORD PTR $T104323[ebp], ecx
  00011	83 65 fc 00	 and	 DWORD PTR __$EHRec$[ebp+8], 0
  00015	85 c9		 test	 ecx, ecx
  00017	74 08		 je	 SHORT $L104324
  00019	ff 75 0c	 push	 DWORD PTR ___val$[ebp]
  0001c	e8 00 00 00 00	 call	 ??0MString@@QAE@ABV0@@Z	; MString::MString
$L104324:

; 98   : }

  00021	8b 4d f4	 mov	 ecx, DWORD PTR __$EHRec$[ebp]
  00024	64 89 0d 00 00
	00 00		 mov	 DWORD PTR fs:__except_list, ecx
  0002b	c9		 leave
  0002c	c3		 ret	 0
_TEXT	ENDS
;	COMDAT text$x
text$x	SEGMENT
$L104326:
  00000	ff 75 08	 push	 DWORD PTR ___p$[ebp]
  00003	ff 75 f0	 push	 DWORD PTR $T104323[ebp]
  00006	e8 00 00 00 00	 call	 ??3@YAXPAX0@Z		; operator delete
  0000b	59		 pop	 ecx
  0000c	59		 pop	 ecx
  0000d	c3		 ret	 0
__ehhandler$??$_Construct@VMString@@V1@@_STL@@YAXPAVMString@@ABV1@@Z:
  0000e	b8 00 00 00 00	 mov	 eax, OFFSET FLAT:$T104333
  00013	e9 00 00 00 00	 jmp	 ___CxxFrameHandler
text$x	ENDS
??$_Construct@VMString@@V1@@_STL@@YAXPAVMString@@ABV1@@Z ENDP ; _STL::_Construct<MString,MString>
PUBLIC	??$?0G@?$allocator@U?$_List_node@G@_STL@@@_STL@@QAE@ABV?$allocator@G@1@@Z ; _STL::allocator<_STL::_List_node<unsigned short> >::allocator<_STL::_List_node<unsigned short> ><unsigned short>
; Function compile flags: /Ogsy
; File c:\stlport-4.6.1\stlport\stl\_alloc.h
;	COMDAT ??$?0G@?$allocator@U?$_List_node@G@_STL@@@_STL@@QAE@ABV?$allocator@G@1@@Z
_TEXT	SEGMENT
___formal$ = 8						; size = 4
??$?0G@?$allocator@U?$_List_node@G@_STL@@@_STL@@QAE@ABV?$allocator@G@1@@Z PROC NEAR ; _STL::allocator<_STL::_List_node<unsigned short> >::allocator<_STL::_List_node<unsigned short> ><unsigned short>, COMDAT
; _this$ = ecx

; 347  :   template <class _Tp1> allocator(const allocator<_Tp1>&) _STLP_NOTHROW {}

  00000	8b c1		 mov	 eax, ecx
  00002	c2 04 00	 ret	 4
??$?0G@?$allocator@U?$_List_node@G@_STL@@@_STL@@QAE@ABV?$allocator@G@1@@Z ENDP ; _STL::allocator<_STL::_List_node<unsigned short> >::allocator<_STL::_List_node<unsigned short> ><unsigned short>
_TEXT	ENDS
PUBLIC	??$max@I@_STL@@YAABIABI0@Z			; _STL::max<unsigned int>
; Function compile flags: /Ogsy
; File c:\stlport-4.6.1\stlport\stl\_algobase.h
;	COMDAT ??$max@I@_STL@@YAABIABI0@Z
_TEXT	SEGMENT
___a$ = 8						; size = 4
___b$ = 12						; size = 4
??$max@I@_STL@@YAABIABI0@Z PROC NEAR			; _STL::max<unsigned int>, COMDAT

; 79   : inline const _Tp& (max)(const _Tp& __a, const _Tp& __b) {  return  __a < __b ? __b : __a; }

  00000	8b 44 24 04	 mov	 eax, DWORD PTR ___a$[esp-4]
  00004	8b 10		 mov	 edx, DWORD PTR [eax]
  00006	8b 4c 24 08	 mov	 ecx, DWORD PTR ___b$[esp-4]
  0000a	3b 11		 cmp	 edx, DWORD PTR [ecx]
  0000c	73 02		 jae	 SHORT $L104348
  0000e	8b c1		 mov	 eax, ecx
$L104348:
  00010	c3		 ret	 0
??$max@I@_STL@@YAABIABI0@Z ENDP				; _STL::max<unsigned int>
_TEXT	ENDS
PUBLIC	??$_Construct@GG@_STL@@YAXPAGABG@Z		; _STL::_Construct<unsigned short,unsigned short>
; Function compile flags: /Ogsy
; File c:\stlport-4.6.1\stlport\stl\_construct.h
;	COMDAT ??$_Construct@GG@_STL@@YAXPAGABG@Z
_TEXT	SEGMENT
___p$ = 8						; size = 4
___val$ = 12						; size = 4
??$_Construct@GG@_STL@@YAXPAGABG@Z PROC NEAR		; _STL::_Construct<unsigned short,unsigned short>, COMDAT

; 94   : # ifdef _STLP_DEBUG_UNINITIALIZED
; 95   : 	memset((char*)__p, _STLP_SHRED_BYTE, sizeof(_T1));
; 96   : # endif
; 97   :     _STLP_PLACEMENT_NEW (__p) _T1(__val);

  00000	8b 44 24 04	 mov	 eax, DWORD PTR ___p$[esp-4]
  00004	85 c0		 test	 eax, eax
  00006	74 0a		 je	 SHORT $L104353
  00008	8b 4c 24 08	 mov	 ecx, DWORD PTR ___val$[esp-4]
  0000c	66 8b 09	 mov	 cx, WORD PTR [ecx]
  0000f	66 89 08	 mov	 WORD PTR [eax], cx
$L104353:

; 98   : }

  00012	c3		 ret	 0
??$_Construct@GG@_STL@@YAXPAGABG@Z ENDP			; _STL::_Construct<unsigned short,unsigned short>
_TEXT	ENDS
PUBLIC	??$?0U?$pair@$$CBGPAVZONETABLE_INFO@@@_STL@@@?$allocator@U?$_Rb_tree_node@U?$pair@$$CBGPAVZONETABLE_INFO@@@_STL@@@_STL@@@_STL@@QAE@ABV?$allocator@U?$pair@$$CBGPAVZONETABLE_INFO@@@_STL@@@1@@Z ; _STL::allocator<_STL::_Rb_tree_node<_STL::pair<unsigned short const ,ZONETABLE_INFO *> > >::allocator<_STL::_Rb_tree_node<_STL::pair<unsigned short const ,ZONETABLE_INFO *> > ><_STL::pair<unsigned short const ,ZONETABLE_INFO *> >
; Function compile flags: /Ogsy
; File c:\stlport-4.6.1\stlport\stl\_alloc.h
;	COMDAT ??$?0U?$pair@$$CBGPAVZONETABLE_INFO@@@_STL@@@?$allocator@U?$_Rb_tree_node@U?$pair@$$CBGPAVZONETABLE_INFO@@@_STL@@@_STL@@@_STL@@QAE@ABV?$allocator@U?$pair@$$CBGPAVZONETABLE_INFO@@@_STL@@@1@@Z
_TEXT	SEGMENT
___formal$ = 8						; size = 4
??$?0U?$pair@$$CBGPAVZONETABLE_INFO@@@_STL@@@?$allocator@U?$_Rb_tree_node@U?$pair@$$CBGPAVZONETABLE_INFO@@@_STL@@@_STL@@@_STL@@QAE@ABV?$allocator@U?$pair@$$CBGPAVZONETABLE_INFO@@@_STL@@@1@@Z PROC NEAR ; _STL::allocator<_STL::_Rb_tree_node<_STL::pair<unsigned short const ,ZONETABLE_INFO *> > >::allocator<_STL::_Rb_tree_node<_STL::pair<unsigned short const ,ZONETABLE_INFO *> > ><_STL::pair<unsigned short const ,ZONETABLE_INFO *> >, COMDAT
; _this$ = ecx

; 347  :   template <class _Tp1> allocator(const allocator<_Tp1>&) _STLP_NOTHROW {}

  00000	8b c1		 mov	 eax, ecx
  00002	c2 04 00	 ret	 4
??$?0U?$pair@$$CBGPAVZONETABLE_INFO@@@_STL@@@?$allocator@U?$_Rb_tree_node@U?$pair@$$CBGPAVZONETABLE_INFO@@@_STL@@@_STL@@@_STL@@QAE@ABV?$allocator@U?$pair@$$CBGPAVZONETABLE_INFO@@@_STL@@@1@@Z ENDP ; _STL::allocator<_STL::_Rb_tree_node<_STL::pair<unsigned short const ,ZONETABLE_INFO *> > >::allocator<_STL::_Rb_tree_node<_STL::pair<unsigned short const ,ZONETABLE_INFO *> > ><_STL::pair<unsigned short const ,ZONETABLE_INFO *> >
_TEXT	ENDS
PUBLIC	?rdbuf@?$basic_ios@DV?$char_traits@D@_STL@@@_STL@@QBEPAV?$basic_streambuf@DV?$char_traits@D@_STL@@@2@XZ ; _STL::basic_ios<char,_STL::char_traits<char> >::rdbuf
; Function compile flags: /Ogsy
; File c:\stlport-4.6.1\stlport\stl\_ios.h
;	COMDAT ?rdbuf@?$basic_ios@DV?$char_traits@D@_STL@@@_STL@@QBEPAV?$basic_streambuf@DV?$char_traits@D@_STL@@@2@XZ
_TEXT	SEGMENT
?rdbuf@?$basic_ios@DV?$char_traits@D@_STL@@@_STL@@QBEPAV?$basic_streambuf@DV?$char_traits@D@_STL@@@2@XZ PROC NEAR ; _STL::basic_ios<char,_STL::char_traits<char> >::rdbuf, COMDAT
; _this$ = ecx

; 72   :     { return _M_streambuf; }

  00000	8b 41 58	 mov	 eax, DWORD PTR [ecx+88]
  00003	c3		 ret	 0
?rdbuf@?$basic_ios@DV?$char_traits@D@_STL@@@_STL@@QBEPAV?$basic_streambuf@DV?$char_traits@D@_STL@@@2@XZ ENDP ; _STL::basic_ios<char,_STL::char_traits<char> >::rdbuf
_TEXT	ENDS
PUBLIC	?_S_left@?$_Rb_tree@GU?$pair@$$CBGPAVZONETABLE_INFO@@@_STL@@U?$_Select1st@U?$pair@$$CBGPAVZONETABLE_INFO@@@_STL@@@2@U?$less@G@2@V?$allocator@U?$pair@$$CBGPAVZONETABLE_INFO@@@_STL@@@2@@_STL@@KAAAPAU?$_Rb_tree_node@U?$pair@$$CBGPAVZONETABLE_INFO@@@_STL@@@2@PAU32@@Z ; _STL::_Rb_tree<unsigned short,_STL::pair<unsigned short const ,ZONETABLE_INFO *>,_STL::_Select1st<_STL::pair<unsigned short const ,ZONETABLE_INFO *> >,_STL::less<unsigned short>,_STL::allocator<_STL::pair<unsigned short const ,ZONETABLE_INFO *> > >::_S_left
; Function compile flags: /Ogsy
; File c:\stlport-4.6.1\stlport\stl\_tree.h
;	COMDAT ?_S_left@?$_Rb_tree@GU?$pair@$$CBGPAVZONETABLE_INFO@@@_STL@@U?$_Select1st@U?$pair@$$CBGPAVZONETABLE_INFO@@@_STL@@@2@U?$less@G@2@V?$allocator@U?$pair@$$CBGPAVZONETABLE_INFO@@@_STL@@@2@@_STL@@KAAAPAU?$_Rb_tree_node@U?$pair@$$CBGPAVZONETABLE_INFO@@@_STL@@@2@PAU32@@Z
_TEXT	SEGMENT
___x$ = 8						; size = 4
?_S_left@?$_Rb_tree@GU?$pair@$$CBGPAVZONETABLE_INFO@@@_STL@@U?$_Select1st@U?$pair@$$CBGPAVZONETABLE_INFO@@@_STL@@@2@U?$less@G@2@V?$allocator@U?$pair@$$CBGPAVZONETABLE_INFO@@@_STL@@@2@@_STL@@KAAAPAU?$_Rb_tree_node@U?$pair@$$CBGPAVZONETABLE_INFO@@@_STL@@@2@PAU32@@Z PROC NEAR ; _STL::_Rb_tree<unsigned short,_STL::pair<unsigned short const ,ZONETABLE_INFO *>,_STL::_Select1st<_STL::pair<unsigned short const ,ZONETABLE_INFO *> >,_STL::less<unsigned short>,_STL::allocator<_STL::pair<unsigned short const ,ZONETABLE_INFO *> > >::_S_left, COMDAT

; 272  :     { return (_Link_type&)(__x->_M_left); }

  00000	8b 44 24 04	 mov	 eax, DWORD PTR ___x$[esp-4]
  00004	83 c0 08	 add	 eax, 8
  00007	c3		 ret	 0
?_S_left@?$_Rb_tree@GU?$pair@$$CBGPAVZONETABLE_INFO@@@_STL@@U?$_Select1st@U?$pair@$$CBGPAVZONETABLE_INFO@@@_STL@@@2@U?$less@G@2@V?$allocator@U?$pair@$$CBGPAVZONETABLE_INFO@@@_STL@@@2@@_STL@@KAAAPAU?$_Rb_tree_node@U?$pair@$$CBGPAVZONETABLE_INFO@@@_STL@@@2@PAU32@@Z ENDP ; _STL::_Rb_tree<unsigned short,_STL::pair<unsigned short const ,ZONETABLE_INFO *>,_STL::_Select1st<_STL::pair<unsigned short const ,ZONETABLE_INFO *> >,_STL::less<unsigned short>,_STL::allocator<_STL::pair<unsigned short const ,ZONETABLE_INFO *> > >::_S_left
_TEXT	ENDS
PUBLIC	?_S_right@?$_Rb_tree@GU?$pair@$$CBGPAVZONETABLE_INFO@@@_STL@@U?$_Select1st@U?$pair@$$CBGPAVZONETABLE_INFO@@@_STL@@@2@U?$less@G@2@V?$allocator@U?$pair@$$CBGPAVZONETABLE_INFO@@@_STL@@@2@@_STL@@KAAAPAU?$_Rb_tree_node@U?$pair@$$CBGPAVZONETABLE_INFO@@@_STL@@@2@PAU32@@Z ; _STL::_Rb_tree<unsigned short,_STL::pair<unsigned short const ,ZONETABLE_INFO *>,_STL::_Select1st<_STL::pair<unsigned short const ,ZONETABLE_INFO *> >,_STL::less<unsigned short>,_STL::allocator<_STL::pair<unsigned short const ,ZONETABLE_INFO *> > >::_S_right
; Function compile flags: /Ogsy
;	COMDAT ?_S_right@?$_Rb_tree@GU?$pair@$$CBGPAVZONETABLE_INFO@@@_STL@@U?$_Select1st@U?$pair@$$CBGPAVZONETABLE_INFO@@@_STL@@@2@U?$less@G@2@V?$allocator@U?$pair@$$CBGPAVZONETABLE_INFO@@@_STL@@@2@@_STL@@KAAAPAU?$_Rb_tree_node@U?$pair@$$CBGPAVZONETABLE_INFO@@@_STL@@@2@PAU32@@Z
_TEXT	SEGMENT
___x$ = 8						; size = 4
?_S_right@?$_Rb_tree@GU?$pair@$$CBGPAVZONETABLE_INFO@@@_STL@@U?$_Select1st@U?$pair@$$CBGPAVZONETABLE_INFO@@@_STL@@@2@U?$less@G@2@V?$allocator@U?$pair@$$CBGPAVZONETABLE_INFO@@@_STL@@@2@@_STL@@KAAAPAU?$_Rb_tree_node@U?$pair@$$CBGPAVZONETABLE_INFO@@@_STL@@@2@PAU32@@Z PROC NEAR ; _STL::_Rb_tree<unsigned short,_STL::pair<unsigned short const ,ZONETABLE_INFO *>,_STL::_Select1st<_STL::pair<unsigned short const ,ZONETABLE_INFO *> >,_STL::less<unsigned short>,_STL::allocator<_STL::pair<unsigned short const ,ZONETABLE_INFO *> > >::_S_right, COMDAT

; 274  :     { return (_Link_type&)(__x->_M_right); }

  00000	8b 44 24 04	 mov	 eax, DWORD PTR ___x$[esp-4]
  00004	83 c0 0c	 add	 eax, 12			; 0000000cH
  00007	c3		 ret	 0
?_S_right@?$_Rb_tree@GU?$pair@$$CBGPAVZONETABLE_INFO@@@_STL@@U?$_Select1st@U?$pair@$$CBGPAVZONETABLE_INFO@@@_STL@@@2@U?$less@G@2@V?$allocator@U?$pair@$$CBGPAVZONETABLE_INFO@@@_STL@@@2@@_STL@@KAAAPAU?$_Rb_tree_node@U?$pair@$$CBGPAVZONETABLE_INFO@@@_STL@@@2@PAU32@@Z ENDP ; _STL::_Rb_tree<unsigned short,_STL::pair<unsigned short const ,ZONETABLE_INFO *>,_STL::_Select1st<_STL::pair<unsigned short const ,ZONETABLE_INFO *> >,_STL::less<unsigned short>,_STL::allocator<_STL::pair<unsigned short const ,ZONETABLE_INFO *> > >::_S_right
_TEXT	ENDS
PUBLIC	??R?$less@G@_STL@@QBE_NABG0@Z			; _STL::less<unsigned short>::operator()
; Function compile flags: /Ogsy
; File c:\stlport-4.6.1\stlport\stl\_function_base.h
;	COMDAT ??R?$less@G@_STL@@QBE_NABG0@Z
_TEXT	SEGMENT
___x$ = 8						; size = 4
___y$ = 12						; size = 4
??R?$less@G@_STL@@QBE_NABG0@Z PROC NEAR			; _STL::less<unsigned short>::operator(), COMDAT
; _this$ = ecx

; 73   :   bool operator()(const _Tp& __x, const _Tp& __y) const { return __x < __y; }

  00000	8b 44 24 04	 mov	 eax, DWORD PTR ___x$[esp-4]
  00004	0f b7 00	 movzx	 eax, WORD PTR [eax]
  00007	8b 4c 24 08	 mov	 ecx, DWORD PTR ___y$[esp-4]
  0000b	66 3b 01	 cmp	 ax, WORD PTR [ecx]
  0000e	1b c0		 sbb	 eax, eax
  00010	f7 d8		 neg	 eax
  00012	c2 08 00	 ret	 8
??R?$less@G@_STL@@QBE_NABG0@Z ENDP			; _STL::less<unsigned short>::operator()
_TEXT	ENDS
PUBLIC	??F?$_Rb_tree_iterator@U?$pair@$$CBGPAVZONETABLE_INFO@@@_STL@@U?$_Nonconst_traits@U?$pair@$$CBGPAVZONETABLE_INFO@@@_STL@@@2@@_STL@@QAEAAU01@XZ ; _STL::_Rb_tree_iterator<_STL::pair<unsigned short const ,ZONETABLE_INFO *>,_STL::_Nonconst_traits<_STL::pair<unsigned short const ,ZONETABLE_INFO *> > >::operator--
EXTRN	?_M_decrement@?$_Rb_global@_N@_STL@@SAPAU_Rb_tree_node_base@2@PAU32@@Z:NEAR ; _STL::_Rb_global<bool>::_M_decrement
; Function compile flags: /Ogsy
; File c:\stlport-4.6.1\stlport\stl\_tree.h
;	COMDAT ??F?$_Rb_tree_iterator@U?$pair@$$CBGPAVZONETABLE_INFO@@@_STL@@U?$_Nonconst_traits@U?$pair@$$CBGPAVZONETABLE_INFO@@@_STL@@@2@@_STL@@QAEAAU01@XZ
_TEXT	SEGMENT
??F?$_Rb_tree_iterator@U?$pair@$$CBGPAVZONETABLE_INFO@@@_STL@@U?$_Nonconst_traits@U?$pair@$$CBGPAVZONETABLE_INFO@@@_STL@@@2@@_STL@@QAEAAU01@XZ PROC NEAR ; _STL::_Rb_tree_iterator<_STL::pair<unsigned short const ,ZONETABLE_INFO *>,_STL::_Nonconst_traits<_STL::pair<unsigned short const ,ZONETABLE_INFO *> > >::operator--, COMDAT
; _this$ = ecx

; 181  :   _Self& operator--() { _M_node = _Rb_global_inst::_M_decrement(_M_node); return *this; }

  00000	56		 push	 esi
  00001	8b f1		 mov	 esi, ecx
  00003	ff 36		 push	 DWORD PTR [esi]
  00005	e8 00 00 00 00	 call	 ?_M_decrement@?$_Rb_global@_N@_STL@@SAPAU_Rb_tree_node_base@2@PAU32@@Z ; _STL::_Rb_global<bool>::_M_decrement
  0000a	89 06		 mov	 DWORD PTR [esi], eax
  0000c	59		 pop	 ecx
  0000d	8b c6		 mov	 eax, esi
  0000f	5e		 pop	 esi
  00010	c3		 ret	 0
??F?$_Rb_tree_iterator@U?$pair@$$CBGPAVZONETABLE_INFO@@@_STL@@U?$_Nonconst_traits@U?$pair@$$CBGPAVZONETABLE_INFO@@@_STL@@@2@@_STL@@QAEAAU01@XZ ENDP ; _STL::_Rb_tree_iterator<_STL::pair<unsigned short const ,ZONETABLE_INFO *>,_STL::_Nonconst_traits<_STL::pair<unsigned short const ,ZONETABLE_INFO *> > >::operator--
_TEXT	ENDS
PUBLIC	??0?$pair@U?$_Rb_tree_iterator@U?$pair@$$CBGPAVZONETABLE_INFO@@@_STL@@U?$_Nonconst_traits@U?$pair@$$CBGPAVZONETABLE_INFO@@@_STL@@@2@@_STL@@_N@_STL@@QAE@ABU?$_Rb_tree_iterator@U?$pair@$$CBGPAVZONETABLE_INFO@@@_STL@@U?$_Nonconst_traits@U?$pair@$$CBGPAVZONETABLE_INFO@@@_STL@@@2@@1@AB_N@Z ; _STL::pair<_STL::_Rb_tree_iterator<_STL::pair<unsigned short const ,ZONETABLE_INFO *>,_STL::_Nonconst_traits<_STL::pair<unsigned short const ,ZONETABLE_INFO *> > >,bool>::pair<_STL::_Rb_tree_iterator<_STL::pair<unsigned short const ,ZONETABLE_INFO *>,_STL::_Nonconst_traits<_STL::pair<unsigned short const ,ZONETABLE_INFO *> > >,bool>
; Function compile flags: /Ogsy
; File c:\stlport-4.6.1\stlport\stl\_pair.h
;	COMDAT ??0?$pair@U?$_Rb_tree_iterator@U?$pair@$$CBGPAVZONETABLE_INFO@@@_STL@@U?$_Nonconst_traits@U?$pair@$$CBGPAVZONETABLE_INFO@@@_STL@@@2@@_STL@@_N@_STL@@QAE@ABU?$_Rb_tree_iterator@U?$pair@$$CBGPAVZONETABLE_INFO@@@_STL@@U?$_Nonconst_traits@U?$pair@$$CBGPAVZONETABLE_INFO@@@_STL@@@2@@1@AB_N@Z
_TEXT	SEGMENT
___a$ = 8						; size = 4
___b$ = 12						; size = 4
??0?$pair@U?$_Rb_tree_iterator@U?$pair@$$CBGPAVZONETABLE_INFO@@@_STL@@U?$_Nonconst_traits@U?$pair@$$CBGPAVZONETABLE_INFO@@@_STL@@@2@@_STL@@_N@_STL@@QAE@ABU?$_Rb_tree_iterator@U?$pair@$$CBGPAVZONETABLE_INFO@@@_STL@@U?$_Nonconst_traits@U?$pair@$$CBGPAVZONETABLE_INFO@@@_STL@@@2@@1@AB_N@Z PROC NEAR ; _STL::pair<_STL::_Rb_tree_iterator<_STL::pair<unsigned short const ,ZONETABLE_INFO *>,_STL::_Nonconst_traits<_STL::pair<unsigned short const ,ZONETABLE_INFO *> > >,bool>::pair<_STL::_Rb_tree_iterator<_STL::pair<unsigned short const ,ZONETABLE_INFO *>,_STL::_Nonconst_traits<_STL::pair<unsigned short const ,ZONETABLE_INFO *> > >,bool>, COMDAT
; _this$ = ecx

; 48   :   pair(const _T1& __a, const _T2& __b) : first(__a), second(__b) {}

  00000	8b c1		 mov	 eax, ecx
  00002	8b 4c 24 04	 mov	 ecx, DWORD PTR ___a$[esp-4]
  00006	8b 09		 mov	 ecx, DWORD PTR [ecx]
  00008	89 08		 mov	 DWORD PTR [eax], ecx
  0000a	8b 4c 24 08	 mov	 ecx, DWORD PTR ___b$[esp-4]
  0000e	8a 09		 mov	 cl, BYTE PTR [ecx]
  00010	88 48 04	 mov	 BYTE PTR [eax+4], cl
  00013	c2 08 00	 ret	 8
??0?$pair@U?$_Rb_tree_iterator@U?$pair@$$CBGPAVZONETABLE_INFO@@@_STL@@U?$_Nonconst_traits@U?$pair@$$CBGPAVZONETABLE_INFO@@@_STL@@@2@@_STL@@_N@_STL@@QAE@ABU?$_Rb_tree_iterator@U?$pair@$$CBGPAVZONETABLE_INFO@@@_STL@@U?$_Nonconst_traits@U?$pair@$$CBGPAVZONETABLE_INFO@@@_STL@@@2@@1@AB_N@Z ENDP ; _STL::pair<_STL::_Rb_tree_iterator<_STL::pair<unsigned short const ,ZONETABLE_INFO *>,_STL::_Nonconst_traits<_STL::pair<unsigned short const ,ZONETABLE_INFO *> > >,bool>::pair<_STL::_Rb_tree_iterator<_STL::pair<unsigned short const ,ZONETABLE_INFO *>,_STL::_Nonconst_traits<_STL::pair<unsigned short const ,ZONETABLE_INFO *> > >,bool>
_TEXT	ENDS
PUBLIC	??Bsentry@?$basic_ostream@DV?$char_traits@D@_STL@@@_STL@@QBE_NXZ ; _STL::basic_ostream<char,_STL::char_traits<char> >::sentry::operator bool
; Function compile flags: /Ogsy
; File c:\stlport-4.6.1\stlport\stl\_ostream.h
;	COMDAT ??Bsentry@?$basic_ostream@DV?$char_traits@D@_STL@@@_STL@@QBE_NXZ
_TEXT	SEGMENT
??Bsentry@?$basic_ostream@DV?$char_traits@D@_STL@@@_STL@@QBE_NXZ PROC NEAR ; _STL::basic_ostream<char,_STL::char_traits<char> >::sentry::operator bool, COMDAT
; _this$ = ecx

; 176  :       operator bool() const { return _M_ok; }

  00000	8a 41 04	 mov	 al, BYTE PTR [ecx+4]
  00003	c3		 ret	 0
??Bsentry@?$basic_ostream@DV?$char_traits@D@_STL@@@_STL@@QBE_NXZ ENDP ; _STL::basic_ostream<char,_STL::char_traits<char> >::sentry::operator bool
_TEXT	ENDS
PUBLIC	??R?$_Select1st@U?$pair@$$CBGPAVZONETABLE_INFO@@@_STL@@@_STL@@QBEABGABU?$pair@$$CBGPAVZONETABLE_INFO@@@1@@Z ; _STL::_Select1st<_STL::pair<unsigned short const ,ZONETABLE_INFO *> >::operator()
; Function compile flags: /Ogsy
; File c:\stlport-4.6.1\stlport\stl\_function_base.h
;	COMDAT ??R?$_Select1st@U?$pair@$$CBGPAVZONETABLE_INFO@@@_STL@@@_STL@@QBEABGABU?$pair@$$CBGPAVZONETABLE_INFO@@@1@@Z
_TEXT	SEGMENT
___x$ = 8						; size = 4
??R?$_Select1st@U?$pair@$$CBGPAVZONETABLE_INFO@@@_STL@@@_STL@@QBEABGABU?$pair@$$CBGPAVZONETABLE_INFO@@@1@@Z PROC NEAR ; _STL::_Select1st<_STL::pair<unsigned short const ,ZONETABLE_INFO *> >::operator(), COMDAT
; _this$ = ecx

; 153  :     return __x.first;

  00000	8b 44 24 04	 mov	 eax, DWORD PTR ___x$[esp-4]

; 154  :   }

  00004	c2 04 00	 ret	 4
??R?$_Select1st@U?$pair@$$CBGPAVZONETABLE_INFO@@@_STL@@@_STL@@QBEABGABU?$pair@$$CBGPAVZONETABLE_INFO@@@1@@Z ENDP ; _STL::_Select1st<_STL::pair<unsigned short const ,ZONETABLE_INFO *> >::operator()
_TEXT	ENDS
PUBLIC	?clear@?$basic_ios@DV?$char_traits@D@_STL@@@_STL@@QAEXH@Z ; _STL::basic_ios<char,_STL::char_traits<char> >::clear
; Function compile flags: /Ogsy
; File c:\stlport-4.6.1\stlport\stl\_ios.h
;	COMDAT ?clear@?$basic_ios@DV?$char_traits@D@_STL@@@_STL@@QAEXH@Z
_TEXT	SEGMENT
___state$ = 8						; size = 4
?clear@?$basic_ios@DV?$char_traits@D@_STL@@@_STL@@QAEXH@Z PROC NEAR ; _STL::basic_ios<char,_STL::char_traits<char> >::clear, COMDAT
; _this$ = ecx

; 91   :     _M_clear_nothrow(this->rdbuf() ? __state : iostate(__state|ios_base::badbit));

  00000	83 79 58 00	 cmp	 DWORD PTR [ecx+88], 0
  00004	8b 44 24 04	 mov	 eax, DWORD PTR ___state$[esp-4]
  00008	75 03		 jne	 SHORT $L104392
  0000a	83 c8 01	 or	 eax, 1
$L104392:

; 92   :     _M_check_exception_mask();

  0000d	85 41 14	 test	 DWORD PTR [ecx+20], eax
  00010	89 41 08	 mov	 DWORD PTR [ecx+8], eax
  00013	74 05		 je	 SHORT $L104403
  00015	e8 00 00 00 00	 call	 ?_M_throw_failure@ios_base@_STL@@IAEXXZ ; _STL::ios_base::_M_throw_failure
$L104403:

; 93   :   }

  0001a	c2 04 00	 ret	 4
?clear@?$basic_ios@DV?$char_traits@D@_STL@@@_STL@@QAEXH@Z ENDP ; _STL::basic_ios<char,_STL::char_traits<char> >::clear
_TEXT	ENDS
PUBLIC	?_S_value@?$_Rb_tree@GU?$pair@$$CBGPAVZONETABLE_INFO@@@_STL@@U?$_Select1st@U?$pair@$$CBGPAVZONETABLE_INFO@@@_STL@@@2@U?$less@G@2@V?$allocator@U?$pair@$$CBGPAVZONETABLE_INFO@@@_STL@@@2@@_STL@@KAAAU?$pair@$$CBGPAVZONETABLE_INFO@@@2@PAU?$_Rb_tree_node@U?$pair@$$CBGPAVZONETABLE_INFO@@@_STL@@@2@@Z ; _STL::_Rb_tree<unsigned short,_STL::pair<unsigned short const ,ZONETABLE_INFO *>,_STL::_Select1st<_STL::pair<unsigned short const ,ZONETABLE_INFO *> >,_STL::less<unsigned short>,_STL::allocator<_STL::pair<unsigned short const ,ZONETABLE_INFO *> > >::_S_value
; Function compile flags: /Ogsy
; File c:\stlport-4.6.1\stlport\stl\_tree.h
;	COMDAT ?_S_value@?$_Rb_tree@GU?$pair@$$CBGPAVZONETABLE_INFO@@@_STL@@U?$_Select1st@U?$pair@$$CBGPAVZONETABLE_INFO@@@_STL@@@2@U?$less@G@2@V?$allocator@U?$pair@$$CBGPAVZONETABLE_INFO@@@_STL@@@2@@_STL@@KAAAU?$pair@$$CBGPAVZONETABLE_INFO@@@2@PAU?$_Rb_tree_node@U?$pair@$$CBGPAVZONETABLE_INFO@@@_STL@@@2@@Z
_TEXT	SEGMENT
___x$ = 8						; size = 4
?_S_value@?$_Rb_tree@GU?$pair@$$CBGPAVZONETABLE_INFO@@@_STL@@U?$_Select1st@U?$pair@$$CBGPAVZONETABLE_INFO@@@_STL@@@2@U?$less@G@2@V?$allocator@U?$pair@$$CBGPAVZONETABLE_INFO@@@_STL@@@2@@_STL@@KAAAU?$pair@$$CBGPAVZONETABLE_INFO@@@2@PAU?$_Rb_tree_node@U?$pair@$$CBGPAVZONETABLE_INFO@@@_STL@@@2@@Z PROC NEAR ; _STL::_Rb_tree<unsigned short,_STL::pair<unsigned short const ,ZONETABLE_INFO *>,_STL::_Select1st<_STL::pair<unsigned short const ,ZONETABLE_INFO *> >,_STL::less<unsigned short>,_STL::allocator<_STL::pair<unsigned short const ,ZONETABLE_INFO *> > >::_S_value, COMDAT

; 278  :     { return __x->_M_value_field; }

  00000	8b 44 24 04	 mov	 eax, DWORD PTR ___x$[esp-4]
  00004	83 c0 10	 add	 eax, 16			; 00000010H
  00007	c3		 ret	 0
?_S_value@?$_Rb_tree@GU?$pair@$$CBGPAVZONETABLE_INFO@@@_STL@@U?$_Select1st@U?$pair@$$CBGPAVZONETABLE_INFO@@@_STL@@@2@U?$less@G@2@V?$allocator@U?$pair@$$CBGPAVZONETABLE_INFO@@@_STL@@@2@@_STL@@KAAAU?$pair@$$CBGPAVZONETABLE_INFO@@@2@PAU?$_Rb_tree_node@U?$pair@$$CBGPAVZONETABLE_INFO@@@_STL@@@2@@Z ENDP ; _STL::_Rb_tree<unsigned short,_STL::pair<unsigned short const ,ZONETABLE_INFO *>,_STL::_Select1st<_STL::pair<unsigned short const ,ZONETABLE_INFO *> >,_STL::less<unsigned short>,_STL::allocator<_STL::pair<unsigned short const ,ZONETABLE_INFO *> > >::_S_value
_TEXT	ENDS
PUBLIC	?_M_handle_exception@?$basic_ios@DV?$char_traits@D@_STL@@@_STL@@QAEXH@Z ; _STL::basic_ios<char,_STL::char_traits<char> >::_M_handle_exception
EXTRN	__CxxThrowException@8:NEAR
; Function compile flags: /Ogsy
; File c:\stlport-4.6.1\stlport\stl\_ios.c
;	COMDAT ?_M_handle_exception@?$basic_ios@DV?$char_traits@D@_STL@@@_STL@@QAEXH@Z
_TEXT	SEGMENT
___flag$ = 8						; size = 4
?_M_handle_exception@?$basic_ios@DV?$char_traits@D@_STL@@@_STL@@QAEXH@Z PROC NEAR ; _STL::basic_ios<char,_STL::char_traits<char> >::_M_handle_exception, COMDAT
; _this$ = ecx

; 118  :   this->_M_setstate_nothrow(__flag);

  00000	8b 44 24 04	 mov	 eax, DWORD PTR ___flag$[esp-4]
  00004	09 41 08	 or	 DWORD PTR [ecx+8], eax

; 119  :   if (this->_M_get_exception_mask() & __flag)

  00007	85 41 14	 test	 DWORD PTR [ecx+20], eax
  0000a	74 09		 je	 SHORT $L103343

; 120  :     _STLP_RETHROW;

  0000c	6a 00		 push	 0
  0000e	6a 00		 push	 0
  00010	e8 00 00 00 00	 call	 __CxxThrowException@8
$L104420:
$L103343:

; 121  : }

  00015	c2 04 00	 ret	 4
$L104419:
?_M_handle_exception@?$basic_ios@DV?$char_traits@D@_STL@@@_STL@@QAEXH@Z ENDP ; _STL::basic_ios<char,_STL::char_traits<char> >::_M_handle_exception
_TEXT	ENDS
PUBLIC	??$_Destroy@G@_STL@@YAXPAG@Z			; _STL::_Destroy<unsigned short>
; Function compile flags: /Ogsy
; File c:\stlport-4.6.1\stlport\stl\_construct.h
;	COMDAT ??$_Destroy@G@_STL@@YAXPAG@Z
_TEXT	SEGMENT
___pointer$ = 8						; size = 4
??$_Destroy@G@_STL@@YAXPAG@Z PROC NEAR			; _STL::_Destroy<unsigned short>, COMDAT

; 57   : # if _MSC_VER >= 1010
; 58   :   __pointer;
; 59   : # endif	// _MSC_VER >= 1000
; 60   : # ifdef _STLP_TRIVIAL_DESTRUCTOR_BUG
; 61   :   typedef typename __type_traits<_Tp>::has_trivial_destructor _Trivial_destructor;
; 62   :   __destroy_aux(__pointer, _Trivial_destructor());
; 63   : # else
; 64   : #  if ( defined (__BORLANDC__) && ( __BORLANDC__ < 0x500 ) )
; 65   :     __pointer->_Tp::~_Tp();
; 66   : #  else
; 67   :     __pointer->~_Tp();
; 68   : #  endif
; 69   : # endif
; 70   : # ifdef _STLP_DEBUG_UNINITIALIZED
; 71   : 	memset((char*)__pointer, _STLP_SHRED_BYTE, sizeof(_Tp));
; 72   : # endif
; 73   : }

  00000	c3		 ret	 0
??$_Destroy@G@_STL@@YAXPAG@Z ENDP			; _STL::_Destroy<unsigned short>
_TEXT	ENDS
PUBLIC	??$_Destroy@U?$pair@$$CBGPAVZONETABLE_INFO@@@_STL@@@_STL@@YAXPAU?$pair@$$CBGPAVZONETABLE_INFO@@@0@@Z ; _STL::_Destroy<_STL::pair<unsigned short const ,ZONETABLE_INFO *> >
; Function compile flags: /Ogsy
;	COMDAT ??$_Destroy@U?$pair@$$CBGPAVZONETABLE_INFO@@@_STL@@@_STL@@YAXPAU?$pair@$$CBGPAVZONETABLE_INFO@@@0@@Z
_TEXT	SEGMENT
___pointer$ = 8						; size = 4
??$_Destroy@U?$pair@$$CBGPAVZONETABLE_INFO@@@_STL@@@_STL@@YAXPAU?$pair@$$CBGPAVZONETABLE_INFO@@@0@@Z PROC NEAR ; _STL::_Destroy<_STL::pair<unsigned short const ,ZONETABLE_INFO *> >, COMDAT

; 57   : # if _MSC_VER >= 1010
; 58   :   __pointer;
; 59   : # endif	// _MSC_VER >= 1000
; 60   : # ifdef _STLP_TRIVIAL_DESTRUCTOR_BUG
; 61   :   typedef typename __type_traits<_Tp>::has_trivial_destructor _Trivial_destructor;
; 62   :   __destroy_aux(__pointer, _Trivial_destructor());
; 63   : # else
; 64   : #  if ( defined (__BORLANDC__) && ( __BORLANDC__ < 0x500 ) )
; 65   :     __pointer->_Tp::~_Tp();
; 66   : #  else
; 67   :     __pointer->~_Tp();
; 68   : #  endif
; 69   : # endif
; 70   : # ifdef _STLP_DEBUG_UNINITIALIZED
; 71   : 	memset((char*)__pointer, _STLP_SHRED_BYTE, sizeof(_Tp));
; 72   : # endif
; 73   : }

  00000	c3		 ret	 0
??$_Destroy@U?$pair@$$CBGPAVZONETABLE_INFO@@@_STL@@@_STL@@YAXPAU?$pair@$$CBGPAVZONETABLE_INFO@@@0@@Z ENDP ; _STL::_Destroy<_STL::pair<unsigned short const ,ZONETABLE_INFO *> >
_TEXT	ENDS
PUBLIC	??$__copy@PAVMString@@PAV1@H@_STL@@YAPAVMString@@PAV1@00ABUrandom_access_iterator_tag@0@PAH@Z ; _STL::__copy<MString *,MString *,int>
EXTRN	??4MString@@QAEXABV0@@Z:NEAR			; MString::operator=
; Function compile flags: /Ogsy
; File c:\stlport-4.6.1\stlport\stl\_algobase.h
;	COMDAT ??$__copy@PAVMString@@PAV1@H@_STL@@YAPAVMString@@PAV1@00ABUrandom_access_iterator_tag@0@PAH@Z
_TEXT	SEGMENT
___first$ = 8						; size = 4
___last$ = 12						; size = 4
___result$ = 16						; size = 4
___formal$ = 20						; size = 4
___formal$ = 24						; size = 4
??$__copy@PAVMString@@PAV1@H@_STL@@YAPAVMString@@PAV1@00ABUrandom_access_iterator_tag@0@PAH@Z PROC NEAR ; _STL::__copy<MString *,MString *,int>, COMDAT

; 137  :        _OutputIter __result, const random_access_iterator_tag &, _Distance*) {

  00000	55		 push	 ebp
  00001	8b ec		 mov	 ebp, esp

; 138  :   for (_Distance __n = __last - __first; __n > 0; --__n) {

  00003	8b 45 0c	 mov	 eax, DWORD PTR ___last$[ebp]
  00006	2b 45 08	 sub	 eax, DWORD PTR ___first$[ebp]
  00009	6a 0c		 push	 12			; 0000000cH
  0000b	99		 cdq
  0000c	59		 pop	 ecx
  0000d	f7 f9		 idiv	 ecx
  0000f	85 c0		 test	 eax, eax
  00011	7e 1a		 jle	 SHORT $L104432
  00013	56		 push	 esi
  00014	8b f0		 mov	 esi, eax
$L103465:

; 139  :     *__result = *__first;

  00016	ff 75 08	 push	 DWORD PTR ___first$[ebp]
  00019	8b 4d 10	 mov	 ecx, DWORD PTR ___result$[ebp]
  0001c	e8 00 00 00 00	 call	 ??4MString@@QAEXABV0@@Z	; MString::operator=

; 140  :     ++__first;

  00021	83 45 08 0c	 add	 DWORD PTR ___first$[ebp], 12 ; 0000000cH

; 141  :     ++__result;

  00025	83 45 10 0c	 add	 DWORD PTR ___result$[ebp], 12 ; 0000000cH
  00029	4e		 dec	 esi
  0002a	75 ea		 jne	 SHORT $L103465
  0002c	5e		 pop	 esi
$L104432:

; 142  :   }
; 143  :   return __result;

  0002d	8b 45 10	 mov	 eax, DWORD PTR ___result$[ebp]

; 144  : }

  00030	5d		 pop	 ebp
  00031	c3		 ret	 0
??$__copy@PAVMString@@PAV1@H@_STL@@YAPAVMString@@PAV1@00ABUrandom_access_iterator_tag@0@PAH@Z ENDP ; _STL::__copy<MString *,MString *,int>
_TEXT	ENDS
PUBLIC	?tie@?$basic_ios@DV?$char_traits@D@_STL@@@_STL@@QBEPAV?$basic_ostream@DV?$char_traits@D@_STL@@@2@XZ ; _STL::basic_ios<char,_STL::char_traits<char> >::tie
; Function compile flags: /Ogsy
; File c:\stlport-4.6.1\stlport\stl\_ios.h
;	COMDAT ?tie@?$basic_ios@DV?$char_traits@D@_STL@@@_STL@@QBEPAV?$basic_ostream@DV?$char_traits@D@_STL@@@2@XZ
_TEXT	SEGMENT
?tie@?$basic_ios@DV?$char_traits@D@_STL@@@_STL@@QBEPAV?$basic_ostream@DV?$char_traits@D@_STL@@@2@XZ PROC NEAR ; _STL::basic_ios<char,_STL::char_traits<char> >::tie, COMDAT
; _this$ = ecx

; 62   :     return _M_tied_ostream;

  00000	8b 41 5c	 mov	 eax, DWORD PTR [ecx+92]

; 63   :   }

  00003	c3		 ret	 0
?tie@?$basic_ios@DV?$char_traits@D@_STL@@@_STL@@QBEPAV?$basic_ostream@DV?$char_traits@D@_STL@@@2@XZ ENDP ; _STL::basic_ios<char,_STL::char_traits<char> >::tie
_TEXT	ENDS
PUBLIC	?_S_parent@?$_Rb_tree@GU?$pair@$$CBGPAVZONETABLE_INFO@@@_STL@@U?$_Select1st@U?$pair@$$CBGPAVZONETABLE_INFO@@@_STL@@@2@U?$less@G@2@V?$allocator@U?$pair@$$CBGPAVZONETABLE_INFO@@@_STL@@@2@@_STL@@KAAAPAU?$_Rb_tree_node@U?$pair@$$CBGPAVZONETABLE_INFO@@@_STL@@@2@PAU32@@Z ; _STL::_Rb_tree<unsigned short,_STL::pair<unsigned short const ,ZONETABLE_INFO *>,_STL::_Select1st<_STL::pair<unsigned short const ,ZONETABLE_INFO *> >,_STL::less<unsigned short>,_STL::allocator<_STL::pair<unsigned short const ,ZONETABLE_INFO *> > >::_S_parent
; Function compile flags: /Ogsy
; File c:\stlport-4.6.1\stlport\stl\_tree.h
;	COMDAT ?_S_parent@?$_Rb_tree@GU?$pair@$$CBGPAVZONETABLE_INFO@@@_STL@@U?$_Select1st@U?$pair@$$CBGPAVZONETABLE_INFO@@@_STL@@@2@U?$less@G@2@V?$allocator@U?$pair@$$CBGPAVZONETABLE_INFO@@@_STL@@@2@@_STL@@KAAAPAU?$_Rb_tree_node@U?$pair@$$CBGPAVZONETABLE_INFO@@@_STL@@@2@PAU32@@Z
_TEXT	SEGMENT
___x$ = 8						; size = 4
?_S_parent@?$_Rb_tree@GU?$pair@$$CBGPAVZONETABLE_INFO@@@_STL@@U?$_Select1st@U?$pair@$$CBGPAVZONETABLE_INFO@@@_STL@@@2@U?$less@G@2@V?$allocator@U?$pair@$$CBGPAVZONETABLE_INFO@@@_STL@@@2@@_STL@@KAAAPAU?$_Rb_tree_node@U?$pair@$$CBGPAVZONETABLE_INFO@@@_STL@@@2@PAU32@@Z PROC NEAR ; _STL::_Rb_tree<unsigned short,_STL::pair<unsigned short const ,ZONETABLE_INFO *>,_STL::_Select1st<_STL::pair<unsigned short const ,ZONETABLE_INFO *> >,_STL::less<unsigned short>,_STL::allocator<_STL::pair<unsigned short const ,ZONETABLE_INFO *> > >::_S_parent, COMDAT

; 276  :     { return (_Link_type&)(__x->_M_parent); }

  00000	8b 44 24 04	 mov	 eax, DWORD PTR ___x$[esp-4]
  00004	83 c0 04	 add	 eax, 4
  00007	c3		 ret	 0
?_S_parent@?$_Rb_tree@GU?$pair@$$CBGPAVZONETABLE_INFO@@@_STL@@U?$_Select1st@U?$pair@$$CBGPAVZONETABLE_INFO@@@_STL@@@2@U?$less@G@2@V?$allocator@U?$pair@$$CBGPAVZONETABLE_INFO@@@_STL@@@2@@_STL@@KAAAPAU?$_Rb_tree_node@U?$pair@$$CBGPAVZONETABLE_INFO@@@_STL@@@2@PAU32@@Z ENDP ; _STL::_Rb_tree<unsigned short,_STL::pair<unsigned short const ,ZONETABLE_INFO *>,_STL::_Select1st<_STL::pair<unsigned short const ,ZONETABLE_INFO *> >,_STL::less<unsigned short>,_STL::allocator<_STL::pair<unsigned short const ,ZONETABLE_INFO *> > >::_S_parent
_TEXT	ENDS
PUBLIC	??0?$pair@$$CBGPAVZONETABLE_INFO@@@_STL@@QAE@ABU01@@Z ; _STL::pair<unsigned short const ,ZONETABLE_INFO *>::pair<unsigned short const ,ZONETABLE_INFO *>
; Function compile flags: /Ogsy
; File c:\stlport-4.6.1\stlport\stl\_pair.h
;	COMDAT ??0?$pair@$$CBGPAVZONETABLE_INFO@@@_STL@@QAE@ABU01@@Z
_TEXT	SEGMENT
___o$ = 8						; size = 4
??0?$pair@$$CBGPAVZONETABLE_INFO@@@_STL@@QAE@ABU01@@Z PROC NEAR ; _STL::pair<unsigned short const ,ZONETABLE_INFO *>::pair<unsigned short const ,ZONETABLE_INFO *>, COMDAT
; _this$ = ecx

; 54   :   pair(const pair<_T1,_T2>& __o) : first(__o.first), second(__o.second) {}

  00000	8b c1		 mov	 eax, ecx
  00002	8b 4c 24 04	 mov	 ecx, DWORD PTR ___o$[esp-4]
  00006	66 8b 11	 mov	 dx, WORD PTR [ecx]
  00009	66 89 10	 mov	 WORD PTR [eax], dx
  0000c	8b 49 04	 mov	 ecx, DWORD PTR [ecx+4]
  0000f	89 48 04	 mov	 DWORD PTR [eax+4], ecx
  00012	c2 04 00	 ret	 4
??0?$pair@$$CBGPAVZONETABLE_INFO@@@_STL@@QAE@ABU01@@Z ENDP ; _STL::pair<unsigned short const ,ZONETABLE_INFO *>::pair<unsigned short const ,ZONETABLE_INFO *>
_TEXT	ENDS
PUBLIC	??$_Destroy@VMString@@@_STL@@YAXPAVMString@@@Z	; _STL::_Destroy<MString>
; Function compile flags: /Ogsy
; File c:\stlport-4.6.1\stlport\stl\_construct.h
;	COMDAT ??$_Destroy@VMString@@@_STL@@YAXPAVMString@@@Z
_TEXT	SEGMENT
___pointer$ = 8						; size = 4
??$_Destroy@VMString@@@_STL@@YAXPAVMString@@@Z PROC NEAR ; _STL::_Destroy<MString>, COMDAT

; 57   : # if _MSC_VER >= 1010
; 58   :   __pointer;
; 59   : # endif	// _MSC_VER >= 1000
; 60   : # ifdef _STLP_TRIVIAL_DESTRUCTOR_BUG
; 61   :   typedef typename __type_traits<_Tp>::has_trivial_destructor _Trivial_destructor;
; 62   :   __destroy_aux(__pointer, _Trivial_destructor());
; 63   : # else
; 64   : #  if ( defined (__BORLANDC__) && ( __BORLANDC__ < 0x500 ) )
; 65   :     __pointer->_Tp::~_Tp();
; 66   : #  else
; 67   :     __pointer->~_Tp();

  00000	8b 4c 24 04	 mov	 ecx, DWORD PTR ___pointer$[esp-4]
  00004	8b 01		 mov	 eax, DWORD PTR [ecx]
  00006	6a 00		 push	 0
  00008	ff 10		 call	 DWORD PTR [eax]

; 68   : #  endif
; 69   : # endif
; 70   : # ifdef _STLP_DEBUG_UNINITIALIZED
; 71   : 	memset((char*)__pointer, _STLP_SHRED_BYTE, sizeof(_Tp));
; 72   : # endif
; 73   : }

  0000a	c3		 ret	 0
??$_Destroy@VMString@@@_STL@@YAXPAVMString@@@Z ENDP	; _STL::_Destroy<MString>
_TEXT	ENDS
PUBLIC	??0_List_iterator_base@_STL@@QAE@PAU_List_node_base@1@@Z ; _STL::_List_iterator_base::_List_iterator_base
; Function compile flags: /Ogsy
; File c:\stlport-4.6.1\stlport\stl\_list.h
;	COMDAT ??0_List_iterator_base@_STL@@QAE@PAU_List_node_base@1@@Z
_TEXT	SEGMENT
___x$ = 8						; size = 4
??0_List_iterator_base@_STL@@QAE@PAU_List_node_base@1@@Z PROC NEAR ; _STL::_List_iterator_base::_List_iterator_base, COMDAT
; _this$ = ecx

; 95   :   _List_iterator_base(_List_node_base* __x) : _M_node(__x) {}

  00000	8b c1		 mov	 eax, ecx
  00002	8b 4c 24 04	 mov	 ecx, DWORD PTR ___x$[esp-4]
  00006	89 08		 mov	 DWORD PTR [eax], ecx
  00008	c2 04 00	 ret	 4
??0_List_iterator_base@_STL@@QAE@PAU_List_node_base@1@@Z ENDP ; _STL::_List_iterator_base::_List_iterator_base
_TEXT	ENDS
PUBLIC	?_M_incr@_List_iterator_base@_STL@@QAEXXZ	; _STL::_List_iterator_base::_M_incr
; Function compile flags: /Ogsy
;	COMDAT ?_M_incr@_List_iterator_base@_STL@@QAEXXZ
_TEXT	SEGMENT
?_M_incr@_List_iterator_base@_STL@@QAEXXZ PROC NEAR	; _STL::_List_iterator_base::_M_incr, COMDAT
; _this$ = ecx

; 98   :   void _M_incr() { _M_node = _M_node->_M_next; }

  00000	8b 01		 mov	 eax, DWORD PTR [ecx]
  00002	8b 00		 mov	 eax, DWORD PTR [eax]
  00004	89 01		 mov	 DWORD PTR [ecx], eax
  00006	c3		 ret	 0
?_M_incr@_List_iterator_base@_STL@@QAEXXZ ENDP		; _STL::_List_iterator_base::_M_incr
_TEXT	ENDS
PUBLIC	??9_List_iterator_base@_STL@@QBE_NABU01@@Z	; _STL::_List_iterator_base::operator!=
; Function compile flags: /Ogsy
;	COMDAT ??9_List_iterator_base@_STL@@QBE_NABU01@@Z
_TEXT	SEGMENT
___y$ = 8						; size = 4
??9_List_iterator_base@_STL@@QBE_NABU01@@Z PROC NEAR	; _STL::_List_iterator_base::operator!=, COMDAT
; _this$ = ecx

; 104  :     return _M_node != __y._M_node; 

  00000	8b 01		 mov	 eax, DWORD PTR [ecx]
  00002	8b 54 24 04	 mov	 edx, DWORD PTR ___y$[esp-4]
  00006	33 c9		 xor	 ecx, ecx
  00008	3b 02		 cmp	 eax, DWORD PTR [edx]
  0000a	0f 95 c1	 setne	 cl
  0000d	8a c1		 mov	 al, cl

; 105  :   }

  0000f	c2 04 00	 ret	 4
??9_List_iterator_base@_STL@@QBE_NABU01@@Z ENDP		; _STL::_List_iterator_base::operator!=
_TEXT	ENDS
PUBLIC	??8_Rb_tree_base_iterator@_STL@@QBE_NABU01@@Z	; _STL::_Rb_tree_base_iterator::operator==
; Function compile flags: /Ogsy
; File c:\stlport-4.6.1\stlport\stl\_tree.h
;	COMDAT ??8_Rb_tree_base_iterator@_STL@@QBE_NABU01@@Z
_TEXT	SEGMENT
___y$ = 8						; size = 4
??8_Rb_tree_base_iterator@_STL@@QBE_NABU01@@Z PROC NEAR	; _STL::_Rb_tree_base_iterator::operator==, COMDAT
; _this$ = ecx

; 147  :     return _M_node == __y._M_node;

  00000	8b 01		 mov	 eax, DWORD PTR [ecx]
  00002	8b 4c 24 04	 mov	 ecx, DWORD PTR ___y$[esp-4]
  00006	2b 01		 sub	 eax, DWORD PTR [ecx]
  00008	f7 d8		 neg	 eax
  0000a	1b c0		 sbb	 eax, eax
  0000c	40		 inc	 eax

; 148  :   }

  0000d	c2 04 00	 ret	 4
??8_Rb_tree_base_iterator@_STL@@QBE_NABU01@@Z ENDP	; _STL::_Rb_tree_base_iterator::operator==
_TEXT	ENDS
PUBLIC	??9_Rb_tree_base_iterator@_STL@@QBE_NABU01@@Z	; _STL::_Rb_tree_base_iterator::operator!=
; Function compile flags: /Ogsy
;	COMDAT ??9_Rb_tree_base_iterator@_STL@@QBE_NABU01@@Z
_TEXT	SEGMENT
___y$ = 8						; size = 4
??9_Rb_tree_base_iterator@_STL@@QBE_NABU01@@Z PROC NEAR	; _STL::_Rb_tree_base_iterator::operator!=, COMDAT
; _this$ = ecx

; 150  :     return _M_node != __y._M_node;

  00000	8b 01		 mov	 eax, DWORD PTR [ecx]
  00002	8b 54 24 04	 mov	 edx, DWORD PTR ___y$[esp-4]
  00006	33 c9		 xor	 ecx, ecx
  00008	3b 02		 cmp	 eax, DWORD PTR [edx]
  0000a	0f 95 c1	 setne	 cl
  0000d	8a c1		 mov	 al, cl

; 151  :   }

  0000f	c2 04 00	 ret	 4
??9_Rb_tree_base_iterator@_STL@@QBE_NABU01@@Z ENDP	; _STL::_Rb_tree_base_iterator::operator!=
_TEXT	ENDS
PUBLIC	??0CRect@@QAE@XZ				; CRect::CRect
; Function compile flags: /Ogsy
; File c:\darkeden\designed_common\project\client\atltypes\atltypes.inl
;	COMDAT ??0CRect@@QAE@XZ
_TEXT	SEGMENT
??0CRect@@QAE@XZ PROC NEAR				; CRect::CRect, COMDAT
; _this$ = ecx

; 110  : 	{ /* random filled */ }

  00000	8b c1		 mov	 eax, ecx
  00002	c3		 ret	 0
??0CRect@@QAE@XZ ENDP					; CRect::CRect
_TEXT	ENDS
PUBLIC	??1?$allocator@G@_STL@@QAE@XZ			; _STL::allocator<unsigned short>::~allocator<unsigned short>
; Function compile flags: /Ogsy
; File c:\stlport-4.6.1\stlport\stl\_alloc.h
;	COMDAT ??1?$allocator@G@_STL@@QAE@XZ
_TEXT	SEGMENT
??1?$allocator@G@_STL@@QAE@XZ PROC NEAR			; _STL::allocator<unsigned short>::~allocator<unsigned short>, COMDAT
; _this$ = ecx

; 350  :   ~allocator() _STLP_NOTHROW {}

  00000	c3		 ret	 0
??1?$allocator@G@_STL@@QAE@XZ ENDP			; _STL::allocator<unsigned short>::~allocator<unsigned short>
_TEXT	ENDS
PUBLIC	?allocate@?$__node_alloc@$00$0A@@_STL@@SAPAXI@Z	; _STL::__node_alloc<1,0>::allocate
EXTRN	?_M_allocate@?$__node_alloc@$00$0A@@_STL@@CAPAXI@Z:NEAR ; _STL::__node_alloc<1,0>::_M_allocate
; Function compile flags: /Ogsy
;	COMDAT ?allocate@?$__node_alloc@$00$0A@@_STL@@SAPAXI@Z
_TEXT	SEGMENT
___n$ = 8						; size = 4
?allocate@?$__node_alloc@$00$0A@@_STL@@SAPAXI@Z PROC NEAR ; _STL::__node_alloc<1,0>::allocate, COMDAT

; 251  :   static void * _STLP_CALL allocate(size_t __n) { return (__n > (size_t)_MAX_BYTES) ?  __stl_new(__n) : _M_allocate(__n); }

  00000	8b 44 24 04	 mov	 eax, DWORD PTR ___n$[esp-4]
  00004	3d 80 00 00 00	 cmp	 eax, 128		; 00000080H
  00009	50		 push	 eax
  0000a	76 07		 jbe	 SHORT $L104468
  0000c	e8 00 00 00 00	 call	 ??2@YAPAXI@Z		; operator new
  00011	59		 pop	 ecx
  00012	c3		 ret	 0
$L104468:
  00013	e8 00 00 00 00	 call	 ?_M_allocate@?$__node_alloc@$00$0A@@_STL@@CAPAXI@Z ; _STL::__node_alloc<1,0>::_M_allocate
  00018	59		 pop	 ecx
  00019	c3		 ret	 0
?allocate@?$__node_alloc@$00$0A@@_STL@@SAPAXI@Z ENDP	; _STL::__node_alloc<1,0>::allocate
_TEXT	ENDS
PUBLIC	?deallocate@?$__node_alloc@$00$0A@@_STL@@SAXPAXI@Z ; _STL::__node_alloc<1,0>::deallocate
EXTRN	?_M_deallocate@?$__node_alloc@$00$0A@@_STL@@CAXPAXI@Z:NEAR ; _STL::__node_alloc<1,0>::_M_deallocate
; Function compile flags: /Ogsy
;	COMDAT ?deallocate@?$__node_alloc@$00$0A@@_STL@@SAXPAXI@Z
_TEXT	SEGMENT
___p$ = 8						; size = 4
___n$ = 12						; size = 4
?deallocate@?$__node_alloc@$00$0A@@_STL@@SAXPAXI@Z PROC NEAR ; _STL::__node_alloc<1,0>::deallocate, COMDAT

; 253  :   static void _STLP_CALL deallocate(void *__p, size_t __n) { if (__n > (size_t)_MAX_BYTES) __stl_delete(__p); else _M_deallocate(__p, __n); }

  00000	81 7c 24 08 80
	00 00 00	 cmp	 DWORD PTR ___n$[esp-4], 128 ; 00000080H
  00008	76 0b		 jbe	 SHORT $L98677
  0000a	ff 74 24 04	 push	 DWORD PTR ___p$[esp-4]
  0000e	e8 00 00 00 00	 call	 ??3@YAXPAX@Z		; operator delete
  00013	59		 pop	 ecx
  00014	c3		 ret	 0
$L98677:
  00015	e9 00 00 00 00	 jmp	 ?_M_deallocate@?$__node_alloc@$00$0A@@_STL@@CAXPAXI@Z ; _STL::__node_alloc<1,0>::_M_deallocate
?deallocate@?$__node_alloc@$00$0A@@_STL@@SAXPAXI@Z ENDP	; _STL::__node_alloc<1,0>::deallocate
_TEXT	ENDS
PUBLIC	??0WORLDMAP_INFO@@QAE@XZ			; WORLDMAP_INFO::WORLDMAP_INFO
EXTRN	??0MString@@QAE@XZ:NEAR				; MString::MString
; Function compile flags: /Ogsy
; File c:\darkeden\designed_common\project\client\mzonetable.cpp
;	COMDAT ??0WORLDMAP_INFO@@QAE@XZ
_TEXT	SEGMENT
??0WORLDMAP_INFO@@QAE@XZ PROC NEAR			; WORLDMAP_INFO::WORLDMAP_INFO, COMDAT
; _this$ = ecx

; 48   : {

  00000	56		 push	 esi
  00001	8b f1		 mov	 esi, ecx
  00003	8d 4e 20	 lea	 ecx, DWORD PTR [esi+32]
  00006	e8 00 00 00 00	 call	 ??0MString@@QAE@XZ	; MString::MString

; 49   : 	WorldMapType				= WORLDMAP_MAX;
; 50   : 	PaymentType					= PAYMENT_FREE;

  0000b	33 c0		 xor	 eax, eax
  0000d	89 46 04	 mov	 DWORD PTR [esi+4], eax

; 51   : 
; 52   : 	EncourageSlayerLevelMin		= 0;

  00010	88 46 18	 mov	 BYTE PTR [esi+24], al

; 53   : 	EncourageSlayerLevelMax		= 0;

  00013	88 46 19	 mov	 BYTE PTR [esi+25], al

; 54   : 
; 55   : 	EncourageVampireLevelMin	= 0;

  00016	88 46 1a	 mov	 BYTE PTR [esi+26], al

; 56   : 	EncourageVampireLevelMax	= 0;

  00019	88 46 1b	 mov	 BYTE PTR [esi+27], al

; 57   : 
; 58   : 	EncourageOustersLevelMin	= 0;

  0001c	88 46 1c	 mov	 BYTE PTR [esi+28], al

; 59   : 	EncourageOustersLevelMax	= 0;

  0001f	88 46 1d	 mov	 BYTE PTR [esi+29], al
  00022	c7 06 01 00 00
	00		 mov	 DWORD PTR [esi], 1

; 60   : }

  00028	8b c6		 mov	 eax, esi
  0002a	5e		 pop	 esi
  0002b	c3		 ret	 0
??0WORLDMAP_INFO@@QAE@XZ ENDP				; WORLDMAP_INFO::WORLDMAP_INFO
_TEXT	ENDS
PUBLIC	?size@?$map@GPAVZONETABLE_INFO@@U?$less@G@_STL@@V?$allocator@U?$pair@$$CBGPAVZONETABLE_INFO@@@_STL@@@3@@_STL@@QBEIXZ ; _STL::map<unsigned short,ZONETABLE_INFO *,_STL::less<unsigned short>,_STL::allocator<_STL::pair<unsigned short const ,ZONETABLE_INFO *> > >::size
; Function compile flags: /Ogsy
; File c:\stlport-4.6.1\stlport\stl\_map.h
;	COMDAT ?size@?$map@GPAVZONETABLE_INFO@@U?$less@G@_STL@@V?$allocator@U?$pair@$$CBGPAVZONETABLE_INFO@@@_STL@@@3@@_STL@@QBEIXZ
_TEXT	SEGMENT
?size@?$map@GPAVZONETABLE_INFO@@U?$less@G@_STL@@V?$allocator@U?$pair@$$CBGPAVZONETABLE_INFO@@@_STL@@@3@@_STL@@QBEIXZ PROC NEAR ; _STL::map<unsigned short,ZONETABLE_INFO *,_STL::less<unsigned short>,_STL::allocator<_STL::pair<unsigned short const ,ZONETABLE_INFO *> > >::size, COMDAT
; _this$ = ecx

; 156  :   size_type size() const { return _M_t.size(); }

  00000	8b 41 04	 mov	 eax, DWORD PTR [ecx+4]
  00003	c3		 ret	 0
?size@?$map@GPAVZONETABLE_INFO@@U?$less@G@_STL@@V?$allocator@U?$pair@$$CBGPAVZONETABLE_INFO@@@_STL@@@3@@_STL@@QBEIXZ ENDP ; _STL::map<unsigned short,ZONETABLE_INFO *,_STL::less<unsigned short>,_STL::allocator<_STL::pair<unsigned short const ,ZONETABLE_INFO *> > >::size
_TEXT	ENDS
PUBLIC	??E?$_List_iterator@GU?$_Const_traits@G@_STL@@@_STL@@QAE?AU01@H@Z ; _STL::_List_iterator<unsigned short,_STL::_Const_traits<unsigned short> >::operator++
; Function compile flags: /Ogsy
; File c:\stlport-4.6.1\stlport\stl\_list.h
;	COMDAT ??E?$_List_iterator@GU?$_Const_traits@G@_STL@@@_STL@@QAE?AU01@H@Z
_TEXT	SEGMENT
___$ReturnUdt$ = 8					; size = 4
___formal$ = 12						; size = 4
??E?$_List_iterator@GU?$_Const_traits@G@_STL@@@_STL@@QAE?AU01@H@Z PROC NEAR ; _STL::_List_iterator<unsigned short,_STL::_Const_traits<unsigned short> >::operator++, COMDAT
; _this$ = ecx

; 139  :     _Self __tmp = *this;

  00000	8b 11		 mov	 edx, DWORD PTR [ecx]

; 140  :     this->_M_incr();

  00002	8b 02		 mov	 eax, DWORD PTR [edx]
  00004	89 01		 mov	 DWORD PTR [ecx], eax

; 141  :     return __tmp;

  00006	8b 44 24 04	 mov	 eax, DWORD PTR ___$ReturnUdt$[esp-4]
  0000a	89 10		 mov	 DWORD PTR [eax], edx

; 142  :   }

  0000c	c2 08 00	 ret	 8
??E?$_List_iterator@GU?$_Const_traits@G@_STL@@@_STL@@QAE?AU01@H@Z ENDP ; _STL::_List_iterator<unsigned short,_STL::_Const_traits<unsigned short> >::operator++
_TEXT	ENDS
PUBLIC	??E?$_Rb_tree_iterator@U?$pair@$$CBGPAVZONETABLE_INFO@@@_STL@@U?$_Nonconst_traits@U?$pair@$$CBGPAVZONETABLE_INFO@@@_STL@@@2@@_STL@@QAE?AU01@H@Z ; _STL::_Rb_tree_iterator<_STL::pair<unsigned short const ,ZONETABLE_INFO *>,_STL::_Nonconst_traits<_STL::pair<unsigned short const ,ZONETABLE_INFO *> > >::operator++
EXTRN	?_M_increment@?$_Rb_global@_N@_STL@@SAPAU_Rb_tree_node_base@2@PAU32@@Z:NEAR ; _STL::_Rb_global<bool>::_M_increment
; Function compile flags: /Ogsy
; File c:\stlport-4.6.1\stlport\stl\_tree.h
;	COMDAT ??E?$_Rb_tree_iterator@U?$pair@$$CBGPAVZONETABLE_INFO@@@_STL@@U?$_Nonconst_traits@U?$pair@$$CBGPAVZONETABLE_INFO@@@_STL@@@2@@_STL@@QAE?AU01@H@Z
_TEXT	SEGMENT
___$ReturnUdt$ = 8					; size = 4
___formal$ = 12						; size = 4
??E?$_Rb_tree_iterator@U?$pair@$$CBGPAVZONETABLE_INFO@@@_STL@@U?$_Nonconst_traits@U?$pair@$$CBGPAVZONETABLE_INFO@@@_STL@@@2@@_STL@@QAE?AU01@H@Z PROC NEAR ; _STL::_Rb_tree_iterator<_STL::pair<unsigned short const ,ZONETABLE_INFO *>,_STL::_Nonconst_traits<_STL::pair<unsigned short const ,ZONETABLE_INFO *> > >::operator++, COMDAT
; _this$ = ecx

; 175  :   _Self operator++(int) {

  00000	56		 push	 esi
  00001	8b f1		 mov	 esi, ecx
  00003	57		 push	 edi

; 176  :     _Self __tmp = *this;

  00004	8b 3e		 mov	 edi, DWORD PTR [esi]

; 177  :     _M_node = _Rb_global_inst::_M_increment(_M_node);

  00006	57		 push	 edi
  00007	e8 00 00 00 00	 call	 ?_M_increment@?$_Rb_global@_N@_STL@@SAPAU_Rb_tree_node_base@2@PAU32@@Z ; _STL::_Rb_global<bool>::_M_increment
  0000c	89 06		 mov	 DWORD PTR [esi], eax

; 178  :     return __tmp;

  0000e	8b 44 24 10	 mov	 eax, DWORD PTR ___$ReturnUdt$[esp+8]
  00012	59		 pop	 ecx
  00013	89 38		 mov	 DWORD PTR [eax], edi
  00015	5f		 pop	 edi
  00016	5e		 pop	 esi

; 179  :   }

  00017	c2 08 00	 ret	 8
??E?$_Rb_tree_iterator@U?$pair@$$CBGPAVZONETABLE_INFO@@@_STL@@U?$_Nonconst_traits@U?$pair@$$CBGPAVZONETABLE_INFO@@@_STL@@@2@@_STL@@QAE?AU01@H@Z ENDP ; _STL::_Rb_tree_iterator<_STL::pair<unsigned short const ,ZONETABLE_INFO *>,_STL::_Nonconst_traits<_STL::pair<unsigned short const ,ZONETABLE_INFO *> > >::operator++
_TEXT	ENDS
PUBLIC	?begin@?$_Rb_tree@GU?$pair@$$CBGPAVZONETABLE_INFO@@@_STL@@U?$_Select1st@U?$pair@$$CBGPAVZONETABLE_INFO@@@_STL@@@2@U?$less@G@2@V?$allocator@U?$pair@$$CBGPAVZONETABLE_INFO@@@_STL@@@2@@_STL@@QAE?AU?$_Rb_tree_iterator@U?$pair@$$CBGPAVZONETABLE_INFO@@@_STL@@U?$_Nonconst_traits@U?$pair@$$CBGPAVZONETABLE_INFO@@@_STL@@@2@@2@XZ ; _STL::_Rb_tree<unsigned short,_STL::pair<unsigned short const ,ZONETABLE_INFO *>,_STL::_Select1st<_STL::pair<unsigned short const ,ZONETABLE_INFO *> >,_STL::less<unsigned short>,_STL::allocator<_STL::pair<unsigned short const ,ZONETABLE_INFO *> > >::begin
; Function compile flags: /Ogsy
;	COMDAT ?begin@?$_Rb_tree@GU?$pair@$$CBGPAVZONETABLE_INFO@@@_STL@@U?$_Select1st@U?$pair@$$CBGPAVZONETABLE_INFO@@@_STL@@@2@U?$less@G@2@V?$allocator@U?$pair@$$CBGPAVZONETABLE_INFO@@@_STL@@@2@@_STL@@QAE?AU?$_Rb_tree_iterator@U?$pair@$$CBGPAVZONETABLE_INFO@@@_STL@@U?$_Nonconst_traits@U?$pair@$$CBGPAVZONETABLE_INFO@@@_STL@@@2@@2@XZ
_TEXT	SEGMENT
___$ReturnUdt$ = 8					; size = 4
?begin@?$_Rb_tree@GU?$pair@$$CBGPAVZONETABLE_INFO@@@_STL@@U?$_Select1st@U?$pair@$$CBGPAVZONETABLE_INFO@@@_STL@@@2@U?$less@G@2@V?$allocator@U?$pair@$$CBGPAVZONETABLE_INFO@@@_STL@@@2@@_STL@@QAE?AU?$_Rb_tree_iterator@U?$pair@$$CBGPAVZONETABLE_INFO@@@_STL@@U?$_Nonconst_traits@U?$pair@$$CBGPAVZONETABLE_INFO@@@_STL@@@2@@2@XZ PROC NEAR ; _STL::_Rb_tree<unsigned short,_STL::pair<unsigned short const ,ZONETABLE_INFO *>,_STL::_Select1st<_STL::pair<unsigned short const ,ZONETABLE_INFO *> >,_STL::less<unsigned short>,_STL::allocator<_STL::pair<unsigned short const ,ZONETABLE_INFO *> > >::begin, COMDAT
; _this$ = ecx

; 357  :   iterator begin() { return iterator(_M_leftmost()); }

  00000	8b 01		 mov	 eax, DWORD PTR [ecx]
  00002	8b 48 08	 mov	 ecx, DWORD PTR [eax+8]
  00005	8b 44 24 04	 mov	 eax, DWORD PTR ___$ReturnUdt$[esp-4]
  00009	89 08		 mov	 DWORD PTR [eax], ecx
  0000b	c2 04 00	 ret	 4
?begin@?$_Rb_tree@GU?$pair@$$CBGPAVZONETABLE_INFO@@@_STL@@U?$_Select1st@U?$pair@$$CBGPAVZONETABLE_INFO@@@_STL@@@2@U?$less@G@2@V?$allocator@U?$pair@$$CBGPAVZONETABLE_INFO@@@_STL@@@2@@_STL@@QAE?AU?$_Rb_tree_iterator@U?$pair@$$CBGPAVZONETABLE_INFO@@@_STL@@U?$_Nonconst_traits@U?$pair@$$CBGPAVZONETABLE_INFO@@@_STL@@@2@@2@XZ ENDP ; _STL::_Rb_tree<unsigned short,_STL::pair<unsigned short const ,ZONETABLE_INFO *>,_STL::_Select1st<_STL::pair<unsigned short const ,ZONETABLE_INFO *> >,_STL::less<unsigned short>,_STL::allocator<_STL::pair<unsigned short const ,ZONETABLE_INFO *> > >::begin
_TEXT	ENDS
PUBLIC	?end@?$_Rb_tree@GU?$pair@$$CBGPAVZONETABLE_INFO@@@_STL@@U?$_Select1st@U?$pair@$$CBGPAVZONETABLE_INFO@@@_STL@@@2@U?$less@G@2@V?$allocator@U?$pair@$$CBGPAVZONETABLE_INFO@@@_STL@@@2@@_STL@@QAE?AU?$_Rb_tree_iterator@U?$pair@$$CBGPAVZONETABLE_INFO@@@_STL@@U?$_Nonconst_traits@U?$pair@$$CBGPAVZONETABLE_INFO@@@_STL@@@2@@2@XZ ; _STL::_Rb_tree<unsigned short,_STL::pair<unsigned short const ,ZONETABLE_INFO *>,_STL::_Select1st<_STL::pair<unsigned short const ,ZONETABLE_INFO *> >,_STL::less<unsigned short>,_STL::allocator<_STL::pair<unsigned short const ,ZONETABLE_INFO *> > >::end
; Function compile flags: /Ogsy
;	COMDAT ?end@?$_Rb_tree@GU?$pair@$$CBGPAVZONETABLE_INFO@@@_STL@@U?$_Select1st@U?$pair@$$CBGPAVZONETABLE_INFO@@@_STL@@@2@U?$less@G@2@V?$allocator@U?$pair@$$CBGPAVZONETABLE_INFO@@@_STL@@@2@@_STL@@QAE?AU?$_Rb_tree_iterator@U?$pair@$$CBGPAVZONETABLE_INFO@@@_STL@@U?$_Nonconst_traits@U?$pair@$$CBGPAVZONETABLE_INFO@@@_STL@@@2@@2@XZ
_TEXT	SEGMENT
___$ReturnUdt$ = 8					; size = 4
?end@?$_Rb_tree@GU?$pair@$$CBGPAVZONETABLE_INFO@@@_STL@@U?$_Select1st@U?$pair@$$CBGPAVZONETABLE_INFO@@@_STL@@@2@U?$less@G@2@V?$allocator@U?$pair@$$CBGPAVZONETABLE_INFO@@@_STL@@@2@@_STL@@QAE?AU?$_Rb_tree_iterator@U?$pair@$$CBGPAVZONETABLE_INFO@@@_STL@@U?$_Nonconst_traits@U?$pair@$$CBGPAVZONETABLE_INFO@@@_STL@@@2@@2@XZ PROC NEAR ; _STL::_Rb_tree<unsigned short,_STL::pair<unsigned short const ,ZONETABLE_INFO *>,_STL::_Select1st<_STL::pair<unsigned short const ,ZONETABLE_INFO *> >,_STL::less<unsigned short>,_STL::allocator<_STL::pair<unsigned short const ,ZONETABLE_INFO *> > >::end, COMDAT
; _this$ = ecx

; 359  :   iterator end() { return iterator(this->_M_header._M_data); }

  00000	8b 09		 mov	 ecx, DWORD PTR [ecx]
  00002	8b 44 24 04	 mov	 eax, DWORD PTR ___$ReturnUdt$[esp-4]
  00006	89 08		 mov	 DWORD PTR [eax], ecx
  00008	c2 04 00	 ret	 4
?end@?$_Rb_tree@GU?$pair@$$CBGPAVZONETABLE_INFO@@@_STL@@U?$_Select1st@U?$pair@$$CBGPAVZONETABLE_INFO@@@_STL@@@2@U?$less@G@2@V?$allocator@U?$pair@$$CBGPAVZONETABLE_INFO@@@_STL@@@2@@_STL@@QAE?AU?$_Rb_tree_iterator@U?$pair@$$CBGPAVZONETABLE_INFO@@@_STL@@U?$_Nonconst_traits@U?$pair@$$CBGPAVZONETABLE_INFO@@@_STL@@@2@@2@XZ ENDP ; _STL::_Rb_tree<unsigned short,_STL::pair<unsigned short const ,ZONETABLE_INFO *>,_STL::_Select1st<_STL::pair<unsigned short const ,ZONETABLE_INFO *> >,_STL::less<unsigned short>,_STL::allocator<_STL::pair<unsigned short const ,ZONETABLE_INFO *> > >::end
_TEXT	ENDS
PUBLIC	??0?$_List_iterator@GU?$_Const_traits@G@_STL@@@_STL@@QAE@PAU?$_List_node@G@1@@Z ; _STL::_List_iterator<unsigned short,_STL::_Const_traits<unsigned short> >::_List_iterator<unsigned short,_STL::_Const_traits<unsigned short> >
; Function compile flags: /Ogsy
; File c:\stlport-4.6.1\stlport\stl\_list.h
;	COMDAT ??0?$_List_iterator@GU?$_Const_traits@G@_STL@@@_STL@@QAE@PAU?$_List_node@G@1@@Z
_TEXT	SEGMENT
___x$ = 8						; size = 4
??0?$_List_iterator@GU?$_Const_traits@G@_STL@@@_STL@@QAE@PAU?$_List_node@G@1@@Z PROC NEAR ; _STL::_List_iterator<unsigned short,_STL::_Const_traits<unsigned short> >::_List_iterator<unsigned short,_STL::_Const_traits<unsigned short> >, COMDAT
; _this$ = ecx

; 126  :   _List_iterator(_Node* __x) : _List_iterator_base(__x) {}

  00000	8b c1		 mov	 eax, ecx
  00002	8b 4c 24 04	 mov	 ecx, DWORD PTR ___x$[esp-4]
  00006	89 08		 mov	 DWORD PTR [eax], ecx
  00008	c2 04 00	 ret	 4
??0?$_List_iterator@GU?$_Const_traits@G@_STL@@@_STL@@QAE@PAU?$_List_node@G@1@@Z ENDP ; _STL::_List_iterator<unsigned short,_STL::_Const_traits<unsigned short> >::_List_iterator<unsigned short,_STL::_Const_traits<unsigned short> >
_TEXT	ENDS
PUBLIC	??0?$_List_iterator@GU?$_Nonconst_traits@G@_STL@@@_STL@@QAE@PAU?$_List_node@G@1@@Z ; _STL::_List_iterator<unsigned short,_STL::_Nonconst_traits<unsigned short> >::_List_iterator<unsigned short,_STL::_Nonconst_traits<unsigned short> >
; Function compile flags: /Ogsy
;	COMDAT ??0?$_List_iterator@GU?$_Nonconst_traits@G@_STL@@@_STL@@QAE@PAU?$_List_node@G@1@@Z
_TEXT	SEGMENT
___x$ = 8						; size = 4
??0?$_List_iterator@GU?$_Nonconst_traits@G@_STL@@@_STL@@QAE@PAU?$_List_node@G@1@@Z PROC NEAR ; _STL::_List_iterator<unsigned short,_STL::_Nonconst_traits<unsigned short> >::_List_iterator<unsigned short,_STL::_Nonconst_traits<unsigned short> >, COMDAT
; _this$ = ecx

; 126  :   _List_iterator(_Node* __x) : _List_iterator_base(__x) {}

  00000	8b c1		 mov	 eax, ecx
  00002	8b 4c 24 04	 mov	 ecx, DWORD PTR ___x$[esp-4]
  00006	89 08		 mov	 DWORD PTR [eax], ecx
  00008	c2 04 00	 ret	 4
??0?$_List_iterator@GU?$_Nonconst_traits@G@_STL@@@_STL@@QAE@PAU?$_List_node@G@1@@Z ENDP ; _STL::_List_iterator<unsigned short,_STL::_Nonconst_traits<unsigned short> >::_List_iterator<unsigned short,_STL::_Nonconst_traits<unsigned short> >
_TEXT	ENDS
PUBLIC	??0?$_List_iterator@GU?$_Nonconst_traits@G@_STL@@@_STL@@QAE@ABU01@@Z ; _STL::_List_iterator<unsigned short,_STL::_Nonconst_traits<unsigned short> >::_List_iterator<unsigned short,_STL::_Nonconst_traits<unsigned short> >
; Function compile flags: /Ogsy
;	COMDAT ??0?$_List_iterator@GU?$_Nonconst_traits@G@_STL@@@_STL@@QAE@ABU01@@Z
_TEXT	SEGMENT
___x$ = 8						; size = 4
??0?$_List_iterator@GU?$_Nonconst_traits@G@_STL@@@_STL@@QAE@ABU01@@Z PROC NEAR ; _STL::_List_iterator<unsigned short,_STL::_Nonconst_traits<unsigned short> >::_List_iterator<unsigned short,_STL::_Nonconst_traits<unsigned short> >, COMDAT
; _this$ = ecx

; 128  :   _List_iterator(const iterator& __x) :  _List_iterator_base(__x._M_node) {}

  00000	8b c1		 mov	 eax, ecx
  00002	8b 4c 24 04	 mov	 ecx, DWORD PTR ___x$[esp-4]
  00006	8b 09		 mov	 ecx, DWORD PTR [ecx]
  00008	89 08		 mov	 DWORD PTR [eax], ecx
  0000a	c2 04 00	 ret	 4
??0?$_List_iterator@GU?$_Nonconst_traits@G@_STL@@@_STL@@QAE@ABU01@@Z ENDP ; _STL::_List_iterator<unsigned short,_STL::_Nonconst_traits<unsigned short> >::_List_iterator<unsigned short,_STL::_Nonconst_traits<unsigned short> >
_TEXT	ENDS
PUBLIC	??1?$_STLP_alloc_proxy@PAU?$_List_node@G@_STL@@U12@V?$allocator@U?$_List_node@G@_STL@@@2@@_STL@@QAE@XZ ; _STL::_STLP_alloc_proxy<_STL::_List_node<unsigned short> *,_STL::_List_node<unsigned short>,_STL::allocator<_STL::_List_node<unsigned short> > >::~_STLP_alloc_proxy<_STL::_List_node<unsigned short> *,_STL::_List_node<unsigned short>,_STL::allocator<_STL::_List_node<unsigned short> > >
; Function compile flags: /Ogsy
;	COMDAT ??1?$_STLP_alloc_proxy@PAU?$_List_node@G@_STL@@U12@V?$allocator@U?$_List_node@G@_STL@@@2@@_STL@@QAE@XZ
_TEXT	SEGMENT
??1?$_STLP_alloc_proxy@PAU?$_List_node@G@_STL@@U12@V?$allocator@U?$_List_node@G@_STL@@@2@@_STL@@QAE@XZ PROC NEAR ; _STL::_STLP_alloc_proxy<_STL::_List_node<unsigned short> *,_STL::_List_node<unsigned short>,_STL::allocator<_STL::_List_node<unsigned short> > >::~_STLP_alloc_proxy<_STL::_List_node<unsigned short> *,_STL::_List_node<unsigned short>,_STL::allocator<_STL::_List_node<unsigned short> > >, COMDAT
; _this$ = ecx
  00000	c3		 ret	 0
??1?$_STLP_alloc_proxy@PAU?$_List_node@G@_STL@@U12@V?$allocator@U?$_List_node@G@_STL@@@2@@_STL@@QAE@XZ ENDP ; _STL::_STLP_alloc_proxy<_STL::_List_node<unsigned short> *,_STL::_List_node<unsigned short>,_STL::allocator<_STL::_List_node<unsigned short> > >::~_STLP_alloc_proxy<_STL::_List_node<unsigned short> *,_STL::_List_node<unsigned short>,_STL::allocator<_STL::_List_node<unsigned short> > >
_TEXT	ENDS
PUBLIC	??1?$_STLP_alloc_proxy@PAU?$_Rb_tree_node@U?$pair@$$CBGPAVZONETABLE_INFO@@@_STL@@@_STL@@U12@V?$allocator@U?$_Rb_tree_node@U?$pair@$$CBGPAVZONETABLE_INFO@@@_STL@@@_STL@@@2@@_STL@@QAE@XZ ; _STL::_STLP_alloc_proxy<_STL::_Rb_tree_node<_STL::pair<unsigned short const ,ZONETABLE_INFO *> > *,_STL::_Rb_tree_node<_STL::pair<unsigned short const ,ZONETABLE_INFO *> >,_STL::allocator<_STL::_Rb_tree_node<_STL::pair<unsigned short const ,ZONETABLE_INFO *> > > >::~_STLP_alloc_proxy<_STL::_Rb_tree_node<_STL::pair<unsigned short const ,ZONETABLE_INFO *> > *,_STL::_Rb_tree_node<_STL::pair<unsigned short const ,ZONETABLE_INFO *> >,_STL::allocator<_STL::_Rb_tree_node<_STL::pair<unsigned short const ,ZONETABLE_INFO *> > > >
; Function compile flags: /Ogsy
;	COMDAT ??1?$_STLP_alloc_proxy@PAU?$_Rb_tree_node@U?$pair@$$CBGPAVZONETABLE_INFO@@@_STL@@@_STL@@U12@V?$allocator@U?$_Rb_tree_node@U?$pair@$$CBGPAVZONETABLE_INFO@@@_STL@@@_STL@@@2@@_STL@@QAE@XZ
_TEXT	SEGMENT
??1?$_STLP_alloc_proxy@PAU?$_Rb_tree_node@U?$pair@$$CBGPAVZONETABLE_INFO@@@_STL@@@_STL@@U12@V?$allocator@U?$_Rb_tree_node@U?$pair@$$CBGPAVZONETABLE_INFO@@@_STL@@@_STL@@@2@@_STL@@QAE@XZ PROC NEAR ; _STL::_STLP_alloc_proxy<_STL::_Rb_tree_node<_STL::pair<unsigned short const ,ZONETABLE_INFO *> > *,_STL::_Rb_tree_node<_STL::pair<unsigned short const ,ZONETABLE_INFO *> >,_STL::allocator<_STL::_Rb_tree_node<_STL::pair<unsigned short const ,ZONETABLE_INFO *> > > >::~_STLP_alloc_proxy<_STL::_Rb_tree_node<_STL::pair<unsigned short const ,ZONETABLE_INFO *> > *,_STL::_Rb_tree_node<_STL::pair<unsigned short const ,ZONETABLE_INFO *> >,_STL::allocator<_STL::_Rb_tree_node<_STL::pair<unsigned short const ,ZONETABLE_INFO *> > > >, COMDAT
; _this$ = ecx
  00000	c3		 ret	 0
??1?$_STLP_alloc_proxy@PAU?$_Rb_tree_node@U?$pair@$$CBGPAVZONETABLE_INFO@@@_STL@@@_STL@@U12@V?$allocator@U?$_Rb_tree_node@U?$pair@$$CBGPAVZONETABLE_INFO@@@_STL@@@_STL@@@2@@_STL@@QAE@XZ ENDP ; _STL::_STLP_alloc_proxy<_STL::_Rb_tree_node<_STL::pair<unsigned short const ,ZONETABLE_INFO *> > *,_STL::_Rb_tree_node<_STL::pair<unsigned short const ,ZONETABLE_INFO *> >,_STL::allocator<_STL::_Rb_tree_node<_STL::pair<unsigned short const ,ZONETABLE_INFO *> > > >::~_STLP_alloc_proxy<_STL::_Rb_tree_node<_STL::pair<unsigned short const ,ZONETABLE_INFO *> > *,_STL::_Rb_tree_node<_STL::pair<unsigned short const ,ZONETABLE_INFO *> >,_STL::allocator<_STL::_Rb_tree_node<_STL::pair<unsigned short const ,ZONETABLE_INFO *> > > >
_TEXT	ENDS
PUBLIC	??0?$_STLP_alloc_proxy@PAU?$_List_node@G@_STL@@U12@V?$allocator@U?$_List_node@G@_STL@@@2@@_STL@@QAE@ABV?$allocator@U?$_List_node@G@_STL@@@1@PAU?$_List_node@G@1@@Z ; _STL::_STLP_alloc_proxy<_STL::_List_node<unsigned short> *,_STL::_List_node<unsigned short>,_STL::allocator<_STL::_List_node<unsigned short> > >::_STLP_alloc_proxy<_STL::_List_node<unsigned short> *,_STL::_List_node<unsigned short>,_STL::allocator<_STL::_List_node<unsigned short> > >
; Function compile flags: /Ogsy
; File c:\stlport-4.6.1\stlport\stl\_alloc.h
;	COMDAT ??0?$_STLP_alloc_proxy@PAU?$_List_node@G@_STL@@U12@V?$allocator@U?$_List_node@G@_STL@@@2@@_STL@@QAE@ABV?$allocator@U?$_List_node@G@_STL@@@1@PAU?$_List_node@G@1@@Z
_TEXT	SEGMENT
___a$ = 8						; size = 4
___p$ = 12						; size = 4
??0?$_STLP_alloc_proxy@PAU?$_List_node@G@_STL@@U12@V?$allocator@U?$_List_node@G@_STL@@@2@@_STL@@QAE@ABV?$allocator@U?$_List_node@G@_STL@@@1@PAU?$_List_node@G@1@@Z PROC NEAR ; _STL::_STLP_alloc_proxy<_STL::_List_node<unsigned short> *,_STL::_List_node<unsigned short>,_STL::allocator<_STL::_List_node<unsigned short> > >::_STLP_alloc_proxy<_STL::_List_node<unsigned short> *,_STL::_List_node<unsigned short>,_STL::allocator<_STL::_List_node<unsigned short> > >, COMDAT
; _this$ = ecx

; 487  :   inline _STLP_alloc_proxy(const _MaybeReboundAlloc& __a, _Value __p) : _MaybeReboundAlloc(__a), _M_data(__p) {}

  00000	8b c1		 mov	 eax, ecx
  00002	8b 4c 24 08	 mov	 ecx, DWORD PTR ___p$[esp-4]
  00006	89 08		 mov	 DWORD PTR [eax], ecx
  00008	c2 08 00	 ret	 8
??0?$_STLP_alloc_proxy@PAU?$_List_node@G@_STL@@U12@V?$allocator@U?$_List_node@G@_STL@@@2@@_STL@@QAE@ABV?$allocator@U?$_List_node@G@_STL@@@1@PAU?$_List_node@G@1@@Z ENDP ; _STL::_STLP_alloc_proxy<_STL::_List_node<unsigned short> *,_STL::_List_node<unsigned short>,_STL::allocator<_STL::_List_node<unsigned short> > >::_STLP_alloc_proxy<_STL::_List_node<unsigned short> *,_STL::_List_node<unsigned short>,_STL::allocator<_STL::_List_node<unsigned short> > >
_TEXT	ENDS
PUBLIC	?allocate@?$allocator@U?$_List_node@G@_STL@@@_STL@@QAEPAU?$_List_node@G@2@IPBX@Z ; _STL::allocator<_STL::_List_node<unsigned short> >::allocate
; Function compile flags: /Ogsy
;	COMDAT ?allocate@?$allocator@U?$_List_node@G@_STL@@@_STL@@QAEPAU?$_List_node@G@2@IPBX@Z
_TEXT	SEGMENT
___n$ = 8						; size = 4
___formal$ = 12						; size = 4
?allocate@?$allocator@U?$_List_node@G@_STL@@@_STL@@QAEPAU?$_List_node@G@2@IPBX@Z PROC NEAR ; _STL::allocator<_STL::_List_node<unsigned short> >::allocate, COMDAT
; _this$ = ecx

; 355  :     return __n != 0 ? __REINTERPRET_CAST(value_type*,__sgi_alloc::allocate(__n * sizeof(value_type))) : 0;

  00000	8b 44 24 04	 mov	 eax, DWORD PTR ___n$[esp-4]
  00004	85 c0		 test	 eax, eax
  00006	74 0f		 je	 SHORT $L104563
  00008	8d 04 40	 lea	 eax, DWORD PTR [eax+eax*2]
  0000b	c1 e0 02	 shl	 eax, 2
  0000e	50		 push	 eax
  0000f	e8 00 00 00 00	 call	 ?allocate@?$__node_alloc@$00$0A@@_STL@@SAPAXI@Z ; _STL::__node_alloc<1,0>::allocate
  00014	59		 pop	 ecx
  00015	eb 02		 jmp	 SHORT $L104564
$L104563:
  00017	33 c0		 xor	 eax, eax
$L104564:

; 356  :   }

  00019	c2 08 00	 ret	 8
?allocate@?$allocator@U?$_List_node@G@_STL@@@_STL@@QAEPAU?$_List_node@G@2@IPBX@Z ENDP ; _STL::allocator<_STL::_List_node<unsigned short> >::allocate
_TEXT	ENDS
PUBLIC	?deallocate@?$allocator@U?$_List_node@G@_STL@@@_STL@@QAEXPAU?$_List_node@G@2@I@Z ; _STL::allocator<_STL::_List_node<unsigned short> >::deallocate
; Function compile flags: /Ogsy
;	COMDAT ?deallocate@?$allocator@U?$_List_node@G@_STL@@@_STL@@QAEXPAU?$_List_node@G@2@I@Z
_TEXT	SEGMENT
___p$ = 8						; size = 4
___n$ = 12						; size = 4
?deallocate@?$allocator@U?$_List_node@G@_STL@@@_STL@@QAEXPAU?$_List_node@G@2@I@Z PROC NEAR ; _STL::allocator<_STL::_List_node<unsigned short> >::deallocate, COMDAT
; _this$ = ecx

; 359  :     _STLP_ASSERT( (__p == 0) == (__n == 0) )
; 360  :       if (__p != 0) __sgi_alloc::deallocate((void*)__p, __n * sizeof(value_type));

  00000	83 7c 24 04 00	 cmp	 DWORD PTR ___p$[esp-4], 0
  00005	74 16		 je	 SHORT $L102812
  00007	8b 44 24 08	 mov	 eax, DWORD PTR ___n$[esp-4]
  0000b	8d 04 40	 lea	 eax, DWORD PTR [eax+eax*2]
  0000e	c1 e0 02	 shl	 eax, 2
  00011	50		 push	 eax
  00012	ff 74 24 08	 push	 DWORD PTR ___p$[esp]
  00016	e8 00 00 00 00	 call	 ?deallocate@?$__node_alloc@$00$0A@@_STL@@SAXPAXI@Z ; _STL::__node_alloc<1,0>::deallocate
  0001b	59		 pop	 ecx
  0001c	59		 pop	 ecx
$L102812:

; 361  :   }

  0001d	c2 08 00	 ret	 8
?deallocate@?$allocator@U?$_List_node@G@_STL@@@_STL@@QAEXPAU?$_List_node@G@2@I@Z ENDP ; _STL::allocator<_STL::_List_node<unsigned short> >::deallocate
_TEXT	ENDS
PUBLIC	?allocate@?$allocator@VMString@@@_STL@@QAEPAVMString@@IPBX@Z ; _STL::allocator<MString>::allocate
; Function compile flags: /Ogsy
;	COMDAT ?allocate@?$allocator@VMString@@@_STL@@QAEPAVMString@@IPBX@Z
_TEXT	SEGMENT
___n$ = 8						; size = 4
___formal$ = 12						; size = 4
?allocate@?$allocator@VMString@@@_STL@@QAEPAVMString@@IPBX@Z PROC NEAR ; _STL::allocator<MString>::allocate, COMDAT
; _this$ = ecx

; 355  :     return __n != 0 ? __REINTERPRET_CAST(value_type*,__sgi_alloc::allocate(__n * sizeof(value_type))) : 0;

  00000	8b 44 24 04	 mov	 eax, DWORD PTR ___n$[esp-4]
  00004	85 c0		 test	 eax, eax
  00006	74 0f		 je	 SHORT $L104571
  00008	8d 04 40	 lea	 eax, DWORD PTR [eax+eax*2]
  0000b	c1 e0 02	 shl	 eax, 2
  0000e	50		 push	 eax
  0000f	e8 00 00 00 00	 call	 ?allocate@?$__node_alloc@$00$0A@@_STL@@SAPAXI@Z ; _STL::__node_alloc<1,0>::allocate
  00014	59		 pop	 ecx
  00015	eb 02		 jmp	 SHORT $L104572
$L104571:
  00017	33 c0		 xor	 eax, eax
$L104572:

; 356  :   }

  00019	c2 08 00	 ret	 8
?allocate@?$allocator@VMString@@@_STL@@QAEPAVMString@@IPBX@Z ENDP ; _STL::allocator<MString>::allocate
_TEXT	ENDS
PUBLIC	?deallocate@?$allocator@VMString@@@_STL@@QAEXPAVMString@@I@Z ; _STL::allocator<MString>::deallocate
; Function compile flags: /Ogsy
;	COMDAT ?deallocate@?$allocator@VMString@@@_STL@@QAEXPAVMString@@I@Z
_TEXT	SEGMENT
___p$ = 8						; size = 4
___n$ = 12						; size = 4
?deallocate@?$allocator@VMString@@@_STL@@QAEXPAVMString@@I@Z PROC NEAR ; _STL::allocator<MString>::deallocate, COMDAT
; _this$ = ecx

; 359  :     _STLP_ASSERT( (__p == 0) == (__n == 0) )
; 360  :       if (__p != 0) __sgi_alloc::deallocate((void*)__p, __n * sizeof(value_type));

  00000	83 7c 24 04 00	 cmp	 DWORD PTR ___p$[esp-4], 0
  00005	74 16		 je	 SHORT $L102825
  00007	8b 44 24 08	 mov	 eax, DWORD PTR ___n$[esp-4]
  0000b	8d 04 40	 lea	 eax, DWORD PTR [eax+eax*2]
  0000e	c1 e0 02	 shl	 eax, 2
  00011	50		 push	 eax
  00012	ff 74 24 08	 push	 DWORD PTR ___p$[esp]
  00016	e8 00 00 00 00	 call	 ?deallocate@?$__node_alloc@$00$0A@@_STL@@SAXPAXI@Z ; _STL::__node_alloc<1,0>::deallocate
  0001b	59		 pop	 ecx
  0001c	59		 pop	 ecx
$L102825:

; 361  :   }

  0001d	c2 08 00	 ret	 8
?deallocate@?$allocator@VMString@@@_STL@@QAEXPAVMString@@I@Z ENDP ; _STL::allocator<MString>::deallocate
_TEXT	ENDS
PUBLIC	??0?$_STLP_alloc_proxy@PAVMString@@V1@V?$allocator@VMString@@@_STL@@@_STL@@QAE@ABV?$allocator@VMString@@@1@PAVMString@@@Z ; _STL::_STLP_alloc_proxy<MString *,MString,_STL::allocator<MString> >::_STLP_alloc_proxy<MString *,MString,_STL::allocator<MString> >
; Function compile flags: /Ogsy
;	COMDAT ??0?$_STLP_alloc_proxy@PAVMString@@V1@V?$allocator@VMString@@@_STL@@@_STL@@QAE@ABV?$allocator@VMString@@@1@PAVMString@@@Z
_TEXT	SEGMENT
___a$ = 8						; size = 4
___p$ = 12						; size = 4
??0?$_STLP_alloc_proxy@PAVMString@@V1@V?$allocator@VMString@@@_STL@@@_STL@@QAE@ABV?$allocator@VMString@@@1@PAVMString@@@Z PROC NEAR ; _STL::_STLP_alloc_proxy<MString *,MString,_STL::allocator<MString> >::_STLP_alloc_proxy<MString *,MString,_STL::allocator<MString> >, COMDAT
; _this$ = ecx

; 487  :   inline _STLP_alloc_proxy(const _MaybeReboundAlloc& __a, _Value __p) : _MaybeReboundAlloc(__a), _M_data(__p) {}

  00000	8b c1		 mov	 eax, ecx
  00002	8b 4c 24 08	 mov	 ecx, DWORD PTR ___p$[esp-4]
  00006	89 08		 mov	 DWORD PTR [eax], ecx
  00008	c2 08 00	 ret	 8
??0?$_STLP_alloc_proxy@PAVMString@@V1@V?$allocator@VMString@@@_STL@@@_STL@@QAE@ABV?$allocator@VMString@@@1@PAVMString@@@Z ENDP ; _STL::_STLP_alloc_proxy<MString *,MString,_STL::allocator<MString> >::_STLP_alloc_proxy<MString *,MString,_STL::allocator<MString> >
_TEXT	ENDS
PUBLIC	?_M_empty_initialize@?$_Rb_tree@GU?$pair@$$CBGPAVZONETABLE_INFO@@@_STL@@U?$_Select1st@U?$pair@$$CBGPAVZONETABLE_INFO@@@_STL@@@2@U?$less@G@2@V?$allocator@U?$pair@$$CBGPAVZONETABLE_INFO@@@_STL@@@2@@_STL@@AAEXXZ ; _STL::_Rb_tree<unsigned short,_STL::pair<unsigned short const ,ZONETABLE_INFO *>,_STL::_Select1st<_STL::pair<unsigned short const ,ZONETABLE_INFO *> >,_STL::less<unsigned short>,_STL::allocator<_STL::pair<unsigned short const ,ZONETABLE_INFO *> > >::_M_empty_initialize
; Function compile flags: /Ogsy
; File c:\stlport-4.6.1\stlport\stl\_tree.h
;	COMDAT ?_M_empty_initialize@?$_Rb_tree@GU?$pair@$$CBGPAVZONETABLE_INFO@@@_STL@@U?$_Select1st@U?$pair@$$CBGPAVZONETABLE_INFO@@@_STL@@@2@U?$less@G@2@V?$allocator@U?$pair@$$CBGPAVZONETABLE_INFO@@@_STL@@@2@@_STL@@AAEXXZ
_TEXT	SEGMENT
?_M_empty_initialize@?$_Rb_tree@GU?$pair@$$CBGPAVZONETABLE_INFO@@@_STL@@U?$_Select1st@U?$pair@$$CBGPAVZONETABLE_INFO@@@_STL@@@2@U?$less@G@2@V?$allocator@U?$pair@$$CBGPAVZONETABLE_INFO@@@_STL@@@2@@_STL@@AAEXXZ PROC NEAR ; _STL::_Rb_tree<unsigned short,_STL::pair<unsigned short const ,ZONETABLE_INFO *>,_STL::_Select1st<_STL::pair<unsigned short const ,ZONETABLE_INFO *> >,_STL::less<unsigned short>,_STL::allocator<_STL::pair<unsigned short const ,ZONETABLE_INFO *> > >::_M_empty_initialize, COMDAT
; _this$ = ecx

; 346  :     _S_color(this->_M_header._M_data) = _S_rb_tree_red; // used to distinguish header from 

  00000	8b 01		 mov	 eax, DWORD PTR [ecx]
  00002	c6 00 00	 mov	 BYTE PTR [eax], 0

; 347  :                                           // __root, in iterator.operator++
; 348  :     _M_root() = 0;

  00005	8b 01		 mov	 eax, DWORD PTR [ecx]
  00007	83 60 04 00	 and	 DWORD PTR [eax+4], 0

; 349  :     _M_leftmost() = this->_M_header._M_data;

  0000b	8b 01		 mov	 eax, DWORD PTR [ecx]
  0000d	89 40 08	 mov	 DWORD PTR [eax+8], eax

; 350  :     _M_rightmost() = this->_M_header._M_data;

  00010	8b 09		 mov	 ecx, DWORD PTR [ecx]
  00012	89 49 0c	 mov	 DWORD PTR [ecx+12], ecx

; 351  :   }

  00015	c3		 ret	 0
?_M_empty_initialize@?$_Rb_tree@GU?$pair@$$CBGPAVZONETABLE_INFO@@@_STL@@U?$_Select1st@U?$pair@$$CBGPAVZONETABLE_INFO@@@_STL@@@2@U?$less@G@2@V?$allocator@U?$pair@$$CBGPAVZONETABLE_INFO@@@_STL@@@2@@_STL@@AAEXXZ ENDP ; _STL::_Rb_tree<unsigned short,_STL::pair<unsigned short const ,ZONETABLE_INFO *>,_STL::_Select1st<_STL::pair<unsigned short const ,ZONETABLE_INFO *> >,_STL::less<unsigned short>,_STL::allocator<_STL::pair<unsigned short const ,ZONETABLE_INFO *> > >::_M_empty_initialize
_TEXT	ENDS
PUBLIC	?deallocate@?$allocator@U?$_Rb_tree_node@U?$pair@$$CBGPAVZONETABLE_INFO@@@_STL@@@_STL@@@_STL@@QAEXPAU?$_Rb_tree_node@U?$pair@$$CBGPAVZONETABLE_INFO@@@_STL@@@2@I@Z ; _STL::allocator<_STL::_Rb_tree_node<_STL::pair<unsigned short const ,ZONETABLE_INFO *> > >::deallocate
; Function compile flags: /Ogsy
; File c:\stlport-4.6.1\stlport\stl\_alloc.h
;	COMDAT ?deallocate@?$allocator@U?$_Rb_tree_node@U?$pair@$$CBGPAVZONETABLE_INFO@@@_STL@@@_STL@@@_STL@@QAEXPAU?$_Rb_tree_node@U?$pair@$$CBGPAVZONETABLE_INFO@@@_STL@@@2@I@Z
_TEXT	SEGMENT
___p$ = 8						; size = 4
___n$ = 12						; size = 4
?deallocate@?$allocator@U?$_Rb_tree_node@U?$pair@$$CBGPAVZONETABLE_INFO@@@_STL@@@_STL@@@_STL@@QAEXPAU?$_Rb_tree_node@U?$pair@$$CBGPAVZONETABLE_INFO@@@_STL@@@2@I@Z PROC NEAR ; _STL::allocator<_STL::_Rb_tree_node<_STL::pair<unsigned short const ,ZONETABLE_INFO *> > >::deallocate, COMDAT
; _this$ = ecx

; 359  :     _STLP_ASSERT( (__p == 0) == (__n == 0) )
; 360  :       if (__p != 0) __sgi_alloc::deallocate((void*)__p, __n * sizeof(value_type));

  00000	83 7c 24 04 00	 cmp	 DWORD PTR ___p$[esp-4], 0
  00005	74 16		 je	 SHORT $L102855
  00007	8b 44 24 08	 mov	 eax, DWORD PTR ___n$[esp-4]
  0000b	8d 04 40	 lea	 eax, DWORD PTR [eax+eax*2]
  0000e	c1 e0 03	 shl	 eax, 3
  00011	50		 push	 eax
  00012	ff 74 24 08	 push	 DWORD PTR ___p$[esp]
  00016	e8 00 00 00 00	 call	 ?deallocate@?$__node_alloc@$00$0A@@_STL@@SAXPAXI@Z ; _STL::__node_alloc<1,0>::deallocate
  0001b	59		 pop	 ecx
  0001c	59		 pop	 ecx
$L102855:

; 361  :   }

  0001d	c2 08 00	 ret	 8
?deallocate@?$allocator@U?$_Rb_tree_node@U?$pair@$$CBGPAVZONETABLE_INFO@@@_STL@@@_STL@@@_STL@@QAEXPAU?$_Rb_tree_node@U?$pair@$$CBGPAVZONETABLE_INFO@@@_STL@@@2@I@Z ENDP ; _STL::allocator<_STL::_Rb_tree_node<_STL::pair<unsigned short const ,ZONETABLE_INFO *> > >::deallocate
_TEXT	ENDS
PUBLIC	??0?$_STLP_alloc_proxy@PAU?$_Rb_tree_node@U?$pair@$$CBGPAVZONETABLE_INFO@@@_STL@@@_STL@@U12@V?$allocator@U?$_Rb_tree_node@U?$pair@$$CBGPAVZONETABLE_INFO@@@_STL@@@_STL@@@2@@_STL@@QAE@ABV?$allocator@U?$_Rb_tree_node@U?$pair@$$CBGPAVZONETABLE_INFO@@@_STL@@@_STL@@@1@PAU?$_Rb_tree_node@U?$pair@$$CBGPAVZONETABLE_INFO@@@_STL@@@1@@Z ; _STL::_STLP_alloc_proxy<_STL::_Rb_tree_node<_STL::pair<unsigned short const ,ZONETABLE_INFO *> > *,_STL::_Rb_tree_node<_STL::pair<unsigned short const ,ZONETABLE_INFO *> >,_STL::allocator<_STL::_Rb_tree_node<_STL::pair<unsigned short const ,ZONETABLE_INFO *> > > >::_STLP_alloc_proxy<_STL::_Rb_tree_node<_STL::pair<unsigned short const ,ZONETABLE_INFO *> > *,_STL::_Rb_tree_node<_STL::pair<unsigned short const ,ZONETABLE_INFO *> >,_STL::allocator<_STL::_Rb_tree_node<_STL::pair<unsigned short const ,ZONETABLE_INFO *> > > >
; Function compile flags: /Ogsy
;	COMDAT ??0?$_STLP_alloc_proxy@PAU?$_Rb_tree_node@U?$pair@$$CBGPAVZONETABLE_INFO@@@_STL@@@_STL@@U12@V?$allocator@U?$_Rb_tree_node@U?$pair@$$CBGPAVZONETABLE_INFO@@@_STL@@@_STL@@@2@@_STL@@QAE@ABV?$allocator@U?$_Rb_tree_node@U?$pair@$$CBGPAVZONETABLE_INFO@@@_STL@@@_STL@@@1@PAU?$_Rb_tree_node@U?$pair@$$CBGPAVZONETABLE_INFO@@@_STL@@@1@@Z
_TEXT	SEGMENT
___a$ = 8						; size = 4
___p$ = 12						; size = 4
??0?$_STLP_alloc_proxy@PAU?$_Rb_tree_node@U?$pair@$$CBGPAVZONETABLE_INFO@@@_STL@@@_STL@@U12@V?$allocator@U?$_Rb_tree_node@U?$pair@$$CBGPAVZONETABLE_INFO@@@_STL@@@_STL@@@2@@_STL@@QAE@ABV?$allocator@U?$_Rb_tree_node@U?$pair@$$CBGPAVZONETABLE_INFO@@@_STL@@@_STL@@@1@PAU?$_Rb_tree_node@U?$pair@$$CBGPAVZONETABLE_INFO@@@_STL@@@1@@Z PROC NEAR ; _STL::_STLP_alloc_proxy<_STL::_Rb_tree_node<_STL::pair<unsigned short const ,ZONETABLE_INFO *> > *,_STL::_Rb_tree_node<_STL::pair<unsigned short const ,ZONETABLE_INFO *> >,_STL::allocator<_STL::_Rb_tree_node<_STL::pair<unsigned short const ,ZONETABLE_INFO *> > > >::_STLP_alloc_proxy<_STL::_Rb_tree_node<_STL::pair<unsigned short const ,ZONETABLE_INFO *> > *,_STL::_Rb_tree_node<_STL::pair<unsigned short const ,ZONETABLE_INFO *> >,_STL::allocator<_STL::_Rb_tree_node<_STL::pair<unsigned short const ,ZONETABLE_INFO *> > > >, COMDAT
; _this$ = ecx

; 487  :   inline _STLP_alloc_proxy(const _MaybeReboundAlloc& __a, _Value __p) : _MaybeReboundAlloc(__a), _M_data(__p) {}

  00000	8b c1		 mov	 eax, ecx
  00002	8b 4c 24 08	 mov	 ecx, DWORD PTR ___p$[esp-4]
  00006	89 08		 mov	 DWORD PTR [eax], ecx
  00008	c2 08 00	 ret	 8
??0?$_STLP_alloc_proxy@PAU?$_Rb_tree_node@U?$pair@$$CBGPAVZONETABLE_INFO@@@_STL@@@_STL@@U12@V?$allocator@U?$_Rb_tree_node@U?$pair@$$CBGPAVZONETABLE_INFO@@@_STL@@@_STL@@@2@@_STL@@QAE@ABV?$allocator@U?$_Rb_tree_node@U?$pair@$$CBGPAVZONETABLE_INFO@@@_STL@@@_STL@@@1@PAU?$_Rb_tree_node@U?$pair@$$CBGPAVZONETABLE_INFO@@@_STL@@@1@@Z ENDP ; _STL::_STLP_alloc_proxy<_STL::_Rb_tree_node<_STL::pair<unsigned short const ,ZONETABLE_INFO *> > *,_STL::_Rb_tree_node<_STL::pair<unsigned short const ,ZONETABLE_INFO *> >,_STL::allocator<_STL::_Rb_tree_node<_STL::pair<unsigned short const ,ZONETABLE_INFO *> > > >::_STLP_alloc_proxy<_STL::_Rb_tree_node<_STL::pair<unsigned short const ,ZONETABLE_INFO *> > *,_STL::_Rb_tree_node<_STL::pair<unsigned short const ,ZONETABLE_INFO *> >,_STL::allocator<_STL::_Rb_tree_node<_STL::pair<unsigned short const ,ZONETABLE_INFO *> > > >
_TEXT	ENDS
PUBLIC	?allocate@?$allocator@U?$_Rb_tree_node@U?$pair@$$CBGPAVZONETABLE_INFO@@@_STL@@@_STL@@@_STL@@QAEPAU?$_Rb_tree_node@U?$pair@$$CBGPAVZONETABLE_INFO@@@_STL@@@2@IPBX@Z ; _STL::allocator<_STL::_Rb_tree_node<_STL::pair<unsigned short const ,ZONETABLE_INFO *> > >::allocate
; Function compile flags: /Ogsy
;	COMDAT ?allocate@?$allocator@U?$_Rb_tree_node@U?$pair@$$CBGPAVZONETABLE_INFO@@@_STL@@@_STL@@@_STL@@QAEPAU?$_Rb_tree_node@U?$pair@$$CBGPAVZONETABLE_INFO@@@_STL@@@2@IPBX@Z
_TEXT	SEGMENT
___n$ = 8						; size = 4
___formal$ = 12						; size = 4
?allocate@?$allocator@U?$_Rb_tree_node@U?$pair@$$CBGPAVZONETABLE_INFO@@@_STL@@@_STL@@@_STL@@QAEPAU?$_Rb_tree_node@U?$pair@$$CBGPAVZONETABLE_INFO@@@_STL@@@2@IPBX@Z PROC NEAR ; _STL::allocator<_STL::_Rb_tree_node<_STL::pair<unsigned short const ,ZONETABLE_INFO *> > >::allocate, COMDAT
; _this$ = ecx

; 355  :     return __n != 0 ? __REINTERPRET_CAST(value_type*,__sgi_alloc::allocate(__n * sizeof(value_type))) : 0;

  00000	8b 44 24 04	 mov	 eax, DWORD PTR ___n$[esp-4]
  00004	85 c0		 test	 eax, eax
  00006	74 0f		 je	 SHORT $L104604
  00008	8d 04 40	 lea	 eax, DWORD PTR [eax+eax*2]
  0000b	c1 e0 03	 shl	 eax, 3
  0000e	50		 push	 eax
  0000f	e8 00 00 00 00	 call	 ?allocate@?$__node_alloc@$00$0A@@_STL@@SAPAXI@Z ; _STL::__node_alloc<1,0>::allocate
  00014	59		 pop	 ecx
  00015	eb 02		 jmp	 SHORT $L104605
$L104604:
  00017	33 c0		 xor	 eax, eax
$L104605:

; 356  :   }

  00019	c2 08 00	 ret	 8
?allocate@?$allocator@U?$_Rb_tree_node@U?$pair@$$CBGPAVZONETABLE_INFO@@@_STL@@@_STL@@@_STL@@QAEPAU?$_Rb_tree_node@U?$pair@$$CBGPAVZONETABLE_INFO@@@_STL@@@2@IPBX@Z ENDP ; _STL::allocator<_STL::_Rb_tree_node<_STL::pair<unsigned short const ,ZONETABLE_INFO *> > >::allocate
_TEXT	ENDS
PUBLIC	?clear@?$_List_base@GV?$allocator@G@_STL@@@_STL@@QAEXXZ ; _STL::_List_base<unsigned short,_STL::allocator<unsigned short> >::clear
; Function compile flags: /Ogsy
; File c:\stlport-4.6.1\stlport\stl\_list.c
;	COMDAT ?clear@?$_List_base@GV?$allocator@G@_STL@@@_STL@@QAEXXZ
_TEXT	SEGMENT
?clear@?$_List_base@GV?$allocator@G@_STL@@@_STL@@QAEXXZ PROC NEAR ; _STL::_List_base<unsigned short,_STL::allocator<unsigned short> >::clear, COMDAT
; _this$ = ecx

; 68   : {

  00000	56		 push	 esi
  00001	57		 push	 edi
  00002	8b f9		 mov	 edi, ecx

; 69   :   _List_node<_Tp>* __cur = (_List_node<_Tp>*) this->_M_node._M_data->_M_next;

  00004	8b 07		 mov	 eax, DWORD PTR [edi]
  00006	8b 30		 mov	 esi, DWORD PTR [eax]

; 70   :   while (__cur != this->_M_node._M_data) {

  00008	3b f0		 cmp	 esi, eax
  0000a	74 12		 je	 SHORT $L103064
$L103063:

; 71   :     _List_node<_Tp>* __tmp = __cur;

  0000c	8b c6		 mov	 eax, esi

; 72   :     __cur = (_List_node<_Tp>*) __cur->_M_next;

  0000e	8b 36		 mov	 esi, DWORD PTR [esi]

; 73   :     _STLP_STD::_Destroy(&__tmp->_M_data);
; 74   :     this->_M_node.deallocate(__tmp, 1);

  00010	6a 01		 push	 1
  00012	50		 push	 eax
  00013	8b cf		 mov	 ecx, edi
  00015	e8 00 00 00 00	 call	 ?deallocate@?$allocator@U?$_List_node@G@_STL@@@_STL@@QAEXPAU?$_List_node@G@2@I@Z ; _STL::allocator<_STL::_List_node<unsigned short> >::deallocate
  0001a	3b 37		 cmp	 esi, DWORD PTR [edi]
  0001c	75 ee		 jne	 SHORT $L103063
$L103064:

; 75   :   }
; 76   :   this->_M_node._M_data->_M_next = this->_M_node._M_data;

  0001e	8b 07		 mov	 eax, DWORD PTR [edi]
  00020	89 00		 mov	 DWORD PTR [eax], eax

; 77   :   this->_M_node._M_data->_M_prev = this->_M_node._M_data;

  00022	8b 3f		 mov	 edi, DWORD PTR [edi]
  00024	89 7f 04	 mov	 DWORD PTR [edi+4], edi
  00027	5f		 pop	 edi
  00028	5e		 pop	 esi

; 78   : }

  00029	c3		 ret	 0
?clear@?$_List_base@GV?$allocator@G@_STL@@@_STL@@QAEXXZ ENDP ; _STL::_List_base<unsigned short,_STL::allocator<unsigned short> >::clear
_TEXT	ENDS
PUBLIC	?_M_erase@?$_Rb_tree@GU?$pair@$$CBGPAVZONETABLE_INFO@@@_STL@@U?$_Select1st@U?$pair@$$CBGPAVZONETABLE_INFO@@@_STL@@@2@U?$less@G@2@V?$allocator@U?$pair@$$CBGPAVZONETABLE_INFO@@@_STL@@@2@@_STL@@AAEXPAU?$_Rb_tree_node@U?$pair@$$CBGPAVZONETABLE_INFO@@@_STL@@@2@@Z ; _STL::_Rb_tree<unsigned short,_STL::pair<unsigned short const ,ZONETABLE_INFO *>,_STL::_Select1st<_STL::pair<unsigned short const ,ZONETABLE_INFO *> >,_STL::less<unsigned short>,_STL::allocator<_STL::pair<unsigned short const ,ZONETABLE_INFO *> > >::_M_erase
; Function compile flags: /Ogsy
; File c:\stlport-4.6.1\stlport\stl\_tree.c
;	COMDAT ?_M_erase@?$_Rb_tree@GU?$pair@$$CBGPAVZONETABLE_INFO@@@_STL@@U?$_Select1st@U?$pair@$$CBGPAVZONETABLE_INFO@@@_STL@@@2@U?$less@G@2@V?$allocator@U?$pair@$$CBGPAVZONETABLE_INFO@@@_STL@@@2@@_STL@@AAEXPAU?$_Rb_tree_node@U?$pair@$$CBGPAVZONETABLE_INFO@@@_STL@@@2@@Z
_TEXT	SEGMENT
___x$ = 8						; size = 4
?_M_erase@?$_Rb_tree@GU?$pair@$$CBGPAVZONETABLE_INFO@@@_STL@@U?$_Select1st@U?$pair@$$CBGPAVZONETABLE_INFO@@@_STL@@@2@U?$less@G@2@V?$allocator@U?$pair@$$CBGPAVZONETABLE_INFO@@@_STL@@@2@@_STL@@AAEXPAU?$_Rb_tree_node@U?$pair@$$CBGPAVZONETABLE_INFO@@@_STL@@@2@@Z PROC NEAR ; _STL::_Rb_tree<unsigned short,_STL::pair<unsigned short const ,ZONETABLE_INFO *>,_STL::_Select1st<_STL::pair<unsigned short const ,ZONETABLE_INFO *> >,_STL::less<unsigned short>,_STL::allocator<_STL::pair<unsigned short const ,ZONETABLE_INFO *> > >::_M_erase, COMDAT
; _this$ = ecx

; 637  : {

  00000	53		 push	 ebx
  00001	56		 push	 esi

; 638  :                                 // erase without rebalancing
; 639  :   while (__x != 0) {

  00002	8b 74 24 0c	 mov	 esi, DWORD PTR ___x$[esp+4]
  00006	85 f6		 test	 esi, esi
  00008	8b d9		 mov	 ebx, ecx
  0000a	74 1f		 je	 SHORT $L103082
  0000c	57		 push	 edi
$L103081:

; 640  :     _M_erase(_S_right(__x));

  0000d	ff 76 0c	 push	 DWORD PTR [esi+12]
  00010	8b cb		 mov	 ecx, ebx
  00012	e8 00 00 00 00	 call	 ?_M_erase@?$_Rb_tree@GU?$pair@$$CBGPAVZONETABLE_INFO@@@_STL@@U?$_Select1st@U?$pair@$$CBGPAVZONETABLE_INFO@@@_STL@@@2@U?$less@G@2@V?$allocator@U?$pair@$$CBGPAVZONETABLE_INFO@@@_STL@@@2@@_STL@@AAEXPAU?$_Rb_tree_node@U?$pair@$$CBGPAVZONETABLE_INFO@@@_STL@@@2@@Z ; _STL::_Rb_tree<unsigned short,_STL::pair<unsigned short const ,ZONETABLE_INFO *>,_STL::_Select1st<_STL::pair<unsigned short const ,ZONETABLE_INFO *> >,_STL::less<unsigned short>,_STL::allocator<_STL::pair<unsigned short const ,ZONETABLE_INFO *> > >::_M_erase

; 641  :     _Link_type __y = _S_left(__x);

  00017	8b 7e 08	 mov	 edi, DWORD PTR [esi+8]

; 642  :     _STLP_STD::_Destroy(&__x->_M_value_field);
; 643  :     this->_M_header.deallocate(__x,1);

  0001a	6a 01		 push	 1
  0001c	56		 push	 esi
  0001d	8b cb		 mov	 ecx, ebx
  0001f	e8 00 00 00 00	 call	 ?deallocate@?$allocator@U?$_Rb_tree_node@U?$pair@$$CBGPAVZONETABLE_INFO@@@_STL@@@_STL@@@_STL@@QAEXPAU?$_Rb_tree_node@U?$pair@$$CBGPAVZONETABLE_INFO@@@_STL@@@2@I@Z ; _STL::allocator<_STL::_Rb_tree_node<_STL::pair<unsigned short const ,ZONETABLE_INFO *> > >::deallocate
  00024	85 ff		 test	 edi, edi

; 644  :     __x = __y;

  00026	8b f7		 mov	 esi, edi
  00028	75 e3		 jne	 SHORT $L103081
  0002a	5f		 pop	 edi
$L103082:
  0002b	5e		 pop	 esi
  0002c	5b		 pop	 ebx

; 645  :   }
; 646  : }

  0002d	c2 04 00	 ret	 4
?_M_erase@?$_Rb_tree@GU?$pair@$$CBGPAVZONETABLE_INFO@@@_STL@@U?$_Select1st@U?$pair@$$CBGPAVZONETABLE_INFO@@@_STL@@@2@U?$less@G@2@V?$allocator@U?$pair@$$CBGPAVZONETABLE_INFO@@@_STL@@@2@@_STL@@AAEXPAU?$_Rb_tree_node@U?$pair@$$CBGPAVZONETABLE_INFO@@@_STL@@@2@@Z ENDP ; _STL::_Rb_tree<unsigned short,_STL::pair<unsigned short const ,ZONETABLE_INFO *>,_STL::_Select1st<_STL::pair<unsigned short const ,ZONETABLE_INFO *> >,_STL::less<unsigned short>,_STL::allocator<_STL::pair<unsigned short const ,ZONETABLE_INFO *> > >::_M_erase
_TEXT	ENDS
PUBLIC	??$__copy_ptrs@PAVMString@@PAV1@@_STL@@YAPAVMString@@PAV1@00ABU__false_type@0@@Z ; _STL::__copy_ptrs<MString *,MString *>
; Function compile flags: /Ogsy
; File c:\stlport-4.6.1\stlport\stl\_algobase.h
;	COMDAT ??$__copy_ptrs@PAVMString@@PAV1@@_STL@@YAPAVMString@@PAV1@00ABU__false_type@0@@Z
_TEXT	SEGMENT
$T104631 = -1						; size = 1
___first$ = 8						; size = 4
___last$ = 12						; size = 4
___result$ = 16						; size = 4
___formal$ = 20						; size = 4
??$__copy_ptrs@PAVMString@@PAV1@@_STL@@YAPAVMString@@PAV1@00ABU__false_type@0@@Z PROC NEAR ; _STL::__copy_ptrs<MString *,MString *>, COMDAT

; 188  : inline _OutputIter __copy_ptrs(_InputIter __first, _InputIter __last, _OutputIter __result, const __false_type&) {

  00000	55		 push	 ebp
  00001	8b ec		 mov	 ebp, esp
  00003	51		 push	 ecx

; 189  :   return __copy(__first, __last, __result, 
; 190  :                 _STLP_ITERATOR_CATEGORY(__first, _InputIter), 
; 191  :                 _STLP_DISTANCE_TYPE(__first, _InputIter));

  00004	6a 00		 push	 0
  00006	8d 45 ff	 lea	 eax, DWORD PTR $T104631[ebp]
  00009	50		 push	 eax
  0000a	ff 75 10	 push	 DWORD PTR ___result$[ebp]
  0000d	ff 75 0c	 push	 DWORD PTR ___last$[ebp]
  00010	ff 75 08	 push	 DWORD PTR ___first$[ebp]
  00013	e8 00 00 00 00	 call	 ??$__copy@PAVMString@@PAV1@H@_STL@@YAPAVMString@@PAV1@00ABUrandom_access_iterator_tag@0@PAH@Z ; _STL::__copy<MString *,MString *,int>
  00018	83 c4 14	 add	 esp, 20			; 00000014H

; 192  : }

  0001b	c9		 leave
  0001c	c3		 ret	 0
??$__copy_ptrs@PAVMString@@PAV1@@_STL@@YAPAVMString@@PAV1@00ABU__false_type@0@@Z ENDP ; _STL::__copy_ptrs<MString *,MString *>
_TEXT	ENDS
PUBLIC	?setstate@?$basic_ios@DV?$char_traits@D@_STL@@@_STL@@QAEXH@Z ; _STL::basic_ios<char,_STL::char_traits<char> >::setstate
; Function compile flags: /Ogsy
; File c:\stlport-4.6.1\stlport\stl\_ios.h
;	COMDAT ?setstate@?$basic_ios@DV?$char_traits@D@_STL@@@_STL@@QAEXH@Z
_TEXT	SEGMENT
___state$ = 8						; size = 4
?setstate@?$basic_ios@DV?$char_traits@D@_STL@@@_STL@@QAEXH@Z PROC NEAR ; _STL::basic_ios<char,_STL::char_traits<char> >::setstate, COMDAT
; _this$ = ecx

; 94   :   void setstate(iostate __state) { this->clear(rdstate() | __state); }

  00000	8b 41 08	 mov	 eax, DWORD PTR [ecx+8]
  00003	0b 44 24 04	 or	 eax, DWORD PTR ___state$[esp-4]
  00007	50		 push	 eax
  00008	e8 00 00 00 00	 call	 ?clear@?$basic_ios@DV?$char_traits@D@_STL@@@_STL@@QAEXH@Z ; _STL::basic_ios<char,_STL::char_traits<char> >::clear
  0000d	c2 04 00	 ret	 4
?setstate@?$basic_ios@DV?$char_traits@D@_STL@@@_STL@@QAEXH@Z ENDP ; _STL::basic_ios<char,_STL::char_traits<char> >::setstate
_TEXT	ENDS
PUBLIC	?_S_key@?$_Rb_tree@GU?$pair@$$CBGPAVZONETABLE_INFO@@@_STL@@U?$_Select1st@U?$pair@$$CBGPAVZONETABLE_INFO@@@_STL@@@2@U?$less@G@2@V?$allocator@U?$pair@$$CBGPAVZONETABLE_INFO@@@_STL@@@2@@_STL@@KAABGPAU?$_Rb_tree_node@U?$pair@$$CBGPAVZONETABLE_INFO@@@_STL@@@2@@Z ; _STL::_Rb_tree<unsigned short,_STL::pair<unsigned short const ,ZONETABLE_INFO *>,_STL::_Select1st<_STL::pair<unsigned short const ,ZONETABLE_INFO *> >,_STL::less<unsigned short>,_STL::allocator<_STL::pair<unsigned short const ,ZONETABLE_INFO *> > >::_S_key
; Function compile flags: /Ogsy
; File c:\stlport-4.6.1\stlport\stl\_tree.h
;	COMDAT ?_S_key@?$_Rb_tree@GU?$pair@$$CBGPAVZONETABLE_INFO@@@_STL@@U?$_Select1st@U?$pair@$$CBGPAVZONETABLE_INFO@@@_STL@@@2@U?$less@G@2@V?$allocator@U?$pair@$$CBGPAVZONETABLE_INFO@@@_STL@@@2@@_STL@@KAABGPAU?$_Rb_tree_node@U?$pair@$$CBGPAVZONETABLE_INFO@@@_STL@@@2@@Z
_TEXT	SEGMENT
___x$ = 8						; size = 4
?_S_key@?$_Rb_tree@GU?$pair@$$CBGPAVZONETABLE_INFO@@@_STL@@U?$_Select1st@U?$pair@$$CBGPAVZONETABLE_INFO@@@_STL@@@2@U?$less@G@2@V?$allocator@U?$pair@$$CBGPAVZONETABLE_INFO@@@_STL@@@2@@_STL@@KAABGPAU?$_Rb_tree_node@U?$pair@$$CBGPAVZONETABLE_INFO@@@_STL@@@2@@Z PROC NEAR ; _STL::_Rb_tree<unsigned short,_STL::pair<unsigned short const ,ZONETABLE_INFO *>,_STL::_Select1st<_STL::pair<unsigned short const ,ZONETABLE_INFO *> >,_STL::less<unsigned short>,_STL::allocator<_STL::pair<unsigned short const ,ZONETABLE_INFO *> > >::_S_key, COMDAT

; 280  :     { return _KeyOfValue()(_S_value(__x)); }

  00000	8b 44 24 04	 mov	 eax, DWORD PTR ___x$[esp-4]
  00004	83 c0 10	 add	 eax, 16			; 00000010H
  00007	c3		 ret	 0
?_S_key@?$_Rb_tree@GU?$pair@$$CBGPAVZONETABLE_INFO@@@_STL@@U?$_Select1st@U?$pair@$$CBGPAVZONETABLE_INFO@@@_STL@@@2@U?$less@G@2@V?$allocator@U?$pair@$$CBGPAVZONETABLE_INFO@@@_STL@@@2@@_STL@@KAABGPAU?$_Rb_tree_node@U?$pair@$$CBGPAVZONETABLE_INFO@@@_STL@@@2@@Z ENDP ; _STL::_Rb_tree<unsigned short,_STL::pair<unsigned short const ,ZONETABLE_INFO *>,_STL::_Select1st<_STL::pair<unsigned short const ,ZONETABLE_INFO *> >,_STL::less<unsigned short>,_STL::allocator<_STL::pair<unsigned short const ,ZONETABLE_INFO *> > >::_S_key
_TEXT	ENDS
PUBLIC	?_S_key@?$_Rb_tree@GU?$pair@$$CBGPAVZONETABLE_INFO@@@_STL@@U?$_Select1st@U?$pair@$$CBGPAVZONETABLE_INFO@@@_STL@@@2@U?$less@G@2@V?$allocator@U?$pair@$$CBGPAVZONETABLE_INFO@@@_STL@@@2@@_STL@@KAABGPAU_Rb_tree_node_base@2@@Z ; _STL::_Rb_tree<unsigned short,_STL::pair<unsigned short const ,ZONETABLE_INFO *>,_STL::_Select1st<_STL::pair<unsigned short const ,ZONETABLE_INFO *> >,_STL::less<unsigned short>,_STL::allocator<_STL::pair<unsigned short const ,ZONETABLE_INFO *> > >::_S_key
; Function compile flags: /Ogsy
;	COMDAT ?_S_key@?$_Rb_tree@GU?$pair@$$CBGPAVZONETABLE_INFO@@@_STL@@U?$_Select1st@U?$pair@$$CBGPAVZONETABLE_INFO@@@_STL@@@2@U?$less@G@2@V?$allocator@U?$pair@$$CBGPAVZONETABLE_INFO@@@_STL@@@2@@_STL@@KAABGPAU_Rb_tree_node_base@2@@Z
_TEXT	SEGMENT
___x$ = 8						; size = 4
?_S_key@?$_Rb_tree@GU?$pair@$$CBGPAVZONETABLE_INFO@@@_STL@@U?$_Select1st@U?$pair@$$CBGPAVZONETABLE_INFO@@@_STL@@@2@U?$less@G@2@V?$allocator@U?$pair@$$CBGPAVZONETABLE_INFO@@@_STL@@@2@@_STL@@KAABGPAU_Rb_tree_node_base@2@@Z PROC NEAR ; _STL::_Rb_tree<unsigned short,_STL::pair<unsigned short const ,ZONETABLE_INFO *>,_STL::_Select1st<_STL::pair<unsigned short const ,ZONETABLE_INFO *> >,_STL::less<unsigned short>,_STL::allocator<_STL::pair<unsigned short const ,ZONETABLE_INFO *> > >::_S_key, COMDAT

; 293  :     { return _KeyOfValue()(_S_value(_Link_type(__x)));} 

  00000	8b 44 24 04	 mov	 eax, DWORD PTR ___x$[esp-4]
  00004	83 c0 10	 add	 eax, 16			; 00000010H
  00007	c3		 ret	 0
?_S_key@?$_Rb_tree@GU?$pair@$$CBGPAVZONETABLE_INFO@@@_STL@@U?$_Select1st@U?$pair@$$CBGPAVZONETABLE_INFO@@@_STL@@@2@U?$less@G@2@V?$allocator@U?$pair@$$CBGPAVZONETABLE_INFO@@@_STL@@@2@@_STL@@KAABGPAU_Rb_tree_node_base@2@@Z ENDP ; _STL::_Rb_tree<unsigned short,_STL::pair<unsigned short const ,ZONETABLE_INFO *>,_STL::_Select1st<_STL::pair<unsigned short const ,ZONETABLE_INFO *> >,_STL::less<unsigned short>,_STL::allocator<_STL::pair<unsigned short const ,ZONETABLE_INFO *> > >::_S_key
_TEXT	ENDS
PUBLIC	?flush@?$basic_ostream@DV?$char_traits@D@_STL@@@_STL@@QAEAAV12@XZ ; _STL::basic_ostream<char,_STL::char_traits<char> >::flush
; Function compile flags: /Ogsy
; File c:\stlport-4.6.1\stlport\stl\_ostream.h
;	COMDAT ?flush@?$basic_ostream@DV?$char_traits@D@_STL@@@_STL@@QAEAAV12@XZ
_TEXT	SEGMENT
?flush@?$basic_ostream@DV?$char_traits@D@_STL@@@_STL@@QAEAAV12@XZ PROC NEAR ; _STL::basic_ostream<char,_STL::char_traits<char> >::flush, COMDAT
; _this$ = ecx

; 120  :   _Self& flush() {

  00000	56		 push	 esi
  00001	8b f1		 mov	 esi, ecx

; 121  :     if (this->rdbuf())

  00003	8b 06		 mov	 eax, DWORD PTR [esi]
  00005	8b 40 04	 mov	 eax, DWORD PTR [eax+4]
  00008	8b 4c 30 58	 mov	 ecx, DWORD PTR [eax+esi+88]
  0000c	85 c9		 test	 ecx, ecx
  0000e	74 1d		 je	 SHORT $L104680

; 122  :       if (this->rdbuf()->pubsync() == -1)

  00010	8b 01		 mov	 eax, DWORD PTR [ecx]
  00012	ff 50 10	 call	 DWORD PTR [eax+16]
  00015	83 f8 ff	 cmp	 eax, -1
  00018	75 13		 jne	 SHORT $L104680

; 123  :         this->setstate(ios_base::badbit);

  0001a	8b 06		 mov	 eax, DWORD PTR [esi]
  0001c	8b 48 04	 mov	 ecx, DWORD PTR [eax+4]
  0001f	03 ce		 add	 ecx, esi
  00021	8b 41 08	 mov	 eax, DWORD PTR [ecx+8]
  00024	83 c8 01	 or	 eax, 1
  00027	50		 push	 eax
  00028	e8 00 00 00 00	 call	 ?clear@?$basic_ios@DV?$char_traits@D@_STL@@@_STL@@QAEXH@Z ; _STL::basic_ios<char,_STL::char_traits<char> >::clear
$L104680:

; 124  :     return *this;

  0002d	8b c6		 mov	 eax, esi
  0002f	5e		 pop	 esi

; 125  :   }

  00030	c3		 ret	 0
?flush@?$basic_ostream@DV?$char_traits@D@_STL@@@_STL@@QAEAAV12@XZ ENDP ; _STL::basic_ostream<char,_STL::char_traits<char> >::flush
_TEXT	ENDS
PUBLIC	??$_M_find@G@?$_Rb_tree@GU?$pair@$$CBGPAVZONETABLE_INFO@@@_STL@@U?$_Select1st@U?$pair@$$CBGPAVZONETABLE_INFO@@@_STL@@@2@U?$less@G@2@V?$allocator@U?$pair@$$CBGPAVZONETABLE_INFO@@@_STL@@@2@@_STL@@ABEPAU?$_Rb_tree_node@U?$pair@$$CBGPAVZONETABLE_INFO@@@_STL@@@1@ABG@Z ; _STL::_Rb_tree<unsigned short,_STL::pair<unsigned short const ,ZONETABLE_INFO *>,_STL::_Select1st<_STL::pair<unsigned short const ,ZONETABLE_INFO *> >,_STL::less<unsigned short>,_STL::allocator<_STL::pair<unsigned short const ,ZONETABLE_INFO *> > >::_M_find<unsigned short>
; Function compile flags: /Ogsy
; File c:\stlport-4.6.1\stlport\stl\_tree.h
;	COMDAT ??$_M_find@G@?$_Rb_tree@GU?$pair@$$CBGPAVZONETABLE_INFO@@@_STL@@U?$_Select1st@U?$pair@$$CBGPAVZONETABLE_INFO@@@_STL@@@2@U?$less@G@2@V?$allocator@U?$pair@$$CBGPAVZONETABLE_INFO@@@_STL@@@2@@_STL@@ABEPAU?$_Rb_tree_node@U?$pair@$$CBGPAVZONETABLE_INFO@@@_STL@@@1@ABG@Z
_TEXT	SEGMENT
___k$ = 8						; size = 4
??$_M_find@G@?$_Rb_tree@GU?$pair@$$CBGPAVZONETABLE_INFO@@@_STL@@U?$_Select1st@U?$pair@$$CBGPAVZONETABLE_INFO@@@_STL@@@2@U?$less@G@2@V?$allocator@U?$pair@$$CBGPAVZONETABLE_INFO@@@_STL@@@2@@_STL@@ABEPAU?$_Rb_tree_node@U?$pair@$$CBGPAVZONETABLE_INFO@@@_STL@@@1@ABG@Z PROC NEAR ; _STL::_Rb_tree<unsigned short,_STL::pair<unsigned short const ,ZONETABLE_INFO *>,_STL::_Select1st<_STL::pair<unsigned short const ,ZONETABLE_INFO *> >,_STL::less<unsigned short>,_STL::allocator<_STL::pair<unsigned short const ,ZONETABLE_INFO *> > >::_M_find<unsigned short>, COMDAT
; _this$ = ecx

; 462  : # else
; 463  :   iterator find(const key_type& __x) { return iterator(_M_find(__x)); }
; 464  :   const_iterator find(const key_type& __x) const { return const_iterator(_M_find(__x)); }
; 465  : private:
; 466  :   _Rb_tree_node<_Value>* _M_find(const key_type& __k) const
; 467  : # endif
; 468  :   {
; 469  :     _Link_type __y = this->_M_header._M_data;      // Last node which is not less than __k. 

  00000	8b 11		 mov	 edx, DWORD PTR [ecx]

; 470  :     _Link_type __x = _M_root();      // Current node. 

  00002	8b 4a 04	 mov	 ecx, DWORD PTR [edx+4]

; 471  :     
; 472  :     while (__x != 0) 

  00005	85 c9		 test	 ecx, ecx
  00007	57		 push	 edi
  00008	8b 7c 24 08	 mov	 edi, DWORD PTR ___k$[esp]
  0000c	8b c2		 mov	 eax, edx
  0000e	74 19		 je	 SHORT $L103445
  00010	56		 push	 esi
  00011	66 8b 37	 mov	 si, WORD PTR [edi]
$L103444:

; 473  :       if (!_M_key_compare(_S_key(__x), __k))

  00014	66 39 71 10	 cmp	 WORD PTR [ecx+16], si
  00018	72 07		 jb	 SHORT $L103446

; 474  : 	__y = __x, __x = _S_left(__x);

  0001a	8b c1		 mov	 eax, ecx
  0001c	8b 49 08	 mov	 ecx, DWORD PTR [ecx+8]

; 475  :       else

  0001f	eb 03		 jmp	 SHORT $L103447
$L103446:

; 476  : 	__x = _S_right(__x);

  00021	8b 49 0c	 mov	 ecx, DWORD PTR [ecx+12]
$L103447:

; 471  :     
; 472  :     while (__x != 0) 

  00024	85 c9		 test	 ecx, ecx
  00026	75 ec		 jne	 SHORT $L103444
  00028	5e		 pop	 esi
$L103445:

; 477  :     if (__y == this->_M_header._M_data || _M_key_compare(__k, _S_key(__y)))

  00029	3b c2		 cmp	 eax, edx
  0002b	74 09		 je	 SHORT $L103449
  0002d	66 8b 0f	 mov	 cx, WORD PTR [edi]
  00030	66 3b 48 10	 cmp	 cx, WORD PTR [eax+16]
  00034	73 02		 jae	 SHORT $L103448
$L103449:

; 478  :       __y = this->_M_header._M_data;

  00036	8b c2		 mov	 eax, edx
$L103448:
  00038	5f		 pop	 edi

; 479  :     return __y;
; 480  :   }

  00039	c2 04 00	 ret	 4
??$_M_find@G@?$_Rb_tree@GU?$pair@$$CBGPAVZONETABLE_INFO@@@_STL@@U?$_Select1st@U?$pair@$$CBGPAVZONETABLE_INFO@@@_STL@@@2@U?$less@G@2@V?$allocator@U?$pair@$$CBGPAVZONETABLE_INFO@@@_STL@@@2@@_STL@@ABEPAU?$_Rb_tree_node@U?$pair@$$CBGPAVZONETABLE_INFO@@@_STL@@@1@ABG@Z ENDP ; _STL::_Rb_tree<unsigned short,_STL::pair<unsigned short const ,ZONETABLE_INFO *>,_STL::_Select1st<_STL::pair<unsigned short const ,ZONETABLE_INFO *> >,_STL::less<unsigned short>,_STL::allocator<_STL::pair<unsigned short const ,ZONETABLE_INFO *> > >::_M_find<unsigned short>
_TEXT	ENDS
PUBLIC	??$_M_init@DV?$char_traits@D@_STL@@@_STL@@YA_NAAV?$basic_ostream@DV?$char_traits@D@_STL@@@0@@Z ; _STL::_M_init<char,_STL::char_traits<char> >
; Function compile flags: /Ogsy
; File c:\stlport-4.6.1\stlport\stl\_ostream.c
;	COMDAT ??$_M_init@DV?$char_traits@D@_STL@@@_STL@@YA_NAAV?$basic_ostream@DV?$char_traits@D@_STL@@@0@@Z
_TEXT	SEGMENT
___str$ = 8						; size = 4
??$_M_init@DV?$char_traits@D@_STL@@@_STL@@YA_NAAV?$basic_ostream@DV?$char_traits@D@_STL@@@0@@Z PROC NEAR ; _STL::_M_init<char,_STL::char_traits<char> >, COMDAT

; 37   : _M_init(basic_ostream<_CharT, _Traits>& __str) {

  00000	56		 push	 esi

; 38   :   if (__str.good()) {

  00001	8b 74 24 08	 mov	 esi, DWORD PTR ___str$[esp]
  00005	8b 06		 mov	 eax, DWORD PTR [esi]
  00007	8b 40 04	 mov	 eax, DWORD PTR [eax+4]
  0000a	8d 0c 30	 lea	 ecx, DWORD PTR [eax+esi]
  0000d	83 79 08 00	 cmp	 DWORD PTR [ecx+8], 0
  00011	75 36		 jne	 SHORT $L103469

; 39   :     // boris : check if this is needed !
; 40   :     if (!__str.rdbuf())

  00013	83 79 58 00	 cmp	 DWORD PTR [ecx+88], 0
  00017	75 0c		 jne	 SHORT $L104749

; 41   :       __str.setstate(ios_base::badbit);

  00019	8b 41 08	 mov	 eax, DWORD PTR [ecx+8]
  0001c	83 c8 01	 or	 eax, 1
  0001f	50		 push	 eax
  00020	e8 00 00 00 00	 call	 ?clear@?$basic_ios@DV?$char_traits@D@_STL@@@_STL@@QAEXH@Z ; _STL::basic_ios<char,_STL::char_traits<char> >::clear
$L104749:

; 42   :     if (__str.tie())

  00025	8b 06		 mov	 eax, DWORD PTR [esi]
  00027	8b 40 04	 mov	 eax, DWORD PTR [eax+4]
  0002a	8b 4c 30 5c	 mov	 ecx, DWORD PTR [eax+esi+92]
  0002e	85 c9		 test	 ecx, ecx
  00030	74 05		 je	 SHORT $L103471

; 43   :       __str.tie()->flush();

  00032	e8 00 00 00 00	 call	 ?flush@?$basic_ostream@DV?$char_traits@D@_STL@@@_STL@@QAEAAV12@XZ ; _STL::basic_ostream<char,_STL::char_traits<char> >::flush
$L103471:

; 44   :     return __str.good();

  00037	8b 06		 mov	 eax, DWORD PTR [esi]
  00039	8b 40 04	 mov	 eax, DWORD PTR [eax+4]
  0003c	33 c9		 xor	 ecx, ecx
  0003e	39 4c 30 08	 cmp	 DWORD PTR [eax+esi+8], ecx
  00042	5e		 pop	 esi
  00043	0f 94 c1	 sete	 cl
  00046	8a c1		 mov	 al, cl

; 47   : }

  00048	c3		 ret	 0
$L103469:

; 45   :   } else
; 46   :     return false;

  00049	32 c0		 xor	 al, al
  0004b	5e		 pop	 esi

; 47   : }

  0004c	c3		 ret	 0
??$_M_init@DV?$char_traits@D@_STL@@@_STL@@YA_NAAV?$basic_ostream@DV?$char_traits@D@_STL@@@0@@Z ENDP ; _STL::_M_init<char,_STL::char_traits<char> >
_TEXT	ENDS
PUBLIC	??E?$_List_iterator@GU?$_Const_traits@G@_STL@@@_STL@@QAEAAU01@XZ ; _STL::_List_iterator<unsigned short,_STL::_Const_traits<unsigned short> >::operator++
; Function compile flags: /Ogsy
; File c:\stlport-4.6.1\stlport\stl\_list.h
;	COMDAT ??E?$_List_iterator@GU?$_Const_traits@G@_STL@@@_STL@@QAEAAU01@XZ
_TEXT	SEGMENT
??E?$_List_iterator@GU?$_Const_traits@G@_STL@@@_STL@@QAEAAU01@XZ PROC NEAR ; _STL::_List_iterator<unsigned short,_STL::_Const_traits<unsigned short> >::operator++, COMDAT
; _this$ = ecx

; 134  :   _Self& operator++() { 

  00000	8b c1		 mov	 eax, ecx

; 135  :     this->_M_incr();

  00002	8b 08		 mov	 ecx, DWORD PTR [eax]
  00004	8b 09		 mov	 ecx, DWORD PTR [ecx]
  00006	89 08		 mov	 DWORD PTR [eax], ecx

; 136  :     return *this;
; 137  :   }

  00008	c3		 ret	 0
??E?$_List_iterator@GU?$_Const_traits@G@_STL@@@_STL@@QAEAAU01@XZ ENDP ; _STL::_List_iterator<unsigned short,_STL::_Const_traits<unsigned short> >::operator++
_TEXT	ENDS
PUBLIC	??$__destroy_aux@PAVMString@@@_STL@@YAXPAVMString@@0ABU__false_type@0@@Z ; _STL::__destroy_aux<MString *>
; Function compile flags: /Ogsy
; File c:\stlport-4.6.1\stlport\stl\_construct.h
;	COMDAT ??$__destroy_aux@PAVMString@@@_STL@@YAXPAVMString@@0ABU__false_type@0@@Z
_TEXT	SEGMENT
___first$ = 8						; size = 4
___last$ = 12						; size = 4
___formal$ = 16						; size = 4
??$__destroy_aux@PAVMString@@@_STL@@YAXPAVMString@@0ABU__false_type@0@@Z PROC NEAR ; _STL::__destroy_aux<MString *>, COMDAT

; 122  : __destroy_aux(_ForwardIterator __first, _ForwardIterator __last, const __false_type&) {

  00000	56		 push	 esi

; 123  :   for ( ; __first != __last; ++__first)

  00001	8b 74 24 08	 mov	 esi, DWORD PTR ___first$[esp]
  00005	eb 0b		 jmp	 SHORT $L104776
$L103557:

; 124  :     _STLP_STD::_Destroy(&*__first);

  00007	8b 06		 mov	 eax, DWORD PTR [esi]
  00009	6a 00		 push	 0
  0000b	8b ce		 mov	 ecx, esi
  0000d	ff 10		 call	 DWORD PTR [eax]
  0000f	83 c6 0c	 add	 esi, 12			; 0000000cH
$L104776:

; 123  :   for ( ; __first != __last; ++__first)

  00012	3b 74 24 0c	 cmp	 esi, DWORD PTR ___last$[esp]
  00016	75 ef		 jne	 SHORT $L103557
  00018	5e		 pop	 esi

; 125  : }

  00019	c3		 ret	 0
??$__destroy_aux@PAVMString@@@_STL@@YAXPAVMString@@0ABU__false_type@0@@Z ENDP ; _STL::__destroy_aux<MString *>
_TEXT	ENDS
PUBLIC	??$_Construct@U?$pair@$$CBGPAVZONETABLE_INFO@@@_STL@@U12@@_STL@@YAXPAU?$pair@$$CBGPAVZONETABLE_INFO@@@0@ABU10@@Z ; _STL::_Construct<_STL::pair<unsigned short const ,ZONETABLE_INFO *>,_STL::pair<unsigned short const ,ZONETABLE_INFO *> >
; Function compile flags: /Ogsy
;	COMDAT ??$_Construct@U?$pair@$$CBGPAVZONETABLE_INFO@@@_STL@@U12@@_STL@@YAXPAU?$pair@$$CBGPAVZONETABLE_INFO@@@0@ABU10@@Z
_TEXT	SEGMENT
___p$ = 8						; size = 4
___val$ = 12						; size = 4
??$_Construct@U?$pair@$$CBGPAVZONETABLE_INFO@@@_STL@@U12@@_STL@@YAXPAU?$pair@$$CBGPAVZONETABLE_INFO@@@0@ABU10@@Z PROC NEAR ; _STL::_Construct<_STL::pair<unsigned short const ,ZONETABLE_INFO *>,_STL::pair<unsigned short const ,ZONETABLE_INFO *> >, COMDAT

; 94   : # ifdef _STLP_DEBUG_UNINITIALIZED
; 95   : 	memset((char*)__p, _STLP_SHRED_BYTE, sizeof(_T1));
; 96   : # endif
; 97   :     _STLP_PLACEMENT_NEW (__p) _T1(__val);

  00000	8b 44 24 04	 mov	 eax, DWORD PTR ___p$[esp-4]
  00004	85 c0		 test	 eax, eax
  00006	74 10		 je	 SHORT $L104782
  00008	8b 4c 24 08	 mov	 ecx, DWORD PTR ___val$[esp-4]
  0000c	66 8b 11	 mov	 dx, WORD PTR [ecx]
  0000f	66 89 10	 mov	 WORD PTR [eax], dx
  00012	8b 49 04	 mov	 ecx, DWORD PTR [ecx+4]
  00015	89 48 04	 mov	 DWORD PTR [eax+4], ecx
$L104782:

; 98   : }

  00018	c3		 ret	 0
??$_Construct@U?$pair@$$CBGPAVZONETABLE_INFO@@@_STL@@U12@@_STL@@YAXPAU?$pair@$$CBGPAVZONETABLE_INFO@@@0@ABU10@@Z ENDP ; _STL::_Construct<_STL::pair<unsigned short const ,ZONETABLE_INFO *>,_STL::pair<unsigned short const ,ZONETABLE_INFO *> >
_TEXT	ENDS
PUBLIC	?begin@?$list@GV?$allocator@G@_STL@@@_STL@@QAE?AU?$_List_iterator@GU?$_Nonconst_traits@G@_STL@@@2@XZ ; _STL::list<unsigned short,_STL::allocator<unsigned short> >::begin
; Function compile flags: /Ogsy
; File c:\stlport-4.6.1\stlport\stl\_list.h
;	COMDAT ?begin@?$list@GV?$allocator@G@_STL@@@_STL@@QAE?AU?$_List_iterator@GU?$_Nonconst_traits@G@_STL@@@2@XZ
_TEXT	SEGMENT
___$ReturnUdt$ = 8					; size = 4
?begin@?$list@GV?$allocator@G@_STL@@@_STL@@QAE?AU?$_List_iterator@GU?$_Nonconst_traits@G@_STL@@@2@XZ PROC NEAR ; _STL::list<unsigned short,_STL::allocator<unsigned short> >::begin, COMDAT
; _this$ = ecx

; 266  :   iterator begin()             { return iterator((_Node*)(this->_M_node._M_data->_M_next)); }

  00000	8b 01		 mov	 eax, DWORD PTR [ecx]
  00002	8b 08		 mov	 ecx, DWORD PTR [eax]
  00004	8b 44 24 04	 mov	 eax, DWORD PTR ___$ReturnUdt$[esp-4]
  00008	89 08		 mov	 DWORD PTR [eax], ecx
  0000a	c2 04 00	 ret	 4
?begin@?$list@GV?$allocator@G@_STL@@@_STL@@QAE?AU?$_List_iterator@GU?$_Nonconst_traits@G@_STL@@@2@XZ ENDP ; _STL::list<unsigned short,_STL::allocator<unsigned short> >::begin
_TEXT	ENDS
PUBLIC	?begin@?$list@GV?$allocator@G@_STL@@@_STL@@QBE?AU?$_List_iterator@GU?$_Const_traits@G@_STL@@@2@XZ ; _STL::list<unsigned short,_STL::allocator<unsigned short> >::begin
; Function compile flags: /Ogsy
;	COMDAT ?begin@?$list@GV?$allocator@G@_STL@@@_STL@@QBE?AU?$_List_iterator@GU?$_Const_traits@G@_STL@@@2@XZ
_TEXT	SEGMENT
___$ReturnUdt$ = 8					; size = 4
?begin@?$list@GV?$allocator@G@_STL@@@_STL@@QBE?AU?$_List_iterator@GU?$_Const_traits@G@_STL@@@2@XZ PROC NEAR ; _STL::list<unsigned short,_STL::allocator<unsigned short> >::begin, COMDAT
; _this$ = ecx

; 267  :   const_iterator begin() const { return const_iterator((_Node*)(this->_M_node._M_data->_M_next)); }

  00000	8b 01		 mov	 eax, DWORD PTR [ecx]
  00002	8b 08		 mov	 ecx, DWORD PTR [eax]
  00004	8b 44 24 04	 mov	 eax, DWORD PTR ___$ReturnUdt$[esp-4]
  00008	89 08		 mov	 DWORD PTR [eax], ecx
  0000a	c2 04 00	 ret	 4
?begin@?$list@GV?$allocator@G@_STL@@@_STL@@QBE?AU?$_List_iterator@GU?$_Const_traits@G@_STL@@@2@XZ ENDP ; _STL::list<unsigned short,_STL::allocator<unsigned short> >::begin
_TEXT	ENDS
PUBLIC	?end@?$list@GV?$allocator@G@_STL@@@_STL@@QAE?AU?$_List_iterator@GU?$_Nonconst_traits@G@_STL@@@2@XZ ; _STL::list<unsigned short,_STL::allocator<unsigned short> >::end
; Function compile flags: /Ogsy
;	COMDAT ?end@?$list@GV?$allocator@G@_STL@@@_STL@@QAE?AU?$_List_iterator@GU?$_Nonconst_traits@G@_STL@@@2@XZ
_TEXT	SEGMENT
___$ReturnUdt$ = 8					; size = 4
?end@?$list@GV?$allocator@G@_STL@@@_STL@@QAE?AU?$_List_iterator@GU?$_Nonconst_traits@G@_STL@@@2@XZ PROC NEAR ; _STL::list<unsigned short,_STL::allocator<unsigned short> >::end, COMDAT
; _this$ = ecx

; 269  :   iterator end()             { return this->_M_node._M_data; }

  00000	8b 09		 mov	 ecx, DWORD PTR [ecx]
  00002	8b 44 24 04	 mov	 eax, DWORD PTR ___$ReturnUdt$[esp-4]
  00006	89 08		 mov	 DWORD PTR [eax], ecx
  00008	c2 04 00	 ret	 4
?end@?$list@GV?$allocator@G@_STL@@@_STL@@QAE?AU?$_List_iterator@GU?$_Nonconst_traits@G@_STL@@@2@XZ ENDP ; _STL::list<unsigned short,_STL::allocator<unsigned short> >::end
_TEXT	ENDS
PUBLIC	?begin@?$map@GPAVZONETABLE_INFO@@U?$less@G@_STL@@V?$allocator@U?$pair@$$CBGPAVZONETABLE_INFO@@@_STL@@@3@@_STL@@QAE?AU?$_Rb_tree_iterator@U?$pair@$$CBGPAVZONETABLE_INFO@@@_STL@@U?$_Nonconst_traits@U?$pair@$$CBGPAVZONETABLE_INFO@@@_STL@@@2@@2@XZ ; _STL::map<unsigned short,ZONETABLE_INFO *,_STL::less<unsigned short>,_STL::allocator<_STL::pair<unsigned short const ,ZONETABLE_INFO *> > >::begin
; Function compile flags: /Ogsy
; File c:\stlport-4.6.1\stlport\stl\_map.h
;	COMDAT ?begin@?$map@GPAVZONETABLE_INFO@@U?$less@G@_STL@@V?$allocator@U?$pair@$$CBGPAVZONETABLE_INFO@@@_STL@@@3@@_STL@@QAE?AU?$_Rb_tree_iterator@U?$pair@$$CBGPAVZONETABLE_INFO@@@_STL@@U?$_Nonconst_traits@U?$pair@$$CBGPAVZONETABLE_INFO@@@_STL@@@2@@2@XZ
_TEXT	SEGMENT
___$ReturnUdt$ = 8					; size = 4
?begin@?$map@GPAVZONETABLE_INFO@@U?$less@G@_STL@@V?$allocator@U?$pair@$$CBGPAVZONETABLE_INFO@@@_STL@@@3@@_STL@@QAE?AU?$_Rb_tree_iterator@U?$pair@$$CBGPAVZONETABLE_INFO@@@_STL@@U?$_Nonconst_traits@U?$pair@$$CBGPAVZONETABLE_INFO@@@_STL@@@2@@2@XZ PROC NEAR ; _STL::map<unsigned short,ZONETABLE_INFO *,_STL::less<unsigned short>,_STL::allocator<_STL::pair<unsigned short const ,ZONETABLE_INFO *> > >::begin, COMDAT
; _this$ = ecx

; 147  :   iterator begin() { return _M_t.begin(); }

  00000	8b 01		 mov	 eax, DWORD PTR [ecx]
  00002	8b 48 08	 mov	 ecx, DWORD PTR [eax+8]
  00005	8b 44 24 04	 mov	 eax, DWORD PTR ___$ReturnUdt$[esp-4]
  00009	89 08		 mov	 DWORD PTR [eax], ecx
  0000b	c2 04 00	 ret	 4
?begin@?$map@GPAVZONETABLE_INFO@@U?$less@G@_STL@@V?$allocator@U?$pair@$$CBGPAVZONETABLE_INFO@@@_STL@@@3@@_STL@@QAE?AU?$_Rb_tree_iterator@U?$pair@$$CBGPAVZONETABLE_INFO@@@_STL@@U?$_Nonconst_traits@U?$pair@$$CBGPAVZONETABLE_INFO@@@_STL@@@2@@2@XZ ENDP ; _STL::map<unsigned short,ZONETABLE_INFO *,_STL::less<unsigned short>,_STL::allocator<_STL::pair<unsigned short const ,ZONETABLE_INFO *> > >::begin
_TEXT	ENDS
PUBLIC	?end@?$map@GPAVZONETABLE_INFO@@U?$less@G@_STL@@V?$allocator@U?$pair@$$CBGPAVZONETABLE_INFO@@@_STL@@@3@@_STL@@QAE?AU?$_Rb_tree_iterator@U?$pair@$$CBGPAVZONETABLE_INFO@@@_STL@@U?$_Nonconst_traits@U?$pair@$$CBGPAVZONETABLE_INFO@@@_STL@@@2@@2@XZ ; _STL::map<unsigned short,ZONETABLE_INFO *,_STL::less<unsigned short>,_STL::allocator<_STL::pair<unsigned short const ,ZONETABLE_INFO *> > >::end
; Function compile flags: /Ogsy
;	COMDAT ?end@?$map@GPAVZONETABLE_INFO@@U?$less@G@_STL@@V?$allocator@U?$pair@$$CBGPAVZONETABLE_INFO@@@_STL@@@3@@_STL@@QAE?AU?$_Rb_tree_iterator@U?$pair@$$CBGPAVZONETABLE_INFO@@@_STL@@U?$_Nonconst_traits@U?$pair@$$CBGPAVZONETABLE_INFO@@@_STL@@@2@@2@XZ
_TEXT	SEGMENT
___$ReturnUdt$ = 8					; size = 4
?end@?$map@GPAVZONETABLE_INFO@@U?$less@G@_STL@@V?$allocator@U?$pair@$$CBGPAVZONETABLE_INFO@@@_STL@@@3@@_STL@@QAE?AU?$_Rb_tree_iterator@U?$pair@$$CBGPAVZONETABLE_INFO@@@_STL@@U?$_Nonconst_traits@U?$pair@$$CBGPAVZONETABLE_INFO@@@_STL@@@2@@2@XZ PROC NEAR ; _STL::map<unsigned short,ZONETABLE_INFO *,_STL::less<unsigned short>,_STL::allocator<_STL::pair<unsigned short const ,ZONETABLE_INFO *> > >::end, COMDAT
; _this$ = ecx

; 149  :   iterator end() { return _M_t.end(); }

  00000	8b 09		 mov	 ecx, DWORD PTR [ecx]
  00002	8b 44 24 04	 mov	 eax, DWORD PTR ___$ReturnUdt$[esp-4]
  00006	89 08		 mov	 DWORD PTR [eax], ecx
  00008	c2 04 00	 ret	 4
?end@?$map@GPAVZONETABLE_INFO@@U?$less@G@_STL@@V?$allocator@U?$pair@$$CBGPAVZONETABLE_INFO@@@_STL@@@3@@_STL@@QAE?AU?$_Rb_tree_iterator@U?$pair@$$CBGPAVZONETABLE_INFO@@@_STL@@U?$_Nonconst_traits@U?$pair@$$CBGPAVZONETABLE_INFO@@@_STL@@@2@@2@XZ ENDP ; _STL::map<unsigned short,ZONETABLE_INFO *,_STL::less<unsigned short>,_STL::allocator<_STL::pair<unsigned short const ,ZONETABLE_INFO *> > >::end
_TEXT	ENDS
PUBLIC	??E?$_List_iterator@GU?$_Nonconst_traits@G@_STL@@@_STL@@QAE?AU01@H@Z ; _STL::_List_iterator<unsigned short,_STL::_Nonconst_traits<unsigned short> >::operator++
; Function compile flags: /Ogsy
; File c:\stlport-4.6.1\stlport\stl\_list.h
;	COMDAT ??E?$_List_iterator@GU?$_Nonconst_traits@G@_STL@@@_STL@@QAE?AU01@H@Z
_TEXT	SEGMENT
___$ReturnUdt$ = 8					; size = 4
___formal$ = 12						; size = 4
??E?$_List_iterator@GU?$_Nonconst_traits@G@_STL@@@_STL@@QAE?AU01@H@Z PROC NEAR ; _STL::_List_iterator<unsigned short,_STL::_Nonconst_traits<unsigned short> >::operator++, COMDAT
; _this$ = ecx

; 139  :     _Self __tmp = *this;

  00000	8b 11		 mov	 edx, DWORD PTR [ecx]

; 140  :     this->_M_incr();

  00002	8b 02		 mov	 eax, DWORD PTR [edx]
  00004	89 01		 mov	 DWORD PTR [ecx], eax

; 141  :     return __tmp;

  00006	8b 44 24 04	 mov	 eax, DWORD PTR ___$ReturnUdt$[esp-4]
  0000a	89 10		 mov	 DWORD PTR [eax], edx

; 142  :   }

  0000c	c2 08 00	 ret	 8
??E?$_List_iterator@GU?$_Nonconst_traits@G@_STL@@@_STL@@QAE?AU01@H@Z ENDP ; _STL::_List_iterator<unsigned short,_STL::_Nonconst_traits<unsigned short> >::operator++
_TEXT	ENDS
PUBLIC	?end@?$list@GV?$allocator@G@_STL@@@_STL@@QBE?AU?$_List_iterator@GU?$_Const_traits@G@_STL@@@2@XZ ; _STL::list<unsigned short,_STL::allocator<unsigned short> >::end
; Function compile flags: /Ogsy
;	COMDAT ?end@?$list@GV?$allocator@G@_STL@@@_STL@@QBE?AU?$_List_iterator@GU?$_Const_traits@G@_STL@@@2@XZ
_TEXT	SEGMENT
___$ReturnUdt$ = 8					; size = 4
?end@?$list@GV?$allocator@G@_STL@@@_STL@@QBE?AU?$_List_iterator@GU?$_Const_traits@G@_STL@@@2@XZ PROC NEAR ; _STL::list<unsigned short,_STL::allocator<unsigned short> >::end, COMDAT
; _this$ = ecx

; 270  :   const_iterator end() const { return this->_M_node._M_data; }

  00000	8b 09		 mov	 ecx, DWORD PTR [ecx]
  00002	8b 44 24 04	 mov	 eax, DWORD PTR ___$ReturnUdt$[esp-4]
  00006	89 08		 mov	 DWORD PTR [eax], ecx
  00008	c2 04 00	 ret	 4
?end@?$list@GV?$allocator@G@_STL@@@_STL@@QBE?AU?$_List_iterator@GU?$_Const_traits@G@_STL@@@2@XZ ENDP ; _STL::list<unsigned short,_STL::allocator<unsigned short> >::end
_TEXT	ENDS
PUBLIC	??0?$_List_base@GV?$allocator@G@_STL@@@_STL@@QAE@ABV?$allocator@G@1@@Z ; _STL::_List_base<unsigned short,_STL::allocator<unsigned short> >::_List_base<unsigned short,_STL::allocator<unsigned short> >
; Function compile flags: /Ogsy
;	COMDAT ??0?$_List_base@GV?$allocator@G@_STL@@@_STL@@QAE@ABV?$allocator@G@1@@Z
_TEXT	SEGMENT
$T104895 = -1						; size = 1
___a$ = 8						; size = 4
??0?$_List_base@GV?$allocator@G@_STL@@@_STL@@QAE@ABV?$allocator@G@1@@Z PROC NEAR ; _STL::_List_base<unsigned short,_STL::allocator<unsigned short> >::_List_base<unsigned short,_STL::allocator<unsigned short> >, COMDAT
; _this$ = ecx

; 182  :   _List_base(const allocator_type& __a) : _M_node(_STLP_CONVERT_ALLOCATOR(__a, _Node), (_Node*)0) {

  00000	51		 push	 ecx
  00001	56		 push	 esi
  00002	6a 00		 push	 0
  00004	8d 44 24 0b	 lea	 eax, DWORD PTR $T104895[esp+12]
  00008	50		 push	 eax
  00009	8b f1		 mov	 esi, ecx
  0000b	e8 00 00 00 00	 call	 ??0?$_STLP_alloc_proxy@PAU?$_List_node@G@_STL@@U12@V?$allocator@U?$_List_node@G@_STL@@@2@@_STL@@QAE@ABV?$allocator@U?$_List_node@G@_STL@@@1@PAU?$_List_node@G@1@@Z ; _STL::_STLP_alloc_proxy<_STL::_List_node<unsigned short> *,_STL::_List_node<unsigned short>,_STL::allocator<_STL::_List_node<unsigned short> > >::_STLP_alloc_proxy<_STL::_List_node<unsigned short> *,_STL::_List_node<unsigned short>,_STL::allocator<_STL::_List_node<unsigned short> > >

; 183  :     _Node* __n = _M_node.allocate(1);

  00010	6a 0c		 push	 12			; 0000000cH
  00012	e8 00 00 00 00	 call	 ?allocate@?$__node_alloc@$00$0A@@_STL@@SAPAXI@Z ; _STL::__node_alloc<1,0>::allocate

; 184  :     __n->_M_next = __n;

  00017	89 00		 mov	 DWORD PTR [eax], eax

; 185  :     __n->_M_prev = __n;

  00019	89 40 04	 mov	 DWORD PTR [eax+4], eax

; 186  :     _M_node._M_data = __n;

  0001c	89 06		 mov	 DWORD PTR [esi], eax
  0001e	59		 pop	 ecx

; 187  :   }

  0001f	8b c6		 mov	 eax, esi
  00021	5e		 pop	 esi
  00022	59		 pop	 ecx
  00023	c2 04 00	 ret	 4
??0?$_List_base@GV?$allocator@G@_STL@@@_STL@@QAE@ABV?$allocator@G@1@@Z ENDP ; _STL::_List_base<unsigned short,_STL::allocator<unsigned short> >::_List_base<unsigned short,_STL::allocator<unsigned short> >
_TEXT	ENDS
PUBLIC	??1?$_List_base@GV?$allocator@G@_STL@@@_STL@@QAE@XZ ; _STL::_List_base<unsigned short,_STL::allocator<unsigned short> >::~_List_base<unsigned short,_STL::allocator<unsigned short> >
; Function compile flags: /Ogsy
;	COMDAT ??1?$_List_base@GV?$allocator@G@_STL@@@_STL@@QAE@XZ
_TEXT	SEGMENT
??1?$_List_base@GV?$allocator@G@_STL@@@_STL@@QAE@XZ PROC NEAR ; _STL::_List_base<unsigned short,_STL::allocator<unsigned short> >::~_List_base<unsigned short,_STL::allocator<unsigned short> >, COMDAT
; _this$ = ecx

; 188  :   ~_List_base() {

  00000	56		 push	 esi
  00001	8b f1		 mov	 esi, ecx

; 189  :     clear();

  00003	e8 00 00 00 00	 call	 ?clear@?$_List_base@GV?$allocator@G@_STL@@@_STL@@QAEXXZ ; _STL::_List_base<unsigned short,_STL::allocator<unsigned short> >::clear

; 190  :     _M_node.deallocate(_M_node._M_data, 1);

  00008	6a 01		 push	 1
  0000a	ff 36		 push	 DWORD PTR [esi]
  0000c	8b ce		 mov	 ecx, esi
  0000e	e8 00 00 00 00	 call	 ?deallocate@?$allocator@U?$_List_node@G@_STL@@@_STL@@QAEXPAU?$_List_node@G@2@I@Z ; _STL::allocator<_STL::_List_node<unsigned short> >::deallocate
  00013	5e		 pop	 esi

; 191  :   }

  00014	c3		 ret	 0
??1?$_List_base@GV?$allocator@G@_STL@@@_STL@@QAE@XZ ENDP ; _STL::_List_base<unsigned short,_STL::allocator<unsigned short> >::~_List_base<unsigned short,_STL::allocator<unsigned short> >
_TEXT	ENDS
PUBLIC	??0?$_Vector_base@VMString@@V?$allocator@VMString@@@_STL@@@_STL@@QAE@ABV?$allocator@VMString@@@1@@Z ; _STL::_Vector_base<MString,_STL::allocator<MString> >::_Vector_base<MString,_STL::allocator<MString> >
; Function compile flags: /Ogsy
; File c:\stlport-4.6.1\stlport\stl\_vector.h
;	COMDAT ??0?$_Vector_base@VMString@@V?$allocator@VMString@@@_STL@@@_STL@@QAE@ABV?$allocator@VMString@@@1@@Z
_TEXT	SEGMENT
___a$ = 8						; size = 4
??0?$_Vector_base@VMString@@V?$allocator@VMString@@@_STL@@@_STL@@QAE@ABV?$allocator@VMString@@@1@@Z PROC NEAR ; _STL::_Vector_base<MString,_STL::allocator<MString> >::_Vector_base<MString,_STL::allocator<MString> >, COMDAT
; _this$ = ecx

; 72   :     : _M_start(0), _M_finish(0), _M_end_of_storage(__a, 0) {

  00000	56		 push	 esi
  00001	33 c0		 xor	 eax, eax
  00003	8b f1		 mov	 esi, ecx
  00005	50		 push	 eax
  00006	ff 74 24 0c	 push	 DWORD PTR ___a$[esp+4]
  0000a	8d 4e 08	 lea	 ecx, DWORD PTR [esi+8]
  0000d	89 06		 mov	 DWORD PTR [esi], eax
  0000f	89 46 04	 mov	 DWORD PTR [esi+4], eax
  00012	e8 00 00 00 00	 call	 ??0?$_STLP_alloc_proxy@PAVMString@@V1@V?$allocator@VMString@@@_STL@@@_STL@@QAE@ABV?$allocator@VMString@@@1@PAVMString@@@Z ; _STL::_STLP_alloc_proxy<MString *,MString,_STL::allocator<MString> >::_STLP_alloc_proxy<MString *,MString,_STL::allocator<MString> >

; 73   :   }

  00017	8b c6		 mov	 eax, esi
  00019	5e		 pop	 esi
  0001a	c2 04 00	 ret	 4
??0?$_Vector_base@VMString@@V?$allocator@VMString@@@_STL@@@_STL@@QAE@ABV?$allocator@VMString@@@1@@Z ENDP ; _STL::_Vector_base<MString,_STL::allocator<MString> >::_Vector_base<MString,_STL::allocator<MString> >
_TEXT	ENDS
PUBLIC	??1?$_Vector_base@VMString@@V?$allocator@VMString@@@_STL@@@_STL@@QAE@XZ ; _STL::_Vector_base<MString,_STL::allocator<MString> >::~_Vector_base<MString,_STL::allocator<MString> >
; Function compile flags: /Ogsy
;	COMDAT ??1?$_Vector_base@VMString@@V?$allocator@VMString@@@_STL@@@_STL@@QAE@XZ
_TEXT	SEGMENT
??1?$_Vector_base@VMString@@V?$allocator@VMString@@@_STL@@@_STL@@QAE@XZ PROC NEAR ; _STL::_Vector_base<MString,_STL::allocator<MString> >::~_Vector_base<MString,_STL::allocator<MString> >, COMDAT
; _this$ = ecx

; 83   :   ~_Vector_base() { 

  00000	56		 push	 esi

; 84   :     if (_M_start !=0) 

  00001	8b 31		 mov	 esi, DWORD PTR [ecx]
  00003	85 f6		 test	 esi, esi
  00005	74 16		 je	 SHORT $L102740
  00007	57		 push	 edi

; 85   :     _M_end_of_storage.deallocate(_M_start, _M_end_of_storage._M_data - _M_start); 

  00008	83 c1 08	 add	 ecx, 8
  0000b	8b 01		 mov	 eax, DWORD PTR [ecx]
  0000d	2b c6		 sub	 eax, esi
  0000f	6a 0c		 push	 12			; 0000000cH
  00011	5f		 pop	 edi
  00012	99		 cdq
  00013	f7 ff		 idiv	 edi
  00015	50		 push	 eax
  00016	56		 push	 esi
  00017	e8 00 00 00 00	 call	 ?deallocate@?$allocator@VMString@@@_STL@@QAEXPAVMString@@I@Z ; _STL::allocator<MString>::deallocate
  0001c	5f		 pop	 edi
$L102740:
  0001d	5e		 pop	 esi

; 86   :   }

  0001e	c3		 ret	 0
??1?$_Vector_base@VMString@@V?$allocator@VMString@@@_STL@@@_STL@@QAE@XZ ENDP ; _STL::_Vector_base<MString,_STL::allocator<MString> >::~_Vector_base<MString,_STL::allocator<MString> >
_TEXT	ENDS
PUBLIC	?clear@?$_Rb_tree@GU?$pair@$$CBGPAVZONETABLE_INFO@@@_STL@@U?$_Select1st@U?$pair@$$CBGPAVZONETABLE_INFO@@@_STL@@@2@U?$less@G@2@V?$allocator@U?$pair@$$CBGPAVZONETABLE_INFO@@@_STL@@@2@@_STL@@QAEXXZ ; _STL::_Rb_tree<unsigned short,_STL::pair<unsigned short const ,ZONETABLE_INFO *>,_STL::_Select1st<_STL::pair<unsigned short const ,ZONETABLE_INFO *> >,_STL::less<unsigned short>,_STL::allocator<_STL::pair<unsigned short const ,ZONETABLE_INFO *> > >::clear
; Function compile flags: /Ogsy
; File c:\stlport-4.6.1\stlport\stl\_tree.h
;	COMDAT ?clear@?$_Rb_tree@GU?$pair@$$CBGPAVZONETABLE_INFO@@@_STL@@U?$_Select1st@U?$pair@$$CBGPAVZONETABLE_INFO@@@_STL@@@2@U?$less@G@2@V?$allocator@U?$pair@$$CBGPAVZONETABLE_INFO@@@_STL@@@2@@_STL@@QAEXXZ
_TEXT	SEGMENT
?clear@?$_Rb_tree@GU?$pair@$$CBGPAVZONETABLE_INFO@@@_STL@@U?$_Select1st@U?$pair@$$CBGPAVZONETABLE_INFO@@@_STL@@@2@U?$less@G@2@V?$allocator@U?$pair@$$CBGPAVZONETABLE_INFO@@@_STL@@@2@@_STL@@QAEXXZ PROC NEAR ; _STL::_Rb_tree<unsigned short,_STL::pair<unsigned short const ,ZONETABLE_INFO *>,_STL::_Select1st<_STL::pair<unsigned short const ,ZONETABLE_INFO *> >,_STL::less<unsigned short>,_STL::allocator<_STL::pair<unsigned short const ,ZONETABLE_INFO *> > >::clear, COMDAT
; _this$ = ecx

; 445  :   void clear() {

  00000	56		 push	 esi
  00001	8b f1		 mov	 esi, ecx

; 446  :     if (_M_node_count != 0) {

  00003	83 7e 04 00	 cmp	 DWORD PTR [esi+4], 0
  00007	74 1e		 je	 SHORT $L102755

; 447  :       _M_erase(_M_root());

  00009	8b 06		 mov	 eax, DWORD PTR [esi]
  0000b	ff 70 04	 push	 DWORD PTR [eax+4]
  0000e	e8 00 00 00 00	 call	 ?_M_erase@?$_Rb_tree@GU?$pair@$$CBGPAVZONETABLE_INFO@@@_STL@@U?$_Select1st@U?$pair@$$CBGPAVZONETABLE_INFO@@@_STL@@@2@U?$less@G@2@V?$allocator@U?$pair@$$CBGPAVZONETABLE_INFO@@@_STL@@@2@@_STL@@AAEXPAU?$_Rb_tree_node@U?$pair@$$CBGPAVZONETABLE_INFO@@@_STL@@@2@@Z ; _STL::_Rb_tree<unsigned short,_STL::pair<unsigned short const ,ZONETABLE_INFO *>,_STL::_Select1st<_STL::pair<unsigned short const ,ZONETABLE_INFO *> >,_STL::less<unsigned short>,_STL::allocator<_STL::pair<unsigned short const ,ZONETABLE_INFO *> > >::_M_erase

; 448  :       _M_leftmost() = this->_M_header._M_data;

  00013	8b 06		 mov	 eax, DWORD PTR [esi]
  00015	89 40 08	 mov	 DWORD PTR [eax+8], eax

; 449  :       _M_root() = 0;

  00018	8b 06		 mov	 eax, DWORD PTR [esi]
  0001a	83 60 04 00	 and	 DWORD PTR [eax+4], 0

; 450  :       _M_rightmost() = this->_M_header._M_data;

  0001e	8b 06		 mov	 eax, DWORD PTR [esi]
  00020	89 40 0c	 mov	 DWORD PTR [eax+12], eax

; 451  :       _M_node_count = 0;

  00023	83 66 04 00	 and	 DWORD PTR [esi+4], 0
$L102755:
  00027	5e		 pop	 esi

; 452  :     }
; 453  :   }      

  00028	c3		 ret	 0
?clear@?$_Rb_tree@GU?$pair@$$CBGPAVZONETABLE_INFO@@@_STL@@U?$_Select1st@U?$pair@$$CBGPAVZONETABLE_INFO@@@_STL@@@2@U?$less@G@2@V?$allocator@U?$pair@$$CBGPAVZONETABLE_INFO@@@_STL@@@2@@_STL@@QAEXXZ ENDP ; _STL::_Rb_tree<unsigned short,_STL::pair<unsigned short const ,ZONETABLE_INFO *>,_STL::_Select1st<_STL::pair<unsigned short const ,ZONETABLE_INFO *> >,_STL::less<unsigned short>,_STL::allocator<_STL::pair<unsigned short const ,ZONETABLE_INFO *> > >::clear
_TEXT	ENDS
PUBLIC	??1?$_Rb_tree_base@U?$pair@$$CBGPAVZONETABLE_INFO@@@_STL@@V?$allocator@U?$pair@$$CBGPAVZONETABLE_INFO@@@_STL@@@2@@_STL@@QAE@XZ ; _STL::_Rb_tree_base<_STL::pair<unsigned short const ,ZONETABLE_INFO *>,_STL::allocator<_STL::pair<unsigned short const ,ZONETABLE_INFO *> > >::~_Rb_tree_base<_STL::pair<unsigned short const ,ZONETABLE_INFO *>,_STL::allocator<_STL::pair<unsigned short const ,ZONETABLE_INFO *> > >
; Function compile flags: /Ogsy
;	COMDAT ??1?$_Rb_tree_base@U?$pair@$$CBGPAVZONETABLE_INFO@@@_STL@@V?$allocator@U?$pair@$$CBGPAVZONETABLE_INFO@@@_STL@@@2@@_STL@@QAE@XZ
_TEXT	SEGMENT
??1?$_Rb_tree_base@U?$pair@$$CBGPAVZONETABLE_INFO@@@_STL@@V?$allocator@U?$pair@$$CBGPAVZONETABLE_INFO@@@_STL@@@2@@_STL@@QAE@XZ PROC NEAR ; _STL::_Rb_tree_base<_STL::pair<unsigned short const ,ZONETABLE_INFO *>,_STL::allocator<_STL::pair<unsigned short const ,ZONETABLE_INFO *> > >::~_Rb_tree_base<_STL::pair<unsigned short const ,ZONETABLE_INFO *>,_STL::allocator<_STL::pair<unsigned short const ,ZONETABLE_INFO *> > >, COMDAT
; _this$ = ecx

; 208  :     _M_header.deallocate(_M_header._M_data,1); 

  00000	6a 01		 push	 1
  00002	ff 31		 push	 DWORD PTR [ecx]
  00004	e8 00 00 00 00	 call	 ?deallocate@?$allocator@U?$_Rb_tree_node@U?$pair@$$CBGPAVZONETABLE_INFO@@@_STL@@@_STL@@@_STL@@QAEXPAU?$_Rb_tree_node@U?$pair@$$CBGPAVZONETABLE_INFO@@@_STL@@@2@I@Z ; _STL::allocator<_STL::_Rb_tree_node<_STL::pair<unsigned short const ,ZONETABLE_INFO *> > >::deallocate

; 209  :   }

  00009	c3		 ret	 0
??1?$_Rb_tree_base@U?$pair@$$CBGPAVZONETABLE_INFO@@@_STL@@V?$allocator@U?$pair@$$CBGPAVZONETABLE_INFO@@@_STL@@@2@@_STL@@QAE@XZ ENDP ; _STL::_Rb_tree_base<_STL::pair<unsigned short const ,ZONETABLE_INFO *>,_STL::allocator<_STL::pair<unsigned short const ,ZONETABLE_INFO *> > >::~_Rb_tree_base<_STL::pair<unsigned short const ,ZONETABLE_INFO *>,_STL::allocator<_STL::pair<unsigned short const ,ZONETABLE_INFO *> > >
_TEXT	ENDS
PUBLIC	?_M_create_node@?$list@GV?$allocator@G@_STL@@@_STL@@IAEPAU?$_List_node@G@2@ABG@Z ; _STL::list<unsigned short,_STL::allocator<unsigned short> >::_M_create_node
; Function compile flags: /Ogsy
; File c:\stlport-4.6.1\stlport\stl\_list.h
;	COMDAT ?_M_create_node@?$list@GV?$allocator@G@_STL@@@_STL@@IAEPAU?$_List_node@G@2@ABG@Z
_TEXT	SEGMENT
___x$ = 8						; size = 4
?_M_create_node@?$list@GV?$allocator@G@_STL@@@_STL@@IAEPAU?$_List_node@G@2@ABG@Z PROC NEAR ; _STL::list<unsigned short,_STL::allocator<unsigned short> >::_M_create_node, COMDAT
; _this$ = ecx

; 241  :     _Node* __p = this->_M_node.allocate(1);

  00000	6a 0c		 push	 12			; 0000000cH
  00002	e8 00 00 00 00	 call	 ?allocate@?$__node_alloc@$00$0A@@_STL@@SAPAXI@Z ; _STL::__node_alloc<1,0>::allocate
  00007	59		 pop	 ecx

; 242  :     _STLP_TRY {
; 243  :       _Construct(&__p->_M_data, __x);

  00008	8d 48 08	 lea	 ecx, DWORD PTR [eax+8]
  0000b	85 c9		 test	 ecx, ecx
  0000d	74 0a		 je	 SHORT $L104954
  0000f	8b 54 24 04	 mov	 edx, DWORD PTR ___x$[esp-4]
  00013	66 8b 12	 mov	 dx, WORD PTR [edx]
  00016	66 89 11	 mov	 WORD PTR [ecx], dx
$L104954:

; 244  :     }
; 245  :     _STLP_UNWIND(this->_M_node.deallocate(__p, 1));
; 246  :     return __p;
; 247  :   }

  00019	c2 04 00	 ret	 4
?_M_create_node@?$list@GV?$allocator@G@_STL@@@_STL@@IAEPAU?$_List_node@G@2@ABG@Z ENDP ; _STL::list<unsigned short,_STL::allocator<unsigned short> >::_M_create_node
_TEXT	ENDS
PUBLIC	??0?$_Rb_tree_base@U?$pair@$$CBGPAVZONETABLE_INFO@@@_STL@@V?$allocator@U?$pair@$$CBGPAVZONETABLE_INFO@@@_STL@@@2@@_STL@@QAE@ABV?$allocator@U?$pair@$$CBGPAVZONETABLE_INFO@@@_STL@@@1@@Z ; _STL::_Rb_tree_base<_STL::pair<unsigned short const ,ZONETABLE_INFO *>,_STL::allocator<_STL::pair<unsigned short const ,ZONETABLE_INFO *> > >::_Rb_tree_base<_STL::pair<unsigned short const ,ZONETABLE_INFO *>,_STL::allocator<_STL::pair<unsigned short const ,ZONETABLE_INFO *> > >
; Function compile flags: /Ogsy
; File c:\stlport-4.6.1\stlport\stl\_tree.h
;	COMDAT ??0?$_Rb_tree_base@U?$pair@$$CBGPAVZONETABLE_INFO@@@_STL@@V?$allocator@U?$pair@$$CBGPAVZONETABLE_INFO@@@_STL@@@2@@_STL@@QAE@ABV?$allocator@U?$pair@$$CBGPAVZONETABLE_INFO@@@_STL@@@1@@Z
_TEXT	SEGMENT
$T104964 = -1						; size = 1
___a$ = 8						; size = 4
??0?$_Rb_tree_base@U?$pair@$$CBGPAVZONETABLE_INFO@@@_STL@@V?$allocator@U?$pair@$$CBGPAVZONETABLE_INFO@@@_STL@@@2@@_STL@@QAE@ABV?$allocator@U?$pair@$$CBGPAVZONETABLE_INFO@@@_STL@@@1@@Z PROC NEAR ; _STL::_Rb_tree_base<_STL::pair<unsigned short const ,ZONETABLE_INFO *>,_STL::allocator<_STL::pair<unsigned short const ,ZONETABLE_INFO *> > >::_Rb_tree_base<_STL::pair<unsigned short const ,ZONETABLE_INFO *>,_STL::allocator<_STL::pair<unsigned short const ,ZONETABLE_INFO *> > >, COMDAT
; _this$ = ecx

; 204  :     _M_header(_STLP_CONVERT_ALLOCATOR(__a, _Node), (_Node*)0) { 

  00000	51		 push	 ecx
  00001	56		 push	 esi
  00002	6a 00		 push	 0
  00004	8d 44 24 0b	 lea	 eax, DWORD PTR $T104964[esp+12]
  00008	50		 push	 eax
  00009	8b f1		 mov	 esi, ecx
  0000b	e8 00 00 00 00	 call	 ??0?$_STLP_alloc_proxy@PAU?$_Rb_tree_node@U?$pair@$$CBGPAVZONETABLE_INFO@@@_STL@@@_STL@@U12@V?$allocator@U?$_Rb_tree_node@U?$pair@$$CBGPAVZONETABLE_INFO@@@_STL@@@_STL@@@2@@_STL@@QAE@ABV?$allocator@U?$_Rb_tree_node@U?$pair@$$CBGPAVZONETABLE_INFO@@@_STL@@@_STL@@@1@PAU?$_Rb_tree_node@U?$pair@$$CBGPAVZONETABLE_INFO@@@_STL@@@1@@Z ; _STL::_STLP_alloc_proxy<_STL::_Rb_tree_node<_STL::pair<unsigned short const ,ZONETABLE_INFO *> > *,_STL::_Rb_tree_node<_STL::pair<unsigned short const ,ZONETABLE_INFO *> >,_STL::allocator<_STL::_Rb_tree_node<_STL::pair<unsigned short const ,ZONETABLE_INFO *> > > >::_STLP_alloc_proxy<_STL::_Rb_tree_node<_STL::pair<unsigned short const ,ZONETABLE_INFO *> > *,_STL::_Rb_tree_node<_STL::pair<unsigned short const ,ZONETABLE_INFO *> >,_STL::allocator<_STL::_Rb_tree_node<_STL::pair<unsigned short const ,ZONETABLE_INFO *> > > >

; 205  :       _M_header._M_data = _M_header.allocate(1); 

  00010	6a 18		 push	 24			; 00000018H
  00012	e8 00 00 00 00	 call	 ?allocate@?$__node_alloc@$00$0A@@_STL@@SAPAXI@Z ; _STL::__node_alloc<1,0>::allocate
  00017	89 06		 mov	 DWORD PTR [esi], eax
  00019	59		 pop	 ecx

; 206  :   }

  0001a	8b c6		 mov	 eax, esi
  0001c	5e		 pop	 esi
  0001d	59		 pop	 ecx
  0001e	c2 04 00	 ret	 4
??0?$_Rb_tree_base@U?$pair@$$CBGPAVZONETABLE_INFO@@@_STL@@V?$allocator@U?$pair@$$CBGPAVZONETABLE_INFO@@@_STL@@@2@@_STL@@QAE@ABV?$allocator@U?$pair@$$CBGPAVZONETABLE_INFO@@@_STL@@@1@@Z ENDP ; _STL::_Rb_tree_base<_STL::pair<unsigned short const ,ZONETABLE_INFO *>,_STL::allocator<_STL::pair<unsigned short const ,ZONETABLE_INFO *> > >::_Rb_tree_base<_STL::pair<unsigned short const ,ZONETABLE_INFO *>,_STL::allocator<_STL::pair<unsigned short const ,ZONETABLE_INFO *> > >
_TEXT	ENDS
PUBLIC	??$find@G@?$_Rb_tree@GU?$pair@$$CBGPAVZONETABLE_INFO@@@_STL@@U?$_Select1st@U?$pair@$$CBGPAVZONETABLE_INFO@@@_STL@@@2@U?$less@G@2@V?$allocator@U?$pair@$$CBGPAVZONETABLE_INFO@@@_STL@@@2@@_STL@@QAE?AU?$_Rb_tree_iterator@U?$pair@$$CBGPAVZONETABLE_INFO@@@_STL@@U?$_Nonconst_traits@U?$pair@$$CBGPAVZONETABLE_INFO@@@_STL@@@2@@1@ABG@Z ; _STL::_Rb_tree<unsigned short,_STL::pair<unsigned short const ,ZONETABLE_INFO *>,_STL::_Select1st<_STL::pair<unsigned short const ,ZONETABLE_INFO *> >,_STL::less<unsigned short>,_STL::allocator<_STL::pair<unsigned short const ,ZONETABLE_INFO *> > >::find<unsigned short>
; Function compile flags: /Ogsy
;	COMDAT ??$find@G@?$_Rb_tree@GU?$pair@$$CBGPAVZONETABLE_INFO@@@_STL@@U?$_Select1st@U?$pair@$$CBGPAVZONETABLE_INFO@@@_STL@@@2@U?$less@G@2@V?$allocator@U?$pair@$$CBGPAVZONETABLE_INFO@@@_STL@@@2@@_STL@@QAE?AU?$_Rb_tree_iterator@U?$pair@$$CBGPAVZONETABLE_INFO@@@_STL@@U?$_Nonconst_traits@U?$pair@$$CBGPAVZONETABLE_INFO@@@_STL@@@2@@1@ABG@Z
_TEXT	SEGMENT
___$ReturnUdt$ = 8					; size = 4
___x$ = 12						; size = 4
??$find@G@?$_Rb_tree@GU?$pair@$$CBGPAVZONETABLE_INFO@@@_STL@@U?$_Select1st@U?$pair@$$CBGPAVZONETABLE_INFO@@@_STL@@@2@U?$less@G@2@V?$allocator@U?$pair@$$CBGPAVZONETABLE_INFO@@@_STL@@@2@@_STL@@QAE?AU?$_Rb_tree_iterator@U?$pair@$$CBGPAVZONETABLE_INFO@@@_STL@@U?$_Nonconst_traits@U?$pair@$$CBGPAVZONETABLE_INFO@@@_STL@@@2@@1@ABG@Z PROC NEAR ; _STL::_Rb_tree<unsigned short,_STL::pair<unsigned short const ,ZONETABLE_INFO *>,_STL::_Select1st<_STL::pair<unsigned short const ,ZONETABLE_INFO *> >,_STL::less<unsigned short>,_STL::allocator<_STL::pair<unsigned short const ,ZONETABLE_INFO *> > >::find<unsigned short>, COMDAT
; _this$ = ecx

; 458  :   template <class _KT> iterator find(const _KT& __x) { return iterator(_M_find(__x)); }

  00000	ff 74 24 08	 push	 DWORD PTR ___x$[esp-4]
  00004	e8 00 00 00 00	 call	 ??$_M_find@G@?$_Rb_tree@GU?$pair@$$CBGPAVZONETABLE_INFO@@@_STL@@U?$_Select1st@U?$pair@$$CBGPAVZONETABLE_INFO@@@_STL@@@2@U?$less@G@2@V?$allocator@U?$pair@$$CBGPAVZONETABLE_INFO@@@_STL@@@2@@_STL@@ABEPAU?$_Rb_tree_node@U?$pair@$$CBGPAVZONETABLE_INFO@@@_STL@@@1@ABG@Z ; _STL::_Rb_tree<unsigned short,_STL::pair<unsigned short const ,ZONETABLE_INFO *>,_STL::_Select1st<_STL::pair<unsigned short const ,ZONETABLE_INFO *> >,_STL::less<unsigned short>,_STL::allocator<_STL::pair<unsigned short const ,ZONETABLE_INFO *> > >::_M_find<unsigned short>
  00009	8b 4c 24 04	 mov	 ecx, DWORD PTR ___$ReturnUdt$[esp-4]
  0000d	89 01		 mov	 DWORD PTR [ecx], eax
  0000f	8b c1		 mov	 eax, ecx
  00011	c2 08 00	 ret	 8
??$find@G@?$_Rb_tree@GU?$pair@$$CBGPAVZONETABLE_INFO@@@_STL@@U?$_Select1st@U?$pair@$$CBGPAVZONETABLE_INFO@@@_STL@@@2@U?$less@G@2@V?$allocator@U?$pair@$$CBGPAVZONETABLE_INFO@@@_STL@@@2@@_STL@@QAE?AU?$_Rb_tree_iterator@U?$pair@$$CBGPAVZONETABLE_INFO@@@_STL@@U?$_Nonconst_traits@U?$pair@$$CBGPAVZONETABLE_INFO@@@_STL@@@2@@1@ABG@Z ENDP ; _STL::_Rb_tree<unsigned short,_STL::pair<unsigned short const ,ZONETABLE_INFO *>,_STL::_Select1st<_STL::pair<unsigned short const ,ZONETABLE_INFO *> >,_STL::less<unsigned short>,_STL::allocator<_STL::pair<unsigned short const ,ZONETABLE_INFO *> > >::find<unsigned short>
_TEXT	ENDS
PUBLIC	??0sentry@?$basic_ostream@DV?$char_traits@D@_STL@@@_STL@@QAE@AAV12@@Z ; _STL::basic_ostream<char,_STL::char_traits<char> >::sentry::sentry
; Function compile flags: /Ogsy
; File c:\stlport-4.6.1\stlport\stl\_ostream.h
;	COMDAT ??0sentry@?$basic_ostream@DV?$char_traits@D@_STL@@@_STL@@QAE@AAV12@@Z
_TEXT	SEGMENT
___str$ = 8						; size = 4
??0sentry@?$basic_ostream@DV?$char_traits@D@_STL@@@_STL@@QAE@AAV12@@Z PROC NEAR ; _STL::basic_ostream<char,_STL::char_traits<char> >::sentry::sentry, COMDAT
; _this$ = ecx

; 165  :       {

  00000	8b 44 24 04	 mov	 eax, DWORD PTR ___str$[esp-4]
  00004	56		 push	 esi
  00005	8b f1		 mov	 esi, ecx
  00007	50		 push	 eax
  00008	89 06		 mov	 DWORD PTR [esi], eax
  0000a	e8 00 00 00 00	 call	 ??$_M_init@DV?$char_traits@D@_STL@@@_STL@@YA_NAAV?$basic_ostream@DV?$char_traits@D@_STL@@@0@@Z ; _STL::_M_init<char,_STL::char_traits<char> >
  0000f	88 46 04	 mov	 BYTE PTR [esi+4], al
  00012	59		 pop	 ecx

; 166  :       }

  00013	8b c6		 mov	 eax, esi
  00015	5e		 pop	 esi
  00016	c2 04 00	 ret	 4
??0sentry@?$basic_ostream@DV?$char_traits@D@_STL@@@_STL@@QAE@AAV12@@Z ENDP ; _STL::basic_ostream<char,_STL::char_traits<char> >::sentry::sentry
_TEXT	ENDS
PUBLIC	??1sentry@?$basic_ostream@DV?$char_traits@D@_STL@@@_STL@@QAE@XZ ; _STL::basic_ostream<char,_STL::char_traits<char> >::sentry::~sentry
; Function compile flags: /Ogsy
;	COMDAT ??1sentry@?$basic_ostream@DV?$char_traits@D@_STL@@@_STL@@QAE@XZ
_TEXT	SEGMENT
??1sentry@?$basic_ostream@DV?$char_traits@D@_STL@@@_STL@@QAE@XZ PROC NEAR ; _STL::basic_ostream<char,_STL::char_traits<char> >::sentry::~sentry, COMDAT
; _this$ = ecx

; 169  :         if (_M_str.flags() & ios_base::unitbuf)

  00000	8b 09		 mov	 ecx, DWORD PTR [ecx]
  00002	8b 01		 mov	 eax, DWORD PTR [ecx]
  00004	8b 40 04	 mov	 eax, DWORD PTR [eax+4]
  00007	f6 44 08 05 20	 test	 BYTE PTR [eax+ecx+5], 32 ; 00000020H
  0000c	74 05		 je	 SHORT $L103295

; 170  : # ifndef _STLP_INCOMPLETE_EXCEPTION_HEADER 
; 171  :           if (!_STLP_VENDOR_EXCEPT_STD::uncaught_exception())
; 172  : # endif
; 173  :             _M_str.flush();

  0000e	e9 00 00 00 00	 jmp	 ?flush@?$basic_ostream@DV?$char_traits@D@_STL@@@_STL@@QAEAAV12@XZ ; _STL::basic_ostream<char,_STL::char_traits<char> >::flush
$L103295:

; 174  :       }

  00013	c3		 ret	 0
??1sentry@?$basic_ostream@DV?$char_traits@D@_STL@@@_STL@@QAE@XZ ENDP ; _STL::basic_ostream<char,_STL::char_traits<char> >::sentry::~sentry
_TEXT	ENDS
PUBLIC	??$__distance@U?$_List_iterator@GU?$_Const_traits@G@_STL@@@_STL@@@_STL@@YAHABU?$_List_iterator@GU?$_Const_traits@G@_STL@@@0@0ABUinput_iterator_tag@0@@Z ; _STL::__distance<_STL::_List_iterator<unsigned short,_STL::_Const_traits<unsigned short> > >
; Function compile flags: /Ogsy
; File c:\stlport-4.6.1\stlport\stl\_iterator_base.h
;	COMDAT ??$__distance@U?$_List_iterator@GU?$_Const_traits@G@_STL@@@_STL@@@_STL@@YAHABU?$_List_iterator@GU?$_Const_traits@G@_STL@@@0@0ABUinput_iterator_tag@0@@Z
_TEXT	SEGMENT
___first$ = 8						; size = 4
___last$ = 12						; size = 4
___formal$ = 16						; size = 4
??$__distance@U?$_List_iterator@GU?$_Const_traits@G@_STL@@@_STL@@@_STL@@YAHABU?$_List_iterator@GU?$_Const_traits@G@_STL@@@0@0ABUinput_iterator_tag@0@@Z PROC NEAR ; _STL::__distance<_STL::_List_iterator<unsigned short,_STL::_Const_traits<unsigned short> > >, COMDAT

; 323  :   _STLP_DIFFERENCE_TYPE(_InputIterator) __n = 0;
; 324  :   _InputIterator __it(__first);  
; 325  :   while (__it != __last) {

  00000	8b 54 24 08	 mov	 edx, DWORD PTR ___last$[esp-4]
  00004	8b 4c 24 04	 mov	 ecx, DWORD PTR ___first$[esp-4]
  00008	8b 12		 mov	 edx, DWORD PTR [edx]
  0000a	33 c0		 xor	 eax, eax
  0000c	eb 01		 jmp	 SHORT $L105009
$L103422:

; 326  :     ++__it; ++__n;

  0000e	40		 inc	 eax
$L105009:
  0000f	8b 09		 mov	 ecx, DWORD PTR [ecx]
  00011	3b ca		 cmp	 ecx, edx
  00013	75 f9		 jne	 SHORT $L103422

; 327  :   }
; 328  :   return __n;
; 329  : }

  00015	c3		 ret	 0
??$__distance@U?$_List_iterator@GU?$_Const_traits@G@_STL@@@_STL@@@_STL@@YAHABU?$_List_iterator@GU?$_Const_traits@G@_STL@@@0@0ABUinput_iterator_tag@0@@Z ENDP ; _STL::__distance<_STL::_List_iterator<unsigned short,_STL::_Const_traits<unsigned short> > >
_TEXT	ENDS
PUBLIC	??$__destroy@PAVMString@@V1@@_STL@@YAXPAVMString@@00@Z ; _STL::__destroy<MString *,MString>
; Function compile flags: /Ogsy
; File c:\stlport-4.6.1\stlport\stl\_construct.h
;	COMDAT ??$__destroy@PAVMString@@V1@@_STL@@YAXPAVMString@@00@Z
_TEXT	SEGMENT
$T105013 = -1						; size = 1
___first$ = 8						; size = 4
___last$ = 12						; size = 4
___formal$ = 16						; size = 4
??$__destroy@PAVMString@@V1@@_STL@@YAXPAVMString@@00@Z PROC NEAR ; _STL::__destroy<MString *,MString>, COMDAT

; 132  : __destroy(_ForwardIterator __first, _ForwardIterator __last, _Tp*) {

  00000	55		 push	 ebp
  00001	8b ec		 mov	 ebp, esp
  00003	51		 push	 ecx

; 133  :   typedef typename __type_traits<_Tp>::has_trivial_destructor _Trivial_destructor;
; 134  :   __destroy_aux(__first, __last, _Trivial_destructor());

  00004	8d 45 ff	 lea	 eax, DWORD PTR $T105013[ebp]
  00007	50		 push	 eax
  00008	ff 75 0c	 push	 DWORD PTR ___last$[ebp]
  0000b	ff 75 08	 push	 DWORD PTR ___first$[ebp]
  0000e	e8 00 00 00 00	 call	 ??$__destroy_aux@PAVMString@@@_STL@@YAXPAVMString@@0ABU__false_type@0@@Z ; _STL::__destroy_aux<MString *>
  00013	83 c4 0c	 add	 esp, 12			; 0000000cH

; 135  : }

  00016	c9		 leave
  00017	c3		 ret	 0
??$__destroy@PAVMString@@V1@@_STL@@YAXPAVMString@@00@Z ENDP ; _STL::__destroy<MString *,MString>
_TEXT	ENDS
PUBLIC	?_M_create_node@?$_Rb_tree@GU?$pair@$$CBGPAVZONETABLE_INFO@@@_STL@@U?$_Select1st@U?$pair@$$CBGPAVZONETABLE_INFO@@@_STL@@@2@U?$less@G@2@V?$allocator@U?$pair@$$CBGPAVZONETABLE_INFO@@@_STL@@@2@@_STL@@IAEPAU?$_Rb_tree_node@U?$pair@$$CBGPAVZONETABLE_INFO@@@_STL@@@2@ABU?$pair@$$CBGPAVZONETABLE_INFO@@@2@@Z ; _STL::_Rb_tree<unsigned short,_STL::pair<unsigned short const ,ZONETABLE_INFO *>,_STL::_Select1st<_STL::pair<unsigned short const ,ZONETABLE_INFO *> >,_STL::less<unsigned short>,_STL::allocator<_STL::pair<unsigned short const ,ZONETABLE_INFO *> > >::_M_create_node
; Function compile flags: /Ogsy
; File c:\stlport-4.6.1\stlport\stl\_tree.h
;	COMDAT ?_M_create_node@?$_Rb_tree@GU?$pair@$$CBGPAVZONETABLE_INFO@@@_STL@@U?$_Select1st@U?$pair@$$CBGPAVZONETABLE_INFO@@@_STL@@@2@U?$less@G@2@V?$allocator@U?$pair@$$CBGPAVZONETABLE_INFO@@@_STL@@@2@@_STL@@IAEPAU?$_Rb_tree_node@U?$pair@$$CBGPAVZONETABLE_INFO@@@_STL@@@2@ABU?$pair@$$CBGPAVZONETABLE_INFO@@@2@@Z
_TEXT	SEGMENT
___x$ = 8						; size = 4
?_M_create_node@?$_Rb_tree@GU?$pair@$$CBGPAVZONETABLE_INFO@@@_STL@@U?$_Select1st@U?$pair@$$CBGPAVZONETABLE_INFO@@@_STL@@@2@U?$less@G@2@V?$allocator@U?$pair@$$CBGPAVZONETABLE_INFO@@@_STL@@@2@@_STL@@IAEPAU?$_Rb_tree_node@U?$pair@$$CBGPAVZONETABLE_INFO@@@_STL@@@2@ABU?$pair@$$CBGPAVZONETABLE_INFO@@@2@@Z PROC NEAR ; _STL::_Rb_tree<unsigned short,_STL::pair<unsigned short const ,ZONETABLE_INFO *>,_STL::_Select1st<_STL::pair<unsigned short const ,ZONETABLE_INFO *> >,_STL::less<unsigned short>,_STL::allocator<_STL::pair<unsigned short const ,ZONETABLE_INFO *> > >::_M_create_node, COMDAT
; _this$ = ecx

; 242  :   {

  00000	56		 push	 esi

; 243  :     _Link_type __tmp = this->_M_header.allocate(1);

  00001	6a 18		 push	 24			; 00000018H
  00003	e8 00 00 00 00	 call	 ?allocate@?$__node_alloc@$00$0A@@_STL@@SAPAXI@Z ; _STL::__node_alloc<1,0>::allocate

; 244  :     _STLP_TRY {
; 245  :       _Construct(&__tmp->_M_value_field, __x);

  00008	ff 74 24 0c	 push	 DWORD PTR ___x$[esp+4]
  0000c	8b f0		 mov	 esi, eax
  0000e	8d 46 10	 lea	 eax, DWORD PTR [esi+16]
  00011	50		 push	 eax
  00012	e8 00 00 00 00	 call	 ??$_Construct@U?$pair@$$CBGPAVZONETABLE_INFO@@@_STL@@U12@@_STL@@YAXPAU?$pair@$$CBGPAVZONETABLE_INFO@@@0@ABU10@@Z ; _STL::_Construct<_STL::pair<unsigned short const ,ZONETABLE_INFO *>,_STL::pair<unsigned short const ,ZONETABLE_INFO *> >
  00017	83 c4 0c	 add	 esp, 12			; 0000000cH

; 246  :     }
; 247  :     _STLP_UNWIND(this->_M_header.deallocate(__tmp,1));
; 248  :     return __tmp;

  0001a	8b c6		 mov	 eax, esi
  0001c	5e		 pop	 esi

; 249  :   }

  0001d	c2 04 00	 ret	 4
?_M_create_node@?$_Rb_tree@GU?$pair@$$CBGPAVZONETABLE_INFO@@@_STL@@U?$_Select1st@U?$pair@$$CBGPAVZONETABLE_INFO@@@_STL@@@2@U?$less@G@2@V?$allocator@U?$pair@$$CBGPAVZONETABLE_INFO@@@_STL@@@2@@_STL@@IAEPAU?$_Rb_tree_node@U?$pair@$$CBGPAVZONETABLE_INFO@@@_STL@@@2@ABU?$pair@$$CBGPAVZONETABLE_INFO@@@2@@Z ENDP ; _STL::_Rb_tree<unsigned short,_STL::pair<unsigned short const ,ZONETABLE_INFO *>,_STL::_Select1st<_STL::pair<unsigned short const ,ZONETABLE_INFO *> >,_STL::less<unsigned short>,_STL::allocator<_STL::pair<unsigned short const ,ZONETABLE_INFO *> > >::_M_create_node
_TEXT	ENDS
PUBLIC	??0?$list@GV?$allocator@G@_STL@@@_STL@@QAE@ABV?$allocator@G@1@@Z ; _STL::list<unsigned short,_STL::allocator<unsigned short> >::list<unsigned short,_STL::allocator<unsigned short> >
; Function compile flags: /Ogsy
; File c:\stlport-4.6.1\stlport\stl\_list.h
;	COMDAT ??0?$list@GV?$allocator@G@_STL@@@_STL@@QAE@ABV?$allocator@G@1@@Z
_TEXT	SEGMENT
___a$ = 8						; size = 4
??0?$list@GV?$allocator@G@_STL@@@_STL@@QAE@ABV?$allocator@G@1@@Z PROC NEAR ; _STL::list<unsigned short,_STL::allocator<unsigned short> >::list<unsigned short,_STL::allocator<unsigned short> >, COMDAT
; _this$ = ecx

; 264  :     _List_base<_Tp, _Alloc>(__a) {}

  00000	56		 push	 esi
  00001	ff 74 24 08	 push	 DWORD PTR ___a$[esp]
  00005	8b f1		 mov	 esi, ecx
  00007	e8 00 00 00 00	 call	 ??0?$_List_base@GV?$allocator@G@_STL@@@_STL@@QAE@ABV?$allocator@G@1@@Z ; _STL::_List_base<unsigned short,_STL::allocator<unsigned short> >::_List_base<unsigned short,_STL::allocator<unsigned short> >
  0000c	8b c6		 mov	 eax, esi
  0000e	5e		 pop	 esi
  0000f	c2 04 00	 ret	 4
??0?$list@GV?$allocator@G@_STL@@@_STL@@QAE@ABV?$allocator@G@1@@Z ENDP ; _STL::list<unsigned short,_STL::allocator<unsigned short> >::list<unsigned short,_STL::allocator<unsigned short> >
_TEXT	ENDS
PUBLIC	??1?$list@GV?$allocator@G@_STL@@@_STL@@QAE@XZ	; _STL::list<unsigned short,_STL::allocator<unsigned short> >::~list<unsigned short,_STL::allocator<unsigned short> >
; Function compile flags: /Ogsy
;	COMDAT ??1?$list@GV?$allocator@G@_STL@@@_STL@@QAE@XZ
_TEXT	SEGMENT
??1?$list@GV?$allocator@G@_STL@@@_STL@@QAE@XZ PROC NEAR	; _STL::list<unsigned short,_STL::allocator<unsigned short> >::~list<unsigned short,_STL::allocator<unsigned short> >, COMDAT
; _this$ = ecx

; 416  :   ~list() { }

  00000	e9 00 00 00 00	 jmp	 ??1?$_List_base@GV?$allocator@G@_STL@@@_STL@@QAE@XZ ; _STL::_List_base<unsigned short,_STL::allocator<unsigned short> >::~_List_base<unsigned short,_STL::allocator<unsigned short> >
??1?$list@GV?$allocator@G@_STL@@@_STL@@QAE@XZ ENDP	; _STL::list<unsigned short,_STL::allocator<unsigned short> >::~list<unsigned short,_STL::allocator<unsigned short> >
_TEXT	ENDS
PUBLIC	??0?$vector@VMString@@V?$allocator@VMString@@@_STL@@@_STL@@QAE@ABV?$allocator@VMString@@@1@@Z ; _STL::vector<MString,_STL::allocator<MString> >::vector<MString,_STL::allocator<MString> >
; Function compile flags: /Ogsy
; File c:\stlport-4.6.1\stlport\stl\_vector.h
;	COMDAT ??0?$vector@VMString@@V?$allocator@VMString@@@_STL@@@_STL@@QAE@ABV?$allocator@VMString@@@1@@Z
_TEXT	SEGMENT
___a$ = 8						; size = 4
??0?$vector@VMString@@V?$allocator@VMString@@@_STL@@@_STL@@QAE@ABV?$allocator@VMString@@@1@@Z PROC NEAR ; _STL::vector<MString,_STL::allocator<MString> >::vector<MString,_STL::allocator<MString> >, COMDAT
; _this$ = ecx

; 199  :     _Vector_base<_Tp, _Alloc>(__a) {}

  00000	56		 push	 esi
  00001	ff 74 24 08	 push	 DWORD PTR ___a$[esp]
  00005	8b f1		 mov	 esi, ecx
  00007	e8 00 00 00 00	 call	 ??0?$_Vector_base@VMString@@V?$allocator@VMString@@@_STL@@@_STL@@QAE@ABV?$allocator@VMString@@@1@@Z ; _STL::_Vector_base<MString,_STL::allocator<MString> >::_Vector_base<MString,_STL::allocator<MString> >
  0000c	8b c6		 mov	 eax, esi
  0000e	5e		 pop	 esi
  0000f	c2 04 00	 ret	 4
??0?$vector@VMString@@V?$allocator@VMString@@@_STL@@@_STL@@QAE@ABV?$allocator@VMString@@@1@@Z ENDP ; _STL::vector<MString,_STL::allocator<MString> >::vector<MString,_STL::allocator<MString> >
_TEXT	ENDS
PUBLIC	?clear@?$map@GPAVZONETABLE_INFO@@U?$less@G@_STL@@V?$allocator@U?$pair@$$CBGPAVZONETABLE_INFO@@@_STL@@@3@@_STL@@QAEXXZ ; _STL::map<unsigned short,ZONETABLE_INFO *,_STL::less<unsigned short>,_STL::allocator<_STL::pair<unsigned short const ,ZONETABLE_INFO *> > >::clear
; Function compile flags: /Ogsy
; File c:\stlport-4.6.1\stlport\stl\_map.h
;	COMDAT ?clear@?$map@GPAVZONETABLE_INFO@@U?$less@G@_STL@@V?$allocator@U?$pair@$$CBGPAVZONETABLE_INFO@@@_STL@@@3@@_STL@@QAEXXZ
_TEXT	SEGMENT
?clear@?$map@GPAVZONETABLE_INFO@@U?$less@G@_STL@@V?$allocator@U?$pair@$$CBGPAVZONETABLE_INFO@@@_STL@@@3@@_STL@@QAEXXZ PROC NEAR ; _STL::map<unsigned short,ZONETABLE_INFO *,_STL::less<unsigned short>,_STL::allocator<_STL::pair<unsigned short const ,ZONETABLE_INFO *> > >::clear, COMDAT
; _this$ = ecx

; 191  :   void clear() { _M_t.clear(); }

  00000	e9 00 00 00 00	 jmp	 ?clear@?$_Rb_tree@GU?$pair@$$CBGPAVZONETABLE_INFO@@@_STL@@U?$_Select1st@U?$pair@$$CBGPAVZONETABLE_INFO@@@_STL@@@2@U?$less@G@2@V?$allocator@U?$pair@$$CBGPAVZONETABLE_INFO@@@_STL@@@2@@_STL@@QAEXXZ ; _STL::_Rb_tree<unsigned short,_STL::pair<unsigned short const ,ZONETABLE_INFO *>,_STL::_Select1st<_STL::pair<unsigned short const ,ZONETABLE_INFO *> >,_STL::less<unsigned short>,_STL::allocator<_STL::pair<unsigned short const ,ZONETABLE_INFO *> > >::clear
?clear@?$map@GPAVZONETABLE_INFO@@U?$less@G@_STL@@V?$allocator@U?$pair@$$CBGPAVZONETABLE_INFO@@@_STL@@@3@@_STL@@QAEXXZ ENDP ; _STL::map<unsigned short,ZONETABLE_INFO *,_STL::less<unsigned short>,_STL::allocator<_STL::pair<unsigned short const ,ZONETABLE_INFO *> > >::clear
_TEXT	ENDS
PUBLIC	?find@?$map@GPAVZONETABLE_INFO@@U?$less@G@_STL@@V?$allocator@U?$pair@$$CBGPAVZONETABLE_INFO@@@_STL@@@3@@_STL@@QAE?AU?$_Rb_tree_iterator@U?$pair@$$CBGPAVZONETABLE_INFO@@@_STL@@U?$_Nonconst_traits@U?$pair@$$CBGPAVZONETABLE_INFO@@@_STL@@@2@@2@ABG@Z ; _STL::map<unsigned short,ZONETABLE_INFO *,_STL::less<unsigned short>,_STL::allocator<_STL::pair<unsigned short const ,ZONETABLE_INFO *> > >::find
; Function compile flags: /Ogsy
;	COMDAT ?find@?$map@GPAVZONETABLE_INFO@@U?$less@G@_STL@@V?$allocator@U?$pair@$$CBGPAVZONETABLE_INFO@@@_STL@@@3@@_STL@@QAE?AU?$_Rb_tree_iterator@U?$pair@$$CBGPAVZONETABLE_INFO@@@_STL@@U?$_Nonconst_traits@U?$pair@$$CBGPAVZONETABLE_INFO@@@_STL@@@2@@2@ABG@Z
_TEXT	SEGMENT
___$ReturnUdt$ = 8					; size = 4
___x$ = 12						; size = 4
?find@?$map@GPAVZONETABLE_INFO@@U?$less@G@_STL@@V?$allocator@U?$pair@$$CBGPAVZONETABLE_INFO@@@_STL@@@3@@_STL@@QAE?AU?$_Rb_tree_iterator@U?$pair@$$CBGPAVZONETABLE_INFO@@@_STL@@U?$_Nonconst_traits@U?$pair@$$CBGPAVZONETABLE_INFO@@@_STL@@@2@@2@ABG@Z PROC NEAR ; _STL::map<unsigned short,ZONETABLE_INFO *,_STL::less<unsigned short>,_STL::allocator<_STL::pair<unsigned short const ,ZONETABLE_INFO *> > >::find, COMDAT
; _this$ = ecx

; 195  :   iterator find(const key_type& __x) { return _M_t.find(__x); }

  00000	ff 74 24 08	 push	 DWORD PTR ___x$[esp-4]
  00004	e8 00 00 00 00	 call	 ??$_M_find@G@?$_Rb_tree@GU?$pair@$$CBGPAVZONETABLE_INFO@@@_STL@@U?$_Select1st@U?$pair@$$CBGPAVZONETABLE_INFO@@@_STL@@@2@U?$less@G@2@V?$allocator@U?$pair@$$CBGPAVZONETABLE_INFO@@@_STL@@@2@@_STL@@ABEPAU?$_Rb_tree_node@U?$pair@$$CBGPAVZONETABLE_INFO@@@_STL@@@1@ABG@Z ; _STL::_Rb_tree<unsigned short,_STL::pair<unsigned short const ,ZONETABLE_INFO *>,_STL::_Select1st<_STL::pair<unsigned short const ,ZONETABLE_INFO *> >,_STL::less<unsigned short>,_STL::allocator<_STL::pair<unsigned short const ,ZONETABLE_INFO *> > >::_M_find<unsigned short>
  00009	8b 4c 24 04	 mov	 ecx, DWORD PTR ___$ReturnUdt$[esp-4]
  0000d	89 01		 mov	 DWORD PTR [ecx], eax
  0000f	8b c1		 mov	 eax, ecx
  00011	c2 08 00	 ret	 8
?find@?$map@GPAVZONETABLE_INFO@@U?$less@G@_STL@@V?$allocator@U?$pair@$$CBGPAVZONETABLE_INFO@@@_STL@@@3@@_STL@@QAE?AU?$_Rb_tree_iterator@U?$pair@$$CBGPAVZONETABLE_INFO@@@_STL@@U?$_Nonconst_traits@U?$pair@$$CBGPAVZONETABLE_INFO@@@_STL@@@2@@2@ABG@Z ENDP ; _STL::map<unsigned short,ZONETABLE_INFO *,_STL::less<unsigned short>,_STL::allocator<_STL::pair<unsigned short const ,ZONETABLE_INFO *> > >::find
_TEXT	ENDS
PUBLIC	??1?$_Rb_tree@GU?$pair@$$CBGPAVZONETABLE_INFO@@@_STL@@U?$_Select1st@U?$pair@$$CBGPAVZONETABLE_INFO@@@_STL@@@2@U?$less@G@2@V?$allocator@U?$pair@$$CBGPAVZONETABLE_INFO@@@_STL@@@2@@_STL@@QAE@XZ ; _STL::_Rb_tree<unsigned short,_STL::pair<unsigned short const ,ZONETABLE_INFO *>,_STL::_Select1st<_STL::pair<unsigned short const ,ZONETABLE_INFO *> >,_STL::less<unsigned short>,_STL::allocator<_STL::pair<unsigned short const ,ZONETABLE_INFO *> > >::~_Rb_tree<unsigned short,_STL::pair<unsigned short const ,ZONETABLE_INFO *>,_STL::_Select1st<_STL::pair<unsigned short const ,ZONETABLE_INFO *> >,_STL::less<unsigned short>,_STL::allocator<_STL::pair<unsigned short const ,ZONETABLE_INFO *> > >
;	COMDAT xdata$x
; File c:\stlport-4.6.1\stlport\stl\_alloc.h
xdata$x	SEGMENT
$T105076 DD	0ffffffffH
	DD	FLAT:$L105057
$T105074 DD	019930520H
	DD	01H
	DD	FLAT:$T105076
	DD	2 DUP(00H)
	DD	2 DUP(00H)
; Function compile flags: /Ogsy
; File c:\stlport-4.6.1\stlport\stl\_tree.h
xdata$x	ENDS
;	COMDAT ??1?$_Rb_tree@GU?$pair@$$CBGPAVZONETABLE_INFO@@@_STL@@U?$_Select1st@U?$pair@$$CBGPAVZONETABLE_INFO@@@_STL@@@2@U?$less@G@2@V?$allocator@U?$pair@$$CBGPAVZONETABLE_INFO@@@_STL@@@2@@_STL@@QAE@XZ
_TEXT	SEGMENT
_this$ = -16						; size = 4
__$EHRec$ = -12						; size = 12
??1?$_Rb_tree@GU?$pair@$$CBGPAVZONETABLE_INFO@@@_STL@@U?$_Select1st@U?$pair@$$CBGPAVZONETABLE_INFO@@@_STL@@@2@U?$less@G@2@V?$allocator@U?$pair@$$CBGPAVZONETABLE_INFO@@@_STL@@@2@@_STL@@QAE@XZ PROC NEAR ; _STL::_Rb_tree<unsigned short,_STL::pair<unsigned short const ,ZONETABLE_INFO *>,_STL::_Select1st<_STL::pair<unsigned short const ,ZONETABLE_INFO *> >,_STL::less<unsigned short>,_STL::allocator<_STL::pair<unsigned short const ,ZONETABLE_INFO *> > >::~_Rb_tree<unsigned short,_STL::pair<unsigned short const ,ZONETABLE_INFO *>,_STL::_Select1st<_STL::pair<unsigned short const ,ZONETABLE_INFO *> >,_STL::less<unsigned short>,_STL::allocator<_STL::pair<unsigned short const ,ZONETABLE_INFO *> > >, COMDAT
; _this$ = ecx

; 341  :   ~_Rb_tree() { clear(); }

  00000	b8 00 00 00 00	 mov	 eax, __ehhandler$??1?$_Rb_tree@GU?$pair@$$CBGPAVZONETABLE_INFO@@@_STL@@U?$_Select1st@U?$pair@$$CBGPAVZONETABLE_INFO@@@_STL@@@2@U?$less@G@2@V?$allocator@U?$pair@$$CBGPAVZONETABLE_INFO@@@_STL@@@2@@_STL@@QAE@XZ
  00005	e8 00 00 00 00	 call	 __EH_prolog
  0000a	51		 push	 ecx
  0000b	56		 push	 esi
  0000c	8b f1		 mov	 esi, ecx
  0000e	89 75 f0	 mov	 DWORD PTR _this$[ebp], esi
  00011	83 65 fc 00	 and	 DWORD PTR __$EHRec$[ebp+8], 0
  00015	e8 00 00 00 00	 call	 ?clear@?$_Rb_tree@GU?$pair@$$CBGPAVZONETABLE_INFO@@@_STL@@U?$_Select1st@U?$pair@$$CBGPAVZONETABLE_INFO@@@_STL@@@2@U?$less@G@2@V?$allocator@U?$pair@$$CBGPAVZONETABLE_INFO@@@_STL@@@2@@_STL@@QAEXXZ ; _STL::_Rb_tree<unsigned short,_STL::pair<unsigned short const ,ZONETABLE_INFO *>,_STL::_Select1st<_STL::pair<unsigned short const ,ZONETABLE_INFO *> >,_STL::less<unsigned short>,_STL::allocator<_STL::pair<unsigned short const ,ZONETABLE_INFO *> > >::clear
  0001a	83 4d fc ff	 or	 DWORD PTR __$EHRec$[ebp+8], -1
  0001e	6a 01		 push	 1
  00020	ff 36		 push	 DWORD PTR [esi]
  00022	8b ce		 mov	 ecx, esi
  00024	e8 00 00 00 00	 call	 ?deallocate@?$allocator@U?$_Rb_tree_node@U?$pair@$$CBGPAVZONETABLE_INFO@@@_STL@@@_STL@@@_STL@@QAEXPAU?$_Rb_tree_node@U?$pair@$$CBGPAVZONETABLE_INFO@@@_STL@@@2@I@Z ; _STL::allocator<_STL::_Rb_tree_node<_STL::pair<unsigned short const ,ZONETABLE_INFO *> > >::deallocate
  00029	8b 4d f4	 mov	 ecx, DWORD PTR __$EHRec$[ebp]
  0002c	5e		 pop	 esi
  0002d	64 89 0d 00 00
	00 00		 mov	 DWORD PTR fs:__except_list, ecx
  00034	c9		 leave
  00035	c3		 ret	 0
_TEXT	ENDS
;	COMDAT text$x
text$x	SEGMENT
$L105057:
  00000	8b 4d f0	 mov	 ecx, DWORD PTR _this$[ebp]
  00003	e9 00 00 00 00	 jmp	 ??1?$_Rb_tree_base@U?$pair@$$CBGPAVZONETABLE_INFO@@@_STL@@V?$allocator@U?$pair@$$CBGPAVZONETABLE_INFO@@@_STL@@@2@@_STL@@QAE@XZ ; _STL::_Rb_tree_base<_STL::pair<unsigned short const ,ZONETABLE_INFO *>,_STL::allocator<_STL::pair<unsigned short const ,ZONETABLE_INFO *> > >::~_Rb_tree_base<_STL::pair<unsigned short const ,ZONETABLE_INFO *>,_STL::allocator<_STL::pair<unsigned short const ,ZONETABLE_INFO *> > >
__ehhandler$??1?$_Rb_tree@GU?$pair@$$CBGPAVZONETABLE_INFO@@@_STL@@U?$_Select1st@U?$pair@$$CBGPAVZONETABLE_INFO@@@_STL@@@2@U?$less@G@2@V?$allocator@U?$pair@$$CBGPAVZONETABLE_INFO@@@_STL@@@2@@_STL@@QAE@XZ:
  00008	b8 00 00 00 00	 mov	 eax, OFFSET FLAT:$T105074
  0000d	e9 00 00 00 00	 jmp	 ___CxxFrameHandler
text$x	ENDS
??1?$_Rb_tree@GU?$pair@$$CBGPAVZONETABLE_INFO@@@_STL@@U?$_Select1st@U?$pair@$$CBGPAVZONETABLE_INFO@@@_STL@@@2@U?$less@G@2@V?$allocator@U?$pair@$$CBGPAVZONETABLE_INFO@@@_STL@@@2@@_STL@@QAE@XZ ENDP ; _STL::_Rb_tree<unsigned short,_STL::pair<unsigned short const ,ZONETABLE_INFO *>,_STL::_Select1st<_STL::pair<unsigned short const ,ZONETABLE_INFO *> >,_STL::less<unsigned short>,_STL::allocator<_STL::pair<unsigned short const ,ZONETABLE_INFO *> > >::~_Rb_tree<unsigned short,_STL::pair<unsigned short const ,ZONETABLE_INFO *>,_STL::_Select1st<_STL::pair<unsigned short const ,ZONETABLE_INFO *> >,_STL::less<unsigned short>,_STL::allocator<_STL::pair<unsigned short const ,ZONETABLE_INFO *> > >
PUBLIC	?insert@?$list@GV?$allocator@G@_STL@@@_STL@@QAE?AU?$_List_iterator@GU?$_Nonconst_traits@G@_STL@@@2@U32@ABG@Z ; _STL::list<unsigned short,_STL::allocator<unsigned short> >::insert
; Function compile flags: /Ogsy
; File c:\stlport-4.6.1\stlport\stl\_list.h
