; Listing generated by Microsoft (R) Optimizing Compiler Version 13.10.3077 

	TITLE	\darkeden\Designed_Common\Project\Client\Packet\PCSlayerInfo3.cpp
	.386P
include listing.inc
if @Version gt 510
.model FLAT
else
_TEXT	SEGMENT PARA USE32 PUBLIC 'CODE'
_TEXT	ENDS
_DATA	SEGMENT DWORD USE32 PUBLIC 'DATA'
_DATA	ENDS
CONST	SEGMENT DWORD USE32 PUBLIC 'CONST'
CONST	ENDS
_BSS	SEGMENT DWORD USE32 PUBLIC 'BSS'
_BSS	ENDS
$$SYMBOLS	SEGMENT BYTE USE32 'DEBSYM'
$$SYMBOLS	ENDS
$$TYPES	SEGMENT BYTE USE32 'DEBTYP'
$$TYPES	ENDS
_TLS	SEGMENT DWORD USE32 PUBLIC 'TLS'
_TLS	ENDS
;	COMDAT ??_C@_0CA@NDINADEE@SocketOutputStream?$CIm_BufferLen?3?$AA@
CONST	SEGMENT DWORD USE32 PUBLIC 'CONST'
CONST	ENDS
;	COMDAT ??_C@_08LIHEOLAN@?0m_Head?3?$AA@
CONST	SEGMENT DWORD USE32 PUBLIC 'CONST'
CONST	ENDS
;	COMDAT ??_C@_08PCEHPGHK@?0m_Tail?3?$AA@
CONST	SEGMENT DWORD USE32 PUBLIC 'CONST'
CONST	ENDS
;	COMDAT ??_C@_01PKGAHCOL@?$CJ?$AA@
CONST	SEGMENT DWORD USE32 PUBLIC 'CONST'
CONST	ENDS
;	COMDAT ??_C@_0M@CJCPDNFB@szName?5?$DN?$DN?50?$AA@
CONST	SEGMENT DWORD USE32 PUBLIC 'CONST'
CONST	ENDS
;	COMDAT ??_C@_0BG@HOFICMAO@too?5large?5name?5length?$AA@
CONST	SEGMENT DWORD USE32 PUBLIC 'CONST'
CONST	ENDS
;	COMDAT ??_C@_0P@IMNIMLMB@PCSlayerInfo3?$CI?$AA@
CONST	SEGMENT DWORD USE32 PUBLIC 'CONST'
CONST	ENDS
;	COMDAT ??_C@_09KPOAGKJO@ObjectID?3?$AA@
CONST	SEGMENT DWORD USE32 PUBLIC 'CONST'
CONST	ENDS
;	COMDAT ??_C@_06FJHHLOOE@?0Name?3?$AA@
CONST	SEGMENT DWORD USE32 PUBLIC 'CONST'
CONST	ENDS
;	COMDAT ??_C@_03HDFJJBBE@?0X?3?$AA@
CONST	SEGMENT DWORD USE32 PUBLIC 'CONST'
CONST	ENDS
;	COMDAT ??_C@_03HCJLPLCD@?0Y?3?$AA@
CONST	SEGMENT DWORD USE32 PUBLIC 'CONST'
CONST	ENDS
;	COMDAT ??_C@_05KHNCLPFG@?0Dir?3?$AA@
CONST	SEGMENT DWORD USE32 PUBLIC 'CONST'
CONST	ENDS
;	COMDAT ??_C@_05DCFDMOKK@?0Sex?3?$AA@
CONST	SEGMENT DWORD USE32 PUBLIC 'CONST'
CONST	ENDS
;	COMDAT ??_C@_0M@LJADDIFF@?0HairStyle?3?$AA@
CONST	SEGMENT DWORD USE32 PUBLIC 'CONST'
CONST	ENDS
;	COMDAT ??_C@_0M@BEBAFECK@?0HairColor?3?$AA@
CONST	SEGMENT DWORD USE32 PUBLIC 'CONST'
CONST	ENDS
;	COMDAT ??_C@_0M@KFPBKDAI@?0SkinColor?3?$AA@
CONST	SEGMENT DWORD USE32 PUBLIC 'CONST'
CONST	ENDS
;	COMDAT ??_C@_08DKPIEFOF@?0Helmet?3?$AA@
CONST	SEGMENT DWORD USE32 PUBLIC 'CONST'
CONST	ENDS
;	COMDAT ??_C@_0O@BPIJCLJI@?0HelmetColor?3?$AA@
CONST	SEGMENT DWORD USE32 PUBLIC 'CONST'
CONST	ENDS
;	COMDAT ??_C@_08PCIECBPO@?0Jacket?3?$AA@
CONST	SEGMENT DWORD USE32 PUBLIC 'CONST'
CONST	ENDS
;	COMDAT ??_C@_0O@OCDFCBCN@?0JacketColor?3?$AA@
CONST	SEGMENT DWORD USE32 PUBLIC 'CONST'
CONST	ENDS
;	COMDAT ??_C@_01KMDKNFGN@?1?$AA@
CONST	SEGMENT DWORD USE32 PUBLIC 'CONST'
CONST	ENDS
;	COMDAT ??_C@_07GFDIJEFA@?0Pants?3?$AA@
CONST	SEGMENT DWORD USE32 PUBLIC 'CONST'
CONST	ENDS
;	COMDAT ??_C@_0N@PFMKKFNL@?0PantsColor?3?$AA@
CONST	SEGMENT DWORD USE32 PUBLIC 'CONST'
CONST	ENDS
;	COMDAT ??_C@_08MFIBOAEN@?0Weapon?3?$AA@
CONST	SEGMENT DWORD USE32 PUBLIC 'CONST'
CONST	ENDS
;	COMDAT ??_C@_0O@ONGPLIFF@?0WeaponColor?3?$AA@
CONST	SEGMENT DWORD USE32 PUBLIC 'CONST'
CONST	ENDS
;	COMDAT ??_C@_08HLGNDPNA@?0Shield?3?$AA@
CONST	SEGMENT DWORD USE32 PUBLIC 'CONST'
CONST	ENDS
;	COMDAT ??_C@_0O@GAHAFIMJ@?0ShieldColor?3?$AA@
CONST	SEGMENT DWORD USE32 PUBLIC 'CONST'
CONST	ENDS
;	COMDAT ??_C@_0N@HEAGPKAM@?0Motorcycle?3?$AA@
CONST	SEGMENT DWORD USE32 PUBLIC 'CONST'
CONST	ENDS
;	COMDAT ??_C@_0L@HHFNHLLF@?0Shoulder?3?$AA@
CONST	SEGMENT DWORD USE32 PUBLIC 'CONST'
CONST	ENDS
;	COMDAT ??_C@_0BC@KOPMOMKL@?0MotorcycleColor?3?$AA@
CONST	SEGMENT DWORD USE32 PUBLIC 'CONST'
CONST	ENDS
;	COMDAT ??_C@_06JFKKGING@?0Born?3?$AA@
CONST	SEGMENT DWORD USE32 PUBLIC 'CONST'
CONST	ENDS
;	COMDAT ??_C@_0M@NCGLLCGL@?0CurerntHP?3?$AA@
CONST	SEGMENT DWORD USE32 PUBLIC 'CONST'
CONST	ENDS
;	COMDAT ??_C@_07MGHLENM@?0MaxHP?3?$AA@
CONST	SEGMENT DWORD USE32 PUBLIC 'CONST'
CONST	ENDS
;	COMDAT ??_C@_0M@PMHLFOKB@?0Alignment?3?$AA@
CONST	SEGMENT DWORD USE32 PUBLIC 'CONST'
CONST	ENDS
;	COMDAT ??_C@_0O@DIHBGOLJ@?0AttackSpeed?3?$AA@
CONST	SEGMENT DWORD USE32 PUBLIC 'CONST'
CONST	ENDS
;	COMDAT ??_C@_0N@DFBFICOF@?0Competence?3?$AA@
CONST	SEGMENT DWORD USE32 PUBLIC 'CONST'
CONST	ENDS
;	COMDAT ??_C@_09KONLHOKF@?0GuildID?3?$AA@
CONST	SEGMENT DWORD USE32 PUBLIC 'CONST'
CONST	ENDS
;	COMDAT ??_C@_06DFEIPOOA@?0Rank?3?$AA@
CONST	SEGMENT DWORD USE32 PUBLIC 'CONST'
CONST	ENDS
;	COMDAT ??_C@_0BC@JNJAFJDJ@?0ContributePoint?3?$AA@
CONST	SEGMENT DWORD USE32 PUBLIC 'CONST'
CONST	ENDS
;	COMDAT ??_C@_0BC@EKBHBEAF@?0m_MotorItemType?3?$AA@
CONST	SEGMENT DWORD USE32 PUBLIC 'CONST'
CONST	ENDS
;	COMDAT ??_C@_06CBNGNPJL@bitset?$AA@
CONST	SEGMENT DWORD USE32 PUBLIC 'CONST'
CONST	ENDS
;	COMDAT ??_C@_0N@GOPDCEEB@basic_string?$AA@
CONST	SEGMENT DWORD USE32 PUBLIC 'CONST'
CONST	ENDS
xdata$x	SEGMENT DWORD USE32 PUBLIC 'CONST'
xdata$x	ENDS
rdata$r	SEGMENT DWORD USE32 PUBLIC 'CONST'
rdata$r	ENDS
text$yc	SEGMENT PARA USE32 PUBLIC 'CODE'
text$yc	ENDS
CRT$XCA	SEGMENT DWORD USE32 PUBLIC 'DATA'
CRT$XCA	ENDS
CRT$XCU	SEGMENT DWORD USE32 PUBLIC 'DATA'
CRT$XCU	ENDS
CRT$XCL	SEGMENT DWORD USE32 PUBLIC 'DATA'
CRT$XCL	ENDS
CRT$XCC	SEGMENT DWORD USE32 PUBLIC 'DATA'
CRT$XCC	ENDS
CRT$XCZ	SEGMENT DWORD USE32 PUBLIC 'DATA'
CRT$XCZ	ENDS
text$yd	SEGMENT PARA USE32 PUBLIC 'CODE'
text$yd	ENDS
;	COMDAT ?getHost@SocketImpl@@QBE?AV?$basic_string@DV?$char_traits@D@_STL@@V?$allocator@D@2@@_STL@@XZ
_TEXT	SEGMENT PARA USE32 PUBLIC 'CODE'
_TEXT	ENDS
;	COMDAT ?getPort@SocketImpl@@QBEIXZ
_TEXT	SEGMENT PARA USE32 PUBLIC 'CODE'
_TEXT	ENDS
;	COMDAT ?isValid@SocketImpl@@QBE_NXZ
_TEXT	SEGMENT PARA USE32 PUBLIC 'CODE'
_TEXT	ENDS
;	COMDAT ?getSOCKET@SocketImpl@@QBEIXZ
_TEXT	SEGMENT PARA USE32 PUBLIC 'CODE'
_TEXT	ENDS
;	COMDAT ?read@SocketInputStream@@QAEIAAE@Z
_TEXT	SEGMENT PARA USE32 PUBLIC 'CODE'
_TEXT	ENDS
;	COMDAT ?read@SocketInputStream@@QAEIAAG@Z
_TEXT	SEGMENT PARA USE32 PUBLIC 'CODE'
_TEXT	ENDS
;	COMDAT ?read@SocketInputStream@@QAEIAAH@Z
_TEXT	SEGMENT PARA USE32 PUBLIC 'CODE'
_TEXT	ENDS
;	COMDAT ?read@SocketInputStream@@QAEIAAI@Z
_TEXT	SEGMENT PARA USE32 PUBLIC 'CODE'
_TEXT	ENDS
;	COMDAT ?read@SocketInputStream@@QAEIAAK@Z
_TEXT	SEGMENT PARA USE32 PUBLIC 'CODE'
_TEXT	ENDS
;	COMDAT ?write@SocketOutputStream@@QAEIABV?$basic_string@DV?$char_traits@D@_STL@@V?$allocator@D@2@@_STL@@@Z
_TEXT	SEGMENT PARA USE32 PUBLIC 'CODE'
_TEXT	ENDS
;	COMDAT ?write@SocketOutputStream@@QAEIE@Z
_TEXT	SEGMENT PARA USE32 PUBLIC 'CODE'
_TEXT	ENDS
;	COMDAT ?write@SocketOutputStream@@QAEIG@Z
_TEXT	SEGMENT PARA USE32 PUBLIC 'CODE'
_TEXT	ENDS
;	COMDAT ?write@SocketOutputStream@@QAEIH@Z
_TEXT	SEGMENT PARA USE32 PUBLIC 'CODE'
_TEXT	ENDS
;	COMDAT ?write@SocketOutputStream@@QAEII@Z
_TEXT	SEGMENT PARA USE32 PUBLIC 'CODE'
_TEXT	ENDS
;	COMDAT ?write@SocketOutputStream@@QAEIK@Z
_TEXT	SEGMENT PARA USE32 PUBLIC 'CODE'
_TEXT	ENDS
;	COMDAT ??1PCInfo@@UAE@XZ
_TEXT	SEGMENT PARA USE32 PUBLIC 'CODE'
_TEXT	ENDS
;	COMDAT ??_GPCInfo@@UAEPAXI@Z
_TEXT	SEGMENT PARA USE32 PUBLIC 'CODE'
_TEXT	ENDS
;	COMDAT ?getPCType@PCSlayerInfo3@@UBE?AW4PCType@@XZ
_TEXT	SEGMENT PARA USE32 PUBLIC 'CODE'
_TEXT	ENDS
;	COMDAT ?getSize@PCSlayerInfo3@@UBEIXZ
_TEXT	SEGMENT PARA USE32 PUBLIC 'CODE'
_TEXT	ENDS
;	COMDAT ?getSex@PCSlayerInfo3@@QBE?AW4Sex@@XZ
_TEXT	SEGMENT PARA USE32 PUBLIC 'CODE'
_TEXT	ENDS
;	COMDAT ?getHairStyle@PCSlayerInfo3@@QBE?AW4HairStyle@@XZ
_TEXT	SEGMENT PARA USE32 PUBLIC 'CODE'
_TEXT	ENDS
;	COMDAT ?getHelmetType@PCSlayerInfo3@@QBE?AW4HelmetType@@XZ
_TEXT	SEGMENT PARA USE32 PUBLIC 'CODE'
_TEXT	ENDS
;	COMDAT ?getJacketType@PCSlayerInfo3@@QBE?AW4JacketType@@XZ
_TEXT	SEGMENT PARA USE32 PUBLIC 'CODE'
_TEXT	ENDS
;	COMDAT ?getPantsType@PCSlayerInfo3@@QBE?AW4PantsType@@XZ
_TEXT	SEGMENT PARA USE32 PUBLIC 'CODE'
_TEXT	ENDS
;	COMDAT ?getWeaponType@PCSlayerInfo3@@QBE?AW4WeaponType@@XZ
_TEXT	SEGMENT PARA USE32 PUBLIC 'CODE'
_TEXT	ENDS
;	COMDAT ?getShieldType@PCSlayerInfo3@@QBE?AW4ShieldType@@XZ
_TEXT	SEGMENT PARA USE32 PUBLIC 'CODE'
_TEXT	ENDS
;	COMDAT ?getMotorcycleType@PCSlayerInfo3@@QBE?AW4MotorcycleType@@XZ
_TEXT	SEGMENT PARA USE32 PUBLIC 'CODE'
_TEXT	ENDS
;	COMDAT ?getShoulderType@PCSlayerInfo3@@QBEEXZ
_TEXT	SEGMENT PARA USE32 PUBLIC 'CODE'
_TEXT	ENDS
;	COMDAT ?getHairColor@PCSlayerInfo3@@QBEGXZ
_TEXT	SEGMENT PARA USE32 PUBLIC 'CODE'
_TEXT	ENDS
;	COMDAT ?getSkinColor@PCSlayerInfo3@@QBEGXZ
_TEXT	SEGMENT PARA USE32 PUBLIC 'CODE'
_TEXT	ENDS
;	COMDAT ?getHelmetColor@PCSlayerInfo3@@QBEGW4ColorType@@@Z
_TEXT	SEGMENT PARA USE32 PUBLIC 'CODE'
_TEXT	ENDS
;	COMDAT ?getJacketColor@PCSlayerInfo3@@QBEGW4ColorType@@@Z
_TEXT	SEGMENT PARA USE32 PUBLIC 'CODE'
_TEXT	ENDS
;	COMDAT ?getPantsColor@PCSlayerInfo3@@QBEGW4ColorType@@@Z
_TEXT	SEGMENT PARA USE32 PUBLIC 'CODE'
_TEXT	ENDS
;	COMDAT ?getWeaponColor@PCSlayerInfo3@@QBEGW4ColorType@@@Z
_TEXT	SEGMENT PARA USE32 PUBLIC 'CODE'
_TEXT	ENDS
;	COMDAT ?getShieldColor@PCSlayerInfo3@@QBEGW4ColorType@@@Z
_TEXT	SEGMENT PARA USE32 PUBLIC 'CODE'
_TEXT	ENDS
;	COMDAT ?getMotorcycleColor@PCSlayerInfo3@@QBEGW4ColorType@@@Z
_TEXT	SEGMENT PARA USE32 PUBLIC 'CODE'
_TEXT	ENDS
;	COMDAT ??_GPCSlayerInfo3@@UAEPAXI@Z
_TEXT	SEGMENT PARA USE32 PUBLIC 'CODE'
_TEXT	ENDS
;	COMDAT ??0PCInfo@@QAE@XZ
_TEXT	SEGMENT PARA USE32 PUBLIC 'CODE'
_TEXT	ENDS
;	COMDAT ??1PCSlayerInfo3@@UAE@XZ
_TEXT	SEGMENT PARA USE32 PUBLIC 'CODE'
_TEXT	ENDS
;	COMDAT ?read@PCSlayerInfo3@@UAEXAAVSocketInputStream@@@Z
_TEXT	SEGMENT PARA USE32 PUBLIC 'CODE'
_TEXT	ENDS
;	COMDAT ??0InvalidProtocolException@@QAE@ABV0@@Z
_TEXT	SEGMENT PARA USE32 PUBLIC 'CODE'
_TEXT	ENDS
;	COMDAT ??0ProtocolException@@QAE@ABV0@@Z
_TEXT	SEGMENT PARA USE32 PUBLIC 'CODE'
_TEXT	ENDS
;	COMDAT ??0IOException@@QAE@ABV0@@Z
_TEXT	SEGMENT PARA USE32 PUBLIC 'CODE'
_TEXT	ENDS
;	COMDAT ??0Exception@@QAE@ABV0@@Z
_TEXT	SEGMENT PARA USE32 PUBLIC 'CODE'
_TEXT	ENDS
;	COMDAT ??0Throwable@@QAE@ABV0@@Z
_TEXT	SEGMENT PARA USE32 PUBLIC 'CODE'
_TEXT	ENDS
;	COMDAT ?write@PCSlayerInfo3@@UBEXAAVSocketOutputStream@@@Z
_TEXT	SEGMENT PARA USE32 PUBLIC 'CODE'
_TEXT	ENDS
;	COMDAT ?toString@PCSlayerInfo3@@QBE?AV?$basic_string@DV?$char_traits@D@_STL@@V?$allocator@D@2@@_STL@@XZ
_TEXT	SEGMENT PARA USE32 PUBLIC 'CODE'
_TEXT	ENDS
;	COMDAT ?eq@?$__char_traits_base@DH@_STL@@SA_NABD0@Z
_TEXT	SEGMENT PARA USE32 PUBLIC 'CODE'
_TEXT	ENDS
;	COMDAT ?not_eof@?$__char_traits_base@DH@_STL@@SAHABH@Z
_TEXT	SEGMENT PARA USE32 PUBLIC 'CODE'
_TEXT	ENDS
;	COMDAT ?eq_int_type@?$__char_traits_base@DH@_STL@@SA_NABH0@Z
_TEXT	SEGMENT PARA USE32 PUBLIC 'CODE'
_TEXT	ENDS
;	COMDAT ?get_allocator@?$basic_string@DV?$char_traits@D@_STL@@V?$allocator@D@2@@_STL@@QBE?AV?$allocator@D@2@XZ
_TEXT	SEGMENT PARA USE32 PUBLIC 'CODE'
_TEXT	ENDS
;	COMDAT ?_M_terminate_string@?$basic_string@DV?$char_traits@D@_STL@@V?$allocator@D@2@@_STL@@AAEXXZ
_TEXT	SEGMENT PARA USE32 PUBLIC 'CODE'
_TEXT	ENDS
;	COMDAT ?size@?$basic_string@DV?$char_traits@D@_STL@@V?$allocator@D@2@@_STL@@QBEIXZ
_TEXT	SEGMENT PARA USE32 PUBLIC 'CODE'
_TEXT	ENDS
;	COMDAT ?c_str@?$basic_string@DV?$char_traits@D@_STL@@V?$allocator@D@2@@_STL@@QBEPBDXZ
_TEXT	SEGMENT PARA USE32 PUBLIC 'CODE'
_TEXT	ENDS
;	COMDAT ??0?$_String_base@DV?$allocator@D@_STL@@@_STL@@QAE@ABV?$allocator@D@1@@Z
_TEXT	SEGMENT PARA USE32 PUBLIC 'CODE'
_TEXT	ENDS
;	COMDAT ?allocate@?$allocator@D@_STL@@QAEPADIPBX@Z
_TEXT	SEGMENT PARA USE32 PUBLIC 'CODE'
_TEXT	ENDS
;	COMDAT ??0?$fpos@H@_STL@@QAE@J@Z
_TEXT	SEGMENT PARA USE32 PUBLIC 'CODE'
_TEXT	ENDS
;	COMDAT ??B?$fpos@H@_STL@@QBEJXZ
_TEXT	SEGMENT PARA USE32 PUBLIC 'CODE'
_TEXT	ENDS
;	COMDAT ?state@?$fpos@H@_STL@@QBEHXZ
_TEXT	SEGMENT PARA USE32 PUBLIC 'CODE'
_TEXT	ENDS
;	COMDAT ??6?$basic_ostream@DV?$char_traits@D@_STL@@@_STL@@QAEAAV01@P6AAAV01@AAV01@@Z@Z
_TEXT	SEGMENT PARA USE32 PUBLIC 'CODE'
_TEXT	ENDS
;	COMDAT ?is_open@?$basic_filebuf@DV?$char_traits@D@_STL@@@_STL@@QBE_NXZ
_TEXT	SEGMENT PARA USE32 PUBLIC 'CODE'
_TEXT	ENDS
;	COMDAT ?_M_seek_return@?$basic_filebuf@DV?$char_traits@D@_STL@@@_STL@@AAE?AV?$fpos@H@2@JH@Z
_TEXT	SEGMENT PARA USE32 PUBLIC 'CODE'
_TEXT	ENDS
;	COMDAT ??0?$list@V?$basic_string@DV?$char_traits@D@_STL@@V?$allocator@D@2@@_STL@@V?$allocator@V?$basic_string@DV?$char_traits@D@_STL@@V?$allocator@D@2@@_STL@@@2@@_STL@@QAE@ABV01@@Z
_TEXT	SEGMENT PARA USE32 PUBLIC 'CODE'
_TEXT	ENDS
;	COMDAT ??0?$_Filebuf_Tmp_Buf@D@_STL@@QAE@H@Z
_TEXT	SEGMENT PARA USE32 PUBLIC 'CODE'
_TEXT	ENDS
;	COMDAT ??1?$_Filebuf_Tmp_Buf@D@_STL@@QAE@XZ
_TEXT	SEGMENT PARA USE32 PUBLIC 'CODE'
_TEXT	ENDS
;	COMDAT ??0?$bitset@$0BG@@_STL@@QAE@XZ
_TEXT	SEGMENT PARA USE32 PUBLIC 'CODE'
_TEXT	ENDS
;	COMDAT ??0?$bitset@$0BG@@_STL@@QAE@K@Z
_TEXT	SEGMENT PARA USE32 PUBLIC 'CODE'
_TEXT	ENDS
;	COMDAT ??_4?$bitset@$0BG@@_STL@@QAEAAV01@ABV01@@Z
_TEXT	SEGMENT PARA USE32 PUBLIC 'CODE'
_TEXT	ENDS
;	COMDAT ??_5?$bitset@$0BG@@_STL@@QAEAAV01@ABV01@@Z
_TEXT	SEGMENT PARA USE32 PUBLIC 'CODE'
_TEXT	ENDS
;	COMDAT ?set@?$bitset@$0BG@@_STL@@QAEAAV12@IH@Z
_TEXT	SEGMENT PARA USE32 PUBLIC 'CODE'
_TEXT	ENDS
;	COMDAT ?reset@?$bitset@$0BG@@_STL@@QAEAAV12@XZ
_TEXT	SEGMENT PARA USE32 PUBLIC 'CODE'
_TEXT	ENDS
;	COMDAT ??S?$bitset@$0BG@@_STL@@QBE?AV01@XZ
_TEXT	SEGMENT PARA USE32 PUBLIC 'CODE'
_TEXT	ENDS
;	COMDAT ?to_ulong@?$bitset@$0BG@@_STL@@QBEKXZ
_TEXT	SEGMENT PARA USE32 PUBLIC 'CODE'
_TEXT	ENDS
;	COMDAT ?test@?$bitset@$0BG@@_STL@@QBE_NI@Z
_TEXT	SEGMENT PARA USE32 PUBLIC 'CODE'
_TEXT	ENDS
;	COMDAT ?_M_terminate_string_aux@?$basic_string@DV?$char_traits@D@_STL@@V?$allocator@D@2@@_STL@@AAEXABU__true_type@2@@Z
_TEXT	SEGMENT PARA USE32 PUBLIC 'CODE'
_TEXT	ENDS
;	COMDAT ??0?$allocator@D@_STL@@QAE@ABV01@@Z
_TEXT	SEGMENT PARA USE32 PUBLIC 'CODE'
_TEXT	ENDS
;	COMDAT ??0?$_STLP_alloc_proxy@PADDV?$allocator@D@_STL@@@_STL@@QAE@ABV?$allocator@D@1@PAD@Z
_TEXT	SEGMENT PARA USE32 PUBLIC 'CODE'
_TEXT	ENDS
;	COMDAT ?state@?$fpos@H@_STL@@QAEXH@Z
_TEXT	SEGMENT PARA USE32 PUBLIC 'CODE'
_TEXT	ENDS
;	COMDAT ?get_allocator@?$_List_base@V?$basic_string@DV?$char_traits@D@_STL@@V?$allocator@D@2@@_STL@@V?$allocator@V?$basic_string@DV?$char_traits@D@_STL@@V?$allocator@D@2@@_STL@@@2@@_STL@@QBE?AV?$allocator@V?$basic_string@DV?$char_traits@D@_STL@@V?$allocator@D@2@@_STL@@@2@XZ
_TEXT	SEGMENT PARA USE32 PUBLIC 'CODE'
_TEXT	ENDS
;	COMDAT ?_M_do_sanitize@?$bitset@$0BG@@_STL@@AAEXXZ
_TEXT	SEGMENT PARA USE32 PUBLIC 'CODE'
_TEXT	ENDS
;	COMDAT ?_Unchecked_set@?$bitset@$0BG@@_STL@@QAEAAV12@IH@Z
_TEXT	SEGMENT PARA USE32 PUBLIC 'CODE'
_TEXT	ENDS
;	COMDAT ?_Unchecked_test@?$bitset@$0BG@@_STL@@QBE_NI@Z
_TEXT	SEGMENT PARA USE32 PUBLIC 'CODE'
_TEXT	ENDS
;	COMDAT ?flip@?$bitset@$0BG@@_STL@@QAEAAV12@XZ
_TEXT	SEGMENT PARA USE32 PUBLIC 'CODE'
_TEXT	ENDS
;	COMDAT ?_M_do_sanitize@?$_Sanitize@$0BG@@_STL@@SAXAAK@Z
_TEXT	SEGMENT PARA USE32 PUBLIC 'CODE'
_TEXT	ENDS
;	COMDAT ??$_M_range_initialize@PBD@?$basic_string@DV?$char_traits@D@_STL@@V?$allocator@D@2@@_STL@@AAEXPBD0@Z
_TEXT	SEGMENT PARA USE32 PUBLIC 'CODE'
_TEXT	ENDS
;	COMDAT ??$_M_range_initialize@PAD@?$basic_string@DV?$char_traits@D@_STL@@V?$allocator@D@2@@_STL@@AAEXPAD0@Z
_TEXT	SEGMENT PARA USE32 PUBLIC 'CODE'
_TEXT	ENDS
;	COMDAT ?close@?$basic_filebuf@DV?$char_traits@D@_STL@@@_STL@@QAEPAV12@XZ
_TEXT	SEGMENT PARA USE32 PUBLIC 'CODE'
_TEXT	ENDS
;	COMDAT ?_M_exit_input_mode@?$basic_filebuf@DV?$char_traits@D@_STL@@@_STL@@AAEXXZ
_TEXT	SEGMENT PARA USE32 PUBLIC 'CODE'
_TEXT	ENDS
;	COMDAT ?_M_switch_to_output_mode@?$basic_filebuf@DV?$char_traits@D@_STL@@@_STL@@AAE_NXZ
_TEXT	SEGMENT PARA USE32 PUBLIC 'CODE'
_TEXT	ENDS
;	COMDAT ?_M_output_error@?$basic_filebuf@DV?$char_traits@D@_STL@@@_STL@@AAEHXZ
_TEXT	SEGMENT PARA USE32 PUBLIC 'CODE'
_TEXT	ENDS
;	COMDAT ?_M_allocate_buffers@?$basic_filebuf@DV?$char_traits@D@_STL@@@_STL@@AAE_NPADH@Z
_TEXT	SEGMENT PARA USE32 PUBLIC 'CODE'
_TEXT	ENDS
;	COMDAT ?_M_deallocate_buffers@?$basic_filebuf@DV?$char_traits@D@_STL@@@_STL@@AAEXXZ
_TEXT	SEGMENT PARA USE32 PUBLIC 'CODE'
_TEXT	ENDS
;	COMDAT ?_M_seek_init@?$basic_filebuf@DV?$char_traits@D@_STL@@@_STL@@AAE_N_N@Z
_TEXT	SEGMENT PARA USE32 PUBLIC 'CODE'
_TEXT	ENDS
;	COMDAT ?_M_setup_codecvt@?$basic_filebuf@DV?$char_traits@D@_STL@@@_STL@@AAEXABVlocale@2@@Z
_TEXT	SEGMENT PARA USE32 PUBLIC 'CODE'
_TEXT	ENDS
;	COMDAT ??$equal@PADPADU?$_Eq_traits@V?$char_traits@D@_STL@@@_STL@@@_STL@@YA_NPAD00U?$_Eq_traits@V?$char_traits@D@_STL@@@0@@Z
_TEXT	SEGMENT PARA USE32 PUBLIC 'CODE'
_TEXT	ENDS
;	COMDAT ??$_Destroy@V?$basic_string@DV?$char_traits@D@_STL@@V?$allocator@D@2@@_STL@@@_STL@@YAXPAV?$basic_string@DV?$char_traits@D@_STL@@V?$allocator@D@2@@0@@Z
_TEXT	SEGMENT PARA USE32 PUBLIC 'CODE'
_TEXT	ENDS
;	COMDAT ??$_M_assign_dispatch@PAD@?$basic_string@DV?$char_traits@D@_STL@@V?$allocator@D@2@@_STL@@AAEAAV01@PAD0ABU__false_type@1@@Z
_TEXT	SEGMENT PARA USE32 PUBLIC 'CODE'
_TEXT	ENDS
;	COMDAT ??$?6V?$char_traits@D@_STL@@@_STL@@YAAAV?$basic_ostream@DV?$char_traits@D@_STL@@@0@AAV10@PBD@Z
_TEXT	SEGMENT PARA USE32 PUBLIC 'CODE'
_TEXT	ENDS
;	COMDAT ??$endl@DV?$char_traits@D@_STL@@@_STL@@YAAAV?$basic_ostream@DV?$char_traits@D@_STL@@@0@AAV10@@Z
_TEXT	SEGMENT PARA USE32 PUBLIC 'CODE'
_TEXT	ENDS
;	COMDAT ??$insert@U?$_List_iterator@V?$basic_string@DV?$char_traits@D@_STL@@V?$allocator@D@2@@_STL@@U?$_Const_traits@V?$basic_string@DV?$char_traits@D@_STL@@V?$allocator@D@2@@_STL@@@2@@_STL@@@?$list@V?$basic_string@DV?$char_traits@D@_STL@@V?$allocator@D@2@@_STL@@V?$allocator@V?$basic_string@DV?$char_traits@D@_STL@@V?$allocator@D@2@@_STL@@@2@@_STL@@QAEXU?$_List_iterator@V?$basic_string@DV?$char_traits@D@_STL@@V?$allocator@D@2@@_STL@@U?$_Nonconst_traits@V?$basic_string@DV?$char_traits@D@_STL@@V?$allocator@D@2@@_STL@@@2@@1@U?$_List_iterator@V?$basic_string@DV?$char_traits@D@_STL@@V?$allocator@D@2@@_STL@@U?$_Const_traits@V?$basic_string@DV?$char_traits@D@_STL@@V?$allocator@D@2@@_STL@@@2@@1@1@Z
_TEXT	SEGMENT PARA USE32 PUBLIC 'CODE'
_TEXT	ENDS
;	COMDAT ??$?0U?$_List_node@V?$basic_string@DV?$char_traits@D@_STL@@V?$allocator@D@2@@_STL@@@_STL@@@?$allocator@V?$basic_string@DV?$char_traits@D@_STL@@V?$allocator@D@2@@_STL@@@_STL@@QAE@ABV?$allocator@U?$_List_node@V?$basic_string@DV?$char_traits@D@_STL@@V?$allocator@D@2@@_STL@@@_STL@@@1@@Z
_TEXT	SEGMENT PARA USE32 PUBLIC 'CODE'
_TEXT	ENDS
;	COMDAT ??_G?$basic_string@DV?$char_traits@D@_STL@@V?$allocator@D@2@@_STL@@QAEPAXI@Z
_TEXT	SEGMENT PARA USE32 PUBLIC 'CODE'
_TEXT	ENDS
;	COMDAT ?end@?$basic_string@DV?$char_traits@D@_STL@@V?$allocator@D@2@@_STL@@QAEPADXZ
_TEXT	SEGMENT PARA USE32 PUBLIC 'CODE'
_TEXT	ENDS
;	COMDAT ?erase@?$basic_string@DV?$char_traits@D@_STL@@V?$allocator@D@2@@_STL@@QAEPADPAD0@Z
_TEXT	SEGMENT PARA USE32 PUBLIC 'CODE'
_TEXT	ENDS
;	COMDAT ?flush@?$basic_ostream@DV?$char_traits@D@_STL@@@_STL@@QAEAAV12@XZ
_TEXT	SEGMENT PARA USE32 PUBLIC 'CODE'
_TEXT	ENDS
;	COMDAT ?_M_exit_putback_mode@?$basic_filebuf@DV?$char_traits@D@_STL@@@_STL@@AAEXXZ
_TEXT	SEGMENT PARA USE32 PUBLIC 'CODE'
_TEXT	ENDS
;	COMDAT ??0?$_List_iterator@V?$basic_string@DV?$char_traits@D@_STL@@V?$allocator@D@2@@_STL@@U?$_Nonconst_traits@V?$basic_string@DV?$char_traits@D@_STL@@V?$allocator@D@2@@_STL@@@2@@_STL@@QAE@ABU01@@Z
_TEXT	SEGMENT PARA USE32 PUBLIC 'CODE'
_TEXT	ENDS
;	COMDAT ??R?$_Eq_traits@V?$char_traits@D@_STL@@@_STL@@QBE_NABD0@Z
_TEXT	SEGMENT PARA USE32 PUBLIC 'CODE'
_TEXT	ENDS
;	COMDAT ?move@?$__char_traits_base@DH@_STL@@SAPADPADPBDI@Z
_TEXT	SEGMENT PARA USE32 PUBLIC 'CODE'
_TEXT	ENDS
;	COMDAT ?rdbuf@?$basic_ios@DV?$char_traits@D@_STL@@@_STL@@QBEPAV?$basic_streambuf@DV?$char_traits@D@_STL@@@2@XZ
_TEXT	SEGMENT PARA USE32 PUBLIC 'CODE'
_TEXT	ENDS
;	COMDAT ?setstate@?$basic_ios@DV?$char_traits@D@_STL@@@_STL@@QAEXH@Z
_TEXT	SEGMENT PARA USE32 PUBLIC 'CODE'
_TEXT	ENDS
;	COMDAT ?clear@?$basic_ios@DV?$char_traits@D@_STL@@@_STL@@QAEXH@Z
_TEXT	SEGMENT PARA USE32 PUBLIC 'CODE'
_TEXT	ENDS
;	COMDAT ??$_M_range_initialize@PBD@?$basic_string@DV?$char_traits@D@_STL@@V?$allocator@D@2@@_STL@@AAEXPBD0ABUforward_iterator_tag@1@@Z
_TEXT	SEGMENT PARA USE32 PUBLIC 'CODE'
_TEXT	ENDS
;	COMDAT ??$_M_range_initialize@PAD@?$basic_string@DV?$char_traits@D@_STL@@V?$allocator@D@2@@_STL@@AAEXPAD0ABUforward_iterator_tag@1@@Z
_TEXT	SEGMENT PARA USE32 PUBLIC 'CODE'
_TEXT	ENDS
;	COMDAT ?_M_unshift@?$basic_filebuf@DV?$char_traits@D@_STL@@@_STL@@AAE_NXZ
_TEXT	SEGMENT PARA USE32 PUBLIC 'CODE'
_TEXT	ENDS
;	COMDAT ?_M_allocate_buffers@?$basic_filebuf@DV?$char_traits@D@_STL@@@_STL@@AAE_NXZ
_TEXT	SEGMENT PARA USE32 PUBLIC 'CODE'
_TEXT	ENDS
;	COMDAT ??$max@H@_STL@@YAABHABH0@Z
_TEXT	SEGMENT PARA USE32 PUBLIC 'CODE'
_TEXT	ENDS
;	COMDAT ??$use_facet@V?$codecvt@DDH@_STL@@@_STL@@YAABV?$codecvt@DDH@0@ABVlocale@0@@Z
_TEXT	SEGMENT PARA USE32 PUBLIC 'CODE'
_TEXT	ENDS
;	COMDAT ??$append@PAD@?$basic_string@DV?$char_traits@D@_STL@@V?$allocator@D@2@@_STL@@QAEAAV01@PAD0@Z
_TEXT	SEGMENT PARA USE32 PUBLIC 'CODE'
_TEXT	ENDS
;	COMDAT ?_M_put_nowiden@?$basic_ostream@DV?$char_traits@D@_STL@@@_STL@@QAEXPBD@Z
_TEXT	SEGMENT PARA USE32 PUBLIC 'CODE'
_TEXT	ENDS
;	COMDAT ?put@?$basic_ostream@DV?$char_traits@D@_STL@@@_STL@@QAEAAV12@D@Z
_TEXT	SEGMENT PARA USE32 PUBLIC 'CODE'
_TEXT	ENDS
;	COMDAT ?widen@?$basic_ios@DV?$char_traits@D@_STL@@@_STL@@QBEDD@Z
_TEXT	SEGMENT PARA USE32 PUBLIC 'CODE'
_TEXT	ENDS
;	COMDAT ??$_M_insert_dispatch@U?$_List_iterator@V?$basic_string@DV?$char_traits@D@_STL@@V?$allocator@D@2@@_STL@@U?$_Const_traits@V?$basic_string@DV?$char_traits@D@_STL@@V?$allocator@D@2@@_STL@@@2@@_STL@@@?$list@V?$basic_string@DV?$char_traits@D@_STL@@V?$allocator@D@2@@_STL@@V?$allocator@V?$basic_string@DV?$char_traits@D@_STL@@V?$allocator@D@2@@_STL@@@2@@_STL@@QAEXU?$_List_iterator@V?$basic_string@DV?$char_traits@D@_STL@@V?$allocator@D@2@@_STL@@U?$_Nonconst_traits@V?$basic_string@DV?$char_traits@D@_STL@@V?$allocator@D@2@@_STL@@@2@@1@U?$_List_iterator@V?$basic_string@DV?$char_traits@D@_STL@@V?$allocator@D@2@@_STL@@U?$_Const_traits@V?$basic_string@DV?$char_traits@D@_STL@@V?$allocator@D@2@@_STL@@@2@@1@1ABU__false_type@1@@Z
_TEXT	SEGMENT PARA USE32 PUBLIC 'CODE'
_TEXT	ENDS
;	COMDAT ?fill@?$basic_ios@DV?$char_traits@D@_STL@@@_STL@@QBEDXZ
_TEXT	SEGMENT PARA USE32 PUBLIC 'CODE'
_TEXT	ENDS
;	COMDAT ?_S_eof@?$basic_ios@DV?$char_traits@D@_STL@@@_STL@@SA_NH@Z
_TEXT	SEGMENT PARA USE32 PUBLIC 'CODE'
_TEXT	ENDS
;	COMDAT ??E?$_List_iterator@V?$basic_string@DV?$char_traits@D@_STL@@V?$allocator@D@2@@_STL@@U?$_Const_traits@V?$basic_string@DV?$char_traits@D@_STL@@V?$allocator@D@2@@_STL@@@2@@_STL@@QAEAAU01@XZ
_TEXT	SEGMENT PARA USE32 PUBLIC 'CODE'
_TEXT	ENDS
;	COMDAT ??0sentry@?$basic_ostream@DV?$char_traits@D@_STL@@@_STL@@QAE@AAV12@@Z
_TEXT	SEGMENT PARA USE32 PUBLIC 'CODE'
_TEXT	ENDS
;	COMDAT ??1sentry@?$basic_ostream@DV?$char_traits@D@_STL@@@_STL@@QAE@XZ
_TEXT	SEGMENT PARA USE32 PUBLIC 'CODE'
_TEXT	ENDS
;	COMDAT ??Bsentry@?$basic_ostream@DV?$char_traits@D@_STL@@@_STL@@QBE_NXZ
_TEXT	SEGMENT PARA USE32 PUBLIC 'CODE'
_TEXT	ENDS
;	COMDAT ??$distance@PBD@_STL@@YAHABQBD0@Z
_TEXT	SEGMENT PARA USE32 PUBLIC 'CODE'
_TEXT	ENDS
;	COMDAT ?_M_allocate_block@?$_String_base@DV?$allocator@D@_STL@@@_STL@@QAEXI@Z
_TEXT	SEGMENT PARA USE32 PUBLIC 'CODE'
_TEXT	ENDS
;	COMDAT ??$distance@PAD@_STL@@YAHABQAD0@Z
_TEXT	SEGMENT PARA USE32 PUBLIC 'CODE'
_TEXT	ENDS
;	COMDAT ??$uninitialized_copy@PADPAD@_STL@@YAPADPAD00@Z
_TEXT	SEGMENT PARA USE32 PUBLIC 'CODE'
_TEXT	ENDS
;	COMDAT ??$_M_append_dispatch@PAD@?$basic_string@DV?$char_traits@D@_STL@@V?$allocator@D@2@@_STL@@AAEAAV01@PAD0ABU__false_type@1@@Z
_TEXT	SEGMENT PARA USE32 PUBLIC 'CODE'
_TEXT	ENDS
;	COMDAT ?_M_handle_exception@?$basic_ios@DV?$char_traits@D@_STL@@@_STL@@QAEXH@Z
_TEXT	SEGMENT PARA USE32 PUBLIC 'CODE'
_TEXT	ENDS
;	COMDAT ??$_M_init@DV?$char_traits@D@_STL@@@_STL@@YA_NAAV?$basic_ostream@DV?$char_traits@D@_STL@@@0@@Z
_TEXT	SEGMENT PARA USE32 PUBLIC 'CODE'
_TEXT	ENDS
;	COMDAT ?max_size@?$_String_base@DV?$allocator@D@_STL@@@_STL@@QBEIXZ
_TEXT	SEGMENT PARA USE32 PUBLIC 'CODE'
_TEXT	ENDS
;	COMDAT ?tie@?$basic_ios@DV?$char_traits@D@_STL@@@_STL@@QBEPAV?$basic_ostream@DV?$char_traits@D@_STL@@@2@XZ
_TEXT	SEGMENT PARA USE32 PUBLIC 'CODE'
_TEXT	ENDS
;	COMDAT ??$__distance@PBD@_STL@@YAHABQBD0ABUrandom_access_iterator_tag@0@@Z
_TEXT	SEGMENT PARA USE32 PUBLIC 'CODE'
_TEXT	ENDS
;	COMDAT ?_M_throw_length_error@?$_String_base@DV?$allocator@D@_STL@@@_STL@@QBEXXZ
_TEXT	SEGMENT PARA USE32 PUBLIC 'CODE'
_TEXT	ENDS
;	COMDAT ??$__distance@PAD@_STL@@YAHABQAD0ABUrandom_access_iterator_tag@0@@Z
_TEXT	SEGMENT PARA USE32 PUBLIC 'CODE'
_TEXT	ENDS
;	COMDAT ??$__uninitialized_copy@PADPAD@_STL@@YAPADPAD00ABU__true_type@0@@Z
_TEXT	SEGMENT PARA USE32 PUBLIC 'CODE'
_TEXT	ENDS
;	COMDAT ??$append@PAD@?$basic_string@DV?$char_traits@D@_STL@@V?$allocator@D@2@@_STL@@AAEAAV01@PAD0ABUforward_iterator_tag@1@@Z
_TEXT	SEGMENT PARA USE32 PUBLIC 'CODE'
_TEXT	ENDS
;	COMDAT ?_M_construct_null@?$basic_string@DV?$char_traits@D@_STL@@V?$allocator@D@2@@_STL@@AAEXPAD@Z
_TEXT	SEGMENT PARA USE32 PUBLIC 'CODE'
_TEXT	ENDS
;	COMDAT ?max_size@?$basic_string@DV?$char_traits@D@_STL@@V?$allocator@D@2@@_STL@@QBEIXZ
_TEXT	SEGMENT PARA USE32 PUBLIC 'CODE'
_TEXT	ENDS
;	COMDAT ?capacity@?$basic_string@DV?$char_traits@D@_STL@@V?$allocator@D@2@@_STL@@QBEIXZ
_TEXT	SEGMENT PARA USE32 PUBLIC 'CODE'
_TEXT	ENDS
;	COMDAT ?_Ret@?$_BothPtrType@PADPAD@_STL@@SA?AU__true_type@2@XZ
_TEXT	SEGMENT PARA USE32 PUBLIC 'CODE'
_TEXT	ENDS
;	COMDAT ?_M_construct_null_aux@?$basic_string@DV?$char_traits@D@_STL@@V?$allocator@D@2@@_STL@@AAEXPADABU__true_type@2@@Z
_TEXT	SEGMENT PARA USE32 PUBLIC 'CODE'
_TEXT	ENDS
;	COMDAT ??$__copy_aux@PADPAD@_STL@@YAPADPAD00ABU__true_type@0@@Z
_TEXT	SEGMENT PARA USE32 PUBLIC 'CODE'
_TEXT	ENDS
;	COMDAT ??$max@I@_STL@@YAABIABI0@Z
_TEXT	SEGMENT PARA USE32 PUBLIC 'CODE'
_TEXT	ENDS
;	COMDAT ?_Ret@?$_OKToMemCpy@DD@_STL@@SA?AU__true_type@2@XZ
_TEXT	SEGMENT PARA USE32 PUBLIC 'CODE'
_TEXT	ENDS
;	COMDAT ??$_IsOKToMemCpy@DD@_STL@@YA?AU?$_OKToMemCpy@DD@0@PAD0@Z
_TEXT	SEGMENT PARA USE32 PUBLIC 'CODE'
_TEXT	ENDS
;	COMDAT ??$__copy_ptrs@PADPAD@_STL@@YAPADPAD00ABU__true_type@0@@Z
_TEXT	SEGMENT PARA USE32 PUBLIC 'CODE'
_TEXT	ENDS
;	COMDAT ??_R3PCInfo@@8
rdata$r	SEGMENT DWORD USE32 PUBLIC 'CONST'
rdata$r	ENDS
;	COMDAT ??_R3PCSlayerInfo3@@8
rdata$r	SEGMENT DWORD USE32 PUBLIC 'CONST'
rdata$r	ENDS
;	COMDAT ??_R2PCInfo@@8
rdata$r	SEGMENT DWORD USE32 PUBLIC 'CONST'
rdata$r	ENDS
;	COMDAT ??_R2PCSlayerInfo3@@8
rdata$r	SEGMENT DWORD USE32 PUBLIC 'CONST'
rdata$r	ENDS
;	COMDAT ??_R1A@?0A@A@PCInfo@@8
rdata$r	SEGMENT DWORD USE32 PUBLIC 'CONST'
rdata$r	ENDS
;	COMDAT ??_R1A@?0A@A@PCSlayerInfo3@@8
rdata$r	SEGMENT DWORD USE32 PUBLIC 'CONST'
rdata$r	ENDS
;	COMDAT ??_R0?AVPCInfo@@@8
_DATA	SEGMENT DWORD USE32 PUBLIC 'DATA'
_DATA	ENDS
;	COMDAT ??_R0?AVPCSlayerInfo3@@@8
_DATA	SEGMENT DWORD USE32 PUBLIC 'DATA'
_DATA	ENDS
;	COMDAT ??_R4PCInfo@@6B@
rdata$r	SEGMENT DWORD USE32 PUBLIC 'CONST'
rdata$r	ENDS
;	COMDAT ??_R4PCSlayerInfo3@@6B@
rdata$r	SEGMENT DWORD USE32 PUBLIC 'CONST'
rdata$r	ENDS
;	COMDAT ?__copy_trivial@_STL@@YAPAXPBX0PAX@Z
_TEXT	SEGMENT PARA USE32 PUBLIC 'CODE'
_TEXT	ENDS
;	COMDAT ?_M_deallocate_block@?$_String_base@DV?$allocator@D@_STL@@@_STL@@QAEXXZ
_TEXT	SEGMENT PARA USE32 PUBLIC 'CODE'
_TEXT	ENDS
;	COMDAT ?deallocate@?$allocator@D@_STL@@QAEXPADI@Z
_TEXT	SEGMENT PARA USE32 PUBLIC 'CODE'
_TEXT	ENDS
;	COMDAT ?deallocate@?$__node_alloc@$00$0A@@_STL@@SAXPAXI@Z
_TEXT	SEGMENT PARA USE32 PUBLIC 'CODE'
_TEXT	ENDS
;	COMDAT ?__stl_delete@_STL@@YAXPAX@Z
_TEXT	SEGMENT PARA USE32 PUBLIC 'CODE'
_TEXT	ENDS
;	COMDAT ?good@ios_base@_STL@@QBE_NXZ
_TEXT	SEGMENT PARA USE32 PUBLIC 'CODE'
_TEXT	ENDS
;	COMDAT ?_M_get_exception_mask@ios_base@_STL@@IBEHXZ
_TEXT	SEGMENT PARA USE32 PUBLIC 'CODE'
_TEXT	ENDS
;	COMDAT ?_M_setstate_nothrow@ios_base@_STL@@IAEXH@Z
_TEXT	SEGMENT PARA USE32 PUBLIC 'CODE'
_TEXT	ENDS
;	COMDAT ?_M_incr@_List_iterator_base@_STL@@QAEXXZ
_TEXT	SEGMENT PARA USE32 PUBLIC 'CODE'
_TEXT	ENDS
;	COMDAT ??D?$_List_iterator@V?$basic_string@DV?$char_traits@D@_STL@@V?$allocator@D@2@@_STL@@U?$_Const_traits@V?$basic_string@DV?$char_traits@D@_STL@@V?$allocator@D@2@@_STL@@@2@@_STL@@QBEABV?$basic_string@DV?$char_traits@D@_STL@@V?$allocator@D@2@@1@XZ
_TEXT	SEGMENT PARA USE32 PUBLIC 'CODE'
_TEXT	ENDS
;	COMDAT ?insert@?$list@V?$basic_string@DV?$char_traits@D@_STL@@V?$allocator@D@2@@_STL@@V?$allocator@V?$basic_string@DV?$char_traits@D@_STL@@V?$allocator@D@2@@_STL@@@2@@_STL@@QAE?AU?$_List_iterator@V?$basic_string@DV?$char_traits@D@_STL@@V?$allocator@D@2@@_STL@@U?$_Nonconst_traits@V?$basic_string@DV?$char_traits@D@_STL@@V?$allocator@D@2@@_STL@@@2@@2@U32@ABV?$basic_string@DV?$char_traits@D@_STL@@V?$allocator@D@2@@2@@Z
_TEXT	SEGMENT PARA USE32 PUBLIC 'CODE'
_TEXT	ENDS
;	COMDAT ?_M_create_node@?$list@V?$basic_string@DV?$char_traits@D@_STL@@V?$allocator@D@2@@_STL@@V?$allocator@V?$basic_string@DV?$char_traits@D@_STL@@V?$allocator@D@2@@_STL@@@2@@_STL@@IAEPAU?$_List_node@V?$basic_string@DV?$char_traits@D@_STL@@V?$allocator@D@2@@_STL@@@2@ABV?$basic_string@DV?$char_traits@D@_STL@@V?$allocator@D@2@@2@@Z
_TEXT	SEGMENT PARA USE32 PUBLIC 'CODE'
_TEXT	ENDS
;	COMDAT ?allocate@?$allocator@U?$_List_node@V?$basic_string@DV?$char_traits@D@_STL@@V?$allocator@D@2@@_STL@@@_STL@@@_STL@@QAEPAU?$_List_node@V?$basic_string@DV?$char_traits@D@_STL@@V?$allocator@D@2@@_STL@@@2@IPBX@Z
_TEXT	SEGMENT PARA USE32 PUBLIC 'CODE'
_TEXT	ENDS
;	COMDAT ??$_Construct@V?$basic_string@DV?$char_traits@D@_STL@@V?$allocator@D@2@@_STL@@V12@@_STL@@YAXPAV?$basic_string@DV?$char_traits@D@_STL@@V?$allocator@D@2@@0@ABV10@@Z
_TEXT	SEGMENT PARA USE32 PUBLIC 'CODE'
_TEXT	ENDS
;	COMDAT ??2@YAPAXIPAX@Z
_TEXT	SEGMENT PARA USE32 PUBLIC 'CODE'
_TEXT	ENDS
;	COMDAT ??3@YAXPAX0@Z
_TEXT	SEGMENT PARA USE32 PUBLIC 'CODE'
_TEXT	ENDS
;	COMDAT ?deallocate@?$allocator@U?$_List_node@V?$basic_string@DV?$char_traits@D@_STL@@V?$allocator@D@2@@_STL@@@_STL@@@_STL@@QAEXPAU?$_List_node@V?$basic_string@DV?$char_traits@D@_STL@@V?$allocator@D@2@@_STL@@@2@I@Z
_TEXT	SEGMENT PARA USE32 PUBLIC 'CODE'
_TEXT	ENDS
;	COMDAT ??0?$_List_iterator@V?$basic_string@DV?$char_traits@D@_STL@@V?$allocator@D@2@@_STL@@U?$_Nonconst_traits@V?$basic_string@DV?$char_traits@D@_STL@@V?$allocator@D@2@@_STL@@@2@@_STL@@QAE@PAU?$_List_node@V?$basic_string@DV?$char_traits@D@_STL@@V?$allocator@D@2@@_STL@@@1@@Z
_TEXT	SEGMENT PARA USE32 PUBLIC 'CODE'
_TEXT	ENDS
;	COMDAT ??9_List_iterator_base@_STL@@QBE_NABU01@@Z
_TEXT	SEGMENT PARA USE32 PUBLIC 'CODE'
_TEXT	ENDS
;	COMDAT ?_M_ctype_facet@ios_base@_STL@@QBEPBVfacet@locale@2@XZ
_TEXT	SEGMENT PARA USE32 PUBLIC 'CODE'
_TEXT	ENDS
;	COMDAT ?widen@?$ctype@D@_STL@@QBEDD@Z
_TEXT	SEGMENT PARA USE32 PUBLIC 'CODE'
_TEXT	ENDS
;	COMDAT ?sputc@?$basic_streambuf@DV?$char_traits@D@_STL@@@_STL@@QAEHD@Z
_TEXT	SEGMENT PARA USE32 PUBLIC 'CODE'
_TEXT	ENDS
;	COMDAT ?_FILE_O_avail@_STL@@YAHPBU_iobuf@@@Z
_TEXT	SEGMENT PARA USE32 PUBLIC 'CODE'
_TEXT	ENDS
;	COMDAT ?_FILE_I_avail@_STL@@YAHPBU_iobuf@@@Z
_TEXT	SEGMENT PARA USE32 PUBLIC 'CODE'
_TEXT	ENDS
;	COMDAT ?_FILE_O_postincr@_STL@@YAAADPAU_iobuf@@@Z
_TEXT	SEGMENT PARA USE32 PUBLIC 'CODE'
_TEXT	ENDS
;	COMDAT ?_FILE_I_postincr@_STL@@YAAADPAU_iobuf@@@Z
_TEXT	SEGMENT PARA USE32 PUBLIC 'CODE'
_TEXT	ENDS
;	COMDAT ?to_int_type@?$char_traits@D@_STL@@SAHABD@Z
_TEXT	SEGMENT PARA USE32 PUBLIC 'CODE'
_TEXT	ENDS
;	COMDAT ?width@ios_base@_STL@@QAEHH@Z
_TEXT	SEGMENT PARA USE32 PUBLIC 'CODE'
_TEXT	ENDS
;	COMDAT ?_M_sputnc@?$basic_streambuf@DV?$char_traits@D@_STL@@@_STL@@QAEHDH@Z
_TEXT	SEGMENT PARA USE32 PUBLIC 'CODE'
_TEXT	ENDS
;	COMDAT ?flags@ios_base@_STL@@QBEHXZ
_TEXT	SEGMENT PARA USE32 PUBLIC 'CODE'
_TEXT	ENDS
;	COMDAT ?sputn@?$basic_streambuf@DV?$char_traits@D@_STL@@@_STL@@QAEHPBDH@Z
_TEXT	SEGMENT PARA USE32 PUBLIC 'CODE'
_TEXT	ENDS
;	COMDAT ?width@ios_base@_STL@@QBEHXZ
_TEXT	SEGMENT PARA USE32 PUBLIC 'CODE'
_TEXT	ENDS
;	COMDAT ?length@?$char_traits@D@_STL@@SAIPBD@Z
_TEXT	SEGMENT PARA USE32 PUBLIC 'CODE'
_TEXT	ENDS
;	COMDAT ?__page_size@_Filebuf_base@_STL@@SAIXZ
_TEXT	SEGMENT PARA USE32 PUBLIC 'CODE'
_TEXT	ENDS
;	COMDAT ?_M_write@?$basic_filebuf@DV?$char_traits@D@_STL@@@_STL@@QAE_NPADH@Z
_TEXT	SEGMENT PARA USE32 PUBLIC 'CODE'
_TEXT	ENDS
;	COMDAT ?unshift@?$codecvt@DDH@_STL@@QBE?AW4result@codecvt_base@2@AAHPAD1AAPAD@Z
_TEXT	SEGMENT PARA USE32 PUBLIC 'CODE'
_TEXT	ENDS
;	COMDAT ?uninitialized_copy@_STL@@YAPADPBD0PAD@Z
_TEXT	SEGMENT PARA USE32 PUBLIC 'CODE'
_TEXT	ENDS
;	COMDAT ?_M_check_exception_mask@ios_base@_STL@@IAEXXZ
_TEXT	SEGMENT PARA USE32 PUBLIC 'CODE'
_TEXT	ENDS
;	COMDAT ?_M_clear_nothrow@ios_base@_STL@@IAEXH@Z
_TEXT	SEGMENT PARA USE32 PUBLIC 'CODE'
_TEXT	ENDS
;	COMDAT ?rdstate@ios_base@_STL@@QBEHXZ
_TEXT	SEGMENT PARA USE32 PUBLIC 'CODE'
_TEXT	ENDS
;	COMDAT ??0_List_iterator_base@_STL@@QAE@PAU_List_node_base@1@@Z
_TEXT	SEGMENT PARA USE32 PUBLIC 'CODE'
_TEXT	ENDS
;	COMDAT ?pubsync@?$basic_streambuf@DV?$char_traits@D@_STL@@@_STL@@QAEHXZ
_TEXT	SEGMENT PARA USE32 PUBLIC 'CODE'
_TEXT	ENDS
;	COMDAT ?_Destroy@_STL@@YAXPAD0@Z
_TEXT	SEGMENT PARA USE32 PUBLIC 'CODE'
_TEXT	ENDS
;	COMDAT ?assign@?$char_traits@D@_STL@@SAXAADABD@Z
_TEXT	SEGMENT PARA USE32 PUBLIC 'CODE'
_TEXT	ENDS
;	COMDAT ?always_noconv@?$codecvt@DDH@_STL@@QBE_NXZ
_TEXT	SEGMENT PARA USE32 PUBLIC 'CODE'
_TEXT	ENDS
;	COMDAT ?encoding@?$codecvt@DDH@_STL@@QBEHXZ
_TEXT	SEGMENT PARA USE32 PUBLIC 'CODE'
_TEXT	ENDS
;	COMDAT ?max_length@?$codecvt@DDH@_STL@@QBEHXZ
_TEXT	SEGMENT PARA USE32 PUBLIC 'CODE'
_TEXT	ENDS
;	COMDAT ?__o_mode@_Filebuf_base@_STL@@QBEHXZ
_TEXT	SEGMENT PARA USE32 PUBLIC 'CODE'
_TEXT	ENDS
;	COMDAT ?_M_do_flip@?$_Base_bitset@$00@_STL@@QAEXXZ
_TEXT	SEGMENT PARA USE32 PUBLIC 'CODE'
_TEXT	ENDS
;	COMDAT ?_M_getword@?$_Base_bitset@$00@_STL@@QBEKI@Z
_TEXT	SEGMENT PARA USE32 PUBLIC 'CODE'
_TEXT	ENDS
;	COMDAT ?_S_maskbit@?$_Base_bitset@$00@_STL@@SAKI@Z
_TEXT	SEGMENT PARA USE32 PUBLIC 'CODE'
_TEXT	ENDS
;	COMDAT ?_S_whichbit@?$_Base_bitset@$00@_STL@@SAII@Z
_TEXT	SEGMENT PARA USE32 PUBLIC 'CODE'
_TEXT	ENDS
;	COMDAT ?_M_getword@?$_Base_bitset@$00@_STL@@QAEAAKI@Z
_TEXT	SEGMENT PARA USE32 PUBLIC 'CODE'
_TEXT	ENDS
;	COMDAT ?_M_hiword@?$_Base_bitset@$00@_STL@@QAEAAKXZ
_TEXT	SEGMENT PARA USE32 PUBLIC 'CODE'
_TEXT	ENDS
;	COMDAT ?_M_do_to_ulong@?$_Base_bitset@$00@_STL@@QBEKXZ
_TEXT	SEGMENT PARA USE32 PUBLIC 'CODE'
_TEXT	ENDS
;	COMDAT ?_M_do_reset@?$_Base_bitset@$00@_STL@@QAEXXZ
_TEXT	SEGMENT PARA USE32 PUBLIC 'CODE'
_TEXT	ENDS
;	COMDAT ?_M_do_or@?$_Base_bitset@$00@_STL@@QAEXABU12@@Z
_TEXT	SEGMENT PARA USE32 PUBLIC 'CODE'
_TEXT	ENDS
;	COMDAT ?_M_do_and@?$_Base_bitset@$00@_STL@@QAEXABU12@@Z
_TEXT	SEGMENT PARA USE32 PUBLIC 'CODE'
_TEXT	ENDS
;	COMDAT ??0?$_Base_bitset@$00@_STL@@QAE@K@Z
_TEXT	SEGMENT PARA USE32 PUBLIC 'CODE'
_TEXT	ENDS
;	COMDAT ??0?$_Base_bitset@$00@_STL@@QAE@XZ
_TEXT	SEGMENT PARA USE32 PUBLIC 'CODE'
_TEXT	ENDS
;	COMDAT ?begin@?$list@V?$basic_string@DV?$char_traits@D@_STL@@V?$allocator@D@2@@_STL@@V?$allocator@V?$basic_string@DV?$char_traits@D@_STL@@V?$allocator@D@2@@_STL@@@2@@_STL@@QAE?AU?$_List_iterator@V?$basic_string@DV?$char_traits@D@_STL@@V?$allocator@D@2@@_STL@@U?$_Nonconst_traits@V?$basic_string@DV?$char_traits@D@_STL@@V?$allocator@D@2@@_STL@@@2@@2@XZ
_TEXT	SEGMENT PARA USE32 PUBLIC 'CODE'
_TEXT	ENDS
;	COMDAT ?begin@?$list@V?$basic_string@DV?$char_traits@D@_STL@@V?$allocator@D@2@@_STL@@V?$allocator@V?$basic_string@DV?$char_traits@D@_STL@@V?$allocator@D@2@@_STL@@@2@@_STL@@QBE?AU?$_List_iterator@V?$basic_string@DV?$char_traits@D@_STL@@V?$allocator@D@2@@_STL@@U?$_Const_traits@V?$basic_string@DV?$char_traits@D@_STL@@V?$allocator@D@2@@_STL@@@2@@2@XZ
_TEXT	SEGMENT PARA USE32 PUBLIC 'CODE'
_TEXT	ENDS
;	COMDAT ??0?$_List_iterator@V?$basic_string@DV?$char_traits@D@_STL@@V?$allocator@D@2@@_STL@@U?$_Const_traits@V?$basic_string@DV?$char_traits@D@_STL@@V?$allocator@D@2@@_STL@@@2@@_STL@@QAE@PAU?$_List_node@V?$basic_string@DV?$char_traits@D@_STL@@V?$allocator@D@2@@_STL@@@1@@Z
_TEXT	SEGMENT PARA USE32 PUBLIC 'CODE'
_TEXT	ENDS
;	COMDAT ?end@?$list@V?$basic_string@DV?$char_traits@D@_STL@@V?$allocator@D@2@@_STL@@V?$allocator@V?$basic_string@DV?$char_traits@D@_STL@@V?$allocator@D@2@@_STL@@@2@@_STL@@QBE?AU?$_List_iterator@V?$basic_string@DV?$char_traits@D@_STL@@V?$allocator@D@2@@_STL@@U?$_Const_traits@V?$basic_string@DV?$char_traits@D@_STL@@V?$allocator@D@2@@_STL@@@2@@2@XZ
_TEXT	SEGMENT PARA USE32 PUBLIC 'CODE'
_TEXT	ENDS
;	COMDAT ??1?$_List_base@V?$basic_string@DV?$char_traits@D@_STL@@V?$allocator@D@2@@_STL@@V?$allocator@V?$basic_string@DV?$char_traits@D@_STL@@V?$allocator@D@2@@_STL@@@2@@_STL@@QAE@XZ
_TEXT	SEGMENT PARA USE32 PUBLIC 'CODE'
_TEXT	ENDS
;	COMDAT ??1?$_STLP_alloc_proxy@PAU?$_List_node@V?$basic_string@DV?$char_traits@D@_STL@@V?$allocator@D@2@@_STL@@@_STL@@U12@V?$allocator@U?$_List_node@V?$basic_string@DV?$char_traits@D@_STL@@V?$allocator@D@2@@_STL@@@_STL@@@2@@_STL@@QAE@XZ
_TEXT	SEGMENT PARA USE32 PUBLIC 'CODE'
_TEXT	ENDS
;	COMDAT ??1?$allocator@U?$_List_node@V?$basic_string@DV?$char_traits@D@_STL@@V?$allocator@D@2@@_STL@@@_STL@@@_STL@@QAE@XZ
_TEXT	SEGMENT PARA USE32 PUBLIC 'CODE'
_TEXT	ENDS
;	COMDAT ?clear@?$_List_base@V?$basic_string@DV?$char_traits@D@_STL@@V?$allocator@D@2@@_STL@@V?$allocator@V?$basic_string@DV?$char_traits@D@_STL@@V?$allocator@D@2@@_STL@@@2@@_STL@@QAEXXZ
_TEXT	SEGMENT PARA USE32 PUBLIC 'CODE'
_TEXT	ENDS
;	COMDAT ??1?$allocator@V?$basic_string@DV?$char_traits@D@_STL@@V?$allocator@D@2@@_STL@@@_STL@@QAE@XZ
_TEXT	SEGMENT PARA USE32 PUBLIC 'CODE'
_TEXT	ENDS
;	COMDAT ??0?$_List_base@V?$basic_string@DV?$char_traits@D@_STL@@V?$allocator@D@2@@_STL@@V?$allocator@V?$basic_string@DV?$char_traits@D@_STL@@V?$allocator@D@2@@_STL@@@2@@_STL@@QAE@ABV?$allocator@V?$basic_string@DV?$char_traits@D@_STL@@V?$allocator@D@2@@_STL@@@1@@Z
_TEXT	SEGMENT PARA USE32 PUBLIC 'CODE'
_TEXT	ENDS
;	COMDAT ??0?$_STLP_alloc_proxy@PAU?$_List_node@V?$basic_string@DV?$char_traits@D@_STL@@V?$allocator@D@2@@_STL@@@_STL@@U12@V?$allocator@U?$_List_node@V?$basic_string@DV?$char_traits@D@_STL@@V?$allocator@D@2@@_STL@@@_STL@@@2@@_STL@@QAE@ABV?$allocator@U?$_List_node@V?$basic_string@DV?$char_traits@D@_STL@@V?$allocator@D@2@@_STL@@@_STL@@@1@PAU?$_List_node@V?$basic_string@DV?$char_traits@D@_STL@@V?$allocator@D@2@@_STL@@@1@@Z
_TEXT	SEGMENT PARA USE32 PUBLIC 'CODE'
_TEXT	ENDS
;	COMDAT ??0?$allocator@U?$_List_node@V?$basic_string@DV?$char_traits@D@_STL@@V?$allocator@D@2@@_STL@@@_STL@@@_STL@@QAE@ABV01@@Z
_TEXT	SEGMENT PARA USE32 PUBLIC 'CODE'
_TEXT	ENDS
;	COMDAT ??$?0V?$basic_string@DV?$char_traits@D@_STL@@V?$allocator@D@2@@_STL@@@?$allocator@U?$_List_node@V?$basic_string@DV?$char_traits@D@_STL@@V?$allocator@D@2@@_STL@@@_STL@@@_STL@@QAE@ABV?$allocator@V?$basic_string@DV?$char_traits@D@_STL@@V?$allocator@D@2@@_STL@@@1@@Z
_TEXT	SEGMENT PARA USE32 PUBLIC 'CODE'
_TEXT	ENDS
;	COMDAT ?setp@?$basic_streambuf@DV?$char_traits@D@_STL@@@_STL@@IAEXPAD0@Z
_TEXT	SEGMENT PARA USE32 PUBLIC 'CODE'
_TEXT	ENDS
;	COMDAT ?_FILE_O_set@_STL@@YAXPAU_iobuf@@PAD11@Z
_TEXT	SEGMENT PARA USE32 PUBLIC 'CODE'
_TEXT	ENDS
;	COMDAT ?_FILE_I_set@_STL@@YAXPAU_iobuf@@PAD11@Z
_TEXT	SEGMENT PARA USE32 PUBLIC 'CODE'
_TEXT	ENDS
;	COMDAT ?setg@?$basic_streambuf@DV?$char_traits@D@_STL@@@_STL@@IAEXPAD00@Z
_TEXT	SEGMENT PARA USE32 PUBLIC 'CODE'
_TEXT	ENDS
;	COMDAT ?__is_open@_Filebuf_base@_STL@@QBE_NXZ
_TEXT	SEGMENT PARA USE32 PUBLIC 'CODE'
_TEXT	ENDS
;	COMDAT ?allocate@?$__node_alloc@$00$0A@@_STL@@SAPAXI@Z
_TEXT	SEGMENT PARA USE32 PUBLIC 'CODE'
_TEXT	ENDS
;	COMDAT ?__stl_new@_STL@@YAPAXI@Z
_TEXT	SEGMENT PARA USE32 PUBLIC 'CODE'
_TEXT	ENDS
;	COMDAT ??1?$_STLP_alloc_proxy@PADDV?$allocator@D@_STL@@@_STL@@QAE@XZ
_TEXT	SEGMENT PARA USE32 PUBLIC 'CODE'
_TEXT	ENDS
;	COMDAT ?eof@?$__char_traits_base@DH@_STL@@SAHXZ
_TEXT	SEGMENT PARA USE32 PUBLIC 'CODE'
_TEXT	ENDS
;	COMDAT _$E31
text$yc	SEGMENT PARA USE32 PUBLIC 'CODE'
text$yc	ENDS
;	COMDAT ??_C@_0BA@HFMKBDFL@MOTORCYCLE_NONE?$AA@
CONST	SEGMENT DWORD USE32 PUBLIC 'CONST'
CONST	ENDS
;	COMDAT ??_C@_0M@OJHOMHKG@MOTORCYCLE1?$AA@
CONST	SEGMENT DWORD USE32 PUBLIC 'CONST'
CONST	ENDS
;	COMDAT ??_C@_0M@MCFDJEGF@MOTORCYCLE2?$AA@
CONST	SEGMENT DWORD USE32 PUBLIC 'CONST'
CONST	ENDS
;	COMDAT ??_C@_0M@NLEIKFCE@MOTORCYCLE3?$AA@
CONST	SEGMENT DWORD USE32 PUBLIC 'CONST'
CONST	ENDS
;	COMDAT ??_C@_0BA@PGHNLPG@MOTORCYCLE_WING?$AA@
CONST	SEGMENT DWORD USE32 PUBLIC 'CONST'
CONST	ENDS
;	COMDAT _$E32
text$yd	SEGMENT PARA USE32 PUBLIC 'CODE'
text$yd	ENDS
;	COMDAT _$E28
text$yc	SEGMENT PARA USE32 PUBLIC 'CODE'
text$yc	ENDS
;	COMDAT ??_C@_0M@LFPOKKMH@SHIELD_NONE?$AA@
CONST	SEGMENT DWORD USE32 PUBLIC 'CONST'
CONST	ENDS
;	COMDAT ??_C@_07OONIKGBL@SHIELD1?$AA@
CONST	SEGMENT DWORD USE32 PUBLIC 'CONST'
CONST	ENDS
;	COMDAT ??_C@_07MFPFPFNI@SHIELD2?$AA@
CONST	SEGMENT DWORD USE32 PUBLIC 'CONST'
CONST	ENDS
;	COMDAT ??_C@_07NMOOMEJJ@SHIELD3?$AA@
CONST	SEGMENT DWORD USE32 PUBLIC 'CONST'
CONST	ENDS
;	COMDAT ??_C@_07JDKPFCFO@SHIELD4?$AA@
CONST	SEGMENT DWORD USE32 PUBLIC 'CONST'
CONST	ENDS
;	COMDAT ??_C@_07IKLEGDBP@SHIELD5?$AA@
CONST	SEGMENT DWORD USE32 PUBLIC 'CONST'
CONST	ENDS
;	COMDAT ??_C@_07KBJJDANM@SHIELD6?$AA@
CONST	SEGMENT DWORD USE32 PUBLIC 'CONST'
CONST	ENDS
;	COMDAT _$E29
text$yd	SEGMENT PARA USE32 PUBLIC 'CODE'
text$yd	ENDS
;	COMDAT _$E25
text$yc	SEGMENT PARA USE32 PUBLIC 'CODE'
text$yc	ENDS
;	COMDAT ??_C@_0M@KCBDMDNI@WEAPON_NONE?$AA@
CONST	SEGMENT DWORD USE32 PUBLIC 'CONST'
CONST	ENDS
;	COMDAT ??_C@_0N@FCLCNMLC@WEAPON_SWORD?$AA@
CONST	SEGMENT DWORD USE32 PUBLIC 'CONST'
CONST	ENDS
;	COMDAT ??_C@_0P@NDAGDNIL@WEAPON_SWORD_2?$AA@
CONST	SEGMENT DWORD USE32 PUBLIC 'CONST'
CONST	ENDS
;	COMDAT ??_C@_0N@GMGHDCKP@WEAPON_BLADE?$AA@
CONST	SEGMENT DWORD USE32 PUBLIC 'CONST'
CONST	ENDS
;	COMDAT ??_C@_0P@GLNIKADN@WEAPON_BLADE_2?$AA@
CONST	SEGMENT DWORD USE32 PUBLIC 'CONST'
CONST	ENDS
;	COMDAT ??_C@_09HJIOIJGO@WEAPON_SR?$AA@
CONST	SEGMENT DWORD USE32 PUBLIC 'CONST'
CONST	ENDS
;	COMDAT ??_C@_0M@OFIKDJNP@WEAPON_SR_2?$AA@
CONST	SEGMENT DWORD USE32 PUBLIC 'CONST'
CONST	ENDS
;	COMDAT ??_C@_09GGCMPOHA@WEAPON_AR?$AA@
CONST	SEGMENT DWORD USE32 PUBLIC 'CONST'
CONST	ENDS
;	COMDAT ??_C@_0M@PPKKPNDN@WEAPON_AR_2?$AA@
CONST	SEGMENT DWORD USE32 PUBLIC 'CONST'
CONST	ENDS
;	COMDAT ??_C@_09EODLGPHK@WEAPON_SG?$AA@
CONST	SEGMENT DWORD USE32 PUBLIC 'CONST'
CONST	ENDS
;	COMDAT ??_C@_0L@CDBPPFJ@WEAPON_SMG?$AA@
CONST	SEGMENT DWORD USE32 PUBLIC 'CONST'
CONST	ENDS
;	COMDAT ??_C@_0N@JNMFLPPI@WEAPON_CROSS?$AA@
CONST	SEGMENT DWORD USE32 PUBLIC 'CONST'
CONST	ENDS
;	COMDAT ??_C@_0P@NCLGFJB@WEAPON_CROSS_2?$AA@
CONST	SEGMENT DWORD USE32 PUBLIC 'CONST'
CONST	ENDS
;	COMDAT ??_C@_0M@NLEFNGI@WEAPON_MACE?$AA@
CONST	SEGMENT DWORD USE32 PUBLIC 'CONST'
CONST	ENDS
;	COMDAT ??_C@_0O@DCGOPMKO@WEAPON_MACE_2?$AA@
CONST	SEGMENT DWORD USE32 PUBLIC 'CONST'
CONST	ENDS
;	COMDAT _$E26
text$yd	SEGMENT PARA USE32 PUBLIC 'CODE'
text$yd	ENDS
;	COMDAT _$E22
text$yc	SEGMENT PARA USE32 PUBLIC 'CODE'
text$yc	ENDS
;	COMDAT ??_C@_0M@FEMKDPPK@PANTS_BASIC?$AA@
CONST	SEGMENT DWORD USE32 PUBLIC 'CONST'
CONST	ENDS
;	COMDAT ??_C@_06IOEJPJHJ@PANTS1?$AA@
CONST	SEGMENT DWORD USE32 PUBLIC 'CONST'
CONST	ENDS
;	COMDAT ??_C@_06KFGEKKLK@PANTS2?$AA@
CONST	SEGMENT DWORD USE32 PUBLIC 'CONST'
CONST	ENDS
;	COMDAT ??_C@_06LMHPJLPL@PANTS3?$AA@
CONST	SEGMENT DWORD USE32 PUBLIC 'CONST'
CONST	ENDS
;	COMDAT ??_C@_06PDDOANDM@PANTS4?$AA@
CONST	SEGMENT DWORD USE32 PUBLIC 'CONST'
CONST	ENDS
;	COMDAT ??_C@_06OKCFDMHN@PANTS5?$AA@
CONST	SEGMENT DWORD USE32 PUBLIC 'CONST'
CONST	ENDS
;	COMDAT ??_C@_06MBAIGPLO@PANTS6?$AA@
CONST	SEGMENT DWORD USE32 PUBLIC 'CONST'
CONST	ENDS
;	COMDAT _$E23
text$yd	SEGMENT PARA USE32 PUBLIC 'CODE'
text$yd	ENDS
;	COMDAT _$E19
text$yc	SEGMENT PARA USE32 PUBLIC 'CODE'
text$yc	ENDS
;	COMDAT ??_C@_0N@DPDPMEKH@JACKET_BASIC?$AA@
CONST	SEGMENT DWORD USE32 PUBLIC 'CONST'
CONST	ENDS
;	COMDAT ??_C@_07GHDBLIDF@JACKET1?$AA@
CONST	SEGMENT DWORD USE32 PUBLIC 'CONST'
CONST	ENDS
;	COMDAT ??_C@_07EMBMOLPG@JACKET2?$AA@
CONST	SEGMENT DWORD USE32 PUBLIC 'CONST'
CONST	ENDS
;	COMDAT ??_C@_07FFAHNKLH@JACKET3?$AA@
CONST	SEGMENT DWORD USE32 PUBLIC 'CONST'
CONST	ENDS
;	COMDAT ??_C@_07BKEGEMHA@JACKET4?$AA@
CONST	SEGMENT DWORD USE32 PUBLIC 'CONST'
CONST	ENDS
;	COMDAT ??_C@_07DFNHNDB@JACKET5?$AA@
CONST	SEGMENT DWORD USE32 PUBLIC 'CONST'
CONST	ENDS
;	COMDAT ??_C@_07CIHACOPC@JACKET6?$AA@
CONST	SEGMENT DWORD USE32 PUBLIC 'CONST'
CONST	ENDS
;	COMDAT ??_C@_07DBGLBPLD@JACKET7?$AA@
CONST	SEGMENT DWORD USE32 PUBLIC 'CONST'
CONST	ENDS
;	COMDAT ??_C@_07LGPDADHM@JACKET8?$AA@
CONST	SEGMENT DWORD USE32 PUBLIC 'CONST'
CONST	ENDS
;	COMDAT _$E20
text$yd	SEGMENT PARA USE32 PUBLIC 'CODE'
text$yd	ENDS
;	COMDAT _$E16
text$yc	SEGMENT PARA USE32 PUBLIC 'CODE'
text$yc	ENDS
;	COMDAT ??_C@_0M@CGIAEAIL@HELMET_NONE?$AA@
CONST	SEGMENT DWORD USE32 PUBLIC 'CONST'
CONST	ENDS
;	COMDAT ??_C@_07KPENNMCO@HELMET1?$AA@
CONST	SEGMENT DWORD USE32 PUBLIC 'CONST'
CONST	ENDS
;	COMDAT ??_C@_07IEGAIPON@HELMET2?$AA@
CONST	SEGMENT DWORD USE32 PUBLIC 'CONST'
CONST	ENDS
;	COMDAT ??_C@_07JNHLLOKM@HELMET3?$AA@
CONST	SEGMENT DWORD USE32 PUBLIC 'CONST'
CONST	ENDS
;	COMDAT ??_C@_07NCDKCIGL@HELMET4?$AA@
CONST	SEGMENT DWORD USE32 PUBLIC 'CONST'
CONST	ENDS
;	COMDAT ??_C@_07MLCBBJCK@HELMET5?$AA@
CONST	SEGMENT DWORD USE32 PUBLIC 'CONST'
CONST	ENDS
;	COMDAT ??_C@_07OAAMEKOJ@HELMET6?$AA@
CONST	SEGMENT DWORD USE32 PUBLIC 'CONST'
CONST	ENDS
;	COMDAT ??_C@_07PJBHHLKI@HELMET7?$AA@
CONST	SEGMENT DWORD USE32 PUBLIC 'CONST'
CONST	ENDS
;	COMDAT _$E17
text$yd	SEGMENT PARA USE32 PUBLIC 'CODE'
text$yd	ENDS
;	COMDAT _$E52
text$yc	SEGMENT PARA USE32 PUBLIC 'CODE'
text$yc	ENDS
;	COMDAT ??_C@_0M@MGGBCBCM@HAIR_STYLE1?$AA@
CONST	SEGMENT DWORD USE32 PUBLIC 'CONST'
CONST	ENDS
;	COMDAT ??_C@_0M@ONEMHCOP@HAIR_STYLE2?$AA@
CONST	SEGMENT DWORD USE32 PUBLIC 'CONST'
CONST	ENDS
;	COMDAT ??_C@_0M@PEFHEDKO@HAIR_STYLE3?$AA@
CONST	SEGMENT DWORD USE32 PUBLIC 'CONST'
CONST	ENDS
;	COMDAT _$E53
text$yd	SEGMENT PARA USE32 PUBLIC 'CODE'
text$yd	ENDS
;	COMDAT _$E49
text$yc	SEGMENT PARA USE32 PUBLIC 'CODE'
text$yc	ENDS
;	COMDAT ??_C@_06GNJIJHFJ@FEMALE?$AA@
CONST	SEGMENT DWORD USE32 PUBLIC 'CONST'
CONST	ENDS
;	COMDAT ??_C@_04EOJIGEKG@MALE?$AA@
CONST	SEGMENT DWORD USE32 PUBLIC 'CONST'
CONST	ENDS
;	COMDAT _$E50
text$yd	SEGMENT PARA USE32 PUBLIC 'CODE'
text$yd	ENDS
;	COMDAT _$E61
text$yc	SEGMENT PARA USE32 PUBLIC 'CODE'
text$yc	ENDS
;	COMDAT ??_C@_04KCNEHMIH@LEFT?$AA@
CONST	SEGMENT DWORD USE32 PUBLIC 'CONST'
CONST	ENDS
;	COMDAT ??_C@_08JJOEDBDF@LEFTDOWN?$AA@
CONST	SEGMENT DWORD USE32 PUBLIC 'CONST'
CONST	ENDS
;	COMDAT ??_C@_04FANAOELO@DOWN?$AA@
CONST	SEGMENT DWORD USE32 PUBLIC 'CONST'
CONST	ENDS
;	COMDAT ??_C@_09HJALCCPH@RIGHTDOWN?$AA@
CONST	SEGMENT DWORD USE32 PUBLIC 'CONST'
CONST	ENDS
;	COMDAT ??_C@_05PMAFOJDE@RIGHT?$AA@
CONST	SEGMENT DWORD USE32 PUBLIC 'CONST'
CONST	ENDS
;	COMDAT ??_C@_07LCDAOECB@RIGHTUP?$AA@
CONST	SEGMENT DWORD USE32 PUBLIC 'CONST'
CONST	ENDS
;	COMDAT ??_C@_02NAHCJHOC@UP?$AA@
CONST	SEGMENT DWORD USE32 PUBLIC 'CONST'
CONST	ENDS
;	COMDAT ??_C@_06PNLNCAEA@LEFTUP?$AA@
CONST	SEGMENT DWORD USE32 PUBLIC 'CONST'
CONST	ENDS
;	COMDAT _$E62
text$yd	SEGMENT PARA USE32 PUBLIC 'CODE'
text$yd	ENDS
;	COMDAT ??1?$list@V?$basic_string@DV?$char_traits@D@_STL@@V?$allocator@D@2@@_STL@@V?$allocator@V?$basic_string@DV?$char_traits@D@_STL@@V?$allocator@D@2@@_STL@@@2@@_STL@@QAE@XZ
_TEXT	SEGMENT PARA USE32 PUBLIC 'CODE'
_TEXT	ENDS
;	COMDAT ??_7Throwable@@6B@
CONST	SEGMENT DWORD USE32 PUBLIC 'CONST'
CONST	ENDS
;	COMDAT ??_R4Throwable@@6B@
rdata$r	SEGMENT DWORD USE32 PUBLIC 'CONST'
rdata$r	ENDS
;	COMDAT ??_R3Throwable@@8
rdata$r	SEGMENT DWORD USE32 PUBLIC 'CONST'
rdata$r	ENDS
;	COMDAT ??_R2Throwable@@8
rdata$r	SEGMENT DWORD USE32 PUBLIC 'CONST'
rdata$r	ENDS
;	COMDAT ??_R1A@?0A@A@Throwable@@8
rdata$r	SEGMENT DWORD USE32 PUBLIC 'CONST'
rdata$r	ENDS
;	COMDAT ??_GThrowable@@UAEPAXI@Z
_TEXT	SEGMENT PARA USE32 PUBLIC 'CODE'
_TEXT	ENDS
;	COMDAT ?getName@Throwable@@UBE?AV?$basic_string@DV?$char_traits@D@_STL@@V?$allocator@D@2@@_STL@@XZ
_TEXT	SEGMENT PARA USE32 PUBLIC 'CODE'
_TEXT	ENDS
;	COMDAT ??_C@_09KCKHMJEM@Throwable?$AA@
CONST	SEGMENT DWORD USE32 PUBLIC 'CONST'
CONST	ENDS
;	COMDAT ?toString@Throwable@@UBE?AV?$basic_string@DV?$char_traits@D@_STL@@V?$allocator@D@2@@_STL@@XZ
_TEXT	SEGMENT PARA USE32 PUBLIC 'CODE'
_TEXT	ENDS
;	COMDAT ??_C@_03MCPBMLDJ@?5?3?5?$AA@
CONST	SEGMENT DWORD USE32 PUBLIC 'CONST'
CONST	ENDS
;	COMDAT ?getStackTrace@Throwable@@QBE?AV?$basic_string@DV?$char_traits@D@_STL@@V?$allocator@D@2@@_STL@@XZ
_TEXT	SEGMENT PARA USE32 PUBLIC 'CODE'
_TEXT	ENDS
;	COMDAT ??E?$_List_iterator@V?$basic_string@DV?$char_traits@D@_STL@@V?$allocator@D@2@@_STL@@U?$_Const_traits@V?$basic_string@DV?$char_traits@D@_STL@@V?$allocator@D@2@@_STL@@@2@@_STL@@QAE?AU01@H@Z
_TEXT	SEGMENT PARA USE32 PUBLIC 'CODE'
_TEXT	ENDS
;	COMDAT ??_C@_01CLKCMJKC@?5?$AA@
CONST	SEGMENT DWORD USE32 PUBLIC 'CONST'
CONST	ENDS
;	COMDAT ??_7Exception@@6B@
CONST	SEGMENT DWORD USE32 PUBLIC 'CONST'
CONST	ENDS
;	COMDAT ??_R4Exception@@6B@
rdata$r	SEGMENT DWORD USE32 PUBLIC 'CONST'
rdata$r	ENDS
;	COMDAT ??_R3Exception@@8
rdata$r	SEGMENT DWORD USE32 PUBLIC 'CONST'
rdata$r	ENDS
;	COMDAT ??_R2Exception@@8
rdata$r	SEGMENT DWORD USE32 PUBLIC 'CONST'
rdata$r	ENDS
;	COMDAT ??_R1A@?0A@A@Exception@@8
rdata$r	SEGMENT DWORD USE32 PUBLIC 'CONST'
rdata$r	ENDS
;	COMDAT ??_GException@@UAEPAXI@Z
_TEXT	SEGMENT PARA USE32 PUBLIC 'CODE'
_TEXT	ENDS
;	COMDAT ?getName@Exception@@UBE?AV?$basic_string@DV?$char_traits@D@_STL@@V?$allocator@D@2@@_STL@@XZ
_TEXT	SEGMENT PARA USE32 PUBLIC 'CODE'
_TEXT	ENDS
;	COMDAT ??_C@_09FBNMMHMJ@Exception?$AA@
CONST	SEGMENT DWORD USE32 PUBLIC 'CONST'
CONST	ENDS
;	COMDAT ??1Throwable@@UAE@XZ
_TEXT	SEGMENT PARA USE32 PUBLIC 'CODE'
_TEXT	ENDS
;	COMDAT ??_7IOException@@6B@
CONST	SEGMENT DWORD USE32 PUBLIC 'CONST'
CONST	ENDS
;	COMDAT ??_R4IOException@@6B@
rdata$r	SEGMENT DWORD USE32 PUBLIC 'CONST'
rdata$r	ENDS
;	COMDAT ??_R3IOException@@8
rdata$r	SEGMENT DWORD USE32 PUBLIC 'CONST'
rdata$r	ENDS
;	COMDAT ??_R2IOException@@8
rdata$r	SEGMENT DWORD USE32 PUBLIC 'CONST'
rdata$r	ENDS
;	COMDAT ??_R1A@?0A@A@IOException@@8
rdata$r	SEGMENT DWORD USE32 PUBLIC 'CONST'
rdata$r	ENDS
;	COMDAT ??_GIOException@@UAEPAXI@Z
_TEXT	SEGMENT PARA USE32 PUBLIC 'CODE'
_TEXT	ENDS
;	COMDAT ?getName@IOException@@UBE?AV?$basic_string@DV?$char_traits@D@_STL@@V?$allocator@D@2@@_STL@@XZ
_TEXT	SEGMENT PARA USE32 PUBLIC 'CODE'
_TEXT	ENDS
;	COMDAT ??_C@_0M@CBPJAJJI@IOException?$AA@
CONST	SEGMENT DWORD USE32 PUBLIC 'CONST'
CONST	ENDS
;	COMDAT ??1Exception@@UAE@XZ
_TEXT	SEGMENT PARA USE32 PUBLIC 'CODE'
_TEXT	ENDS
;	COMDAT ??_7ProtocolException@@6B@
CONST	SEGMENT DWORD USE32 PUBLIC 'CONST'
CONST	ENDS
;	COMDAT ??_R4ProtocolException@@6B@
rdata$r	SEGMENT DWORD USE32 PUBLIC 'CONST'
rdata$r	ENDS
;	COMDAT ??_R3ProtocolException@@8
rdata$r	SEGMENT DWORD USE32 PUBLIC 'CONST'
rdata$r	ENDS
;	COMDAT ??_R2ProtocolException@@8
rdata$r	SEGMENT DWORD USE32 PUBLIC 'CONST'
rdata$r	ENDS
;	COMDAT ??_R1A@?0A@A@ProtocolException@@8
rdata$r	SEGMENT DWORD USE32 PUBLIC 'CONST'
rdata$r	ENDS
;	COMDAT ??_GProtocolException@@UAEPAXI@Z
_TEXT	SEGMENT PARA USE32 PUBLIC 'CODE'
_TEXT	ENDS
;	COMDAT ?getName@ProtocolException@@UBE?AV?$basic_string@DV?$char_traits@D@_STL@@V?$allocator@D@2@@_STL@@XZ
_TEXT	SEGMENT PARA USE32 PUBLIC 'CODE'
_TEXT	ENDS
;	COMDAT ??_C@_0BC@KDBIDNIF@ProtocolException?$AA@
CONST	SEGMENT DWORD USE32 PUBLIC 'CONST'
CONST	ENDS
;	COMDAT ??1IOException@@UAE@XZ
_TEXT	SEGMENT PARA USE32 PUBLIC 'CODE'
_TEXT	ENDS
;	COMDAT ??_7InvalidProtocolException@@6B@
CONST	SEGMENT DWORD USE32 PUBLIC 'CONST'
CONST	ENDS
;	COMDAT ??_R4InvalidProtocolException@@6B@
rdata$r	SEGMENT DWORD USE32 PUBLIC 'CONST'
rdata$r	ENDS
;	COMDAT ??_R3InvalidProtocolException@@8
rdata$r	SEGMENT DWORD USE32 PUBLIC 'CONST'
rdata$r	ENDS
;	COMDAT ??_R2InvalidProtocolException@@8
rdata$r	SEGMENT DWORD USE32 PUBLIC 'CONST'
rdata$r	ENDS
;	COMDAT ??_R1A@?0A@A@InvalidProtocolException@@8
rdata$r	SEGMENT DWORD USE32 PUBLIC 'CONST'
rdata$r	ENDS
;	COMDAT ??_GInvalidProtocolException@@UAEPAXI@Z
_TEXT	SEGMENT PARA USE32 PUBLIC 'CODE'
_TEXT	ENDS
;	COMDAT ?getName@InvalidProtocolException@@UBE?AV?$basic_string@DV?$char_traits@D@_STL@@V?$allocator@D@2@@_STL@@XZ
_TEXT	SEGMENT PARA USE32 PUBLIC 'CODE'
_TEXT	ENDS
;	COMDAT ??_C@_0BJ@BKELNFKP@InvalidProtocolException?$AA@
CONST	SEGMENT DWORD USE32 PUBLIC 'CONST'
CONST	ENDS
;	COMDAT ??1ProtocolException@@UAE@XZ
_TEXT	SEGMENT PARA USE32 PUBLIC 'CODE'
_TEXT	ENDS
;	COMDAT __CTA5?AVInvalidProtocolException@@
xdata$x	SEGMENT DWORD USE32 PUBLIC 'CONST'
xdata$x	ENDS
;	COMDAT __CT??_R0?AVThrowable@@@8??0Throwable@@QAE@ABV0@@Z20
xdata$x	SEGMENT DWORD USE32 PUBLIC 'CONST'
xdata$x	ENDS
;	COMDAT __CT??_R0?AVException@@@8??0Exception@@QAE@ABV0@@Z20
xdata$x	SEGMENT DWORD USE32 PUBLIC 'CONST'
xdata$x	ENDS
;	COMDAT __CT??_R0?AVIOException@@@8??0IOException@@QAE@ABV0@@Z20
xdata$x	SEGMENT DWORD USE32 PUBLIC 'CONST'
xdata$x	ENDS
;	COMDAT __CT??_R0?AVProtocolException@@@8??0ProtocolException@@QAE@ABV0@@Z20
xdata$x	SEGMENT DWORD USE32 PUBLIC 'CONST'
xdata$x	ENDS
;	COMDAT __CT??_R0?AVInvalidProtocolException@@@8??0InvalidProtocolException@@QAE@ABV0@@Z20
xdata$x	SEGMENT DWORD USE32 PUBLIC 'CONST'
xdata$x	ENDS
;	COMDAT ??_R0?AVException@@@8
_DATA	SEGMENT DWORD USE32 PUBLIC 'DATA'
_DATA	ENDS
;	COMDAT ??_R0?AVIOException@@@8
_DATA	SEGMENT DWORD USE32 PUBLIC 'DATA'
_DATA	ENDS
;	COMDAT ??_R0?AVProtocolException@@@8
_DATA	SEGMENT DWORD USE32 PUBLIC 'DATA'
_DATA	ENDS
;	COMDAT ??_R0?AVInvalidProtocolException@@@8
_DATA	SEGMENT DWORD USE32 PUBLIC 'DATA'
_DATA	ENDS
;	COMDAT ??_R0?AVThrowable@@@8
_DATA	SEGMENT DWORD USE32 PUBLIC 'DATA'
_DATA	ENDS
;	COMDAT __TI5?AVInvalidProtocolException@@
xdata$x	SEGMENT DWORD USE32 PUBLIC 'CONST'
xdata$x	ENDS
;	COMDAT ??1InvalidProtocolException@@UAE@XZ
_TEXT	SEGMENT PARA USE32 PUBLIC 'CODE'
_TEXT	ENDS
;	COMDAT ??1?$allocator@D@_STL@@QAE@XZ
_TEXT	SEGMENT PARA USE32 PUBLIC 'CODE'
_TEXT	ENDS
;	COMDAT ??0?$allocator@D@_STL@@QAE@XZ
_TEXT	SEGMENT PARA USE32 PUBLIC 'CODE'
_TEXT	ENDS
;	COMDAT ??0?$basic_string@DV?$char_traits@D@_STL@@V?$allocator@D@2@@_STL@@QAE@PBDABV?$allocator@D@1@@Z
_TEXT	SEGMENT PARA USE32 PUBLIC 'CODE'
_TEXT	ENDS
;	COMDAT ??1?$_String_base@DV?$allocator@D@_STL@@@_STL@@QAE@XZ
_TEXT	SEGMENT PARA USE32 PUBLIC 'CODE'
_TEXT	ENDS
;	COMDAT ??0InvalidProtocolException@@QAE@V?$basic_string@DV?$char_traits@D@_STL@@V?$allocator@D@2@@_STL@@@Z
_TEXT	SEGMENT PARA USE32 PUBLIC 'CODE'
_TEXT	ENDS
;	COMDAT ??0ProtocolException@@QAE@V?$basic_string@DV?$char_traits@D@_STL@@V?$allocator@D@2@@_STL@@@Z
_TEXT	SEGMENT PARA USE32 PUBLIC 'CODE'
_TEXT	ENDS
;	COMDAT ??0IOException@@QAE@V?$basic_string@DV?$char_traits@D@_STL@@V?$allocator@D@2@@_STL@@@Z
_TEXT	SEGMENT PARA USE32 PUBLIC 'CODE'
_TEXT	ENDS
;	COMDAT ??0Exception@@QAE@V?$basic_string@DV?$char_traits@D@_STL@@V?$allocator@D@2@@_STL@@@Z
_TEXT	SEGMENT PARA USE32 PUBLIC 'CODE'
_TEXT	ENDS
;	COMDAT ??0Throwable@@QAE@V?$basic_string@DV?$char_traits@D@_STL@@V?$allocator@D@2@@_STL@@@Z
_TEXT	SEGMENT PARA USE32 PUBLIC 'CODE'
_TEXT	ENDS
;	COMDAT ??0?$list@V?$basic_string@DV?$char_traits@D@_STL@@V?$allocator@D@2@@_STL@@V?$allocator@V?$basic_string@DV?$char_traits@D@_STL@@V?$allocator@D@2@@_STL@@@2@@_STL@@QAE@ABV?$allocator@V?$basic_string@DV?$char_traits@D@_STL@@V?$allocator@D@2@@_STL@@@1@@Z
_TEXT	SEGMENT PARA USE32 PUBLIC 'CODE'
_TEXT	ENDS
;	COMDAT ??0?$allocator@V?$basic_string@DV?$char_traits@D@_STL@@V?$allocator@D@2@@_STL@@@_STL@@QAE@XZ
_TEXT	SEGMENT PARA USE32 PUBLIC 'CODE'
_TEXT	ENDS
;	COMDAT ??4?$basic_string@DV?$char_traits@D@_STL@@V?$allocator@D@2@@_STL@@QAEAAV01@ABV01@@Z
_TEXT	SEGMENT PARA USE32 PUBLIC 'CODE'
_TEXT	ENDS
;	COMDAT ??$assign@PAD@?$basic_string@DV?$char_traits@D@_STL@@V?$allocator@D@2@@_STL@@QAEAAV01@PAD0@Z
_TEXT	SEGMENT PARA USE32 PUBLIC 'CODE'
_TEXT	ENDS
;	COMDAT ??0?$basic_string@DV?$char_traits@D@_STL@@V?$allocator@D@2@@_STL@@QAE@XZ
_TEXT	SEGMENT PARA USE32 PUBLIC 'CODE'
_TEXT	ENDS
;	COMDAT ??_7PCSlayerInfo3@@6B@
CONST	SEGMENT DWORD USE32 PUBLIC 'CONST'
CONST	ENDS
;	COMDAT ??_7PCInfo@@6B@
CONST	SEGMENT DWORD USE32 PUBLIC 'CONST'
CONST	ENDS
;	COMDAT ??1?$basic_string@DV?$char_traits@D@_STL@@V?$allocator@D@2@@_STL@@QAE@XZ
_TEXT	SEGMENT PARA USE32 PUBLIC 'CODE'
_TEXT	ENDS
;	COMDAT ??0?$basic_string@DV?$char_traits@D@_STL@@V?$allocator@D@2@@_STL@@QAE@ABV01@@Z
_TEXT	SEGMENT PARA USE32 PUBLIC 'CODE'
_TEXT	ENDS
sxdata	SEGMENT DWORD USE32 'SXDATA'
sxdata	ENDS
FLAT	GROUP _DATA, CONST, _BSS
	ASSUME	CS: FLAT, DS: FLAT, SS: FLAT
endif

INCLUDELIB LIBCMT
INCLUDELIB OLDNAMES

PUBLIC	??2@YAPAXIPAX@Z					; operator new
; Function compile flags: /Ogsy
; File c:\program files\microsoft visual studio .net 2003\vc7\include\new
;	COMDAT ??2@YAPAXIPAX@Z
_TEXT	SEGMENT
___formal$ = 8						; size = 4
__Where$ = 12						; size = 4
??2@YAPAXIPAX@Z PROC NEAR				; operator new, COMDAT

; 64   : 	return (_Where);

  00000	8b 44 24 08	 mov	 eax, DWORD PTR __Where$[esp-4]

; 65   : 	}

  00004	c3		 ret	 0
??2@YAPAXIPAX@Z ENDP					; operator new
_TEXT	ENDS
PUBLIC	??3@YAXPAX0@Z					; operator delete
; Function compile flags: /Ogsy
;	COMDAT ??3@YAXPAX0@Z
_TEXT	SEGMENT
___formal$ = 8						; size = 4
___formal$ = 12						; size = 4
??3@YAXPAX0@Z PROC NEAR					; operator delete, COMDAT

; 69   : 	}

  00000	c3		 ret	 0
??3@YAXPAX0@Z ENDP					; operator delete
_TEXT	ENDS
PUBLIC	?__stl_new@_STL@@YAPAXI@Z			; _STL::__stl_new
EXTRN	??2@YAPAXI@Z:NEAR				; operator new
; Function compile flags: /Ogsy
; File c:\stlport-4.6.1\stlport\stl\_new.h
;	COMDAT ?__stl_new@_STL@@YAPAXI@Z
_TEXT	SEGMENT
___n$ = 8						; size = 4
?__stl_new@_STL@@YAPAXI@Z PROC NEAR			; _STL::__stl_new, COMDAT

; 86   : inline void*  _STLP_CALL __stl_new(size_t __n)   { _STLP_CHECK_NULL_ALLOC(::operator _STLP_NEW(__n)); }

  00000	e9 00 00 00 00	 jmp	 ??2@YAPAXI@Z		; operator new
?__stl_new@_STL@@YAPAXI@Z ENDP				; _STL::__stl_new
_TEXT	ENDS
PUBLIC	?__stl_delete@_STL@@YAXPAX@Z			; _STL::__stl_delete
EXTRN	??3@YAXPAX@Z:NEAR				; operator delete
; Function compile flags: /Ogsy
;	COMDAT ?__stl_delete@_STL@@YAXPAX@Z
_TEXT	SEGMENT
___p$ = 8						; size = 4
?__stl_delete@_STL@@YAXPAX@Z PROC NEAR			; _STL::__stl_delete, COMDAT

; 87   : inline void   _STLP_CALL __stl_delete(void* __p) { ::operator delete(__p); }

  00000	e9 00 00 00 00	 jmp	 ??3@YAXPAX@Z		; operator delete
?__stl_delete@_STL@@YAXPAX@Z ENDP			; _STL::__stl_delete
_TEXT	ENDS
PUBLIC	?read@SocketInputStream@@QAEIAAE@Z		; SocketInputStream::read
EXTRN	?read@SocketInputStream@@QAEIPADI@Z:NEAR	; SocketInputStream::read
; Function compile flags: /Ogsy
; File c:\darkeden\designed_common\project\client\packet\socketinputstream.h
;	COMDAT ?read@SocketInputStream@@QAEIAAE@Z
_TEXT	SEGMENT
_buf$ = 8						; size = 4
?read@SocketInputStream@@QAEIAAE@Z PROC NEAR		; SocketInputStream::read, COMDAT
; _this$ = ecx

; 69   : 	uint read ( uchar  & buf ) throw ( ProtocolException , Error ) { return read( (char*)&buf, szuchar  ); }

  00000	6a 01		 push	 1
  00002	ff 74 24 08	 push	 DWORD PTR _buf$[esp]
  00006	e8 00 00 00 00	 call	 ?read@SocketInputStream@@QAEIPADI@Z ; SocketInputStream::read
  0000b	c2 04 00	 ret	 4
?read@SocketInputStream@@QAEIAAE@Z ENDP			; SocketInputStream::read
_TEXT	ENDS
PUBLIC	?read@SocketInputStream@@QAEIAAG@Z		; SocketInputStream::read
; Function compile flags: /Ogsy
;	COMDAT ?read@SocketInputStream@@QAEIAAG@Z
_TEXT	SEGMENT
_buf$ = 8						; size = 4
?read@SocketInputStream@@QAEIAAG@Z PROC NEAR		; SocketInputStream::read, COMDAT
; _this$ = ecx

; 71   : 	uint read ( ushort & buf ) throw ( ProtocolException , Error ) { return read( (char*)&buf, szushort ); }

  00000	6a 02		 push	 2
  00002	ff 74 24 08	 push	 DWORD PTR _buf$[esp]
  00006	e8 00 00 00 00	 call	 ?read@SocketInputStream@@QAEIPADI@Z ; SocketInputStream::read
  0000b	c2 04 00	 ret	 4
?read@SocketInputStream@@QAEIAAG@Z ENDP			; SocketInputStream::read
_TEXT	ENDS
PUBLIC	?read@SocketInputStream@@QAEIAAH@Z		; SocketInputStream::read
; Function compile flags: /Ogsy
;	COMDAT ?read@SocketInputStream@@QAEIAAH@Z
_TEXT	SEGMENT
_buf$ = 8						; size = 4
?read@SocketInputStream@@QAEIAAH@Z PROC NEAR		; SocketInputStream::read, COMDAT
; _this$ = ecx

; 72   : 	uint read ( int    & buf ) throw ( ProtocolException , Error ) { return read( (char*)&buf, szint    ); }

  00000	6a 04		 push	 4
  00002	ff 74 24 08	 push	 DWORD PTR _buf$[esp]
  00006	e8 00 00 00 00	 call	 ?read@SocketInputStream@@QAEIPADI@Z ; SocketInputStream::read
  0000b	c2 04 00	 ret	 4
?read@SocketInputStream@@QAEIAAH@Z ENDP			; SocketInputStream::read
_TEXT	ENDS
PUBLIC	?read@SocketInputStream@@QAEIAAI@Z		; SocketInputStream::read
; Function compile flags: /Ogsy
;	COMDAT ?read@SocketInputStream@@QAEIAAI@Z
_TEXT	SEGMENT
_buf$ = 8						; size = 4
?read@SocketInputStream@@QAEIAAI@Z PROC NEAR		; SocketInputStream::read, COMDAT
; _this$ = ecx

; 73   : 	uint read ( uint   & buf ) throw ( ProtocolException , Error ) { return read( (char*)&buf, szuint   ); }

  00000	6a 04		 push	 4
  00002	ff 74 24 08	 push	 DWORD PTR _buf$[esp]
  00006	e8 00 00 00 00	 call	 ?read@SocketInputStream@@QAEIPADI@Z ; SocketInputStream::read
  0000b	c2 04 00	 ret	 4
?read@SocketInputStream@@QAEIAAI@Z ENDP			; SocketInputStream::read
_TEXT	ENDS
PUBLIC	?read@SocketInputStream@@QAEIAAK@Z		; SocketInputStream::read
; Function compile flags: /Ogsy
;	COMDAT ?read@SocketInputStream@@QAEIAAK@Z
_TEXT	SEGMENT
_buf$ = 8						; size = 4
?read@SocketInputStream@@QAEIAAK@Z PROC NEAR		; SocketInputStream::read, COMDAT
; _this$ = ecx

; 75   : 	uint read ( ulong  & buf ) throw ( ProtocolException , Error ) { return read( (char*)&buf, szulong  ); }

  00000	6a 04		 push	 4
  00002	ff 74 24 08	 push	 DWORD PTR _buf$[esp]
  00006	e8 00 00 00 00	 call	 ?read@SocketInputStream@@QAEIPADI@Z ; SocketInputStream::read
  0000b	c2 04 00	 ret	 4
?read@SocketInputStream@@QAEIAAK@Z ENDP			; SocketInputStream::read
_TEXT	ENDS
PUBLIC	?_Destroy@_STL@@YAXPAD0@Z			; _STL::_Destroy
; Function compile flags: /Ogsy
; File c:\stlport-4.6.1\stlport\stl\_construct.h
;	COMDAT ?_Destroy@_STL@@YAXPAD0@Z
_TEXT	SEGMENT
___formal$ = 8						; size = 4
___formal$ = 12						; size = 4
?_Destroy@_STL@@YAXPAD0@Z PROC NEAR			; _STL::_Destroy, COMDAT

; 142  : inline void _Destroy(char*, char*) {}

  00000	c3		 ret	 0
?_Destroy@_STL@@YAXPAD0@Z ENDP				; _STL::_Destroy
_TEXT	ENDS
PUBLIC	?__copy_trivial@_STL@@YAPAXPBX0PAX@Z		; _STL::__copy_trivial
EXTRN	_memmove:NEAR
; Function compile flags: /Ogsy
; File c:\stlport-4.6.1\stlport\stl\_algobase.h
;	COMDAT ?__copy_trivial@_STL@@YAPAXPBX0PAX@Z
_TEXT	SEGMENT
___first$ = 8						; size = 4
___last$ = 12						; size = 4
___result$ = 16						; size = 4
?__copy_trivial@_STL@@YAPAXPBX0PAX@Z PROC NEAR		; _STL::__copy_trivial, COMDAT

; 147  : __copy_trivial(const void* __first, const void* __last, void* __result) {

  00000	55		 push	 ebp
  00001	8b ec		 mov	 ebp, esp
  00003	56		 push	 esi

; 148  :   return (__last == __first) ? __result : 
; 149  :     ((char*)memmove(__result, __first, ((const char*)__last - (const char*)__first))) + 
; 150  :     ((const char*)__last - (const char*)__first);

  00004	8b 75 0c	 mov	 esi, DWORD PTR ___last$[ebp]
  00007	3b 75 08	 cmp	 esi, DWORD PTR ___first$[ebp]
  0000a	75 05		 jne	 SHORT $L101848
  0000c	8b 45 10	 mov	 eax, DWORD PTR ___result$[ebp]
  0000f	eb 14		 jmp	 SHORT $L101849
$L101848:
  00011	2b 75 08	 sub	 esi, DWORD PTR ___first$[ebp]
  00014	56		 push	 esi
  00015	ff 75 08	 push	 DWORD PTR ___first$[ebp]
  00018	ff 75 10	 push	 DWORD PTR ___result$[ebp]
  0001b	e8 00 00 00 00	 call	 _memmove
  00020	83 c4 0c	 add	 esp, 12			; 0000000cH
  00023	03 c6		 add	 eax, esi
$L101849:
  00025	5e		 pop	 esi

; 151  : }

  00026	5d		 pop	 ebp
  00027	c3		 ret	 0
?__copy_trivial@_STL@@YAPAXPBX0PAX@Z ENDP		; _STL::__copy_trivial
_TEXT	ENDS
PUBLIC	?write@SocketOutputStream@@QAEIE@Z		; SocketOutputStream::write
EXTRN	?write@SocketOutputStream@@QAEIPBDI@Z:NEAR	; SocketOutputStream::write
; Function compile flags: /Ogsy
; File c:\darkeden\designed_common\project\client\packet\socketoutputstream.h
;	COMDAT ?write@SocketOutputStream@@QAEIE@Z
_TEXT	SEGMENT
_buf$ = 8						; size = 1
?write@SocketOutputStream@@QAEIE@Z PROC NEAR		; SocketOutputStream::write, COMDAT
; _this$ = ecx

; 62   :     uint write ( uchar  buf ) throw ( ProtocolException , Error ) { return write( (const char*)&buf, szuchar  ); }

  00000	6a 01		 push	 1
  00002	8d 44 24 08	 lea	 eax, DWORD PTR _buf$[esp]
  00006	50		 push	 eax
  00007	e8 00 00 00 00	 call	 ?write@SocketOutputStream@@QAEIPBDI@Z ; SocketOutputStream::write
  0000c	c2 04 00	 ret	 4
?write@SocketOutputStream@@QAEIE@Z ENDP			; SocketOutputStream::write
_TEXT	ENDS
PUBLIC	?write@SocketOutputStream@@QAEIG@Z		; SocketOutputStream::write
; Function compile flags: /Ogsy
;	COMDAT ?write@SocketOutputStream@@QAEIG@Z
_TEXT	SEGMENT
_buf$ = 8						; size = 2
?write@SocketOutputStream@@QAEIG@Z PROC NEAR		; SocketOutputStream::write, COMDAT
; _this$ = ecx

; 64   :     uint write ( ushort buf ) throw ( ProtocolException , Error ) { return write( (const char*)&buf, szushort ); }

  00000	6a 02		 push	 2
  00002	8d 44 24 08	 lea	 eax, DWORD PTR _buf$[esp]
  00006	50		 push	 eax
  00007	e8 00 00 00 00	 call	 ?write@SocketOutputStream@@QAEIPBDI@Z ; SocketOutputStream::write
  0000c	c2 04 00	 ret	 4
?write@SocketOutputStream@@QAEIG@Z ENDP			; SocketOutputStream::write
_TEXT	ENDS
PUBLIC	?write@SocketOutputStream@@QAEIH@Z		; SocketOutputStream::write
; Function compile flags: /Ogsy
;	COMDAT ?write@SocketOutputStream@@QAEIH@Z
_TEXT	SEGMENT
_buf$ = 8						; size = 4
?write@SocketOutputStream@@QAEIH@Z PROC NEAR		; SocketOutputStream::write, COMDAT
; _this$ = ecx

; 65   :     uint write ( int    buf ) throw ( ProtocolException , Error ) { return write( (const char*)&buf, szint    ); }

  00000	6a 04		 push	 4
  00002	8d 44 24 08	 lea	 eax, DWORD PTR _buf$[esp]
  00006	50		 push	 eax
  00007	e8 00 00 00 00	 call	 ?write@SocketOutputStream@@QAEIPBDI@Z ; SocketOutputStream::write
  0000c	c2 04 00	 ret	 4
?write@SocketOutputStream@@QAEIH@Z ENDP			; SocketOutputStream::write
_TEXT	ENDS
PUBLIC	?write@SocketOutputStream@@QAEII@Z		; SocketOutputStream::write
; Function compile flags: /Ogsy
;	COMDAT ?write@SocketOutputStream@@QAEII@Z
_TEXT	SEGMENT
_buf$ = 8						; size = 4
?write@SocketOutputStream@@QAEII@Z PROC NEAR		; SocketOutputStream::write, COMDAT
; _this$ = ecx

; 66   :     uint write ( uint   buf ) throw ( ProtocolException , Error ) { return write( (const char*)&buf, szuint   ); }

  00000	6a 04		 push	 4
  00002	8d 44 24 08	 lea	 eax, DWORD PTR _buf$[esp]
  00006	50		 push	 eax
  00007	e8 00 00 00 00	 call	 ?write@SocketOutputStream@@QAEIPBDI@Z ; SocketOutputStream::write
  0000c	c2 04 00	 ret	 4
?write@SocketOutputStream@@QAEII@Z ENDP			; SocketOutputStream::write
_TEXT	ENDS
PUBLIC	?write@SocketOutputStream@@QAEIK@Z		; SocketOutputStream::write
; Function compile flags: /Ogsy
;	COMDAT ?write@SocketOutputStream@@QAEIK@Z
_TEXT	SEGMENT
_buf$ = 8						; size = 4
?write@SocketOutputStream@@QAEIK@Z PROC NEAR		; SocketOutputStream::write, COMDAT
; _this$ = ecx

; 68   :     uint write ( ulong  buf ) throw ( ProtocolException , Error ) { return write( (const char*)&buf, szulong  ); }

  00000	6a 04		 push	 4
  00002	8d 44 24 08	 lea	 eax, DWORD PTR _buf$[esp]
  00006	50		 push	 eax
  00007	e8 00 00 00 00	 call	 ?write@SocketOutputStream@@QAEIPBDI@Z ; SocketOutputStream::write
  0000c	c2 04 00	 ret	 4
?write@SocketOutputStream@@QAEIK@Z ENDP			; SocketOutputStream::write
_TEXT	ENDS
PUBLIC	?uninitialized_copy@_STL@@YAPADPBD0PAD@Z	; _STL::uninitialized_copy
; Function compile flags: /Ogsy
; File c:\stlport-4.6.1\stlport\stl\_uninitialized.h
;	COMDAT ?uninitialized_copy@_STL@@YAPADPBD0PAD@Z
_TEXT	SEGMENT
___first$ = 8						; size = 4
___last$ = 12						; size = 4
___result$ = 16						; size = 4
?uninitialized_copy@_STL@@YAPADPBD0PAD@Z PROC NEAR	; _STL::uninitialized_copy, COMDAT

; 84   :   return  (char*)__copy_trivial (__first, __last, __result);

  00000	e9 00 00 00 00	 jmp	 ?__copy_trivial@_STL@@YAPAXPBX0PAX@Z ; _STL::__copy_trivial
?uninitialized_copy@_STL@@YAPADPBD0PAD@Z ENDP		; _STL::uninitialized_copy
_TEXT	ENDS
PUBLIC	?to_int_type@?$char_traits@D@_STL@@SAHABD@Z	; _STL::char_traits<char>::to_int_type
; Function compile flags: /Ogsy
; File c:\stlport-4.6.1\stlport\stl\char_traits.h
;	COMDAT ?to_int_type@?$char_traits@D@_STL@@SAHABD@Z
_TEXT	SEGMENT
___c$ = 8						; size = 4
?to_int_type@?$char_traits@D@_STL@@SAHABD@Z PROC NEAR	; _STL::char_traits<char>::to_int_type, COMDAT

; 232  :     return (unsigned char)__c;

  00000	8b 44 24 04	 mov	 eax, DWORD PTR ___c$[esp-4]
  00004	0f b6 00	 movzx	 eax, BYTE PTR [eax]

; 233  :   }

  00007	c3		 ret	 0
?to_int_type@?$char_traits@D@_STL@@SAHABD@Z ENDP	; _STL::char_traits<char>::to_int_type
_TEXT	ENDS
PUBLIC	?length@?$char_traits@D@_STL@@SAIPBD@Z		; _STL::char_traits<char>::length
EXTRN	_strlen:NEAR
; Function compile flags: /Ogsy
;	COMDAT ?length@?$char_traits@D@_STL@@SAIPBD@Z
_TEXT	SEGMENT
___s$ = 8						; size = 4
?length@?$char_traits@D@_STL@@SAIPBD@Z PROC NEAR	; _STL::char_traits<char>::length, COMDAT

; 238  :   static size_t _STLP_CALL length(const char* __s) { return strlen(__s); }

  00000	e9 00 00 00 00	 jmp	 _strlen
?length@?$char_traits@D@_STL@@SAIPBD@Z ENDP		; _STL::char_traits<char>::length
_TEXT	ENDS
PUBLIC	?widen@?$ctype@D@_STL@@QBEDD@Z			; _STL::ctype<char>::widen
; Function compile flags: /Ogsy
; File c:\stlport-4.6.1\stlport\stl\_ctype.h
;	COMDAT ?widen@?$ctype@D@_STL@@QBEDD@Z
_TEXT	SEGMENT
___c$ = 8						; size = 1
?widen@?$ctype@D@_STL@@QBEDD@Z PROC NEAR		; _STL::ctype<char>::widen, COMDAT
; _this$ = ecx

; 102  :   char        widen(char __c) const { return do_widen(__c); }

  00000	8b 01		 mov	 eax, DWORD PTR [ecx]
  00002	ff 60 18	 jmp	 DWORD PTR [eax+24]
?widen@?$ctype@D@_STL@@QBEDD@Z ENDP			; _STL::ctype<char>::widen
_TEXT	ENDS
PUBLIC	?getHairColor@PCSlayerInfo3@@QBEGXZ		; PCSlayerInfo3::getHairColor
; Function compile flags: /Ogsy
; File c:\darkeden\designed_common\project\client\packet\pcslayerinfo3.h
;	COMDAT ?getHairColor@PCSlayerInfo3@@QBEGXZ
_TEXT	SEGMENT
?getHairColor@PCSlayerInfo3@@QBEGXZ PROC NEAR		; PCSlayerInfo3::getHairColor, COMDAT
; _this$ = ecx

; 377  : 		return m_Colors[ SLAYER_COLOR_HAIR ]; 

  00000	66 8b 41 24	 mov	 ax, WORD PTR [ecx+36]

; 378  : 	}

  00004	c3		 ret	 0
?getHairColor@PCSlayerInfo3@@QBEGXZ ENDP		; PCSlayerInfo3::getHairColor
_TEXT	ENDS
PUBLIC	?getSkinColor@PCSlayerInfo3@@QBEGXZ		; PCSlayerInfo3::getSkinColor
; Function compile flags: /Ogsy
;	COMDAT ?getSkinColor@PCSlayerInfo3@@QBEGXZ
_TEXT	SEGMENT
?getSkinColor@PCSlayerInfo3@@QBEGXZ PROC NEAR		; PCSlayerInfo3::getSkinColor, COMDAT
; _this$ = ecx

; 386  : 		return m_Colors[ SLAYER_COLOR_SKIN ]; 

  00000	66 8b 41 26	 mov	 ax, WORD PTR [ecx+38]

; 387  : 	}

  00004	c3		 ret	 0
?getSkinColor@PCSlayerInfo3@@QBEGXZ ENDP		; PCSlayerInfo3::getSkinColor
_TEXT	ENDS
PUBLIC	?getHelmetColor@PCSlayerInfo3@@QBEGW4ColorType@@@Z ; PCSlayerInfo3::getHelmetColor
; Function compile flags: /Ogsy
;	COMDAT ?getHelmetColor@PCSlayerInfo3@@QBEGW4ColorType@@@Z
_TEXT	SEGMENT
_colorType$ = 8						; size = 4
?getHelmetColor@PCSlayerInfo3@@QBEGW4ColorType@@@Z PROC NEAR ; PCSlayerInfo3::getHelmetColor, COMDAT
; _this$ = ecx

; 395  : 		return m_Colors[ SLAYER_COLOR_HELMET + (uint)colorType ]; 

  00000	8b 44 24 04	 mov	 eax, DWORD PTR _colorType$[esp-4]
  00004	66 8b 44 41 28	 mov	 ax, WORD PTR [ecx+eax*2+40]

; 396  : 	}

  00009	c2 04 00	 ret	 4
?getHelmetColor@PCSlayerInfo3@@QBEGW4ColorType@@@Z ENDP	; PCSlayerInfo3::getHelmetColor
_TEXT	ENDS
PUBLIC	?getJacketColor@PCSlayerInfo3@@QBEGW4ColorType@@@Z ; PCSlayerInfo3::getJacketColor
; Function compile flags: /Ogsy
;	COMDAT ?getJacketColor@PCSlayerInfo3@@QBEGW4ColorType@@@Z
_TEXT	SEGMENT
_colorType$ = 8						; size = 4
?getJacketColor@PCSlayerInfo3@@QBEGW4ColorType@@@Z PROC NEAR ; PCSlayerInfo3::getJacketColor, COMDAT
; _this$ = ecx

; 404  : 		return m_Colors[ SLAYER_COLOR_JACKET + (uint)colorType ]; 

  00000	8b 44 24 04	 mov	 eax, DWORD PTR _colorType$[esp-4]
  00004	66 8b 44 41 2a	 mov	 ax, WORD PTR [ecx+eax*2+42]

; 405  : 	}

  00009	c2 04 00	 ret	 4
?getJacketColor@PCSlayerInfo3@@QBEGW4ColorType@@@Z ENDP	; PCSlayerInfo3::getJacketColor
_TEXT	ENDS
PUBLIC	?getPantsColor@PCSlayerInfo3@@QBEGW4ColorType@@@Z ; PCSlayerInfo3::getPantsColor
; Function compile flags: /Ogsy
;	COMDAT ?getPantsColor@PCSlayerInfo3@@QBEGW4ColorType@@@Z
_TEXT	SEGMENT
_colorType$ = 8						; size = 4
?getPantsColor@PCSlayerInfo3@@QBEGW4ColorType@@@Z PROC NEAR ; PCSlayerInfo3::getPantsColor, COMDAT
; _this$ = ecx

; 413  : 		return m_Colors[ SLAYER_COLOR_PANTS + (uint)colorType ]; 

  00000	8b 44 24 04	 mov	 eax, DWORD PTR _colorType$[esp-4]
  00004	66 8b 44 41 2c	 mov	 ax, WORD PTR [ecx+eax*2+44]

; 414  : 	}

  00009	c2 04 00	 ret	 4
?getPantsColor@PCSlayerInfo3@@QBEGW4ColorType@@@Z ENDP	; PCSlayerInfo3::getPantsColor
_TEXT	ENDS
PUBLIC	?getWeaponColor@PCSlayerInfo3@@QBEGW4ColorType@@@Z ; PCSlayerInfo3::getWeaponColor
; Function compile flags: /Ogsy
;	COMDAT ?getWeaponColor@PCSlayerInfo3@@QBEGW4ColorType@@@Z
_TEXT	SEGMENT
_colorType$ = 8						; size = 4
?getWeaponColor@PCSlayerInfo3@@QBEGW4ColorType@@@Z PROC NEAR ; PCSlayerInfo3::getWeaponColor, COMDAT
; _this$ = ecx

; 422  : 		return m_Colors[ SLAYER_COLOR_WEAPON + (uint)colorType ]; 

  00000	8b 44 24 04	 mov	 eax, DWORD PTR _colorType$[esp-4]
  00004	66 8b 44 41 2e	 mov	 ax, WORD PTR [ecx+eax*2+46]

; 423  : 	}

  00009	c2 04 00	 ret	 4
?getWeaponColor@PCSlayerInfo3@@QBEGW4ColorType@@@Z ENDP	; PCSlayerInfo3::getWeaponColor
_TEXT	ENDS
PUBLIC	?getShieldColor@PCSlayerInfo3@@QBEGW4ColorType@@@Z ; PCSlayerInfo3::getShieldColor
; Function compile flags: /Ogsy
;	COMDAT ?getShieldColor@PCSlayerInfo3@@QBEGW4ColorType@@@Z
_TEXT	SEGMENT
_colorType$ = 8						; size = 4
?getShieldColor@PCSlayerInfo3@@QBEGW4ColorType@@@Z PROC NEAR ; PCSlayerInfo3::getShieldColor, COMDAT
; _this$ = ecx

; 431  : 		return m_Colors[ SLAYER_COLOR_SHIELD + (uint)colorType ]; 

  00000	8b 44 24 04	 mov	 eax, DWORD PTR _colorType$[esp-4]
  00004	66 8b 44 41 30	 mov	 ax, WORD PTR [ecx+eax*2+48]

; 432  : 	}

  00009	c2 04 00	 ret	 4
?getShieldColor@PCSlayerInfo3@@QBEGW4ColorType@@@Z ENDP	; PCSlayerInfo3::getShieldColor
_TEXT	ENDS
PUBLIC	?getMotorcycleColor@PCSlayerInfo3@@QBEGW4ColorType@@@Z ; PCSlayerInfo3::getMotorcycleColor
; Function compile flags: /Ogsy
;	COMDAT ?getMotorcycleColor@PCSlayerInfo3@@QBEGW4ColorType@@@Z
_TEXT	SEGMENT
_colorType$ = 8						; size = 4
?getMotorcycleColor@PCSlayerInfo3@@QBEGW4ColorType@@@Z PROC NEAR ; PCSlayerInfo3::getMotorcycleColor, COMDAT
; _this$ = ecx

; 440  : 		return m_Colors[ SLAYER_COLOR_MOTORCYCLE + (uint)colorType ]; 

  00000	8b 44 24 04	 mov	 eax, DWORD PTR _colorType$[esp-4]
  00004	66 8b 44 41 32	 mov	 ax, WORD PTR [ecx+eax*2+50]

; 441  : 	}

  00009	c2 04 00	 ret	 4
?getMotorcycleColor@PCSlayerInfo3@@QBEGW4ColorType@@@Z ENDP ; PCSlayerInfo3::getMotorcycleColor
_TEXT	ENDS
PUBLIC	?flags@ios_base@_STL@@QBEHXZ			; _STL::ios_base::flags
; Function compile flags: /Ogsy
; File c:\stlport-4.6.1\stlport\stl\_ios_base.h
;	COMDAT ?flags@ios_base@_STL@@QBEHXZ
_TEXT	SEGMENT
?flags@ios_base@_STL@@QBEHXZ PROC NEAR			; _STL::ios_base::flags, COMDAT
; _this$ = ecx

; 115  :   fmtflags flags() const { return _M_fmtflags; }

  00000	8b 41 04	 mov	 eax, DWORD PTR [ecx+4]
  00003	c3		 ret	 0
?flags@ios_base@_STL@@QBEHXZ ENDP			; _STL::ios_base::flags
_TEXT	ENDS
PUBLIC	?width@ios_base@_STL@@QBEHXZ			; _STL::ios_base::width
; Function compile flags: /Ogsy
;	COMDAT ?width@ios_base@_STL@@QBEHXZ
_TEXT	SEGMENT
?width@ios_base@_STL@@QBEHXZ PROC NEAR			; _STL::ios_base::width, COMDAT
; _this$ = ecx

; 142  :   streamsize width() const { return _M_width; }

  00000	8b 41 1c	 mov	 eax, DWORD PTR [ecx+28]
  00003	c3		 ret	 0
?width@ios_base@_STL@@QBEHXZ ENDP			; _STL::ios_base::width
_TEXT	ENDS
PUBLIC	?width@ios_base@_STL@@QAEHH@Z			; _STL::ios_base::width
; Function compile flags: /Ogsy
;	COMDAT ?width@ios_base@_STL@@QAEHH@Z
_TEXT	SEGMENT
___newwidth$ = 8					; size = 4
?width@ios_base@_STL@@QAEHH@Z PROC NEAR			; _STL::ios_base::width, COMDAT
; _this$ = ecx

; 144  :     streamsize __tmp = _M_width;
; 145  :     _M_width = __newwidth;

  00000	8b 54 24 04	 mov	 edx, DWORD PTR ___newwidth$[esp-4]
  00004	8b 41 1c	 mov	 eax, DWORD PTR [ecx+28]
  00007	89 51 1c	 mov	 DWORD PTR [ecx+28], edx

; 146  :     return __tmp;
; 147  :   }

  0000a	c2 04 00	 ret	 4
?width@ios_base@_STL@@QAEHH@Z ENDP			; _STL::ios_base::width
_TEXT	ENDS
PUBLIC	?rdstate@ios_base@_STL@@QBEHXZ			; _STL::ios_base::rdstate
; Function compile flags: /Ogsy
;	COMDAT ?rdstate@ios_base@_STL@@QBEHXZ
_TEXT	SEGMENT
?rdstate@ios_base@_STL@@QBEHXZ PROC NEAR		; _STL::ios_base::rdstate, COMDAT
; _this$ = ecx

; 178  :   iostate rdstate() const { return _M_iostate; }

  00000	8b 41 08	 mov	 eax, DWORD PTR [ecx+8]
  00003	c3		 ret	 0
?rdstate@ios_base@_STL@@QBEHXZ ENDP			; _STL::ios_base::rdstate
_TEXT	ENDS
PUBLIC	?good@ios_base@_STL@@QBE_NXZ			; _STL::ios_base::good
; Function compile flags: /Ogsy
;	COMDAT ?good@ios_base@_STL@@QBE_NXZ
_TEXT	SEGMENT
?good@ios_base@_STL@@QBE_NXZ PROC NEAR			; _STL::ios_base::good, COMDAT
; _this$ = ecx

; 180  :   bool good() const { return _M_iostate == 0; }

  00000	33 c0		 xor	 eax, eax
  00002	39 41 08	 cmp	 DWORD PTR [ecx+8], eax
  00005	0f 94 c0	 sete	 al
  00008	c3		 ret	 0
?good@ios_base@_STL@@QBE_NXZ ENDP			; _STL::ios_base::good
_TEXT	ENDS
PUBLIC	?_M_setstate_nothrow@ios_base@_STL@@IAEXH@Z	; _STL::ios_base::_M_setstate_nothrow
; Function compile flags: /Ogsy
;	COMDAT ?_M_setstate_nothrow@ios_base@_STL@@IAEXH@Z
_TEXT	SEGMENT
___state$ = 8						; size = 4
?_M_setstate_nothrow@ios_base@_STL@@IAEXH@Z PROC NEAR	; _STL::ios_base::_M_setstate_nothrow, COMDAT
; _this$ = ecx

; 193  :   void _M_setstate_nothrow(iostate __state) { _M_iostate |= __state; }

  00000	8b 44 24 04	 mov	 eax, DWORD PTR ___state$[esp-4]
  00004	09 41 08	 or	 DWORD PTR [ecx+8], eax
  00007	c2 04 00	 ret	 4
?_M_setstate_nothrow@ios_base@_STL@@IAEXH@Z ENDP	; _STL::ios_base::_M_setstate_nothrow
_TEXT	ENDS
PUBLIC	?_M_clear_nothrow@ios_base@_STL@@IAEXH@Z	; _STL::ios_base::_M_clear_nothrow
; Function compile flags: /Ogsy
;	COMDAT ?_M_clear_nothrow@ios_base@_STL@@IAEXH@Z
_TEXT	SEGMENT
___state$ = 8						; size = 4
?_M_clear_nothrow@ios_base@_STL@@IAEXH@Z PROC NEAR	; _STL::ios_base::_M_clear_nothrow, COMDAT
; _this$ = ecx

; 194  :   void _M_clear_nothrow(iostate __state) { _M_iostate = __state; }

  00000	8b 44 24 04	 mov	 eax, DWORD PTR ___state$[esp-4]
  00004	89 41 08	 mov	 DWORD PTR [ecx+8], eax
  00007	c2 04 00	 ret	 4
?_M_clear_nothrow@ios_base@_STL@@IAEXH@Z ENDP		; _STL::ios_base::_M_clear_nothrow
_TEXT	ENDS
PUBLIC	?_M_get_exception_mask@ios_base@_STL@@IBEHXZ	; _STL::ios_base::_M_get_exception_mask
; Function compile flags: /Ogsy
;	COMDAT ?_M_get_exception_mask@ios_base@_STL@@IBEHXZ
_TEXT	SEGMENT
?_M_get_exception_mask@ios_base@_STL@@IBEHXZ PROC NEAR	; _STL::ios_base::_M_get_exception_mask, COMDAT
; _this$ = ecx

; 195  :   iostate _M_get_exception_mask() const { return _M_exception_mask; }

  00000	8b 41 14	 mov	 eax, DWORD PTR [ecx+20]
  00003	c3		 ret	 0
?_M_get_exception_mask@ios_base@_STL@@IBEHXZ ENDP	; _STL::ios_base::_M_get_exception_mask
_TEXT	ENDS
PUBLIC	?_M_check_exception_mask@ios_base@_STL@@IAEXXZ	; _STL::ios_base::_M_check_exception_mask
EXTRN	?_M_throw_failure@ios_base@_STL@@IAEXXZ:NEAR	; _STL::ios_base::_M_throw_failure
; Function compile flags: /Ogsy
;	COMDAT ?_M_check_exception_mask@ios_base@_STL@@IAEXXZ
_TEXT	SEGMENT
?_M_check_exception_mask@ios_base@_STL@@IAEXXZ PROC NEAR ; _STL::ios_base::_M_check_exception_mask, COMDAT
; _this$ = ecx

; 198  :     if (_M_iostate & _M_exception_mask)

  00000	8b 41 14	 mov	 eax, DWORD PTR [ecx+20]
  00003	85 41 08	 test	 eax, DWORD PTR [ecx+8]
  00006	74 05		 je	 SHORT $L79498

; 199  :       _M_throw_failure(); 

  00008	e9 00 00 00 00	 jmp	 ?_M_throw_failure@ios_base@_STL@@IAEXXZ ; _STL::ios_base::_M_throw_failure
$L79498:

; 200  :   }

  0000d	c3		 ret	 0
?_M_check_exception_mask@ios_base@_STL@@IAEXXZ ENDP	; _STL::ios_base::_M_check_exception_mask
_TEXT	ENDS
PUBLIC	?_M_ctype_facet@ios_base@_STL@@QBEPBVfacet@locale@2@XZ ; _STL::ios_base::_M_ctype_facet
; Function compile flags: /Ogsy
;	COMDAT ?_M_ctype_facet@ios_base@_STL@@QBEPBVfacet@locale@2@XZ
_TEXT	SEGMENT
?_M_ctype_facet@ios_base@_STL@@QBEPBVfacet@locale@2@XZ PROC NEAR ; _STL::ios_base::_M_ctype_facet, COMDAT
; _this$ = ecx

; 250  :   const locale::facet* _M_ctype_facet() const { return _M_cached_ctype; }

  00000	8b 41 40	 mov	 eax, DWORD PTR [ecx+64]
  00003	c3		 ret	 0
?_M_ctype_facet@ios_base@_STL@@QBEPBVfacet@locale@2@XZ ENDP ; _STL::ios_base::_M_ctype_facet
_TEXT	ENDS
PUBLIC	?eq_int_type@?$__char_traits_base@DH@_STL@@SA_NABH0@Z ; _STL::__char_traits_base<char,int>::eq_int_type
; Function compile flags: /Ogsy
; File c:\stlport-4.6.1\stlport\stl\char_traits.h
;	COMDAT ?eq_int_type@?$__char_traits_base@DH@_STL@@SA_NABH0@Z
_TEXT	SEGMENT
___c1$ = 8						; size = 4
___c2$ = 12						; size = 4
?eq_int_type@?$__char_traits_base@DH@_STL@@SA_NABH0@Z PROC NEAR ; _STL::__char_traits_base<char,int>::eq_int_type, COMDAT

; 193  :     return __c1 == __c2;

  00000	8b 44 24 04	 mov	 eax, DWORD PTR ___c1$[esp-4]
  00004	8b 00		 mov	 eax, DWORD PTR [eax]
  00006	8b 4c 24 08	 mov	 ecx, DWORD PTR ___c2$[esp-4]
  0000a	2b 01		 sub	 eax, DWORD PTR [ecx]
  0000c	f7 d8		 neg	 eax
  0000e	1b c0		 sbb	 eax, eax
  00010	40		 inc	 eax

; 194  :   }

  00011	c3		 ret	 0
?eq_int_type@?$__char_traits_base@DH@_STL@@SA_NABH0@Z ENDP ; _STL::__char_traits_base<char,int>::eq_int_type
_TEXT	ENDS
PUBLIC	?size@?$basic_string@DV?$char_traits@D@_STL@@V?$allocator@D@2@@_STL@@QBEIXZ ; _STL::basic_string<char,_STL::char_traits<char>,_STL::allocator<char> >::size
; Function compile flags: /Ogsy
; File c:\stlport-4.6.1\stlport\stl\_string.h
;	COMDAT ?size@?$basic_string@DV?$char_traits@D@_STL@@V?$allocator@D@2@@_STL@@QBEIXZ
_TEXT	SEGMENT
?size@?$basic_string@DV?$char_traits@D@_STL@@V?$allocator@D@2@@_STL@@QBEIXZ PROC NEAR ; _STL::basic_string<char,_STL::char_traits<char>,_STL::allocator<char> >::size, COMDAT
; _this$ = ecx

; 431  :   size_type size() const { return this->_M_finish - this->_M_start; }

  00000	8b 41 04	 mov	 eax, DWORD PTR [ecx+4]
  00003	2b 01		 sub	 eax, DWORD PTR [ecx]
  00005	c3		 ret	 0
?size@?$basic_string@DV?$char_traits@D@_STL@@V?$allocator@D@2@@_STL@@QBEIXZ ENDP ; _STL::basic_string<char,_STL::char_traits<char>,_STL::allocator<char> >::size
_TEXT	ENDS
PUBLIC	?c_str@?$basic_string@DV?$char_traits@D@_STL@@V?$allocator@D@2@@_STL@@QBEPBDXZ ; _STL::basic_string<char,_STL::char_traits<char>,_STL::allocator<char> >::c_str
; Function compile flags: /Ogsy
;	COMDAT ?c_str@?$basic_string@DV?$char_traits@D@_STL@@V?$allocator@D@2@@_STL@@QBEPBDXZ
_TEXT	SEGMENT
?c_str@?$basic_string@DV?$char_traits@D@_STL@@V?$allocator@D@2@@_STL@@QBEPBDXZ PROC NEAR ; _STL::basic_string<char,_STL::char_traits<char>,_STL::allocator<char> >::c_str, COMDAT
; _this$ = ecx

; 1065 :   const _CharT* c_str() const { return this->_M_start; }

  00000	8b 01		 mov	 eax, DWORD PTR [ecx]
  00002	c3		 ret	 0
?c_str@?$basic_string@DV?$char_traits@D@_STL@@V?$allocator@D@2@@_STL@@QBEPBDXZ ENDP ; _STL::basic_string<char,_STL::char_traits<char>,_STL::allocator<char> >::c_str
_TEXT	ENDS
PUBLIC	??6?$basic_ostream@DV?$char_traits@D@_STL@@@_STL@@QAEAAV01@P6AAAV01@AAV01@@Z@Z ; _STL::basic_ostream<char,_STL::char_traits<char> >::operator<<
; Function compile flags: /Ogsy
; File c:\stlport-4.6.1\stlport\stl\_ostream.h
;	COMDAT ??6?$basic_ostream@DV?$char_traits@D@_STL@@@_STL@@QAEAAV01@P6AAAV01@AAV01@@Z@Z
_TEXT	SEGMENT
___f$ = 8						; size = 4
??6?$basic_ostream@DV?$char_traits@D@_STL@@@_STL@@QAEAAV01@P6AAAV01@AAV01@@Z@Z PROC NEAR ; _STL::basic_ostream<char,_STL::char_traits<char> >::operator<<, COMDAT
; _this$ = ecx

; 70   :   _Self& operator<< (__ostream_fn __f) { return __f(*this); }

  00000	51		 push	 ecx
  00001	ff 54 24 08	 call	 DWORD PTR ___f$[esp]
  00005	59		 pop	 ecx
  00006	c2 04 00	 ret	 4
??6?$basic_ostream@DV?$char_traits@D@_STL@@@_STL@@QAEAAV01@P6AAAV01@AAV01@@Z@Z ENDP ; _STL::basic_ostream<char,_STL::char_traits<char> >::operator<<
_TEXT	ENDS
PUBLIC	?_FILE_I_avail@_STL@@YAHPBU_iobuf@@@Z		; _STL::_FILE_I_avail
; Function compile flags: /Ogsy
; File c:\stlport-4.6.1\stlport\stl\_stdio_file.h
;	COMDAT ?_FILE_I_avail@_STL@@YAHPBU_iobuf@@@Z
_TEXT	SEGMENT
___f$ = 8						; size = 4
?_FILE_I_avail@_STL@@YAHPBU_iobuf@@@Z PROC NEAR		; _STL::_FILE_I_avail, COMDAT

; 103  : inline ptrdiff_t _FILE_I_avail(const FILE *__f) { return __f->_cnt; }

  00000	8b 44 24 04	 mov	 eax, DWORD PTR ___f$[esp-4]
  00004	8b 40 04	 mov	 eax, DWORD PTR [eax+4]
  00007	c3		 ret	 0
?_FILE_I_avail@_STL@@YAHPBU_iobuf@@@Z ENDP		; _STL::_FILE_I_avail
_TEXT	ENDS
PUBLIC	?_FILE_I_postincr@_STL@@YAAADPAU_iobuf@@@Z	; _STL::_FILE_I_postincr
; Function compile flags: /Ogsy
;	COMDAT ?_FILE_I_postincr@_STL@@YAAADPAU_iobuf@@@Z
_TEXT	SEGMENT
___f$ = 8						; size = 4
?_FILE_I_postincr@_STL@@YAAADPAU_iobuf@@@Z PROC NEAR	; _STL::_FILE_I_postincr, COMDAT

; 108  :   { --__f->_cnt; return *(char*) (__f->_ptr++); }

  00000	8b 4c 24 04	 mov	 ecx, DWORD PTR ___f$[esp-4]
  00004	8b 01		 mov	 eax, DWORD PTR [ecx]
  00006	ff 49 04	 dec	 DWORD PTR [ecx+4]
  00009	8d 50 01	 lea	 edx, DWORD PTR [eax+1]
  0000c	89 11		 mov	 DWORD PTR [ecx], edx
  0000e	c3		 ret	 0
?_FILE_I_postincr@_STL@@YAAADPAU_iobuf@@@Z ENDP		; _STL::_FILE_I_postincr
_TEXT	ENDS
PUBLIC	?_FILE_O_avail@_STL@@YAHPBU_iobuf@@@Z		; _STL::_FILE_O_avail
; Function compile flags: /Ogsy
;	COMDAT ?_FILE_O_avail@_STL@@YAHPBU_iobuf@@@Z
_TEXT	SEGMENT
___f$ = 8						; size = 4
?_FILE_O_avail@_STL@@YAHPBU_iobuf@@@Z PROC NEAR		; _STL::_FILE_O_avail, COMDAT

; 736  : inline ptrdiff_t _FILE_O_avail(const FILE *__f) { return _FILE_I_avail(__f); }

  00000	8b 44 24 04	 mov	 eax, DWORD PTR ___f$[esp-4]
  00004	8b 40 04	 mov	 eax, DWORD PTR [eax+4]
  00007	c3		 ret	 0
?_FILE_O_avail@_STL@@YAHPBU_iobuf@@@Z ENDP		; _STL::_FILE_O_avail
_TEXT	ENDS
PUBLIC	?_FILE_O_postincr@_STL@@YAAADPAU_iobuf@@@Z	; _STL::_FILE_O_postincr
; Function compile flags: /Ogsy
;	COMDAT ?_FILE_O_postincr@_STL@@YAAADPAU_iobuf@@@Z
_TEXT	SEGMENT
___f$ = 8						; size = 4
?_FILE_O_postincr@_STL@@YAAADPAU_iobuf@@@Z PROC NEAR	; _STL::_FILE_O_postincr, COMDAT

; 739  : inline char& _FILE_O_postincr(FILE *__f) { return _FILE_I_postincr(__f); }

  00000	8b 4c 24 04	 mov	 ecx, DWORD PTR ___f$[esp-4]
  00004	8b 01		 mov	 eax, DWORD PTR [ecx]
  00006	ff 49 04	 dec	 DWORD PTR [ecx+4]
  00009	8d 50 01	 lea	 edx, DWORD PTR [eax+1]
  0000c	89 11		 mov	 DWORD PTR [ecx], edx
  0000e	c3		 ret	 0
?_FILE_O_postincr@_STL@@YAAADPAU_iobuf@@@Z ENDP		; _STL::_FILE_O_postincr
_TEXT	ENDS
PUBLIC	?_M_terminate_string_aux@?$basic_string@DV?$char_traits@D@_STL@@V?$allocator@D@2@@_STL@@AAEXABU__true_type@2@@Z ; _STL::basic_string<char,_STL::char_traits<char>,_STL::allocator<char> >::_M_terminate_string_aux
; Function compile flags: /Ogsy
; File c:\stlport-4.6.1\stlport\stl\_string.h
;	COMDAT ?_M_terminate_string_aux@?$basic_string@DV?$char_traits@D@_STL@@V?$allocator@D@2@@_STL@@AAEXABU__true_type@2@@Z
_TEXT	SEGMENT
___formal$ = 8						; size = 4
?_M_terminate_string_aux@?$basic_string@DV?$char_traits@D@_STL@@V?$allocator@D@2@@_STL@@AAEXABU__true_type@2@@Z PROC NEAR ; _STL::basic_string<char,_STL::char_traits<char>,_STL::allocator<char> >::_M_terminate_string_aux, COMDAT
; _this$ = ecx

; 351  :     *(this->_M_finish)=0;

  00000	8b 41 04	 mov	 eax, DWORD PTR [ecx+4]
  00003	c6 00 00	 mov	 BYTE PTR [eax], 0

; 352  :   }

  00006	c2 04 00	 ret	 4
?_M_terminate_string_aux@?$basic_string@DV?$char_traits@D@_STL@@V?$allocator@D@2@@_STL@@AAEXABU__true_type@2@@Z ENDP ; _STL::basic_string<char,_STL::char_traits<char>,_STL::allocator<char> >::_M_terminate_string_aux
_TEXT	ENDS
PUBLIC	??0?$allocator@D@_STL@@QAE@ABV01@@Z		; _STL::allocator<char>::allocator<char>
; Function compile flags: /Ogsy
; File c:\stlport-4.6.1\stlport\stl\_alloc.h
;	COMDAT ??0?$allocator@D@_STL@@QAE@ABV01@@Z
_TEXT	SEGMENT
___formal$ = 8						; size = 4
??0?$allocator@D@_STL@@QAE@ABV01@@Z PROC NEAR		; _STL::allocator<char>::allocator<char>, COMDAT
; _this$ = ecx

; 349  :   allocator(const allocator<_Tp>&) _STLP_NOTHROW {}

  00000	8b c1		 mov	 eax, ecx
  00002	c2 04 00	 ret	 4
??0?$allocator@D@_STL@@QAE@ABV01@@Z ENDP		; _STL::allocator<char>::allocator<char>
_TEXT	ENDS
PUBLIC	?_M_do_sanitize@?$_Sanitize@$0BG@@_STL@@SAXAAK@Z ; _STL::_Sanitize<22>::_M_do_sanitize
; Function compile flags: /Ogsy
; File c:\stlport-4.6.1\stlport\stl\_bitset.h
;	COMDAT ?_M_do_sanitize@?$_Sanitize@$0BG@@_STL@@SAXAAK@Z
_TEXT	SEGMENT
___val$ = 8						; size = 4
?_M_do_sanitize@?$_Sanitize@$0BG@@_STL@@SAXAAK@Z PROC NEAR ; _STL::_Sanitize<22>::_M_do_sanitize, COMDAT

; 330  :     { __val &= ~((~__STATIC_CAST(unsigned long,0)) << _Extrabits); }

  00000	8b 44 24 04	 mov	 eax, DWORD PTR ___val$[esp-4]
  00004	66 83 60 02 3f	 and	 WORD PTR [eax+2], 63	; 0000003fH
  00009	c3		 ret	 0
?_M_do_sanitize@?$_Sanitize@$0BG@@_STL@@SAXAAK@Z ENDP	; _STL::_Sanitize<22>::_M_do_sanitize
_TEXT	ENDS
PUBLIC	?pubsync@?$basic_streambuf@DV?$char_traits@D@_STL@@@_STL@@QAEHXZ ; _STL::basic_streambuf<char,_STL::char_traits<char> >::pubsync
; Function compile flags: /Ogsy
; File c:\stlport-4.6.1\stlport\stl\_streambuf.h
;	COMDAT ?pubsync@?$basic_streambuf@DV?$char_traits@D@_STL@@@_STL@@QAEHXZ
_TEXT	SEGMENT
?pubsync@?$basic_streambuf@DV?$char_traits@D@_STL@@@_STL@@QAEHXZ PROC NEAR ; _STL::basic_streambuf<char,_STL::char_traits<char> >::pubsync, COMDAT
; _this$ = ecx

; 411  :   int pubsync() { return this->sync(); }

  00000	8b 01		 mov	 eax, DWORD PTR [ecx]
  00002	ff 60 10	 jmp	 DWORD PTR [eax+16]
?pubsync@?$basic_streambuf@DV?$char_traits@D@_STL@@@_STL@@QAEHXZ ENDP ; _STL::basic_streambuf<char,_STL::char_traits<char> >::pubsync
_TEXT	ENDS
PUBLIC	?sputc@?$basic_streambuf@DV?$char_traits@D@_STL@@@_STL@@QAEHD@Z ; _STL::basic_streambuf<char,_STL::char_traits<char> >::sputc
; Function compile flags: /Ogsy
;	COMDAT ?sputc@?$basic_streambuf@DV?$char_traits@D@_STL@@@_STL@@QAEHD@Z
_TEXT	SEGMENT
___c$ = 8						; size = 1
?sputc@?$basic_streambuf@DV?$char_traits@D@_STL@@@_STL@@QAEHD@Z PROC NEAR ; _STL::basic_streambuf<char,_STL::char_traits<char> >::sputc, COMDAT
; _this$ = ecx

; 428  :     int_type __res;
; 429  : 	if( _FILE_O_avail(_M_put) > 0 )

  00000	8b 41 08	 mov	 eax, DWORD PTR [ecx+8]
  00003	83 78 04 00	 cmp	 DWORD PTR [eax+4], 0
  00007	7e 15		 jle	 SHORT $L81027

; 430  : 	{
; 431  : 		_FILE_O_postincr(_M_put) = __c;

  00009	8b 08		 mov	 ecx, DWORD PTR [eax]
  0000b	ff 48 04	 dec	 DWORD PTR [eax+4]
  0000e	8d 51 01	 lea	 edx, DWORD PTR [ecx+1]
  00011	89 10		 mov	 DWORD PTR [eax], edx
  00013	8a 44 24 04	 mov	 al, BYTE PTR ___c$[esp-4]
  00017	88 01		 mov	 BYTE PTR [ecx], al

; 432  : 		__res = traits_type::to_int_type(__c);

  00019	0f b6 c0	 movzx	 eax, al

; 433  : 	}
; 434  : 	else

  0001c	eb 0b		 jmp	 SHORT $L81028
$L81027:

; 435  :       __res = this->overflow(traits_type::to_int_type(__c));

  0001e	0f b6 54 24 04	 movzx	 edx, BYTE PTR ___c$[esp-4]
  00023	8b 01		 mov	 eax, DWORD PTR [ecx]
  00025	52		 push	 edx
  00026	ff 50 30	 call	 DWORD PTR [eax+48]
$L81028:

; 436  :     return __res;
; 437  :   }

  00029	c2 04 00	 ret	 4
?sputc@?$basic_streambuf@DV?$char_traits@D@_STL@@@_STL@@QAEHD@Z ENDP ; _STL::basic_streambuf<char,_STL::char_traits<char> >::sputc
_TEXT	ENDS
PUBLIC	?sputn@?$basic_streambuf@DV?$char_traits@D@_STL@@@_STL@@QAEHPBDH@Z ; _STL::basic_streambuf<char,_STL::char_traits<char> >::sputn
; Function compile flags: /Ogsy
;	COMDAT ?sputn@?$basic_streambuf@DV?$char_traits@D@_STL@@@_STL@@QAEHPBDH@Z
_TEXT	SEGMENT
___s$ = 8						; size = 4
___n$ = 12						; size = 4
?sputn@?$basic_streambuf@DV?$char_traits@D@_STL@@@_STL@@QAEHPBDH@Z PROC NEAR ; _STL::basic_streambuf<char,_STL::char_traits<char> >::sputn, COMDAT
; _this$ = ecx

; 441  :     { return this->xsputn(__s, __n); }

  00000	8b 01		 mov	 eax, DWORD PTR [ecx]
  00002	ff 60 28	 jmp	 DWORD PTR [eax+40]
?sputn@?$basic_streambuf@DV?$char_traits@D@_STL@@@_STL@@QAEHPBDH@Z ENDP ; _STL::basic_streambuf<char,_STL::char_traits<char> >::sputn
_TEXT	ENDS
PUBLIC	?_M_sputnc@?$basic_streambuf@DV?$char_traits@D@_STL@@@_STL@@QAEHDH@Z ; _STL::basic_streambuf<char,_STL::char_traits<char> >::_M_sputnc
; Function compile flags: /Ogsy
;	COMDAT ?_M_sputnc@?$basic_streambuf@DV?$char_traits@D@_STL@@@_STL@@QAEHDH@Z
_TEXT	SEGMENT
___c$ = 8						; size = 1
___n$ = 12						; size = 4
?_M_sputnc@?$basic_streambuf@DV?$char_traits@D@_STL@@@_STL@@QAEHDH@Z PROC NEAR ; _STL::basic_streambuf<char,_STL::char_traits<char> >::_M_sputnc, COMDAT
; _this$ = ecx

; 445  :     { return this->_M_xsputnc(__c, __n); }

  00000	8b 01		 mov	 eax, DWORD PTR [ecx]
  00002	ff 60 2c	 jmp	 DWORD PTR [eax+44]
?_M_sputnc@?$basic_streambuf@DV?$char_traits@D@_STL@@@_STL@@QAEHDH@Z ENDP ; _STL::basic_streambuf<char,_STL::char_traits<char> >::_M_sputnc
_TEXT	ENDS
PUBLIC	??$?0U?$_List_node@V?$basic_string@DV?$char_traits@D@_STL@@V?$allocator@D@2@@_STL@@@_STL@@@?$allocator@V?$basic_string@DV?$char_traits@D@_STL@@V?$allocator@D@2@@_STL@@@_STL@@QAE@ABV?$allocator@U?$_List_node@V?$basic_string@DV?$char_traits@D@_STL@@V?$allocator@D@2@@_STL@@@_STL@@@1@@Z ; _STL::allocator<_STL::basic_string<char,_STL::char_traits<char>,_STL::allocator<char> > >::allocator<_STL::basic_string<char,_STL::char_traits<char>,_STL::allocator<char> > ><_STL::_List_node<_STL::basic_string<char,_STL::char_traits<char>,_STL::allocator<char> > > >
; Function compile flags: /Ogsy
; File c:\stlport-4.6.1\stlport\stl\_alloc.h
;	COMDAT ??$?0U?$_List_node@V?$basic_string@DV?$char_traits@D@_STL@@V?$allocator@D@2@@_STL@@@_STL@@@?$allocator@V?$basic_string@DV?$char_traits@D@_STL@@V?$allocator@D@2@@_STL@@@_STL@@QAE@ABV?$allocator@U?$_List_node@V?$basic_string@DV?$char_traits@D@_STL@@V?$allocator@D@2@@_STL@@@_STL@@@1@@Z
_TEXT	SEGMENT
___formal$ = 8						; size = 4
??$?0U?$_List_node@V?$basic_string@DV?$char_traits@D@_STL@@V?$allocator@D@2@@_STL@@@_STL@@@?$allocator@V?$basic_string@DV?$char_traits@D@_STL@@V?$allocator@D@2@@_STL@@@_STL@@QAE@ABV?$allocator@U?$_List_node@V?$basic_string@DV?$char_traits@D@_STL@@V?$allocator@D@2@@_STL@@@_STL@@@1@@Z PROC NEAR ; _STL::allocator<_STL::basic_string<char,_STL::char_traits<char>,_STL::allocator<char> > >::allocator<_STL::basic_string<char,_STL::char_traits<char>,_STL::allocator<char> > ><_STL::_List_node<_STL::basic_string<char,_STL::char_traits<char>,_STL::allocator<char> > > >, COMDAT
; _this$ = ecx

; 347  :   template <class _Tp1> allocator(const allocator<_Tp1>&) _STLP_NOTHROW {}

  00000	8b c1		 mov	 eax, ecx
  00002	c2 04 00	 ret	 4
??$?0U?$_List_node@V?$basic_string@DV?$char_traits@D@_STL@@V?$allocator@D@2@@_STL@@@_STL@@@?$allocator@V?$basic_string@DV?$char_traits@D@_STL@@V?$allocator@D@2@@_STL@@@_STL@@QAE@ABV?$allocator@U?$_List_node@V?$basic_string@DV?$char_traits@D@_STL@@V?$allocator@D@2@@_STL@@@_STL@@@1@@Z ENDP ; _STL::allocator<_STL::basic_string<char,_STL::char_traits<char>,_STL::allocator<char> > >::allocator<_STL::basic_string<char,_STL::char_traits<char>,_STL::allocator<char> > ><_STL::_List_node<_STL::basic_string<char,_STL::char_traits<char>,_STL::allocator<char> > > >
_TEXT	ENDS
PUBLIC	?rdbuf@?$basic_ios@DV?$char_traits@D@_STL@@@_STL@@QBEPAV?$basic_streambuf@DV?$char_traits@D@_STL@@@2@XZ ; _STL::basic_ios<char,_STL::char_traits<char> >::rdbuf
; Function compile flags: /Ogsy
; File c:\stlport-4.6.1\stlport\stl\_ios.h
;	COMDAT ?rdbuf@?$basic_ios@DV?$char_traits@D@_STL@@@_STL@@QBEPAV?$basic_streambuf@DV?$char_traits@D@_STL@@@2@XZ
_TEXT	SEGMENT
?rdbuf@?$basic_ios@DV?$char_traits@D@_STL@@@_STL@@QBEPAV?$basic_streambuf@DV?$char_traits@D@_STL@@@2@XZ PROC NEAR ; _STL::basic_ios<char,_STL::char_traits<char> >::rdbuf, COMDAT
; _this$ = ecx

; 72   :     { return _M_streambuf; }

  00000	8b 41 58	 mov	 eax, DWORD PTR [ecx+88]
  00003	c3		 ret	 0
?rdbuf@?$basic_ios@DV?$char_traits@D@_STL@@@_STL@@QBEPAV?$basic_streambuf@DV?$char_traits@D@_STL@@@2@XZ ENDP ; _STL::basic_ios<char,_STL::char_traits<char> >::rdbuf
_TEXT	ENDS
PUBLIC	?clear@?$basic_ios@DV?$char_traits@D@_STL@@@_STL@@QAEXH@Z ; _STL::basic_ios<char,_STL::char_traits<char> >::clear
; Function compile flags: /Ogsy
;	COMDAT ?clear@?$basic_ios@DV?$char_traits@D@_STL@@@_STL@@QAEXH@Z
_TEXT	SEGMENT
___state$ = 8						; size = 4
?clear@?$basic_ios@DV?$char_traits@D@_STL@@@_STL@@QAEXH@Z PROC NEAR ; _STL::basic_ios<char,_STL::char_traits<char> >::clear, COMDAT
; _this$ = ecx

; 91   :     _M_clear_nothrow(this->rdbuf() ? __state : iostate(__state|ios_base::badbit));

  00000	83 79 58 00	 cmp	 DWORD PTR [ecx+88], 0
  00004	8b 44 24 04	 mov	 eax, DWORD PTR ___state$[esp-4]
  00008	75 03		 jne	 SHORT $L102022
  0000a	83 c8 01	 or	 eax, 1
$L102022:

; 92   :     _M_check_exception_mask();

  0000d	85 41 14	 test	 DWORD PTR [ecx+20], eax
  00010	89 41 08	 mov	 DWORD PTR [ecx+8], eax
  00013	74 05		 je	 SHORT $L102033
  00015	e8 00 00 00 00	 call	 ?_M_throw_failure@ios_base@_STL@@IAEXXZ ; _STL::ios_base::_M_throw_failure
$L102033:

; 93   :   }

  0001a	c2 04 00	 ret	 4
?clear@?$basic_ios@DV?$char_traits@D@_STL@@@_STL@@QAEXH@Z ENDP ; _STL::basic_ios<char,_STL::char_traits<char> >::clear
_TEXT	ENDS
PUBLIC	?widen@?$basic_ios@DV?$char_traits@D@_STL@@@_STL@@QBEDD@Z ; _STL::basic_ios<char,_STL::char_traits<char> >::widen
; Function compile flags: /Ogsy
;	COMDAT ?widen@?$basic_ios@DV?$char_traits@D@_STL@@@_STL@@QBEDD@Z
_TEXT	SEGMENT
___c$ = 8						; size = 1
?widen@?$basic_ios@DV?$char_traits@D@_STL@@@_STL@@QBEDD@Z PROC NEAR ; _STL::basic_ios<char,_STL::char_traits<char> >::widen, COMDAT
; _this$ = ecx

; 143  :   return ((const ctype<_CharT>*)this->_M_ctype_facet())->widen(__c); }

  00000	8b 49 40	 mov	 ecx, DWORD PTR [ecx+64]
  00003	8b 01		 mov	 eax, DWORD PTR [ecx]
  00005	ff 60 18	 jmp	 DWORD PTR [eax+24]
?widen@?$basic_ios@DV?$char_traits@D@_STL@@@_STL@@QBEDD@Z ENDP ; _STL::basic_ios<char,_STL::char_traits<char> >::widen
_TEXT	ENDS
PUBLIC	?fill@?$basic_ios@DV?$char_traits@D@_STL@@@_STL@@QBEDXZ ; _STL::basic_ios<char,_STL::char_traits<char> >::fill
; Function compile flags: /Ogsy
;	COMDAT ?fill@?$basic_ios@DV?$char_traits@D@_STL@@@_STL@@QBEDXZ
_TEXT	SEGMENT
?fill@?$basic_ios@DV?$char_traits@D@_STL@@@_STL@@QBEDXZ PROC NEAR ; _STL::basic_ios<char,_STL::char_traits<char> >::fill, COMDAT
; _this$ = ecx

; 80   :   char_type fill() const { return _M_fill; }

  00000	8a 41 54	 mov	 al, BYTE PTR [ecx+84]
  00003	c3		 ret	 0
?fill@?$basic_ios@DV?$char_traits@D@_STL@@@_STL@@QBEDXZ ENDP ; _STL::basic_ios<char,_STL::char_traits<char> >::fill
_TEXT	ENDS
PUBLIC	??Bsentry@?$basic_ostream@DV?$char_traits@D@_STL@@@_STL@@QBE_NXZ ; _STL::basic_ostream<char,_STL::char_traits<char> >::sentry::operator bool
; Function compile flags: /Ogsy
; File c:\stlport-4.6.1\stlport\stl\_ostream.h
;	COMDAT ??Bsentry@?$basic_ostream@DV?$char_traits@D@_STL@@@_STL@@QBE_NXZ
_TEXT	SEGMENT
??Bsentry@?$basic_ostream@DV?$char_traits@D@_STL@@@_STL@@QBE_NXZ PROC NEAR ; _STL::basic_ostream<char,_STL::char_traits<char> >::sentry::operator bool, COMDAT
; _this$ = ecx

; 176  :       operator bool() const { return _M_ok; }

  00000	8a 41 04	 mov	 al, BYTE PTR [ecx+4]
  00003	c3		 ret	 0
??Bsentry@?$basic_ostream@DV?$char_traits@D@_STL@@@_STL@@QBE_NXZ ENDP ; _STL::basic_ostream<char,_STL::char_traits<char> >::sentry::operator bool
_TEXT	ENDS
PUBLIC	?_M_handle_exception@?$basic_ios@DV?$char_traits@D@_STL@@@_STL@@QAEXH@Z ; _STL::basic_ios<char,_STL::char_traits<char> >::_M_handle_exception
EXTRN	__CxxThrowException@8:NEAR
; Function compile flags: /Ogsy
; File c:\stlport-4.6.1\stlport\stl\_ios.c
;	COMDAT ?_M_handle_exception@?$basic_ios@DV?$char_traits@D@_STL@@@_STL@@QAEXH@Z
_TEXT	SEGMENT
___flag$ = 8						; size = 4
?_M_handle_exception@?$basic_ios@DV?$char_traits@D@_STL@@@_STL@@QAEXH@Z PROC NEAR ; _STL::basic_ios<char,_STL::char_traits<char> >::_M_handle_exception, COMDAT
; _this$ = ecx

; 118  :   this->_M_setstate_nothrow(__flag);

  00000	8b 44 24 04	 mov	 eax, DWORD PTR ___flag$[esp-4]
  00004	09 41 08	 or	 DWORD PTR [ecx+8], eax

; 119  :   if (this->_M_get_exception_mask() & __flag)

  00007	85 41 14	 test	 DWORD PTR [ecx+20], eax
  0000a	74 09		 je	 SHORT $L101205

; 120  :     _STLP_RETHROW;

  0000c	6a 00		 push	 0
  0000e	6a 00		 push	 0
  00010	e8 00 00 00 00	 call	 __CxxThrowException@8
$L102064:
$L101205:

; 121  : }

  00015	c2 04 00	 ret	 4
$L102063:
?_M_handle_exception@?$basic_ios@DV?$char_traits@D@_STL@@@_STL@@QAEXH@Z ENDP ; _STL::basic_ios<char,_STL::char_traits<char> >::_M_handle_exception
_TEXT	ENDS
PUBLIC	?max_size@?$_String_base@DV?$allocator@D@_STL@@@_STL@@QBEIXZ ; _STL::_String_base<char,_STL::allocator<char> >::max_size
; Function compile flags: /Ogsy
; File c:\stlport-4.6.1\stlport\stl\_string.h
;	COMDAT ?max_size@?$_String_base@DV?$allocator@D@_STL@@@_STL@@QBEIXZ
_TEXT	SEGMENT
?max_size@?$_String_base@DV?$allocator@D@_STL@@@_STL@@QBEIXZ PROC NEAR ; _STL::_String_base<char,_STL::allocator<char> >::max_size, COMDAT
; _this$ = ecx

; 126  :   size_t max_size() const { return (size_t(-1) / sizeof(_Tp)) - 1; }

  00000	6a fe		 push	 -2			; fffffffeH
  00002	58		 pop	 eax
  00003	c3		 ret	 0
?max_size@?$_String_base@DV?$allocator@D@_STL@@@_STL@@QBEIXZ ENDP ; _STL::_String_base<char,_STL::allocator<char> >::max_size
_TEXT	ENDS
PUBLIC	?tie@?$basic_ios@DV?$char_traits@D@_STL@@@_STL@@QBEPAV?$basic_ostream@DV?$char_traits@D@_STL@@@2@XZ ; _STL::basic_ios<char,_STL::char_traits<char> >::tie
; Function compile flags: /Ogsy
; File c:\stlport-4.6.1\stlport\stl\_ios.h
;	COMDAT ?tie@?$basic_ios@DV?$char_traits@D@_STL@@@_STL@@QBEPAV?$basic_ostream@DV?$char_traits@D@_STL@@@2@XZ
_TEXT	SEGMENT
?tie@?$basic_ios@DV?$char_traits@D@_STL@@@_STL@@QBEPAV?$basic_ostream@DV?$char_traits@D@_STL@@@2@XZ PROC NEAR ; _STL::basic_ios<char,_STL::char_traits<char> >::tie, COMDAT
; _this$ = ecx

; 62   :     return _M_tied_ostream;

  00000	8b 41 5c	 mov	 eax, DWORD PTR [ecx+92]

; 63   :   }

  00003	c3		 ret	 0
?tie@?$basic_ios@DV?$char_traits@D@_STL@@@_STL@@QBEPAV?$basic_ostream@DV?$char_traits@D@_STL@@@2@XZ ENDP ; _STL::basic_ios<char,_STL::char_traits<char> >::tie
_TEXT	ENDS
PUBLIC	??$__distance@PBD@_STL@@YAHABQBD0ABUrandom_access_iterator_tag@0@@Z ; _STL::__distance<char const *>
; Function compile flags: /Ogsy
; File c:\stlport-4.6.1\stlport\stl\_iterator_base.h
;	COMDAT ??$__distance@PBD@_STL@@YAHABQBD0ABUrandom_access_iterator_tag@0@@Z
_TEXT	SEGMENT
___first$ = 8						; size = 4
___last$ = 12						; size = 4
___formal$ = 16						; size = 4
??$__distance@PBD@_STL@@YAHABQBD0ABUrandom_access_iterator_tag@0@@Z PROC NEAR ; _STL::__distance<char const *>, COMDAT

; 363  :   return __last - __first;

  00000	8b 44 24 08	 mov	 eax, DWORD PTR ___last$[esp-4]
  00004	8b 00		 mov	 eax, DWORD PTR [eax]
  00006	8b 4c 24 04	 mov	 ecx, DWORD PTR ___first$[esp-4]
  0000a	2b 01		 sub	 eax, DWORD PTR [ecx]

; 364  : }

  0000c	c3		 ret	 0
??$__distance@PBD@_STL@@YAHABQBD0ABUrandom_access_iterator_tag@0@@Z ENDP ; _STL::__distance<char const *>
_TEXT	ENDS
PUBLIC	?_M_throw_length_error@?$_String_base@DV?$allocator@D@_STL@@@_STL@@QBEXXZ ; _STL::_String_base<char,_STL::allocator<char> >::_M_throw_length_error
PUBLIC	??_C@_0N@GOPDCEEB@basic_string?$AA@		; `string'
EXTRN	?__stl_throw_length_error@_STL@@YAXPBD@Z:NEAR	; _STL::__stl_throw_length_error
;	COMDAT ??_C@_0N@GOPDCEEB@basic_string?$AA@
; File c:\stlport-4.6.1\stlport\stl\_string.c
CONST	SEGMENT
??_C@_0N@GOPDCEEB@basic_string?$AA@ DB 'basic_string', 00H ; `string'
; Function compile flags: /Ogsy
CONST	ENDS
;	COMDAT ?_M_throw_length_error@?$_String_base@DV?$allocator@D@_STL@@@_STL@@QBEXXZ
_TEXT	SEGMENT
?_M_throw_length_error@?$_String_base@DV?$allocator@D@_STL@@@_STL@@QBEXXZ PROC NEAR ; _STL::_String_base<char,_STL::allocator<char> >::_M_throw_length_error, COMDAT
; _this$ = ecx

; 523  :     __stl_throw_length_error("basic_string");

  00000	68 00 00 00 00	 push	 OFFSET FLAT:??_C@_0N@GOPDCEEB@basic_string?$AA@
  00005	e8 00 00 00 00	 call	 ?__stl_throw_length_error@_STL@@YAXPBD@Z ; _STL::__stl_throw_length_error
  0000a	59		 pop	 ecx

; 524  : }

  0000b	c3		 ret	 0
?_M_throw_length_error@?$_String_base@DV?$allocator@D@_STL@@@_STL@@QBEXXZ ENDP ; _STL::_String_base<char,_STL::allocator<char> >::_M_throw_length_error
_TEXT	ENDS
PUBLIC	??$__distance@PAD@_STL@@YAHABQAD0ABUrandom_access_iterator_tag@0@@Z ; _STL::__distance<char *>
; Function compile flags: /Ogsy
; File c:\stlport-4.6.1\stlport\stl\_iterator_base.h
;	COMDAT ??$__distance@PAD@_STL@@YAHABQAD0ABUrandom_access_iterator_tag@0@@Z
_TEXT	SEGMENT
___first$ = 8						; size = 4
___last$ = 12						; size = 4
___formal$ = 16						; size = 4
??$__distance@PAD@_STL@@YAHABQAD0ABUrandom_access_iterator_tag@0@@Z PROC NEAR ; _STL::__distance<char *>, COMDAT

; 363  :   return __last - __first;

  00000	8b 44 24 08	 mov	 eax, DWORD PTR ___last$[esp-4]
  00004	8b 00		 mov	 eax, DWORD PTR [eax]
  00006	8b 4c 24 04	 mov	 ecx, DWORD PTR ___first$[esp-4]
  0000a	2b 01		 sub	 eax, DWORD PTR [ecx]

; 364  : }

  0000c	c3		 ret	 0
??$__distance@PAD@_STL@@YAHABQAD0ABUrandom_access_iterator_tag@0@@Z ENDP ; _STL::__distance<char *>
_TEXT	ENDS
PUBLIC	?_Ret@?$_BothPtrType@PADPAD@_STL@@SA?AU__true_type@2@XZ ; _STL::_BothPtrType<char *,char *>::_Ret
; Function compile flags: /Ogsy
; File c:\stlport-4.6.1\stlport\stl\type_traits.h
;	COMDAT ?_Ret@?$_BothPtrType@PADPAD@_STL@@SA?AU__true_type@2@XZ
_TEXT	SEGMENT
$T102083 = -1						; size = 1
?_Ret@?$_BothPtrType@PADPAD@_STL@@SA?AU__true_type@2@XZ PROC NEAR ; _STL::_BothPtrType<char *,char *>::_Ret, COMDAT

; 234  :   static __true_type _Ret() { return __true_type();} 

  00000	55		 push	 ebp
  00001	8b ec		 mov	 ebp, esp
  00003	51		 push	 ecx
  00004	57		 push	 edi
  00005	33 c0		 xor	 eax, eax
  00007	8d 7d ff	 lea	 edi, DWORD PTR $T102083[ebp]
  0000a	aa		 stosb
  0000b	8a 45 ff	 mov	 al, BYTE PTR $T102083[ebp]
  0000e	5f		 pop	 edi
  0000f	c9		 leave
  00010	c3		 ret	 0
?_Ret@?$_BothPtrType@PADPAD@_STL@@SA?AU__true_type@2@XZ ENDP ; _STL::_BothPtrType<char *,char *>::_Ret
_TEXT	ENDS
PUBLIC	?_Ret@?$_OKToMemCpy@DD@_STL@@SA?AU__true_type@2@XZ ; _STL::_OKToMemCpy<char,char>::_Ret
; Function compile flags: /Ogsy
;	COMDAT ?_Ret@?$_OKToMemCpy@DD@_STL@@SA?AU__true_type@2@XZ
_TEXT	SEGMENT
$T102086 = -1						; size = 1
?_Ret@?$_OKToMemCpy@DD@_STL@@SA?AU__true_type@2@XZ PROC NEAR ; _STL::_OKToMemCpy<char,char>::_Ret, COMDAT

; 361  :   static _Type _Ret() { return _Type(); }

  00000	55		 push	 ebp
  00001	8b ec		 mov	 ebp, esp
  00003	51		 push	 ecx
  00004	57		 push	 edi
  00005	33 c0		 xor	 eax, eax
  00007	8d 7d ff	 lea	 edi, DWORD PTR $T102086[ebp]
  0000a	aa		 stosb
  0000b	8a 45 ff	 mov	 al, BYTE PTR $T102086[ebp]
  0000e	5f		 pop	 edi
  0000f	c9		 leave
  00010	c3		 ret	 0
?_Ret@?$_OKToMemCpy@DD@_STL@@SA?AU__true_type@2@XZ ENDP	; _STL::_OKToMemCpy<char,char>::_Ret
_TEXT	ENDS
PUBLIC	??$_IsOKToMemCpy@DD@_STL@@YA?AU?$_OKToMemCpy@DD@0@PAD0@Z ; _STL::_IsOKToMemCpy<char,char>
; Function compile flags: /Ogsy
;	COMDAT ??$_IsOKToMemCpy@DD@_STL@@YA?AU?$_OKToMemCpy@DD@0@PAD0@Z
_TEXT	SEGMENT
$T102089 = -1						; size = 1
___formal$ = 8						; size = 4
___formal$ = 12						; size = 4
??$_IsOKToMemCpy@DD@_STL@@YA?AU?$_OKToMemCpy@DD@0@PAD0@Z PROC NEAR ; _STL::_IsOKToMemCpy<char,char>, COMDAT

; 365  : inline _OKToMemCpy<_Tp1, _Tp2> _IsOKToMemCpy(_Tp1*, _Tp2*)  {

  00000	55		 push	 ebp
  00001	8b ec		 mov	 ebp, esp
  00003	51		 push	 ecx
  00004	57		 push	 edi

; 366  :   return _OKToMemCpy<_Tp1, _Tp2>();

  00005	33 c0		 xor	 eax, eax
  00007	8d 7d ff	 lea	 edi, DWORD PTR $T102089[ebp]
  0000a	aa		 stosb
  0000b	8a 45 ff	 mov	 al, BYTE PTR $T102089[ebp]
  0000e	5f		 pop	 edi

; 367  : }

  0000f	c9		 leave
  00010	c3		 ret	 0
??$_IsOKToMemCpy@DD@_STL@@YA?AU?$_OKToMemCpy@DD@0@PAD0@Z ENDP ; _STL::_IsOKToMemCpy<char,char>
_TEXT	ENDS
PUBLIC	??$__copy_ptrs@PADPAD@_STL@@YAPADPAD00ABU__true_type@0@@Z ; _STL::__copy_ptrs<char *,char *>
; Function compile flags: /Ogsy
; File c:\stlport-4.6.1\stlport\stl\_algobase.h
;	COMDAT ??$__copy_ptrs@PADPAD@_STL@@YAPADPAD00ABU__true_type@0@@Z
_TEXT	SEGMENT
___first$ = 8						; size = 4
___last$ = 12						; size = 4
___result$ = 16						; size = 4
___formal$ = 20						; size = 4
??$__copy_ptrs@PADPAD@_STL@@YAPADPAD00ABU__true_type@0@@Z PROC NEAR ; _STL::__copy_ptrs<char *,char *>, COMDAT

; 195  : // we know they all pointers, so this cast is OK 
; 196  :   //  return (_OutputIter)__copy_trivial(&(*__first), &(*__last), &(*__result));
; 197  :   return (_OutputIter)__copy_trivial(__first, __last, __result);

  00000	ff 74 24 0c	 push	 DWORD PTR ___result$[esp-4]
  00004	ff 74 24 0c	 push	 DWORD PTR ___last$[esp]
  00008	ff 74 24 0c	 push	 DWORD PTR ___first$[esp+4]
  0000c	e8 00 00 00 00	 call	 ?__copy_trivial@_STL@@YAPAXPBX0PAX@Z ; _STL::__copy_trivial
  00011	83 c4 0c	 add	 esp, 12			; 0000000cH

; 198  : }

  00014	c3		 ret	 0
??$__copy_ptrs@PADPAD@_STL@@YAPADPAD00ABU__true_type@0@@Z ENDP ; _STL::__copy_ptrs<char *,char *>
_TEXT	ENDS
PUBLIC	??0_List_iterator_base@_STL@@QAE@PAU_List_node_base@1@@Z ; _STL::_List_iterator_base::_List_iterator_base
; Function compile flags: /Ogsy
; File c:\stlport-4.6.1\stlport\stl\_list.h
;	COMDAT ??0_List_iterator_base@_STL@@QAE@PAU_List_node_base@1@@Z
_TEXT	SEGMENT
___x$ = 8						; size = 4
??0_List_iterator_base@_STL@@QAE@PAU_List_node_base@1@@Z PROC NEAR ; _STL::_List_iterator_base::_List_iterator_base, COMDAT
; _this$ = ecx

; 95   :   _List_iterator_base(_List_node_base* __x) : _M_node(__x) {}

  00000	8b c1		 mov	 eax, ecx
  00002	8b 4c 24 04	 mov	 ecx, DWORD PTR ___x$[esp-4]
  00006	89 08		 mov	 DWORD PTR [eax], ecx
  00008	c2 04 00	 ret	 4
??0_List_iterator_base@_STL@@QAE@PAU_List_node_base@1@@Z ENDP ; _STL::_List_iterator_base::_List_iterator_base
_TEXT	ENDS
PUBLIC	?_M_incr@_List_iterator_base@_STL@@QAEXXZ	; _STL::_List_iterator_base::_M_incr
; Function compile flags: /Ogsy
;	COMDAT ?_M_incr@_List_iterator_base@_STL@@QAEXXZ
_TEXT	SEGMENT
?_M_incr@_List_iterator_base@_STL@@QAEXXZ PROC NEAR	; _STL::_List_iterator_base::_M_incr, COMDAT
; _this$ = ecx

; 98   :   void _M_incr() { _M_node = _M_node->_M_next; }

  00000	8b 01		 mov	 eax, DWORD PTR [ecx]
  00002	8b 00		 mov	 eax, DWORD PTR [eax]
  00004	89 01		 mov	 DWORD PTR [ecx], eax
  00006	c3		 ret	 0
?_M_incr@_List_iterator_base@_STL@@QAEXXZ ENDP		; _STL::_List_iterator_base::_M_incr
_TEXT	ENDS
PUBLIC	??9_List_iterator_base@_STL@@QBE_NABU01@@Z	; _STL::_List_iterator_base::operator!=
; Function compile flags: /Ogsy
;	COMDAT ??9_List_iterator_base@_STL@@QBE_NABU01@@Z
_TEXT	SEGMENT
___y$ = 8						; size = 4
??9_List_iterator_base@_STL@@QBE_NABU01@@Z PROC NEAR	; _STL::_List_iterator_base::operator!=, COMDAT
; _this$ = ecx

; 104  :     return _M_node != __y._M_node; 

  00000	8b 01		 mov	 eax, DWORD PTR [ecx]
  00002	8b 54 24 04	 mov	 edx, DWORD PTR ___y$[esp-4]
  00006	33 c9		 xor	 ecx, ecx
  00008	3b 02		 cmp	 eax, DWORD PTR [edx]
  0000a	0f 95 c1	 setne	 cl
  0000d	8a c1		 mov	 al, cl

; 105  :   }

  0000f	c2 04 00	 ret	 4
??9_List_iterator_base@_STL@@QBE_NABU01@@Z ENDP		; _STL::_List_iterator_base::operator!=
_TEXT	ENDS
PUBLIC	??0?$_Base_bitset@$00@_STL@@QAE@K@Z		; _STL::_Base_bitset<1>::_Base_bitset<1>
; Function compile flags: /Ogsy
; File c:\stlport-4.6.1\stlport\stl\_bitset.h
;	COMDAT ??0?$_Base_bitset@$00@_STL@@QAE@K@Z
_TEXT	SEGMENT
___val$ = 8						; size = 4
??0?$_Base_bitset@$00@_STL@@QAE@K@Z PROC NEAR		; _STL::_Base_bitset<1>::_Base_bitset<1>, COMDAT
; _this$ = ecx

; 203  :   _Base_bitset(unsigned long __val) : _M_w(__val) {}

  00000	8b c1		 mov	 eax, ecx
  00002	8b 4c 24 04	 mov	 ecx, DWORD PTR ___val$[esp-4]
  00006	89 08		 mov	 DWORD PTR [eax], ecx
  00008	c2 04 00	 ret	 4
??0?$_Base_bitset@$00@_STL@@QAE@K@Z ENDP		; _STL::_Base_bitset<1>::_Base_bitset<1>
_TEXT	ENDS
PUBLIC	?_S_whichbit@?$_Base_bitset@$00@_STL@@SAII@Z	; _STL::_Base_bitset<1>::_S_whichbit
; Function compile flags: /Ogsy
;	COMDAT ?_S_whichbit@?$_Base_bitset@$00@_STL@@SAII@Z
_TEXT	SEGMENT
___pos$ = 8						; size = 4
?_S_whichbit@?$_Base_bitset@$00@_STL@@SAII@Z PROC NEAR	; _STL::_Base_bitset<1>::_S_whichbit, COMDAT

; 212  :     return __pos % __BITS_PER_WORD;

  00000	8b 44 24 04	 mov	 eax, DWORD PTR ___pos$[esp-4]
  00004	83 e0 1f	 and	 eax, 31			; 0000001fH

; 213  :   }

  00007	c3		 ret	 0
?_S_whichbit@?$_Base_bitset@$00@_STL@@SAII@Z ENDP	; _STL::_Base_bitset<1>::_S_whichbit
_TEXT	ENDS
PUBLIC	?_S_maskbit@?$_Base_bitset@$00@_STL@@SAKI@Z	; _STL::_Base_bitset<1>::_S_maskbit
; Function compile flags: /Ogsy
;	COMDAT ?_S_maskbit@?$_Base_bitset@$00@_STL@@SAKI@Z
_TEXT	SEGMENT
___pos$ = 8						; size = 4
?_S_maskbit@?$_Base_bitset@$00@_STL@@SAKI@Z PROC NEAR	; _STL::_Base_bitset<1>::_S_maskbit, COMDAT

; 215  :     return (__STATIC_CAST(_WordT,1)) << _S_whichbit(__pos);

  00000	8b 4c 24 04	 mov	 ecx, DWORD PTR ___pos$[esp-4]
  00004	33 c0		 xor	 eax, eax
  00006	83 e1 1f	 and	 ecx, 31			; 0000001fH
  00009	40		 inc	 eax
  0000a	d3 e0		 shl	 eax, cl

; 216  :   }

  0000c	c3		 ret	 0
?_S_maskbit@?$_Base_bitset@$00@_STL@@SAKI@Z ENDP	; _STL::_Base_bitset<1>::_S_maskbit
_TEXT	ENDS
PUBLIC	?_M_getword@?$_Base_bitset@$00@_STL@@QBEKI@Z	; _STL::_Base_bitset<1>::_M_getword
; Function compile flags: /Ogsy
;	COMDAT ?_M_getword@?$_Base_bitset@$00@_STL@@QBEKI@Z
_TEXT	SEGMENT
___formal$ = 8						; size = 4
?_M_getword@?$_Base_bitset@$00@_STL@@QBEKI@Z PROC NEAR	; _STL::_Base_bitset<1>::_M_getword, COMDAT
; _this$ = ecx

; 219  :   _WordT  _M_getword(size_t) const { return _M_w; }

  00000	8b 01		 mov	 eax, DWORD PTR [ecx]
  00002	c2 04 00	 ret	 4
?_M_getword@?$_Base_bitset@$00@_STL@@QBEKI@Z ENDP	; _STL::_Base_bitset<1>::_M_getword
_TEXT	ENDS
PUBLIC	?_M_hiword@?$_Base_bitset@$00@_STL@@QAEAAKXZ	; _STL::_Base_bitset<1>::_M_hiword
; Function compile flags: /Ogsy
;	COMDAT ?_M_hiword@?$_Base_bitset@$00@_STL@@QAEAAKXZ
_TEXT	SEGMENT
?_M_hiword@?$_Base_bitset@$00@_STL@@QAEAAKXZ PROC NEAR	; _STL::_Base_bitset<1>::_M_hiword, COMDAT
; _this$ = ecx

; 221  :   _WordT& _M_hiword()       { return _M_w; }

  00000	8b c1		 mov	 eax, ecx
  00002	c3		 ret	 0
?_M_hiword@?$_Base_bitset@$00@_STL@@QAEAAKXZ ENDP	; _STL::_Base_bitset<1>::_M_hiword
_TEXT	ENDS
PUBLIC	?_M_do_to_ulong@?$_Base_bitset@$00@_STL@@QBEKXZ	; _STL::_Base_bitset<1>::_M_do_to_ulong
; Function compile flags: /Ogsy
;	COMDAT ?_M_do_to_ulong@?$_Base_bitset@$00@_STL@@QBEKXZ
_TEXT	SEGMENT
?_M_do_to_ulong@?$_Base_bitset@$00@_STL@@QBEKXZ PROC NEAR ; _STL::_Base_bitset<1>::_M_do_to_ulong, COMDAT
; _this$ = ecx

; 252  :   unsigned long _M_do_to_ulong() const { return _M_w; }

  00000	8b 01		 mov	 eax, DWORD PTR [ecx]
  00002	c3		 ret	 0
?_M_do_to_ulong@?$_Base_bitset@$00@_STL@@QBEKXZ ENDP	; _STL::_Base_bitset<1>::_M_do_to_ulong
_TEXT	ENDS
PUBLIC	?eof@?$__char_traits_base@DH@_STL@@SAHXZ	; _STL::__char_traits_base<char,int>::eof
; Function compile flags: /Ogsy
; File c:\stlport-4.6.1\stlport\stl\char_traits.h
;	COMDAT ?eof@?$__char_traits_base@DH@_STL@@SAHXZ
_TEXT	SEGMENT
?eof@?$__char_traits_base@DH@_STL@@SAHXZ PROC NEAR	; _STL::__char_traits_base<char,int>::eof, COMDAT

; 197  :     return (int_type)-1;

  00000	83 c8 ff	 or	 eax, -1

; 198  :     //    return __STATIC_CAST(int_type,-1);
; 199  :   }

  00003	c3		 ret	 0
?eof@?$__char_traits_base@DH@_STL@@SAHXZ ENDP		; _STL::__char_traits_base<char,int>::eof
_TEXT	ENDS
PUBLIC	??0?$allocator@D@_STL@@QAE@XZ			; _STL::allocator<char>::allocator<char>
; Function compile flags: /Ogsy
; File c:\stlport-4.6.1\stlport\stl\_alloc.h
;	COMDAT ??0?$allocator@D@_STL@@QAE@XZ
_TEXT	SEGMENT
??0?$allocator@D@_STL@@QAE@XZ PROC NEAR			; _STL::allocator<char>::allocator<char>, COMDAT
; _this$ = ecx

; 345  :   allocator() _STLP_NOTHROW {}

  00000	8b c1		 mov	 eax, ecx
  00002	c3		 ret	 0
??0?$allocator@D@_STL@@QAE@XZ ENDP			; _STL::allocator<char>::allocator<char>
_TEXT	ENDS
PUBLIC	??1?$allocator@D@_STL@@QAE@XZ			; _STL::allocator<char>::~allocator<char>
; Function compile flags: /Ogsy
;	COMDAT ??1?$allocator@D@_STL@@QAE@XZ
_TEXT	SEGMENT
??1?$allocator@D@_STL@@QAE@XZ PROC NEAR			; _STL::allocator<char>::~allocator<char>, COMDAT
; _this$ = ecx

; 350  :   ~allocator() _STLP_NOTHROW {}

  00000	c3		 ret	 0
??1?$allocator@D@_STL@@QAE@XZ ENDP			; _STL::allocator<char>::~allocator<char>
_TEXT	ENDS
PUBLIC	??0?$allocator@V?$basic_string@DV?$char_traits@D@_STL@@V?$allocator@D@2@@_STL@@@_STL@@QAE@XZ ; _STL::allocator<_STL::basic_string<char,_STL::char_traits<char>,_STL::allocator<char> > >::allocator<_STL::basic_string<char,_STL::char_traits<char>,_STL::allocator<char> > >
; Function compile flags: /Ogsy
;	COMDAT ??0?$allocator@V?$basic_string@DV?$char_traits@D@_STL@@V?$allocator@D@2@@_STL@@@_STL@@QAE@XZ
_TEXT	SEGMENT
??0?$allocator@V?$basic_string@DV?$char_traits@D@_STL@@V?$allocator@D@2@@_STL@@@_STL@@QAE@XZ PROC NEAR ; _STL::allocator<_STL::basic_string<char,_STL::char_traits<char>,_STL::allocator<char> > >::allocator<_STL::basic_string<char,_STL::char_traits<char>,_STL::allocator<char> > >, COMDAT
; _this$ = ecx

; 345  :   allocator() _STLP_NOTHROW {}

  00000	8b c1		 mov	 eax, ecx
  00002	c3		 ret	 0
??0?$allocator@V?$basic_string@DV?$char_traits@D@_STL@@V?$allocator@D@2@@_STL@@@_STL@@QAE@XZ ENDP ; _STL::allocator<_STL::basic_string<char,_STL::char_traits<char>,_STL::allocator<char> > >::allocator<_STL::basic_string<char,_STL::char_traits<char>,_STL::allocator<char> > >
_TEXT	ENDS
PUBLIC	??1?$allocator@V?$basic_string@DV?$char_traits@D@_STL@@V?$allocator@D@2@@_STL@@@_STL@@QAE@XZ ; _STL::allocator<_STL::basic_string<char,_STL::char_traits<char>,_STL::allocator<char> > >::~allocator<_STL::basic_string<char,_STL::char_traits<char>,_STL::allocator<char> > >
; Function compile flags: /Ogsy
;	COMDAT ??1?$allocator@V?$basic_string@DV?$char_traits@D@_STL@@V?$allocator@D@2@@_STL@@@_STL@@QAE@XZ
_TEXT	SEGMENT
??1?$allocator@V?$basic_string@DV?$char_traits@D@_STL@@V?$allocator@D@2@@_STL@@@_STL@@QAE@XZ PROC NEAR ; _STL::allocator<_STL::basic_string<char,_STL::char_traits<char>,_STL::allocator<char> > >::~allocator<_STL::basic_string<char,_STL::char_traits<char>,_STL::allocator<char> > >, COMDAT
; _this$ = ecx

; 350  :   ~allocator() _STLP_NOTHROW {}

  00000	c3		 ret	 0
??1?$allocator@V?$basic_string@DV?$char_traits@D@_STL@@V?$allocator@D@2@@_STL@@@_STL@@QAE@XZ ENDP ; _STL::allocator<_STL::basic_string<char,_STL::char_traits<char>,_STL::allocator<char> > >::~allocator<_STL::basic_string<char,_STL::char_traits<char>,_STL::allocator<char> > >
_TEXT	ENDS
PUBLIC	??D?$_List_iterator@V?$basic_string@DV?$char_traits@D@_STL@@V?$allocator@D@2@@_STL@@U?$_Const_traits@V?$basic_string@DV?$char_traits@D@_STL@@V?$allocator@D@2@@_STL@@@2@@_STL@@QBEABV?$basic_string@DV?$char_traits@D@_STL@@V?$allocator@D@2@@1@XZ ; _STL::_List_iterator<_STL::basic_string<char,_STL::char_traits<char>,_STL::allocator<char> >,_STL::_Const_traits<_STL::basic_string<char,_STL::char_traits<char>,_STL::allocator<char> > > >::operator*
; Function compile flags: /Ogsy
; File c:\stlport-4.6.1\stlport\stl\_list.h
;	COMDAT ??D?$_List_iterator@V?$basic_string@DV?$char_traits@D@_STL@@V?$allocator@D@2@@_STL@@U?$_Const_traits@V?$basic_string@DV?$char_traits@D@_STL@@V?$allocator@D@2@@_STL@@@2@@_STL@@QBEABV?$basic_string@DV?$char_traits@D@_STL@@V?$allocator@D@2@@1@XZ
_TEXT	SEGMENT
??D?$_List_iterator@V?$basic_string@DV?$char_traits@D@_STL@@V?$allocator@D@2@@_STL@@U?$_Const_traits@V?$basic_string@DV?$char_traits@D@_STL@@V?$allocator@D@2@@_STL@@@2@@_STL@@QBEABV?$basic_string@DV?$char_traits@D@_STL@@V?$allocator@D@2@@1@XZ PROC NEAR ; _STL::_List_iterator<_STL::basic_string<char,_STL::char_traits<char>,_STL::allocator<char> >,_STL::_Const_traits<_STL::basic_string<char,_STL::char_traits<char>,_STL::allocator<char> > > >::operator*, COMDAT
; _this$ = ecx

; 130  :   reference operator*() const { return ((_Node*)_M_node)->_M_data; }

  00000	8b 01		 mov	 eax, DWORD PTR [ecx]
  00002	83 c0 08	 add	 eax, 8
  00005	c3		 ret	 0
??D?$_List_iterator@V?$basic_string@DV?$char_traits@D@_STL@@V?$allocator@D@2@@_STL@@U?$_Const_traits@V?$basic_string@DV?$char_traits@D@_STL@@V?$allocator@D@2@@_STL@@@2@@_STL@@QBEABV?$basic_string@DV?$char_traits@D@_STL@@V?$allocator@D@2@@1@XZ ENDP ; _STL::_List_iterator<_STL::basic_string<char,_STL::char_traits<char>,_STL::allocator<char> >,_STL::_Const_traits<_STL::basic_string<char,_STL::char_traits<char>,_STL::allocator<char> > > >::operator*
_TEXT	ENDS
PUBLIC	??0?$_List_iterator@V?$basic_string@DV?$char_traits@D@_STL@@V?$allocator@D@2@@_STL@@U?$_Const_traits@V?$basic_string@DV?$char_traits@D@_STL@@V?$allocator@D@2@@_STL@@@2@@_STL@@QAE@PAU?$_List_node@V?$basic_string@DV?$char_traits@D@_STL@@V?$allocator@D@2@@_STL@@@1@@Z ; _STL::_List_iterator<_STL::basic_string<char,_STL::char_traits<char>,_STL::allocator<char> >,_STL::_Const_traits<_STL::basic_string<char,_STL::char_traits<char>,_STL::allocator<char> > > >::_List_iterator<_STL::basic_string<char,_STL::char_traits<char>,_STL::allocator<char> >,_STL::_Const_traits<_STL::basic_string<char,_STL::char_traits<char>,_STL::allocator<char> > > >
; Function compile flags: /Ogsy
;	COMDAT ??0?$_List_iterator@V?$basic_string@DV?$char_traits@D@_STL@@V?$allocator@D@2@@_STL@@U?$_Const_traits@V?$basic_string@DV?$char_traits@D@_STL@@V?$allocator@D@2@@_STL@@@2@@_STL@@QAE@PAU?$_List_node@V?$basic_string@DV?$char_traits@D@_STL@@V?$allocator@D@2@@_STL@@@1@@Z
_TEXT	SEGMENT
___x$ = 8						; size = 4
??0?$_List_iterator@V?$basic_string@DV?$char_traits@D@_STL@@V?$allocator@D@2@@_STL@@U?$_Const_traits@V?$basic_string@DV?$char_traits@D@_STL@@V?$allocator@D@2@@_STL@@@2@@_STL@@QAE@PAU?$_List_node@V?$basic_string@DV?$char_traits@D@_STL@@V?$allocator@D@2@@_STL@@@1@@Z PROC NEAR ; _STL::_List_iterator<_STL::basic_string<char,_STL::char_traits<char>,_STL::allocator<char> >,_STL::_Const_traits<_STL::basic_string<char,_STL::char_traits<char>,_STL::allocator<char> > > >::_List_iterator<_STL::basic_string<char,_STL::char_traits<char>,_STL::allocator<char> >,_STL::_Const_traits<_STL::basic_string<char,_STL::char_traits<char>,_STL::allocator<char> > > >, COMDAT
; _this$ = ecx

; 126  :   _List_iterator(_Node* __x) : _List_iterator_base(__x) {}

  00000	8b c1		 mov	 eax, ecx
  00002	8b 4c 24 04	 mov	 ecx, DWORD PTR ___x$[esp-4]
  00006	89 08		 mov	 DWORD PTR [eax], ecx
  00008	c2 04 00	 ret	 4
??0?$_List_iterator@V?$basic_string@DV?$char_traits@D@_STL@@V?$allocator@D@2@@_STL@@U?$_Const_traits@V?$basic_string@DV?$char_traits@D@_STL@@V?$allocator@D@2@@_STL@@@2@@_STL@@QAE@PAU?$_List_node@V?$basic_string@DV?$char_traits@D@_STL@@V?$allocator@D@2@@_STL@@@1@@Z ENDP ; _STL::_List_iterator<_STL::basic_string<char,_STL::char_traits<char>,_STL::allocator<char> >,_STL::_Const_traits<_STL::basic_string<char,_STL::char_traits<char>,_STL::allocator<char> > > >::_List_iterator<_STL::basic_string<char,_STL::char_traits<char>,_STL::allocator<char> >,_STL::_Const_traits<_STL::basic_string<char,_STL::char_traits<char>,_STL::allocator<char> > > >
_TEXT	ENDS
PUBLIC	??1?$_STLP_alloc_proxy@PADDV?$allocator@D@_STL@@@_STL@@QAE@XZ ; _STL::_STLP_alloc_proxy<char *,char,_STL::allocator<char> >::~_STLP_alloc_proxy<char *,char,_STL::allocator<char> >
; Function compile flags: /Ogsy
;	COMDAT ??1?$_STLP_alloc_proxy@PADDV?$allocator@D@_STL@@@_STL@@QAE@XZ
_TEXT	SEGMENT
??1?$_STLP_alloc_proxy@PADDV?$allocator@D@_STL@@@_STL@@QAE@XZ PROC NEAR ; _STL::_STLP_alloc_proxy<char *,char,_STL::allocator<char> >::~_STLP_alloc_proxy<char *,char,_STL::allocator<char> >, COMDAT
; _this$ = ecx
  00000	c3		 ret	 0
??1?$_STLP_alloc_proxy@PADDV?$allocator@D@_STL@@@_STL@@QAE@XZ ENDP ; _STL::_STLP_alloc_proxy<char *,char,_STL::allocator<char> >::~_STLP_alloc_proxy<char *,char,_STL::allocator<char> >
_TEXT	ENDS
PUBLIC	??1?$allocator@U?$_List_node@V?$basic_string@DV?$char_traits@D@_STL@@V?$allocator@D@2@@_STL@@@_STL@@@_STL@@QAE@XZ ; _STL::allocator<_STL::_List_node<_STL::basic_string<char,_STL::char_traits<char>,_STL::allocator<char> > > >::~allocator<_STL::_List_node<_STL::basic_string<char,_STL::char_traits<char>,_STL::allocator<char> > > >
; Function compile flags: /Ogsy
; File c:\stlport-4.6.1\stlport\stl\_alloc.h
;	COMDAT ??1?$allocator@U?$_List_node@V?$basic_string@DV?$char_traits@D@_STL@@V?$allocator@D@2@@_STL@@@_STL@@@_STL@@QAE@XZ
_TEXT	SEGMENT
??1?$allocator@U?$_List_node@V?$basic_string@DV?$char_traits@D@_STL@@V?$allocator@D@2@@_STL@@@_STL@@@_STL@@QAE@XZ PROC NEAR ; _STL::allocator<_STL::_List_node<_STL::basic_string<char,_STL::char_traits<char>,_STL::allocator<char> > > >::~allocator<_STL::_List_node<_STL::basic_string<char,_STL::char_traits<char>,_STL::allocator<char> > > >, COMDAT
; _this$ = ecx

; 350  :   ~allocator() _STLP_NOTHROW {}

  00000	c3		 ret	 0
??1?$allocator@U?$_List_node@V?$basic_string@DV?$char_traits@D@_STL@@V?$allocator@D@2@@_STL@@@_STL@@@_STL@@QAE@XZ ENDP ; _STL::allocator<_STL::_List_node<_STL::basic_string<char,_STL::char_traits<char>,_STL::allocator<char> > > >::~allocator<_STL::_List_node<_STL::basic_string<char,_STL::char_traits<char>,_STL::allocator<char> > > >
_TEXT	ENDS
PUBLIC	??0?$_List_iterator@V?$basic_string@DV?$char_traits@D@_STL@@V?$allocator@D@2@@_STL@@U?$_Nonconst_traits@V?$basic_string@DV?$char_traits@D@_STL@@V?$allocator@D@2@@_STL@@@2@@_STL@@QAE@PAU?$_List_node@V?$basic_string@DV?$char_traits@D@_STL@@V?$allocator@D@2@@_STL@@@1@@Z ; _STL::_List_iterator<_STL::basic_string<char,_STL::char_traits<char>,_STL::allocator<char> >,_STL::_Nonconst_traits<_STL::basic_string<char,_STL::char_traits<char>,_STL::allocator<char> > > >::_List_iterator<_STL::basic_string<char,_STL::char_traits<char>,_STL::allocator<char> >,_STL::_Nonconst_traits<_STL::basic_string<char,_STL::char_traits<char>,_STL::allocator<char> > > >
; Function compile flags: /Ogsy
; File c:\stlport-4.6.1\stlport\stl\_list.h
;	COMDAT ??0?$_List_iterator@V?$basic_string@DV?$char_traits@D@_STL@@V?$allocator@D@2@@_STL@@U?$_Nonconst_traits@V?$basic_string@DV?$char_traits@D@_STL@@V?$allocator@D@2@@_STL@@@2@@_STL@@QAE@PAU?$_List_node@V?$basic_string@DV?$char_traits@D@_STL@@V?$allocator@D@2@@_STL@@@1@@Z
_TEXT	SEGMENT
___x$ = 8						; size = 4
??0?$_List_iterator@V?$basic_string@DV?$char_traits@D@_STL@@V?$allocator@D@2@@_STL@@U?$_Nonconst_traits@V?$basic_string@DV?$char_traits@D@_STL@@V?$allocator@D@2@@_STL@@@2@@_STL@@QAE@PAU?$_List_node@V?$basic_string@DV?$char_traits@D@_STL@@V?$allocator@D@2@@_STL@@@1@@Z PROC NEAR ; _STL::_List_iterator<_STL::basic_string<char,_STL::char_traits<char>,_STL::allocator<char> >,_STL::_Nonconst_traits<_STL::basic_string<char,_STL::char_traits<char>,_STL::allocator<char> > > >::_List_iterator<_STL::basic_string<char,_STL::char_traits<char>,_STL::allocator<char> >,_STL::_Nonconst_traits<_STL::basic_string<char,_STL::char_traits<char>,_STL::allocator<char> > > >, COMDAT
; _this$ = ecx

; 126  :   _List_iterator(_Node* __x) : _List_iterator_base(__x) {}

  00000	8b c1		 mov	 eax, ecx
  00002	8b 4c 24 04	 mov	 ecx, DWORD PTR ___x$[esp-4]
  00006	89 08		 mov	 DWORD PTR [eax], ecx
  00008	c2 04 00	 ret	 4
??0?$_List_iterator@V?$basic_string@DV?$char_traits@D@_STL@@V?$allocator@D@2@@_STL@@U?$_Nonconst_traits@V?$basic_string@DV?$char_traits@D@_STL@@V?$allocator@D@2@@_STL@@@2@@_STL@@QAE@PAU?$_List_node@V?$basic_string@DV?$char_traits@D@_STL@@V?$allocator@D@2@@_STL@@@1@@Z ENDP ; _STL::_List_iterator<_STL::basic_string<char,_STL::char_traits<char>,_STL::allocator<char> >,_STL::_Nonconst_traits<_STL::basic_string<char,_STL::char_traits<char>,_STL::allocator<char> > > >::_List_iterator<_STL::basic_string<char,_STL::char_traits<char>,_STL::allocator<char> >,_STL::_Nonconst_traits<_STL::basic_string<char,_STL::char_traits<char>,_STL::allocator<char> > > >
_TEXT	ENDS
PUBLIC	??0?$allocator@U?$_List_node@V?$basic_string@DV?$char_traits@D@_STL@@V?$allocator@D@2@@_STL@@@_STL@@@_STL@@QAE@ABV01@@Z ; _STL::allocator<_STL::_List_node<_STL::basic_string<char,_STL::char_traits<char>,_STL::allocator<char> > > >::allocator<_STL::_List_node<_STL::basic_string<char,_STL::char_traits<char>,_STL::allocator<char> > > >
; Function compile flags: /Ogsy
; File c:\stlport-4.6.1\stlport\stl\_alloc.h
;	COMDAT ??0?$allocator@U?$_List_node@V?$basic_string@DV?$char_traits@D@_STL@@V?$allocator@D@2@@_STL@@@_STL@@@_STL@@QAE@ABV01@@Z
_TEXT	SEGMENT
___formal$ = 8						; size = 4
??0?$allocator@U?$_List_node@V?$basic_string@DV?$char_traits@D@_STL@@V?$allocator@D@2@@_STL@@@_STL@@@_STL@@QAE@ABV01@@Z PROC NEAR ; _STL::allocator<_STL::_List_node<_STL::basic_string<char,_STL::char_traits<char>,_STL::allocator<char> > > >::allocator<_STL::_List_node<_STL::basic_string<char,_STL::char_traits<char>,_STL::allocator<char> > > >, COMDAT
; _this$ = ecx

; 349  :   allocator(const allocator<_Tp>&) _STLP_NOTHROW {}

  00000	8b c1		 mov	 eax, ecx
  00002	c2 04 00	 ret	 4
??0?$allocator@U?$_List_node@V?$basic_string@DV?$char_traits@D@_STL@@V?$allocator@D@2@@_STL@@@_STL@@@_STL@@QAE@ABV01@@Z ENDP ; _STL::allocator<_STL::_List_node<_STL::basic_string<char,_STL::char_traits<char>,_STL::allocator<char> > > >::allocator<_STL::_List_node<_STL::basic_string<char,_STL::char_traits<char>,_STL::allocator<char> > > >
_TEXT	ENDS
PUBLIC	?allocate@?$__node_alloc@$00$0A@@_STL@@SAPAXI@Z	; _STL::__node_alloc<1,0>::allocate
EXTRN	?_M_allocate@?$__node_alloc@$00$0A@@_STL@@CAPAXI@Z:NEAR ; _STL::__node_alloc<1,0>::_M_allocate
; Function compile flags: /Ogsy
;	COMDAT ?allocate@?$__node_alloc@$00$0A@@_STL@@SAPAXI@Z
_TEXT	SEGMENT
___n$ = 8						; size = 4
?allocate@?$__node_alloc@$00$0A@@_STL@@SAPAXI@Z PROC NEAR ; _STL::__node_alloc<1,0>::allocate, COMDAT

; 251  :   static void * _STLP_CALL allocate(size_t __n) { return (__n > (size_t)_MAX_BYTES) ?  __stl_new(__n) : _M_allocate(__n); }

  00000	8b 44 24 04	 mov	 eax, DWORD PTR ___n$[esp-4]
  00004	3d 80 00 00 00	 cmp	 eax, 128		; 00000080H
  00009	50		 push	 eax
  0000a	76 07		 jbe	 SHORT $L102167
  0000c	e8 00 00 00 00	 call	 ??2@YAPAXI@Z		; operator new
  00011	59		 pop	 ecx
  00012	c3		 ret	 0
$L102167:
  00013	e8 00 00 00 00	 call	 ?_M_allocate@?$__node_alloc@$00$0A@@_STL@@CAPAXI@Z ; _STL::__node_alloc<1,0>::_M_allocate
  00018	59		 pop	 ecx
  00019	c3		 ret	 0
?allocate@?$__node_alloc@$00$0A@@_STL@@SAPAXI@Z ENDP	; _STL::__node_alloc<1,0>::allocate
_TEXT	ENDS
PUBLIC	?deallocate@?$__node_alloc@$00$0A@@_STL@@SAXPAXI@Z ; _STL::__node_alloc<1,0>::deallocate
EXTRN	?_M_deallocate@?$__node_alloc@$00$0A@@_STL@@CAXPAXI@Z:NEAR ; _STL::__node_alloc<1,0>::_M_deallocate
; Function compile flags: /Ogsy
;	COMDAT ?deallocate@?$__node_alloc@$00$0A@@_STL@@SAXPAXI@Z
_TEXT	SEGMENT
___p$ = 8						; size = 4
___n$ = 12						; size = 4
?deallocate@?$__node_alloc@$00$0A@@_STL@@SAXPAXI@Z PROC NEAR ; _STL::__node_alloc<1,0>::deallocate, COMDAT

; 253  :   static void _STLP_CALL deallocate(void *__p, size_t __n) { if (__n > (size_t)_MAX_BYTES) __stl_delete(__p); else _M_deallocate(__p, __n); }

  00000	81 7c 24 08 80
	00 00 00	 cmp	 DWORD PTR ___n$[esp-4], 128 ; 00000080H
  00008	76 0b		 jbe	 SHORT $L98677
  0000a	ff 74 24 04	 push	 DWORD PTR ___p$[esp-4]
  0000e	e8 00 00 00 00	 call	 ??3@YAXPAX@Z		; operator delete
  00013	59		 pop	 ecx
  00014	c3		 ret	 0
$L98677:
  00015	e9 00 00 00 00	 jmp	 ?_M_deallocate@?$__node_alloc@$00$0A@@_STL@@CAXPAXI@Z ; _STL::__node_alloc<1,0>::_M_deallocate
?deallocate@?$__node_alloc@$00$0A@@_STL@@SAXPAXI@Z ENDP	; _STL::__node_alloc<1,0>::deallocate
_TEXT	ENDS
PUBLIC	??$?0V?$basic_string@DV?$char_traits@D@_STL@@V?$allocator@D@2@@_STL@@@?$allocator@U?$_List_node@V?$basic_string@DV?$char_traits@D@_STL@@V?$allocator@D@2@@_STL@@@_STL@@@_STL@@QAE@ABV?$allocator@V?$basic_string@DV?$char_traits@D@_STL@@V?$allocator@D@2@@_STL@@@1@@Z ; _STL::allocator<_STL::_List_node<_STL::basic_string<char,_STL::char_traits<char>,_STL::allocator<char> > > >::allocator<_STL::_List_node<_STL::basic_string<char,_STL::char_traits<char>,_STL::allocator<char> > > ><_STL::basic_string<char,_STL::char_traits<char>,_STL::allocator<char> > >
; Function compile flags: /Ogsy
;	COMDAT ??$?0V?$basic_string@DV?$char_traits@D@_STL@@V?$allocator@D@2@@_STL@@@?$allocator@U?$_List_node@V?$basic_string@DV?$char_traits@D@_STL@@V?$allocator@D@2@@_STL@@@_STL@@@_STL@@QAE@ABV?$allocator@V?$basic_string@DV?$char_traits@D@_STL@@V?$allocator@D@2@@_STL@@@1@@Z
_TEXT	SEGMENT
___formal$ = 8						; size = 4
??$?0V?$basic_string@DV?$char_traits@D@_STL@@V?$allocator@D@2@@_STL@@@?$allocator@U?$_List_node@V?$basic_string@DV?$char_traits@D@_STL@@V?$allocator@D@2@@_STL@@@_STL@@@_STL@@QAE@ABV?$allocator@V?$basic_string@DV?$char_traits@D@_STL@@V?$allocator@D@2@@_STL@@@1@@Z PROC NEAR ; _STL::allocator<_STL::_List_node<_STL::basic_string<char,_STL::char_traits<char>,_STL::allocator<char> > > >::allocator<_STL::_List_node<_STL::basic_string<char,_STL::char_traits<char>,_STL::allocator<char> > > ><_STL::basic_string<char,_STL::char_traits<char>,_STL::allocator<char> > >, COMDAT
; _this$ = ecx

; 347  :   template <class _Tp1> allocator(const allocator<_Tp1>&) _STLP_NOTHROW {}

  00000	8b c1		 mov	 eax, ecx
  00002	c2 04 00	 ret	 4
??$?0V?$basic_string@DV?$char_traits@D@_STL@@V?$allocator@D@2@@_STL@@@?$allocator@U?$_List_node@V?$basic_string@DV?$char_traits@D@_STL@@V?$allocator@D@2@@_STL@@@_STL@@@_STL@@QAE@ABV?$allocator@V?$basic_string@DV?$char_traits@D@_STL@@V?$allocator@D@2@@_STL@@@1@@Z ENDP ; _STL::allocator<_STL::_List_node<_STL::basic_string<char,_STL::char_traits<char>,_STL::allocator<char> > > >::allocator<_STL::_List_node<_STL::basic_string<char,_STL::char_traits<char>,_STL::allocator<char> > > ><_STL::basic_string<char,_STL::char_traits<char>,_STL::allocator<char> > >
_TEXT	ENDS
PUBLIC	?write@SocketOutputStream@@QAEIABV?$basic_string@DV?$char_traits@D@_STL@@V?$allocator@D@2@@_STL@@@Z ; SocketOutputStream::write
; Function compile flags: /Ogsy
; File c:\darkeden\designed_common\project\client\packet\socketoutputstream.h
;	COMDAT ?write@SocketOutputStream@@QAEIABV?$basic_string@DV?$char_traits@D@_STL@@V?$allocator@D@2@@_STL@@@Z
_TEXT	SEGMENT
_buf$ = 8						; size = 4
?write@SocketOutputStream@@QAEIABV?$basic_string@DV?$char_traits@D@_STL@@V?$allocator@D@2@@_STL@@@Z PROC NEAR ; SocketOutputStream::write, COMDAT
; _this$ = ecx

; 57   : 	uint write ( const std::string & buf ) throw ( Error ) { return write(buf.c_str(),buf.size()); }

  00000	8b 44 24 04	 mov	 eax, DWORD PTR _buf$[esp-4]
  00004	8b 10		 mov	 edx, DWORD PTR [eax]
  00006	8b 40 04	 mov	 eax, DWORD PTR [eax+4]
  00009	2b c2		 sub	 eax, edx
  0000b	50		 push	 eax
  0000c	52		 push	 edx
  0000d	e8 00 00 00 00	 call	 ?write@SocketOutputStream@@QAEIPBDI@Z ; SocketOutputStream::write
  00012	c2 04 00	 ret	 4
?write@SocketOutputStream@@QAEIABV?$basic_string@DV?$char_traits@D@_STL@@V?$allocator@D@2@@_STL@@@Z ENDP ; SocketOutputStream::write
_TEXT	ENDS
PUBLIC	?get_allocator@?$basic_string@DV?$char_traits@D@_STL@@V?$allocator@D@2@@_STL@@QBE?AV?$allocator@D@2@XZ ; _STL::basic_string<char,_STL::char_traits<char>,_STL::allocator<char> >::get_allocator
; Function compile flags: /Ogsy
; File c:\stlport-4.6.1\stlport\stl\_string.h
;	COMDAT ?get_allocator@?$basic_string@DV?$char_traits@D@_STL@@V?$allocator@D@2@@_STL@@QBE?AV?$allocator@D@2@XZ
_TEXT	SEGMENT
___$ReturnUdt$ = 8					; size = 4
?get_allocator@?$basic_string@DV?$char_traits@D@_STL@@V?$allocator@D@2@@_STL@@QBE?AV?$allocator@D@2@XZ PROC NEAR ; _STL::basic_string<char,_STL::char_traits<char>,_STL::allocator<char> >::get_allocator, COMDAT
; _this$ = ecx

; 216  :     return _STLP_CONVERT_ALLOCATOR((const allocator_type&)this->_M_end_of_storage, _CharT);

  00000	8b 44 24 04	 mov	 eax, DWORD PTR ___$ReturnUdt$[esp-4]

; 217  :   }

  00004	c2 04 00	 ret	 4
?get_allocator@?$basic_string@DV?$char_traits@D@_STL@@V?$allocator@D@2@@_STL@@QBE?AV?$allocator@D@2@XZ ENDP ; _STL::basic_string<char,_STL::char_traits<char>,_STL::allocator<char> >::get_allocator
_TEXT	ENDS
PUBLIC	?_M_terminate_string@?$basic_string@DV?$char_traits@D@_STL@@V?$allocator@D@2@@_STL@@AAEXXZ ; _STL::basic_string<char,_STL::char_traits<char>,_STL::allocator<char> >::_M_terminate_string
; Function compile flags: /Ogsy
;	COMDAT ?_M_terminate_string@?$basic_string@DV?$char_traits@D@_STL@@V?$allocator@D@2@@_STL@@AAEXXZ
_TEXT	SEGMENT
?_M_terminate_string@?$basic_string@DV?$char_traits@D@_STL@@V?$allocator@D@2@@_STL@@AAEXXZ PROC NEAR ; _STL::basic_string<char,_STL::char_traits<char>,_STL::allocator<char> >::_M_terminate_string, COMDAT
; _this$ = ecx

; 355  :     _M_terminate_string_aux(_Char_Is_Integral());

  00000	8b 41 04	 mov	 eax, DWORD PTR [ecx+4]
  00003	c6 00 00	 mov	 BYTE PTR [eax], 0

; 356  :   }

  00006	c3		 ret	 0
?_M_terminate_string@?$basic_string@DV?$char_traits@D@_STL@@V?$allocator@D@2@@_STL@@AAEXXZ ENDP ; _STL::basic_string<char,_STL::char_traits<char>,_STL::allocator<char> >::_M_terminate_string
_TEXT	ENDS
PUBLIC	?allocate@?$allocator@D@_STL@@QAEPADIPBX@Z	; _STL::allocator<char>::allocate
; Function compile flags: /Ogsy
; File c:\stlport-4.6.1\stlport\stl\_alloc.h
;	COMDAT ?allocate@?$allocator@D@_STL@@QAEPADIPBX@Z
_TEXT	SEGMENT
___n$ = 8						; size = 4
___formal$ = 12						; size = 4
?allocate@?$allocator@D@_STL@@QAEPADIPBX@Z PROC NEAR	; _STL::allocator<char>::allocate, COMDAT
; _this$ = ecx

; 355  :     return __n != 0 ? __REINTERPRET_CAST(value_type*,__sgi_alloc::allocate(__n * sizeof(value_type))) : 0;

  00000	33 c0		 xor	 eax, eax
  00002	39 44 24 04	 cmp	 DWORD PTR ___n$[esp-4], eax
  00006	74 0a		 je	 SHORT $L102206
  00008	ff 74 24 04	 push	 DWORD PTR ___n$[esp-4]
  0000c	e8 00 00 00 00	 call	 ?allocate@?$__node_alloc@$00$0A@@_STL@@SAPAXI@Z ; _STL::__node_alloc<1,0>::allocate
  00011	59		 pop	 ecx
$L102206:

; 356  :   }

  00012	c2 08 00	 ret	 8
?allocate@?$allocator@D@_STL@@QAEPADIPBX@Z ENDP		; _STL::allocator<char>::allocate
_TEXT	ENDS
PUBLIC	?to_ulong@?$bitset@$0BG@@_STL@@QBEKXZ		; _STL::bitset<22>::to_ulong
; Function compile flags: /Ogsy
; File c:\stlport-4.6.1\stlport\stl\_bitset.h
;	COMDAT ?to_ulong@?$bitset@$0BG@@_STL@@QBEKXZ
_TEXT	SEGMENT
?to_ulong@?$bitset@$0BG@@_STL@@QBEKXZ PROC NEAR		; _STL::bitset<22>::to_ulong, COMDAT
; _this$ = ecx

; 564  :   unsigned long to_ulong() const { return this->_M_do_to_ulong(); }

  00000	8b 01		 mov	 eax, DWORD PTR [ecx]
  00002	c3		 ret	 0
?to_ulong@?$bitset@$0BG@@_STL@@QBEKXZ ENDP		; _STL::bitset<22>::to_ulong
_TEXT	ENDS
PUBLIC	??0?$_STLP_alloc_proxy@PADDV?$allocator@D@_STL@@@_STL@@QAE@ABV?$allocator@D@1@PAD@Z ; _STL::_STLP_alloc_proxy<char *,char,_STL::allocator<char> >::_STLP_alloc_proxy<char *,char,_STL::allocator<char> >
; Function compile flags: /Ogsy
; File c:\stlport-4.6.1\stlport\stl\_alloc.h
;	COMDAT ??0?$_STLP_alloc_proxy@PADDV?$allocator@D@_STL@@@_STL@@QAE@ABV?$allocator@D@1@PAD@Z
_TEXT	SEGMENT
___a$ = 8						; size = 4
___p$ = 12						; size = 4
??0?$_STLP_alloc_proxy@PADDV?$allocator@D@_STL@@@_STL@@QAE@ABV?$allocator@D@1@PAD@Z PROC NEAR ; _STL::_STLP_alloc_proxy<char *,char,_STL::allocator<char> >::_STLP_alloc_proxy<char *,char,_STL::allocator<char> >, COMDAT
; _this$ = ecx

; 487  :   inline _STLP_alloc_proxy(const _MaybeReboundAlloc& __a, _Value __p) : _MaybeReboundAlloc(__a), _M_data(__p) {}

  00000	8b c1		 mov	 eax, ecx
  00002	8b 4c 24 08	 mov	 ecx, DWORD PTR ___p$[esp-4]
  00006	89 08		 mov	 DWORD PTR [eax], ecx
  00008	c2 08 00	 ret	 8
??0?$_STLP_alloc_proxy@PADDV?$allocator@D@_STL@@@_STL@@QAE@ABV?$allocator@D@1@PAD@Z ENDP ; _STL::_STLP_alloc_proxy<char *,char,_STL::allocator<char> >::_STLP_alloc_proxy<char *,char,_STL::allocator<char> >
_TEXT	ENDS
PUBLIC	?get_allocator@?$_List_base@V?$basic_string@DV?$char_traits@D@_STL@@V?$allocator@D@2@@_STL@@V?$allocator@V?$basic_string@DV?$char_traits@D@_STL@@V?$allocator@D@2@@_STL@@@2@@_STL@@QBE?AV?$allocator@V?$basic_string@DV?$char_traits@D@_STL@@V?$allocator@D@2@@_STL@@@2@XZ ; _STL::_List_base<_STL::basic_string<char,_STL::char_traits<char>,_STL::allocator<char> >,_STL::allocator<_STL::basic_string<char,_STL::char_traits<char>,_STL::allocator<char> > > >::get_allocator
; Function compile flags: /Ogsy
; File c:\stlport-4.6.1\stlport\stl\_list.h
;	COMDAT ?get_allocator@?$_List_base@V?$basic_string@DV?$char_traits@D@_STL@@V?$allocator@D@2@@_STL@@V?$allocator@V?$basic_string@DV?$char_traits@D@_STL@@V?$allocator@D@2@@_STL@@@2@@_STL@@QBE?AV?$allocator@V?$basic_string@DV?$char_traits@D@_STL@@V?$allocator@D@2@@_STL@@@2@XZ
_TEXT	SEGMENT
___$ReturnUdt$ = 8					; size = 4
?get_allocator@?$_List_base@V?$basic_string@DV?$char_traits@D@_STL@@V?$allocator@D@2@@_STL@@V?$allocator@V?$basic_string@DV?$char_traits@D@_STL@@V?$allocator@D@2@@_STL@@@2@@_STL@@QBE?AV?$allocator@V?$basic_string@DV?$char_traits@D@_STL@@V?$allocator@D@2@@_STL@@@2@XZ PROC NEAR ; _STL::_List_base<_STL::basic_string<char,_STL::char_traits<char>,_STL::allocator<char> >,_STL::allocator<_STL::basic_string<char,_STL::char_traits<char>,_STL::allocator<char> > > >::get_allocator, COMDAT
; _this$ = ecx

; 179  :     return _STLP_CONVERT_ALLOCATOR((const _Node_allocator_type&)_M_node, _Tp);

  00000	8b 44 24 04	 mov	 eax, DWORD PTR ___$ReturnUdt$[esp-4]

; 180  :   }

  00004	c2 04 00	 ret	 4
?get_allocator@?$_List_base@V?$basic_string@DV?$char_traits@D@_STL@@V?$allocator@D@2@@_STL@@V?$allocator@V?$basic_string@DV?$char_traits@D@_STL@@V?$allocator@D@2@@_STL@@@2@@_STL@@QBE?AV?$allocator@V?$basic_string@DV?$char_traits@D@_STL@@V?$allocator@D@2@@_STL@@@2@XZ ENDP ; _STL::_List_base<_STL::basic_string<char,_STL::char_traits<char>,_STL::allocator<char> >,_STL::allocator<_STL::basic_string<char,_STL::char_traits<char>,_STL::allocator<char> > > >::get_allocator
_TEXT	ENDS
PUBLIC	?_M_do_sanitize@?$bitset@$0BG@@_STL@@AAEXXZ	; _STL::bitset<22>::_M_do_sanitize
; Function compile flags: /Ogsy
; File c:\stlport-4.6.1\stlport\stl\_bitset.h
;	COMDAT ?_M_do_sanitize@?$bitset@$0BG@@_STL@@AAEXXZ
_TEXT	SEGMENT
?_M_do_sanitize@?$bitset@$0BG@@_STL@@AAEXXZ PROC NEAR	; _STL::bitset<22>::_M_do_sanitize, COMDAT
; _this$ = ecx

; 352  :     _Sanitize<_Nb%__BITS_PER_WORD >::_M_do_sanitize(this->_M_hiword());

  00000	66 83 61 02 3f	 and	 WORD PTR [ecx+2], 63	; 0000003fH

; 353  :   }

  00005	c3		 ret	 0
?_M_do_sanitize@?$bitset@$0BG@@_STL@@AAEXXZ ENDP	; _STL::bitset<22>::_M_do_sanitize
_TEXT	ENDS
PUBLIC	?_Unchecked_test@?$bitset@$0BG@@_STL@@QBE_NI@Z	; _STL::bitset<22>::_Unchecked_test
; Function compile flags: /Ogsy
;	COMDAT ?_Unchecked_test@?$bitset@$0BG@@_STL@@QBE_NI@Z
_TEXT	SEGMENT
___pos$ = 8						; size = 4
?_Unchecked_test@?$bitset@$0BG@@_STL@@QBE_NI@Z PROC NEAR ; _STL::bitset<22>::_Unchecked_test, COMDAT
; _this$ = ecx

; 507  :     return (this->_M_getword(__pos) & this->_S_maskbit(__pos)) != __STATIC_CAST(_WordT,0);

  00000	33 c0		 xor	 eax, eax
  00002	8b d1		 mov	 edx, ecx
  00004	8b 4c 24 04	 mov	 ecx, DWORD PTR ___pos$[esp-4]
  00008	40		 inc	 eax
  00009	83 e1 1f	 and	 ecx, 31			; 0000001fH
  0000c	d3 e0		 shl	 eax, cl
  0000e	23 02		 and	 eax, DWORD PTR [edx]
  00010	f7 d8		 neg	 eax
  00012	1b c0		 sbb	 eax, eax
  00014	f7 d8		 neg	 eax

; 508  :   }

  00016	c2 04 00	 ret	 4
?_Unchecked_test@?$bitset@$0BG@@_STL@@QBE_NI@Z ENDP	; _STL::bitset<22>::_Unchecked_test
_TEXT	ENDS
PUBLIC	??0?$_List_iterator@V?$basic_string@DV?$char_traits@D@_STL@@V?$allocator@D@2@@_STL@@U?$_Nonconst_traits@V?$basic_string@DV?$char_traits@D@_STL@@V?$allocator@D@2@@_STL@@@2@@_STL@@QAE@ABU01@@Z ; _STL::_List_iterator<_STL::basic_string<char,_STL::char_traits<char>,_STL::allocator<char> >,_STL::_Nonconst_traits<_STL::basic_string<char,_STL::char_traits<char>,_STL::allocator<char> > > >::_List_iterator<_STL::basic_string<char,_STL::char_traits<char>,_STL::allocator<char> >,_STL::_Nonconst_traits<_STL::basic_string<char,_STL::char_traits<char>,_STL::allocator<char> > > >
; Function compile flags: /Ogsy
; File c:\stlport-4.6.1\stlport\stl\_list.h
;	COMDAT ??0?$_List_iterator@V?$basic_string@DV?$char_traits@D@_STL@@V?$allocator@D@2@@_STL@@U?$_Nonconst_traits@V?$basic_string@DV?$char_traits@D@_STL@@V?$allocator@D@2@@_STL@@@2@@_STL@@QAE@ABU01@@Z
_TEXT	SEGMENT
___x$ = 8						; size = 4
??0?$_List_iterator@V?$basic_string@DV?$char_traits@D@_STL@@V?$allocator@D@2@@_STL@@U?$_Nonconst_traits@V?$basic_string@DV?$char_traits@D@_STL@@V?$allocator@D@2@@_STL@@@2@@_STL@@QAE@ABU01@@Z PROC NEAR ; _STL::_List_iterator<_STL::basic_string<char,_STL::char_traits<char>,_STL::allocator<char> >,_STL::_Nonconst_traits<_STL::basic_string<char,_STL::char_traits<char>,_STL::allocator<char> > > >::_List_iterator<_STL::basic_string<char,_STL::char_traits<char>,_STL::allocator<char> >,_STL::_Nonconst_traits<_STL::basic_string<char,_STL::char_traits<char>,_STL::allocator<char> > > >, COMDAT
; _this$ = ecx

; 128  :   _List_iterator(const iterator& __x) :  _List_iterator_base(__x._M_node) {}

  00000	8b c1		 mov	 eax, ecx
  00002	8b 4c 24 04	 mov	 ecx, DWORD PTR ___x$[esp-4]
  00006	8b 09		 mov	 ecx, DWORD PTR [ecx]
  00008	89 08		 mov	 DWORD PTR [eax], ecx
  0000a	c2 04 00	 ret	 4
??0?$_List_iterator@V?$basic_string@DV?$char_traits@D@_STL@@V?$allocator@D@2@@_STL@@U?$_Nonconst_traits@V?$basic_string@DV?$char_traits@D@_STL@@V?$allocator@D@2@@_STL@@@2@@_STL@@QAE@ABU01@@Z ENDP ; _STL::_List_iterator<_STL::basic_string<char,_STL::char_traits<char>,_STL::allocator<char> >,_STL::_Nonconst_traits<_STL::basic_string<char,_STL::char_traits<char>,_STL::allocator<char> > > >::_List_iterator<_STL::basic_string<char,_STL::char_traits<char>,_STL::allocator<char> >,_STL::_Nonconst_traits<_STL::basic_string<char,_STL::char_traits<char>,_STL::allocator<char> > > >
_TEXT	ENDS
PUBLIC	?setstate@?$basic_ios@DV?$char_traits@D@_STL@@@_STL@@QAEXH@Z ; _STL::basic_ios<char,_STL::char_traits<char> >::setstate
; Function compile flags: /Ogsy
; File c:\stlport-4.6.1\stlport\stl\_ios.h
;	COMDAT ?setstate@?$basic_ios@DV?$char_traits@D@_STL@@@_STL@@QAEXH@Z
_TEXT	SEGMENT
___state$ = 8						; size = 4
?setstate@?$basic_ios@DV?$char_traits@D@_STL@@@_STL@@QAEXH@Z PROC NEAR ; _STL::basic_ios<char,_STL::char_traits<char> >::setstate, COMDAT
; _this$ = ecx

; 94   :   void setstate(iostate __state) { this->clear(rdstate() | __state); }

  00000	8b 41 08	 mov	 eax, DWORD PTR [ecx+8]
  00003	0b 44 24 04	 or	 eax, DWORD PTR ___state$[esp-4]
  00007	50		 push	 eax
  00008	e8 00 00 00 00	 call	 ?clear@?$basic_ios@DV?$char_traits@D@_STL@@@_STL@@QAEXH@Z ; _STL::basic_ios<char,_STL::char_traits<char> >::clear
  0000d	c2 04 00	 ret	 4
?setstate@?$basic_ios@DV?$char_traits@D@_STL@@@_STL@@QAEXH@Z ENDP ; _STL::basic_ios<char,_STL::char_traits<char> >::setstate
_TEXT	ENDS
PUBLIC	?_S_eof@?$basic_ios@DV?$char_traits@D@_STL@@@_STL@@SA_NH@Z ; _STL::basic_ios<char,_STL::char_traits<char> >::_S_eof
; Function compile flags: /Ogsy
;	COMDAT ?_S_eof@?$basic_ios@DV?$char_traits@D@_STL@@@_STL@@SA_NH@Z
_TEXT	SEGMENT
___c$ = 8						; size = 4
?_S_eof@?$basic_ios@DV?$char_traits@D@_STL@@@_STL@@SA_NH@Z PROC NEAR ; _STL::basic_ios<char,_STL::char_traits<char> >::_S_eof, COMDAT

; 110  :     const int_type __eof = _Traits::eof();
; 111  :     return _Traits::eq_int_type(__c, __eof);

  00000	33 c0		 xor	 eax, eax
  00002	83 7c 24 04 ff	 cmp	 DWORD PTR ___c$[esp-4], -1
  00007	0f 94 c0	 sete	 al

; 112  :   }

  0000a	c3		 ret	 0
?_S_eof@?$basic_ios@DV?$char_traits@D@_STL@@@_STL@@SA_NH@Z ENDP ; _STL::basic_ios<char,_STL::char_traits<char> >::_S_eof
_TEXT	ENDS
PUBLIC	??E?$_List_iterator@V?$basic_string@DV?$char_traits@D@_STL@@V?$allocator@D@2@@_STL@@U?$_Const_traits@V?$basic_string@DV?$char_traits@D@_STL@@V?$allocator@D@2@@_STL@@@2@@_STL@@QAEAAU01@XZ ; _STL::_List_iterator<_STL::basic_string<char,_STL::char_traits<char>,_STL::allocator<char> >,_STL::_Const_traits<_STL::basic_string<char,_STL::char_traits<char>,_STL::allocator<char> > > >::operator++
; Function compile flags: /Ogsy
; File c:\stlport-4.6.1\stlport\stl\_list.h
;	COMDAT ??E?$_List_iterator@V?$basic_string@DV?$char_traits@D@_STL@@V?$allocator@D@2@@_STL@@U?$_Const_traits@V?$basic_string@DV?$char_traits@D@_STL@@V?$allocator@D@2@@_STL@@@2@@_STL@@QAEAAU01@XZ
_TEXT	SEGMENT
??E?$_List_iterator@V?$basic_string@DV?$char_traits@D@_STL@@V?$allocator@D@2@@_STL@@U?$_Const_traits@V?$basic_string@DV?$char_traits@D@_STL@@V?$allocator@D@2@@_STL@@@2@@_STL@@QAEAAU01@XZ PROC NEAR ; _STL::_List_iterator<_STL::basic_string<char,_STL::char_traits<char>,_STL::allocator<char> >,_STL::_Const_traits<_STL::basic_string<char,_STL::char_traits<char>,_STL::allocator<char> > > >::operator++, COMDAT
; _this$ = ecx

; 134  :   _Self& operator++() { 

  00000	8b c1		 mov	 eax, ecx

; 135  :     this->_M_incr();

  00002	8b 08		 mov	 ecx, DWORD PTR [eax]
  00004	8b 09		 mov	 ecx, DWORD PTR [ecx]
  00006	89 08		 mov	 DWORD PTR [eax], ecx

; 136  :     return *this;
; 137  :   }

  00008	c3		 ret	 0
??E?$_List_iterator@V?$basic_string@DV?$char_traits@D@_STL@@V?$allocator@D@2@@_STL@@U?$_Const_traits@V?$basic_string@DV?$char_traits@D@_STL@@V?$allocator@D@2@@_STL@@@2@@_STL@@QAEAAU01@XZ ENDP ; _STL::_List_iterator<_STL::basic_string<char,_STL::char_traits<char>,_STL::allocator<char> >,_STL::_Const_traits<_STL::basic_string<char,_STL::char_traits<char>,_STL::allocator<char> > > >::operator++
_TEXT	ENDS
PUBLIC	??$distance@PBD@_STL@@YAHABQBD0@Z		; _STL::distance<char const *>
; Function compile flags: /Ogsy
; File c:\stlport-4.6.1\stlport\stl\_iterator_base.h
;	COMDAT ??$distance@PBD@_STL@@YAHABQBD0@Z
_TEXT	SEGMENT
___first$ = 8						; size = 4
___last$ = 12						; size = 4
??$distance@PBD@_STL@@YAHABQBD0@Z PROC NEAR		; _STL::distance<char const *>, COMDAT

; 369  :   return __distance(__first, __last, _STLP_ITERATOR_CATEGORY(__first, _InputIterator));  

  00000	8b 44 24 08	 mov	 eax, DWORD PTR ___last$[esp-4]
  00004	8b 00		 mov	 eax, DWORD PTR [eax]
  00006	8b 4c 24 04	 mov	 ecx, DWORD PTR ___first$[esp-4]
  0000a	2b 01		 sub	 eax, DWORD PTR [ecx]

; 370  : }

  0000c	c3		 ret	 0
??$distance@PBD@_STL@@YAHABQBD0@Z ENDP			; _STL::distance<char const *>
_TEXT	ENDS
PUBLIC	?_M_allocate_block@?$_String_base@DV?$allocator@D@_STL@@@_STL@@QAEXI@Z ; _STL::_String_base<char,_STL::allocator<char> >::_M_allocate_block
; Function compile flags: /Ogsy
; File c:\stlport-4.6.1\stlport\stl\_string.c
;	COMDAT ?_M_allocate_block@?$_String_base@DV?$allocator@D@_STL@@@_STL@@QAEXI@Z
_TEXT	SEGMENT
___n$ = 8						; size = 4
?_M_allocate_block@?$_String_base@DV?$allocator@D@_STL@@@_STL@@QAEXI@Z PROC NEAR ; _STL::_String_base<char,_STL::allocator<char> >::_M_allocate_block, COMDAT
; _this$ = ecx

; 530  : template <class _Tp, class _Alloc> void _String_base<_Tp, _Alloc>::_M_allocate_block(size_t __n) {  

  00000	56		 push	 esi
  00001	57		 push	 edi

; 531  :   if ((__n <= (max_size()+1)) && (__n>0)){ 

  00002	8b 7c 24 0c	 mov	 edi, DWORD PTR ___n$[esp+4]
  00006	83 ff ff	 cmp	 edi, -1
  00009	8b f1		 mov	 esi, ecx
  0000b	77 17		 ja	 SHORT $L101152
  0000d	85 ff		 test	 edi, edi
  0000f	76 13		 jbe	 SHORT $L101152

; 532  :     _M_start  = _M_end_of_storage.allocate(__n); 

  00011	57		 push	 edi
  00012	e8 00 00 00 00	 call	 ?allocate@?$__node_alloc@$00$0A@@_STL@@SAPAXI@Z ; _STL::__node_alloc<1,0>::allocate
  00017	89 06		 mov	 DWORD PTR [esi], eax

; 533  :     _M_finish = _M_start; 

  00019	89 46 04	 mov	 DWORD PTR [esi+4], eax

; 534  :     _M_end_of_storage._M_data = _M_start + __n; 

  0001c	03 c7		 add	 eax, edi
  0001e	59		 pop	 ecx
  0001f	89 46 08	 mov	 DWORD PTR [esi+8], eax

; 535  :   } 
; 536  :     else 

  00022	eb 07		 jmp	 SHORT $L101153
$L101152:

; 537  :       _M_throw_length_error(); 

  00024	8b ce		 mov	 ecx, esi
  00026	e8 00 00 00 00	 call	 ?_M_throw_length_error@?$_String_base@DV?$allocator@D@_STL@@@_STL@@QBEXXZ ; _STL::_String_base<char,_STL::allocator<char> >::_M_throw_length_error
$L101153:
  0002b	5f		 pop	 edi
  0002c	5e		 pop	 esi

; 538  : } 

  0002d	c2 04 00	 ret	 4
?_M_allocate_block@?$_String_base@DV?$allocator@D@_STL@@@_STL@@QAEXI@Z ENDP ; _STL::_String_base<char,_STL::allocator<char> >::_M_allocate_block
_TEXT	ENDS
PUBLIC	??$distance@PAD@_STL@@YAHABQAD0@Z		; _STL::distance<char *>
; Function compile flags: /Ogsy
; File c:\stlport-4.6.1\stlport\stl\_iterator_base.h
;	COMDAT ??$distance@PAD@_STL@@YAHABQAD0@Z
_TEXT	SEGMENT
___first$ = 8						; size = 4
___last$ = 12						; size = 4
??$distance@PAD@_STL@@YAHABQAD0@Z PROC NEAR		; _STL::distance<char *>, COMDAT

; 369  :   return __distance(__first, __last, _STLP_ITERATOR_CATEGORY(__first, _InputIterator));  

  00000	8b 44 24 08	 mov	 eax, DWORD PTR ___last$[esp-4]
  00004	8b 00		 mov	 eax, DWORD PTR [eax]
  00006	8b 4c 24 04	 mov	 ecx, DWORD PTR ___first$[esp-4]
  0000a	2b 01		 sub	 eax, DWORD PTR [ecx]

; 370  : }

  0000c	c3		 ret	 0
??$distance@PAD@_STL@@YAHABQAD0@Z ENDP			; _STL::distance<char *>
_TEXT	ENDS
PUBLIC	??$__copy_aux@PADPAD@_STL@@YAPADPAD00ABU__true_type@0@@Z ; _STL::__copy_aux<char *,char *>
; Function compile flags: /Ogsy
; File c:\stlport-4.6.1\stlport\stl\_algobase.h
;	COMDAT ??$__copy_aux@PADPAD@_STL@@YAPADPAD00ABU__true_type@0@@Z
_TEXT	SEGMENT
___first$ = 8						; size = 4
___last$ = 12						; size = 4
___result$ = 16						; size = 4
___formal$ = 20						; size = 4
??$__copy_aux@PADPAD@_STL@@YAPADPAD00ABU__true_type@0@@Z PROC NEAR ; _STL::__copy_aux<char *,char *>, COMDAT

; 202  :   return __copy_ptrs(__first, __last, __result, 
; 203  :                      _IsOKToMemCpy(_STLP_VALUE_TYPE(__first, _InputIter), 
; 204  :                                    _STLP_VALUE_TYPE(__result, _OutputIter))._Ret());

  00000	ff 74 24 0c	 push	 DWORD PTR ___result$[esp-4]
  00004	ff 74 24 0c	 push	 DWORD PTR ___last$[esp]
  00008	ff 74 24 0c	 push	 DWORD PTR ___first$[esp+4]
  0000c	e8 00 00 00 00	 call	 ?__copy_trivial@_STL@@YAPAXPBX0PAX@Z ; _STL::__copy_trivial
  00011	83 c4 0c	 add	 esp, 12			; 0000000cH

; 205  : }

  00014	c3		 ret	 0
??$__copy_aux@PADPAD@_STL@@YAPADPAD00ABU__true_type@0@@Z ENDP ; _STL::__copy_aux<char *,char *>
_TEXT	ENDS
PUBLIC	?begin@?$list@V?$basic_string@DV?$char_traits@D@_STL@@V?$allocator@D@2@@_STL@@V?$allocator@V?$basic_string@DV?$char_traits@D@_STL@@V?$allocator@D@2@@_STL@@@2@@_STL@@QBE?AU?$_List_iterator@V?$basic_string@DV?$char_traits@D@_STL@@V?$allocator@D@2@@_STL@@U?$_Const_traits@V?$basic_string@DV?$char_traits@D@_STL@@V?$allocator@D@2@@_STL@@@2@@2@XZ ; _STL::list<_STL::basic_string<char,_STL::char_traits<char>,_STL::allocator<char> >,_STL::allocator<_STL::basic_string<char,_STL::char_traits<char>,_STL::allocator<char> > > >::begin
; Function compile flags: /Ogsy
; File c:\stlport-4.6.1\stlport\stl\_list.h
;	COMDAT ?begin@?$list@V?$basic_string@DV?$char_traits@D@_STL@@V?$allocator@D@2@@_STL@@V?$allocator@V?$basic_string@DV?$char_traits@D@_STL@@V?$allocator@D@2@@_STL@@@2@@_STL@@QBE?AU?$_List_iterator@V?$basic_string@DV?$char_traits@D@_STL@@V?$allocator@D@2@@_STL@@U?$_Const_traits@V?$basic_string@DV?$char_traits@D@_STL@@V?$allocator@D@2@@_STL@@@2@@2@XZ
_TEXT	SEGMENT
___$ReturnUdt$ = 8					; size = 4
?begin@?$list@V?$basic_string@DV?$char_traits@D@_STL@@V?$allocator@D@2@@_STL@@V?$allocator@V?$basic_string@DV?$char_traits@D@_STL@@V?$allocator@D@2@@_STL@@@2@@_STL@@QBE?AU?$_List_iterator@V?$basic_string@DV?$char_traits@D@_STL@@V?$allocator@D@2@@_STL@@U?$_Const_traits@V?$basic_string@DV?$char_traits@D@_STL@@V?$allocator@D@2@@_STL@@@2@@2@XZ PROC NEAR ; _STL::list<_STL::basic_string<char,_STL::char_traits<char>,_STL::allocator<char> >,_STL::allocator<_STL::basic_string<char,_STL::char_traits<char>,_STL::allocator<char> > > >::begin, COMDAT
; _this$ = ecx

; 267  :   const_iterator begin() const { return const_iterator((_Node*)(this->_M_node._M_data->_M_next)); }

  00000	8b 01		 mov	 eax, DWORD PTR [ecx]
  00002	8b 08		 mov	 ecx, DWORD PTR [eax]
  00004	8b 44 24 04	 mov	 eax, DWORD PTR ___$ReturnUdt$[esp-4]
  00008	89 08		 mov	 DWORD PTR [eax], ecx
  0000a	c2 04 00	 ret	 4
?begin@?$list@V?$basic_string@DV?$char_traits@D@_STL@@V?$allocator@D@2@@_STL@@V?$allocator@V?$basic_string@DV?$char_traits@D@_STL@@V?$allocator@D@2@@_STL@@@2@@_STL@@QBE?AU?$_List_iterator@V?$basic_string@DV?$char_traits@D@_STL@@V?$allocator@D@2@@_STL@@U?$_Const_traits@V?$basic_string@DV?$char_traits@D@_STL@@V?$allocator@D@2@@_STL@@@2@@2@XZ ENDP ; _STL::list<_STL::basic_string<char,_STL::char_traits<char>,_STL::allocator<char> >,_STL::allocator<_STL::basic_string<char,_STL::char_traits<char>,_STL::allocator<char> > > >::begin
_TEXT	ENDS
PUBLIC	?end@?$list@V?$basic_string@DV?$char_traits@D@_STL@@V?$allocator@D@2@@_STL@@V?$allocator@V?$basic_string@DV?$char_traits@D@_STL@@V?$allocator@D@2@@_STL@@@2@@_STL@@QBE?AU?$_List_iterator@V?$basic_string@DV?$char_traits@D@_STL@@V?$allocator@D@2@@_STL@@U?$_Const_traits@V?$basic_string@DV?$char_traits@D@_STL@@V?$allocator@D@2@@_STL@@@2@@2@XZ ; _STL::list<_STL::basic_string<char,_STL::char_traits<char>,_STL::allocator<char> >,_STL::allocator<_STL::basic_string<char,_STL::char_traits<char>,_STL::allocator<char> > > >::end
; Function compile flags: /Ogsy
;	COMDAT ?end@?$list@V?$basic_string@DV?$char_traits@D@_STL@@V?$allocator@D@2@@_STL@@V?$allocator@V?$basic_string@DV?$char_traits@D@_STL@@V?$allocator@D@2@@_STL@@@2@@_STL@@QBE?AU?$_List_iterator@V?$basic_string@DV?$char_traits@D@_STL@@V?$allocator@D@2@@_STL@@U?$_Const_traits@V?$basic_string@DV?$char_traits@D@_STL@@V?$allocator@D@2@@_STL@@@2@@2@XZ
_TEXT	SEGMENT
___$ReturnUdt$ = 8					; size = 4
?end@?$list@V?$basic_string@DV?$char_traits@D@_STL@@V?$allocator@D@2@@_STL@@V?$allocator@V?$basic_string@DV?$char_traits@D@_STL@@V?$allocator@D@2@@_STL@@@2@@_STL@@QBE?AU?$_List_iterator@V?$basic_string@DV?$char_traits@D@_STL@@V?$allocator@D@2@@_STL@@U?$_Const_traits@V?$basic_string@DV?$char_traits@D@_STL@@V?$allocator@D@2@@_STL@@@2@@2@XZ PROC NEAR ; _STL::list<_STL::basic_string<char,_STL::char_traits<char>,_STL::allocator<char> >,_STL::allocator<_STL::basic_string<char,_STL::char_traits<char>,_STL::allocator<char> > > >::end, COMDAT
; _this$ = ecx

; 270  :   const_iterator end() const { return this->_M_node._M_data; }

  00000	8b 09		 mov	 ecx, DWORD PTR [ecx]
  00002	8b 44 24 04	 mov	 eax, DWORD PTR ___$ReturnUdt$[esp-4]
  00006	89 08		 mov	 DWORD PTR [eax], ecx
  00008	c2 04 00	 ret	 4
?end@?$list@V?$basic_string@DV?$char_traits@D@_STL@@V?$allocator@D@2@@_STL@@V?$allocator@V?$basic_string@DV?$char_traits@D@_STL@@V?$allocator@D@2@@_STL@@@2@@_STL@@QBE?AU?$_List_iterator@V?$basic_string@DV?$char_traits@D@_STL@@V?$allocator@D@2@@_STL@@U?$_Const_traits@V?$basic_string@DV?$char_traits@D@_STL@@V?$allocator@D@2@@_STL@@@2@@2@XZ ENDP ; _STL::list<_STL::basic_string<char,_STL::char_traits<char>,_STL::allocator<char> >,_STL::allocator<_STL::basic_string<char,_STL::char_traits<char>,_STL::allocator<char> > > >::end
_TEXT	ENDS
PUBLIC	?begin@?$list@V?$basic_string@DV?$char_traits@D@_STL@@V?$allocator@D@2@@_STL@@V?$allocator@V?$basic_string@DV?$char_traits@D@_STL@@V?$allocator@D@2@@_STL@@@2@@_STL@@QAE?AU?$_List_iterator@V?$basic_string@DV?$char_traits@D@_STL@@V?$allocator@D@2@@_STL@@U?$_Nonconst_traits@V?$basic_string@DV?$char_traits@D@_STL@@V?$allocator@D@2@@_STL@@@2@@2@XZ ; _STL::list<_STL::basic_string<char,_STL::char_traits<char>,_STL::allocator<char> >,_STL::allocator<_STL::basic_string<char,_STL::char_traits<char>,_STL::allocator<char> > > >::begin
; Function compile flags: /Ogsy
;	COMDAT ?begin@?$list@V?$basic_string@DV?$char_traits@D@_STL@@V?$allocator@D@2@@_STL@@V?$allocator@V?$basic_string@DV?$char_traits@D@_STL@@V?$allocator@D@2@@_STL@@@2@@_STL@@QAE?AU?$_List_iterator@V?$basic_string@DV?$char_traits@D@_STL@@V?$allocator@D@2@@_STL@@U?$_Nonconst_traits@V?$basic_string@DV?$char_traits@D@_STL@@V?$allocator@D@2@@_STL@@@2@@2@XZ
_TEXT	SEGMENT
___$ReturnUdt$ = 8					; size = 4
?begin@?$list@V?$basic_string@DV?$char_traits@D@_STL@@V?$allocator@D@2@@_STL@@V?$allocator@V?$basic_string@DV?$char_traits@D@_STL@@V?$allocator@D@2@@_STL@@@2@@_STL@@QAE?AU?$_List_iterator@V?$basic_string@DV?$char_traits@D@_STL@@V?$allocator@D@2@@_STL@@U?$_Nonconst_traits@V?$basic_string@DV?$char_traits@D@_STL@@V?$allocator@D@2@@_STL@@@2@@2@XZ PROC NEAR ; _STL::list<_STL::basic_string<char,_STL::char_traits<char>,_STL::allocator<char> >,_STL::allocator<_STL::basic_string<char,_STL::char_traits<char>,_STL::allocator<char> > > >::begin, COMDAT
; _this$ = ecx

; 266  :   iterator begin()             { return iterator((_Node*)(this->_M_node._M_data->_M_next)); }

  00000	8b 01		 mov	 eax, DWORD PTR [ecx]
  00002	8b 08		 mov	 ecx, DWORD PTR [eax]
  00004	8b 44 24 04	 mov	 eax, DWORD PTR ___$ReturnUdt$[esp-4]
  00008	89 08		 mov	 DWORD PTR [eax], ecx
  0000a	c2 04 00	 ret	 4
?begin@?$list@V?$basic_string@DV?$char_traits@D@_STL@@V?$allocator@D@2@@_STL@@V?$allocator@V?$basic_string@DV?$char_traits@D@_STL@@V?$allocator@D@2@@_STL@@@2@@_STL@@QAE?AU?$_List_iterator@V?$basic_string@DV?$char_traits@D@_STL@@V?$allocator@D@2@@_STL@@U?$_Nonconst_traits@V?$basic_string@DV?$char_traits@D@_STL@@V?$allocator@D@2@@_STL@@@2@@2@XZ ENDP ; _STL::list<_STL::basic_string<char,_STL::char_traits<char>,_STL::allocator<char> >,_STL::allocator<_STL::basic_string<char,_STL::char_traits<char>,_STL::allocator<char> > > >::begin
_TEXT	ENDS
PUBLIC	??1?$_STLP_alloc_proxy@PAU?$_List_node@V?$basic_string@DV?$char_traits@D@_STL@@V?$allocator@D@2@@_STL@@@_STL@@U12@V?$allocator@U?$_List_node@V?$basic_string@DV?$char_traits@D@_STL@@V?$allocator@D@2@@_STL@@@_STL@@@2@@_STL@@QAE@XZ ; _STL::_STLP_alloc_proxy<_STL::_List_node<_STL::basic_string<char,_STL::char_traits<char>,_STL::allocator<char> > > *,_STL::_List_node<_STL::basic_string<char,_STL::char_traits<char>,_STL::allocator<char> > >,_STL::allocator<_STL::_List_node<_STL::basic_string<char,_STL::char_traits<char>,_STL::allocator<char> > > > >::~_STLP_alloc_proxy<_STL::_List_node<_STL::basic_string<char,_STL::char_traits<char>,_STL::allocator<char> > > *,_STL::_List_node<_STL::basic_string<char,_STL::char_traits<char>,_STL::allocator<char> > >,_STL::allocator<_STL::_List_node<_STL::basic_string<char,_STL::char_traits<char>,_STL::allocator<char> > > > >
; Function compile flags: /Ogsy
;	COMDAT ??1?$_STLP_alloc_proxy@PAU?$_List_node@V?$basic_string@DV?$char_traits@D@_STL@@V?$allocator@D@2@@_STL@@@_STL@@U12@V?$allocator@U?$_List_node@V?$basic_string@DV?$char_traits@D@_STL@@V?$allocator@D@2@@_STL@@@_STL@@@2@@_STL@@QAE@XZ
_TEXT	SEGMENT
??1?$_STLP_alloc_proxy@PAU?$_List_node@V?$basic_string@DV?$char_traits@D@_STL@@V?$allocator@D@2@@_STL@@@_STL@@U12@V?$allocator@U?$_List_node@V?$basic_string@DV?$char_traits@D@_STL@@V?$allocator@D@2@@_STL@@@_STL@@@2@@_STL@@QAE@XZ PROC NEAR ; _STL::_STLP_alloc_proxy<_STL::_List_node<_STL::basic_string<char,_STL::char_traits<char>,_STL::allocator<char> > > *,_STL::_List_node<_STL::basic_string<char,_STL::char_traits<char>,_STL::allocator<char> > >,_STL::allocator<_STL::_List_node<_STL::basic_string<char,_STL::char_traits<char>,_STL::allocator<char> > > > >::~_STLP_alloc_proxy<_STL::_List_node<_STL::basic_string<char,_STL::char_traits<char>,_STL::allocator<char> > > *,_STL::_List_node<_STL::basic_string<char,_STL::char_traits<char>,_STL::allocator<char> > >,_STL::allocator<_STL::_List_node<_STL::basic_string<char,_STL::char_traits<char>,_STL::allocator<char> > > > >, COMDAT
; _this$ = ecx
  00000	c3		 ret	 0
??1?$_STLP_alloc_proxy@PAU?$_List_node@V?$basic_string@DV?$char_traits@D@_STL@@V?$allocator@D@2@@_STL@@@_STL@@U12@V?$allocator@U?$_List_node@V?$basic_string@DV?$char_traits@D@_STL@@V?$allocator@D@2@@_STL@@@_STL@@@2@@_STL@@QAE@XZ ENDP ; _STL::_STLP_alloc_proxy<_STL::_List_node<_STL::basic_string<char,_STL::char_traits<char>,_STL::allocator<char> > > *,_STL::_List_node<_STL::basic_string<char,_STL::char_traits<char>,_STL::allocator<char> > >,_STL::allocator<_STL::_List_node<_STL::basic_string<char,_STL::char_traits<char>,_STL::allocator<char> > > > >::~_STLP_alloc_proxy<_STL::_List_node<_STL::basic_string<char,_STL::char_traits<char>,_STL::allocator<char> > > *,_STL::_List_node<_STL::basic_string<char,_STL::char_traits<char>,_STL::allocator<char> > >,_STL::allocator<_STL::_List_node<_STL::basic_string<char,_STL::char_traits<char>,_STL::allocator<char> > > > >
_TEXT	ENDS
PUBLIC	??0?$_STLP_alloc_proxy@PAU?$_List_node@V?$basic_string@DV?$char_traits@D@_STL@@V?$allocator@D@2@@_STL@@@_STL@@U12@V?$allocator@U?$_List_node@V?$basic_string@DV?$char_traits@D@_STL@@V?$allocator@D@2@@_STL@@@_STL@@@2@@_STL@@QAE@ABV?$allocator@U?$_List_node@V?$basic_string@DV?$char_traits@D@_STL@@V?$allocator@D@2@@_STL@@@_STL@@@1@PAU?$_List_node@V?$basic_string@DV?$char_traits@D@_STL@@V?$allocator@D@2@@_STL@@@1@@Z ; _STL::_STLP_alloc_proxy<_STL::_List_node<_STL::basic_string<char,_STL::char_traits<char>,_STL::allocator<char> > > *,_STL::_List_node<_STL::basic_string<char,_STL::char_traits<char>,_STL::allocator<char> > >,_STL::allocator<_STL::_List_node<_STL::basic_string<char,_STL::char_traits<char>,_STL::allocator<char> > > > >::_STLP_alloc_proxy<_STL::_List_node<_STL::basic_string<char,_STL::char_traits<char>,_STL::allocator<char> > > *,_STL::_List_node<_STL::basic_string<char,_STL::char_traits<char>,_STL::allocator<char> > >,_STL::allocator<_STL::_List_node<_STL::basic_string<char,_STL::char_traits<char>,_STL::allocator<char> > > > >
; Function compile flags: /Ogsy
; File c:\stlport-4.6.1\stlport\stl\_alloc.h
;	COMDAT ??0?$_STLP_alloc_proxy@PAU?$_List_node@V?$basic_string@DV?$char_traits@D@_STL@@V?$allocator@D@2@@_STL@@@_STL@@U12@V?$allocator@U?$_List_node@V?$basic_string@DV?$char_traits@D@_STL@@V?$allocator@D@2@@_STL@@@_STL@@@2@@_STL@@QAE@ABV?$allocator@U?$_List_node@V?$basic_string@DV?$char_traits@D@_STL@@V?$allocator@D@2@@_STL@@@_STL@@@1@PAU?$_List_node@V?$basic_string@DV?$char_traits@D@_STL@@V?$allocator@D@2@@_STL@@@1@@Z
_TEXT	SEGMENT
___a$ = 8						; size = 4
___p$ = 12						; size = 4
??0?$_STLP_alloc_proxy@PAU?$_List_node@V?$basic_string@DV?$char_traits@D@_STL@@V?$allocator@D@2@@_STL@@@_STL@@U12@V?$allocator@U?$_List_node@V?$basic_string@DV?$char_traits@D@_STL@@V?$allocator@D@2@@_STL@@@_STL@@@2@@_STL@@QAE@ABV?$allocator@U?$_List_node@V?$basic_string@DV?$char_traits@D@_STL@@V?$allocator@D@2@@_STL@@@_STL@@@1@PAU?$_List_node@V?$basic_string@DV?$char_traits@D@_STL@@V?$allocator@D@2@@_STL@@@1@@Z PROC NEAR ; _STL::_STLP_alloc_proxy<_STL::_List_node<_STL::basic_string<char,_STL::char_traits<char>,_STL::allocator<char> > > *,_STL::_List_node<_STL::basic_string<char,_STL::char_traits<char>,_STL::allocator<char> > >,_STL::allocator<_STL::_List_node<_STL::basic_string<char,_STL::char_traits<char>,_STL::allocator<char> > > > >::_STLP_alloc_proxy<_STL::_List_node<_STL::basic_string<char,_STL::char_traits<char>,_STL::allocator<char> > > *,_STL::_List_node<_STL::basic_string<char,_STL::char_traits<char>,_STL::allocator<char> > >,_STL::allocator<_STL::_List_node<_STL::basic_string<char,_STL::char_traits<char>,_STL::allocator<char> > > > >, COMDAT
; _this$ = ecx

; 487  :   inline _STLP_alloc_proxy(const _MaybeReboundAlloc& __a, _Value __p) : _MaybeReboundAlloc(__a), _M_data(__p) {}

  00000	8b c1		 mov	 eax, ecx
  00002	8b 4c 24 08	 mov	 ecx, DWORD PTR ___p$[esp-4]
  00006	89 08		 mov	 DWORD PTR [eax], ecx
  00008	c2 08 00	 ret	 8
??0?$_STLP_alloc_proxy@PAU?$_List_node@V?$basic_string@DV?$char_traits@D@_STL@@V?$allocator@D@2@@_STL@@@_STL@@U12@V?$allocator@U?$_List_node@V?$basic_string@DV?$char_traits@D@_STL@@V?$allocator@D@2@@_STL@@@_STL@@@2@@_STL@@QAE@ABV?$allocator@U?$_List_node@V?$basic_string@DV?$char_traits@D@_STL@@V?$allocator@D@2@@_STL@@@_STL@@@1@PAU?$_List_node@V?$basic_string@DV?$char_traits@D@_STL@@V?$allocator@D@2@@_STL@@@1@@Z ENDP ; _STL::_STLP_alloc_proxy<_STL::_List_node<_STL::basic_string<char,_STL::char_traits<char>,_STL::allocator<char> > > *,_STL::_List_node<_STL::basic_string<char,_STL::char_traits<char>,_STL::allocator<char> > >,_STL::allocator<_STL::_List_node<_STL::basic_string<char,_STL::char_traits<char>,_STL::allocator<char> > > > >::_STLP_alloc_proxy<_STL::_List_node<_STL::basic_string<char,_STL::char_traits<char>,_STL::allocator<char> > > *,_STL::_List_node<_STL::basic_string<char,_STL::char_traits<char>,_STL::allocator<char> > >,_STL::allocator<_STL::_List_node<_STL::basic_string<char,_STL::char_traits<char>,_STL::allocator<char> > > > >
_TEXT	ENDS
PUBLIC	?allocate@?$allocator@U?$_List_node@V?$basic_string@DV?$char_traits@D@_STL@@V?$allocator@D@2@@_STL@@@_STL@@@_STL@@QAEPAU?$_List_node@V?$basic_string@DV?$char_traits@D@_STL@@V?$allocator@D@2@@_STL@@@2@IPBX@Z ; _STL::allocator<_STL::_List_node<_STL::basic_string<char,_STL::char_traits<char>,_STL::allocator<char> > > >::allocate
; Function compile flags: /Ogsy
;	COMDAT ?allocate@?$allocator@U?$_List_node@V?$basic_string@DV?$char_traits@D@_STL@@V?$allocator@D@2@@_STL@@@_STL@@@_STL@@QAEPAU?$_List_node@V?$basic_string@DV?$char_traits@D@_STL@@V?$allocator@D@2@@_STL@@@2@IPBX@Z
_TEXT	SEGMENT
___n$ = 8						; size = 4
___formal$ = 12						; size = 4
?allocate@?$allocator@U?$_List_node@V?$basic_string@DV?$char_traits@D@_STL@@V?$allocator@D@2@@_STL@@@_STL@@@_STL@@QAEPAU?$_List_node@V?$basic_string@DV?$char_traits@D@_STL@@V?$allocator@D@2@@_STL@@@2@IPBX@Z PROC NEAR ; _STL::allocator<_STL::_List_node<_STL::basic_string<char,_STL::char_traits<char>,_STL::allocator<char> > > >::allocate, COMDAT
; _this$ = ecx

; 355  :     return __n != 0 ? __REINTERPRET_CAST(value_type*,__sgi_alloc::allocate(__n * sizeof(value_type))) : 0;

  00000	8b 44 24 04	 mov	 eax, DWORD PTR ___n$[esp-4]
  00004	85 c0		 test	 eax, eax
  00006	74 0f		 je	 SHORT $L102366
  00008	8d 04 80	 lea	 eax, DWORD PTR [eax+eax*4]
  0000b	c1 e0 02	 shl	 eax, 2
  0000e	50		 push	 eax
  0000f	e8 00 00 00 00	 call	 ?allocate@?$__node_alloc@$00$0A@@_STL@@SAPAXI@Z ; _STL::__node_alloc<1,0>::allocate
  00014	59		 pop	 ecx
  00015	eb 02		 jmp	 SHORT $L102367
$L102366:
  00017	33 c0		 xor	 eax, eax
$L102367:

; 356  :   }

  00019	c2 08 00	 ret	 8
?allocate@?$allocator@U?$_List_node@V?$basic_string@DV?$char_traits@D@_STL@@V?$allocator@D@2@@_STL@@@_STL@@@_STL@@QAEPAU?$_List_node@V?$basic_string@DV?$char_traits@D@_STL@@V?$allocator@D@2@@_STL@@@2@IPBX@Z ENDP ; _STL::allocator<_STL::_List_node<_STL::basic_string<char,_STL::char_traits<char>,_STL::allocator<char> > > >::allocate
_TEXT	ENDS
PUBLIC	?deallocate@?$allocator@U?$_List_node@V?$basic_string@DV?$char_traits@D@_STL@@V?$allocator@D@2@@_STL@@@_STL@@@_STL@@QAEXPAU?$_List_node@V?$basic_string@DV?$char_traits@D@_STL@@V?$allocator@D@2@@_STL@@@2@I@Z ; _STL::allocator<_STL::_List_node<_STL::basic_string<char,_STL::char_traits<char>,_STL::allocator<char> > > >::deallocate
; Function compile flags: /Ogsy
;	COMDAT ?deallocate@?$allocator@U?$_List_node@V?$basic_string@DV?$char_traits@D@_STL@@V?$allocator@D@2@@_STL@@@_STL@@@_STL@@QAEXPAU?$_List_node@V?$basic_string@DV?$char_traits@D@_STL@@V?$allocator@D@2@@_STL@@@2@I@Z
_TEXT	SEGMENT
___p$ = 8						; size = 4
___n$ = 12						; size = 4
?deallocate@?$allocator@U?$_List_node@V?$basic_string@DV?$char_traits@D@_STL@@V?$allocator@D@2@@_STL@@@_STL@@@_STL@@QAEXPAU?$_List_node@V?$basic_string@DV?$char_traits@D@_STL@@V?$allocator@D@2@@_STL@@@2@I@Z PROC NEAR ; _STL::allocator<_STL::_List_node<_STL::basic_string<char,_STL::char_traits<char>,_STL::allocator<char> > > >::deallocate, COMDAT
; _this$ = ecx

; 359  :     _STLP_ASSERT( (__p == 0) == (__n == 0) )
; 360  :       if (__p != 0) __sgi_alloc::deallocate((void*)__p, __n * sizeof(value_type));

  00000	83 7c 24 04 00	 cmp	 DWORD PTR ___p$[esp-4], 0
  00005	74 16		 je	 SHORT $L98656
  00007	8b 44 24 08	 mov	 eax, DWORD PTR ___n$[esp-4]
  0000b	8d 04 80	 lea	 eax, DWORD PTR [eax+eax*4]
  0000e	c1 e0 02	 shl	 eax, 2
  00011	50		 push	 eax
  00012	ff 74 24 08	 push	 DWORD PTR ___p$[esp]
  00016	e8 00 00 00 00	 call	 ?deallocate@?$__node_alloc@$00$0A@@_STL@@SAXPAXI@Z ; _STL::__node_alloc<1,0>::deallocate
  0001b	59		 pop	 ecx
  0001c	59		 pop	 ecx
$L98656:

; 361  :   }

  0001d	c2 08 00	 ret	 8
?deallocate@?$allocator@U?$_List_node@V?$basic_string@DV?$char_traits@D@_STL@@V?$allocator@D@2@@_STL@@@_STL@@@_STL@@QAEXPAU?$_List_node@V?$basic_string@DV?$char_traits@D@_STL@@V?$allocator@D@2@@_STL@@@2@I@Z ENDP ; _STL::allocator<_STL::_List_node<_STL::basic_string<char,_STL::char_traits<char>,_STL::allocator<char> > > >::deallocate
_TEXT	ENDS
PUBLIC	?deallocate@?$allocator@D@_STL@@QAEXPADI@Z	; _STL::allocator<char>::deallocate
; Function compile flags: /Ogsy
;	COMDAT ?deallocate@?$allocator@D@_STL@@QAEXPADI@Z
_TEXT	SEGMENT
___p$ = 8						; size = 4
___n$ = 12						; size = 4
?deallocate@?$allocator@D@_STL@@QAEXPADI@Z PROC NEAR	; _STL::allocator<char>::deallocate, COMDAT
; _this$ = ecx

; 359  :     _STLP_ASSERT( (__p == 0) == (__n == 0) )
; 360  :       if (__p != 0) __sgi_alloc::deallocate((void*)__p, __n * sizeof(value_type));

  00000	83 7c 24 04 00	 cmp	 DWORD PTR ___p$[esp-4], 0
  00005	74 0f		 je	 SHORT $L98663
  00007	ff 74 24 08	 push	 DWORD PTR ___n$[esp-4]
  0000b	ff 74 24 08	 push	 DWORD PTR ___p$[esp]
  0000f	e8 00 00 00 00	 call	 ?deallocate@?$__node_alloc@$00$0A@@_STL@@SAXPAXI@Z ; _STL::__node_alloc<1,0>::deallocate
  00014	59		 pop	 ecx
  00015	59		 pop	 ecx
$L98663:

; 361  :   }

  00016	c2 08 00	 ret	 8
?deallocate@?$allocator@D@_STL@@QAEXPADI@Z ENDP		; _STL::allocator<char>::deallocate
_TEXT	ENDS
PUBLIC	?getHairStyle@PCSlayerInfo3@@QBE?AW4HairStyle@@XZ ; PCSlayerInfo3::getHairStyle
; Function compile flags: /Ogsy
; File c:\darkeden\designed_common\project\client\packet\pcslayerinfo3.h
;	COMDAT ?getHairStyle@PCSlayerInfo3@@QBE?AW4HairStyle@@XZ
_TEXT	SEGMENT
?getHairStyle@PCSlayerInfo3@@QBE?AW4HairStyle@@XZ PROC NEAR ; PCSlayerInfo3::getHairStyle, COMDAT
; _this$ = ecx

; 274  : 		return HairStyle((m_Outlook.to_ulong() >> SLAYER_BIT_HAIRSTYLE1) & 3); 

  00000	8b 41 20	 mov	 eax, DWORD PTR [ecx+32]
  00003	d1 e8		 shr	 eax, 1
  00005	83 e0 03	 and	 eax, 3

; 275  : 	}

  00008	c3		 ret	 0
?getHairStyle@PCSlayerInfo3@@QBE?AW4HairStyle@@XZ ENDP	; PCSlayerInfo3::getHairStyle
_TEXT	ENDS
PUBLIC	?getHelmetType@PCSlayerInfo3@@QBE?AW4HelmetType@@XZ ; PCSlayerInfo3::getHelmetType
; Function compile flags: /Ogsy
;	COMDAT ?getHelmetType@PCSlayerInfo3@@QBE?AW4HelmetType@@XZ
_TEXT	SEGMENT
?getHelmetType@PCSlayerInfo3@@QBE?AW4HelmetType@@XZ PROC NEAR ; PCSlayerInfo3::getHelmetType, COMDAT
; _this$ = ecx

; 284  : 		return HelmetType((m_Outlook.to_ulong() >> SLAYER_BIT_HELMET1) & 8); 

  00000	8b 41 20	 mov	 eax, DWORD PTR [ecx+32]
  00003	c1 e8 03	 shr	 eax, 3
  00006	83 e0 08	 and	 eax, 8

; 285  : 	}

  00009	c3		 ret	 0
?getHelmetType@PCSlayerInfo3@@QBE?AW4HelmetType@@XZ ENDP ; PCSlayerInfo3::getHelmetType
_TEXT	ENDS
PUBLIC	?getJacketType@PCSlayerInfo3@@QBE?AW4JacketType@@XZ ; PCSlayerInfo3::getJacketType
; Function compile flags: /Ogsy
;	COMDAT ?getJacketType@PCSlayerInfo3@@QBE?AW4JacketType@@XZ
_TEXT	SEGMENT
?getJacketType@PCSlayerInfo3@@QBE?AW4JacketType@@XZ PROC NEAR ; PCSlayerInfo3::getJacketType, COMDAT
; _this$ = ecx

; 294  : 		return JacketType((m_Outlook.to_ulong() >> SLAYER_BIT_JACKET1) & 9); 

  00000	8b 41 20	 mov	 eax, DWORD PTR [ecx+32]
  00003	c1 e8 05	 shr	 eax, 5
  00006	83 e0 09	 and	 eax, 9

; 295  : 	}

  00009	c3		 ret	 0
?getJacketType@PCSlayerInfo3@@QBE?AW4JacketType@@XZ ENDP ; PCSlayerInfo3::getJacketType
_TEXT	ENDS
PUBLIC	?getPantsType@PCSlayerInfo3@@QBE?AW4PantsType@@XZ ; PCSlayerInfo3::getPantsType
; Function compile flags: /Ogsy
;	COMDAT ?getPantsType@PCSlayerInfo3@@QBE?AW4PantsType@@XZ
_TEXT	SEGMENT
?getPantsType@PCSlayerInfo3@@QBE?AW4PantsType@@XZ PROC NEAR ; PCSlayerInfo3::getPantsType, COMDAT
; _this$ = ecx

; 304  : 		return PantsType((m_Outlook.to_ulong() >> SLAYER_BIT_PANTS1) & 7); 

  00000	8b 41 20	 mov	 eax, DWORD PTR [ecx+32]
  00003	c1 e8 08	 shr	 eax, 8
  00006	83 e0 07	 and	 eax, 7

; 305  : 	}

  00009	c3		 ret	 0
?getPantsType@PCSlayerInfo3@@QBE?AW4PantsType@@XZ ENDP	; PCSlayerInfo3::getPantsType
_TEXT	ENDS
PUBLIC	?getWeaponType@PCSlayerInfo3@@QBE?AW4WeaponType@@XZ ; PCSlayerInfo3::getWeaponType
; Function compile flags: /Ogsy
;	COMDAT ?getWeaponType@PCSlayerInfo3@@QBE?AW4WeaponType@@XZ
_TEXT	SEGMENT
?getWeaponType@PCSlayerInfo3@@QBE?AW4WeaponType@@XZ PROC NEAR ; PCSlayerInfo3::getWeaponType, COMDAT
; _this$ = ecx

; 314  : 		return WeaponType((m_Outlook.to_ulong() >> SLAYER_BIT_WEAPON1) & 15); 

  00000	8b 41 20	 mov	 eax, DWORD PTR [ecx+32]
  00003	c1 e8 0b	 shr	 eax, 11			; 0000000bH
  00006	83 e0 0f	 and	 eax, 15			; 0000000fH

; 315  : 	}

  00009	c3		 ret	 0
?getWeaponType@PCSlayerInfo3@@QBE?AW4WeaponType@@XZ ENDP ; PCSlayerInfo3::getWeaponType
_TEXT	ENDS
PUBLIC	?getShieldType@PCSlayerInfo3@@QBE?AW4ShieldType@@XZ ; PCSlayerInfo3::getShieldType
; Function compile flags: /Ogsy
;	COMDAT ?getShieldType@PCSlayerInfo3@@QBE?AW4ShieldType@@XZ
_TEXT	SEGMENT
?getShieldType@PCSlayerInfo3@@QBE?AW4ShieldType@@XZ PROC NEAR ; PCSlayerInfo3::getShieldType, COMDAT
; _this$ = ecx

; 324  : 		return ShieldType((m_Outlook.to_ulong() >> SLAYER_BIT_SHIELD1) & 7);

  00000	8b 41 20	 mov	 eax, DWORD PTR [ecx+32]
  00003	c1 e8 12	 shr	 eax, 18			; 00000012H
  00006	83 e0 07	 and	 eax, 7

; 325  : 	}

  00009	c3		 ret	 0
?getShieldType@PCSlayerInfo3@@QBE?AW4ShieldType@@XZ ENDP ; PCSlayerInfo3::getShieldType
_TEXT	ENDS
PUBLIC	?getMotorcycleType@PCSlayerInfo3@@QBE?AW4MotorcycleType@@XZ ; PCSlayerInfo3::getMotorcycleType
; Function compile flags: /Ogsy
;	COMDAT ?getMotorcycleType@PCSlayerInfo3@@QBE?AW4MotorcycleType@@XZ
_TEXT	SEGMENT
?getMotorcycleType@PCSlayerInfo3@@QBE?AW4MotorcycleType@@XZ PROC NEAR ; PCSlayerInfo3::getMotorcycleType, COMDAT
; _this$ = ecx

; 335  : 		return MotorcycleType((m_Outlook.to_ulong() >> SLAYER_BIT_MOTORCYCLE1) & 7); 

  00000	8b 41 20	 mov	 eax, DWORD PTR [ecx+32]
  00003	c1 e8 0f	 shr	 eax, 15			; 0000000fH
  00006	83 e0 07	 and	 eax, 7

; 336  : 	}

  00009	c3		 ret	 0
?getMotorcycleType@PCSlayerInfo3@@QBE?AW4MotorcycleType@@XZ ENDP ; PCSlayerInfo3::getMotorcycleType
_TEXT	ENDS
PUBLIC	?getShoulderType@PCSlayerInfo3@@QBEEXZ		; PCSlayerInfo3::getShoulderType
; Function compile flags: /Ogsy
;	COMDAT ?getShoulderType@PCSlayerInfo3@@QBEEXZ
_TEXT	SEGMENT
?getShoulderType@PCSlayerInfo3@@QBEEXZ PROC NEAR	; PCSlayerInfo3::getShoulderType, COMDAT
; _this$ = ecx

; 366  : 		return BYTE((m_Outlook.to_ulong() >> SLAYER_BIT_SHOULDER1) & 3); 

  00000	8b 41 20	 mov	 eax, DWORD PTR [ecx+32]
  00003	c1 e8 14	 shr	 eax, 20			; 00000014H
  00006	83 e0 03	 and	 eax, 3

; 367  : 	}

  00009	c3		 ret	 0
?getShoulderType@PCSlayerInfo3@@QBEEXZ ENDP		; PCSlayerInfo3::getShoulderType
_TEXT	ENDS
PUBLIC	??0?$_String_base@DV?$allocator@D@_STL@@@_STL@@QAE@ABV?$allocator@D@1@@Z ; _STL::_String_base<char,_STL::allocator<char> >::_String_base<char,_STL::allocator<char> >
; Function compile flags: /Ogsy
; File c:\stlport-4.6.1\stlport\stl\_string.h
;	COMDAT ??0?$_String_base@DV?$allocator@D@_STL@@@_STL@@QAE@ABV?$allocator@D@1@@Z
_TEXT	SEGMENT
___a$ = 8						; size = 4
??0?$_String_base@DV?$allocator@D@_STL@@@_STL@@QAE@ABV?$allocator@D@1@@Z PROC NEAR ; _STL::_String_base<char,_STL::allocator<char> >::_String_base<char,_STL::allocator<char> >, COMDAT
; _this$ = ecx

; 129  :     : _M_start(0), _M_finish(0), _M_end_of_storage(__a, (_Tp*)0) {}

  00000	56		 push	 esi
  00001	33 c0		 xor	 eax, eax
  00003	8b f1		 mov	 esi, ecx
  00005	50		 push	 eax
  00006	ff 74 24 0c	 push	 DWORD PTR ___a$[esp+4]
  0000a	8d 4e 08	 lea	 ecx, DWORD PTR [esi+8]
  0000d	89 06		 mov	 DWORD PTR [esi], eax
  0000f	89 46 04	 mov	 DWORD PTR [esi+4], eax
  00012	e8 00 00 00 00	 call	 ??0?$_STLP_alloc_proxy@PADDV?$allocator@D@_STL@@@_STL@@QAE@ABV?$allocator@D@1@PAD@Z ; _STL::_STLP_alloc_proxy<char *,char,_STL::allocator<char> >::_STLP_alloc_proxy<char *,char,_STL::allocator<char> >
  00017	8b c6		 mov	 eax, esi
  00019	5e		 pop	 esi
  0001a	c2 04 00	 ret	 4
??0?$_String_base@DV?$allocator@D@_STL@@@_STL@@QAE@ABV?$allocator@D@1@@Z ENDP ; _STL::_String_base<char,_STL::allocator<char> >::_String_base<char,_STL::allocator<char> >
_TEXT	ENDS
PUBLIC	??0?$bitset@$0BG@@_STL@@QAE@K@Z			; _STL::bitset<22>::bitset<22>
; Function compile flags: /Ogsy
; File c:\stlport-4.6.1\stlport\stl\_bitset.h
;	COMDAT ??0?$bitset@$0BG@@_STL@@QAE@K@Z
_TEXT	SEGMENT
___val$ = 8						; size = 4
??0?$bitset@$0BG@@_STL@@QAE@K@Z PROC NEAR		; _STL::bitset<22>::bitset<22>, COMDAT
; _this$ = ecx

; 414  :   bitset(unsigned long __val) : _Base_bitset<_Words>(__val) { _M_do_sanitize(); }

  00000	8b c1		 mov	 eax, ecx
  00002	8b 4c 24 04	 mov	 ecx, DWORD PTR ___val$[esp-4]
  00006	81 e1 ff ff 3f
	00		 and	 ecx, 4194303		; 003fffffH
  0000c	89 08		 mov	 DWORD PTR [eax], ecx
  0000e	c2 04 00	 ret	 4
??0?$bitset@$0BG@@_STL@@QAE@K@Z ENDP			; _STL::bitset<22>::bitset<22>
_TEXT	ENDS
PUBLIC	??_C@_06CBNGNPJL@bitset?$AA@			; `string'
PUBLIC	?test@?$bitset@$0BG@@_STL@@QBE_NI@Z		; _STL::bitset<22>::test
EXTRN	?__stl_throw_out_of_range@_STL@@YAXPBD@Z:NEAR	; _STL::__stl_throw_out_of_range
;	COMDAT ??_C@_06CBNGNPJL@bitset?$AA@
CONST	SEGMENT
??_C@_06CBNGNPJL@bitset?$AA@ DB 'bitset', 00H		; `string'
; Function compile flags: /Ogsy
CONST	ENDS
;	COMDAT ?test@?$bitset@$0BG@@_STL@@QBE_NI@Z
_TEXT	SEGMENT
___pos$ = 8						; size = 4
?test@?$bitset@$0BG@@_STL@@QBE_NI@Z PROC NEAR		; _STL::bitset<22>::test, COMDAT
; _this$ = ecx

; 593  :     if (__pos >= _Nb)

  00000	83 7c 24 04 16	 cmp	 DWORD PTR ___pos$[esp-4], 22 ; 00000016H
  00005	56		 push	 esi
  00006	8b f1		 mov	 esi, ecx
  00008	72 0b		 jb	 SHORT $L100738

; 594  :       __stl_throw_out_of_range("bitset");

  0000a	68 00 00 00 00	 push	 OFFSET FLAT:??_C@_06CBNGNPJL@bitset?$AA@
  0000f	e8 00 00 00 00	 call	 ?__stl_throw_out_of_range@_STL@@YAXPBD@Z ; _STL::__stl_throw_out_of_range
  00014	59		 pop	 ecx
$L100738:

; 595  :     
; 596  :     return _Unchecked_test(__pos);

  00015	8b 4c 24 08	 mov	 ecx, DWORD PTR ___pos$[esp]
  00019	33 c0		 xor	 eax, eax
  0001b	40		 inc	 eax
  0001c	83 e1 1f	 and	 ecx, 31			; 0000001fH
  0001f	d3 e0		 shl	 eax, cl
  00021	23 06		 and	 eax, DWORD PTR [esi]
  00023	5e		 pop	 esi
  00024	f7 d8		 neg	 eax
  00026	1b c0		 sbb	 eax, eax
  00028	f7 d8		 neg	 eax

; 597  :   }

  0002a	c2 04 00	 ret	 4
?test@?$bitset@$0BG@@_STL@@QBE_NI@Z ENDP		; _STL::bitset<22>::test
_TEXT	ENDS
PUBLIC	?flush@?$basic_ostream@DV?$char_traits@D@_STL@@@_STL@@QAEAAV12@XZ ; _STL::basic_ostream<char,_STL::char_traits<char> >::flush
; Function compile flags: /Ogsy
; File c:\stlport-4.6.1\stlport\stl\_ostream.h
;	COMDAT ?flush@?$basic_ostream@DV?$char_traits@D@_STL@@@_STL@@QAEAAV12@XZ
_TEXT	SEGMENT
?flush@?$basic_ostream@DV?$char_traits@D@_STL@@@_STL@@QAEAAV12@XZ PROC NEAR ; _STL::basic_ostream<char,_STL::char_traits<char> >::flush, COMDAT
; _this$ = ecx

; 120  :   _Self& flush() {

  00000	56		 push	 esi
  00001	8b f1		 mov	 esi, ecx

; 121  :     if (this->rdbuf())

  00003	8b 06		 mov	 eax, DWORD PTR [esi]
  00005	8b 40 04	 mov	 eax, DWORD PTR [eax+4]
  00008	8b 4c 30 58	 mov	 ecx, DWORD PTR [eax+esi+88]
  0000c	85 c9		 test	 ecx, ecx
  0000e	74 1d		 je	 SHORT $L102538

; 122  :       if (this->rdbuf()->pubsync() == -1)

  00010	8b 01		 mov	 eax, DWORD PTR [ecx]
  00012	ff 50 10	 call	 DWORD PTR [eax+16]
  00015	83 f8 ff	 cmp	 eax, -1
  00018	75 13		 jne	 SHORT $L102538

; 123  :         this->setstate(ios_base::badbit);

  0001a	8b 06		 mov	 eax, DWORD PTR [esi]
  0001c	8b 48 04	 mov	 ecx, DWORD PTR [eax+4]
  0001f	03 ce		 add	 ecx, esi
  00021	8b 41 08	 mov	 eax, DWORD PTR [ecx+8]
  00024	83 c8 01	 or	 eax, 1
  00027	50		 push	 eax
  00028	e8 00 00 00 00	 call	 ?clear@?$basic_ios@DV?$char_traits@D@_STL@@@_STL@@QAEXH@Z ; _STL::basic_ios<char,_STL::char_traits<char> >::clear
$L102538:

; 124  :     return *this;

  0002d	8b c6		 mov	 eax, esi
  0002f	5e		 pop	 esi

; 125  :   }

  00030	c3		 ret	 0
?flush@?$basic_ostream@DV?$char_traits@D@_STL@@@_STL@@QAEAAV12@XZ ENDP ; _STL::basic_ostream<char,_STL::char_traits<char> >::flush
_TEXT	ENDS
PUBLIC	??$_M_range_initialize@PBD@?$basic_string@DV?$char_traits@D@_STL@@V?$allocator@D@2@@_STL@@AAEXPBD0ABUforward_iterator_tag@1@@Z ; _STL::basic_string<char,_STL::char_traits<char>,_STL::allocator<char> >::_M_range_initialize<char const *>
; Function compile flags: /Ogsy
; File c:\stlport-4.6.1\stlport\stl\_string.h
;	COMDAT ??$_M_range_initialize@PBD@?$basic_string@DV?$char_traits@D@_STL@@V?$allocator@D@2@@_STL@@AAEXPBD0ABUforward_iterator_tag@1@@Z
_TEXT	SEGMENT
___f$ = 8						; size = 4
___l$ = 12						; size = 4
___formal$ = 16						; size = 4
??$_M_range_initialize@PBD@?$basic_string@DV?$char_traits@D@_STL@@V?$allocator@D@2@@_STL@@AAEXPBD0ABUforward_iterator_tag@1@@Z PROC NEAR ; _STL::basic_string<char,_STL::char_traits<char>,_STL::allocator<char> >::_M_range_initialize<char const *>, COMDAT
; _this$ = ecx

; 383  :                            const forward_iterator_tag &) {
; 384  :     difference_type __n = distance(__f, __l);
; 385  :     this->_M_allocate_block(__n + 1);

  00000	8b 44 24 08	 mov	 eax, DWORD PTR ___l$[esp-4]
  00004	2b 44 24 04	 sub	 eax, DWORD PTR ___f$[esp-4]
  00008	56		 push	 esi
  00009	40		 inc	 eax
  0000a	50		 push	 eax
  0000b	8b f1		 mov	 esi, ecx
  0000d	e8 00 00 00 00	 call	 ?_M_allocate_block@?$_String_base@DV?$allocator@D@_STL@@@_STL@@QAEXI@Z ; _STL::_String_base<char,_STL::allocator<char> >::_M_allocate_block

; 386  :     this->_M_finish = uninitialized_copy(__f, __l, this->_M_start);

  00012	ff 36		 push	 DWORD PTR [esi]
  00014	ff 74 24 10	 push	 DWORD PTR ___l$[esp+4]
  00018	ff 74 24 10	 push	 DWORD PTR ___f$[esp+8]
  0001c	e8 00 00 00 00	 call	 ?__copy_trivial@_STL@@YAPAXPBX0PAX@Z ; _STL::__copy_trivial
  00021	83 c4 0c	 add	 esp, 12			; 0000000cH
  00024	89 46 04	 mov	 DWORD PTR [esi+4], eax

; 387  :     _M_terminate_string();

  00027	c6 00 00	 mov	 BYTE PTR [eax], 0
  0002a	5e		 pop	 esi

; 388  :   }

  0002b	c2 0c 00	 ret	 12			; 0000000cH
??$_M_range_initialize@PBD@?$basic_string@DV?$char_traits@D@_STL@@V?$allocator@D@2@@_STL@@AAEXPBD0ABUforward_iterator_tag@1@@Z ENDP ; _STL::basic_string<char,_STL::char_traits<char>,_STL::allocator<char> >::_M_range_initialize<char const *>
_TEXT	ENDS
PUBLIC	??1sentry@?$basic_ostream@DV?$char_traits@D@_STL@@@_STL@@QAE@XZ ; _STL::basic_ostream<char,_STL::char_traits<char> >::sentry::~sentry
; Function compile flags: /Ogsy
; File c:\stlport-4.6.1\stlport\stl\_ostream.h
;	COMDAT ??1sentry@?$basic_ostream@DV?$char_traits@D@_STL@@@_STL@@QAE@XZ
_TEXT	SEGMENT
??1sentry@?$basic_ostream@DV?$char_traits@D@_STL@@@_STL@@QAE@XZ PROC NEAR ; _STL::basic_ostream<char,_STL::char_traits<char> >::sentry::~sentry, COMDAT
; _this$ = ecx

; 169  :         if (_M_str.flags() & ios_base::unitbuf)

  00000	8b 09		 mov	 ecx, DWORD PTR [ecx]
  00002	8b 01		 mov	 eax, DWORD PTR [ecx]
  00004	8b 40 04	 mov	 eax, DWORD PTR [eax+4]
  00007	f6 44 08 05 20	 test	 BYTE PTR [eax+ecx+5], 32 ; 00000020H
  0000c	74 05		 je	 SHORT $L101129

; 170  : # ifndef _STLP_INCOMPLETE_EXCEPTION_HEADER 
; 171  :           if (!_STLP_VENDOR_EXCEPT_STD::uncaught_exception())
; 172  : # endif
; 173  :             _M_str.flush();

  0000e	e9 00 00 00 00	 jmp	 ?flush@?$basic_ostream@DV?$char_traits@D@_STL@@@_STL@@QAEAAV12@XZ ; _STL::basic_ostream<char,_STL::char_traits<char> >::flush
$L101129:

; 174  :       }

  00013	c3		 ret	 0
??1sentry@?$basic_ostream@DV?$char_traits@D@_STL@@@_STL@@QAE@XZ ENDP ; _STL::basic_ostream<char,_STL::char_traits<char> >::sentry::~sentry
_TEXT	ENDS
PUBLIC	??$_M_init@DV?$char_traits@D@_STL@@@_STL@@YA_NAAV?$basic_ostream@DV?$char_traits@D@_STL@@@0@@Z ; _STL::_M_init<char,_STL::char_traits<char> >
; Function compile flags: /Ogsy
; File c:\stlport-4.6.1\stlport\stl\_ostream.c
;	COMDAT ??$_M_init@DV?$char_traits@D@_STL@@@_STL@@YA_NAAV?$basic_ostream@DV?$char_traits@D@_STL@@@0@@Z
_TEXT	SEGMENT
___str$ = 8						; size = 4
??$_M_init@DV?$char_traits@D@_STL@@@_STL@@YA_NAAV?$basic_ostream@DV?$char_traits@D@_STL@@@0@@Z PROC NEAR ; _STL::_M_init<char,_STL::char_traits<char> >, COMDAT

; 37   : _M_init(basic_ostream<_CharT, _Traits>& __str) {

  00000	56		 push	 esi

; 38   :   if (__str.good()) {

  00001	8b 74 24 08	 mov	 esi, DWORD PTR ___str$[esp]
  00005	8b 06		 mov	 eax, DWORD PTR [esi]
  00007	8b 40 04	 mov	 eax, DWORD PTR [eax+4]
  0000a	8d 0c 30	 lea	 ecx, DWORD PTR [eax+esi]
  0000d	83 79 08 00	 cmp	 DWORD PTR [ecx+8], 0
  00011	75 36		 jne	 SHORT $L101207

; 39   :     // boris : check if this is needed !
; 40   :     if (!__str.rdbuf())

  00013	83 79 58 00	 cmp	 DWORD PTR [ecx+88], 0
  00017	75 0c		 jne	 SHORT $L102594

; 41   :       __str.setstate(ios_base::badbit);

  00019	8b 41 08	 mov	 eax, DWORD PTR [ecx+8]
  0001c	83 c8 01	 or	 eax, 1
  0001f	50		 push	 eax
  00020	e8 00 00 00 00	 call	 ?clear@?$basic_ios@DV?$char_traits@D@_STL@@@_STL@@QAEXH@Z ; _STL::basic_ios<char,_STL::char_traits<char> >::clear
$L102594:

; 42   :     if (__str.tie())

  00025	8b 06		 mov	 eax, DWORD PTR [esi]
  00027	8b 40 04	 mov	 eax, DWORD PTR [eax+4]
  0002a	8b 4c 30 5c	 mov	 ecx, DWORD PTR [eax+esi+92]
  0002e	85 c9		 test	 ecx, ecx
  00030	74 05		 je	 SHORT $L101209

; 43   :       __str.tie()->flush();

  00032	e8 00 00 00 00	 call	 ?flush@?$basic_ostream@DV?$char_traits@D@_STL@@@_STL@@QAEAAV12@XZ ; _STL::basic_ostream<char,_STL::char_traits<char> >::flush
$L101209:

; 44   :     return __str.good();

  00037	8b 06		 mov	 eax, DWORD PTR [esi]
  00039	8b 40 04	 mov	 eax, DWORD PTR [eax+4]
  0003c	33 c9		 xor	 ecx, ecx
  0003e	39 4c 30 08	 cmp	 DWORD PTR [eax+esi+8], ecx
  00042	5e		 pop	 esi
  00043	0f 94 c1	 sete	 cl
  00046	8a c1		 mov	 al, cl

; 47   : }

  00048	c3		 ret	 0
$L101207:

; 45   :   } else
; 46   :     return false;

  00049	32 c0		 xor	 al, al
  0004b	5e		 pop	 esi

; 47   : }

  0004c	c3		 ret	 0
??$_M_init@DV?$char_traits@D@_STL@@@_STL@@YA_NAAV?$basic_ostream@DV?$char_traits@D@_STL@@@0@@Z ENDP ; _STL::_M_init<char,_STL::char_traits<char> >
_TEXT	ENDS
PUBLIC	??$__uninitialized_copy@PADPAD@_STL@@YAPADPAD00ABU__true_type@0@@Z ; _STL::__uninitialized_copy<char *,char *>
; Function compile flags: /Ogsy
; File c:\stlport-4.6.1\stlport\stl\_uninitialized.h
;	COMDAT ??$__uninitialized_copy@PADPAD@_STL@@YAPADPAD00ABU__true_type@0@@Z
_TEXT	SEGMENT
___first$ = 8						; size = 4
___last$ = 12						; size = 4
___result$ = 16						; size = 4
___formal$ = 20						; size = 4
??$__uninitialized_copy@PADPAD@_STL@@YAPADPAD00ABU__true_type@0@@Z PROC NEAR ; _STL::__uninitialized_copy<char *,char *>, COMDAT

; 55   :   return __copy_aux(__first, __last, __result, _BothPtrType< _InputIter, _ForwardIter> :: _Ret());

  00000	ff 74 24 0c	 push	 DWORD PTR ___result$[esp-4]
  00004	ff 74 24 0c	 push	 DWORD PTR ___last$[esp]
  00008	ff 74 24 0c	 push	 DWORD PTR ___first$[esp+4]
  0000c	e8 00 00 00 00	 call	 ?__copy_trivial@_STL@@YAPAXPBX0PAX@Z ; _STL::__copy_trivial
  00011	83 c4 0c	 add	 esp, 12			; 0000000cH

; 56   : }

  00014	c3		 ret	 0
??$__uninitialized_copy@PADPAD@_STL@@YAPADPAD00ABU__true_type@0@@Z ENDP ; _STL::__uninitialized_copy<char *,char *>
_TEXT	ENDS
PUBLIC	??0?$_List_base@V?$basic_string@DV?$char_traits@D@_STL@@V?$allocator@D@2@@_STL@@V?$allocator@V?$basic_string@DV?$char_traits@D@_STL@@V?$allocator@D@2@@_STL@@@2@@_STL@@QAE@ABV?$allocator@V?$basic_string@DV?$char_traits@D@_STL@@V?$allocator@D@2@@_STL@@@1@@Z ; _STL::_List_base<_STL::basic_string<char,_STL::char_traits<char>,_STL::allocator<char> >,_STL::allocator<_STL::basic_string<char,_STL::char_traits<char>,_STL::allocator<char> > > >::_List_base<_STL::basic_string<char,_STL::char_traits<char>,_STL::allocator<char> >,_STL::allocator<_STL::basic_string<char,_STL::char_traits<char>,_STL::allocator<char> > > >
; Function compile flags: /Ogsy
; File c:\stlport-4.6.1\stlport\stl\_list.h
;	COMDAT ??0?$_List_base@V?$basic_string@DV?$char_traits@D@_STL@@V?$allocator@D@2@@_STL@@V?$allocator@V?$basic_string@DV?$char_traits@D@_STL@@V?$allocator@D@2@@_STL@@@2@@_STL@@QAE@ABV?$allocator@V?$basic_string@DV?$char_traits@D@_STL@@V?$allocator@D@2@@_STL@@@1@@Z
_TEXT	SEGMENT
$T102647 = -1						; size = 1
___a$ = 8						; size = 4
??0?$_List_base@V?$basic_string@DV?$char_traits@D@_STL@@V?$allocator@D@2@@_STL@@V?$allocator@V?$basic_string@DV?$char_traits@D@_STL@@V?$allocator@D@2@@_STL@@@2@@_STL@@QAE@ABV?$allocator@V?$basic_string@DV?$char_traits@D@_STL@@V?$allocator@D@2@@_STL@@@1@@Z PROC NEAR ; _STL::_List_base<_STL::basic_string<char,_STL::char_traits<char>,_STL::allocator<char> >,_STL::allocator<_STL::basic_string<char,_STL::char_traits<char>,_STL::allocator<char> > > >::_List_base<_STL::basic_string<char,_STL::char_traits<char>,_STL::allocator<char> >,_STL::allocator<_STL::basic_string<char,_STL::char_traits<char>,_STL::allocator<char> > > >, COMDAT
; _this$ = ecx

; 182  :   _List_base(const allocator_type& __a) : _M_node(_STLP_CONVERT_ALLOCATOR(__a, _Node), (_Node*)0) {

  00000	51		 push	 ecx
  00001	56		 push	 esi
  00002	6a 00		 push	 0
  00004	8d 44 24 0b	 lea	 eax, DWORD PTR $T102647[esp+12]
  00008	50		 push	 eax
  00009	8b f1		 mov	 esi, ecx
  0000b	e8 00 00 00 00	 call	 ??0?$_STLP_alloc_proxy@PAU?$_List_node@V?$basic_string@DV?$char_traits@D@_STL@@V?$allocator@D@2@@_STL@@@_STL@@U12@V?$allocator@U?$_List_node@V?$basic_string@DV?$char_traits@D@_STL@@V?$allocator@D@2@@_STL@@@_STL@@@2@@_STL@@QAE@ABV?$allocator@U?$_List_node@V?$basic_string@DV?$char_traits@D@_STL@@V?$allocator@D@2@@_STL@@@_STL@@@1@PAU?$_List_node@V?$basic_string@DV?$char_traits@D@_STL@@V?$allocator@D@2@@_STL@@@1@@Z ; _STL::_STLP_alloc_proxy<_STL::_List_node<_STL::basic_string<char,_STL::char_traits<char>,_STL::allocator<char> > > *,_STL::_List_node<_STL::basic_string<char,_STL::char_traits<char>,_STL::allocator<char> > >,_STL::allocator<_STL::_List_node<_STL::basic_string<char,_STL::char_traits<char>,_STL::allocator<char> > > > >::_STLP_alloc_proxy<_STL::_List_node<_STL::basic_string<char,_STL::char_traits<char>,_STL::allocator<char> > > *,_STL::_List_node<_STL::basic_string<char,_STL::char_traits<char>,_STL::allocator<char> > >,_STL::allocator<_STL::_List_node<_STL::basic_string<char,_STL::char_traits<char>,_STL::allocator<char> > > > >

; 183  :     _Node* __n = _M_node.allocate(1);

  00010	6a 14		 push	 20			; 00000014H
  00012	e8 00 00 00 00	 call	 ?allocate@?$__node_alloc@$00$0A@@_STL@@SAPAXI@Z ; _STL::__node_alloc<1,0>::allocate

; 184  :     __n->_M_next = __n;

  00017	89 00		 mov	 DWORD PTR [eax], eax

; 185  :     __n->_M_prev = __n;

  00019	89 40 04	 mov	 DWORD PTR [eax+4], eax

; 186  :     _M_node._M_data = __n;

  0001c	89 06		 mov	 DWORD PTR [esi], eax
  0001e	59		 pop	 ecx

; 187  :   }

  0001f	8b c6		 mov	 eax, esi
  00021	5e		 pop	 esi
  00022	59		 pop	 ecx
  00023	c2 04 00	 ret	 4
??0?$_List_base@V?$basic_string@DV?$char_traits@D@_STL@@V?$allocator@D@2@@_STL@@V?$allocator@V?$basic_string@DV?$char_traits@D@_STL@@V?$allocator@D@2@@_STL@@@2@@_STL@@QAE@ABV?$allocator@V?$basic_string@DV?$char_traits@D@_STL@@V?$allocator@D@2@@_STL@@@1@@Z ENDP ; _STL::_List_base<_STL::basic_string<char,_STL::char_traits<char>,_STL::allocator<char> >,_STL::allocator<_STL::basic_string<char,_STL::char_traits<char>,_STL::allocator<char> > > >::_List_base<_STL::basic_string<char,_STL::char_traits<char>,_STL::allocator<char> >,_STL::allocator<_STL::basic_string<char,_STL::char_traits<char>,_STL::allocator<char> > > >
_TEXT	ENDS
PUBLIC	?_M_deallocate_block@?$_String_base@DV?$allocator@D@_STL@@@_STL@@QAEXXZ ; _STL::_String_base<char,_STL::allocator<char> >::_M_deallocate_block
; Function compile flags: /Ogsy
; File c:\stlport-4.6.1\stlport\stl\_string.h
;	COMDAT ?_M_deallocate_block@?$_String_base@DV?$allocator@D@_STL@@@_STL@@QAEXXZ
_TEXT	SEGMENT
?_M_deallocate_block@?$_String_base@DV?$allocator@D@_STL@@@_STL@@QAEXXZ PROC NEAR ; _STL::_String_base<char,_STL::allocator<char> >::_M_deallocate_block, COMDAT
; _this$ = ecx

; 124  :     { _M_end_of_storage.deallocate(_M_start, _M_end_of_storage._M_data - _M_start); }

  00000	8b c1		 mov	 eax, ecx
  00002	8d 48 08	 lea	 ecx, DWORD PTR [eax+8]
  00005	8b 00		 mov	 eax, DWORD PTR [eax]
  00007	8b 11		 mov	 edx, DWORD PTR [ecx]
  00009	2b d0		 sub	 edx, eax
  0000b	52		 push	 edx
  0000c	50		 push	 eax
  0000d	e8 00 00 00 00	 call	 ?deallocate@?$allocator@D@_STL@@QAEXPADI@Z ; _STL::allocator<char>::deallocate
  00012	c3		 ret	 0
?_M_deallocate_block@?$_String_base@DV?$allocator@D@_STL@@@_STL@@QAEXXZ ENDP ; _STL::_String_base<char,_STL::allocator<char> >::_M_deallocate_block
_TEXT	ENDS
PUBLIC	?getSex@PCSlayerInfo3@@QBE?AW4Sex@@XZ		; PCSlayerInfo3::getSex
; Function compile flags: /Ogsy
; File c:\darkeden\designed_common\project\client\packet\pcslayerinfo3.h
;	COMDAT ?getSex@PCSlayerInfo3@@QBE?AW4Sex@@XZ
_TEXT	SEGMENT
?getSex@PCSlayerInfo3@@QBE?AW4Sex@@XZ PROC NEAR		; PCSlayerInfo3::getSex, COMDAT
; _this$ = ecx

; 265  : 		return m_Outlook.test(SLAYER_BIT_SEX)?MALE:FEMALE; 

  00000	6a 00		 push	 0
  00002	83 c1 20	 add	 ecx, 32			; 00000020H
  00005	e8 00 00 00 00	 call	 ?test@?$bitset@$0BG@@_STL@@QBE_NI@Z ; _STL::bitset<22>::test
  0000a	f6 d8		 neg	 al
  0000c	1b c0		 sbb	 eax, eax
  0000e	f7 d8		 neg	 eax

; 266  : 	}

  00010	c3		 ret	 0
?getSex@PCSlayerInfo3@@QBE?AW4Sex@@XZ ENDP		; PCSlayerInfo3::getSex
_TEXT	ENDS
PUBLIC	??$_M_range_initialize@PBD@?$basic_string@DV?$char_traits@D@_STL@@V?$allocator@D@2@@_STL@@AAEXPBD0@Z ; _STL::basic_string<char,_STL::char_traits<char>,_STL::allocator<char> >::_M_range_initialize<char const *>
; Function compile flags: /Ogsy
; File c:\stlport-4.6.1\stlport\stl\_string.h
;	COMDAT ??$_M_range_initialize@PBD@?$basic_string@DV?$char_traits@D@_STL@@V?$allocator@D@2@@_STL@@AAEXPBD0@Z
_TEXT	SEGMENT
___f$ = 8						; size = 4
___l$ = 12						; size = 4
$T102667 = 15						; size = 1
??$_M_range_initialize@PBD@?$basic_string@DV?$char_traits@D@_STL@@V?$allocator@D@2@@_STL@@AAEXPBD0@Z PROC NEAR ; _STL::basic_string<char,_STL::char_traits<char>,_STL::allocator<char> >::_M_range_initialize<char const *>, COMDAT
; _this$ = ecx

; 390  :   template <class _InputIter> void _M_range_initialize(_InputIter __f, _InputIter __l) {

  00000	55		 push	 ebp
  00001	8b ec		 mov	 ebp, esp

; 391  :     _M_range_initialize(__f, __l, _STLP_ITERATOR_CATEGORY(__f, _InputIter));

  00003	8d 45 0f	 lea	 eax, DWORD PTR $T102667[ebp]
  00006	50		 push	 eax
  00007	ff 75 0c	 push	 DWORD PTR ___l$[ebp]
  0000a	ff 75 08	 push	 DWORD PTR ___f$[ebp]
  0000d	e8 00 00 00 00	 call	 ??$_M_range_initialize@PBD@?$basic_string@DV?$char_traits@D@_STL@@V?$allocator@D@2@@_STL@@AAEXPBD0ABUforward_iterator_tag@1@@Z ; _STL::basic_string<char,_STL::char_traits<char>,_STL::allocator<char> >::_M_range_initialize<char const *>

; 392  :   }

  00012	5d		 pop	 ebp
  00013	c2 08 00	 ret	 8
??$_M_range_initialize@PBD@?$basic_string@DV?$char_traits@D@_STL@@V?$allocator@D@2@@_STL@@AAEXPBD0@Z ENDP ; _STL::basic_string<char,_STL::char_traits<char>,_STL::allocator<char> >::_M_range_initialize<char const *>
_TEXT	ENDS
PUBLIC	??0sentry@?$basic_ostream@DV?$char_traits@D@_STL@@@_STL@@QAE@AAV12@@Z ; _STL::basic_ostream<char,_STL::char_traits<char> >::sentry::sentry
; Function compile flags: /Ogsy
; File c:\stlport-4.6.1\stlport\stl\_ostream.h
;	COMDAT ??0sentry@?$basic_ostream@DV?$char_traits@D@_STL@@@_STL@@QAE@AAV12@@Z
_TEXT	SEGMENT
___str$ = 8						; size = 4
??0sentry@?$basic_ostream@DV?$char_traits@D@_STL@@@_STL@@QAE@AAV12@@Z PROC NEAR ; _STL::basic_ostream<char,_STL::char_traits<char> >::sentry::sentry, COMDAT
; _this$ = ecx

; 165  :       {

  00000	8b 44 24 04	 mov	 eax, DWORD PTR ___str$[esp-4]
  00004	56		 push	 esi
  00005	8b f1		 mov	 esi, ecx
  00007	50		 push	 eax
  00008	89 06		 mov	 DWORD PTR [esi], eax
  0000a	e8 00 00 00 00	 call	 ??$_M_init@DV?$char_traits@D@_STL@@@_STL@@YA_NAAV?$basic_ostream@DV?$char_traits@D@_STL@@@0@@Z ; _STL::_M_init<char,_STL::char_traits<char> >
  0000f	88 46 04	 mov	 BYTE PTR [esi+4], al
  00012	59		 pop	 ecx

; 166  :       }

  00013	8b c6		 mov	 eax, esi
  00015	5e		 pop	 esi
  00016	c2 04 00	 ret	 4
??0sentry@?$basic_ostream@DV?$char_traits@D@_STL@@@_STL@@QAE@AAV12@@Z ENDP ; _STL::basic_ostream<char,_STL::char_traits<char> >::sentry::sentry
_TEXT	ENDS
PUBLIC	??$uninitialized_copy@PADPAD@_STL@@YAPADPAD00@Z	; _STL::uninitialized_copy<char *,char *>
; Function compile flags: /Ogsy
; File c:\stlport-4.6.1\stlport\stl\_uninitialized.h
;	COMDAT ??$uninitialized_copy@PADPAD@_STL@@YAPADPAD00@Z
_TEXT	SEGMENT
___first$ = 8						; size = 4
___last$ = 12						; size = 4
___result$ = 16						; size = 4
??$uninitialized_copy@PADPAD@_STL@@YAPADPAD00@Z PROC NEAR ; _STL::uninitialized_copy<char *,char *>, COMDAT

; 79   :   return __uninitialized_copy(__first, __last, __result,  _IS_POD_ITER(__result, _ForwardIter));

  00000	e9 00 00 00 00	 jmp	 ?__copy_trivial@_STL@@YAPAXPBX0PAX@Z ; _STL::__copy_trivial
??$uninitialized_copy@PADPAD@_STL@@YAPADPAD00@Z ENDP	; _STL::uninitialized_copy<char *,char *>
_TEXT	ENDS
PUBLIC	??1?$_String_base@DV?$allocator@D@_STL@@@_STL@@QAE@XZ ; _STL::_String_base<char,_STL::allocator<char> >::~_String_base<char,_STL::allocator<char> >
; Function compile flags: /Ogsy
; File c:\stlport-4.6.1\stlport\stl\_string.h
;	COMDAT ??1?$_String_base@DV?$allocator@D@_STL@@@_STL@@QAE@XZ
_TEXT	SEGMENT
??1?$_String_base@DV?$allocator@D@_STL@@@_STL@@QAE@XZ PROC NEAR ; _STL::_String_base<char,_STL::allocator<char> >::~_String_base<char,_STL::allocator<char> >, COMDAT
; _this$ = ecx

; 135  :   ~_String_base() { _M_deallocate_block(); }

  00000	e9 00 00 00 00	 jmp	 ?_M_deallocate_block@?$_String_base@DV?$allocator@D@_STL@@@_STL@@QAEXXZ ; _STL::_String_base<char,_STL::allocator<char> >::_M_deallocate_block
??1?$_String_base@DV?$allocator@D@_STL@@@_STL@@QAE@XZ ENDP ; _STL::_String_base<char,_STL::allocator<char> >::~_String_base<char,_STL::allocator<char> >
_TEXT	ENDS
PUBLIC	??0?$basic_string@DV?$char_traits@D@_STL@@V?$allocator@D@2@@_STL@@QAE@PBDABV?$allocator@D@1@@Z ; _STL::basic_string<char,_STL::char_traits<char>,_STL::allocator<char> >::basic_string<char,_STL::char_traits<char>,_STL::allocator<char> >
EXTRN	__EH_prolog:NEAR
EXTRN	__except_list:DWORD
EXTRN	___CxxFrameHandler:NEAR
;	COMDAT xdata$x
xdata$x	SEGMENT
$T102751 DD	0ffffffffH
	DD	FLAT:$L102734
$T102747 DD	019930520H
	DD	01H
	DD	FLAT:$T102751
	DD	2 DUP(00H)
	DD	2 DUP(00H)
; Function compile flags: /Ogsy
; File c:\stlport-4.6.1\stlport\stl\_string.c
xdata$x	ENDS
;	COMDAT ??0?$basic_string@DV?$char_traits@D@_STL@@V?$allocator@D@2@@_STL@@QAE@PBDABV?$allocator@D@1@@Z
_TEXT	SEGMENT
_this$ = -16						; size = 4
__$EHRec$ = -12						; size = 12
___s$ = 8						; size = 4
$T102741 = 11						; size = 1
___a$ = 12						; size = 4
??0?$basic_string@DV?$char_traits@D@_STL@@V?$allocator@D@2@@_STL@@QAE@PBDABV?$allocator@D@1@@Z PROC NEAR ; _STL::basic_string<char,_STL::char_traits<char>,_STL::allocator<char> >::basic_string<char,_STL::char_traits<char>,_STL::allocator<char> >, COMDAT
; _this$ = ecx

; 552  : { 

  00000	b8 00 00 00 00	 mov	 eax, __ehhandler$??0?$basic_string@DV?$char_traits@D@_STL@@V?$allocator@D@2@@_STL@@QAE@PBDABV?$allocator@D@1@@Z
  00005	e8 00 00 00 00	 call	 __EH_prolog
  0000a	51		 push	 ecx
  0000b	56		 push	 esi
  0000c	ff 75 0c	 push	 DWORD PTR ___a$[ebp]
  0000f	8b f1		 mov	 esi, ecx
  00011	89 75 f0	 mov	 DWORD PTR _this$[ebp], esi
  00014	e8 00 00 00 00	 call	 ??0?$_String_base@DV?$allocator@D@_STL@@@_STL@@QAE@ABV?$allocator@D@1@@Z ; _STL::_String_base<char,_STL::allocator<char> >::_String_base<char,_STL::allocator<char> >

; 553  :   _STLP_FIX_LITERAL_BUG(__s) 
; 554  :     _M_range_initialize(__s, __s + traits_type::length(__s));  

  00019	ff 75 08	 push	 DWORD PTR ___s$[ebp]
  0001c	83 65 fc 00	 and	 DWORD PTR __$EHRec$[ebp+8], 0
  00020	e8 00 00 00 00	 call	 _strlen
  00025	03 45 08	 add	 eax, DWORD PTR ___s$[ebp]
  00028	59		 pop	 ecx
  00029	8d 4d 0b	 lea	 ecx, DWORD PTR $T102741[ebp]
  0002c	51		 push	 ecx
  0002d	50		 push	 eax
  0002e	ff 75 08	 push	 DWORD PTR ___s$[ebp]
  00031	8b ce		 mov	 ecx, esi
  00033	e8 00 00 00 00	 call	 ??$_M_range_initialize@PBD@?$basic_string@DV?$char_traits@D@_STL@@V?$allocator@D@2@@_STL@@AAEXPBD0ABUforward_iterator_tag@1@@Z ; _STL::basic_string<char,_STL::char_traits<char>,_STL::allocator<char> >::_M_range_initialize<char const *>

; 555  : } 

  00038	8b 4d f4	 mov	 ecx, DWORD PTR __$EHRec$[ebp]
  0003b	8b c6		 mov	 eax, esi
  0003d	5e		 pop	 esi
  0003e	64 89 0d 00 00
	00 00		 mov	 DWORD PTR fs:__except_list, ecx
  00045	c9		 leave
  00046	c2 08 00	 ret	 8
_TEXT	ENDS
;	COMDAT text$x
text$x	SEGMENT
$L102734:
  00000	8b 4d f0	 mov	 ecx, DWORD PTR _this$[ebp]
  00003	e9 00 00 00 00	 jmp	 ??1?$_String_base@DV?$allocator@D@_STL@@@_STL@@QAE@XZ ; _STL::_String_base<char,_STL::allocator<char> >::~_String_base<char,_STL::allocator<char> >
__ehhandler$??0?$basic_string@DV?$char_traits@D@_STL@@V?$allocator@D@2@@_STL@@QAE@PBDABV?$allocator@D@1@@Z:
  00008	b8 00 00 00 00	 mov	 eax, OFFSET FLAT:$T102747
  0000d	e9 00 00 00 00	 jmp	 ___CxxFrameHandler
text$x	ENDS
??0?$basic_string@DV?$char_traits@D@_STL@@V?$allocator@D@2@@_STL@@QAE@PBDABV?$allocator@D@1@@Z ENDP ; _STL::basic_string<char,_STL::char_traits<char>,_STL::allocator<char> >::basic_string<char,_STL::char_traits<char>,_STL::allocator<char> >
PUBLIC	??$_M_range_initialize@PAD@?$basic_string@DV?$char_traits@D@_STL@@V?$allocator@D@2@@_STL@@AAEXPAD0ABUforward_iterator_tag@1@@Z ; _STL::basic_string<char,_STL::char_traits<char>,_STL::allocator<char> >::_M_range_initialize<char *>
; Function compile flags: /Ogsy
; File c:\stlport-4.6.1\stlport\stl\_string.h
;	COMDAT ??$_M_range_initialize@PAD@?$basic_string@DV?$char_traits@D@_STL@@V?$allocator@D@2@@_STL@@AAEXPAD0ABUforward_iterator_tag@1@@Z
_TEXT	SEGMENT
___f$ = 8						; size = 4
___l$ = 12						; size = 4
___formal$ = 16						; size = 4
??$_M_range_initialize@PAD@?$basic_string@DV?$char_traits@D@_STL@@V?$allocator@D@2@@_STL@@AAEXPAD0ABUforward_iterator_tag@1@@Z PROC NEAR ; _STL::basic_string<char,_STL::char_traits<char>,_STL::allocator<char> >::_M_range_initialize<char *>, COMDAT
; _this$ = ecx

; 383  :                            const forward_iterator_tag &) {
; 384  :     difference_type __n = distance(__f, __l);
; 385  :     this->_M_allocate_block(__n + 1);

  00000	8b 44 24 08	 mov	 eax, DWORD PTR ___l$[esp-4]
  00004	2b 44 24 04	 sub	 eax, DWORD PTR ___f$[esp-4]
  00008	56		 push	 esi
  00009	40		 inc	 eax
  0000a	50		 push	 eax
  0000b	8b f1		 mov	 esi, ecx
  0000d	e8 00 00 00 00	 call	 ?_M_allocate_block@?$_String_base@DV?$allocator@D@_STL@@@_STL@@QAEXI@Z ; _STL::_String_base<char,_STL::allocator<char> >::_M_allocate_block

; 386  :     this->_M_finish = uninitialized_copy(__f, __l, this->_M_start);

  00012	ff 36		 push	 DWORD PTR [esi]
  00014	ff 74 24 10	 push	 DWORD PTR ___l$[esp+4]
  00018	ff 74 24 10	 push	 DWORD PTR ___f$[esp+8]
  0001c	e8 00 00 00 00	 call	 ?__copy_trivial@_STL@@YAPAXPBX0PAX@Z ; _STL::__copy_trivial
  00021	83 c4 0c	 add	 esp, 12			; 0000000cH
  00024	89 46 04	 mov	 DWORD PTR [esi+4], eax

; 387  :     _M_terminate_string();

  00027	c6 00 00	 mov	 BYTE PTR [eax], 0
  0002a	5e		 pop	 esi

; 388  :   }

  0002b	c2 0c 00	 ret	 12			; 0000000cH
??$_M_range_initialize@PAD@?$basic_string@DV?$char_traits@D@_STL@@V?$allocator@D@2@@_STL@@AAEXPAD0ABUforward_iterator_tag@1@@Z ENDP ; _STL::basic_string<char,_STL::char_traits<char>,_STL::allocator<char> >::_M_range_initialize<char *>
_TEXT	ENDS
PUBLIC	?_M_put_nowiden@?$basic_ostream@DV?$char_traits@D@_STL@@@_STL@@QAEXPBD@Z ; _STL::basic_ostream<char,_STL::char_traits<char> >::_M_put_nowiden
;	COMDAT xdata$x
; File c:\stlport-4.6.1\stlport\stl\_ios_base.h
xdata$x	SEGMENT
$T102961 DD	0ffffffffH
	DD	FLAT:$L102867
	DD	00H
	DD	00H
	DD	00H
	DD	00H
$T102963 DD	00H
	DD	00H
	DD	00H
	DD	FLAT:$L102866
$T102962 DD	01H
	DD	01H
	DD	02H
	DD	01H
	DD	FLAT:$T102963
$T102956 DD	019930520H
	DD	03H
	DD	FLAT:$T102961
	DD	01H
	DD	FLAT:$T102962
	DD	2 DUP(00H)
; Function compile flags: /Ogsy
; File c:\stlport-4.6.1\stlport\stl\_ostream.c
xdata$x	ENDS
;	COMDAT ?_M_put_nowiden@?$basic_ostream@DV?$char_traits@D@_STL@@@_STL@@QAEXPBD@Z
_TEXT	SEGMENT
___sentry$ = -36					; size = 8
$T102915 = -28						; size = 1
_this$ = -24						; size = 4
___failed$101079 = -17					; size = 1
__$EHRec$ = -16						; size = 16
$T102904 = 8						; size = 1
___s$ = 8						; size = 4
?_M_put_nowiden@?$basic_ostream@DV?$char_traits@D@_STL@@@_STL@@QAEXPBD@Z PROC NEAR ; _STL::basic_ostream<char,_STL::char_traits<char> >::_M_put_nowiden, COMDAT
; _this$ = ecx

; 256  : {

  00000	b8 00 00 00 00	 mov	 eax, __ehhandler$?_M_put_nowiden@?$basic_ostream@DV?$char_traits@D@_STL@@@_STL@@QAEXPBD@Z
  00005	e8 00 00 00 00	 call	 __EH_prolog
  0000a	83 ec 18	 sub	 esp, 24			; 00000018H
  0000d	53		 push	 ebx
  0000e	56		 push	 esi
  0000f	57		 push	 edi
  00010	8b f1		 mov	 esi, ecx
  00012	89 65 f0	 mov	 DWORD PTR __$EHRec$[ebp], esp

; 257  :   sentry __sentry(*this);

  00015	56		 push	 esi
  00016	8d 4d dc	 lea	 ecx, DWORD PTR ___sentry$[ebp]
  00019	89 75 e8	 mov	 DWORD PTR _this$[ebp], esi
  0001c	e8 00 00 00 00	 call	 ??0sentry@?$basic_ostream@DV?$char_traits@D@_STL@@@_STL@@QAE@AAV12@@Z ; _STL::basic_ostream<char,_STL::char_traits<char> >::sentry::sentry
  00021	33 db		 xor	 ebx, ebx

; 258  :   if (__sentry) {

  00023	38 5d e0	 cmp	 BYTE PTR ___sentry$[ebp+4], bl
  00026	89 5d fc	 mov	 DWORD PTR __$EHRec$[ebp+12], ebx
  00029	0f 84 0b 01 00
	00		 je	 $L102943

; 259  :     bool __failed = true;
; 260  :     streamsize __n = _Traits::length(__s);

  0002f	ff 75 08	 push	 DWORD PTR ___s$[ebp]
  00032	c6 45 ef 01	 mov	 BYTE PTR ___failed$101079[ebp], 1
  00036	e8 00 00 00 00	 call	 _strlen
  0003b	59		 pop	 ecx

; 261  :     streamsize __npad = this->width() > __n ? this->width() - __n : 0;

  0003c	8b 0e		 mov	 ecx, DWORD PTR [esi]
  0003e	8b f8		 mov	 edi, eax
  00040	8b 41 04	 mov	 eax, DWORD PTR [ecx+4]
  00043	03 c6		 add	 eax, esi
  00045	8b 50 1c	 mov	 edx, DWORD PTR [eax+28]
  00048	3b d7		 cmp	 edx, edi
  0004a	7e 04		 jle	 SHORT $L102860
  0004c	2b d7		 sub	 edx, edi
  0004e	8b da		 mov	 ebx, edx
$L102860:

; 262  : 
; 263  :     _STLP_TRY {
; 264  :       if (__npad == 0)

  00050	85 db		 test	 ebx, ebx
  00052	c6 45 fc 01	 mov	 BYTE PTR __$EHRec$[ebp+12], 1
  00056	75 18		 jne	 SHORT $L101083

; 265  :         __failed = this->rdbuf()->sputn(__s, __n) != __n;

  00058	8b 40 58	 mov	 eax, DWORD PTR [eax+88]
  0005b	8b 10		 mov	 edx, DWORD PTR [eax]
  0005d	57		 push	 edi
  0005e	ff 75 08	 push	 DWORD PTR ___s$[ebp]
  00061	8b c8		 mov	 ecx, eax
  00063	ff 52 28	 call	 DWORD PTR [edx+40]
  00066	3b c7		 cmp	 eax, edi
  00068	0f 95 c1	 setne	 cl

; 266  :       else if ((this->flags() & ios_base::adjustfield) == ios_base::left) {

  0006b	e9 85 00 00 00	 jmp	 $L102864
$L101083:
  00070	8b 50 04	 mov	 edx, DWORD PTR [eax+4]
  00073	80 e2 07	 and	 dl, 7
  00076	80 fa 01	 cmp	 dl, 1
  00079	75 39		 jne	 SHORT $L101085

; 267  :         __failed = this->rdbuf()->sputn(__s, __n) != __n;

  0007b	8b 40 58	 mov	 eax, DWORD PTR [eax+88]
  0007e	8b 10		 mov	 edx, DWORD PTR [eax]
  00080	57		 push	 edi
  00081	ff 75 08	 push	 DWORD PTR ___s$[ebp]
  00084	8b c8		 mov	 ecx, eax
  00086	ff 52 28	 call	 DWORD PTR [edx+40]
  00089	3b c7		 cmp	 eax, edi
  0008b	0f 95 45 ef	 setne	 BYTE PTR ___failed$101079[ebp]

; 268  :         __failed = __failed || 
; 269  :                    this->rdbuf()->_M_sputnc(this->fill(), __npad) != __npad;

  0008f	80 7d ef 00	 cmp	 BYTE PTR ___failed$101079[ebp], 0
  00093	75 5e		 jne	 SHORT $L102863
  00095	8b 06		 mov	 eax, DWORD PTR [esi]
  00097	8b 40 04	 mov	 eax, DWORD PTR [eax+4]
  0009a	03 c6		 add	 eax, esi
  0009c	8a 48 54	 mov	 cl, BYTE PTR [eax+84]
  0009f	8b 40 58	 mov	 eax, DWORD PTR [eax+88]
  000a2	8b 10		 mov	 edx, DWORD PTR [eax]
  000a4	88 4d 08	 mov	 BYTE PTR $T102904[ebp], cl
  000a7	53		 push	 ebx
  000a8	ff 75 08	 push	 DWORD PTR $T102904[ebp]
  000ab	8b c8		 mov	 ecx, eax
  000ad	ff 52 2c	 call	 DWORD PTR [edx+44]
  000b0	3b c3		 cmp	 eax, ebx

; 270  :       }
; 271  :       else {

  000b2	eb 39		 jmp	 SHORT $L102960
$L101085:

; 272  :         __failed = this->rdbuf()->_M_sputnc(this->fill(), __npad) != __npad;

  000b4	8b 41 04	 mov	 eax, DWORD PTR [ecx+4]
  000b7	03 c6		 add	 eax, esi
  000b9	8a 48 54	 mov	 cl, BYTE PTR [eax+84]
  000bc	8b 40 58	 mov	 eax, DWORD PTR [eax+88]
  000bf	8b 10		 mov	 edx, DWORD PTR [eax]
  000c1	88 4d e4	 mov	 BYTE PTR $T102915[ebp], cl
  000c4	53		 push	 ebx
  000c5	ff 75 e4	 push	 DWORD PTR $T102915[ebp]
  000c8	8b c8		 mov	 ecx, eax
  000ca	ff 52 2c	 call	 DWORD PTR [edx+44]
  000cd	3b c3		 cmp	 eax, ebx
  000cf	0f 95 45 ef	 setne	 BYTE PTR ___failed$101079[ebp]

; 273  :         __failed = __failed || this->rdbuf()->sputn(__s, __n) != __n;

  000d3	80 7d ef 00	 cmp	 BYTE PTR ___failed$101079[ebp], 0
  000d7	75 1a		 jne	 SHORT $L102863
  000d9	8b 06		 mov	 eax, DWORD PTR [esi]
  000db	8b 40 04	 mov	 eax, DWORD PTR [eax+4]
  000de	8b 4c 30 58	 mov	 ecx, DWORD PTR [eax+esi+88]
  000e2	8b 01		 mov	 eax, DWORD PTR [ecx]
  000e4	57		 push	 edi
  000e5	ff 75 08	 push	 DWORD PTR ___s$[ebp]
  000e8	ff 50 28	 call	 DWORD PTR [eax+40]
  000eb	3b c7		 cmp	 eax, edi
$L102960:
  000ed	75 04		 jne	 SHORT $L102863
  000ef	32 c9		 xor	 cl, cl
  000f1	eb 02		 jmp	 SHORT $L102864
$L102863:
  000f3	b1 01		 mov	 cl, 1
$L102864:

; 274  :       }
; 275  : 
; 276  :       this->width(0);

  000f5	8b 06		 mov	 eax, DWORD PTR [esi]
  000f7	8b 40 04	 mov	 eax, DWORD PTR [eax+4]
  000fa	03 c6		 add	 eax, esi
  000fc	83 60 1c 00	 and	 DWORD PTR [eax+28], 0
  00100	eb 1d		 jmp	 SHORT $L101082
$L102866:

; 277  :     }
; 278  :     _STLP_CATCH_ALL {
; 279  :       this->_M_handle_exception(ios_base::badbit);

  00102	8b 45 e8	 mov	 eax, DWORD PTR _this$[ebp]
  00105	8b 08		 mov	 ecx, DWORD PTR [eax]
  00107	8b 49 04	 mov	 ecx, DWORD PTR [ecx+4]
  0010a	6a 01		 push	 1
  0010c	03 c8		 add	 ecx, eax
  0010e	e8 00 00 00 00	 call	 ?_M_handle_exception@?$basic_ios@DV?$char_traits@D@_STL@@@_STL@@QAEXH@Z ; _STL::basic_ios<char,_STL::char_traits<char> >::_M_handle_exception

; 280  :     }

  00113	b8 00 00 00 00	 mov	 eax, $L102957
  00118	c3		 ret	 0
$L102957:
  00119	8b 75 e8	 mov	 esi, DWORD PTR _this$[ebp]
  0011c	8a 4d ef	 mov	 cl, BYTE PTR ___failed$101079[ebp]
$L101082:
  0011f	83 65 fc 00	 and	 DWORD PTR __$EHRec$[ebp+12], 0

; 281  : 
; 282  :     if (__failed)

  00123	84 c9		 test	 cl, cl
  00125	74 13		 je	 SHORT $L102943

; 283  :       this->setstate(ios_base::failbit);

  00127	8b 06		 mov	 eax, DWORD PTR [esi]
  00129	8b 48 04	 mov	 ecx, DWORD PTR [eax+4]
  0012c	03 ce		 add	 ecx, esi
  0012e	8b 41 08	 mov	 eax, DWORD PTR [ecx+8]
  00131	83 c8 04	 or	 eax, 4
  00134	50		 push	 eax
  00135	e8 00 00 00 00	 call	 ?clear@?$basic_ios@DV?$char_traits@D@_STL@@@_STL@@QAEXH@Z ; _STL::basic_ios<char,_STL::char_traits<char> >::clear
$L102943:

; 284  :   }
; 285  : }

  0013a	8b 4d dc	 mov	 ecx, DWORD PTR ___sentry$[ebp]
  0013d	8b 01		 mov	 eax, DWORD PTR [ecx]
  0013f	8b 40 04	 mov	 eax, DWORD PTR [eax+4]
  00142	83 4d fc ff	 or	 DWORD PTR __$EHRec$[ebp+12], -1
  00146	f6 44 08 05 20	 test	 BYTE PTR [eax+ecx+5], 32 ; 00000020H
  0014b	74 05		 je	 SHORT $L102954
  0014d	e8 00 00 00 00	 call	 ?flush@?$basic_ostream@DV?$char_traits@D@_STL@@@_STL@@QAEAAV12@XZ ; _STL::basic_ostream<char,_STL::char_traits<char> >::flush
$L102954:
  00152	8b 4d f4	 mov	 ecx, DWORD PTR __$EHRec$[ebp+4]
  00155	5f		 pop	 edi
  00156	5e		 pop	 esi
  00157	64 89 0d 00 00
	00 00		 mov	 DWORD PTR fs:__except_list, ecx
  0015e	5b		 pop	 ebx
  0015f	c9		 leave
  00160	c2 04 00	 ret	 4
_TEXT	ENDS
;	COMDAT text$x
text$x	SEGMENT
$L102867:
  00000	8d 4d dc	 lea	 ecx, DWORD PTR ___sentry$[ebp]
  00003	e9 00 00 00 00	 jmp	 ??1sentry@?$basic_ostream@DV?$char_traits@D@_STL@@@_STL@@QAE@XZ ; _STL::basic_ostream<char,_STL::char_traits<char> >::sentry::~sentry
__ehhandler$?_M_put_nowiden@?$basic_ostream@DV?$char_traits@D@_STL@@@_STL@@QAEXPBD@Z:
  00008	b8 00 00 00 00	 mov	 eax, OFFSET FLAT:$T102956
  0000d	e9 00 00 00 00	 jmp	 ___CxxFrameHandler
text$x	ENDS
?_M_put_nowiden@?$basic_ostream@DV?$char_traits@D@_STL@@@_STL@@QAEXPBD@Z ENDP ; _STL::basic_ostream<char,_STL::char_traits<char> >::_M_put_nowiden
PUBLIC	?put@?$basic_ostream@DV?$char_traits@D@_STL@@@_STL@@QAEAAV12@D@Z ; _STL::basic_ostream<char,_STL::char_traits<char> >::put
;	COMDAT xdata$x
; File c:\stlport-4.6.1\stlport\stl\_ios_base.h
xdata$x	SEGMENT
$T103020 DD	0ffffffffH
	DD	FLAT:$L102971
	DD	00H
	DD	00H
	DD	00H
	DD	00H
$T103022 DD	00H
	DD	00H
	DD	00H
	DD	FLAT:$L102970
$T103021 DD	01H
	DD	01H
	DD	02H
	DD	01H
	DD	FLAT:$T103022
$T103016 DD	019930520H
	DD	03H
	DD	FLAT:$T103020
	DD	01H
	DD	FLAT:$T103021
	DD	2 DUP(00H)
; Function compile flags: /Ogsy
; File c:\stlport-4.6.1\stlport\stl\_ostream.c
xdata$x	ENDS
;	COMDAT ?put@?$basic_ostream@DV?$char_traits@D@_STL@@@_STL@@QAEAAV12@D@Z
_TEXT	SEGMENT
___sentry$ = -32					; size = 8
_this$ = -24						; size = 4
___failed$ = -17					; size = 1
__$EHRec$ = -16						; size = 16
___c$ = 8						; size = 1
?put@?$basic_ostream@DV?$char_traits@D@_STL@@@_STL@@QAEAAV12@D@Z PROC NEAR ; _STL::basic_ostream<char,_STL::char_traits<char> >::put, COMDAT
; _this$ = ecx

; 336  : {

  00000	b8 00 00 00 00	 mov	 eax, __ehhandler$?put@?$basic_ostream@DV?$char_traits@D@_STL@@@_STL@@QAEAAV12@D@Z
  00005	e8 00 00 00 00	 call	 __EH_prolog
  0000a	83 ec 14	 sub	 esp, 20			; 00000014H
  0000d	53		 push	 ebx
  0000e	56		 push	 esi
  0000f	57		 push	 edi
  00010	8b f1		 mov	 esi, ecx
  00012	89 65 f0	 mov	 DWORD PTR __$EHRec$[ebp], esp

; 337  :   sentry __sentry(*this);

  00015	56		 push	 esi
  00016	8d 4d e0	 lea	 ecx, DWORD PTR ___sentry$[ebp]
  00019	89 75 e8	 mov	 DWORD PTR _this$[ebp], esi
  0001c	e8 00 00 00 00	 call	 ??0sentry@?$basic_ostream@DV?$char_traits@D@_STL@@@_STL@@QAE@AAV12@@Z ; _STL::basic_ostream<char,_STL::char_traits<char> >::sentry::sentry
  00021	83 65 fc 00	 and	 DWORD PTR __$EHRec$[ebp+12], 0

; 338  :   bool __failed = true;
; 339  : 
; 340  :   if (__sentry) {

  00025	80 7d e4 00	 cmp	 BYTE PTR ___sentry$[ebp+4], 0
  00029	c6 45 ef 01	 mov	 BYTE PTR ___failed$[ebp], 1
  0002d	74 38		 je	 SHORT $L101097

; 341  :     _STLP_TRY {
; 342  :       __failed = this->_S_eof(this->rdbuf()->sputc(__c));

  0002f	8b 06		 mov	 eax, DWORD PTR [esi]
  00031	8b 40 04	 mov	 eax, DWORD PTR [eax+4]
  00034	ff 75 08	 push	 DWORD PTR ___c$[ebp]
  00037	8b 4c 30 58	 mov	 ecx, DWORD PTR [eax+esi+88]
  0003b	c6 45 fc 01	 mov	 BYTE PTR __$EHRec$[ebp+12], 1
  0003f	e8 00 00 00 00	 call	 ?sputc@?$basic_streambuf@DV?$char_traits@D@_STL@@@_STL@@QAEHD@Z ; _STL::basic_streambuf<char,_STL::char_traits<char> >::sputc
  00044	83 f8 ff	 cmp	 eax, -1
  00047	0f 94 45 ef	 sete	 BYTE PTR ___failed$[ebp]
  0004b	eb 1a		 jmp	 SHORT $L101097
$L102970:

; 343  :     }
; 344  :     _STLP_CATCH_ALL {
; 345  :       this->_M_handle_exception(ios_base::badbit);

  0004d	8b 45 e8	 mov	 eax, DWORD PTR _this$[ebp]
  00050	8b 08		 mov	 ecx, DWORD PTR [eax]
  00052	8b 49 04	 mov	 ecx, DWORD PTR [ecx+4]
  00055	6a 01		 push	 1
  00057	03 c8		 add	 ecx, eax
  00059	e8 00 00 00 00	 call	 ?_M_handle_exception@?$basic_ios@DV?$char_traits@D@_STL@@@_STL@@QAEXH@Z ; _STL::basic_ios<char,_STL::char_traits<char> >::_M_handle_exception

; 346  :     }

  0005e	b8 00 00 00 00	 mov	 eax, $L103017
  00063	c3		 ret	 0
$L103017:
  00064	8b 75 e8	 mov	 esi, DWORD PTR _this$[ebp]
$L101097:
  00067	83 65 fc 00	 and	 DWORD PTR __$EHRec$[ebp+12], 0

; 347  :   }
; 348  : 
; 349  :   if (__failed)

  0006b	80 7d ef 00	 cmp	 BYTE PTR ___failed$[ebp], 0
  0006f	74 13		 je	 SHORT $L103003

; 350  :     this->setstate(ios_base::badbit);

  00071	8b 06		 mov	 eax, DWORD PTR [esi]
  00073	8b 48 04	 mov	 ecx, DWORD PTR [eax+4]
  00076	03 ce		 add	 ecx, esi
  00078	8b 41 08	 mov	 eax, DWORD PTR [ecx+8]
  0007b	83 c8 01	 or	 eax, 1
  0007e	50		 push	 eax
  0007f	e8 00 00 00 00	 call	 ?clear@?$basic_ios@DV?$char_traits@D@_STL@@@_STL@@QAEXH@Z ; _STL::basic_ios<char,_STL::char_traits<char> >::clear
$L103003:

; 351  : 
; 352  :   return *this;

  00084	8b 4d e0	 mov	 ecx, DWORD PTR ___sentry$[ebp]
  00087	8b 01		 mov	 eax, DWORD PTR [ecx]
  00089	8b 40 04	 mov	 eax, DWORD PTR [eax+4]
  0008c	83 4d fc ff	 or	 DWORD PTR __$EHRec$[ebp+12], -1
  00090	f6 44 08 05 20	 test	 BYTE PTR [eax+ecx+5], 32 ; 00000020H
  00095	74 05		 je	 SHORT $L103014
  00097	e8 00 00 00 00	 call	 ?flush@?$basic_ostream@DV?$char_traits@D@_STL@@@_STL@@QAEAAV12@XZ ; _STL::basic_ostream<char,_STL::char_traits<char> >::flush
$L103014:

; 353  : }

  0009c	8b 4d f4	 mov	 ecx, DWORD PTR __$EHRec$[ebp+4]
  0009f	5f		 pop	 edi
  000a0	8b c6		 mov	 eax, esi
  000a2	5e		 pop	 esi
  000a3	64 89 0d 00 00
	00 00		 mov	 DWORD PTR fs:__except_list, ecx
  000aa	5b		 pop	 ebx
  000ab	c9		 leave
  000ac	c2 04 00	 ret	 4
_TEXT	ENDS
;	COMDAT text$x
text$x	SEGMENT
$L102971:
  00000	8d 4d e0	 lea	 ecx, DWORD PTR ___sentry$[ebp]
  00003	e9 00 00 00 00	 jmp	 ??1sentry@?$basic_ostream@DV?$char_traits@D@_STL@@@_STL@@QAE@XZ ; _STL::basic_ostream<char,_STL::char_traits<char> >::sentry::~sentry
__ehhandler$?put@?$basic_ostream@DV?$char_traits@D@_STL@@@_STL@@QAEAAV12@D@Z:
  00008	b8 00 00 00 00	 mov	 eax, OFFSET FLAT:$T103016
  0000d	e9 00 00 00 00	 jmp	 ___CxxFrameHandler
text$x	ENDS
?put@?$basic_ostream@DV?$char_traits@D@_STL@@@_STL@@QAEAAV12@D@Z ENDP ; _STL::basic_ostream<char,_STL::char_traits<char> >::put
PUBLIC	??1?$basic_string@DV?$char_traits@D@_STL@@V?$allocator@D@2@@_STL@@QAE@XZ ; _STL::basic_string<char,_STL::char_traits<char>,_STL::allocator<char> >::~basic_string<char,_STL::char_traits<char>,_STL::allocator<char> >
; Function compile flags: /Ogsy
; File c:\stlport-4.6.1\stlport\stl\_string.h
;	COMDAT ??1?$basic_string@DV?$char_traits@D@_STL@@V?$allocator@D@2@@_STL@@QAE@XZ
_TEXT	SEGMENT
??1?$basic_string@DV?$char_traits@D@_STL@@V?$allocator@D@2@@_STL@@QAE@XZ PROC NEAR ; _STL::basic_string<char,_STL::char_traits<char>,_STL::allocator<char> >::~basic_string<char,_STL::char_traits<char>,_STL::allocator<char> >, COMDAT
; _this$ = ecx

; 305  :   ~basic_string() { _STLP_STD::_Destroy(this->_M_start, this->_M_finish + 1); }

  00000	e9 00 00 00 00	 jmp	 ?_M_deallocate_block@?$_String_base@DV?$allocator@D@_STL@@@_STL@@QAEXXZ ; _STL::_String_base<char,_STL::allocator<char> >::_M_deallocate_block
??1?$basic_string@DV?$char_traits@D@_STL@@V?$allocator@D@2@@_STL@@QAE@XZ ENDP ; _STL::basic_string<char,_STL::char_traits<char>,_STL::allocator<char> >::~basic_string<char,_STL::char_traits<char>,_STL::allocator<char> >
_TEXT	ENDS
PUBLIC	??_C@_0P@IMNIMLMB@PCSlayerInfo3?$CI?$AA@	; `string'
PUBLIC	??_C@_09KPOAGKJO@ObjectID?3?$AA@		; `string'
PUBLIC	??_C@_06FJHHLOOE@?0Name?3?$AA@			; `string'
PUBLIC	??_C@_03HDFJJBBE@?0X?3?$AA@			; `string'
PUBLIC	??_C@_03HCJLPLCD@?0Y?3?$AA@			; `string'
PUBLIC	??_C@_05KHNCLPFG@?0Dir?3?$AA@			; `string'
PUBLIC	??_C@_05DCFDMOKK@?0Sex?3?$AA@			; `string'
PUBLIC	??_C@_0M@LJADDIFF@?0HairStyle?3?$AA@		; `string'
PUBLIC	??_C@_0M@BEBAFECK@?0HairColor?3?$AA@		; `string'
PUBLIC	??_C@_0M@KFPBKDAI@?0SkinColor?3?$AA@		; `string'
PUBLIC	??_C@_08DKPIEFOF@?0Helmet?3?$AA@		; `string'
PUBLIC	??_C@_0O@BPIJCLJI@?0HelmetColor?3?$AA@		; `string'
PUBLIC	??_C@_08PCIECBPO@?0Jacket?3?$AA@		; `string'
PUBLIC	??_C@_0O@OCDFCBCN@?0JacketColor?3?$AA@		; `string'
PUBLIC	??_C@_01KMDKNFGN@?1?$AA@			; `string'
PUBLIC	??_C@_07GFDIJEFA@?0Pants?3?$AA@			; `string'
PUBLIC	??_C@_0N@PFMKKFNL@?0PantsColor?3?$AA@		; `string'
PUBLIC	??_C@_08MFIBOAEN@?0Weapon?3?$AA@		; `string'
PUBLIC	??_C@_0O@ONGPLIFF@?0WeaponColor?3?$AA@		; `string'
PUBLIC	??_C@_08HLGNDPNA@?0Shield?3?$AA@		; `string'
PUBLIC	??_C@_0O@GAHAFIMJ@?0ShieldColor?3?$AA@		; `string'
PUBLIC	??_C@_0N@HEAGPKAM@?0Motorcycle?3?$AA@		; `string'
PUBLIC	??_C@_0L@HHFNHLLF@?0Shoulder?3?$AA@		; `string'
PUBLIC	??_C@_0BC@KOPMOMKL@?0MotorcycleColor?3?$AA@	; `string'
PUBLIC	??_C@_06JFKKGING@?0Born?3?$AA@			; `string'
PUBLIC	??_C@_0M@NCGLLCGL@?0CurerntHP?3?$AA@		; `string'
PUBLIC	??_C@_07MGHLENM@?0MaxHP?3?$AA@			; `string'
PUBLIC	??_C@_0M@PMHLFOKB@?0Alignment?3?$AA@		; `string'
PUBLIC	??_C@_0O@DIHBGOLJ@?0AttackSpeed?3?$AA@		; `string'
PUBLIC	??_C@_0N@DFBFICOF@?0Competence?3?$AA@		; `string'
PUBLIC	??_C@_09KONLHOKF@?0GuildID?3?$AA@		; `string'
PUBLIC	??_C@_06DFEIPOOA@?0Rank?3?$AA@			; `string'
PUBLIC	??_C@_0BC@JNJAFJDJ@?0ContributePoint?3?$AA@	; `string'
PUBLIC	??_C@_0BC@EKBHBEAF@?0m_MotorItemType?3?$AA@	; `string'
PUBLIC	??_C@_01PKGAHCOL@?$CJ?$AA@			; `string'
PUBLIC	?toString@PCSlayerInfo3@@QBE?AV?$basic_string@DV?$char_traits@D@_STL@@V?$allocator@D@2@@_STL@@XZ ; PCSlayerInfo3::toString
EXTRN	??0StringStream@@QAE@XZ:NEAR			; StringStream::StringStream
EXTRN	??1StringStream@@QAE@XZ:NEAR			; StringStream::~StringStream
EXTRN	??6StringStream@@QAEAAV0@H@Z:NEAR		; StringStream::operator<<
EXTRN	??6StringStream@@QAEAAV0@K@Z:NEAR		; StringStream::operator<<
EXTRN	??6StringStream@@QAEAAV0@PBD@Z:NEAR		; StringStream::operator<<
EXTRN	??6StringStream@@QAEAAV0@ABV?$basic_string@DV?$char_traits@D@_STL@@V?$allocator@D@2@@_STL@@@Z:NEAR ; StringStream::operator<<
EXTRN	?toString@StringStream@@QBE?AV?$basic_string@DV?$char_traits@D@_STL@@V?$allocator@D@2@@_STL@@XZ:NEAR ; StringStream::toString
;	COMDAT ??_C@_08DKPIEFOF@?0Helmet?3?$AA@
; File c:\darkeden\designed_common\project\client\packet\pcslayerinfo3.h
CONST	SEGMENT
??_C@_08DKPIEFOF@?0Helmet?3?$AA@ DB ',Helmet:', 00H	; `string'
CONST	ENDS
;	COMDAT ??_C@_0M@KFPBKDAI@?0SkinColor?3?$AA@
CONST	SEGMENT
??_C@_0M@KFPBKDAI@?0SkinColor?3?$AA@ DB ',SkinColor:', 00H ; `string'
CONST	ENDS
;	COMDAT ??_C@_0M@BEBAFECK@?0HairColor?3?$AA@
CONST	SEGMENT
??_C@_0M@BEBAFECK@?0HairColor?3?$AA@ DB ',HairColor:', 00H ; `string'
CONST	ENDS
;	COMDAT ??_C@_0M@LJADDIFF@?0HairStyle?3?$AA@
CONST	SEGMENT
??_C@_0M@LJADDIFF@?0HairStyle?3?$AA@ DB ',HairStyle:', 00H ; `string'
CONST	ENDS
;	COMDAT ??_C@_05DCFDMOKK@?0Sex?3?$AA@
CONST	SEGMENT
??_C@_05DCFDMOKK@?0Sex?3?$AA@ DB ',Sex:', 00H		; `string'
CONST	ENDS
;	COMDAT ??_C@_05KHNCLPFG@?0Dir?3?$AA@
CONST	SEGMENT
??_C@_05KHNCLPFG@?0Dir?3?$AA@ DB ',Dir:', 00H		; `string'
CONST	ENDS
;	COMDAT ??_C@_03HCJLPLCD@?0Y?3?$AA@
CONST	SEGMENT
??_C@_03HCJLPLCD@?0Y?3?$AA@ DB ',Y:', 00H		; `string'
CONST	ENDS
;	COMDAT ??_C@_03HDFJJBBE@?0X?3?$AA@
CONST	SEGMENT
??_C@_03HDFJJBBE@?0X?3?$AA@ DB ',X:', 00H		; `string'
CONST	ENDS
;	COMDAT ??_C@_06FJHHLOOE@?0Name?3?$AA@
CONST	SEGMENT
??_C@_06FJHHLOOE@?0Name?3?$AA@ DB ',Name:', 00H		; `string'
CONST	ENDS
;	COMDAT ??_C@_09KPOAGKJO@ObjectID?3?$AA@
CONST	SEGMENT
??_C@_09KPOAGKJO@ObjectID?3?$AA@ DB 'ObjectID:', 00H	; `string'
CONST	ENDS
;	COMDAT ??_C@_0P@IMNIMLMB@PCSlayerInfo3?$CI?$AA@
CONST	SEGMENT
??_C@_0P@IMNIMLMB@PCSlayerInfo3?$CI?$AA@ DB 'PCSlayerInfo3(', 00H ; `string'
CONST	ENDS
;	COMDAT ??_C@_0O@BPIJCLJI@?0HelmetColor?3?$AA@
CONST	SEGMENT
??_C@_0O@BPIJCLJI@?0HelmetColor?3?$AA@ DB ',HelmetColor:', 00H ; `string'
CONST	ENDS
;	COMDAT ??_C@_0L@HHFNHLLF@?0Shoulder?3?$AA@
CONST	SEGMENT
??_C@_0L@HHFNHLLF@?0Shoulder?3?$AA@ DB ',Shoulder:', 00H ; `string'
CONST	ENDS
;	COMDAT ??_C@_0N@HEAGPKAM@?0Motorcycle?3?$AA@
CONST	SEGMENT
??_C@_0N@HEAGPKAM@?0Motorcycle?3?$AA@ DB ',Motorcycle:', 00H ; `string'
CONST	ENDS
;	COMDAT ??_C@_0O@GAHAFIMJ@?0ShieldColor?3?$AA@
CONST	SEGMENT
??_C@_0O@GAHAFIMJ@?0ShieldColor?3?$AA@ DB ',ShieldColor:', 00H ; `string'
CONST	ENDS
;	COMDAT ??_C@_08HLGNDPNA@?0Shield?3?$AA@
CONST	SEGMENT
??_C@_08HLGNDPNA@?0Shield?3?$AA@ DB ',Shield:', 00H	; `string'
CONST	ENDS
;	COMDAT ??_C@_0O@ONGPLIFF@?0WeaponColor?3?$AA@
CONST	SEGMENT
??_C@_0O@ONGPLIFF@?0WeaponColor?3?$AA@ DB ',WeaponColor:', 00H ; `string'
CONST	ENDS
;	COMDAT ??_C@_08MFIBOAEN@?0Weapon?3?$AA@
CONST	SEGMENT
??_C@_08MFIBOAEN@?0Weapon?3?$AA@ DB ',Weapon:', 00H	; `string'
CONST	ENDS
;	COMDAT ??_C@_01KMDKNFGN@?1?$AA@
CONST	SEGMENT
??_C@_01KMDKNFGN@?1?$AA@ DB '/', 00H			; `string'
CONST	ENDS
;	COMDAT ??_C@_0N@PFMKKFNL@?0PantsColor?3?$AA@
CONST	SEGMENT
??_C@_0N@PFMKKFNL@?0PantsColor?3?$AA@ DB ',PantsColor:', 00H ; `string'
CONST	ENDS
;	COMDAT ??_C@_07GFDIJEFA@?0Pants?3?$AA@
CONST	SEGMENT
??_C@_07GFDIJEFA@?0Pants?3?$AA@ DB ',Pants:', 00H	; `string'
CONST	ENDS
;	COMDAT ??_C@_0O@OCDFCBCN@?0JacketColor?3?$AA@
CONST	SEGMENT
??_C@_0O@OCDFCBCN@?0JacketColor?3?$AA@ DB ',JacketColor:', 00H ; `string'
CONST	ENDS
;	COMDAT ??_C@_08PCIECBPO@?0Jacket?3?$AA@
CONST	SEGMENT
??_C@_08PCIECBPO@?0Jacket?3?$AA@ DB ',Jacket:', 00H	; `string'
CONST	ENDS
;	COMDAT ??_C@_0BC@KOPMOMKL@?0MotorcycleColor?3?$AA@
CONST	SEGMENT
??_C@_0BC@KOPMOMKL@?0MotorcycleColor?3?$AA@ DB ',MotorcycleColor:', 00H ; `string'
CONST	ENDS
;	COMDAT ??_C@_06JFKKGING@?0Born?3?$AA@
CONST	SEGMENT
??_C@_06JFKKGING@?0Born?3?$AA@ DB ',Born:', 00H		; `string'
CONST	ENDS
;	COMDAT ??_C@_0M@NCGLLCGL@?0CurerntHP?3?$AA@
CONST	SEGMENT
??_C@_0M@NCGLLCGL@?0CurerntHP?3?$AA@ DB ',CurerntHP:', 00H ; `string'
CONST	ENDS
;	COMDAT ??_C@_07MGHLENM@?0MaxHP?3?$AA@
CONST	SEGMENT
??_C@_07MGHLENM@?0MaxHP?3?$AA@ DB ',MaxHP:', 00H	; `string'
CONST	ENDS
;	COMDAT ??_C@_0M@PMHLFOKB@?0Alignment?3?$AA@
CONST	SEGMENT
??_C@_0M@PMHLFOKB@?0Alignment?3?$AA@ DB ',Alignment:', 00H ; `string'
CONST	ENDS
;	COMDAT ??_C@_0O@DIHBGOLJ@?0AttackSpeed?3?$AA@
CONST	SEGMENT
??_C@_0O@DIHBGOLJ@?0AttackSpeed?3?$AA@ DB ',AttackSpeed:', 00H ; `string'
CONST	ENDS
;	COMDAT ??_C@_0N@DFBFICOF@?0Competence?3?$AA@
CONST	SEGMENT
??_C@_0N@DFBFICOF@?0Competence?3?$AA@ DB ',Competence:', 00H ; `string'
CONST	ENDS
;	COMDAT ??_C@_09KONLHOKF@?0GuildID?3?$AA@
CONST	SEGMENT
??_C@_09KONLHOKF@?0GuildID?3?$AA@ DB ',GuildID:', 00H	; `string'
CONST	ENDS
;	COMDAT ??_C@_06DFEIPOOA@?0Rank?3?$AA@
CONST	SEGMENT
??_C@_06DFEIPOOA@?0Rank?3?$AA@ DB ',Rank:', 00H		; `string'
CONST	ENDS
;	COMDAT ??_C@_0BC@JNJAFJDJ@?0ContributePoint?3?$AA@
CONST	SEGMENT
??_C@_0BC@JNJAFJDJ@?0ContributePoint?3?$AA@ DB ',ContributePoint:', 00H ; `string'
CONST	ENDS
;	COMDAT ??_C@_0BC@EKBHBEAF@?0m_MotorItemType?3?$AA@
CONST	SEGMENT
??_C@_0BC@EKBHBEAF@?0m_MotorItemType?3?$AA@ DB ',m_MotorItemType:', 00H ; `string'
CONST	ENDS
;	COMDAT ??_C@_01PKGAHCOL@?$CJ?$AA@
CONST	SEGMENT
??_C@_01PKGAHCOL@?$CJ?$AA@ DB ')', 00H			; `string'
; Function compile flags: /Ogsy
; File c:\darkeden\designed_common\project\client\packet\pcslayerinfo3.cpp
CONST	ENDS
;	COMDAT ?toString@PCSlayerInfo3@@QBE?AV?$basic_string@DV?$char_traits@D@_STL@@V?$allocator@D@2@@_STL@@XZ
_TEXT	SEGMENT
_msg$ = -20						; size = 20
___$ReturnUdt$ = 8					; size = 4
?toString@PCSlayerInfo3@@QBE?AV?$basic_string@DV?$char_traits@D@_STL@@V?$allocator@D@2@@_STL@@XZ PROC NEAR ; PCSlayerInfo3::toString, COMDAT
; _this$ = ecx

; 170  : {

  00000	55		 push	 ebp
  00001	8b ec		 mov	 ebp, esp
  00003	83 ec 14	 sub	 esp, 20			; 00000014H
  00006	53		 push	 ebx
  00007	56		 push	 esi
  00008	8b f1		 mov	 esi, ecx
  0000a	57		 push	 edi

; 171  : 	StringStream msg;

  0000b	8d 4d ec	 lea	 ecx, DWORD PTR _msg$[ebp]
  0000e	e8 00 00 00 00	 call	 ??0StringStream@@QAE@XZ	; StringStream::StringStream

; 172  : 
; 173  : 	msg << "PCSlayerInfo3("
; 174  : 		<< "ObjectID:" << m_ObjectID
; 175  : 		<< ",Name:" << m_Name
; 176  : 		<< ",X:" << (int)m_X
; 177  : 		<< ",Y:" << (int)m_Y
; 178  : 		<< ",Dir:" << Dir2String[m_Dir]
; 179  : 		<< ",Sex:" << Sex2String[getSex()]
; 180  : 		<< ",HairStyle:" << HairStyle2String[getHairStyle()]
; 181  : 		<< ",HairColor:" << (int)getHairColor()
; 182  : 		<< ",SkinColor:" << (int)getSkinColor()
; 183  : 		<< ",Helmet:" << HelmetType2String[getHelmetType()];

  00013	66 8b 56 26	 mov	 dx, WORD PTR [esi+38]
  00017	66 8b 5e 24	 mov	 bx, WORD PTR [esi+36]
  0001b	8d 7e 20	 lea	 edi, DWORD PTR [esi+32]
  0001e	8b 0f		 mov	 ecx, DWORD PTR [edi]
  00020	8b c1		 mov	 eax, ecx
  00022	c1 e8 03	 shr	 eax, 3
  00025	83 e0 08	 and	 eax, 8
  00028	8d 04 40	 lea	 eax, DWORD PTR [eax+eax*2]
  0002b	8d 04 85 00 00
	00 00		 lea	 eax, DWORD PTR _HelmetType2String[eax*4]
  00032	50		 push	 eax
  00033	68 00 00 00 00	 push	 OFFSET FLAT:??_C@_08DKPIEFOF@?0Helmet?3?$AA@
  00038	0f b7 c2	 movzx	 eax, dx
  0003b	50		 push	 eax
  0003c	68 00 00 00 00	 push	 OFFSET FLAT:??_C@_0M@KFPBKDAI@?0SkinColor?3?$AA@
  00041	0f b7 c3	 movzx	 eax, bx
  00044	50		 push	 eax
  00045	d1 e9		 shr	 ecx, 1
  00047	83 e1 03	 and	 ecx, 3
  0004a	8d 04 49	 lea	 eax, DWORD PTR [ecx+ecx*2]
  0004d	68 00 00 00 00	 push	 OFFSET FLAT:??_C@_0M@BEBAFECK@?0HairColor?3?$AA@
  00052	8d 04 85 00 00
	00 00		 lea	 eax, DWORD PTR _HairStyle2String[eax*4]
  00059	50		 push	 eax
  0005a	68 00 00 00 00	 push	 OFFSET FLAT:??_C@_0M@LJADDIFF@?0HairStyle?3?$AA@
  0005f	6a 00		 push	 0
  00061	8b cf		 mov	 ecx, edi
  00063	e8 00 00 00 00	 call	 ?test@?$bitset@$0BG@@_STL@@QBE_NI@Z ; _STL::bitset<22>::test
  00068	f6 d8		 neg	 al
  0006a	8d 4d ec	 lea	 ecx, DWORD PTR _msg$[ebp]
  0006d	1b c0		 sbb	 eax, eax
  0006f	f7 d8		 neg	 eax
  00071	8d 04 40	 lea	 eax, DWORD PTR [eax+eax*2]
  00074	8d 04 85 00 00
	00 00		 lea	 eax, DWORD PTR _Sex2String[eax*4]
  0007b	50		 push	 eax
  0007c	0f b6 46 16	 movzx	 eax, BYTE PTR [esi+22]
  00080	68 00 00 00 00	 push	 OFFSET FLAT:??_C@_05DCFDMOKK@?0Sex?3?$AA@
  00085	8d 04 40	 lea	 eax, DWORD PTR [eax+eax*2]
  00088	8d 04 85 00 00
	00 00		 lea	 eax, DWORD PTR _Dir2String[eax*4]
  0008f	50		 push	 eax
  00090	0f b6 46 15	 movzx	 eax, BYTE PTR [esi+21]
  00094	68 00 00 00 00	 push	 OFFSET FLAT:??_C@_05KHNCLPFG@?0Dir?3?$AA@
  00099	50		 push	 eax
  0009a	0f b6 46 14	 movzx	 eax, BYTE PTR [esi+20]
  0009e	68 00 00 00 00	 push	 OFFSET FLAT:??_C@_03HCJLPLCD@?0Y?3?$AA@
  000a3	50		 push	 eax
  000a4	68 00 00 00 00	 push	 OFFSET FLAT:??_C@_03HDFJJBBE@?0X?3?$AA@
  000a9	8d 46 08	 lea	 eax, DWORD PTR [esi+8]
  000ac	50		 push	 eax
  000ad	68 00 00 00 00	 push	 OFFSET FLAT:??_C@_06FJHHLOOE@?0Name?3?$AA@
  000b2	ff 76 04	 push	 DWORD PTR [esi+4]
  000b5	68 00 00 00 00	 push	 OFFSET FLAT:??_C@_09KPOAGKJO@ObjectID?3?$AA@
  000ba	68 00 00 00 00	 push	 OFFSET FLAT:??_C@_0P@IMNIMLMB@PCSlayerInfo3?$CI?$AA@
  000bf	e8 00 00 00 00	 call	 ??6StringStream@@QAEAAV0@PBD@Z ; StringStream::operator<<
  000c4	8b c8		 mov	 ecx, eax
  000c6	e8 00 00 00 00	 call	 ??6StringStream@@QAEAAV0@PBD@Z ; StringStream::operator<<
  000cb	8b c8		 mov	 ecx, eax
  000cd	e8 00 00 00 00	 call	 ??6StringStream@@QAEAAV0@K@Z ; StringStream::operator<<
  000d2	8b c8		 mov	 ecx, eax
  000d4	e8 00 00 00 00	 call	 ??6StringStream@@QAEAAV0@PBD@Z ; StringStream::operator<<
  000d9	8b c8		 mov	 ecx, eax
  000db	e8 00 00 00 00	 call	 ??6StringStream@@QAEAAV0@ABV?$basic_string@DV?$char_traits@D@_STL@@V?$allocator@D@2@@_STL@@@Z ; StringStream::operator<<
  000e0	8b c8		 mov	 ecx, eax
  000e2	e8 00 00 00 00	 call	 ??6StringStream@@QAEAAV0@PBD@Z ; StringStream::operator<<
  000e7	8b c8		 mov	 ecx, eax
  000e9	e8 00 00 00 00	 call	 ??6StringStream@@QAEAAV0@H@Z ; StringStream::operator<<
  000ee	8b c8		 mov	 ecx, eax
  000f0	e8 00 00 00 00	 call	 ??6StringStream@@QAEAAV0@PBD@Z ; StringStream::operator<<
  000f5	8b c8		 mov	 ecx, eax
  000f7	e8 00 00 00 00	 call	 ??6StringStream@@QAEAAV0@H@Z ; StringStream::operator<<
  000fc	8b c8		 mov	 ecx, eax
  000fe	e8 00 00 00 00	 call	 ??6StringStream@@QAEAAV0@PBD@Z ; StringStream::operator<<
  00103	8b c8		 mov	 ecx, eax
  00105	e8 00 00 00 00	 call	 ??6StringStream@@QAEAAV0@ABV?$basic_string@DV?$char_traits@D@_STL@@V?$allocator@D@2@@_STL@@@Z ; StringStream::operator<<
  0010a	8b c8		 mov	 ecx, eax
  0010c	e8 00 00 00 00	 call	 ??6StringStream@@QAEAAV0@PBD@Z ; StringStream::operator<<
  00111	8b c8		 mov	 ecx, eax
  00113	e8 00 00 00 00	 call	 ??6StringStream@@QAEAAV0@ABV?$basic_string@DV?$char_traits@D@_STL@@V?$allocator@D@2@@_STL@@@Z ; StringStream::operator<<
  00118	8b c8		 mov	 ecx, eax
  0011a	e8 00 00 00 00	 call	 ??6StringStream@@QAEAAV0@PBD@Z ; StringStream::operator<<
  0011f	8b c8		 mov	 ecx, eax
  00121	e8 00 00 00 00	 call	 ??6StringStream@@QAEAAV0@ABV?$basic_string@DV?$char_traits@D@_STL@@V?$allocator@D@2@@_STL@@@Z ; StringStream::operator<<
  00126	8b c8		 mov	 ecx, eax
  00128	e8 00 00 00 00	 call	 ??6StringStream@@QAEAAV0@PBD@Z ; StringStream::operator<<
  0012d	8b c8		 mov	 ecx, eax
  0012f	e8 00 00 00 00	 call	 ??6StringStream@@QAEAAV0@H@Z ; StringStream::operator<<
  00134	8b c8		 mov	 ecx, eax
  00136	e8 00 00 00 00	 call	 ??6StringStream@@QAEAAV0@PBD@Z ; StringStream::operator<<
  0013b	8b c8		 mov	 ecx, eax
  0013d	e8 00 00 00 00	 call	 ??6StringStream@@QAEAAV0@H@Z ; StringStream::operator<<
  00142	8b c8		 mov	 ecx, eax
  00144	e8 00 00 00 00	 call	 ??6StringStream@@QAEAAV0@PBD@Z ; StringStream::operator<<
  00149	8b c8		 mov	 ecx, eax
  0014b	e8 00 00 00 00	 call	 ??6StringStream@@QAEAAV0@ABV?$basic_string@DV?$char_traits@D@_STL@@V?$allocator@D@2@@_STL@@@Z ; StringStream::operator<<

; 184  : 
; 185  : 	if (getHelmetType()!=HELMET_NONE)

  00150	f6 07 40	 test	 BYTE PTR [edi], 64	; 00000040H
  00153	74 19		 je	 SHORT $L100610

; 186  : 		msg << ",HelmetColor:" << (int)getHelmetColor();

  00155	0f b7 46 28	 movzx	 eax, WORD PTR [esi+40]
  00159	50		 push	 eax
  0015a	68 00 00 00 00	 push	 OFFSET FLAT:??_C@_0O@BPIJCLJI@?0HelmetColor?3?$AA@
  0015f	8d 4d ec	 lea	 ecx, DWORD PTR _msg$[ebp]
  00162	e8 00 00 00 00	 call	 ??6StringStream@@QAEAAV0@PBD@Z ; StringStream::operator<<
  00167	8b c8		 mov	 ecx, eax
  00169	e8 00 00 00 00	 call	 ??6StringStream@@QAEAAV0@H@Z ; StringStream::operator<<
$L100610:

; 187  : 
; 188  : 	msg << ",Jacket:" << JacketType2String[getJacketType()]
; 189  : 		<< ",JacketColor:" << (int)getJacketColor(MAIN_COLOR) << "/" << (int)getJacketColor(SUB_COLOR)
; 190  : 		<< ",Pants:" << PantsType2String[getPantsType()]
; 191  : 		<< ",PantsColor:" << (int)getPantsColor(MAIN_COLOR) << "/" << (int)getPantsColor(SUB_COLOR)
; 192  : 		<< ",Weapon:" << WeaponType2String[getWeaponType()]
; 193  : 		<< ",WeaponColor:" << (int)getWeaponColor()
; 194  : 		<< ",Shield:" << ShieldType2String[getShieldType()]
; 195  : 		<< ",ShieldColor:" << (int)getShieldColor()
; 196  : 		<< ",Motorcycle:" << MotorcycleType2String[getMotorcycleType()]
; 197  : 		<< ",Shoulder:" << (int)getShoulderType();

  0016e	8b 07		 mov	 eax, DWORD PTR [edi]
  00170	66 8b 56 30	 mov	 dx, WORD PTR [esi+48]
  00174	8b c8		 mov	 ecx, eax
  00176	c1 e9 14	 shr	 ecx, 20			; 00000014H
  00179	83 e1 03	 and	 ecx, 3
  0017c	51		 push	 ecx
  0017d	68 00 00 00 00	 push	 OFFSET FLAT:??_C@_0L@HHFNHLLF@?0Shoulder?3?$AA@
  00182	66 8b 5e 2e	 mov	 bx, WORD PTR [esi+46]
  00186	8b c8		 mov	 ecx, eax
  00188	c1 e9 0f	 shr	 ecx, 15			; 0000000fH
  0018b	83 e1 07	 and	 ecx, 7
  0018e	8d 0c 49	 lea	 ecx, DWORD PTR [ecx+ecx*2]
  00191	8d 0c 8d 00 00
	00 00		 lea	 ecx, DWORD PTR _MotorcycleType2String[ecx*4]
  00198	51		 push	 ecx
  00199	68 00 00 00 00	 push	 OFFSET FLAT:??_C@_0N@HEAGPKAM@?0Motorcycle?3?$AA@
  0019e	0f b7 ca	 movzx	 ecx, dx
  001a1	51		 push	 ecx
  001a2	68 00 00 00 00	 push	 OFFSET FLAT:??_C@_0O@GAHAFIMJ@?0ShieldColor?3?$AA@
  001a7	8b c8		 mov	 ecx, eax
  001a9	c1 e9 12	 shr	 ecx, 18			; 00000012H
  001ac	83 e1 07	 and	 ecx, 7
  001af	8d 0c 49	 lea	 ecx, DWORD PTR [ecx+ecx*2]
  001b2	8d 0c 8d 00 00
	00 00		 lea	 ecx, DWORD PTR _ShieldType2String[ecx*4]
  001b9	51		 push	 ecx
  001ba	68 00 00 00 00	 push	 OFFSET FLAT:??_C@_08HLGNDPNA@?0Shield?3?$AA@
  001bf	0f b7 cb	 movzx	 ecx, bx
  001c2	51		 push	 ecx
  001c3	68 00 00 00 00	 push	 OFFSET FLAT:??_C@_0O@ONGPLIFF@?0WeaponColor?3?$AA@
  001c8	8b c8		 mov	 ecx, eax
  001ca	c1 e9 0b	 shr	 ecx, 11			; 0000000bH
  001cd	83 e1 0f	 and	 ecx, 15			; 0000000fH
  001d0	8d 0c 49	 lea	 ecx, DWORD PTR [ecx+ecx*2]
  001d3	8d 0c 8d 00 00
	00 00		 lea	 ecx, DWORD PTR _WeaponType2String[ecx*4]
  001da	51		 push	 ecx
  001db	68 00 00 00 00	 push	 OFFSET FLAT:??_C@_08MFIBOAEN@?0Weapon?3?$AA@
  001e0	0f b7 cb	 movzx	 ecx, bx
  001e3	51		 push	 ecx
  001e4	0f b7 4e 2c	 movzx	 ecx, WORD PTR [esi+44]
  001e8	ba 00 00 00 00	 mov	 edx, OFFSET FLAT:??_C@_01KMDKNFGN@?1?$AA@
  001ed	52		 push	 edx
  001ee	51		 push	 ecx
  001ef	8b c8		 mov	 ecx, eax
  001f1	c1 e9 08	 shr	 ecx, 8
  001f4	83 e1 07	 and	 ecx, 7
  001f7	68 00 00 00 00	 push	 OFFSET FLAT:??_C@_0N@PFMKKFNL@?0PantsColor?3?$AA@
  001fc	8d 0c 49	 lea	 ecx, DWORD PTR [ecx+ecx*2]
  001ff	8d 0c 8d 00 00
	00 00		 lea	 ecx, DWORD PTR _PantsType2String[ecx*4]
  00206	51		 push	 ecx
  00207	0f b7 4e 2c	 movzx	 ecx, WORD PTR [esi+44]
  0020b	68 00 00 00 00	 push	 OFFSET FLAT:??_C@_07GFDIJEFA@?0Pants?3?$AA@
  00210	51		 push	 ecx
  00211	0f b7 4e 2a	 movzx	 ecx, WORD PTR [esi+42]
  00215	c1 e8 05	 shr	 eax, 5
  00218	52		 push	 edx
  00219	51		 push	 ecx
  0021a	83 e0 09	 and	 eax, 9
  0021d	8d 04 40	 lea	 eax, DWORD PTR [eax+eax*2]
  00220	68 00 00 00 00	 push	 OFFSET FLAT:??_C@_0O@OCDFCBCN@?0JacketColor?3?$AA@
  00225	8d 04 85 00 00
	00 00		 lea	 eax, DWORD PTR _JacketType2String[eax*4]
  0022c	50		 push	 eax
  0022d	68 00 00 00 00	 push	 OFFSET FLAT:??_C@_08PCIECBPO@?0Jacket?3?$AA@
  00232	8d 4d ec	 lea	 ecx, DWORD PTR _msg$[ebp]
  00235	e8 00 00 00 00	 call	 ??6StringStream@@QAEAAV0@PBD@Z ; StringStream::operator<<
  0023a	8b c8		 mov	 ecx, eax
  0023c	e8 00 00 00 00	 call	 ??6StringStream@@QAEAAV0@ABV?$basic_string@DV?$char_traits@D@_STL@@V?$allocator@D@2@@_STL@@@Z ; StringStream::operator<<
  00241	8b c8		 mov	 ecx, eax
  00243	e8 00 00 00 00	 call	 ??6StringStream@@QAEAAV0@PBD@Z ; StringStream::operator<<
  00248	8b c8		 mov	 ecx, eax
  0024a	e8 00 00 00 00	 call	 ??6StringStream@@QAEAAV0@H@Z ; StringStream::operator<<
  0024f	8b c8		 mov	 ecx, eax
  00251	e8 00 00 00 00	 call	 ??6StringStream@@QAEAAV0@PBD@Z ; StringStream::operator<<
  00256	8b c8		 mov	 ecx, eax
  00258	e8 00 00 00 00	 call	 ??6StringStream@@QAEAAV0@H@Z ; StringStream::operator<<
  0025d	8b c8		 mov	 ecx, eax
  0025f	e8 00 00 00 00	 call	 ??6StringStream@@QAEAAV0@PBD@Z ; StringStream::operator<<
  00264	8b c8		 mov	 ecx, eax
  00266	e8 00 00 00 00	 call	 ??6StringStream@@QAEAAV0@ABV?$basic_string@DV?$char_traits@D@_STL@@V?$allocator@D@2@@_STL@@@Z ; StringStream::operator<<
  0026b	8b c8		 mov	 ecx, eax
  0026d	e8 00 00 00 00	 call	 ??6StringStream@@QAEAAV0@PBD@Z ; StringStream::operator<<
  00272	8b c8		 mov	 ecx, eax
  00274	e8 00 00 00 00	 call	 ??6StringStream@@QAEAAV0@H@Z ; StringStream::operator<<
  00279	8b c8		 mov	 ecx, eax
  0027b	e8 00 00 00 00	 call	 ??6StringStream@@QAEAAV0@PBD@Z ; StringStream::operator<<
  00280	8b c8		 mov	 ecx, eax
  00282	e8 00 00 00 00	 call	 ??6StringStream@@QAEAAV0@H@Z ; StringStream::operator<<
  00287	8b c8		 mov	 ecx, eax
  00289	e8 00 00 00 00	 call	 ??6StringStream@@QAEAAV0@PBD@Z ; StringStream::operator<<
  0028e	8b c8		 mov	 ecx, eax
  00290	e8 00 00 00 00	 call	 ??6StringStream@@QAEAAV0@ABV?$basic_string@DV?$char_traits@D@_STL@@V?$allocator@D@2@@_STL@@@Z ; StringStream::operator<<
  00295	8b c8		 mov	 ecx, eax
  00297	e8 00 00 00 00	 call	 ??6StringStream@@QAEAAV0@PBD@Z ; StringStream::operator<<
  0029c	8b c8		 mov	 ecx, eax
  0029e	e8 00 00 00 00	 call	 ??6StringStream@@QAEAAV0@H@Z ; StringStream::operator<<
  002a3	8b c8		 mov	 ecx, eax
  002a5	e8 00 00 00 00	 call	 ??6StringStream@@QAEAAV0@PBD@Z ; StringStream::operator<<
  002aa	8b c8		 mov	 ecx, eax
  002ac	e8 00 00 00 00	 call	 ??6StringStream@@QAEAAV0@ABV?$basic_string@DV?$char_traits@D@_STL@@V?$allocator@D@2@@_STL@@@Z ; StringStream::operator<<
  002b1	8b c8		 mov	 ecx, eax
  002b3	e8 00 00 00 00	 call	 ??6StringStream@@QAEAAV0@PBD@Z ; StringStream::operator<<
  002b8	8b c8		 mov	 ecx, eax
  002ba	e8 00 00 00 00	 call	 ??6StringStream@@QAEAAV0@H@Z ; StringStream::operator<<
  002bf	8b c8		 mov	 ecx, eax
  002c1	e8 00 00 00 00	 call	 ??6StringStream@@QAEAAV0@PBD@Z ; StringStream::operator<<
  002c6	8b c8		 mov	 ecx, eax
  002c8	e8 00 00 00 00	 call	 ??6StringStream@@QAEAAV0@ABV?$basic_string@DV?$char_traits@D@_STL@@V?$allocator@D@2@@_STL@@@Z ; StringStream::operator<<
  002cd	8b c8		 mov	 ecx, eax
  002cf	e8 00 00 00 00	 call	 ??6StringStream@@QAEAAV0@PBD@Z ; StringStream::operator<<
  002d4	8b c8		 mov	 ecx, eax
  002d6	e8 00 00 00 00	 call	 ??6StringStream@@QAEAAV0@H@Z ; StringStream::operator<<

; 198  : 
; 199  : 	if (getMotorcycleType()!=MOTORCYCLE_NONE)

  002db	f7 07 00 80 03
	00		 test	 DWORD PTR [edi], 229376	; 00038000H
  002e1	74 19		 je	 SHORT $L100631

; 200  : 		msg << ",MotorcycleColor:" << (int)getMotorcycleColor();

  002e3	0f b7 46 32	 movzx	 eax, WORD PTR [esi+50]
  002e7	50		 push	 eax
  002e8	68 00 00 00 00	 push	 OFFSET FLAT:??_C@_0BC@KOPMOMKL@?0MotorcycleColor?3?$AA@
  002ed	8d 4d ec	 lea	 ecx, DWORD PTR _msg$[ebp]
  002f0	e8 00 00 00 00	 call	 ??6StringStream@@QAEAAV0@PBD@Z ; StringStream::operator<<
  002f5	8b c8		 mov	 ecx, eax
  002f7	e8 00 00 00 00	 call	 ??6StringStream@@QAEAAV0@H@Z ; StringStream::operator<<
$L100631:

; 201  : 
; 202  : 	msg << ",Born:" << (int)m_Born;

  002fc	0f b6 46 3a	 movzx	 eax, BYTE PTR [esi+58]
  00300	50		 push	 eax
  00301	68 00 00 00 00	 push	 OFFSET FLAT:??_C@_06JFKKGING@?0Born?3?$AA@
  00306	8d 4d ec	 lea	 ecx, DWORD PTR _msg$[ebp]
  00309	e8 00 00 00 00	 call	 ??6StringStream@@QAEAAV0@PBD@Z ; StringStream::operator<<
  0030e	8b c8		 mov	 ecx, eax
  00310	e8 00 00 00 00	 call	 ??6StringStream@@QAEAAV0@H@Z ; StringStream::operator<<

; 203  : 	msg << ",CurerntHP:" << (int)m_CurrentHP;

  00315	ff 76 3c	 push	 DWORD PTR [esi+60]
  00318	8d 4d ec	 lea	 ecx, DWORD PTR _msg$[ebp]
  0031b	68 00 00 00 00	 push	 OFFSET FLAT:??_C@_0M@NCGLLCGL@?0CurerntHP?3?$AA@
  00320	e8 00 00 00 00	 call	 ??6StringStream@@QAEAAV0@PBD@Z ; StringStream::operator<<
  00325	8b c8		 mov	 ecx, eax
  00327	e8 00 00 00 00	 call	 ??6StringStream@@QAEAAV0@H@Z ; StringStream::operator<<

; 204  : 	msg << ",MaxHP:" << (int)m_MaxHP;

  0032c	ff 76 40	 push	 DWORD PTR [esi+64]
  0032f	8d 4d ec	 lea	 ecx, DWORD PTR _msg$[ebp]
  00332	68 00 00 00 00	 push	 OFFSET FLAT:??_C@_07MGHLENM@?0MaxHP?3?$AA@
  00337	e8 00 00 00 00	 call	 ??6StringStream@@QAEAAV0@PBD@Z ; StringStream::operator<<
  0033c	8b c8		 mov	 ecx, eax
  0033e	e8 00 00 00 00	 call	 ??6StringStream@@QAEAAV0@H@Z ; StringStream::operator<<

; 205  : 	msg << ",Alignment:" << (int)m_Alignment;

  00343	ff 76 48	 push	 DWORD PTR [esi+72]
  00346	8d 4d ec	 lea	 ecx, DWORD PTR _msg$[ebp]
  00349	68 00 00 00 00	 push	 OFFSET FLAT:??_C@_0M@PMHLFOKB@?0Alignment?3?$AA@
  0034e	e8 00 00 00 00	 call	 ??6StringStream@@QAEAAV0@PBD@Z ; StringStream::operator<<
  00353	8b c8		 mov	 ecx, eax
  00355	e8 00 00 00 00	 call	 ??6StringStream@@QAEAAV0@H@Z ; StringStream::operator<<

; 206  : 	msg << ",AttackSpeed:" << (int)m_AttackSpeed;

  0035a	0f b6 46 44	 movzx	 eax, BYTE PTR [esi+68]
  0035e	50		 push	 eax
  0035f	68 00 00 00 00	 push	 OFFSET FLAT:??_C@_0O@DIHBGOLJ@?0AttackSpeed?3?$AA@
  00364	8d 4d ec	 lea	 ecx, DWORD PTR _msg$[ebp]
  00367	e8 00 00 00 00	 call	 ??6StringStream@@QAEAAV0@PBD@Z ; StringStream::operator<<
  0036c	8b c8		 mov	 ecx, eax
  0036e	e8 00 00 00 00	 call	 ??6StringStream@@QAEAAV0@H@Z ; StringStream::operator<<

; 207  : 	msg << ",Competence:" << (int)m_Competence;

  00373	0f b6 46 4c	 movzx	 eax, BYTE PTR [esi+76]
  00377	50		 push	 eax
  00378	68 00 00 00 00	 push	 OFFSET FLAT:??_C@_0N@DFBFICOF@?0Competence?3?$AA@
  0037d	8d 4d ec	 lea	 ecx, DWORD PTR _msg$[ebp]
  00380	e8 00 00 00 00	 call	 ??6StringStream@@QAEAAV0@PBD@Z ; StringStream::operator<<
  00385	8b c8		 mov	 ecx, eax
  00387	e8 00 00 00 00	 call	 ??6StringStream@@QAEAAV0@H@Z ; StringStream::operator<<

; 208  : 	msg << ",GuildID:" << (int)m_GuildID;

  0038c	0f b7 46 4e	 movzx	 eax, WORD PTR [esi+78]
  00390	50		 push	 eax
  00391	68 00 00 00 00	 push	 OFFSET FLAT:??_C@_09KONLHOKF@?0GuildID?3?$AA@
  00396	8d 4d ec	 lea	 ecx, DWORD PTR _msg$[ebp]
  00399	e8 00 00 00 00	 call	 ??6StringStream@@QAEAAV0@PBD@Z ; StringStream::operator<<
  0039e	8b c8		 mov	 ecx, eax
  003a0	e8 00 00 00 00	 call	 ??6StringStream@@QAEAAV0@H@Z ; StringStream::operator<<

; 209  : 	msg << ",Rank:" << (int)m_Rank;

  003a5	0f b6 46 54	 movzx	 eax, BYTE PTR [esi+84]
  003a9	50		 push	 eax
  003aa	68 00 00 00 00	 push	 OFFSET FLAT:??_C@_06DFEIPOOA@?0Rank?3?$AA@
  003af	8d 4d ec	 lea	 ecx, DWORD PTR _msg$[ebp]
  003b2	e8 00 00 00 00	 call	 ??6StringStream@@QAEAAV0@PBD@Z ; StringStream::operator<<
  003b7	8b c8		 mov	 ecx, eax
  003b9	e8 00 00 00 00	 call	 ??6StringStream@@QAEAAV0@H@Z ; StringStream::operator<<

; 210  : #if __CONTENTS(__CONTRIBUTE_SYSTEM)
; 211  : 	msg	<< ",ContributePoint:" << (int)m_ContributePoint;

  003be	ff 76 58	 push	 DWORD PTR [esi+88]
  003c1	8d 4d ec	 lea	 ecx, DWORD PTR _msg$[ebp]
  003c4	68 00 00 00 00	 push	 OFFSET FLAT:??_C@_0BC@JNJAFJDJ@?0ContributePoint?3?$AA@
  003c9	e8 00 00 00 00	 call	 ??6StringStream@@QAEAAV0@PBD@Z ; StringStream::operator<<
  003ce	8b c8		 mov	 ecx, eax
  003d0	e8 00 00 00 00	 call	 ??6StringStream@@QAEAAV0@H@Z ; StringStream::operator<<

; 212  : #endif //__CONTRIBUTE_SYSTEM
; 213  : #if __CONTENTS(__SECOND_TRANSFORTER)
; 214  : 	msg << ",m_MotorItemType:" << (int)m_MotorItemType;

  003d5	0f b7 46 5c	 movzx	 eax, WORD PTR [esi+92]
  003d9	50		 push	 eax
  003da	68 00 00 00 00	 push	 OFFSET FLAT:??_C@_0BC@EKBHBEAF@?0m_MotorItemType?3?$AA@
  003df	8d 4d ec	 lea	 ecx, DWORD PTR _msg$[ebp]
  003e2	e8 00 00 00 00	 call	 ??6StringStream@@QAEAAV0@PBD@Z ; StringStream::operator<<
  003e7	8b c8		 mov	 ecx, eax
  003e9	e8 00 00 00 00	 call	 ??6StringStream@@QAEAAV0@H@Z ; StringStream::operator<<

; 215  : #endif //__SECOND_TRANSFORTER
; 216  : 	msg << ")";

  003ee	68 00 00 00 00	 push	 OFFSET FLAT:??_C@_01PKGAHCOL@?$CJ?$AA@
  003f3	8d 4d ec	 lea	 ecx, DWORD PTR _msg$[ebp]
  003f6	e8 00 00 00 00	 call	 ??6StringStream@@QAEAAV0@PBD@Z ; StringStream::operator<<

; 217  : 
; 218  : 	return msg.toString();

  003fb	ff 75 08	 push	 DWORD PTR ___$ReturnUdt$[ebp]
  003fe	8d 4d ec	 lea	 ecx, DWORD PTR _msg$[ebp]
  00401	e8 00 00 00 00	 call	 ?toString@StringStream@@QBE?AV?$basic_string@DV?$char_traits@D@_STL@@V?$allocator@D@2@@_STL@@XZ ; StringStream::toString
  00406	8d 4d ec	 lea	 ecx, DWORD PTR _msg$[ebp]
  00409	e8 00 00 00 00	 call	 ??1StringStream@@QAE@XZ	; StringStream::~StringStream
  0040e	8b 45 08	 mov	 eax, DWORD PTR ___$ReturnUdt$[ebp]
  00411	5f		 pop	 edi
  00412	5e		 pop	 esi
  00413	5b		 pop	 ebx

; 219  : }

  00414	c9		 leave
  00415	c2 04 00	 ret	 4
?toString@PCSlayerInfo3@@QBE?AV?$basic_string@DV?$char_traits@D@_STL@@V?$allocator@D@2@@_STL@@XZ ENDP ; PCSlayerInfo3::toString
_TEXT	ENDS
PUBLIC	??$_M_range_initialize@PAD@?$basic_string@DV?$char_traits@D@_STL@@V?$allocator@D@2@@_STL@@AAEXPAD0@Z ; _STL::basic_string<char,_STL::char_traits<char>,_STL::allocator<char> >::_M_range_initialize<char *>
; Function compile flags: /Ogsy
; File c:\stlport-4.6.1\stlport\stl\_string.h
;	COMDAT ??$_M_range_initialize@PAD@?$basic_string@DV?$char_traits@D@_STL@@V?$allocator@D@2@@_STL@@AAEXPAD0@Z
_TEXT	SEGMENT
___f$ = 8						; size = 4
___l$ = 12						; size = 4
$T103262 = 15						; size = 1
??$_M_range_initialize@PAD@?$basic_string@DV?$char_traits@D@_STL@@V?$allocator@D@2@@_STL@@AAEXPAD0@Z PROC NEAR ; _STL::basic_string<char,_STL::char_traits<char>,_STL::allocator<char> >::_M_range_initialize<char *>, COMDAT
; _this$ = ecx

; 390  :   template <class _InputIter> void _M_range_initialize(_InputIter __f, _InputIter __l) {

  00000	55		 push	 ebp
  00001	8b ec		 mov	 ebp, esp

; 391  :     _M_range_initialize(__f, __l, _STLP_ITERATOR_CATEGORY(__f, _InputIter));

  00003	8d 45 0f	 lea	 eax, DWORD PTR $T103262[ebp]
  00006	50		 push	 eax
  00007	ff 75 0c	 push	 DWORD PTR ___l$[ebp]
  0000a	ff 75 08	 push	 DWORD PTR ___f$[ebp]
  0000d	e8 00 00 00 00	 call	 ??$_M_range_initialize@PAD@?$basic_string@DV?$char_traits@D@_STL@@V?$allocator@D@2@@_STL@@AAEXPAD0ABUforward_iterator_tag@1@@Z ; _STL::basic_string<char,_STL::char_traits<char>,_STL::allocator<char> >::_M_range_initialize<char *>

; 392  :   }

  00012	5d		 pop	 ebp
  00013	c2 08 00	 ret	 8
??$_M_range_initialize@PAD@?$basic_string@DV?$char_traits@D@_STL@@V?$allocator@D@2@@_STL@@AAEXPAD0@Z ENDP ; _STL::basic_string<char,_STL::char_traits<char>,_STL::allocator<char> >::_M_range_initialize<char *>
_TEXT	ENDS
PUBLIC	??$?6V?$char_traits@D@_STL@@@_STL@@YAAAV?$basic_ostream@DV?$char_traits@D@_STL@@@0@AAV10@PBD@Z ; _STL::operator<<<_STL::char_traits<char> >
; Function compile flags: /Ogsy
; File c:\stlport-4.6.1\stlport\stl\_ostream.h
;	COMDAT ??$?6V?$char_traits@D@_STL@@@_STL@@YAAAV?$basic_ostream@DV?$char_traits@D@_STL@@@0@AAV10@PBD@Z
_TEXT	SEGMENT
___os$ = 8						; size = 4
___s$ = 12						; size = 4
??$?6V?$char_traits@D@_STL@@@_STL@@YAAAV?$basic_ostream@DV?$char_traits@D@_STL@@@0@AAV10@PBD@Z PROC NEAR ; _STL::operator<<<_STL::char_traits<char> >, COMDAT

; 300  :   __os._M_put_nowiden(__s);

  00000	ff 74 24 08	 push	 DWORD PTR ___s$[esp-4]
  00004	8b 4c 24 08	 mov	 ecx, DWORD PTR ___os$[esp]
  00008	e8 00 00 00 00	 call	 ?_M_put_nowiden@?$basic_ostream@DV?$char_traits@D@_STL@@@_STL@@QAEXPBD@Z ; _STL::basic_ostream<char,_STL::char_traits<char> >::_M_put_nowiden

; 301  :   return __os;

  0000d	8b 44 24 04	 mov	 eax, DWORD PTR ___os$[esp-4]

; 302  : }

  00011	c3		 ret	 0
??$?6V?$char_traits@D@_STL@@@_STL@@YAAAV?$basic_ostream@DV?$char_traits@D@_STL@@@0@AAV10@PBD@Z ENDP ; _STL::operator<<<_STL::char_traits<char> >
_TEXT	ENDS
PUBLIC	??$endl@DV?$char_traits@D@_STL@@@_STL@@YAAAV?$basic_ostream@DV?$char_traits@D@_STL@@@0@AAV10@@Z ; _STL::endl<char,_STL::char_traits<char> >
; Function compile flags: /Ogsy
;	COMDAT ??$endl@DV?$char_traits@D@_STL@@@_STL@@YAAAV?$basic_ostream@DV?$char_traits@D@_STL@@@0@AAV10@@Z
_TEXT	SEGMENT
___os$ = 8						; size = 4
??$endl@DV?$char_traits@D@_STL@@@_STL@@YAAAV?$basic_ostream@DV?$char_traits@D@_STL@@@0@AAV10@@Z PROC NEAR ; _STL::endl<char,_STL::char_traits<char> >, COMDAT

; 324  : endl(basic_ostream<_CharT, _Traits>& __os) {

  00000	56		 push	 esi

; 325  :   __os.put(__os.widen('\n'));

  00001	8b 74 24 08	 mov	 esi, DWORD PTR ___os$[esp]
  00005	8b 06		 mov	 eax, DWORD PTR [esi]
  00007	8b 40 04	 mov	 eax, DWORD PTR [eax+4]
  0000a	8b 4c 30 40	 mov	 ecx, DWORD PTR [eax+esi+64]
  0000e	8b 01		 mov	 eax, DWORD PTR [ecx]
  00010	6a 0a		 push	 10			; 0000000aH
  00012	ff 50 18	 call	 DWORD PTR [eax+24]
  00015	8b ce		 mov	 ecx, esi
  00017	50		 push	 eax
  00018	e8 00 00 00 00	 call	 ?put@?$basic_ostream@DV?$char_traits@D@_STL@@@_STL@@QAEAAV12@D@Z ; _STL::basic_ostream<char,_STL::char_traits<char> >::put

; 326  :   __os.flush();

  0001d	8b ce		 mov	 ecx, esi
  0001f	e8 00 00 00 00	 call	 ?flush@?$basic_ostream@DV?$char_traits@D@_STL@@@_STL@@QAEAAV12@XZ ; _STL::basic_ostream<char,_STL::char_traits<char> >::flush

; 327  :   return __os;

  00024	8b c6		 mov	 eax, esi
  00026	5e		 pop	 esi

; 328  : }

  00027	c3		 ret	 0
??$endl@DV?$char_traits@D@_STL@@@_STL@@YAAAV?$basic_ostream@DV?$char_traits@D@_STL@@@0@AAV10@@Z ENDP ; _STL::endl<char,_STL::char_traits<char> >
_TEXT	ENDS
PUBLIC	??_G?$basic_string@DV?$char_traits@D@_STL@@V?$allocator@D@2@@_STL@@QAEPAXI@Z ; _STL::basic_string<char,_STL::char_traits<char>,_STL::allocator<char> >::`scalar deleting destructor'
; Function compile flags: /Ogsy
;	COMDAT ??_G?$basic_string@DV?$char_traits@D@_STL@@V?$allocator@D@2@@_STL@@QAEPAXI@Z
_TEXT	SEGMENT
___flags$ = 8						; size = 4
??_G?$basic_string@DV?$char_traits@D@_STL@@V?$allocator@D@2@@_STL@@QAEPAXI@Z PROC NEAR ; _STL::basic_string<char,_STL::char_traits<char>,_STL::allocator<char> >::`scalar deleting destructor', COMDAT
; _this$ = ecx
  00000	56		 push	 esi
  00001	8b f1		 mov	 esi, ecx
  00003	e8 00 00 00 00	 call	 ??1?$basic_string@DV?$char_traits@D@_STL@@V?$allocator@D@2@@_STL@@QAE@XZ ; _STL::basic_string<char,_STL::char_traits<char>,_STL::allocator<char> >::~basic_string<char,_STL::char_traits<char>,_STL::allocator<char> >
  00008	f6 44 24 08 01	 test	 BYTE PTR ___flags$[esp], 1
  0000d	74 07		 je	 SHORT $L100958
  0000f	56		 push	 esi
  00010	e8 00 00 00 00	 call	 ??3@YAXPAX@Z		; operator delete
  00015	59		 pop	 ecx
$L100958:
  00016	8b c6		 mov	 eax, esi
  00018	5e		 pop	 esi
  00019	c2 04 00	 ret	 4
??_G?$basic_string@DV?$char_traits@D@_STL@@V?$allocator@D@2@@_STL@@QAEPAXI@Z ENDP ; _STL::basic_string<char,_STL::char_traits<char>,_STL::allocator<char> >::`scalar deleting destructor'
_TEXT	ENDS
PUBLIC	??0?$basic_string@DV?$char_traits@D@_STL@@V?$allocator@D@2@@_STL@@QAE@ABV01@@Z ; _STL::basic_string<char,_STL::char_traits<char>,_STL::allocator<char> >::basic_string<char,_STL::char_traits<char>,_STL::allocator<char> >
;	COMDAT xdata$x
; File c:\stlport-4.6.1\stlport\stl\_string.h
xdata$x	SEGMENT
$T103304 DD	0ffffffffH
	DD	FLAT:$L103290
$T103302 DD	019930520H
	DD	01H
	DD	FLAT:$T103304
	DD	2 DUP(00H)
	DD	2 DUP(00H)
; Function compile flags: /Ogsy
; File c:\stlport-4.6.1\stlport\stl\_string.c
xdata$x	ENDS
;	COMDAT ??0?$basic_string@DV?$char_traits@D@_STL@@V?$allocator@D@2@@_STL@@QAE@ABV01@@Z
_TEXT	SEGMENT
_this$ = -16						; size = 4
__$EHRec$ = -12						; size = 12
___s$ = 8						; size = 4
$T103298 = 11						; size = 1
$T103289 = 11						; size = 1
??0?$basic_string@DV?$char_traits@D@_STL@@V?$allocator@D@2@@_STL@@QAE@ABV01@@Z PROC NEAR ; _STL::basic_string<char,_STL::char_traits<char>,_STL::allocator<char> >::basic_string<char,_STL::char_traits<char>,_STL::allocator<char> >, COMDAT
; _this$ = ecx

; 560  : {  

  00000	b8 00 00 00 00	 mov	 eax, __ehhandler$??0?$basic_string@DV?$char_traits@D@_STL@@V?$allocator@D@2@@_STL@@QAE@ABV01@@Z
  00005	e8 00 00 00 00	 call	 __EH_prolog
  0000a	51		 push	 ecx
  0000b	56		 push	 esi
  0000c	8b 75 08	 mov	 esi, DWORD PTR ___s$[ebp]
  0000f	57		 push	 edi
  00010	8b f9		 mov	 edi, ecx
  00012	8d 45 0b	 lea	 eax, DWORD PTR $T103289[ebp]
  00015	50		 push	 eax
  00016	8b ce		 mov	 ecx, esi
  00018	89 7d f0	 mov	 DWORD PTR _this$[ebp], edi
  0001b	e8 00 00 00 00	 call	 ?get_allocator@?$basic_string@DV?$char_traits@D@_STL@@V?$allocator@D@2@@_STL@@QBE?AV?$allocator@D@2@XZ ; _STL::basic_string<char,_STL::char_traits<char>,_STL::allocator<char> >::get_allocator
  00020	50		 push	 eax
  00021	8b cf		 mov	 ecx, edi
  00023	e8 00 00 00 00	 call	 ??0?$_String_base@DV?$allocator@D@_STL@@@_STL@@QAE@ABV?$allocator@D@1@@Z ; _STL::_String_base<char,_STL::allocator<char> >::_String_base<char,_STL::allocator<char> >
  00028	83 65 fc 00	 and	 DWORD PTR __$EHRec$[ebp+8], 0

; 561  :   _M_range_initialize(__s._M_start, __s._M_finish);  

  0002c	8d 45 0b	 lea	 eax, DWORD PTR $T103298[ebp]
  0002f	50		 push	 eax
  00030	ff 76 04	 push	 DWORD PTR [esi+4]
  00033	8b cf		 mov	 ecx, edi
  00035	ff 36		 push	 DWORD PTR [esi]
  00037	e8 00 00 00 00	 call	 ??$_M_range_initialize@PAD@?$basic_string@DV?$char_traits@D@_STL@@V?$allocator@D@2@@_STL@@AAEXPAD0ABUforward_iterator_tag@1@@Z ; _STL::basic_string<char,_STL::char_traits<char>,_STL::allocator<char> >::_M_range_initialize<char *>

; 562  : } 

  0003c	8b 4d f4	 mov	 ecx, DWORD PTR __$EHRec$[ebp]
  0003f	8b c7		 mov	 eax, edi
  00041	5f		 pop	 edi
  00042	5e		 pop	 esi
  00043	64 89 0d 00 00
	00 00		 mov	 DWORD PTR fs:__except_list, ecx
  0004a	c9		 leave
  0004b	c2 04 00	 ret	 4
_TEXT	ENDS
;	COMDAT text$x
text$x	SEGMENT
$L103290:
  00000	8b 4d f0	 mov	 ecx, DWORD PTR _this$[ebp]
  00003	e9 00 00 00 00	 jmp	 ??1?$_String_base@DV?$allocator@D@_STL@@@_STL@@QAE@XZ ; _STL::_String_base<char,_STL::allocator<char> >::~_String_base<char,_STL::allocator<char> >
__ehhandler$??0?$basic_string@DV?$char_traits@D@_STL@@V?$allocator@D@2@@_STL@@QAE@ABV01@@Z:
  00008	b8 00 00 00 00	 mov	 eax, OFFSET FLAT:$T103302
  0000d	e9 00 00 00 00	 jmp	 ___CxxFrameHandler
text$x	ENDS
??0?$basic_string@DV?$char_traits@D@_STL@@V?$allocator@D@2@@_STL@@QAE@ABV01@@Z ENDP ; _STL::basic_string<char,_STL::char_traits<char>,_STL::allocator<char> >::basic_string<char,_STL::char_traits<char>,_STL::allocator<char> >
PUBLIC	??$_Construct@V?$basic_string@DV?$char_traits@D@_STL@@V?$allocator@D@2@@_STL@@V12@@_STL@@YAXPAV?$basic_string@DV?$char_traits@D@_STL@@V?$allocator@D@2@@0@ABV10@@Z ; _STL::_Construct<_STL::basic_string<char,_STL::char_traits<char>,_STL::allocator<char> >,_STL::basic_string<char,_STL::char_traits<char>,_STL::allocator<char> > >
;	COMDAT xdata$x
; File c:\program files\microsoft visual studio .net 2003\vc7\include\new
xdata$x	SEGMENT
$T103320 DD	0ffffffffH
	DD	FLAT:$L103313
$T103318 DD	019930520H
	DD	01H
	DD	FLAT:$T103320
	DD	2 DUP(00H)
	DD	2 DUP(00H)
; Function compile flags: /Ogsy
; File c:\stlport-4.6.1\stlport\stl\_construct.h
xdata$x	ENDS
;	COMDAT ??$_Construct@V?$basic_string@DV?$char_traits@D@_STL@@V?$allocator@D@2@@_STL@@V12@@_STL@@YAXPAV?$basic_string@DV?$char_traits@D@_STL@@V?$allocator@D@2@@0@ABV10@@Z
_TEXT	SEGMENT
$T103310 = -16						; size = 4
__$EHRec$ = -12						; size = 12
___p$ = 8						; size = 4
___val$ = 12						; size = 4
??$_Construct@V?$basic_string@DV?$char_traits@D@_STL@@V?$allocator@D@2@@_STL@@V12@@_STL@@YAXPAV?$basic_string@DV?$char_traits@D@_STL@@V?$allocator@D@2@@0@ABV10@@Z PROC NEAR ; _STL::_Construct<_STL::basic_string<char,_STL::char_traits<char>,_STL::allocator<char> >,_STL::basic_string<char,_STL::char_traits<char>,_STL::allocator<char> > >, COMDAT

; 93   : inline void _Construct(_T1* __p, const _T2& __val) {

  00000	b8 00 00 00 00	 mov	 eax, __ehhandler$??$_Construct@V?$basic_string@DV?$char_traits@D@_STL@@V?$allocator@D@2@@_STL@@V12@@_STL@@YAXPAV?$basic_string@DV?$char_traits@D@_STL@@V?$allocator@D@2@@0@ABV10@@Z
  00005	e8 00 00 00 00	 call	 __EH_prolog
  0000a	51		 push	 ecx

; 94   : # ifdef _STLP_DEBUG_UNINITIALIZED
; 95   : 	memset((char*)__p, _STLP_SHRED_BYTE, sizeof(_T1));
; 96   : # endif
; 97   :     _STLP_PLACEMENT_NEW (__p) _T1(__val);

  0000b	8b 4d 08	 mov	 ecx, DWORD PTR ___p$[ebp]
  0000e	89 4d f0	 mov	 DWORD PTR $T103310[ebp], ecx
  00011	83 65 fc 00	 and	 DWORD PTR __$EHRec$[ebp+8], 0
  00015	85 c9		 test	 ecx, ecx
  00017	74 08		 je	 SHORT $L103311
  00019	ff 75 0c	 push	 DWORD PTR ___val$[ebp]
  0001c	e8 00 00 00 00	 call	 ??0?$basic_string@DV?$char_traits@D@_STL@@V?$allocator@D@2@@_STL@@QAE@ABV01@@Z ; _STL::basic_string<char,_STL::char_traits<char>,_STL::allocator<char> >::basic_string<char,_STL::char_traits<char>,_STL::allocator<char> >
$L103311:

; 98   : }

  00021	8b 4d f4	 mov	 ecx, DWORD PTR __$EHRec$[ebp]
  00024	64 89 0d 00 00
	00 00		 mov	 DWORD PTR fs:__except_list, ecx
  0002b	c9		 leave
  0002c	c3		 ret	 0
_TEXT	ENDS
;	COMDAT text$x
text$x	SEGMENT
$L103313:
  00000	ff 75 08	 push	 DWORD PTR ___p$[ebp]
  00003	ff 75 f0	 push	 DWORD PTR $T103310[ebp]
  00006	e8 00 00 00 00	 call	 ??3@YAXPAX0@Z		; operator delete
  0000b	59		 pop	 ecx
  0000c	59		 pop	 ecx
  0000d	c3		 ret	 0
__ehhandler$??$_Construct@V?$basic_string@DV?$char_traits@D@_STL@@V?$allocator@D@2@@_STL@@V12@@_STL@@YAXPAV?$basic_string@DV?$char_traits@D@_STL@@V?$allocator@D@2@@0@ABV10@@Z:
  0000e	b8 00 00 00 00	 mov	 eax, OFFSET FLAT:$T103318
  00013	e9 00 00 00 00	 jmp	 ___CxxFrameHandler
text$x	ENDS
??$_Construct@V?$basic_string@DV?$char_traits@D@_STL@@V?$allocator@D@2@@_STL@@V12@@_STL@@YAXPAV?$basic_string@DV?$char_traits@D@_STL@@V?$allocator@D@2@@0@ABV10@@Z ENDP ; _STL::_Construct<_STL::basic_string<char,_STL::char_traits<char>,_STL::allocator<char> >,_STL::basic_string<char,_STL::char_traits<char>,_STL::allocator<char> > >
PUBLIC	??$_Destroy@V?$basic_string@DV?$char_traits@D@_STL@@V?$allocator@D@2@@_STL@@@_STL@@YAXPAV?$basic_string@DV?$char_traits@D@_STL@@V?$allocator@D@2@@0@@Z ; _STL::_Destroy<_STL::basic_string<char,_STL::char_traits<char>,_STL::allocator<char> > >
; Function compile flags: /Ogsy
;	COMDAT ??$_Destroy@V?$basic_string@DV?$char_traits@D@_STL@@V?$allocator@D@2@@_STL@@@_STL@@YAXPAV?$basic_string@DV?$char_traits@D@_STL@@V?$allocator@D@2@@0@@Z
_TEXT	SEGMENT
___pointer$ = 8						; size = 4
??$_Destroy@V?$basic_string@DV?$char_traits@D@_STL@@V?$allocator@D@2@@_STL@@@_STL@@YAXPAV?$basic_string@DV?$char_traits@D@_STL@@V?$allocator@D@2@@0@@Z PROC NEAR ; _STL::_Destroy<_STL::basic_string<char,_STL::char_traits<char>,_STL::allocator<char> > >, COMDAT

; 57   : # if _MSC_VER >= 1010
; 58   :   __pointer;
; 59   : # endif	// _MSC_VER >= 1000
; 60   : # ifdef _STLP_TRIVIAL_DESTRUCTOR_BUG
; 61   :   typedef typename __type_traits<_Tp>::has_trivial_destructor _Trivial_destructor;
; 62   :   __destroy_aux(__pointer, _Trivial_destructor());
; 63   : # else
; 64   : #  if ( defined (__BORLANDC__) && ( __BORLANDC__ < 0x500 ) )
; 65   :     __pointer->_Tp::~_Tp();
; 66   : #  else
; 67   :     __pointer->~_Tp();

  00000	8b 4c 24 04	 mov	 ecx, DWORD PTR ___pointer$[esp-4]
  00004	e9 00 00 00 00	 jmp	 ??1?$basic_string@DV?$char_traits@D@_STL@@V?$allocator@D@2@@_STL@@QAE@XZ ; _STL::basic_string<char,_STL::char_traits<char>,_STL::allocator<char> >::~basic_string<char,_STL::char_traits<char>,_STL::allocator<char> >
??$_Destroy@V?$basic_string@DV?$char_traits@D@_STL@@V?$allocator@D@2@@_STL@@@_STL@@YAXPAV?$basic_string@DV?$char_traits@D@_STL@@V?$allocator@D@2@@0@@Z ENDP ; _STL::_Destroy<_STL::basic_string<char,_STL::char_traits<char>,_STL::allocator<char> > >
_TEXT	ENDS
PUBLIC	?_M_create_node@?$list@V?$basic_string@DV?$char_traits@D@_STL@@V?$allocator@D@2@@_STL@@V?$allocator@V?$basic_string@DV?$char_traits@D@_STL@@V?$allocator@D@2@@_STL@@@2@@_STL@@IAEPAU?$_List_node@V?$basic_string@DV?$char_traits@D@_STL@@V?$allocator@D@2@@_STL@@@2@ABV?$basic_string@DV?$char_traits@D@_STL@@V?$allocator@D@2@@2@@Z ; _STL::list<_STL::basic_string<char,_STL::char_traits<char>,_STL::allocator<char> >,_STL::allocator<_STL::basic_string<char,_STL::char_traits<char>,_STL::allocator<char> > > >::_M_create_node
;	COMDAT xdata$x
; File c:\stlport-4.6.1\stlport\stl\_alloc.h
xdata$x	SEGMENT
$T103345 DD	0ffffffffH
	DD	00H
	DD	0ffffffffH
	DD	00H
$T103347 DD	00H
	DD	00H
	DD	00H
	DD	FLAT:$L103333
$T103346 DD	00H
	DD	00H
	DD	01H
	DD	01H
	DD	FLAT:$T103347
$T103342 DD	019930520H
	DD	02H
	DD	FLAT:$T103345
	DD	01H
	DD	FLAT:$T103346
	DD	2 DUP(00H)
; Function compile flags: /Ogsy
; File c:\stlport-4.6.1\stlport\stl\_list.h
xdata$x	ENDS
;	COMDAT ?_M_create_node@?$list@V?$basic_string@DV?$char_traits@D@_STL@@V?$allocator@D@2@@_STL@@V?$allocator@V?$basic_string@DV?$char_traits@D@_STL@@V?$allocator@D@2@@_STL@@@2@@_STL@@IAEPAU?$_List_node@V?$basic_string@DV?$char_traits@D@_STL@@V?$allocator@D@2@@_STL@@@2@ABV?$basic_string@DV?$char_traits@D@_STL@@V?$allocator@D@2@@2@@Z
_TEXT	SEGMENT
_this$ = -24						; size = 4
___p$ = -20						; size = 4
__$EHRec$ = -16						; size = 16
___x$ = 8						; size = 4
?_M_create_node@?$list@V?$basic_string@DV?$char_traits@D@_STL@@V?$allocator@D@2@@_STL@@V?$allocator@V?$basic_string@DV?$char_traits@D@_STL@@V?$allocator@D@2@@_STL@@@2@@_STL@@IAEPAU?$_List_node@V?$basic_string@DV?$char_traits@D@_STL@@V?$allocator@D@2@@_STL@@@2@ABV?$basic_string@DV?$char_traits@D@_STL@@V?$allocator@D@2@@2@@Z PROC NEAR ; _STL::list<_STL::basic_string<char,_STL::char_traits<char>,_STL::allocator<char> >,_STL::allocator<_STL::basic_string<char,_STL::char_traits<char>,_STL::allocator<char> > > >::_M_create_node, COMDAT
; _this$ = ecx

; 240  :   {

  00000	b8 00 00 00 00	 mov	 eax, __ehhandler$?_M_create_node@?$list@V?$basic_string@DV?$char_traits@D@_STL@@V?$allocator@D@2@@_STL@@V?$allocator@V?$basic_string@DV?$char_traits@D@_STL@@V?$allocator@D@2@@_STL@@@2@@_STL@@IAEPAU?$_List_node@V?$basic_string@DV?$char_traits@D@_STL@@V?$allocator@D@2@@_STL@@@2@ABV?$basic_string@DV?$char_traits@D@_STL@@V?$allocator@D@2@@2@@Z
  00005	e8 00 00 00 00	 call	 __EH_prolog
  0000a	83 ec 0c	 sub	 esp, 12			; 0000000cH
  0000d	53		 push	 ebx
  0000e	56		 push	 esi
  0000f	57		 push	 edi
  00010	89 65 f0	 mov	 DWORD PTR __$EHRec$[ebp], esp

; 241  :     _Node* __p = this->_M_node.allocate(1);

  00013	6a 14		 push	 20			; 00000014H
  00015	89 4d e8	 mov	 DWORD PTR _this$[ebp], ecx
  00018	e8 00 00 00 00	 call	 ?allocate@?$__node_alloc@$00$0A@@_STL@@SAPAXI@Z ; _STL::__node_alloc<1,0>::allocate

; 242  :     _STLP_TRY {
; 243  :       _Construct(&__p->_M_data, __x);

  0001d	ff 75 08	 push	 DWORD PTR ___x$[ebp]
  00020	83 65 fc 00	 and	 DWORD PTR __$EHRec$[ebp+12], 0
  00024	8b f0		 mov	 esi, eax
  00026	8d 46 08	 lea	 eax, DWORD PTR [esi+8]
  00029	50		 push	 eax
  0002a	89 75 ec	 mov	 DWORD PTR ___p$[ebp], esi
  0002d	e8 00 00 00 00	 call	 ??$_Construct@V?$basic_string@DV?$char_traits@D@_STL@@V?$allocator@D@2@@_STL@@V12@@_STL@@YAXPAV?$basic_string@DV?$char_traits@D@_STL@@V?$allocator@D@2@@0@ABV10@@Z ; _STL::_Construct<_STL::basic_string<char,_STL::char_traits<char>,_STL::allocator<char> >,_STL::basic_string<char,_STL::char_traits<char>,_STL::allocator<char> > >

; 246  :     return __p;
; 247  :   }

  00032	8b 4d f4	 mov	 ecx, DWORD PTR __$EHRec$[ebp+4]
  00035	83 c4 0c	 add	 esp, 12			; 0000000cH
  00038	5f		 pop	 edi
  00039	8b c6		 mov	 eax, esi
  0003b	5e		 pop	 esi
  0003c	64 89 0d 00 00
	00 00		 mov	 DWORD PTR fs:__except_list, ecx
  00043	5b		 pop	 ebx
  00044	c9		 leave
  00045	c2 04 00	 ret	 4
$L103333:

; 244  :     }
; 245  :     _STLP_UNWIND(this->_M_node.deallocate(__p, 1));

  00048	8b 4d e8	 mov	 ecx, DWORD PTR _this$[ebp]
  0004b	6a 01		 push	 1
  0004d	ff 75 ec	 push	 DWORD PTR ___p$[ebp]
  00050	e8 00 00 00 00	 call	 ?deallocate@?$allocator@U?$_List_node@V?$basic_string@DV?$char_traits@D@_STL@@V?$allocator@D@2@@_STL@@@_STL@@@_STL@@QAEXPAU?$_List_node@V?$basic_string@DV?$char_traits@D@_STL@@V?$allocator@D@2@@_STL@@@2@I@Z ; _STL::allocator<_STL::_List_node<_STL::basic_string<char,_STL::char_traits<char>,_STL::allocator<char> > > >::deallocate
  00055	6a 00		 push	 0
  00057	6a 00		 push	 0
  00059	e8 00 00 00 00	 call	 __CxxThrowException@8
$L103348:
$L103344:
  0005e	cc		 int	 3
_TEXT	ENDS
;	COMDAT text$x
text$x	SEGMENT
__ehhandler$?_M_create_node@?$list@V?$basic_string@DV?$char_traits@D@_STL@@V?$allocator@D@2@@_STL@@V?$allocator@V?$basic_string@DV?$char_traits@D@_STL@@V?$allocator@D@2@@_STL@@@2@@_STL@@IAEPAU?$_List_node@V?$basic_string@DV?$char_traits@D@_STL@@V?$allocator@D@2@@_STL@@@2@ABV?$basic_string@DV?$char_traits@D@_STL@@V?$allocator@D@2@@2@@Z:
  00000	b8 00 00 00 00	 mov	 eax, OFFSET FLAT:$T103342
  00005	e9 00 00 00 00	 jmp	 ___CxxFrameHandler
text$x	ENDS
?_M_create_node@?$list@V?$basic_string@DV?$char_traits@D@_STL@@V?$allocator@D@2@@_STL@@V?$allocator@V?$basic_string@DV?$char_traits@D@_STL@@V?$allocator@D@2@@_STL@@@2@@_STL@@IAEPAU?$_List_node@V?$basic_string@DV?$char_traits@D@_STL@@V?$allocator@D@2@@_STL@@@2@ABV?$basic_string@DV?$char_traits@D@_STL@@V?$allocator@D@2@@2@@Z ENDP ; _STL::list<_STL::basic_string<char,_STL::char_traits<char>,_STL::allocator<char> >,_STL::allocator<_STL::basic_string<char,_STL::char_traits<char>,_STL::allocator<char> > > >::_M_create_node
PUBLIC	?clear@?$_List_base@V?$basic_string@DV?$char_traits@D@_STL@@V?$allocator@D@2@@_STL@@V?$allocator@V?$basic_string@DV?$char_traits@D@_STL@@V?$allocator@D@2@@_STL@@@2@@_STL@@QAEXXZ ; _STL::_List_base<_STL::basic_string<char,_STL::char_traits<char>,_STL::allocator<char> >,_STL::allocator<_STL::basic_string<char,_STL::char_traits<char>,_STL::allocator<char> > > >::clear
; Function compile flags: /Ogsy
; File c:\stlport-4.6.1\stlport\stl\_list.c
;	COMDAT ?clear@?$_List_base@V?$basic_string@DV?$char_traits@D@_STL@@V?$allocator@D@2@@_STL@@V?$allocator@V?$basic_string@DV?$char_traits@D@_STL@@V?$allocator@D@2@@_STL@@@2@@_STL@@QAEXXZ
_TEXT	SEGMENT
?clear@?$_List_base@V?$basic_string@DV?$char_traits@D@_STL@@V?$allocator@D@2@@_STL@@V?$allocator@V?$basic_string@DV?$char_traits@D@_STL@@V?$allocator@D@2@@_STL@@@2@@_STL@@QAEXXZ PROC NEAR ; _STL::_List_base<_STL::basic_string<char,_STL::char_traits<char>,_STL::allocator<char> >,_STL::allocator<_STL::basic_string<char,_STL::char_traits<char>,_STL::allocator<char> > > >::clear, COMDAT
; _this$ = ecx

; 68   : {

  00000	56		 push	 esi
  00001	57		 push	 edi
  00002	8b f9		 mov	 edi, ecx

; 69   :   _List_node<_Tp>* __cur = (_List_node<_Tp>*) this->_M_node._M_data->_M_next;

  00004	8b 07		 mov	 eax, DWORD PTR [edi]
  00006	8b 30		 mov	 esi, DWORD PTR [eax]

; 70   :   while (__cur != this->_M_node._M_data) {

  00008	3b f0		 cmp	 esi, eax
  0000a	74 1c		 je	 SHORT $L98971
  0000c	53		 push	 ebx
$L98970:

; 71   :     _List_node<_Tp>* __tmp = __cur;

  0000d	8b de		 mov	 ebx, esi

; 72   :     __cur = (_List_node<_Tp>*) __cur->_M_next;

  0000f	8b 36		 mov	 esi, DWORD PTR [esi]

; 73   :     _STLP_STD::_Destroy(&__tmp->_M_data);

  00011	8d 4b 08	 lea	 ecx, DWORD PTR [ebx+8]
  00014	e8 00 00 00 00	 call	 ??1?$basic_string@DV?$char_traits@D@_STL@@V?$allocator@D@2@@_STL@@QAE@XZ ; _STL::basic_string<char,_STL::char_traits<char>,_STL::allocator<char> >::~basic_string<char,_STL::char_traits<char>,_STL::allocator<char> >

; 74   :     this->_M_node.deallocate(__tmp, 1);

  00019	6a 01		 push	 1
  0001b	53		 push	 ebx
  0001c	8b cf		 mov	 ecx, edi
  0001e	e8 00 00 00 00	 call	 ?deallocate@?$allocator@U?$_List_node@V?$basic_string@DV?$char_traits@D@_STL@@V?$allocator@D@2@@_STL@@@_STL@@@_STL@@QAEXPAU?$_List_node@V?$basic_string@DV?$char_traits@D@_STL@@V?$allocator@D@2@@_STL@@@2@I@Z ; _STL::allocator<_STL::_List_node<_STL::basic_string<char,_STL::char_traits<char>,_STL::allocator<char> > > >::deallocate
  00023	3b 37		 cmp	 esi, DWORD PTR [edi]
  00025	75 e6		 jne	 SHORT $L98970
  00027	5b		 pop	 ebx
$L98971:

; 75   :   }
; 76   :   this->_M_node._M_data->_M_next = this->_M_node._M_data;

  00028	8b 07		 mov	 eax, DWORD PTR [edi]
  0002a	89 00		 mov	 DWORD PTR [eax], eax

; 77   :   this->_M_node._M_data->_M_prev = this->_M_node._M_data;

  0002c	8b 3f		 mov	 edi, DWORD PTR [edi]
  0002e	89 7f 04	 mov	 DWORD PTR [edi+4], edi
  00031	5f		 pop	 edi
  00032	5e		 pop	 esi

; 78   : }

  00033	c3		 ret	 0
?clear@?$_List_base@V?$basic_string@DV?$char_traits@D@_STL@@V?$allocator@D@2@@_STL@@V?$allocator@V?$basic_string@DV?$char_traits@D@_STL@@V?$allocator@D@2@@_STL@@@2@@_STL@@QAEXXZ ENDP ; _STL::_List_base<_STL::basic_string<char,_STL::char_traits<char>,_STL::allocator<char> >,_STL::allocator<_STL::basic_string<char,_STL::char_traits<char>,_STL::allocator<char> > > >::clear
_TEXT	ENDS
PUBLIC	?insert@?$list@V?$basic_string@DV?$char_traits@D@_STL@@V?$allocator@D@2@@_STL@@V?$allocator@V?$basic_string@DV?$char_traits@D@_STL@@V?$allocator@D@2@@_STL@@@2@@_STL@@QAE?AU?$_List_iterator@V?$basic_string@DV?$char_traits@D@_STL@@V?$allocator@D@2@@_STL@@U?$_Nonconst_traits@V?$basic_string@DV?$char_traits@D@_STL@@V?$allocator@D@2@@_STL@@@2@@2@U32@ABV?$basic_string@DV?$char_traits@D@_STL@@V?$allocator@D@2@@2@@Z ; _STL::list<_STL::basic_string<char,_STL::char_traits<char>,_STL::allocator<char> >,_STL::allocator<_STL::basic_string<char,_STL::char_traits<char>,_STL::allocator<char> > > >::insert
; Function compile flags: /Ogsy
; File c:\stlport-4.6.1\stlport\stl\_list.h
;	COMDAT ?insert@?$list@V?$basic_string@DV?$char_traits@D@_STL@@V?$allocator@D@2@@_STL@@V?$allocator@V?$basic_string@DV?$char_traits@D@_STL@@V?$allocator@D@2@@_STL@@@2@@_STL@@QAE?AU?$_List_iterator@V?$basic_string@DV?$char_traits@D@_STL@@V?$allocator@D@2@@_STL@@U?$_Nonconst_traits@V?$basic_string@DV?$char_traits@D@_STL@@V?$allocator@D@2@@_STL@@@2@@2@U32@ABV?$basic_string@DV?$char_traits@D@_STL@@V?$allocator@D@2@@2@@Z
_TEXT	SEGMENT
___$ReturnUdt$ = 8					; size = 4
___position$ = 12					; size = 4
___x$ = 16						; size = 4
?insert@?$list@V?$basic_string@DV?$char_traits@D@_STL@@V?$allocator@D@2@@_STL@@V?$allocator@V?$basic_string@DV?$char_traits@D@_STL@@V?$allocator@D@2@@_STL@@@2@@_STL@@QAE?AU?$_List_iterator@V?$basic_string@DV?$char_traits@D@_STL@@V?$allocator@D@2@@_STL@@U?$_Nonconst_traits@V?$basic_string@DV?$char_traits@D@_STL@@V?$allocator@D@2@@_STL@@@2@@2@U32@ABV?$basic_string@DV?$char_traits@D@_STL@@V?$allocator@D@2@@2@@Z PROC NEAR ; _STL::list<_STL::basic_string<char,_STL::char_traits<char>,_STL::allocator<char> >,_STL::allocator<_STL::basic_string<char,_STL::char_traits<char>,_STL::allocator<char> > > >::insert, COMDAT
; _this$ = ecx

; 299  : 
; 300  :     _Node* __tmp = _M_create_node(__x);

  00000	ff 74 24 0c	 push	 DWORD PTR ___x$[esp-4]
  00004	e8 00 00 00 00	 call	 ?_M_create_node@?$list@V?$basic_string@DV?$char_traits@D@_STL@@V?$allocator@D@2@@_STL@@V?$allocator@V?$basic_string@DV?$char_traits@D@_STL@@V?$allocator@D@2@@_STL@@@2@@_STL@@IAEPAU?$_List_node@V?$basic_string@DV?$char_traits@D@_STL@@V?$allocator@D@2@@_STL@@@2@ABV?$basic_string@DV?$char_traits@D@_STL@@V?$allocator@D@2@@2@@Z ; _STL::list<_STL::basic_string<char,_STL::char_traits<char>,_STL::allocator<char> >,_STL::allocator<_STL::basic_string<char,_STL::char_traits<char>,_STL::allocator<char> > > >::_M_create_node

; 301  :     _List_node_base* __n = __position._M_node;
; 302  :     _List_node_base* __p = __n->_M_prev;

  00009	8b 4c 24 08	 mov	 ecx, DWORD PTR ___position$[esp-4]
  0000d	8b 51 04	 mov	 edx, DWORD PTR [ecx+4]

; 303  :     __tmp->_M_next = __n;

  00010	89 08		 mov	 DWORD PTR [eax], ecx

; 304  :     __tmp->_M_prev = __p;

  00012	89 50 04	 mov	 DWORD PTR [eax+4], edx

; 305  :     __p->_M_next = __tmp;

  00015	89 02		 mov	 DWORD PTR [edx], eax

; 306  :     __n->_M_prev = __tmp;

  00017	89 41 04	 mov	 DWORD PTR [ecx+4], eax

; 307  :     return __tmp;

  0001a	8b 4c 24 04	 mov	 ecx, DWORD PTR ___$ReturnUdt$[esp-4]
  0001e	89 01		 mov	 DWORD PTR [ecx], eax
  00020	8b c1		 mov	 eax, ecx

; 308  :   }

  00022	c2 0c 00	 ret	 12			; 0000000cH
?insert@?$list@V?$basic_string@DV?$char_traits@D@_STL@@V?$allocator@D@2@@_STL@@V?$allocator@V?$basic_string@DV?$char_traits@D@_STL@@V?$allocator@D@2@@_STL@@@2@@_STL@@QAE?AU?$_List_iterator@V?$basic_string@DV?$char_traits@D@_STL@@V?$allocator@D@2@@_STL@@U?$_Nonconst_traits@V?$basic_string@DV?$char_traits@D@_STL@@V?$allocator@D@2@@_STL@@@2@@2@U32@ABV?$basic_string@DV?$char_traits@D@_STL@@V?$allocator@D@2@@2@@Z ENDP ; _STL::list<_STL::basic_string<char,_STL::char_traits<char>,_STL::allocator<char> >,_STL::allocator<_STL::basic_string<char,_STL::char_traits<char>,_STL::allocator<char> > > >::insert
_TEXT	ENDS
PUBLIC	??1?$_List_base@V?$basic_string@DV?$char_traits@D@_STL@@V?$allocator@D@2@@_STL@@V?$allocator@V?$basic_string@DV?$char_traits@D@_STL@@V?$allocator@D@2@@_STL@@@2@@_STL@@QAE@XZ ; _STL::_List_base<_STL::basic_string<char,_STL::char_traits<char>,_STL::allocator<char> >,_STL::allocator<_STL::basic_string<char,_STL::char_traits<char>,_STL::allocator<char> > > >::~_List_base<_STL::basic_string<char,_STL::char_traits<char>,_STL::allocator<char> >,_STL::allocator<_STL::basic_string<char,_STL::char_traits<char>,_STL::allocator<char> > > >
; Function compile flags: /Ogsy
;	COMDAT ??1?$_List_base@V?$basic_string@DV?$char_traits@D@_STL@@V?$allocator@D@2@@_STL@@V?$allocator@V?$basic_string@DV?$char_traits@D@_STL@@V?$allocator@D@2@@_STL@@@2@@_STL@@QAE@XZ
_TEXT	SEGMENT
??1?$_List_base@V?$basic_string@DV?$char_traits@D@_STL@@V?$allocator@D@2@@_STL@@V?$allocator@V?$basic_string@DV?$char_traits@D@_STL@@V?$allocator@D@2@@_STL@@@2@@_STL@@QAE@XZ PROC NEAR ; _STL::_List_base<_STL::basic_string<char,_STL::char_traits<char>,_STL::allocator<char> >,_STL::allocator<_STL::basic_string<char,_STL::char_traits<char>,_STL::allocator<char> > > >::~_List_base<_STL::basic_string<char,_STL::char_traits<char>,_STL::allocator<char> >,_STL::allocator<_STL::basic_string<char,_STL::char_traits<char>,_STL::allocator<char> > > >, COMDAT
; _this$ = ecx

; 188  :   ~_List_base() {

  00000	56		 push	 esi
  00001	8b f1		 mov	 esi, ecx

; 189  :     clear();

  00003	e8 00 00 00 00	 call	 ?clear@?$_List_base@V?$basic_string@DV?$char_traits@D@_STL@@V?$allocator@D@2@@_STL@@V?$allocator@V?$basic_string@DV?$char_traits@D@_STL@@V?$allocator@D@2@@_STL@@@2@@_STL@@QAEXXZ ; _STL::_List_base<_STL::basic_string<char,_STL::char_traits<char>,_STL::allocator<char> >,_STL::allocator<_STL::basic_string<char,_STL::char_traits<char>,_STL::allocator<char> > > >::clear

; 190  :     _M_node.deallocate(_M_node._M_data, 1);

  00008	6a 01		 push	 1
  0000a	ff 36		 push	 DWORD PTR [esi]
  0000c	8b ce		 mov	 ecx, esi
  0000e	e8 00 00 00 00	 call	 ?deallocate@?$allocator@U?$_List_node@V?$basic_string@DV?$char_traits@D@_STL@@V?$allocator@D@2@@_STL@@@_STL@@@_STL@@QAEXPAU?$_List_node@V?$basic_string@DV?$char_traits@D@_STL@@V?$allocator@D@2@@_STL@@@2@I@Z ; _STL::allocator<_STL::_List_node<_STL::basic_string<char,_STL::char_traits<char>,_STL::allocator<char> > > >::deallocate
  00013	5e		 pop	 esi

; 191  :   }

  00014	c3		 ret	 0
??1?$_List_base@V?$basic_string@DV?$char_traits@D@_STL@@V?$allocator@D@2@@_STL@@V?$allocator@V?$basic_string@DV?$char_traits@D@_STL@@V?$allocator@D@2@@_STL@@@2@@_STL@@QAE@XZ ENDP ; _STL::_List_base<_STL::basic_string<char,_STL::char_traits<char>,_STL::allocator<char> >,_STL::allocator<_STL::basic_string<char,_STL::char_traits<char>,_STL::allocator<char> > > >::~_List_base<_STL::basic_string<char,_STL::char_traits<char>,_STL::allocator<char> >,_STL::allocator<_STL::basic_string<char,_STL::char_traits<char>,_STL::allocator<char> > > >
_TEXT	ENDS
PUBLIC	??$_M_insert_dispatch@U?$_List_iterator@V?$basic_string@DV?$char_traits@D@_STL@@V?$allocator@D@2@@_STL@@U?$_Const_traits@V?$basic_string@DV?$char_traits@D@_STL@@V?$allocator@D@2@@_STL@@@2@@_STL@@@?$list@V?$basic_string@DV?$char_traits@D@_STL@@V?$allocator@D@2@@_STL@@V?$allocator@V?$basic_string@DV?$char_traits@D@_STL@@V?$allocator@D@2@@_STL@@@2@@_STL@@QAEXU?$_List_iterator@V?$basic_string@DV?$char_traits@D@_STL@@V?$allocator@D@2@@_STL@@U?$_Nonconst_traits@V?$basic_string@DV?$char_traits@D@_STL@@V?$allocator@D@2@@_STL@@@2@@1@U?$_List_iterator@V?$basic_string@DV?$char_traits@D@_STL@@V?$allocator@D@2@@_STL@@U?$_Const_traits@V?$basic_string@DV?$char_traits@D@_STL@@V?$allocator@D@2@@_STL@@@2@@1@1ABU__false_type@1@@Z ; _STL::list<_STL::basic_string<char,_STL::char_traits<char>,_STL::allocator<char> >,_STL::allocator<_STL::basic_string<char,_STL::char_traits<char>,_STL::allocator<char> > > >::_M_insert_dispatch<_STL::_List_iterator<_STL::basic_string<char,_STL::char_traits<char>,_STL::allocator<char> >,_STL::_Const_traits<_STL::basic_string<char,_STL::char_traits<char>,_STL::allocator<char> > > > >
; Function compile flags: /Ogsy
;	COMDAT ??$_M_insert_dispatch@U?$_List_iterator@V?$basic_string@DV?$char_traits@D@_STL@@V?$allocator@D@2@@_STL@@U?$_Const_traits@V?$basic_string@DV?$char_traits@D@_STL@@V?$allocator@D@2@@_STL@@@2@@_STL@@@?$list@V?$basic_string@DV?$char_traits@D@_STL@@V?$allocator@D@2@@_STL@@V?$allocator@V?$basic_string@DV?$char_traits@D@_STL@@V?$allocator@D@2@@_STL@@@2@@_STL@@QAEXU?$_List_iterator@V?$basic_string@DV?$char_traits@D@_STL@@V?$allocator@D@2@@_STL@@U?$_Nonconst_traits@V?$basic_string@DV?$char_traits@D@_STL@@V?$allocator@D@2@@_STL@@@2@@1@U?$_List_iterator@V?$basic_string@DV?$char_traits@D@_STL@@V?$allocator@D@2@@_STL@@U?$_Const_traits@V?$basic_string@DV?$char_traits@D@_STL@@V?$allocator@D@2@@_STL@@@2@@1@1ABU__false_type@1@@Z
_TEXT	SEGMENT
___position$ = 8					; size = 4
$T103384 = 12						; size = 4
___first$ = 12						; size = 4
___last$ = 16						; size = 4
___formal$ = 20						; size = 4
??$_M_insert_dispatch@U?$_List_iterator@V?$basic_string@DV?$char_traits@D@_STL@@V?$allocator@D@2@@_STL@@U?$_Const_traits@V?$basic_string@DV?$char_traits@D@_STL@@V?$allocator@D@2@@_STL@@@2@@_STL@@@?$list@V?$basic_string@DV?$char_traits@D@_STL@@V?$allocator@D@2@@_STL@@V?$allocator@V?$basic_string@DV?$char_traits@D@_STL@@V?$allocator@D@2@@_STL@@@2@@_STL@@QAEXU?$_List_iterator@V?$basic_string@DV?$char_traits@D@_STL@@V?$allocator@D@2@@_STL@@U?$_Nonconst_traits@V?$basic_string@DV?$char_traits@D@_STL@@V?$allocator@D@2@@_STL@@@2@@1@U?$_List_iterator@V?$basic_string@DV?$char_traits@D@_STL@@V?$allocator@D@2@@_STL@@U?$_Const_traits@V?$basic_string@DV?$char_traits@D@_STL@@V?$allocator@D@2@@_STL@@@2@@1@1ABU__false_type@1@@Z PROC NEAR ; _STL::list<_STL::basic_string<char,_STL::char_traits<char>,_STL::allocator<char> >,_STL::allocator<_STL::basic_string<char,_STL::char_traits<char>,_STL::allocator<char> > > >::_M_insert_dispatch<_STL::_List_iterator<_STL::basic_string<char,_STL::char_traits<char>,_STL::allocator<char> >,_STL::_Const_traits<_STL::basic_string<char,_STL::char_traits<char>,_STL::allocator<char> > > > >, COMDAT
; _this$ = ecx

; 323  :   void 

  00000	55		 push	 ebp
  00001	8b ec		 mov	 ebp, esp
  00003	56		 push	 esi

; 324  :   _M_insert_dispatch(iterator __position,
; 325  : 		     _InputIter __first, _InputIter __last,
; 326  : 		     const __false_type&) 
; 327  : #else /* _STLP_MEMBER_TEMPLATES */
; 328  :   void insert(iterator __position, const _Tp* __first, const _Tp* __last) {
; 329  :     for ( ; __first != __last; ++__first)
; 330  :       insert(__position, *__first);
; 331  :   }
; 332  :   void insert(iterator __position, const_iterator __first, const_iterator __last)
; 333  : #endif /* _STLP_MEMBER_TEMPLATES */
; 334  :   {
; 335  :     for ( ; __first != __last; ++__first)

  00004	8b 75 0c	 mov	 esi, DWORD PTR ___first$[ebp]
  00007	57		 push	 edi
  00008	8b f9		 mov	 edi, ecx
  0000a	eb 19		 jmp	 SHORT $L103410
$L103389:

; 336  :       insert(__position, *__first);

  0000c	8d 46 08	 lea	 eax, DWORD PTR [esi+8]
  0000f	50		 push	 eax
  00010	51		 push	 ecx
  00011	8b 4d 08	 mov	 ecx, DWORD PTR ___position$[ebp]
  00014	8b c4		 mov	 eax, esp
  00016	89 08		 mov	 DWORD PTR [eax], ecx
  00018	8d 45 0c	 lea	 eax, DWORD PTR $T103384[ebp]
  0001b	50		 push	 eax
  0001c	8b cf		 mov	 ecx, edi
  0001e	e8 00 00 00 00	 call	 ?insert@?$list@V?$basic_string@DV?$char_traits@D@_STL@@V?$allocator@D@2@@_STL@@V?$allocator@V?$basic_string@DV?$char_traits@D@_STL@@V?$allocator@D@2@@_STL@@@2@@_STL@@QAE?AU?$_List_iterator@V?$basic_string@DV?$char_traits@D@_STL@@V?$allocator@D@2@@_STL@@U?$_Nonconst_traits@V?$basic_string@DV?$char_traits@D@_STL@@V?$allocator@D@2@@_STL@@@2@@2@U32@ABV?$basic_string@DV?$char_traits@D@_STL@@V?$allocator@D@2@@2@@Z ; _STL::list<_STL::basic_string<char,_STL::char_traits<char>,_STL::allocator<char> >,_STL::allocator<_STL::basic_string<char,_STL::char_traits<char>,_STL::allocator<char> > > >::insert
  00023	8b 36		 mov	 esi, DWORD PTR [esi]
$L103410:

; 324  :   _M_insert_dispatch(iterator __position,
; 325  : 		     _InputIter __first, _InputIter __last,
; 326  : 		     const __false_type&) 
; 327  : #else /* _STLP_MEMBER_TEMPLATES */
; 328  :   void insert(iterator __position, const _Tp* __first, const _Tp* __last) {
; 329  :     for ( ; __first != __last; ++__first)
; 330  :       insert(__position, *__first);
; 331  :   }
; 332  :   void insert(iterator __position, const_iterator __first, const_iterator __last)
; 333  : #endif /* _STLP_MEMBER_TEMPLATES */
; 334  :   {
; 335  :     for ( ; __first != __last; ++__first)

  00025	3b 75 10	 cmp	 esi, DWORD PTR ___last$[ebp]
  00028	75 e2		 jne	 SHORT $L103389

; 337  :   }

  0002a	5f		 pop	 edi
  0002b	5e		 pop	 esi
  0002c	5d		 pop	 ebp
  0002d	c2 10 00	 ret	 16			; 00000010H
??$_M_insert_dispatch@U?$_List_iterator@V?$basic_string@DV?$char_traits@D@_STL@@V?$allocator@D@2@@_STL@@U?$_Const_traits@V?$basic_string@DV?$char_traits@D@_STL@@V?$allocator@D@2@@_STL@@@2@@_STL@@@?$list@V?$basic_string@DV?$char_traits@D@_STL@@V?$allocator@D@2@@_STL@@V?$allocator@V?$basic_string@DV?$char_traits@D@_STL@@V?$allocator@D@2@@_STL@@@2@@_STL@@QAEXU?$_List_iterator@V?$basic_string@DV?$char_traits@D@_STL@@V?$allocator@D@2@@_STL@@U?$_Nonconst_traits@V?$basic_string@DV?$char_traits@D@_STL@@V?$allocator@D@2@@_STL@@@2@@1@U?$_List_iterator@V?$basic_string@DV?$char_traits@D@_STL@@V?$allocator@D@2@@_STL@@U?$_Const_traits@V?$basic_string@DV?$char_traits@D@_STL@@V?$allocator@D@2@@_STL@@@2@@1@1ABU__false_type@1@@Z ENDP ; _STL::list<_STL::basic_string<char,_STL::char_traits<char>,_STL::allocator<char> >,_STL::allocator<_STL::basic_string<char,_STL::char_traits<char>,_STL::allocator<char> > > >::_M_insert_dispatch<_STL::_List_iterator<_STL::basic_string<char,_STL::char_traits<char>,_STL::allocator<char> >,_STL::_Const_traits<_STL::basic_string<char,_STL::char_traits<char>,_STL::allocator<char> > > > >
_TEXT	ENDS
PUBLIC	??0?$list@V?$basic_string@DV?$char_traits@D@_STL@@V?$allocator@D@2@@_STL@@V?$allocator@V?$basic_string@DV?$char_traits@D@_STL@@V?$allocator@D@2@@_STL@@@2@@_STL@@QAE@ABV?$allocator@V?$basic_string@DV?$char_traits@D@_STL@@V?$allocator@D@2@@_STL@@@1@@Z ; _STL::list<_STL::basic_string<char,_STL::char_traits<char>,_STL::allocator<char> >,_STL::allocator<_STL::basic_string<char,_STL::char_traits<char>,_STL::allocator<char> > > >::list<_STL::basic_string<char,_STL::char_traits<char>,_STL::allocator<char> >,_STL::allocator<_STL::basic_string<char,_STL::char_traits<char>,_STL::allocator<char> > > >
; Function compile flags: /Ogsy
;	COMDAT ??0?$list@V?$basic_string@DV?$char_traits@D@_STL@@V?$allocator@D@2@@_STL@@V?$allocator@V?$basic_string@DV?$char_traits@D@_STL@@V?$allocator@D@2@@_STL@@@2@@_STL@@QAE@ABV?$allocator@V?$basic_string@DV?$char_traits@D@_STL@@V?$allocator@D@2@@_STL@@@1@@Z
_TEXT	SEGMENT
___a$ = 8						; size = 4
??0?$list@V?$basic_string@DV?$char_traits@D@_STL@@V?$allocator@D@2@@_STL@@V?$allocator@V?$basic_string@DV?$char_traits@D@_STL@@V?$allocator@D@2@@_STL@@@2@@_STL@@QAE@ABV?$allocator@V?$basic_string@DV?$char_traits@D@_STL@@V?$allocator@D@2@@_STL@@@1@@Z PROC NEAR ; _STL::list<_STL::basic_string<char,_STL::char_traits<char>,_STL::allocator<char> >,_STL::allocator<_STL::basic_string<char,_STL::char_traits<char>,_STL::allocator<char> > > >::list<_STL::basic_string<char,_STL::char_traits<char>,_STL::allocator<char> >,_STL::allocator<_STL::basic_string<char,_STL::char_traits<char>,_STL::allocator<char> > > >, COMDAT
; _this$ = ecx

; 264  :     _List_base<_Tp, _Alloc>(__a) {}

  00000	56		 push	 esi
  00001	ff 74 24 08	 push	 DWORD PTR ___a$[esp]
  00005	8b f1		 mov	 esi, ecx
  00007	e8 00 00 00 00	 call	 ??0?$_List_base@V?$basic_string@DV?$char_traits@D@_STL@@V?$allocator@D@2@@_STL@@V?$allocator@V?$basic_string@DV?$char_traits@D@_STL@@V?$allocator@D@2@@_STL@@@2@@_STL@@QAE@ABV?$allocator@V?$basic_string@DV?$char_traits@D@_STL@@V?$allocator@D@2@@_STL@@@1@@Z ; _STL::_List_base<_STL::basic_string<char,_STL::char_traits<char>,_STL::allocator<char> >,_STL::allocator<_STL::basic_string<char,_STL::char_traits<char>,_STL::allocator<char> > > >::_List_base<_STL::basic_string<char,_STL::char_traits<char>,_STL::allocator<char> >,_STL::allocator<_STL::basic_string<char,_STL::char_traits<char>,_STL::allocator<char> > > >
  0000c	8b c6		 mov	 eax, esi
  0000e	5e		 pop	 esi
  0000f	c2 04 00	 ret	 4
??0?$list@V?$basic_string@DV?$char_traits@D@_STL@@V?$allocator@D@2@@_STL@@V?$allocator@V?$basic_string@DV?$char_traits@D@_STL@@V?$allocator@D@2@@_STL@@@2@@_STL@@QAE@ABV?$allocator@V?$basic_string@DV?$char_traits@D@_STL@@V?$allocator@D@2@@_STL@@@1@@Z ENDP ; _STL::list<_STL::basic_string<char,_STL::char_traits<char>,_STL::allocator<char> >,_STL::allocator<_STL::basic_string<char,_STL::char_traits<char>,_STL::allocator<char> > > >::list<_STL::basic_string<char,_STL::char_traits<char>,_STL::allocator<char> >,_STL::allocator<_STL::basic_string<char,_STL::char_traits<char>,_STL::allocator<char> > > >
_TEXT	ENDS
PUBLIC	??1?$list@V?$basic_string@DV?$char_traits@D@_STL@@V?$allocator@D@2@@_STL@@V?$allocator@V?$basic_string@DV?$char_traits@D@_STL@@V?$allocator@D@2@@_STL@@@2@@_STL@@QAE@XZ ; _STL::list<_STL::basic_string<char,_STL::char_traits<char>,_STL::allocator<char> >,_STL::allocator<_STL::basic_string<char,_STL::char_traits<char>,_STL::allocator<char> > > >::~list<_STL::basic_string<char,_STL::char_traits<char>,_STL::allocator<char> >,_STL::allocator<_STL::basic_string<char,_STL::char_traits<char>,_STL::allocator<char> > > >
; Function compile flags: /Ogsy
;	COMDAT ??1?$list@V?$basic_string@DV?$char_traits@D@_STL@@V?$allocator@D@2@@_STL@@V?$allocator@V?$basic_string@DV?$char_traits@D@_STL@@V?$allocator@D@2@@_STL@@@2@@_STL@@QAE@XZ
_TEXT	SEGMENT
??1?$list@V?$basic_string@DV?$char_traits@D@_STL@@V?$allocator@D@2@@_STL@@V?$allocator@V?$basic_string@DV?$char_traits@D@_STL@@V?$allocator@D@2@@_STL@@@2@@_STL@@QAE@XZ PROC NEAR ; _STL::list<_STL::basic_string<char,_STL::char_traits<char>,_STL::allocator<char> >,_STL::allocator<_STL::basic_string<char,_STL::char_traits<char>,_STL::allocator<char> > > >::~list<_STL::basic_string<char,_STL::char_traits<char>,_STL::allocator<char> >,_STL::allocator<_STL::basic_string<char,_STL::char_traits<char>,_STL::allocator<char> > > >, COMDAT
; _this$ = ecx

; 416  :   ~list() { }

  00000	e9 00 00 00 00	 jmp	 ??1?$_List_base@V?$basic_string@DV?$char_traits@D@_STL@@V?$allocator@D@2@@_STL@@V?$allocator@V?$basic_string@DV?$char_traits@D@_STL@@V?$allocator@D@2@@_STL@@@2@@_STL@@QAE@XZ ; _STL::_List_base<_STL::basic_string<char,_STL::char_traits<char>,_STL::allocator<char> >,_STL::allocator<_STL::basic_string<char,_STL::char_traits<char>,_STL::allocator<char> > > >::~_List_base<_STL::basic_string<char,_STL::char_traits<char>,_STL::allocator<char> >,_STL::allocator<_STL::basic_string<char,_STL::char_traits<char>,_STL::allocator<char> > > >
??1?$list@V?$basic_string@DV?$char_traits@D@_STL@@V?$allocator@D@2@@_STL@@V?$allocator@V?$basic_string@DV?$char_traits@D@_STL@@V?$allocator@D@2@@_STL@@@2@@_STL@@QAE@XZ ENDP ; _STL::list<_STL::basic_string<char,_STL::char_traits<char>,_STL::allocator<char> >,_STL::allocator<_STL::basic_string<char,_STL::char_traits<char>,_STL::allocator<char> > > >::~list<_STL::basic_string<char,_STL::char_traits<char>,_STL::allocator<char> >,_STL::allocator<_STL::basic_string<char,_STL::char_traits<char>,_STL::allocator<char> > > >
_TEXT	ENDS
PUBLIC	??$insert@U?$_List_iterator@V?$basic_string@DV?$char_traits@D@_STL@@V?$allocator@D@2@@_STL@@U?$_Const_traits@V?$basic_string@DV?$char_traits@D@_STL@@V?$allocator@D@2@@_STL@@@2@@_STL@@@?$list@V?$basic_string@DV?$char_traits@D@_STL@@V?$allocator@D@2@@_STL@@V?$allocator@V?$basic_string@DV?$char_traits@D@_STL@@V?$allocator@D@2@@_STL@@@2@@_STL@@QAEXU?$_List_iterator@V?$basic_string@DV?$char_traits@D@_STL@@V?$allocator@D@2@@_STL@@U?$_Nonconst_traits@V?$basic_string@DV?$char_traits@D@_STL@@V?$allocator@D@2@@_STL@@@2@@1@U?$_List_iterator@V?$basic_string@DV?$char_traits@D@_STL@@V?$allocator@D@2@@_STL@@U?$_Const_traits@V?$basic_string@DV?$char_traits@D@_STL@@V?$allocator@D@2@@_STL@@@2@@1@1@Z ; _STL::list<_STL::basic_string<char,_STL::char_traits<char>,_STL::allocator<char> >,_STL::allocator<_STL::basic_string<char,_STL::char_traits<char>,_STL::allocator<char> > > >::insert<_STL::_List_iterator<_STL::basic_string<char,_STL::char_traits<char>,_STL::allocator<char> >,_STL::_Const_traits<_STL::basic_string<char,_STL::char_traits<char>,_STL::allocator<char> > > > >
; Function compile flags: /Ogsy
;	COMDAT ??$insert@U?$_List_iterator@V?$basic_string@DV?$char_traits@D@_STL@@V?$allocator@D@2@@_STL@@U?$_Const_traits@V?$basic_string@DV?$char_traits@D@_STL@@V?$allocator@D@2@@_STL@@@2@@_STL@@@?$list@V?$basic_string@DV?$char_traits@D@_STL@@V?$allocator@D@2@@_STL@@V?$allocator@V?$basic_string@DV?$char_traits@D@_STL@@V?$allocator@D@2@@_STL@@@2@@_STL@@QAEXU?$_List_iterator@V?$basic_string@DV?$char_traits@D@_STL@@V?$allocator@D@2@@_STL@@U?$_Nonconst_traits@V?$basic_string@DV?$char_traits@D@_STL@@V?$allocator@D@2@@_STL@@@2@@1@U?$_List_iterator@V?$basic_string@DV?$char_traits@D@_STL@@V?$allocator@D@2@@_STL@@U?$_Const_traits@V?$basic_string@DV?$char_traits@D@_STL@@V?$allocator@D@2@@_STL@@@2@@1@1@Z
_TEXT	SEGMENT
___pos$ = 8						; size = 4
___first$ = 12						; size = 4
___last$ = 16						; size = 4
$T103421 = 19						; size = 1
??$insert@U?$_List_iterator@V?$basic_string@DV?$char_traits@D@_STL@@V?$allocator@D@2@@_STL@@U?$_Const_traits@V?$basic_string@DV?$char_traits@D@_STL@@V?$allocator@D@2@@_STL@@@2@@_STL@@@?$list@V?$basic_string@DV?$char_traits@D@_STL@@V?$allocator@D@2@@_STL@@V?$allocator@V?$basic_string@DV?$char_traits@D@_STL@@V?$allocator@D@2@@_STL@@@2@@_STL@@QAEXU?$_List_iterator@V?$basic_string@DV?$char_traits@D@_STL@@V?$allocator@D@2@@_STL@@U?$_Nonconst_traits@V?$basic_string@DV?$char_traits@D@_STL@@V?$allocator@D@2@@_STL@@@2@@1@U?$_List_iterator@V?$basic_string@DV?$char_traits@D@_STL@@V?$allocator@D@2@@_STL@@U?$_Const_traits@V?$basic_string@DV?$char_traits@D@_STL@@V?$allocator@D@2@@_STL@@@2@@1@1@Z PROC NEAR ; _STL::list<_STL::basic_string<char,_STL::char_traits<char>,_STL::allocator<char> >,_STL::allocator<_STL::basic_string<char,_STL::char_traits<char>,_STL::allocator<char> > > >::insert<_STL::_List_iterator<_STL::basic_string<char,_STL::char_traits<char>,_STL::allocator<char> >,_STL::_Const_traits<_STL::basic_string<char,_STL::char_traits<char>,_STL::allocator<char> > > > >, COMDAT
; _this$ = ecx

; 312  :   void insert(iterator __pos, _InputIterator __first, _InputIterator __last) {

  00000	55		 push	 ebp
  00001	8b ec		 mov	 ebp, esp

; 313  :     typedef typename _Is_integer<_InputIterator>::_Integral _Integral;
; 314  :     _M_insert_dispatch(__pos, __first, __last, _Integral());

  00003	8b 55 08	 mov	 edx, DWORD PTR ___pos$[ebp]
  00006	8d 45 13	 lea	 eax, DWORD PTR $T103421[ebp]
  00009	50		 push	 eax
  0000a	ff 75 10	 push	 DWORD PTR ___last$[ebp]
  0000d	ff 75 0c	 push	 DWORD PTR ___first$[ebp]
  00010	51		 push	 ecx
  00011	8b c4		 mov	 eax, esp
  00013	89 10		 mov	 DWORD PTR [eax], edx
  00015	e8 00 00 00 00	 call	 ??$_M_insert_dispatch@U?$_List_iterator@V?$basic_string@DV?$char_traits@D@_STL@@V?$allocator@D@2@@_STL@@U?$_Const_traits@V?$basic_string@DV?$char_traits@D@_STL@@V?$allocator@D@2@@_STL@@@2@@_STL@@@?$list@V?$basic_string@DV?$char_traits@D@_STL@@V?$allocator@D@2@@_STL@@V?$allocator@V?$basic_string@DV?$char_traits@D@_STL@@V?$allocator@D@2@@_STL@@@2@@_STL@@QAEXU?$_List_iterator@V?$basic_string@DV?$char_traits@D@_STL@@V?$allocator@D@2@@_STL@@U?$_Nonconst_traits@V?$basic_string@DV?$char_traits@D@_STL@@V?$allocator@D@2@@_STL@@@2@@1@U?$_List_iterator@V?$basic_string@DV?$char_traits@D@_STL@@V?$allocator@D@2@@_STL@@U?$_Const_traits@V?$basic_string@DV?$char_traits@D@_STL@@V?$allocator@D@2@@_STL@@@2@@1@1ABU__false_type@1@@Z ; _STL::list<_STL::basic_string<char,_STL::char_traits<char>,_STL::allocator<char> >,_STL::allocator<_STL::basic_string<char,_STL::char_traits<char>,_STL::allocator<char> > > >::_M_insert_dispatch<_STL::_List_iterator<_STL::basic_string<char,_STL::char_traits<char>,_STL::allocator<char> >,_STL::_Const_traits<_STL::basic_string<char,_STL::char_traits<char>,_STL::allocator<char> > > > >

; 315  :   }

  0001a	5d		 pop	 ebp
  0001b	c2 0c 00	 ret	 12			; 0000000cH
??$insert@U?$_List_iterator@V?$basic_string@DV?$char_traits@D@_STL@@V?$allocator@D@2@@_STL@@U?$_Const_traits@V?$basic_string@DV?$char_traits@D@_STL@@V?$allocator@D@2@@_STL@@@2@@_STL@@@?$list@V?$basic_string@DV?$char_traits@D@_STL@@V?$allocator@D@2@@_STL@@V?$allocator@V?$basic_string@DV?$char_traits@D@_STL@@V?$allocator@D@2@@_STL@@@2@@_STL@@QAEXU?$_List_iterator@V?$basic_string@DV?$char_traits@D@_STL@@V?$allocator@D@2@@_STL@@U?$_Nonconst_traits@V?$basic_string@DV?$char_traits@D@_STL@@V?$allocator@D@2@@_STL@@@2@@1@U?$_List_iterator@V?$basic_string@DV?$char_traits@D@_STL@@V?$allocator@D@2@@_STL@@U?$_Const_traits@V?$basic_string@DV?$char_traits@D@_STL@@V?$allocator@D@2@@_STL@@@2@@1@1@Z ENDP ; _STL::list<_STL::basic_string<char,_STL::char_traits<char>,_STL::allocator<char> >,_STL::allocator<_STL::basic_string<char,_STL::char_traits<char>,_STL::allocator<char> > > >::insert<_STL::_List_iterator<_STL::basic_string<char,_STL::char_traits<char>,_STL::allocator<char> >,_STL::_Const_traits<_STL::basic_string<char,_STL::char_traits<char>,_STL::allocator<char> > > > >
_TEXT	ENDS
PUBLIC	??_R1A@?0A@A@Throwable@@8			; Throwable::`RTTI Base Class Descriptor at (0,-1,0,0)'
PUBLIC	??_R0?AVThrowable@@@8				; Throwable `RTTI Type Descriptor'
PUBLIC	??0Throwable@@QAE@V?$basic_string@DV?$char_traits@D@_STL@@V?$allocator@D@2@@_STL@@@Z ; Throwable::Throwable
PUBLIC	?getName@Throwable@@UBE?AV?$basic_string@DV?$char_traits@D@_STL@@V?$allocator@D@2@@_STL@@XZ ; Throwable::getName
PUBLIC	?toString@Throwable@@UBE?AV?$basic_string@DV?$char_traits@D@_STL@@V?$allocator@D@2@@_STL@@XZ ; Throwable::toString
PUBLIC	??_R4Throwable@@6B@				; Throwable::`RTTI Complete Object Locator'
PUBLIC	??_R3Throwable@@8				; Throwable::`RTTI Class Hierarchy Descriptor'
PUBLIC	??_R2Throwable@@8				; Throwable::`RTTI Base Class Array'
PUBLIC	??_7Throwable@@6B@				; Throwable::`vftable'
PUBLIC	??_GThrowable@@UAEPAXI@Z			; Throwable::`scalar deleting destructor'
EXTRN	??_7type_info@@6B@:QWORD			; type_info::`vftable'
EXTRN	??_EThrowable@@UAEPAXI@Z:NEAR			; Throwable::`vector deleting destructor'
;	COMDAT ??_7Throwable@@6B@
; File c:\stlport-4.6.1\stlport\stl\_alloc.h
CONST	SEGMENT
??_7Throwable@@6B@ DD FLAT:??_R4Throwable@@6B@		; Throwable::`vftable'
	DD	FLAT:??_EThrowable@@UAEPAXI@Z
	DD	FLAT:?getName@Throwable@@UBE?AV?$basic_string@DV?$char_traits@D@_STL@@V?$allocator@D@2@@_STL@@XZ
	DD	FLAT:?toString@Throwable@@UBE?AV?$basic_string@DV?$char_traits@D@_STL@@V?$allocator@D@2@@_STL@@XZ
CONST	ENDS
;	COMDAT ??_R4Throwable@@6B@
rdata$r	SEGMENT
??_R4Throwable@@6B@ DD 00H				; Throwable::`RTTI Complete Object Locator'
	DD	00H
	DD	00H
	DD	FLAT:??_R0?AVThrowable@@@8
	DD	FLAT:??_R3Throwable@@8
rdata$r	ENDS
;	COMDAT ??_R0?AVThrowable@@@8
_DATA	SEGMENT
??_R0?AVThrowable@@@8 DD FLAT:??_7type_info@@6B@	; Throwable `RTTI Type Descriptor'
	DD	00H
	DB	'.?AVThrowable@@', 00H
	ORG $-24
	DD	FLAT:??_7type_info@@6B@
	DD	00H
	DB	'.?AVThrowable@@', 00H
_DATA	ENDS
;	COMDAT ??_R3Throwable@@8
rdata$r	SEGMENT
??_R3Throwable@@8 DD 00H				; Throwable::`RTTI Class Hierarchy Descriptor'
	DD	00H
	DD	01H
	DD	FLAT:??_R2Throwable@@8
rdata$r	ENDS
;	COMDAT ??_R2Throwable@@8
rdata$r	SEGMENT
??_R2Throwable@@8 DD FLAT:??_R1A@?0A@A@Throwable@@8	; Throwable::`RTTI Base Class Array'
rdata$r	ENDS
;	COMDAT ??_R1A@?0A@A@Throwable@@8
rdata$r	SEGMENT
??_R1A@?0A@A@Throwable@@8 DD FLAT:??_R0?AVThrowable@@@8	; Throwable::`RTTI Base Class Descriptor at (0,-1,0,0)'
	DD	00H
	DD	00H
	DD	0ffffffffH
	DD	00H
	DD	00H
; Function compile flags: /Ogsy
; File c:\darkeden\designed_common\project\client\packet\exception.h
rdata$r	ENDS
;	COMDAT ??0Throwable@@QAE@V?$basic_string@DV?$char_traits@D@_STL@@V?$allocator@D@2@@_STL@@@Z
_TEXT	SEGMENT
_message$ = 8						; size = 12
$T103435 = 19						; size = 1
??0Throwable@@QAE@V?$basic_string@DV?$char_traits@D@_STL@@V?$allocator@D@2@@_STL@@@Z PROC NEAR ; Throwable::Throwable, COMDAT
; _this$ = ecx

; 40   : 	Throwable ( std::string message ) throw () : m_Message(message) {}

  00000	55		 push	 ebp
  00001	8b ec		 mov	 ebp, esp
  00003	56		 push	 esi
  00004	8b f1		 mov	 esi, ecx
  00006	8d 45 08	 lea	 eax, DWORD PTR _message$[ebp]
  00009	50		 push	 eax
  0000a	8d 4e 04	 lea	 ecx, DWORD PTR [esi+4]
  0000d	c7 06 00 00 00
	00		 mov	 DWORD PTR [esi], OFFSET FLAT:??_7Throwable@@6B@
  00013	e8 00 00 00 00	 call	 ??0?$basic_string@DV?$char_traits@D@_STL@@V?$allocator@D@2@@_STL@@QAE@ABV01@@Z ; _STL::basic_string<char,_STL::char_traits<char>,_STL::allocator<char> >::basic_string<char,_STL::char_traits<char>,_STL::allocator<char> >
  00018	8d 45 13	 lea	 eax, DWORD PTR $T103435[ebp]
  0001b	50		 push	 eax
  0001c	8d 4e 10	 lea	 ecx, DWORD PTR [esi+16]
  0001f	e8 00 00 00 00	 call	 ??0?$list@V?$basic_string@DV?$char_traits@D@_STL@@V?$allocator@D@2@@_STL@@V?$allocator@V?$basic_string@DV?$char_traits@D@_STL@@V?$allocator@D@2@@_STL@@@2@@_STL@@QAE@ABV?$allocator@V?$basic_string@DV?$char_traits@D@_STL@@V?$allocator@D@2@@_STL@@@1@@Z ; _STL::list<_STL::basic_string<char,_STL::char_traits<char>,_STL::allocator<char> >,_STL::allocator<_STL::basic_string<char,_STL::char_traits<char>,_STL::allocator<char> > > >::list<_STL::basic_string<char,_STL::char_traits<char>,_STL::allocator<char> >,_STL::allocator<_STL::basic_string<char,_STL::char_traits<char>,_STL::allocator<char> > > >
  00024	8d 4d 08	 lea	 ecx, DWORD PTR _message$[ebp]
  00027	e8 00 00 00 00	 call	 ??1?$basic_string@DV?$char_traits@D@_STL@@V?$allocator@D@2@@_STL@@QAE@XZ ; _STL::basic_string<char,_STL::char_traits<char>,_STL::allocator<char> >::~basic_string<char,_STL::char_traits<char>,_STL::allocator<char> >
  0002c	8b c6		 mov	 eax, esi
  0002e	5e		 pop	 esi
  0002f	5d		 pop	 ebp
  00030	c2 0c 00	 ret	 12			; 0000000cH
??0Throwable@@QAE@V?$basic_string@DV?$char_traits@D@_STL@@V?$allocator@D@2@@_STL@@@Z ENDP ; Throwable::Throwable
_TEXT	ENDS
PUBLIC	??_C@_09KCKHMJEM@Throwable?$AA@			; `string'
;	COMDAT ??_C@_09KCKHMJEM@Throwable?$AA@
; File c:\stlport-4.6.1\stlport\stl\_alloc.h
CONST	SEGMENT
??_C@_09KCKHMJEM@Throwable?$AA@ DB 'Throwable', 00H	; `string'
; Function compile flags: /Ogsy
; File c:\darkeden\designed_common\project\client\packet\exception.h
CONST	ENDS
;	COMDAT ?getName@Throwable@@UBE?AV?$basic_string@DV?$char_traits@D@_STL@@V?$allocator@D@2@@_STL@@XZ
_TEXT	SEGMENT
___$ReturnUdt$ = 8					; size = 4
$T103444 = 11						; size = 1
?getName@Throwable@@UBE?AV?$basic_string@DV?$char_traits@D@_STL@@V?$allocator@D@2@@_STL@@XZ PROC NEAR ; Throwable::getName, COMDAT
; _this$ = ecx

; 46   : 	virtual std::string getName () const throw () { return "Throwable"; }

  00000	55		 push	 ebp
  00001	8b ec		 mov	 ebp, esp
  00003	8b 4d 08	 mov	 ecx, DWORD PTR ___$ReturnUdt$[ebp]
  00006	8d 45 0b	 lea	 eax, DWORD PTR $T103444[ebp]
  00009	50		 push	 eax
  0000a	68 00 00 00 00	 push	 OFFSET FLAT:??_C@_09KCKHMJEM@Throwable?$AA@
  0000f	e8 00 00 00 00	 call	 ??0?$basic_string@DV?$char_traits@D@_STL@@V?$allocator@D@2@@_STL@@QAE@PBDABV?$allocator@D@1@@Z ; _STL::basic_string<char,_STL::char_traits<char>,_STL::allocator<char> >::basic_string<char,_STL::char_traits<char>,_STL::allocator<char> >
  00014	8b 45 08	 mov	 eax, DWORD PTR ___$ReturnUdt$[ebp]
  00017	5d		 pop	 ebp
  00018	c2 04 00	 ret	 4
?getName@Throwable@@UBE?AV?$basic_string@DV?$char_traits@D@_STL@@V?$allocator@D@2@@_STL@@XZ ENDP ; Throwable::getName
_TEXT	ENDS
PUBLIC	?getStackTrace@Throwable@@QBE?AV?$basic_string@DV?$char_traits@D@_STL@@V?$allocator@D@2@@_STL@@XZ ; Throwable::getStackTrace
PUBLIC	??_C@_03MCPBMLDJ@?5?3?5?$AA@			; `string'
EXTRN	??6StringStream@@QAEAAV0@D@Z:NEAR		; StringStream::operator<<
;	COMDAT ??_C@_03MCPBMLDJ@?5?3?5?$AA@
CONST	SEGMENT
??_C@_03MCPBMLDJ@?5?3?5?$AA@ DB ' : ', 00H		; `string'
; Function compile flags: /Ogsy
CONST	ENDS
;	COMDAT ?toString@Throwable@@UBE?AV?$basic_string@DV?$char_traits@D@_STL@@V?$allocator@D@2@@_STL@@XZ
_TEXT	SEGMENT
_buf$ = -44						; size = 20
$T103455 = -24						; size = 12
$T103454 = -24						; size = 12
$T103453 = -12						; size = 12
___$ReturnUdt$ = 8					; size = 4
?toString@Throwable@@UBE?AV?$basic_string@DV?$char_traits@D@_STL@@V?$allocator@D@2@@_STL@@XZ PROC NEAR ; Throwable::toString, COMDAT
; _this$ = ecx

; 79   : 	{

  00000	55		 push	 ebp
  00001	8b ec		 mov	 ebp, esp
  00003	83 ec 2c	 sub	 esp, 44			; 0000002cH
  00006	56		 push	 esi
  00007	8b f1		 mov	 esi, ecx

; 80   : 		StringStream buf;

  00009	8d 4d d4	 lea	 ecx, DWORD PTR _buf$[ebp]
  0000c	e8 00 00 00 00	 call	 ??0StringStream@@QAE@XZ	; StringStream::StringStream

; 81   : 		buf << getName() << " : " << m_Message << '\n'
; 82   : 			<< getStackTrace () ;

  00011	8d 45 e8	 lea	 eax, DWORD PTR $T103454[ebp]
  00014	50		 push	 eax
  00015	8b ce		 mov	 ecx, esi
  00017	e8 00 00 00 00	 call	 ?getStackTrace@Throwable@@QBE?AV?$basic_string@DV?$char_traits@D@_STL@@V?$allocator@D@2@@_STL@@XZ ; Throwable::getStackTrace
  0001c	50		 push	 eax
  0001d	6a 0a		 push	 10			; 0000000aH
  0001f	8d 46 04	 lea	 eax, DWORD PTR [esi+4]
  00022	50		 push	 eax
  00023	8b 06		 mov	 eax, DWORD PTR [esi]
  00025	68 00 00 00 00	 push	 OFFSET FLAT:??_C@_03MCPBMLDJ@?5?3?5?$AA@
  0002a	8d 4d f4	 lea	 ecx, DWORD PTR $T103453[ebp]
  0002d	51		 push	 ecx
  0002e	8b ce		 mov	 ecx, esi
  00030	ff 50 04	 call	 DWORD PTR [eax+4]
  00033	50		 push	 eax
  00034	8d 4d d4	 lea	 ecx, DWORD PTR _buf$[ebp]
  00037	e8 00 00 00 00	 call	 ??6StringStream@@QAEAAV0@ABV?$basic_string@DV?$char_traits@D@_STL@@V?$allocator@D@2@@_STL@@@Z ; StringStream::operator<<
  0003c	8b c8		 mov	 ecx, eax
  0003e	e8 00 00 00 00	 call	 ??6StringStream@@QAEAAV0@PBD@Z ; StringStream::operator<<
  00043	8b c8		 mov	 ecx, eax
  00045	e8 00 00 00 00	 call	 ??6StringStream@@QAEAAV0@ABV?$basic_string@DV?$char_traits@D@_STL@@V?$allocator@D@2@@_STL@@@Z ; StringStream::operator<<
  0004a	8b c8		 mov	 ecx, eax
  0004c	e8 00 00 00 00	 call	 ??6StringStream@@QAEAAV0@D@Z ; StringStream::operator<<
  00051	8b c8		 mov	 ecx, eax
  00053	e8 00 00 00 00	 call	 ??6StringStream@@QAEAAV0@ABV?$basic_string@DV?$char_traits@D@_STL@@V?$allocator@D@2@@_STL@@@Z ; StringStream::operator<<
  00058	8d 4d f4	 lea	 ecx, DWORD PTR $T103453[ebp]
  0005b	e8 00 00 00 00	 call	 ??1?$basic_string@DV?$char_traits@D@_STL@@V?$allocator@D@2@@_STL@@QAE@XZ ; _STL::basic_string<char,_STL::char_traits<char>,_STL::allocator<char> >::~basic_string<char,_STL::char_traits<char>,_STL::allocator<char> >
  00060	8d 4d e8	 lea	 ecx, DWORD PTR $T103454[ebp]
  00063	e8 00 00 00 00	 call	 ??1?$basic_string@DV?$char_traits@D@_STL@@V?$allocator@D@2@@_STL@@QAE@XZ ; _STL::basic_string<char,_STL::char_traits<char>,_STL::allocator<char> >::~basic_string<char,_STL::char_traits<char>,_STL::allocator<char> >

; 83   : 		
; 84   : 		return std::string( buf.toString() );

  00068	8d 45 e8	 lea	 eax, DWORD PTR $T103455[ebp]
  0006b	50		 push	 eax
  0006c	8d 4d d4	 lea	 ecx, DWORD PTR _buf$[ebp]
  0006f	e8 00 00 00 00	 call	 ?toString@StringStream@@QBE?AV?$basic_string@DV?$char_traits@D@_STL@@V?$allocator@D@2@@_STL@@XZ ; StringStream::toString
  00074	8b 4d 08	 mov	 ecx, DWORD PTR ___$ReturnUdt$[ebp]
  00077	50		 push	 eax
  00078	e8 00 00 00 00	 call	 ??0?$basic_string@DV?$char_traits@D@_STL@@V?$allocator@D@2@@_STL@@QAE@ABV01@@Z ; _STL::basic_string<char,_STL::char_traits<char>,_STL::allocator<char> >::basic_string<char,_STL::char_traits<char>,_STL::allocator<char> >
  0007d	8d 4d e8	 lea	 ecx, DWORD PTR $T103455[ebp]
  00080	e8 00 00 00 00	 call	 ??1?$basic_string@DV?$char_traits@D@_STL@@V?$allocator@D@2@@_STL@@QAE@XZ ; _STL::basic_string<char,_STL::char_traits<char>,_STL::allocator<char> >::~basic_string<char,_STL::char_traits<char>,_STL::allocator<char> >
  00085	8d 4d d4	 lea	 ecx, DWORD PTR _buf$[ebp]
  00088	e8 00 00 00 00	 call	 ??1StringStream@@QAE@XZ	; StringStream::~StringStream
  0008d	8b 45 08	 mov	 eax, DWORD PTR ___$ReturnUdt$[ebp]
  00090	5e		 pop	 esi

; 85   : 	}

  00091	c9		 leave
  00092	c2 04 00	 ret	 4
?toString@Throwable@@UBE?AV?$basic_string@DV?$char_traits@D@_STL@@V?$allocator@D@2@@_STL@@XZ ENDP ; Throwable::toString
_TEXT	ENDS
PUBLIC	??_C@_01CLKCMJKC@?5?$AA@			; `string'
;	COMDAT ??_C@_01CLKCMJKC@?5?$AA@
; File c:\stlport-4.6.1\stlport\stl\_list.h
CONST	SEGMENT
??_C@_01CLKCMJKC@?5?$AA@ DB ' ', 00H			; `string'
; Function compile flags: /Ogsy
; File c:\darkeden\designed_common\project\client\packet\exception.h
CONST	ENDS
;	COMDAT ?getStackTrace@Throwable@@QBE?AV?$basic_string@DV?$char_traits@D@_STL@@V?$allocator@D@2@@_STL@@XZ
_TEXT	SEGMENT
_buf$ = -36						; size = 20
$T103460 = -16						; size = 12
tv90 = -4						; size = 4
___$ReturnUdt$ = 8					; size = 4
?getStackTrace@Throwable@@QBE?AV?$basic_string@DV?$char_traits@D@_STL@@V?$allocator@D@2@@_STL@@XZ PROC NEAR ; Throwable::getStackTrace, COMDAT
; _this$ = ecx

; 56   : 	{

  00000	55		 push	 ebp
  00001	8b ec		 mov	 ebp, esp
  00003	83 ec 24	 sub	 esp, 36			; 00000024H
  00006	53		 push	 ebx
  00007	56		 push	 esi
  00008	57		 push	 edi
  00009	8b f9		 mov	 edi, ecx

; 57   : 		StringStream buf;

  0000b	8d 4d dc	 lea	 ecx, DWORD PTR _buf$[ebp]
  0000e	e8 00 00 00 00	 call	 ??0StringStream@@QAE@XZ	; StringStream::StringStream

; 58   : 		int i = 1;
; 59   : 
; 60   : 		for ( std::list<std::string>::const_iterator itr = m_Stacks.begin() ;

  00013	8b 47 10	 mov	 eax, DWORD PTR [edi+16]
  00016	8b 30		 mov	 esi, DWORD PTR [eax]
  00018	33 db		 xor	 ebx, ebx
  0001a	43		 inc	 ebx

; 61   : 			  itr != m_Stacks.end() ;
; 62   : 			  itr ++ , i ++ ) {

  0001b	3b f0		 cmp	 esi, eax
  0001d	74 36		 je	 SHORT $L88001
$L87999:

; 63   : 			for ( int j = 0 ; j < i ; j ++ )

  0001f	85 db		 test	 ebx, ebx
  00021	7e 15		 jle	 SHORT $L88005
  00023	89 5d fc	 mov	 DWORD PTR tv90[ebp], ebx
$L88003:

; 64   : 				buf << " ";

  00026	68 00 00 00 00	 push	 OFFSET FLAT:??_C@_01CLKCMJKC@?5?$AA@
  0002b	8d 4d dc	 lea	 ecx, DWORD PTR _buf$[ebp]
  0002e	e8 00 00 00 00	 call	 ??6StringStream@@QAEAAV0@PBD@Z ; StringStream::operator<<
  00033	ff 4d fc	 dec	 DWORD PTR tv90[ebp]
  00036	75 ee		 jne	 SHORT $L88003
$L88005:

; 65   : 			buf << *itr << '\n' ;

  00038	6a 0a		 push	 10			; 0000000aH
  0003a	8d 46 08	 lea	 eax, DWORD PTR [esi+8]
  0003d	50		 push	 eax
  0003e	8d 4d dc	 lea	 ecx, DWORD PTR _buf$[ebp]
  00041	e8 00 00 00 00	 call	 ??6StringStream@@QAEAAV0@ABV?$basic_string@DV?$char_traits@D@_STL@@V?$allocator@D@2@@_STL@@@Z ; StringStream::operator<<
  00046	8b c8		 mov	 ecx, eax
  00048	e8 00 00 00 00	 call	 ??6StringStream@@QAEAAV0@D@Z ; StringStream::operator<<
  0004d	8b 36		 mov	 esi, DWORD PTR [esi]
  0004f	43		 inc	 ebx
  00050	3b 77 10	 cmp	 esi, DWORD PTR [edi+16]
  00053	75 ca		 jne	 SHORT $L87999
$L88001:

; 66   : 		}
; 67   : 		
; 68   : 		return std::string( buf.toString() );

  00055	8d 45 f0	 lea	 eax, DWORD PTR $T103460[ebp]
  00058	50		 push	 eax
  00059	8d 4d dc	 lea	 ecx, DWORD PTR _buf$[ebp]
  0005c	e8 00 00 00 00	 call	 ?toString@StringStream@@QBE?AV?$basic_string@DV?$char_traits@D@_STL@@V?$allocator@D@2@@_STL@@XZ ; StringStream::toString
  00061	8b 4d 08	 mov	 ecx, DWORD PTR ___$ReturnUdt$[ebp]
  00064	50		 push	 eax
  00065	e8 00 00 00 00	 call	 ??0?$basic_string@DV?$char_traits@D@_STL@@V?$allocator@D@2@@_STL@@QAE@ABV01@@Z ; _STL::basic_string<char,_STL::char_traits<char>,_STL::allocator<char> >::basic_string<char,_STL::char_traits<char>,_STL::allocator<char> >
  0006a	8d 4d f0	 lea	 ecx, DWORD PTR $T103460[ebp]
  0006d	e8 00 00 00 00	 call	 ??1?$basic_string@DV?$char_traits@D@_STL@@V?$allocator@D@2@@_STL@@QAE@XZ ; _STL::basic_string<char,_STL::char_traits<char>,_STL::allocator<char> >::~basic_string<char,_STL::char_traits<char>,_STL::allocator<char> >
  00072	8d 4d dc	 lea	 ecx, DWORD PTR _buf$[ebp]
  00075	e8 00 00 00 00	 call	 ??1StringStream@@QAE@XZ	; StringStream::~StringStream
  0007a	8b 45 08	 mov	 eax, DWORD PTR ___$ReturnUdt$[ebp]
  0007d	5f		 pop	 edi
  0007e	5e		 pop	 esi
  0007f	5b		 pop	 ebx

; 69   : 	}

  00080	c9		 leave
  00081	c2 04 00	 ret	 4
?getStackTrace@Throwable@@QBE?AV?$basic_string@DV?$char_traits@D@_STL@@V?$allocator@D@2@@_STL@@XZ ENDP ; Throwable::getStackTrace
_TEXT	ENDS
PUBLIC	??1Throwable@@UAE@XZ				; Throwable::~Throwable
; Function compile flags: /Ogsy
;	COMDAT ??1Throwable@@UAE@XZ
_TEXT	SEGMENT
??1Throwable@@UAE@XZ PROC NEAR				; Throwable::~Throwable, COMDAT
; _this$ = ecx

; 43   : 	virtual ~Throwable () throw () {}

  00000	56		 push	 esi
  00001	8b f1		 mov	 esi, ecx
  00003	8d 4e 10	 lea	 ecx, DWORD PTR [esi+16]
  00006	c7 06 00 00 00
	00		 mov	 DWORD PTR [esi], OFFSET FLAT:??_7Throwable@@6B@
  0000c	e8 00 00 00 00	 call	 ??1?$list@V?$basic_string@DV?$char_traits@D@_STL@@V?$allocator@D@2@@_STL@@V?$allocator@V?$basic_string@DV?$char_traits@D@_STL@@V?$allocator@D@2@@_STL@@@2@@_STL@@QAE@XZ ; _STL::list<_STL::basic_string<char,_STL::char_traits<char>,_STL::allocator<char> >,_STL::allocator<_STL::basic_string<char,_STL::char_traits<char>,_STL::allocator<char> > > >::~list<_STL::basic_string<char,_STL::char_traits<char>,_STL::allocator<char> >,_STL::allocator<_STL::basic_string<char,_STL::char_traits<char>,_STL::allocator<char> > > >
  00011	8d 4e 04	 lea	 ecx, DWORD PTR [esi+4]
  00014	5e		 pop	 esi
  00015	e9 00 00 00 00	 jmp	 ??1?$basic_string@DV?$char_traits@D@_STL@@V?$allocator@D@2@@_STL@@QAE@XZ ; _STL::basic_string<char,_STL::char_traits<char>,_STL::allocator<char> >::~basic_string<char,_STL::char_traits<char>,_STL::allocator<char> >
??1Throwable@@UAE@XZ ENDP				; Throwable::~Throwable
; Function compile flags: /Ogsy
_TEXT	ENDS
;	COMDAT ??_GThrowable@@UAEPAXI@Z
_TEXT	SEGMENT
___flags$ = 8						; size = 4
??_GThrowable@@UAEPAXI@Z PROC NEAR			; Throwable::`scalar deleting destructor', COMDAT
; _this$ = ecx
  00000	56		 push	 esi
  00001	8b f1		 mov	 esi, ecx
  00003	e8 00 00 00 00	 call	 ??1Throwable@@UAE@XZ	; Throwable::~Throwable
  00008	f6 44 24 08 01	 test	 BYTE PTR ___flags$[esp], 1
  0000d	74 07		 je	 SHORT $L88026
  0000f	56		 push	 esi
  00010	e8 00 00 00 00	 call	 ??3@YAXPAX@Z		; operator delete
  00015	59		 pop	 ecx
$L88026:
  00016	8b c6		 mov	 eax, esi
  00018	5e		 pop	 esi
  00019	c2 04 00	 ret	 4
??_GThrowable@@UAEPAXI@Z ENDP				; Throwable::`scalar deleting destructor'
_TEXT	ENDS
PUBLIC	??_R1A@?0A@A@Exception@@8			; Exception::`RTTI Base Class Descriptor at (0,-1,0,0)'
PUBLIC	??_R0?AVException@@@8				; Exception `RTTI Type Descriptor'
PUBLIC	??_R4Exception@@6B@				; Exception::`RTTI Complete Object Locator'
PUBLIC	??_R3Exception@@8				; Exception::`RTTI Class Hierarchy Descriptor'
PUBLIC	??_R2Exception@@8				; Exception::`RTTI Base Class Array'
PUBLIC	??0Exception@@QAE@V?$basic_string@DV?$char_traits@D@_STL@@V?$allocator@D@2@@_STL@@@Z ; Exception::Exception
PUBLIC	?getName@Exception@@UBE?AV?$basic_string@DV?$char_traits@D@_STL@@V?$allocator@D@2@@_STL@@XZ ; Exception::getName
PUBLIC	??_7Exception@@6B@				; Exception::`vftable'
PUBLIC	??_GException@@UAEPAXI@Z			; Exception::`scalar deleting destructor'
EXTRN	??_EException@@UAEPAXI@Z:NEAR			; Exception::`vector deleting destructor'
;	COMDAT ??_7Exception@@6B@
CONST	SEGMENT
??_7Exception@@6B@ DD FLAT:??_R4Exception@@6B@		; Exception::`vftable'
	DD	FLAT:??_EException@@UAEPAXI@Z
	DD	FLAT:?getName@Exception@@UBE?AV?$basic_string@DV?$char_traits@D@_STL@@V?$allocator@D@2@@_STL@@XZ
	DD	FLAT:?toString@Throwable@@UBE?AV?$basic_string@DV?$char_traits@D@_STL@@V?$allocator@D@2@@_STL@@XZ
CONST	ENDS
;	COMDAT ??_R4Exception@@6B@
rdata$r	SEGMENT
??_R4Exception@@6B@ DD 00H				; Exception::`RTTI Complete Object Locator'
	DD	00H
	DD	00H
	DD	FLAT:??_R0?AVException@@@8
	DD	FLAT:??_R3Exception@@8
rdata$r	ENDS
;	COMDAT ??_R0?AVException@@@8
_DATA	SEGMENT
??_R0?AVException@@@8 DD FLAT:??_7type_info@@6B@	; Exception `RTTI Type Descriptor'
	DD	00H
	DB	'.?AVException@@', 00H
	ORG $-24
	DD	FLAT:??_7type_info@@6B@
	DD	00H
	DB	'.?AVException@@', 00H
_DATA	ENDS
;	COMDAT ??_R3Exception@@8
rdata$r	SEGMENT
??_R3Exception@@8 DD 00H				; Exception::`RTTI Class Hierarchy Descriptor'
	DD	00H
	DD	02H
	DD	FLAT:??_R2Exception@@8
rdata$r	ENDS
;	COMDAT ??_R2Exception@@8
rdata$r	SEGMENT
??_R2Exception@@8 DD FLAT:??_R1A@?0A@A@Exception@@8	; Exception::`RTTI Base Class Array'
	DD	FLAT:??_R1A@?0A@A@Throwable@@8
rdata$r	ENDS
;	COMDAT ??_R1A@?0A@A@Exception@@8
rdata$r	SEGMENT
??_R1A@?0A@A@Exception@@8 DD FLAT:??_R0?AVException@@@8	; Exception::`RTTI Base Class Descriptor at (0,-1,0,0)'
	DD	01H
	DD	00H
	DD	0ffffffffH
	DD	00H
	DD	00H
; Function compile flags: /Ogsy
rdata$r	ENDS
;	COMDAT ??0Exception@@QAE@V?$basic_string@DV?$char_traits@D@_STL@@V?$allocator@D@2@@_STL@@@Z
_TEXT	SEGMENT
$T103521 = -4						; size = 4
_msg$ = 8						; size = 12
??0Exception@@QAE@V?$basic_string@DV?$char_traits@D@_STL@@V?$allocator@D@2@@_STL@@@Z PROC NEAR ; Exception::Exception, COMDAT
; _this$ = ecx

; 175  : 	Exception ( std::string msg ) throw () : Throwable(msg) {}

  00000	55		 push	 ebp
  00001	8b ec		 mov	 ebp, esp
  00003	51		 push	 ecx
  00004	56		 push	 esi
  00005	83 ec 0c	 sub	 esp, 12			; 0000000cH
  00008	8b f1		 mov	 esi, ecx
  0000a	8d 45 08	 lea	 eax, DWORD PTR _msg$[ebp]
  0000d	8b cc		 mov	 ecx, esp
  0000f	89 65 fc	 mov	 DWORD PTR $T103521[ebp], esp
  00012	50		 push	 eax
  00013	e8 00 00 00 00	 call	 ??0?$basic_string@DV?$char_traits@D@_STL@@V?$allocator@D@2@@_STL@@QAE@ABV01@@Z ; _STL::basic_string<char,_STL::char_traits<char>,_STL::allocator<char> >::basic_string<char,_STL::char_traits<char>,_STL::allocator<char> >
  00018	8b ce		 mov	 ecx, esi
  0001a	e8 00 00 00 00	 call	 ??0Throwable@@QAE@V?$basic_string@DV?$char_traits@D@_STL@@V?$allocator@D@2@@_STL@@@Z ; Throwable::Throwable
  0001f	8d 4d 08	 lea	 ecx, DWORD PTR _msg$[ebp]
  00022	c7 06 00 00 00
	00		 mov	 DWORD PTR [esi], OFFSET FLAT:??_7Exception@@6B@
  00028	e8 00 00 00 00	 call	 ??1?$basic_string@DV?$char_traits@D@_STL@@V?$allocator@D@2@@_STL@@QAE@XZ ; _STL::basic_string<char,_STL::char_traits<char>,_STL::allocator<char> >::~basic_string<char,_STL::char_traits<char>,_STL::allocator<char> >
  0002d	8b c6		 mov	 eax, esi
  0002f	5e		 pop	 esi
  00030	c9		 leave
  00031	c2 0c 00	 ret	 12			; 0000000cH
??0Exception@@QAE@V?$basic_string@DV?$char_traits@D@_STL@@V?$allocator@D@2@@_STL@@@Z ENDP ; Exception::Exception
_TEXT	ENDS
PUBLIC	??_C@_09FBNMMHMJ@Exception?$AA@			; `string'
;	COMDAT ??_C@_09FBNMMHMJ@Exception?$AA@
; File c:\stlport-4.6.1\stlport\stl\_alloc.h
CONST	SEGMENT
??_C@_09FBNMMHMJ@Exception?$AA@ DB 'Exception', 00H	; `string'
; Function compile flags: /Ogsy
; File c:\darkeden\designed_common\project\client\packet\exception.h
CONST	ENDS
;	COMDAT ?getName@Exception@@UBE?AV?$basic_string@DV?$char_traits@D@_STL@@V?$allocator@D@2@@_STL@@XZ
_TEXT	SEGMENT
___$ReturnUdt$ = 8					; size = 4
$T103524 = 11						; size = 1
?getName@Exception@@UBE?AV?$basic_string@DV?$char_traits@D@_STL@@V?$allocator@D@2@@_STL@@XZ PROC NEAR ; Exception::getName, COMDAT
; _this$ = ecx

; 176  : 	std::string getName () const throw () { return "Exception"; }

  00000	55		 push	 ebp
  00001	8b ec		 mov	 ebp, esp
  00003	8b 4d 08	 mov	 ecx, DWORD PTR ___$ReturnUdt$[ebp]
  00006	8d 45 0b	 lea	 eax, DWORD PTR $T103524[ebp]
  00009	50		 push	 eax
  0000a	68 00 00 00 00	 push	 OFFSET FLAT:??_C@_09FBNMMHMJ@Exception?$AA@
  0000f	e8 00 00 00 00	 call	 ??0?$basic_string@DV?$char_traits@D@_STL@@V?$allocator@D@2@@_STL@@QAE@PBDABV?$allocator@D@1@@Z ; _STL::basic_string<char,_STL::char_traits<char>,_STL::allocator<char> >::basic_string<char,_STL::char_traits<char>,_STL::allocator<char> >
  00014	8b 45 08	 mov	 eax, DWORD PTR ___$ReturnUdt$[ebp]
  00017	5d		 pop	 ebp
  00018	c2 04 00	 ret	 4
?getName@Exception@@UBE?AV?$basic_string@DV?$char_traits@D@_STL@@V?$allocator@D@2@@_STL@@XZ ENDP ; Exception::getName
_TEXT	ENDS
PUBLIC	??1Exception@@UAE@XZ				; Exception::~Exception
; Function compile flags: /Ogsy
;	COMDAT ??1Exception@@UAE@XZ
_TEXT	SEGMENT
??1Exception@@UAE@XZ PROC NEAR				; Exception::~Exception, COMDAT
; _this$ = ecx
  00000	e9 00 00 00 00	 jmp	 ??1Throwable@@UAE@XZ	; Throwable::~Throwable
??1Exception@@UAE@XZ ENDP				; Exception::~Exception
_TEXT	ENDS
PUBLIC	??0IOException@@QAE@V?$basic_string@DV?$char_traits@D@_STL@@V?$allocator@D@2@@_STL@@@Z ; IOException::IOException
PUBLIC	?getName@IOException@@UBE?AV?$basic_string@DV?$char_traits@D@_STL@@V?$allocator@D@2@@_STL@@XZ ; IOException::getName
PUBLIC	??_R4IOException@@6B@				; IOException::`RTTI Complete Object Locator'
PUBLIC	??_R3IOException@@8				; IOException::`RTTI Class Hierarchy Descriptor'
PUBLIC	??_R2IOException@@8				; IOException::`RTTI Base Class Array'
PUBLIC	??_7IOException@@6B@				; IOException::`vftable'
PUBLIC	??_GIOException@@UAEPAXI@Z			; IOException::`scalar deleting destructor'
PUBLIC	??_R1A@?0A@A@IOException@@8			; IOException::`RTTI Base Class Descriptor at (0,-1,0,0)'
PUBLIC	??_R0?AVIOException@@@8				; IOException `RTTI Type Descriptor'
EXTRN	??_EIOException@@UAEPAXI@Z:NEAR			; IOException::`vector deleting destructor'
;	COMDAT ??_7IOException@@6B@
CONST	SEGMENT
??_7IOException@@6B@ DD FLAT:??_R4IOException@@6B@	; IOException::`vftable'
	DD	FLAT:??_EIOException@@UAEPAXI@Z
	DD	FLAT:?getName@IOException@@UBE?AV?$basic_string@DV?$char_traits@D@_STL@@V?$allocator@D@2@@_STL@@XZ
	DD	FLAT:?toString@Throwable@@UBE?AV?$basic_string@DV?$char_traits@D@_STL@@V?$allocator@D@2@@_STL@@XZ
CONST	ENDS
;	COMDAT ??_R4IOException@@6B@
rdata$r	SEGMENT
??_R4IOException@@6B@ DD 00H				; IOException::`RTTI Complete Object Locator'
	DD	00H
	DD	00H
	DD	FLAT:??_R0?AVIOException@@@8
	DD	FLAT:??_R3IOException@@8
rdata$r	ENDS
;	COMDAT ??_R0?AVIOException@@@8
_DATA	SEGMENT
??_R0?AVIOException@@@8 DD FLAT:??_7type_info@@6B@	; IOException `RTTI Type Descriptor'
	DD	00H
	DB	'.?AVIOException@@', 00H
	ORG $-26
	DD	FLAT:??_7type_info@@6B@
	DD	00H
	DB	'.?AVIOException@@', 00H
_DATA	ENDS
;	COMDAT ??_R3IOException@@8
rdata$r	SEGMENT
??_R3IOException@@8 DD 00H				; IOException::`RTTI Class Hierarchy Descriptor'
	DD	00H
	DD	03H
	DD	FLAT:??_R2IOException@@8
rdata$r	ENDS
;	COMDAT ??_R2IOException@@8
rdata$r	SEGMENT
??_R2IOException@@8 DD FLAT:??_R1A@?0A@A@IOException@@8	; IOException::`RTTI Base Class Array'
	DD	FLAT:??_R1A@?0A@A@Exception@@8
	DD	FLAT:??_R1A@?0A@A@Throwable@@8
rdata$r	ENDS
;	COMDAT ??_R1A@?0A@A@IOException@@8
rdata$r	SEGMENT
??_R1A@?0A@A@IOException@@8 DD FLAT:??_R0?AVIOException@@@8 ; IOException::`RTTI Base Class Descriptor at (0,-1,0,0)'
	DD	02H
	DD	00H
	DD	0ffffffffH
	DD	00H
	DD	00H
; Function compile flags: /Ogsy
rdata$r	ENDS
;	COMDAT ??0IOException@@QAE@V?$basic_string@DV?$char_traits@D@_STL@@V?$allocator@D@2@@_STL@@@Z
_TEXT	SEGMENT
$T103536 = -4						; size = 4
_msg$ = 8						; size = 12
??0IOException@@QAE@V?$basic_string@DV?$char_traits@D@_STL@@V?$allocator@D@2@@_STL@@@Z PROC NEAR ; IOException::IOException, COMDAT
; _this$ = ecx

; 190  : 		IOException ( std::string msg ) throw () : Exception (msg) {}

  00000	55		 push	 ebp
  00001	8b ec		 mov	 ebp, esp
  00003	51		 push	 ecx
  00004	56		 push	 esi
  00005	83 ec 0c	 sub	 esp, 12			; 0000000cH
  00008	8b f1		 mov	 esi, ecx
  0000a	8d 45 08	 lea	 eax, DWORD PTR _msg$[ebp]
  0000d	8b cc		 mov	 ecx, esp
  0000f	89 65 fc	 mov	 DWORD PTR $T103536[ebp], esp
  00012	50		 push	 eax
  00013	e8 00 00 00 00	 call	 ??0?$basic_string@DV?$char_traits@D@_STL@@V?$allocator@D@2@@_STL@@QAE@ABV01@@Z ; _STL::basic_string<char,_STL::char_traits<char>,_STL::allocator<char> >::basic_string<char,_STL::char_traits<char>,_STL::allocator<char> >
  00018	8b ce		 mov	 ecx, esi
  0001a	e8 00 00 00 00	 call	 ??0Exception@@QAE@V?$basic_string@DV?$char_traits@D@_STL@@V?$allocator@D@2@@_STL@@@Z ; Exception::Exception
  0001f	8d 4d 08	 lea	 ecx, DWORD PTR _msg$[ebp]
  00022	c7 06 00 00 00
	00		 mov	 DWORD PTR [esi], OFFSET FLAT:??_7IOException@@6B@
  00028	e8 00 00 00 00	 call	 ??1?$basic_string@DV?$char_traits@D@_STL@@V?$allocator@D@2@@_STL@@QAE@XZ ; _STL::basic_string<char,_STL::char_traits<char>,_STL::allocator<char> >::~basic_string<char,_STL::char_traits<char>,_STL::allocator<char> >
  0002d	8b c6		 mov	 eax, esi
  0002f	5e		 pop	 esi
  00030	c9		 leave
  00031	c2 0c 00	 ret	 12			; 0000000cH
??0IOException@@QAE@V?$basic_string@DV?$char_traits@D@_STL@@V?$allocator@D@2@@_STL@@@Z ENDP ; IOException::IOException
_TEXT	ENDS
PUBLIC	??_C@_0M@CBPJAJJI@IOException?$AA@		; `string'
;	COMDAT ??_C@_0M@CBPJAJJI@IOException?$AA@
; File c:\stlport-4.6.1\stlport\stl\_alloc.h
CONST	SEGMENT
??_C@_0M@CBPJAJJI@IOException?$AA@ DB 'IOException', 00H ; `string'
; Function compile flags: /Ogsy
; File c:\darkeden\designed_common\project\client\packet\exception.h
CONST	ENDS
;	COMDAT ?getName@IOException@@UBE?AV?$basic_string@DV?$char_traits@D@_STL@@V?$allocator@D@2@@_STL@@XZ
_TEXT	SEGMENT
___$ReturnUdt$ = 8					; size = 4
$T103539 = 11						; size = 1
?getName@IOException@@UBE?AV?$basic_string@DV?$char_traits@D@_STL@@V?$allocator@D@2@@_STL@@XZ PROC NEAR ; IOException::getName, COMDAT
; _this$ = ecx

; 191  : 		std::string getName () const throw () { return "IOException"; }

  00000	55		 push	 ebp
  00001	8b ec		 mov	 ebp, esp
  00003	8b 4d 08	 mov	 ecx, DWORD PTR ___$ReturnUdt$[ebp]
  00006	8d 45 0b	 lea	 eax, DWORD PTR $T103539[ebp]
  00009	50		 push	 eax
  0000a	68 00 00 00 00	 push	 OFFSET FLAT:??_C@_0M@CBPJAJJI@IOException?$AA@
  0000f	e8 00 00 00 00	 call	 ??0?$basic_string@DV?$char_traits@D@_STL@@V?$allocator@D@2@@_STL@@QAE@PBDABV?$allocator@D@1@@Z ; _STL::basic_string<char,_STL::char_traits<char>,_STL::allocator<char> >::basic_string<char,_STL::char_traits<char>,_STL::allocator<char> >
  00014	8b 45 08	 mov	 eax, DWORD PTR ___$ReturnUdt$[ebp]
  00017	5d		 pop	 ebp
  00018	c2 04 00	 ret	 4
?getName@IOException@@UBE?AV?$basic_string@DV?$char_traits@D@_STL@@V?$allocator@D@2@@_STL@@XZ ENDP ; IOException::getName
_TEXT	ENDS
PUBLIC	??1IOException@@UAE@XZ				; IOException::~IOException
; Function compile flags: /Ogsy
;	COMDAT ??1IOException@@UAE@XZ
_TEXT	SEGMENT
??1IOException@@UAE@XZ PROC NEAR			; IOException::~IOException, COMDAT
; _this$ = ecx
  00000	e9 00 00 00 00	 jmp	 ??1Exception@@UAE@XZ
??1IOException@@UAE@XZ ENDP				; IOException::~IOException
_TEXT	ENDS
PUBLIC	??0ProtocolException@@QAE@V?$basic_string@DV?$char_traits@D@_STL@@V?$allocator@D@2@@_STL@@@Z ; ProtocolException::ProtocolException
PUBLIC	?getName@ProtocolException@@UBE?AV?$basic_string@DV?$char_traits@D@_STL@@V?$allocator@D@2@@_STL@@XZ ; ProtocolException::getName
PUBLIC	??_7ProtocolException@@6B@			; ProtocolException::`vftable'
PUBLIC	??_GProtocolException@@UAEPAXI@Z		; ProtocolException::`scalar deleting destructor'
PUBLIC	??_R1A@?0A@A@ProtocolException@@8		; ProtocolException::`RTTI Base Class Descriptor at (0,-1,0,0)'
PUBLIC	??_R0?AVProtocolException@@@8			; ProtocolException `RTTI Type Descriptor'
PUBLIC	??_R4ProtocolException@@6B@			; ProtocolException::`RTTI Complete Object Locator'
PUBLIC	??_R3ProtocolException@@8			; ProtocolException::`RTTI Class Hierarchy Descriptor'
PUBLIC	??_R2ProtocolException@@8			; ProtocolException::`RTTI Base Class Array'
EXTRN	??_EProtocolException@@UAEPAXI@Z:NEAR		; ProtocolException::`vector deleting destructor'
;	COMDAT ??_7ProtocolException@@6B@
CONST	SEGMENT
??_7ProtocolException@@6B@ DD FLAT:??_R4ProtocolException@@6B@ ; ProtocolException::`vftable'
	DD	FLAT:??_EProtocolException@@UAEPAXI@Z
	DD	FLAT:?getName@ProtocolException@@UBE?AV?$basic_string@DV?$char_traits@D@_STL@@V?$allocator@D@2@@_STL@@XZ
	DD	FLAT:?toString@Throwable@@UBE?AV?$basic_string@DV?$char_traits@D@_STL@@V?$allocator@D@2@@_STL@@XZ
CONST	ENDS
;	COMDAT ??_R4ProtocolException@@6B@
rdata$r	SEGMENT
??_R4ProtocolException@@6B@ DD 00H			; ProtocolException::`RTTI Complete Object Locator'
	DD	00H
	DD	00H
	DD	FLAT:??_R0?AVProtocolException@@@8
	DD	FLAT:??_R3ProtocolException@@8
rdata$r	ENDS
;	COMDAT ??_R0?AVProtocolException@@@8
_DATA	SEGMENT
??_R0?AVProtocolException@@@8 DD FLAT:??_7type_info@@6B@ ; ProtocolException `RTTI Type Descriptor'
	DD	00H
	DB	'.?AVProtocolException@@', 00H
	ORG $-32
	DD	FLAT:??_7type_info@@6B@
	DD	00H
	DB	'.?AVProtocolException@@', 00H
_DATA	ENDS
;	COMDAT ??_R3ProtocolException@@8
rdata$r	SEGMENT
??_R3ProtocolException@@8 DD 00H			; ProtocolException::`RTTI Class Hierarchy Descriptor'
	DD	00H
	DD	04H
	DD	FLAT:??_R2ProtocolException@@8
rdata$r	ENDS
;	COMDAT ??_R2ProtocolException@@8
rdata$r	SEGMENT
??_R2ProtocolException@@8 DD FLAT:??_R1A@?0A@A@ProtocolException@@8 ; ProtocolException::`RTTI Base Class Array'
	DD	FLAT:??_R1A@?0A@A@IOException@@8
	DD	FLAT:??_R1A@?0A@A@Exception@@8
	DD	FLAT:??_R1A@?0A@A@Throwable@@8
rdata$r	ENDS
;	COMDAT ??_R1A@?0A@A@ProtocolException@@8
rdata$r	SEGMENT
??_R1A@?0A@A@ProtocolException@@8 DD FLAT:??_R0?AVProtocolException@@@8 ; ProtocolException::`RTTI Base Class Descriptor at (0,-1,0,0)'
	DD	03H
	DD	00H
	DD	0ffffffffH
	DD	00H
	DD	00H
; Function compile flags: /Ogsy
rdata$r	ENDS
;	COMDAT ??0ProtocolException@@QAE@V?$basic_string@DV?$char_traits@D@_STL@@V?$allocator@D@2@@_STL@@@Z
_TEXT	SEGMENT
$T103551 = -4						; size = 4
_msg$ = 8						; size = 12
??0ProtocolException@@QAE@V?$basic_string@DV?$char_traits@D@_STL@@V?$allocator@D@2@@_STL@@@Z PROC NEAR ; ProtocolException::ProtocolException, COMDAT
; _this$ = ecx

; 338  : 			ProtocolException ( std::string msg ) throw () : IOException (msg) {}

  00000	55		 push	 ebp
  00001	8b ec		 mov	 ebp, esp
  00003	51		 push	 ecx
  00004	56		 push	 esi
  00005	83 ec 0c	 sub	 esp, 12			; 0000000cH
  00008	8b f1		 mov	 esi, ecx
  0000a	8d 45 08	 lea	 eax, DWORD PTR _msg$[ebp]
  0000d	8b cc		 mov	 ecx, esp
  0000f	89 65 fc	 mov	 DWORD PTR $T103551[ebp], esp
  00012	50		 push	 eax
  00013	e8 00 00 00 00	 call	 ??0?$basic_string@DV?$char_traits@D@_STL@@V?$allocator@D@2@@_STL@@QAE@ABV01@@Z ; _STL::basic_string<char,_STL::char_traits<char>,_STL::allocator<char> >::basic_string<char,_STL::char_traits<char>,_STL::allocator<char> >
  00018	8b ce		 mov	 ecx, esi
  0001a	e8 00 00 00 00	 call	 ??0IOException@@QAE@V?$basic_string@DV?$char_traits@D@_STL@@V?$allocator@D@2@@_STL@@@Z ; IOException::IOException
  0001f	8d 4d 08	 lea	 ecx, DWORD PTR _msg$[ebp]
  00022	c7 06 00 00 00
	00		 mov	 DWORD PTR [esi], OFFSET FLAT:??_7ProtocolException@@6B@
  00028	e8 00 00 00 00	 call	 ??1?$basic_string@DV?$char_traits@D@_STL@@V?$allocator@D@2@@_STL@@QAE@XZ ; _STL::basic_string<char,_STL::char_traits<char>,_STL::allocator<char> >::~basic_string<char,_STL::char_traits<char>,_STL::allocator<char> >
  0002d	8b c6		 mov	 eax, esi
  0002f	5e		 pop	 esi
  00030	c9		 leave
  00031	c2 0c 00	 ret	 12			; 0000000cH
??0ProtocolException@@QAE@V?$basic_string@DV?$char_traits@D@_STL@@V?$allocator@D@2@@_STL@@@Z ENDP ; ProtocolException::ProtocolException
_TEXT	ENDS
PUBLIC	??_C@_0BC@KDBIDNIF@ProtocolException?$AA@	; `string'
;	COMDAT ??_C@_0BC@KDBIDNIF@ProtocolException?$AA@
; File c:\stlport-4.6.1\stlport\stl\_alloc.h
CONST	SEGMENT
??_C@_0BC@KDBIDNIF@ProtocolException?$AA@ DB 'ProtocolException', 00H ; `string'
; Function compile flags: /Ogsy
; File c:\darkeden\designed_common\project\client\packet\exception.h
CONST	ENDS
;	COMDAT ?getName@ProtocolException@@UBE?AV?$basic_string@DV?$char_traits@D@_STL@@V?$allocator@D@2@@_STL@@XZ
_TEXT	SEGMENT
___$ReturnUdt$ = 8					; size = 4
$T103554 = 11						; size = 1
?getName@ProtocolException@@UBE?AV?$basic_string@DV?$char_traits@D@_STL@@V?$allocator@D@2@@_STL@@XZ PROC NEAR ; ProtocolException::getName, COMDAT
; _this$ = ecx

; 339  : 			std::string getName () const throw () { return "ProtocolException"; }

  00000	55		 push	 ebp
  00001	8b ec		 mov	 ebp, esp
  00003	8b 4d 08	 mov	 ecx, DWORD PTR ___$ReturnUdt$[ebp]
  00006	8d 45 0b	 lea	 eax, DWORD PTR $T103554[ebp]
  00009	50		 push	 eax
  0000a	68 00 00 00 00	 push	 OFFSET FLAT:??_C@_0BC@KDBIDNIF@ProtocolException?$AA@
  0000f	e8 00 00 00 00	 call	 ??0?$basic_string@DV?$char_traits@D@_STL@@V?$allocator@D@2@@_STL@@QAE@PBDABV?$allocator@D@1@@Z ; _STL::basic_string<char,_STL::char_traits<char>,_STL::allocator<char> >::basic_string<char,_STL::char_traits<char>,_STL::allocator<char> >
  00014	8b 45 08	 mov	 eax, DWORD PTR ___$ReturnUdt$[ebp]
  00017	5d		 pop	 ebp
  00018	c2 04 00	 ret	 4
?getName@ProtocolException@@UBE?AV?$basic_string@DV?$char_traits@D@_STL@@V?$allocator@D@2@@_STL@@XZ ENDP ; ProtocolException::getName
_TEXT	ENDS
PUBLIC	??1ProtocolException@@UAE@XZ			; ProtocolException::~ProtocolException
; Function compile flags: /Ogsy
;	COMDAT ??1ProtocolException@@UAE@XZ
_TEXT	SEGMENT
??1ProtocolException@@UAE@XZ PROC NEAR			; ProtocolException::~ProtocolException, COMDAT
; _this$ = ecx
  00000	e9 00 00 00 00	 jmp	 ??1IOException@@UAE@XZ
??1ProtocolException@@UAE@XZ ENDP			; ProtocolException::~ProtocolException
_TEXT	ENDS
PUBLIC	??0InvalidProtocolException@@QAE@V?$basic_string@DV?$char_traits@D@_STL@@V?$allocator@D@2@@_STL@@@Z ; InvalidProtocolException::InvalidProtocolException
PUBLIC	?getName@InvalidProtocolException@@UBE?AV?$basic_string@DV?$char_traits@D@_STL@@V?$allocator@D@2@@_STL@@XZ ; InvalidProtocolException::getName
PUBLIC	??_7InvalidProtocolException@@6B@		; InvalidProtocolException::`vftable'
PUBLIC	??_GInvalidProtocolException@@UAEPAXI@Z		; InvalidProtocolException::`scalar deleting destructor'
PUBLIC	??_R4InvalidProtocolException@@6B@		; InvalidProtocolException::`RTTI Complete Object Locator'
PUBLIC	??_R0?AVInvalidProtocolException@@@8		; InvalidProtocolException `RTTI Type Descriptor'
PUBLIC	??_R3InvalidProtocolException@@8		; InvalidProtocolException::`RTTI Class Hierarchy Descriptor'
PUBLIC	??_R2InvalidProtocolException@@8		; InvalidProtocolException::`RTTI Base Class Array'
PUBLIC	??_R1A@?0A@A@InvalidProtocolException@@8	; InvalidProtocolException::`RTTI Base Class Descriptor at (0,-1,0,0)'
EXTRN	??_EInvalidProtocolException@@UAEPAXI@Z:NEAR	; InvalidProtocolException::`vector deleting destructor'
;	COMDAT ??_7InvalidProtocolException@@6B@
CONST	SEGMENT
??_7InvalidProtocolException@@6B@ DD FLAT:??_R4InvalidProtocolException@@6B@ ; InvalidProtocolException::`vftable'
	DD	FLAT:??_EInvalidProtocolException@@UAEPAXI@Z
	DD	FLAT:?getName@InvalidProtocolException@@UBE?AV?$basic_string@DV?$char_traits@D@_STL@@V?$allocator@D@2@@_STL@@XZ
	DD	FLAT:?toString@Throwable@@UBE?AV?$basic_string@DV?$char_traits@D@_STL@@V?$allocator@D@2@@_STL@@XZ
CONST	ENDS
;	COMDAT ??_R4InvalidProtocolException@@6B@
rdata$r	SEGMENT
??_R4InvalidProtocolException@@6B@ DD 00H		; InvalidProtocolException::`RTTI Complete Object Locator'
	DD	00H
	DD	00H
	DD	FLAT:??_R0?AVInvalidProtocolException@@@8
	DD	FLAT:??_R3InvalidProtocolException@@8
rdata$r	ENDS
;	COMDAT ??_R0?AVInvalidProtocolException@@@8
_DATA	SEGMENT
??_R0?AVInvalidProtocolException@@@8 DD FLAT:??_7type_info@@6B@ ; InvalidProtocolException `RTTI Type Descriptor'
	DD	00H
	DB	'.?AVInvalidProtocolException@@', 00H
	ORG $-39
	DD	FLAT:??_7type_info@@6B@
	DD	00H
	DB	'.?AVInvalidProtocolException@@', 00H
_DATA	ENDS
;	COMDAT ??_R3InvalidProtocolException@@8
rdata$r	SEGMENT
??_R3InvalidProtocolException@@8 DD 00H			; InvalidProtocolException::`RTTI Class Hierarchy Descriptor'
	DD	00H
	DD	05H
	DD	FLAT:??_R2InvalidProtocolException@@8
rdata$r	ENDS
;	COMDAT ??_R2InvalidProtocolException@@8
rdata$r	SEGMENT
??_R2InvalidProtocolException@@8 DD FLAT:??_R1A@?0A@A@InvalidProtocolException@@8 ; InvalidProtocolException::`RTTI Base Class Array'
	DD	FLAT:??_R1A@?0A@A@ProtocolException@@8
	DD	FLAT:??_R1A@?0A@A@IOException@@8
	DD	FLAT:??_R1A@?0A@A@Exception@@8
	DD	FLAT:??_R1A@?0A@A@Throwable@@8
rdata$r	ENDS
;	COMDAT ??_R1A@?0A@A@InvalidProtocolException@@8
rdata$r	SEGMENT
??_R1A@?0A@A@InvalidProtocolException@@8 DD FLAT:??_R0?AVInvalidProtocolException@@@8 ; InvalidProtocolException::`RTTI Base Class Descriptor at (0,-1,0,0)'
	DD	04H
	DD	00H
	DD	0ffffffffH
	DD	00H
	DD	00H
; Function compile flags: /Ogsy
rdata$r	ENDS
;	COMDAT ??0InvalidProtocolException@@QAE@V?$basic_string@DV?$char_traits@D@_STL@@V?$allocator@D@2@@_STL@@@Z
_TEXT	SEGMENT
$T103566 = -4						; size = 4
_msg$ = 8						; size = 12
??0InvalidProtocolException@@QAE@V?$basic_string@DV?$char_traits@D@_STL@@V?$allocator@D@2@@_STL@@@Z PROC NEAR ; InvalidProtocolException::InvalidProtocolException, COMDAT
; _this$ = ecx

; 367  : 				InvalidProtocolException ( std::string msg ) throw () : ProtocolException (msg) {}

  00000	55		 push	 ebp
  00001	8b ec		 mov	 ebp, esp
  00003	51		 push	 ecx
  00004	56		 push	 esi
  00005	83 ec 0c	 sub	 esp, 12			; 0000000cH
  00008	8b f1		 mov	 esi, ecx
  0000a	8d 45 08	 lea	 eax, DWORD PTR _msg$[ebp]
  0000d	8b cc		 mov	 ecx, esp
  0000f	89 65 fc	 mov	 DWORD PTR $T103566[ebp], esp
  00012	50		 push	 eax
  00013	e8 00 00 00 00	 call	 ??0?$basic_string@DV?$char_traits@D@_STL@@V?$allocator@D@2@@_STL@@QAE@ABV01@@Z ; _STL::basic_string<char,_STL::char_traits<char>,_STL::allocator<char> >::basic_string<char,_STL::char_traits<char>,_STL::allocator<char> >
  00018	8b ce		 mov	 ecx, esi
  0001a	e8 00 00 00 00	 call	 ??0ProtocolException@@QAE@V?$basic_string@DV?$char_traits@D@_STL@@V?$allocator@D@2@@_STL@@@Z ; ProtocolException::ProtocolException
  0001f	8d 4d 08	 lea	 ecx, DWORD PTR _msg$[ebp]
  00022	c7 06 00 00 00
	00		 mov	 DWORD PTR [esi], OFFSET FLAT:??_7InvalidProtocolException@@6B@
  00028	e8 00 00 00 00	 call	 ??1?$basic_string@DV?$char_traits@D@_STL@@V?$allocator@D@2@@_STL@@QAE@XZ ; _STL::basic_string<char,_STL::char_traits<char>,_STL::allocator<char> >::~basic_string<char,_STL::char_traits<char>,_STL::allocator<char> >
  0002d	8b c6		 mov	 eax, esi
  0002f	5e		 pop	 esi
  00030	c9		 leave
  00031	c2 0c 00	 ret	 12			; 0000000cH
??0InvalidProtocolException@@QAE@V?$basic_string@DV?$char_traits@D@_STL@@V?$allocator@D@2@@_STL@@@Z ENDP ; InvalidProtocolException::InvalidProtocolException
_TEXT	ENDS
PUBLIC	??_C@_0BJ@BKELNFKP@InvalidProtocolException?$AA@ ; `string'
;	COMDAT ??_C@_0BJ@BKELNFKP@InvalidProtocolException?$AA@
; File c:\stlport-4.6.1\stlport\stl\_alloc.h
CONST	SEGMENT
??_C@_0BJ@BKELNFKP@InvalidProtocolException?$AA@ DB 'InvalidProtocolExcep'
	DB	'tion', 00H					; `string'
; Function compile flags: /Ogsy
; File c:\darkeden\designed_common\project\client\packet\exception.h
CONST	ENDS
;	COMDAT ?getName@InvalidProtocolException@@UBE?AV?$basic_string@DV?$char_traits@D@_STL@@V?$allocator@D@2@@_STL@@XZ
_TEXT	SEGMENT
___$ReturnUdt$ = 8					; size = 4
$T103569 = 11						; size = 1
?getName@InvalidProtocolException@@UBE?AV?$basic_string@DV?$char_traits@D@_STL@@V?$allocator@D@2@@_STL@@XZ PROC NEAR ; InvalidProtocolException::getName, COMDAT
; _this$ = ecx

; 368  : 				std::string getName () const throw () { return "InvalidProtocolException"; }

  00000	55		 push	 ebp
  00001	8b ec		 mov	 ebp, esp
  00003	8b 4d 08	 mov	 ecx, DWORD PTR ___$ReturnUdt$[ebp]
  00006	8d 45 0b	 lea	 eax, DWORD PTR $T103569[ebp]
  00009	50		 push	 eax
  0000a	68 00 00 00 00	 push	 OFFSET FLAT:??_C@_0BJ@BKELNFKP@InvalidProtocolException?$AA@
  0000f	e8 00 00 00 00	 call	 ??0?$basic_string@DV?$char_traits@D@_STL@@V?$allocator@D@2@@_STL@@QAE@PBDABV?$allocator@D@1@@Z ; _STL::basic_string<char,_STL::char_traits<char>,_STL::allocator<char> >::basic_string<char,_STL::char_traits<char>,_STL::allocator<char> >
  00014	8b 45 08	 mov	 eax, DWORD PTR ___$ReturnUdt$[ebp]
  00017	5d		 pop	 ebp
  00018	c2 04 00	 ret	 4
?getName@InvalidProtocolException@@UBE?AV?$basic_string@DV?$char_traits@D@_STL@@V?$allocator@D@2@@_STL@@XZ ENDP ; InvalidProtocolException::getName
_TEXT	ENDS
PUBLIC	??1InvalidProtocolException@@UAE@XZ		; InvalidProtocolException::~InvalidProtocolException
; Function compile flags: /Ogsy
;	COMDAT ??1InvalidProtocolException@@UAE@XZ
_TEXT	SEGMENT
??1InvalidProtocolException@@UAE@XZ PROC NEAR		; InvalidProtocolException::~InvalidProtocolException, COMDAT
; _this$ = ecx
  00000	e9 00 00 00 00	 jmp	 ??1ProtocolException@@UAE@XZ
??1InvalidProtocolException@@UAE@XZ ENDP		; InvalidProtocolException::~InvalidProtocolException
_TEXT	ENDS
PUBLIC	??0?$list@V?$basic_string@DV?$char_traits@D@_STL@@V?$allocator@D@2@@_STL@@V?$allocator@V?$basic_string@DV?$char_traits@D@_STL@@V?$allocator@D@2@@_STL@@@2@@_STL@@QAE@ABV01@@Z ; _STL::list<_STL::basic_string<char,_STL::char_traits<char>,_STL::allocator<char> >,_STL::allocator<_STL::basic_string<char,_STL::char_traits<char>,_STL::allocator<char> > > >::list<_STL::basic_string<char,_STL::char_traits<char>,_STL::allocator<char> >,_STL::allocator<_STL::basic_string<char,_STL::char_traits<char>,_STL::allocator<char> > > >
;	COMDAT xdata$x
; File c:\stlport-4.6.1\stlport\stl\_list.h
xdata$x	SEGMENT
$T103641 DD	0ffffffffH
	DD	FLAT:$L103585
$T103639 DD	019930520H
	DD	01H
	DD	FLAT:$T103641
	DD	2 DUP(00H)
	DD	2 DUP(00H)
; Function compile flags: /Ogsy
xdata$x	ENDS
;	COMDAT ??0?$list@V?$basic_string@DV?$char_traits@D@_STL@@V?$allocator@D@2@@_STL@@V?$allocator@V?$basic_string@DV?$char_traits@D@_STL@@V?$allocator@D@2@@_STL@@@2@@_STL@@QAE@ABV01@@Z
_TEXT	SEGMENT
$T103584 = -20						; size = 4
_this$ = -16						; size = 4
__$EHRec$ = -12						; size = 12
___x$ = 8						; size = 4
$T103581 = 11						; size = 1
??0?$list@V?$basic_string@DV?$char_traits@D@_STL@@V?$allocator@D@2@@_STL@@V?$allocator@V?$basic_string@DV?$char_traits@D@_STL@@V?$allocator@D@2@@_STL@@@2@@_STL@@QAE@ABV01@@Z PROC NEAR ; _STL::list<_STL::basic_string<char,_STL::char_traits<char>,_STL::allocator<char> >,_STL::allocator<_STL::basic_string<char,_STL::char_traits<char>,_STL::allocator<char> > > >::list<_STL::basic_string<char,_STL::char_traits<char>,_STL::allocator<char> >,_STL::allocator<_STL::basic_string<char,_STL::char_traits<char>,_STL::allocator<char> > > >, COMDAT
; _this$ = ecx

; 414  :     { insert(begin(), __x.begin(), __x.end()); }

  00000	b8 00 00 00 00	 mov	 eax, __ehhandler$??0?$list@V?$basic_string@DV?$char_traits@D@_STL@@V?$allocator@D@2@@_STL@@V?$allocator@V?$basic_string@DV?$char_traits@D@_STL@@V?$allocator@D@2@@_STL@@@2@@_STL@@QAE@ABV01@@Z
  00005	e8 00 00 00 00	 call	 __EH_prolog
  0000a	51		 push	 ecx
  0000b	51		 push	 ecx
  0000c	56		 push	 esi
  0000d	57		 push	 edi
  0000e	8b 7d 08	 mov	 edi, DWORD PTR ___x$[ebp]
  00011	8b f1		 mov	 esi, ecx
  00013	8d 45 0b	 lea	 eax, DWORD PTR $T103581[ebp]
  00016	50		 push	 eax
  00017	8b cf		 mov	 ecx, edi
  00019	89 75 f0	 mov	 DWORD PTR _this$[ebp], esi
  0001c	e8 00 00 00 00	 call	 ?get_allocator@?$_List_base@V?$basic_string@DV?$char_traits@D@_STL@@V?$allocator@D@2@@_STL@@V?$allocator@V?$basic_string@DV?$char_traits@D@_STL@@V?$allocator@D@2@@_STL@@@2@@_STL@@QBE?AV?$allocator@V?$basic_string@DV?$char_traits@D@_STL@@V?$allocator@D@2@@_STL@@@2@XZ ; _STL::_List_base<_STL::basic_string<char,_STL::char_traits<char>,_STL::allocator<char> >,_STL::allocator<_STL::basic_string<char,_STL::char_traits<char>,_STL::allocator<char> > > >::get_allocator
  00021	50		 push	 eax
  00022	8b ce		 mov	 ecx, esi
  00024	e8 00 00 00 00	 call	 ??0?$_List_base@V?$basic_string@DV?$char_traits@D@_STL@@V?$allocator@D@2@@_STL@@V?$allocator@V?$basic_string@DV?$char_traits@D@_STL@@V?$allocator@D@2@@_STL@@@2@@_STL@@QAE@ABV?$allocator@V?$basic_string@DV?$char_traits@D@_STL@@V?$allocator@D@2@@_STL@@@1@@Z ; _STL::_List_base<_STL::basic_string<char,_STL::char_traits<char>,_STL::allocator<char> >,_STL::allocator<_STL::basic_string<char,_STL::char_traits<char>,_STL::allocator<char> > > >::_List_base<_STL::basic_string<char,_STL::char_traits<char>,_STL::allocator<char> >,_STL::allocator<_STL::basic_string<char,_STL::char_traits<char>,_STL::allocator<char> > > >
  00029	8b 07		 mov	 eax, DWORD PTR [edi]
  0002b	8b 08		 mov	 ecx, DWORD PTR [eax]
  0002d	83 65 fc 00	 and	 DWORD PTR __$EHRec$[ebp+8], 0
  00031	50		 push	 eax
  00032	51		 push	 ecx
  00033	51		 push	 ecx
  00034	8b 0e		 mov	 ecx, DWORD PTR [esi]
  00036	8b 09		 mov	 ecx, DWORD PTR [ecx]
  00038	8b c4		 mov	 eax, esp
  0003a	89 08		 mov	 DWORD PTR [eax], ecx
  0003c	8b ce		 mov	 ecx, esi
  0003e	89 65 ec	 mov	 DWORD PTR $T103584[ebp], esp
  00041	e8 00 00 00 00	 call	 ??$insert@U?$_List_iterator@V?$basic_string@DV?$char_traits@D@_STL@@V?$allocator@D@2@@_STL@@U?$_Const_traits@V?$basic_string@DV?$char_traits@D@_STL@@V?$allocator@D@2@@_STL@@@2@@_STL@@@?$list@V?$basic_string@DV?$char_traits@D@_STL@@V?$allocator@D@2@@_STL@@V?$allocator@V?$basic_string@DV?$char_traits@D@_STL@@V?$allocator@D@2@@_STL@@@2@@_STL@@QAEXU?$_List_iterator@V?$basic_string@DV?$char_traits@D@_STL@@V?$allocator@D@2@@_STL@@U?$_Nonconst_traits@V?$basic_string@DV?$char_traits@D@_STL@@V?$allocator@D@2@@_STL@@@2@@1@U?$_List_iterator@V?$basic_string@DV?$char_traits@D@_STL@@V?$allocator@D@2@@_STL@@U?$_Const_traits@V?$basic_string@DV?$char_traits@D@_STL@@V?$allocator@D@2@@_STL@@@2@@1@1@Z ; _STL::list<_STL::basic_string<char,_STL::char_traits<char>,_STL::allocator<char> >,_STL::allocator<_STL::basic_string<char,_STL::char_traits<char>,_STL::allocator<char> > > >::insert<_STL::_List_iterator<_STL::basic_string<char,_STL::char_traits<char>,_STL::allocator<char> >,_STL::_Const_traits<_STL::basic_string<char,_STL::char_traits<char>,_STL::allocator<char> > > > >
  00046	8b 4d f4	 mov	 ecx, DWORD PTR __$EHRec$[ebp]
  00049	5f		 pop	 edi
  0004a	8b c6		 mov	 eax, esi
  0004c	64 89 0d 00 00
	00 00		 mov	 DWORD PTR fs:__except_list, ecx
  00053	5e		 pop	 esi
  00054	c9		 leave
  00055	c2 04 00	 ret	 4
_TEXT	ENDS
;	COMDAT text$x
text$x	SEGMENT
$L103585:
  00000	8b 4d f0	 mov	 ecx, DWORD PTR _this$[ebp]
  00003	e9 00 00 00 00	 jmp	 ??1?$_List_base@V?$basic_string@DV?$char_traits@D@_STL@@V?$allocator@D@2@@_STL@@V?$allocator@V?$basic_string@DV?$char_traits@D@_STL@@V?$allocator@D@2@@_STL@@@2@@_STL@@QAE@XZ ; _STL::_List_base<_STL::basic_string<char,_STL::char_traits<char>,_STL::allocator<char> >,_STL::allocator<_STL::basic_string<char,_STL::char_traits<char>,_STL::allocator<char> > > >::~_List_base<_STL::basic_string<char,_STL::char_traits<char>,_STL::allocator<char> >,_STL::allocator<_STL::basic_string<char,_STL::char_traits<char>,_STL::allocator<char> > > >
__ehhandler$??0?$list@V?$basic_string@DV?$char_traits@D@_STL@@V?$allocator@D@2@@_STL@@V?$allocator@V?$basic_string@DV?$char_traits@D@_STL@@V?$allocator@D@2@@_STL@@@2@@_STL@@QAE@ABV01@@Z:
  00008	b8 00 00 00 00	 mov	 eax, OFFSET FLAT:$T103639
  0000d	e9 00 00 00 00	 jmp	 ___CxxFrameHandler
text$x	ENDS
??0?$list@V?$basic_string@DV?$char_traits@D@_STL@@V?$allocator@D@2@@_STL@@V?$allocator@V?$basic_string@DV?$char_traits@D@_STL@@V?$allocator@D@2@@_STL@@@2@@_STL@@QAE@ABV01@@Z ENDP ; _STL::list<_STL::basic_string<char,_STL::char_traits<char>,_STL::allocator<char> >,_STL::allocator<_STL::basic_string<char,_STL::char_traits<char>,_STL::allocator<char> > > >::list<_STL::basic_string<char,_STL::char_traits<char>,_STL::allocator<char> >,_STL::allocator<_STL::basic_string<char,_STL::char_traits<char>,_STL::allocator<char> > > >
; Function compile flags: /Ogsy
;	COMDAT ??_GException@@UAEPAXI@Z
_TEXT	SEGMENT
___flags$ = 8						; size = 4
??_GException@@UAEPAXI@Z PROC NEAR			; Exception::`scalar deleting destructor', COMDAT
; _this$ = ecx
  00000	56		 push	 esi
  00001	8b f1		 mov	 esi, ecx
  00003	e8 00 00 00 00	 call	 ??1Exception@@UAE@XZ
  00008	f6 44 24 08 01	 test	 BYTE PTR ___flags$[esp], 1
  0000d	74 07		 je	 SHORT $L88063
  0000f	56		 push	 esi
  00010	e8 00 00 00 00	 call	 ??3@YAXPAX@Z		; operator delete
  00015	59		 pop	 ecx
$L88063:
  00016	8b c6		 mov	 eax, esi
  00018	5e		 pop	 esi
  00019	c2 04 00	 ret	 4
??_GException@@UAEPAXI@Z ENDP				; Exception::`scalar deleting destructor'
; Function compile flags: /Ogsy
_TEXT	ENDS
;	COMDAT ??_GIOException@@UAEPAXI@Z
_TEXT	SEGMENT
___flags$ = 8						; size = 4
??_GIOException@@UAEPAXI@Z PROC NEAR			; IOException::`scalar deleting destructor', COMDAT
; _this$ = ecx
  00000	56		 push	 esi
  00001	8b f1		 mov	 esi, ecx
  00003	e8 00 00 00 00	 call	 ??1IOException@@UAE@XZ
  00008	f6 44 24 08 01	 test	 BYTE PTR ___flags$[esp], 1
  0000d	74 07		 je	 SHORT $L88096
  0000f	56		 push	 esi
  00010	e8 00 00 00 00	 call	 ??3@YAXPAX@Z		; operator delete
  00015	59		 pop	 ecx
$L88096:
  00016	8b c6		 mov	 eax, esi
  00018	5e		 pop	 esi
  00019	c2 04 00	 ret	 4
??_GIOException@@UAEPAXI@Z ENDP				; IOException::`scalar deleting destructor'
; Function compile flags: /Ogsy
_TEXT	ENDS
;	COMDAT ??_GProtocolException@@UAEPAXI@Z
_TEXT	SEGMENT
___flags$ = 8						; size = 4
??_GProtocolException@@UAEPAXI@Z PROC NEAR		; ProtocolException::`scalar deleting destructor', COMDAT
; _this$ = ecx
  00000	56		 push	 esi
  00001	8b f1		 mov	 esi, ecx
  00003	e8 00 00 00 00	 call	 ??1ProtocolException@@UAE@XZ
  00008	f6 44 24 08 01	 test	 BYTE PTR ___flags$[esp], 1
  0000d	74 07		 je	 SHORT $L88459
  0000f	56		 push	 esi
  00010	e8 00 00 00 00	 call	 ??3@YAXPAX@Z		; operator delete
  00015	59		 pop	 ecx
$L88459:
  00016	8b c6		 mov	 eax, esi
  00018	5e		 pop	 esi
  00019	c2 04 00	 ret	 4
??_GProtocolException@@UAEPAXI@Z ENDP			; ProtocolException::`scalar deleting destructor'
; Function compile flags: /Ogsy
_TEXT	ENDS
;	COMDAT ??_GInvalidProtocolException@@UAEPAXI@Z
_TEXT	SEGMENT
___flags$ = 8						; size = 4
??_GInvalidProtocolException@@UAEPAXI@Z PROC NEAR	; InvalidProtocolException::`scalar deleting destructor', COMDAT
; _this$ = ecx
  00000	56		 push	 esi
  00001	8b f1		 mov	 esi, ecx
  00003	e8 00 00 00 00	 call	 ??1InvalidProtocolException@@UAE@XZ
  00008	f6 44 24 08 01	 test	 BYTE PTR ___flags$[esp], 1
  0000d	74 07		 je	 SHORT $L88525
  0000f	56		 push	 esi
  00010	e8 00 00 00 00	 call	 ??3@YAXPAX@Z		; operator delete
  00015	59		 pop	 ecx
$L88525:
  00016	8b c6		 mov	 eax, esi
  00018	5e		 pop	 esi
  00019	c2 04 00	 ret	 4
??_GInvalidProtocolException@@UAEPAXI@Z ENDP		; InvalidProtocolException::`scalar deleting destructor'
_TEXT	ENDS
PUBLIC	??0Throwable@@QAE@ABV0@@Z			; Throwable::Throwable
;	COMDAT xdata$x
xdata$x	SEGMENT
$T103663 DD	0ffffffffH
	DD	FLAT:$L103658
$T103661 DD	019930520H
	DD	01H
	DD	FLAT:$T103663
	DD	2 DUP(00H)
	DD	2 DUP(00H)
; Function compile flags: /Ogsy
xdata$x	ENDS
;	COMDAT ??0Throwable@@QAE@ABV0@@Z
_TEXT	SEGMENT
_this$ = -16						; size = 4
__$EHRec$ = -12						; size = 12
___that$ = 8						; size = 4
??0Throwable@@QAE@ABV0@@Z PROC NEAR			; Throwable::Throwable, COMDAT
; _this$ = ecx
  00000	b8 00 00 00 00	 mov	 eax, __ehhandler$??0Throwable@@QAE@ABV0@@Z
  00005	e8 00 00 00 00	 call	 __EH_prolog
  0000a	51		 push	 ecx
  0000b	56		 push	 esi
  0000c	57		 push	 edi
  0000d	8b 7d 08	 mov	 edi, DWORD PTR ___that$[ebp]
  00010	8b f1		 mov	 esi, ecx
  00012	8d 47 04	 lea	 eax, DWORD PTR [edi+4]
  00015	50		 push	 eax
  00016	8d 4e 04	 lea	 ecx, DWORD PTR [esi+4]
  00019	89 75 f0	 mov	 DWORD PTR _this$[ebp], esi
  0001c	c7 06 00 00 00
	00		 mov	 DWORD PTR [esi], OFFSET FLAT:??_7Throwable@@6B@
  00022	e8 00 00 00 00	 call	 ??0?$basic_string@DV?$char_traits@D@_STL@@V?$allocator@D@2@@_STL@@QAE@ABV01@@Z ; _STL::basic_string<char,_STL::char_traits<char>,_STL::allocator<char> >::basic_string<char,_STL::char_traits<char>,_STL::allocator<char> >
  00027	83 65 fc 00	 and	 DWORD PTR __$EHRec$[ebp+8], 0
  0002b	83 c7 10	 add	 edi, 16			; 00000010H
  0002e	57		 push	 edi
  0002f	8d 4e 10	 lea	 ecx, DWORD PTR [esi+16]
  00032	e8 00 00 00 00	 call	 ??0?$list@V?$basic_string@DV?$char_traits@D@_STL@@V?$allocator@D@2@@_STL@@V?$allocator@V?$basic_string@DV?$char_traits@D@_STL@@V?$allocator@D@2@@_STL@@@2@@_STL@@QAE@ABV01@@Z ; _STL::list<_STL::basic_string<char,_STL::char_traits<char>,_STL::allocator<char> >,_STL::allocator<_STL::basic_string<char,_STL::char_traits<char>,_STL::allocator<char> > > >::list<_STL::basic_string<char,_STL::char_traits<char>,_STL::allocator<char> >,_STL::allocator<_STL::basic_string<char,_STL::char_traits<char>,_STL::allocator<char> > > >
  00037	8b 4d f4	 mov	 ecx, DWORD PTR __$EHRec$[ebp]
  0003a	5f		 pop	 edi
  0003b	8b c6		 mov	 eax, esi
  0003d	5e		 pop	 esi
  0003e	64 89 0d 00 00
	00 00		 mov	 DWORD PTR fs:__except_list, ecx
  00045	c9		 leave
  00046	c2 04 00	 ret	 4
_TEXT	ENDS
;	COMDAT text$x
text$x	SEGMENT
$L103658:
  00000	8b 4d f0	 mov	 ecx, DWORD PTR _this$[ebp]
  00003	83 c1 04	 add	 ecx, 4
  00006	e9 00 00 00 00	 jmp	 ??1?$basic_string@DV?$char_traits@D@_STL@@V?$allocator@D@2@@_STL@@QAE@XZ ; _STL::basic_string<char,_STL::char_traits<char>,_STL::allocator<char> >::~basic_string<char,_STL::char_traits<char>,_STL::allocator<char> >
__ehhandler$??0Throwable@@QAE@ABV0@@Z:
  0000b	b8 00 00 00 00	 mov	 eax, OFFSET FLAT:$T103661
  00010	e9 00 00 00 00	 jmp	 ___CxxFrameHandler
text$x	ENDS
??0Throwable@@QAE@ABV0@@Z ENDP				; Throwable::Throwable
PUBLIC	??0Exception@@QAE@ABV0@@Z			; Exception::Exception
; Function compile flags: /Ogsy
;	COMDAT ??0Exception@@QAE@ABV0@@Z
_TEXT	SEGMENT
___that$ = 8						; size = 4
??0Exception@@QAE@ABV0@@Z PROC NEAR			; Exception::Exception, COMDAT
; _this$ = ecx
  00000	56		 push	 esi
  00001	ff 74 24 08	 push	 DWORD PTR ___that$[esp]
  00005	8b f1		 mov	 esi, ecx
  00007	e8 00 00 00 00	 call	 ??0Throwable@@QAE@ABV0@@Z
  0000c	c7 06 00 00 00
	00		 mov	 DWORD PTR [esi], OFFSET FLAT:??_7Exception@@6B@
  00012	8b c6		 mov	 eax, esi
  00014	5e		 pop	 esi
  00015	c2 04 00	 ret	 4
??0Exception@@QAE@ABV0@@Z ENDP				; Exception::Exception
_TEXT	ENDS
PUBLIC	??0IOException@@QAE@ABV0@@Z			; IOException::IOException
; Function compile flags: /Ogsy
;	COMDAT ??0IOException@@QAE@ABV0@@Z
_TEXT	SEGMENT
___that$ = 8						; size = 4
??0IOException@@QAE@ABV0@@Z PROC NEAR			; IOException::IOException, COMDAT
; _this$ = ecx
  00000	56		 push	 esi
  00001	ff 74 24 08	 push	 DWORD PTR ___that$[esp]
  00005	8b f1		 mov	 esi, ecx
  00007	e8 00 00 00 00	 call	 ??0Exception@@QAE@ABV0@@Z
  0000c	c7 06 00 00 00
	00		 mov	 DWORD PTR [esi], OFFSET FLAT:??_7IOException@@6B@
  00012	8b c6		 mov	 eax, esi
  00014	5e		 pop	 esi
  00015	c2 04 00	 ret	 4
??0IOException@@QAE@ABV0@@Z ENDP			; IOException::IOException
_TEXT	ENDS
PUBLIC	??0ProtocolException@@QAE@ABV0@@Z		; ProtocolException::ProtocolException
; Function compile flags: /Ogsy
;	COMDAT ??0ProtocolException@@QAE@ABV0@@Z
_TEXT	SEGMENT
___that$ = 8						; size = 4
??0ProtocolException@@QAE@ABV0@@Z PROC NEAR		; ProtocolException::ProtocolException, COMDAT
; _this$ = ecx
  00000	56		 push	 esi
  00001	ff 74 24 08	 push	 DWORD PTR ___that$[esp]
  00005	8b f1		 mov	 esi, ecx
  00007	e8 00 00 00 00	 call	 ??0IOException@@QAE@ABV0@@Z
  0000c	c7 06 00 00 00
	00		 mov	 DWORD PTR [esi], OFFSET FLAT:??_7ProtocolException@@6B@
  00012	8b c6		 mov	 eax, esi
  00014	5e		 pop	 esi
  00015	c2 04 00	 ret	 4
??0ProtocolException@@QAE@ABV0@@Z ENDP			; ProtocolException::ProtocolException
_TEXT	ENDS
PUBLIC	??0InvalidProtocolException@@QAE@ABV0@@Z	; InvalidProtocolException::InvalidProtocolException
; Function compile flags: /Ogsy
;	COMDAT ??0InvalidProtocolException@@QAE@ABV0@@Z
_TEXT	SEGMENT
___that$ = 8						; size = 4
??0InvalidProtocolException@@QAE@ABV0@@Z PROC NEAR	; InvalidProtocolException::InvalidProtocolException, COMDAT
; _this$ = ecx
  00000	56		 push	 esi
  00001	ff 74 24 08	 push	 DWORD PTR ___that$[esp]
  00005	8b f1		 mov	 esi, ecx
  00007	e8 00 00 00 00	 call	 ??0ProtocolException@@QAE@ABV0@@Z
  0000c	c7 06 00 00 00
	00		 mov	 DWORD PTR [esi], OFFSET FLAT:??_7InvalidProtocolException@@6B@
  00012	8b c6		 mov	 eax, esi
  00014	5e		 pop	 esi
  00015	c2 04 00	 ret	 4
??0InvalidProtocolException@@QAE@ABV0@@Z ENDP		; InvalidProtocolException::InvalidProtocolException
_TEXT	ENDS
PUBLIC	__TI5?AVInvalidProtocolException@@
PUBLIC	__CTA5?AVInvalidProtocolException@@
PUBLIC	__CT??_R0?AVInvalidProtocolException@@@8??0InvalidProtocolException@@QAE@ABV0@@Z20
PUBLIC	__CT??_R0?AVProtocolException@@@8??0ProtocolException@@QAE@ABV0@@Z20
PUBLIC	__CT??_R0?AVIOException@@@8??0IOException@@QAE@ABV0@@Z20
PUBLIC	__CT??_R0?AVException@@@8??0Exception@@QAE@ABV0@@Z20
PUBLIC	__CT??_R0?AVThrowable@@@8??0Throwable@@QAE@ABV0@@Z20
PUBLIC	??_C@_0M@CJCPDNFB@szName?5?$DN?$DN?50?$AA@	; `string'
PUBLIC	??_C@_0BG@HOFICMAO@too?5large?5name?5length?$AA@ ; `string'
PUBLIC	?write@PCSlayerInfo3@@UBEXAAVSocketOutputStream@@@Z ; PCSlayerInfo3::write
EXTRN	?cout@_STL@@3V?$basic_ostream@DV?$char_traits@D@_STL@@@1@A:BYTE ; _STL::cout
;	COMDAT xdata$x
; File c:\stlport-4.6.1\stlport\stl\_alloc.h
xdata$x	SEGMENT
$T103935 DD	0ffffffffH
	DD	00H
	DD	00H
	DD	FLAT:$L103696
	DD	00H
	DD	FLAT:$L103698
	DD	0ffffffffH
	DD	00H
	DD	03H
	DD	FLAT:$L103699
$T103937 DD	08H
	DD	FLAT:??_R0?AVThrowable@@@8
	DD	0ffffffe8H
	DD	FLAT:$L103694
$T103936 DD	00H
	DD	02H
	DD	04H
	DD	01H
	DD	FLAT:$T103937
$T103930 DD	019930520H
	DD	05H
	DD	FLAT:$T103935
	DD	01H
	DD	FLAT:$T103936
	DD	2 DUP(00H)
xdata$x	ENDS
;	COMDAT ??_C@_0M@CJCPDNFB@szName?5?$DN?$DN?50?$AA@
CONST	SEGMENT
??_C@_0M@CJCPDNFB@szName?5?$DN?$DN?50?$AA@ DB 'szName == 0', 00H ; `string'
CONST	ENDS
;	COMDAT __TI5?AVInvalidProtocolException@@
xdata$x	SEGMENT
__TI5?AVInvalidProtocolException@@ DD 00H
	DD	FLAT:??1InvalidProtocolException@@UAE@XZ
	DD	00H
	DD	FLAT:__CTA5?AVInvalidProtocolException@@
xdata$x	ENDS
;	COMDAT ??_C@_0BG@HOFICMAO@too?5large?5name?5length?$AA@
CONST	SEGMENT
??_C@_0BG@HOFICMAO@too?5large?5name?5length?$AA@ DB 'too large name lengt'
	DB	'h', 00H					; `string'
CONST	ENDS
;	COMDAT __CTA5?AVInvalidProtocolException@@
xdata$x	SEGMENT
__CTA5?AVInvalidProtocolException@@ DD 05H
	DD	FLAT:__CT??_R0?AVInvalidProtocolException@@@8??0InvalidProtocolException@@QAE@ABV0@@Z20
	DD	FLAT:__CT??_R0?AVProtocolException@@@8??0ProtocolException@@QAE@ABV0@@Z20
	DD	FLAT:__CT??_R0?AVIOException@@@8??0IOException@@QAE@ABV0@@Z20
	DD	FLAT:__CT??_R0?AVException@@@8??0Exception@@QAE@ABV0@@Z20
	DD	FLAT:__CT??_R0?AVThrowable@@@8??0Throwable@@QAE@ABV0@@Z20
xdata$x	ENDS
;	COMDAT __CT??_R0?AVInvalidProtocolException@@@8??0InvalidProtocolException@@QAE@ABV0@@Z20
xdata$x	SEGMENT
__CT??_R0?AVInvalidProtocolException@@@8??0InvalidProtocolException@@QAE@ABV0@@Z20 DD 00H
	DD	FLAT:??_R0?AVInvalidProtocolException@@@8
	DD	00H
	DD	0ffffffffH
	ORG $+4
	DD	014H
	DD	FLAT:??0InvalidProtocolException@@QAE@ABV0@@Z
xdata$x	ENDS
;	COMDAT __CT??_R0?AVProtocolException@@@8??0ProtocolException@@QAE@ABV0@@Z20
xdata$x	SEGMENT
__CT??_R0?AVProtocolException@@@8??0ProtocolException@@QAE@ABV0@@Z20 DD 00H
	DD	FLAT:??_R0?AVProtocolException@@@8
	DD	00H
	DD	0ffffffffH
	ORG $+4
	DD	014H
	DD	FLAT:??0ProtocolException@@QAE@ABV0@@Z
xdata$x	ENDS
;	COMDAT __CT??_R0?AVIOException@@@8??0IOException@@QAE@ABV0@@Z20
xdata$x	SEGMENT
__CT??_R0?AVIOException@@@8??0IOException@@QAE@ABV0@@Z20 DD 00H
	DD	FLAT:??_R0?AVIOException@@@8
	DD	00H
	DD	0ffffffffH
	ORG $+4
	DD	014H
	DD	FLAT:??0IOException@@QAE@ABV0@@Z
xdata$x	ENDS
;	COMDAT __CT??_R0?AVException@@@8??0Exception@@QAE@ABV0@@Z20
xdata$x	SEGMENT
__CT??_R0?AVException@@@8??0Exception@@QAE@ABV0@@Z20 DD 00H
	DD	FLAT:??_R0?AVException@@@8
	DD	00H
	DD	0ffffffffH
	ORG $+4
	DD	014H
	DD	FLAT:??0Exception@@QAE@ABV0@@Z
xdata$x	ENDS
;	COMDAT __CT??_R0?AVThrowable@@@8??0Throwable@@QAE@ABV0@@Z20
xdata$x	SEGMENT
__CT??_R0?AVThrowable@@@8??0Throwable@@QAE@ABV0@@Z20 DD 00H
	DD	FLAT:??_R0?AVThrowable@@@8
	DD	00H
	DD	0ffffffffH
	ORG $+4
	DD	014H
	DD	FLAT:??0Throwable@@QAE@ABV0@@Z
; Function compile flags: /Ogsy
; File c:\darkeden\designed_common\project\client\packet\pcslayerinfo3.cpp
xdata$x	ENDS
;	COMDAT ?write@PCSlayerInfo3@@UBEXAAVSocketOutputStream@@@Z
_TEXT	SEGMENT
$T103689 = -96						; size = 20
$T103685 = -96						; size = 20
$T103688 = -76						; size = 20
$T103684 = -56						; size = 20
$T103692 = -36						; size = 12
_t$100583 = -24						; size = 4
$T103703 = -20						; size = 4
__$EHRec$ = -16						; size = 16
$T103880 = 8						; size = 2
$T103872 = 8						; size = 2
$T103860 = 8						; size = 2
$T103832 = 8						; size = 2
$T103828 = 8						; size = 2
$T103876 = 8						; size = 4
$T103864 = 8						; size = 4
$T103852 = 8						; size = 4
$T103844 = 8						; size = 4
$T103840 = 8						; size = 4
$T103824 = 8						; size = 4
$T103690 = 8						; size = 4
$T103686 = 8						; size = 4
_oStream$ = 8						; size = 4
$T103868 = 11						; size = 1
$T103856 = 11						; size = 1
$T103848 = 11						; size = 1
$T103836 = 11						; size = 1
$T103811 = 11						; size = 1
$T103807 = 11						; size = 1
$T103803 = 11						; size = 1
$T103799 = 11						; size = 1
$T103795 = 11						; size = 1
$T103791 = 11						; size = 1
$T103787 = 11						; size = 1
$T103783 = 11						; size = 1
$T103779 = 11						; size = 1
$T103775 = 11						; size = 1
$T103771 = 11						; size = 1
$T103691 = 11						; size = 1
$T103687 = 11						; size = 1
?write@PCSlayerInfo3@@UBEXAAVSocketOutputStream@@@Z PROC NEAR ; PCSlayerInfo3::write, COMDAT
; _this$ = ecx

; 91   : {

  00000	b8 00 00 00 00	 mov	 eax, __ehhandler$?write@PCSlayerInfo3@@UBEXAAVSocketOutputStream@@@Z
  00005	e8 00 00 00 00	 call	 __EH_prolog
  0000a	83 ec 54	 sub	 esp, 84			; 00000054H

; 92   : 	__BEGIN_TRY
; 93   : 
; 94   : 	try 
; 95   : 	{

  0000d	83 65 fc 00	 and	 DWORD PTR __$EHRec$[ebp+12], 0
  00011	53		 push	 ebx
  00012	56		 push	 esi
  00013	57		 push	 edi

; 96   : 		// write OID
; 97   : 		oStream.write( m_ObjectID );

  00014	8b 7d 08	 mov	 edi, DWORD PTR _oStream$[ebp]
  00017	8b f1		 mov	 esi, ecx
  00019	8b 46 04	 mov	 eax, DWORD PTR [esi+4]
  0001c	89 65 f0	 mov	 DWORD PTR __$EHRec$[ebp], esp
  0001f	89 45 ec	 mov	 DWORD PTR $T103703[ebp], eax
  00022	6a 04		 push	 4
  00024	8d 45 ec	 lea	 eax, DWORD PTR $T103703[ebp]
  00027	50		 push	 eax
  00028	8b cf		 mov	 ecx, edi
  0002a	e8 00 00 00 00	 call	 ?write@SocketOutputStream@@QAEIPBDI@Z ; SocketOutputStream::write

; 98   : 
; 99   : 		// write name
; 100  : 		BYTE szName = m_Name.size();

  0002f	8d 5e 08	 lea	 ebx, DWORD PTR [esi+8]
  00032	8a 43 04	 mov	 al, BYTE PTR [ebx+4]
  00035	2a 03		 sub	 al, BYTE PTR [ebx]

; 101  : 
; 102  : 		if ( szName == 0 )

  00037	75 35		 jne	 SHORT $L103736

; 103  : 			throw InvalidProtocolException("szName == 0");

  00039	83 ec 0c	 sub	 esp, 12			; 0000000cH
  0003c	8b cc		 mov	 ecx, esp
  0003e	89 65 08	 mov	 DWORD PTR $T103686[ebp], esp
  00041	8d 45 0b	 lea	 eax, DWORD PTR $T103687[ebp]
  00044	50		 push	 eax
  00045	68 00 00 00 00	 push	 OFFSET FLAT:??_C@_0M@CJCPDNFB@szName?5?$DN?$DN?50?$AA@
  0004a	e8 00 00 00 00	 call	 ??0?$basic_string@DV?$char_traits@D@_STL@@V?$allocator@D@2@@_STL@@QAE@PBDABV?$allocator@D@1@@Z ; _STL::basic_string<char,_STL::char_traits<char>,_STL::allocator<char> >::basic_string<char,_STL::char_traits<char>,_STL::allocator<char> >
  0004f	8d 4d a0	 lea	 ecx, DWORD PTR $T103685[ebp]
  00052	e8 00 00 00 00	 call	 ??0InvalidProtocolException@@QAE@V?$basic_string@DV?$char_traits@D@_STL@@V?$allocator@D@2@@_STL@@@Z ; InvalidProtocolException::InvalidProtocolException
  00057	50		 push	 eax
  00058	8d 4d c8	 lea	 ecx, DWORD PTR $T103684[ebp]
  0005b	c6 45 fc 01	 mov	 BYTE PTR __$EHRec$[ebp+12], 1
  0005f	e8 00 00 00 00	 call	 ??0InvalidProtocolException@@QAE@ABV0@@Z
  00064	68 00 00 00 00	 push	 OFFSET FLAT:__TI5?AVInvalidProtocolException@@
  00069	8d 45 c8	 lea	 eax, DWORD PTR $T103684[ebp]
  0006c	eb 37		 jmp	 SHORT $L103934
$L103736:

; 104  : 
; 105  : 		if ( szName > 20 )

  0006e	3c 14		 cmp	 al, 20			; 00000014H
  00070	76 39		 jbe	 SHORT $L103766

; 106  : 			throw InvalidProtocolException("too large name length");

  00072	83 ec 0c	 sub	 esp, 12			; 0000000cH
  00075	8b cc		 mov	 ecx, esp
  00077	89 65 08	 mov	 DWORD PTR $T103690[ebp], esp
  0007a	8d 45 0b	 lea	 eax, DWORD PTR $T103691[ebp]
  0007d	50		 push	 eax
  0007e	68 00 00 00 00	 push	 OFFSET FLAT:??_C@_0BG@HOFICMAO@too?5large?5name?5length?$AA@
  00083	e8 00 00 00 00	 call	 ??0?$basic_string@DV?$char_traits@D@_STL@@V?$allocator@D@2@@_STL@@QAE@PBDABV?$allocator@D@1@@Z ; _STL::basic_string<char,_STL::char_traits<char>,_STL::allocator<char> >::basic_string<char,_STL::char_traits<char>,_STL::allocator<char> >
  00088	8d 4d a0	 lea	 ecx, DWORD PTR $T103689[ebp]
  0008b	e8 00 00 00 00	 call	 ??0InvalidProtocolException@@QAE@V?$basic_string@DV?$char_traits@D@_STL@@V?$allocator@D@2@@_STL@@@Z ; InvalidProtocolException::InvalidProtocolException
  00090	50		 push	 eax
  00091	8d 4d b4	 lea	 ecx, DWORD PTR $T103688[ebp]
  00094	c6 45 fc 02	 mov	 BYTE PTR __$EHRec$[ebp+12], 2
  00098	e8 00 00 00 00	 call	 ??0InvalidProtocolException@@QAE@ABV0@@Z
  0009d	68 00 00 00 00	 push	 OFFSET FLAT:__TI5?AVInvalidProtocolException@@
  000a2	8d 45 b4	 lea	 eax, DWORD PTR $T103688[ebp]
$L103934:
  000a5	50		 push	 eax
  000a6	e8 00 00 00 00	 call	 __CxxThrowException@8
$L103938:
$L103766:

; 107  : 
; 108  : 		oStream.write( szName );

  000ab	88 45 0b	 mov	 BYTE PTR $T103771[ebp], al
  000ae	6a 01		 push	 1
  000b0	8d 45 0b	 lea	 eax, DWORD PTR $T103771[ebp]
  000b3	50		 push	 eax
  000b4	8b cf		 mov	 ecx, edi
  000b6	e8 00 00 00 00	 call	 ?write@SocketOutputStream@@QAEIPBDI@Z ; SocketOutputStream::write

; 109  : 		oStream.write( m_Name );

  000bb	53		 push	 ebx
  000bc	8b cf		 mov	 ecx, edi
  000be	e8 00 00 00 00	 call	 ?write@SocketOutputStream@@QAEIABV?$basic_string@DV?$char_traits@D@_STL@@V?$allocator@D@2@@_STL@@@Z ; SocketOutputStream::write

; 110  : 
; 111  : 		// write (X,Y,Dir)
; 112  : 		oStream.write( m_X );

  000c3	8a 46 14	 mov	 al, BYTE PTR [esi+20]
  000c6	33 db		 xor	 ebx, ebx
  000c8	88 45 0b	 mov	 BYTE PTR $T103775[ebp], al
  000cb	43		 inc	 ebx
  000cc	53		 push	 ebx
  000cd	8d 45 0b	 lea	 eax, DWORD PTR $T103775[ebp]
  000d0	50		 push	 eax
  000d1	8b cf		 mov	 ecx, edi
  000d3	e8 00 00 00 00	 call	 ?write@SocketOutputStream@@QAEIPBDI@Z ; SocketOutputStream::write

; 113  : 		oStream.write( m_Y );

  000d8	8a 46 15	 mov	 al, BYTE PTR [esi+21]
  000db	88 45 0b	 mov	 BYTE PTR $T103779[ebp], al
  000de	53		 push	 ebx
  000df	8d 45 0b	 lea	 eax, DWORD PTR $T103779[ebp]
  000e2	50		 push	 eax
  000e3	8b cf		 mov	 ecx, edi
  000e5	e8 00 00 00 00	 call	 ?write@SocketOutputStream@@QAEIPBDI@Z ; SocketOutputStream::write

; 114  : 		oStream.write( m_Dir );

  000ea	8a 46 16	 mov	 al, BYTE PTR [esi+22]
  000ed	88 45 0b	 mov	 BYTE PTR $T103783[ebp], al
  000f0	53		 push	 ebx
  000f1	8d 45 0b	 lea	 eax, DWORD PTR $T103783[ebp]
  000f4	50		 push	 eax
  000f5	8b cf		 mov	 ecx, edi
  000f7	e8 00 00 00 00	 call	 ?write@SocketOutputStream@@QAEIPBDI@Z ; SocketOutputStream::write

; 115  : 
; 116  : 		oStream.write( m_Tou );

  000fc	8a 46 17	 mov	 al, BYTE PTR [esi+23]
  000ff	88 45 0b	 mov	 BYTE PTR $T103787[ebp], al
  00102	53		 push	 ebx
  00103	8d 45 0b	 lea	 eax, DWORD PTR $T103787[ebp]
  00106	50		 push	 eax
  00107	8b cf		 mov	 ecx, edi
  00109	e8 00 00 00 00	 call	 ?write@SocketOutputStream@@QAEIPBDI@Z ; SocketOutputStream::write

; 117  : 		oStream.write( m_Yi );

  0010e	8a 46 18	 mov	 al, BYTE PTR [esi+24]
  00111	88 45 0b	 mov	 BYTE PTR $T103791[ebp], al
  00114	53		 push	 ebx
  00115	8d 45 0b	 lea	 eax, DWORD PTR $T103791[ebp]
  00118	50		 push	 eax
  00119	8b cf		 mov	 ecx, edi
  0011b	e8 00 00 00 00	 call	 ?write@SocketOutputStream@@QAEIPBDI@Z ; SocketOutputStream::write

; 118  : 		oStream.write( m_Ku );

  00120	8a 46 19	 mov	 al, BYTE PTR [esi+25]
  00123	88 45 0b	 mov	 BYTE PTR $T103795[ebp], al
  00126	53		 push	 ebx
  00127	8d 45 0b	 lea	 eax, DWORD PTR $T103795[ebp]
  0012a	50		 push	 eax
  0012b	8b cf		 mov	 ecx, edi
  0012d	e8 00 00 00 00	 call	 ?write@SocketOutputStream@@QAEIPBDI@Z ; SocketOutputStream::write

; 119  : 		oStream.write( m_Wuqi );

  00132	8a 46 1a	 mov	 al, BYTE PTR [esi+26]
  00135	88 45 0b	 mov	 BYTE PTR $T103799[ebp], al
  00138	53		 push	 ebx
  00139	8d 45 0b	 lea	 eax, DWORD PTR $T103799[ebp]
  0013c	50		 push	 eax
  0013d	8b cf		 mov	 ecx, edi
  0013f	e8 00 00 00 00	 call	 ?write@SocketOutputStream@@QAEIPBDI@Z ; SocketOutputStream::write

; 120  : 		oStream.write( m_Dun );

  00144	8a 46 1b	 mov	 al, BYTE PTR [esi+27]
  00147	88 45 0b	 mov	 BYTE PTR $T103803[ebp], al
  0014a	53		 push	 ebx
  0014b	8d 45 0b	 lea	 eax, DWORD PTR $T103803[ebp]
  0014e	50		 push	 eax
  0014f	8b cf		 mov	 ecx, edi
  00151	e8 00 00 00 00	 call	 ?write@SocketOutputStream@@QAEIPBDI@Z ; SocketOutputStream::write

; 121  : 		oStream.write( m_Moto );

  00156	8a 46 1c	 mov	 al, BYTE PTR [esi+28]
  00159	88 45 0b	 mov	 BYTE PTR $T103807[ebp], al
  0015c	53		 push	 ebx
  0015d	8d 45 0b	 lea	 eax, DWORD PTR $T103807[ebp]
  00160	50		 push	 eax
  00161	8b cf		 mov	 ecx, edi
  00163	e8 00 00 00 00	 call	 ?write@SocketOutputStream@@QAEIPBDI@Z ; SocketOutputStream::write

; 122  : 		oStream.write( m_Jian );

  00168	8a 46 1d	 mov	 al, BYTE PTR [esi+29]
  0016b	88 45 0b	 mov	 BYTE PTR $T103811[ebp], al
  0016e	53		 push	 ebx
  0016f	8d 45 0b	 lea	 eax, DWORD PTR $T103811[ebp]
  00172	50		 push	 eax
  00173	8b cf		 mov	 ecx, edi
  00175	e8 00 00 00 00	 call	 ?write@SocketOutputStream@@QAEIPBDI@Z ; SocketOutputStream::write

; 123  : 
; 124  : 		// write outlook bitset
; 125  : 		DWORD outlook = m_Outlook.to_ulong();
; 126  : 		oStream.write( outlook );

  0017a	8b 46 20	 mov	 eax, DWORD PTR [esi+32]
  0017d	89 45 08	 mov	 DWORD PTR $T103824[ebp], eax
  00180	6a 04		 push	 4
  00182	8d 45 08	 lea	 eax, DWORD PTR $T103824[ebp]
  00185	50		 push	 eax
  00186	8b cf		 mov	 ecx, edi
  00188	e8 00 00 00 00	 call	 ?write@SocketOutputStream@@QAEIPBDI@Z ; SocketOutputStream::write

; 127  : 		
; 128  : 		// write colors
; 129  : 		for ( uint i = 0 ; i < SLAYER_COLOR_MAX ; i ++ )

  0018d	33 db		 xor	 ebx, ebx
$L100580:

; 130  : 			oStream.write( m_Colors[i] );

  0018f	33 c0		 xor	 eax, eax
  00191	83 fb 0a	 cmp	 ebx, 10			; 0000000aH
  00194	8b cf		 mov	 ecx, edi
  00196	6a 02		 push	 2
  00198	73 14		 jae	 SHORT $L100582
  0019a	66 8b 44 5e 24	 mov	 ax, WORD PTR [esi+ebx*2+36]
  0019f	89 45 08	 mov	 DWORD PTR $T103828[ebp], eax
  001a2	8d 45 08	 lea	 eax, DWORD PTR $T103828[ebp]
  001a5	50		 push	 eax
  001a6	e8 00 00 00 00	 call	 ?write@SocketOutputStream@@QAEIPBDI@Z ; SocketOutputStream::write
  001ab	43		 inc	 ebx
  001ac	eb e1		 jmp	 SHORT $L100580
$L100582:

; 131  : 
; 132  : 		oStream.write( m_MasterEffectColor );

  001ae	66 8b 46 38	 mov	 ax, WORD PTR [esi+56]
  001b2	89 45 08	 mov	 DWORD PTR $T103832[ebp], eax
  001b5	8d 45 08	 lea	 eax, DWORD PTR $T103832[ebp]
  001b8	50		 push	 eax
  001b9	e8 00 00 00 00	 call	 ?write@SocketOutputStream@@QAEIPBDI@Z ; SocketOutputStream::write

; 133  : 		oStream.write( m_Born );

  001be	8a 46 3a	 mov	 al, BYTE PTR [esi+58]
  001c1	88 45 0b	 mov	 BYTE PTR $T103836[ebp], al
  001c4	6a 01		 push	 1
  001c6	8d 45 0b	 lea	 eax, DWORD PTR $T103836[ebp]
  001c9	50		 push	 eax
  001ca	8b cf		 mov	 ecx, edi
  001cc	e8 00 00 00 00	 call	 ?write@SocketOutputStream@@QAEIPBDI@Z ; SocketOutputStream::write

; 134  : 		oStream.write( m_CurrentHP );

  001d1	8b 46 3c	 mov	 eax, DWORD PTR [esi+60]
  001d4	6a 04		 push	 4
  001d6	5b		 pop	 ebx
  001d7	89 45 08	 mov	 DWORD PTR $T103840[ebp], eax
  001da	53		 push	 ebx
  001db	8d 45 08	 lea	 eax, DWORD PTR $T103840[ebp]
  001de	50		 push	 eax
  001df	8b cf		 mov	 ecx, edi
  001e1	e8 00 00 00 00	 call	 ?write@SocketOutputStream@@QAEIPBDI@Z ; SocketOutputStream::write

; 135  : 		oStream.write( m_MaxHP );

  001e6	8b 46 40	 mov	 eax, DWORD PTR [esi+64]
  001e9	89 45 08	 mov	 DWORD PTR $T103844[ebp], eax
  001ec	53		 push	 ebx
  001ed	8d 45 08	 lea	 eax, DWORD PTR $T103844[ebp]
  001f0	50		 push	 eax
  001f1	8b cf		 mov	 ecx, edi
  001f3	e8 00 00 00 00	 call	 ?write@SocketOutputStream@@QAEIPBDI@Z ; SocketOutputStream::write

; 136  : 
; 137  : 		oStream.write( m_AttackSpeed );

  001f8	8a 46 44	 mov	 al, BYTE PTR [esi+68]
  001fb	88 45 0b	 mov	 BYTE PTR $T103848[ebp], al
  001fe	6a 01		 push	 1
  00200	8d 45 0b	 lea	 eax, DWORD PTR $T103848[ebp]
  00203	50		 push	 eax
  00204	8b cf		 mov	 ecx, edi
  00206	e8 00 00 00 00	 call	 ?write@SocketOutputStream@@QAEIPBDI@Z ; SocketOutputStream::write

; 138  : 
; 139  : 		oStream.write( m_Alignment );

  0020b	8b 46 48	 mov	 eax, DWORD PTR [esi+72]
  0020e	89 45 08	 mov	 DWORD PTR $T103852[ebp], eax
  00211	53		 push	 ebx
  00212	8d 45 08	 lea	 eax, DWORD PTR $T103852[ebp]
  00215	50		 push	 eax
  00216	8b cf		 mov	 ecx, edi
  00218	e8 00 00 00 00	 call	 ?write@SocketOutputStream@@QAEIPBDI@Z ; SocketOutputStream::write

; 140  : 		
; 141  : 		oStream.write( m_Competence );

  0021d	8a 46 4c	 mov	 al, BYTE PTR [esi+76]
  00220	88 45 0b	 mov	 BYTE PTR $T103856[ebp], al
  00223	6a 01		 push	 1
  00225	8d 45 0b	 lea	 eax, DWORD PTR $T103856[ebp]
  00228	50		 push	 eax
  00229	8b cf		 mov	 ecx, edi
  0022b	e8 00 00 00 00	 call	 ?write@SocketOutputStream@@QAEIPBDI@Z ; SocketOutputStream::write

; 142  : 		oStream.write( m_GuildID);

  00230	33 c0		 xor	 eax, eax
  00232	66 8b 46 4e	 mov	 ax, WORD PTR [esi+78]
  00236	6a 02		 push	 2
  00238	8b cf		 mov	 ecx, edi
  0023a	89 45 08	 mov	 DWORD PTR $T103860[ebp], eax
  0023d	8d 45 08	 lea	 eax, DWORD PTR $T103860[ebp]
  00240	50		 push	 eax
  00241	e8 00 00 00 00	 call	 ?write@SocketOutputStream@@QAEIPBDI@Z ; SocketOutputStream::write

; 143  : 		oStream.write( m_UnionID);

  00246	8b 46 50	 mov	 eax, DWORD PTR [esi+80]
  00249	89 45 08	 mov	 DWORD PTR $T103864[ebp], eax
  0024c	53		 push	 ebx
  0024d	8d 45 08	 lea	 eax, DWORD PTR $T103864[ebp]
  00250	50		 push	 eax
  00251	8b cf		 mov	 ecx, edi
  00253	e8 00 00 00 00	 call	 ?write@SocketOutputStream@@QAEIPBDI@Z ; SocketOutputStream::write

; 144  : 
; 145  : 		oStream.write( m_Rank );

  00258	8a 46 54	 mov	 al, BYTE PTR [esi+84]
  0025b	88 45 0b	 mov	 BYTE PTR $T103868[ebp], al
  0025e	6a 01		 push	 1
  00260	8d 45 0b	 lea	 eax, DWORD PTR $T103868[ebp]
  00263	50		 push	 eax
  00264	8b cf		 mov	 ecx, edi
  00266	e8 00 00 00 00	 call	 ?write@SocketOutputStream@@QAEIPBDI@Z ; SocketOutputStream::write

; 146  : 		oStream.write( m_AdvancementLevel );

  0026b	33 c0		 xor	 eax, eax
  0026d	66 8b 46 56	 mov	 ax, WORD PTR [esi+86]
  00271	6a 02		 push	 2
  00273	8b cf		 mov	 ecx, edi
  00275	89 45 08	 mov	 DWORD PTR $T103872[ebp], eax
  00278	8d 45 08	 lea	 eax, DWORD PTR $T103872[ebp]
  0027b	50		 push	 eax
  0027c	e8 00 00 00 00	 call	 ?write@SocketOutputStream@@QAEIPBDI@Z ; SocketOutputStream::write

; 147  : #if __CONTENTS(__CONTRIBUTE_SYSTEM)
; 148  : 		oStream.write( m_ContributePoint );

  00281	8b 46 58	 mov	 eax, DWORD PTR [esi+88]
  00284	89 45 08	 mov	 DWORD PTR $T103876[ebp], eax
  00287	53		 push	 ebx
  00288	8d 45 08	 lea	 eax, DWORD PTR $T103876[ebp]
  0028b	50		 push	 eax
  0028c	8b cf		 mov	 ecx, edi
  0028e	e8 00 00 00 00	 call	 ?write@SocketOutputStream@@QAEIPBDI@Z ; SocketOutputStream::write

; 149  : #endif //__CONTRIBUTE_SYSTEM
; 150  : 		//cout << "  : " << (int)m_AdvancementLevel << endl;
; 151  : 
; 152  : #if __CONTENTS(__SECOND_TRANSFORTER)
; 153  : 		oStream.write( m_MotorItemType );

  00293	33 c0		 xor	 eax, eax
  00295	66 8b 46 5c	 mov	 ax, WORD PTR [esi+92]
  00299	6a 02		 push	 2
  0029b	8b cf		 mov	 ecx, edi
  0029d	89 45 08	 mov	 DWORD PTR $T103880[ebp], eax
  002a0	8d 45 08	 lea	 eax, DWORD PTR $T103880[ebp]
  002a3	50		 push	 eax
  002a4	e8 00 00 00 00	 call	 ?write@SocketOutputStream@@QAEIPBDI@Z ; SocketOutputStream::write
$L100566:

; 161  : 
; 162  : 	__END_CATCH
; 163  : }

  002a9	8b 4d f4	 mov	 ecx, DWORD PTR __$EHRec$[ebp+4]
  002ac	5f		 pop	 edi
  002ad	5e		 pop	 esi
  002ae	64 89 0d 00 00
	00 00		 mov	 DWORD PTR fs:__except_list, ecx
  002b5	5b		 pop	 ebx
  002b6	c9		 leave
  002b7	c2 04 00	 ret	 4
$L103694:

; 154  : #endif //__SECOND_TRANSFORTER
; 155  : 
; 156  : 	} 
; 157  : 	catch ( Throwable & t ) 
; 158  : 	{
; 159  : 		std::cout << t.toString().c_str() << std::endl;

  002ba	8b 4d e8	 mov	 ecx, DWORD PTR _t$100583[ebp]
  002bd	8b 01		 mov	 eax, DWORD PTR [ecx]
  002bf	8d 55 dc	 lea	 edx, DWORD PTR $T103692[ebp]
  002c2	52		 push	 edx
  002c3	ff 50 08	 call	 DWORD PTR [eax+8]
  002c6	ff 30		 push	 DWORD PTR [eax]
  002c8	be 00 00 00 00	 mov	 esi, OFFSET FLAT:?cout@_STL@@3V?$basic_ostream@DV?$char_traits@D@_STL@@@1@A ; _STL::cout
  002cd	8b ce		 mov	 ecx, esi
  002cf	c6 45 fc 04	 mov	 BYTE PTR __$EHRec$[ebp+12], 4
  002d3	e8 00 00 00 00	 call	 ?_M_put_nowiden@?$basic_ostream@DV?$char_traits@D@_STL@@@_STL@@QAEXPBD@Z ; _STL::basic_ostream<char,_STL::char_traits<char> >::_M_put_nowiden
  002d8	56		 push	 esi
  002d9	e8 00 00 00 00	 call	 ??$endl@DV?$char_traits@D@_STL@@@_STL@@YAAAV?$basic_ostream@DV?$char_traits@D@_STL@@@0@AAV10@@Z ; _STL::endl<char,_STL::char_traits<char> >
  002de	8b 45 e4	 mov	 eax, DWORD PTR $T103692[ebp+8]
  002e1	2b 45 dc	 sub	 eax, DWORD PTR $T103692[ebp]
  002e4	59		 pop	 ecx
  002e5	50		 push	 eax
  002e6	ff 75 dc	 push	 DWORD PTR $T103692[ebp]
  002e9	8d 4d e4	 lea	 ecx, DWORD PTR $T103692[ebp+8]
  002ec	c6 45 fc 03	 mov	 BYTE PTR __$EHRec$[ebp+12], 3
  002f0	e8 00 00 00 00	 call	 ?deallocate@?$allocator@D@_STL@@QAEXPADI@Z ; _STL::allocator<char>::deallocate

; 160  : 	}

  002f5	b8 00 00 00 00	 mov	 eax, $L100566
  002fa	c3		 ret	 0
$L103933:
_TEXT	ENDS
;	COMDAT text$x
text$x	SEGMENT
$L103696:
  00000	8d 4d a0	 lea	 ecx, DWORD PTR $T103685[ebp]
  00003	e9 00 00 00 00	 jmp	 ??1InvalidProtocolException@@UAE@XZ
$L103698:
  00008	8d 4d a0	 lea	 ecx, DWORD PTR $T103689[ebp]
  0000b	e9 00 00 00 00	 jmp	 ??1InvalidProtocolException@@UAE@XZ
$L103699:
  00010	8d 4d dc	 lea	 ecx, DWORD PTR $T103692[ebp]
  00013	e9 00 00 00 00	 jmp	 ??1?$basic_string@DV?$char_traits@D@_STL@@V?$allocator@D@2@@_STL@@QAE@XZ ; _STL::basic_string<char,_STL::char_traits<char>,_STL::allocator<char> >::~basic_string<char,_STL::char_traits<char>,_STL::allocator<char> >
__ehhandler$?write@PCSlayerInfo3@@UBEXAAVSocketOutputStream@@@Z:
  00018	b8 00 00 00 00	 mov	 eax, OFFSET FLAT:$T103930
  0001d	e9 00 00 00 00	 jmp	 ___CxxFrameHandler
text$x	ENDS
?write@PCSlayerInfo3@@UBEXAAVSocketOutputStream@@@Z ENDP ; PCSlayerInfo3::write
PUBLIC	?read@PCSlayerInfo3@@UAEXAAVSocketInputStream@@@Z ; PCSlayerInfo3::read
EXTRN	?read@SocketInputStream@@QAEIAAV?$basic_string@DV?$char_traits@D@_STL@@V?$allocator@D@2@@_STL@@I@Z:NEAR ; SocketInputStream::read
;	COMDAT xdata$x
; File c:\stlport-4.6.1\stlport\stl\_alloc.h
xdata$x	SEGMENT
$T104182 DD	0ffffffffH
	DD	00H
	DD	00H
	DD	FLAT:$L103956
	DD	00H
	DD	FLAT:$L103958
	DD	0ffffffffH
	DD	00H
	DD	03H
	DD	FLAT:$L103959
$T104184 DD	08H
	DD	FLAT:??_R0?AVThrowable@@@8
	DD	0ffffffe4H
	DD	FLAT:$L103954
$T104183 DD	00H
	DD	02H
	DD	04H
	DD	01H
	DD	FLAT:$T104184
$T104177 DD	019930520H
	DD	05H
	DD	FLAT:$T104182
	DD	01H
	DD	FLAT:$T104183
	DD	2 DUP(00H)
; Function compile flags: /Ogsy
; File c:\darkeden\designed_common\project\client\packet\pcslayerinfo3.cpp
xdata$x	ENDS
;	COMDAT ?read@PCSlayerInfo3@@UAEXAAVSocketInputStream@@@Z
_TEXT	SEGMENT
$T103948 = -100						; size = 20
$T103944 = -100						; size = 20
$T103947 = -80						; size = 20
$T103943 = -60						; size = 20
$T103952 = -40						; size = 12
_t$100483 = -28						; size = 4
$T103949 = -24						; size = 4
$T103945 = -24						; size = 4
_outlook$100477 = -20					; size = 4
__$EHRec$ = -16						; size = 16
_iStream$ = 8						; size = 4
$T103950 = 11						; size = 1
$T103946 = 11						; size = 1
_szName$100456 = 11					; size = 1
?read@PCSlayerInfo3@@UAEXAAVSocketInputStream@@@Z PROC NEAR ; PCSlayerInfo3::read, COMDAT
; _this$ = ecx

; 14   : {

  00000	b8 00 00 00 00	 mov	 eax, __ehhandler$?read@PCSlayerInfo3@@UAEXAAVSocketInputStream@@@Z
  00005	e8 00 00 00 00	 call	 __EH_prolog
  0000a	83 ec 58	 sub	 esp, 88			; 00000058H

; 15   : 	__BEGIN_TRY
; 16   : 
; 17   : 	try 
; 18   : 	{

  0000d	83 65 fc 00	 and	 DWORD PTR __$EHRec$[ebp+12], 0
  00011	53		 push	 ebx
  00012	56		 push	 esi
  00013	57		 push	 edi

; 19   : 		// read OID
; 20   : 		iStream.read( m_ObjectID );

  00014	8b 7d 08	 mov	 edi, DWORD PTR _iStream$[ebp]
  00017	8b f1		 mov	 esi, ecx
  00019	89 65 f0	 mov	 DWORD PTR __$EHRec$[ebp], esp
  0001c	6a 04		 push	 4
  0001e	8d 46 04	 lea	 eax, DWORD PTR [esi+4]
  00021	50		 push	 eax
  00022	8b cf		 mov	 ecx, edi
  00024	e8 00 00 00 00	 call	 ?read@SocketInputStream@@QAEIPADI@Z ; SocketInputStream::read

; 21   : 
; 22   : 		// read name
; 23   : 		BYTE szName;
; 24   : 		iStream.read( szName );

  00029	33 db		 xor	 ebx, ebx
  0002b	43		 inc	 ebx
  0002c	53		 push	 ebx
  0002d	8d 45 0b	 lea	 eax, DWORD PTR _szName$100456[ebp]
  00030	50		 push	 eax
  00031	8b cf		 mov	 ecx, edi
  00033	e8 00 00 00 00	 call	 ?read@SocketInputStream@@QAEIPADI@Z ; SocketInputStream::read

; 25   : 
; 26   : 		if ( szName == 0 )

  00038	80 7d 0b 00	 cmp	 BYTE PTR _szName$100456[ebp], 0
  0003c	75 34		 jne	 SHORT $L103994

; 27   : 			throw InvalidProtocolException("szName == 0");

  0003e	83 ec 0c	 sub	 esp, 12			; 0000000cH
  00041	8b cc		 mov	 ecx, esp
  00043	89 65 e8	 mov	 DWORD PTR $T103945[ebp], esp
  00046	8d 45 0b	 lea	 eax, DWORD PTR $T103946[ebp]
  00049	50		 push	 eax
  0004a	68 00 00 00 00	 push	 OFFSET FLAT:??_C@_0M@CJCPDNFB@szName?5?$DN?$DN?50?$AA@
  0004f	e8 00 00 00 00	 call	 ??0?$basic_string@DV?$char_traits@D@_STL@@V?$allocator@D@2@@_STL@@QAE@PBDABV?$allocator@D@1@@Z ; _STL::basic_string<char,_STL::char_traits<char>,_STL::allocator<char> >::basic_string<char,_STL::char_traits<char>,_STL::allocator<char> >
  00054	8d 4d 9c	 lea	 ecx, DWORD PTR $T103944[ebp]
  00057	e8 00 00 00 00	 call	 ??0InvalidProtocolException@@QAE@V?$basic_string@DV?$char_traits@D@_STL@@V?$allocator@D@2@@_STL@@@Z ; InvalidProtocolException::InvalidProtocolException
  0005c	50		 push	 eax
  0005d	8d 4d c4	 lea	 ecx, DWORD PTR $T103943[ebp]
  00060	88 5d fc	 mov	 BYTE PTR __$EHRec$[ebp+12], bl
  00063	e8 00 00 00 00	 call	 ??0InvalidProtocolException@@QAE@ABV0@@Z
  00068	68 00 00 00 00	 push	 OFFSET FLAT:__TI5?AVInvalidProtocolException@@
  0006d	8d 45 c4	 lea	 eax, DWORD PTR $T103943[ebp]
  00070	eb 39		 jmp	 SHORT $L104181
$L103994:

; 28   : 
; 29   : 		if ( szName > 20 )

  00072	80 7d 0b 14	 cmp	 BYTE PTR _szName$100456[ebp], 20 ; 00000014H
  00076	76 39		 jbe	 SHORT $L104024

; 30   : 			throw InvalidProtocolException("too large name length");

  00078	83 ec 0c	 sub	 esp, 12			; 0000000cH
  0007b	8b cc		 mov	 ecx, esp
  0007d	89 65 e8	 mov	 DWORD PTR $T103949[ebp], esp
  00080	8d 45 0b	 lea	 eax, DWORD PTR $T103950[ebp]
  00083	50		 push	 eax
  00084	68 00 00 00 00	 push	 OFFSET FLAT:??_C@_0BG@HOFICMAO@too?5large?5name?5length?$AA@
  00089	e8 00 00 00 00	 call	 ??0?$basic_string@DV?$char_traits@D@_STL@@V?$allocator@D@2@@_STL@@QAE@PBDABV?$allocator@D@1@@Z ; _STL::basic_string<char,_STL::char_traits<char>,_STL::allocator<char> >::basic_string<char,_STL::char_traits<char>,_STL::allocator<char> >
  0008e	8d 4d 9c	 lea	 ecx, DWORD PTR $T103948[ebp]
  00091	e8 00 00 00 00	 call	 ??0InvalidProtocolException@@QAE@V?$basic_string@DV?$char_traits@D@_STL@@V?$allocator@D@2@@_STL@@@Z ; InvalidProtocolException::InvalidProtocolException
  00096	50		 push	 eax
  00097	8d 4d b0	 lea	 ecx, DWORD PTR $T103947[ebp]
  0009a	c6 45 fc 02	 mov	 BYTE PTR __$EHRec$[ebp+12], 2
  0009e	e8 00 00 00 00	 call	 ??0InvalidProtocolException@@QAE@ABV0@@Z
  000a3	68 00 00 00 00	 push	 OFFSET FLAT:__TI5?AVInvalidProtocolException@@
  000a8	8d 45 b0	 lea	 eax, DWORD PTR $T103947[ebp]
$L104181:
  000ab	50		 push	 eax
  000ac	e8 00 00 00 00	 call	 __CxxThrowException@8
$L104185:
$L104024:

; 31   : 
; 32   : 		iStream.read( m_Name , szName );

  000b1	0f b6 45 0b	 movzx	 eax, BYTE PTR _szName$100456[ebp]
  000b5	50		 push	 eax
  000b6	8d 46 08	 lea	 eax, DWORD PTR [esi+8]
  000b9	50		 push	 eax
  000ba	8b cf		 mov	 ecx, edi
  000bc	e8 00 00 00 00	 call	 ?read@SocketInputStream@@QAEIAAV?$basic_string@DV?$char_traits@D@_STL@@V?$allocator@D@2@@_STL@@I@Z ; SocketInputStream::read

; 33   : 
; 34   : 		// read (X,Y,Dir)
; 35   : 		iStream.read( m_X );

  000c1	53		 push	 ebx
  000c2	8d 46 14	 lea	 eax, DWORD PTR [esi+20]
  000c5	50		 push	 eax
  000c6	8b cf		 mov	 ecx, edi
  000c8	e8 00 00 00 00	 call	 ?read@SocketInputStream@@QAEIPADI@Z ; SocketInputStream::read

; 36   : 		iStream.read( m_Y );

  000cd	53		 push	 ebx
  000ce	8d 46 15	 lea	 eax, DWORD PTR [esi+21]
  000d1	50		 push	 eax
  000d2	8b cf		 mov	 ecx, edi
  000d4	e8 00 00 00 00	 call	 ?read@SocketInputStream@@QAEIPADI@Z ; SocketInputStream::read

; 37   : 		iStream.read( m_Dir );

  000d9	53		 push	 ebx
  000da	8d 46 16	 lea	 eax, DWORD PTR [esi+22]
  000dd	50		 push	 eax
  000de	8b cf		 mov	 ecx, edi
  000e0	e8 00 00 00 00	 call	 ?read@SocketInputStream@@QAEIPADI@Z ; SocketInputStream::read

; 38   : 
; 39   : 		iStream.read( m_Tou );

  000e5	53		 push	 ebx
  000e6	8d 46 17	 lea	 eax, DWORD PTR [esi+23]
  000e9	50		 push	 eax
  000ea	8b cf		 mov	 ecx, edi
  000ec	e8 00 00 00 00	 call	 ?read@SocketInputStream@@QAEIPADI@Z ; SocketInputStream::read

; 40   : 		iStream.read( m_Yi );

  000f1	53		 push	 ebx
  000f2	8d 46 18	 lea	 eax, DWORD PTR [esi+24]
  000f5	50		 push	 eax
  000f6	8b cf		 mov	 ecx, edi
  000f8	e8 00 00 00 00	 call	 ?read@SocketInputStream@@QAEIPADI@Z ; SocketInputStream::read

; 41   : 		iStream.read( m_Ku );

  000fd	53		 push	 ebx
  000fe	8d 46 19	 lea	 eax, DWORD PTR [esi+25]
  00101	50		 push	 eax
  00102	8b cf		 mov	 ecx, edi
  00104	e8 00 00 00 00	 call	 ?read@SocketInputStream@@QAEIPADI@Z ; SocketInputStream::read

; 42   : 		iStream.read( m_Wuqi );

  00109	53		 push	 ebx
  0010a	8d 46 1a	 lea	 eax, DWORD PTR [esi+26]
  0010d	50		 push	 eax
  0010e	8b cf		 mov	 ecx, edi
  00110	e8 00 00 00 00	 call	 ?read@SocketInputStream@@QAEIPADI@Z ; SocketInputStream::read

; 43   : 		iStream.read( m_Dun );

  00115	53		 push	 ebx
  00116	8d 46 1b	 lea	 eax, DWORD PTR [esi+27]
  00119	50		 push	 eax
  0011a	8b cf		 mov	 ecx, edi
  0011c	e8 00 00 00 00	 call	 ?read@SocketInputStream@@QAEIPADI@Z ; SocketInputStream::read

; 44   : 		iStream.read( m_Moto );

  00121	53		 push	 ebx
  00122	8d 46 1c	 lea	 eax, DWORD PTR [esi+28]
  00125	50		 push	 eax
  00126	8b cf		 mov	 ecx, edi
  00128	e8 00 00 00 00	 call	 ?read@SocketInputStream@@QAEIPADI@Z ; SocketInputStream::read

; 45   : 		iStream.read( m_Jian );

  0012d	53		 push	 ebx
  0012e	8d 46 1d	 lea	 eax, DWORD PTR [esi+29]
  00131	50		 push	 eax
  00132	8b cf		 mov	 ecx, edi
  00134	e8 00 00 00 00	 call	 ?read@SocketInputStream@@QAEIPADI@Z ; SocketInputStream::read

; 46   : 
; 47   : 		// read outlook bitset
; 48   : 		DWORD outlook;
; 49   : 		iStream.read( outlook);

  00139	6a 04		 push	 4
  0013b	8d 45 ec	 lea	 eax, DWORD PTR _outlook$100477[ebp]
  0013e	50		 push	 eax
  0013f	8b cf		 mov	 ecx, edi
  00141	e8 00 00 00 00	 call	 ?read@SocketInputStream@@QAEIPADI@Z ; SocketInputStream::read

; 50   : 		m_Outlook = bitset<SLAYER_BIT_MAX>(outlook);

  00146	8b 45 ec	 mov	 eax, DWORD PTR _outlook$100477[ebp]
  00149	25 ff ff 3f 00	 and	 eax, 4194303		; 003fffffH
  0014e	89 46 20	 mov	 DWORD PTR [esi+32], eax

; 51   : 		
; 52   : 		// read colors
; 53   : 		for ( uint i = 0 ; i < SLAYER_COLOR_MAX ; i ++ )

  00151	33 db		 xor	 ebx, ebx
$L100480:
  00153	83 fb 0a	 cmp	 ebx, 10			; 0000000aH

; 54   : 			iStream.read( m_Colors[i] );

  00156	8b cf		 mov	 ecx, edi
  00158	6a 02		 push	 2
  0015a	73 0d		 jae	 SHORT $L100482
  0015c	8d 44 5e 24	 lea	 eax, DWORD PTR [esi+ebx*2+36]
  00160	50		 push	 eax
  00161	e8 00 00 00 00	 call	 ?read@SocketInputStream@@QAEIPADI@Z ; SocketInputStream::read
  00166	43		 inc	 ebx
  00167	eb ea		 jmp	 SHORT $L100480
$L100482:

; 55   : 
; 56   : 		iStream.read( m_MasterEffectColor );

  00169	8d 46 38	 lea	 eax, DWORD PTR [esi+56]
  0016c	50		 push	 eax
  0016d	e8 00 00 00 00	 call	 ?read@SocketInputStream@@QAEIPADI@Z ; SocketInputStream::read

; 57   : 		iStream.read( m_Born );

  00172	6a 01		 push	 1
  00174	8d 46 3a	 lea	 eax, DWORD PTR [esi+58]
  00177	50		 push	 eax
  00178	8b cf		 mov	 ecx, edi
  0017a	e8 00 00 00 00	 call	 ?read@SocketInputStream@@QAEIPADI@Z ; SocketInputStream::read

; 58   : 		iStream.read( m_CurrentHP );

  0017f	6a 04		 push	 4
  00181	5b		 pop	 ebx
  00182	53		 push	 ebx
  00183	8d 46 3c	 lea	 eax, DWORD PTR [esi+60]
  00186	50		 push	 eax
  00187	8b cf		 mov	 ecx, edi
  00189	e8 00 00 00 00	 call	 ?read@SocketInputStream@@QAEIPADI@Z ; SocketInputStream::read

; 59   : 		iStream.read( m_MaxHP );

  0018e	53		 push	 ebx
  0018f	8d 46 40	 lea	 eax, DWORD PTR [esi+64]
  00192	50		 push	 eax
  00193	8b cf		 mov	 ecx, edi
  00195	e8 00 00 00 00	 call	 ?read@SocketInputStream@@QAEIPADI@Z ; SocketInputStream::read

; 60   : 		iStream.read( m_AttackSpeed );

  0019a	6a 01		 push	 1
  0019c	8d 46 44	 lea	 eax, DWORD PTR [esi+68]
  0019f	50		 push	 eax
  001a0	8b cf		 mov	 ecx, edi
  001a2	e8 00 00 00 00	 call	 ?read@SocketInputStream@@QAEIPADI@Z ; SocketInputStream::read

; 61   : 		iStream.read( m_Alignment );

  001a7	53		 push	 ebx
  001a8	8d 46 48	 lea	 eax, DWORD PTR [esi+72]
  001ab	50		 push	 eax
  001ac	8b cf		 mov	 ecx, edi
  001ae	e8 00 00 00 00	 call	 ?read@SocketInputStream@@QAEIPADI@Z ; SocketInputStream::read

; 62   : 
; 63   : 		iStream.read( m_Competence );

  001b3	6a 01		 push	 1
  001b5	8d 46 4c	 lea	 eax, DWORD PTR [esi+76]
  001b8	50		 push	 eax
  001b9	8b cf		 mov	 ecx, edi
  001bb	e8 00 00 00 00	 call	 ?read@SocketInputStream@@QAEIPADI@Z ; SocketInputStream::read

; 64   : 		iStream.read( m_GuildID );

  001c0	6a 02		 push	 2
  001c2	8d 46 4e	 lea	 eax, DWORD PTR [esi+78]
  001c5	50		 push	 eax
  001c6	8b cf		 mov	 ecx, edi
  001c8	e8 00 00 00 00	 call	 ?read@SocketInputStream@@QAEIPADI@Z ; SocketInputStream::read

; 65   : 		iStream.read( m_UnionID );

  001cd	53		 push	 ebx
  001ce	8d 46 50	 lea	 eax, DWORD PTR [esi+80]
  001d1	50		 push	 eax
  001d2	8b cf		 mov	 ecx, edi
  001d4	e8 00 00 00 00	 call	 ?read@SocketInputStream@@QAEIPADI@Z ; SocketInputStream::read

; 66   : 
; 67   : 		iStream.read( m_Rank );

  001d9	6a 01		 push	 1
  001db	8d 46 54	 lea	 eax, DWORD PTR [esi+84]
  001de	50		 push	 eax
  001df	8b cf		 mov	 ecx, edi
  001e1	e8 00 00 00 00	 call	 ?read@SocketInputStream@@QAEIPADI@Z ; SocketInputStream::read

; 68   : 		iStream.read( m_AdvancementLevel );

  001e6	6a 02		 push	 2
  001e8	8d 46 56	 lea	 eax, DWORD PTR [esi+86]
  001eb	50		 push	 eax
  001ec	8b cf		 mov	 ecx, edi
  001ee	e8 00 00 00 00	 call	 ?read@SocketInputStream@@QAEIPADI@Z ; SocketInputStream::read

; 69   : 
; 70   : #if __CONTENTS(__CONTRIBUTE_SYSTEM)
; 71   : 		iStream.read( m_ContributePoint );

  001f3	53		 push	 ebx
  001f4	8d 46 58	 lea	 eax, DWORD PTR [esi+88]
  001f7	50		 push	 eax
  001f8	8b cf		 mov	 ecx, edi
  001fa	e8 00 00 00 00	 call	 ?read@SocketInputStream@@QAEIPADI@Z ; SocketInputStream::read

; 72   : #endif //__CONTRIBUTE_SYSTEM
; 73   : 		
; 74   : #if __CONTENTS(__SECOND_TRANSFORTER)
; 75   : 		iStream.read( m_MotorItemType );

  001ff	6a 02		 push	 2
  00201	83 c6 5c	 add	 esi, 92			; 0000005cH
  00204	56		 push	 esi
  00205	8b cf		 mov	 ecx, edi
  00207	e8 00 00 00 00	 call	 ?read@SocketInputStream@@QAEIPADI@Z ; SocketInputStream::read
$L100455:

; 82   : 	
; 83   : 	__END_CATCH
; 84   : }

  0020c	8b 4d f4	 mov	 ecx, DWORD PTR __$EHRec$[ebp+4]
  0020f	5f		 pop	 edi
  00210	5e		 pop	 esi
  00211	64 89 0d 00 00
	00 00		 mov	 DWORD PTR fs:__except_list, ecx
  00218	5b		 pop	 ebx
  00219	c9		 leave
  0021a	c2 04 00	 ret	 4
$L103954:

; 76   : #endif //__SECOND_TRANSFORTER
; 77   : 	}
; 78   : 	catch ( Throwable & t ) 
; 79   : 	{
; 80   : 		std::cout << t.toString().c_str() << std::endl;

  0021d	8b 4d e4	 mov	 ecx, DWORD PTR _t$100483[ebp]
  00220	8b 01		 mov	 eax, DWORD PTR [ecx]
  00222	8d 55 d8	 lea	 edx, DWORD PTR $T103952[ebp]
  00225	52		 push	 edx
  00226	ff 50 08	 call	 DWORD PTR [eax+8]
  00229	ff 30		 push	 DWORD PTR [eax]
  0022b	be 00 00 00 00	 mov	 esi, OFFSET FLAT:?cout@_STL@@3V?$basic_ostream@DV?$char_traits@D@_STL@@@1@A ; _STL::cout
  00230	8b ce		 mov	 ecx, esi
  00232	c6 45 fc 04	 mov	 BYTE PTR __$EHRec$[ebp+12], 4
  00236	e8 00 00 00 00	 call	 ?_M_put_nowiden@?$basic_ostream@DV?$char_traits@D@_STL@@@_STL@@QAEXPBD@Z ; _STL::basic_ostream<char,_STL::char_traits<char> >::_M_put_nowiden
  0023b	56		 push	 esi
  0023c	e8 00 00 00 00	 call	 ??$endl@DV?$char_traits@D@_STL@@@_STL@@YAAAV?$basic_ostream@DV?$char_traits@D@_STL@@@0@AAV10@@Z ; _STL::endl<char,_STL::char_traits<char> >
  00241	8b 45 e0	 mov	 eax, DWORD PTR $T103952[ebp+8]
  00244	2b 45 d8	 sub	 eax, DWORD PTR $T103952[ebp]
  00247	59		 pop	 ecx
  00248	50		 push	 eax
  00249	ff 75 d8	 push	 DWORD PTR $T103952[ebp]
  0024c	8d 4d e0	 lea	 ecx, DWORD PTR $T103952[ebp+8]
  0024f	c6 45 fc 03	 mov	 BYTE PTR __$EHRec$[ebp+12], 3
  00253	e8 00 00 00 00	 call	 ?deallocate@?$allocator@D@_STL@@QAEXPADI@Z ; _STL::allocator<char>::deallocate

; 81   : 	}

  00258	b8 00 00 00 00	 mov	 eax, $L100455
  0025d	c3		 ret	 0
$L104180:
_TEXT	ENDS
;	COMDAT text$x
text$x	SEGMENT
$L103956:
  00000	8d 4d 9c	 lea	 ecx, DWORD PTR $T103944[ebp]
  00003	e9 00 00 00 00	 jmp	 ??1InvalidProtocolException@@UAE@XZ
$L103958:
  00008	8d 4d 9c	 lea	 ecx, DWORD PTR $T103948[ebp]
  0000b	e9 00 00 00 00	 jmp	 ??1InvalidProtocolException@@UAE@XZ
$L103959:
  00010	8d 4d d8	 lea	 ecx, DWORD PTR $T103952[ebp]
  00013	e9 00 00 00 00	 jmp	 ??1?$basic_string@DV?$char_traits@D@_STL@@V?$allocator@D@2@@_STL@@QAE@XZ ; _STL::basic_string<char,_STL::char_traits<char>,_STL::allocator<char> >::~basic_string<char,_STL::char_traits<char>,_STL::allocator<char> >
__ehhandler$?read@PCSlayerInfo3@@UAEXAAVSocketInputStream@@@Z:
  00018	b8 00 00 00 00	 mov	 eax, OFFSET FLAT:$T104177
  0001d	e9 00 00 00 00	 jmp	 ___CxxFrameHandler
text$x	ENDS
?read@PCSlayerInfo3@@UAEXAAVSocketInputStream@@@Z ENDP	; PCSlayerInfo3::read
PUBLIC	??_C@_0M@CGIAEAIL@HELMET_NONE?$AA@		; `string'
PUBLIC	??_C@_07KPENNMCO@HELMET1?$AA@			; `string'
PUBLIC	??_C@_07IEGAIPON@HELMET2?$AA@			; `string'
PUBLIC	??_C@_07JNHLLOKM@HELMET3?$AA@			; `string'
PUBLIC	??_C@_07NCDKCIGL@HELMET4?$AA@			; `string'
PUBLIC	??_C@_07MLCBBJCK@HELMET5?$AA@			; `string'
PUBLIC	??_C@_07OAAMEKOJ@HELMET6?$AA@			; `string'
PUBLIC	??_C@_07PJBHHLKI@HELMET7?$AA@			; `string'
EXTRN	_atexit:NEAR
CRT$XCU	SEGMENT
_$S18	DD	FLAT:_$E16
CRT$XCU	ENDS
;	COMDAT xdata$x
; File c:\stlport-4.6.1\stlport\stl\_alloc.h
xdata$x	SEGMENT
$T104257 DD	0ffffffffH
	DD	FLAT:$L104198
	DD	00H
	DD	FLAT:$L104199
	DD	01H
	DD	FLAT:$L104200
	DD	02H
	DD	FLAT:$L104201
	DD	03H
	DD	FLAT:$L104202
	DD	04H
	DD	FLAT:$L104203
	DD	05H
	DD	FLAT:$L104204
$T104255 DD	019930520H
	DD	07H
	DD	FLAT:$T104257
	DD	2 DUP(00H)
	DD	2 DUP(00H)
xdata$x	ENDS
;	COMDAT ??_C@_0M@CGIAEAIL@HELMET_NONE?$AA@
CONST	SEGMENT
??_C@_0M@CGIAEAIL@HELMET_NONE?$AA@ DB 'HELMET_NONE', 00H ; `string'
CONST	ENDS
;	COMDAT ??_C@_07KPENNMCO@HELMET1?$AA@
CONST	SEGMENT
??_C@_07KPENNMCO@HELMET1?$AA@ DB 'HELMET1', 00H		; `string'
CONST	ENDS
;	COMDAT ??_C@_07IEGAIPON@HELMET2?$AA@
CONST	SEGMENT
??_C@_07IEGAIPON@HELMET2?$AA@ DB 'HELMET2', 00H		; `string'
CONST	ENDS
;	COMDAT ??_C@_07JNHLLOKM@HELMET3?$AA@
CONST	SEGMENT
??_C@_07JNHLLOKM@HELMET3?$AA@ DB 'HELMET3', 00H		; `string'
CONST	ENDS
;	COMDAT ??_C@_07NCDKCIGL@HELMET4?$AA@
CONST	SEGMENT
??_C@_07NCDKCIGL@HELMET4?$AA@ DB 'HELMET4', 00H		; `string'
CONST	ENDS
;	COMDAT ??_C@_07MLCBBJCK@HELMET5?$AA@
CONST	SEGMENT
??_C@_07MLCBBJCK@HELMET5?$AA@ DB 'HELMET5', 00H		; `string'
CONST	ENDS
;	COMDAT ??_C@_07OAAMEKOJ@HELMET6?$AA@
CONST	SEGMENT
??_C@_07OAAMEKOJ@HELMET6?$AA@ DB 'HELMET6', 00H		; `string'
CONST	ENDS
;	COMDAT ??_C@_07PJBHHLKI@HELMET7?$AA@
CONST	SEGMENT
??_C@_07PJBHHLKI@HELMET7?$AA@ DB 'HELMET7', 00H		; `string'
; Function compile flags: /Ogsy
; File c:\darkeden\designed_common\project\client\packet\types\creaturetypes.h
CONST	ENDS
;	COMDAT _$E16
text$yc	SEGMENT
$T104197 = -13						; size = 1
$T104196 = -13						; size = 1
$T104195 = -13						; size = 1
$T104194 = -13						; size = 1
$T104193 = -13						; size = 1
$T104192 = -13						; size = 1
$T104191 = -13						; size = 1
$T104190 = -13						; size = 1
__$EHRec$ = -12						; size = 12
_$E16	PROC NEAR					; COMDAT

; 48   : { 

  00000	b8 00 00 00 00	 mov	 eax, __ehhandler$_$E16
  00005	e8 00 00 00 00	 call	 __EH_prolog
  0000a	51		 push	 ecx

; 49   : 	"HELMET_NONE" , 

  0000b	8d 45 f3	 lea	 eax, DWORD PTR $T104190[ebp]
  0000e	50		 push	 eax
  0000f	68 00 00 00 00	 push	 OFFSET FLAT:??_C@_0M@CGIAEAIL@HELMET_NONE?$AA@
  00014	b9 00 00 00 00	 mov	 ecx, OFFSET FLAT:_HelmetType2String
  00019	e8 00 00 00 00	 call	 ??0?$basic_string@DV?$char_traits@D@_STL@@V?$allocator@D@2@@_STL@@QAE@PBDABV?$allocator@D@1@@Z ; _STL::basic_string<char,_STL::char_traits<char>,_STL::allocator<char> >::basic_string<char,_STL::char_traits<char>,_STL::allocator<char> >
  0001e	83 65 fc 00	 and	 DWORD PTR __$EHRec$[ebp+8], 0

; 50   : 	"HELMET1" ,

  00022	8d 45 f3	 lea	 eax, DWORD PTR $T104191[ebp]
  00025	50		 push	 eax
  00026	68 00 00 00 00	 push	 OFFSET FLAT:??_C@_07KPENNMCO@HELMET1?$AA@
  0002b	b9 0c 00 00 00	 mov	 ecx, OFFSET FLAT:_HelmetType2String+12
  00030	e8 00 00 00 00	 call	 ??0?$basic_string@DV?$char_traits@D@_STL@@V?$allocator@D@2@@_STL@@QAE@PBDABV?$allocator@D@1@@Z ; _STL::basic_string<char,_STL::char_traits<char>,_STL::allocator<char> >::basic_string<char,_STL::char_traits<char>,_STL::allocator<char> >

; 51   : 	"HELMET2" ,

  00035	8d 45 f3	 lea	 eax, DWORD PTR $T104192[ebp]
  00038	50		 push	 eax
  00039	68 00 00 00 00	 push	 OFFSET FLAT:??_C@_07IEGAIPON@HELMET2?$AA@
  0003e	b9 18 00 00 00	 mov	 ecx, OFFSET FLAT:_HelmetType2String+24
  00043	c6 45 fc 01	 mov	 BYTE PTR __$EHRec$[ebp+8], 1
  00047	e8 00 00 00 00	 call	 ??0?$basic_string@DV?$char_traits@D@_STL@@V?$allocator@D@2@@_STL@@QAE@PBDABV?$allocator@D@1@@Z ; _STL::basic_string<char,_STL::char_traits<char>,_STL::allocator<char> >::basic_string<char,_STL::char_traits<char>,_STL::allocator<char> >

; 52   : 	"HELMET3" ,

  0004c	8d 45 f3	 lea	 eax, DWORD PTR $T104193[ebp]
  0004f	50		 push	 eax
  00050	68 00 00 00 00	 push	 OFFSET FLAT:??_C@_07JNHLLOKM@HELMET3?$AA@
  00055	b9 24 00 00 00	 mov	 ecx, OFFSET FLAT:_HelmetType2String+36
  0005a	c6 45 fc 02	 mov	 BYTE PTR __$EHRec$[ebp+8], 2
  0005e	e8 00 00 00 00	 call	 ??0?$basic_string@DV?$char_traits@D@_STL@@V?$allocator@D@2@@_STL@@QAE@PBDABV?$allocator@D@1@@Z ; _STL::basic_string<char,_STL::char_traits<char>,_STL::allocator<char> >::basic_string<char,_STL::char_traits<char>,_STL::allocator<char> >

; 53   : 	"HELMET4" , //by viva 171

  00063	8d 45 f3	 lea	 eax, DWORD PTR $T104194[ebp]
  00066	50		 push	 eax
  00067	68 00 00 00 00	 push	 OFFSET FLAT:??_C@_07NCDKCIGL@HELMET4?$AA@
  0006c	b9 30 00 00 00	 mov	 ecx, OFFSET FLAT:_HelmetType2String+48
  00071	c6 45 fc 03	 mov	 BYTE PTR __$EHRec$[ebp+8], 3
  00075	e8 00 00 00 00	 call	 ??0?$basic_string@DV?$char_traits@D@_STL@@V?$allocator@D@2@@_STL@@QAE@PBDABV?$allocator@D@1@@Z ; _STL::basic_string<char,_STL::char_traits<char>,_STL::allocator<char> >::basic_string<char,_STL::char_traits<char>,_STL::allocator<char> >

; 54   : 	"HELMET5" ,	//by viva 191

  0007a	8d 45 f3	 lea	 eax, DWORD PTR $T104195[ebp]
  0007d	50		 push	 eax
  0007e	68 00 00 00 00	 push	 OFFSET FLAT:??_C@_07MLCBBJCK@HELMET5?$AA@
  00083	b9 3c 00 00 00	 mov	 ecx, OFFSET FLAT:_HelmetType2String+60
  00088	c6 45 fc 04	 mov	 BYTE PTR __$EHRec$[ebp+8], 4
  0008c	e8 00 00 00 00	 call	 ??0?$basic_string@DV?$char_traits@D@_STL@@V?$allocator@D@2@@_STL@@QAE@PBDABV?$allocator@D@1@@Z ; _STL::basic_string<char,_STL::char_traits<char>,_STL::allocator<char> >::basic_string<char,_STL::char_traits<char>,_STL::allocator<char> >

; 55   : 	"HELMET6" ,//by rallser201

  00091	8d 45 f3	 lea	 eax, DWORD PTR $T104196[ebp]
  00094	50		 push	 eax
  00095	68 00 00 00 00	 push	 OFFSET FLAT:??_C@_07OAAMEKOJ@HELMET6?$AA@
  0009a	b9 48 00 00 00	 mov	 ecx, OFFSET FLAT:_HelmetType2String+72
  0009f	c6 45 fc 05	 mov	 BYTE PTR __$EHRec$[ebp+8], 5
  000a3	e8 00 00 00 00	 call	 ??0?$basic_string@DV?$char_traits@D@_STL@@V?$allocator@D@2@@_STL@@QAE@PBDABV?$allocator@D@1@@Z ; _STL::basic_string<char,_STL::char_traits<char>,_STL::allocator<char> >::basic_string<char,_STL::char_traits<char>,_STL::allocator<char> >

; 56   : 	"HELMET7" ,//by rallser231

  000a8	8d 45 f3	 lea	 eax, DWORD PTR $T104197[ebp]
  000ab	50		 push	 eax
  000ac	68 00 00 00 00	 push	 OFFSET FLAT:??_C@_07PJBHHLKI@HELMET7?$AA@
  000b1	b9 54 00 00 00	 mov	 ecx, OFFSET FLAT:_HelmetType2String+84
  000b6	c6 45 fc 06	 mov	 BYTE PTR __$EHRec$[ebp+8], 6
  000ba	e8 00 00 00 00	 call	 ??0?$basic_string@DV?$char_traits@D@_STL@@V?$allocator@D@2@@_STL@@QAE@PBDABV?$allocator@D@1@@Z ; _STL::basic_string<char,_STL::char_traits<char>,_STL::allocator<char> >::basic_string<char,_STL::char_traits<char>,_STL::allocator<char> >

; 57   : };

  000bf	68 00 00 00 00	 push	 OFFSET FLAT:_$E17
  000c4	e8 00 00 00 00	 call	 _atexit
  000c9	59		 pop	 ecx
  000ca	8b 4d f4	 mov	 ecx, DWORD PTR __$EHRec$[ebp]
  000cd	64 89 0d 00 00
	00 00		 mov	 DWORD PTR fs:__except_list, ecx
  000d4	c9		 leave
  000d5	c3		 ret	 0
text$yc	ENDS
;	COMDAT text$x
text$x	SEGMENT
$L104198:
  00000	b9 00 00 00 00	 mov	 ecx, OFFSET FLAT:_HelmetType2String
  00005	e9 00 00 00 00	 jmp	 ??1?$basic_string@DV?$char_traits@D@_STL@@V?$allocator@D@2@@_STL@@QAE@XZ ; _STL::basic_string<char,_STL::char_traits<char>,_STL::allocator<char> >::~basic_string<char,_STL::char_traits<char>,_STL::allocator<char> >
$L104199:
  0000a	b9 0c 00 00 00	 mov	 ecx, OFFSET FLAT:_HelmetType2String+12
  0000f	e9 00 00 00 00	 jmp	 ??1?$basic_string@DV?$char_traits@D@_STL@@V?$allocator@D@2@@_STL@@QAE@XZ ; _STL::basic_string<char,_STL::char_traits<char>,_STL::allocator<char> >::~basic_string<char,_STL::char_traits<char>,_STL::allocator<char> >
$L104200:
  00014	b9 18 00 00 00	 mov	 ecx, OFFSET FLAT:_HelmetType2String+24
  00019	e9 00 00 00 00	 jmp	 ??1?$basic_string@DV?$char_traits@D@_STL@@V?$allocator@D@2@@_STL@@QAE@XZ ; _STL::basic_string<char,_STL::char_traits<char>,_STL::allocator<char> >::~basic_string<char,_STL::char_traits<char>,_STL::allocator<char> >
$L104201:
  0001e	b9 24 00 00 00	 mov	 ecx, OFFSET FLAT:_HelmetType2String+36
  00023	e9 00 00 00 00	 jmp	 ??1?$basic_string@DV?$char_traits@D@_STL@@V?$allocator@D@2@@_STL@@QAE@XZ ; _STL::basic_string<char,_STL::char_traits<char>,_STL::allocator<char> >::~basic_string<char,_STL::char_traits<char>,_STL::allocator<char> >
$L104202:
  00028	b9 30 00 00 00	 mov	 ecx, OFFSET FLAT:_HelmetType2String+48
  0002d	e9 00 00 00 00	 jmp	 ??1?$basic_string@DV?$char_traits@D@_STL@@V?$allocator@D@2@@_STL@@QAE@XZ ; _STL::basic_string<char,_STL::char_traits<char>,_STL::allocator<char> >::~basic_string<char,_STL::char_traits<char>,_STL::allocator<char> >
$L104203:
  00032	b9 3c 00 00 00	 mov	 ecx, OFFSET FLAT:_HelmetType2String+60
  00037	e9 00 00 00 00	 jmp	 ??1?$basic_string@DV?$char_traits@D@_STL@@V?$allocator@D@2@@_STL@@QAE@XZ ; _STL::basic_string<char,_STL::char_traits<char>,_STL::allocator<char> >::~basic_string<char,_STL::char_traits<char>,_STL::allocator<char> >
$L104204:
  0003c	b9 48 00 00 00	 mov	 ecx, OFFSET FLAT:_HelmetType2String+72
  00041	e9 00 00 00 00	 jmp	 ??1?$basic_string@DV?$char_traits@D@_STL@@V?$allocator@D@2@@_STL@@QAE@XZ ; _STL::basic_string<char,_STL::char_traits<char>,_STL::allocator<char> >::~basic_string<char,_STL::char_traits<char>,_STL::allocator<char> >
__ehhandler$_$E16:
  00046	b8 00 00 00 00	 mov	 eax, OFFSET FLAT:$T104255
  0004b	e9 00 00 00 00	 jmp	 ___CxxFrameHandler
text$x	ENDS
_$E16	ENDP
PUBLIC	??_C@_0N@DPDPMEKH@JACKET_BASIC?$AA@		; `string'
PUBLIC	??_C@_07GHDBLIDF@JACKET1?$AA@			; `string'
PUBLIC	??_C@_07EMBMOLPG@JACKET2?$AA@			; `string'
PUBLIC	??_C@_07FFAHNKLH@JACKET3?$AA@			; `string'
PUBLIC	??_C@_07BKEGEMHA@JACKET4?$AA@			; `string'
PUBLIC	??_C@_07DFNHNDB@JACKET5?$AA@			; `string'
PUBLIC	??_C@_07CIHACOPC@JACKET6?$AA@			; `string'
PUBLIC	??_C@_07DBGLBPLD@JACKET7?$AA@			; `string'
PUBLIC	??_C@_07LGPDADHM@JACKET8?$AA@			; `string'
CRT$XCU	SEGMENT
_$S21	DD	FLAT:_$E19
CRT$XCU	ENDS
;	COMDAT xdata$x
; File c:\stlport-4.6.1\stlport\stl\_alloc.h
xdata$x	SEGMENT
$T104337 DD	0ffffffffH
	DD	FLAT:$L104271
	DD	00H
	DD	FLAT:$L104272
	DD	01H
	DD	FLAT:$L104273
	DD	02H
	DD	FLAT:$L104274
	DD	03H
	DD	FLAT:$L104275
	DD	04H
	DD	FLAT:$L104276
	DD	05H
	DD	FLAT:$L104277
	DD	06H
	DD	FLAT:$L104278
$T104335 DD	019930520H
	DD	08H
	DD	FLAT:$T104337
	DD	2 DUP(00H)
	DD	2 DUP(00H)
xdata$x	ENDS
;	COMDAT ??_C@_0N@DPDPMEKH@JACKET_BASIC?$AA@
CONST	SEGMENT
??_C@_0N@DPDPMEKH@JACKET_BASIC?$AA@ DB 'JACKET_BASIC', 00H ; `string'
CONST	ENDS
;	COMDAT ??_C@_07GHDBLIDF@JACKET1?$AA@
CONST	SEGMENT
??_C@_07GHDBLIDF@JACKET1?$AA@ DB 'JACKET1', 00H		; `string'
CONST	ENDS
;	COMDAT ??_C@_07EMBMOLPG@JACKET2?$AA@
CONST	SEGMENT
??_C@_07EMBMOLPG@JACKET2?$AA@ DB 'JACKET2', 00H		; `string'
CONST	ENDS
;	COMDAT ??_C@_07FFAHNKLH@JACKET3?$AA@
CONST	SEGMENT
??_C@_07FFAHNKLH@JACKET3?$AA@ DB 'JACKET3', 00H		; `string'
CONST	ENDS
;	COMDAT ??_C@_07BKEGEMHA@JACKET4?$AA@
CONST	SEGMENT
??_C@_07BKEGEMHA@JACKET4?$AA@ DB 'JACKET4', 00H		; `string'
CONST	ENDS
;	COMDAT ??_C@_07DFNHNDB@JACKET5?$AA@
CONST	SEGMENT
??_C@_07DFNHNDB@JACKET5?$AA@ DB 'JACKET5', 00H		; `string'
CONST	ENDS
;	COMDAT ??_C@_07CIHACOPC@JACKET6?$AA@
CONST	SEGMENT
??_C@_07CIHACOPC@JACKET6?$AA@ DB 'JACKET6', 00H		; `string'
CONST	ENDS
;	COMDAT ??_C@_07DBGLBPLD@JACKET7?$AA@
CONST	SEGMENT
??_C@_07DBGLBPLD@JACKET7?$AA@ DB 'JACKET7', 00H		; `string'
CONST	ENDS
;	COMDAT ??_C@_07LGPDADHM@JACKET8?$AA@
CONST	SEGMENT
??_C@_07LGPDADHM@JACKET8?$AA@ DB 'JACKET8', 00H		; `string'
; Function compile flags: /Ogsy
; File c:\darkeden\designed_common\project\client\packet\types\creaturetypes.h
CONST	ENDS
;	COMDAT _$E19
text$yc	SEGMENT
$T104270 = -13						; size = 1
$T104269 = -13						; size = 1
$T104268 = -13						; size = 1
$T104267 = -13						; size = 1
$T104266 = -13						; size = 1
$T104265 = -13						; size = 1
$T104264 = -13						; size = 1
$T104263 = -13						; size = 1
$T104262 = -13						; size = 1
__$EHRec$ = -12						; size = 12
_$E19	PROC NEAR					; COMDAT

; 60   : { 

  00000	b8 00 00 00 00	 mov	 eax, __ehhandler$_$E19
  00005	e8 00 00 00 00	 call	 __EH_prolog
  0000a	51		 push	 ecx

; 61   : 	"JACKET_BASIC" , 

  0000b	8d 45 f3	 lea	 eax, DWORD PTR $T104262[ebp]
  0000e	50		 push	 eax
  0000f	68 00 00 00 00	 push	 OFFSET FLAT:??_C@_0N@DPDPMEKH@JACKET_BASIC?$AA@
  00014	b9 00 00 00 00	 mov	 ecx, OFFSET FLAT:_JacketType2String
  00019	e8 00 00 00 00	 call	 ??0?$basic_string@DV?$char_traits@D@_STL@@V?$allocator@D@2@@_STL@@QAE@PBDABV?$allocator@D@1@@Z ; _STL::basic_string<char,_STL::char_traits<char>,_STL::allocator<char> >::basic_string<char,_STL::char_traits<char>,_STL::allocator<char> >
  0001e	83 65 fc 00	 and	 DWORD PTR __$EHRec$[ebp+8], 0

; 62   : 	"JACKET1", 

  00022	8d 45 f3	 lea	 eax, DWORD PTR $T104263[ebp]
  00025	50		 push	 eax
  00026	68 00 00 00 00	 push	 OFFSET FLAT:??_C@_07GHDBLIDF@JACKET1?$AA@
  0002b	b9 0c 00 00 00	 mov	 ecx, OFFSET FLAT:_JacketType2String+12
  00030	e8 00 00 00 00	 call	 ??0?$basic_string@DV?$char_traits@D@_STL@@V?$allocator@D@2@@_STL@@QAE@PBDABV?$allocator@D@1@@Z ; _STL::basic_string<char,_STL::char_traits<char>,_STL::allocator<char> >::basic_string<char,_STL::char_traits<char>,_STL::allocator<char> >

; 63   : 	"JACKET2" ,

  00035	8d 45 f3	 lea	 eax, DWORD PTR $T104264[ebp]
  00038	50		 push	 eax
  00039	68 00 00 00 00	 push	 OFFSET FLAT:??_C@_07EMBMOLPG@JACKET2?$AA@
  0003e	b9 18 00 00 00	 mov	 ecx, OFFSET FLAT:_JacketType2String+24
  00043	c6 45 fc 01	 mov	 BYTE PTR __$EHRec$[ebp+8], 1
  00047	e8 00 00 00 00	 call	 ??0?$basic_string@DV?$char_traits@D@_STL@@V?$allocator@D@2@@_STL@@QAE@PBDABV?$allocator@D@1@@Z ; _STL::basic_string<char,_STL::char_traits<char>,_STL::allocator<char> >::basic_string<char,_STL::char_traits<char>,_STL::allocator<char> >

; 64   : 	"JACKET3" ,

  0004c	8d 45 f3	 lea	 eax, DWORD PTR $T104265[ebp]
  0004f	50		 push	 eax
  00050	68 00 00 00 00	 push	 OFFSET FLAT:??_C@_07FFAHNKLH@JACKET3?$AA@
  00055	b9 24 00 00 00	 mov	 ecx, OFFSET FLAT:_JacketType2String+36
  0005a	c6 45 fc 02	 mov	 BYTE PTR __$EHRec$[ebp+8], 2
  0005e	e8 00 00 00 00	 call	 ??0?$basic_string@DV?$char_traits@D@_STL@@V?$allocator@D@2@@_STL@@QAE@PBDABV?$allocator@D@1@@Z ; _STL::basic_string<char,_STL::char_traits<char>,_STL::allocator<char> >::basic_string<char,_STL::char_traits<char>,_STL::allocator<char> >

; 65   : 	"JACKET4" ,

  00063	8d 45 f3	 lea	 eax, DWORD PTR $T104266[ebp]
  00066	50		 push	 eax
  00067	68 00 00 00 00	 push	 OFFSET FLAT:??_C@_07BKEGEMHA@JACKET4?$AA@
  0006c	b9 30 00 00 00	 mov	 ecx, OFFSET FLAT:_JacketType2String+48
  00071	c6 45 fc 03	 mov	 BYTE PTR __$EHRec$[ebp+8], 3
  00075	e8 00 00 00 00	 call	 ??0?$basic_string@DV?$char_traits@D@_STL@@V?$allocator@D@2@@_STL@@QAE@PBDABV?$allocator@D@1@@Z ; _STL::basic_string<char,_STL::char_traits<char>,_STL::allocator<char> >::basic_string<char,_STL::char_traits<char>,_STL::allocator<char> >

; 66   : 	"JACKET5" ,	//by viva //171

  0007a	8d 45 f3	 lea	 eax, DWORD PTR $T104267[ebp]
  0007d	50		 push	 eax
  0007e	68 00 00 00 00	 push	 OFFSET FLAT:??_C@_07DFNHNDB@JACKET5?$AA@
  00083	b9 3c 00 00 00	 mov	 ecx, OFFSET FLAT:_JacketType2String+60
  00088	c6 45 fc 04	 mov	 BYTE PTR __$EHRec$[ebp+8], 4
  0008c	e8 00 00 00 00	 call	 ??0?$basic_string@DV?$char_traits@D@_STL@@V?$allocator@D@2@@_STL@@QAE@PBDABV?$allocator@D@1@@Z ; _STL::basic_string<char,_STL::char_traits<char>,_STL::allocator<char> >::basic_string<char,_STL::char_traits<char>,_STL::allocator<char> >

; 67   : 	"JACKET6" ,	//191

  00091	8d 45 f3	 lea	 eax, DWORD PTR $T104268[ebp]
  00094	50		 push	 eax
  00095	68 00 00 00 00	 push	 OFFSET FLAT:??_C@_07CIHACOPC@JACKET6?$AA@
  0009a	b9 48 00 00 00	 mov	 ecx, OFFSET FLAT:_JacketType2String+72
  0009f	c6 45 fc 05	 mov	 BYTE PTR __$EHRec$[ebp+8], 5
  000a3	e8 00 00 00 00	 call	 ??0?$basic_string@DV?$char_traits@D@_STL@@V?$allocator@D@2@@_STL@@QAE@PBDABV?$allocator@D@1@@Z ; _STL::basic_string<char,_STL::char_traits<char>,_STL::allocator<char> >::basic_string<char,_STL::char_traits<char>,_STL::allocator<char> >

; 68   : 	"JACKET7" ,

  000a8	8d 45 f3	 lea	 eax, DWORD PTR $T104269[ebp]
  000ab	50		 push	 eax
  000ac	68 00 00 00 00	 push	 OFFSET FLAT:??_C@_07DBGLBPLD@JACKET7?$AA@
  000b1	b9 54 00 00 00	 mov	 ecx, OFFSET FLAT:_JacketType2String+84
  000b6	c6 45 fc 06	 mov	 BYTE PTR __$EHRec$[ebp+8], 6
  000ba	e8 00 00 00 00	 call	 ??0?$basic_string@DV?$char_traits@D@_STL@@V?$allocator@D@2@@_STL@@QAE@PBDABV?$allocator@D@1@@Z ; _STL::basic_string<char,_STL::char_traits<char>,_STL::allocator<char> >::basic_string<char,_STL::char_traits<char>,_STL::allocator<char> >

; 69   : 	"JACKET8", //231,

  000bf	8d 45 f3	 lea	 eax, DWORD PTR $T104270[ebp]
  000c2	50		 push	 eax
  000c3	68 00 00 00 00	 push	 OFFSET FLAT:??_C@_07LGPDADHM@JACKET8?$AA@
  000c8	b9 60 00 00 00	 mov	 ecx, OFFSET FLAT:_JacketType2String+96
  000cd	c6 45 fc 07	 mov	 BYTE PTR __$EHRec$[ebp+8], 7
  000d1	e8 00 00 00 00	 call	 ??0?$basic_string@DV?$char_traits@D@_STL@@V?$allocator@D@2@@_STL@@QAE@PBDABV?$allocator@D@1@@Z ; _STL::basic_string<char,_STL::char_traits<char>,_STL::allocator<char> >::basic_string<char,_STL::char_traits<char>,_STL::allocator<char> >

; 70   : };

  000d6	68 00 00 00 00	 push	 OFFSET FLAT:_$E20
  000db	e8 00 00 00 00	 call	 _atexit
  000e0	59		 pop	 ecx
  000e1	8b 4d f4	 mov	 ecx, DWORD PTR __$EHRec$[ebp]
  000e4	64 89 0d 00 00
	00 00		 mov	 DWORD PTR fs:__except_list, ecx
  000eb	c9		 leave
  000ec	c3		 ret	 0
text$yc	ENDS
;	COMDAT text$x
text$x	SEGMENT
$L104271:
  00000	b9 00 00 00 00	 mov	 ecx, OFFSET FLAT:_JacketType2String
  00005	e9 00 00 00 00	 jmp	 ??1?$basic_string@DV?$char_traits@D@_STL@@V?$allocator@D@2@@_STL@@QAE@XZ ; _STL::basic_string<char,_STL::char_traits<char>,_STL::allocator<char> >::~basic_string<char,_STL::char_traits<char>,_STL::allocator<char> >
$L104272:
  0000a	b9 0c 00 00 00	 mov	 ecx, OFFSET FLAT:_JacketType2String+12
  0000f	e9 00 00 00 00	 jmp	 ??1?$basic_string@DV?$char_traits@D@_STL@@V?$allocator@D@2@@_STL@@QAE@XZ ; _STL::basic_string<char,_STL::char_traits<char>,_STL::allocator<char> >::~basic_string<char,_STL::char_traits<char>,_STL::allocator<char> >
$L104273:
  00014	b9 18 00 00 00	 mov	 ecx, OFFSET FLAT:_JacketType2String+24
  00019	e9 00 00 00 00	 jmp	 ??1?$basic_string@DV?$char_traits@D@_STL@@V?$allocator@D@2@@_STL@@QAE@XZ ; _STL::basic_string<char,_STL::char_traits<char>,_STL::allocator<char> >::~basic_string<char,_STL::char_traits<char>,_STL::allocator<char> >
$L104274:
  0001e	b9 24 00 00 00	 mov	 ecx, OFFSET FLAT:_JacketType2String+36
  00023	e9 00 00 00 00	 jmp	 ??1?$basic_string@DV?$char_traits@D@_STL@@V?$allocator@D@2@@_STL@@QAE@XZ ; _STL::basic_string<char,_STL::char_traits<char>,_STL::allocator<char> >::~basic_string<char,_STL::char_traits<char>,_STL::allocator<char> >
$L104275:
  00028	b9 30 00 00 00	 mov	 ecx, OFFSET FLAT:_JacketType2String+48
  0002d	e9 00 00 00 00	 jmp	 ??1?$basic_string@DV?$char_traits@D@_STL@@V?$allocator@D@2@@_STL@@QAE@XZ ; _STL::basic_string<char,_STL::char_traits<char>,_STL::allocator<char> >::~basic_string<char,_STL::char_traits<char>,_STL::allocator<char> >
$L104276:
  00032	b9 3c 00 00 00	 mov	 ecx, OFFSET FLAT:_JacketType2String+60
  00037	e9 00 00 00 00	 jmp	 ??1?$basic_string@DV?$char_traits@D@_STL@@V?$allocator@D@2@@_STL@@QAE@XZ ; _STL::basic_string<char,_STL::char_traits<char>,_STL::allocator<char> >::~basic_string<char,_STL::char_traits<char>,_STL::allocator<char> >
$L104277:
  0003c	b9 48 00 00 00	 mov	 ecx, OFFSET FLAT:_JacketType2String+72
  00041	e9 00 00 00 00	 jmp	 ??1?$basic_string@DV?$char_traits@D@_STL@@V?$allocator@D@2@@_STL@@QAE@XZ ; _STL::basic_string<char,_STL::char_traits<char>,_STL::allocator<char> >::~basic_string<char,_STL::char_traits<char>,_STL::allocator<char> >
$L104278:
  00046	b9 54 00 00 00	 mov	 ecx, OFFSET FLAT:_JacketType2String+84
  0004b	e9 00 00 00 00	 jmp	 ??1?$basic_string@DV?$char_traits@D@_STL@@V?$allocator@D@2@@_STL@@QAE@XZ ; _STL::basic_string<char,_STL::char_traits<char>,_STL::allocator<char> >::~basic_string<char,_STL::char_traits<char>,_STL::allocator<char> >
__ehhandler$_$E19:
  00050	b8 00 00 00 00	 mov	 eax, OFFSET FLAT:$T104335
  00055	e9 00 00 00 00	 jmp	 ___CxxFrameHandler
text$x	ENDS
_$E19	ENDP
PUBLIC	??_C@_0M@FEMKDPPK@PANTS_BASIC?$AA@		; `string'
PUBLIC	??_C@_06IOEJPJHJ@PANTS1?$AA@			; `string'
PUBLIC	??_C@_06KFGEKKLK@PANTS2?$AA@			; `string'
PUBLIC	??_C@_06LMHPJLPL@PANTS3?$AA@			; `string'
PUBLIC	??_C@_06PDDOANDM@PANTS4?$AA@			; `string'
PUBLIC	??_C@_06OKCFDMHN@PANTS5?$AA@			; `string'
PUBLIC	??_C@_06MBAIGPLO@PANTS6?$AA@			; `string'
CRT$XCU	SEGMENT
_$S24	DD	FLAT:_$E22
CRT$XCU	ENDS
;	COMDAT xdata$x
; File c:\stlport-4.6.1\stlport\stl\_alloc.h
xdata$x	SEGMENT
$T104401 DD	0ffffffffH
	DD	FLAT:$L104349
	DD	00H
	DD	FLAT:$L104350
	DD	01H
	DD	FLAT:$L104351
	DD	02H
	DD	FLAT:$L104352
	DD	03H
	DD	FLAT:$L104353
	DD	04H
	DD	FLAT:$L104354
$T104399 DD	019930520H
	DD	06H
	DD	FLAT:$T104401
	DD	2 DUP(00H)
	DD	2 DUP(00H)
xdata$x	ENDS
;	COMDAT ??_C@_0M@FEMKDPPK@PANTS_BASIC?$AA@
CONST	SEGMENT
??_C@_0M@FEMKDPPK@PANTS_BASIC?$AA@ DB 'PANTS_BASIC', 00H ; `string'
CONST	ENDS
;	COMDAT ??_C@_06IOEJPJHJ@PANTS1?$AA@
CONST	SEGMENT
??_C@_06IOEJPJHJ@PANTS1?$AA@ DB 'PANTS1', 00H		; `string'
CONST	ENDS
;	COMDAT ??_C@_06KFGEKKLK@PANTS2?$AA@
CONST	SEGMENT
??_C@_06KFGEKKLK@PANTS2?$AA@ DB 'PANTS2', 00H		; `string'
CONST	ENDS
;	COMDAT ??_C@_06LMHPJLPL@PANTS3?$AA@
CONST	SEGMENT
??_C@_06LMHPJLPL@PANTS3?$AA@ DB 'PANTS3', 00H		; `string'
CONST	ENDS
;	COMDAT ??_C@_06PDDOANDM@PANTS4?$AA@
CONST	SEGMENT
??_C@_06PDDOANDM@PANTS4?$AA@ DB 'PANTS4', 00H		; `string'
CONST	ENDS
;	COMDAT ??_C@_06OKCFDMHN@PANTS5?$AA@
CONST	SEGMENT
??_C@_06OKCFDMHN@PANTS5?$AA@ DB 'PANTS5', 00H		; `string'
CONST	ENDS
;	COMDAT ??_C@_06MBAIGPLO@PANTS6?$AA@
CONST	SEGMENT
??_C@_06MBAIGPLO@PANTS6?$AA@ DB 'PANTS6', 00H		; `string'
; Function compile flags: /Ogsy
; File c:\darkeden\designed_common\project\client\packet\types\creaturetypes.h
CONST	ENDS
;	COMDAT _$E22
text$yc	SEGMENT
$T104348 = -13						; size = 1
$T104347 = -13						; size = 1
$T104346 = -13						; size = 1
$T104345 = -13						; size = 1
$T104344 = -13						; size = 1
$T104343 = -13						; size = 1
$T104342 = -13						; size = 1
__$EHRec$ = -12						; size = 12
_$E22	PROC NEAR					; COMDAT

; 73   : { 

  00000	b8 00 00 00 00	 mov	 eax, __ehhandler$_$E22
  00005	e8 00 00 00 00	 call	 __EH_prolog
  0000a	51		 push	 ecx

; 74   : 	"PANTS_BASIC", 

  0000b	8d 45 f3	 lea	 eax, DWORD PTR $T104342[ebp]
  0000e	50		 push	 eax
  0000f	68 00 00 00 00	 push	 OFFSET FLAT:??_C@_0M@FEMKDPPK@PANTS_BASIC?$AA@
  00014	b9 00 00 00 00	 mov	 ecx, OFFSET FLAT:_PantsType2String
  00019	e8 00 00 00 00	 call	 ??0?$basic_string@DV?$char_traits@D@_STL@@V?$allocator@D@2@@_STL@@QAE@PBDABV?$allocator@D@1@@Z ; _STL::basic_string<char,_STL::char_traits<char>,_STL::allocator<char> >::basic_string<char,_STL::char_traits<char>,_STL::allocator<char> >
  0001e	83 65 fc 00	 and	 DWORD PTR __$EHRec$[ebp+8], 0

; 75   : 	"PANTS1", 

  00022	8d 45 f3	 lea	 eax, DWORD PTR $T104343[ebp]
  00025	50		 push	 eax
  00026	68 00 00 00 00	 push	 OFFSET FLAT:??_C@_06IOEJPJHJ@PANTS1?$AA@
  0002b	b9 0c 00 00 00	 mov	 ecx, OFFSET FLAT:_PantsType2String+12
  00030	e8 00 00 00 00	 call	 ??0?$basic_string@DV?$char_traits@D@_STL@@V?$allocator@D@2@@_STL@@QAE@PBDABV?$allocator@D@1@@Z ; _STL::basic_string<char,_STL::char_traits<char>,_STL::allocator<char> >::basic_string<char,_STL::char_traits<char>,_STL::allocator<char> >

; 76   : 	"PANTS2",

  00035	8d 45 f3	 lea	 eax, DWORD PTR $T104344[ebp]
  00038	50		 push	 eax
  00039	68 00 00 00 00	 push	 OFFSET FLAT:??_C@_06KFGEKKLK@PANTS2?$AA@
  0003e	b9 18 00 00 00	 mov	 ecx, OFFSET FLAT:_PantsType2String+24
  00043	c6 45 fc 01	 mov	 BYTE PTR __$EHRec$[ebp+8], 1
  00047	e8 00 00 00 00	 call	 ??0?$basic_string@DV?$char_traits@D@_STL@@V?$allocator@D@2@@_STL@@QAE@PBDABV?$allocator@D@1@@Z ; _STL::basic_string<char,_STL::char_traits<char>,_STL::allocator<char> >::basic_string<char,_STL::char_traits<char>,_STL::allocator<char> >

; 77   : 	"PANTS3",

  0004c	8d 45 f3	 lea	 eax, DWORD PTR $T104345[ebp]
  0004f	50		 push	 eax
  00050	68 00 00 00 00	 push	 OFFSET FLAT:??_C@_06LMHPJLPL@PANTS3?$AA@
  00055	b9 24 00 00 00	 mov	 ecx, OFFSET FLAT:_PantsType2String+36
  0005a	c6 45 fc 02	 mov	 BYTE PTR __$EHRec$[ebp+8], 2
  0005e	e8 00 00 00 00	 call	 ??0?$basic_string@DV?$char_traits@D@_STL@@V?$allocator@D@2@@_STL@@QAE@PBDABV?$allocator@D@1@@Z ; _STL::basic_string<char,_STL::char_traits<char>,_STL::allocator<char> >::basic_string<char,_STL::char_traits<char>,_STL::allocator<char> >

; 78   : 	"PANTS4",

  00063	8d 45 f3	 lea	 eax, DWORD PTR $T104346[ebp]
  00066	50		 push	 eax
  00067	68 00 00 00 00	 push	 OFFSET FLAT:??_C@_06PDDOANDM@PANTS4?$AA@
  0006c	b9 30 00 00 00	 mov	 ecx, OFFSET FLAT:_PantsType2String+48
  00071	c6 45 fc 03	 mov	 BYTE PTR __$EHRec$[ebp+8], 3
  00075	e8 00 00 00 00	 call	 ??0?$basic_string@DV?$char_traits@D@_STL@@V?$allocator@D@2@@_STL@@QAE@PBDABV?$allocator@D@1@@Z ; _STL::basic_string<char,_STL::char_traits<char>,_STL::allocator<char> >::basic_string<char,_STL::char_traits<char>,_STL::allocator<char> >

; 79   : 	"PANTS5",

  0007a	8d 45 f3	 lea	 eax, DWORD PTR $T104347[ebp]
  0007d	50		 push	 eax
  0007e	68 00 00 00 00	 push	 OFFSET FLAT:??_C@_06OKCFDMHN@PANTS5?$AA@
  00083	b9 3c 00 00 00	 mov	 ecx, OFFSET FLAT:_PantsType2String+60
  00088	c6 45 fc 04	 mov	 BYTE PTR __$EHRec$[ebp+8], 4
  0008c	e8 00 00 00 00	 call	 ??0?$basic_string@DV?$char_traits@D@_STL@@V?$allocator@D@2@@_STL@@QAE@PBDABV?$allocator@D@1@@Z ; _STL::basic_string<char,_STL::char_traits<char>,_STL::allocator<char> >::basic_string<char,_STL::char_traits<char>,_STL::allocator<char> >

; 80   : 	"PANTS6",

  00091	8d 45 f3	 lea	 eax, DWORD PTR $T104348[ebp]
  00094	50		 push	 eax
  00095	68 00 00 00 00	 push	 OFFSET FLAT:??_C@_06MBAIGPLO@PANTS6?$AA@
  0009a	b9 48 00 00 00	 mov	 ecx, OFFSET FLAT:_PantsType2String+72
  0009f	c6 45 fc 05	 mov	 BYTE PTR __$EHRec$[ebp+8], 5
  000a3	e8 00 00 00 00	 call	 ??0?$basic_string@DV?$char_traits@D@_STL@@V?$allocator@D@2@@_STL@@QAE@PBDABV?$allocator@D@1@@Z ; _STL::basic_string<char,_STL::char_traits<char>,_STL::allocator<char> >::basic_string<char,_STL::char_traits<char>,_STL::allocator<char> >

; 81   : };

  000a8	68 00 00 00 00	 push	 OFFSET FLAT:_$E23
  000ad	e8 00 00 00 00	 call	 _atexit
  000b2	59		 pop	 ecx
  000b3	8b 4d f4	 mov	 ecx, DWORD PTR __$EHRec$[ebp]
  000b6	64 89 0d 00 00
	00 00		 mov	 DWORD PTR fs:__except_list, ecx
  000bd	c9		 leave
  000be	c3		 ret	 0
text$yc	ENDS
;	COMDAT text$x
text$x	SEGMENT
$L104349:
  00000	b9 00 00 00 00	 mov	 ecx, OFFSET FLAT:_PantsType2String
  00005	e9 00 00 00 00	 jmp	 ??1?$basic_string@DV?$char_traits@D@_STL@@V?$allocator@D@2@@_STL@@QAE@XZ ; _STL::basic_string<char,_STL::char_traits<char>,_STL::allocator<char> >::~basic_string<char,_STL::char_traits<char>,_STL::allocator<char> >
$L104350:
  0000a	b9 0c 00 00 00	 mov	 ecx, OFFSET FLAT:_PantsType2String+12
  0000f	e9 00 00 00 00	 jmp	 ??1?$basic_string@DV?$char_traits@D@_STL@@V?$allocator@D@2@@_STL@@QAE@XZ ; _STL::basic_string<char,_STL::char_traits<char>,_STL::allocator<char> >::~basic_string<char,_STL::char_traits<char>,_STL::allocator<char> >
$L104351:
  00014	b9 18 00 00 00	 mov	 ecx, OFFSET FLAT:_PantsType2String+24
  00019	e9 00 00 00 00	 jmp	 ??1?$basic_string@DV?$char_traits@D@_STL@@V?$allocator@D@2@@_STL@@QAE@XZ ; _STL::basic_string<char,_STL::char_traits<char>,_STL::allocator<char> >::~basic_string<char,_STL::char_traits<char>,_STL::allocator<char> >
$L104352:
  0001e	b9 24 00 00 00	 mov	 ecx, OFFSET FLAT:_PantsType2String+36
  00023	e9 00 00 00 00	 jmp	 ??1?$basic_string@DV?$char_traits@D@_STL@@V?$allocator@D@2@@_STL@@QAE@XZ ; _STL::basic_string<char,_STL::char_traits<char>,_STL::allocator<char> >::~basic_string<char,_STL::char_traits<char>,_STL::allocator<char> >
$L104353:
  00028	b9 30 00 00 00	 mov	 ecx, OFFSET FLAT:_PantsType2String+48
  0002d	e9 00 00 00 00	 jmp	 ??1?$basic_string@DV?$char_traits@D@_STL@@V?$allocator@D@2@@_STL@@QAE@XZ ; _STL::basic_string<char,_STL::char_traits<char>,_STL::allocator<char> >::~basic_string<char,_STL::char_traits<char>,_STL::allocator<char> >
$L104354:
  00032	b9 3c 00 00 00	 mov	 ecx, OFFSET FLAT:_PantsType2String+60
  00037	e9 00 00 00 00	 jmp	 ??1?$basic_string@DV?$char_traits@D@_STL@@V?$allocator@D@2@@_STL@@QAE@XZ ; _STL::basic_string<char,_STL::char_traits<char>,_STL::allocator<char> >::~basic_string<char,_STL::char_traits<char>,_STL::allocator<char> >
__ehhandler$_$E22:
  0003c	b8 00 00 00 00	 mov	 eax, OFFSET FLAT:$T104399
  00041	e9 00 00 00 00	 jmp	 ___CxxFrameHandler
text$x	ENDS
_$E22	ENDP
PUBLIC	??_C@_0M@KCBDMDNI@WEAPON_NONE?$AA@		; `string'
PUBLIC	??_C@_0N@FCLCNMLC@WEAPON_SWORD?$AA@		; `string'
PUBLIC	??_C@_0P@NDAGDNIL@WEAPON_SWORD_2?$AA@		; `string'
PUBLIC	??_C@_0N@GMGHDCKP@WEAPON_BLADE?$AA@		; `string'
PUBLIC	??_C@_0P@GLNIKADN@WEAPON_BLADE_2?$AA@		; `string'
PUBLIC	??_C@_09HJIOIJGO@WEAPON_SR?$AA@			; `string'
PUBLIC	??_C@_0M@OFIKDJNP@WEAPON_SR_2?$AA@		; `string'
PUBLIC	??_C@_09GGCMPOHA@WEAPON_AR?$AA@			; `string'
PUBLIC	??_C@_0M@PPKKPNDN@WEAPON_AR_2?$AA@		; `string'
PUBLIC	??_C@_09EODLGPHK@WEAPON_SG?$AA@			; `string'
PUBLIC	??_C@_0L@CDBPPFJ@WEAPON_SMG?$AA@		; `string'
PUBLIC	??_C@_0N@JNMFLPPI@WEAPON_CROSS?$AA@		; `string'
PUBLIC	??_C@_0P@NCLGFJB@WEAPON_CROSS_2?$AA@		; `string'
PUBLIC	??_C@_0M@NLEFNGI@WEAPON_MACE?$AA@		; `string'
PUBLIC	??_C@_0O@DCGOPMKO@WEAPON_MACE_2?$AA@		; `string'
CRT$XCU	SEGMENT
_$S27	DD	FLAT:_$E25
CRT$XCU	ENDS
;	COMDAT xdata$x
; File c:\stlport-4.6.1\stlport\stl\_alloc.h
xdata$x	SEGMENT
$T104529 DD	0ffffffffH
	DD	FLAT:$L104421
	DD	00H
	DD	FLAT:$L104422
	DD	01H
	DD	FLAT:$L104423
	DD	02H
	DD	FLAT:$L104424
	DD	03H
	DD	FLAT:$L104425
	DD	04H
	DD	FLAT:$L104426
	DD	05H
	DD	FLAT:$L104427
	DD	06H
	DD	FLAT:$L104428
	DD	07H
	DD	FLAT:$L104429
	DD	08H
	DD	FLAT:$L104430
	DD	09H
	DD	FLAT:$L104431
	DD	0aH
	DD	FLAT:$L104432
	DD	0bH
	DD	FLAT:$L104433
	DD	0cH
	DD	FLAT:$L104434
$T104527 DD	019930520H
	DD	0eH
	DD	FLAT:$T104529
	DD	2 DUP(00H)
	DD	2 DUP(00H)
xdata$x	ENDS
;	COMDAT ??_C@_0M@KCBDMDNI@WEAPON_NONE?$AA@
CONST	SEGMENT
??_C@_0M@KCBDMDNI@WEAPON_NONE?$AA@ DB 'WEAPON_NONE', 00H ; `string'
CONST	ENDS
;	COMDAT ??_C@_0N@FCLCNMLC@WEAPON_SWORD?$AA@
CONST	SEGMENT
??_C@_0N@FCLCNMLC@WEAPON_SWORD?$AA@ DB 'WEAPON_SWORD', 00H ; `string'
CONST	ENDS
;	COMDAT ??_C@_0P@NDAGDNIL@WEAPON_SWORD_2?$AA@
CONST	SEGMENT
??_C@_0P@NDAGDNIL@WEAPON_SWORD_2?$AA@ DB 'WEAPON_SWORD_2', 00H ; `string'
CONST	ENDS
;	COMDAT ??_C@_0N@GMGHDCKP@WEAPON_BLADE?$AA@
CONST	SEGMENT
??_C@_0N@GMGHDCKP@WEAPON_BLADE?$AA@ DB 'WEAPON_BLADE', 00H ; `string'
CONST	ENDS
;	COMDAT ??_C@_0P@GLNIKADN@WEAPON_BLADE_2?$AA@
CONST	SEGMENT
??_C@_0P@GLNIKADN@WEAPON_BLADE_2?$AA@ DB 'WEAPON_BLADE_2', 00H ; `string'
CONST	ENDS
;	COMDAT ??_C@_09HJIOIJGO@WEAPON_SR?$AA@
CONST	SEGMENT
??_C@_09HJIOIJGO@WEAPON_SR?$AA@ DB 'WEAPON_SR', 00H	; `string'
CONST	ENDS
;	COMDAT ??_C@_0M@OFIKDJNP@WEAPON_SR_2?$AA@
CONST	SEGMENT
??_C@_0M@OFIKDJNP@WEAPON_SR_2?$AA@ DB 'WEAPON_SR_2', 00H ; `string'
CONST	ENDS
;	COMDAT ??_C@_09GGCMPOHA@WEAPON_AR?$AA@
CONST	SEGMENT
??_C@_09GGCMPOHA@WEAPON_AR?$AA@ DB 'WEAPON_AR', 00H	; `string'
CONST	ENDS
;	COMDAT ??_C@_0M@PPKKPNDN@WEAPON_AR_2?$AA@
CONST	SEGMENT
??_C@_0M@PPKKPNDN@WEAPON_AR_2?$AA@ DB 'WEAPON_AR_2', 00H ; `string'
CONST	ENDS
;	COMDAT ??_C@_09EODLGPHK@WEAPON_SG?$AA@
CONST	SEGMENT
??_C@_09EODLGPHK@WEAPON_SG?$AA@ DB 'WEAPON_SG', 00H	; `string'
CONST	ENDS
;	COMDAT ??_C@_0L@CDBPPFJ@WEAPON_SMG?$AA@
CONST	SEGMENT
??_C@_0L@CDBPPFJ@WEAPON_SMG?$AA@ DB 'WEAPON_SMG', 00H	; `string'
CONST	ENDS
;	COMDAT ??_C@_0N@JNMFLPPI@WEAPON_CROSS?$AA@
CONST	SEGMENT
??_C@_0N@JNMFLPPI@WEAPON_CROSS?$AA@ DB 'WEAPON_CROSS', 00H ; `string'
CONST	ENDS
;	COMDAT ??_C@_0P@NCLGFJB@WEAPON_CROSS_2?$AA@
CONST	SEGMENT
??_C@_0P@NCLGFJB@WEAPON_CROSS_2?$AA@ DB 'WEAPON_CROSS_2', 00H ; `string'
CONST	ENDS
;	COMDAT ??_C@_0M@NLEFNGI@WEAPON_MACE?$AA@
CONST	SEGMENT
??_C@_0M@NLEFNGI@WEAPON_MACE?$AA@ DB 'WEAPON_MACE', 00H	; `string'
CONST	ENDS
;	COMDAT ??_C@_0O@DCGOPMKO@WEAPON_MACE_2?$AA@
CONST	SEGMENT
??_C@_0O@DCGOPMKO@WEAPON_MACE_2?$AA@ DB 'WEAPON_MACE_2', 00H ; `string'
; Function compile flags: /Ogsy
; File c:\darkeden\designed_common\project\client\packet\types\creaturetypes.h
CONST	ENDS
;	COMDAT _$E25
text$yc	SEGMENT
$T104420 = -13						; size = 1
$T104419 = -13						; size = 1
$T104418 = -13						; size = 1
$T104417 = -13						; size = 1
$T104416 = -13						; size = 1
$T104415 = -13						; size = 1
$T104414 = -13						; size = 1
$T104413 = -13						; size = 1
$T104412 = -13						; size = 1
$T104411 = -13						; size = 1
$T104410 = -13						; size = 1
$T104409 = -13						; size = 1
$T104408 = -13						; size = 1
$T104407 = -13						; size = 1
$T104406 = -13						; size = 1
__$EHRec$ = -12						; size = 12
_$E25	PROC NEAR					; COMDAT

; 84   : { 

  00000	b8 00 00 00 00	 mov	 eax, __ehhandler$_$E25
  00005	e8 00 00 00 00	 call	 __EH_prolog
  0000a	51		 push	 ecx

; 85   : 	"WEAPON_NONE",

  0000b	8d 45 f3	 lea	 eax, DWORD PTR $T104406[ebp]
  0000e	50		 push	 eax
  0000f	68 00 00 00 00	 push	 OFFSET FLAT:??_C@_0M@KCBDMDNI@WEAPON_NONE?$AA@
  00014	b9 00 00 00 00	 mov	 ecx, OFFSET FLAT:_WeaponType2String
  00019	e8 00 00 00 00	 call	 ??0?$basic_string@DV?$char_traits@D@_STL@@V?$allocator@D@2@@_STL@@QAE@PBDABV?$allocator@D@1@@Z ; _STL::basic_string<char,_STL::char_traits<char>,_STL::allocator<char> >::basic_string<char,_STL::char_traits<char>,_STL::allocator<char> >
  0001e	83 65 fc 00	 and	 DWORD PTR __$EHRec$[ebp+8], 0

; 86   : 	"WEAPON_SWORD",

  00022	8d 45 f3	 lea	 eax, DWORD PTR $T104407[ebp]
  00025	50		 push	 eax
  00026	68 00 00 00 00	 push	 OFFSET FLAT:??_C@_0N@FCLCNMLC@WEAPON_SWORD?$AA@
  0002b	b9 0c 00 00 00	 mov	 ecx, OFFSET FLAT:_WeaponType2String+12
  00030	e8 00 00 00 00	 call	 ??0?$basic_string@DV?$char_traits@D@_STL@@V?$allocator@D@2@@_STL@@QAE@PBDABV?$allocator@D@1@@Z ; _STL::basic_string<char,_STL::char_traits<char>,_STL::allocator<char> >::basic_string<char,_STL::char_traits<char>,_STL::allocator<char> >

; 87   : 	"WEAPON_SWORD_2",	//by viva 171 181

  00035	8d 45 f3	 lea	 eax, DWORD PTR $T104408[ebp]
  00038	50		 push	 eax
  00039	68 00 00 00 00	 push	 OFFSET FLAT:??_C@_0P@NDAGDNIL@WEAPON_SWORD_2?$AA@
  0003e	b9 18 00 00 00	 mov	 ecx, OFFSET FLAT:_WeaponType2String+24
  00043	c6 45 fc 01	 mov	 BYTE PTR __$EHRec$[ebp+8], 1
  00047	e8 00 00 00 00	 call	 ??0?$basic_string@DV?$char_traits@D@_STL@@V?$allocator@D@2@@_STL@@QAE@PBDABV?$allocator@D@1@@Z ; _STL::basic_string<char,_STL::char_traits<char>,_STL::allocator<char> >::basic_string<char,_STL::char_traits<char>,_STL::allocator<char> >

; 88   : //	"WEAPON_SWORD_3",
; 89   : 	"WEAPON_BLADE",

  0004c	8d 45 f3	 lea	 eax, DWORD PTR $T104409[ebp]
  0004f	50		 push	 eax
  00050	68 00 00 00 00	 push	 OFFSET FLAT:??_C@_0N@GMGHDCKP@WEAPON_BLADE?$AA@
  00055	b9 24 00 00 00	 mov	 ecx, OFFSET FLAT:_WeaponType2String+36
  0005a	c6 45 fc 02	 mov	 BYTE PTR __$EHRec$[ebp+8], 2
  0005e	e8 00 00 00 00	 call	 ??0?$basic_string@DV?$char_traits@D@_STL@@V?$allocator@D@2@@_STL@@QAE@PBDABV?$allocator@D@1@@Z ; _STL::basic_string<char,_STL::char_traits<char>,_STL::allocator<char> >::basic_string<char,_STL::char_traits<char>,_STL::allocator<char> >

; 90   : 	"WEAPON_BLADE_2",

  00063	8d 45 f3	 lea	 eax, DWORD PTR $T104410[ebp]
  00066	50		 push	 eax
  00067	68 00 00 00 00	 push	 OFFSET FLAT:??_C@_0P@GLNIKADN@WEAPON_BLADE_2?$AA@
  0006c	b9 30 00 00 00	 mov	 ecx, OFFSET FLAT:_WeaponType2String+48
  00071	c6 45 fc 03	 mov	 BYTE PTR __$EHRec$[ebp+8], 3
  00075	e8 00 00 00 00	 call	 ??0?$basic_string@DV?$char_traits@D@_STL@@V?$allocator@D@2@@_STL@@QAE@PBDABV?$allocator@D@1@@Z ; _STL::basic_string<char,_STL::char_traits<char>,_STL::allocator<char> >::basic_string<char,_STL::char_traits<char>,_STL::allocator<char> >

; 91   : 	//"WEAPON_BLADE_3",
; 92   : 	"WEAPON_SR",

  0007a	8d 45 f3	 lea	 eax, DWORD PTR $T104411[ebp]
  0007d	50		 push	 eax
  0007e	68 00 00 00 00	 push	 OFFSET FLAT:??_C@_09HJIOIJGO@WEAPON_SR?$AA@
  00083	b9 3c 00 00 00	 mov	 ecx, OFFSET FLAT:_WeaponType2String+60
  00088	c6 45 fc 04	 mov	 BYTE PTR __$EHRec$[ebp+8], 4
  0008c	e8 00 00 00 00	 call	 ??0?$basic_string@DV?$char_traits@D@_STL@@V?$allocator@D@2@@_STL@@QAE@PBDABV?$allocator@D@1@@Z ; _STL::basic_string<char,_STL::char_traits<char>,_STL::allocator<char> >::basic_string<char,_STL::char_traits<char>,_STL::allocator<char> >

; 93   : 	"WEAPON_SR_2",

  00091	8d 45 f3	 lea	 eax, DWORD PTR $T104412[ebp]
  00094	50		 push	 eax
  00095	68 00 00 00 00	 push	 OFFSET FLAT:??_C@_0M@OFIKDJNP@WEAPON_SR_2?$AA@
  0009a	b9 48 00 00 00	 mov	 ecx, OFFSET FLAT:_WeaponType2String+72
  0009f	c6 45 fc 05	 mov	 BYTE PTR __$EHRec$[ebp+8], 5
  000a3	e8 00 00 00 00	 call	 ??0?$basic_string@DV?$char_traits@D@_STL@@V?$allocator@D@2@@_STL@@QAE@PBDABV?$allocator@D@1@@Z ; _STL::basic_string<char,_STL::char_traits<char>,_STL::allocator<char> >::basic_string<char,_STL::char_traits<char>,_STL::allocator<char> >

; 94   : //	"WEAPON_SR_3",
; 95   : 	"WEAPON_AR",

  000a8	8d 45 f3	 lea	 eax, DWORD PTR $T104413[ebp]
  000ab	50		 push	 eax
  000ac	68 00 00 00 00	 push	 OFFSET FLAT:??_C@_09GGCMPOHA@WEAPON_AR?$AA@
  000b1	b9 54 00 00 00	 mov	 ecx, OFFSET FLAT:_WeaponType2String+84
  000b6	c6 45 fc 06	 mov	 BYTE PTR __$EHRec$[ebp+8], 6
  000ba	e8 00 00 00 00	 call	 ??0?$basic_string@DV?$char_traits@D@_STL@@V?$allocator@D@2@@_STL@@QAE@PBDABV?$allocator@D@1@@Z ; _STL::basic_string<char,_STL::char_traits<char>,_STL::allocator<char> >::basic_string<char,_STL::char_traits<char>,_STL::allocator<char> >

; 96   : 	"WEAPON_AR_2",

  000bf	8d 45 f3	 lea	 eax, DWORD PTR $T104414[ebp]
  000c2	50		 push	 eax
  000c3	68 00 00 00 00	 push	 OFFSET FLAT:??_C@_0M@PPKKPNDN@WEAPON_AR_2?$AA@
  000c8	b9 60 00 00 00	 mov	 ecx, OFFSET FLAT:_WeaponType2String+96
  000cd	c6 45 fc 07	 mov	 BYTE PTR __$EHRec$[ebp+8], 7
  000d1	e8 00 00 00 00	 call	 ??0?$basic_string@DV?$char_traits@D@_STL@@V?$allocator@D@2@@_STL@@QAE@PBDABV?$allocator@D@1@@Z ; _STL::basic_string<char,_STL::char_traits<char>,_STL::allocator<char> >::basic_string<char,_STL::char_traits<char>,_STL::allocator<char> >

; 97   : //	"WEAPON_AR_3",
; 98   : 	"WEAPON_SG",

  000d6	8d 45 f3	 lea	 eax, DWORD PTR $T104415[ebp]
  000d9	50		 push	 eax
  000da	68 00 00 00 00	 push	 OFFSET FLAT:??_C@_09EODLGPHK@WEAPON_SG?$AA@
  000df	b9 6c 00 00 00	 mov	 ecx, OFFSET FLAT:_WeaponType2String+108
  000e4	c6 45 fc 08	 mov	 BYTE PTR __$EHRec$[ebp+8], 8
  000e8	e8 00 00 00 00	 call	 ??0?$basic_string@DV?$char_traits@D@_STL@@V?$allocator@D@2@@_STL@@QAE@PBDABV?$allocator@D@1@@Z ; _STL::basic_string<char,_STL::char_traits<char>,_STL::allocator<char> >::basic_string<char,_STL::char_traits<char>,_STL::allocator<char> >

; 99   : 	"WEAPON_SMG",

  000ed	8d 45 f3	 lea	 eax, DWORD PTR $T104416[ebp]
  000f0	50		 push	 eax
  000f1	68 00 00 00 00	 push	 OFFSET FLAT:??_C@_0L@CDBPPFJ@WEAPON_SMG?$AA@
  000f6	b9 78 00 00 00	 mov	 ecx, OFFSET FLAT:_WeaponType2String+120
  000fb	c6 45 fc 09	 mov	 BYTE PTR __$EHRec$[ebp+8], 9
  000ff	e8 00 00 00 00	 call	 ??0?$basic_string@DV?$char_traits@D@_STL@@V?$allocator@D@2@@_STL@@QAE@PBDABV?$allocator@D@1@@Z ; _STL::basic_string<char,_STL::char_traits<char>,_STL::allocator<char> >::basic_string<char,_STL::char_traits<char>,_STL::allocator<char> >

; 100  : 	"WEAPON_CROSS",

  00104	8d 45 f3	 lea	 eax, DWORD PTR $T104417[ebp]
  00107	50		 push	 eax
  00108	c6 45 fc 0a	 mov	 BYTE PTR __$EHRec$[ebp+8], 10 ; 0000000aH
  0010c	68 00 00 00 00	 push	 OFFSET FLAT:??_C@_0N@JNMFLPPI@WEAPON_CROSS?$AA@
  00111	b9 84 00 00 00	 mov	 ecx, OFFSET FLAT:_WeaponType2String+132
  00116	e8 00 00 00 00	 call	 ??0?$basic_string@DV?$char_traits@D@_STL@@V?$allocator@D@2@@_STL@@QAE@PBDABV?$allocator@D@1@@Z ; _STL::basic_string<char,_STL::char_traits<char>,_STL::allocator<char> >::basic_string<char,_STL::char_traits<char>,_STL::allocator<char> >

; 101  : 	"WEAPON_CROSS_2",

  0011b	8d 45 f3	 lea	 eax, DWORD PTR $T104418[ebp]
  0011e	50		 push	 eax
  0011f	68 00 00 00 00	 push	 OFFSET FLAT:??_C@_0P@NCLGFJB@WEAPON_CROSS_2?$AA@
  00124	b9 90 00 00 00	 mov	 ecx, OFFSET FLAT:_WeaponType2String+144
  00129	c6 45 fc 0b	 mov	 BYTE PTR __$EHRec$[ebp+8], 11 ; 0000000bH
  0012d	e8 00 00 00 00	 call	 ??0?$basic_string@DV?$char_traits@D@_STL@@V?$allocator@D@2@@_STL@@QAE@PBDABV?$allocator@D@1@@Z ; _STL::basic_string<char,_STL::char_traits<char>,_STL::allocator<char> >::basic_string<char,_STL::char_traits<char>,_STL::allocator<char> >

; 102  : //	"WEAPON_CROSS_3"
; 103  : 	"WEAPON_MACE",

  00132	8d 45 f3	 lea	 eax, DWORD PTR $T104419[ebp]
  00135	50		 push	 eax
  00136	68 00 00 00 00	 push	 OFFSET FLAT:??_C@_0M@NLEFNGI@WEAPON_MACE?$AA@
  0013b	b9 9c 00 00 00	 mov	 ecx, OFFSET FLAT:_WeaponType2String+156
  00140	c6 45 fc 0c	 mov	 BYTE PTR __$EHRec$[ebp+8], 12 ; 0000000cH
  00144	e8 00 00 00 00	 call	 ??0?$basic_string@DV?$char_traits@D@_STL@@V?$allocator@D@2@@_STL@@QAE@PBDABV?$allocator@D@1@@Z ; _STL::basic_string<char,_STL::char_traits<char>,_STL::allocator<char> >::basic_string<char,_STL::char_traits<char>,_STL::allocator<char> >

; 104  : 	"WEAPON_MACE_2",

  00149	8d 45 f3	 lea	 eax, DWORD PTR $T104420[ebp]
  0014c	50		 push	 eax
  0014d	68 00 00 00 00	 push	 OFFSET FLAT:??_C@_0O@DCGOPMKO@WEAPON_MACE_2?$AA@
  00152	b9 a8 00 00 00	 mov	 ecx, OFFSET FLAT:_WeaponType2String+168
  00157	c6 45 fc 0d	 mov	 BYTE PTR __$EHRec$[ebp+8], 13 ; 0000000dH
  0015b	e8 00 00 00 00	 call	 ??0?$basic_string@DV?$char_traits@D@_STL@@V?$allocator@D@2@@_STL@@QAE@PBDABV?$allocator@D@1@@Z ; _STL::basic_string<char,_STL::char_traits<char>,_STL::allocator<char> >::basic_string<char,_STL::char_traits<char>,_STL::allocator<char> >

; 105  : //	"WEAPON_MACE_3"
; 106  : //	"WEAPON_SHIELD",
; 107  : //	"WEAPON_SWORD_SHIELD",
; 108  : };

  00160	68 00 00 00 00	 push	 OFFSET FLAT:_$E26
  00165	e8 00 00 00 00	 call	 _atexit
  0016a	59		 pop	 ecx
  0016b	8b 4d f4	 mov	 ecx, DWORD PTR __$EHRec$[ebp]
  0016e	64 89 0d 00 00
	00 00		 mov	 DWORD PTR fs:__except_list, ecx
  00175	c9		 leave
  00176	c3		 ret	 0
text$yc	ENDS
;	COMDAT text$x
text$x	SEGMENT
$L104421:
  00000	b9 00 00 00 00	 mov	 ecx, OFFSET FLAT:_WeaponType2String
  00005	e9 00 00 00 00	 jmp	 ??1?$basic_string@DV?$char_traits@D@_STL@@V?$allocator@D@2@@_STL@@QAE@XZ ; _STL::basic_string<char,_STL::char_traits<char>,_STL::allocator<char> >::~basic_string<char,_STL::char_traits<char>,_STL::allocator<char> >
$L104422:
  0000a	b9 0c 00 00 00	 mov	 ecx, OFFSET FLAT:_WeaponType2String+12
  0000f	e9 00 00 00 00	 jmp	 ??1?$basic_string@DV?$char_traits@D@_STL@@V?$allocator@D@2@@_STL@@QAE@XZ ; _STL::basic_string<char,_STL::char_traits<char>,_STL::allocator<char> >::~basic_string<char,_STL::char_traits<char>,_STL::allocator<char> >
$L104423:
  00014	b9 18 00 00 00	 mov	 ecx, OFFSET FLAT:_WeaponType2String+24
  00019	e9 00 00 00 00	 jmp	 ??1?$basic_string@DV?$char_traits@D@_STL@@V?$allocator@D@2@@_STL@@QAE@XZ ; _STL::basic_string<char,_STL::char_traits<char>,_STL::allocator<char> >::~basic_string<char,_STL::char_traits<char>,_STL::allocator<char> >
$L104424:
  0001e	b9 24 00 00 00	 mov	 ecx, OFFSET FLAT:_WeaponType2String+36
  00023	e9 00 00 00 00	 jmp	 ??1?$basic_string@DV?$char_traits@D@_STL@@V?$allocator@D@2@@_STL@@QAE@XZ ; _STL::basic_string<char,_STL::char_traits<char>,_STL::allocator<char> >::~basic_string<char,_STL::char_traits<char>,_STL::allocator<char> >
$L104425:
  00028	b9 30 00 00 00	 mov	 ecx, OFFSET FLAT:_WeaponType2String+48
  0002d	e9 00 00 00 00	 jmp	 ??1?$basic_string@DV?$char_traits@D@_STL@@V?$allocator@D@2@@_STL@@QAE@XZ ; _STL::basic_string<char,_STL::char_traits<char>,_STL::allocator<char> >::~basic_string<char,_STL::char_traits<char>,_STL::allocator<char> >
$L104426:
  00032	b9 3c 00 00 00	 mov	 ecx, OFFSET FLAT:_WeaponType2String+60
  00037	e9 00 00 00 00	 jmp	 ??1?$basic_string@DV?$char_traits@D@_STL@@V?$allocator@D@2@@_STL@@QAE@XZ ; _STL::basic_string<char,_STL::char_traits<char>,_STL::allocator<char> >::~basic_string<char,_STL::char_traits<char>,_STL::allocator<char> >
$L104427:
  0003c	b9 48 00 00 00	 mov	 ecx, OFFSET FLAT:_WeaponType2String+72
  00041	e9 00 00 00 00	 jmp	 ??1?$basic_string@DV?$char_traits@D@_STL@@V?$allocator@D@2@@_STL@@QAE@XZ ; _STL::basic_string<char,_STL::char_traits<char>,_STL::allocator<char> >::~basic_string<char,_STL::char_traits<char>,_STL::allocator<char> >
$L104428:
  00046	b9 54 00 00 00	 mov	 ecx, OFFSET FLAT:_WeaponType2String+84
  0004b	e9 00 00 00 00	 jmp	 ??1?$basic_string@DV?$char_traits@D@_STL@@V?$allocator@D@2@@_STL@@QAE@XZ ; _STL::basic_string<char,_STL::char_traits<char>,_STL::allocator<char> >::~basic_string<char,_STL::char_traits<char>,_STL::allocator<char> >
$L104429:
  00050	b9 60 00 00 00	 mov	 ecx, OFFSET FLAT:_WeaponType2String+96
  00055	e9 00 00 00 00	 jmp	 ??1?$basic_string@DV?$char_traits@D@_STL@@V?$allocator@D@2@@_STL@@QAE@XZ ; _STL::basic_string<char,_STL::char_traits<char>,_STL::allocator<char> >::~basic_string<char,_STL::char_traits<char>,_STL::allocator<char> >
$L104430:
  0005a	b9 6c 00 00 00	 mov	 ecx, OFFSET FLAT:_WeaponType2String+108
  0005f	e9 00 00 00 00	 jmp	 ??1?$basic_string@DV?$char_traits@D@_STL@@V?$allocator@D@2@@_STL@@QAE@XZ ; _STL::basic_string<char,_STL::char_traits<char>,_STL::allocator<char> >::~basic_string<char,_STL::char_traits<char>,_STL::allocator<char> >
$L104431:
  00064	b9 78 00 00 00	 mov	 ecx, OFFSET FLAT:_WeaponType2String+120
  00069	e9 00 00 00 00	 jmp	 ??1?$basic_string@DV?$char_traits@D@_STL@@V?$allocator@D@2@@_STL@@QAE@XZ ; _STL::basic_string<char,_STL::char_traits<char>,_STL::allocator<char> >::~basic_string<char,_STL::char_traits<char>,_STL::allocator<char> >
$L104432:
  0006e	b9 84 00 00 00	 mov	 ecx, OFFSET FLAT:_WeaponType2String+132
  00073	e9 00 00 00 00	 jmp	 ??1?$basic_string@DV?$char_traits@D@_STL@@V?$allocator@D@2@@_STL@@QAE@XZ ; _STL::basic_string<char,_STL::char_traits<char>,_STL::allocator<char> >::~basic_string<char,_STL::char_traits<char>,_STL::allocator<char> >
$L104433:
  00078	b9 90 00 00 00	 mov	 ecx, OFFSET FLAT:_WeaponType2String+144
  0007d	e9 00 00 00 00	 jmp	 ??1?$basic_string@DV?$char_traits@D@_STL@@V?$allocator@D@2@@_STL@@QAE@XZ ; _STL::basic_string<char,_STL::char_traits<char>,_STL::allocator<char> >::~basic_string<char,_STL::char_traits<char>,_STL::allocator<char> >
$L104434:
  00082	b9 9c 00 00 00	 mov	 ecx, OFFSET FLAT:_WeaponType2String+156
  00087	e9 00 00 00 00	 jmp	 ??1?$basic_string@DV?$char_traits@D@_STL@@V?$allocator@D@2@@_STL@@QAE@XZ ; _STL::basic_string<char,_STL::char_traits<char>,_STL::allocator<char> >::~basic_string<char,_STL::char_traits<char>,_STL::allocator<char> >
__ehhandler$_$E25:
  0008c	b8 00 00 00 00	 mov	 eax, OFFSET FLAT:$T104527
  00091	e9 00 00 00 00	 jmp	 ___CxxFrameHandler
text$x	ENDS
_$E25	ENDP
PUBLIC	??_C@_0M@LFPOKKMH@SHIELD_NONE?$AA@		; `string'
PUBLIC	??_C@_07OONIKGBL@SHIELD1?$AA@			; `string'
PUBLIC	??_C@_07MFPFPFNI@SHIELD2?$AA@			; `string'
PUBLIC	??_C@_07NMOOMEJJ@SHIELD3?$AA@			; `string'
PUBLIC	??_C@_07JDKPFCFO@SHIELD4?$AA@			; `string'
PUBLIC	??_C@_07IKLEGDBP@SHIELD5?$AA@			; `string'
PUBLIC	??_C@_07KBJJDANM@SHIELD6?$AA@			; `string'
CRT$XCU	SEGMENT
_$S30	DD	FLAT:_$E28
CRT$XCU	ENDS
;	COMDAT xdata$x
; File c:\stlport-4.6.1\stlport\stl\_alloc.h
xdata$x	SEGMENT
$T104593 DD	0ffffffffH
	DD	FLAT:$L104541
	DD	00H
	DD	FLAT:$L104542
	DD	01H
	DD	FLAT:$L104543
	DD	02H
	DD	FLAT:$L104544
	DD	03H
	DD	FLAT:$L104545
	DD	04H
	DD	FLAT:$L104546
$T104591 DD	019930520H
	DD	06H
	DD	FLAT:$T104593
	DD	2 DUP(00H)
	DD	2 DUP(00H)
xdata$x	ENDS
;	COMDAT ??_C@_0M@LFPOKKMH@SHIELD_NONE?$AA@
CONST	SEGMENT
??_C@_0M@LFPOKKMH@SHIELD_NONE?$AA@ DB 'SHIELD_NONE', 00H ; `string'
CONST	ENDS
;	COMDAT ??_C@_07OONIKGBL@SHIELD1?$AA@
CONST	SEGMENT
??_C@_07OONIKGBL@SHIELD1?$AA@ DB 'SHIELD1', 00H		; `string'
CONST	ENDS
;	COMDAT ??_C@_07MFPFPFNI@SHIELD2?$AA@
CONST	SEGMENT
??_C@_07MFPFPFNI@SHIELD2?$AA@ DB 'SHIELD2', 00H		; `string'
CONST	ENDS
;	COMDAT ??_C@_07NMOOMEJJ@SHIELD3?$AA@
CONST	SEGMENT
??_C@_07NMOOMEJJ@SHIELD3?$AA@ DB 'SHIELD3', 00H		; `string'
CONST	ENDS
;	COMDAT ??_C@_07JDKPFCFO@SHIELD4?$AA@
CONST	SEGMENT
??_C@_07JDKPFCFO@SHIELD4?$AA@ DB 'SHIELD4', 00H		; `string'
CONST	ENDS
;	COMDAT ??_C@_07IKLEGDBP@SHIELD5?$AA@
CONST	SEGMENT
??_C@_07IKLEGDBP@SHIELD5?$AA@ DB 'SHIELD5', 00H		; `string'
CONST	ENDS
;	COMDAT ??_C@_07KBJJDANM@SHIELD6?$AA@
CONST	SEGMENT
??_C@_07KBJJDANM@SHIELD6?$AA@ DB 'SHIELD6', 00H		; `string'
; Function compile flags: /Ogsy
; File c:\darkeden\designed_common\project\client\packet\types\creaturetypes.h
CONST	ENDS
;	COMDAT _$E28
text$yc	SEGMENT
$T104540 = -13						; size = 1
$T104539 = -13						; size = 1
$T104538 = -13						; size = 1
$T104537 = -13						; size = 1
$T104536 = -13						; size = 1
$T104535 = -13						; size = 1
$T104534 = -13						; size = 1
__$EHRec$ = -12						; size = 12
_$E28	PROC NEAR					; COMDAT

; 111  : { 

  00000	b8 00 00 00 00	 mov	 eax, __ehhandler$_$E28
  00005	e8 00 00 00 00	 call	 __EH_prolog
  0000a	51		 push	 ecx

; 112  : 	"SHIELD_NONE",

  0000b	8d 45 f3	 lea	 eax, DWORD PTR $T104534[ebp]
  0000e	50		 push	 eax
  0000f	68 00 00 00 00	 push	 OFFSET FLAT:??_C@_0M@LFPOKKMH@SHIELD_NONE?$AA@
  00014	b9 00 00 00 00	 mov	 ecx, OFFSET FLAT:_ShieldType2String
  00019	e8 00 00 00 00	 call	 ??0?$basic_string@DV?$char_traits@D@_STL@@V?$allocator@D@2@@_STL@@QAE@PBDABV?$allocator@D@1@@Z ; _STL::basic_string<char,_STL::char_traits<char>,_STL::allocator<char> >::basic_string<char,_STL::char_traits<char>,_STL::allocator<char> >
  0001e	83 65 fc 00	 and	 DWORD PTR __$EHRec$[ebp+8], 0

; 113  : 	"SHIELD1",

  00022	8d 45 f3	 lea	 eax, DWORD PTR $T104535[ebp]
  00025	50		 push	 eax
  00026	68 00 00 00 00	 push	 OFFSET FLAT:??_C@_07OONIKGBL@SHIELD1?$AA@
  0002b	b9 0c 00 00 00	 mov	 ecx, OFFSET FLAT:_ShieldType2String+12
  00030	e8 00 00 00 00	 call	 ??0?$basic_string@DV?$char_traits@D@_STL@@V?$allocator@D@2@@_STL@@QAE@PBDABV?$allocator@D@1@@Z ; _STL::basic_string<char,_STL::char_traits<char>,_STL::allocator<char> >::basic_string<char,_STL::char_traits<char>,_STL::allocator<char> >

; 114  : 	"SHIELD2",

  00035	8d 45 f3	 lea	 eax, DWORD PTR $T104536[ebp]
  00038	50		 push	 eax
  00039	68 00 00 00 00	 push	 OFFSET FLAT:??_C@_07MFPFPFNI@SHIELD2?$AA@
  0003e	b9 18 00 00 00	 mov	 ecx, OFFSET FLAT:_ShieldType2String+24
  00043	c6 45 fc 01	 mov	 BYTE PTR __$EHRec$[ebp+8], 1
  00047	e8 00 00 00 00	 call	 ??0?$basic_string@DV?$char_traits@D@_STL@@V?$allocator@D@2@@_STL@@QAE@PBDABV?$allocator@D@1@@Z ; _STL::basic_string<char,_STL::char_traits<char>,_STL::allocator<char> >::basic_string<char,_STL::char_traits<char>,_STL::allocator<char> >

; 115  : 	"SHIELD3",	//by viva 171

  0004c	8d 45 f3	 lea	 eax, DWORD PTR $T104537[ebp]
  0004f	50		 push	 eax
  00050	68 00 00 00 00	 push	 OFFSET FLAT:??_C@_07NMOOMEJJ@SHIELD3?$AA@
  00055	b9 24 00 00 00	 mov	 ecx, OFFSET FLAT:_ShieldType2String+36
  0005a	c6 45 fc 02	 mov	 BYTE PTR __$EHRec$[ebp+8], 2
  0005e	e8 00 00 00 00	 call	 ??0?$basic_string@DV?$char_traits@D@_STL@@V?$allocator@D@2@@_STL@@QAE@PBDABV?$allocator@D@1@@Z ; _STL::basic_string<char,_STL::char_traits<char>,_STL::allocator<char> >::basic_string<char,_STL::char_traits<char>,_STL::allocator<char> >

; 116  : 	"SHIELD4",	//181

  00063	8d 45 f3	 lea	 eax, DWORD PTR $T104538[ebp]
  00066	50		 push	 eax
  00067	68 00 00 00 00	 push	 OFFSET FLAT:??_C@_07JDKPFCFO@SHIELD4?$AA@
  0006c	b9 30 00 00 00	 mov	 ecx, OFFSET FLAT:_ShieldType2String+48
  00071	c6 45 fc 03	 mov	 BYTE PTR __$EHRec$[ebp+8], 3
  00075	e8 00 00 00 00	 call	 ??0?$basic_string@DV?$char_traits@D@_STL@@V?$allocator@D@2@@_STL@@QAE@PBDABV?$allocator@D@1@@Z ; _STL::basic_string<char,_STL::char_traits<char>,_STL::allocator<char> >::basic_string<char,_STL::char_traits<char>,_STL::allocator<char> >

; 117  : 	"SHIELD5",

  0007a	8d 45 f3	 lea	 eax, DWORD PTR $T104539[ebp]
  0007d	50		 push	 eax
  0007e	68 00 00 00 00	 push	 OFFSET FLAT:??_C@_07IKLEGDBP@SHIELD5?$AA@
  00083	b9 3c 00 00 00	 mov	 ecx, OFFSET FLAT:_ShieldType2String+60
  00088	c6 45 fc 04	 mov	 BYTE PTR __$EHRec$[ebp+8], 4
  0008c	e8 00 00 00 00	 call	 ??0?$basic_string@DV?$char_traits@D@_STL@@V?$allocator@D@2@@_STL@@QAE@PBDABV?$allocator@D@1@@Z ; _STL::basic_string<char,_STL::char_traits<char>,_STL::allocator<char> >::basic_string<char,_STL::char_traits<char>,_STL::allocator<char> >

; 118  : 	"SHIELD6",

  00091	8d 45 f3	 lea	 eax, DWORD PTR $T104540[ebp]
  00094	50		 push	 eax
  00095	68 00 00 00 00	 push	 OFFSET FLAT:??_C@_07KBJJDANM@SHIELD6?$AA@
  0009a	b9 48 00 00 00	 mov	 ecx, OFFSET FLAT:_ShieldType2String+72
  0009f	c6 45 fc 05	 mov	 BYTE PTR __$EHRec$[ebp+8], 5
  000a3	e8 00 00 00 00	 call	 ??0?$basic_string@DV?$char_traits@D@_STL@@V?$allocator@D@2@@_STL@@QAE@PBDABV?$allocator@D@1@@Z ; _STL::basic_string<char,_STL::char_traits<char>,_STL::allocator<char> >::basic_string<char,_STL::char_traits<char>,_STL::allocator<char> >

; 119  : };

  000a8	68 00 00 00 00	 push	 OFFSET FLAT:_$E29
  000ad	e8 00 00 00 00	 call	 _atexit
  000b2	59		 pop	 ecx
  000b3	8b 4d f4	 mov	 ecx, DWORD PTR __$EHRec$[ebp]
  000b6	64 89 0d 00 00
	00 00		 mov	 DWORD PTR fs:__except_list, ecx
  000bd	c9		 leave
  000be	c3		 ret	 0
text$yc	ENDS
;	COMDAT text$x
text$x	SEGMENT
$L104541:
  00000	b9 00 00 00 00	 mov	 ecx, OFFSET FLAT:_ShieldType2String
  00005	e9 00 00 00 00	 jmp	 ??1?$basic_string@DV?$char_traits@D@_STL@@V?$allocator@D@2@@_STL@@QAE@XZ ; _STL::basic_string<char,_STL::char_traits<char>,_STL::allocator<char> >::~basic_string<char,_STL::char_traits<char>,_STL::allocator<char> >
$L104542:
  0000a	b9 0c 00 00 00	 mov	 ecx, OFFSET FLAT:_ShieldType2String+12
  0000f	e9 00 00 00 00	 jmp	 ??1?$basic_string@DV?$char_traits@D@_STL@@V?$allocator@D@2@@_STL@@QAE@XZ ; _STL::basic_string<char,_STL::char_traits<char>,_STL::allocator<char> >::~basic_string<char,_STL::char_traits<char>,_STL::allocator<char> >
$L104543:
  00014	b9 18 00 00 00	 mov	 ecx, OFFSET FLAT:_ShieldType2String+24
  00019	e9 00 00 00 00	 jmp	 ??1?$basic_string@DV?$char_traits@D@_STL@@V?$allocator@D@2@@_STL@@QAE@XZ ; _STL::basic_string<char,_STL::char_traits<char>,_STL::allocator<char> >::~basic_string<char,_STL::char_traits<char>,_STL::allocator<char> >
$L104544:
  0001e	b9 24 00 00 00	 mov	 ecx, OFFSET FLAT:_ShieldType2String+36
  00023	e9 00 00 00 00	 jmp	 ??1?$basic_string@DV?$char_traits@D@_STL@@V?$allocator@D@2@@_STL@@QAE@XZ ; _STL::basic_string<char,_STL::char_traits<char>,_STL::allocator<char> >::~basic_string<char,_STL::char_traits<char>,_STL::allocator<char> >
$L104545:
  00028	b9 30 00 00 00	 mov	 ecx, OFFSET FLAT:_ShieldType2String+48
  0002d	e9 00 00 00 00	 jmp	 ??1?$basic_string@DV?$char_traits@D@_STL@@V?$allocator@D@2@@_STL@@QAE@XZ ; _STL::basic_string<char,_STL::char_traits<char>,_STL::allocator<char> >::~basic_string<char,_STL::char_traits<char>,_STL::allocator<char> >
$L104546:
  00032	b9 3c 00 00 00	 mov	 ecx, OFFSET FLAT:_ShieldType2String+60
  00037	e9 00 00 00 00	 jmp	 ??1?$basic_string@DV?$char_traits@D@_STL@@V?$allocator@D@2@@_STL@@QAE@XZ ; _STL::basic_string<char,_STL::char_traits<char>,_STL::allocator<char> >::~basic_string<char,_STL::char_traits<char>,_STL::allocator<char> >
__ehhandler$_$E28:
  0003c	b8 00 00 00 00	 mov	 eax, OFFSET FLAT:$T104591
  00041	e9 00 00 00 00	 jmp	 ___CxxFrameHandler
text$x	ENDS
_$E28	ENDP
PUBLIC	??_C@_0BA@HFMKBDFL@MOTORCYCLE_NONE?$AA@		; `string'
PUBLIC	??_C@_0M@OJHOMHKG@MOTORCYCLE1?$AA@		; `string'
PUBLIC	??_C@_0M@MCFDJEGF@MOTORCYCLE2?$AA@		; `string'
PUBLIC	??_C@_0M@NLEIKFCE@MOTORCYCLE3?$AA@		; `string'
PUBLIC	??_C@_0BA@PGHNLPG@MOTORCYCLE_WING?$AA@		; `string'
CRT$XCU	SEGMENT
_$S33	DD	FLAT:_$E31
CRT$XCU	ENDS
;	COMDAT xdata$x
; File c:\stlport-4.6.1\stlport\stl\_alloc.h
xdata$x	SEGMENT
$T104641 DD	0ffffffffH
	DD	FLAT:$L104603
	DD	00H
	DD	FLAT:$L104604
	DD	01H
	DD	FLAT:$L104605
	DD	02H
	DD	FLAT:$L104606
$T104639 DD	019930520H
	DD	04H
	DD	FLAT:$T104641
	DD	2 DUP(00H)
	DD	2 DUP(00H)
xdata$x	ENDS
;	COMDAT ??_C@_0BA@HFMKBDFL@MOTORCYCLE_NONE?$AA@
CONST	SEGMENT
??_C@_0BA@HFMKBDFL@MOTORCYCLE_NONE?$AA@ DB 'MOTORCYCLE_NONE', 00H ; `string'
CONST	ENDS
;	COMDAT ??_C@_0M@OJHOMHKG@MOTORCYCLE1?$AA@
CONST	SEGMENT
??_C@_0M@OJHOMHKG@MOTORCYCLE1?$AA@ DB 'MOTORCYCLE1', 00H ; `string'
CONST	ENDS
;	COMDAT ??_C@_0M@MCFDJEGF@MOTORCYCLE2?$AA@
CONST	SEGMENT
??_C@_0M@MCFDJEGF@MOTORCYCLE2?$AA@ DB 'MOTORCYCLE2', 00H ; `string'
CONST	ENDS
;	COMDAT ??_C@_0M@NLEIKFCE@MOTORCYCLE3?$AA@
CONST	SEGMENT
??_C@_0M@NLEIKFCE@MOTORCYCLE3?$AA@ DB 'MOTORCYCLE3', 00H ; `string'
CONST	ENDS
;	COMDAT ??_C@_0BA@PGHNLPG@MOTORCYCLE_WING?$AA@
CONST	SEGMENT
??_C@_0BA@PGHNLPG@MOTORCYCLE_WING?$AA@ DB 'MOTORCYCLE_WING', 00H ; `string'
; Function compile flags: /Ogsy
; File c:\darkeden\designed_common\project\client\packet\types\creaturetypes.h
CONST	ENDS
;	COMDAT _$E31
text$yc	SEGMENT
$T104602 = -13						; size = 1
$T104601 = -13						; size = 1
$T104600 = -13						; size = 1
$T104599 = -13						; size = 1
$T104598 = -13						; size = 1
__$EHRec$ = -12						; size = 12
_$E31	PROC NEAR					; COMDAT

; 122  : {

  00000	b8 00 00 00 00	 mov	 eax, __ehhandler$_$E31
  00005	e8 00 00 00 00	 call	 __EH_prolog
  0000a	51		 push	 ecx

; 123  : 	"MOTORCYCLE_NONE" ,

  0000b	8d 45 f3	 lea	 eax, DWORD PTR $T104598[ebp]
  0000e	50		 push	 eax
  0000f	68 00 00 00 00	 push	 OFFSET FLAT:??_C@_0BA@HFMKBDFL@MOTORCYCLE_NONE?$AA@
  00014	b9 00 00 00 00	 mov	 ecx, OFFSET FLAT:_MotorcycleType2String
  00019	e8 00 00 00 00	 call	 ??0?$basic_string@DV?$char_traits@D@_STL@@V?$allocator@D@2@@_STL@@QAE@PBDABV?$allocator@D@1@@Z ; _STL::basic_string<char,_STL::char_traits<char>,_STL::allocator<char> >::basic_string<char,_STL::char_traits<char>,_STL::allocator<char> >
  0001e	83 65 fc 00	 and	 DWORD PTR __$EHRec$[ebp+8], 0

; 124  : 	"MOTORCYCLE1" ,

  00022	8d 45 f3	 lea	 eax, DWORD PTR $T104599[ebp]
  00025	50		 push	 eax
  00026	68 00 00 00 00	 push	 OFFSET FLAT:??_C@_0M@OJHOMHKG@MOTORCYCLE1?$AA@
  0002b	b9 0c 00 00 00	 mov	 ecx, OFFSET FLAT:_MotorcycleType2String+12
  00030	e8 00 00 00 00	 call	 ??0?$basic_string@DV?$char_traits@D@_STL@@V?$allocator@D@2@@_STL@@QAE@PBDABV?$allocator@D@1@@Z ; _STL::basic_string<char,_STL::char_traits<char>,_STL::allocator<char> >::basic_string<char,_STL::char_traits<char>,_STL::allocator<char> >

; 125  : 	"MOTORCYCLE2" ,

  00035	8d 45 f3	 lea	 eax, DWORD PTR $T104600[ebp]
  00038	50		 push	 eax
  00039	68 00 00 00 00	 push	 OFFSET FLAT:??_C@_0M@MCFDJEGF@MOTORCYCLE2?$AA@
  0003e	b9 18 00 00 00	 mov	 ecx, OFFSET FLAT:_MotorcycleType2String+24
  00043	c6 45 fc 01	 mov	 BYTE PTR __$EHRec$[ebp+8], 1
  00047	e8 00 00 00 00	 call	 ??0?$basic_string@DV?$char_traits@D@_STL@@V?$allocator@D@2@@_STL@@QAE@PBDABV?$allocator@D@1@@Z ; _STL::basic_string<char,_STL::char_traits<char>,_STL::allocator<char> >::basic_string<char,_STL::char_traits<char>,_STL::allocator<char> >

; 126  : 	"MOTORCYCLE3",

  0004c	8d 45 f3	 lea	 eax, DWORD PTR $T104601[ebp]
  0004f	50		 push	 eax
  00050	68 00 00 00 00	 push	 OFFSET FLAT:??_C@_0M@NLEIKFCE@MOTORCYCLE3?$AA@
  00055	b9 24 00 00 00	 mov	 ecx, OFFSET FLAT:_MotorcycleType2String+36
  0005a	c6 45 fc 02	 mov	 BYTE PTR __$EHRec$[ebp+8], 2
  0005e	e8 00 00 00 00	 call	 ??0?$basic_string@DV?$char_traits@D@_STL@@V?$allocator@D@2@@_STL@@QAE@PBDABV?$allocator@D@1@@Z ; _STL::basic_string<char,_STL::char_traits<char>,_STL::allocator<char> >::basic_string<char,_STL::char_traits<char>,_STL::allocator<char> >

; 127  : 	"MOTORCYCLE_WING"
; 128  : };

  00063	8d 45 f3	 lea	 eax, DWORD PTR $T104602[ebp]
  00066	50		 push	 eax
  00067	68 00 00 00 00	 push	 OFFSET FLAT:??_C@_0BA@PGHNLPG@MOTORCYCLE_WING?$AA@
  0006c	b9 30 00 00 00	 mov	 ecx, OFFSET FLAT:_MotorcycleType2String+48
  00071	c6 45 fc 03	 mov	 BYTE PTR __$EHRec$[ebp+8], 3
  00075	e8 00 00 00 00	 call	 ??0?$basic_string@DV?$char_traits@D@_STL@@V?$allocator@D@2@@_STL@@QAE@PBDABV?$allocator@D@1@@Z ; _STL::basic_string<char,_STL::char_traits<char>,_STL::allocator<char> >::basic_string<char,_STL::char_traits<char>,_STL::allocator<char> >
  0007a	68 00 00 00 00	 push	 OFFSET FLAT:_$E32
  0007f	e8 00 00 00 00	 call	 _atexit
  00084	59		 pop	 ecx
  00085	8b 4d f4	 mov	 ecx, DWORD PTR __$EHRec$[ebp]
  00088	64 89 0d 00 00
	00 00		 mov	 DWORD PTR fs:__except_list, ecx
  0008f	c9		 leave
  00090	c3		 ret	 0
text$yc	ENDS
;	COMDAT text$x
text$x	SEGMENT
$L104603:
  00000	b9 00 00 00 00	 mov	 ecx, OFFSET FLAT:_MotorcycleType2String
  00005	e9 00 00 00 00	 jmp	 ??1?$basic_string@DV?$char_traits@D@_STL@@V?$allocator@D@2@@_STL@@QAE@XZ ; _STL::basic_string<char,_STL::char_traits<char>,_STL::allocator<char> >::~basic_string<char,_STL::char_traits<char>,_STL::allocator<char> >
$L104604:
  0000a	b9 0c 00 00 00	 mov	 ecx, OFFSET FLAT:_MotorcycleType2String+12
  0000f	e9 00 00 00 00	 jmp	 ??1?$basic_string@DV?$char_traits@D@_STL@@V?$allocator@D@2@@_STL@@QAE@XZ ; _STL::basic_string<char,_STL::char_traits<char>,_STL::allocator<char> >::~basic_string<char,_STL::char_traits<char>,_STL::allocator<char> >
$L104605:
  00014	b9 18 00 00 00	 mov	 ecx, OFFSET FLAT:_MotorcycleType2String+24
  00019	e9 00 00 00 00	 jmp	 ??1?$basic_string@DV?$char_traits@D@_STL@@V?$allocator@D@2@@_STL@@QAE@XZ ; _STL::basic_string<char,_STL::char_traits<char>,_STL::allocator<char> >::~basic_string<char,_STL::char_traits<char>,_STL::allocator<char> >
$L104606:
  0001e	b9 24 00 00 00	 mov	 ecx, OFFSET FLAT:_MotorcycleType2String+36
  00023	e9 00 00 00 00	 jmp	 ??1?$basic_string@DV?$char_traits@D@_STL@@V?$allocator@D@2@@_STL@@QAE@XZ ; _STL::basic_string<char,_STL::char_traits<char>,_STL::allocator<char> >::~basic_string<char,_STL::char_traits<char>,_STL::allocator<char> >
__ehhandler$_$E31:
  00028	b8 00 00 00 00	 mov	 eax, OFFSET FLAT:$T104639
  0002d	e9 00 00 00 00	 jmp	 ___CxxFrameHandler
text$x	ENDS
_$E31	ENDP
PUBLIC	??_C@_06GNJIJHFJ@FEMALE?$AA@			; `string'
PUBLIC	??_C@_04EOJIGEKG@MALE?$AA@			; `string'
CRT$XCU	SEGMENT
_$S51	DD	FLAT:_$E49
CRT$XCU	ENDS
;	COMDAT xdata$x
; File c:\stlport-4.6.1\stlport\stl\_alloc.h
xdata$x	SEGMENT
$T104665 DD	0ffffffffH
	DD	FLAT:$L104648
$T104663 DD	019930520H
	DD	01H
	DD	FLAT:$T104665
	DD	2 DUP(00H)
	DD	2 DUP(00H)
xdata$x	ENDS
;	COMDAT ??_C@_06GNJIJHFJ@FEMALE?$AA@
CONST	SEGMENT
??_C@_06GNJIJHFJ@FEMALE?$AA@ DB 'FEMALE', 00H		; `string'
CONST	ENDS
;	COMDAT ??_C@_04EOJIGEKG@MALE?$AA@
CONST	SEGMENT
??_C@_04EOJIGEKG@MALE?$AA@ DB 'MALE', 00H		; `string'
; Function compile flags: /Ogsy
; File c:\darkeden\designed_common\project\client\packet\types\creaturetypes.h
CONST	ENDS
;	COMDAT _$E49
text$yc	SEGMENT
$T104647 = -13						; size = 1
$T104646 = -13						; size = 1
__$EHRec$ = -12						; size = 12
_$E49	PROC NEAR					; COMDAT

; 197  : { 

  00000	b8 00 00 00 00	 mov	 eax, __ehhandler$_$E49
  00005	e8 00 00 00 00	 call	 __EH_prolog
  0000a	51		 push	 ecx

; 198  : 	"FEMALE" ,

  0000b	8d 45 f3	 lea	 eax, DWORD PTR $T104646[ebp]
  0000e	50		 push	 eax
  0000f	68 00 00 00 00	 push	 OFFSET FLAT:??_C@_06GNJIJHFJ@FEMALE?$AA@
  00014	b9 00 00 00 00	 mov	 ecx, OFFSET FLAT:_Sex2String
  00019	e8 00 00 00 00	 call	 ??0?$basic_string@DV?$char_traits@D@_STL@@V?$allocator@D@2@@_STL@@QAE@PBDABV?$allocator@D@1@@Z ; _STL::basic_string<char,_STL::char_traits<char>,_STL::allocator<char> >::basic_string<char,_STL::char_traits<char>,_STL::allocator<char> >
  0001e	83 65 fc 00	 and	 DWORD PTR __$EHRec$[ebp+8], 0

; 199  : 	"MALE"
; 200  : };

  00022	8d 45 f3	 lea	 eax, DWORD PTR $T104647[ebp]
  00025	50		 push	 eax
  00026	68 00 00 00 00	 push	 OFFSET FLAT:??_C@_04EOJIGEKG@MALE?$AA@
  0002b	b9 0c 00 00 00	 mov	 ecx, OFFSET FLAT:_Sex2String+12
  00030	e8 00 00 00 00	 call	 ??0?$basic_string@DV?$char_traits@D@_STL@@V?$allocator@D@2@@_STL@@QAE@PBDABV?$allocator@D@1@@Z ; _STL::basic_string<char,_STL::char_traits<char>,_STL::allocator<char> >::basic_string<char,_STL::char_traits<char>,_STL::allocator<char> >
  00035	68 00 00 00 00	 push	 OFFSET FLAT:_$E50
  0003a	e8 00 00 00 00	 call	 _atexit
  0003f	59		 pop	 ecx
  00040	8b 4d f4	 mov	 ecx, DWORD PTR __$EHRec$[ebp]
  00043	64 89 0d 00 00
	00 00		 mov	 DWORD PTR fs:__except_list, ecx
  0004a	c9		 leave
  0004b	c3		 ret	 0
text$yc	ENDS
;	COMDAT text$x
text$x	SEGMENT
$L104648:
  00000	b9 00 00 00 00	 mov	 ecx, OFFSET FLAT:_Sex2String
  00005	e9 00 00 00 00	 jmp	 ??1?$basic_string@DV?$char_traits@D@_STL@@V?$allocator@D@2@@_STL@@QAE@XZ ; _STL::basic_string<char,_STL::char_traits<char>,_STL::allocator<char> >::~basic_string<char,_STL::char_traits<char>,_STL::allocator<char> >
__ehhandler$_$E49:
  0000a	b8 00 00 00 00	 mov	 eax, OFFSET FLAT:$T104663
  0000f	e9 00 00 00 00	 jmp	 ___CxxFrameHandler
text$x	ENDS
_$E49	ENDP
PUBLIC	??_C@_0M@MGGBCBCM@HAIR_STYLE1?$AA@		; `string'
PUBLIC	??_C@_0M@ONEMHCOP@HAIR_STYLE2?$AA@		; `string'
PUBLIC	??_C@_0M@PEFHEDKO@HAIR_STYLE3?$AA@		; `string'
CRT$XCU	SEGMENT
_$S54	DD	FLAT:_$E52
CRT$XCU	ENDS
;	COMDAT xdata$x
; File c:\stlport-4.6.1\stlport\stl\_alloc.h
xdata$x	SEGMENT
$T104697 DD	0ffffffffH
	DD	FLAT:$L104673
	DD	00H
	DD	FLAT:$L104674
$T104695 DD	019930520H
	DD	02H
	DD	FLAT:$T104697
	DD	2 DUP(00H)
	DD	2 DUP(00H)
xdata$x	ENDS
;	COMDAT ??_C@_0M@MGGBCBCM@HAIR_STYLE1?$AA@
CONST	SEGMENT
??_C@_0M@MGGBCBCM@HAIR_STYLE1?$AA@ DB 'HAIR_STYLE1', 00H ; `string'
CONST	ENDS
;	COMDAT ??_C@_0M@ONEMHCOP@HAIR_STYLE2?$AA@
CONST	SEGMENT
??_C@_0M@ONEMHCOP@HAIR_STYLE2?$AA@ DB 'HAIR_STYLE2', 00H ; `string'
CONST	ENDS
;	COMDAT ??_C@_0M@PEFHEDKO@HAIR_STYLE3?$AA@
CONST	SEGMENT
??_C@_0M@PEFHEDKO@HAIR_STYLE3?$AA@ DB 'HAIR_STYLE3', 00H ; `string'
; Function compile flags: /Ogsy
; File c:\darkeden\designed_common\project\client\packet\types\creaturetypes.h
CONST	ENDS
;	COMDAT _$E52
text$yc	SEGMENT
$T104672 = -13						; size = 1
$T104671 = -13						; size = 1
$T104670 = -13						; size = 1
__$EHRec$ = -12						; size = 12
_$E52	PROC NEAR					; COMDAT

; 214  : {

  00000	b8 00 00 00 00	 mov	 eax, __ehhandler$_$E52
  00005	e8 00 00 00 00	 call	 __EH_prolog
  0000a	51		 push	 ecx

; 215  : 	"HAIR_STYLE1" ,

  0000b	8d 45 f3	 lea	 eax, DWORD PTR $T104670[ebp]
  0000e	50		 push	 eax
  0000f	68 00 00 00 00	 push	 OFFSET FLAT:??_C@_0M@MGGBCBCM@HAIR_STYLE1?$AA@
  00014	b9 00 00 00 00	 mov	 ecx, OFFSET FLAT:_HairStyle2String
  00019	e8 00 00 00 00	 call	 ??0?$basic_string@DV?$char_traits@D@_STL@@V?$allocator@D@2@@_STL@@QAE@PBDABV?$allocator@D@1@@Z ; _STL::basic_string<char,_STL::char_traits<char>,_STL::allocator<char> >::basic_string<char,_STL::char_traits<char>,_STL::allocator<char> >
  0001e	83 65 fc 00	 and	 DWORD PTR __$EHRec$[ebp+8], 0

; 216  : 	"HAIR_STYLE2" ,

  00022	8d 45 f3	 lea	 eax, DWORD PTR $T104671[ebp]
  00025	50		 push	 eax
  00026	68 00 00 00 00	 push	 OFFSET FLAT:??_C@_0M@ONEMHCOP@HAIR_STYLE2?$AA@
  0002b	b9 0c 00 00 00	 mov	 ecx, OFFSET FLAT:_HairStyle2String+12
  00030	e8 00 00 00 00	 call	 ??0?$basic_string@DV?$char_traits@D@_STL@@V?$allocator@D@2@@_STL@@QAE@PBDABV?$allocator@D@1@@Z ; _STL::basic_string<char,_STL::char_traits<char>,_STL::allocator<char> >::basic_string<char,_STL::char_traits<char>,_STL::allocator<char> >

; 217  : 	"HAIR_STYLE3"
; 218  : };

  00035	8d 45 f3	 lea	 eax, DWORD PTR $T104672[ebp]
  00038	50		 push	 eax
  00039	68 00 00 00 00	 push	 OFFSET FLAT:??_C@_0M@PEFHEDKO@HAIR_STYLE3?$AA@
  0003e	b9 18 00 00 00	 mov	 ecx, OFFSET FLAT:_HairStyle2String+24
  00043	c6 45 fc 01	 mov	 BYTE PTR __$EHRec$[ebp+8], 1
  00047	e8 00 00 00 00	 call	 ??0?$basic_string@DV?$char_traits@D@_STL@@V?$allocator@D@2@@_STL@@QAE@PBDABV?$allocator@D@1@@Z ; _STL::basic_string<char,_STL::char_traits<char>,_STL::allocator<char> >::basic_string<char,_STL::char_traits<char>,_STL::allocator<char> >
  0004c	68 00 00 00 00	 push	 OFFSET FLAT:_$E53
  00051	e8 00 00 00 00	 call	 _atexit
  00056	59		 pop	 ecx
  00057	8b 4d f4	 mov	 ecx, DWORD PTR __$EHRec$[ebp]
  0005a	64 89 0d 00 00
	00 00		 mov	 DWORD PTR fs:__except_list, ecx
  00061	c9		 leave
  00062	c3		 ret	 0
text$yc	ENDS
;	COMDAT text$x
text$x	SEGMENT
$L104673:
  00000	b9 00 00 00 00	 mov	 ecx, OFFSET FLAT:_HairStyle2String
  00005	e9 00 00 00 00	 jmp	 ??1?$basic_string@DV?$char_traits@D@_STL@@V?$allocator@D@2@@_STL@@QAE@XZ ; _STL::basic_string<char,_STL::char_traits<char>,_STL::allocator<char> >::~basic_string<char,_STL::char_traits<char>,_STL::allocator<char> >
$L104674:
  0000a	b9 0c 00 00 00	 mov	 ecx, OFFSET FLAT:_HairStyle2String+12
  0000f	e9 00 00 00 00	 jmp	 ??1?$basic_string@DV?$char_traits@D@_STL@@V?$allocator@D@2@@_STL@@QAE@XZ ; _STL::basic_string<char,_STL::char_traits<char>,_STL::allocator<char> >::~basic_string<char,_STL::char_traits<char>,_STL::allocator<char> >
__ehhandler$_$E52:
  00014	b8 00 00 00 00	 mov	 eax, OFFSET FLAT:$T104695
  00019	e9 00 00 00 00	 jmp	 ___CxxFrameHandler
text$x	ENDS
_$E52	ENDP
PUBLIC	??_C@_04KCNEHMIH@LEFT?$AA@			; `string'
PUBLIC	??_C@_08JJOEDBDF@LEFTDOWN?$AA@			; `string'
PUBLIC	??_C@_04FANAOELO@DOWN?$AA@			; `string'
PUBLIC	??_C@_09HJALCCPH@RIGHTDOWN?$AA@			; `string'
PUBLIC	??_C@_05PMAFOJDE@RIGHT?$AA@			; `string'
PUBLIC	??_C@_07LCDAOECB@RIGHTUP?$AA@			; `string'
PUBLIC	??_C@_02NAHCJHOC@UP?$AA@			; `string'
PUBLIC	??_C@_06PNLNCAEA@LEFTUP?$AA@			; `string'
CRT$XCU	SEGMENT
_$S63	DD	FLAT:_$E61
CRT$XCU	ENDS
;	COMDAT xdata$x
; File c:\stlport-4.6.1\stlport\stl\_alloc.h
xdata$x	SEGMENT
$T104769 DD	0ffffffffH
	DD	FLAT:$L104710
	DD	00H
	DD	FLAT:$L104711
	DD	01H
	DD	FLAT:$L104712
	DD	02H
	DD	FLAT:$L104713
	DD	03H
	DD	FLAT:$L104714
	DD	04H
	DD	FLAT:$L104715
	DD	05H
	DD	FLAT:$L104716
$T104767 DD	019930520H
	DD	07H
	DD	FLAT:$T104769
	DD	2 DUP(00H)
	DD	2 DUP(00H)
xdata$x	ENDS
;	COMDAT ??_C@_04KCNEHMIH@LEFT?$AA@
CONST	SEGMENT
??_C@_04KCNEHMIH@LEFT?$AA@ DB 'LEFT', 00H		; `string'
CONST	ENDS
;	COMDAT ??_C@_08JJOEDBDF@LEFTDOWN?$AA@
CONST	SEGMENT
??_C@_08JJOEDBDF@LEFTDOWN?$AA@ DB 'LEFTDOWN', 00H	; `string'
CONST	ENDS
;	COMDAT ??_C@_04FANAOELO@DOWN?$AA@
CONST	SEGMENT
??_C@_04FANAOELO@DOWN?$AA@ DB 'DOWN', 00H		; `string'
CONST	ENDS
;	COMDAT ??_C@_09HJALCCPH@RIGHTDOWN?$AA@
CONST	SEGMENT
??_C@_09HJALCCPH@RIGHTDOWN?$AA@ DB 'RIGHTDOWN', 00H	; `string'
CONST	ENDS
;	COMDAT ??_C@_05PMAFOJDE@RIGHT?$AA@
CONST	SEGMENT
??_C@_05PMAFOJDE@RIGHT?$AA@ DB 'RIGHT', 00H		; `string'
CONST	ENDS
;	COMDAT ??_C@_07LCDAOECB@RIGHTUP?$AA@
CONST	SEGMENT
??_C@_07LCDAOECB@RIGHTUP?$AA@ DB 'RIGHTUP', 00H		; `string'
CONST	ENDS
;	COMDAT ??_C@_02NAHCJHOC@UP?$AA@
CONST	SEGMENT
??_C@_02NAHCJHOC@UP?$AA@ DB 'UP', 00H			; `string'
CONST	ENDS
;	COMDAT ??_C@_06PNLNCAEA@LEFTUP?$AA@
CONST	SEGMENT
??_C@_06PNLNCAEA@LEFTUP?$AA@ DB 'LEFTUP', 00H		; `string'
; Function compile flags: /Ogsy
; File c:\darkeden\designed_common\project\client\packet\types\creaturetypes.h
CONST	ENDS
;	COMDAT _$E61
text$yc	SEGMENT
$T104709 = -13						; size = 1
$T104708 = -13						; size = 1
$T104707 = -13						; size = 1
$T104706 = -13						; size = 1
$T104705 = -13						; size = 1
$T104704 = -13						; size = 1
$T104703 = -13						; size = 1
$T104702 = -13						; size = 1
__$EHRec$ = -12						; size = 12
_$E61	PROC NEAR					; COMDAT

; 466  : {

  00000	b8 00 00 00 00	 mov	 eax, __ehhandler$_$E61
  00005	e8 00 00 00 00	 call	 __EH_prolog
  0000a	51		 push	 ecx

; 467  : 	"LEFT" ,

  0000b	8d 45 f3	 lea	 eax, DWORD PTR $T104702[ebp]
  0000e	50		 push	 eax
  0000f	68 00 00 00 00	 push	 OFFSET FLAT:??_C@_04KCNEHMIH@LEFT?$AA@
  00014	b9 00 00 00 00	 mov	 ecx, OFFSET FLAT:_Dir2String
  00019	e8 00 00 00 00	 call	 ??0?$basic_string@DV?$char_traits@D@_STL@@V?$allocator@D@2@@_STL@@QAE@PBDABV?$allocator@D@1@@Z ; _STL::basic_string<char,_STL::char_traits<char>,_STL::allocator<char> >::basic_string<char,_STL::char_traits<char>,_STL::allocator<char> >
  0001e	83 65 fc 00	 and	 DWORD PTR __$EHRec$[ebp+8], 0

; 468  : 	"LEFTDOWN" ,

  00022	8d 45 f3	 lea	 eax, DWORD PTR $T104703[ebp]
  00025	50		 push	 eax
  00026	68 00 00 00 00	 push	 OFFSET FLAT:??_C@_08JJOEDBDF@LEFTDOWN?$AA@
  0002b	b9 0c 00 00 00	 mov	 ecx, OFFSET FLAT:_Dir2String+12
  00030	e8 00 00 00 00	 call	 ??0?$basic_string@DV?$char_traits@D@_STL@@V?$allocator@D@2@@_STL@@QAE@PBDABV?$allocator@D@1@@Z ; _STL::basic_string<char,_STL::char_traits<char>,_STL::allocator<char> >::basic_string<char,_STL::char_traits<char>,_STL::allocator<char> >

; 469  : 	"DOWN" ,

  00035	8d 45 f3	 lea	 eax, DWORD PTR $T104704[ebp]
  00038	50		 push	 eax
  00039	68 00 00 00 00	 push	 OFFSET FLAT:??_C@_04FANAOELO@DOWN?$AA@
  0003e	b9 18 00 00 00	 mov	 ecx, OFFSET FLAT:_Dir2String+24
  00043	c6 45 fc 01	 mov	 BYTE PTR __$EHRec$[ebp+8], 1
  00047	e8 00 00 00 00	 call	 ??0?$basic_string@DV?$char_traits@D@_STL@@V?$allocator@D@2@@_STL@@QAE@PBDABV?$allocator@D@1@@Z ; _STL::basic_string<char,_STL::char_traits<char>,_STL::allocator<char> >::basic_string<char,_STL::char_traits<char>,_STL::allocator<char> >

; 470  : 	"RIGHTDOWN" ,

  0004c	8d 45 f3	 lea	 eax, DWORD PTR $T104705[ebp]
  0004f	50		 push	 eax
  00050	68 00 00 00 00	 push	 OFFSET FLAT:??_C@_09HJALCCPH@RIGHTDOWN?$AA@
  00055	b9 24 00 00 00	 mov	 ecx, OFFSET FLAT:_Dir2String+36
  0005a	c6 45 fc 02	 mov	 BYTE PTR __$EHRec$[ebp+8], 2
  0005e	e8 00 00 00 00	 call	 ??0?$basic_string@DV?$char_traits@D@_STL@@V?$allocator@D@2@@_STL@@QAE@PBDABV?$allocator@D@1@@Z ; _STL::basic_string<char,_STL::char_traits<char>,_STL::allocator<char> >::basic_string<char,_STL::char_traits<char>,_STL::allocator<char> >

; 471  : 	"RIGHT" ,

  00063	8d 45 f3	 lea	 eax, DWORD PTR $T104706[ebp]
  00066	50		 push	 eax
  00067	68 00 00 00 00	 push	 OFFSET FLAT:??_C@_05PMAFOJDE@RIGHT?$AA@
  0006c	b9 30 00 00 00	 mov	 ecx, OFFSET FLAT:_Dir2String+48
  00071	c6 45 fc 03	 mov	 BYTE PTR __$EHRec$[ebp+8], 3
  00075	e8 00 00 00 00	 call	 ??0?$basic_string@DV?$char_traits@D@_STL@@V?$allocator@D@2@@_STL@@QAE@PBDABV?$allocator@D@1@@Z ; _STL::basic_string<char,_STL::char_traits<char>,_STL::allocator<char> >::basic_string<char,_STL::char_traits<char>,_STL::allocator<char> >

; 472  : 	"RIGHTUP" ,

  0007a	8d 45 f3	 lea	 eax, DWORD PTR $T104707[ebp]
  0007d	50		 push	 eax
  0007e	68 00 00 00 00	 push	 OFFSET FLAT:??_C@_07LCDAOECB@RIGHTUP?$AA@
  00083	b9 3c 00 00 00	 mov	 ecx, OFFSET FLAT:_Dir2String+60
  00088	c6 45 fc 04	 mov	 BYTE PTR __$EHRec$[ebp+8], 4
  0008c	e8 00 00 00 00	 call	 ??0?$basic_string@DV?$char_traits@D@_STL@@V?$allocator@D@2@@_STL@@QAE@PBDABV?$allocator@D@1@@Z ; _STL::basic_string<char,_STL::char_traits<char>,_STL::allocator<char> >::basic_string<char,_STL::char_traits<char>,_STL::allocator<char> >

; 473  : 	"UP" ,

  00091	8d 45 f3	 lea	 eax, DWORD PTR $T104708[ebp]
  00094	50		 push	 eax
  00095	68 00 00 00 00	 push	 OFFSET FLAT:??_C@_02NAHCJHOC@UP?$AA@
  0009a	b9 48 00 00 00	 mov	 ecx, OFFSET FLAT:_Dir2String+72
  0009f	c6 45 fc 05	 mov	 BYTE PTR __$EHRec$[ebp+8], 5
  000a3	e8 00 00 00 00	 call	 ??0?$basic_string@DV?$char_traits@D@_STL@@V?$allocator@D@2@@_STL@@QAE@PBDABV?$allocator@D@1@@Z ; _STL::basic_string<char,_STL::char_traits<char>,_STL::allocator<char> >::basic_string<char,_STL::char_traits<char>,_STL::allocator<char> >

; 474  : 	"LEFTUP"
; 475  : };

  000a8	8d 45 f3	 lea	 eax, DWORD PTR $T104709[ebp]
  000ab	50		 push	 eax
  000ac	68 00 00 00 00	 push	 OFFSET FLAT:??_C@_06PNLNCAEA@LEFTUP?$AA@
  000b1	b9 54 00 00 00	 mov	 ecx, OFFSET FLAT:_Dir2String+84
  000b6	c6 45 fc 06	 mov	 BYTE PTR __$EHRec$[ebp+8], 6
  000ba	e8 00 00 00 00	 call	 ??0?$basic_string@DV?$char_traits@D@_STL@@V?$allocator@D@2@@_STL@@QAE@PBDABV?$allocator@D@1@@Z ; _STL::basic_string<char,_STL::char_traits<char>,_STL::allocator<char> >::basic_string<char,_STL::char_traits<char>,_STL::allocator<char> >
  000bf	68 00 00 00 00	 push	 OFFSET FLAT:_$E62
  000c4	e8 00 00 00 00	 call	 _atexit
  000c9	59		 pop	 ecx
  000ca	8b 4d f4	 mov	 ecx, DWORD PTR __$EHRec$[ebp]
  000cd	64 89 0d 00 00
	00 00		 mov	 DWORD PTR fs:__except_list, ecx
  000d4	c9		 leave
  000d5	c3		 ret	 0
text$yc	ENDS
;	COMDAT text$x
text$x	SEGMENT
$L104710:
  00000	b9 00 00 00 00	 mov	 ecx, OFFSET FLAT:_Dir2String
  00005	e9 00 00 00 00	 jmp	 ??1?$basic_string@DV?$char_traits@D@_STL@@V?$allocator@D@2@@_STL@@QAE@XZ ; _STL::basic_string<char,_STL::char_traits<char>,_STL::allocator<char> >::~basic_string<char,_STL::char_traits<char>,_STL::allocator<char> >
$L104711:
  0000a	b9 0c 00 00 00	 mov	 ecx, OFFSET FLAT:_Dir2String+12
  0000f	e9 00 00 00 00	 jmp	 ??1?$basic_string@DV?$char_traits@D@_STL@@V?$allocator@D@2@@_STL@@QAE@XZ ; _STL::basic_string<char,_STL::char_traits<char>,_STL::allocator<char> >::~basic_string<char,_STL::char_traits<char>,_STL::allocator<char> >
$L104712:
  00014	b9 18 00 00 00	 mov	 ecx, OFFSET FLAT:_Dir2String+24
  00019	e9 00 00 00 00	 jmp	 ??1?$basic_string@DV?$char_traits@D@_STL@@V?$allocator@D@2@@_STL@@QAE@XZ ; _STL::basic_string<char,_STL::char_traits<char>,_STL::allocator<char> >::~basic_string<char,_STL::char_traits<char>,_STL::allocator<char> >
$L104713:
  0001e	b9 24 00 00 00	 mov	 ecx, OFFSET FLAT:_Dir2String+36
  00023	e9 00 00 00 00	 jmp	 ??1?$basic_string@DV?$char_traits@D@_STL@@V?$allocator@D@2@@_STL@@QAE@XZ ; _STL::basic_string<char,_STL::char_traits<char>,_STL::allocator<char> >::~basic_string<char,_STL::char_traits<char>,_STL::allocator<char> >
$L104714:
  00028	b9 30 00 00 00	 mov	 ecx, OFFSET FLAT:_Dir2String+48
  0002d	e9 00 00 00 00	 jmp	 ??1?$basic_string@DV?$char_traits@D@_STL@@V?$allocator@D@2@@_STL@@QAE@XZ ; _STL::basic_string<char,_STL::char_traits<char>,_STL::allocator<char> >::~basic_string<char,_STL::char_traits<char>,_STL::allocator<char> >
$L104715:
  00032	b9 3c 00 00 00	 mov	 ecx, OFFSET FLAT:_Dir2String+60
  00037	e9 00 00 00 00	 jmp	 ??1?$basic_string@DV?$char_traits@D@_STL@@V?$allocator@D@2@@_STL@@QAE@XZ ; _STL::basic_string<char,_STL::char_traits<char>,_STL::allocator<char> >::~basic_string<char,_STL::char_traits<char>,_STL::allocator<char> >
$L104716:
  0003c	b9 48 00 00 00	 mov	 ecx, OFFSET FLAT:_Dir2String+72
  00041	e9 00 00 00 00	 jmp	 ??1?$basic_string@DV?$char_traits@D@_STL@@V?$allocator@D@2@@_STL@@QAE@XZ ; _STL::basic_string<char,_STL::char_traits<char>,_STL::allocator<char> >::~basic_string<char,_STL::char_traits<char>,_STL::allocator<char> >
__ehhandler$_$E61:
  00046	b8 00 00 00 00	 mov	 eax, OFFSET FLAT:$T104767
  0004b	e9 00 00 00 00	 jmp	 ___CxxFrameHandler
text$x	ENDS
_$E61	ENDP
EXTRN	??_M@YGXPAXIHP6EX0@Z@Z:NEAR			; `eh vector destructor iterator'
; Function compile flags: /Ogsy
;	COMDAT _$E17
text$yd	SEGMENT
_$E17	PROC NEAR					; COMDAT
  00000	68 00 00 00 00	 push	 OFFSET FLAT:??1?$basic_string@DV?$char_traits@D@_STL@@V?$allocator@D@2@@_STL@@QAE@XZ ; _STL::basic_string<char,_STL::char_traits<char>,_STL::allocator<char> >::~basic_string<char,_STL::char_traits<char>,_STL::allocator<char> >
  00005	6a 08		 push	 8
  00007	6a 0c		 push	 12			; 0000000cH
  00009	68 00 00 00 00	 push	 OFFSET FLAT:_HelmetType2String
  0000e	e8 00 00 00 00	 call	 ??_M@YGXPAXIHP6EX0@Z@Z
  00013	c3		 ret	 0
_$E17	ENDP
; Function compile flags: /Ogsy
text$yd	ENDS
;	COMDAT _$E20
text$yd	SEGMENT
_$E20	PROC NEAR					; COMDAT
  00000	68 00 00 00 00	 push	 OFFSET FLAT:??1?$basic_string@DV?$char_traits@D@_STL@@V?$allocator@D@2@@_STL@@QAE@XZ ; _STL::basic_string<char,_STL::char_traits<char>,_STL::allocator<char> >::~basic_string<char,_STL::char_traits<char>,_STL::allocator<char> >
  00005	6a 09		 push	 9
  00007	6a 0c		 push	 12			; 0000000cH
  00009	68 00 00 00 00	 push	 OFFSET FLAT:_JacketType2String
  0000e	e8 00 00 00 00	 call	 ??_M@YGXPAXIHP6EX0@Z@Z
  00013	c3		 ret	 0
_$E20	ENDP
; Function compile flags: /Ogsy
text$yd	ENDS
;	COMDAT _$E23
text$yd	SEGMENT
_$E23	PROC NEAR					; COMDAT
  00000	68 00 00 00 00	 push	 OFFSET FLAT:??1?$basic_string@DV?$char_traits@D@_STL@@V?$allocator@D@2@@_STL@@QAE@XZ ; _STL::basic_string<char,_STL::char_traits<char>,_STL::allocator<char> >::~basic_string<char,_STL::char_traits<char>,_STL::allocator<char> >
  00005	6a 07		 push	 7
  00007	6a 0c		 push	 12			; 0000000cH
  00009	68 00 00 00 00	 push	 OFFSET FLAT:_PantsType2String
  0000e	e8 00 00 00 00	 call	 ??_M@YGXPAXIHP6EX0@Z@Z
  00013	c3		 ret	 0
_$E23	ENDP
; Function compile flags: /Ogsy
text$yd	ENDS
;	COMDAT _$E26
text$yd	SEGMENT
_$E26	PROC NEAR					; COMDAT
  00000	68 00 00 00 00	 push	 OFFSET FLAT:??1?$basic_string@DV?$char_traits@D@_STL@@V?$allocator@D@2@@_STL@@QAE@XZ ; _STL::basic_string<char,_STL::char_traits<char>,_STL::allocator<char> >::~basic_string<char,_STL::char_traits<char>,_STL::allocator<char> >
  00005	6a 0f		 push	 15			; 0000000fH
  00007	6a 0c		 push	 12			; 0000000cH
  00009	68 00 00 00 00	 push	 OFFSET FLAT:_WeaponType2String
  0000e	e8 00 00 00 00	 call	 ??_M@YGXPAXIHP6EX0@Z@Z
  00013	c3		 ret	 0
_$E26	ENDP
; Function compile flags: /Ogsy
text$yd	ENDS
;	COMDAT _$E29
text$yd	SEGMENT
_$E29	PROC NEAR					; COMDAT
  00000	68 00 00 00 00	 push	 OFFSET FLAT:??1?$basic_string@DV?$char_traits@D@_STL@@V?$allocator@D@2@@_STL@@QAE@XZ ; _STL::basic_string<char,_STL::char_traits<char>,_STL::allocator<char> >::~basic_string<char,_STL::char_traits<char>,_STL::allocator<char> >
  00005	6a 07		 push	 7
  00007	6a 0c		 push	 12			; 0000000cH
  00009	68 00 00 00 00	 push	 OFFSET FLAT:_ShieldType2String
  0000e	e8 00 00 00 00	 call	 ??_M@YGXPAXIHP6EX0@Z@Z
  00013	c3		 ret	 0
_$E29	ENDP
; Function compile flags: /Ogsy
text$yd	ENDS
;	COMDAT _$E32
text$yd	SEGMENT
_$E32	PROC NEAR					; COMDAT
  00000	68 00 00 00 00	 push	 OFFSET FLAT:??1?$basic_string@DV?$char_traits@D@_STL@@V?$allocator@D@2@@_STL@@QAE@XZ ; _STL::basic_string<char,_STL::char_traits<char>,_STL::allocator<char> >::~basic_string<char,_STL::char_traits<char>,_STL::allocator<char> >
  00005	6a 05		 push	 5
  00007	6a 0c		 push	 12			; 0000000cH
  00009	68 00 00 00 00	 push	 OFFSET FLAT:_MotorcycleType2String
  0000e	e8 00 00 00 00	 call	 ??_M@YGXPAXIHP6EX0@Z@Z
  00013	c3		 ret	 0
_$E32	ENDP
; Function compile flags: /Ogsy
text$yd	ENDS
;	COMDAT _$E50
text$yd	SEGMENT
_$E50	PROC NEAR					; COMDAT
  00000	68 00 00 00 00	 push	 OFFSET FLAT:??1?$basic_string@DV?$char_traits@D@_STL@@V?$allocator@D@2@@_STL@@QAE@XZ ; _STL::basic_string<char,_STL::char_traits<char>,_STL::allocator<char> >::~basic_string<char,_STL::char_traits<char>,_STL::allocator<char> >
  00005	6a 02		 push	 2
  00007	6a 0c		 push	 12			; 0000000cH
  00009	68 00 00 00 00	 push	 OFFSET FLAT:_Sex2String
  0000e	e8 00 00 00 00	 call	 ??_M@YGXPAXIHP6EX0@Z@Z
  00013	c3		 ret	 0
_$E50	ENDP
; Function compile flags: /Ogsy
text$yd	ENDS
;	COMDAT _$E53
text$yd	SEGMENT
_$E53	PROC NEAR					; COMDAT
  00000	68 00 00 00 00	 push	 OFFSET FLAT:??1?$basic_string@DV?$char_traits@D@_STL@@V?$allocator@D@2@@_STL@@QAE@XZ ; _STL::basic_string<char,_STL::char_traits<char>,_STL::allocator<char> >::~basic_string<char,_STL::char_traits<char>,_STL::allocator<char> >
  00005	6a 03		 push	 3
  00007	6a 0c		 push	 12			; 0000000cH
  00009	68 00 00 00 00	 push	 OFFSET FLAT:_HairStyle2String
  0000e	e8 00 00 00 00	 call	 ??_M@YGXPAXIHP6EX0@Z@Z
  00013	c3		 ret	 0
_$E53	ENDP
; Function compile flags: /Ogsy
text$yd	ENDS
;	COMDAT _$E62
text$yd	SEGMENT
_$E62	PROC NEAR					; COMDAT
  00000	68 00 00 00 00	 push	 OFFSET FLAT:??1?$basic_string@DV?$char_traits@D@_STL@@V?$allocator@D@2@@_STL@@QAE@XZ ; _STL::basic_string<char,_STL::char_traits<char>,_STL::allocator<char> >::~basic_string<char,_STL::char_traits<char>,_STL::allocator<char> >
  00005	6a 08		 push	 8
  00007	6a 0c		 push	 12			; 0000000cH
  00009	68 00 00 00 00	 push	 OFFSET FLAT:_Dir2String
  0000e	e8 00 00 00 00	 call	 ??_M@YGXPAXIHP6EX0@Z@Z
  00013	c3		 ret	 0
_$E62	ENDP
text$yd	ENDS
_BSS	SEGMENT
_HelmetType2String DB 060H DUP (?)
_JacketType2String DB 06cH DUP (?)
_PantsType2String DB 054H DUP (?)
_WeaponType2String DB 0b4H DUP (?)
_ShieldType2String DB 054H DUP (?)
_MotorcycleType2String DB 03cH DUP (?)
_Sex2String DB	018H DUP (?)
_HairStyle2String DB 024H DUP (?)
_Dir2String DB	060H DUP (?)
_BSS	ENDS
END
