; Listing generated by Microsoft (R) Optimizing Compiler Version 13.10.3077 

	TITLE	\darkeden\Designed_Common\Project\Client\ServerInfoFileParser.cpp
	.386P
include listing.inc
if @Version gt 510
.model FLAT
else
_TEXT	SEGMENT PARA USE32 PUBLIC 'CODE'
_TEXT	ENDS
_DATA	SEGMENT DWORD USE32 PUBLIC 'DATA'
_DATA	ENDS
CONST	SEGMENT DWORD USE32 PUBLIC 'CONST'
CONST	ENDS
_BSS	SEGMENT DWORD USE32 PUBLIC 'BSS'
_BSS	ENDS
$$SYMBOLS	SEGMENT BYTE USE32 'DEBSYM'
$$SYMBOLS	ENDS
$$TYPES	SEGMENT BYTE USE32 'DEBTYP'
$$TYPES	ENDS
_TLS	SEGMENT DWORD USE32 PUBLIC 'TLS'
_TLS	ENDS
;	COMDAT ??_C@_0O@JKENFCBN@MinTrace?52003?$AA@
CONST	SEGMENT DWORD USE32 PUBLIC 'CONST'
CONST	ENDS
;	COMDAT ??_C@_0BE@MNEJIGLM@__MinTrace?5Window__?$AA@
CONST	SEGMENT DWORD USE32 PUBLIC 'CONST'
CONST	ENDS
;	COMDAT ??_C@_06KLPNNMEP@?$CF8d?0?$CFs?$AA@
CONST	SEGMENT DWORD USE32 PUBLIC 'CONST'
CONST	ENDS
;	COMDAT ??_C@_01JLIPDDHJ@?3?$AA@
CONST	SEGMENT DWORD USE32 PUBLIC 'CONST'
CONST	ENDS
;	COMDAT ??_C@_0BA@DCDCBIAO@Cannot?5find?5key?$AA@
CONST	SEGMENT DWORD USE32 PUBLIC 'CONST'
CONST	ENDS
;	COMDAT ??_C@_00CNPNBAHC@?$AA@
CONST	SEGMENT DWORD USE32 PUBLIC 'CONST'
CONST	ENDS
;	COMDAT ??_C@_0N@GOPDCEEB@basic_string?$AA@
CONST	SEGMENT DWORD USE32 PUBLIC 'CONST'
CONST	ENDS
rdata$r	SEGMENT DWORD USE32 PUBLIC 'CONST'
rdata$r	ENDS
text$yc	SEGMENT PARA USE32 PUBLIC 'CODE'
text$yc	ENDS
CRT$XCA	SEGMENT DWORD USE32 PUBLIC 'DATA'
CRT$XCA	ENDS
CRT$XCU	SEGMENT DWORD USE32 PUBLIC 'DATA'
CRT$XCU	ENDS
CRT$XCL	SEGMENT DWORD USE32 PUBLIC 'DATA'
CRT$XCL	ENDS
CRT$XCC	SEGMENT DWORD USE32 PUBLIC 'DATA'
CRT$XCC	ENDS
CRT$XCZ	SEGMENT DWORD USE32 PUBLIC 'DATA'
CRT$XCZ	ENDS
text$yd	SEGMENT PARA USE32 PUBLIC 'CODE'
text$yd	ENDS
;	COMDAT ?_MinTraceA@@YAXPBD@Z
_TEXT	SEGMENT PARA USE32 PUBLIC 'CODE'
_TEXT	ENDS
;	COMDAT ?_MinTraceErrA@@YAXPBD@Z
_TEXT	SEGMENT PARA USE32 PUBLIC 'CODE'
_TEXT	ENDS
;	COMDAT ?_MinTraceWarA@@YAXPBD@Z
_TEXT	SEGMENT PARA USE32 PUBLIC 'CODE'
_TEXT	ENDS
;	COMDAT ?_ClMinTraceA@@YAXKPBD@Z
_TEXT	SEGMENT PARA USE32 PUBLIC 'CODE'
_TEXT	ENDS
;	COMDAT ?_CmdMinTraceA@@YAXHPBD@Z
_TEXT	SEGMENT PARA USE32 PUBLIC 'CODE'
_TEXT	ENDS
;	COMDAT ??0ServerInfoFileParser@@QAE@V?$basic_string@DV?$char_traits@D@_STL@@V?$allocator@D@2@@_STL@@@Z
_TEXT	SEGMENT PARA USE32 PUBLIC 'CODE'
_TEXT	ENDS
;	COMDAT ??1ServerInfoFileParser@@QAE@XZ
_TEXT	SEGMENT PARA USE32 PUBLIC 'CODE'
_TEXT	ENDS
;	COMDAT ?getProperty@ServerInfoFileParser@@QAE?AV?$basic_string@DV?$char_traits@D@_STL@@V?$allocator@D@2@@_STL@@HV23@@Z
_TEXT	SEGMENT PARA USE32 PUBLIC 'CODE'
_TEXT	ENDS
;	COMDAT ??_D?$basic_ifstream@DV?$char_traits@D@_STL@@@_STL@@QAEXXZ
_TEXT	SEGMENT PARA USE32 PUBLIC 'CODE'
_TEXT	ENDS
;	COMDAT ?getPropertyInt@ServerInfoFileParser@@QAEHHV?$basic_string@DV?$char_traits@D@_STL@@V?$allocator@D@2@@_STL@@@Z
_TEXT	SEGMENT PARA USE32 PUBLIC 'CODE'
_TEXT	ENDS
;	COMDAT ?eq@?$__char_traits_base@DH@_STL@@SA_NABD0@Z
_TEXT	SEGMENT PARA USE32 PUBLIC 'CODE'
_TEXT	ENDS
;	COMDAT ?not_eof@?$__char_traits_base@DH@_STL@@SAHABH@Z
_TEXT	SEGMENT PARA USE32 PUBLIC 'CODE'
_TEXT	ENDS
;	COMDAT ?eq_int_type@?$__char_traits_base@DH@_STL@@SA_NABH0@Z
_TEXT	SEGMENT PARA USE32 PUBLIC 'CODE'
_TEXT	ENDS
;	COMDAT ?get_allocator@?$basic_string@DV?$char_traits@D@_STL@@V?$allocator@D@2@@_STL@@QBE?AV?$allocator@D@2@XZ
_TEXT	SEGMENT PARA USE32 PUBLIC 'CODE'
_TEXT	ENDS
;	COMDAT ??4?$basic_string@DV?$char_traits@D@_STL@@V?$allocator@D@2@@_STL@@QAEAAV01@PBD@Z
_TEXT	SEGMENT PARA USE32 PUBLIC 'CODE'
_TEXT	ENDS
;	COMDAT ?_M_terminate_string@?$basic_string@DV?$char_traits@D@_STL@@V?$allocator@D@2@@_STL@@AAEXXZ
_TEXT	SEGMENT PARA USE32 PUBLIC 'CODE'
_TEXT	ENDS
;	COMDAT ?empty@?$basic_string@DV?$char_traits@D@_STL@@V?$allocator@D@2@@_STL@@QBE_NXZ
_TEXT	SEGMENT PARA USE32 PUBLIC 'CODE'
_TEXT	ENDS
;	COMDAT ??Y?$basic_string@DV?$char_traits@D@_STL@@V?$allocator@D@2@@_STL@@QAEAAV01@PBD@Z
_TEXT	SEGMENT PARA USE32 PUBLIC 'CODE'
_TEXT	ENDS
;	COMDAT ?erase@?$basic_string@DV?$char_traits@D@_STL@@V?$allocator@D@2@@_STL@@QAEAAV12@II@Z
_TEXT	SEGMENT PARA USE32 PUBLIC 'CODE'
_TEXT	ENDS
;	COMDAT ?c_str@?$basic_string@DV?$char_traits@D@_STL@@V?$allocator@D@2@@_STL@@QBEPBDXZ
_TEXT	SEGMENT PARA USE32 PUBLIC 'CODE'
_TEXT	ENDS
;	COMDAT ?find@?$basic_string@DV?$char_traits@D@_STL@@V?$allocator@D@2@@_STL@@QBEIABV12@I@Z
_TEXT	SEGMENT PARA USE32 PUBLIC 'CODE'
_TEXT	ENDS
;	COMDAT ?find@?$basic_string@DV?$char_traits@D@_STL@@V?$allocator@D@2@@_STL@@QBEIPBDI@Z
_TEXT	SEGMENT PARA USE32 PUBLIC 'CODE'
_TEXT	ENDS
;	COMDAT ??0?$_String_base@DV?$allocator@D@_STL@@@_STL@@QAE@ABV?$allocator@D@1@@Z
_TEXT	SEGMENT PARA USE32 PUBLIC 'CODE'
_TEXT	ENDS
;	COMDAT ?allocate@?$allocator@D@_STL@@QAEPADIPBX@Z
_TEXT	SEGMENT PARA USE32 PUBLIC 'CODE'
_TEXT	ENDS
;	COMDAT ??0?$fpos@H@_STL@@QAE@J@Z
_TEXT	SEGMENT PARA USE32 PUBLIC 'CODE'
_TEXT	ENDS
;	COMDAT ??B?$fpos@H@_STL@@QBEJXZ
_TEXT	SEGMENT PARA USE32 PUBLIC 'CODE'
_TEXT	ENDS
;	COMDAT ?state@?$fpos@H@_STL@@QBEHXZ
_TEXT	SEGMENT PARA USE32 PUBLIC 'CODE'
_TEXT	ENDS
;	COMDAT ?getline@?$basic_istream@DV?$char_traits@D@_STL@@@_STL@@QAEAAV12@PADH@Z
_TEXT	SEGMENT PARA USE32 PUBLIC 'CODE'
_TEXT	ENDS
;	COMDAT ?is_open@?$basic_filebuf@DV?$char_traits@D@_STL@@@_STL@@QBE_NXZ
_TEXT	SEGMENT PARA USE32 PUBLIC 'CODE'
_TEXT	ENDS
;	COMDAT ?_M_seek_return@?$basic_filebuf@DV?$char_traits@D@_STL@@@_STL@@AAE?AV?$fpos@H@2@JH@Z
_TEXT	SEGMENT PARA USE32 PUBLIC 'CODE'
_TEXT	ENDS
;	COMDAT ??0?$_Filebuf_Tmp_Buf@D@_STL@@QAE@H@Z
_TEXT	SEGMENT PARA USE32 PUBLIC 'CODE'
_TEXT	ENDS
;	COMDAT ??1?$_Filebuf_Tmp_Buf@D@_STL@@QAE@XZ
_TEXT	SEGMENT PARA USE32 PUBLIC 'CODE'
_TEXT	ENDS
;	COMDAT ??0?$basic_ifstream@DV?$char_traits@D@_STL@@@_STL@@QAE@PBDH@Z
_TEXT	SEGMENT PARA USE32 PUBLIC 'CODE'
_TEXT	ENDS
;	COMDAT ??1?$basic_ifstream@DV?$char_traits@D@_STL@@@_STL@@UAE@XZ
_TEXT	SEGMENT PARA USE32 PUBLIC 'CODE'
_TEXT	ENDS
;	COMDAT ?close@?$basic_ifstream@DV?$char_traits@D@_STL@@@_STL@@QAEXXZ
_TEXT	SEGMENT PARA USE32 PUBLIC 'CODE'
_TEXT	ENDS
;	COMDAT ??_G?$basic_ifstream@DV?$char_traits@D@_STL@@@_STL@@UAEPAXI@Z
_TEXT	SEGMENT PARA USE32 PUBLIC 'CODE'
_TEXT	ENDS
;	COMDAT ?_M_terminate_string_aux@?$basic_string@DV?$char_traits@D@_STL@@V?$allocator@D@2@@_STL@@AAEXABU__true_type@2@@Z
_TEXT	SEGMENT PARA USE32 PUBLIC 'CODE'
_TEXT	ENDS
;	COMDAT ?begin@?$basic_string@DV?$char_traits@D@_STL@@V?$allocator@D@2@@_STL@@QAEPADXZ
_TEXT	SEGMENT PARA USE32 PUBLIC 'CODE'
_TEXT	ENDS
;	COMDAT ?size@?$basic_string@DV?$char_traits@D@_STL@@V?$allocator@D@2@@_STL@@QBEIXZ
_TEXT	SEGMENT PARA USE32 PUBLIC 'CODE'
_TEXT	ENDS
;	COMDAT ?append@?$basic_string@DV?$char_traits@D@_STL@@V?$allocator@D@2@@_STL@@QAEAAV12@PBD@Z
_TEXT	SEGMENT PARA USE32 PUBLIC 'CODE'
_TEXT	ENDS
;	COMDAT ?assign@?$basic_string@DV?$char_traits@D@_STL@@V?$allocator@D@2@@_STL@@QAEAAV12@PBD0@Z
_TEXT	SEGMENT PARA USE32 PUBLIC 'CODE'
_TEXT	ENDS
;	COMDAT ?erase@?$basic_string@DV?$char_traits@D@_STL@@V?$allocator@D@2@@_STL@@QAEPADPAD0@Z
_TEXT	SEGMENT PARA USE32 PUBLIC 'CODE'
_TEXT	ENDS
;	COMDAT ??0?$allocator@D@_STL@@QAE@ABV01@@Z
_TEXT	SEGMENT PARA USE32 PUBLIC 'CODE'
_TEXT	ENDS
;	COMDAT ??0?$_STLP_alloc_proxy@PADDV?$allocator@D@_STL@@@_STL@@QAE@ABV?$allocator@D@1@PAD@Z
_TEXT	SEGMENT PARA USE32 PUBLIC 'CODE'
_TEXT	ENDS
;	COMDAT ?state@?$fpos@H@_STL@@QAEXH@Z
_TEXT	SEGMENT PARA USE32 PUBLIC 'CODE'
_TEXT	ENDS
;	COMDAT ??0?$basic_istream@DV?$char_traits@D@_STL@@@_STL@@QAE@PAV?$basic_streambuf@DV?$char_traits@D@_STL@@@1@@Z
_TEXT	SEGMENT PARA USE32 PUBLIC 'CODE'
_TEXT	ENDS
;	COMDAT ?setstate@?$basic_ios@DV?$char_traits@D@_STL@@@_STL@@QAEXH@Z
_TEXT	SEGMENT PARA USE32 PUBLIC 'CODE'
_TEXT	ENDS
;	COMDAT ?open@?$basic_filebuf@DV?$char_traits@D@_STL@@@_STL@@QAEPAV12@PBDH@Z
_TEXT	SEGMENT PARA USE32 PUBLIC 'CODE'
_TEXT	ENDS
;	COMDAT ?rdbuf@?$basic_ifstream@DV?$char_traits@D@_STL@@@_STL@@QBEPAV?$basic_filebuf@DV?$char_traits@D@_STL@@@2@XZ
_TEXT	SEGMENT PARA USE32 PUBLIC 'CODE'
_TEXT	ENDS
;	COMDAT ?move@?$__char_traits_base@DH@_STL@@SAPADPADPBDI@Z
_TEXT	SEGMENT PARA USE32 PUBLIC 'CODE'
_TEXT	ENDS
;	COMDAT ?copy@?$__char_traits_base@DH@_STL@@SAPADPADPBDI@Z
_TEXT	SEGMENT PARA USE32 PUBLIC 'CODE'
_TEXT	ENDS
;	COMDAT ?end@?$basic_string@DV?$char_traits@D@_STL@@V?$allocator@D@2@@_STL@@QAEPADXZ
_TEXT	SEGMENT PARA USE32 PUBLIC 'CODE'
_TEXT	ENDS
;	COMDAT ?clear@?$basic_ios@DV?$char_traits@D@_STL@@@_STL@@QAEXH@Z
_TEXT	SEGMENT PARA USE32 PUBLIC 'CODE'
_TEXT	ENDS
;	COMDAT ?rdbuf@?$basic_ios@DV?$char_traits@D@_STL@@@_STL@@QBEPAV?$basic_streambuf@DV?$char_traits@D@_STL@@@2@XZ
_TEXT	SEGMENT PARA USE32 PUBLIC 'CODE'
_TEXT	ENDS
;	COMDAT ?find@?$basic_string@DV?$char_traits@D@_STL@@V?$allocator@D@2@@_STL@@QBEIPBDII@Z
_TEXT	SEGMENT PARA USE32 PUBLIC 'CODE'
_TEXT	ENDS
;	COMDAT ?_M_throw_out_of_range@?$_String_base@DV?$allocator@D@_STL@@@_STL@@QBEXXZ
_TEXT	SEGMENT PARA USE32 PUBLIC 'CODE'
_TEXT	ENDS
;	COMDAT ??$_M_range_initialize@PBD@?$basic_string@DV?$char_traits@D@_STL@@V?$allocator@D@2@@_STL@@AAEXPBD0@Z
_TEXT	SEGMENT PARA USE32 PUBLIC 'CODE'
_TEXT	ENDS
;	COMDAT ??$_M_range_initialize@PAD@?$basic_string@DV?$char_traits@D@_STL@@V?$allocator@D@2@@_STL@@AAEXPAD0@Z
_TEXT	SEGMENT PARA USE32 PUBLIC 'CODE'
_TEXT	ENDS
;	COMDAT ??0?$basic_filebuf@DV?$char_traits@D@_STL@@@_STL@@QAE@XZ
_TEXT	SEGMENT PARA USE32 PUBLIC 'CODE'
_TEXT	ENDS
;	COMDAT ?close@?$basic_filebuf@DV?$char_traits@D@_STL@@@_STL@@QAEPAV12@XZ
_TEXT	SEGMENT PARA USE32 PUBLIC 'CODE'
_TEXT	ENDS
;	COMDAT ?_M_exit_input_mode@?$basic_filebuf@DV?$char_traits@D@_STL@@@_STL@@AAEXXZ
_TEXT	SEGMENT PARA USE32 PUBLIC 'CODE'
_TEXT	ENDS
;	COMDAT ?_M_switch_to_output_mode@?$basic_filebuf@DV?$char_traits@D@_STL@@@_STL@@AAE_NXZ
_TEXT	SEGMENT PARA USE32 PUBLIC 'CODE'
_TEXT	ENDS
;	COMDAT ?_M_output_error@?$basic_filebuf@DV?$char_traits@D@_STL@@@_STL@@AAEHXZ
_TEXT	SEGMENT PARA USE32 PUBLIC 'CODE'
_TEXT	ENDS
;	COMDAT ?_M_allocate_buffers@?$basic_filebuf@DV?$char_traits@D@_STL@@@_STL@@AAE_NPADH@Z
_TEXT	SEGMENT PARA USE32 PUBLIC 'CODE'
_TEXT	ENDS
;	COMDAT ?_M_deallocate_buffers@?$basic_filebuf@DV?$char_traits@D@_STL@@@_STL@@AAEXXZ
_TEXT	SEGMENT PARA USE32 PUBLIC 'CODE'
_TEXT	ENDS
;	COMDAT ?_M_seek_init@?$basic_filebuf@DV?$char_traits@D@_STL@@@_STL@@AAE_N_N@Z
_TEXT	SEGMENT PARA USE32 PUBLIC 'CODE'
_TEXT	ENDS
;	COMDAT ?_M_setup_codecvt@?$basic_filebuf@DV?$char_traits@D@_STL@@@_STL@@AAEXABVlocale@2@@Z
_TEXT	SEGMENT PARA USE32 PUBLIC 'CODE'
_TEXT	ENDS
;	COMDAT ??$equal@PADPADU?$_Eq_traits@V?$char_traits@D@_STL@@@_STL@@@_STL@@YA_NPAD00U?$_Eq_traits@V?$char_traits@D@_STL@@@0@@Z
_TEXT	SEGMENT PARA USE32 PUBLIC 'CODE'
_TEXT	ENDS
;	COMDAT ??$_Destroy@V?$basic_string@DV?$char_traits@D@_STL@@V?$allocator@D@2@@_STL@@@_STL@@YAXPAV?$basic_string@DV?$char_traits@D@_STL@@V?$allocator@D@2@@0@@Z
_TEXT	SEGMENT PARA USE32 PUBLIC 'CODE'
_TEXT	ENDS
;	COMDAT ??$_M_assign_dispatch@PAD@?$basic_string@DV?$char_traits@D@_STL@@V?$allocator@D@2@@_STL@@AAEAAV01@PAD0ABU__false_type@1@@Z
_TEXT	SEGMENT PARA USE32 PUBLIC 'CODE'
_TEXT	ENDS
;	COMDAT ??0?$basic_ios@DV?$char_traits@D@_STL@@@_STL@@IAE@XZ
_TEXT	SEGMENT PARA USE32 PUBLIC 'CODE'
_TEXT	ENDS
;	COMDAT ?widen@?$basic_ios@DV?$char_traits@D@_STL@@@_STL@@QBEDD@Z
_TEXT	SEGMENT PARA USE32 PUBLIC 'CODE'
_TEXT	ENDS
;	COMDAT ?init@?$basic_ios@DV?$char_traits@D@_STL@@@_STL@@IAEXPAV?$basic_streambuf@DV?$char_traits@D@_STL@@@2@@Z
_TEXT	SEGMENT PARA USE32 PUBLIC 'CODE'
_TEXT	ENDS
;	COMDAT ?getline@?$basic_istream@DV?$char_traits@D@_STL@@@_STL@@QAEAAV12@PADHD@Z
_TEXT	SEGMENT PARA USE32 PUBLIC 'CODE'
_TEXT	ENDS
;	COMDAT ??$append@PBD@?$basic_string@DV?$char_traits@D@_STL@@V?$allocator@D@2@@_STL@@QAEAAV01@PBD0@Z
_TEXT	SEGMENT PARA USE32 PUBLIC 'CODE'
_TEXT	ENDS
;	COMDAT ??_G?$basic_string@DV?$char_traits@D@_STL@@V?$allocator@D@2@@_STL@@QAEPAXI@Z
_TEXT	SEGMENT PARA USE32 PUBLIC 'CODE'
_TEXT	ENDS
;	COMDAT ?tie@?$basic_ios@DV?$char_traits@D@_STL@@@_STL@@QAEPAV?$basic_ostream@DV?$char_traits@D@_STL@@@2@PAV32@@Z
_TEXT	SEGMENT PARA USE32 PUBLIC 'CODE'
_TEXT	ENDS
;	COMDAT ?fill@?$basic_ios@DV?$char_traits@D@_STL@@@_STL@@QAEDD@Z
_TEXT	SEGMENT PARA USE32 PUBLIC 'CODE'
_TEXT	ENDS
;	COMDAT ?_M_exit_putback_mode@?$basic_filebuf@DV?$char_traits@D@_STL@@@_STL@@AAEXXZ
_TEXT	SEGMENT PARA USE32 PUBLIC 'CODE'
_TEXT	ENDS
;	COMDAT ??R?$_Eq_traits@V?$char_traits@D@_STL@@@_STL@@QBE_NABD0@Z
_TEXT	SEGMENT PARA USE32 PUBLIC 'CODE'
_TEXT	ENDS
;	COMDAT ??0sentry@?$basic_istream@DV?$char_traits@D@_STL@@@_STL@@QAE@AAV12@U_No_Skip_WS@2@@Z
_TEXT	SEGMENT PARA USE32 PUBLIC 'CODE'
_TEXT	ENDS
;	COMDAT ??1sentry@?$basic_istream@DV?$char_traits@D@_STL@@@_STL@@QAE@XZ
_TEXT	SEGMENT PARA USE32 PUBLIC 'CODE'
_TEXT	ENDS
;	COMDAT ??Bsentry@?$basic_istream@DV?$char_traits@D@_STL@@@_STL@@QBE_NXZ
_TEXT	SEGMENT PARA USE32 PUBLIC 'CODE'
_TEXT	ENDS
;	COMDAT ??0?$_Eq_char_bound@V?$char_traits@D@_STL@@@_STL@@QAE@D@Z
_TEXT	SEGMENT PARA USE32 PUBLIC 'CODE'
_TEXT	ENDS
;	COMDAT ??0?$_Scan_for_char_val@V?$char_traits@D@_STL@@@_STL@@QAE@D@Z
_TEXT	SEGMENT PARA USE32 PUBLIC 'CODE'
_TEXT	ENDS
;	COMDAT ??$search@PBDPBDU?$_Eq_traits@V?$char_traits@D@_STL@@@_STL@@@_STL@@YAPBDPBD000U?$_Eq_traits@V?$char_traits@D@_STL@@@0@@Z
_TEXT	SEGMENT PARA USE32 PUBLIC 'CODE'
_TEXT	ENDS
;	COMDAT ??$_M_range_initialize@PBD@?$basic_string@DV?$char_traits@D@_STL@@V?$allocator@D@2@@_STL@@AAEXPBD0ABUforward_iterator_tag@1@@Z
_TEXT	SEGMENT PARA USE32 PUBLIC 'CODE'
_TEXT	ENDS
;	COMDAT ??$_M_range_initialize@PAD@?$basic_string@DV?$char_traits@D@_STL@@V?$allocator@D@2@@_STL@@AAEXPAD0ABUforward_iterator_tag@1@@Z
_TEXT	SEGMENT PARA USE32 PUBLIC 'CODE'
_TEXT	ENDS
;	COMDAT ?_M_unshift@?$basic_filebuf@DV?$char_traits@D@_STL@@@_STL@@AAE_NXZ
_TEXT	SEGMENT PARA USE32 PUBLIC 'CODE'
_TEXT	ENDS
;	COMDAT ?_M_allocate_buffers@?$basic_filebuf@DV?$char_traits@D@_STL@@@_STL@@AAE_NXZ
_TEXT	SEGMENT PARA USE32 PUBLIC 'CODE'
_TEXT	ENDS
;	COMDAT ??$max@H@_STL@@YAABHABH0@Z
_TEXT	SEGMENT PARA USE32 PUBLIC 'CODE'
_TEXT	ENDS
;	COMDAT ??$use_facet@V?$codecvt@DDH@_STL@@@_STL@@YAABV?$codecvt@DDH@0@ABVlocale@0@@Z
_TEXT	SEGMENT PARA USE32 PUBLIC 'CODE'
_TEXT	ENDS
;	COMDAT ??$append@PAD@?$basic_string@DV?$char_traits@D@_STL@@V?$allocator@D@2@@_STL@@QAEAAV01@PAD0@Z
_TEXT	SEGMENT PARA USE32 PUBLIC 'CODE'
_TEXT	ENDS
;	COMDAT ?rdbuf@?$basic_ios@DV?$char_traits@D@_STL@@@_STL@@QAEPAV?$basic_streambuf@DV?$char_traits@D@_STL@@@2@PAV32@@Z
_TEXT	SEGMENT PARA USE32 PUBLIC 'CODE'
_TEXT	ENDS
;	COMDAT ?imbue@?$basic_ios@DV?$char_traits@D@_STL@@@_STL@@QAE?AVlocale@2@ABV32@@Z
_TEXT	SEGMENT PARA USE32 PUBLIC 'CODE'
_TEXT	ENDS
;	COMDAT ??$_M_read_buffered@DV?$char_traits@D@_STL@@U?$_Eq_char_bound@V?$char_traits@D@_STL@@@2@U?$_Scan_for_char_val@V?$char_traits@D@_STL@@@2@@_STL@@YAHPAV?$basic_istream@DV?$char_traits@D@_STL@@@0@PAV?$basic_streambuf@DV?$char_traits@D@_STL@@@0@HPADU?$_Eq_char_bound@V?$char_traits@D@_STL@@@0@U?$_Scan_for_char_val@V?$char_traits@D@_STL@@@0@_N55@Z
_TEXT	SEGMENT PARA USE32 PUBLIC 'CODE'
_TEXT	ENDS
;	COMDAT ??$_M_read_unbuffered@DV?$char_traits@D@_STL@@U?$_Eq_char_bound@V?$char_traits@D@_STL@@@2@@_STL@@YAHPAV?$basic_istream@DV?$char_traits@D@_STL@@@0@PAV?$basic_streambuf@DV?$char_traits@D@_STL@@@0@HPADU?$_Eq_char_bound@V?$char_traits@D@_STL@@@0@_N44@Z
_TEXT	SEGMENT PARA USE32 PUBLIC 'CODE'
_TEXT	ENDS
;	COMDAT ??$_M_append_dispatch@PBD@?$basic_string@DV?$char_traits@D@_STL@@V?$allocator@D@2@@_STL@@AAEAAV01@PBD0ABU__false_type@1@@Z
_TEXT	SEGMENT PARA USE32 PUBLIC 'CODE'
_TEXT	ENDS
;	COMDAT ??$_M_init_noskip@DV?$char_traits@D@_STL@@@_STL@@YA_NAAV?$basic_istream@DV?$char_traits@D@_STL@@@0@@Z
_TEXT	SEGMENT PARA USE32 PUBLIC 'CODE'
_TEXT	ENDS
;	COMDAT ?tie@?$basic_ios@DV?$char_traits@D@_STL@@@_STL@@QBEPAV?$basic_ostream@DV?$char_traits@D@_STL@@@2@XZ
_TEXT	SEGMENT PARA USE32 PUBLIC 'CODE'
_TEXT	ENDS
;	COMDAT ?_S_eof@?$basic_ios@DV?$char_traits@D@_STL@@@_STL@@SA_NH@Z
_TEXT	SEGMENT PARA USE32 PUBLIC 'CODE'
_TEXT	ENDS
;	COMDAT ?flush@?$basic_ostream@DV?$char_traits@D@_STL@@@_STL@@QAEAAV12@XZ
_TEXT	SEGMENT PARA USE32 PUBLIC 'CODE'
_TEXT	ENDS
;	COMDAT ??R?$_Eq_char_bound@V?$char_traits@D@_STL@@@_STL@@QBE_NABD@Z
_TEXT	SEGMENT PARA USE32 PUBLIC 'CODE'
_TEXT	ENDS
;	COMDAT ??R?$_Scan_for_char_val@V?$char_traits@D@_STL@@@_STL@@QBEPBDPBD0@Z
_TEXT	SEGMENT PARA USE32 PUBLIC 'CODE'
_TEXT	ENDS
;	COMDAT ??$distance@PBD@_STL@@YAHABQBD0@Z
_TEXT	SEGMENT PARA USE32 PUBLIC 'CODE'
_TEXT	ENDS
;	COMDAT ?_M_allocate_block@?$_String_base@DV?$allocator@D@_STL@@@_STL@@QAEXI@Z
_TEXT	SEGMENT PARA USE32 PUBLIC 'CODE'
_TEXT	ENDS
;	COMDAT ??$distance@PAD@_STL@@YAHABQAD0@Z
_TEXT	SEGMENT PARA USE32 PUBLIC 'CODE'
_TEXT	ENDS
;	COMDAT ??$uninitialized_copy@PADPAD@_STL@@YAPADPAD00@Z
_TEXT	SEGMENT PARA USE32 PUBLIC 'CODE'
_TEXT	ENDS
;	COMDAT ??$_M_append_dispatch@PAD@?$basic_string@DV?$char_traits@D@_STL@@V?$allocator@D@2@@_STL@@AAEAAV01@PAD0ABU__false_type@1@@Z
_TEXT	SEGMENT PARA USE32 PUBLIC 'CODE'
_TEXT	ENDS
;	COMDAT ?_M_handle_exception@?$basic_ios@DV?$char_traits@D@_STL@@@_STL@@QAEXH@Z
_TEXT	SEGMENT PARA USE32 PUBLIC 'CODE'
_TEXT	ENDS
;	COMDAT ??$append@PBD@?$basic_string@DV?$char_traits@D@_STL@@V?$allocator@D@2@@_STL@@AAEAAV01@PBD0ABUforward_iterator_tag@1@@Z
_TEXT	SEGMENT PARA USE32 PUBLIC 'CODE'
_TEXT	ENDS
;	COMDAT ??$find_if@PBDU?$_Eq_char_bound@V?$char_traits@D@_STL@@@_STL@@@_STL@@YAPBDPBD0U?$_Eq_char_bound@V?$char_traits@D@_STL@@@0@@Z
_TEXT	SEGMENT PARA USE32 PUBLIC 'CODE'
_TEXT	ENDS
;	COMDAT ?_M_construct_null@?$basic_string@DV?$char_traits@D@_STL@@V?$allocator@D@2@@_STL@@AAEXPAD@Z
_TEXT	SEGMENT PARA USE32 PUBLIC 'CODE'
_TEXT	ENDS
;	COMDAT ?max_size@?$basic_string@DV?$char_traits@D@_STL@@V?$allocator@D@2@@_STL@@QBEIXZ
_TEXT	SEGMENT PARA USE32 PUBLIC 'CODE'
_TEXT	ENDS
;	COMDAT ?capacity@?$basic_string@DV?$char_traits@D@_STL@@V?$allocator@D@2@@_STL@@QBEIXZ
_TEXT	SEGMENT PARA USE32 PUBLIC 'CODE'
_TEXT	ENDS
;	COMDAT ?max_size@?$_String_base@DV?$allocator@D@_STL@@@_STL@@QBEIXZ
_TEXT	SEGMENT PARA USE32 PUBLIC 'CODE'
_TEXT	ENDS
;	COMDAT ?_M_construct_null_aux@?$basic_string@DV?$char_traits@D@_STL@@V?$allocator@D@2@@_STL@@AAEXPADABU__true_type@2@@Z
_TEXT	SEGMENT PARA USE32 PUBLIC 'CODE'
_TEXT	ENDS
;	COMDAT ??$__distance@PBD@_STL@@YAHABQBD0ABUrandom_access_iterator_tag@0@@Z
_TEXT	SEGMENT PARA USE32 PUBLIC 'CODE'
_TEXT	ENDS
;	COMDAT ?_M_throw_length_error@?$_String_base@DV?$allocator@D@_STL@@@_STL@@QBEXXZ
_TEXT	SEGMENT PARA USE32 PUBLIC 'CODE'
_TEXT	ENDS
;	COMDAT ??$__distance@PAD@_STL@@YAHABQAD0ABUrandom_access_iterator_tag@0@@Z
_TEXT	SEGMENT PARA USE32 PUBLIC 'CODE'
_TEXT	ENDS
;	COMDAT ??$__uninitialized_copy@PADPAD@_STL@@YAPADPAD00ABU__true_type@0@@Z
_TEXT	SEGMENT PARA USE32 PUBLIC 'CODE'
_TEXT	ENDS
;	COMDAT ??$append@PAD@?$basic_string@DV?$char_traits@D@_STL@@V?$allocator@D@2@@_STL@@AAEAAV01@PAD0ABUforward_iterator_tag@1@@Z
_TEXT	SEGMENT PARA USE32 PUBLIC 'CODE'
_TEXT	ENDS
;	COMDAT ??$max@I@_STL@@YAABIABI0@Z
_TEXT	SEGMENT PARA USE32 PUBLIC 'CODE'
_TEXT	ENDS
;	COMDAT ??$__find_if@PBDU?$_Eq_char_bound@V?$char_traits@D@_STL@@@_STL@@@_STL@@YAPBDPBD0U?$_Eq_char_bound@V?$char_traits@D@_STL@@@0@ABUrandom_access_iterator_tag@0@@Z
_TEXT	SEGMENT PARA USE32 PUBLIC 'CODE'
_TEXT	ENDS
;	COMDAT ?_Ret@?$_BothPtrType@PADPAD@_STL@@SA?AU__true_type@2@XZ
_TEXT	SEGMENT PARA USE32 PUBLIC 'CODE'
_TEXT	ENDS
;	COMDAT ??$__copy_aux@PADPAD@_STL@@YAPADPAD00ABU__true_type@0@@Z
_TEXT	SEGMENT PARA USE32 PUBLIC 'CODE'
_TEXT	ENDS
;	COMDAT ?_Ret@?$_OKToMemCpy@DD@_STL@@SA?AU__true_type@2@XZ
_TEXT	SEGMENT PARA USE32 PUBLIC 'CODE'
_TEXT	ENDS
;	COMDAT ??$_IsOKToMemCpy@DD@_STL@@YA?AU?$_OKToMemCpy@DD@0@PAD0@Z
_TEXT	SEGMENT PARA USE32 PUBLIC 'CODE'
_TEXT	ENDS
;	COMDAT ??$__copy_ptrs@PADPAD@_STL@@YAPADPAD00ABU__true_type@0@@Z
_TEXT	SEGMENT PARA USE32 PUBLIC 'CODE'
_TEXT	ENDS
;	COMDAT ??_R3?$basic_ifstream@DV?$char_traits@D@_STL@@@_STL@@8
rdata$r	SEGMENT DWORD USE32 PUBLIC 'CONST'
rdata$r	ENDS
;	COMDAT ??_R2?$basic_ifstream@DV?$char_traits@D@_STL@@@_STL@@8
rdata$r	SEGMENT DWORD USE32 PUBLIC 'CONST'
rdata$r	ENDS
;	COMDAT ??_R1A@A@3A@ios_base@_STL@@8
rdata$r	SEGMENT DWORD USE32 PUBLIC 'CONST'
rdata$r	ENDS
;	COMDAT ??_R0?AVios_base@_STL@@@8
_DATA	SEGMENT DWORD USE32 PUBLIC 'DATA'
_DATA	ENDS
;	COMDAT ??_R1A@A@3BA@?$basic_ios@DV?$char_traits@D@_STL@@@_STL@@8
rdata$r	SEGMENT DWORD USE32 PUBLIC 'CONST'
rdata$r	ENDS
;	COMDAT ??_R0?AV?$basic_ios@DV?$char_traits@D@_STL@@@_STL@@@8
_DATA	SEGMENT DWORD USE32 PUBLIC 'DATA'
_DATA	ENDS
;	COMDAT ??_R1A@?0A@A@?$basic_istream@DV?$char_traits@D@_STL@@@_STL@@8
rdata$r	SEGMENT DWORD USE32 PUBLIC 'CONST'
rdata$r	ENDS
;	COMDAT ??_R0?AV?$basic_istream@DV?$char_traits@D@_STL@@@_STL@@@8
_DATA	SEGMENT DWORD USE32 PUBLIC 'DATA'
_DATA	ENDS
;	COMDAT ??_R1A@?0A@A@?$basic_ifstream@DV?$char_traits@D@_STL@@@_STL@@8
rdata$r	SEGMENT DWORD USE32 PUBLIC 'CONST'
rdata$r	ENDS
;	COMDAT ??_R0?AV?$basic_ifstream@DV?$char_traits@D@_STL@@@_STL@@@8
_DATA	SEGMENT DWORD USE32 PUBLIC 'DATA'
_DATA	ENDS
;	COMDAT ??_R4?$basic_ifstream@DV?$char_traits@D@_STL@@@_STL@@6B@
rdata$r	SEGMENT DWORD USE32 PUBLIC 'CONST'
rdata$r	ENDS
;	COMDAT ?__copy_trivial@_STL@@YAPAXPBX0PAX@Z
_TEXT	SEGMENT PARA USE32 PUBLIC 'CODE'
_TEXT	ENDS
;	COMDAT ?_M_deallocate_block@?$_String_base@DV?$allocator@D@_STL@@@_STL@@QAEXXZ
_TEXT	SEGMENT PARA USE32 PUBLIC 'CODE'
_TEXT	ENDS
;	COMDAT ?deallocate@?$allocator@D@_STL@@QAEXPADI@Z
_TEXT	SEGMENT PARA USE32 PUBLIC 'CODE'
_TEXT	ENDS
;	COMDAT ?deallocate@?$__node_alloc@$00$0A@@_STL@@SAXPAXI@Z
_TEXT	SEGMENT PARA USE32 PUBLIC 'CODE'
_TEXT	ENDS
;	COMDAT ?__stl_delete@_STL@@YAXPAX@Z
_TEXT	SEGMENT PARA USE32 PUBLIC 'CODE'
_TEXT	ENDS
;	COMDAT ?_M_get_exception_mask@ios_base@_STL@@IBEHXZ
_TEXT	SEGMENT PARA USE32 PUBLIC 'CODE'
_TEXT	ENDS
;	COMDAT ?_M_setstate_nothrow@ios_base@_STL@@IAEXH@Z
_TEXT	SEGMENT PARA USE32 PUBLIC 'CODE'
_TEXT	ENDS
;	COMDAT ?pubsync@?$basic_streambuf@DV?$char_traits@D@_STL@@@_STL@@QAEHXZ
_TEXT	SEGMENT PARA USE32 PUBLIC 'CODE'
_TEXT	ENDS
;	COMDAT ?good@ios_base@_STL@@QBE_NXZ
_TEXT	SEGMENT PARA USE32 PUBLIC 'CODE'
_TEXT	ENDS
;	COMDAT ?to_char_type@?$char_traits@D@_STL@@SADABH@Z
_TEXT	SEGMENT PARA USE32 PUBLIC 'CODE'
_TEXT	ENDS
;	COMDAT ?sbumpc@?$basic_streambuf@DV?$char_traits@D@_STL@@@_STL@@QAEHXZ
_TEXT	SEGMENT PARA USE32 PUBLIC 'CODE'
_TEXT	ENDS
;	COMDAT ?_FILE_I_avail@_STL@@YAHPBU_iobuf@@@Z
_TEXT	SEGMENT PARA USE32 PUBLIC 'CODE'
_TEXT	ENDS
;	COMDAT ?to_int_type@?$char_traits@D@_STL@@SAHABD@Z
_TEXT	SEGMENT PARA USE32 PUBLIC 'CODE'
_TEXT	ENDS
;	COMDAT ?_FILE_I_postincr@_STL@@YAAADPAU_iobuf@@@Z
_TEXT	SEGMENT PARA USE32 PUBLIC 'CODE'
_TEXT	ENDS
;	COMDAT ?sgetc@?$basic_streambuf@DV?$char_traits@D@_STL@@@_STL@@QAEHXZ
_TEXT	SEGMENT PARA USE32 PUBLIC 'CODE'
_TEXT	ENDS
;	COMDAT ?_FILE_I_next@_STL@@YAPADPBU_iobuf@@@Z
_TEXT	SEGMENT PARA USE32 PUBLIC 'CODE'
_TEXT	ENDS
;	COMDAT ?_M_gbump@?$basic_streambuf@DV?$char_traits@D@_STL@@@_STL@@QAEXH@Z
_TEXT	SEGMENT PARA USE32 PUBLIC 'CODE'
_TEXT	ENDS
;	COMDAT ?_FILE_I_bump@_STL@@YAXPAU_iobuf@@H@Z
_TEXT	SEGMENT PARA USE32 PUBLIC 'CODE'
_TEXT	ENDS
;	COMDAT ??$min@H@_STL@@YAABHABH0@Z
_TEXT	SEGMENT PARA USE32 PUBLIC 'CODE'
_TEXT	ENDS
;	COMDAT ?_M_gptr@?$basic_streambuf@DV?$char_traits@D@_STL@@@_STL@@QBEPADXZ
_TEXT	SEGMENT PARA USE32 PUBLIC 'CODE'
_TEXT	ENDS
;	COMDAT ?_M_egptr@?$basic_streambuf@DV?$char_traits@D@_STL@@@_STL@@QBEPADXZ
_TEXT	SEGMENT PARA USE32 PUBLIC 'CODE'
_TEXT	ENDS
;	COMDAT ?_FILE_I_end@_STL@@YAPADPBU_iobuf@@@Z
_TEXT	SEGMENT PARA USE32 PUBLIC 'CODE'
_TEXT	ENDS
;	COMDAT ?grouping@?$numpunct@D@_STL@@QBE?AV?$basic_string@DV?$char_traits@D@_STL@@V?$allocator@D@2@@2@XZ
_TEXT	SEGMENT PARA USE32 PUBLIC 'CODE'
_TEXT	ENDS
;	COMDAT ?__page_size@_Filebuf_base@_STL@@SAIXZ
_TEXT	SEGMENT PARA USE32 PUBLIC 'CODE'
_TEXT	ENDS
;	COMDAT ?_M_write@?$basic_filebuf@DV?$char_traits@D@_STL@@@_STL@@QAE_NPADH@Z
_TEXT	SEGMENT PARA USE32 PUBLIC 'CODE'
_TEXT	ENDS
;	COMDAT ?unshift@?$codecvt@DDH@_STL@@QBE?AW4result@codecvt_base@2@AAHPAD1AAPAD@Z
_TEXT	SEGMENT PARA USE32 PUBLIC 'CODE'
_TEXT	ENDS
;	COMDAT ?uninitialized_copy@_STL@@YAPADPBD0PAD@Z
_TEXT	SEGMENT PARA USE32 PUBLIC 'CODE'
_TEXT	ENDS
;	COMDAT ?gptr@?$basic_streambuf@DV?$char_traits@D@_STL@@@_STL@@IBEPADXZ
_TEXT	SEGMENT PARA USE32 PUBLIC 'CODE'
_TEXT	ENDS
;	COMDAT ?egptr@?$basic_streambuf@DV?$char_traits@D@_STL@@@_STL@@IBEPADXZ
_TEXT	SEGMENT PARA USE32 PUBLIC 'CODE'
_TEXT	ENDS
;	COMDAT ?precision@ios_base@_STL@@QAEHH@Z
_TEXT	SEGMENT PARA USE32 PUBLIC 'CODE'
_TEXT	ENDS
;	COMDAT ?width@ios_base@_STL@@QAEHH@Z
_TEXT	SEGMENT PARA USE32 PUBLIC 'CODE'
_TEXT	ENDS
;	COMDAT ?flags@ios_base@_STL@@QAEHH@Z
_TEXT	SEGMENT PARA USE32 PUBLIC 'CODE'
_TEXT	ENDS
;	COMDAT ?_M_set_exception_mask@ios_base@_STL@@IAEXH@Z
_TEXT	SEGMENT PARA USE32 PUBLIC 'CODE'
_TEXT	ENDS
;	COMDAT ?_M_ctype_facet@ios_base@_STL@@QBEPBVfacet@locale@2@XZ
_TEXT	SEGMENT PARA USE32 PUBLIC 'CODE'
_TEXT	ENDS
;	COMDAT ?widen@?$ctype@D@_STL@@QBEDD@Z
_TEXT	SEGMENT PARA USE32 PUBLIC 'CODE'
_TEXT	ENDS
;	COMDAT ??_7?$basic_ios@DV?$char_traits@D@_STL@@@_STL@@6B@
CONST	SEGMENT DWORD USE32 PUBLIC 'CONST'
CONST	ENDS
;	COMDAT ??_R4?$basic_ios@DV?$char_traits@D@_STL@@@_STL@@6B@
rdata$r	SEGMENT DWORD USE32 PUBLIC 'CONST'
rdata$r	ENDS
;	COMDAT ??_R3?$basic_ios@DV?$char_traits@D@_STL@@@_STL@@8
rdata$r	SEGMENT DWORD USE32 PUBLIC 'CONST'
rdata$r	ENDS
;	COMDAT ??_R2?$basic_ios@DV?$char_traits@D@_STL@@@_STL@@8
rdata$r	SEGMENT DWORD USE32 PUBLIC 'CONST'
rdata$r	ENDS
;	COMDAT ??_R1A@?0A@A@?$basic_ios@DV?$char_traits@D@_STL@@@_STL@@8
rdata$r	SEGMENT DWORD USE32 PUBLIC 'CONST'
rdata$r	ENDS
;	COMDAT ??_R1A@?0A@A@ios_base@_STL@@8
rdata$r	SEGMENT DWORD USE32 PUBLIC 'CONST'
rdata$r	ENDS
;	COMDAT ??_G?$basic_ios@DV?$char_traits@D@_STL@@@_STL@@UAEPAXI@Z
_TEXT	SEGMENT PARA USE32 PUBLIC 'CODE'
_TEXT	ENDS
;	COMDAT ?assign@?$char_traits@D@_STL@@SAXAADABD@Z
_TEXT	SEGMENT PARA USE32 PUBLIC 'CODE'
_TEXT	ENDS
;	COMDAT ?always_noconv@?$codecvt@DDH@_STL@@QBE_NXZ
_TEXT	SEGMENT PARA USE32 PUBLIC 'CODE'
_TEXT	ENDS
;	COMDAT ?encoding@?$codecvt@DDH@_STL@@QBEHXZ
_TEXT	SEGMENT PARA USE32 PUBLIC 'CODE'
_TEXT	ENDS
;	COMDAT ?max_length@?$codecvt@DDH@_STL@@QBEHXZ
_TEXT	SEGMENT PARA USE32 PUBLIC 'CODE'
_TEXT	ENDS
;	COMDAT ?__o_mode@_Filebuf_base@_STL@@QBEHXZ
_TEXT	SEGMENT PARA USE32 PUBLIC 'CODE'
_TEXT	ENDS
;	COMDAT ??_7?$basic_filebuf@DV?$char_traits@D@_STL@@@_STL@@6B@
CONST	SEGMENT DWORD USE32 PUBLIC 'CONST'
CONST	ENDS
;	COMDAT ??_R4?$basic_filebuf@DV?$char_traits@D@_STL@@@_STL@@6B@
rdata$r	SEGMENT DWORD USE32 PUBLIC 'CONST'
rdata$r	ENDS
;	COMDAT ??_R0?AV?$basic_filebuf@DV?$char_traits@D@_STL@@@_STL@@@8
_DATA	SEGMENT DWORD USE32 PUBLIC 'DATA'
_DATA	ENDS
;	COMDAT ??_R3?$basic_filebuf@DV?$char_traits@D@_STL@@@_STL@@8
rdata$r	SEGMENT DWORD USE32 PUBLIC 'CONST'
rdata$r	ENDS
;	COMDAT ??_R2?$basic_filebuf@DV?$char_traits@D@_STL@@@_STL@@8
rdata$r	SEGMENT DWORD USE32 PUBLIC 'CONST'
rdata$r	ENDS
;	COMDAT ??_R1A@?0A@A@?$basic_filebuf@DV?$char_traits@D@_STL@@@_STL@@8
rdata$r	SEGMENT DWORD USE32 PUBLIC 'CONST'
rdata$r	ENDS
;	COMDAT ??_R1A@?0A@A@?$basic_streambuf@DV?$char_traits@D@_STL@@@_STL@@8
rdata$r	SEGMENT DWORD USE32 PUBLIC 'CONST'
rdata$r	ENDS
;	COMDAT ??_R0?AV?$basic_streambuf@DV?$char_traits@D@_STL@@@_STL@@@8
_DATA	SEGMENT DWORD USE32 PUBLIC 'DATA'
_DATA	ENDS
;	COMDAT ??_G?$basic_filebuf@DV?$char_traits@D@_STL@@@_STL@@UAEPAXI@Z
_TEXT	SEGMENT PARA USE32 PUBLIC 'CODE'
_TEXT	ENDS
;	COMDAT ?setbuf@?$basic_filebuf@DV?$char_traits@D@_STL@@@_STL@@MAEPAV?$basic_streambuf@DV?$char_traits@D@_STL@@@2@PADH@Z
_TEXT	SEGMENT PARA USE32 PUBLIC 'CODE'
_TEXT	ENDS
;	COMDAT ?seekoff@?$basic_filebuf@DV?$char_traits@D@_STL@@@_STL@@MAE?AV?$fpos@H@2@JHH@Z
_TEXT	SEGMENT PARA USE32 PUBLIC 'CODE'
_TEXT	ENDS
;	COMDAT ?_M_in_binary_mode@_Filebuf_base@_STL@@QBE_NXZ
_TEXT	SEGMENT PARA USE32 PUBLIC 'CODE'
_TEXT	ENDS
;	COMDAT ?length@?$codecvt@DDH@_STL@@QBEHABHPBD1I@Z
_TEXT	SEGMENT PARA USE32 PUBLIC 'CODE'
_TEXT	ENDS
;	COMDAT ?in@?$codecvt@DDH@_STL@@QBE?AW4result@codecvt_base@2@AAHPBD1AAPBDPAD3AAPAD@Z
_TEXT	SEGMENT PARA USE32 PUBLIC 'CODE'
_TEXT	ENDS
;	COMDAT ?eback@?$basic_streambuf@DV?$char_traits@D@_STL@@@_STL@@IBEPADXZ
_TEXT	SEGMENT PARA USE32 PUBLIC 'CODE'
_TEXT	ENDS
;	COMDAT ?_FILE_I_begin@_STL@@YAPADPBU_iobuf@@@Z
_TEXT	SEGMENT PARA USE32 PUBLIC 'CODE'
_TEXT	ENDS
;	COMDAT ?_M_get_offset@_Filebuf_base@_STL@@QAEJPAD0@Z
_TEXT	SEGMENT PARA USE32 PUBLIC 'CODE'
_TEXT	ENDS
;	COMDAT ??$count@PADD@_STL@@YAHPAD0ABD@Z
_TEXT	SEGMENT PARA USE32 PUBLIC 'CODE'
_TEXT	ENDS
;	COMDAT ?seekpos@?$basic_filebuf@DV?$char_traits@D@_STL@@@_STL@@MAE?AV?$fpos@H@2@V32@H@Z
_TEXT	SEGMENT PARA USE32 PUBLIC 'CODE'
_TEXT	ENDS
;	COMDAT ?sync@?$basic_filebuf@DV?$char_traits@D@_STL@@@_STL@@MAEHXZ
_TEXT	SEGMENT PARA USE32 PUBLIC 'CODE'
_TEXT	ENDS
;	COMDAT ?showmanyc@?$basic_filebuf@DV?$char_traits@D@_STL@@@_STL@@MAEHXZ
_TEXT	SEGMENT PARA USE32 PUBLIC 'CODE'
_TEXT	ENDS
;	COMDAT ?underflow@?$basic_filebuf@DV?$char_traits@D@_STL@@@_STL@@MAEHXZ
_TEXT	SEGMENT PARA USE32 PUBLIC 'CODE'
_TEXT	ENDS
;	COMDAT ?pbackfail@?$basic_filebuf@DV?$char_traits@D@_STL@@@_STL@@MAEHH@Z
_TEXT	SEGMENT PARA USE32 PUBLIC 'CODE'
_TEXT	ENDS
;	COMDAT ?gbump@?$basic_streambuf@DV?$char_traits@D@_STL@@@_STL@@IAEXH@Z
_TEXT	SEGMENT PARA USE32 PUBLIC 'CODE'
_TEXT	ENDS
;	COMDAT ?overflow@?$basic_filebuf@DV?$char_traits@D@_STL@@@_STL@@MAEHH@Z
_TEXT	SEGMENT PARA USE32 PUBLIC 'CODE'
_TEXT	ENDS
;	COMDAT ?pptr@?$basic_streambuf@DV?$char_traits@D@_STL@@@_STL@@IBEPADXZ
_TEXT	SEGMENT PARA USE32 PUBLIC 'CODE'
_TEXT	ENDS
;	COMDAT ?_FILE_O_next@_STL@@YAPADPBU_iobuf@@@Z
_TEXT	SEGMENT PARA USE32 PUBLIC 'CODE'
_TEXT	ENDS
;	COMDAT ?out@?$codecvt@DDH@_STL@@QBE?AW4result@codecvt_base@2@AAHPBD1AAPBDPAD3AAPAD@Z
_TEXT	SEGMENT PARA USE32 PUBLIC 'CODE'
_TEXT	ENDS
;	COMDAT ?_M_doit@?$_Noconv_output@V?$char_traits@D@_STL@@@_STL@@SA_NPAV?$basic_filebuf@DV?$char_traits@D@_STL@@@2@PAD1@Z
_TEXT	SEGMENT PARA USE32 PUBLIC 'CODE'
_TEXT	ENDS
;	COMDAT ?imbue@?$basic_filebuf@DV?$char_traits@D@_STL@@@_STL@@MAEXABVlocale@2@@Z
_TEXT	SEGMENT PARA USE32 PUBLIC 'CODE'
_TEXT	ENDS
;	COMDAT ??0?$basic_streambuf@DV?$char_traits@D@_STL@@@_STL@@IAE@XZ
_TEXT	SEGMENT PARA USE32 PUBLIC 'CODE'
_TEXT	ENDS
;	COMDAT ??_7?$basic_streambuf@DV?$char_traits@D@_STL@@@_STL@@6B@
CONST	SEGMENT DWORD USE32 PUBLIC 'CONST'
CONST	ENDS
;	COMDAT ??_R4?$basic_streambuf@DV?$char_traits@D@_STL@@@_STL@@6B@
rdata$r	SEGMENT DWORD USE32 PUBLIC 'CONST'
rdata$r	ENDS
;	COMDAT ??_R3?$basic_streambuf@DV?$char_traits@D@_STL@@@_STL@@8
rdata$r	SEGMENT DWORD USE32 PUBLIC 'CONST'
rdata$r	ENDS
;	COMDAT ??_R2?$basic_streambuf@DV?$char_traits@D@_STL@@@_STL@@8
rdata$r	SEGMENT DWORD USE32 PUBLIC 'CONST'
rdata$r	ENDS
;	COMDAT ??_G?$basic_streambuf@DV?$char_traits@D@_STL@@@_STL@@UAEPAXI@Z
_TEXT	SEGMENT PARA USE32 PUBLIC 'CODE'
_TEXT	ENDS
;	COMDAT ??0_STLP_mutex@_STL@@QAE@XZ
_TEXT	SEGMENT PARA USE32 PUBLIC 'CODE'
_TEXT	ENDS
;	COMDAT ?_M_initialize@_STLP_mutex_base@_STL@@QAEXXZ
_TEXT	SEGMENT PARA USE32 PUBLIC 'CODE'
_TEXT	ENDS
;	COMDAT ??1_STLP_mutex@_STL@@QAE@XZ
_TEXT	SEGMENT PARA USE32 PUBLIC 'CODE'
_TEXT	ENDS
;	COMDAT ?_M_destroy@_STLP_mutex_base@_STL@@QAEXXZ
_TEXT	SEGMENT PARA USE32 PUBLIC 'CODE'
_TEXT	ENDS
;	COMDAT ?_FILE_I_set@_STL@@YAXPAU_iobuf@@PAD11@Z
_TEXT	SEGMENT PARA USE32 PUBLIC 'CODE'
_TEXT	ENDS
;	COMDAT ?_FILE_O_set@_STL@@YAXPAU_iobuf@@PAD11@Z
_TEXT	SEGMENT PARA USE32 PUBLIC 'CODE'
_TEXT	ENDS
;	COMDAT ?_M_check_exception_mask@ios_base@_STL@@IAEXXZ
_TEXT	SEGMENT PARA USE32 PUBLIC 'CODE'
_TEXT	ENDS
;	COMDAT ?_M_clear_nothrow@ios_base@_STL@@IAEXH@Z
_TEXT	SEGMENT PARA USE32 PUBLIC 'CODE'
_TEXT	ENDS
;	COMDAT ?rdstate@ios_base@_STL@@QBEHXZ
_TEXT	SEGMENT PARA USE32 PUBLIC 'CODE'
_TEXT	ENDS
;	COMDAT ??_7?$basic_istream@DV?$char_traits@D@_STL@@@_STL@@6B@
CONST	SEGMENT DWORD USE32 PUBLIC 'CONST'
CONST	ENDS
;	COMDAT ??_R4?$basic_istream@DV?$char_traits@D@_STL@@@_STL@@6B@
rdata$r	SEGMENT DWORD USE32 PUBLIC 'CONST'
rdata$r	ENDS
;	COMDAT ??_R3?$basic_istream@DV?$char_traits@D@_STL@@@_STL@@8
rdata$r	SEGMENT DWORD USE32 PUBLIC 'CONST'
rdata$r	ENDS
;	COMDAT ??_R2?$basic_istream@DV?$char_traits@D@_STL@@@_STL@@8
rdata$r	SEGMENT DWORD USE32 PUBLIC 'CONST'
rdata$r	ENDS
;	COMDAT ??_G?$basic_istream@DV?$char_traits@D@_STL@@@_STL@@UAEPAXI@Z
_TEXT	SEGMENT PARA USE32 PUBLIC 'CODE'
_TEXT	ENDS
;	COMDAT ??_D?$basic_istream@DV?$char_traits@D@_STL@@@_STL@@QAEXXZ
_TEXT	SEGMENT PARA USE32 PUBLIC 'CODE'
_TEXT	ENDS
;	COMDAT ??_8?$basic_istream@DV?$char_traits@D@_STL@@@_STL@@7B@
CONST	SEGMENT DWORD USE32 PUBLIC 'CONST'
CONST	ENDS
;	COMDAT ?_Destroy@_STL@@YAXPAD0@Z
_TEXT	SEGMENT PARA USE32 PUBLIC 'CODE'
_TEXT	ENDS
;	COMDAT ??1?$basic_filebuf@DV?$char_traits@D@_STL@@@_STL@@UAE@XZ
_TEXT	SEGMENT PARA USE32 PUBLIC 'CODE'
_TEXT	ENDS
;	COMDAT ??_7?$basic_ifstream@DV?$char_traits@D@_STL@@@_STL@@6B@
CONST	SEGMENT DWORD USE32 PUBLIC 'CONST'
CONST	ENDS
;	COMDAT ??1?$basic_istream@DV?$char_traits@D@_STL@@@_STL@@UAE@XZ
_TEXT	SEGMENT PARA USE32 PUBLIC 'CODE'
_TEXT	ENDS
;	COMDAT ??_8?$basic_ifstream@DV?$char_traits@D@_STL@@@_STL@@7B@
CONST	SEGMENT DWORD USE32 PUBLIC 'CONST'
CONST	ENDS
;	COMDAT ?setp@?$basic_streambuf@DV?$char_traits@D@_STL@@@_STL@@IAEXPAD0@Z
_TEXT	SEGMENT PARA USE32 PUBLIC 'CODE'
_TEXT	ENDS
;	COMDAT ?setg@?$basic_streambuf@DV?$char_traits@D@_STL@@@_STL@@IAEXPAD00@Z
_TEXT	SEGMENT PARA USE32 PUBLIC 'CODE'
_TEXT	ENDS
;	COMDAT ?__is_open@_Filebuf_base@_STL@@QBE_NXZ
_TEXT	SEGMENT PARA USE32 PUBLIC 'CODE'
_TEXT	ENDS
;	COMDAT ?allocate@?$__node_alloc@$00$0A@@_STL@@SAPAXI@Z
_TEXT	SEGMENT PARA USE32 PUBLIC 'CODE'
_TEXT	ENDS
;	COMDAT ?__stl_new@_STL@@YAPAXI@Z
_TEXT	SEGMENT PARA USE32 PUBLIC 'CODE'
_TEXT	ENDS
;	COMDAT ??1?$_STLP_alloc_proxy@PADDV?$allocator@D@_STL@@@_STL@@QAE@XZ
_TEXT	SEGMENT PARA USE32 PUBLIC 'CODE'
_TEXT	ENDS
;	COMDAT ??$min@I@_STL@@YAABIABI0@Z
_TEXT	SEGMENT PARA USE32 PUBLIC 'CODE'
_TEXT	ENDS
;	COMDAT ?length@?$char_traits@D@_STL@@SAIPBD@Z
_TEXT	SEGMENT PARA USE32 PUBLIC 'CODE'
_TEXT	ENDS
;	COMDAT ?eof@?$__char_traits_base@DH@_STL@@SAHXZ
_TEXT	SEGMENT PARA USE32 PUBLIC 'CODE'
_TEXT	ENDS
;	COMDAT ??1?$basic_ios@DV?$char_traits@D@_STL@@@_STL@@UAE@XZ
_TEXT	SEGMENT PARA USE32 PUBLIC 'CODE'
_TEXT	ENDS
;	COMDAT ??1?$allocator@D@_STL@@QAE@XZ
_TEXT	SEGMENT PARA USE32 PUBLIC 'CODE'
_TEXT	ENDS
;	COMDAT ??0?$allocator@D@_STL@@QAE@XZ
_TEXT	SEGMENT PARA USE32 PUBLIC 'CODE'
_TEXT	ENDS
;	COMDAT ??0?$basic_string@DV?$char_traits@D@_STL@@V?$allocator@D@2@@_STL@@QAE@PBDABV?$allocator@D@1@@Z
_TEXT	SEGMENT PARA USE32 PUBLIC 'CODE'
_TEXT	ENDS
;	COMDAT ??1?$_String_base@DV?$allocator@D@_STL@@@_STL@@QAE@XZ
_TEXT	SEGMENT PARA USE32 PUBLIC 'CODE'
_TEXT	ENDS
;	COMDAT ??_C@_01CLKCMJKC@?5?$AA@
CONST	SEGMENT DWORD USE32 PUBLIC 'CONST'
CONST	ENDS
;	COMDAT ?eof@ios_base@_STL@@QBE_NXZ
_TEXT	SEGMENT PARA USE32 PUBLIC 'CODE'
_TEXT	ENDS
;	COMDAT ??0?$basic_string@DV?$char_traits@D@_STL@@V?$allocator@D@2@@_STL@@QAE@ABV01@@Z
_TEXT	SEGMENT PARA USE32 PUBLIC 'CODE'
_TEXT	ENDS
;	COMDAT ??4?$basic_string@DV?$char_traits@D@_STL@@V?$allocator@D@2@@_STL@@QAEAAV01@ABV01@@Z
_TEXT	SEGMENT PARA USE32 PUBLIC 'CODE'
_TEXT	ENDS
;	COMDAT ??$assign@PAD@?$basic_string@DV?$char_traits@D@_STL@@V?$allocator@D@2@@_STL@@QAEAAV01@PAD0@Z
_TEXT	SEGMENT PARA USE32 PUBLIC 'CODE'
_TEXT	ENDS
;	COMDAT ??0?$basic_string@DV?$char_traits@D@_STL@@V?$allocator@D@2@@_STL@@QAE@XZ
_TEXT	SEGMENT PARA USE32 PUBLIC 'CODE'
_TEXT	ENDS
;	COMDAT ??1?$basic_string@DV?$char_traits@D@_STL@@V?$allocator@D@2@@_STL@@QAE@XZ
_TEXT	SEGMENT PARA USE32 PUBLIC 'CODE'
_TEXT	ENDS
sxdata	SEGMENT DWORD USE32 'SXDATA'
sxdata	ENDS
FLAT	GROUP _DATA, CONST, _BSS
	ASSUME	CS: FLAT, DS: FLAT, SS: FLAT
endif

INCLUDELIB LIBCMT
INCLUDELIB OLDNAMES

PUBLIC	??_C@_0O@JKENFCBN@MinTrace?52003?$AA@		; `string'
PUBLIC	??_C@_0BE@MNEJIGLM@__MinTrace?5Window__?$AA@	; `string'
;	COMDAT ??_C@_0O@JKENFCBN@MinTrace?52003?$AA@
CONST	SEGMENT
??_C@_0O@JKENFCBN@MinTrace?52003?$AA@ DB 'MinTrace 2003', 00H ; `string'
CONST	ENDS
_DATA	SEGMENT
_g_pszMinTraceTitle DD FLAT:??_C@_0O@JKENFCBN@MinTrace?52003?$AA@
_DATA	ENDS
;	COMDAT ??_C@_0BE@MNEJIGLM@__MinTrace?5Window__?$AA@
CONST	SEGMENT
??_C@_0BE@MNEJIGLM@__MinTrace?5Window__?$AA@ DB '__MinTrace Window__', 00H ; `string'
CONST	ENDS
_DATA	SEGMENT
_g_pszMinTraceClassName DD FLAT:??_C@_0BE@MNEJIGLM@__MinTrace?5Window__?$AA@
_DATA	ENDS
PUBLIC	?__stl_new@_STL@@YAPAXI@Z			; _STL::__stl_new
EXTRN	??2@YAPAXI@Z:NEAR				; operator new
; Function compile flags: /Ogsy
; File c:\stlport-4.6.1\stlport\stl\_new.h
;	COMDAT ?__stl_new@_STL@@YAPAXI@Z
_TEXT	SEGMENT
___n$ = 8						; size = 4
?__stl_new@_STL@@YAPAXI@Z PROC NEAR			; _STL::__stl_new, COMDAT

; 86   : inline void*  _STLP_CALL __stl_new(size_t __n)   { _STLP_CHECK_NULL_ALLOC(::operator _STLP_NEW(__n)); }

  00000	e9 00 00 00 00	 jmp	 ??2@YAPAXI@Z		; operator new
?__stl_new@_STL@@YAPAXI@Z ENDP				; _STL::__stl_new
_TEXT	ENDS
PUBLIC	?__stl_delete@_STL@@YAXPAX@Z			; _STL::__stl_delete
EXTRN	??3@YAXPAX@Z:NEAR				; operator delete
; Function compile flags: /Ogsy
;	COMDAT ?__stl_delete@_STL@@YAXPAX@Z
_TEXT	SEGMENT
___p$ = 8						; size = 4
?__stl_delete@_STL@@YAXPAX@Z PROC NEAR			; _STL::__stl_delete, COMDAT

; 87   : inline void   _STLP_CALL __stl_delete(void* __p) { ::operator delete(__p); }

  00000	e9 00 00 00 00	 jmp	 ??3@YAXPAX@Z		; operator delete
?__stl_delete@_STL@@YAXPAX@Z ENDP			; _STL::__stl_delete
_TEXT	ENDS
PUBLIC	?_M_initialize@_STLP_mutex_base@_STL@@QAEXXZ	; _STL::_STLP_mutex_base::_M_initialize
; Function compile flags: /Ogsy
; File c:\stlport-4.6.1\stlport\stl\_threads.h
;	COMDAT ?_M_initialize@_STLP_mutex_base@_STL@@QAEXXZ
_TEXT	SEGMENT
?_M_initialize@_STLP_mutex_base@_STL@@QAEXXZ PROC NEAR	; _STL::_STLP_mutex_base::_M_initialize, COMDAT
; _this$ = ecx

; 321  :   inline void _M_initialize() { _M_lock=0; }

  00000	c7 01 00 00 00
	00		 mov	 DWORD PTR [ecx], 0
  00006	c3		 ret	 0
?_M_initialize@_STLP_mutex_base@_STL@@QAEXXZ ENDP	; _STL::_STLP_mutex_base::_M_initialize
_TEXT	ENDS
PUBLIC	?_M_destroy@_STLP_mutex_base@_STL@@QAEXXZ	; _STL::_STLP_mutex_base::_M_destroy
; Function compile flags: /Ogsy
;	COMDAT ?_M_destroy@_STLP_mutex_base@_STL@@QAEXXZ
_TEXT	SEGMENT
?_M_destroy@_STLP_mutex_base@_STL@@QAEXXZ PROC NEAR	; _STL::_STLP_mutex_base::_M_destroy, COMDAT
; _this$ = ecx

; 322  :   inline void _M_destroy() {}

  00000	c3		 ret	 0
?_M_destroy@_STLP_mutex_base@_STL@@QAEXXZ ENDP		; _STL::_STLP_mutex_base::_M_destroy
_TEXT	ENDS
PUBLIC	??0_STLP_mutex@_STL@@QAE@XZ			; _STL::_STLP_mutex::_STLP_mutex
; Function compile flags: /Ogsy
;	COMDAT ??0_STLP_mutex@_STL@@QAE@XZ
_TEXT	SEGMENT
??0_STLP_mutex@_STL@@QAE@XZ PROC NEAR			; _STL::_STLP_mutex::_STLP_mutex, COMDAT
; _this$ = ecx

; 467  :     inline _STLP_mutex () { _M_initialize(); }

  00000	8b c1		 mov	 eax, ecx
  00002	c7 00 00 00 00
	00		 mov	 DWORD PTR [eax], 0
  00008	c3		 ret	 0
??0_STLP_mutex@_STL@@QAE@XZ ENDP			; _STL::_STLP_mutex::_STLP_mutex
_TEXT	ENDS
PUBLIC	??1_STLP_mutex@_STL@@QAE@XZ			; _STL::_STLP_mutex::~_STLP_mutex
; Function compile flags: /Ogsy
;	COMDAT ??1_STLP_mutex@_STL@@QAE@XZ
_TEXT	SEGMENT
??1_STLP_mutex@_STL@@QAE@XZ PROC NEAR			; _STL::_STLP_mutex::~_STLP_mutex, COMDAT
; _this$ = ecx

; 468  :     inline ~_STLP_mutex () { _M_destroy(); }

  00000	c3		 ret	 0
??1_STLP_mutex@_STL@@QAE@XZ ENDP			; _STL::_STLP_mutex::~_STLP_mutex
_TEXT	ENDS
PUBLIC	?_Destroy@_STL@@YAXPAD0@Z			; _STL::_Destroy
; Function compile flags: /Ogsy
; File c:\stlport-4.6.1\stlport\stl\_construct.h
;	COMDAT ?_Destroy@_STL@@YAXPAD0@Z
_TEXT	SEGMENT
___formal$ = 8						; size = 4
___formal$ = 12						; size = 4
?_Destroy@_STL@@YAXPAD0@Z PROC NEAR			; _STL::_Destroy, COMDAT

; 142  : inline void _Destroy(char*, char*) {}

  00000	c3		 ret	 0
?_Destroy@_STL@@YAXPAD0@Z ENDP				; _STL::_Destroy
_TEXT	ENDS
PUBLIC	?__copy_trivial@_STL@@YAPAXPBX0PAX@Z		; _STL::__copy_trivial
EXTRN	_memmove:NEAR
; Function compile flags: /Ogsy
; File c:\stlport-4.6.1\stlport\stl\_algobase.h
;	COMDAT ?__copy_trivial@_STL@@YAPAXPBX0PAX@Z
_TEXT	SEGMENT
___first$ = 8						; size = 4
___last$ = 12						; size = 4
___result$ = 16						; size = 4
?__copy_trivial@_STL@@YAPAXPBX0PAX@Z PROC NEAR		; _STL::__copy_trivial, COMDAT

; 147  : __copy_trivial(const void* __first, const void* __last, void* __result) {

  00000	55		 push	 ebp
  00001	8b ec		 mov	 ebp, esp
  00003	56		 push	 esi

; 148  :   return (__last == __first) ? __result : 
; 149  :     ((char*)memmove(__result, __first, ((const char*)__last - (const char*)__first))) + 
; 150  :     ((const char*)__last - (const char*)__first);

  00004	8b 75 0c	 mov	 esi, DWORD PTR ___last$[ebp]
  00007	3b 75 08	 cmp	 esi, DWORD PTR ___first$[ebp]
  0000a	75 05		 jne	 SHORT $L101631
  0000c	8b 45 10	 mov	 eax, DWORD PTR ___result$[ebp]
  0000f	eb 14		 jmp	 SHORT $L101632
$L101631:
  00011	2b 75 08	 sub	 esi, DWORD PTR ___first$[ebp]
  00014	56		 push	 esi
  00015	ff 75 08	 push	 DWORD PTR ___first$[ebp]
  00018	ff 75 10	 push	 DWORD PTR ___result$[ebp]
  0001b	e8 00 00 00 00	 call	 _memmove
  00020	83 c4 0c	 add	 esp, 12			; 0000000cH
  00023	03 c6		 add	 eax, esi
$L101632:
  00025	5e		 pop	 esi

; 151  : }

  00026	5d		 pop	 ebp
  00027	c3		 ret	 0
?__copy_trivial@_STL@@YAPAXPBX0PAX@Z ENDP		; _STL::__copy_trivial
_TEXT	ENDS
PUBLIC	?uninitialized_copy@_STL@@YAPADPBD0PAD@Z	; _STL::uninitialized_copy
; Function compile flags: /Ogsy
; File c:\stlport-4.6.1\stlport\stl\_uninitialized.h
;	COMDAT ?uninitialized_copy@_STL@@YAPADPBD0PAD@Z
_TEXT	SEGMENT
___first$ = 8						; size = 4
___last$ = 12						; size = 4
___result$ = 16						; size = 4
?uninitialized_copy@_STL@@YAPADPBD0PAD@Z PROC NEAR	; _STL::uninitialized_copy, COMDAT

; 84   :   return  (char*)__copy_trivial (__first, __last, __result);

  00000	e9 00 00 00 00	 jmp	 ?__copy_trivial@_STL@@YAPAXPBX0PAX@Z ; _STL::__copy_trivial
?uninitialized_copy@_STL@@YAPADPBD0PAD@Z ENDP		; _STL::uninitialized_copy
_TEXT	ENDS
PUBLIC	?to_char_type@?$char_traits@D@_STL@@SADABH@Z	; _STL::char_traits<char>::to_char_type
; Function compile flags: /Ogsy
; File c:\stlport-4.6.1\stlport\stl\char_traits.h
;	COMDAT ?to_char_type@?$char_traits@D@_STL@@SADABH@Z
_TEXT	SEGMENT
___c$ = 8						; size = 4
?to_char_type@?$char_traits@D@_STL@@SADABH@Z PROC NEAR	; _STL::char_traits<char>::to_char_type, COMDAT

; 228  :     return (char)(unsigned char)__c;

  00000	8b 44 24 04	 mov	 eax, DWORD PTR ___c$[esp-4]
  00004	8a 00		 mov	 al, BYTE PTR [eax]

; 229  :   }

  00006	c3		 ret	 0
?to_char_type@?$char_traits@D@_STL@@SADABH@Z ENDP	; _STL::char_traits<char>::to_char_type
_TEXT	ENDS
PUBLIC	?to_int_type@?$char_traits@D@_STL@@SAHABD@Z	; _STL::char_traits<char>::to_int_type
; Function compile flags: /Ogsy
;	COMDAT ?to_int_type@?$char_traits@D@_STL@@SAHABD@Z
_TEXT	SEGMENT
___c$ = 8						; size = 4
?to_int_type@?$char_traits@D@_STL@@SAHABD@Z PROC NEAR	; _STL::char_traits<char>::to_int_type, COMDAT

; 232  :     return (unsigned char)__c;

  00000	8b 44 24 04	 mov	 eax, DWORD PTR ___c$[esp-4]
  00004	0f b6 00	 movzx	 eax, BYTE PTR [eax]

; 233  :   }

  00007	c3		 ret	 0
?to_int_type@?$char_traits@D@_STL@@SAHABD@Z ENDP	; _STL::char_traits<char>::to_int_type
_TEXT	ENDS
PUBLIC	?length@?$char_traits@D@_STL@@SAIPBD@Z		; _STL::char_traits<char>::length
EXTRN	_strlen:NEAR
; Function compile flags: /Ogsy
;	COMDAT ?length@?$char_traits@D@_STL@@SAIPBD@Z
_TEXT	SEGMENT
___s$ = 8						; size = 4
?length@?$char_traits@D@_STL@@SAIPBD@Z PROC NEAR	; _STL::char_traits<char>::length, COMDAT

; 238  :   static size_t _STLP_CALL length(const char* __s) { return strlen(__s); }

  00000	e9 00 00 00 00	 jmp	 _strlen
?length@?$char_traits@D@_STL@@SAIPBD@Z ENDP		; _STL::char_traits<char>::length
_TEXT	ENDS
PUBLIC	?assign@?$char_traits@D@_STL@@SAXAADABD@Z	; _STL::char_traits<char>::assign
; Function compile flags: /Ogsy
;	COMDAT ?assign@?$char_traits@D@_STL@@SAXAADABD@Z
_TEXT	SEGMENT
___c1$ = 8						; size = 4
___c2$ = 12						; size = 4
?assign@?$char_traits@D@_STL@@SAXAADABD@Z PROC NEAR	; _STL::char_traits<char>::assign, COMDAT

; 240  :   static void _STLP_CALL assign(char& __c1, const char& __c2) { __c1 = __c2; }

  00000	8b 44 24 08	 mov	 eax, DWORD PTR ___c2$[esp-4]
  00004	8a 00		 mov	 al, BYTE PTR [eax]
  00006	8b 4c 24 04	 mov	 ecx, DWORD PTR ___c1$[esp-4]
  0000a	88 01		 mov	 BYTE PTR [ecx], al
  0000c	c3		 ret	 0
?assign@?$char_traits@D@_STL@@SAXAADABD@Z ENDP		; _STL::char_traits<char>::assign
_TEXT	ENDS
PUBLIC	?widen@?$ctype@D@_STL@@QBEDD@Z			; _STL::ctype<char>::widen
; Function compile flags: /Ogsy
; File c:\stlport-4.6.1\stlport\stl\_ctype.h
;	COMDAT ?widen@?$ctype@D@_STL@@QBEDD@Z
_TEXT	SEGMENT
___c$ = 8						; size = 1
?widen@?$ctype@D@_STL@@QBEDD@Z PROC NEAR		; _STL::ctype<char>::widen, COMDAT
; _this$ = ecx

; 102  :   char        widen(char __c) const { return do_widen(__c); }

  00000	8b 01		 mov	 eax, DWORD PTR [ecx]
  00002	ff 60 18	 jmp	 DWORD PTR [eax+24]
?widen@?$ctype@D@_STL@@QBEDD@Z ENDP			; _STL::ctype<char>::widen
_TEXT	ENDS
PUBLIC	?eq@?$__char_traits_base@DH@_STL@@SA_NABD0@Z	; _STL::__char_traits_base<char,int>::eq
; Function compile flags: /Ogsy
; File c:\stlport-4.6.1\stlport\stl\char_traits.h
;	COMDAT ?eq@?$__char_traits_base@DH@_STL@@SA_NABD0@Z
_TEXT	SEGMENT
___c1$ = 8						; size = 4
___c2$ = 12						; size = 4
?eq@?$__char_traits_base@DH@_STL@@SA_NABD0@Z PROC NEAR	; _STL::__char_traits_base<char,int>::eq, COMDAT

; 138  :     { return __c1 == __c2; }

  00000	8b 44 24 04	 mov	 eax, DWORD PTR ___c1$[esp-4]
  00004	8a 00		 mov	 al, BYTE PTR [eax]
  00006	8b 4c 24 08	 mov	 ecx, DWORD PTR ___c2$[esp-4]
  0000a	2a 01		 sub	 al, BYTE PTR [ecx]
  0000c	f6 d8		 neg	 al
  0000e	1b c0		 sbb	 eax, eax
  00010	40		 inc	 eax
  00011	c3		 ret	 0
?eq@?$__char_traits_base@DH@_STL@@SA_NABD0@Z ENDP	; _STL::__char_traits_base<char,int>::eq
_TEXT	ENDS
PUBLIC	?eq_int_type@?$__char_traits_base@DH@_STL@@SA_NABH0@Z ; _STL::__char_traits_base<char,int>::eq_int_type
; Function compile flags: /Ogsy
;	COMDAT ?eq_int_type@?$__char_traits_base@DH@_STL@@SA_NABH0@Z
_TEXT	SEGMENT
___c1$ = 8						; size = 4
___c2$ = 12						; size = 4
?eq_int_type@?$__char_traits_base@DH@_STL@@SA_NABH0@Z PROC NEAR ; _STL::__char_traits_base<char,int>::eq_int_type, COMDAT

; 193  :     return __c1 == __c2;

  00000	8b 44 24 04	 mov	 eax, DWORD PTR ___c1$[esp-4]
  00004	8b 00		 mov	 eax, DWORD PTR [eax]
  00006	8b 4c 24 08	 mov	 ecx, DWORD PTR ___c2$[esp-4]
  0000a	2b 01		 sub	 eax, DWORD PTR [ecx]
  0000c	f7 d8		 neg	 eax
  0000e	1b c0		 sbb	 eax, eax
  00010	40		 inc	 eax

; 194  :   }

  00011	c3		 ret	 0
?eq_int_type@?$__char_traits_base@DH@_STL@@SA_NABH0@Z ENDP ; _STL::__char_traits_base<char,int>::eq_int_type
_TEXT	ENDS
PUBLIC	?empty@?$basic_string@DV?$char_traits@D@_STL@@V?$allocator@D@2@@_STL@@QBE_NXZ ; _STL::basic_string<char,_STL::char_traits<char>,_STL::allocator<char> >::empty
; Function compile flags: /Ogsy
; File c:\stlport-4.6.1\stlport\stl\_string.h
;	COMDAT ?empty@?$basic_string@DV?$char_traits@D@_STL@@V?$allocator@D@2@@_STL@@QBE_NXZ
_TEXT	SEGMENT
?empty@?$basic_string@DV?$char_traits@D@_STL@@V?$allocator@D@2@@_STL@@QBE_NXZ PROC NEAR ; _STL::basic_string<char,_STL::char_traits<char>,_STL::allocator<char> >::empty, COMDAT
; _this$ = ecx

; 457  :   bool empty() const { return this->_M_start == this->_M_finish; }    

  00000	8b 01		 mov	 eax, DWORD PTR [ecx]
  00002	2b 41 04	 sub	 eax, DWORD PTR [ecx+4]
  00005	f7 d8		 neg	 eax
  00007	1b c0		 sbb	 eax, eax
  00009	40		 inc	 eax
  0000a	c3		 ret	 0
?empty@?$basic_string@DV?$char_traits@D@_STL@@V?$allocator@D@2@@_STL@@QBE_NXZ ENDP ; _STL::basic_string<char,_STL::char_traits<char>,_STL::allocator<char> >::empty
_TEXT	ENDS
PUBLIC	?c_str@?$basic_string@DV?$char_traits@D@_STL@@V?$allocator@D@2@@_STL@@QBEPBDXZ ; _STL::basic_string<char,_STL::char_traits<char>,_STL::allocator<char> >::c_str
; Function compile flags: /Ogsy
;	COMDAT ?c_str@?$basic_string@DV?$char_traits@D@_STL@@V?$allocator@D@2@@_STL@@QBEPBDXZ
_TEXT	SEGMENT
?c_str@?$basic_string@DV?$char_traits@D@_STL@@V?$allocator@D@2@@_STL@@QBEPBDXZ PROC NEAR ; _STL::basic_string<char,_STL::char_traits<char>,_STL::allocator<char> >::c_str, COMDAT
; _this$ = ecx

; 1065 :   const _CharT* c_str() const { return this->_M_start; }

  00000	8b 01		 mov	 eax, DWORD PTR [ecx]
  00002	c3		 ret	 0
?c_str@?$basic_string@DV?$char_traits@D@_STL@@V?$allocator@D@2@@_STL@@QBEPBDXZ ENDP ; _STL::basic_string<char,_STL::char_traits<char>,_STL::allocator<char> >::c_str
_TEXT	ENDS
PUBLIC	?_M_terminate_string_aux@?$basic_string@DV?$char_traits@D@_STL@@V?$allocator@D@2@@_STL@@AAEXABU__true_type@2@@Z ; _STL::basic_string<char,_STL::char_traits<char>,_STL::allocator<char> >::_M_terminate_string_aux
; Function compile flags: /Ogsy
;	COMDAT ?_M_terminate_string_aux@?$basic_string@DV?$char_traits@D@_STL@@V?$allocator@D@2@@_STL@@AAEXABU__true_type@2@@Z
_TEXT	SEGMENT
___formal$ = 8						; size = 4
?_M_terminate_string_aux@?$basic_string@DV?$char_traits@D@_STL@@V?$allocator@D@2@@_STL@@AAEXABU__true_type@2@@Z PROC NEAR ; _STL::basic_string<char,_STL::char_traits<char>,_STL::allocator<char> >::_M_terminate_string_aux, COMDAT
; _this$ = ecx

; 351  :     *(this->_M_finish)=0;

  00000	8b 41 04	 mov	 eax, DWORD PTR [ecx+4]
  00003	c6 00 00	 mov	 BYTE PTR [eax], 0

; 352  :   }

  00006	c2 04 00	 ret	 4
?_M_terminate_string_aux@?$basic_string@DV?$char_traits@D@_STL@@V?$allocator@D@2@@_STL@@AAEXABU__true_type@2@@Z ENDP ; _STL::basic_string<char,_STL::char_traits<char>,_STL::allocator<char> >::_M_terminate_string_aux
_TEXT	ENDS
PUBLIC	?begin@?$basic_string@DV?$char_traits@D@_STL@@V?$allocator@D@2@@_STL@@QAEPADXZ ; _STL::basic_string<char,_STL::char_traits<char>,_STL::allocator<char> >::begin
; Function compile flags: /Ogsy
;	COMDAT ?begin@?$basic_string@DV?$char_traits@D@_STL@@V?$allocator@D@2@@_STL@@QAEPADXZ
_TEXT	SEGMENT
?begin@?$basic_string@DV?$char_traits@D@_STL@@V?$allocator@D@2@@_STL@@QAEPADXZ PROC NEAR ; _STL::basic_string<char,_STL::char_traits<char>,_STL::allocator<char> >::begin, COMDAT
; _this$ = ecx

; 416  :   iterator begin()             { return this->_M_start; }

  00000	8b 01		 mov	 eax, DWORD PTR [ecx]
  00002	c3		 ret	 0
?begin@?$basic_string@DV?$char_traits@D@_STL@@V?$allocator@D@2@@_STL@@QAEPADXZ ENDP ; _STL::basic_string<char,_STL::char_traits<char>,_STL::allocator<char> >::begin
_TEXT	ENDS
PUBLIC	?size@?$basic_string@DV?$char_traits@D@_STL@@V?$allocator@D@2@@_STL@@QBEIXZ ; _STL::basic_string<char,_STL::char_traits<char>,_STL::allocator<char> >::size
; Function compile flags: /Ogsy
;	COMDAT ?size@?$basic_string@DV?$char_traits@D@_STL@@V?$allocator@D@2@@_STL@@QBEIXZ
_TEXT	SEGMENT
?size@?$basic_string@DV?$char_traits@D@_STL@@V?$allocator@D@2@@_STL@@QBEIXZ PROC NEAR ; _STL::basic_string<char,_STL::char_traits<char>,_STL::allocator<char> >::size, COMDAT
; _this$ = ecx

; 431  :   size_type size() const { return this->_M_finish - this->_M_start; }

  00000	8b 41 04	 mov	 eax, DWORD PTR [ecx+4]
  00003	2b 01		 sub	 eax, DWORD PTR [ecx]
  00005	c3		 ret	 0
?size@?$basic_string@DV?$char_traits@D@_STL@@V?$allocator@D@2@@_STL@@QBEIXZ ENDP ; _STL::basic_string<char,_STL::char_traits<char>,_STL::allocator<char> >::size
_TEXT	ENDS
PUBLIC	??0?$allocator@D@_STL@@QAE@ABV01@@Z		; _STL::allocator<char>::allocator<char>
; Function compile flags: /Ogsy
; File c:\stlport-4.6.1\stlport\stl\_alloc.h
;	COMDAT ??0?$allocator@D@_STL@@QAE@ABV01@@Z
_TEXT	SEGMENT
___formal$ = 8						; size = 4
??0?$allocator@D@_STL@@QAE@ABV01@@Z PROC NEAR		; _STL::allocator<char>::allocator<char>, COMDAT
; _this$ = ecx

; 349  :   allocator(const allocator<_Tp>&) _STLP_NOTHROW {}

  00000	8b c1		 mov	 eax, ecx
  00002	c2 04 00	 ret	 4
??0?$allocator@D@_STL@@QAE@ABV01@@Z ENDP		; _STL::allocator<char>::allocator<char>
_TEXT	ENDS
PUBLIC	?open@?$basic_filebuf@DV?$char_traits@D@_STL@@@_STL@@QAEPAV12@PBDH@Z ; _STL::basic_filebuf<char,_STL::char_traits<char> >::open
EXTRN	?_M_open@_Filebuf_base@_STL@@QAE_NPBDH@Z:NEAR	; _STL::_Filebuf_base::_M_open
; Function compile flags: /Ogsy
; File c:\stlport-4.6.1\stlport\stl\_fstream.h
;	COMDAT ?open@?$basic_filebuf@DV?$char_traits@D@_STL@@@_STL@@QAEPAV12@PBDH@Z
_TEXT	SEGMENT
___s$ = 8						; size = 4
___m$ = 12						; size = 4
?open@?$basic_filebuf@DV?$char_traits@D@_STL@@@_STL@@QAEPAV12@PBDH@Z PROC NEAR ; _STL::basic_filebuf<char,_STL::char_traits<char> >::open, COMDAT
; _this$ = ecx

; 200  :   _Self* open(const char* __s, ios_base::openmode __m) {

  00000	56		 push	 esi

; 201  :     return _M_base._M_open(__s, __m) ? this : 0;

  00001	ff 74 24 0c	 push	 DWORD PTR ___m$[esp]
  00005	8b f1		 mov	 esi, ecx
  00007	ff 74 24 0c	 push	 DWORD PTR ___s$[esp+4]
  0000b	8d 4e 54	 lea	 ecx, DWORD PTR [esi+84]
  0000e	e8 00 00 00 00	 call	 ?_M_open@_Filebuf_base@_STL@@QAE_NPBDH@Z ; _STL::_Filebuf_base::_M_open
  00013	f6 d8		 neg	 al
  00015	1b c0		 sbb	 eax, eax
  00017	23 c6		 and	 eax, esi
  00019	5e		 pop	 esi

; 202  :   }

  0001a	c2 08 00	 ret	 8
?open@?$basic_filebuf@DV?$char_traits@D@_STL@@@_STL@@QAEPAV12@PBDH@Z ENDP ; _STL::basic_filebuf<char,_STL::char_traits<char> >::open
_TEXT	ENDS
PUBLIC	?rdbuf@?$basic_ifstream@DV?$char_traits@D@_STL@@@_STL@@QBEPAV?$basic_filebuf@DV?$char_traits@D@_STL@@@2@XZ ; _STL::basic_ifstream<char,_STL::char_traits<char> >::rdbuf
; Function compile flags: /Ogsy
;	COMDAT ?rdbuf@?$basic_ifstream@DV?$char_traits@D@_STL@@@_STL@@QBEPAV?$basic_filebuf@DV?$char_traits@D@_STL@@@2@XZ
_TEXT	SEGMENT
?rdbuf@?$basic_ifstream@DV?$char_traits@D@_STL@@@_STL@@QBEPAV?$basic_filebuf@DV?$char_traits@D@_STL@@@2@XZ PROC NEAR ; _STL::basic_ifstream<char,_STL::char_traits<char> >::rdbuf, COMDAT
; _this$ = ecx

; 547  :     { return __CONST_CAST(_Buf*,&_M_buf); }

  00000	8d 41 08	 lea	 eax, DWORD PTR [ecx+8]
  00003	c3		 ret	 0
?rdbuf@?$basic_ifstream@DV?$char_traits@D@_STL@@@_STL@@QBEPAV?$basic_filebuf@DV?$char_traits@D@_STL@@@2@XZ ENDP ; _STL::basic_ifstream<char,_STL::char_traits<char> >::rdbuf
_TEXT	ENDS
PUBLIC	?move@?$__char_traits_base@DH@_STL@@SAPADPADPBDI@Z ; _STL::__char_traits_base<char,int>::move
; Function compile flags: /Ogsy
; File c:\stlport-4.6.1\stlport\stl\char_traits.h
;	COMDAT ?move@?$__char_traits_base@DH@_STL@@SAPADPADPBDI@Z
_TEXT	SEGMENT
___s1$ = 8						; size = 4
___s2$ = 12						; size = 4
__Sz$ = 16						; size = 4
?move@?$__char_traits_base@DH@_STL@@SAPADPADPBDI@Z PROC NEAR ; _STL::__char_traits_base<char,int>::move, COMDAT

; 165  :   static _CharT* _STLP_CALL move(_CharT* __s1, const _CharT* __s2, size_t _Sz) {    

  00000	55		 push	 ebp
  00001	8b ec		 mov	 ebp, esp

; 166  :     return (_Sz == 0 ? __s1 : (_CharT*)memmove(__s1, __s2, _Sz * sizeof(_CharT)));

  00003	83 7d 10 00	 cmp	 DWORD PTR __Sz$[ebp], 0
  00007	75 05		 jne	 SHORT $L101686
  00009	8b 45 08	 mov	 eax, DWORD PTR ___s1$[ebp]

; 167  :   }

  0000c	5d		 pop	 ebp
  0000d	c3		 ret	 0
$L101686:
  0000e	5d		 pop	 ebp

; 166  :     return (_Sz == 0 ? __s1 : (_CharT*)memmove(__s1, __s2, _Sz * sizeof(_CharT)));

  0000f	e9 00 00 00 00	 jmp	 _memmove
?move@?$__char_traits_base@DH@_STL@@SAPADPADPBDI@Z ENDP	; _STL::__char_traits_base<char,int>::move
_TEXT	ENDS
PUBLIC	?copy@?$__char_traits_base@DH@_STL@@SAPADPADPBDI@Z ; _STL::__char_traits_base<char,int>::copy
EXTRN	_memcpy:NEAR
; Function compile flags: /Ogsy
;	COMDAT ?copy@?$__char_traits_base@DH@_STL@@SAPADPADPBDI@Z
_TEXT	SEGMENT
___s1$ = 8						; size = 4
___s2$ = 12						; size = 4
___n$ = 16						; size = 4
?copy@?$__char_traits_base@DH@_STL@@SAPADPADPBDI@Z PROC NEAR ; _STL::__char_traits_base<char,int>::copy, COMDAT

; 169  :   static _CharT* _STLP_CALL copy(_CharT* __s1, const _CharT* __s2, size_t __n) {

  00000	55		 push	 ebp
  00001	8b ec		 mov	 ebp, esp

; 170  :     return (__n == 0 ? __s1 :
; 171  : 	    (_CharT*)memcpy(__s1, __s2, __n * sizeof(_CharT)));

  00003	83 7d 10 00	 cmp	 DWORD PTR ___n$[ebp], 0
  00007	75 05		 jne	 SHORT $L101691
  00009	8b 45 08	 mov	 eax, DWORD PTR ___s1$[ebp]

; 172  :     } 

  0000c	5d		 pop	 ebp
  0000d	c3		 ret	 0
$L101691:
  0000e	5d		 pop	 ebp

; 170  :     return (__n == 0 ? __s1 :
; 171  : 	    (_CharT*)memcpy(__s1, __s2, __n * sizeof(_CharT)));

  0000f	e9 00 00 00 00	 jmp	 _memcpy
?copy@?$__char_traits_base@DH@_STL@@SAPADPADPBDI@Z ENDP	; _STL::__char_traits_base<char,int>::copy
_TEXT	ENDS
PUBLIC	?end@?$basic_string@DV?$char_traits@D@_STL@@V?$allocator@D@2@@_STL@@QAEPADXZ ; _STL::basic_string<char,_STL::char_traits<char>,_STL::allocator<char> >::end
; Function compile flags: /Ogsy
; File c:\stlport-4.6.1\stlport\stl\_string.h
;	COMDAT ?end@?$basic_string@DV?$char_traits@D@_STL@@V?$allocator@D@2@@_STL@@QAEPADXZ
_TEXT	SEGMENT
?end@?$basic_string@DV?$char_traits@D@_STL@@V?$allocator@D@2@@_STL@@QAEPADXZ PROC NEAR ; _STL::basic_string<char,_STL::char_traits<char>,_STL::allocator<char> >::end, COMDAT
; _this$ = ecx

; 417  :   iterator end()               { return this->_M_finish; }

  00000	8b 41 04	 mov	 eax, DWORD PTR [ecx+4]
  00003	c3		 ret	 0
?end@?$basic_string@DV?$char_traits@D@_STL@@V?$allocator@D@2@@_STL@@QAEPADXZ ENDP ; _STL::basic_string<char,_STL::char_traits<char>,_STL::allocator<char> >::end
_TEXT	ENDS
PUBLIC	?rdbuf@?$basic_ios@DV?$char_traits@D@_STL@@@_STL@@QBEPAV?$basic_streambuf@DV?$char_traits@D@_STL@@@2@XZ ; _STL::basic_ios<char,_STL::char_traits<char> >::rdbuf
; Function compile flags: /Ogsy
; File c:\stlport-4.6.1\stlport\stl\_ios.h
;	COMDAT ?rdbuf@?$basic_ios@DV?$char_traits@D@_STL@@@_STL@@QBEPAV?$basic_streambuf@DV?$char_traits@D@_STL@@@2@XZ
_TEXT	SEGMENT
?rdbuf@?$basic_ios@DV?$char_traits@D@_STL@@@_STL@@QBEPAV?$basic_streambuf@DV?$char_traits@D@_STL@@@2@XZ PROC NEAR ; _STL::basic_ios<char,_STL::char_traits<char> >::rdbuf, COMDAT
; _this$ = ecx

; 72   :     { return _M_streambuf; }

  00000	8b 41 58	 mov	 eax, DWORD PTR [ecx+88]
  00003	c3		 ret	 0
?rdbuf@?$basic_ios@DV?$char_traits@D@_STL@@@_STL@@QBEPAV?$basic_streambuf@DV?$char_traits@D@_STL@@@2@XZ ENDP ; _STL::basic_ios<char,_STL::char_traits<char> >::rdbuf
_TEXT	ENDS
PUBLIC	??_C@_0N@GOPDCEEB@basic_string?$AA@		; `string'
PUBLIC	?_M_throw_out_of_range@?$_String_base@DV?$allocator@D@_STL@@@_STL@@QBEXXZ ; _STL::_String_base<char,_STL::allocator<char> >::_M_throw_out_of_range
EXTRN	?__stl_throw_out_of_range@_STL@@YAXPBD@Z:NEAR	; _STL::__stl_throw_out_of_range
;	COMDAT ??_C@_0N@GOPDCEEB@basic_string?$AA@
; File c:\stlport-4.6.1\stlport\stl\_string.c
CONST	SEGMENT
??_C@_0N@GOPDCEEB@basic_string?$AA@ DB 'basic_string', 00H ; `string'
; Function compile flags: /Ogsy
CONST	ENDS
;	COMDAT ?_M_throw_out_of_range@?$_String_base@DV?$allocator@D@_STL@@@_STL@@QBEXXZ
_TEXT	SEGMENT
?_M_throw_out_of_range@?$_String_base@DV?$allocator@D@_STL@@@_STL@@QBEXXZ PROC NEAR ; _STL::_String_base<char,_STL::allocator<char> >::_M_throw_out_of_range, COMDAT
; _this$ = ecx

; 527  :     __stl_throw_out_of_range("basic_string");

  00000	68 00 00 00 00	 push	 OFFSET FLAT:??_C@_0N@GOPDCEEB@basic_string?$AA@
  00005	e8 00 00 00 00	 call	 ?__stl_throw_out_of_range@_STL@@YAXPBD@Z ; _STL::__stl_throw_out_of_range
  0000a	59		 pop	 ecx

; 528  : }

  0000b	c3		 ret	 0
?_M_throw_out_of_range@?$_String_base@DV?$allocator@D@_STL@@@_STL@@QBEXXZ ENDP ; _STL::_String_base<char,_STL::allocator<char> >::_M_throw_out_of_range
_TEXT	ENDS
PUBLIC	?_M_exit_input_mode@?$basic_filebuf@DV?$char_traits@D@_STL@@@_STL@@AAEXXZ ; _STL::basic_filebuf<char,_STL::char_traits<char> >::_M_exit_input_mode
EXTRN	?_M_unmap@_Filebuf_base@_STL@@QAEXPAXJ@Z:NEAR	; _STL::_Filebuf_base::_M_unmap
; Function compile flags: /Ogsy
; File c:\stlport-4.6.1\stlport\stl\_fstream.c
;	COMDAT ?_M_exit_input_mode@?$basic_filebuf@DV?$char_traits@D@_STL@@@_STL@@AAEXXZ
_TEXT	SEGMENT
?_M_exit_input_mode@?$basic_filebuf@DV?$char_traits@D@_STL@@@_STL@@AAEXXZ PROC NEAR ; _STL::basic_filebuf<char,_STL::char_traits<char> >::_M_exit_input_mode, COMDAT
; _this$ = ecx

; 119  : {

  00000	56		 push	 esi
  00001	8b f1		 mov	 esi, ecx

; 120  :    if (_M_mmap_base != 0)

  00003	8b 86 8c 00 00
	00		 mov	 eax, DWORD PTR [esi+140]
  00009	85 c0		 test	 eax, eax
  0000b	74 0f		 je	 SHORT $L100571

; 121  :      _M_base._M_unmap(_M_mmap_base, _M_mmap_len); 

  0000d	ff b6 90 00 00
	00		 push	 DWORD PTR [esi+144]
  00013	8d 4e 54	 lea	 ecx, DWORD PTR [esi+84]
  00016	50		 push	 eax
  00017	e8 00 00 00 00	 call	 ?_M_unmap@_Filebuf_base@_STL@@QAEXPAXJ@Z ; _STL::_Filebuf_base::_M_unmap
$L100571:

; 122  :    _M_in_input_mode = false;
; 123  :    _M_mmap_base = 0;

  0001c	83 a6 8c 00 00
	00 00		 and	 DWORD PTR [esi+140], 0
  00023	c6 46 67 00	 mov	 BYTE PTR [esi+103], 0
  00027	5e		 pop	 esi

; 124  : }

  00028	c3		 ret	 0
?_M_exit_input_mode@?$basic_filebuf@DV?$char_traits@D@_STL@@@_STL@@AAEXXZ ENDP ; _STL::basic_filebuf<char,_STL::char_traits<char> >::_M_exit_input_mode
_TEXT	ENDS
PUBLIC	?_M_deallocate_buffers@?$basic_filebuf@DV?$char_traits@D@_STL@@@_STL@@AAEXXZ ; _STL::basic_filebuf<char,_STL::char_traits<char> >::_M_deallocate_buffers
EXTRN	_free:NEAR
; Function compile flags: /Ogsy
;	COMDAT ?_M_deallocate_buffers@?$basic_filebuf@DV?$char_traits@D@_STL@@@_STL@@AAEXXZ
_TEXT	SEGMENT
?_M_deallocate_buffers@?$basic_filebuf@DV?$char_traits@D@_STL@@@_STL@@AAEXXZ PROC NEAR ; _STL::basic_filebuf<char,_STL::char_traits<char> >::_M_deallocate_buffers, COMDAT
; _this$ = ecx

; 684  : {

  00000	53		 push	 ebx
  00001	56		 push	 esi
  00002	8b f1		 mov	 esi, ecx

; 685  :   if (_M_int_buf_dynamic)

  00004	33 db		 xor	 ebx, ebx
  00006	38 5e 66	 cmp	 BYTE PTR [esi+102], bl
  00009	74 09		 je	 SHORT $L100616

; 686  :     free(_M_int_buf);

  0000b	ff 76 6c	 push	 DWORD PTR [esi+108]
  0000e	e8 00 00 00 00	 call	 _free
  00013	59		 pop	 ecx
$L100616:

; 687  :   free(_M_ext_buf);

  00014	ff 76 74	 push	 DWORD PTR [esi+116]
  00017	e8 00 00 00 00	 call	 _free
  0001c	59		 pop	 ecx

; 688  :   _M_int_buf     = 0;

  0001d	89 5e 6c	 mov	 DWORD PTR [esi+108], ebx

; 689  :   _M_int_buf_EOS = 0;

  00020	89 5e 70	 mov	 DWORD PTR [esi+112], ebx

; 690  :   _M_ext_buf     = 0;

  00023	89 5e 74	 mov	 DWORD PTR [esi+116], ebx

; 691  :   _M_ext_buf_EOS = 0;

  00026	89 5e 78	 mov	 DWORD PTR [esi+120], ebx
  00029	5e		 pop	 esi
  0002a	5b		 pop	 ebx

; 692  : }

  0002b	c3		 ret	 0
?_M_deallocate_buffers@?$basic_filebuf@DV?$char_traits@D@_STL@@@_STL@@AAEXXZ ENDP ; _STL::basic_filebuf<char,_STL::char_traits<char> >::_M_deallocate_buffers
_TEXT	ENDS
PUBLIC	?flags@ios_base@_STL@@QAEHH@Z			; _STL::ios_base::flags
; Function compile flags: /Ogsy
; File c:\stlport-4.6.1\stlport\stl\_ios_base.h
;	COMDAT ?flags@ios_base@_STL@@QAEHH@Z
_TEXT	SEGMENT
___flags$ = 8						; size = 4
?flags@ios_base@_STL@@QAEHH@Z PROC NEAR			; _STL::ios_base::flags, COMDAT
; _this$ = ecx

; 117  :     fmtflags __tmp = _M_fmtflags;
; 118  :     _M_fmtflags = __flags;

  00000	8b 54 24 04	 mov	 edx, DWORD PTR ___flags$[esp-4]
  00004	8b 41 04	 mov	 eax, DWORD PTR [ecx+4]
  00007	89 51 04	 mov	 DWORD PTR [ecx+4], edx

; 119  :     return __tmp;
; 120  :   }

  0000a	c2 04 00	 ret	 4
?flags@ios_base@_STL@@QAEHH@Z ENDP			; _STL::ios_base::flags
_TEXT	ENDS
PUBLIC	?precision@ios_base@_STL@@QAEHH@Z		; _STL::ios_base::precision
; Function compile flags: /Ogsy
;	COMDAT ?precision@ios_base@_STL@@QAEHH@Z
_TEXT	SEGMENT
___newprecision$ = 8					; size = 4
?precision@ios_base@_STL@@QAEHH@Z PROC NEAR		; _STL::ios_base::precision, COMDAT
; _this$ = ecx

; 137  :     streamsize __tmp = _M_precision;
; 138  :     _M_precision = __newprecision;

  00000	8b 54 24 04	 mov	 edx, DWORD PTR ___newprecision$[esp-4]
  00004	8b 41 18	 mov	 eax, DWORD PTR [ecx+24]
  00007	89 51 18	 mov	 DWORD PTR [ecx+24], edx

; 139  :     return __tmp;
; 140  :   }

  0000a	c2 04 00	 ret	 4
?precision@ios_base@_STL@@QAEHH@Z ENDP			; _STL::ios_base::precision
_TEXT	ENDS
PUBLIC	?width@ios_base@_STL@@QAEHH@Z			; _STL::ios_base::width
; Function compile flags: /Ogsy
;	COMDAT ?width@ios_base@_STL@@QAEHH@Z
_TEXT	SEGMENT
___newwidth$ = 8					; size = 4
?width@ios_base@_STL@@QAEHH@Z PROC NEAR			; _STL::ios_base::width, COMDAT
; _this$ = ecx

; 144  :     streamsize __tmp = _M_width;
; 145  :     _M_width = __newwidth;

  00000	8b 54 24 04	 mov	 edx, DWORD PTR ___newwidth$[esp-4]
  00004	8b 41 1c	 mov	 eax, DWORD PTR [ecx+28]
  00007	89 51 1c	 mov	 DWORD PTR [ecx+28], edx

; 146  :     return __tmp;
; 147  :   }

  0000a	c2 04 00	 ret	 4
?width@ios_base@_STL@@QAEHH@Z ENDP			; _STL::ios_base::width
_TEXT	ENDS
PUBLIC	?rdstate@ios_base@_STL@@QBEHXZ			; _STL::ios_base::rdstate
; Function compile flags: /Ogsy
;	COMDAT ?rdstate@ios_base@_STL@@QBEHXZ
_TEXT	SEGMENT
?rdstate@ios_base@_STL@@QBEHXZ PROC NEAR		; _STL::ios_base::rdstate, COMDAT
; _this$ = ecx

; 178  :   iostate rdstate() const { return _M_iostate; }

  00000	8b 41 08	 mov	 eax, DWORD PTR [ecx+8]
  00003	c3		 ret	 0
?rdstate@ios_base@_STL@@QBEHXZ ENDP			; _STL::ios_base::rdstate
_TEXT	ENDS
PUBLIC	?good@ios_base@_STL@@QBE_NXZ			; _STL::ios_base::good
; Function compile flags: /Ogsy
;	COMDAT ?good@ios_base@_STL@@QBE_NXZ
_TEXT	SEGMENT
?good@ios_base@_STL@@QBE_NXZ PROC NEAR			; _STL::ios_base::good, COMDAT
; _this$ = ecx

; 180  :   bool good() const { return _M_iostate == 0; }

  00000	33 c0		 xor	 eax, eax
  00002	39 41 08	 cmp	 DWORD PTR [ecx+8], eax
  00005	0f 94 c0	 sete	 al
  00008	c3		 ret	 0
?good@ios_base@_STL@@QBE_NXZ ENDP			; _STL::ios_base::good
_TEXT	ENDS
PUBLIC	?eof@ios_base@_STL@@QBE_NXZ			; _STL::ios_base::eof
; Function compile flags: /Ogsy
;	COMDAT ?eof@ios_base@_STL@@QBE_NXZ
_TEXT	SEGMENT
?eof@ios_base@_STL@@QBE_NXZ PROC NEAR			; _STL::ios_base::eof, COMDAT
; _this$ = ecx

; 181  :   bool eof() const { return (_M_iostate & eofbit) != 0; }

  00000	8b 41 08	 mov	 eax, DWORD PTR [ecx+8]
  00003	d1 e8		 shr	 eax, 1
  00005	83 e0 01	 and	 eax, 1
  00008	c3		 ret	 0
?eof@ios_base@_STL@@QBE_NXZ ENDP			; _STL::ios_base::eof
_TEXT	ENDS
PUBLIC	??_R4?$basic_ios@DV?$char_traits@D@_STL@@@_STL@@6B@ ; _STL::basic_ios<char,_STL::char_traits<char> >::`RTTI Complete Object Locator'
PUBLIC	??_R3?$basic_ios@DV?$char_traits@D@_STL@@@_STL@@8 ; _STL::basic_ios<char,_STL::char_traits<char> >::`RTTI Class Hierarchy Descriptor'
PUBLIC	??_R2?$basic_ios@DV?$char_traits@D@_STL@@@_STL@@8 ; _STL::basic_ios<char,_STL::char_traits<char> >::`RTTI Base Class Array'
PUBLIC	??_R1A@?0A@A@?$basic_ios@DV?$char_traits@D@_STL@@@_STL@@8 ; _STL::basic_ios<char,_STL::char_traits<char> >::`RTTI Base Class Descriptor at (0,-1,0,0)'
PUBLIC	??_R1A@?0A@A@ios_base@_STL@@8			; _STL::ios_base::`RTTI Base Class Descriptor at (0,-1,0,0)'
PUBLIC	??0?$basic_ios@DV?$char_traits@D@_STL@@@_STL@@IAE@XZ ; _STL::basic_ios<char,_STL::char_traits<char> >::basic_ios<char,_STL::char_traits<char> >
PUBLIC	??_7?$basic_ios@DV?$char_traits@D@_STL@@@_STL@@6B@ ; _STL::basic_ios<char,_STL::char_traits<char> >::`vftable'
PUBLIC	??_G?$basic_ios@DV?$char_traits@D@_STL@@@_STL@@UAEPAXI@Z ; _STL::basic_ios<char,_STL::char_traits<char> >::`scalar deleting destructor'
PUBLIC	??_R0?AV?$basic_ios@DV?$char_traits@D@_STL@@@_STL@@@8 ; _STL::basic_ios<char,_STL::char_traits<char> > `RTTI Type Descriptor'
PUBLIC	??_R0?AVios_base@_STL@@@8			; _STL::ios_base `RTTI Type Descriptor'
EXTRN	??_7type_info@@6B@:QWORD			; type_info::`vftable'
EXTRN	??_E?$basic_ios@DV?$char_traits@D@_STL@@@_STL@@UAEPAXI@Z:NEAR ; _STL::basic_ios<char,_STL::char_traits<char> >::`vector deleting destructor'
EXTRN	??0ios_base@_STL@@IAE@XZ:NEAR			; _STL::ios_base::ios_base
;	COMDAT ??_7?$basic_ios@DV?$char_traits@D@_STL@@@_STL@@6B@
; File c:\stlport-4.6.1\stlport\stl\_ios.c
CONST	SEGMENT
??_7?$basic_ios@DV?$char_traits@D@_STL@@@_STL@@6B@ DD FLAT:??_R4?$basic_ios@DV?$char_traits@D@_STL@@@_STL@@6B@ ; _STL::basic_ios<char,_STL::char_traits<char> >::`vftable'
	DD	FLAT:??_E?$basic_ios@DV?$char_traits@D@_STL@@@_STL@@UAEPAXI@Z
CONST	ENDS
;	COMDAT ??_R4?$basic_ios@DV?$char_traits@D@_STL@@@_STL@@6B@
rdata$r	SEGMENT
??_R4?$basic_ios@DV?$char_traits@D@_STL@@@_STL@@6B@ DD 00H ; _STL::basic_ios<char,_STL::char_traits<char> >::`RTTI Complete Object Locator'
	DD	00H
	DD	00H
	DD	FLAT:??_R0?AV?$basic_ios@DV?$char_traits@D@_STL@@@_STL@@@8
	DD	FLAT:??_R3?$basic_ios@DV?$char_traits@D@_STL@@@_STL@@8
rdata$r	ENDS
;	COMDAT ??_R0?AV?$basic_ios@DV?$char_traits@D@_STL@@@_STL@@@8
_DATA	SEGMENT
??_R0?AV?$basic_ios@DV?$char_traits@D@_STL@@@_STL@@@8 DD FLAT:??_7type_info@@6B@ ; _STL::basic_ios<char,_STL::char_traits<char> > `RTTI Type Descriptor'
	DD	00H
	DB	'.?AV?$basic_ios@DV?$char_traits@D@_STL@@@_STL@@', 00H
_DATA	ENDS
;	COMDAT ??_R3?$basic_ios@DV?$char_traits@D@_STL@@@_STL@@8
rdata$r	SEGMENT
??_R3?$basic_ios@DV?$char_traits@D@_STL@@@_STL@@8 DD 00H ; _STL::basic_ios<char,_STL::char_traits<char> >::`RTTI Class Hierarchy Descriptor'
	DD	00H
	DD	02H
	DD	FLAT:??_R2?$basic_ios@DV?$char_traits@D@_STL@@@_STL@@8
rdata$r	ENDS
;	COMDAT ??_R2?$basic_ios@DV?$char_traits@D@_STL@@@_STL@@8
rdata$r	SEGMENT
??_R2?$basic_ios@DV?$char_traits@D@_STL@@@_STL@@8 DD FLAT:??_R1A@?0A@A@?$basic_ios@DV?$char_traits@D@_STL@@@_STL@@8 ; _STL::basic_ios<char,_STL::char_traits<char> >::`RTTI Base Class Array'
	DD	FLAT:??_R1A@?0A@A@ios_base@_STL@@8
rdata$r	ENDS
;	COMDAT ??_R1A@?0A@A@?$basic_ios@DV?$char_traits@D@_STL@@@_STL@@8
rdata$r	SEGMENT
??_R1A@?0A@A@?$basic_ios@DV?$char_traits@D@_STL@@@_STL@@8 DD FLAT:??_R0?AV?$basic_ios@DV?$char_traits@D@_STL@@@_STL@@@8 ; _STL::basic_ios<char,_STL::char_traits<char> >::`RTTI Base Class Descriptor at (0,-1,0,0)'
	DD	01H
	DD	00H
	DD	0ffffffffH
	DD	00H
	DD	00H
rdata$r	ENDS
;	COMDAT ??_R1A@?0A@A@ios_base@_STL@@8
rdata$r	SEGMENT
??_R1A@?0A@A@ios_base@_STL@@8 DD FLAT:??_R0?AVios_base@_STL@@@8 ; _STL::ios_base::`RTTI Base Class Descriptor at (0,-1,0,0)'
	DD	00H
	DD	00H
	DD	0ffffffffH
	DD	00H
	DD	00H
rdata$r	ENDS
;	COMDAT ??_R0?AVios_base@_STL@@@8
_DATA	SEGMENT
??_R0?AVios_base@_STL@@@8 DD FLAT:??_7type_info@@6B@	; _STL::ios_base `RTTI Type Descriptor'
	DD	00H
	DB	'.?AVios_base@_STL@@', 00H
; Function compile flags: /Ogsy
_DATA	ENDS
;	COMDAT ??0?$basic_ios@DV?$char_traits@D@_STL@@@_STL@@IAE@XZ
_TEXT	SEGMENT
??0?$basic_ios@DV?$char_traits@D@_STL@@@_STL@@IAE@XZ PROC NEAR ; _STL::basic_ios<char,_STL::char_traits<char> >::basic_ios<char,_STL::char_traits<char> >, COMDAT
; _this$ = ecx

; 95   : {}

  00000	56		 push	 esi
  00001	8b f1		 mov	 esi, ecx
  00003	e8 00 00 00 00	 call	 ??0ios_base@_STL@@IAE@XZ ; _STL::ios_base::ios_base
  00008	33 c0		 xor	 eax, eax
  0000a	88 46 54	 mov	 BYTE PTR [esi+84], al
  0000d	89 46 58	 mov	 DWORD PTR [esi+88], eax
  00010	89 46 5c	 mov	 DWORD PTR [esi+92], eax
  00013	c7 06 00 00 00
	00		 mov	 DWORD PTR [esi], OFFSET FLAT:??_7?$basic_ios@DV?$char_traits@D@_STL@@@_STL@@6B@
  00019	8b c6		 mov	 eax, esi
  0001b	5e		 pop	 esi
  0001c	c3		 ret	 0
??0?$basic_ios@DV?$char_traits@D@_STL@@@_STL@@IAE@XZ ENDP ; _STL::basic_ios<char,_STL::char_traits<char> >::basic_ios<char,_STL::char_traits<char> >
_TEXT	ENDS
PUBLIC	?_M_setstate_nothrow@ios_base@_STL@@IAEXH@Z	; _STL::ios_base::_M_setstate_nothrow
; Function compile flags: /Ogsy
; File c:\stlport-4.6.1\stlport\stl\_ios_base.h
;	COMDAT ?_M_setstate_nothrow@ios_base@_STL@@IAEXH@Z
_TEXT	SEGMENT
___state$ = 8						; size = 4
?_M_setstate_nothrow@ios_base@_STL@@IAEXH@Z PROC NEAR	; _STL::ios_base::_M_setstate_nothrow, COMDAT
; _this$ = ecx

; 193  :   void _M_setstate_nothrow(iostate __state) { _M_iostate |= __state; }

  00000	8b 44 24 04	 mov	 eax, DWORD PTR ___state$[esp-4]
  00004	09 41 08	 or	 DWORD PTR [ecx+8], eax
  00007	c2 04 00	 ret	 4
?_M_setstate_nothrow@ios_base@_STL@@IAEXH@Z ENDP	; _STL::ios_base::_M_setstate_nothrow
_TEXT	ENDS
PUBLIC	?_M_clear_nothrow@ios_base@_STL@@IAEXH@Z	; _STL::ios_base::_M_clear_nothrow
; Function compile flags: /Ogsy
;	COMDAT ?_M_clear_nothrow@ios_base@_STL@@IAEXH@Z
_TEXT	SEGMENT
___state$ = 8						; size = 4
?_M_clear_nothrow@ios_base@_STL@@IAEXH@Z PROC NEAR	; _STL::ios_base::_M_clear_nothrow, COMDAT
; _this$ = ecx

; 194  :   void _M_clear_nothrow(iostate __state) { _M_iostate = __state; }

  00000	8b 44 24 04	 mov	 eax, DWORD PTR ___state$[esp-4]
  00004	89 41 08	 mov	 DWORD PTR [ecx+8], eax
  00007	c2 04 00	 ret	 4
?_M_clear_nothrow@ios_base@_STL@@IAEXH@Z ENDP		; _STL::ios_base::_M_clear_nothrow
_TEXT	ENDS
PUBLIC	?_M_get_exception_mask@ios_base@_STL@@IBEHXZ	; _STL::ios_base::_M_get_exception_mask
; Function compile flags: /Ogsy
;	COMDAT ?_M_get_exception_mask@ios_base@_STL@@IBEHXZ
_TEXT	SEGMENT
?_M_get_exception_mask@ios_base@_STL@@IBEHXZ PROC NEAR	; _STL::ios_base::_M_get_exception_mask, COMDAT
; _this$ = ecx

; 195  :   iostate _M_get_exception_mask() const { return _M_exception_mask; }

  00000	8b 41 14	 mov	 eax, DWORD PTR [ecx+20]
  00003	c3		 ret	 0
?_M_get_exception_mask@ios_base@_STL@@IBEHXZ ENDP	; _STL::ios_base::_M_get_exception_mask
_TEXT	ENDS
PUBLIC	?_M_set_exception_mask@ios_base@_STL@@IAEXH@Z	; _STL::ios_base::_M_set_exception_mask
; Function compile flags: /Ogsy
;	COMDAT ?_M_set_exception_mask@ios_base@_STL@@IAEXH@Z
_TEXT	SEGMENT
___mask$ = 8						; size = 4
?_M_set_exception_mask@ios_base@_STL@@IAEXH@Z PROC NEAR	; _STL::ios_base::_M_set_exception_mask, COMDAT
; _this$ = ecx

; 196  :   void _M_set_exception_mask(iostate __mask) { _M_exception_mask = __mask; }

  00000	8b 44 24 04	 mov	 eax, DWORD PTR ___mask$[esp-4]
  00004	89 41 14	 mov	 DWORD PTR [ecx+20], eax
  00007	c2 04 00	 ret	 4
?_M_set_exception_mask@ios_base@_STL@@IAEXH@Z ENDP	; _STL::ios_base::_M_set_exception_mask
_TEXT	ENDS
PUBLIC	?_M_check_exception_mask@ios_base@_STL@@IAEXXZ	; _STL::ios_base::_M_check_exception_mask
EXTRN	?_M_throw_failure@ios_base@_STL@@IAEXXZ:NEAR	; _STL::ios_base::_M_throw_failure
; Function compile flags: /Ogsy
;	COMDAT ?_M_check_exception_mask@ios_base@_STL@@IAEXXZ
_TEXT	SEGMENT
?_M_check_exception_mask@ios_base@_STL@@IAEXXZ PROC NEAR ; _STL::ios_base::_M_check_exception_mask, COMDAT
; _this$ = ecx

; 198  :     if (_M_iostate & _M_exception_mask)

  00000	8b 41 14	 mov	 eax, DWORD PTR [ecx+20]
  00003	85 41 08	 test	 eax, DWORD PTR [ecx+8]
  00006	74 05		 je	 SHORT $L79498

; 199  :       _M_throw_failure(); 

  00008	e9 00 00 00 00	 jmp	 ?_M_throw_failure@ios_base@_STL@@IAEXXZ ; _STL::ios_base::_M_throw_failure
$L79498:

; 200  :   }

  0000d	c3		 ret	 0
?_M_check_exception_mask@ios_base@_STL@@IAEXXZ ENDP	; _STL::ios_base::_M_check_exception_mask
_TEXT	ENDS
PUBLIC	?_M_ctype_facet@ios_base@_STL@@QBEPBVfacet@locale@2@XZ ; _STL::ios_base::_M_ctype_facet
; Function compile flags: /Ogsy
;	COMDAT ?_M_ctype_facet@ios_base@_STL@@QBEPBVfacet@locale@2@XZ
_TEXT	SEGMENT
?_M_ctype_facet@ios_base@_STL@@QBEPBVfacet@locale@2@XZ PROC NEAR ; _STL::ios_base::_M_ctype_facet, COMDAT
; _this$ = ecx

; 250  :   const locale::facet* _M_ctype_facet() const { return _M_cached_ctype; }

  00000	8b 41 40	 mov	 eax, DWORD PTR [ecx+64]
  00003	c3		 ret	 0
?_M_ctype_facet@ios_base@_STL@@QBEPBVfacet@locale@2@XZ ENDP ; _STL::ios_base::_M_ctype_facet
_TEXT	ENDS
PUBLIC	?tie@?$basic_ios@DV?$char_traits@D@_STL@@@_STL@@QAEPAV?$basic_ostream@DV?$char_traits@D@_STL@@@2@PAV32@@Z ; _STL::basic_ios<char,_STL::char_traits<char> >::tie
; Function compile flags: /Ogsy
; File c:\stlport-4.6.1\stlport\stl\_ios.h
;	COMDAT ?tie@?$basic_ios@DV?$char_traits@D@_STL@@@_STL@@QAEPAV?$basic_ostream@DV?$char_traits@D@_STL@@@2@PAV32@@Z
_TEXT	SEGMENT
___new_tied_ostream$ = 8				; size = 4
?tie@?$basic_ios@DV?$char_traits@D@_STL@@@_STL@@QAEPAV?$basic_ostream@DV?$char_traits@D@_STL@@@2@PAV32@@Z PROC NEAR ; _STL::basic_ios<char,_STL::char_traits<char> >::tie, COMDAT
; _this$ = ecx

; 66   :     basic_ostream<char_type, traits_type>* __tmp = _M_tied_ostream;
; 67   :     _M_tied_ostream = __new_tied_ostream;

  00000	8b 54 24 04	 mov	 edx, DWORD PTR ___new_tied_ostream$[esp-4]
  00004	8b 41 5c	 mov	 eax, DWORD PTR [ecx+92]
  00007	89 51 5c	 mov	 DWORD PTR [ecx+92], edx

; 68   :     return __tmp;
; 69   :   }

  0000a	c2 04 00	 ret	 4
?tie@?$basic_ios@DV?$char_traits@D@_STL@@@_STL@@QAEPAV?$basic_ostream@DV?$char_traits@D@_STL@@@2@PAV32@@Z ENDP ; _STL::basic_ios<char,_STL::char_traits<char> >::tie
_TEXT	ENDS
PUBLIC	?fill@?$basic_ios@DV?$char_traits@D@_STL@@@_STL@@QAEDD@Z ; _STL::basic_ios<char,_STL::char_traits<char> >::fill
; Function compile flags: /Ogsy
;	COMDAT ?fill@?$basic_ios@DV?$char_traits@D@_STL@@@_STL@@QAEDD@Z
_TEXT	SEGMENT
___fill$ = 8						; size = 1
?fill@?$basic_ios@DV?$char_traits@D@_STL@@@_STL@@QAEDD@Z PROC NEAR ; _STL::basic_ios<char,_STL::char_traits<char> >::fill, COMDAT
; _this$ = ecx

; 82   :     char_type __tmp(_M_fill);
; 83   :     _M_fill = __fill;

  00000	8a 54 24 04	 mov	 dl, BYTE PTR ___fill$[esp-4]
  00004	8a 41 54	 mov	 al, BYTE PTR [ecx+84]
  00007	88 51 54	 mov	 BYTE PTR [ecx+84], dl

; 84   :     return __tmp;
; 85   :   }

  0000a	c2 04 00	 ret	 4
?fill@?$basic_ios@DV?$char_traits@D@_STL@@@_STL@@QAEDD@Z ENDP ; _STL::basic_ios<char,_STL::char_traits<char> >::fill
_TEXT	ENDS
PUBLIC	??R?$_Eq_traits@V?$char_traits@D@_STL@@@_STL@@QBE_NABD0@Z ; _STL::_Eq_traits<_STL::char_traits<char> >::operator()
; Function compile flags: /Ogsy
; File c:\stlport-4.6.1\stlport\stl\_ctraits_fns.h
;	COMDAT ??R?$_Eq_traits@V?$char_traits@D@_STL@@@_STL@@QBE_NABD0@Z
_TEXT	SEGMENT
___x$ = 8						; size = 4
___y$ = 12						; size = 4
??R?$_Eq_traits@V?$char_traits@D@_STL@@@_STL@@QBE_NABD0@Z PROC NEAR ; _STL::_Eq_traits<_STL::char_traits<char> >::operator(), COMDAT
; _this$ = ecx

; 38   :     { return _Traits::eq(__x, __y); }

  00000	8b 44 24 04	 mov	 eax, DWORD PTR ___x$[esp-4]
  00004	8a 00		 mov	 al, BYTE PTR [eax]
  00006	8b 4c 24 08	 mov	 ecx, DWORD PTR ___y$[esp-4]
  0000a	2a 01		 sub	 al, BYTE PTR [ecx]
  0000c	f6 d8		 neg	 al
  0000e	1b c0		 sbb	 eax, eax
  00010	40		 inc	 eax
  00011	c2 08 00	 ret	 8
??R?$_Eq_traits@V?$char_traits@D@_STL@@@_STL@@QBE_NABD0@Z ENDP ; _STL::_Eq_traits<_STL::char_traits<char> >::operator()
_TEXT	ENDS
PUBLIC	??1sentry@?$basic_istream@DV?$char_traits@D@_STL@@@_STL@@QAE@XZ ; _STL::basic_istream<char,_STL::char_traits<char> >::sentry::~sentry
; Function compile flags: /Ogsy
; File c:\stlport-4.6.1\stlport\stl\_istream.h
;	COMDAT ??1sentry@?$basic_istream@DV?$char_traits@D@_STL@@@_STL@@QAE@XZ
_TEXT	SEGMENT
??1sentry@?$basic_istream@DV?$char_traits@D@_STL@@@_STL@@QAE@XZ PROC NEAR ; _STL::basic_istream<char,_STL::char_traits<char> >::sentry::~sentry, COMDAT
; _this$ = ecx

; 231  :     ~sentry() {}

  00000	c3		 ret	 0
??1sentry@?$basic_istream@DV?$char_traits@D@_STL@@@_STL@@QAE@XZ ENDP ; _STL::basic_istream<char,_STL::char_traits<char> >::sentry::~sentry
_TEXT	ENDS
PUBLIC	??Bsentry@?$basic_istream@DV?$char_traits@D@_STL@@@_STL@@QBE_NXZ ; _STL::basic_istream<char,_STL::char_traits<char> >::sentry::operator bool
; Function compile flags: /Ogsy
;	COMDAT ??Bsentry@?$basic_istream@DV?$char_traits@D@_STL@@@_STL@@QBE_NXZ
_TEXT	SEGMENT
??Bsentry@?$basic_istream@DV?$char_traits@D@_STL@@@_STL@@QBE_NXZ PROC NEAR ; _STL::basic_istream<char,_STL::char_traits<char> >::sentry::operator bool, COMDAT
; _this$ = ecx

; 233  :     operator bool() const { return _M_ok; }

  00000	8a 01		 mov	 al, BYTE PTR [ecx]
  00002	c3		 ret	 0
??Bsentry@?$basic_istream@DV?$char_traits@D@_STL@@@_STL@@QBE_NXZ ENDP ; _STL::basic_istream<char,_STL::char_traits<char> >::sentry::operator bool
_TEXT	ENDS
PUBLIC	??0?$_Eq_char_bound@V?$char_traits@D@_STL@@@_STL@@QAE@D@Z ; _STL::_Eq_char_bound<_STL::char_traits<char> >::_Eq_char_bound<_STL::char_traits<char> >
; Function compile flags: /Ogsy
; File c:\stlport-4.6.1\stlport\stl\_ctraits_fns.h
;	COMDAT ??0?$_Eq_char_bound@V?$char_traits@D@_STL@@@_STL@@QAE@D@Z
_TEXT	SEGMENT
___c$ = 8						; size = 1
??0?$_Eq_char_bound@V?$char_traits@D@_STL@@@_STL@@QAE@D@Z PROC NEAR ; _STL::_Eq_char_bound<_STL::char_traits<char> >::_Eq_char_bound<_STL::char_traits<char> >, COMDAT
; _this$ = ecx

; 46   :   _Eq_char_bound(typename _Traits::char_type __c) : __val(__c) {}

  00000	8b c1		 mov	 eax, ecx
  00002	8a 4c 24 04	 mov	 cl, BYTE PTR ___c$[esp-4]
  00006	88 08		 mov	 BYTE PTR [eax], cl
  00008	c2 04 00	 ret	 4
??0?$_Eq_char_bound@V?$char_traits@D@_STL@@@_STL@@QAE@D@Z ENDP ; _STL::_Eq_char_bound<_STL::char_traits<char> >::_Eq_char_bound<_STL::char_traits<char> >
_TEXT	ENDS
PUBLIC	??0?$_Scan_for_char_val@V?$char_traits@D@_STL@@@_STL@@QAE@D@Z ; _STL::_Scan_for_char_val<_STL::char_traits<char> >::_Scan_for_char_val<_STL::char_traits<char> >
; Function compile flags: /Ogsy
; File c:\stlport-4.6.1\stlport\stl\_istream.c
;	COMDAT ??0?$_Scan_for_char_val@V?$char_traits@D@_STL@@@_STL@@QAE@D@Z
_TEXT	SEGMENT
___val$ = 8						; size = 1
??0?$_Scan_for_char_val@V?$char_traits@D@_STL@@@_STL@@QAE@D@Z PROC NEAR ; _STL::_Scan_for_char_val<_STL::char_traits<char> >::_Scan_for_char_val<_STL::char_traits<char> >, COMDAT
; _this$ = ecx

; 137  :   _Scan_for_char_val(char_type __val) : _M_val(__val) {}

  00000	8b c1		 mov	 eax, ecx
  00002	8a 4c 24 04	 mov	 cl, BYTE PTR ___val$[esp-4]
  00006	88 08		 mov	 BYTE PTR [eax], cl
  00008	c2 04 00	 ret	 4
??0?$_Scan_for_char_val@V?$char_traits@D@_STL@@@_STL@@QAE@D@Z ENDP ; _STL::_Scan_for_char_val<_STL::char_traits<char> >::_Scan_for_char_val<_STL::char_traits<char> >
_TEXT	ENDS
PUBLIC	??$search@PBDPBDU?$_Eq_traits@V?$char_traits@D@_STL@@@_STL@@@_STL@@YAPBDPBD000U?$_Eq_traits@V?$char_traits@D@_STL@@@0@@Z ; _STL::search<char const *,char const *,_STL::_Eq_traits<_STL::char_traits<char> > >
; Function compile flags: /Ogsy
; File c:\stlport-4.6.1\stlport\stl\_algobase.c
;	COMDAT ??$search@PBDPBDU?$_Eq_traits@V?$char_traits@D@_STL@@@_STL@@@_STL@@YAPBDPBD000U?$_Eq_traits@V?$char_traits@D@_STL@@@0@@Z
_TEXT	SEGMENT
tv194 = 8						; size = 4
___first1$ = 8						; size = 4
___last1$ = 12						; size = 4
___first2$ = 16						; size = 4
___last2$ = 20						; size = 4
___predicate$ = 24					; size = 1
??$search@PBDPBDU?$_Eq_traits@V?$char_traits@D@_STL@@@_STL@@@_STL@@YAPBDPBD000U?$_Eq_traits@V?$char_traits@D@_STL@@@0@@Z PROC NEAR ; _STL::search<char const *,char const *,_STL::_Eq_traits<_STL::char_traits<char> > >, COMDAT

; 210  : {

  00000	55		 push	 ebp
  00001	8b ec		 mov	 ebp, esp

; 211  :   _STLP_DEBUG_CHECK(__check_range(__first1, __last1))
; 212  :     _STLP_DEBUG_CHECK(__check_range(__first2, __last2))
; 213  :     // Test for empty ranges
; 214  :     if (__first1 == __last1 || __first2 == __last2)

  00003	8b 45 08	 mov	 eax, DWORD PTR ___first1$[ebp]
  00006	8b 55 0c	 mov	 edx, DWORD PTR ___last1$[ebp]
  00009	3b c2		 cmp	 eax, edx
  0000b	53		 push	 ebx
  0000c	56		 push	 esi
  0000d	57		 push	 edi
  0000e	74 73		 je	 SHORT $L100838
  00010	8b 4d 10	 mov	 ecx, DWORD PTR ___first2$[ebp]
  00013	3b 4d 14	 cmp	 ecx, DWORD PTR ___last2$[ebp]
  00016	74 6b		 je	 SHORT $L100838

; 215  :       return __first1;
; 216  : 
; 217  :   // Test for a pattern of length 1.
; 218  :   _ForwardIter2 __tmp(__first2);
; 219  :   ++__tmp;

  00018	8d 79 01	 lea	 edi, DWORD PTR [ecx+1]

; 220  :   if (__tmp == __last2) {

  0001b	3b 7d 14	 cmp	 edi, DWORD PTR ___last2$[ebp]
  0001e	89 7d 08	 mov	 DWORD PTR tv194[ebp], edi
  00021	75 10		 jne	 SHORT $L100849
  00023	8a 09		 mov	 cl, BYTE PTR [ecx]
$L100844:

; 221  :     while (__first1 != __last1 && !__predicate(*__first1, *__first2))

  00025	38 08		 cmp	 BYTE PTR [eax], cl
  00027	74 5a		 je	 SHORT $L100838

; 222  :       ++__first1;

  00029	40		 inc	 eax
  0002a	3b c2		 cmp	 eax, edx
  0002c	75 f7		 jne	 SHORT $L100844

; 223  :     return __first1;    

  0002e	eb 53		 jmp	 SHORT $L100838
$L101821:

; 221  :     while (__first1 != __last1 && !__predicate(*__first1, *__first2))

  00030	8b 4d 10	 mov	 ecx, DWORD PTR ___first2$[ebp]
$L100849:

; 224  :   }
; 225  :   
; 226  :   // General case.
; 227  : 
; 228  :   _ForwardIter2 __p1, __p;
; 229  : 
; 230  :   __p1 = __first2; ++__p1;
; 231  : 
; 232  :   //  _ForwardIter1 __current = __first1;
; 233  : 
; 234  :   while (__first1 != __last1) {
; 235  :     while (__first1 != __last1) {

  00033	3b c2		 cmp	 eax, edx
  00035	74 4a		 je	 SHORT $L101814
  00037	8a 09		 mov	 cl, BYTE PTR [ecx]
$L100852:

; 236  :       if (__predicate(*__first1, *__first2))

  00039	38 08		 cmp	 BYTE PTR [eax], cl
  0003b	74 05		 je	 SHORT $L101812

; 237  :         break;
; 238  :       ++__first1;

  0003d	40		 inc	 eax
  0003e	3b c2		 cmp	 eax, edx
  00040	75 f7		 jne	 SHORT $L100852
$L101812:

; 239  :     }
; 240  :     while (__first1 != __last1 && !__predicate(*__first1, *__first2))

  00042	3b c2		 cmp	 eax, edx
  00044	74 3b		 je	 SHORT $L101814
$L100856:
  00046	38 08		 cmp	 BYTE PTR [eax], cl
  00048	74 05		 je	 SHORT $L100857

; 241  :       ++__first1;

  0004a	40		 inc	 eax
  0004b	3b c2		 cmp	 eax, edx
  0004d	75 f7		 jne	 SHORT $L100856
$L100857:

; 242  :     if (__first1 == __last1)

  0004f	3b c2		 cmp	 eax, edx
  00051	74 2e		 je	 SHORT $L101814

; 243  :       return __last1;
; 244  : 
; 245  :     __p = __p1;
; 246  :     _ForwardIter1 __current = __first1; 
; 247  :     if (++__current == __last1) return __last1;

  00053	8d 70 01	 lea	 esi, DWORD PTR [eax+1]
  00056	8b ce		 mov	 ecx, esi
  00058	3b ca		 cmp	 ecx, edx
  0005a	74 25		 je	 SHORT $L101814

; 248  : 
; 249  :     while (__predicate(*__current, *__p)) {

  0005c	8a 11		 mov	 dl, BYTE PTR [ecx]
  0005e	3a 17		 cmp	 dl, BYTE PTR [edi]
  00060	8b 55 0c	 mov	 edx, DWORD PTR ___last1$[ebp]
  00063	75 14		 jne	 SHORT $L100863
$L100862:

; 250  :       if (++__p == __last2)

  00065	47		 inc	 edi
  00066	3b 7d 14	 cmp	 edi, DWORD PTR ___last2$[ebp]
  00069	74 18		 je	 SHORT $L100838

; 251  :         return __first1;
; 252  :       if (++__current == __last1)

  0006b	41		 inc	 ecx
  0006c	3b ca		 cmp	 ecx, edx
  0006e	74 11		 je	 SHORT $L101814
  00070	8a 19		 mov	 bl, BYTE PTR [ecx]
  00072	3a 1f		 cmp	 bl, BYTE PTR [edi]
  00074	74 ef		 je	 SHORT $L100862

; 248  : 
; 249  :     while (__predicate(*__current, *__p)) {

  00076	8b 7d 08	 mov	 edi, DWORD PTR tv194[ebp]
$L100863:

; 254  :     }
; 255  : 
; 256  :     ++__first1;

  00079	8b c6		 mov	 eax, esi
  0007b	3b c2		 cmp	 eax, edx
  0007d	75 b1		 jne	 SHORT $L101821

; 243  :       return __last1;
; 244  : 
; 245  :     __p = __p1;
; 246  :     _ForwardIter1 __current = __first1; 
; 247  :     if (++__current == __last1) return __last1;

  0007f	eb 02		 jmp	 SHORT $L100838
$L101814:

; 253  :         return __last1;

  00081	8b c2		 mov	 eax, edx
$L100838:
  00083	5f		 pop	 edi
  00084	5e		 pop	 esi
  00085	5b		 pop	 ebx

; 257  :   }
; 258  :   return __first1;
; 259  : }

  00086	5d		 pop	 ebp
  00087	c3		 ret	 0
??$search@PBDPBDU?$_Eq_traits@V?$char_traits@D@_STL@@@_STL@@@_STL@@YAPBDPBD000U?$_Eq_traits@V?$char_traits@D@_STL@@@0@@Z ENDP ; _STL::search<char const *,char const *,_STL::_Eq_traits<_STL::char_traits<char> > >
_TEXT	ENDS
PUBLIC	??$max@H@_STL@@YAABHABH0@Z			; _STL::max<int>
; Function compile flags: /Ogsy
; File c:\stlport-4.6.1\stlport\stl\_algobase.h
;	COMDAT ??$max@H@_STL@@YAABHABH0@Z
_TEXT	SEGMENT
___a$ = 8						; size = 4
___b$ = 12						; size = 4
??$max@H@_STL@@YAABHABH0@Z PROC NEAR			; _STL::max<int>, COMDAT

; 79   : inline const _Tp& (max)(const _Tp& __a, const _Tp& __b) {  return  __a < __b ? __b : __a; }

  00000	8b 44 24 04	 mov	 eax, DWORD PTR ___a$[esp-4]
  00004	8b 10		 mov	 edx, DWORD PTR [eax]
  00006	8b 4c 24 08	 mov	 ecx, DWORD PTR ___b$[esp-4]
  0000a	3b 11		 cmp	 edx, DWORD PTR [ecx]
  0000c	7d 02		 jge	 SHORT $L101828
  0000e	8b c1		 mov	 eax, ecx
$L101828:
  00010	c3		 ret	 0
??$max@H@_STL@@YAABHABH0@Z ENDP				; _STL::max<int>
_TEXT	ENDS
PUBLIC	??$use_facet@V?$codecvt@DDH@_STL@@@_STL@@YAABV?$codecvt@DDH@0@ABVlocale@0@@Z ; _STL::use_facet<_STL::codecvt<char,char,int> >
EXTRN	?_M_use_facet@locale@_STL@@QBEPAVfacet@12@ABVid@12@@Z:NEAR ; _STL::locale::_M_use_facet
EXTRN	?id@?$codecvt@DDH@_STL@@2V0locale@2@A:DWORD	; _STL::codecvt<char,char,int>::id
; Function compile flags: /Ogsy
; File c:\stlport-4.6.1\stlport\stl\_locale.h
;	COMDAT ??$use_facet@V?$codecvt@DDH@_STL@@@_STL@@YAABV?$codecvt@DDH@0@ABVlocale@0@@Z
_TEXT	SEGMENT
___loc$ = 8						; size = 4
??$use_facet@V?$codecvt@DDH@_STL@@@_STL@@YAABV?$codecvt@DDH@0@ABVlocale@0@@Z PROC NEAR ; _STL::use_facet<_STL::codecvt<char,char,int> >, COMDAT

; 204  :   return *__STATIC_CAST(const _Facet*,__loc._M_use_facet(_Facet::id));

  00000	8b 4c 24 04	 mov	 ecx, DWORD PTR ___loc$[esp-4]
  00004	68 00 00 00 00	 push	 OFFSET FLAT:?id@?$codecvt@DDH@_STL@@2V0locale@2@A ; _STL::codecvt<char,char,int>::id
  00009	e8 00 00 00 00	 call	 ?_M_use_facet@locale@_STL@@QBEPAVfacet@12@ABVid@12@@Z ; _STL::locale::_M_use_facet

; 205  : }

  0000e	c3		 ret	 0
??$use_facet@V?$codecvt@DDH@_STL@@@_STL@@YAABV?$codecvt@DDH@0@ABVlocale@0@@Z ENDP ; _STL::use_facet<_STL::codecvt<char,char,int> >
_TEXT	ENDS
PUBLIC	?_FILE_I_next@_STL@@YAPADPBU_iobuf@@@Z		; _STL::_FILE_I_next
; Function compile flags: /Ogsy
; File c:\stlport-4.6.1\stlport\stl\_stdio_file.h
;	COMDAT ?_FILE_I_next@_STL@@YAPADPBU_iobuf@@@Z
_TEXT	SEGMENT
___f$ = 8						; size = 4
?_FILE_I_next@_STL@@YAPADPBU_iobuf@@@Z PROC NEAR	; _STL::_FILE_I_next, COMDAT

; 99   : inline char* _FILE_I_next(const FILE *__f) { return (char*) __f->_ptr; }  

  00000	8b 44 24 04	 mov	 eax, DWORD PTR ___f$[esp-4]
  00004	8b 00		 mov	 eax, DWORD PTR [eax]
  00006	c3		 ret	 0
?_FILE_I_next@_STL@@YAPADPBU_iobuf@@@Z ENDP		; _STL::_FILE_I_next
_TEXT	ENDS
PUBLIC	?_FILE_I_end@_STL@@YAPADPBU_iobuf@@@Z		; _STL::_FILE_I_end
; Function compile flags: /Ogsy
;	COMDAT ?_FILE_I_end@_STL@@YAPADPBU_iobuf@@@Z
_TEXT	SEGMENT
___f$ = 8						; size = 4
?_FILE_I_end@_STL@@YAPADPBU_iobuf@@@Z PROC NEAR		; _STL::_FILE_I_end, COMDAT

; 101  :   { return (char*) __f->_ptr + __f->_cnt; }

  00000	8b 4c 24 04	 mov	 ecx, DWORD PTR ___f$[esp-4]
  00004	8b 41 04	 mov	 eax, DWORD PTR [ecx+4]
  00007	03 01		 add	 eax, DWORD PTR [ecx]
  00009	c3		 ret	 0
?_FILE_I_end@_STL@@YAPADPBU_iobuf@@@Z ENDP		; _STL::_FILE_I_end
_TEXT	ENDS
PUBLIC	?_FILE_I_avail@_STL@@YAHPBU_iobuf@@@Z		; _STL::_FILE_I_avail
; Function compile flags: /Ogsy
;	COMDAT ?_FILE_I_avail@_STL@@YAHPBU_iobuf@@@Z
_TEXT	SEGMENT
___f$ = 8						; size = 4
?_FILE_I_avail@_STL@@YAHPBU_iobuf@@@Z PROC NEAR		; _STL::_FILE_I_avail, COMDAT

; 103  : inline ptrdiff_t _FILE_I_avail(const FILE *__f) { return __f->_cnt; }

  00000	8b 44 24 04	 mov	 eax, DWORD PTR ___f$[esp-4]
  00004	8b 40 04	 mov	 eax, DWORD PTR [eax+4]
  00007	c3		 ret	 0
?_FILE_I_avail@_STL@@YAHPBU_iobuf@@@Z ENDP		; _STL::_FILE_I_avail
_TEXT	ENDS
PUBLIC	?_FILE_I_postincr@_STL@@YAAADPAU_iobuf@@@Z	; _STL::_FILE_I_postincr
; Function compile flags: /Ogsy
;	COMDAT ?_FILE_I_postincr@_STL@@YAAADPAU_iobuf@@@Z
_TEXT	SEGMENT
___f$ = 8						; size = 4
?_FILE_I_postincr@_STL@@YAAADPAU_iobuf@@@Z PROC NEAR	; _STL::_FILE_I_postincr, COMDAT

; 108  :   { --__f->_cnt; return *(char*) (__f->_ptr++); }

  00000	8b 4c 24 04	 mov	 ecx, DWORD PTR ___f$[esp-4]
  00004	8b 01		 mov	 eax, DWORD PTR [ecx]
  00006	ff 49 04	 dec	 DWORD PTR [ecx+4]
  00009	8d 50 01	 lea	 edx, DWORD PTR [eax+1]
  0000c	89 11		 mov	 DWORD PTR [ecx], edx
  0000e	c3		 ret	 0
?_FILE_I_postincr@_STL@@YAAADPAU_iobuf@@@Z ENDP		; _STL::_FILE_I_postincr
_TEXT	ENDS
PUBLIC	?_FILE_I_bump@_STL@@YAXPAU_iobuf@@H@Z		; _STL::_FILE_I_bump
; Function compile flags: /Ogsy
;	COMDAT ?_FILE_I_bump@_STL@@YAXPAU_iobuf@@H@Z
_TEXT	SEGMENT
___f$ = 8						; size = 4
___n$ = 12						; size = 4
?_FILE_I_bump@_STL@@YAXPAU_iobuf@@H@Z PROC NEAR		; _STL::_FILE_I_bump, COMDAT

; 114  :   { __f->_ptr += __n; __f->_cnt -= __n; }

  00000	8b 4c 24 08	 mov	 ecx, DWORD PTR ___n$[esp-4]
  00004	8b 44 24 04	 mov	 eax, DWORD PTR ___f$[esp-4]
  00008	01 08		 add	 DWORD PTR [eax], ecx
  0000a	29 48 04	 sub	 DWORD PTR [eax+4], ecx
  0000d	c3		 ret	 0
?_FILE_I_bump@_STL@@YAXPAU_iobuf@@H@Z ENDP		; _STL::_FILE_I_bump
_TEXT	ENDS
PUBLIC	?_FILE_I_set@_STL@@YAXPAU_iobuf@@PAD11@Z	; _STL::_FILE_I_set
; Function compile flags: /Ogsy
;	COMDAT ?_FILE_I_set@_STL@@YAXPAU_iobuf@@PAD11@Z
_TEXT	SEGMENT
___f$ = 8						; size = 4
___begin$ = 12						; size = 4
___next$ = 16						; size = 4
___end$ = 20						; size = 4
?_FILE_I_set@_STL@@YAXPAU_iobuf@@PAD11@Z PROC NEAR	; _STL::_FILE_I_set, COMDAT

; 117  :   __f->_base = (_File_ptr_type) __begin;

  00000	8b 44 24 04	 mov	 eax, DWORD PTR ___f$[esp-4]
  00004	8b 4c 24 08	 mov	 ecx, DWORD PTR ___begin$[esp-4]

; 118  :   __f->_ptr  = (_File_ptr_type) __next;
; 119  :   __f->_cnt  = __end - __next;

  00008	8b 54 24 10	 mov	 edx, DWORD PTR ___end$[esp-4]
  0000c	89 48 08	 mov	 DWORD PTR [eax+8], ecx
  0000f	8b 4c 24 0c	 mov	 ecx, DWORD PTR ___next$[esp-4]
  00013	2b d1		 sub	 edx, ecx
  00015	89 08		 mov	 DWORD PTR [eax], ecx
  00017	89 50 04	 mov	 DWORD PTR [eax+4], edx

; 120  : }

  0001a	c3		 ret	 0
?_FILE_I_set@_STL@@YAXPAU_iobuf@@PAD11@Z ENDP		; _STL::_FILE_I_set
_TEXT	ENDS
PUBLIC	?_FILE_O_set@_STL@@YAXPAU_iobuf@@PAD11@Z	; _STL::_FILE_O_set
; Function compile flags: /Ogsy
;	COMDAT ?_FILE_O_set@_STL@@YAXPAU_iobuf@@PAD11@Z
_TEXT	SEGMENT
___f$ = 8						; size = 4
___begin$ = 12						; size = 4
___next$ = 16						; size = 4
___end$ = 20						; size = 4
?_FILE_O_set@_STL@@YAXPAU_iobuf@@PAD11@Z PROC NEAR	; _STL::_FILE_O_set, COMDAT

; 745  :   { _FILE_I_set(__f, __begin, __next, __end); }

  00000	8b 44 24 04	 mov	 eax, DWORD PTR ___f$[esp-4]
  00004	8b 4c 24 08	 mov	 ecx, DWORD PTR ___begin$[esp-4]
  00008	8b 54 24 10	 mov	 edx, DWORD PTR ___end$[esp-4]
  0000c	89 48 08	 mov	 DWORD PTR [eax+8], ecx
  0000f	8b 4c 24 0c	 mov	 ecx, DWORD PTR ___next$[esp-4]
  00013	2b d1		 sub	 edx, ecx
  00015	89 08		 mov	 DWORD PTR [eax], ecx
  00017	89 50 04	 mov	 DWORD PTR [eax+4], edx
  0001a	c3		 ret	 0
?_FILE_O_set@_STL@@YAXPAU_iobuf@@PAD11@Z ENDP		; _STL::_FILE_O_set
_TEXT	ENDS
PUBLIC	??_7?$basic_streambuf@DV?$char_traits@D@_STL@@@_STL@@6B@ ; _STL::basic_streambuf<char,_STL::char_traits<char> >::`vftable'
PUBLIC	??_G?$basic_streambuf@DV?$char_traits@D@_STL@@@_STL@@UAEPAXI@Z ; _STL::basic_streambuf<char,_STL::char_traits<char> >::`scalar deleting destructor'
PUBLIC	??_R4?$basic_streambuf@DV?$char_traits@D@_STL@@@_STL@@6B@ ; _STL::basic_streambuf<char,_STL::char_traits<char> >::`RTTI Complete Object Locator'
PUBLIC	??_R0?AV?$basic_streambuf@DV?$char_traits@D@_STL@@@_STL@@@8 ; _STL::basic_streambuf<char,_STL::char_traits<char> > `RTTI Type Descriptor'
PUBLIC	??_R3?$basic_streambuf@DV?$char_traits@D@_STL@@@_STL@@8 ; _STL::basic_streambuf<char,_STL::char_traits<char> >::`RTTI Class Hierarchy Descriptor'
PUBLIC	??_R2?$basic_streambuf@DV?$char_traits@D@_STL@@@_STL@@8 ; _STL::basic_streambuf<char,_STL::char_traits<char> >::`RTTI Base Class Array'
PUBLIC	??_R1A@?0A@A@?$basic_streambuf@DV?$char_traits@D@_STL@@@_STL@@8 ; _STL::basic_streambuf<char,_STL::char_traits<char> >::`RTTI Base Class Descriptor at (0,-1,0,0)'
PUBLIC	??0?$basic_streambuf@DV?$char_traits@D@_STL@@@_STL@@IAE@XZ ; _STL::basic_streambuf<char,_STL::char_traits<char> >::basic_streambuf<char,_STL::char_traits<char> >
EXTRN	?showmanyc@?$basic_streambuf@DV?$char_traits@D@_STL@@@_STL@@MAEHXZ:NEAR ; _STL::basic_streambuf<char,_STL::char_traits<char> >::showmanyc
EXTRN	?xsgetn@?$basic_streambuf@DV?$char_traits@D@_STL@@@_STL@@MAEHPADH@Z:NEAR ; _STL::basic_streambuf<char,_STL::char_traits<char> >::xsgetn
EXTRN	?underflow@?$basic_streambuf@DV?$char_traits@D@_STL@@@_STL@@MAEHXZ:NEAR ; _STL::basic_streambuf<char,_STL::char_traits<char> >::underflow
EXTRN	?uflow@?$basic_streambuf@DV?$char_traits@D@_STL@@@_STL@@MAEHXZ:NEAR ; _STL::basic_streambuf<char,_STL::char_traits<char> >::uflow
EXTRN	?pbackfail@?$basic_streambuf@DV?$char_traits@D@_STL@@@_STL@@MAEHH@Z:NEAR ; _STL::basic_streambuf<char,_STL::char_traits<char> >::pbackfail
EXTRN	?xsputn@?$basic_streambuf@DV?$char_traits@D@_STL@@@_STL@@MAEHPBDH@Z:NEAR ; _STL::basic_streambuf<char,_STL::char_traits<char> >::xsputn
EXTRN	?_M_xsputnc@?$basic_streambuf@DV?$char_traits@D@_STL@@@_STL@@MAEHDH@Z:NEAR ; _STL::basic_streambuf<char,_STL::char_traits<char> >::_M_xsputnc
EXTRN	?overflow@?$basic_streambuf@DV?$char_traits@D@_STL@@@_STL@@MAEHH@Z:NEAR ; _STL::basic_streambuf<char,_STL::char_traits<char> >::overflow
EXTRN	?imbue@?$basic_streambuf@DV?$char_traits@D@_STL@@@_STL@@MAEXABVlocale@2@@Z:NEAR ; _STL::basic_streambuf<char,_STL::char_traits<char> >::imbue
EXTRN	??_E?$basic_streambuf@DV?$char_traits@D@_STL@@@_STL@@UAEPAXI@Z:NEAR ; _STL::basic_streambuf<char,_STL::char_traits<char> >::`vector deleting destructor'
EXTRN	??0locale@_STL@@QAE@XZ:NEAR			; _STL::locale::locale
EXTRN	?setbuf@?$basic_streambuf@DV?$char_traits@D@_STL@@@_STL@@MAEPAV12@PADH@Z:NEAR ; _STL::basic_streambuf<char,_STL::char_traits<char> >::setbuf
EXTRN	?seekoff@?$basic_streambuf@DV?$char_traits@D@_STL@@@_STL@@MAE?AV?$fpos@H@2@JHH@Z:NEAR ; _STL::basic_streambuf<char,_STL::char_traits<char> >::seekoff
EXTRN	?seekpos@?$basic_streambuf@DV?$char_traits@D@_STL@@@_STL@@MAE?AV?$fpos@H@2@V32@H@Z:NEAR ; _STL::basic_streambuf<char,_STL::char_traits<char> >::seekpos
EXTRN	?sync@?$basic_streambuf@DV?$char_traits@D@_STL@@@_STL@@MAEHXZ:NEAR ; _STL::basic_streambuf<char,_STL::char_traits<char> >::sync
;	COMDAT ??_7?$basic_streambuf@DV?$char_traits@D@_STL@@@_STL@@6B@
CONST	SEGMENT
??_7?$basic_streambuf@DV?$char_traits@D@_STL@@@_STL@@6B@ DD FLAT:??_R4?$basic_streambuf@DV?$char_traits@D@_STL@@@_STL@@6B@ ; _STL::basic_streambuf<char,_STL::char_traits<char> >::`vftable'
	DD	FLAT:??_E?$basic_streambuf@DV?$char_traits@D@_STL@@@_STL@@UAEPAXI@Z
	DD	FLAT:?setbuf@?$basic_streambuf@DV?$char_traits@D@_STL@@@_STL@@MAEPAV12@PADH@Z
	DD	FLAT:?seekoff@?$basic_streambuf@DV?$char_traits@D@_STL@@@_STL@@MAE?AV?$fpos@H@2@JHH@Z
	DD	FLAT:?seekpos@?$basic_streambuf@DV?$char_traits@D@_STL@@@_STL@@MAE?AV?$fpos@H@2@V32@H@Z
	DD	FLAT:?sync@?$basic_streambuf@DV?$char_traits@D@_STL@@@_STL@@MAEHXZ
	DD	FLAT:?showmanyc@?$basic_streambuf@DV?$char_traits@D@_STL@@@_STL@@MAEHXZ
	DD	FLAT:?xsgetn@?$basic_streambuf@DV?$char_traits@D@_STL@@@_STL@@MAEHPADH@Z
	DD	FLAT:?underflow@?$basic_streambuf@DV?$char_traits@D@_STL@@@_STL@@MAEHXZ
	DD	FLAT:?uflow@?$basic_streambuf@DV?$char_traits@D@_STL@@@_STL@@MAEHXZ
	DD	FLAT:?pbackfail@?$basic_streambuf@DV?$char_traits@D@_STL@@@_STL@@MAEHH@Z
	DD	FLAT:?xsputn@?$basic_streambuf@DV?$char_traits@D@_STL@@@_STL@@MAEHPBDH@Z
	DD	FLAT:?_M_xsputnc@?$basic_streambuf@DV?$char_traits@D@_STL@@@_STL@@MAEHDH@Z
	DD	FLAT:?overflow@?$basic_streambuf@DV?$char_traits@D@_STL@@@_STL@@MAEHH@Z
	DD	FLAT:?imbue@?$basic_streambuf@DV?$char_traits@D@_STL@@@_STL@@MAEXABVlocale@2@@Z
CONST	ENDS
;	COMDAT ??_R4?$basic_streambuf@DV?$char_traits@D@_STL@@@_STL@@6B@
rdata$r	SEGMENT
??_R4?$basic_streambuf@DV?$char_traits@D@_STL@@@_STL@@6B@ DD 00H ; _STL::basic_streambuf<char,_STL::char_traits<char> >::`RTTI Complete Object Locator'
	DD	00H
	DD	00H
	DD	FLAT:??_R0?AV?$basic_streambuf@DV?$char_traits@D@_STL@@@_STL@@@8
	DD	FLAT:??_R3?$basic_streambuf@DV?$char_traits@D@_STL@@@_STL@@8
rdata$r	ENDS
;	COMDAT ??_R0?AV?$basic_streambuf@DV?$char_traits@D@_STL@@@_STL@@@8
_DATA	SEGMENT
??_R0?AV?$basic_streambuf@DV?$char_traits@D@_STL@@@_STL@@@8 DD FLAT:??_7type_info@@6B@ ; _STL::basic_streambuf<char,_STL::char_traits<char> > `RTTI Type Descriptor'
	DD	00H
	DB	'.?AV?$basic_streambuf@DV?$char_traits@D@_STL@@@_STL@@', 00H
_DATA	ENDS
;	COMDAT ??_R3?$basic_streambuf@DV?$char_traits@D@_STL@@@_STL@@8
rdata$r	SEGMENT
??_R3?$basic_streambuf@DV?$char_traits@D@_STL@@@_STL@@8 DD 00H ; _STL::basic_streambuf<char,_STL::char_traits<char> >::`RTTI Class Hierarchy Descriptor'
	DD	00H
	DD	01H
	DD	FLAT:??_R2?$basic_streambuf@DV?$char_traits@D@_STL@@@_STL@@8
rdata$r	ENDS
;	COMDAT ??_R2?$basic_streambuf@DV?$char_traits@D@_STL@@@_STL@@8
rdata$r	SEGMENT
??_R2?$basic_streambuf@DV?$char_traits@D@_STL@@@_STL@@8 DD FLAT:??_R1A@?0A@A@?$basic_streambuf@DV?$char_traits@D@_STL@@@_STL@@8 ; _STL::basic_streambuf<char,_STL::char_traits<char> >::`RTTI Base Class Array'
rdata$r	ENDS
;	COMDAT ??_R1A@?0A@A@?$basic_streambuf@DV?$char_traits@D@_STL@@@_STL@@8
rdata$r	SEGMENT
??_R1A@?0A@A@?$basic_streambuf@DV?$char_traits@D@_STL@@@_STL@@8 DD FLAT:??_R0?AV?$basic_streambuf@DV?$char_traits@D@_STL@@@_STL@@@8 ; _STL::basic_streambuf<char,_STL::char_traits<char> >::`RTTI Base Class Descriptor at (0,-1,0,0)'
	DD	00H
	DD	00H
	DD	0ffffffffH
	DD	00H
	DD	00H
; Function compile flags: /Ogsy
; File c:\stlport-4.6.1\stlport\stl\_streambuf.h
rdata$r	ENDS
;	COMDAT ??0?$basic_streambuf@DV?$char_traits@D@_STL@@@_STL@@IAE@XZ
_TEXT	SEGMENT
??0?$basic_streambuf@DV?$char_traits@D@_STL@@@_STL@@IAE@XZ PROC NEAR ; _STL::basic_streambuf<char,_STL::char_traits<char> >::basic_streambuf<char,_STL::char_traits<char> >, COMDAT
; _this$ = ecx

; 352  :   {

  00000	56		 push	 esi
  00001	8b f1		 mov	 esi, ecx
  00003	8d 46 0c	 lea	 eax, DWORD PTR [esi+12]
  00006	89 46 04	 mov	 DWORD PTR [esi+4], eax
  00009	8d 46 2c	 lea	 eax, DWORD PTR [esi+44]
  0000c	8d 4e 4c	 lea	 ecx, DWORD PTR [esi+76]
  0000f	c7 06 00 00 00
	00		 mov	 DWORD PTR [esi], OFFSET FLAT:??_7?$basic_streambuf@DV?$char_traits@D@_STL@@@_STL@@6B@
  00015	89 46 08	 mov	 DWORD PTR [esi+8], eax
  00018	e8 00 00 00 00	 call	 ??0locale@_STL@@QAE@XZ	; _STL::locale::locale
  0001d	33 c9		 xor	 ecx, ecx
  0001f	89 4e 50	 mov	 DWORD PTR [esi+80], ecx

; 353  :     // _M_lock._M_initialize();
; 354  :     _FILE_I_set(_M_get, 0, 0, 0);

  00022	8b 46 04	 mov	 eax, DWORD PTR [esi+4]
  00025	89 48 08	 mov	 DWORD PTR [eax+8], ecx
  00028	89 08		 mov	 DWORD PTR [eax], ecx
  0002a	89 48 04	 mov	 DWORD PTR [eax+4], ecx

; 355  :     _FILE_O_set(_M_put, 0, 0, 0);

  0002d	8b 46 08	 mov	 eax, DWORD PTR [esi+8]
  00030	89 48 08	 mov	 DWORD PTR [eax+8], ecx
  00033	89 08		 mov	 DWORD PTR [eax], ecx
  00035	89 48 04	 mov	 DWORD PTR [eax+4], ecx

; 356  :   }

  00038	8b c6		 mov	 eax, esi
  0003a	5e		 pop	 esi
  0003b	c3		 ret	 0
??0?$basic_streambuf@DV?$char_traits@D@_STL@@@_STL@@IAE@XZ ENDP ; _STL::basic_streambuf<char,_STL::char_traits<char> >::basic_streambuf<char,_STL::char_traits<char> >
_TEXT	ENDS
PUBLIC	?gptr@?$basic_streambuf@DV?$char_traits@D@_STL@@@_STL@@IBEPADXZ ; _STL::basic_streambuf<char,_STL::char_traits<char> >::gptr
; Function compile flags: /Ogsy
;	COMDAT ?gptr@?$basic_streambuf@DV?$char_traits@D@_STL@@@_STL@@IBEPADXZ
_TEXT	SEGMENT
?gptr@?$basic_streambuf@DV?$char_traits@D@_STL@@@_STL@@IBEPADXZ PROC NEAR ; _STL::basic_streambuf<char,_STL::char_traits<char> >::gptr, COMDAT
; _this$ = ecx

; 363  :   char_type* gptr()  const { return _FILE_I_next(_M_get); }

  00000	8b 41 04	 mov	 eax, DWORD PTR [ecx+4]
  00003	8b 00		 mov	 eax, DWORD PTR [eax]
  00005	c3		 ret	 0
?gptr@?$basic_streambuf@DV?$char_traits@D@_STL@@@_STL@@IBEPADXZ ENDP ; _STL::basic_streambuf<char,_STL::char_traits<char> >::gptr
_TEXT	ENDS
PUBLIC	?egptr@?$basic_streambuf@DV?$char_traits@D@_STL@@@_STL@@IBEPADXZ ; _STL::basic_streambuf<char,_STL::char_traits<char> >::egptr
; Function compile flags: /Ogsy
;	COMDAT ?egptr@?$basic_streambuf@DV?$char_traits@D@_STL@@@_STL@@IBEPADXZ
_TEXT	SEGMENT
?egptr@?$basic_streambuf@DV?$char_traits@D@_STL@@@_STL@@IBEPADXZ PROC NEAR ; _STL::basic_streambuf<char,_STL::char_traits<char> >::egptr, COMDAT
; _this$ = ecx

; 364  :   char_type* egptr() const { return _FILE_I_end(_M_get); }

  00000	8b 49 04	 mov	 ecx, DWORD PTR [ecx+4]
  00003	8b 41 04	 mov	 eax, DWORD PTR [ecx+4]
  00006	03 01		 add	 eax, DWORD PTR [ecx]
  00008	c3		 ret	 0
?egptr@?$basic_streambuf@DV?$char_traits@D@_STL@@@_STL@@IBEPADXZ ENDP ; _STL::basic_streambuf<char,_STL::char_traits<char> >::egptr
_TEXT	ENDS
PUBLIC	?setg@?$basic_streambuf@DV?$char_traits@D@_STL@@@_STL@@IAEXPAD00@Z ; _STL::basic_streambuf<char,_STL::char_traits<char> >::setg
; Function compile flags: /Ogsy
;	COMDAT ?setg@?$basic_streambuf@DV?$char_traits@D@_STL@@@_STL@@IAEXPAD00@Z
_TEXT	SEGMENT
___gbegin$ = 8						; size = 4
___gnext$ = 12						; size = 4
___gend$ = 16						; size = 4
?setg@?$basic_streambuf@DV?$char_traits@D@_STL@@@_STL@@IAEXPAD00@Z PROC NEAR ; _STL::basic_streambuf<char,_STL::char_traits<char> >::setg, COMDAT
; _this$ = ecx

; 367  :     { _FILE_I_set(_M_get, __gbegin, __gnext, __gend); }

  00000	8b 41 04	 mov	 eax, DWORD PTR [ecx+4]
  00003	8b 4c 24 04	 mov	 ecx, DWORD PTR ___gbegin$[esp-4]
  00007	8b 54 24 0c	 mov	 edx, DWORD PTR ___gend$[esp-4]
  0000b	89 48 08	 mov	 DWORD PTR [eax+8], ecx
  0000e	8b 4c 24 08	 mov	 ecx, DWORD PTR ___gnext$[esp-4]
  00012	2b d1		 sub	 edx, ecx
  00014	89 08		 mov	 DWORD PTR [eax], ecx
  00016	89 50 04	 mov	 DWORD PTR [eax+4], edx
  00019	c2 0c 00	 ret	 12			; 0000000cH
?setg@?$basic_streambuf@DV?$char_traits@D@_STL@@@_STL@@IAEXPAD00@Z ENDP ; _STL::basic_streambuf<char,_STL::char_traits<char> >::setg
_TEXT	ENDS
PUBLIC	?_M_gptr@?$basic_streambuf@DV?$char_traits@D@_STL@@@_STL@@QBEPADXZ ; _STL::basic_streambuf<char,_STL::char_traits<char> >::_M_gptr
; Function compile flags: /Ogsy
;	COMDAT ?_M_gptr@?$basic_streambuf@DV?$char_traits@D@_STL@@@_STL@@QBEPADXZ
_TEXT	SEGMENT
?_M_gptr@?$basic_streambuf@DV?$char_traits@D@_STL@@@_STL@@QBEPADXZ PROC NEAR ; _STL::basic_streambuf<char,_STL::char_traits<char> >::_M_gptr, COMDAT
; _this$ = ecx

; 375  :   char_type* _M_gptr()  const { return _FILE_I_next(_M_get); }

  00000	8b 41 04	 mov	 eax, DWORD PTR [ecx+4]
  00003	8b 00		 mov	 eax, DWORD PTR [eax]
  00005	c3		 ret	 0
?_M_gptr@?$basic_streambuf@DV?$char_traits@D@_STL@@@_STL@@QBEPADXZ ENDP ; _STL::basic_streambuf<char,_STL::char_traits<char> >::_M_gptr
_TEXT	ENDS
PUBLIC	?_M_egptr@?$basic_streambuf@DV?$char_traits@D@_STL@@@_STL@@QBEPADXZ ; _STL::basic_streambuf<char,_STL::char_traits<char> >::_M_egptr
; Function compile flags: /Ogsy
;	COMDAT ?_M_egptr@?$basic_streambuf@DV?$char_traits@D@_STL@@@_STL@@QBEPADXZ
_TEXT	SEGMENT
?_M_egptr@?$basic_streambuf@DV?$char_traits@D@_STL@@@_STL@@QBEPADXZ PROC NEAR ; _STL::basic_streambuf<char,_STL::char_traits<char> >::_M_egptr, COMDAT
; _this$ = ecx

; 376  :   char_type* _M_egptr() const { return _FILE_I_end(_M_get); }

  00000	8b 49 04	 mov	 ecx, DWORD PTR [ecx+4]
  00003	8b 41 04	 mov	 eax, DWORD PTR [ecx+4]
  00006	03 01		 add	 eax, DWORD PTR [ecx]
  00008	c3		 ret	 0
?_M_egptr@?$basic_streambuf@DV?$char_traits@D@_STL@@@_STL@@QBEPADXZ ENDP ; _STL::basic_streambuf<char,_STL::char_traits<char> >::_M_egptr
_TEXT	ENDS
PUBLIC	?_M_gbump@?$basic_streambuf@DV?$char_traits@D@_STL@@@_STL@@QAEXH@Z ; _STL::basic_streambuf<char,_STL::char_traits<char> >::_M_gbump
; Function compile flags: /Ogsy
;	COMDAT ?_M_gbump@?$basic_streambuf@DV?$char_traits@D@_STL@@@_STL@@QAEXH@Z
_TEXT	SEGMENT
___n$ = 8						; size = 4
?_M_gbump@?$basic_streambuf@DV?$char_traits@D@_STL@@@_STL@@QAEXH@Z PROC NEAR ; _STL::basic_streambuf<char,_STL::char_traits<char> >::_M_gbump, COMDAT
; _this$ = ecx

; 378  :   void _M_gbump(int __n) { _FILE_I_bump(_M_get, __n); }

  00000	8b 41 04	 mov	 eax, DWORD PTR [ecx+4]
  00003	8b 4c 24 04	 mov	 ecx, DWORD PTR ___n$[esp-4]
  00007	01 08		 add	 DWORD PTR [eax], ecx
  00009	29 48 04	 sub	 DWORD PTR [eax+4], ecx
  0000c	c2 04 00	 ret	 4
?_M_gbump@?$basic_streambuf@DV?$char_traits@D@_STL@@@_STL@@QAEXH@Z ENDP ; _STL::basic_streambuf<char,_STL::char_traits<char> >::_M_gbump
_TEXT	ENDS
PUBLIC	?tie@?$basic_ios@DV?$char_traits@D@_STL@@@_STL@@QBEPAV?$basic_ostream@DV?$char_traits@D@_STL@@@2@XZ ; _STL::basic_ios<char,_STL::char_traits<char> >::tie
; Function compile flags: /Ogsy
; File c:\stlport-4.6.1\stlport\stl\_ios.h
;	COMDAT ?tie@?$basic_ios@DV?$char_traits@D@_STL@@@_STL@@QBEPAV?$basic_ostream@DV?$char_traits@D@_STL@@@2@XZ
_TEXT	SEGMENT
?tie@?$basic_ios@DV?$char_traits@D@_STL@@@_STL@@QBEPAV?$basic_ostream@DV?$char_traits@D@_STL@@@2@XZ PROC NEAR ; _STL::basic_ios<char,_STL::char_traits<char> >::tie, COMDAT
; _this$ = ecx

; 62   :     return _M_tied_ostream;

  00000	8b 41 5c	 mov	 eax, DWORD PTR [ecx+92]

; 63   :   }

  00003	c3		 ret	 0
?tie@?$basic_ios@DV?$char_traits@D@_STL@@@_STL@@QBEPAV?$basic_ostream@DV?$char_traits@D@_STL@@@2@XZ ENDP ; _STL::basic_ios<char,_STL::char_traits<char> >::tie
_TEXT	ENDS
PUBLIC	??R?$_Eq_char_bound@V?$char_traits@D@_STL@@@_STL@@QBE_NABD@Z ; _STL::_Eq_char_bound<_STL::char_traits<char> >::operator()
; Function compile flags: /Ogsy
; File c:\stlport-4.6.1\stlport\stl\_ctraits_fns.h
;	COMDAT ??R?$_Eq_char_bound@V?$char_traits@D@_STL@@@_STL@@QBE_NABD@Z
_TEXT	SEGMENT
___x$ = 8						; size = 4
??R?$_Eq_char_bound@V?$char_traits@D@_STL@@@_STL@@QBE_NABD@Z PROC NEAR ; _STL::_Eq_char_bound<_STL::char_traits<char> >::operator(), COMDAT
; _this$ = ecx

; 48   :     { return _Traits::eq(__x, __val); }

  00000	8b 44 24 04	 mov	 eax, DWORD PTR ___x$[esp-4]
  00004	8a 00		 mov	 al, BYTE PTR [eax]
  00006	2a 01		 sub	 al, BYTE PTR [ecx]
  00008	f6 d8		 neg	 al
  0000a	1b c0		 sbb	 eax, eax
  0000c	40		 inc	 eax
  0000d	c2 04 00	 ret	 4
??R?$_Eq_char_bound@V?$char_traits@D@_STL@@@_STL@@QBE_NABD@Z ENDP ; _STL::_Eq_char_bound<_STL::char_traits<char> >::operator()
_TEXT	ENDS
PUBLIC	?setp@?$basic_streambuf@DV?$char_traits@D@_STL@@@_STL@@IAEXPAD0@Z ; _STL::basic_streambuf<char,_STL::char_traits<char> >::setp
; Function compile flags: /Ogsy
; File c:\stlport-4.6.1\stlport\stl\_streambuf.h
;	COMDAT ?setp@?$basic_streambuf@DV?$char_traits@D@_STL@@@_STL@@IAEXPAD0@Z
_TEXT	SEGMENT
___pbegin$ = 8						; size = 4
___pend$ = 12						; size = 4
?setp@?$basic_streambuf@DV?$char_traits@D@_STL@@@_STL@@IAEXPAD0@Z PROC NEAR ; _STL::basic_streambuf<char,_STL::char_traits<char> >::setp, COMDAT
; _this$ = ecx

; 389  :     { _FILE_O_set(_M_put, __pbegin, __pbegin, __pend); }

  00000	8b 41 08	 mov	 eax, DWORD PTR [ecx+8]
  00003	8b 4c 24 04	 mov	 ecx, DWORD PTR ___pbegin$[esp-4]
  00007	8b 54 24 08	 mov	 edx, DWORD PTR ___pend$[esp-4]
  0000b	2b d1		 sub	 edx, ecx
  0000d	89 48 08	 mov	 DWORD PTR [eax+8], ecx
  00010	89 08		 mov	 DWORD PTR [eax], ecx
  00012	89 50 04	 mov	 DWORD PTR [eax+4], edx
  00015	c2 08 00	 ret	 8
?setp@?$basic_streambuf@DV?$char_traits@D@_STL@@@_STL@@IAEXPAD0@Z ENDP ; _STL::basic_streambuf<char,_STL::char_traits<char> >::setp
_TEXT	ENDS
PUBLIC	?pubsync@?$basic_streambuf@DV?$char_traits@D@_STL@@@_STL@@QAEHXZ ; _STL::basic_streambuf<char,_STL::char_traits<char> >::pubsync
; Function compile flags: /Ogsy
;	COMDAT ?pubsync@?$basic_streambuf@DV?$char_traits@D@_STL@@@_STL@@QAEHXZ
_TEXT	SEGMENT
?pubsync@?$basic_streambuf@DV?$char_traits@D@_STL@@@_STL@@QAEHXZ PROC NEAR ; _STL::basic_streambuf<char,_STL::char_traits<char> >::pubsync, COMDAT
; _this$ = ecx

; 411  :   int pubsync() { return this->sync(); }

  00000	8b 01		 mov	 eax, DWORD PTR [ecx]
  00002	ff 60 10	 jmp	 DWORD PTR [eax+16]
?pubsync@?$basic_streambuf@DV?$char_traits@D@_STL@@@_STL@@QAEHXZ ENDP ; _STL::basic_streambuf<char,_STL::char_traits<char> >::pubsync
_TEXT	ENDS
PUBLIC	?_M_handle_exception@?$basic_ios@DV?$char_traits@D@_STL@@@_STL@@QAEXH@Z ; _STL::basic_ios<char,_STL::char_traits<char> >::_M_handle_exception
EXTRN	__CxxThrowException@8:NEAR
; Function compile flags: /Ogsy
; File c:\stlport-4.6.1\stlport\stl\_ios.c
;	COMDAT ?_M_handle_exception@?$basic_ios@DV?$char_traits@D@_STL@@@_STL@@QAEXH@Z
_TEXT	SEGMENT
___flag$ = 8						; size = 4
?_M_handle_exception@?$basic_ios@DV?$char_traits@D@_STL@@@_STL@@QAEXH@Z PROC NEAR ; _STL::basic_ios<char,_STL::char_traits<char> >::_M_handle_exception, COMDAT
; _this$ = ecx

; 118  :   this->_M_setstate_nothrow(__flag);

  00000	8b 44 24 04	 mov	 eax, DWORD PTR ___flag$[esp-4]
  00004	09 41 08	 or	 DWORD PTR [ecx+8], eax

; 119  :   if (this->_M_get_exception_mask() & __flag)

  00007	85 41 14	 test	 DWORD PTR [ecx+20], eax
  0000a	74 09		 je	 SHORT $L101121

; 120  :     _STLP_RETHROW;

  0000c	6a 00		 push	 0
  0000e	6a 00		 push	 0
  00010	e8 00 00 00 00	 call	 __CxxThrowException@8
$L101964:
$L101121:

; 121  : }

  00015	c2 04 00	 ret	 4
$L101963:
?_M_handle_exception@?$basic_ios@DV?$char_traits@D@_STL@@@_STL@@QAEXH@Z ENDP ; _STL::basic_ios<char,_STL::char_traits<char> >::_M_handle_exception
_TEXT	ENDS
PUBLIC	?sbumpc@?$basic_streambuf@DV?$char_traits@D@_STL@@@_STL@@QAEHXZ ; _STL::basic_streambuf<char,_STL::char_traits<char> >::sbumpc
; Function compile flags: /Ogsy
; File c:\stlport-4.6.1\stlport\stl\_streambuf.h
;	COMDAT ?sbumpc@?$basic_streambuf@DV?$char_traits@D@_STL@@@_STL@@QAEHXZ
_TEXT	SEGMENT
?sbumpc@?$basic_streambuf@DV?$char_traits@D@_STL@@@_STL@@QAEHXZ PROC NEAR ; _STL::basic_streambuf<char,_STL::char_traits<char> >::sbumpc, COMDAT
; _this$ = ecx

; 464  :     return _FILE_I_avail(_M_get) > 0
; 465  :       ? traits_type::to_int_type(_FILE_I_postincr(_M_get))
; 466  :       : this->uflow();

  00000	8b 41 04	 mov	 eax, DWORD PTR [ecx+4]
  00003	83 78 04 00	 cmp	 DWORD PTR [eax+4], 0
  00007	7e 0e		 jle	 SHORT $L101968
  00009	8b 08		 mov	 ecx, DWORD PTR [eax]
  0000b	ff 48 04	 dec	 DWORD PTR [eax+4]
  0000e	8d 51 01	 lea	 edx, DWORD PTR [ecx+1]
  00011	89 10		 mov	 DWORD PTR [eax], edx
  00013	0f b6 01	 movzx	 eax, BYTE PTR [ecx]

; 467  :   }

  00016	c3		 ret	 0
$L101968:

; 464  :     return _FILE_I_avail(_M_get) > 0
; 465  :       ? traits_type::to_int_type(_FILE_I_postincr(_M_get))
; 466  :       : this->uflow();

  00017	8b 01		 mov	 eax, DWORD PTR [ecx]
  00019	ff 60 20	 jmp	 DWORD PTR [eax+32]
?sbumpc@?$basic_streambuf@DV?$char_traits@D@_STL@@@_STL@@QAEHXZ ENDP ; _STL::basic_streambuf<char,_STL::char_traits<char> >::sbumpc
_TEXT	ENDS
PUBLIC	?sgetc@?$basic_streambuf@DV?$char_traits@D@_STL@@@_STL@@QAEHXZ ; _STL::basic_streambuf<char,_STL::char_traits<char> >::sgetc
; Function compile flags: /Ogsy
;	COMDAT ?sgetc@?$basic_streambuf@DV?$char_traits@D@_STL@@@_STL@@QAEHXZ
_TEXT	SEGMENT
?sgetc@?$basic_streambuf@DV?$char_traits@D@_STL@@@_STL@@QAEHXZ PROC NEAR ; _STL::basic_streambuf<char,_STL::char_traits<char> >::sgetc, COMDAT
; _this$ = ecx

; 471  :     return _FILE_I_avail(_M_get) > 0
; 472  :       ? traits_type::to_int_type(*_FILE_I_next(_M_get))
; 473  :       : this->underflow();

  00000	8b 41 04	 mov	 eax, DWORD PTR [ecx+4]
  00003	83 78 04 00	 cmp	 DWORD PTR [eax+4], 0
  00007	7e 06		 jle	 SHORT $L101986
  00009	8b 00		 mov	 eax, DWORD PTR [eax]
  0000b	0f b6 00	 movzx	 eax, BYTE PTR [eax]

; 474  :   }

  0000e	c3		 ret	 0
$L101986:

; 471  :     return _FILE_I_avail(_M_get) > 0
; 472  :       ? traits_type::to_int_type(*_FILE_I_next(_M_get))
; 473  :       : this->underflow();

  0000f	8b 01		 mov	 eax, DWORD PTR [ecx]
  00011	ff 60 1c	 jmp	 DWORD PTR [eax+28]
?sgetc@?$basic_streambuf@DV?$char_traits@D@_STL@@@_STL@@QAEHXZ ENDP ; _STL::basic_streambuf<char,_STL::char_traits<char> >::sgetc
_TEXT	ENDS
EXTRN	??1?$basic_streambuf@DV?$char_traits@D@_STL@@@_STL@@UAE@XZ:NEAR ; _STL::basic_streambuf<char,_STL::char_traits<char> >::~basic_streambuf<char,_STL::char_traits<char> >
; Function compile flags: /Ogsy
;	COMDAT ??_G?$basic_streambuf@DV?$char_traits@D@_STL@@@_STL@@UAEPAXI@Z
_TEXT	SEGMENT
___flags$ = 8						; size = 4
??_G?$basic_streambuf@DV?$char_traits@D@_STL@@@_STL@@UAEPAXI@Z PROC NEAR ; _STL::basic_streambuf<char,_STL::char_traits<char> >::`scalar deleting destructor', COMDAT
; _this$ = ecx
  00000	56		 push	 esi
  00001	8b f1		 mov	 esi, ecx
  00003	e8 00 00 00 00	 call	 ??1?$basic_streambuf@DV?$char_traits@D@_STL@@@_STL@@UAE@XZ ; _STL::basic_streambuf<char,_STL::char_traits<char> >::~basic_streambuf<char,_STL::char_traits<char> >
  00008	f6 44 24 08 01	 test	 BYTE PTR ___flags$[esp], 1
  0000d	74 07		 je	 SHORT $L81055
  0000f	56		 push	 esi
  00010	e8 00 00 00 00	 call	 ??3@YAXPAX@Z		; operator delete
  00015	59		 pop	 ecx
$L81055:
  00016	8b c6		 mov	 eax, esi
  00018	5e		 pop	 esi
  00019	c2 04 00	 ret	 4
??_G?$basic_streambuf@DV?$char_traits@D@_STL@@@_STL@@UAEPAXI@Z ENDP ; _STL::basic_streambuf<char,_STL::char_traits<char> >::`scalar deleting destructor'
_TEXT	ENDS
PUBLIC	?capacity@?$basic_string@DV?$char_traits@D@_STL@@V?$allocator@D@2@@_STL@@QBEIXZ ; _STL::basic_string<char,_STL::char_traits<char>,_STL::allocator<char> >::capacity
; Function compile flags: /Ogsy
; File c:\stlport-4.6.1\stlport\stl\_string.h
;	COMDAT ?capacity@?$basic_string@DV?$char_traits@D@_STL@@V?$allocator@D@2@@_STL@@QBEIXZ
_TEXT	SEGMENT
?capacity@?$basic_string@DV?$char_traits@D@_STL@@V?$allocator@D@2@@_STL@@QBEIXZ PROC NEAR ; _STL::basic_string<char,_STL::char_traits<char>,_STL::allocator<char> >::capacity, COMDAT
; _this$ = ecx

; 447  :   size_type capacity() const { return (this->_M_end_of_storage._M_data - this->_M_start) - 1; }

  00000	8b 41 08	 mov	 eax, DWORD PTR [ecx+8]
  00003	2b 01		 sub	 eax, DWORD PTR [ecx]
  00005	48		 dec	 eax
  00006	c3		 ret	 0
?capacity@?$basic_string@DV?$char_traits@D@_STL@@V?$allocator@D@2@@_STL@@QBEIXZ ENDP ; _STL::basic_string<char,_STL::char_traits<char>,_STL::allocator<char> >::capacity
_TEXT	ENDS
PUBLIC	?max_size@?$_String_base@DV?$allocator@D@_STL@@@_STL@@QBEIXZ ; _STL::_String_base<char,_STL::allocator<char> >::max_size
; Function compile flags: /Ogsy
;	COMDAT ?max_size@?$_String_base@DV?$allocator@D@_STL@@@_STL@@QBEIXZ
_TEXT	SEGMENT
?max_size@?$_String_base@DV?$allocator@D@_STL@@@_STL@@QBEIXZ PROC NEAR ; _STL::_String_base<char,_STL::allocator<char> >::max_size, COMDAT
; _this$ = ecx

; 126  :   size_t max_size() const { return (size_t(-1) / sizeof(_Tp)) - 1; }

  00000	6a fe		 push	 -2			; fffffffeH
  00002	58		 pop	 eax
  00003	c3		 ret	 0
?max_size@?$_String_base@DV?$allocator@D@_STL@@@_STL@@QBEIXZ ENDP ; _STL::_String_base<char,_STL::allocator<char> >::max_size
_TEXT	ENDS
PUBLIC	?_M_construct_null_aux@?$basic_string@DV?$char_traits@D@_STL@@V?$allocator@D@2@@_STL@@AAEXPADABU__true_type@2@@Z ; _STL::basic_string<char,_STL::char_traits<char>,_STL::allocator<char> >::_M_construct_null_aux
; Function compile flags: /Ogsy
;	COMDAT ?_M_construct_null_aux@?$basic_string@DV?$char_traits@D@_STL@@V?$allocator@D@2@@_STL@@AAEXPADABU__true_type@2@@Z
_TEXT	SEGMENT
___p$ = 8						; size = 4
___formal$ = 12						; size = 4
?_M_construct_null_aux@?$basic_string@DV?$char_traits@D@_STL@@V?$allocator@D@2@@_STL@@AAEXPADABU__true_type@2@@Z PROC NEAR ; _STL::basic_string<char,_STL::char_traits<char>,_STL::allocator<char> >::_M_construct_null_aux, COMDAT
; _this$ = ecx

; 332  :     *__p = 0;

  00000	8b 44 24 04	 mov	 eax, DWORD PTR ___p$[esp-4]
  00004	c6 00 00	 mov	 BYTE PTR [eax], 0

; 333  :   }

  00007	c2 08 00	 ret	 8
?_M_construct_null_aux@?$basic_string@DV?$char_traits@D@_STL@@V?$allocator@D@2@@_STL@@AAEXPADABU__true_type@2@@Z ENDP ; _STL::basic_string<char,_STL::char_traits<char>,_STL::allocator<char> >::_M_construct_null_aux
_TEXT	ENDS
PUBLIC	??$__distance@PBD@_STL@@YAHABQBD0ABUrandom_access_iterator_tag@0@@Z ; _STL::__distance<char const *>
; Function compile flags: /Ogsy
; File c:\stlport-4.6.1\stlport\stl\_iterator_base.h
;	COMDAT ??$__distance@PBD@_STL@@YAHABQBD0ABUrandom_access_iterator_tag@0@@Z
_TEXT	SEGMENT
___first$ = 8						; size = 4
___last$ = 12						; size = 4
___formal$ = 16						; size = 4
??$__distance@PBD@_STL@@YAHABQBD0ABUrandom_access_iterator_tag@0@@Z PROC NEAR ; _STL::__distance<char const *>, COMDAT

; 363  :   return __last - __first;

  00000	8b 44 24 08	 mov	 eax, DWORD PTR ___last$[esp-4]
  00004	8b 00		 mov	 eax, DWORD PTR [eax]
  00006	8b 4c 24 04	 mov	 ecx, DWORD PTR ___first$[esp-4]
  0000a	2b 01		 sub	 eax, DWORD PTR [ecx]

; 364  : }

  0000c	c3		 ret	 0
??$__distance@PBD@_STL@@YAHABQBD0ABUrandom_access_iterator_tag@0@@Z ENDP ; _STL::__distance<char const *>
_TEXT	ENDS
PUBLIC	?_M_throw_length_error@?$_String_base@DV?$allocator@D@_STL@@@_STL@@QBEXXZ ; _STL::_String_base<char,_STL::allocator<char> >::_M_throw_length_error
EXTRN	?__stl_throw_length_error@_STL@@YAXPBD@Z:NEAR	; _STL::__stl_throw_length_error
; Function compile flags: /Ogsy
; File c:\stlport-4.6.1\stlport\stl\_string.c
;	COMDAT ?_M_throw_length_error@?$_String_base@DV?$allocator@D@_STL@@@_STL@@QBEXXZ
_TEXT	SEGMENT
?_M_throw_length_error@?$_String_base@DV?$allocator@D@_STL@@@_STL@@QBEXXZ PROC NEAR ; _STL::_String_base<char,_STL::allocator<char> >::_M_throw_length_error, COMDAT
; _this$ = ecx

; 523  :     __stl_throw_length_error("basic_string");

  00000	68 00 00 00 00	 push	 OFFSET FLAT:??_C@_0N@GOPDCEEB@basic_string?$AA@
  00005	e8 00 00 00 00	 call	 ?__stl_throw_length_error@_STL@@YAXPBD@Z ; _STL::__stl_throw_length_error
  0000a	59		 pop	 ecx

; 524  : }

  0000b	c3		 ret	 0
?_M_throw_length_error@?$_String_base@DV?$allocator@D@_STL@@@_STL@@QBEXXZ ENDP ; _STL::_String_base<char,_STL::allocator<char> >::_M_throw_length_error
_TEXT	ENDS
PUBLIC	??$__distance@PAD@_STL@@YAHABQAD0ABUrandom_access_iterator_tag@0@@Z ; _STL::__distance<char *>
; Function compile flags: /Ogsy
; File c:\stlport-4.6.1\stlport\stl\_iterator_base.h
;	COMDAT ??$__distance@PAD@_STL@@YAHABQAD0ABUrandom_access_iterator_tag@0@@Z
_TEXT	SEGMENT
___first$ = 8						; size = 4
___last$ = 12						; size = 4
___formal$ = 16						; size = 4
??$__distance@PAD@_STL@@YAHABQAD0ABUrandom_access_iterator_tag@0@@Z PROC NEAR ; _STL::__distance<char *>, COMDAT

; 363  :   return __last - __first;

  00000	8b 44 24 08	 mov	 eax, DWORD PTR ___last$[esp-4]
  00004	8b 00		 mov	 eax, DWORD PTR [eax]
  00006	8b 4c 24 04	 mov	 ecx, DWORD PTR ___first$[esp-4]
  0000a	2b 01		 sub	 eax, DWORD PTR [ecx]

; 364  : }

  0000c	c3		 ret	 0
??$__distance@PAD@_STL@@YAHABQAD0ABUrandom_access_iterator_tag@0@@Z ENDP ; _STL::__distance<char *>
_TEXT	ENDS
PUBLIC	??$max@I@_STL@@YAABIABI0@Z			; _STL::max<unsigned int>
; Function compile flags: /Ogsy
; File c:\stlport-4.6.1\stlport\stl\_algobase.h
;	COMDAT ??$max@I@_STL@@YAABIABI0@Z
_TEXT	SEGMENT
___a$ = 8						; size = 4
___b$ = 12						; size = 4
??$max@I@_STL@@YAABIABI0@Z PROC NEAR			; _STL::max<unsigned int>, COMDAT

; 79   : inline const _Tp& (max)(const _Tp& __a, const _Tp& __b) {  return  __a < __b ? __b : __a; }

  00000	8b 44 24 04	 mov	 eax, DWORD PTR ___a$[esp-4]
  00004	8b 10		 mov	 edx, DWORD PTR [eax]
  00006	8b 4c 24 08	 mov	 ecx, DWORD PTR ___b$[esp-4]
  0000a	3b 11		 cmp	 edx, DWORD PTR [ecx]
  0000c	73 02		 jae	 SHORT $L102027
  0000e	8b c1		 mov	 eax, ecx
$L102027:
  00010	c3		 ret	 0
??$max@I@_STL@@YAABIABI0@Z ENDP				; _STL::max<unsigned int>
_TEXT	ENDS
PUBLIC	??$__find_if@PBDU?$_Eq_char_bound@V?$char_traits@D@_STL@@@_STL@@@_STL@@YAPBDPBD0U?$_Eq_char_bound@V?$char_traits@D@_STL@@@0@ABUrandom_access_iterator_tag@0@@Z ; _STL::__find_if<char const *,_STL::_Eq_char_bound<_STL::char_traits<char> > >
; Function compile flags: /Ogsy
; File c:\stlport-4.6.1\stlport\stl\_algobase.c
;	COMDAT ??$__find_if@PBDU?$_Eq_char_bound@V?$char_traits@D@_STL@@@_STL@@@_STL@@YAPBDPBD0U?$_Eq_char_bound@V?$char_traits@D@_STL@@@0@ABUrandom_access_iterator_tag@0@@Z
_TEXT	SEGMENT
___first$ = 8						; size = 4
___last$ = 12						; size = 4
___pred$ = 16						; size = 1
___formal$ = 20						; size = 4
??$__find_if@PBDU?$_Eq_char_bound@V?$char_traits@D@_STL@@@_STL@@@_STL@@YAPBDPBD0U?$_Eq_char_bound@V?$char_traits@D@_STL@@@0@ABUrandom_access_iterator_tag@0@@Z PROC NEAR ; _STL::__find_if<char const *,_STL::_Eq_char_bound<_STL::char_traits<char> > >, COMDAT

; 139  : {

  00000	55		 push	 ebp
  00001	8b ec		 mov	 ebp, esp

; 140  :   _STLP_DIFFERENCE_TYPE(_RandomAccessIter) __trip_count = (__last - __first) >> 2;

  00003	8b 4d 0c	 mov	 ecx, DWORD PTR ___last$[ebp]
  00006	8b 45 08	 mov	 eax, DWORD PTR ___first$[ebp]

; 141  : 
; 142  :   for ( ; __trip_count > 0 ; --__trip_count) {

  00009	8a 55 10	 mov	 dl, BYTE PTR ___pred$[ebp]
  0000c	2b c8		 sub	 ecx, eax
  0000e	c1 f9 02	 sar	 ecx, 2
  00011	eb 15		 jmp	 SHORT $L102093
$L101235:

; 143  :     if (__pred(*__first)) return __first;

  00013	38 10		 cmp	 BYTE PTR [eax], dl
  00015	74 34		 je	 SHORT $L101243

; 144  :     ++__first;

  00017	40		 inc	 eax

; 145  : 
; 146  :     if (__pred(*__first)) return __first;

  00018	38 10		 cmp	 BYTE PTR [eax], dl
  0001a	74 2f		 je	 SHORT $L101243

; 147  :     ++__first;

  0001c	40		 inc	 eax

; 148  : 
; 149  :     if (__pred(*__first)) return __first;

  0001d	38 10		 cmp	 BYTE PTR [eax], dl
  0001f	74 2a		 je	 SHORT $L101243

; 150  :     ++__first;

  00021	40		 inc	 eax

; 151  : 
; 152  :     if (__pred(*__first)) return __first;

  00022	38 10		 cmp	 BYTE PTR [eax], dl
  00024	74 25		 je	 SHORT $L101243

; 153  :     ++__first;

  00026	40		 inc	 eax
  00027	49		 dec	 ecx
$L102093:

; 141  : 
; 142  :   for ( ; __trip_count > 0 ; --__trip_count) {

  00028	85 c9		 test	 ecx, ecx
  0002a	7f e7		 jg	 SHORT $L101235

; 154  :   }
; 155  : 
; 156  :   switch(__last - __first) {

  0002c	8b 4d 0c	 mov	 ecx, DWORD PTR ___last$[ebp]
  0002f	2b c8		 sub	 ecx, eax
  00031	49		 dec	 ecx
  00032	74 10		 je	 SHORT $L101250
  00034	49		 dec	 ecx
  00035	74 08		 je	 SHORT $L101248
  00037	49		 dec	 ecx
  00038	75 0e		 jne	 SHORT $L101251

; 157  :   case 3:
; 158  :     if (__pred(*__first)) return __first;

  0003a	38 10		 cmp	 BYTE PTR [eax], dl
  0003c	74 0d		 je	 SHORT $L101243

; 159  :     ++__first;

  0003e	40		 inc	 eax
$L101248:

; 160  :   case 2:
; 161  :     if (__pred(*__first)) return __first;

  0003f	38 10		 cmp	 BYTE PTR [eax], dl
  00041	74 08		 je	 SHORT $L101243

; 162  :     ++__first;

  00043	40		 inc	 eax
$L101250:

; 163  :   case 1:
; 164  :     if (__pred(*__first)) return __first;

  00044	38 10		 cmp	 BYTE PTR [eax], dl
  00046	74 03		 je	 SHORT $L101243
$L101251:

; 165  :     //    ++__first;
; 166  :   case 0:
; 167  :   default:
; 168  :     return __last;

  00048	8b 45 0c	 mov	 eax, DWORD PTR ___last$[ebp]
$L101243:

; 169  :   }
; 170  : }

  0004b	5d		 pop	 ebp
  0004c	c3		 ret	 0
??$__find_if@PBDU?$_Eq_char_bound@V?$char_traits@D@_STL@@@_STL@@@_STL@@YAPBDPBD0U?$_Eq_char_bound@V?$char_traits@D@_STL@@@0@ABUrandom_access_iterator_tag@0@@Z ENDP ; _STL::__find_if<char const *,_STL::_Eq_char_bound<_STL::char_traits<char> > >
_TEXT	ENDS
PUBLIC	?_Ret@?$_BothPtrType@PADPAD@_STL@@SA?AU__true_type@2@XZ ; _STL::_BothPtrType<char *,char *>::_Ret
; Function compile flags: /Ogsy
; File c:\stlport-4.6.1\stlport\stl\type_traits.h
;	COMDAT ?_Ret@?$_BothPtrType@PADPAD@_STL@@SA?AU__true_type@2@XZ
_TEXT	SEGMENT
$T102096 = -1						; size = 1
?_Ret@?$_BothPtrType@PADPAD@_STL@@SA?AU__true_type@2@XZ PROC NEAR ; _STL::_BothPtrType<char *,char *>::_Ret, COMDAT

; 234  :   static __true_type _Ret() { return __true_type();} 

  00000	55		 push	 ebp
  00001	8b ec		 mov	 ebp, esp
  00003	51		 push	 ecx
  00004	57		 push	 edi
  00005	33 c0		 xor	 eax, eax
  00007	8d 7d ff	 lea	 edi, DWORD PTR $T102096[ebp]
  0000a	aa		 stosb
  0000b	8a 45 ff	 mov	 al, BYTE PTR $T102096[ebp]
  0000e	5f		 pop	 edi
  0000f	c9		 leave
  00010	c3		 ret	 0
?_Ret@?$_BothPtrType@PADPAD@_STL@@SA?AU__true_type@2@XZ ENDP ; _STL::_BothPtrType<char *,char *>::_Ret
_TEXT	ENDS
PUBLIC	?_Ret@?$_OKToMemCpy@DD@_STL@@SA?AU__true_type@2@XZ ; _STL::_OKToMemCpy<char,char>::_Ret
; Function compile flags: /Ogsy
;	COMDAT ?_Ret@?$_OKToMemCpy@DD@_STL@@SA?AU__true_type@2@XZ
_TEXT	SEGMENT
$T102099 = -1						; size = 1
?_Ret@?$_OKToMemCpy@DD@_STL@@SA?AU__true_type@2@XZ PROC NEAR ; _STL::_OKToMemCpy<char,char>::_Ret, COMDAT

; 361  :   static _Type _Ret() { return _Type(); }

  00000	55		 push	 ebp
  00001	8b ec		 mov	 ebp, esp
  00003	51		 push	 ecx
  00004	57		 push	 edi
  00005	33 c0		 xor	 eax, eax
  00007	8d 7d ff	 lea	 edi, DWORD PTR $T102099[ebp]
  0000a	aa		 stosb
  0000b	8a 45 ff	 mov	 al, BYTE PTR $T102099[ebp]
  0000e	5f		 pop	 edi
  0000f	c9		 leave
  00010	c3		 ret	 0
?_Ret@?$_OKToMemCpy@DD@_STL@@SA?AU__true_type@2@XZ ENDP	; _STL::_OKToMemCpy<char,char>::_Ret
_TEXT	ENDS
PUBLIC	??$_IsOKToMemCpy@DD@_STL@@YA?AU?$_OKToMemCpy@DD@0@PAD0@Z ; _STL::_IsOKToMemCpy<char,char>
; Function compile flags: /Ogsy
;	COMDAT ??$_IsOKToMemCpy@DD@_STL@@YA?AU?$_OKToMemCpy@DD@0@PAD0@Z
_TEXT	SEGMENT
$T102102 = -1						; size = 1
___formal$ = 8						; size = 4
___formal$ = 12						; size = 4
??$_IsOKToMemCpy@DD@_STL@@YA?AU?$_OKToMemCpy@DD@0@PAD0@Z PROC NEAR ; _STL::_IsOKToMemCpy<char,char>, COMDAT

; 365  : inline _OKToMemCpy<_Tp1, _Tp2> _IsOKToMemCpy(_Tp1*, _Tp2*)  {

  00000	55		 push	 ebp
  00001	8b ec		 mov	 ebp, esp
  00003	51		 push	 ecx
  00004	57		 push	 edi

; 366  :   return _OKToMemCpy<_Tp1, _Tp2>();

  00005	33 c0		 xor	 eax, eax
  00007	8d 7d ff	 lea	 edi, DWORD PTR $T102102[ebp]
  0000a	aa		 stosb
  0000b	8a 45 ff	 mov	 al, BYTE PTR $T102102[ebp]
  0000e	5f		 pop	 edi

; 367  : }

  0000f	c9		 leave
  00010	c3		 ret	 0
??$_IsOKToMemCpy@DD@_STL@@YA?AU?$_OKToMemCpy@DD@0@PAD0@Z ENDP ; _STL::_IsOKToMemCpy<char,char>
_TEXT	ENDS
PUBLIC	??$__copy_ptrs@PADPAD@_STL@@YAPADPAD00ABU__true_type@0@@Z ; _STL::__copy_ptrs<char *,char *>
; Function compile flags: /Ogsy
; File c:\stlport-4.6.1\stlport\stl\_algobase.h
;	COMDAT ??$__copy_ptrs@PADPAD@_STL@@YAPADPAD00ABU__true_type@0@@Z
_TEXT	SEGMENT
___first$ = 8						; size = 4
___last$ = 12						; size = 4
___result$ = 16						; size = 4
___formal$ = 20						; size = 4
??$__copy_ptrs@PADPAD@_STL@@YAPADPAD00ABU__true_type@0@@Z PROC NEAR ; _STL::__copy_ptrs<char *,char *>, COMDAT

; 195  : // we know they all pointers, so this cast is OK 
; 196  :   //  return (_OutputIter)__copy_trivial(&(*__first), &(*__last), &(*__result));
; 197  :   return (_OutputIter)__copy_trivial(__first, __last, __result);

  00000	ff 74 24 0c	 push	 DWORD PTR ___result$[esp-4]
  00004	ff 74 24 0c	 push	 DWORD PTR ___last$[esp]
  00008	ff 74 24 0c	 push	 DWORD PTR ___first$[esp+4]
  0000c	e8 00 00 00 00	 call	 ?__copy_trivial@_STL@@YAPAXPBX0PAX@Z ; _STL::__copy_trivial
  00011	83 c4 0c	 add	 esp, 12			; 0000000cH

; 198  : }

  00014	c3		 ret	 0
??$__copy_ptrs@PADPAD@_STL@@YAPADPAD00ABU__true_type@0@@Z ENDP ; _STL::__copy_ptrs<char *,char *>
_TEXT	ENDS
PUBLIC	?unshift@?$codecvt@DDH@_STL@@QBE?AW4result@codecvt_base@2@AAHPAD1AAPAD@Z ; _STL::codecvt<char,char,int>::unshift
; Function compile flags: /Ogsy
; File c:\stlport-4.6.1\stlport\stl\_codecvt.h
;	COMDAT ?unshift@?$codecvt@DDH@_STL@@QBE?AW4result@codecvt_base@2@AAHPAD1AAPAD@Z
_TEXT	SEGMENT
___state$ = 8						; size = 4
___to$ = 12						; size = 4
___to_limit$ = 16					; size = 4
___to_next$ = 20					; size = 4
?unshift@?$codecvt@DDH@_STL@@QBE?AW4result@codecvt_base@2@AAHPAD1AAPAD@Z PROC NEAR ; _STL::codecvt<char,char,int>::unshift, COMDAT
; _this$ = ecx

; 76   :     { return do_unshift(__state, __to, __to_limit, __to_next); }

  00000	8b 01		 mov	 eax, DWORD PTR [ecx]
  00002	ff 60 0c	 jmp	 DWORD PTR [eax+12]
?unshift@?$codecvt@DDH@_STL@@QBE?AW4result@codecvt_base@2@AAHPAD1AAPAD@Z ENDP ; _STL::codecvt<char,char,int>::unshift
_TEXT	ENDS
PUBLIC	?encoding@?$codecvt@DDH@_STL@@QBEHXZ		; _STL::codecvt<char,char,int>::encoding
; Function compile flags: /Ogsy
;	COMDAT ?encoding@?$codecvt@DDH@_STL@@QBEHXZ
_TEXT	SEGMENT
?encoding@?$codecvt@DDH@_STL@@QBEHXZ PROC NEAR		; _STL::codecvt<char,char,int>::encoding, COMDAT
; _this$ = ecx

; 90   :   int encoding() const _STLP_NOTHROW { return do_encoding(); }

  00000	8b 01		 mov	 eax, DWORD PTR [ecx]
  00002	ff 60 10	 jmp	 DWORD PTR [eax+16]
?encoding@?$codecvt@DDH@_STL@@QBEHXZ ENDP		; _STL::codecvt<char,char,int>::encoding
_TEXT	ENDS
PUBLIC	?always_noconv@?$codecvt@DDH@_STL@@QBE_NXZ	; _STL::codecvt<char,char,int>::always_noconv
; Function compile flags: /Ogsy
;	COMDAT ?always_noconv@?$codecvt@DDH@_STL@@QBE_NXZ
_TEXT	SEGMENT
?always_noconv@?$codecvt@DDH@_STL@@QBE_NXZ PROC NEAR	; _STL::codecvt<char,char,int>::always_noconv, COMDAT
; _this$ = ecx

; 92   :   bool always_noconv() const _STLP_NOTHROW { return do_always_noconv(); }

  00000	8b 01		 mov	 eax, DWORD PTR [ecx]
  00002	ff 60 14	 jmp	 DWORD PTR [eax+20]
?always_noconv@?$codecvt@DDH@_STL@@QBE_NXZ ENDP		; _STL::codecvt<char,char,int>::always_noconv
_TEXT	ENDS
PUBLIC	?max_length@?$codecvt@DDH@_STL@@QBEHXZ		; _STL::codecvt<char,char,int>::max_length
; Function compile flags: /Ogsy
;	COMDAT ?max_length@?$codecvt@DDH@_STL@@QBEHXZ
_TEXT	SEGMENT
?max_length@?$codecvt@DDH@_STL@@QBEHXZ PROC NEAR	; _STL::codecvt<char,char,int>::max_length, COMDAT
; _this$ = ecx

; 99   :   int max_length() const _STLP_NOTHROW { return do_max_length(); }

  00000	8b 01		 mov	 eax, DWORD PTR [ecx]
  00002	ff 60 1c	 jmp	 DWORD PTR [eax+28]
?max_length@?$codecvt@DDH@_STL@@QBEHXZ ENDP		; _STL::codecvt<char,char,int>::max_length
_TEXT	ENDS
PUBLIC	?__is_open@_Filebuf_base@_STL@@QBE_NXZ		; _STL::_Filebuf_base::__is_open
; Function compile flags: /Ogsy
; File c:\stlport-4.6.1\stlport\stl\_fstream.h
;	COMDAT ?__is_open@_Filebuf_base@_STL@@QBE_NXZ
_TEXT	SEGMENT
?__is_open@_Filebuf_base@_STL@@QBE_NXZ PROC NEAR	; _STL::_Filebuf_base::__is_open, COMDAT
; _this$ = ecx

; 150  :   bool __is_open()      const { return (_M_is_open !=0 ); } 

  00000	33 c0		 xor	 eax, eax
  00002	38 41 0c	 cmp	 BYTE PTR [ecx+12], al
  00005	0f 95 c0	 setne	 al
  00008	c3		 ret	 0
?__is_open@_Filebuf_base@_STL@@QBE_NXZ ENDP		; _STL::_Filebuf_base::__is_open
_TEXT	ENDS
PUBLIC	?eof@?$__char_traits_base@DH@_STL@@SAHXZ	; _STL::__char_traits_base<char,int>::eof
; Function compile flags: /Ogsy
; File c:\stlport-4.6.1\stlport\stl\char_traits.h
;	COMDAT ?eof@?$__char_traits_base@DH@_STL@@SAHXZ
_TEXT	SEGMENT
?eof@?$__char_traits_base@DH@_STL@@SAHXZ PROC NEAR	; _STL::__char_traits_base<char,int>::eof, COMDAT

; 197  :     return (int_type)-1;

  00000	83 c8 ff	 or	 eax, -1

; 198  :     //    return __STATIC_CAST(int_type,-1);
; 199  :   }

  00003	c3		 ret	 0
?eof@?$__char_traits_base@DH@_STL@@SAHXZ ENDP		; _STL::__char_traits_base<char,int>::eof
_TEXT	ENDS
PUBLIC	??0?$allocator@D@_STL@@QAE@XZ			; _STL::allocator<char>::allocator<char>
; Function compile flags: /Ogsy
; File c:\stlport-4.6.1\stlport\stl\_alloc.h
;	COMDAT ??0?$allocator@D@_STL@@QAE@XZ
_TEXT	SEGMENT
??0?$allocator@D@_STL@@QAE@XZ PROC NEAR			; _STL::allocator<char>::allocator<char>, COMDAT
; _this$ = ecx

; 345  :   allocator() _STLP_NOTHROW {}

  00000	8b c1		 mov	 eax, ecx
  00002	c3		 ret	 0
??0?$allocator@D@_STL@@QAE@XZ ENDP			; _STL::allocator<char>::allocator<char>
_TEXT	ENDS
PUBLIC	??1?$allocator@D@_STL@@QAE@XZ			; _STL::allocator<char>::~allocator<char>
; Function compile flags: /Ogsy
;	COMDAT ??1?$allocator@D@_STL@@QAE@XZ
_TEXT	SEGMENT
??1?$allocator@D@_STL@@QAE@XZ PROC NEAR			; _STL::allocator<char>::~allocator<char>, COMDAT
; _this$ = ecx

; 350  :   ~allocator() _STLP_NOTHROW {}

  00000	c3		 ret	 0
??1?$allocator@D@_STL@@QAE@XZ ENDP			; _STL::allocator<char>::~allocator<char>
_TEXT	ENDS
PUBLIC	??1?$basic_istream@DV?$char_traits@D@_STL@@@_STL@@UAE@XZ ; _STL::basic_istream<char,_STL::char_traits<char> >::~basic_istream<char,_STL::char_traits<char> >
PUBLIC	??_7?$basic_istream@DV?$char_traits@D@_STL@@@_STL@@6B@ ; _STL::basic_istream<char,_STL::char_traits<char> >::`vftable'
PUBLIC	??_G?$basic_istream@DV?$char_traits@D@_STL@@@_STL@@UAEPAXI@Z ; _STL::basic_istream<char,_STL::char_traits<char> >::`scalar deleting destructor'
PUBLIC	??_R4?$basic_istream@DV?$char_traits@D@_STL@@@_STL@@6B@ ; _STL::basic_istream<char,_STL::char_traits<char> >::`RTTI Complete Object Locator'
PUBLIC	??_R0?AV?$basic_istream@DV?$char_traits@D@_STL@@@_STL@@@8 ; _STL::basic_istream<char,_STL::char_traits<char> > `RTTI Type Descriptor'
PUBLIC	??_R3?$basic_istream@DV?$char_traits@D@_STL@@@_STL@@8 ; _STL::basic_istream<char,_STL::char_traits<char> >::`RTTI Class Hierarchy Descriptor'
PUBLIC	??_R2?$basic_istream@DV?$char_traits@D@_STL@@@_STL@@8 ; _STL::basic_istream<char,_STL::char_traits<char> >::`RTTI Base Class Array'
PUBLIC	??_R1A@?0A@A@?$basic_istream@DV?$char_traits@D@_STL@@@_STL@@8 ; _STL::basic_istream<char,_STL::char_traits<char> >::`RTTI Base Class Descriptor at (0,-1,0,0)'
PUBLIC	??_R1A@A@3BA@?$basic_ios@DV?$char_traits@D@_STL@@@_STL@@8 ; _STL::basic_ios<char,_STL::char_traits<char> >::`RTTI Base Class Descriptor at (0,0,4,16)'
PUBLIC	??_R1A@A@3A@ios_base@_STL@@8			; _STL::ios_base::`RTTI Base Class Descriptor at (0,0,4,0)'
EXTRN	??_E?$basic_istream@DV?$char_traits@D@_STL@@@_STL@@UAEPAXI@Z:NEAR ; _STL::basic_istream<char,_STL::char_traits<char> >::`vector deleting destructor'
;	COMDAT ??_7?$basic_istream@DV?$char_traits@D@_STL@@@_STL@@6B@
; File c:\stlport-4.6.1\stlport\stl\_istream.h
CONST	SEGMENT
??_7?$basic_istream@DV?$char_traits@D@_STL@@@_STL@@6B@ DD FLAT:??_R4?$basic_istream@DV?$char_traits@D@_STL@@@_STL@@6B@ ; _STL::basic_istream<char,_STL::char_traits<char> >::`vftable'
	DD	FLAT:??_E?$basic_istream@DV?$char_traits@D@_STL@@@_STL@@UAEPAXI@Z
CONST	ENDS
;	COMDAT ??_R4?$basic_istream@DV?$char_traits@D@_STL@@@_STL@@6B@
rdata$r	SEGMENT
??_R4?$basic_istream@DV?$char_traits@D@_STL@@@_STL@@6B@ DD 00H ; _STL::basic_istream<char,_STL::char_traits<char> >::`RTTI Complete Object Locator'
	DD	08H
	DD	00H
	DD	FLAT:??_R0?AV?$basic_istream@DV?$char_traits@D@_STL@@@_STL@@@8
	DD	FLAT:??_R3?$basic_istream@DV?$char_traits@D@_STL@@@_STL@@8
rdata$r	ENDS
;	COMDAT ??_R0?AV?$basic_istream@DV?$char_traits@D@_STL@@@_STL@@@8
_DATA	SEGMENT
??_R0?AV?$basic_istream@DV?$char_traits@D@_STL@@@_STL@@@8 DD FLAT:??_7type_info@@6B@ ; _STL::basic_istream<char,_STL::char_traits<char> > `RTTI Type Descriptor'
	DD	00H
	DB	'.?AV?$basic_istream@DV?$char_traits@D@_STL@@@_STL@@', 00H
_DATA	ENDS
;	COMDAT ??_R3?$basic_istream@DV?$char_traits@D@_STL@@@_STL@@8
rdata$r	SEGMENT
??_R3?$basic_istream@DV?$char_traits@D@_STL@@@_STL@@8 DD 00H ; _STL::basic_istream<char,_STL::char_traits<char> >::`RTTI Class Hierarchy Descriptor'
	DD	00H
	DD	03H
	DD	FLAT:??_R2?$basic_istream@DV?$char_traits@D@_STL@@@_STL@@8
rdata$r	ENDS
;	COMDAT ??_R2?$basic_istream@DV?$char_traits@D@_STL@@@_STL@@8
rdata$r	SEGMENT
??_R2?$basic_istream@DV?$char_traits@D@_STL@@@_STL@@8 DD FLAT:??_R1A@?0A@A@?$basic_istream@DV?$char_traits@D@_STL@@@_STL@@8 ; _STL::basic_istream<char,_STL::char_traits<char> >::`RTTI Base Class Array'
	DD	FLAT:??_R1A@A@3BA@?$basic_ios@DV?$char_traits@D@_STL@@@_STL@@8
	DD	FLAT:??_R1A@A@3A@ios_base@_STL@@8
rdata$r	ENDS
;	COMDAT ??_R1A@?0A@A@?$basic_istream@DV?$char_traits@D@_STL@@@_STL@@8
rdata$r	SEGMENT
??_R1A@?0A@A@?$basic_istream@DV?$char_traits@D@_STL@@@_STL@@8 DD FLAT:??_R0?AV?$basic_istream@DV?$char_traits@D@_STL@@@_STL@@@8 ; _STL::basic_istream<char,_STL::char_traits<char> >::`RTTI Base Class Descriptor at (0,-1,0,0)'
	DD	02H
	DD	00H
	DD	0ffffffffH
	DD	00H
	DD	00H
rdata$r	ENDS
;	COMDAT ??_R1A@A@3BA@?$basic_ios@DV?$char_traits@D@_STL@@@_STL@@8
rdata$r	SEGMENT
??_R1A@A@3BA@?$basic_ios@DV?$char_traits@D@_STL@@@_STL@@8 DD FLAT:??_R0?AV?$basic_ios@DV?$char_traits@D@_STL@@@_STL@@@8 ; _STL::basic_ios<char,_STL::char_traits<char> >::`RTTI Base Class Descriptor at (0,0,4,16)'
	DD	01H
	DD	00H
	DD	00H
	DD	04H
	DD	010H
rdata$r	ENDS
;	COMDAT ??_R1A@A@3A@ios_base@_STL@@8
rdata$r	SEGMENT
??_R1A@A@3A@ios_base@_STL@@8 DD FLAT:??_R0?AVios_base@_STL@@@8 ; _STL::ios_base::`RTTI Base Class Descriptor at (0,0,4,0)'
	DD	00H
	DD	00H
	DD	00H
	DD	04H
	DD	00H
; Function compile flags: /Ogsy
rdata$r	ENDS
;	COMDAT ??1?$basic_istream@DV?$char_traits@D@_STL@@@_STL@@UAE@XZ
_TEXT	SEGMENT
??1?$basic_istream@DV?$char_traits@D@_STL@@@_STL@@UAE@XZ PROC NEAR ; _STL::basic_istream<char,_STL::char_traits<char> >::~basic_istream<char,_STL::char_traits<char> >, COMDAT
; _this$ = ecx

; 87   :   ~basic_istream() {};

  00000	8b 41 f8	 mov	 eax, DWORD PTR [ecx-8]
  00003	8b 40 04	 mov	 eax, DWORD PTR [eax+4]
  00006	c7 44 08 f8 00
	00 00 00	 mov	 DWORD PTR [eax+ecx-8], OFFSET FLAT:??_7?$basic_istream@DV?$char_traits@D@_STL@@@_STL@@6B@
  0000e	c3		 ret	 0
??1?$basic_istream@DV?$char_traits@D@_STL@@@_STL@@UAE@XZ ENDP ; _STL::basic_istream<char,_STL::char_traits<char> >::~basic_istream<char,_STL::char_traits<char> >
_TEXT	ENDS
PUBLIC	??1?$basic_ios@DV?$char_traits@D@_STL@@@_STL@@UAE@XZ ; _STL::basic_ios<char,_STL::char_traits<char> >::~basic_ios<char,_STL::char_traits<char> >
EXTRN	??1ios_base@_STL@@UAE@XZ:NEAR			; _STL::ios_base::~ios_base
; Function compile flags: /Ogsy
; File c:\stlport-4.6.1\stlport\stl\_ios.h
;	COMDAT ??1?$basic_ios@DV?$char_traits@D@_STL@@@_STL@@UAE@XZ
_TEXT	SEGMENT
??1?$basic_ios@DV?$char_traits@D@_STL@@@_STL@@UAE@XZ PROC NEAR ; _STL::basic_ios<char,_STL::char_traits<char> >::~basic_ios<char,_STL::char_traits<char> >, COMDAT
; _this$ = ecx

; 58   :   virtual ~basic_ios() {}

  00000	c7 01 00 00 00
	00		 mov	 DWORD PTR [ecx], OFFSET FLAT:??_7?$basic_ios@DV?$char_traits@D@_STL@@@_STL@@6B@
  00006	e9 00 00 00 00	 jmp	 ??1ios_base@_STL@@UAE@XZ ; _STL::ios_base::~ios_base
??1?$basic_ios@DV?$char_traits@D@_STL@@@_STL@@UAE@XZ ENDP ; _STL::basic_ios<char,_STL::char_traits<char> >::~basic_ios<char,_STL::char_traits<char> >
_TEXT	ENDS
PUBLIC	?_M_write@?$basic_filebuf@DV?$char_traits@D@_STL@@@_STL@@QAE_NPADH@Z ; _STL::basic_filebuf<char,_STL::char_traits<char> >::_M_write
EXTRN	?_M_write@_Filebuf_base@_STL@@QAE_NPADH@Z:NEAR	; _STL::_Filebuf_base::_M_write
; Function compile flags: /Ogsy
; File c:\stlport-4.6.1\stlport\stl\_fstream.h
;	COMDAT ?_M_write@?$basic_filebuf@DV?$char_traits@D@_STL@@@_STL@@QAE_NPADH@Z
_TEXT	SEGMENT
___buf$ = 8						; size = 4
___n$ = 12						; size = 4
?_M_write@?$basic_filebuf@DV?$char_traits@D@_STL@@@_STL@@QAE_NPADH@Z PROC NEAR ; _STL::basic_filebuf<char,_STL::char_traits<char> >::_M_write, COMDAT
; _this$ = ecx

; 349  :   bool _M_write(char* __buf,  ptrdiff_t __n) {return _M_base._M_write(__buf, __n); }

  00000	83 c1 54	 add	 ecx, 84			; 00000054H
  00003	e9 00 00 00 00	 jmp	 ?_M_write@_Filebuf_base@_STL@@QAE_NPADH@Z ; _STL::_Filebuf_base::_M_write
?_M_write@?$basic_filebuf@DV?$char_traits@D@_STL@@@_STL@@QAE_NPADH@Z ENDP ; _STL::basic_filebuf<char,_STL::char_traits<char> >::_M_write
; Function compile flags: /Ogsy
_TEXT	ENDS
;	COMDAT ??_G?$basic_ios@DV?$char_traits@D@_STL@@@_STL@@UAEPAXI@Z
_TEXT	SEGMENT
___flags$ = 8						; size = 4
??_G?$basic_ios@DV?$char_traits@D@_STL@@@_STL@@UAEPAXI@Z PROC NEAR ; _STL::basic_ios<char,_STL::char_traits<char> >::`scalar deleting destructor', COMDAT
; _this$ = ecx
  00000	56		 push	 esi
  00001	8b f1		 mov	 esi, ecx
  00003	e8 00 00 00 00	 call	 ??1?$basic_ios@DV?$char_traits@D@_STL@@@_STL@@UAE@XZ ; _STL::basic_ios<char,_STL::char_traits<char> >::~basic_ios<char,_STL::char_traits<char> >
  00008	f6 44 24 08 01	 test	 BYTE PTR ___flags$[esp], 1
  0000d	74 07		 je	 SHORT $L98548
  0000f	56		 push	 esi
  00010	e8 00 00 00 00	 call	 ??3@YAXPAX@Z		; operator delete
  00015	59		 pop	 ecx
$L98548:
  00016	8b c6		 mov	 eax, esi
  00018	5e		 pop	 esi
  00019	c2 04 00	 ret	 4
??_G?$basic_ios@DV?$char_traits@D@_STL@@@_STL@@UAEPAXI@Z ENDP ; _STL::basic_ios<char,_STL::char_traits<char> >::`scalar deleting destructor'
_TEXT	ENDS
PUBLIC	??1?$_STLP_alloc_proxy@PADDV?$allocator@D@_STL@@@_STL@@QAE@XZ ; _STL::_STLP_alloc_proxy<char *,char,_STL::allocator<char> >::~_STLP_alloc_proxy<char *,char,_STL::allocator<char> >
; Function compile flags: /Ogsy
;	COMDAT ??1?$_STLP_alloc_proxy@PADDV?$allocator@D@_STL@@@_STL@@QAE@XZ
_TEXT	SEGMENT
??1?$_STLP_alloc_proxy@PADDV?$allocator@D@_STL@@@_STL@@QAE@XZ PROC NEAR ; _STL::_STLP_alloc_proxy<char *,char,_STL::allocator<char> >::~_STLP_alloc_proxy<char *,char,_STL::allocator<char> >, COMDAT
; _this$ = ecx
  00000	c3		 ret	 0
??1?$_STLP_alloc_proxy@PADDV?$allocator@D@_STL@@@_STL@@QAE@XZ ENDP ; _STL::_STLP_alloc_proxy<char *,char,_STL::allocator<char> >::~_STLP_alloc_proxy<char *,char,_STL::allocator<char> >
_TEXT	ENDS
PUBLIC	?allocate@?$__node_alloc@$00$0A@@_STL@@SAPAXI@Z	; _STL::__node_alloc<1,0>::allocate
EXTRN	?_M_allocate@?$__node_alloc@$00$0A@@_STL@@CAPAXI@Z:NEAR ; _STL::__node_alloc<1,0>::_M_allocate
; Function compile flags: /Ogsy
; File c:\stlport-4.6.1\stlport\stl\_alloc.h
;	COMDAT ?allocate@?$__node_alloc@$00$0A@@_STL@@SAPAXI@Z
_TEXT	SEGMENT
___n$ = 8						; size = 4
?allocate@?$__node_alloc@$00$0A@@_STL@@SAPAXI@Z PROC NEAR ; _STL::__node_alloc<1,0>::allocate, COMDAT

; 251  :   static void * _STLP_CALL allocate(size_t __n) { return (__n > (size_t)_MAX_BYTES) ?  __stl_new(__n) : _M_allocate(__n); }

  00000	8b 44 24 04	 mov	 eax, DWORD PTR ___n$[esp-4]
  00004	3d 80 00 00 00	 cmp	 eax, 128		; 00000080H
  00009	50		 push	 eax
  0000a	76 07		 jbe	 SHORT $L102156
  0000c	e8 00 00 00 00	 call	 ??2@YAPAXI@Z		; operator new
  00011	59		 pop	 ecx
  00012	c3		 ret	 0
$L102156:
  00013	e8 00 00 00 00	 call	 ?_M_allocate@?$__node_alloc@$00$0A@@_STL@@CAPAXI@Z ; _STL::__node_alloc<1,0>::_M_allocate
  00018	59		 pop	 ecx
  00019	c3		 ret	 0
?allocate@?$__node_alloc@$00$0A@@_STL@@SAPAXI@Z ENDP	; _STL::__node_alloc<1,0>::allocate
_TEXT	ENDS
PUBLIC	?deallocate@?$__node_alloc@$00$0A@@_STL@@SAXPAXI@Z ; _STL::__node_alloc<1,0>::deallocate
EXTRN	?_M_deallocate@?$__node_alloc@$00$0A@@_STL@@CAXPAXI@Z:NEAR ; _STL::__node_alloc<1,0>::_M_deallocate
; Function compile flags: /Ogsy
;	COMDAT ?deallocate@?$__node_alloc@$00$0A@@_STL@@SAXPAXI@Z
_TEXT	SEGMENT
___p$ = 8						; size = 4
___n$ = 12						; size = 4
?deallocate@?$__node_alloc@$00$0A@@_STL@@SAXPAXI@Z PROC NEAR ; _STL::__node_alloc<1,0>::deallocate, COMDAT

; 253  :   static void _STLP_CALL deallocate(void *__p, size_t __n) { if (__n > (size_t)_MAX_BYTES) __stl_delete(__p); else _M_deallocate(__p, __n); }

  00000	81 7c 24 08 80
	00 00 00	 cmp	 DWORD PTR ___n$[esp-4], 128 ; 00000080H
  00008	76 0b		 jbe	 SHORT $L98677
  0000a	ff 74 24 04	 push	 DWORD PTR ___p$[esp-4]
  0000e	e8 00 00 00 00	 call	 ??3@YAXPAX@Z		; operator delete
  00013	59		 pop	 ecx
  00014	c3		 ret	 0
$L98677:
  00015	e9 00 00 00 00	 jmp	 ?_M_deallocate@?$__node_alloc@$00$0A@@_STL@@CAXPAXI@Z ; _STL::__node_alloc<1,0>::_M_deallocate
?deallocate@?$__node_alloc@$00$0A@@_STL@@SAXPAXI@Z ENDP	; _STL::__node_alloc<1,0>::deallocate
_TEXT	ENDS
PUBLIC	??$min@I@_STL@@YAABIABI0@Z			; _STL::min<unsigned int>
; Function compile flags: /Ogsy
; File c:\stlport-4.6.1\stlport\stl\_algobase.h
;	COMDAT ??$min@I@_STL@@YAABIABI0@Z
_TEXT	SEGMENT
___a$ = 8						; size = 4
___b$ = 12						; size = 4
??$min@I@_STL@@YAABIABI0@Z PROC NEAR			; _STL::min<unsigned int>, COMDAT

; 77   : inline const _Tp& (min)(const _Tp& __a, const _Tp& __b) { return __b < __a ? __b : __a; }

  00000	8b 44 24 08	 mov	 eax, DWORD PTR ___b$[esp-4]
  00004	8b 10		 mov	 edx, DWORD PTR [eax]
  00006	8b 4c 24 04	 mov	 ecx, DWORD PTR ___a$[esp-4]
  0000a	3b 11		 cmp	 edx, DWORD PTR [ecx]
  0000c	72 02		 jb	 SHORT $L102173
  0000e	8b c1		 mov	 eax, ecx
$L102173:
  00010	c3		 ret	 0
??$min@I@_STL@@YAABIABI0@Z ENDP				; _STL::min<unsigned int>
_TEXT	ENDS
PUBLIC	??$min@H@_STL@@YAABHABH0@Z			; _STL::min<int>
; Function compile flags: /Ogsy
;	COMDAT ??$min@H@_STL@@YAABHABH0@Z
_TEXT	SEGMENT
___a$ = 8						; size = 4
___b$ = 12						; size = 4
??$min@H@_STL@@YAABHABH0@Z PROC NEAR			; _STL::min<int>, COMDAT

; 77   : inline const _Tp& (min)(const _Tp& __a, const _Tp& __b) { return __b < __a ? __b : __a; }

  00000	8b 44 24 08	 mov	 eax, DWORD PTR ___b$[esp-4]
  00004	8b 10		 mov	 edx, DWORD PTR [eax]
  00006	8b 4c 24 04	 mov	 ecx, DWORD PTR ___a$[esp-4]
  0000a	3b 11		 cmp	 edx, DWORD PTR [ecx]
  0000c	7c 02		 jl	 SHORT $L102179
  0000e	8b c1		 mov	 eax, ecx
$L102179:
  00010	c3		 ret	 0
??$min@H@_STL@@YAABHABH0@Z ENDP				; _STL::min<int>
_TEXT	ENDS
PUBLIC	?get_allocator@?$basic_string@DV?$char_traits@D@_STL@@V?$allocator@D@2@@_STL@@QBE?AV?$allocator@D@2@XZ ; _STL::basic_string<char,_STL::char_traits<char>,_STL::allocator<char> >::get_allocator
; Function compile flags: /Ogsy
; File c:\stlport-4.6.1\stlport\stl\_string.h
;	COMDAT ?get_allocator@?$basic_string@DV?$char_traits@D@_STL@@V?$allocator@D@2@@_STL@@QBE?AV?$allocator@D@2@XZ
_TEXT	SEGMENT
___$ReturnUdt$ = 8					; size = 4
?get_allocator@?$basic_string@DV?$char_traits@D@_STL@@V?$allocator@D@2@@_STL@@QBE?AV?$allocator@D@2@XZ PROC NEAR ; _STL::basic_string<char,_STL::char_traits<char>,_STL::allocator<char> >::get_allocator, COMDAT
; _this$ = ecx

; 216  :     return _STLP_CONVERT_ALLOCATOR((const allocator_type&)this->_M_end_of_storage, _CharT);

  00000	8b 44 24 04	 mov	 eax, DWORD PTR ___$ReturnUdt$[esp-4]

; 217  :   }

  00004	c2 04 00	 ret	 4
?get_allocator@?$basic_string@DV?$char_traits@D@_STL@@V?$allocator@D@2@@_STL@@QBE?AV?$allocator@D@2@XZ ENDP ; _STL::basic_string<char,_STL::char_traits<char>,_STL::allocator<char> >::get_allocator
_TEXT	ENDS
PUBLIC	?_M_terminate_string@?$basic_string@DV?$char_traits@D@_STL@@V?$allocator@D@2@@_STL@@AAEXXZ ; _STL::basic_string<char,_STL::char_traits<char>,_STL::allocator<char> >::_M_terminate_string
; Function compile flags: /Ogsy
;	COMDAT ?_M_terminate_string@?$basic_string@DV?$char_traits@D@_STL@@V?$allocator@D@2@@_STL@@AAEXXZ
_TEXT	SEGMENT
?_M_terminate_string@?$basic_string@DV?$char_traits@D@_STL@@V?$allocator@D@2@@_STL@@AAEXXZ PROC NEAR ; _STL::basic_string<char,_STL::char_traits<char>,_STL::allocator<char> >::_M_terminate_string, COMDAT
; _this$ = ecx

; 355  :     _M_terminate_string_aux(_Char_Is_Integral());

  00000	8b 41 04	 mov	 eax, DWORD PTR [ecx+4]
  00003	c6 00 00	 mov	 BYTE PTR [eax], 0

; 356  :   }

  00006	c3		 ret	 0
?_M_terminate_string@?$basic_string@DV?$char_traits@D@_STL@@V?$allocator@D@2@@_STL@@AAEXXZ ENDP ; _STL::basic_string<char,_STL::char_traits<char>,_STL::allocator<char> >::_M_terminate_string
_TEXT	ENDS
PUBLIC	?allocate@?$allocator@D@_STL@@QAEPADIPBX@Z	; _STL::allocator<char>::allocate
; Function compile flags: /Ogsy
; File c:\stlport-4.6.1\stlport\stl\_alloc.h
;	COMDAT ?allocate@?$allocator@D@_STL@@QAEPADIPBX@Z
_TEXT	SEGMENT
___n$ = 8						; size = 4
___formal$ = 12						; size = 4
?allocate@?$allocator@D@_STL@@QAEPADIPBX@Z PROC NEAR	; _STL::allocator<char>::allocate, COMDAT
; _this$ = ecx

; 355  :     return __n != 0 ? __REINTERPRET_CAST(value_type*,__sgi_alloc::allocate(__n * sizeof(value_type))) : 0;

  00000	33 c0		 xor	 eax, eax
  00002	39 44 24 04	 cmp	 DWORD PTR ___n$[esp-4], eax
  00006	74 0a		 je	 SHORT $L102194
  00008	ff 74 24 04	 push	 DWORD PTR ___n$[esp-4]
  0000c	e8 00 00 00 00	 call	 ?allocate@?$__node_alloc@$00$0A@@_STL@@SAPAXI@Z ; _STL::__node_alloc<1,0>::allocate
  00011	59		 pop	 ecx
$L102194:

; 356  :   }

  00012	c2 08 00	 ret	 8
?allocate@?$allocator@D@_STL@@QAEPADIPBX@Z ENDP		; _STL::allocator<char>::allocate
_TEXT	ENDS
PUBLIC	?is_open@?$basic_filebuf@DV?$char_traits@D@_STL@@@_STL@@QBE_NXZ ; _STL::basic_filebuf<char,_STL::char_traits<char> >::is_open
; Function compile flags: /Ogsy
; File c:\stlport-4.6.1\stlport\stl\_fstream.h
;	COMDAT ?is_open@?$basic_filebuf@DV?$char_traits@D@_STL@@@_STL@@QBE_NXZ
_TEXT	SEGMENT
?is_open@?$basic_filebuf@DV?$char_traits@D@_STL@@@_STL@@QBE_NXZ PROC NEAR ; _STL::basic_filebuf<char,_STL::char_traits<char> >::is_open, COMDAT
; _this$ = ecx

; 198  :   bool is_open() const { return _M_base.__is_open(); }

  00000	33 c0		 xor	 eax, eax
  00002	38 41 60	 cmp	 BYTE PTR [ecx+96], al
  00005	0f 95 c0	 setne	 al
  00008	c3		 ret	 0
?is_open@?$basic_filebuf@DV?$char_traits@D@_STL@@@_STL@@QBE_NXZ ENDP ; _STL::basic_filebuf<char,_STL::char_traits<char> >::is_open
_TEXT	ENDS
PUBLIC	?erase@?$basic_string@DV?$char_traits@D@_STL@@V?$allocator@D@2@@_STL@@QAEPADPAD0@Z ; _STL::basic_string<char,_STL::char_traits<char>,_STL::allocator<char> >::erase
; Function compile flags: /Ogsy
; File c:\stlport-4.6.1\stlport\stl\_string.h
;	COMDAT ?erase@?$basic_string@DV?$char_traits@D@_STL@@V?$allocator@D@2@@_STL@@QAEPADPAD0@Z
_TEXT	SEGMENT
___first$ = 8						; size = 4
___last$ = 12						; size = 4
?erase@?$basic_string@DV?$char_traits@D@_STL@@V?$allocator@D@2@@_STL@@QAEPADPAD0@Z PROC NEAR ; _STL::basic_string<char,_STL::char_traits<char>,_STL::allocator<char> >::erase, COMDAT
; _this$ = ecx

; 862  :   iterator erase(iterator __first, iterator __last) {

  00000	53		 push	 ebx

; 863  :     if (__first != __last) {

  00001	8b 5c 24 08	 mov	 ebx, DWORD PTR ___first$[esp]
  00005	56		 push	 esi
  00006	57		 push	 edi
  00007	8b 7c 24 14	 mov	 edi, DWORD PTR ___last$[esp+8]
  0000b	3b df		 cmp	 ebx, edi
  0000d	8b f1		 mov	 esi, ecx
  0000f	74 1a		 je	 SHORT $L100446

; 864  :                                 // The move includes the terminating _CharT().
; 865  :       traits_type::move(__first, __last, (this->_M_finish - __last) + 1);

  00011	8b 46 04	 mov	 eax, DWORD PTR [esi+4]
  00014	2b c7		 sub	 eax, edi
  00016	40		 inc	 eax
  00017	74 0b		 je	 SHORT $L102210
  00019	50		 push	 eax
  0001a	57		 push	 edi
  0001b	53		 push	 ebx
  0001c	e8 00 00 00 00	 call	 _memmove
  00021	83 c4 0c	 add	 esp, 12			; 0000000cH
$L102210:

; 866  :       pointer __new_finish = this->_M_finish - (__last - __first);

  00024	8b c3		 mov	 eax, ebx
  00026	2b c7		 sub	 eax, edi

; 867  :       _STLP_STD::_Destroy(__new_finish + 1, this->_M_finish + 1);
; 868  :       this->_M_finish = __new_finish;

  00028	01 46 04	 add	 DWORD PTR [esi+4], eax
$L100446:
  0002b	5f		 pop	 edi
  0002c	5e		 pop	 esi

; 869  :     }
; 870  :     return __first;

  0002d	8b c3		 mov	 eax, ebx
  0002f	5b		 pop	 ebx

; 871  :   }

  00030	c2 08 00	 ret	 8
?erase@?$basic_string@DV?$char_traits@D@_STL@@V?$allocator@D@2@@_STL@@QAEPADPAD0@Z ENDP ; _STL::basic_string<char,_STL::char_traits<char>,_STL::allocator<char> >::erase
_TEXT	ENDS
PUBLIC	??0?$_STLP_alloc_proxy@PADDV?$allocator@D@_STL@@@_STL@@QAE@ABV?$allocator@D@1@PAD@Z ; _STL::_STLP_alloc_proxy<char *,char,_STL::allocator<char> >::_STLP_alloc_proxy<char *,char,_STL::allocator<char> >
; Function compile flags: /Ogsy
; File c:\stlport-4.6.1\stlport\stl\_alloc.h
;	COMDAT ??0?$_STLP_alloc_proxy@PADDV?$allocator@D@_STL@@@_STL@@QAE@ABV?$allocator@D@1@PAD@Z
_TEXT	SEGMENT
___a$ = 8						; size = 4
___p$ = 12						; size = 4
??0?$_STLP_alloc_proxy@PADDV?$allocator@D@_STL@@@_STL@@QAE@ABV?$allocator@D@1@PAD@Z PROC NEAR ; _STL::_STLP_alloc_proxy<char *,char,_STL::allocator<char> >::_STLP_alloc_proxy<char *,char,_STL::allocator<char> >, COMDAT
; _this$ = ecx

; 487  :   inline _STLP_alloc_proxy(const _MaybeReboundAlloc& __a, _Value __p) : _MaybeReboundAlloc(__a), _M_data(__p) {}

  00000	8b c1		 mov	 eax, ecx
  00002	8b 4c 24 08	 mov	 ecx, DWORD PTR ___p$[esp-4]
  00006	89 08		 mov	 DWORD PTR [eax], ecx
  00008	c2 08 00	 ret	 8
??0?$_STLP_alloc_proxy@PADDV?$allocator@D@_STL@@@_STL@@QAE@ABV?$allocator@D@1@PAD@Z ENDP ; _STL::_STLP_alloc_proxy<char *,char,_STL::allocator<char> >::_STLP_alloc_proxy<char *,char,_STL::allocator<char> >
_TEXT	ENDS
PUBLIC	?clear@?$basic_ios@DV?$char_traits@D@_STL@@@_STL@@QAEXH@Z ; _STL::basic_ios<char,_STL::char_traits<char> >::clear
; Function compile flags: /Ogsy
; File c:\stlport-4.6.1\stlport\stl\_ios.h
;	COMDAT ?clear@?$basic_ios@DV?$char_traits@D@_STL@@@_STL@@QAEXH@Z
_TEXT	SEGMENT
___state$ = 8						; size = 4
?clear@?$basic_ios@DV?$char_traits@D@_STL@@@_STL@@QAEXH@Z PROC NEAR ; _STL::basic_ios<char,_STL::char_traits<char> >::clear, COMDAT
; _this$ = ecx

; 91   :     _M_clear_nothrow(this->rdbuf() ? __state : iostate(__state|ios_base::badbit));

  00000	83 79 58 00	 cmp	 DWORD PTR [ecx+88], 0
  00004	8b 44 24 04	 mov	 eax, DWORD PTR ___state$[esp-4]
  00008	75 03		 jne	 SHORT $L102222
  0000a	83 c8 01	 or	 eax, 1
$L102222:

; 92   :     _M_check_exception_mask();

  0000d	85 41 14	 test	 DWORD PTR [ecx+20], eax
  00010	89 41 08	 mov	 DWORD PTR [ecx+8], eax
  00013	74 05		 je	 SHORT $L102233
  00015	e8 00 00 00 00	 call	 ?_M_throw_failure@ios_base@_STL@@IAEXXZ ; _STL::ios_base::_M_throw_failure
$L102233:

; 93   :   }

  0001a	c2 04 00	 ret	 4
?clear@?$basic_ios@DV?$char_traits@D@_STL@@@_STL@@QAEXH@Z ENDP ; _STL::basic_ios<char,_STL::char_traits<char> >::clear
_TEXT	ENDS
PUBLIC	?find@?$basic_string@DV?$char_traits@D@_STL@@V?$allocator@D@2@@_STL@@QBEIPBDII@Z ; _STL::basic_string<char,_STL::char_traits<char>,_STL::allocator<char> >::find
; Function compile flags: /Ogsy
; File c:\stlport-4.6.1\stlport\stl\_string.c
;	COMDAT ?find@?$basic_string@DV?$char_traits@D@_STL@@V?$allocator@D@2@@_STL@@QBEIPBDII@Z
_TEXT	SEGMENT
___s$ = 8						; size = 4
$T102238 = 12						; size = 1
___pos$ = 12						; size = 4
___n$ = 16						; size = 4
?find@?$basic_string@DV?$char_traits@D@_STL@@V?$allocator@D@2@@_STL@@QBEIPBDII@Z PROC NEAR ; _STL::basic_string<char,_STL::char_traits<char>,_STL::allocator<char> >::find, COMDAT
; _this$ = ecx

; 342  : {

  00000	55		 push	 ebp
  00001	8b ec		 mov	 ebp, esp

; 343  :   if (__pos + __n > size())

  00003	8b 45 0c	 mov	 eax, DWORD PTR ___pos$[ebp]
  00006	53		 push	 ebx
  00007	56		 push	 esi
  00008	8b 31		 mov	 esi, DWORD PTR [ecx]
  0000a	57		 push	 edi
  0000b	8b 79 04	 mov	 edi, DWORD PTR [ecx+4]
  0000e	8b 4d 10	 mov	 ecx, DWORD PTR ___n$[ebp]
  00011	8b d7		 mov	 edx, edi
  00013	2b d6		 sub	 edx, esi
  00015	8d 1c 08	 lea	 ebx, DWORD PTR [eax+ecx]
  00018	3b da		 cmp	 ebx, edx
  0001a	76 05		 jbe	 SHORT $L100486

; 344  :     return npos;

  0001c	83 c8 ff	 or	 eax, -1
  0001f	eb 21		 jmp	 SHORT $L100487
$L100486:

; 345  :   else {
; 346  :     const const_pointer __result =
; 347  :       _STLP_STD::search((const _CharT*)this->_M_start + __pos, (const _CharT*)this->_M_finish, 
; 348  : 			__s, __s + __n, _Eq_traits<_Traits>());

  00021	ff 75 0c	 push	 DWORD PTR $T102238[ebp]
  00024	8b 55 08	 mov	 edx, DWORD PTR ___s$[ebp]
  00027	03 ca		 add	 ecx, edx
  00029	51		 push	 ecx
  0002a	52		 push	 edx
  0002b	03 c6		 add	 eax, esi
  0002d	57		 push	 edi
  0002e	50		 push	 eax
  0002f	e8 00 00 00 00	 call	 ??$search@PBDPBDU?$_Eq_traits@V?$char_traits@D@_STL@@@_STL@@@_STL@@YAPBDPBD000U?$_Eq_traits@V?$char_traits@D@_STL@@@0@@Z ; _STL::search<char const *,char const *,_STL::_Eq_traits<_STL::char_traits<char> > >
  00034	83 c4 14	 add	 esp, 20			; 00000014H

; 349  :     return __result != this->_M_finish ? __result - this->_M_start : npos;

  00037	3b c7		 cmp	 eax, edi
  00039	74 04		 je	 SHORT $L102239
  0003b	2b c6		 sub	 eax, esi
  0003d	eb 03		 jmp	 SHORT $L100487
$L102239:
  0003f	83 c8 ff	 or	 eax, -1
$L100487:
  00042	5f		 pop	 edi
  00043	5e		 pop	 esi
  00044	5b		 pop	 ebx

; 350  :   }
; 351  : }

  00045	5d		 pop	 ebp
  00046	c2 0c 00	 ret	 12			; 0000000cH
?find@?$basic_string@DV?$char_traits@D@_STL@@V?$allocator@D@2@@_STL@@QBEIPBDII@Z ENDP ; _STL::basic_string<char,_STL::char_traits<char>,_STL::allocator<char> >::find
_TEXT	ENDS
PUBLIC	?_M_setup_codecvt@?$basic_filebuf@DV?$char_traits@D@_STL@@@_STL@@AAEXABVlocale@2@@Z ; _STL::basic_filebuf<char,_STL::char_traits<char> >::_M_setup_codecvt
; Function compile flags: /Ogsy
; File c:\stlport-4.6.1\stlport\stl\_fstream.c
;	COMDAT ?_M_setup_codecvt@?$basic_filebuf@DV?$char_traits@D@_STL@@@_STL@@AAEXABVlocale@2@@Z
_TEXT	SEGMENT
$T102246 = -4						; size = 4
___encoding$ = 8					; size = 4
___loc$ = 8						; size = 4
?_M_setup_codecvt@?$basic_filebuf@DV?$char_traits@D@_STL@@@_STL@@AAEXABVlocale@2@@Z PROC NEAR ; _STL::basic_filebuf<char,_STL::char_traits<char> >::_M_setup_codecvt, COMDAT
; _this$ = ecx

; 730  : {

  00000	55		 push	 ebp
  00001	8b ec		 mov	 ebp, esp
  00003	51		 push	 ecx
  00004	56		 push	 esi
  00005	8b f1		 mov	 esi, ecx

; 731  :   _M_codecvt = &use_facet<_Codecvt>(__loc) ;

  00007	8b 4d 08	 mov	 ecx, DWORD PTR ___loc$[ebp]
  0000a	68 00 00 00 00	 push	 OFFSET FLAT:?id@?$codecvt@DDH@_STL@@2V0locale@2@A ; _STL::codecvt<char,char,int>::id
  0000f	e8 00 00 00 00	 call	 ?_M_use_facet@locale@_STL@@QBEPAVfacet@12@ABVid@12@@Z ; _STL::locale::_M_use_facet
  00014	89 86 a0 00 00
	00		 mov	 DWORD PTR [esi+160], eax

; 732  :   int __encoding    = _M_codecvt->encoding();

  0001a	8b 10		 mov	 edx, DWORD PTR [eax]
  0001c	8b c8		 mov	 ecx, eax
  0001e	ff 52 10	 call	 DWORD PTR [edx+16]
  00021	89 45 08	 mov	 DWORD PTR ___encoding$[ebp], eax

; 733  : 
; 734  :   _M_width          = (max)(__encoding, 1);

  00024	33 c0		 xor	 eax, eax
  00026	40		 inc	 eax
  00027	39 45 08	 cmp	 DWORD PTR ___encoding$[ebp], eax
  0002a	89 45 fc	 mov	 DWORD PTR $T102246[ebp], eax
  0002d	8d 45 fc	 lea	 eax, DWORD PTR $T102246[ebp]
  00030	7c 03		 jl	 SHORT $L102262
  00032	8d 45 08	 lea	 eax, DWORD PTR ___encoding$[ebp]
$L102262:
  00035	8b 00		 mov	 eax, DWORD PTR [eax]

; 735  :   _M_max_width      = _M_codecvt->max_length();

  00037	8b 8e a0 00 00
	00		 mov	 ecx, DWORD PTR [esi+160]
  0003d	89 86 a4 00 00
	00		 mov	 DWORD PTR [esi+164], eax
  00043	8b 01		 mov	 eax, DWORD PTR [ecx]
  00045	ff 50 1c	 call	 DWORD PTR [eax+28]

; 736  :   _M_constant_width = __encoding > 0;

  00048	83 7d 08 00	 cmp	 DWORD PTR ___encoding$[ebp], 0

; 737  :   _M_always_noconv  = _M_codecvt->always_noconv();

  0004c	8b 8e a0 00 00
	00		 mov	 ecx, DWORD PTR [esi+160]
  00052	89 86 a8 00 00
	00		 mov	 DWORD PTR [esi+168], eax
  00058	0f 9f c0	 setg	 al
  0005b	88 46 64	 mov	 BYTE PTR [esi+100], al
  0005e	8b 01		 mov	 eax, DWORD PTR [ecx]
  00060	ff 50 14	 call	 DWORD PTR [eax+20]
  00063	88 46 65	 mov	 BYTE PTR [esi+101], al
  00066	5e		 pop	 esi

; 738  : }

  00067	c9		 leave
  00068	c2 04 00	 ret	 4
?_M_setup_codecvt@?$basic_filebuf@DV?$char_traits@D@_STL@@@_STL@@AAEXABVlocale@2@@Z ENDP ; _STL::basic_filebuf<char,_STL::char_traits<char> >::_M_setup_codecvt
_TEXT	ENDS
PUBLIC	?widen@?$basic_ios@DV?$char_traits@D@_STL@@@_STL@@QBEDD@Z ; _STL::basic_ios<char,_STL::char_traits<char> >::widen
; Function compile flags: /Ogsy
; File c:\stlport-4.6.1\stlport\stl\_ios.h
;	COMDAT ?widen@?$basic_ios@DV?$char_traits@D@_STL@@@_STL@@QBEDD@Z
_TEXT	SEGMENT
___c$ = 8						; size = 1
?widen@?$basic_ios@DV?$char_traits@D@_STL@@@_STL@@QBEDD@Z PROC NEAR ; _STL::basic_ios<char,_STL::char_traits<char> >::widen, COMDAT
; _this$ = ecx

; 143  :   return ((const ctype<_CharT>*)this->_M_ctype_facet())->widen(__c); }

  00000	8b 49 40	 mov	 ecx, DWORD PTR [ecx+64]
  00003	8b 01		 mov	 eax, DWORD PTR [ecx]
  00005	ff 60 18	 jmp	 DWORD PTR [eax+24]
?widen@?$basic_ios@DV?$char_traits@D@_STL@@@_STL@@QBEDD@Z ENDP ; _STL::basic_ios<char,_STL::char_traits<char> >::widen
_TEXT	ENDS
PUBLIC	?_M_unshift@?$basic_filebuf@DV?$char_traits@D@_STL@@@_STL@@AAE_NXZ ; _STL::basic_filebuf<char,_STL::char_traits<char> >::_M_unshift
; Function compile flags: /Ogsy
; File c:\stlport-4.6.1\stlport\stl\_fstream.c
;	COMDAT ?_M_unshift@?$basic_filebuf@DV?$char_traits@D@_STL@@@_STL@@AAE_NXZ
_TEXT	SEGMENT
___enext$100906 = -4					; size = 4
?_M_unshift@?$basic_filebuf@DV?$char_traits@D@_STL@@@_STL@@AAE_NXZ PROC NEAR ; _STL::basic_filebuf<char,_STL::char_traits<char> >::_M_unshift, COMDAT
; _this$ = ecx

; 605  : {

  00000	55		 push	 ebp
  00001	8b ec		 mov	 ebp, esp
  00003	51		 push	 ecx
  00004	53		 push	 ebx
  00005	56		 push	 esi
  00006	8b f1		 mov	 esi, ecx

; 606  :   if (_M_in_output_mode && !_M_constant_width) {

  00008	80 7e 68 00	 cmp	 BYTE PTR [esi+104], 0
  0000c	57		 push	 edi
  0000d	74 57		 je	 SHORT $L100905
  0000f	80 7e 64 00	 cmp	 BYTE PTR [esi+100], 0
  00013	75 51		 jne	 SHORT $L100905
$L100903:

; 607  :     typename _Codecvt::result __status;
; 608  :     do {
; 609  :       char* __enext = _M_ext_buf;

  00015	8b 46 74	 mov	 eax, DWORD PTR [esi+116]

; 610  :       __status = _M_codecvt->unshift(_M_state,
; 611  :                                      _M_ext_buf, _M_ext_buf_EOS, __enext);

  00018	8b 56 78	 mov	 edx, DWORD PTR [esi+120]
  0001b	8b 8e a0 00 00
	00		 mov	 ecx, DWORD PTR [esi+160]
  00021	8d 5d fc	 lea	 ebx, DWORD PTR ___enext$100906[ebp]
  00024	53		 push	 ebx
  00025	52		 push	 edx
  00026	89 45 fc	 mov	 DWORD PTR ___enext$100906[ebp], eax
  00029	8b 39		 mov	 edi, DWORD PTR [ecx]
  0002b	50		 push	 eax
  0002c	8d 86 84 00 00
	00		 lea	 eax, DWORD PTR [esi+132]
  00032	50		 push	 eax
  00033	ff 57 0c	 call	 DWORD PTR [edi+12]
  00036	8b f8		 mov	 edi, eax

; 612  :       if (__status == _Codecvt::noconv ||
; 613  :           (__enext == _M_ext_buf && __status == _Codecvt::ok))

  00038	83 ff 03	 cmp	 edi, 3
  0003b	74 29		 je	 SHORT $L100905
  0003d	8b 45 fc	 mov	 eax, DWORD PTR ___enext$100906[ebp]
  00040	3b 46 74	 cmp	 eax, DWORD PTR [esi+116]
  00043	75 04		 jne	 SHORT $L100907
  00045	85 ff		 test	 edi, edi
  00047	74 1d		 je	 SHORT $L100905
$L100907:

; 614  :         return true;
; 615  :       else if (__status == _Codecvt::error)

  00049	83 ff 02	 cmp	 edi, 2
  0004c	74 1f		 je	 SHORT $L102299

; 616  :         return false;
; 617  :       else if (!_M_write(_M_ext_buf, __enext - _M_ext_buf))

  0004e	8b 4e 74	 mov	 ecx, DWORD PTR [esi+116]
  00051	2b c1		 sub	 eax, ecx
  00053	50		 push	 eax
  00054	51		 push	 ecx
  00055	8d 4e 54	 lea	 ecx, DWORD PTR [esi+84]
  00058	e8 00 00 00 00	 call	 ?_M_write@_Filebuf_base@_STL@@QAE_NPADH@Z ; _STL::_Filebuf_base::_M_write
  0005d	84 c0		 test	 al, al
  0005f	74 0c		 je	 SHORT $L102299

; 619  :     } while(__status == _Codecvt::partial);

  00061	83 ff 01	 cmp	 edi, 1
  00064	74 af		 je	 SHORT $L100903
$L100905:

; 620  :   }
; 621  : 
; 622  :   return true;

  00066	b0 01		 mov	 al, 1
$L100900:
  00068	5f		 pop	 edi
  00069	5e		 pop	 esi
  0006a	5b		 pop	 ebx

; 623  : }

  0006b	c9		 leave
  0006c	c3		 ret	 0
$L102299:

; 618  :         return false;

  0006d	32 c0		 xor	 al, al
  0006f	eb f7		 jmp	 SHORT $L100900
?_M_unshift@?$basic_filebuf@DV?$char_traits@D@_STL@@@_STL@@AAE_NXZ ENDP ; _STL::basic_filebuf<char,_STL::char_traits<char> >::_M_unshift
_TEXT	ENDS
PUBLIC	?rdbuf@?$basic_ios@DV?$char_traits@D@_STL@@@_STL@@QAEPAV?$basic_streambuf@DV?$char_traits@D@_STL@@@2@PAV32@@Z ; _STL::basic_ios<char,_STL::char_traits<char> >::rdbuf
; Function compile flags: /Ogsy
; File c:\stlport-4.6.1\stlport\stl\_ios.c
;	COMDAT ?rdbuf@?$basic_ios@DV?$char_traits@D@_STL@@@_STL@@QAEPAV?$basic_streambuf@DV?$char_traits@D@_STL@@@2@PAV32@@Z
_TEXT	SEGMENT
___buf$ = 8						; size = 4
?rdbuf@?$basic_ios@DV?$char_traits@D@_STL@@@_STL@@QAEPAV?$basic_streambuf@DV?$char_traits@D@_STL@@@2@PAV32@@Z PROC NEAR ; _STL::basic_ios<char,_STL::char_traits<char> >::rdbuf, COMDAT
; _this$ = ecx

; 53   :   basic_streambuf<_CharT, _Traits>* __tmp = _M_streambuf;
; 54   :   _M_streambuf = __buf;

  00000	8b 44 24 04	 mov	 eax, DWORD PTR ___buf$[esp-4]
  00004	56		 push	 esi
  00005	8b 71 58	 mov	 esi, DWORD PTR [ecx+88]

; 55   :   this->clear();

  00008	6a 00		 push	 0
  0000a	89 41 58	 mov	 DWORD PTR [ecx+88], eax
  0000d	e8 00 00 00 00	 call	 ?clear@?$basic_ios@DV?$char_traits@D@_STL@@@_STL@@QAEXH@Z ; _STL::basic_ios<char,_STL::char_traits<char> >::clear

; 56   :   return __tmp;

  00012	8b c6		 mov	 eax, esi
  00014	5e		 pop	 esi

; 57   : }

  00015	c2 04 00	 ret	 4
?rdbuf@?$basic_ios@DV?$char_traits@D@_STL@@@_STL@@QAEPAV?$basic_streambuf@DV?$char_traits@D@_STL@@@2@PAV32@@Z ENDP ; _STL::basic_ios<char,_STL::char_traits<char> >::rdbuf
_TEXT	ENDS
PUBLIC	?_S_eof@?$basic_ios@DV?$char_traits@D@_STL@@@_STL@@SA_NH@Z ; _STL::basic_ios<char,_STL::char_traits<char> >::_S_eof
; Function compile flags: /Ogsy
; File c:\stlport-4.6.1\stlport\stl\_ios.h
;	COMDAT ?_S_eof@?$basic_ios@DV?$char_traits@D@_STL@@@_STL@@SA_NH@Z
_TEXT	SEGMENT
___c$ = 8						; size = 4
?_S_eof@?$basic_ios@DV?$char_traits@D@_STL@@@_STL@@SA_NH@Z PROC NEAR ; _STL::basic_ios<char,_STL::char_traits<char> >::_S_eof, COMDAT

; 110  :     const int_type __eof = _Traits::eof();
; 111  :     return _Traits::eq_int_type(__c, __eof);

  00000	33 c0		 xor	 eax, eax
  00002	83 7c 24 04 ff	 cmp	 DWORD PTR ___c$[esp-4], -1
  00007	0f 94 c0	 sete	 al

; 112  :   }

  0000a	c3		 ret	 0
?_S_eof@?$basic_ios@DV?$char_traits@D@_STL@@@_STL@@SA_NH@Z ENDP ; _STL::basic_ios<char,_STL::char_traits<char> >::_S_eof
_TEXT	ENDS
PUBLIC	??$distance@PBD@_STL@@YAHABQBD0@Z		; _STL::distance<char const *>
; Function compile flags: /Ogsy
; File c:\stlport-4.6.1\stlport\stl\_iterator_base.h
;	COMDAT ??$distance@PBD@_STL@@YAHABQBD0@Z
_TEXT	SEGMENT
___first$ = 8						; size = 4
___last$ = 12						; size = 4
??$distance@PBD@_STL@@YAHABQBD0@Z PROC NEAR		; _STL::distance<char const *>, COMDAT

; 369  :   return __distance(__first, __last, _STLP_ITERATOR_CATEGORY(__first, _InputIterator));  

  00000	8b 44 24 08	 mov	 eax, DWORD PTR ___last$[esp-4]
  00004	8b 00		 mov	 eax, DWORD PTR [eax]
  00006	8b 4c 24 04	 mov	 ecx, DWORD PTR ___first$[esp-4]
  0000a	2b 01		 sub	 eax, DWORD PTR [ecx]

; 370  : }

  0000c	c3		 ret	 0
??$distance@PBD@_STL@@YAHABQBD0@Z ENDP			; _STL::distance<char const *>
_TEXT	ENDS
PUBLIC	?_M_allocate_block@?$_String_base@DV?$allocator@D@_STL@@@_STL@@QAEXI@Z ; _STL::_String_base<char,_STL::allocator<char> >::_M_allocate_block
; Function compile flags: /Ogsy
; File c:\stlport-4.6.1\stlport\stl\_string.c
;	COMDAT ?_M_allocate_block@?$_String_base@DV?$allocator@D@_STL@@@_STL@@QAEXI@Z
_TEXT	SEGMENT
___n$ = 8						; size = 4
?_M_allocate_block@?$_String_base@DV?$allocator@D@_STL@@@_STL@@QAEXI@Z PROC NEAR ; _STL::_String_base<char,_STL::allocator<char> >::_M_allocate_block, COMDAT
; _this$ = ecx

; 530  : template <class _Tp, class _Alloc> void _String_base<_Tp, _Alloc>::_M_allocate_block(size_t __n) {  

  00000	56		 push	 esi
  00001	57		 push	 edi

; 531  :   if ((__n <= (max_size()+1)) && (__n>0)){ 

  00002	8b 7c 24 0c	 mov	 edi, DWORD PTR ___n$[esp+4]
  00006	83 ff ff	 cmp	 edi, -1
  00009	8b f1		 mov	 esi, ecx
  0000b	77 17		 ja	 SHORT $L101068
  0000d	85 ff		 test	 edi, edi
  0000f	76 13		 jbe	 SHORT $L101068

; 532  :     _M_start  = _M_end_of_storage.allocate(__n); 

  00011	57		 push	 edi
  00012	e8 00 00 00 00	 call	 ?allocate@?$__node_alloc@$00$0A@@_STL@@SAPAXI@Z ; _STL::__node_alloc<1,0>::allocate
  00017	89 06		 mov	 DWORD PTR [esi], eax

; 533  :     _M_finish = _M_start; 

  00019	89 46 04	 mov	 DWORD PTR [esi+4], eax

; 534  :     _M_end_of_storage._M_data = _M_start + __n; 

  0001c	03 c7		 add	 eax, edi
  0001e	59		 pop	 ecx
  0001f	89 46 08	 mov	 DWORD PTR [esi+8], eax

; 535  :   } 
; 536  :     else 

  00022	eb 07		 jmp	 SHORT $L101069
$L101068:

; 537  :       _M_throw_length_error(); 

  00024	8b ce		 mov	 ecx, esi
  00026	e8 00 00 00 00	 call	 ?_M_throw_length_error@?$_String_base@DV?$allocator@D@_STL@@@_STL@@QBEXXZ ; _STL::_String_base<char,_STL::allocator<char> >::_M_throw_length_error
$L101069:
  0002b	5f		 pop	 edi
  0002c	5e		 pop	 esi

; 538  : } 

  0002d	c2 04 00	 ret	 4
?_M_allocate_block@?$_String_base@DV?$allocator@D@_STL@@@_STL@@QAEXI@Z ENDP ; _STL::_String_base<char,_STL::allocator<char> >::_M_allocate_block
_TEXT	ENDS
PUBLIC	??$distance@PAD@_STL@@YAHABQAD0@Z		; _STL::distance<char *>
; Function compile flags: /Ogsy
; File c:\stlport-4.6.1\stlport\stl\_iterator_base.h
;	COMDAT ??$distance@PAD@_STL@@YAHABQAD0@Z
_TEXT	SEGMENT
___first$ = 8						; size = 4
___last$ = 12						; size = 4
??$distance@PAD@_STL@@YAHABQAD0@Z PROC NEAR		; _STL::distance<char *>, COMDAT

; 369  :   return __distance(__first, __last, _STLP_ITERATOR_CATEGORY(__first, _InputIterator));  

  00000	8b 44 24 08	 mov	 eax, DWORD PTR ___last$[esp-4]
  00004	8b 00		 mov	 eax, DWORD PTR [eax]
  00006	8b 4c 24 04	 mov	 ecx, DWORD PTR ___first$[esp-4]
  0000a	2b 01		 sub	 eax, DWORD PTR [ecx]

; 370  : }

  0000c	c3		 ret	 0
??$distance@PAD@_STL@@YAHABQAD0@Z ENDP			; _STL::distance<char *>
_TEXT	ENDS
PUBLIC	??$find_if@PBDU?$_Eq_char_bound@V?$char_traits@D@_STL@@@_STL@@@_STL@@YAPBDPBD0U?$_Eq_char_bound@V?$char_traits@D@_STL@@@0@@Z ; _STL::find_if<char const *,_STL::_Eq_char_bound<_STL::char_traits<char> > >
; Function compile flags: /Ogsy
; File c:\stlport-4.6.1\stlport\stl\_algobase.c
;	COMDAT ??$find_if@PBDU?$_Eq_char_bound@V?$char_traits@D@_STL@@@_STL@@@_STL@@YAPBDPBD0U?$_Eq_char_bound@V?$char_traits@D@_STL@@@0@@Z
_TEXT	SEGMENT
$T102341 = -1						; size = 1
___first$ = 8						; size = 4
___last$ = 12						; size = 4
___pred$ = 16						; size = 1
??$find_if@PBDU?$_Eq_char_bound@V?$char_traits@D@_STL@@@_STL@@@_STL@@YAPBDPBD0U?$_Eq_char_bound@V?$char_traits@D@_STL@@@0@@Z PROC NEAR ; _STL::find_if<char const *,_STL::_Eq_char_bound<_STL::char_traits<char> > >, COMDAT

; 194  :                    _Predicate __pred) {

  00000	55		 push	 ebp
  00001	8b ec		 mov	 ebp, esp
  00003	51		 push	 ecx

; 195  :   _STLP_DEBUG_CHECK(__check_range(__first, __last))
; 196  :     return __find_if(__first, __last, __pred, _STLP_ITERATOR_CATEGORY(__first, _InputIter));

  00004	8d 45 ff	 lea	 eax, DWORD PTR $T102341[ebp]
  00007	50		 push	 eax
  00008	ff 75 10	 push	 DWORD PTR ___pred$[ebp]
  0000b	ff 75 0c	 push	 DWORD PTR ___last$[ebp]
  0000e	ff 75 08	 push	 DWORD PTR ___first$[ebp]
  00011	e8 00 00 00 00	 call	 ??$__find_if@PBDU?$_Eq_char_bound@V?$char_traits@D@_STL@@@_STL@@@_STL@@YAPBDPBD0U?$_Eq_char_bound@V?$char_traits@D@_STL@@@0@ABUrandom_access_iterator_tag@0@@Z ; _STL::__find_if<char const *,_STL::_Eq_char_bound<_STL::char_traits<char> > >
  00016	83 c4 10	 add	 esp, 16			; 00000010H

; 197  : }

  00019	c9		 leave
  0001a	c3		 ret	 0
??$find_if@PBDU?$_Eq_char_bound@V?$char_traits@D@_STL@@@_STL@@@_STL@@YAPBDPBD0U?$_Eq_char_bound@V?$char_traits@D@_STL@@@0@@Z ENDP ; _STL::find_if<char const *,_STL::_Eq_char_bound<_STL::char_traits<char> > >
_TEXT	ENDS
PUBLIC	?_M_construct_null@?$basic_string@DV?$char_traits@D@_STL@@V?$allocator@D@2@@_STL@@AAEXPAD@Z ; _STL::basic_string<char,_STL::char_traits<char>,_STL::allocator<char> >::_M_construct_null
; Function compile flags: /Ogsy
; File c:\stlport-4.6.1\stlport\stl\_string.h
;	COMDAT ?_M_construct_null@?$basic_string@DV?$char_traits@D@_STL@@V?$allocator@D@2@@_STL@@AAEXPAD@Z
_TEXT	SEGMENT
___p$ = 8						; size = 4
?_M_construct_null@?$basic_string@DV?$char_traits@D@_STL@@V?$allocator@D@2@@_STL@@AAEXPAD@Z PROC NEAR ; _STL::basic_string<char,_STL::char_traits<char>,_STL::allocator<char> >::_M_construct_null, COMDAT
; _this$ = ecx

; 336  :     _M_construct_null_aux(__p, _Char_Is_Integral());

  00000	8b 44 24 04	 mov	 eax, DWORD PTR ___p$[esp-4]
  00004	c6 00 00	 mov	 BYTE PTR [eax], 0

; 337  :   }

  00007	c2 04 00	 ret	 4
?_M_construct_null@?$basic_string@DV?$char_traits@D@_STL@@V?$allocator@D@2@@_STL@@AAEXPAD@Z ENDP ; _STL::basic_string<char,_STL::char_traits<char>,_STL::allocator<char> >::_M_construct_null
_TEXT	ENDS
PUBLIC	?max_size@?$basic_string@DV?$char_traits@D@_STL@@V?$allocator@D@2@@_STL@@QBEIXZ ; _STL::basic_string<char,_STL::char_traits<char>,_STL::allocator<char> >::max_size
; Function compile flags: /Ogsy
;	COMDAT ?max_size@?$basic_string@DV?$char_traits@D@_STL@@V?$allocator@D@2@@_STL@@QBEIXZ
_TEXT	SEGMENT
?max_size@?$basic_string@DV?$char_traits@D@_STL@@V?$allocator@D@2@@_STL@@QBEIXZ PROC NEAR ; _STL::basic_string<char,_STL::char_traits<char>,_STL::allocator<char> >::max_size, COMDAT
; _this$ = ecx

; 434  :   size_t max_size() const { return _Base::max_size(); }

  00000	6a fe		 push	 -2			; fffffffeH
  00002	58		 pop	 eax
  00003	c3		 ret	 0
?max_size@?$basic_string@DV?$char_traits@D@_STL@@V?$allocator@D@2@@_STL@@QBEIXZ ENDP ; _STL::basic_string<char,_STL::char_traits<char>,_STL::allocator<char> >::max_size
_TEXT	ENDS
PUBLIC	??$__copy_aux@PADPAD@_STL@@YAPADPAD00ABU__true_type@0@@Z ; _STL::__copy_aux<char *,char *>
; Function compile flags: /Ogsy
; File c:\stlport-4.6.1\stlport\stl\_algobase.h
;	COMDAT ??$__copy_aux@PADPAD@_STL@@YAPADPAD00ABU__true_type@0@@Z
_TEXT	SEGMENT
___first$ = 8						; size = 4
___last$ = 12						; size = 4
___result$ = 16						; size = 4
___formal$ = 20						; size = 4
??$__copy_aux@PADPAD@_STL@@YAPADPAD00ABU__true_type@0@@Z PROC NEAR ; _STL::__copy_aux<char *,char *>, COMDAT

; 202  :   return __copy_ptrs(__first, __last, __result, 
; 203  :                      _IsOKToMemCpy(_STLP_VALUE_TYPE(__first, _InputIter), 
; 204  :                                    _STLP_VALUE_TYPE(__result, _OutputIter))._Ret());

  00000	ff 74 24 0c	 push	 DWORD PTR ___result$[esp-4]
  00004	ff 74 24 0c	 push	 DWORD PTR ___last$[esp]
  00008	ff 74 24 0c	 push	 DWORD PTR ___first$[esp+4]
  0000c	e8 00 00 00 00	 call	 ?__copy_trivial@_STL@@YAPAXPBX0PAX@Z ; _STL::__copy_trivial
  00011	83 c4 0c	 add	 esp, 12			; 0000000cH

; 205  : }

  00014	c3		 ret	 0
??$__copy_aux@PADPAD@_STL@@YAPADPAD00ABU__true_type@0@@Z ENDP ; _STL::__copy_aux<char *,char *>
_TEXT	ENDS
PUBLIC	??_D?$basic_istream@DV?$char_traits@D@_STL@@@_STL@@QAEXXZ ; _STL::basic_istream<char,_STL::char_traits<char> >::`vbase destructor'
; Function compile flags: /Ogsy
;	COMDAT ??_G?$basic_istream@DV?$char_traits@D@_STL@@@_STL@@UAEPAXI@Z
_TEXT	SEGMENT
___flags$ = 8						; size = 4
??_G?$basic_istream@DV?$char_traits@D@_STL@@@_STL@@UAEPAXI@Z PROC NEAR ; _STL::basic_istream<char,_STL::char_traits<char> >::`scalar deleting destructor', COMDAT
; _this$ = ecx
  00000	56		 push	 esi
  00001	8d 71 f8	 lea	 esi, DWORD PTR [ecx-8]
  00004	8b ce		 mov	 ecx, esi
  00006	e8 00 00 00 00	 call	 ??_D?$basic_istream@DV?$char_traits@D@_STL@@@_STL@@QAEXXZ
  0000b	f6 44 24 08 01	 test	 BYTE PTR ___flags$[esp], 1
  00010	74 07		 je	 SHORT $L98545
  00012	56		 push	 esi
  00013	e8 00 00 00 00	 call	 ??3@YAXPAX@Z		; operator delete
  00018	59		 pop	 ecx
$L98545:
  00019	8b c6		 mov	 eax, esi
  0001b	5e		 pop	 esi
  0001c	c2 04 00	 ret	 4
??_G?$basic_istream@DV?$char_traits@D@_STL@@@_STL@@UAEPAXI@Z ENDP ; _STL::basic_istream<char,_STL::char_traits<char> >::`scalar deleting destructor'
; Function compile flags: /Ogsy
_TEXT	ENDS
;	COMDAT ??_D?$basic_istream@DV?$char_traits@D@_STL@@@_STL@@QAEXXZ
_TEXT	SEGMENT
??_D?$basic_istream@DV?$char_traits@D@_STL@@@_STL@@QAEXXZ PROC NEAR ; _STL::basic_istream<char,_STL::char_traits<char> >::`vbase destructor', COMDAT
; _this$ = ecx
  00000	8b 01		 mov	 eax, DWORD PTR [ecx]
  00002	8b 40 04	 mov	 eax, DWORD PTR [eax+4]
  00005	83 c1 08	 add	 ecx, 8
  00008	c7 44 08 f8 00
	00 00 00	 mov	 DWORD PTR [eax+ecx-8], OFFSET FLAT:??_7?$basic_istream@DV?$char_traits@D@_STL@@@_STL@@6B@
  00010	e9 00 00 00 00	 jmp	 ??1?$basic_ios@DV?$char_traits@D@_STL@@@_STL@@UAE@XZ ; _STL::basic_ios<char,_STL::char_traits<char> >::~basic_ios<char,_STL::char_traits<char> >
??_D?$basic_istream@DV?$char_traits@D@_STL@@@_STL@@QAEXXZ ENDP ; _STL::basic_istream<char,_STL::char_traits<char> >::`vbase destructor'
_TEXT	ENDS
PUBLIC	?deallocate@?$allocator@D@_STL@@QAEXPADI@Z	; _STL::allocator<char>::deallocate
; Function compile flags: /Ogsy
; File c:\stlport-4.6.1\stlport\stl\_alloc.h
;	COMDAT ?deallocate@?$allocator@D@_STL@@QAEXPADI@Z
_TEXT	SEGMENT
___p$ = 8						; size = 4
___n$ = 12						; size = 4
?deallocate@?$allocator@D@_STL@@QAEXPADI@Z PROC NEAR	; _STL::allocator<char>::deallocate, COMDAT
; _this$ = ecx

; 359  :     _STLP_ASSERT( (__p == 0) == (__n == 0) )
; 360  :       if (__p != 0) __sgi_alloc::deallocate((void*)__p, __n * sizeof(value_type));

  00000	83 7c 24 04 00	 cmp	 DWORD PTR ___p$[esp-4], 0
  00005	74 0f		 je	 SHORT $L98663
  00007	ff 74 24 08	 push	 DWORD PTR ___n$[esp-4]
  0000b	ff 74 24 08	 push	 DWORD PTR ___p$[esp]
  0000f	e8 00 00 00 00	 call	 ?deallocate@?$__node_alloc@$00$0A@@_STL@@SAXPAXI@Z ; _STL::__node_alloc<1,0>::deallocate
  00014	59		 pop	 ecx
  00015	59		 pop	 ecx
$L98663:

; 361  :   }

  00016	c2 08 00	 ret	 8
?deallocate@?$allocator@D@_STL@@QAEXPADI@Z ENDP		; _STL::allocator<char>::deallocate
_TEXT	ENDS
PUBLIC	?erase@?$basic_string@DV?$char_traits@D@_STL@@V?$allocator@D@2@@_STL@@QAEAAV12@II@Z ; _STL::basic_string<char,_STL::char_traits<char>,_STL::allocator<char> >::erase
; Function compile flags: /Ogsy
; File c:\stlport-4.6.1\stlport\stl\_string.h
;	COMDAT ?erase@?$basic_string@DV?$char_traits@D@_STL@@V?$allocator@D@2@@_STL@@QAEAAV12@II@Z
_TEXT	SEGMENT
$T102393 = 8						; size = 4
___pos$ = 8						; size = 4
___n$ = 12						; size = 4
?erase@?$basic_string@DV?$char_traits@D@_STL@@V?$allocator@D@2@@_STL@@QAEAAV12@II@Z PROC NEAR ; _STL::basic_string<char,_STL::char_traits<char>,_STL::allocator<char> >::erase, COMDAT
; _this$ = ecx

; 847  :   _Self& erase(size_type __pos = 0, size_type __n = npos) {

  00000	55		 push	 ebp
  00001	8b ec		 mov	 ebp, esp
  00003	56		 push	 esi
  00004	8b f1		 mov	 esi, ecx

; 848  :     if (__pos > size())

  00006	8b 46 04	 mov	 eax, DWORD PTR [esi+4]
  00009	2b 06		 sub	 eax, DWORD PTR [esi]
  0000b	57		 push	 edi
  0000c	8b 7d 08	 mov	 edi, DWORD PTR ___pos$[ebp]
  0000f	3b f8		 cmp	 edi, eax
  00011	76 05		 jbe	 SHORT $L100374

; 849  :       this->_M_throw_out_of_range();

  00013	e8 00 00 00 00	 call	 ?_M_throw_out_of_range@?$_String_base@DV?$allocator@D@_STL@@@_STL@@QBEXXZ ; _STL::_String_base<char,_STL::allocator<char> >::_M_throw_out_of_range
$L100374:

; 850  :     erase(begin() + __pos, begin() + __pos + (min) (__n, size() - __pos));

  00018	8b 0e		 mov	 ecx, DWORD PTR [esi]
  0001a	8b 46 04	 mov	 eax, DWORD PTR [esi+4]
  0001d	2b c1		 sub	 eax, ecx
  0001f	2b c7		 sub	 eax, edi
  00021	3b 45 0c	 cmp	 eax, DWORD PTR ___n$[ebp]
  00024	89 45 08	 mov	 DWORD PTR $T102393[ebp], eax
  00027	8d 45 08	 lea	 eax, DWORD PTR $T102393[ebp]
  0002a	72 03		 jb	 SHORT $L102411
  0002c	8d 45 0c	 lea	 eax, DWORD PTR ___n$[ebp]
$L102411:

; 851  :     return *this;

  0002f	8d 14 39	 lea	 edx, DWORD PTR [ecx+edi]
  00032	03 10		 add	 edx, DWORD PTR [eax]
  00034	03 cf		 add	 ecx, edi
  00036	52		 push	 edx
  00037	51		 push	 ecx
  00038	8b ce		 mov	 ecx, esi
  0003a	e8 00 00 00 00	 call	 ?erase@?$basic_string@DV?$char_traits@D@_STL@@V?$allocator@D@2@@_STL@@QAEPADPAD0@Z ; _STL::basic_string<char,_STL::char_traits<char>,_STL::allocator<char> >::erase
  0003f	5f		 pop	 edi
  00040	8b c6		 mov	 eax, esi
  00042	5e		 pop	 esi

; 852  :   }  

  00043	5d		 pop	 ebp
  00044	c2 08 00	 ret	 8
?erase@?$basic_string@DV?$char_traits@D@_STL@@V?$allocator@D@2@@_STL@@QAEAAV12@II@Z ENDP ; _STL::basic_string<char,_STL::char_traits<char>,_STL::allocator<char> >::erase
_TEXT	ENDS
PUBLIC	?find@?$basic_string@DV?$char_traits@D@_STL@@V?$allocator@D@2@@_STL@@QBEIABV12@I@Z ; _STL::basic_string<char,_STL::char_traits<char>,_STL::allocator<char> >::find
; Function compile flags: /Ogsy
;	COMDAT ?find@?$basic_string@DV?$char_traits@D@_STL@@V?$allocator@D@2@@_STL@@QBEIABV12@I@Z
_TEXT	SEGMENT
___s$ = 8						; size = 4
___pos$ = 12						; size = 4
?find@?$basic_string@DV?$char_traits@D@_STL@@V?$allocator@D@2@@_STL@@QBEIABV12@I@Z PROC NEAR ; _STL::basic_string<char,_STL::char_traits<char>,_STL::allocator<char> >::find, COMDAT
; _this$ = ecx

; 1071 :     { return find(__s._M_start, __pos, __s.size()); }

  00000	8b 44 24 04	 mov	 eax, DWORD PTR ___s$[esp-4]
  00004	8b 10		 mov	 edx, DWORD PTR [eax]
  00006	8b 40 04	 mov	 eax, DWORD PTR [eax+4]
  00009	2b c2		 sub	 eax, edx
  0000b	50		 push	 eax
  0000c	ff 74 24 0c	 push	 DWORD PTR ___pos$[esp]
  00010	52		 push	 edx
  00011	e8 00 00 00 00	 call	 ?find@?$basic_string@DV?$char_traits@D@_STL@@V?$allocator@D@2@@_STL@@QBEIPBDII@Z ; _STL::basic_string<char,_STL::char_traits<char>,_STL::allocator<char> >::find
  00016	c2 08 00	 ret	 8
?find@?$basic_string@DV?$char_traits@D@_STL@@V?$allocator@D@2@@_STL@@QBEIABV12@I@Z ENDP ; _STL::basic_string<char,_STL::char_traits<char>,_STL::allocator<char> >::find
_TEXT	ENDS
PUBLIC	?find@?$basic_string@DV?$char_traits@D@_STL@@V?$allocator@D@2@@_STL@@QBEIPBDI@Z ; _STL::basic_string<char,_STL::char_traits<char>,_STL::allocator<char> >::find
; Function compile flags: /Ogsy
;	COMDAT ?find@?$basic_string@DV?$char_traits@D@_STL@@V?$allocator@D@2@@_STL@@QBEIPBDI@Z
_TEXT	SEGMENT
___s$ = 8						; size = 4
___pos$ = 12						; size = 4
?find@?$basic_string@DV?$char_traits@D@_STL@@V?$allocator@D@2@@_STL@@QBEIPBDI@Z PROC NEAR ; _STL::basic_string<char,_STL::char_traits<char>,_STL::allocator<char> >::find, COMDAT
; _this$ = ecx

; 1074 :     { _STLP_FIX_LITERAL_BUG(__s) return find(__s, __pos, _Traits::length(__s)); }

  00000	56		 push	 esi
  00001	ff 74 24 08	 push	 DWORD PTR ___s$[esp]
  00005	8b f1		 mov	 esi, ecx
  00007	e8 00 00 00 00	 call	 _strlen
  0000c	59		 pop	 ecx
  0000d	50		 push	 eax
  0000e	ff 74 24 10	 push	 DWORD PTR ___pos$[esp+4]
  00012	8b ce		 mov	 ecx, esi
  00014	ff 74 24 10	 push	 DWORD PTR ___s$[esp+8]
  00018	e8 00 00 00 00	 call	 ?find@?$basic_string@DV?$char_traits@D@_STL@@V?$allocator@D@2@@_STL@@QBEIPBDII@Z ; _STL::basic_string<char,_STL::char_traits<char>,_STL::allocator<char> >::find
  0001d	5e		 pop	 esi
  0001e	c2 08 00	 ret	 8
?find@?$basic_string@DV?$char_traits@D@_STL@@V?$allocator@D@2@@_STL@@QBEIPBDI@Z ENDP ; _STL::basic_string<char,_STL::char_traits<char>,_STL::allocator<char> >::find
_TEXT	ENDS
PUBLIC	??0?$_String_base@DV?$allocator@D@_STL@@@_STL@@QAE@ABV?$allocator@D@1@@Z ; _STL::_String_base<char,_STL::allocator<char> >::_String_base<char,_STL::allocator<char> >
; Function compile flags: /Ogsy
;	COMDAT ??0?$_String_base@DV?$allocator@D@_STL@@@_STL@@QAE@ABV?$allocator@D@1@@Z
_TEXT	SEGMENT
___a$ = 8						; size = 4
??0?$_String_base@DV?$allocator@D@_STL@@@_STL@@QAE@ABV?$allocator@D@1@@Z PROC NEAR ; _STL::_String_base<char,_STL::allocator<char> >::_String_base<char,_STL::allocator<char> >, COMDAT
; _this$ = ecx

; 129  :     : _M_start(0), _M_finish(0), _M_end_of_storage(__a, (_Tp*)0) {}

  00000	56		 push	 esi
  00001	33 c0		 xor	 eax, eax
  00003	8b f1		 mov	 esi, ecx
  00005	50		 push	 eax
  00006	ff 74 24 0c	 push	 DWORD PTR ___a$[esp+4]
  0000a	8d 4e 08	 lea	 ecx, DWORD PTR [esi+8]
  0000d	89 06		 mov	 DWORD PTR [esi], eax
  0000f	89 46 04	 mov	 DWORD PTR [esi+4], eax
  00012	e8 00 00 00 00	 call	 ??0?$_STLP_alloc_proxy@PADDV?$allocator@D@_STL@@@_STL@@QAE@ABV?$allocator@D@1@PAD@Z ; _STL::_STLP_alloc_proxy<char *,char,_STL::allocator<char> >::_STLP_alloc_proxy<char *,char,_STL::allocator<char> >
  00017	8b c6		 mov	 eax, esi
  00019	5e		 pop	 esi
  0001a	c2 04 00	 ret	 4
??0?$_String_base@DV?$allocator@D@_STL@@@_STL@@QAE@ABV?$allocator@D@1@@Z ENDP ; _STL::_String_base<char,_STL::allocator<char> >::_String_base<char,_STL::allocator<char> >
_TEXT	ENDS
PUBLIC	?setstate@?$basic_ios@DV?$char_traits@D@_STL@@@_STL@@QAEXH@Z ; _STL::basic_ios<char,_STL::char_traits<char> >::setstate
; Function compile flags: /Ogsy
; File c:\stlport-4.6.1\stlport\stl\_ios.h
;	COMDAT ?setstate@?$basic_ios@DV?$char_traits@D@_STL@@@_STL@@QAEXH@Z
_TEXT	SEGMENT
___state$ = 8						; size = 4
?setstate@?$basic_ios@DV?$char_traits@D@_STL@@@_STL@@QAEXH@Z PROC NEAR ; _STL::basic_ios<char,_STL::char_traits<char> >::setstate, COMDAT
; _this$ = ecx

; 94   :   void setstate(iostate __state) { this->clear(rdstate() | __state); }

  00000	8b 41 08	 mov	 eax, DWORD PTR [ecx+8]
  00003	0b 44 24 04	 or	 eax, DWORD PTR ___state$[esp-4]
  00007	50		 push	 eax
  00008	e8 00 00 00 00	 call	 ?clear@?$basic_ios@DV?$char_traits@D@_STL@@@_STL@@QAEXH@Z ; _STL::basic_ios<char,_STL::char_traits<char> >::clear
  0000d	c2 04 00	 ret	 4
?setstate@?$basic_ios@DV?$char_traits@D@_STL@@@_STL@@QAEXH@Z ENDP ; _STL::basic_ios<char,_STL::char_traits<char> >::setstate
_TEXT	ENDS
PUBLIC	??0?$basic_filebuf@DV?$char_traits@D@_STL@@@_STL@@QAE@XZ ; _STL::basic_filebuf<char,_STL::char_traits<char> >::basic_filebuf<char,_STL::char_traits<char> >
PUBLIC	?showmanyc@?$basic_filebuf@DV?$char_traits@D@_STL@@@_STL@@MAEHXZ ; _STL::basic_filebuf<char,_STL::char_traits<char> >::showmanyc
PUBLIC	?underflow@?$basic_filebuf@DV?$char_traits@D@_STL@@@_STL@@MAEHXZ ; _STL::basic_filebuf<char,_STL::char_traits<char> >::underflow
PUBLIC	?pbackfail@?$basic_filebuf@DV?$char_traits@D@_STL@@@_STL@@MAEHH@Z ; _STL::basic_filebuf<char,_STL::char_traits<char> >::pbackfail
PUBLIC	?overflow@?$basic_filebuf@DV?$char_traits@D@_STL@@@_STL@@MAEHH@Z ; _STL::basic_filebuf<char,_STL::char_traits<char> >::overflow
PUBLIC	?setbuf@?$basic_filebuf@DV?$char_traits@D@_STL@@@_STL@@MAEPAV?$basic_streambuf@DV?$char_traits@D@_STL@@@2@PADH@Z ; _STL::basic_filebuf<char,_STL::char_traits<char> >::setbuf
PUBLIC	?seekoff@?$basic_filebuf@DV?$char_traits@D@_STL@@@_STL@@MAE?AV?$fpos@H@2@JHH@Z ; _STL::basic_filebuf<char,_STL::char_traits<char> >::seekoff
PUBLIC	?seekpos@?$basic_filebuf@DV?$char_traits@D@_STL@@@_STL@@MAE?AV?$fpos@H@2@V32@H@Z ; _STL::basic_filebuf<char,_STL::char_traits<char> >::seekpos
PUBLIC	?sync@?$basic_filebuf@DV?$char_traits@D@_STL@@@_STL@@MAEHXZ ; _STL::basic_filebuf<char,_STL::char_traits<char> >::sync
PUBLIC	?imbue@?$basic_filebuf@DV?$char_traits@D@_STL@@@_STL@@MAEXABVlocale@2@@Z ; _STL::basic_filebuf<char,_STL::char_traits<char> >::imbue
PUBLIC	??_7?$basic_filebuf@DV?$char_traits@D@_STL@@@_STL@@6B@ ; _STL::basic_filebuf<char,_STL::char_traits<char> >::`vftable'
PUBLIC	??_G?$basic_filebuf@DV?$char_traits@D@_STL@@@_STL@@UAEPAXI@Z ; _STL::basic_filebuf<char,_STL::char_traits<char> >::`scalar deleting destructor'
PUBLIC	??_R4?$basic_filebuf@DV?$char_traits@D@_STL@@@_STL@@6B@ ; _STL::basic_filebuf<char,_STL::char_traits<char> >::`RTTI Complete Object Locator'
PUBLIC	??_R0?AV?$basic_filebuf@DV?$char_traits@D@_STL@@@_STL@@@8 ; _STL::basic_filebuf<char,_STL::char_traits<char> > `RTTI Type Descriptor'
PUBLIC	??_R3?$basic_filebuf@DV?$char_traits@D@_STL@@@_STL@@8 ; _STL::basic_filebuf<char,_STL::char_traits<char> >::`RTTI Class Hierarchy Descriptor'
PUBLIC	??_R2?$basic_filebuf@DV?$char_traits@D@_STL@@@_STL@@8 ; _STL::basic_filebuf<char,_STL::char_traits<char> >::`RTTI Base Class Array'
PUBLIC	??_R1A@?0A@A@?$basic_filebuf@DV?$char_traits@D@_STL@@@_STL@@8 ; _STL::basic_filebuf<char,_STL::char_traits<char> >::`RTTI Base Class Descriptor at (0,-1,0,0)'
EXTRN	__EH_prolog:NEAR
EXTRN	__except_list:DWORD
EXTRN	___CxxFrameHandler:NEAR
EXTRN	??0_Filebuf_base@_STL@@QAE@XZ:NEAR		; _STL::_Filebuf_base::_Filebuf_base
EXTRN	??1locale@_STL@@QAE@XZ:NEAR			; _STL::locale::~locale
EXTRN	??_E?$basic_filebuf@DV?$char_traits@D@_STL@@@_STL@@UAEPAXI@Z:NEAR ; _STL::basic_filebuf<char,_STL::char_traits<char> >::`vector deleting destructor'
;	COMDAT xdata$x
; File c:\stlport-4.6.1\stlport\stl\_fstream.c
xdata$x	SEGMENT
$T102451 DD	0ffffffffH
	DD	FLAT:$L102442
	DD	00H
	DD	FLAT:$L102443
$T102447 DD	019930520H
	DD	02H
	DD	FLAT:$T102451
	DD	2 DUP(00H)
	DD	2 DUP(00H)
xdata$x	ENDS
;	COMDAT ??_7?$basic_filebuf@DV?$char_traits@D@_STL@@@_STL@@6B@
CONST	SEGMENT
??_7?$basic_filebuf@DV?$char_traits@D@_STL@@@_STL@@6B@ DD FLAT:??_R4?$basic_filebuf@DV?$char_traits@D@_STL@@@_STL@@6B@ ; _STL::basic_filebuf<char,_STL::char_traits<char> >::`vftable'
	DD	FLAT:??_E?$basic_filebuf@DV?$char_traits@D@_STL@@@_STL@@UAEPAXI@Z
	DD	FLAT:?setbuf@?$basic_filebuf@DV?$char_traits@D@_STL@@@_STL@@MAEPAV?$basic_streambuf@DV?$char_traits@D@_STL@@@2@PADH@Z
	DD	FLAT:?seekoff@?$basic_filebuf@DV?$char_traits@D@_STL@@@_STL@@MAE?AV?$fpos@H@2@JHH@Z
	DD	FLAT:?seekpos@?$basic_filebuf@DV?$char_traits@D@_STL@@@_STL@@MAE?AV?$fpos@H@2@V32@H@Z
	DD	FLAT:?sync@?$basic_filebuf@DV?$char_traits@D@_STL@@@_STL@@MAEHXZ
	DD	FLAT:?showmanyc@?$basic_filebuf@DV?$char_traits@D@_STL@@@_STL@@MAEHXZ
	DD	FLAT:?xsgetn@?$basic_streambuf@DV?$char_traits@D@_STL@@@_STL@@MAEHPADH@Z
	DD	FLAT:?underflow@?$basic_filebuf@DV?$char_traits@D@_STL@@@_STL@@MAEHXZ
	DD	FLAT:?uflow@?$basic_streambuf@DV?$char_traits@D@_STL@@@_STL@@MAEHXZ
	DD	FLAT:?pbackfail@?$basic_filebuf@DV?$char_traits@D@_STL@@@_STL@@MAEHH@Z
	DD	FLAT:?xsputn@?$basic_streambuf@DV?$char_traits@D@_STL@@@_STL@@MAEHPBDH@Z
	DD	FLAT:?_M_xsputnc@?$basic_streambuf@DV?$char_traits@D@_STL@@@_STL@@MAEHDH@Z
	DD	FLAT:?overflow@?$basic_filebuf@DV?$char_traits@D@_STL@@@_STL@@MAEHH@Z
	DD	FLAT:?imbue@?$basic_filebuf@DV?$char_traits@D@_STL@@@_STL@@MAEXABVlocale@2@@Z
CONST	ENDS
;	COMDAT ??_R4?$basic_filebuf@DV?$char_traits@D@_STL@@@_STL@@6B@
rdata$r	SEGMENT
??_R4?$basic_filebuf@DV?$char_traits@D@_STL@@@_STL@@6B@ DD 00H ; _STL::basic_filebuf<char,_STL::char_traits<char> >::`RTTI Complete Object Locator'
	DD	00H
	DD	00H
	DD	FLAT:??_R0?AV?$basic_filebuf@DV?$char_traits@D@_STL@@@_STL@@@8
	DD	FLAT:??_R3?$basic_filebuf@DV?$char_traits@D@_STL@@@_STL@@8
rdata$r	ENDS
;	COMDAT ??_R0?AV?$basic_filebuf@DV?$char_traits@D@_STL@@@_STL@@@8
_DATA	SEGMENT
??_R0?AV?$basic_filebuf@DV?$char_traits@D@_STL@@@_STL@@@8 DD FLAT:??_7type_info@@6B@ ; _STL::basic_filebuf<char,_STL::char_traits<char> > `RTTI Type Descriptor'
	DD	00H
	DB	'.?AV?$basic_filebuf@DV?$char_traits@D@_STL@@@_STL@@', 00H
_DATA	ENDS
;	COMDAT ??_R3?$basic_filebuf@DV?$char_traits@D@_STL@@@_STL@@8
rdata$r	SEGMENT
??_R3?$basic_filebuf@DV?$char_traits@D@_STL@@@_STL@@8 DD 00H ; _STL::basic_filebuf<char,_STL::char_traits<char> >::`RTTI Class Hierarchy Descriptor'
	DD	00H
	DD	02H
	DD	FLAT:??_R2?$basic_filebuf@DV?$char_traits@D@_STL@@@_STL@@8
rdata$r	ENDS
;	COMDAT ??_R2?$basic_filebuf@DV?$char_traits@D@_STL@@@_STL@@8
rdata$r	SEGMENT
??_R2?$basic_filebuf@DV?$char_traits@D@_STL@@@_STL@@8 DD FLAT:??_R1A@?0A@A@?$basic_filebuf@DV?$char_traits@D@_STL@@@_STL@@8 ; _STL::basic_filebuf<char,_STL::char_traits<char> >::`RTTI Base Class Array'
	DD	FLAT:??_R1A@?0A@A@?$basic_streambuf@DV?$char_traits@D@_STL@@@_STL@@8
rdata$r	ENDS
;	COMDAT ??_R1A@?0A@A@?$basic_filebuf@DV?$char_traits@D@_STL@@@_STL@@8
rdata$r	SEGMENT
??_R1A@?0A@A@?$basic_filebuf@DV?$char_traits@D@_STL@@@_STL@@8 DD FLAT:??_R0?AV?$basic_filebuf@DV?$char_traits@D@_STL@@@_STL@@@8 ; _STL::basic_filebuf<char,_STL::char_traits<char> >::`RTTI Base Class Descriptor at (0,-1,0,0)'
	DD	01H
	DD	00H
	DD	0ffffffffH
	DD	00H
	DD	00H
; Function compile flags: /Ogsy
rdata$r	ENDS
;	COMDAT ??0?$basic_filebuf@DV?$char_traits@D@_STL@@@_STL@@QAE@XZ
_TEXT	SEGMENT
_this$ = -20						; size = 4
$T102441 = -16						; size = 4
__$EHRec$ = -12						; size = 12
??0?$basic_filebuf@DV?$char_traits@D@_STL@@@_STL@@QAE@XZ PROC NEAR ; _STL::basic_filebuf<char,_STL::char_traits<char> >::basic_filebuf<char,_STL::char_traits<char> >, COMDAT
; _this$ = ecx

; 60   : {

  00000	b8 00 00 00 00	 mov	 eax, __ehhandler$??0?$basic_filebuf@DV?$char_traits@D@_STL@@@_STL@@QAE@XZ
  00005	e8 00 00 00 00	 call	 __EH_prolog
  0000a	51		 push	 ecx
  0000b	51		 push	 ecx
  0000c	53		 push	 ebx
  0000d	56		 push	 esi
  0000e	8b f1		 mov	 esi, ecx
  00010	89 75 ec	 mov	 DWORD PTR _this$[ebp], esi
  00013	e8 00 00 00 00	 call	 ??0?$basic_streambuf@DV?$char_traits@D@_STL@@@_STL@@IAE@XZ ; _STL::basic_streambuf<char,_STL::char_traits<char> >::basic_streambuf<char,_STL::char_traits<char> >
  00018	33 db		 xor	 ebx, ebx
  0001a	8d 4e 54	 lea	 ecx, DWORD PTR [esi+84]
  0001d	89 5d fc	 mov	 DWORD PTR __$EHRec$[ebp+8], ebx
  00020	c7 06 00 00 00
	00		 mov	 DWORD PTR [esi], OFFSET FLAT:??_7?$basic_filebuf@DV?$char_traits@D@_STL@@@_STL@@6B@
  00026	e8 00 00 00 00	 call	 ??0_Filebuf_base@_STL@@QAE@XZ ; _STL::_Filebuf_base::_Filebuf_base
  0002b	33 c0		 xor	 eax, eax
  0002d	40		 inc	 eax

; 61   :   this->_M_setup_codecvt(locale());

  0002e	8d 4d f0	 lea	 ecx, DWORD PTR $T102441[ebp]
  00031	88 5e 64	 mov	 BYTE PTR [esi+100], bl
  00034	88 5e 65	 mov	 BYTE PTR [esi+101], bl
  00037	88 5e 66	 mov	 BYTE PTR [esi+102], bl
  0003a	88 5e 67	 mov	 BYTE PTR [esi+103], bl
  0003d	88 5e 68	 mov	 BYTE PTR [esi+104], bl
  00040	88 5e 69	 mov	 BYTE PTR [esi+105], bl
  00043	88 5e 6a	 mov	 BYTE PTR [esi+106], bl
  00046	89 5e 6c	 mov	 DWORD PTR [esi+108], ebx
  00049	89 5e 70	 mov	 DWORD PTR [esi+112], ebx
  0004c	89 5e 74	 mov	 DWORD PTR [esi+116], ebx
  0004f	89 5e 78	 mov	 DWORD PTR [esi+120], ebx
  00052	89 5e 7c	 mov	 DWORD PTR [esi+124], ebx
  00055	89 9e 80 00 00
	00		 mov	 DWORD PTR [esi+128], ebx
  0005b	89 9e 84 00 00
	00		 mov	 DWORD PTR [esi+132], ebx
  00061	89 9e 88 00 00
	00		 mov	 DWORD PTR [esi+136], ebx
  00067	89 9e 8c 00 00
	00		 mov	 DWORD PTR [esi+140], ebx
  0006d	89 9e 90 00 00
	00		 mov	 DWORD PTR [esi+144], ebx
  00073	89 9e 94 00 00
	00		 mov	 DWORD PTR [esi+148], ebx
  00079	89 9e 98 00 00
	00		 mov	 DWORD PTR [esi+152], ebx
  0007f	89 9e 9c 00 00
	00		 mov	 DWORD PTR [esi+156], ebx
  00085	89 9e a0 00 00
	00		 mov	 DWORD PTR [esi+160], ebx
  0008b	89 86 a4 00 00
	00		 mov	 DWORD PTR [esi+164], eax
  00091	89 86 a8 00 00
	00		 mov	 DWORD PTR [esi+168], eax
  00097	e8 00 00 00 00	 call	 ??0locale@_STL@@QAE@XZ	; _STL::locale::locale
  0009c	50		 push	 eax
  0009d	8b ce		 mov	 ecx, esi
  0009f	c6 45 fc 01	 mov	 BYTE PTR __$EHRec$[ebp+8], 1
  000a3	e8 00 00 00 00	 call	 ?_M_setup_codecvt@?$basic_filebuf@DV?$char_traits@D@_STL@@@_STL@@AAEXABVlocale@2@@Z ; _STL::basic_filebuf<char,_STL::char_traits<char> >::_M_setup_codecvt
  000a8	8d 4d f0	 lea	 ecx, DWORD PTR $T102441[ebp]
  000ab	88 5d fc	 mov	 BYTE PTR __$EHRec$[ebp+8], bl
  000ae	e8 00 00 00 00	 call	 ??1locale@_STL@@QAE@XZ	; _STL::locale::~locale

; 62   : }

  000b3	8b 4d f4	 mov	 ecx, DWORD PTR __$EHRec$[ebp]
  000b6	8b c6		 mov	 eax, esi
  000b8	5e		 pop	 esi
  000b9	5b		 pop	 ebx
  000ba	64 89 0d 00 00
	00 00		 mov	 DWORD PTR fs:__except_list, ecx
  000c1	c9		 leave
  000c2	c3		 ret	 0
_TEXT	ENDS
;	COMDAT text$x
text$x	SEGMENT
$L102442:
  00000	8b 4d ec	 mov	 ecx, DWORD PTR _this$[ebp]
  00003	e9 00 00 00 00	 jmp	 ??1?$basic_streambuf@DV?$char_traits@D@_STL@@@_STL@@UAE@XZ ; _STL::basic_streambuf<char,_STL::char_traits<char> >::~basic_streambuf<char,_STL::char_traits<char> >
$L102443:
  00008	8d 4d f0	 lea	 ecx, DWORD PTR $T102441[ebp]
  0000b	e9 00 00 00 00	 jmp	 ??1locale@_STL@@QAE@XZ	; _STL::locale::~locale
__ehhandler$??0?$basic_filebuf@DV?$char_traits@D@_STL@@@_STL@@QAE@XZ:
  00010	b8 00 00 00 00	 mov	 eax, OFFSET FLAT:$T102447
  00015	e9 00 00 00 00	 jmp	 ___CxxFrameHandler
text$x	ENDS
??0?$basic_filebuf@DV?$char_traits@D@_STL@@@_STL@@QAE@XZ ENDP ; _STL::basic_filebuf<char,_STL::char_traits<char> >::basic_filebuf<char,_STL::char_traits<char> >
EXTRN	?_M_doit@?$_Underflow@DV?$char_traits@D@_STL@@@_STL@@SAHPAV?$basic_filebuf@DV?$char_traits@D@_STL@@@2@@Z:NEAR ; _STL::_Underflow<char,_STL::char_traits<char> >::_M_doit
; Function compile flags: /Ogsy
;	COMDAT ?underflow@?$basic_filebuf@DV?$char_traits@D@_STL@@@_STL@@MAEHXZ
_TEXT	SEGMENT
?underflow@?$basic_filebuf@DV?$char_traits@D@_STL@@@_STL@@MAEHXZ PROC NEAR ; _STL::basic_filebuf<char,_STL::char_traits<char> >::underflow, COMDAT
; _this$ = ecx

; 75   :   return _Underflow<_CharT, _Traits>::_M_doit(this);

  00000	51		 push	 ecx
  00001	e8 00 00 00 00	 call	 ?_M_doit@?$_Underflow@DV?$char_traits@D@_STL@@@_STL@@SAHPAV?$basic_filebuf@DV?$char_traits@D@_STL@@@2@@Z ; _STL::_Underflow<char,_STL::char_traits<char> >::_M_doit
  00006	59		 pop	 ecx

; 76   : }

  00007	c3		 ret	 0
?underflow@?$basic_filebuf@DV?$char_traits@D@_STL@@@_STL@@MAEHXZ ENDP ; _STL::basic_filebuf<char,_STL::char_traits<char> >::underflow
; Function compile flags: /Ogsy
_TEXT	ENDS
;	COMDAT ?pbackfail@?$basic_filebuf@DV?$char_traits@D@_STL@@@_STL@@MAEHH@Z
_TEXT	SEGMENT
___c$ = 8						; size = 4
?pbackfail@?$basic_filebuf@DV?$char_traits@D@_STL@@@_STL@@MAEHH@Z PROC NEAR ; _STL::basic_filebuf<char,_STL::char_traits<char> >::pbackfail, COMDAT
; _this$ = ecx

; 162  :   const int_type __eof = traits_type::eof();
; 163  : 
; 164  :   // If we aren't already in input mode, pushback is impossible.
; 165  :   if (!_M_in_input_mode)
; 166  :     return __eof;

  00000	83 c8 ff	 or	 eax, -1
  00003	80 79 67 00	 cmp	 BYTE PTR [ecx+103], 0
  00007	0f 84 b0 00 00
	00		 je	 $L98761

; 167  : 
; 168  :   // We can use the ordinary get buffer if there's enough space, and
; 169  :   // if it's a buffer that we're allowed to write to.
; 170  :   if (this->gptr() != this->eback() &&
; 171  :       (traits_type::eq_int_type(__c, __eof) ||
; 172  :        traits_type::eq(traits_type::to_char_type(__c), this->gptr()[-1]) ||
; 173  :        !_M_mmap_base)) {

  0000d	8b 51 04	 mov	 edx, DWORD PTR [ecx+4]
  00010	53		 push	 ebx
  00011	8b 5c 24 08	 mov	 ebx, DWORD PTR ___c$[esp]
  00015	56		 push	 esi
  00016	8b 32		 mov	 esi, DWORD PTR [edx]
  00018	57		 push	 edi
  00019	8b 7a 08	 mov	 edi, DWORD PTR [edx+8]
  0001c	3b f7		 cmp	 esi, edi
  0001e	74 2e		 je	 SHORT $L98765
  00020	3b d8		 cmp	 ebx, eax
  00022	74 0e		 je	 SHORT $L98766
  00024	3a 5e ff	 cmp	 bl, BYTE PTR [esi-1]
  00027	74 09		 je	 SHORT $L98766
  00029	83 b9 8c 00 00
	00 00		 cmp	 DWORD PTR [ecx+140], 0
  00030	75 1c		 jne	 SHORT $L98765
$L98766:

; 174  :     this->gbump(-1);

  00032	ff 0a		 dec	 DWORD PTR [edx]
  00034	ff 42 04	 inc	 DWORD PTR [edx+4]

; 175  :     if (traits_type::eq_int_type(__c, __eof) ||
; 176  :         traits_type::eq(traits_type::to_char_type(__c), *this->gptr()))

  00037	3b d8		 cmp	 ebx, eax
  00039	74 09		 je	 SHORT $L98769
  0003b	8b 41 04	 mov	 eax, DWORD PTR [ecx+4]
  0003e	8b 00		 mov	 eax, DWORD PTR [eax]
  00040	3a 18		 cmp	 bl, BYTE PTR [eax]
  00042	75 6d		 jne	 SHORT $L98777
$L98769:

; 177  :       return traits_type::to_int_type(*this->gptr());

  00044	8b 41 04	 mov	 eax, DWORD PTR [ecx+4]
  00047	8b 00		 mov	 eax, DWORD PTR [eax]
  00049	0f b6 00	 movzx	 eax, BYTE PTR [eax]
  0004c	eb 6c		 jmp	 SHORT $L102636
$L98765:

; 178  :   }
; 179  :   else if (!traits_type::eq_int_type(__c, __eof)) {

  0004e	3b d8		 cmp	 ebx, eax
  00050	74 68		 je	 SHORT $L102636

; 180  :     // Are we in the putback buffer already?
; 181  :     _CharT* __pback_end = _M_pback_buf + __STATIC_CAST(int,_S_pback_buf_size);
; 182  :     if (_M_in_putback_mode) {

  00052	80 79 6a 00	 cmp	 BYTE PTR [ecx+106], 0
  00056	8d b1 b4 00 00
	00		 lea	 esi, DWORD PTR [ecx+180]
  0005c	74 29		 je	 SHORT $L98774

; 183  :       // Do we have more room in the putback buffer?
; 184  :       if (this->eback() != _M_pback_buf) 

  0005e	8d 99 ac 00 00
	00		 lea	 ebx, DWORD PTR [ecx+172]
  00064	3b fb		 cmp	 edi, ebx
  00066	74 52		 je	 SHORT $L102636

; 185  :         this->setg(this->egptr() - 1, this->egptr() - 1, __pback_end);

  00068	8b 42 04	 mov	 eax, DWORD PTR [edx+4]
  0006b	8b 3a		 mov	 edi, DWORD PTR [edx]
  0006d	8b 1a		 mov	 ebx, DWORD PTR [edx]
  0006f	8d 7c 38 ff	 lea	 edi, DWORD PTR [eax+edi-1]
  00073	8d 44 18 ff	 lea	 eax, DWORD PTR [eax+ebx-1]

; 186  :       else
; 187  :         return __eof;           // No more room in the buffer, so fail.
; 188  :     }
; 189  :     else {                      // We're not yet in the putback buffer.

  00077	8b 5c 24 10	 mov	 ebx, DWORD PTR ___c$[esp+8]
  0007b	2b f7		 sub	 esi, edi
  0007d	89 42 08	 mov	 DWORD PTR [edx+8], eax
  00080	89 3a		 mov	 DWORD PTR [edx], edi
  00082	89 72 04	 mov	 DWORD PTR [edx+4], esi
  00085	eb 2a		 jmp	 SHORT $L98777
$L98774:

; 190  :       _M_saved_eback = this->eback();

  00087	89 b9 94 00 00
	00		 mov	 DWORD PTR [ecx+148], edi

; 191  :       _M_saved_gptr  = this->gptr();

  0008d	8b 02		 mov	 eax, DWORD PTR [edx]
  0008f	89 81 98 00 00
	00		 mov	 DWORD PTR [ecx+152], eax

; 192  :       _M_saved_egptr = this->egptr();

  00095	8b 42 04	 mov	 eax, DWORD PTR [edx+4]
  00098	03 02		 add	 eax, DWORD PTR [edx]

; 193  :       this->setg(__pback_end - 1, __pback_end - 1, __pback_end);

  0009a	8d 7e ff	 lea	 edi, DWORD PTR [esi-1]
  0009d	89 81 9c 00 00
	00		 mov	 DWORD PTR [ecx+156], eax
  000a3	2b f7		 sub	 esi, edi
  000a5	89 7a 08	 mov	 DWORD PTR [edx+8], edi
  000a8	89 3a		 mov	 DWORD PTR [edx], edi
  000aa	89 72 04	 mov	 DWORD PTR [edx+4], esi

; 194  :       _M_in_putback_mode = true;

  000ad	c6 41 6a 01	 mov	 BYTE PTR [ecx+106], 1
$L98777:

; 195  :     }
; 196  :   }
; 197  :   else
; 198  :     return __eof;
; 199  : 
; 200  :   // We have made a putback position available.  Assign to it, and return.
; 201  :   *this->gptr() = traits_type::to_char_type(__c);

  000b1	8b 41 04	 mov	 eax, DWORD PTR [ecx+4]
  000b4	8b 00		 mov	 eax, DWORD PTR [eax]
  000b6	88 18		 mov	 BYTE PTR [eax], bl

; 202  :   return __c;

  000b8	8b c3		 mov	 eax, ebx
$L102636:
  000ba	5f		 pop	 edi
  000bb	5e		 pop	 esi
  000bc	5b		 pop	 ebx
$L98761:

; 203  : }

  000bd	c2 04 00	 ret	 4
?pbackfail@?$basic_filebuf@DV?$char_traits@D@_STL@@@_STL@@MAEHH@Z ENDP ; _STL::basic_filebuf<char,_STL::char_traits<char> >::pbackfail
; Function compile flags: /Ogsy
_TEXT	ENDS
;	COMDAT ?sync@?$basic_filebuf@DV?$char_traits@D@_STL@@@_STL@@MAEHXZ
_TEXT	SEGMENT
?sync@?$basic_filebuf@DV?$char_traits@D@_STL@@@_STL@@MAEHXZ PROC NEAR ; _STL::basic_filebuf<char,_STL::char_traits<char> >::sync, COMDAT
; _this$ = ecx

; 414  :   if (_M_in_output_mode)

  00000	80 79 68 00	 cmp	 BYTE PTR [ecx+104], 0
  00004	74 13		 je	 SHORT $L98951

; 415  :     return traits_type::eq_int_type(this->overflow(traits_type::eof()),
; 416  :                                     traits_type::eof())
; 417  :       ? -1
; 418  :       : 0;

  00006	8b 01		 mov	 eax, DWORD PTR [ecx]
  00008	6a ff		 push	 -1
  0000a	ff 50 30	 call	 DWORD PTR [eax+48]
  0000d	33 c9		 xor	 ecx, ecx
  0000f	83 f8 ff	 cmp	 eax, -1
  00012	0f 95 c1	 setne	 cl
  00015	49		 dec	 ecx
  00016	8b c1		 mov	 eax, ecx

; 421  : }

  00018	c3		 ret	 0
$L98951:

; 419  :   else
; 420  :     return 0;

  00019	33 c0		 xor	 eax, eax

; 421  : }

  0001b	c3		 ret	 0
?sync@?$basic_filebuf@DV?$char_traits@D@_STL@@@_STL@@MAEHXZ ENDP ; _STL::basic_filebuf<char,_STL::char_traits<char> >::sync
_TEXT	ENDS
EXTRN	?_M_seek@_Filebuf_base@_STL@@QAEJJH@Z:NEAR	; _STL::_Filebuf_base::_M_seek
EXTRN	?_M_file_size@_Filebuf_base@_STL@@QAEJXZ:NEAR	; _STL::_Filebuf_base::_M_file_size
; Function compile flags: /Ogsy
;	COMDAT ?showmanyc@?$basic_filebuf@DV?$char_traits@D@_STL@@@_STL@@MAEHXZ
_TEXT	SEGMENT
?showmanyc@?$basic_filebuf@DV?$char_traits@D@_STL@@@_STL@@MAEHXZ PROC NEAR ; _STL::basic_filebuf<char,_STL::char_traits<char> >::showmanyc, COMDAT
; _this$ = ecx

; 132  : {

  00000	53		 push	 ebx

; 133  :   // Is there any possibility that reads can succeed?
; 134  :   if (!this->is_open() || _M_in_output_mode || _M_in_error_mode)

  00001	33 db		 xor	 ebx, ebx
  00003	38 59 60	 cmp	 BYTE PTR [ecx+96], bl
  00006	74 4a		 je	 SHORT $L98743
  00008	38 59 68	 cmp	 BYTE PTR [ecx+104], bl
  0000b	75 45		 jne	 SHORT $L98743
  0000d	38 59 69	 cmp	 BYTE PTR [ecx+105], bl
  00010	75 40		 jne	 SHORT $L98743

; 136  : 
; 137  :   else if (_M_in_putback_mode)

  00012	38 59 6a	 cmp	 BYTE PTR [ecx+106], bl
  00015	74 08		 je	 SHORT $L98745

; 138  :     return this->egptr() - this->gptr();

  00017	8b 49 04	 mov	 ecx, DWORD PTR [ecx+4]
  0001a	8b 41 04	 mov	 eax, DWORD PTR [ecx+4]
  0001d	5b		 pop	 ebx

; 148  : }

  0001e	c3		 ret	 0
$L98745:

; 139  : 
; 140  :   else if (_M_constant_width) {

  0001f	38 59 64	 cmp	 BYTE PTR [ecx+100], bl
  00022	74 2a		 je	 SHORT $L98747
  00024	56		 push	 esi
  00025	57		 push	 edi

; 141  :     streamoff __pos  = _M_base._M_seek(0, ios_base::cur);

  00026	8d 71 54	 lea	 esi, DWORD PTR [ecx+84]
  00029	6a 02		 push	 2
  0002b	53		 push	 ebx
  0002c	8b ce		 mov	 ecx, esi
  0002e	e8 00 00 00 00	 call	 ?_M_seek@_Filebuf_base@_STL@@QAEJJH@Z ; _STL::_Filebuf_base::_M_seek

; 142  :     streamoff __size = _M_base._M_file_size();

  00033	8b ce		 mov	 ecx, esi
  00035	8b f8		 mov	 edi, eax
  00037	e8 00 00 00 00	 call	 ?_M_file_size@_Filebuf_base@_STL@@QAEJXZ ; _STL::_Filebuf_base::_M_file_size

; 143  :     return __pos >= 0 && __size > __pos ? __size - __pos : 0;

  0003c	3b fb		 cmp	 edi, ebx
  0003e	7c 08		 jl	 SHORT $L102656
  00040	3b c7		 cmp	 eax, edi
  00042	7e 04		 jle	 SHORT $L102656
  00044	2b c7		 sub	 eax, edi
  00046	eb 02		 jmp	 SHORT $L102657
$L102656:
  00048	33 c0		 xor	 eax, eax
$L102657:
  0004a	5f		 pop	 edi
  0004b	5e		 pop	 esi
  0004c	5b		 pop	 ebx

; 148  : }

  0004d	c3		 ret	 0
$L98747:

; 144  :   }
; 145  : 
; 146  :   else 
; 147  :     return 0;

  0004e	33 c0		 xor	 eax, eax
  00050	5b		 pop	 ebx

; 148  : }

  00051	c3		 ret	 0
$L98743:

; 135  :     return -1;

  00052	83 c8 ff	 or	 eax, -1
  00055	5b		 pop	 ebx

; 148  : }

  00056	c3		 ret	 0
?showmanyc@?$basic_filebuf@DV?$char_traits@D@_STL@@@_STL@@MAEHXZ ENDP ; _STL::basic_filebuf<char,_STL::char_traits<char> >::showmanyc
_TEXT	ENDS
PUBLIC	?_M_allocate_buffers@?$basic_filebuf@DV?$char_traits@D@_STL@@@_STL@@AAE_NPADH@Z ; _STL::basic_filebuf<char,_STL::char_traits<char> >::_M_allocate_buffers
; Function compile flags: /Ogsy
;	COMDAT ?setbuf@?$basic_filebuf@DV?$char_traits@D@_STL@@@_STL@@MAEPAV?$basic_streambuf@DV?$char_traits@D@_STL@@@2@PADH@Z
_TEXT	SEGMENT
___buf$ = 8						; size = 4
___n$ = 12						; size = 4
?setbuf@?$basic_filebuf@DV?$char_traits@D@_STL@@@_STL@@MAEPAV?$basic_streambuf@DV?$char_traits@D@_STL@@@2@PADH@Z PROC NEAR ; _STL::basic_filebuf<char,_STL::char_traits<char> >::setbuf, COMDAT
; _this$ = ecx

; 273  : {

  00000	55		 push	 ebp
  00001	8b ec		 mov	 ebp, esp
  00003	56		 push	 esi
  00004	8b f1		 mov	 esi, ecx

; 274  :   if (!_M_in_input_mode &&! _M_in_output_mode && !_M_in_error_mode &&
; 275  :       _M_int_buf == 0) {

  00006	33 c0		 xor	 eax, eax
  00008	38 46 67	 cmp	 BYTE PTR [esi+103], al
  0000b	75 30		 jne	 SHORT $L98816
  0000d	38 46 68	 cmp	 BYTE PTR [esi+104], al
  00010	75 2b		 jne	 SHORT $L98816
  00012	38 46 69	 cmp	 BYTE PTR [esi+105], al
  00015	75 26		 jne	 SHORT $L98816
  00017	39 46 6c	 cmp	 DWORD PTR [esi+108], eax
  0001a	75 21		 jne	 SHORT $L98816

; 276  :     if (__buf == 0 && __n == 0)

  0001c	39 45 08	 cmp	 DWORD PTR ___buf$[ebp], eax
  0001f	75 0a		 jne	 SHORT $L102688
  00021	39 45 0c	 cmp	 DWORD PTR ___n$[ebp], eax
  00024	75 17		 jne	 SHORT $L98816

; 277  :       _M_allocate_buffers(0, 1);

  00026	6a 01		 push	 1
  00028	50		 push	 eax

; 278  :     else if (__buf != 0 && __n > 0)

  00029	eb 0b		 jmp	 SHORT $L102689
$L102688:
  0002b	39 45 0c	 cmp	 DWORD PTR ___n$[ebp], eax
  0002e	7e 0d		 jle	 SHORT $L98816

; 279  :       _M_allocate_buffers(__buf, __n);

  00030	ff 75 0c	 push	 DWORD PTR ___n$[ebp]
  00033	ff 75 08	 push	 DWORD PTR ___buf$[ebp]
$L102689:
  00036	8b ce		 mov	 ecx, esi
  00038	e8 00 00 00 00	 call	 ?_M_allocate_buffers@?$basic_filebuf@DV?$char_traits@D@_STL@@@_STL@@AAE_NPADH@Z ; _STL::basic_filebuf<char,_STL::char_traits<char> >::_M_allocate_buffers
$L98816:

; 280  :   }
; 281  :   return this;

  0003d	8b c6		 mov	 eax, esi
  0003f	5e		 pop	 esi

; 282  : }

  00040	5d		 pop	 ebp
  00041	c2 08 00	 ret	 8
?setbuf@?$basic_filebuf@DV?$char_traits@D@_STL@@@_STL@@MAEPAV?$basic_streambuf@DV?$char_traits@D@_STL@@@2@PADH@Z ENDP ; _STL::basic_filebuf<char,_STL::char_traits<char> >::setbuf
_TEXT	ENDS
EXTRN	_malloc:NEAR
; Function compile flags: /Ogsy
;	COMDAT ?_M_allocate_buffers@?$basic_filebuf@DV?$char_traits@D@_STL@@@_STL@@AAE_NPADH@Z
_TEXT	SEGMENT
$T102695 = -8						; size = 4
$T102693 = -8						; size = 4
$T102694 = -4						; size = 4
$T102692 = 8						; size = 4
___buf$ = 8						; size = 4
___n$ = 12						; size = 4
?_M_allocate_buffers@?$basic_filebuf@DV?$char_traits@D@_STL@@@_STL@@AAE_NPADH@Z PROC NEAR ; _STL::basic_filebuf<char,_STL::char_traits<char> >::_M_allocate_buffers, COMDAT
; _this$ = ecx

; 644  : {

  00000	55		 push	 ebp
  00001	8b ec		 mov	 ebp, esp
  00003	51		 push	 ecx
  00004	51		 push	 ecx

; 645  : 
; 646  :   if (__buf == 0) {

  00005	8b 45 08	 mov	 eax, DWORD PTR ___buf$[ebp]
  00008	85 c0		 test	 eax, eax
  0000a	56		 push	 esi
  0000b	8b f1		 mov	 esi, ecx
  0000d	75 1a		 jne	 SHORT $L100594

; 647  :     _M_int_buf = __STATIC_CAST(_CharT*,malloc(__n * sizeof(_CharT)));

  0000f	ff 75 0c	 push	 DWORD PTR ___n$[ebp]
  00012	e8 00 00 00 00	 call	 _malloc

; 648  :     if (! _M_int_buf)

  00017	85 c0		 test	 eax, eax
  00019	59		 pop	 ecx
  0001a	89 46 6c	 mov	 DWORD PTR [esi+108], eax
  0001d	75 04		 jne	 SHORT $L100597

; 649  :       return false;

  0001f	32 c0		 xor	 al, al
  00021	eb 7a		 jmp	 SHORT $L100593
$L100597:

; 650  :     _M_int_buf_dynamic = true;

  00023	c6 46 66 01	 mov	 BYTE PTR [esi+102], 1

; 651  :   }
; 652  :   else {

  00027	eb 07		 jmp	 SHORT $L100598
$L100594:

; 653  :     _M_int_buf = __buf;

  00029	89 46 6c	 mov	 DWORD PTR [esi+108], eax

; 654  :     _M_int_buf_dynamic = false;

  0002c	c6 46 66 00	 mov	 BYTE PTR [esi+102], 0
$L100598:
  00030	57		 push	 edi

; 655  :   }
; 656  :   
; 657  :   size_t __ebufsiz = (max)(__n * (max)(_M_codecvt->encoding(), 1),
; 658  :                       streamsize(_M_codecvt->max_length()));

  00031	8d be a0 00 00
	00		 lea	 edi, DWORD PTR [esi+160]
  00037	8b 0f		 mov	 ecx, DWORD PTR [edi]
  00039	8b 01		 mov	 eax, DWORD PTR [ecx]
  0003b	ff 50 1c	 call	 DWORD PTR [eax+28]
  0003e	8b 0f		 mov	 ecx, DWORD PTR [edi]
  00040	89 45 08	 mov	 DWORD PTR $T102692[ebp], eax
  00043	8b 01		 mov	 eax, DWORD PTR [ecx]
  00045	c7 45 fc 01 00
	00 00		 mov	 DWORD PTR $T102694[ebp], 1
  0004c	ff 50 10	 call	 DWORD PTR [eax+16]
  0004f	89 45 f8	 mov	 DWORD PTR $T102695[ebp], eax
  00052	83 f8 01	 cmp	 eax, 1
  00055	8d 45 fc	 lea	 eax, DWORD PTR $T102694[ebp]
  00058	7c 03		 jl	 SHORT $L102711
  0005a	8d 45 f8	 lea	 eax, DWORD PTR $T102695[ebp]
$L102711:
  0005d	8b 00		 mov	 eax, DWORD PTR [eax]
  0005f	0f af 45 0c	 imul	 eax, DWORD PTR ___n$[ebp]
  00063	3b 45 08	 cmp	 eax, DWORD PTR $T102692[ebp]
  00066	89 45 f8	 mov	 DWORD PTR $T102693[ebp], eax
  00069	8d 45 08	 lea	 eax, DWORD PTR $T102692[ebp]
  0006c	7c 03		 jl	 SHORT $L102720
  0006e	8d 45 f8	 lea	 eax, DWORD PTR $T102693[ebp]
$L102720:
  00071	8b 38		 mov	 edi, DWORD PTR [eax]

; 659  : 
; 660  :   _M_ext_buf = __STATIC_CAST(char*,malloc(__ebufsiz));

  00073	57		 push	 edi
  00074	e8 00 00 00 00	 call	 _malloc

; 661  :   if (!_M_ext_buf) {

  00079	85 c0		 test	 eax, eax
  0007b	59		 pop	 ecx
  0007c	89 46 74	 mov	 DWORD PTR [esi+116], eax
  0007f	75 0b		 jne	 SHORT $L100610

; 662  :     _M_deallocate_buffers();

  00081	8b ce		 mov	 ecx, esi
  00083	e8 00 00 00 00	 call	 ?_M_deallocate_buffers@?$basic_filebuf@DV?$char_traits@D@_STL@@@_STL@@AAEXXZ ; _STL::basic_filebuf<char,_STL::char_traits<char> >::_M_deallocate_buffers

; 663  :     return false;

  00088	32 c0		 xor	 al, al
  0008a	eb 10		 jmp	 SHORT $L102722
$L100610:

; 664  :   }
; 665  : 
; 666  :   _M_int_buf_EOS = _M_int_buf + __n;

  0008c	8b 4e 6c	 mov	 ecx, DWORD PTR [esi+108]
  0008f	03 4d 0c	 add	 ecx, DWORD PTR ___n$[ebp]

; 667  :   _M_ext_buf_EOS = _M_ext_buf + __ebufsiz;

  00092	03 c7		 add	 eax, edi
  00094	89 46 78	 mov	 DWORD PTR [esi+120], eax
  00097	89 4e 70	 mov	 DWORD PTR [esi+112], ecx

; 668  :   return true;

  0009a	b0 01		 mov	 al, 1
$L102722:
  0009c	5f		 pop	 edi
$L100593:
  0009d	5e		 pop	 esi

; 669  : }

  0009e	c9		 leave
  0009f	c2 08 00	 ret	 8
?_M_allocate_buffers@?$basic_filebuf@DV?$char_traits@D@_STL@@@_STL@@AAE_NPADH@Z ENDP ; _STL::basic_filebuf<char,_STL::char_traits<char> >::_M_allocate_buffers
; Function compile flags: /Ogsy
_TEXT	ENDS
;	COMDAT ?imbue@?$basic_filebuf@DV?$char_traits@D@_STL@@@_STL@@MAEXABVlocale@2@@Z
_TEXT	SEGMENT
___loc$ = 8						; size = 4
?imbue@?$basic_filebuf@DV?$char_traits@D@_STL@@@_STL@@MAEXABVlocale@2@@Z PROC NEAR ; _STL::basic_filebuf<char,_STL::char_traits<char> >::imbue, COMDAT
; _this$ = ecx

; 429  :   if (!_M_in_input_mode &&! _M_in_output_mode && !_M_in_error_mode) {

  00000	32 c0		 xor	 al, al
  00002	38 41 67	 cmp	 BYTE PTR [ecx+103], al
  00005	75 0f		 jne	 SHORT $L98961
  00007	38 41 68	 cmp	 BYTE PTR [ecx+104], al
  0000a	75 0a		 jne	 SHORT $L98961
  0000c	38 41 69	 cmp	 BYTE PTR [ecx+105], al
  0000f	75 05		 jne	 SHORT $L98961

; 430  :     this->_M_setup_codecvt(__loc);

  00011	e9 00 00 00 00	 jmp	 ?_M_setup_codecvt@?$basic_filebuf@DV?$char_traits@D@_STL@@@_STL@@AAEXABVlocale@2@@Z ; _STL::basic_filebuf<char,_STL::char_traits<char> >::_M_setup_codecvt
$L98961:

; 431  :   }
; 432  : }

  00016	c2 04 00	 ret	 4
?imbue@?$basic_filebuf@DV?$char_traits@D@_STL@@@_STL@@MAEXABVlocale@2@@Z ENDP ; _STL::basic_filebuf<char,_STL::char_traits<char> >::imbue
_TEXT	ENDS
PUBLIC	?close@?$basic_filebuf@DV?$char_traits@D@_STL@@@_STL@@QAEPAV12@XZ ; _STL::basic_filebuf<char,_STL::char_traits<char> >::close
EXTRN	?_M_close@_Filebuf_base@_STL@@QAE_NXZ:NEAR	; _STL::_Filebuf_base::_M_close
; Function compile flags: /Ogsy
;	COMDAT ?close@?$basic_filebuf@DV?$char_traits@D@_STL@@@_STL@@QAEPAV12@XZ
_TEXT	SEGMENT
___ok$ = -1						; size = 1
?close@?$basic_filebuf@DV?$char_traits@D@_STL@@@_STL@@QAEPAV12@XZ PROC NEAR ; _STL::basic_filebuf<char,_STL::char_traits<char> >::close, COMDAT
; _this$ = ecx

; 81   : {

  00000	55		 push	 ebp
  00001	8b ec		 mov	 ebp, esp
  00003	51		 push	 ecx
  00004	53		 push	 ebx
  00005	56		 push	 esi
  00006	8b f1		 mov	 esi, ecx

; 82   :   bool __ok = this->is_open();

  00008	33 db		 xor	 ebx, ebx
  0000a	38 5e 60	 cmp	 BYTE PTR [esi+96], bl
  0000d	0f 95 45 ff	 setne	 BYTE PTR ___ok$[ebp]

; 83   : 
; 84   :   if (_M_in_output_mode) {

  00011	38 5e 68	 cmp	 BYTE PTR [esi+104], bl
  00014	74 21		 je	 SHORT $L100561

; 85   :     __ok = __ok && !_Traits::eq_int_type(this->overflow(traits_type::eof()),
; 86   :                                          traits_type::eof());

  00016	38 5d ff	 cmp	 BYTE PTR ___ok$[ebp], bl
  00019	74 10		 je	 SHORT $L102730
  0001b	8b 06		 mov	 eax, DWORD PTR [esi]
  0001d	6a ff		 push	 -1
  0001f	ff 50 30	 call	 DWORD PTR [eax+48]
  00022	83 f8 ff	 cmp	 eax, -1
  00025	c6 45 ff 01	 mov	 BYTE PTR ___ok$[ebp], 1
  00029	75 03		 jne	 SHORT $L102731
$L102730:
  0002b	88 5d ff	 mov	 BYTE PTR ___ok$[ebp], bl
$L102731:

; 87   :     __ok == __ok && this->_M_unshift();

  0002e	8b ce		 mov	 ecx, esi
  00030	e8 00 00 00 00	 call	 ?_M_unshift@?$basic_filebuf@DV?$char_traits@D@_STL@@@_STL@@AAE_NXZ ; _STL::basic_filebuf<char,_STL::char_traits<char> >::_M_unshift

; 88   :   }
; 89   :   else if (_M_in_input_mode)

  00035	eb 0c		 jmp	 SHORT $L100565
$L100561:
  00037	38 5e 67	 cmp	 BYTE PTR [esi+103], bl
  0003a	74 07		 je	 SHORT $L100565

; 90   :       this->_M_exit_input_mode();

  0003c	8b ce		 mov	 ecx, esi
  0003e	e8 00 00 00 00	 call	 ?_M_exit_input_mode@?$basic_filebuf@DV?$char_traits@D@_STL@@@_STL@@AAEXXZ ; _STL::basic_filebuf<char,_STL::char_traits<char> >::_M_exit_input_mode
$L100565:

; 91   : 
; 92   :   // Note order of arguments.  We close the file even if __ok is false.
; 93   :   __ok = _M_base._M_close() && __ok;

  00043	8d 4e 54	 lea	 ecx, DWORD PTR [esi+84]
  00046	e8 00 00 00 00	 call	 ?_M_close@_Filebuf_base@_STL@@QAE_NXZ ; _STL::_Filebuf_base::_M_close
  0004b	84 c0		 test	 al, al
  0004d	74 09		 je	 SHORT $L102733
  0004f	38 5d ff	 cmp	 BYTE PTR ___ok$[ebp], bl
  00052	74 04		 je	 SHORT $L102733
  00054	b0 01		 mov	 al, 1
  00056	eb 02		 jmp	 SHORT $L102734
$L102733:
  00058	32 c0		 xor	 al, al
$L102734:

; 94   : 
; 95   :   // Restore the initial state, except that we don't deallocate the buffer
; 96   :   // or mess with the cached codecvt information.
; 97   :   _M_state = _M_end_state = _State_type();
; 98   :   _M_ext_buf_converted = _M_ext_buf_end = 0;
; 99   : 
; 100  :   _M_mmap_base = 0;
; 101  :   _M_mmap_len = 0;
; 102  : 
; 103  :   this->setg(0, 0, 0);

  0005a	8b 4e 04	 mov	 ecx, DWORD PTR [esi+4]
  0005d	89 9e 88 00 00
	00		 mov	 DWORD PTR [esi+136], ebx
  00063	89 9e 84 00 00
	00		 mov	 DWORD PTR [esi+132], ebx
  00069	89 9e 80 00 00
	00		 mov	 DWORD PTR [esi+128], ebx
  0006f	89 5e 7c	 mov	 DWORD PTR [esi+124], ebx
  00072	89 9e 8c 00 00
	00		 mov	 DWORD PTR [esi+140], ebx
  00078	89 9e 90 00 00
	00		 mov	 DWORD PTR [esi+144], ebx
  0007e	89 59 08	 mov	 DWORD PTR [ecx+8], ebx
  00081	89 19		 mov	 DWORD PTR [ecx], ebx
  00083	89 59 04	 mov	 DWORD PTR [ecx+4], ebx

; 104  :   this->setp(0, 0);

  00086	8b 4e 08	 mov	 ecx, DWORD PTR [esi+8]

; 105  : 
; 106  :   _M_saved_eback = _M_saved_gptr = _M_saved_egptr = 0;
; 107  : 
; 108  :   _M_in_input_mode = _M_in_output_mode = _M_in_error_mode = _M_in_putback_mode
; 109  :     = false;
; 110  : 
; 111  :   return __ok ? this : 0;

  00089	f6 d8		 neg	 al
  0008b	89 59 08	 mov	 DWORD PTR [ecx+8], ebx
  0008e	89 19		 mov	 DWORD PTR [ecx], ebx
  00090	89 59 04	 mov	 DWORD PTR [ecx+4], ebx
  00093	89 9e 9c 00 00
	00		 mov	 DWORD PTR [esi+156], ebx
  00099	89 9e 98 00 00
	00		 mov	 DWORD PTR [esi+152], ebx
  0009f	89 9e 94 00 00
	00		 mov	 DWORD PTR [esi+148], ebx
  000a5	1b c0		 sbb	 eax, eax
  000a7	88 5e 6a	 mov	 BYTE PTR [esi+106], bl
  000aa	88 5e 69	 mov	 BYTE PTR [esi+105], bl
  000ad	88 5e 68	 mov	 BYTE PTR [esi+104], bl
  000b0	88 5e 67	 mov	 BYTE PTR [esi+103], bl
  000b3	23 c6		 and	 eax, esi
  000b5	5e		 pop	 esi
  000b6	5b		 pop	 ebx

; 112  : }

  000b7	c9		 leave
  000b8	c3		 ret	 0
?close@?$basic_filebuf@DV?$char_traits@D@_STL@@@_STL@@QAEPAV12@XZ ENDP ; _STL::basic_filebuf<char,_STL::char_traits<char> >::close
_TEXT	ENDS
PUBLIC	??$_M_range_initialize@PBD@?$basic_string@DV?$char_traits@D@_STL@@V?$allocator@D@2@@_STL@@AAEXPBD0ABUforward_iterator_tag@1@@Z ; _STL::basic_string<char,_STL::char_traits<char>,_STL::allocator<char> >::_M_range_initialize<char const *>
; Function compile flags: /Ogsy
; File c:\stlport-4.6.1\stlport\stl\_string.h
;	COMDAT ??$_M_range_initialize@PBD@?$basic_string@DV?$char_traits@D@_STL@@V?$allocator@D@2@@_STL@@AAEXPBD0ABUforward_iterator_tag@1@@Z
_TEXT	SEGMENT
___f$ = 8						; size = 4
___l$ = 12						; size = 4
___formal$ = 16						; size = 4
??$_M_range_initialize@PBD@?$basic_string@DV?$char_traits@D@_STL@@V?$allocator@D@2@@_STL@@AAEXPBD0ABUforward_iterator_tag@1@@Z PROC NEAR ; _STL::basic_string<char,_STL::char_traits<char>,_STL::allocator<char> >::_M_range_initialize<char const *>, COMDAT
; _this$ = ecx

; 383  :                            const forward_iterator_tag &) {
; 384  :     difference_type __n = distance(__f, __l);
; 385  :     this->_M_allocate_block(__n + 1);

  00000	8b 44 24 08	 mov	 eax, DWORD PTR ___l$[esp-4]
  00004	2b 44 24 04	 sub	 eax, DWORD PTR ___f$[esp-4]
  00008	56		 push	 esi
  00009	40		 inc	 eax
  0000a	50		 push	 eax
  0000b	8b f1		 mov	 esi, ecx
  0000d	e8 00 00 00 00	 call	 ?_M_allocate_block@?$_String_base@DV?$allocator@D@_STL@@@_STL@@QAEXI@Z ; _STL::_String_base<char,_STL::allocator<char> >::_M_allocate_block

; 386  :     this->_M_finish = uninitialized_copy(__f, __l, this->_M_start);

  00012	ff 36		 push	 DWORD PTR [esi]
  00014	ff 74 24 10	 push	 DWORD PTR ___l$[esp+4]
  00018	ff 74 24 10	 push	 DWORD PTR ___f$[esp+8]
  0001c	e8 00 00 00 00	 call	 ?__copy_trivial@_STL@@YAPAXPBX0PAX@Z ; _STL::__copy_trivial
  00021	83 c4 0c	 add	 esp, 12			; 0000000cH
  00024	89 46 04	 mov	 DWORD PTR [esi+4], eax

; 387  :     _M_terminate_string();

  00027	c6 00 00	 mov	 BYTE PTR [eax], 0
  0002a	5e		 pop	 esi

; 388  :   }

  0002b	c2 0c 00	 ret	 12			; 0000000cH
??$_M_range_initialize@PBD@?$basic_string@DV?$char_traits@D@_STL@@V?$allocator@D@2@@_STL@@AAEXPBD0ABUforward_iterator_tag@1@@Z ENDP ; _STL::basic_string<char,_STL::char_traits<char>,_STL::allocator<char> >::_M_range_initialize<char const *>
_TEXT	ENDS
PUBLIC	??$_M_read_unbuffered@DV?$char_traits@D@_STL@@U?$_Eq_char_bound@V?$char_traits@D@_STL@@@2@@_STL@@YAHPAV?$basic_istream@DV?$char_traits@D@_STL@@@0@PAV?$basic_streambuf@DV?$char_traits@D@_STL@@@0@HPADU?$_Eq_char_bound@V?$char_traits@D@_STL@@@0@_N44@Z ; _STL::_M_read_unbuffered<char,_STL::char_traits<char>,_STL::_Eq_char_bound<_STL::char_traits<char> > >
;	COMDAT xdata$x
; File c:\stlport-4.6.1\stlport\stl\_ios_base.h
xdata$x	SEGMENT
$T102856 DD	0ffffffffH
	DD	00H
	DD	0ffffffffH
	DD	00H
$T102858 DD	00H
	DD	00H
	DD	00H
	DD	FLAT:$L102811
$T102857 DD	00H
	DD	00H
	DD	01H
	DD	01H
	DD	FLAT:$T102858
$T102851 DD	019930520H
	DD	02H
	DD	FLAT:$T102856
	DD	01H
	DD	FLAT:$T102857
	DD	2 DUP(00H)
; Function compile flags: /Ogsy
; File c:\stlport-4.6.1\stlport\stl\_istream.c
xdata$x	ENDS
;	COMDAT ??$_M_read_unbuffered@DV?$char_traits@D@_STL@@U?$_Eq_char_bound@V?$char_traits@D@_STL@@@2@@_STL@@YAHPAV?$basic_istream@DV?$char_traits@D@_STL@@@0@PAV?$basic_streambuf@DV?$char_traits@D@_STL@@@0@HPADU?$_Eq_char_bound@V?$char_traits@D@_STL@@@0@_N44@Z
_TEXT	SEGMENT
___n$ = -20						; size = 4
__$EHRec$ = -16						; size = 16
___that$ = 8						; size = 4
___buf$ = 12						; size = 4
__Num$ = 16						; size = 4
___s$ = 20						; size = 4
___is_delim$ = 24					; size = 1
___extract_delim$ = 28					; size = 1
___append_null$ = 32					; size = 1
___is_getline$ = 36					; size = 1
??$_M_read_unbuffered@DV?$char_traits@D@_STL@@U?$_Eq_char_bound@V?$char_traits@D@_STL@@@2@@_STL@@YAHPAV?$basic_istream@DV?$char_traits@D@_STL@@@0@PAV?$basic_streambuf@DV?$char_traits@D@_STL@@@0@HPADU?$_Eq_char_bound@V?$char_traits@D@_STL@@@0@_N44@Z PROC NEAR ; _STL::_M_read_unbuffered<char,_STL::char_traits<char>,_STL::_Eq_char_bound<_STL::char_traits<char> > >, COMDAT

; 528  : {

  00000	b8 00 00 00 00	 mov	 eax, __ehhandler$??$_M_read_unbuffered@DV?$char_traits@D@_STL@@U?$_Eq_char_bound@V?$char_traits@D@_STL@@@2@@_STL@@YAHPAV?$basic_istream@DV?$char_traits@D@_STL@@@0@PAV?$basic_streambuf@DV?$char_traits@D@_STL@@@0@HPADU?$_Eq_char_bound@V?$char_traits@D@_STL@@@0@_N44@Z
  00005	e8 00 00 00 00	 call	 __EH_prolog
  0000a	51		 push	 ecx
  0000b	51		 push	 ecx
  0000c	53		 push	 ebx
  0000d	56		 push	 esi

; 529  :   streamsize __n = 0;
; 530  :   ios_base::iostate __status = 0;
; 531  :   
; 532  :   typedef typename basic_istream<_CharT, _Traits>::int_type int_type;
; 533  :   // The operations that can potentially throw are sbumpc, snextc, and sgetc.
; 534  :   _STLP_TRY {

  0000e	8b 75 14	 mov	 esi, DWORD PTR ___s$[ebp]
  00011	33 db		 xor	 ebx, ebx
  00013	57		 push	 edi
  00014	89 65 f0	 mov	 DWORD PTR __$EHRec$[ebp], esp
  00017	89 5d ec	 mov	 DWORD PTR ___n$[ebp], ebx
  0001a	33 ff		 xor	 edi, edi
  0001c	89 5d fc	 mov	 DWORD PTR __$EHRec$[ebp+12], ebx
$L100993:

; 535  : # if 0
; 536  :     int_type __c = __buf->sgetc();
; 537  :     while (true) {
; 538  :       if (__that->_S_eof(__c)) {
; 539  :         if (__n < _Num || __is_getline)
; 540  :           __status |= ios_base::eofbit;
; 541  :         break;
; 542  :       }
; 543  : 
; 544  :       else if (__is_delim(__c)) {
; 545  :         if (__extract_delim) {  // Extract and discard current character.
; 546  :           __buf->sbumpc();
; 547  :           ++__n;
; 548  :         }
; 549  :         break;
; 550  :       }
; 551  : 
; 552  :       else if (__n == _Num) {
; 553  :         if (__is_getline)
; 554  :           __status |= ios_base::failbit;
; 555  :         break;
; 556  :       }
; 557  :         
; 558  :       *__s++ = _Traits::to_char_type(__c);
; 559  :       ++__n;
; 560  :       __c = __buf->snextc();
; 561  :     }
; 562  : # else
; 563  : // int_type __c = __buf->sbumpc(); // __buf->sgetc();
; 564  : while (true) {
; 565  : 
; 566  : int_type __c = __buf->sbumpc(); // sschwarz

  0001f	8b 4d 0c	 mov	 ecx, DWORD PTR ___buf$[ebp]
  00022	e8 00 00 00 00	 call	 ?sbumpc@?$basic_streambuf@DV?$char_traits@D@_STL@@@_STL@@QAEHXZ ; _STL::basic_streambuf<char,_STL::char_traits<char> >::sbumpc

; 567  : 
; 568  : if (__that->_S_eof(__c)) {

  00027	83 f8 ff	 cmp	 eax, -1
  0002a	75 12		 jne	 SHORT $L100996

; 569  : if (__n < _Num || __is_getline)

  0002c	8b 45 ec	 mov	 eax, DWORD PTR ___n$[ebp]
  0002f	3b 45 10	 cmp	 eax, DWORD PTR __Num$[ebp]
  00032	7c 05		 jl	 SHORT $L100998
  00034	38 5d 24	 cmp	 BYTE PTR ___is_getline$[ebp], bl
  00037	74 2d		 je	 SHORT $L101006
$L100998:

; 570  : __status |= ios_base::eofbit;

  00039	83 cf 02	 or	 edi, 2

; 571  : break;

  0003c	eb 28		 jmp	 SHORT $L101006
$L100996:

; 572  : }
; 573  : 
; 574  : else if (__is_delim(__c)) {

  0003e	3a 45 18	 cmp	 al, BYTE PTR ___is_delim$[ebp]
  00041	75 0a		 jne	 SHORT $L101002

; 575  : if (__extract_delim) { // Extract and discard current character.

  00043	38 5d 1c	 cmp	 BYTE PTR ___extract_delim$[ebp], bl
  00046	74 1e		 je	 SHORT $L101006

; 576  : // __buf->sbumpc();
; 577  : ++__n;

  00048	ff 45 ec	 inc	 DWORD PTR ___n$[ebp]

; 578  : }
; 579  : break;

  0004b	eb 19		 jmp	 SHORT $L101006
$L101002:

; 580  : }
; 581  : 
; 582  : else { // regular character
; 583  : 
; 584  : *__s++ = _Traits::to_char_type(__c);

  0004d	88 06		 mov	 BYTE PTR [esi], al
  0004f	46		 inc	 esi

; 585  : ++__n;

  00050	ff 45 ec	 inc	 DWORD PTR ___n$[ebp]

; 586  : 
; 587  : }
; 588  : 
; 589  : if (__n == _Num) {

  00053	8b 45 ec	 mov	 eax, DWORD PTR ___n$[ebp]
  00056	3b 45 10	 cmp	 eax, DWORD PTR __Num$[ebp]
  00059	89 75 14	 mov	 DWORD PTR ___s$[ebp], esi
  0005c	75 c1		 jne	 SHORT $L100993

; 590  : if (__is_getline) // didn't find delimiter as one of the _Num chars

  0005e	38 5d 24	 cmp	 BYTE PTR ___is_getline$[ebp], bl
  00061	74 03		 je	 SHORT $L101006

; 591  : __status |= ios_base::failbit;

  00063	83 cf 04	 or	 edi, 4
$L101006:

; 607  :   }

  00066	83 4d fc ff	 or	 DWORD PTR __$EHRec$[ebp+12], -1

; 608  : 
; 609  :   if (__append_null)

  0006a	38 5d 20	 cmp	 BYTE PTR ___append_null$[ebp], bl
  0006d	74 02		 je	 SHORT $L101008

; 610  :     *__s =  _STLP_DEFAULT_CONSTRUCTED(_CharT);

  0006f	88 1e		 mov	 BYTE PTR [esi], bl
$L101008:

; 611  :   if (__status)

  00071	3b fb		 cmp	 edi, ebx
  00073	74 15		 je	 SHORT $L102813

; 612  :     __that->setstate(__status);    // This might throw.

  00075	8b 45 08	 mov	 eax, DWORD PTR ___that$[ebp]
  00078	8b 08		 mov	 ecx, DWORD PTR [eax]
  0007a	8b 49 04	 mov	 ecx, DWORD PTR [ecx+4]
  0007d	03 c8		 add	 ecx, eax
  0007f	8b 41 08	 mov	 eax, DWORD PTR [ecx+8]
  00082	0b c7		 or	 eax, edi
  00084	50		 push	 eax
  00085	e8 00 00 00 00	 call	 ?clear@?$basic_ios@DV?$char_traits@D@_STL@@@_STL@@QAEXH@Z ; _STL::basic_ios<char,_STL::char_traits<char> >::clear
$L102813:

; 613  :   return __n;
; 614  : }

  0008a	8b 4d f4	 mov	 ecx, DWORD PTR __$EHRec$[ebp+4]
  0008d	8b 45 ec	 mov	 eax, DWORD PTR ___n$[ebp]
  00090	5f		 pop	 edi
  00091	5e		 pop	 esi
  00092	64 89 0d 00 00
	00 00		 mov	 DWORD PTR fs:__except_list, ecx
  00099	5b		 pop	 ebx
  0009a	c9		 leave
  0009b	c3		 ret	 0
$L102811:

; 592  : break;
; 593  : }
; 594  : 
; 595  : // *__s++ = _Traits::to_char_type(__c);
; 596  : // ++__n;
; 597  : 
; 598  : }
; 599  : 
; 600  : # endif
; 601  : 
; 602  :   }
; 603  :   _STLP_CATCH_ALL {
; 604  :     __that->_M_handle_exception(ios_base::badbit);

  0009c	8b 45 08	 mov	 eax, DWORD PTR ___that$[ebp]
  0009f	8b 08		 mov	 ecx, DWORD PTR [eax]
  000a1	8b 49 04	 mov	 ecx, DWORD PTR [ecx+4]
  000a4	6a 01		 push	 1
  000a6	03 c8		 add	 ecx, eax
  000a8	e8 00 00 00 00	 call	 ?_M_handle_exception@?$basic_ios@DV?$char_traits@D@_STL@@@_STL@@QAEXH@Z ; _STL::basic_ios<char,_STL::char_traits<char> >::_M_handle_exception

; 605  :     *__s = _STLP_DEFAULT_CONSTRUCTED(_CharT);

  000ad	8b 45 14	 mov	 eax, DWORD PTR ___s$[ebp]
  000b0	c6 00 00	 mov	 BYTE PTR [eax], 0

; 606  :     return __n;

  000b3	b8 00 00 00 00	 mov	 eax, $L102813
  000b8	c3		 ret	 0
_TEXT	ENDS
;	COMDAT text$x
text$x	SEGMENT
__ehhandler$??$_M_read_unbuffered@DV?$char_traits@D@_STL@@U?$_Eq_char_bound@V?$char_traits@D@_STL@@@2@@_STL@@YAHPAV?$basic_istream@DV?$char_traits@D@_STL@@@0@PAV?$basic_streambuf@DV?$char_traits@D@_STL@@@0@HPADU?$_Eq_char_bound@V?$char_traits@D@_STL@@@0@_N44@Z:
  00000	b8 00 00 00 00	 mov	 eax, OFFSET FLAT:$T102851
  00005	e9 00 00 00 00	 jmp	 ___CxxFrameHandler
text$x	ENDS
??$_M_read_unbuffered@DV?$char_traits@D@_STL@@U?$_Eq_char_bound@V?$char_traits@D@_STL@@@2@@_STL@@YAHPAV?$basic_istream@DV?$char_traits@D@_STL@@@0@PAV?$basic_streambuf@DV?$char_traits@D@_STL@@@0@HPADU?$_Eq_char_bound@V?$char_traits@D@_STL@@@0@_N44@Z ENDP ; _STL::_M_read_unbuffered<char,_STL::char_traits<char>,_STL::_Eq_char_bound<_STL::char_traits<char> > >
PUBLIC	?flush@?$basic_ostream@DV?$char_traits@D@_STL@@@_STL@@QAEAAV12@XZ ; _STL::basic_ostream<char,_STL::char_traits<char> >::flush
; Function compile flags: /Ogsy
; File c:\stlport-4.6.1\stlport\stl\_ostream.h
;	COMDAT ?flush@?$basic_ostream@DV?$char_traits@D@_STL@@@_STL@@QAEAAV12@XZ
_TEXT	SEGMENT
?flush@?$basic_ostream@DV?$char_traits@D@_STL@@@_STL@@QAEAAV12@XZ PROC NEAR ; _STL::basic_ostream<char,_STL::char_traits<char> >::flush, COMDAT
; _this$ = ecx

; 120  :   _Self& flush() {

  00000	56		 push	 esi
  00001	8b f1		 mov	 esi, ecx

; 121  :     if (this->rdbuf())

  00003	8b 06		 mov	 eax, DWORD PTR [esi]
  00005	8b 40 04	 mov	 eax, DWORD PTR [eax+4]
  00008	8b 4c 30 58	 mov	 ecx, DWORD PTR [eax+esi+88]
  0000c	85 c9		 test	 ecx, ecx
  0000e	74 1d		 je	 SHORT $L102879

; 122  :       if (this->rdbuf()->pubsync() == -1)

  00010	8b 01		 mov	 eax, DWORD PTR [ecx]
  00012	ff 50 10	 call	 DWORD PTR [eax+16]
  00015	83 f8 ff	 cmp	 eax, -1
  00018	75 13		 jne	 SHORT $L102879

; 123  :         this->setstate(ios_base::badbit);

  0001a	8b 06		 mov	 eax, DWORD PTR [esi]
  0001c	8b 48 04	 mov	 ecx, DWORD PTR [eax+4]
  0001f	03 ce		 add	 ecx, esi
  00021	8b 41 08	 mov	 eax, DWORD PTR [ecx+8]
  00024	83 c8 01	 or	 eax, 1
  00027	50		 push	 eax
  00028	e8 00 00 00 00	 call	 ?clear@?$basic_ios@DV?$char_traits@D@_STL@@@_STL@@QAEXH@Z ; _STL::basic_ios<char,_STL::char_traits<char> >::clear
$L102879:

; 124  :     return *this;

  0002d	8b c6		 mov	 eax, esi
  0002f	5e		 pop	 esi

; 125  :   }

  00030	c3		 ret	 0
?flush@?$basic_ostream@DV?$char_traits@D@_STL@@@_STL@@QAEAAV12@XZ ENDP ; _STL::basic_ostream<char,_STL::char_traits<char> >::flush
_TEXT	ENDS
PUBLIC	??R?$_Scan_for_char_val@V?$char_traits@D@_STL@@@_STL@@QBEPBDPBD0@Z ; _STL::_Scan_for_char_val<_STL::char_traits<char> >::operator()
; Function compile flags: /Ogsy
; File c:\stlport-4.6.1\stlport\stl\_istream.c
;	COMDAT ??R?$_Scan_for_char_val@V?$char_traits@D@_STL@@@_STL@@QBEPBDPBD0@Z
_TEXT	SEGMENT
$T102887 = -4						; size = 1
___first$ = 8						; size = 4
___last$ = 12						; size = 4
??R?$_Scan_for_char_val@V?$char_traits@D@_STL@@@_STL@@QBEPBDPBD0@Z PROC NEAR ; _STL::_Scan_for_char_val<_STL::char_traits<char> >::operator(), COMDAT
; _this$ = ecx

; 140  :   operator()(const char_type* __first, const char_type* __last) const {

  00000	55		 push	 ebp
  00001	8b ec		 mov	 ebp, esp
  00003	51		 push	 ecx

; 141  :     return find_if(__first, __last, _Eq_char_bound<_Traits>(_M_val)); 

  00004	8a 01		 mov	 al, BYTE PTR [ecx]
  00006	88 45 fc	 mov	 BYTE PTR $T102887[ebp], al
  00009	ff 75 fc	 push	 DWORD PTR $T102887[ebp]
  0000c	ff 75 0c	 push	 DWORD PTR ___last$[ebp]
  0000f	ff 75 08	 push	 DWORD PTR ___first$[ebp]
  00012	e8 00 00 00 00	 call	 ??$find_if@PBDU?$_Eq_char_bound@V?$char_traits@D@_STL@@@_STL@@@_STL@@YAPBDPBD0U?$_Eq_char_bound@V?$char_traits@D@_STL@@@0@@Z ; _STL::find_if<char const *,_STL::_Eq_char_bound<_STL::char_traits<char> > >
  00017	83 c4 0c	 add	 esp, 12			; 0000000cH

; 142  :   }

  0001a	c9		 leave
  0001b	c2 08 00	 ret	 8
??R?$_Scan_for_char_val@V?$char_traits@D@_STL@@@_STL@@QBEPBDPBD0@Z ENDP ; _STL::_Scan_for_char_val<_STL::char_traits<char> >::operator()
_TEXT	ENDS
PUBLIC	??$__uninitialized_copy@PADPAD@_STL@@YAPADPAD00ABU__true_type@0@@Z ; _STL::__uninitialized_copy<char *,char *>
; Function compile flags: /Ogsy
; File c:\stlport-4.6.1\stlport\stl\_uninitialized.h
;	COMDAT ??$__uninitialized_copy@PADPAD@_STL@@YAPADPAD00ABU__true_type@0@@Z
_TEXT	SEGMENT
___first$ = 8						; size = 4
___last$ = 12						; size = 4
___result$ = 16						; size = 4
___formal$ = 20						; size = 4
??$__uninitialized_copy@PADPAD@_STL@@YAPADPAD00ABU__true_type@0@@Z PROC NEAR ; _STL::__uninitialized_copy<char *,char *>, COMDAT

; 55   :   return __copy_aux(__first, __last, __result, _BothPtrType< _InputIter, _ForwardIter> :: _Ret());

  00000	ff 74 24 0c	 push	 DWORD PTR ___result$[esp-4]
  00004	ff 74 24 0c	 push	 DWORD PTR ___last$[esp]
  00008	ff 74 24 0c	 push	 DWORD PTR ___first$[esp+4]
  0000c	e8 00 00 00 00	 call	 ?__copy_trivial@_STL@@YAPAXPBX0PAX@Z ; _STL::__copy_trivial
  00011	83 c4 0c	 add	 esp, 12			; 0000000cH

; 56   : }

  00014	c3		 ret	 0
??$__uninitialized_copy@PADPAD@_STL@@YAPADPAD00ABU__true_type@0@@Z ENDP ; _STL::__uninitialized_copy<char *,char *>
_TEXT	ENDS
PUBLIC	?_M_deallocate_block@?$_String_base@DV?$allocator@D@_STL@@@_STL@@QAEXXZ ; _STL::_String_base<char,_STL::allocator<char> >::_M_deallocate_block
; Function compile flags: /Ogsy
; File c:\stlport-4.6.1\stlport\stl\_string.h
;	COMDAT ?_M_deallocate_block@?$_String_base@DV?$allocator@D@_STL@@@_STL@@QAEXXZ
_TEXT	SEGMENT
?_M_deallocate_block@?$_String_base@DV?$allocator@D@_STL@@@_STL@@QAEXXZ PROC NEAR ; _STL::_String_base<char,_STL::allocator<char> >::_M_deallocate_block, COMDAT
; _this$ = ecx

; 124  :     { _M_end_of_storage.deallocate(_M_start, _M_end_of_storage._M_data - _M_start); }

  00000	8b c1		 mov	 eax, ecx
  00002	8d 48 08	 lea	 ecx, DWORD PTR [eax+8]
  00005	8b 00		 mov	 eax, DWORD PTR [eax]
  00007	8b 11		 mov	 edx, DWORD PTR [ecx]
  00009	2b d0		 sub	 edx, eax
  0000b	52		 push	 edx
  0000c	50		 push	 eax
  0000d	e8 00 00 00 00	 call	 ?deallocate@?$allocator@D@_STL@@QAEXPADI@Z ; _STL::allocator<char>::deallocate
  00012	c3		 ret	 0
?_M_deallocate_block@?$_String_base@DV?$allocator@D@_STL@@@_STL@@QAEXXZ ENDP ; _STL::_String_base<char,_STL::allocator<char> >::_M_deallocate_block
_TEXT	ENDS
PUBLIC	??1?$basic_filebuf@DV?$char_traits@D@_STL@@@_STL@@UAE@XZ ; _STL::basic_filebuf<char,_STL::char_traits<char> >::~basic_filebuf<char,_STL::char_traits<char> >
;	COMDAT xdata$x
; File c:\stlport-4.6.1\stlport\stl\_fstream.c
xdata$x	SEGMENT
$T102938 DD	0ffffffffH
	DD	FLAT:$L102934
$T102936 DD	019930520H
	DD	01H
	DD	FLAT:$T102938
	DD	2 DUP(00H)
	DD	2 DUP(00H)
; Function compile flags: /Ogsy
xdata$x	ENDS
;	COMDAT ??1?$basic_filebuf@DV?$char_traits@D@_STL@@@_STL@@UAE@XZ
_TEXT	SEGMENT
_this$ = -16						; size = 4
__$EHRec$ = -12						; size = 12
??1?$basic_filebuf@DV?$char_traits@D@_STL@@@_STL@@UAE@XZ PROC NEAR ; _STL::basic_filebuf<char,_STL::char_traits<char> >::~basic_filebuf<char,_STL::char_traits<char> >, COMDAT
; _this$ = ecx

; 65   : basic_filebuf<_CharT, _Traits>::~basic_filebuf() {

  00000	b8 00 00 00 00	 mov	 eax, __ehhandler$??1?$basic_filebuf@DV?$char_traits@D@_STL@@@_STL@@UAE@XZ
  00005	e8 00 00 00 00	 call	 __EH_prolog
  0000a	51		 push	 ecx
  0000b	56		 push	 esi
  0000c	8b f1		 mov	 esi, ecx
  0000e	89 75 f0	 mov	 DWORD PTR _this$[ebp], esi
  00011	c7 06 00 00 00
	00		 mov	 DWORD PTR [esi], OFFSET FLAT:??_7?$basic_filebuf@DV?$char_traits@D@_STL@@@_STL@@6B@
  00017	83 65 fc 00	 and	 DWORD PTR __$EHRec$[ebp+8], 0

; 66   :   this->close();

  0001b	e8 00 00 00 00	 call	 ?close@?$basic_filebuf@DV?$char_traits@D@_STL@@@_STL@@QAEPAV12@XZ ; _STL::basic_filebuf<char,_STL::char_traits<char> >::close

; 67   :   _M_deallocate_buffers();

  00020	8b ce		 mov	 ecx, esi
  00022	e8 00 00 00 00	 call	 ?_M_deallocate_buffers@?$basic_filebuf@DV?$char_traits@D@_STL@@@_STL@@AAEXXZ ; _STL::basic_filebuf<char,_STL::char_traits<char> >::_M_deallocate_buffers

; 68   : }

  00027	83 4d fc ff	 or	 DWORD PTR __$EHRec$[ebp+8], -1
  0002b	8b ce		 mov	 ecx, esi
  0002d	e8 00 00 00 00	 call	 ??1?$basic_streambuf@DV?$char_traits@D@_STL@@@_STL@@UAE@XZ ; _STL::basic_streambuf<char,_STL::char_traits<char> >::~basic_streambuf<char,_STL::char_traits<char> >
  00032	8b 4d f4	 mov	 ecx, DWORD PTR __$EHRec$[ebp]
  00035	5e		 pop	 esi
  00036	64 89 0d 00 00
	00 00		 mov	 DWORD PTR fs:__except_list, ecx
  0003d	c9		 leave
  0003e	c3		 ret	 0
_TEXT	ENDS
;	COMDAT text$x
text$x	SEGMENT
$L102934:
  00000	8b 4d f0	 mov	 ecx, DWORD PTR _this$[ebp]
  00003	e9 00 00 00 00	 jmp	 ??1?$basic_streambuf@DV?$char_traits@D@_STL@@@_STL@@UAE@XZ ; _STL::basic_streambuf<char,_STL::char_traits<char> >::~basic_streambuf<char,_STL::char_traits<char> >
__ehhandler$??1?$basic_filebuf@DV?$char_traits@D@_STL@@@_STL@@UAE@XZ:
  00008	b8 00 00 00 00	 mov	 eax, OFFSET FLAT:$T102936
  0000d	e9 00 00 00 00	 jmp	 ___CxxFrameHandler
text$x	ENDS
??1?$basic_filebuf@DV?$char_traits@D@_STL@@@_STL@@UAE@XZ ENDP ; _STL::basic_filebuf<char,_STL::char_traits<char> >::~basic_filebuf<char,_STL::char_traits<char> >
PUBLIC	?_M_switch_to_output_mode@?$basic_filebuf@DV?$char_traits@D@_STL@@@_STL@@AAE_NXZ ; _STL::basic_filebuf<char,_STL::char_traits<char> >::_M_switch_to_output_mode
PUBLIC	?_M_output_error@?$basic_filebuf@DV?$char_traits@D@_STL@@@_STL@@AAEHXZ ; _STL::basic_filebuf<char,_STL::char_traits<char> >::_M_output_error
; Function compile flags: /Ogsy
;	COMDAT ?overflow@?$basic_filebuf@DV?$char_traits@D@_STL@@@_STL@@MAEHH@Z
_TEXT	SEGMENT
___enext$98795 = -12					; size = 4
___iend$ = -8						; size = 4
___inext$98794 = -4					; size = 4
___c$ = 8						; size = 4
?overflow@?$basic_filebuf@DV?$char_traits@D@_STL@@@_STL@@MAEHH@Z PROC NEAR ; _STL::basic_filebuf<char,_STL::char_traits<char> >::overflow, COMDAT
; _this$ = ecx

; 213  : {

  00000	55		 push	 ebp
  00001	8b ec		 mov	 ebp, esp
  00003	83 ec 0c	 sub	 esp, 12			; 0000000cH
  00006	56		 push	 esi
  00007	8b f1		 mov	 esi, ecx

; 214  :   // Switch to output mode, if necessary.
; 215  :   if (!_M_in_output_mode)

  00009	80 7e 68 00	 cmp	 BYTE PTR [esi+104], 0
  0000d	75 11		 jne	 SHORT $L98786

; 216  :     if (!_M_switch_to_output_mode())

  0000f	e8 00 00 00 00	 call	 ?_M_switch_to_output_mode@?$basic_filebuf@DV?$char_traits@D@_STL@@@_STL@@AAE_NXZ ; _STL::basic_filebuf<char,_STL::char_traits<char> >::_M_switch_to_output_mode
  00014	84 c0		 test	 al, al
  00016	75 08		 jne	 SHORT $L98786

; 217  :       return traits_type::eof();

  00018	83 c8 ff	 or	 eax, -1
  0001b	e9 b1 00 00 00	 jmp	 $L98784
$L98786:

; 218  : 
; 219  :   _CharT* __ibegin = this->_M_int_buf;
; 220  :   _CharT* __iend   = this->pptr();
; 221  :   this->setp(_M_int_buf, _M_int_buf_EOS - 1);

  00020	8b 46 70	 mov	 eax, DWORD PTR [esi+112]
  00023	8b 4e 08	 mov	 ecx, DWORD PTR [esi+8]
  00026	8b 11		 mov	 edx, DWORD PTR [ecx]
  00028	48		 dec	 eax
  00029	57		 push	 edi
  0002a	8b 7e 6c	 mov	 edi, DWORD PTR [esi+108]
  0002d	2b c7		 sub	 eax, edi
  0002f	89 41 04	 mov	 DWORD PTR [ecx+4], eax

; 222  : 
; 223  :   // Put __c at the end of the internal buffer.
; 224  :   if (!traits_type::eq_int_type(__c, traits_type::eof()))

  00032	8b 45 08	 mov	 eax, DWORD PTR ___c$[ebp]
  00035	83 f8 ff	 cmp	 eax, -1
  00038	89 55 f8	 mov	 DWORD PTR ___iend$[ebp], edx
  0003b	89 79 08	 mov	 DWORD PTR [ecx+8], edi
  0003e	89 39		 mov	 DWORD PTR [ecx], edi
  00040	74 06		 je	 SHORT $L103110

; 225  :     *__iend++ = __c;

  00042	88 02		 mov	 BYTE PTR [edx], al
  00044	42		 inc	 edx
  00045	89 55 f8	 mov	 DWORD PTR ___iend$[ebp], edx
$L103110:

; 226  : 
; 227  :   // For variable-width encodings, output may take more than one pass.
; 228  :   while (__ibegin != __iend) {

  00048	3b fa		 cmp	 edi, edx
  0004a	53		 push	 ebx
  0004b	74 77		 je	 SHORT $L98793
$L98792:

; 229  :     const _CharT* __inext = __ibegin;
; 230  :     char* __enext         = _M_ext_buf;

  0004d	8b 46 74	 mov	 eax, DWORD PTR [esi+116]

; 231  :     typename _Codecvt::result __status
; 232  :       = _M_codecvt->out(_M_state, __ibegin, __iend, __inext,
; 233  :                                   _M_ext_buf, _M_ext_buf_EOS, __enext);

  00050	8b 8e a0 00 00
	00		 mov	 ecx, DWORD PTR [esi+160]
  00056	8d 5d f4	 lea	 ebx, DWORD PTR ___enext$98795[ebp]
  00059	53		 push	 ebx
  0005a	ff 76 78	 push	 DWORD PTR [esi+120]
  0005d	8b 5d f8	 mov	 ebx, DWORD PTR ___iend$[ebp]
  00060	50		 push	 eax
  00061	89 45 f4	 mov	 DWORD PTR ___enext$98795[ebp], eax
  00064	8d 45 fc	 lea	 eax, DWORD PTR ___inext$98794[ebp]
  00067	50		 push	 eax
  00068	53		 push	 ebx
  00069	57		 push	 edi
  0006a	8d 86 84 00 00
	00		 lea	 eax, DWORD PTR [esi+132]
  00070	89 7d fc	 mov	 DWORD PTR ___inext$98794[ebp], edi
  00073	8b 11		 mov	 edx, DWORD PTR [ecx]
  00075	50		 push	 eax
  00076	ff 52 04	 call	 DWORD PTR [edx+4]

; 234  :     if (__status == _Codecvt::noconv)

  00079	83 f8 03	 cmp	 eax, 3
  0007c	74 58		 je	 SHORT $L103111

; 238  : 
; 239  :     // For a constant-width encoding we know that the external buffer
; 240  :     // is large enough, so failure to consume the entire internal buffer
; 241  :     // or to produce the correct number of external characters, is an error.
; 242  :     // For a variable-width encoding, however, we require only that we 
; 243  :     // consume at least one internal character
; 244  :     else if (__status != _Codecvt::error && 
; 245  :              ((__inext == __iend && (__enext - _M_ext_buf == 
; 246  :                                      _M_width * (__iend - __ibegin))) ||
; 247  :               (!_M_constant_width && __inext != __ibegin))) {

  0007e	83 f8 02	 cmp	 eax, 2
  00081	74 63		 je	 SHORT $L102944
  00083	39 5d fc	 cmp	 DWORD PTR ___inext$98794[ebp], ebx
  00086	8b 45 f4	 mov	 eax, DWORD PTR ___enext$98795[ebp]
  00089	75 14		 jne	 SHORT $L98801
  0008b	8b cb		 mov	 ecx, ebx
  0008d	2b cf		 sub	 ecx, edi
  0008f	0f af 8e a4 00
	00 00		 imul	 ecx, DWORD PTR [esi+164]
  00096	8b d0		 mov	 edx, eax
  00098	2b 56 74	 sub	 edx, DWORD PTR [esi+116]
  0009b	3b d1		 cmp	 edx, ecx
  0009d	74 0b		 je	 SHORT $L98800
$L98801:
  0009f	80 7e 64 00	 cmp	 BYTE PTR [esi+100], 0
  000a3	75 41		 jne	 SHORT $L102944
  000a5	39 7d fc	 cmp	 DWORD PTR ___inext$98794[ebp], edi
  000a8	74 3c		 je	 SHORT $L102944
$L98800:

; 248  :         // We successfully converted part or all of the internal buffer.
; 249  :       ptrdiff_t __n = __enext - _M_ext_buf;

  000aa	8b 4e 74	 mov	 ecx, DWORD PTR [esi+116]
  000ad	2b c1		 sub	 eax, ecx

; 250  :       if (_M_write(_M_ext_buf, __n))

  000af	50		 push	 eax
  000b0	51		 push	 ecx
  000b1	8d 4e 54	 lea	 ecx, DWORD PTR [esi+84]
  000b4	e8 00 00 00 00	 call	 ?_M_write@_Filebuf_base@_STL@@QAE_NPADH@Z ; _STL::_Filebuf_base::_M_write
  000b9	84 c0		 test	 al, al
  000bb	74 29		 je	 SHORT $L102944

; 251  :         __ibegin += __inext - __ibegin;

  000bd	8b 7d fc	 mov	 edi, DWORD PTR ___inext$98794[ebp]
  000c0	3b fb		 cmp	 edi, ebx
  000c2	75 89		 jne	 SHORT $L98792
$L98793:

; 252  :       else
; 253  :         return _M_output_error();
; 254  :     }
; 255  :     else
; 256  :       return _M_output_error();
; 257  :   }
; 258  : 
; 259  :   return traits_type::not_eof(__c);

  000c4	8b 45 08	 mov	 eax, DWORD PTR ___c$[ebp]
  000c7	40		 inc	 eax
  000c8	f7 d8		 neg	 eax
  000ca	1b c0		 sbb	 eax, eax
  000cc	23 45 08	 and	 eax, DWORD PTR ___c$[ebp]
$L103114:
  000cf	5b		 pop	 ebx
  000d0	5f		 pop	 edi
$L98784:
  000d1	5e		 pop	 esi

; 260  : }

  000d2	c9		 leave
  000d3	c2 04 00	 ret	 4
$L103111:

; 235  :       return _Noconv_output<_Traits>::_M_doit(this, __ibegin, __iend)
; 236  :         ? traits_type::not_eof(__c)
; 237  :         : _M_output_error();

  000d6	2b df		 sub	 ebx, edi
  000d8	53		 push	 ebx
  000d9	57		 push	 edi
  000da	8d 4e 54	 lea	 ecx, DWORD PTR [esi+84]
  000dd	e8 00 00 00 00	 call	 ?_M_write@_Filebuf_base@_STL@@QAE_NPADH@Z ; _STL::_Filebuf_base::_M_write
  000e2	84 c0		 test	 al, al
  000e4	75 de		 jne	 SHORT $L98793
$L102944:
  000e6	8b ce		 mov	 ecx, esi
  000e8	e8 00 00 00 00	 call	 ?_M_output_error@?$basic_filebuf@DV?$char_traits@D@_STL@@@_STL@@AAEHXZ ; _STL::basic_filebuf<char,_STL::char_traits<char> >::_M_output_error
  000ed	eb e0		 jmp	 SHORT $L103114
?overflow@?$basic_filebuf@DV?$char_traits@D@_STL@@@_STL@@MAEHH@Z ENDP ; _STL::basic_filebuf<char,_STL::char_traits<char> >::overflow
; Function compile flags: /Ogsy
_TEXT	ENDS
;	COMDAT ?_M_output_error@?$basic_filebuf@DV?$char_traits@D@_STL@@@_STL@@AAEHXZ
_TEXT	SEGMENT
?_M_output_error@?$basic_filebuf@DV?$char_traits@D@_STL@@@_STL@@AAEHXZ PROC NEAR ; _STL::basic_filebuf<char,_STL::char_traits<char> >::_M_output_error, COMDAT
; _this$ = ecx

; 591  :   _M_in_output_mode = false;

  00000	33 c0		 xor	 eax, eax
  00002	88 41 68	 mov	 BYTE PTR [ecx+104], al

; 592  :   _M_in_input_mode = false;

  00005	88 41 67	 mov	 BYTE PTR [ecx+103], al

; 593  :   _M_in_error_mode = true;

  00008	c6 41 69 01	 mov	 BYTE PTR [ecx+105], 1

; 594  :   this->setp(0, 0);

  0000c	8b 49 08	 mov	 ecx, DWORD PTR [ecx+8]
  0000f	89 41 08	 mov	 DWORD PTR [ecx+8], eax
  00012	89 01		 mov	 DWORD PTR [ecx], eax
  00014	89 41 04	 mov	 DWORD PTR [ecx+4], eax

; 595  :   return traits_type::eof();

  00017	83 c8 ff	 or	 eax, -1

; 596  : }

  0001a	c3		 ret	 0
?_M_output_error@?$basic_filebuf@DV?$char_traits@D@_STL@@@_STL@@AAEHXZ ENDP ; _STL::basic_filebuf<char,_STL::char_traits<char> >::_M_output_error
_TEXT	ENDS
EXTRN	?_M_page_size@_Filebuf_base@_STL@@1IA:DWORD	; _STL::_Filebuf_base::_M_page_size
; Function compile flags: /Ogsy
;	COMDAT ?_M_switch_to_output_mode@?$basic_filebuf@DV?$char_traits@D@_STL@@@_STL@@AAE_NXZ
_TEXT	SEGMENT
?_M_switch_to_output_mode@?$basic_filebuf@DV?$char_traits@D@_STL@@@_STL@@AAE_NXZ PROC NEAR ; _STL::basic_filebuf<char,_STL::char_traits<char> >::_M_switch_to_output_mode, COMDAT
; _this$ = ecx

; 471  : {

  00000	53		 push	 ebx
  00001	56		 push	 esi
  00002	8b f1		 mov	 esi, ecx

; 472  :   if (this->is_open() && (_M_base.__o_mode() & (int)ios_base::out) &&
; 473  :       _M_in_input_mode == 0 && _M_in_error_mode == 0) {

  00004	33 db		 xor	 ebx, ebx
  00006	38 5e 60	 cmp	 BYTE PTR [esi+96], bl
  00009	74 5d		 je	 SHORT $L100578
  0000b	f6 46 5c 10	 test	 BYTE PTR [esi+92], 16	; 00000010H
  0000f	74 57		 je	 SHORT $L100578
  00011	38 5e 67	 cmp	 BYTE PTR [esi+103], bl
  00014	75 52		 jne	 SHORT $L100578
  00016	38 5e 69	 cmp	 BYTE PTR [esi+105], bl
  00019	75 4d		 jne	 SHORT $L100578

; 474  : 
; 475  :     if (!_M_int_buf && !_M_allocate_buffers())

  0001b	39 5e 6c	 cmp	 DWORD PTR [esi+108], ebx
  0001e	75 20		 jne	 SHORT $L100579
  00020	8b 0d 00 00 00
	00		 mov	 ecx, DWORD PTR ?_M_page_size@_Filebuf_base@_STL@@1IA ; _STL::_Filebuf_base::_M_page_size
  00026	8d 81 ff 0f 00
	00		 lea	 eax, DWORD PTR [ecx+4095]
  0002c	33 d2		 xor	 edx, edx
  0002e	f7 f1		 div	 ecx
  00030	0f af c1	 imul	 eax, ecx
  00033	50		 push	 eax
  00034	53		 push	 ebx
  00035	8b ce		 mov	 ecx, esi
  00037	e8 00 00 00 00	 call	 ?_M_allocate_buffers@?$basic_filebuf@DV?$char_traits@D@_STL@@@_STL@@AAE_NPADH@Z ; _STL::basic_filebuf<char,_STL::char_traits<char> >::_M_allocate_buffers
  0003c	84 c0		 test	 al, al

; 476  :       return false;

  0003e	74 28		 je	 SHORT $L100578
$L100579:

; 477  : 
; 478  :     // In append mode, every write does an implicit seek to the end
; 479  :     // of the file.  Whenever leaving output mode, the end of file
; 480  :     // get put in the initial shift state.
; 481  :     if (_M_base.__o_mode() & ios_base::app)

  00040	f6 46 5c 01	 test	 BYTE PTR [esi+92], 1
  00044	74 06		 je	 SHORT $L100580

; 482  :       _M_state = _State_type();

  00046	89 9e 84 00 00
	00		 mov	 DWORD PTR [esi+132], ebx
$L100580:

; 483  : 
; 484  :     this->setp(_M_int_buf, _M_int_buf_EOS - 1);

  0004c	8b 46 70	 mov	 eax, DWORD PTR [esi+112]
  0004f	8b 56 6c	 mov	 edx, DWORD PTR [esi+108]
  00052	8b 4e 08	 mov	 ecx, DWORD PTR [esi+8]
  00055	48		 dec	 eax
  00056	2b c2		 sub	 eax, edx
  00058	89 41 04	 mov	 DWORD PTR [ecx+4], eax
  0005b	89 51 08	 mov	 DWORD PTR [ecx+8], edx
  0005e	89 11		 mov	 DWORD PTR [ecx], edx

; 485  :     _M_in_output_mode = true;

  00060	c6 46 68 01	 mov	 BYTE PTR [esi+104], 1

; 486  : 
; 487  :     return true;

  00064	b0 01		 mov	 al, 1
  00066	eb 02		 jmp	 SHORT $L100581
$L100578:

; 488  :   }
; 489  :   else
; 490  :     return false;

  00068	32 c0		 xor	 al, al
$L100581:
  0006a	5e		 pop	 esi
  0006b	5b		 pop	 ebx

; 491  : }

  0006c	c3		 ret	 0
?_M_switch_to_output_mode@?$basic_filebuf@DV?$char_traits@D@_STL@@@_STL@@AAE_NXZ ENDP ; _STL::basic_filebuf<char,_STL::char_traits<char> >::_M_switch_to_output_mode
_TEXT	ENDS
PUBLIC	?_M_seek_return@?$basic_filebuf@DV?$char_traits@D@_STL@@@_STL@@AAE?AV?$fpos@H@2@JH@Z ; _STL::basic_filebuf<char,_STL::char_traits<char> >::_M_seek_return
PUBLIC	?_M_seek_init@?$basic_filebuf@DV?$char_traits@D@_STL@@@_STL@@AAE_N_N@Z ; _STL::basic_filebuf<char,_STL::char_traits<char> >::_M_seek_init
PUBLIC	??1?$_Filebuf_Tmp_Buf@D@_STL@@QAE@XZ		; _STL::_Filebuf_Tmp_Buf<char>::~_Filebuf_Tmp_Buf<char>
EXTRN	??_V@YAXPAX@Z:NEAR				; operator delete[]
EXTRN	??_U@YAPAXI@Z:NEAR				; operator new[]
;	COMDAT xdata$x
; File c:\stlport-4.6.1\stlport\stl\char_traits.h
xdata$x	SEGMENT
$T103471 DD	0ffffffffH
	DD	FLAT:$L103198
$T103445 DD	019930520H
	DD	01H
	DD	FLAT:$T103471
	DD	2 DUP(00H)
	DD	2 DUP(00H)
; Function compile flags: /Ogsy
; File c:\stlport-4.6.1\stlport\stl\_fstream.c
xdata$x	ENDS
;	COMDAT ?seekoff@?$basic_filebuf@DV?$char_traits@D@_STL@@@_STL@@MAE?AV?$fpos@H@2@JHH@Z
_TEXT	SEGMENT
___dummy$98878 = -28					; size = 4
___tmp_state$98860 = -24				; size = 4
___state$98858 = -20					; size = 4
___inext$98877 = -16					; size = 4
__$EHRec$ = -12						; size = 12
___$ReturnUdt$ = 8					; size = 4
___buf$98875 = 12					; size = 4
___off$ = 12						; size = 4
tv738 = 16						; size = 4
___cur$98916 = 16					; size = 4
___whence$ = 16						; size = 4
___formal$ = 20						; size = 4
?seekoff@?$basic_filebuf@DV?$char_traits@D@_STL@@@_STL@@MAE?AV?$fpos@H@2@JHH@Z PROC NEAR ; _STL::basic_filebuf<char,_STL::char_traits<char> >::seekoff, COMDAT
; _this$ = ecx

; 289  : {

  00000	b8 00 00 00 00	 mov	 eax, __ehhandler$?seekoff@?$basic_filebuf@DV?$char_traits@D@_STL@@@_STL@@MAE?AV?$fpos@H@2@JHH@Z
  00005	e8 00 00 00 00	 call	 __EH_prolog
  0000a	83 ec 10	 sub	 esp, 16			; 00000010H
  0000d	53		 push	 ebx
  0000e	56		 push	 esi
  0000f	8b f1		 mov	 esi, ecx

; 290  :   if (this->is_open() &&
; 291  :       (__off == 0 || (_M_constant_width && this->_M_base._M_in_binary_mode()))) {

  00011	80 7e 60 00	 cmp	 BYTE PTR [esi+96], 0
  00015	57		 push	 edi
  00016	0f 84 64 02 00
	00		 je	 $L103458
  0001c	8b 5d 0c	 mov	 ebx, DWORD PTR ___off$[ebp]
  0001f	85 db		 test	 ebx, ebx
  00021	8b 7d 10	 mov	 edi, DWORD PTR ___whence$[ebp]
  00024	74 55		 je	 SHORT $L103455
  00026	80 7e 64 00	 cmp	 BYTE PTR [esi+100], 0
  0002a	0f 84 50 02 00
	00		 je	 $L103458
  00030	8b 46 5c	 mov	 eax, DWORD PTR [esi+92]
  00033	c1 e8 02	 shr	 eax, 2
  00036	a8 01		 test	 al, 1
  00038	0f 84 42 02 00
	00		 je	 $L103458
$L103195:

; 292  : 
; 293  :     if (!_M_seek_init(__off != 0 || __whence != ios_base::cur))

  0003e	33 c0		 xor	 eax, eax
  00040	b0 01		 mov	 al, 1
$L103196:
  00042	50		 push	 eax
  00043	8b ce		 mov	 ecx, esi
  00045	e8 00 00 00 00	 call	 ?_M_seek_init@?$basic_filebuf@DV?$char_traits@D@_STL@@@_STL@@AAE_N_N@Z ; _STL::basic_filebuf<char,_STL::char_traits<char> >::_M_seek_init
  0004a	84 c0		 test	 al, al

; 294  :       return pos_type(-1);

  0004c	0f 84 2e 02 00
	00		 je	 $L103458

; 295  : 
; 296  :     // Seek to beginning or end, regardless of whether we're in input mode.
; 297  :     if (__whence == ios_base::beg || __whence == ios_base::end)

  00052	83 ff 01	 cmp	 edi, 1
  00055	0f 84 00 02 00
	00		 je	 $L98831
  0005b	83 ff 04	 cmp	 edi, 4
  0005e	0f 84 f7 01 00
	00		 je	 $L98831

; 300  : 
; 301  :     // Seek relative to current position.  Complicated if we're in input mode.
; 302  :     else if (__whence == ios_base::cur) {

  00064	83 ff 02	 cmp	 edi, 2
  00067	0f 85 13 02 00
	00		 jne	 $L103458

; 303  : 
; 304  :       if (!_M_in_input_mode)

  0006d	80 7e 67 00	 cmp	 BYTE PTR [esi+103], 0
  00071	75 11		 jne	 SHORT $L98835

; 305  :         return _M_seek_return(_M_base._M_seek(_M_width * __off, __whence),
; 306  :                               _State_type());

  00073	6a 00		 push	 0
  00075	57		 push	 edi
  00076	e9 e3 01 00 00	 jmp	 $L103469
$L103455:

; 292  : 
; 293  :     if (!_M_seek_init(__off != 0 || __whence != ios_base::cur))

  0007b	83 ff 02	 cmp	 edi, 2
  0007e	75 be		 jne	 SHORT $L103195
  00080	32 c0		 xor	 al, al
  00082	eb be		 jmp	 SHORT $L103196
$L98835:

; 307  :       else if (_M_mmap_base != 0) {

  00084	8b 86 8c 00 00
	00		 mov	 eax, DWORD PTR [esi+140]
  0008a	85 c0		 test	 eax, eax

; 308  :         // __off is relative to gptr().  We need to do a bit of arithmetic
; 309  :         // to get an offset relative to the external file pointer.
; 310  :         streamoff __adjust = _M_mmap_len - (this->gptr() - (_CharT*) _M_mmap_base);

  0008c	8b 4e 04	 mov	 ecx, DWORD PTR [esi+4]
  0008f	74 18		 je	 SHORT $L98838
  00091	8b be 90 00 00
	00		 mov	 edi, DWORD PTR [esi+144]
  00097	2b 39		 sub	 edi, DWORD PTR [ecx]
  00099	03 f8		 add	 edi, eax
  0009b	eb 5a		 jmp	 SHORT $L103470
$L98850:

; 311  : 
; 312  :         // if __off == 0, we do not need to exit input mode and to shift file pointer
; 313  :         if (__off == 0) {
; 314  :           return pos_type(_M_base._M_seek(0, ios_base::cur) - __adjust);
; 315  :         }
; 316  :         else
; 317  :           return _M_seek_return(_M_base._M_seek(__off - __adjust, ios_base::cur), _State_type());

  0009d	6a 00		 push	 0
  0009f	6a 02		 push	 2
  000a1	2b df		 sub	 ebx, edi
  000a3	53		 push	 ebx
  000a4	e9 c2 01 00 00	 jmp	 $L103464
$L98838:

; 318  :       }
; 319  :       else if (_M_constant_width) { // Get or set the position.  
; 320  : 
; 321  :         streamoff __iadj = _M_width * (this->gptr() - this->eback());

  000a9	8b 01		 mov	 eax, DWORD PTR [ecx]
  000ab	2b 41 08	 sub	 eax, DWORD PTR [ecx+8]
  000ae	80 7e 64 00	 cmp	 BYTE PTR [esi+100], 0

; 322  :         
; 323  :         // Compensate for offset relative to gptr versus offset relative
; 324  :         // to external pointer.  For a text-oriented stream, where the 
; 325  :         // compensation is more than just pointer arithmetic, we may get
; 326  :         // but not set the current position.
; 327  :         
; 328  :         if (__iadj <= _M_ext_buf_end - _M_ext_buf) {

  000b2	8b 56 74	 mov	 edx, DWORD PTR [esi+116]
  000b5	74 5d		 je	 SHORT $L98846
  000b7	0f af 86 a4 00
	00 00		 imul	 eax, DWORD PTR [esi+164]
  000be	8b 8e 80 00 00
	00		 mov	 ecx, DWORD PTR [esi+128]
  000c4	8b f9		 mov	 edi, ecx
  000c6	2b fa		 sub	 edi, edx
  000c8	3b c7		 cmp	 eax, edi
  000ca	0f 8f b0 01 00
	00		 jg	 $L103458

; 329  :           
; 330  :           streamoff __eadj =  _M_base._M_get_offset(_M_ext_buf + __iadj, _M_ext_buf_end);

  000d0	03 c2		 add	 eax, edx
  000d2	f6 46 5c 04	 test	 BYTE PTR [esi+92], 4
  000d6	74 06		 je	 SHORT $L103262
  000d8	2b c8		 sub	 ecx, eax
  000da	8b f9		 mov	 edi, ecx
  000dc	eb 19		 jmp	 SHORT $L103470
$L103262:
  000de	33 d2		 xor	 edx, edx
  000e0	3b c1		 cmp	 eax, ecx
  000e2	8b f8		 mov	 edi, eax
  000e4	74 0b		 je	 SHORT $L103268
$L103266:
  000e6	80 3f 0a	 cmp	 BYTE PTR [edi], 10	; 0000000aH
  000e9	75 01		 jne	 SHORT $L103267
  000eb	42		 inc	 edx
$L103267:
  000ec	47		 inc	 edi
  000ed	3b f9		 cmp	 edi, ecx
  000ef	75 f5		 jne	 SHORT $L103266
$L103268:
  000f1	2b d0		 sub	 edx, eax
  000f3	03 d1		 add	 edx, ecx
  000f5	8b fa		 mov	 edi, edx
$L103470:

; 331  : 
; 332  :           if (__off == 0) {

  000f7	85 db		 test	 ebx, ebx

; 333  :             return pos_type(_M_base._M_seek(0, ios_base::cur) - __eadj);

  000f9	8d 4e 54	 lea	 ecx, DWORD PTR [esi+84]
  000fc	75 9f		 jne	 SHORT $L98850
  000fe	6a 02		 push	 2
  00100	53		 push	 ebx
  00101	e8 00 00 00 00	 call	 ?_M_seek@_Filebuf_base@_STL@@QAEJJH@Z ; _STL::_Filebuf_base::_M_seek
  00106	8b c8		 mov	 ecx, eax
  00108	8b 45 08	 mov	 eax, DWORD PTR ___$ReturnUdt$[ebp]
  0010b	2b cf		 sub	 ecx, edi
  0010d	89 08		 mov	 DWORD PTR [eax], ecx
  0010f	e9 72 01 00 00	 jmp	 $L103463
$L98846:

; 334  :           }  else {
; 335  :             return _M_seek_return(_M_base._M_seek(__off - __eadj, ios_base::cur), _State_type());
; 336  :           }
; 337  :         }
; 338  :         else
; 339  :           return pos_type(-1);
; 340  :       }
; 341  :       else {                    // Get the position.  Encoding is var width.
; 342  :         // Get position in internal buffer.
; 343  :         ptrdiff_t __ipos = this->gptr() - this->eback();
; 344  :         
; 345  :         // Get corresponding position in external buffer.
; 346  :         _State_type __state = _M_state;
; 347  :         int __epos = _M_codecvt->length(__state, _M_ext_buf, _M_ext_buf_end,
; 348  :                                         __ipos);

  00114	8b 8e a0 00 00
	00		 mov	 ecx, DWORD PTR [esi+160]
  0011a	8b f8		 mov	 edi, eax
  0011c	8b 86 84 00 00
	00		 mov	 eax, DWORD PTR [esi+132]
  00122	89 45 ec	 mov	 DWORD PTR ___state$98858[ebp], eax
  00125	8b 86 80 00 00
	00		 mov	 eax, DWORD PTR [esi+128]
  0012b	8b 19		 mov	 ebx, DWORD PTR [ecx]
  0012d	57		 push	 edi
  0012e	50		 push	 eax
  0012f	52		 push	 edx
  00130	8d 45 ec	 lea	 eax, DWORD PTR ___state$98858[ebp]
  00133	50		 push	 eax
  00134	ff 53 18	 call	 DWORD PTR [ebx+24]
  00137	8b d8		 mov	 ebx, eax

; 349  : 
; 350  :         // Sanity check (expensive): make sure __epos is the right answer.
; 351  :         _State_type __tmp_state = _M_state;

  00139	8b 86 84 00 00
	00		 mov	 eax, DWORD PTR [esi+132]

; 352  :         _Filebuf_Tmp_Buf<_CharT> __buf(__ipos);

  0013f	57		 push	 edi
  00140	89 45 e8	 mov	 DWORD PTR ___tmp_state$98860[ebp], eax
  00143	e8 00 00 00 00	 call	 ??_U@YAPAXI@Z		; operator new[]
  00148	8b d0		 mov	 edx, eax
  0014a	59		 pop	 ecx
  0014b	89 55 0c	 mov	 DWORD PTR ___buf$98875[ebp], edx

; 353  :         _CharT* __ibegin = __buf._M_ptr;
; 354  :         _CharT* __inext  = __ibegin;
; 355  : 
; 356  :         const char* __dummy;
; 357  :         typename _Codecvt::result __status
; 358  :           = _M_codecvt->in(__tmp_state,
; 359  :                            _M_ext_buf, _M_ext_buf + __epos, __dummy,
; 360  :                            __ibegin, __ibegin + __ipos, __inext);

  0014e	8b 46 74	 mov	 eax, DWORD PTR [esi+116]
  00151	8b 8e a0 00 00
	00		 mov	 ecx, DWORD PTR [esi+160]
  00157	83 65 fc 00	 and	 DWORD PTR __$EHRec$[ebp+8], 0
  0015b	89 55 f0	 mov	 DWORD PTR ___inext$98877[ebp], edx
  0015e	03 d7		 add	 edx, edi
  00160	8b 39		 mov	 edi, DWORD PTR [ecx]
  00162	89 55 10	 mov	 DWORD PTR tv738[ebp], edx
  00165	8d 55 f0	 lea	 edx, DWORD PTR ___inext$98877[ebp]
  00168	52		 push	 edx
  00169	ff 75 10	 push	 DWORD PTR tv738[ebp]
  0016c	8d 55 e4	 lea	 edx, DWORD PTR ___dummy$98878[ebp]
  0016f	ff 75 0c	 push	 DWORD PTR ___buf$98875[ebp]
  00172	52		 push	 edx
  00173	8d 14 18	 lea	 edx, DWORD PTR [eax+ebx]
  00176	52		 push	 edx
  00177	50		 push	 eax
  00178	8d 45 e8	 lea	 eax, DWORD PTR ___tmp_state$98860[ebp]
  0017b	50		 push	 eax
  0017c	ff 57 08	 call	 DWORD PTR [edi+8]

; 361  :         if (__status != _Codecvt::error &&
; 362  :             (__status == _Codecvt::noconv ||
; 363  :              (__inext == __ibegin + __ipos &&
; 364  :               equal(this->gptr(), this->eback(), __ibegin,
; 365  :                     _Eq_traits<traits_type>())))) {

  0017f	83 f8 02	 cmp	 eax, 2
  00182	0f 84 bc 00 00
	00		 je	 $L103457
  00188	83 f8 03	 cmp	 eax, 3
  0018b	74 2d		 je	 SHORT $L103456
  0018d	8b 45 10	 mov	 eax, DWORD PTR tv738[ebp]
  00190	39 45 f0	 cmp	 DWORD PTR ___inext$98877[ebp], eax
  00193	0f 85 ab 00 00
	00		 jne	 $L103457
  00199	8b 46 04	 mov	 eax, DWORD PTR [esi+4]
  0019c	8b 78 08	 mov	 edi, DWORD PTR [eax+8]
  0019f	8b 00		 mov	 eax, DWORD PTR [eax]
  001a1	3b c7		 cmp	 eax, edi
  001a3	74 15		 je	 SHORT $L103456
  001a5	8b 4d 0c	 mov	 ecx, DWORD PTR ___buf$98875[ebp]
  001a8	2b c8		 sub	 ecx, eax
$L103345:
  001aa	8a 10		 mov	 dl, BYTE PTR [eax]
  001ac	3a 14 01	 cmp	 dl, BYTE PTR [ecx+eax]
  001af	0f 85 8f 00 00
	00		 jne	 $L103457
  001b5	40		 inc	 eax
  001b6	3b c7		 cmp	 eax, edi
  001b8	75 f0		 jne	 SHORT $L103345
$L103456:

; 366  :           // Get the current position (at the end of the external buffer),
; 367  :           // then adjust it.  Again, it might be a text-oriented stream.
; 368  :           streamoff __cur = _M_base._M_seek(0, ios_base::cur);

  001ba	6a 02		 push	 2
  001bc	6a 00		 push	 0
  001be	8d 4e 54	 lea	 ecx, DWORD PTR [esi+84]
  001c1	e8 00 00 00 00	 call	 ?_M_seek@_Filebuf_base@_STL@@QAEJJH@Z ; _STL::_Filebuf_base::_M_seek

; 369  :           streamoff __adj =
; 370  :             _M_base._M_get_offset(_M_ext_buf, _M_ext_buf + __epos) -
; 371  :             _M_base._M_get_offset(_M_ext_buf, _M_ext_buf_end);

  001c6	8b 4e 74	 mov	 ecx, DWORD PTR [esi+116]
  001c9	8b 7e 5c	 mov	 edi, DWORD PTR [esi+92]
  001cc	03 d9		 add	 ebx, ecx
  001ce	83 e7 04	 and	 edi, 4
  001d1	89 45 10	 mov	 DWORD PTR ___cur$98916[ebp], eax
  001d4	74 04		 je	 SHORT $L103374
  001d6	2b d9		 sub	 ebx, ecx
  001d8	eb 19		 jmp	 SHORT $L103375
$L103374:
  001da	33 d2		 xor	 edx, edx
  001dc	3b cb		 cmp	 ecx, ebx
  001de	8b c1		 mov	 eax, ecx
  001e0	74 0b		 je	 SHORT $L103380
$L103378:
  001e2	80 38 0a	 cmp	 BYTE PTR [eax], 10	; 0000000aH
  001e5	75 01		 jne	 SHORT $L103379
  001e7	42		 inc	 edx
$L103379:
  001e8	40		 inc	 eax
  001e9	3b c3		 cmp	 eax, ebx
  001eb	75 f5		 jne	 SHORT $L103378
$L103380:
  001ed	2b d1		 sub	 edx, ecx
  001ef	03 d3		 add	 edx, ebx
  001f1	8b da		 mov	 ebx, edx
$L103375:
  001f3	85 ff		 test	 edi, edi
  001f5	8b 8e 80 00 00
	00		 mov	 ecx, DWORD PTR [esi+128]
  001fb	8b 46 74	 mov	 eax, DWORD PTR [esi+116]
  001fe	74 04		 je	 SHORT $L103401
  00200	2b c8		 sub	 ecx, eax
  00202	eb 19		 jmp	 SHORT $L103402
$L103401:
  00204	33 d2		 xor	 edx, edx
  00206	3b c1		 cmp	 eax, ecx
  00208	8b f8		 mov	 edi, eax
  0020a	74 0b		 je	 SHORT $L103407
$L103405:
  0020c	80 3f 0a	 cmp	 BYTE PTR [edi], 10	; 0000000aH
  0020f	75 01		 jne	 SHORT $L103406
  00211	42		 inc	 edx
$L103406:
  00212	47		 inc	 edi
  00213	3b f9		 cmp	 edi, ecx
  00215	75 f5		 jne	 SHORT $L103405
$L103407:
  00217	2b d0		 sub	 edx, eax
  00219	03 d1		 add	 edx, ecx
  0021b	8b ca		 mov	 ecx, edx
$L103402:

; 372  :           if (__cur != -1 && __cur + __adj >= 0)

  0021d	8b 45 10	 mov	 eax, DWORD PTR ___cur$98916[ebp]
  00220	2b d9		 sub	 ebx, ecx
  00222	83 f8 ff	 cmp	 eax, -1
  00225	74 1d		 je	 SHORT $L103457
  00227	03 c3		 add	 eax, ebx
  00229	78 19		 js	 SHORT $L103457

; 373  :             return _M_seek_return(__cur + __adj, __state);

  0022b	ff 75 ec	 push	 DWORD PTR ___state$98858[ebp]
  0022e	8b ce		 mov	 ecx, esi
  00230	50		 push	 eax
  00231	ff 75 08	 push	 DWORD PTR ___$ReturnUdt$[ebp]
  00234	e8 00 00 00 00	 call	 ?_M_seek_return@?$basic_filebuf@DV?$char_traits@D@_STL@@@_STL@@AAE?AV?$fpos@H@2@JH@Z ; _STL::basic_filebuf<char,_STL::char_traits<char> >::_M_seek_return
  00239	ff 75 0c	 push	 DWORD PTR ___buf$98875[ebp]
  0023c	e8 00 00 00 00	 call	 ??_V@YAXPAX@Z		; operator delete[]
  00241	59		 pop	 ecx
  00242	eb 37		 jmp	 SHORT $L103468
$L103457:

; 374  :           else
; 375  :             return pos_type(-1);
; 376  :         }
; 377  :         else                    // We failed the sanity check.
; 378  :           return pos_type(-1);

  00244	8b 75 08	 mov	 esi, DWORD PTR ___$ReturnUdt$[ebp]
  00247	ff 75 0c	 push	 DWORD PTR ___buf$98875[ebp]
  0024a	83 0e ff	 or	 DWORD PTR [esi], -1
  0024d	83 66 04 00	 and	 DWORD PTR [esi+4], 0
  00251	e8 00 00 00 00	 call	 ??_V@YAXPAX@Z		; operator delete[]
  00256	59		 pop	 ecx
  00257	8b c6		 mov	 eax, esi

; 379  :       }
; 380  :     }
; 381  :     else                        // Unrecognized value for __whence.
; 382  :       return pos_type(-1);

  00259	eb 2f		 jmp	 SHORT $L98926
$L98831:

; 298  :       return _M_seek_return(_M_base._M_seek(_M_width * __off, __whence),
; 299  :                             _State_type());

  0025b	6a 00		 push	 0
  0025d	57		 push	 edi
$L103469:
  0025e	8b 86 a4 00 00
	00		 mov	 eax, DWORD PTR [esi+164]
  00264	0f af c3	 imul	 eax, ebx
  00267	50		 push	 eax
  00268	8d 4e 54	 lea	 ecx, DWORD PTR [esi+84]
$L103464:
  0026b	e8 00 00 00 00	 call	 ?_M_seek@_Filebuf_base@_STL@@QAEJJH@Z ; _STL::_Filebuf_base::_M_seek
  00270	50		 push	 eax
  00271	ff 75 08	 push	 DWORD PTR ___$ReturnUdt$[ebp]
  00274	8b ce		 mov	 ecx, esi
  00276	e8 00 00 00 00	 call	 ?_M_seek_return@?$basic_filebuf@DV?$char_traits@D@_STL@@@_STL@@AAE?AV?$fpos@H@2@JH@Z ; _STL::basic_filebuf<char,_STL::char_traits<char> >::_M_seek_return
$L103468:
  0027b	8b 45 08	 mov	 eax, DWORD PTR ___$ReturnUdt$[ebp]
  0027e	eb 0a		 jmp	 SHORT $L98926
$L103458:

; 383  :   }
; 384  :   else
; 385  :     return pos_type(-1);

  00280	8b 45 08	 mov	 eax, DWORD PTR ___$ReturnUdt$[ebp]
  00283	83 08 ff	 or	 DWORD PTR [eax], -1
$L103463:
  00286	83 60 04 00	 and	 DWORD PTR [eax+4], 0
$L98926:

; 386  : }

  0028a	8b 4d f4	 mov	 ecx, DWORD PTR __$EHRec$[ebp]
  0028d	5f		 pop	 edi
  0028e	5e		 pop	 esi
  0028f	5b		 pop	 ebx
  00290	64 89 0d 00 00
	00 00		 mov	 DWORD PTR fs:__except_list, ecx
  00297	c9		 leave
  00298	c2 10 00	 ret	 16			; 00000010H
_TEXT	ENDS
;	COMDAT text$x
text$x	SEGMENT
$L103198:
  00000	8d 4d 0c	 lea	 ecx, DWORD PTR ___buf$98875[ebp]
  00003	e9 00 00 00 00	 jmp	 ??1?$_Filebuf_Tmp_Buf@D@_STL@@QAE@XZ ; _STL::_Filebuf_Tmp_Buf<char>::~_Filebuf_Tmp_Buf<char>
__ehhandler$?seekoff@?$basic_filebuf@DV?$char_traits@D@_STL@@@_STL@@MAE?AV?$fpos@H@2@JHH@Z:
  00008	b8 00 00 00 00	 mov	 eax, OFFSET FLAT:$T103445
  0000d	e9 00 00 00 00	 jmp	 ___CxxFrameHandler
text$x	ENDS
?seekoff@?$basic_filebuf@DV?$char_traits@D@_STL@@@_STL@@MAE?AV?$fpos@H@2@JHH@Z ENDP ; _STL::basic_filebuf<char,_STL::char_traits<char> >::seekoff
; Function compile flags: /Ogsy
; File c:\stlport-4.6.1\stlport\stl\_fstream.h
;	COMDAT ??1?$_Filebuf_Tmp_Buf@D@_STL@@QAE@XZ
_TEXT	SEGMENT
??1?$_Filebuf_Tmp_Buf@D@_STL@@QAE@XZ PROC NEAR		; _STL::_Filebuf_Tmp_Buf<char>::~_Filebuf_Tmp_Buf<char>, COMDAT
; _this$ = ecx

; 374  :   ~_Filebuf_Tmp_Buf() { delete[] _M_ptr; }

  00000	ff 31		 push	 DWORD PTR [ecx]
  00002	e8 00 00 00 00	 call	 ??_V@YAXPAX@Z		; operator delete[]
  00007	59		 pop	 ecx
  00008	c3		 ret	 0
??1?$_Filebuf_Tmp_Buf@D@_STL@@QAE@XZ ENDP		; _STL::_Filebuf_Tmp_Buf<char>::~_Filebuf_Tmp_Buf<char>
; Function compile flags: /Ogsy
_TEXT	ENDS
;	COMDAT ?_M_seek_return@?$basic_filebuf@DV?$char_traits@D@_STL@@@_STL@@AAE?AV?$fpos@H@2@JH@Z
_TEXT	SEGMENT
___$ReturnUdt$ = 8					; size = 4
___off$ = 12						; size = 4
___state$ = 16						; size = 4
?_M_seek_return@?$basic_filebuf@DV?$char_traits@D@_STL@@@_STL@@AAE?AV?$fpos@H@2@JH@Z PROC NEAR ; _STL::basic_filebuf<char,_STL::char_traits<char> >::_M_seek_return, COMDAT
; _this$ = ecx

; 265  :   pos_type _M_seek_return(off_type __off, _State_type __state) {

  00000	56		 push	 esi
  00001	57		 push	 edi

; 266  :     if (__off != -1) {

  00002	8b 7c 24 10	 mov	 edi, DWORD PTR ___off$[esp+4]
  00006	83 ff ff	 cmp	 edi, -1
  00009	8b f1		 mov	 esi, ecx
  0000b	74 30		 je	 SHORT $L103504
  0000d	53		 push	 ebx

; 267  :       if (_M_in_input_mode)

  0000e	33 db		 xor	 ebx, ebx
  00010	38 5e 67	 cmp	 BYTE PTR [esi+103], bl
  00013	74 05		 je	 SHORT $L100403

; 268  :         _M_exit_input_mode();

  00015	e8 00 00 00 00	 call	 ?_M_exit_input_mode@?$basic_filebuf@DV?$char_traits@D@_STL@@@_STL@@AAEXXZ ; _STL::basic_filebuf<char,_STL::char_traits<char> >::_M_exit_input_mode
$L100403:

; 269  :       _M_in_input_mode = false;
; 270  :       _M_in_output_mode = false;
; 271  :       _M_in_putback_mode = false;
; 272  :       _M_in_error_mode = false;
; 273  :       this->setg(0, 0, 0);

  0001a	8b 46 04	 mov	 eax, DWORD PTR [esi+4]
  0001d	88 5e 67	 mov	 BYTE PTR [esi+103], bl
  00020	88 5e 68	 mov	 BYTE PTR [esi+104], bl
  00023	88 5e 6a	 mov	 BYTE PTR [esi+106], bl
  00026	88 5e 69	 mov	 BYTE PTR [esi+105], bl
  00029	89 58 08	 mov	 DWORD PTR [eax+8], ebx
  0002c	89 18		 mov	 DWORD PTR [eax], ebx
  0002e	89 58 04	 mov	 DWORD PTR [eax+4], ebx

; 274  :       this->setp(0, 0);

  00031	8b 76 08	 mov	 esi, DWORD PTR [esi+8]
  00034	89 5e 08	 mov	 DWORD PTR [esi+8], ebx
  00037	89 1e		 mov	 DWORD PTR [esi], ebx
  00039	89 5e 04	 mov	 DWORD PTR [esi+4], ebx
  0003c	5b		 pop	 ebx
$L103504:

; 275  :     }
; 276  :     
; 277  :     pos_type __result(__off);
; 278  :     __result.state(__state);
; 279  :     return __result;

  0003d	8b 44 24 0c	 mov	 eax, DWORD PTR ___$ReturnUdt$[esp+4]
  00041	8b 4c 24 14	 mov	 ecx, DWORD PTR ___state$[esp+4]
  00045	89 38		 mov	 DWORD PTR [eax], edi
  00047	5f		 pop	 edi
  00048	89 48 04	 mov	 DWORD PTR [eax+4], ecx
  0004b	5e		 pop	 esi

; 280  :   }

  0004c	c2 0c 00	 ret	 12			; 0000000cH
?_M_seek_return@?$basic_filebuf@DV?$char_traits@D@_STL@@@_STL@@AAE?AV?$fpos@H@2@JH@Z ENDP ; _STL::basic_filebuf<char,_STL::char_traits<char> >::_M_seek_return
_TEXT	ENDS
PUBLIC	?_M_exit_putback_mode@?$basic_filebuf@DV?$char_traits@D@_STL@@@_STL@@AAEXXZ ; _STL::basic_filebuf<char,_STL::char_traits<char> >::_M_exit_putback_mode
; Function compile flags: /Ogsy
; File c:\stlport-4.6.1\stlport\stl\_fstream.c
;	COMDAT ?_M_seek_init@?$basic_filebuf@DV?$char_traits@D@_STL@@@_STL@@AAE_N_N@Z
_TEXT	SEGMENT
___do_unshift$ = 8					; size = 1
?_M_seek_init@?$basic_filebuf@DV?$char_traits@D@_STL@@@_STL@@AAE_N_N@Z PROC NEAR ; _STL::basic_filebuf<char,_STL::char_traits<char> >::_M_seek_init, COMDAT
; _this$ = ecx

; 699  : bool basic_filebuf<_CharT, _Traits>::_M_seek_init(bool __do_unshift) {

  00000	53		 push	 ebx
  00001	56		 push	 esi
  00002	8b f1		 mov	 esi, ecx

; 700  :   // If we're in error mode, leave it.
; 701  :    _M_in_error_mode = false;

  00004	33 db		 xor	 ebx, ebx

; 702  :    
; 703  :   // Flush the output buffer if we're in output mode, and (conditionally)
; 704  :   // emit an unshift sequence.
; 705  :   if (_M_in_output_mode) {

  00006	38 5e 68	 cmp	 BYTE PTR [esi+104], bl
  00009	88 5e 69	 mov	 BYTE PTR [esi+105], bl
  0000c	74 3e		 je	 SHORT $L100628

; 706  :     bool __ok = !traits_type::eq_int_type(this->overflow(traits_type::eof()),
; 707  :                                           traits_type::eof());

  0000e	8b 06		 mov	 eax, DWORD PTR [esi]
  00010	6a ff		 push	 -1
  00012	ff 50 30	 call	 DWORD PTR [eax+48]
  00015	83 f8 ff	 cmp	 eax, -1
  00018	0f 95 c0	 setne	 al

; 708  :     if (__do_unshift)

  0001b	38 5c 24 0c	 cmp	 BYTE PTR ___do_unshift$[esp+4], bl
  0001f	74 11		 je	 SHORT $L103517

; 709  :       __ok = __ok && this->_M_unshift();

  00021	3a c3		 cmp	 al, bl
  00023	74 0b		 je	 SHORT $L103516
  00025	8b ce		 mov	 ecx, esi
  00027	e8 00 00 00 00	 call	 ?_M_unshift@?$basic_filebuf@DV?$char_traits@D@_STL@@@_STL@@AAE_NXZ ; _STL::basic_filebuf<char,_STL::char_traits<char> >::_M_unshift
  0002c	84 c0		 test	 al, al
  0002e	75 1c		 jne	 SHORT $L100628
$L103516:
  00030	32 c0		 xor	 al, al
$L103517:

; 710  :     if (!__ok) {

  00032	3a c3		 cmp	 al, bl
  00034	75 16		 jne	 SHORT $L100628

; 711  :       _M_in_output_mode = false;

  00036	88 5e 68	 mov	 BYTE PTR [esi+104], bl

; 712  :       _M_in_error_mode = true;

  00039	c6 46 69 01	 mov	 BYTE PTR [esi+105], 1

; 713  :       this->setp(0, 0);

  0003d	8b 76 08	 mov	 esi, DWORD PTR [esi+8]
  00040	89 5e 08	 mov	 DWORD PTR [esi+8], ebx
  00043	89 1e		 mov	 DWORD PTR [esi], ebx
  00045	89 5e 04	 mov	 DWORD PTR [esi+4], ebx

; 714  :       return false;

  00048	32 c0		 xor	 al, al
  0004a	eb 13		 jmp	 SHORT $L100622
$L100628:

; 715  :     }
; 716  :   }
; 717  : 
; 718  :   // Discard putback characters, if any.
; 719  :   if (_M_in_input_mode && _M_in_putback_mode)

  0004c	38 5e 67	 cmp	 BYTE PTR [esi+103], bl
  0004f	74 0c		 je	 SHORT $L100629
  00051	38 5e 6a	 cmp	 BYTE PTR [esi+106], bl
  00054	74 07		 je	 SHORT $L100629

; 720  :     _M_exit_putback_mode();

  00056	8b ce		 mov	 ecx, esi
  00058	e8 00 00 00 00	 call	 ?_M_exit_putback_mode@?$basic_filebuf@DV?$char_traits@D@_STL@@@_STL@@AAEXXZ ; _STL::basic_filebuf<char,_STL::char_traits<char> >::_M_exit_putback_mode
$L100629:

; 721  : 
; 722  :   return true;

  0005d	b0 01		 mov	 al, 1
$L100622:
  0005f	5e		 pop	 esi
  00060	5b		 pop	 ebx

; 723  : }

  00061	c2 04 00	 ret	 4
?_M_seek_init@?$basic_filebuf@DV?$char_traits@D@_STL@@@_STL@@AAE_N_N@Z ENDP ; _STL::basic_filebuf<char,_STL::char_traits<char> >::_M_seek_init
; Function compile flags: /Ogsy
; File c:\stlport-4.6.1\stlport\stl\_fstream.h
_TEXT	ENDS
;	COMDAT ?_M_exit_putback_mode@?$basic_filebuf@DV?$char_traits@D@_STL@@@_STL@@AAEXXZ
_TEXT	SEGMENT
?_M_exit_putback_mode@?$basic_filebuf@DV?$char_traits@D@_STL@@@_STL@@AAEXXZ PROC NEAR ; _STL::basic_filebuf<char,_STL::char_traits<char> >::_M_exit_putback_mode, COMDAT
; _this$ = ecx

; 245  :     this->setg(_M_saved_eback, _M_saved_gptr, _M_saved_egptr);

  00000	8b 81 9c 00 00
	00		 mov	 eax, DWORD PTR [ecx+156]
  00006	8b 51 04	 mov	 edx, DWORD PTR [ecx+4]
  00009	56		 push	 esi
  0000a	8b b1 98 00 00
	00		 mov	 esi, DWORD PTR [ecx+152]
  00010	57		 push	 edi
  00011	8b b9 94 00 00
	00		 mov	 edi, DWORD PTR [ecx+148]
  00017	89 7a 08	 mov	 DWORD PTR [edx+8], edi
  0001a	2b c6		 sub	 eax, esi
  0001c	89 32		 mov	 DWORD PTR [edx], esi
  0001e	5f		 pop	 edi
  0001f	89 42 04	 mov	 DWORD PTR [edx+4], eax

; 246  :     _M_in_putback_mode = false;

  00022	c6 41 6a 00	 mov	 BYTE PTR [ecx+106], 0
  00026	5e		 pop	 esi

; 247  :   }

  00027	c3		 ret	 0
?_M_exit_putback_mode@?$basic_filebuf@DV?$char_traits@D@_STL@@@_STL@@AAEXXZ ENDP ; _STL::basic_filebuf<char,_STL::char_traits<char> >::_M_exit_putback_mode
; Function compile flags: /Ogsy
; File c:\stlport-4.6.1\stlport\stl\_fstream.c
_TEXT	ENDS
;	COMDAT ?seekpos@?$basic_filebuf@DV?$char_traits@D@_STL@@@_STL@@MAE?AV?$fpos@H@2@V32@H@Z
_TEXT	SEGMENT
___$ReturnUdt$ = 8					; size = 4
___pos$ = 12						; size = 8
___formal$ = 20						; size = 4
?seekpos@?$basic_filebuf@DV?$char_traits@D@_STL@@@_STL@@MAE?AV?$fpos@H@2@V32@H@Z PROC NEAR ; _STL::basic_filebuf<char,_STL::char_traits<char> >::seekpos, COMDAT
; _this$ = ecx

; 393  : {

  00000	55		 push	 ebp
  00001	8b ec		 mov	 ebp, esp
  00003	56		 push	 esi
  00004	8b f1		 mov	 esi, ecx

; 394  :   if (this->is_open()) {

  00006	80 7e 60 00	 cmp	 BYTE PTR [esi+96], 0
  0000a	74 3f		 je	 SHORT $L98936

; 395  :     if (!_M_seek_init(true))

  0000c	6a 01		 push	 1
  0000e	e8 00 00 00 00	 call	 ?_M_seek_init@?$basic_filebuf@DV?$char_traits@D@_STL@@@_STL@@AAE_N_N@Z ; _STL::basic_filebuf<char,_STL::char_traits<char> >::_M_seek_init
  00013	84 c0		 test	 al, al

; 396  :       return pos_type(-1);

  00015	74 34		 je	 SHORT $L98936

; 397  : 
; 398  :     streamoff __off = off_type(__pos);
; 399  :     if (__off != -1 && _M_base._M_seek(__off, ios_base::beg) != -1) {

  00017	83 7d 0c ff	 cmp	 DWORD PTR ___pos$[ebp], -1
  0001b	74 2e		 je	 SHORT $L98936
  0001d	6a 01		 push	 1
  0001f	ff 75 0c	 push	 DWORD PTR ___pos$[ebp]
  00022	8d 4e 54	 lea	 ecx, DWORD PTR [esi+84]
  00025	e8 00 00 00 00	 call	 ?_M_seek@_Filebuf_base@_STL@@QAEJJH@Z ; _STL::_Filebuf_base::_M_seek
  0002a	83 f8 ff	 cmp	 eax, -1
  0002d	74 1c		 je	 SHORT $L98936

; 400  :       _M_state = __pos.state();

  0002f	8b 45 10	 mov	 eax, DWORD PTR ___pos$[ebp+4]

; 401  :       return _M_seek_return(__off, __pos.state());

  00032	50		 push	 eax
  00033	ff 75 0c	 push	 DWORD PTR ___pos$[ebp]
  00036	8b ce		 mov	 ecx, esi
  00038	ff 75 08	 push	 DWORD PTR ___$ReturnUdt$[ebp]
  0003b	89 86 84 00 00
	00		 mov	 DWORD PTR [esi+132], eax
  00041	e8 00 00 00 00	 call	 ?_M_seek_return@?$basic_filebuf@DV?$char_traits@D@_STL@@@_STL@@AAE?AV?$fpos@H@2@JH@Z ; _STL::basic_filebuf<char,_STL::char_traits<char> >::_M_seek_return
  00046	8b 45 08	 mov	 eax, DWORD PTR ___$ReturnUdt$[ebp]
  00049	eb 0a		 jmp	 SHORT $L98944
$L98936:

; 402  :     }
; 403  :     else
; 404  :       return pos_type(-1);
; 405  :   }
; 406  :   else
; 407  :     return pos_type(-1);

  0004b	8b 45 08	 mov	 eax, DWORD PTR ___$ReturnUdt$[ebp]
  0004e	83 08 ff	 or	 DWORD PTR [eax], -1
  00051	83 60 04 00	 and	 DWORD PTR [eax+4], 0
$L98944:
  00055	5e		 pop	 esi

; 408  : }

  00056	5d		 pop	 ebp
  00057	c2 10 00	 ret	 16			; 00000010H
?seekpos@?$basic_filebuf@DV?$char_traits@D@_STL@@@_STL@@MAE?AV?$fpos@H@2@V32@H@Z ENDP ; _STL::basic_filebuf<char,_STL::char_traits<char> >::seekpos
; Function compile flags: /Ogsy
_TEXT	ENDS
;	COMDAT ??_G?$basic_filebuf@DV?$char_traits@D@_STL@@@_STL@@UAEPAXI@Z
_TEXT	SEGMENT
___flags$ = 8						; size = 4
??_G?$basic_filebuf@DV?$char_traits@D@_STL@@@_STL@@UAEPAXI@Z PROC NEAR ; _STL::basic_filebuf<char,_STL::char_traits<char> >::`scalar deleting destructor', COMDAT
; _this$ = ecx
  00000	56		 push	 esi
  00001	8b f1		 mov	 esi, ecx
  00003	e8 00 00 00 00	 call	 ??1?$basic_filebuf@DV?$char_traits@D@_STL@@@_STL@@UAE@XZ ; _STL::basic_filebuf<char,_STL::char_traits<char> >::~basic_filebuf<char,_STL::char_traits<char> >
  00008	f6 44 24 08 01	 test	 BYTE PTR ___flags$[esp], 1
  0000d	74 07		 je	 SHORT $L99020
  0000f	56		 push	 esi
  00010	e8 00 00 00 00	 call	 ??3@YAXPAX@Z		; operator delete
  00015	59		 pop	 ecx
$L99020:
  00016	8b c6		 mov	 eax, esi
  00018	5e		 pop	 esi
  00019	c2 04 00	 ret	 4
??_G?$basic_filebuf@DV?$char_traits@D@_STL@@@_STL@@UAEPAXI@Z ENDP ; _STL::basic_filebuf<char,_STL::char_traits<char> >::`scalar deleting destructor'
_TEXT	ENDS
PUBLIC	??1?$basic_ifstream@DV?$char_traits@D@_STL@@@_STL@@UAE@XZ ; _STL::basic_ifstream<char,_STL::char_traits<char> >::~basic_ifstream<char,_STL::char_traits<char> >
PUBLIC	??_R4?$basic_ifstream@DV?$char_traits@D@_STL@@@_STL@@6B@ ; _STL::basic_ifstream<char,_STL::char_traits<char> >::`RTTI Complete Object Locator'
PUBLIC	??_R0?AV?$basic_ifstream@DV?$char_traits@D@_STL@@@_STL@@@8 ; _STL::basic_ifstream<char,_STL::char_traits<char> > `RTTI Type Descriptor'
PUBLIC	??_R3?$basic_ifstream@DV?$char_traits@D@_STL@@@_STL@@8 ; _STL::basic_ifstream<char,_STL::char_traits<char> >::`RTTI Class Hierarchy Descriptor'
PUBLIC	??_R2?$basic_ifstream@DV?$char_traits@D@_STL@@@_STL@@8 ; _STL::basic_ifstream<char,_STL::char_traits<char> >::`RTTI Base Class Array'
PUBLIC	??_R1A@?0A@A@?$basic_ifstream@DV?$char_traits@D@_STL@@@_STL@@8 ; _STL::basic_ifstream<char,_STL::char_traits<char> >::`RTTI Base Class Descriptor at (0,-1,0,0)'
PUBLIC	??_7?$basic_ifstream@DV?$char_traits@D@_STL@@@_STL@@6B@ ; _STL::basic_ifstream<char,_STL::char_traits<char> >::`vftable'
PUBLIC	??_G?$basic_ifstream@DV?$char_traits@D@_STL@@@_STL@@UAEPAXI@Z ; _STL::basic_ifstream<char,_STL::char_traits<char> >::`scalar deleting destructor'
EXTRN	??_E?$basic_ifstream@DV?$char_traits@D@_STL@@@_STL@@UAEPAXI@Z:NEAR ; _STL::basic_ifstream<char,_STL::char_traits<char> >::`vector deleting destructor'
;	COMDAT xdata$x
; File c:\stlport-4.6.1\stlport\stl\_istream.h
xdata$x	SEGMENT
$T103616 DD	0ffffffffH
	DD	FLAT:$L103607
$T103614 DD	019930520H
	DD	01H
	DD	FLAT:$T103616
	DD	2 DUP(00H)
	DD	2 DUP(00H)
xdata$x	ENDS
;	COMDAT ??_7?$basic_ifstream@DV?$char_traits@D@_STL@@@_STL@@6B@
CONST	SEGMENT
??_7?$basic_ifstream@DV?$char_traits@D@_STL@@@_STL@@6B@ DD FLAT:??_R4?$basic_ifstream@DV?$char_traits@D@_STL@@@_STL@@6B@ ; _STL::basic_ifstream<char,_STL::char_traits<char> >::`vftable'
	DD	FLAT:??_E?$basic_ifstream@DV?$char_traits@D@_STL@@@_STL@@UAEPAXI@Z
CONST	ENDS
;	COMDAT ??_R4?$basic_ifstream@DV?$char_traits@D@_STL@@@_STL@@6B@
rdata$r	SEGMENT
??_R4?$basic_ifstream@DV?$char_traits@D@_STL@@@_STL@@6B@ DD 00H ; _STL::basic_ifstream<char,_STL::char_traits<char> >::`RTTI Complete Object Locator'
	DD	0bcH
	DD	00H
	DD	FLAT:??_R0?AV?$basic_ifstream@DV?$char_traits@D@_STL@@@_STL@@@8
	DD	FLAT:??_R3?$basic_ifstream@DV?$char_traits@D@_STL@@@_STL@@8
rdata$r	ENDS
;	COMDAT ??_R0?AV?$basic_ifstream@DV?$char_traits@D@_STL@@@_STL@@@8
_DATA	SEGMENT
??_R0?AV?$basic_ifstream@DV?$char_traits@D@_STL@@@_STL@@@8 DD FLAT:??_7type_info@@6B@ ; _STL::basic_ifstream<char,_STL::char_traits<char> > `RTTI Type Descriptor'
	DD	00H
	DB	'.?AV?$basic_ifstream@DV?$char_traits@D@_STL@@@_STL@@', 00H
_DATA	ENDS
;	COMDAT ??_R3?$basic_ifstream@DV?$char_traits@D@_STL@@@_STL@@8
rdata$r	SEGMENT
??_R3?$basic_ifstream@DV?$char_traits@D@_STL@@@_STL@@8 DD 00H ; _STL::basic_ifstream<char,_STL::char_traits<char> >::`RTTI Class Hierarchy Descriptor'
	DD	00H
	DD	04H
	DD	FLAT:??_R2?$basic_ifstream@DV?$char_traits@D@_STL@@@_STL@@8
rdata$r	ENDS
;	COMDAT ??_R2?$basic_ifstream@DV?$char_traits@D@_STL@@@_STL@@8
rdata$r	SEGMENT
??_R2?$basic_ifstream@DV?$char_traits@D@_STL@@@_STL@@8 DD FLAT:??_R1A@?0A@A@?$basic_ifstream@DV?$char_traits@D@_STL@@@_STL@@8 ; _STL::basic_ifstream<char,_STL::char_traits<char> >::`RTTI Base Class Array'
	DD	FLAT:??_R1A@?0A@A@?$basic_istream@DV?$char_traits@D@_STL@@@_STL@@8
	DD	FLAT:??_R1A@A@3BA@?$basic_ios@DV?$char_traits@D@_STL@@@_STL@@8
	DD	FLAT:??_R1A@A@3A@ios_base@_STL@@8
rdata$r	ENDS
;	COMDAT ??_R1A@?0A@A@?$basic_ifstream@DV?$char_traits@D@_STL@@@_STL@@8
rdata$r	SEGMENT
??_R1A@?0A@A@?$basic_ifstream@DV?$char_traits@D@_STL@@@_STL@@8 DD FLAT:??_R0?AV?$basic_ifstream@DV?$char_traits@D@_STL@@@_STL@@@8 ; _STL::basic_ifstream<char,_STL::char_traits<char> >::`RTTI Base Class Descriptor at (0,-1,0,0)'
	DD	03H
	DD	00H
	DD	0ffffffffH
	DD	00H
	DD	00H
; Function compile flags: /Ogsy
; File c:\stlport-4.6.1\stlport\stl\_fstream.h
rdata$r	ENDS
;	COMDAT ??1?$basic_ifstream@DV?$char_traits@D@_STL@@@_STL@@UAE@XZ
_TEXT	SEGMENT
_this$ = -16						; size = 4
__$EHRec$ = -12						; size = 12
??1?$basic_ifstream@DV?$char_traits@D@_STL@@@_STL@@UAE@XZ PROC NEAR ; _STL::basic_ifstream<char,_STL::char_traits<char> >::~basic_ifstream<char,_STL::char_traits<char> >, COMDAT
; _this$ = ecx

; 543  :   ~basic_ifstream() {}

  00000	b8 00 00 00 00	 mov	 eax, __ehhandler$??1?$basic_ifstream@DV?$char_traits@D@_STL@@@_STL@@UAE@XZ
  00005	e8 00 00 00 00	 call	 __EH_prolog
  0000a	51		 push	 ecx
  0000b	8b 81 44 ff ff
	ff		 mov	 eax, DWORD PTR [ecx-188]
  00011	8b 40 04	 mov	 eax, DWORD PTR [eax+4]
  00014	56		 push	 esi
  00015	89 4d f0	 mov	 DWORD PTR _this$[ebp], ecx
  00018	c7 84 08 44 ff
	ff ff 00 00 00
	00		 mov	 DWORD PTR [eax+ecx-188], OFFSET FLAT:??_7?$basic_ifstream@DV?$char_traits@D@_STL@@@_STL@@6B@
  00023	83 65 fc 00	 and	 DWORD PTR __$EHRec$[ebp+8], 0
  00027	8d b1 4c ff ff
	ff		 lea	 esi, DWORD PTR [ecx-180]
  0002d	8b ce		 mov	 ecx, esi
  0002f	e8 00 00 00 00	 call	 ??1?$basic_filebuf@DV?$char_traits@D@_STL@@@_STL@@UAE@XZ ; _STL::basic_filebuf<char,_STL::char_traits<char> >::~basic_filebuf<char,_STL::char_traits<char> >
  00034	8b 46 f8	 mov	 eax, DWORD PTR [esi-8]
  00037	8b 40 04	 mov	 eax, DWORD PTR [eax+4]
  0003a	8b 4d f4	 mov	 ecx, DWORD PTR __$EHRec$[ebp]
  0003d	c7 44 30 f8 00
	00 00 00	 mov	 DWORD PTR [eax+esi-8], OFFSET FLAT:??_7?$basic_istream@DV?$char_traits@D@_STL@@@_STL@@6B@
  00045	5e		 pop	 esi
  00046	64 89 0d 00 00
	00 00		 mov	 DWORD PTR fs:__except_list, ecx
  0004d	c9		 leave
  0004e	c3		 ret	 0
_TEXT	ENDS
;	COMDAT text$x
text$x	SEGMENT
$L103607:
  00000	8b 4d f0	 mov	 ecx, DWORD PTR _this$[ebp]
  00003	81 e9 b4 00 00
	00		 sub	 ecx, 180		; 000000b4H
  00009	e9 00 00 00 00	 jmp	 ??1?$basic_istream@DV?$char_traits@D@_STL@@@_STL@@UAE@XZ ; _STL::basic_istream<char,_STL::char_traits<char> >::~basic_istream<char,_STL::char_traits<char> >
__ehhandler$??1?$basic_ifstream@DV?$char_traits@D@_STL@@@_STL@@UAE@XZ:
  0000e	b8 00 00 00 00	 mov	 eax, OFFSET FLAT:$T103614
  00013	e9 00 00 00 00	 jmp	 ___CxxFrameHandler
text$x	ENDS
??1?$basic_ifstream@DV?$char_traits@D@_STL@@@_STL@@UAE@XZ ENDP ; _STL::basic_ifstream<char,_STL::char_traits<char> >::~basic_ifstream<char,_STL::char_traits<char> >
PUBLIC	?close@?$basic_ifstream@DV?$char_traits@D@_STL@@@_STL@@QAEXXZ ; _STL::basic_ifstream<char,_STL::char_traits<char> >::close
; Function compile flags: /Ogsy
;	COMDAT ?close@?$basic_ifstream@DV?$char_traits@D@_STL@@@_STL@@QAEXXZ
_TEXT	SEGMENT
?close@?$basic_ifstream@DV?$char_traits@D@_STL@@@_STL@@QAEXXZ PROC NEAR ; _STL::basic_ifstream<char,_STL::char_traits<char> >::close, COMDAT
; _this$ = ecx

; 558  :   void close() {

  00000	56		 push	 esi
  00001	8b f1		 mov	 esi, ecx

; 559  :     if (!this->rdbuf()->close())

  00003	8d 4e 08	 lea	 ecx, DWORD PTR [esi+8]
  00006	e8 00 00 00 00	 call	 ?close@?$basic_filebuf@DV?$char_traits@D@_STL@@@_STL@@QAEPAV12@XZ ; _STL::basic_filebuf<char,_STL::char_traits<char> >::close
  0000b	85 c0		 test	 eax, eax
  0000d	75 13		 jne	 SHORT $L103629

; 560  :       this->setstate(ios_base::failbit);

  0000f	8b 06		 mov	 eax, DWORD PTR [esi]
  00011	8b 48 04	 mov	 ecx, DWORD PTR [eax+4]
  00014	03 ce		 add	 ecx, esi
  00016	8b 41 08	 mov	 eax, DWORD PTR [ecx+8]
  00019	83 c8 04	 or	 eax, 4
  0001c	50		 push	 eax
  0001d	e8 00 00 00 00	 call	 ?clear@?$basic_ios@DV?$char_traits@D@_STL@@@_STL@@QAEXH@Z ; _STL::basic_ios<char,_STL::char_traits<char> >::clear
$L103629:
  00022	5e		 pop	 esi

; 561  :   }

  00023	c3		 ret	 0
?close@?$basic_ifstream@DV?$char_traits@D@_STL@@@_STL@@QAEXXZ ENDP ; _STL::basic_ifstream<char,_STL::char_traits<char> >::close
_TEXT	ENDS
PUBLIC	??$_M_range_initialize@PBD@?$basic_string@DV?$char_traits@D@_STL@@V?$allocator@D@2@@_STL@@AAEXPBD0@Z ; _STL::basic_string<char,_STL::char_traits<char>,_STL::allocator<char> >::_M_range_initialize<char const *>
; Function compile flags: /Ogsy
; File c:\stlport-4.6.1\stlport\stl\_string.h
;	COMDAT ??$_M_range_initialize@PBD@?$basic_string@DV?$char_traits@D@_STL@@V?$allocator@D@2@@_STL@@AAEXPBD0@Z
_TEXT	SEGMENT
___f$ = 8						; size = 4
___l$ = 12						; size = 4
$T103637 = 15						; size = 1
??$_M_range_initialize@PBD@?$basic_string@DV?$char_traits@D@_STL@@V?$allocator@D@2@@_STL@@AAEXPBD0@Z PROC NEAR ; _STL::basic_string<char,_STL::char_traits<char>,_STL::allocator<char> >::_M_range_initialize<char const *>, COMDAT
; _this$ = ecx

; 390  :   template <class _InputIter> void _M_range_initialize(_InputIter __f, _InputIter __l) {

  00000	55		 push	 ebp
  00001	8b ec		 mov	 ebp, esp

; 391  :     _M_range_initialize(__f, __l, _STLP_ITERATOR_CATEGORY(__f, _InputIter));

  00003	8d 45 0f	 lea	 eax, DWORD PTR $T103637[ebp]
  00006	50		 push	 eax
  00007	ff 75 0c	 push	 DWORD PTR ___l$[ebp]
  0000a	ff 75 08	 push	 DWORD PTR ___f$[ebp]
  0000d	e8 00 00 00 00	 call	 ??$_M_range_initialize@PBD@?$basic_string@DV?$char_traits@D@_STL@@V?$allocator@D@2@@_STL@@AAEXPBD0ABUforward_iterator_tag@1@@Z ; _STL::basic_string<char,_STL::char_traits<char>,_STL::allocator<char> >::_M_range_initialize<char const *>

; 392  :   }

  00012	5d		 pop	 ebp
  00013	c2 08 00	 ret	 8
??$_M_range_initialize@PBD@?$basic_string@DV?$char_traits@D@_STL@@V?$allocator@D@2@@_STL@@AAEXPBD0@Z ENDP ; _STL::basic_string<char,_STL::char_traits<char>,_STL::allocator<char> >::_M_range_initialize<char const *>
_TEXT	ENDS
PUBLIC	??$_M_read_buffered@DV?$char_traits@D@_STL@@U?$_Eq_char_bound@V?$char_traits@D@_STL@@@2@U?$_Scan_for_char_val@V?$char_traits@D@_STL@@@2@@_STL@@YAHPAV?$basic_istream@DV?$char_traits@D@_STL@@@0@PAV?$basic_streambuf@DV?$char_traits@D@_STL@@@0@HPADU?$_Eq_char_bound@V?$char_traits@D@_STL@@@0@U?$_Scan_for_char_val@V?$char_traits@D@_STL@@@0@_N55@Z ; _STL::_M_read_buffered<char,_STL::char_traits<char>,_STL::_Eq_char_bound<_STL::char_traits<char> >,_STL::_Scan_for_char_val<_STL::char_traits<char> > >
;	COMDAT xdata$x
; File c:\stlport-4.6.1\stlport\stl\_ios_base.h
xdata$x	SEGMENT
$T103762 DD	0ffffffffH
	DD	00H
	DD	0ffffffffH
	DD	00H
$T103764 DD	00H
	DD	00H
	DD	00H
	DD	FLAT:$L103642
$T103763 DD	00H
	DD	00H
	DD	01H
	DD	01H
	DD	FLAT:$T103764
$T103756 DD	019930520H
	DD	02H
	DD	FLAT:$T103762
	DD	01H
	DD	FLAT:$T103763
	DD	2 DUP(00H)
; Function compile flags: /Ogsy
; File c:\stlport-4.6.1\stlport\stl\_istream.c
xdata$x	ENDS
;	COMDAT ??$_M_read_buffered@DV?$char_traits@D@_STL@@U?$_Eq_char_bound@V?$char_traits@D@_STL@@@2@U?$_Scan_for_char_val@V?$char_traits@D@_STL@@@2@@_STL@@YAHPAV?$basic_istream@DV?$char_traits@D@_STL@@@0@PAV?$basic_streambuf@DV?$char_traits@D@_STL@@@0@HPADU?$_Eq_char_bound@V?$char_traits@D@_STL@@@0@U?$_Scan_for_char_val@V?$char_traits@D@_STL@@@0@_N55@Z
_TEXT	SEGMENT
tv312 = -48						; size = 4
___p$100969 = -44					; size = 4
___request$100968 = -40					; size = 4
___first$100966 = -36					; size = 4
$T103640 = -32						; size = 4
___status$ = -28					; size = 4
___n$ = -24						; size = 4
___done$ = -17						; size = 1
__$EHRec$ = -16						; size = 16
___that$ = 8						; size = 4
___buf$ = 12						; size = 4
__Num$ = 16						; size = 4
___s$ = 20						; size = 4
___is_delim$ = 24					; size = 1
___scan_delim$ = 28					; size = 1
___extract_delim$ = 32					; size = 1
___append_null$ = 36					; size = 1
___is_getline$ = 40					; size = 1
??$_M_read_buffered@DV?$char_traits@D@_STL@@U?$_Eq_char_bound@V?$char_traits@D@_STL@@@2@U?$_Scan_for_char_val@V?$char_traits@D@_STL@@@2@@_STL@@YAHPAV?$basic_istream@DV?$char_traits@D@_STL@@@0@PAV?$basic_streambuf@DV?$char_traits@D@_STL@@@0@HPADU?$_Eq_char_bound@V?$char_traits@D@_STL@@@0@U?$_Scan_for_char_val@V?$char_traits@D@_STL@@@0@_N55@Z PROC NEAR ; _STL::_M_read_buffered<char,_STL::char_traits<char>,_STL::_Eq_char_bound<_STL::char_traits<char> >,_STL::_Scan_for_char_val<_STL::char_traits<char> > >, COMDAT

; 627  : {

  00000	b8 00 00 00 00	 mov	 eax, __ehhandler$??$_M_read_buffered@DV?$char_traits@D@_STL@@U?$_Eq_char_bound@V?$char_traits@D@_STL@@@2@U?$_Scan_for_char_val@V?$char_traits@D@_STL@@@2@@_STL@@YAHPAV?$basic_istream@DV?$char_traits@D@_STL@@@0@PAV?$basic_streambuf@DV?$char_traits@D@_STL@@@0@HPADU?$_Eq_char_bound@V?$char_traits@D@_STL@@@0@U?$_Scan_for_char_val@V?$char_traits@D@_STL@@@0@_N55@Z
  00005	e8 00 00 00 00	 call	 __EH_prolog
  0000a	83 ec 24	 sub	 esp, 36			; 00000024H
  0000d	53		 push	 ebx

; 628  :   streamsize __n = 0;

  0000e	33 c0		 xor	 eax, eax
  00010	56		 push	 esi
  00011	57		 push	 edi
  00012	89 65 f0	 mov	 DWORD PTR __$EHRec$[ebp], esp
  00015	89 45 e8	 mov	 DWORD PTR ___n$[ebp], eax

; 629  :   ios_base::iostate __status = 0;

  00018	89 45 e4	 mov	 DWORD PTR ___status$[ebp], eax

; 630  :   bool __done    = false;

  0001b	88 45 ef	 mov	 BYTE PTR ___done$[ebp], al

; 631  : 
; 632  :   _STLP_TRY {

  0001e	89 45 fc	 mov	 DWORD PTR __$EHRec$[ebp+12], eax
$L100964:

; 633  :     while (__buf->_M_egptr() != __buf->_M_gptr() && !__done) {

  00021	8b 45 0c	 mov	 eax, DWORD PTR ___buf$[ebp]
  00024	8b 48 04	 mov	 ecx, DWORD PTR [eax+4]
  00027	8b 11		 mov	 edx, DWORD PTR [ecx]
  00029	8b 71 04	 mov	 esi, DWORD PTR [ecx+4]
  0002c	03 f2		 add	 esi, edx
  0002e	3b f2		 cmp	 esi, edx
  00030	0f 84 e1 00 00
	00		 je	 $L100965
  00036	80 7d ef 00	 cmp	 BYTE PTR ___done$[ebp], 0
  0003a	0f 85 d7 00 00
	00		 jne	 $L100965

; 634  :       const _CharT* __first = __buf->_M_gptr();
; 635  :       const _CharT* __last  = __buf->_M_egptr();
; 636  :       ptrdiff_t __request = _Num - __n;

  00040	8b 5d 10	 mov	 ebx, DWORD PTR __Num$[ebp]
  00043	2b 5d e8	 sub	 ebx, DWORD PTR ___n$[ebp]
  00046	8b c1		 mov	 eax, ecx
  00048	8b 38		 mov	 edi, DWORD PTR [eax]
  0004a	8b 70 04	 mov	 esi, DWORD PTR [eax+4]
  0004d	03 f7		 add	 esi, edi

; 637  : 
; 638  :       const _CharT* __p  = __scan_delim(__first, __last);

  0004f	56		 push	 esi
  00050	57		 push	 edi
  00051	8d 4d 1c	 lea	 ecx, DWORD PTR ___scan_delim$[ebp]
  00054	89 7d dc	 mov	 DWORD PTR ___first$100966[ebp], edi
  00057	89 5d d8	 mov	 DWORD PTR ___request$100968[ebp], ebx
  0005a	e8 00 00 00 00	 call	 ??R?$_Scan_for_char_val@V?$char_traits@D@_STL@@@_STL@@QBEPBDPBD0@Z ; _STL::_Scan_for_char_val<_STL::char_traits<char> >::operator()
  0005f	89 45 d4	 mov	 DWORD PTR ___p$100969[ebp], eax

; 639  :       ptrdiff_t __chunk = (min) (ptrdiff_t(__p - __first), __request);

  00062	2b c7		 sub	 eax, edi
  00064	89 45 d0	 mov	 DWORD PTR tv312[ebp], eax
  00067	89 45 e0	 mov	 DWORD PTR $T103640[ebp], eax
  0006a	3b d8		 cmp	 ebx, eax
  0006c	8d 45 d8	 lea	 eax, DWORD PTR ___request$100968[ebp]
  0006f	7c 03		 jl	 SHORT $L103688
  00071	8d 45 e0	 lea	 eax, DWORD PTR $T103640[ebp]
$L103688:
  00074	8b 38		 mov	 edi, DWORD PTR [eax]

; 640  :       _Traits::copy(__s, __first, __chunk);

  00076	85 ff		 test	 edi, edi
  00078	74 0f		 je	 SHORT $L103696
  0007a	57		 push	 edi
  0007b	ff 75 dc	 push	 DWORD PTR ___first$100966[ebp]
  0007e	ff 75 14	 push	 DWORD PTR ___s$[ebp]
  00081	e8 00 00 00 00	 call	 _memcpy
  00086	83 c4 0c	 add	 esp, 12			; 0000000cH
$L103696:

; 641  :       __s += __chunk;
; 642  :       __n += __chunk;
; 643  :       __buf->_M_gbump((int)__chunk);

  00089	8b 4d 0c	 mov	 ecx, DWORD PTR ___buf$[ebp]
  0008c	8b 41 04	 mov	 eax, DWORD PTR [ecx+4]
  0008f	01 7d 14	 add	 DWORD PTR ___s$[ebp], edi
  00092	01 7d e8	 add	 DWORD PTR ___n$[ebp], edi
  00095	01 38		 add	 DWORD PTR [eax], edi
  00097	29 78 04	 sub	 DWORD PTR [eax+4], edi

; 644  : 
; 645  :       // We terminated by finding delim.
; 646  :       if (__p != __last && __p - __first <= __request) {

  0009a	39 75 d4	 cmp	 DWORD PTR ___p$100969[ebp], esi
  0009d	74 18		 je	 SHORT $L100974
  0009f	39 5d d0	 cmp	 DWORD PTR tv312[ebp], ebx
  000a2	7f 13		 jg	 SHORT $L100974

; 647  :         if (__extract_delim) {

  000a4	80 7d 20 00	 cmp	 BYTE PTR ___extract_delim$[ebp], 0
  000a8	74 32		 je	 SHORT $L100981

; 648  :           __n += 1;
; 649  :           __buf->_M_gbump(1);

  000aa	8b 41 04	 mov	 eax, DWORD PTR [ecx+4]
  000ad	ff 45 e8	 inc	 DWORD PTR ___n$[ebp]
  000b0	ff 00		 inc	 DWORD PTR [eax]
  000b2	ff 48 04	 dec	 DWORD PTR [eax+4]

; 650  :         }
; 651  :         __done = true;
; 652  :       }
; 653  : 
; 654  :       // We terminated by reading all the characters we were asked for.
; 655  :       else if(__n == _Num) {

  000b5	eb 25		 jmp	 SHORT $L100981
$L100974:
  000b7	8b 45 e8	 mov	 eax, DWORD PTR ___n$[ebp]
  000ba	3b 45 10	 cmp	 eax, DWORD PTR __Num$[ebp]
  000bd	75 26		 jne	 SHORT $L100977

; 656  : 
; 657  :         // Find out if we have reached eof.  This matters for getline.
; 658  :         if (__is_getline) {

  000bf	80 7d 28 00	 cmp	 BYTE PTR ___is_getline$[ebp], 0
  000c3	74 17		 je	 SHORT $L100981

; 659  :           if (__chunk == __last - __first) {

  000c5	2b 75 dc	 sub	 esi, DWORD PTR ___first$100966[ebp]
  000c8	3b fe		 cmp	 edi, esi
  000ca	75 0c		 jne	 SHORT $L100979

; 660  :             if (__that->_S_eof(__buf->sgetc()))

  000cc	e8 00 00 00 00	 call	 ?sgetc@?$basic_streambuf@DV?$char_traits@D@_STL@@@_STL@@QAEHXZ ; _STL::basic_streambuf<char,_STL::char_traits<char> >::sgetc
  000d1	83 f8 ff	 cmp	 eax, -1
  000d4	75 06		 jne	 SHORT $L100981

; 661  :               __status |= ios_base::eofbit;            
; 662  :           }
; 663  :           else

  000d6	eb 1b		 jmp	 SHORT $L103761
$L100979:

; 664  :             __status |= ios_base::failbit;

  000d8	83 4d e4 04	 or	 DWORD PTR ___status$[ebp], 4
$L100981:

; 665  :         }
; 666  :         __done   = true;

  000dc	c6 45 ef 01	 mov	 BYTE PTR ___done$[ebp], 1

; 667  :       }
; 668  : 
; 669  :       // The buffer contained fewer than _Num - __n characters.  Either we're
; 670  :       // at eof, or we should refill the buffer and try again.
; 671  :       else {

  000e0	e9 3c ff ff ff	 jmp	 $L100964
$L100977:

; 672  : 	if (__that->_S_eof(__buf->sgetc())) {

  000e5	e8 00 00 00 00	 call	 ?sgetc@?$basic_streambuf@DV?$char_traits@D@_STL@@@_STL@@QAEHXZ ; _STL::basic_streambuf<char,_STL::char_traits<char> >::sgetc
  000ea	83 f8 ff	 cmp	 eax, -1
  000ed	0f 85 2e ff ff
	ff		 jne	 $L100964
$L103761:

; 673  :           __status |= ios_base::eofbit;

  000f3	83 4d e4 02	 or	 DWORD PTR ___status$[ebp], 2

; 674  :           __done = true;
; 675  :         }
; 676  :       }
; 677  :     } // Close the while loop.

  000f7	eb e3		 jmp	 SHORT $L100981
$L103642:

; 678  :   }
; 679  :   _STLP_CATCH_ALL {
; 680  :     __that->_M_handle_exception(ios_base::badbit);

  000f9	8b 45 08	 mov	 eax, DWORD PTR ___that$[ebp]
  000fc	8b 08		 mov	 ecx, DWORD PTR [eax]
  000fe	8b 49 04	 mov	 ecx, DWORD PTR [ecx+4]
  00101	6a 01		 push	 1
  00103	03 c8		 add	 ecx, eax
  00105	e8 00 00 00 00	 call	 ?_M_handle_exception@?$basic_ios@DV?$char_traits@D@_STL@@@_STL@@QAEXH@Z ; _STL::basic_ios<char,_STL::char_traits<char> >::_M_handle_exception

; 681  :     __done = true;

  0010a	c6 45 ef 01	 mov	 BYTE PTR ___done$[ebp], 1

; 682  :   }

  0010e	b8 00 00 00 00	 mov	 eax, $L103758
  00113	c3		 ret	 0
$L103758:
  00114	8b 45 0c	 mov	 eax, DWORD PTR ___buf$[ebp]
$L100965:
  00117	83 4d fc ff	 or	 DWORD PTR __$EHRec$[ebp+12], -1

; 683  : 
; 684  :   if (__done) {

  0011b	80 7d ef 00	 cmp	 BYTE PTR ___done$[ebp], 0
  0011f	74 2d		 je	 SHORT $L100984

; 685  :     if (__append_null)

  00121	80 7d 24 00	 cmp	 BYTE PTR ___append_null$[ebp], 0
  00125	74 06		 je	 SHORT $L100985

; 686  :         *__s =  _STLP_DEFAULT_CONSTRUCTED(_CharT);

  00127	8b 45 14	 mov	 eax, DWORD PTR ___s$[ebp]
  0012a	c6 00 00	 mov	 BYTE PTR [eax], 0
$L100985:

; 687  :     if (__status != 0)

  0012d	83 7d e4 00	 cmp	 DWORD PTR ___status$[ebp], 0
  00131	74 16		 je	 SHORT $L103750

; 688  :       __that->setstate(__status);   // This might throw.

  00133	8b 45 08	 mov	 eax, DWORD PTR ___that$[ebp]
  00136	8b 08		 mov	 ecx, DWORD PTR [eax]
  00138	8b 49 04	 mov	 ecx, DWORD PTR [ecx+4]
  0013b	03 c8		 add	 ecx, eax
  0013d	8b 41 08	 mov	 eax, DWORD PTR [ecx+8]
  00140	0b 45 e4	 or	 eax, DWORD PTR ___status$[ebp]
  00143	50		 push	 eax
  00144	e8 00 00 00 00	 call	 ?clear@?$basic_ios@DV?$char_traits@D@_STL@@@_STL@@QAEXH@Z ; _STL::basic_ios<char,_STL::char_traits<char> >::clear
$L103750:

; 689  :     return __n;

  00149	8b 45 e8	 mov	 eax, DWORD PTR ___n$[ebp]
  0014c	eb 25		 jmp	 SHORT $L100958
$L100984:

; 690  :   }
; 691  : 
; 692  :   // If execution has reached this point, then we have an empty buffer but
; 693  :   // we have not reached eof.  What that means is that the streambuf has
; 694  :   // decided to switch from buffered to unbuffered input.  We switch to
; 695  :   // to _M_read_unbuffered.
; 696  : 
; 697  :   return __n + _M_read_unbuffered(__that,  __buf, _Num - __n, __s, __is_delim,
; 698  :                                   __extract_delim,__append_null,__is_getline);

  0014e	ff 75 28	 push	 DWORD PTR ___is_getline$[ebp]
  00151	8b 4d 10	 mov	 ecx, DWORD PTR __Num$[ebp]
  00154	ff 75 24	 push	 DWORD PTR ___append_null$[ebp]
  00157	2b 4d e8	 sub	 ecx, DWORD PTR ___n$[ebp]
  0015a	ff 75 20	 push	 DWORD PTR ___extract_delim$[ebp]
  0015d	ff 75 18	 push	 DWORD PTR ___is_delim$[ebp]
  00160	ff 75 14	 push	 DWORD PTR ___s$[ebp]
  00163	51		 push	 ecx
  00164	50		 push	 eax
  00165	ff 75 08	 push	 DWORD PTR ___that$[ebp]
  00168	e8 00 00 00 00	 call	 ??$_M_read_unbuffered@DV?$char_traits@D@_STL@@U?$_Eq_char_bound@V?$char_traits@D@_STL@@@2@@_STL@@YAHPAV?$basic_istream@DV?$char_traits@D@_STL@@@0@PAV?$basic_streambuf@DV?$char_traits@D@_STL@@@0@HPADU?$_Eq_char_bound@V?$char_traits@D@_STL@@@0@_N44@Z ; _STL::_M_read_unbuffered<char,_STL::char_traits<char>,_STL::_Eq_char_bound<_STL::char_traits<char> > >
  0016d	83 c4 20	 add	 esp, 32			; 00000020H
  00170	03 45 e8	 add	 eax, DWORD PTR ___n$[ebp]
$L100958:

; 699  : }

  00173	8b 4d f4	 mov	 ecx, DWORD PTR __$EHRec$[ebp+4]
  00176	5f		 pop	 edi
  00177	5e		 pop	 esi
  00178	64 89 0d 00 00
	00 00		 mov	 DWORD PTR fs:__except_list, ecx
  0017f	5b		 pop	 ebx
  00180	c9		 leave
  00181	c3		 ret	 0
_TEXT	ENDS
;	COMDAT text$x
text$x	SEGMENT
__ehhandler$??$_M_read_buffered@DV?$char_traits@D@_STL@@U?$_Eq_char_bound@V?$char_traits@D@_STL@@@2@U?$_Scan_for_char_val@V?$char_traits@D@_STL@@@2@@_STL@@YAHPAV?$basic_istream@DV?$char_traits@D@_STL@@@0@PAV?$basic_streambuf@DV?$char_traits@D@_STL@@@0@HPADU?$_Eq_char_bound@V?$char_traits@D@_STL@@@0@U?$_Scan_for_char_val@V?$char_traits@D@_STL@@@0@_N55@Z:
  00000	b8 00 00 00 00	 mov	 eax, OFFSET FLAT:$T103756
  00005	e9 00 00 00 00	 jmp	 ___CxxFrameHandler
text$x	ENDS
??$_M_read_buffered@DV?$char_traits@D@_STL@@U?$_Eq_char_bound@V?$char_traits@D@_STL@@@2@U?$_Scan_for_char_val@V?$char_traits@D@_STL@@@2@@_STL@@YAHPAV?$basic_istream@DV?$char_traits@D@_STL@@@0@PAV?$basic_streambuf@DV?$char_traits@D@_STL@@@0@HPADU?$_Eq_char_bound@V?$char_traits@D@_STL@@@0@U?$_Scan_for_char_val@V?$char_traits@D@_STL@@@0@_N55@Z ENDP ; _STL::_M_read_buffered<char,_STL::char_traits<char>,_STL::_Eq_char_bound<_STL::char_traits<char> >,_STL::_Scan_for_char_val<_STL::char_traits<char> > >
PUBLIC	??$_M_init_noskip@DV?$char_traits@D@_STL@@@_STL@@YA_NAAV?$basic_istream@DV?$char_traits@D@_STL@@@0@@Z ; _STL::_M_init_noskip<char,_STL::char_traits<char> >
; Function compile flags: /Ogsy
;	COMDAT ??$_M_init_noskip@DV?$char_traits@D@_STL@@@_STL@@YA_NAAV?$basic_istream@DV?$char_traits@D@_STL@@@0@@Z
_TEXT	SEGMENT
___is$ = 8						; size = 4
??$_M_init_noskip@DV?$char_traits@D@_STL@@@_STL@@YA_NAAV?$basic_istream@DV?$char_traits@D@_STL@@@0@@Z PROC NEAR ; _STL::_M_init_noskip<char,_STL::char_traits<char> >, COMDAT

; 214  : _M_init_noskip(basic_istream<_CharT, _Traits>& __is){

  00000	56		 push	 esi

; 215  :   if (__is.good()) {

  00001	8b 74 24 08	 mov	 esi, DWORD PTR ___is$[esp]
  00005	8b 06		 mov	 eax, DWORD PTR [esi]
  00007	8b 40 04	 mov	 eax, DWORD PTR [eax+4]
  0000a	8d 0c 30	 lea	 ecx, DWORD PTR [eax+esi]
  0000d	83 79 08 00	 cmp	 DWORD PTR [ecx+8], 0
  00011	75 22		 jne	 SHORT $L101024

; 216  :     if (__is.tie())

  00013	8b 49 5c	 mov	 ecx, DWORD PTR [ecx+92]
  00016	85 c9		 test	 ecx, ecx
  00018	74 05		 je	 SHORT $L101025

; 217  :       __is.tie()->flush();

  0001a	e8 00 00 00 00	 call	 ?flush@?$basic_ostream@DV?$char_traits@D@_STL@@@_STL@@QAEAAV12@XZ ; _STL::basic_ostream<char,_STL::char_traits<char> >::flush
$L101025:

; 218  :     
; 219  :     if (!__is.rdbuf())

  0001f	8b 06		 mov	 eax, DWORD PTR [esi]
  00021	8b 40 04	 mov	 eax, DWORD PTR [eax+4]
  00024	8d 0c 30	 lea	 ecx, DWORD PTR [eax+esi]
  00027	83 79 58 00	 cmp	 DWORD PTR [ecx+88], 0
  0002b	75 14		 jne	 SHORT $L103799

; 220  :       __is.setstate(ios_base::badbit);

  0002d	8b 41 08	 mov	 eax, DWORD PTR [ecx+8]
  00030	83 c8 01	 or	 eax, 1

; 221  :   }
; 222  :   else

  00033	eb 06		 jmp	 SHORT $L103807
$L101024:

; 223  :     __is.setstate(ios_base::failbit);

  00035	8b 41 08	 mov	 eax, DWORD PTR [ecx+8]
  00038	83 c8 04	 or	 eax, 4
$L103807:
  0003b	50		 push	 eax
  0003c	e8 00 00 00 00	 call	 ?clear@?$basic_ios@DV?$char_traits@D@_STL@@@_STL@@QAEXH@Z ; _STL::basic_ios<char,_STL::char_traits<char> >::clear
$L103799:

; 224  :   return __is.good();

  00041	8b 06		 mov	 eax, DWORD PTR [esi]
  00043	8b 40 04	 mov	 eax, DWORD PTR [eax+4]
  00046	33 c9		 xor	 ecx, ecx
  00048	39 4c 30 08	 cmp	 DWORD PTR [eax+esi+8], ecx
  0004c	5e		 pop	 esi
  0004d	0f 94 c1	 sete	 cl
  00050	8a c1		 mov	 al, cl

; 225  : }

  00052	c3		 ret	 0
??$_M_init_noskip@DV?$char_traits@D@_STL@@@_STL@@YA_NAAV?$basic_istream@DV?$char_traits@D@_STL@@@0@@Z ENDP ; _STL::_M_init_noskip<char,_STL::char_traits<char> >
_TEXT	ENDS
PUBLIC	??$uninitialized_copy@PADPAD@_STL@@YAPADPAD00@Z	; _STL::uninitialized_copy<char *,char *>
; Function compile flags: /Ogsy
; File c:\stlport-4.6.1\stlport\stl\_uninitialized.h
;	COMDAT ??$uninitialized_copy@PADPAD@_STL@@YAPADPAD00@Z
_TEXT	SEGMENT
___first$ = 8						; size = 4
___last$ = 12						; size = 4
___result$ = 16						; size = 4
??$uninitialized_copy@PADPAD@_STL@@YAPADPAD00@Z PROC NEAR ; _STL::uninitialized_copy<char *,char *>, COMDAT

; 79   :   return __uninitialized_copy(__first, __last, __result,  _IS_POD_ITER(__result, _ForwardIter));

  00000	e9 00 00 00 00	 jmp	 ?__copy_trivial@_STL@@YAPAXPBX0PAX@Z ; _STL::__copy_trivial
??$uninitialized_copy@PADPAD@_STL@@YAPADPAD00@Z ENDP	; _STL::uninitialized_copy<char *,char *>
_TEXT	ENDS
PUBLIC	??$append@PBD@?$basic_string@DV?$char_traits@D@_STL@@V?$allocator@D@2@@_STL@@AAEAAV01@PBD0ABUforward_iterator_tag@1@@Z ; _STL::basic_string<char,_STL::char_traits<char>,_STL::allocator<char> >::append<char const *>
; Function compile flags: /Ogsy
; File c:\stlport-4.6.1\stlport\stl\_string.h
;	COMDAT ??$append@PBD@?$basic_string@DV?$char_traits@D@_STL@@V?$allocator@D@2@@_STL@@AAEAAV01@PBD0ABUforward_iterator_tag@1@@Z
_TEXT	SEGMENT
___len$101132 = -8					; size = 4
___old_size$101125 = -8					; size = 4
$T103869 = -4						; size = 4
___first$ = 8						; size = 4
___last$ = 12						; size = 4
___formal$ = 16						; size = 4
??$append@PBD@?$basic_string@DV?$char_traits@D@_STL@@V?$allocator@D@2@@_STL@@AAEAAV01@PBD0ABUforward_iterator_tag@1@@Z PROC NEAR ; _STL::basic_string<char,_STL::char_traits<char>,_STL::allocator<char> >::append<char const *>, COMDAT
; _this$ = ecx

; 542  :   template <class _ForwardIter> _Self& append(_ForwardIter __first, _ForwardIter __last, 

  00000	55		 push	 ebp
  00001	8b ec		 mov	 ebp, esp
  00003	51		 push	 ecx
  00004	51		 push	 ecx
  00005	56		 push	 esi
  00006	57		 push	 edi

; 543  :                        const forward_iterator_tag &)  {
; 544  :     if (__first != __last) {

  00007	8b 7d 0c	 mov	 edi, DWORD PTR ___last$[ebp]
  0000a	39 7d 08	 cmp	 DWORD PTR ___first$[ebp], edi
  0000d	8b f1		 mov	 esi, ecx
  0000f	0f 84 b6 00 00
	00		 je	 $L101143

; 545  : 	    const size_type __old_size = size();
; 546  : 	    difference_type __n = distance(__first, __last);

  00015	2b 7d 08	 sub	 edi, DWORD PTR ___first$[ebp]
  00018	53		 push	 ebx
  00019	8b 5e 04	 mov	 ebx, DWORD PTR [esi+4]
  0001c	2b 1e		 sub	 ebx, DWORD PTR [esi]

; 547  : 	    if (__STATIC_CAST(size_type,__n) > max_size() || __old_size > max_size() - __STATIC_CAST(size_type,__n))

  0001e	83 ff fe	 cmp	 edi, -2			; fffffffeH
  00021	89 5d f8	 mov	 DWORD PTR ___old_size$101125[ebp], ebx
  00024	77 09		 ja	 SHORT $L101130
  00026	6a fe		 push	 -2			; fffffffeH
  00028	58		 pop	 eax
  00029	2b c7		 sub	 eax, edi
  0002b	3b d8		 cmp	 ebx, eax
  0002d	76 07		 jbe	 SHORT $L101129
$L101130:

; 548  : 	      this->_M_throw_length_error();

  0002f	8b ce		 mov	 ecx, esi
  00031	e8 00 00 00 00	 call	 ?_M_throw_length_error@?$_String_base@DV?$allocator@D@_STL@@@_STL@@QBEXXZ ; _STL::_String_base<char,_STL::allocator<char> >::_M_throw_length_error
$L101129:

; 549  : 	    if (__old_size + __n > capacity()) {

  00036	8b 46 08	 mov	 eax, DWORD PTR [esi+8]
  00039	2b 06		 sub	 eax, DWORD PTR [esi]
  0003b	8d 0c 1f	 lea	 ecx, DWORD PTR [edi+ebx]
  0003e	48		 dec	 eax
  0003f	3b c8		 cmp	 ecx, eax
  00041	76 5e		 jbe	 SHORT $L101131

; 550  : 	      const size_type __len = __old_size +
; 551  : 	                            (max)(__old_size, __STATIC_CAST(size_type,__n)) + 1;

  00043	3b df		 cmp	 ebx, edi
  00045	89 7d fc	 mov	 DWORD PTR $T103869[ebp], edi
  00048	8d 45 fc	 lea	 eax, DWORD PTR $T103869[ebp]
  0004b	72 03		 jb	 SHORT $L103913
  0004d	8d 45 f8	 lea	 eax, DWORD PTR ___old_size$101125[ebp]
$L103913:
  00050	8b 00		 mov	 eax, DWORD PTR [eax]
  00052	8d 5c 18 01	 lea	 ebx, DWORD PTR [eax+ebx+1]

; 552  : 	      pointer __new_start = this->_M_end_of_storage.allocate(__len);

  00056	85 db		 test	 ebx, ebx
  00058	89 5d f8	 mov	 DWORD PTR ___len$101132[ebp], ebx
  0005b	74 0b		 je	 SHORT $L103920
  0005d	53		 push	 ebx
  0005e	e8 00 00 00 00	 call	 ?allocate@?$__node_alloc@$00$0A@@_STL@@SAPAXI@Z ; _STL::__node_alloc<1,0>::allocate
  00063	59		 pop	 ecx
  00064	8b f8		 mov	 edi, eax
  00066	eb 02		 jmp	 SHORT $L103921
$L103920:
  00068	33 ff		 xor	 edi, edi
$L103921:

; 553  : 	      pointer __new_finish = __new_start;
; 554  : 	      _STLP_TRY {
; 555  : 	        __new_finish = uninitialized_copy(this->_M_start, this->_M_finish, __new_start);

  0006a	8b 46 04	 mov	 eax, DWORD PTR [esi+4]
  0006d	8b 0e		 mov	 ecx, DWORD PTR [esi]
  0006f	57		 push	 edi
  00070	50		 push	 eax
  00071	51		 push	 ecx
  00072	e8 00 00 00 00	 call	 ?__copy_trivial@_STL@@YAPAXPBX0PAX@Z ; _STL::__copy_trivial

; 556  : 	        __new_finish = uninitialized_copy(__first, __last, __new_finish);

  00077	50		 push	 eax
  00078	ff 75 0c	 push	 DWORD PTR ___last$[ebp]
  0007b	ff 75 08	 push	 DWORD PTR ___first$[ebp]
  0007e	e8 00 00 00 00	 call	 ?__copy_trivial@_STL@@YAPAXPBX0PAX@Z ; _STL::__copy_trivial
  00083	8b d8		 mov	 ebx, eax
  00085	83 c4 18	 add	 esp, 24			; 00000018H

; 557  : 	        _M_construct_null(__new_finish);
; 558  : 	      }
; 559  : 	      _STLP_UNWIND((_STLP_STD::_Destroy(__new_start,__new_finish),
; 560  : 	                    this->_M_end_of_storage.deallocate(__new_start,__len)));
; 561  : 	      _STLP_STD::_Destroy(this->_M_start, this->_M_finish + 1);
; 562  : 	      this->_M_deallocate_block();

  00088	8b ce		 mov	 ecx, esi
  0008a	c6 03 00	 mov	 BYTE PTR [ebx], 0
  0008d	e8 00 00 00 00	 call	 ?_M_deallocate_block@?$_String_base@DV?$allocator@D@_STL@@@_STL@@QAEXXZ ; _STL::_String_base<char,_STL::allocator<char> >::_M_deallocate_block

; 563  : 	      this->_M_start = __new_start;
; 564  : 	      this->_M_finish = __new_finish;
; 565  : 	      this->_M_end_of_storage._M_data = __new_start + __len; 

  00092	8b 45 f8	 mov	 eax, DWORD PTR ___len$101132[ebp]
  00095	89 3e		 mov	 DWORD PTR [esi], edi
  00097	03 f8		 add	 edi, eax
  00099	89 5e 04	 mov	 DWORD PTR [esi+4], ebx
  0009c	89 7e 08	 mov	 DWORD PTR [esi+8], edi

; 566  : 	    }
; 567  : 	    else {

  0009f	eb 29		 jmp	 SHORT $L104050
$L101131:

; 568  : 	      _ForwardIter __f1 = __first;
; 569  : 	      ++__f1;
; 570  : 	      uninitialized_copy(__f1, __last, this->_M_finish + 1);

  000a1	8b 46 04	 mov	 eax, DWORD PTR [esi+4]
  000a4	40		 inc	 eax
  000a5	50		 push	 eax
  000a6	8b 45 08	 mov	 eax, DWORD PTR ___first$[ebp]
  000a9	ff 75 0c	 push	 DWORD PTR ___last$[ebp]
  000ac	40		 inc	 eax
  000ad	50		 push	 eax
  000ae	e8 00 00 00 00	 call	 ?__copy_trivial@_STL@@YAPAXPBX0PAX@Z ; _STL::__copy_trivial

; 571  : 	      _STLP_TRY {
; 572  : 	        _M_construct_null(this->_M_finish + __n);

  000b3	8b 46 04	 mov	 eax, DWORD PTR [esi+4]

; 573  : 	      }
; 574  : 	      _STLP_UNWIND(_STLP_STD::_Destroy(this->_M_finish + 1, this->_M_finish + __n));
; 575  : 	      _Traits::assign(*end(), *__first);

  000b6	8b 4d 08	 mov	 ecx, DWORD PTR ___first$[ebp]
  000b9	c6 04 07 00	 mov	 BYTE PTR [edi+eax], 0
  000bd	8b 46 04	 mov	 eax, DWORD PTR [esi+4]
  000c0	8a 09		 mov	 cl, BYTE PTR [ecx]
  000c2	83 c4 0c	 add	 esp, 12			; 0000000cH
  000c5	88 08		 mov	 BYTE PTR [eax], cl

; 576  : 	      this->_M_finish += __n;

  000c7	01 7e 04	 add	 DWORD PTR [esi+4], edi
$L104050:
  000ca	5b		 pop	 ebx
$L101143:
  000cb	5f		 pop	 edi

; 577  : 	    }
; 578  : 	  }
; 579  : 	  return *this;  

  000cc	8b c6		 mov	 eax, esi
  000ce	5e		 pop	 esi

; 580  : 	}

  000cf	c9		 leave
  000d0	c2 0c 00	 ret	 12			; 0000000cH
??$append@PBD@?$basic_string@DV?$char_traits@D@_STL@@V?$allocator@D@2@@_STL@@AAEAAV01@PBD0ABUforward_iterator_tag@1@@Z ENDP ; _STL::basic_string<char,_STL::char_traits<char>,_STL::allocator<char> >::append<char const *>
_TEXT	ENDS
PUBLIC	??$append@PAD@?$basic_string@DV?$char_traits@D@_STL@@V?$allocator@D@2@@_STL@@AAEAAV01@PAD0ABUforward_iterator_tag@1@@Z ; _STL::basic_string<char,_STL::char_traits<char>,_STL::allocator<char> >::append<char *>
; Function compile flags: /Ogsy
;	COMDAT ??$append@PAD@?$basic_string@DV?$char_traits@D@_STL@@V?$allocator@D@2@@_STL@@AAEAAV01@PAD0ABUforward_iterator_tag@1@@Z
_TEXT	SEGMENT
___len$101221 = -8					; size = 4
___old_size$101214 = -8					; size = 4
$T104053 = -4						; size = 4
___first$ = 8						; size = 4
___last$ = 12						; size = 4
___formal$ = 16						; size = 4
??$append@PAD@?$basic_string@DV?$char_traits@D@_STL@@V?$allocator@D@2@@_STL@@AAEAAV01@PAD0ABUforward_iterator_tag@1@@Z PROC NEAR ; _STL::basic_string<char,_STL::char_traits<char>,_STL::allocator<char> >::append<char *>, COMDAT
; _this$ = ecx

; 542  :   template <class _ForwardIter> _Self& append(_ForwardIter __first, _ForwardIter __last, 

  00000	55		 push	 ebp
  00001	8b ec		 mov	 ebp, esp
  00003	51		 push	 ecx
  00004	51		 push	 ecx
  00005	56		 push	 esi
  00006	57		 push	 edi

; 543  :                        const forward_iterator_tag &)  {
; 544  :     if (__first != __last) {

  00007	8b 7d 0c	 mov	 edi, DWORD PTR ___last$[ebp]
  0000a	39 7d 08	 cmp	 DWORD PTR ___first$[ebp], edi
  0000d	8b f1		 mov	 esi, ecx
  0000f	0f 84 b6 00 00
	00		 je	 $L101227

; 545  : 	    const size_type __old_size = size();
; 546  : 	    difference_type __n = distance(__first, __last);

  00015	2b 7d 08	 sub	 edi, DWORD PTR ___first$[ebp]
  00018	53		 push	 ebx
  00019	8b 5e 04	 mov	 ebx, DWORD PTR [esi+4]
  0001c	2b 1e		 sub	 ebx, DWORD PTR [esi]

; 547  : 	    if (__STATIC_CAST(size_type,__n) > max_size() || __old_size > max_size() - __STATIC_CAST(size_type,__n))

  0001e	83 ff fe	 cmp	 edi, -2			; fffffffeH
  00021	89 5d f8	 mov	 DWORD PTR ___old_size$101214[ebp], ebx
  00024	77 09		 ja	 SHORT $L101219
  00026	6a fe		 push	 -2			; fffffffeH
  00028	58		 pop	 eax
  00029	2b c7		 sub	 eax, edi
  0002b	3b d8		 cmp	 ebx, eax
  0002d	76 07		 jbe	 SHORT $L101218
$L101219:

; 548  : 	      this->_M_throw_length_error();

  0002f	8b ce		 mov	 ecx, esi
  00031	e8 00 00 00 00	 call	 ?_M_throw_length_error@?$_String_base@DV?$allocator@D@_STL@@@_STL@@QBEXXZ ; _STL::_String_base<char,_STL::allocator<char> >::_M_throw_length_error
$L101218:

; 549  : 	    if (__old_size + __n > capacity()) {

  00036	8b 46 08	 mov	 eax, DWORD PTR [esi+8]
  00039	2b 06		 sub	 eax, DWORD PTR [esi]
  0003b	8d 0c 1f	 lea	 ecx, DWORD PTR [edi+ebx]
  0003e	48		 dec	 eax
  0003f	3b c8		 cmp	 ecx, eax
  00041	76 5e		 jbe	 SHORT $L101220

; 550  : 	      const size_type __len = __old_size +
; 551  : 	                            (max)(__old_size, __STATIC_CAST(size_type,__n)) + 1;

  00043	3b df		 cmp	 ebx, edi
  00045	89 7d fc	 mov	 DWORD PTR $T104053[ebp], edi
  00048	8d 45 fc	 lea	 eax, DWORD PTR $T104053[ebp]
  0004b	72 03		 jb	 SHORT $L104097
  0004d	8d 45 f8	 lea	 eax, DWORD PTR ___old_size$101214[ebp]
$L104097:
  00050	8b 00		 mov	 eax, DWORD PTR [eax]
  00052	8d 5c 18 01	 lea	 ebx, DWORD PTR [eax+ebx+1]

; 552  : 	      pointer __new_start = this->_M_end_of_storage.allocate(__len);

  00056	85 db		 test	 ebx, ebx
  00058	89 5d f8	 mov	 DWORD PTR ___len$101221[ebp], ebx
  0005b	74 0b		 je	 SHORT $L104104
  0005d	53		 push	 ebx
  0005e	e8 00 00 00 00	 call	 ?allocate@?$__node_alloc@$00$0A@@_STL@@SAPAXI@Z ; _STL::__node_alloc<1,0>::allocate
  00063	59		 pop	 ecx
  00064	8b f8		 mov	 edi, eax
  00066	eb 02		 jmp	 SHORT $L104105
$L104104:
  00068	33 ff		 xor	 edi, edi
$L104105:

; 553  : 	      pointer __new_finish = __new_start;
; 554  : 	      _STLP_TRY {
; 555  : 	        __new_finish = uninitialized_copy(this->_M_start, this->_M_finish, __new_start);

  0006a	8b 46 04	 mov	 eax, DWORD PTR [esi+4]
  0006d	8b 0e		 mov	 ecx, DWORD PTR [esi]
  0006f	57		 push	 edi
  00070	50		 push	 eax
  00071	51		 push	 ecx
  00072	e8 00 00 00 00	 call	 ?__copy_trivial@_STL@@YAPAXPBX0PAX@Z ; _STL::__copy_trivial

; 556  : 	        __new_finish = uninitialized_copy(__first, __last, __new_finish);

  00077	50		 push	 eax
  00078	ff 75 0c	 push	 DWORD PTR ___last$[ebp]
  0007b	ff 75 08	 push	 DWORD PTR ___first$[ebp]
  0007e	e8 00 00 00 00	 call	 ?__copy_trivial@_STL@@YAPAXPBX0PAX@Z ; _STL::__copy_trivial
  00083	8b d8		 mov	 ebx, eax
  00085	83 c4 18	 add	 esp, 24			; 00000018H

; 557  : 	        _M_construct_null(__new_finish);
; 558  : 	      }
; 559  : 	      _STLP_UNWIND((_STLP_STD::_Destroy(__new_start,__new_finish),
; 560  : 	                    this->_M_end_of_storage.deallocate(__new_start,__len)));
; 561  : 	      _STLP_STD::_Destroy(this->_M_start, this->_M_finish + 1);
; 562  : 	      this->_M_deallocate_block();

  00088	8b ce		 mov	 ecx, esi
  0008a	c6 03 00	 mov	 BYTE PTR [ebx], 0
  0008d	e8 00 00 00 00	 call	 ?_M_deallocate_block@?$_String_base@DV?$allocator@D@_STL@@@_STL@@QAEXXZ ; _STL::_String_base<char,_STL::allocator<char> >::_M_deallocate_block

; 563  : 	      this->_M_start = __new_start;
; 564  : 	      this->_M_finish = __new_finish;
; 565  : 	      this->_M_end_of_storage._M_data = __new_start + __len; 

  00092	8b 45 f8	 mov	 eax, DWORD PTR ___len$101221[ebp]
  00095	89 3e		 mov	 DWORD PTR [esi], edi
  00097	03 f8		 add	 edi, eax
  00099	89 5e 04	 mov	 DWORD PTR [esi+4], ebx
  0009c	89 7e 08	 mov	 DWORD PTR [esi+8], edi

; 566  : 	    }
; 567  : 	    else {

  0009f	eb 29		 jmp	 SHORT $L104380
$L101220:

; 568  : 	      _ForwardIter __f1 = __first;
; 569  : 	      ++__f1;
; 570  : 	      uninitialized_copy(__f1, __last, this->_M_finish + 1);

  000a1	8b 46 04	 mov	 eax, DWORD PTR [esi+4]
  000a4	40		 inc	 eax
  000a5	50		 push	 eax
  000a6	8b 45 08	 mov	 eax, DWORD PTR ___first$[ebp]
  000a9	ff 75 0c	 push	 DWORD PTR ___last$[ebp]
  000ac	40		 inc	 eax
  000ad	50		 push	 eax
  000ae	e8 00 00 00 00	 call	 ?__copy_trivial@_STL@@YAPAXPBX0PAX@Z ; _STL::__copy_trivial

; 571  : 	      _STLP_TRY {
; 572  : 	        _M_construct_null(this->_M_finish + __n);

  000b3	8b 46 04	 mov	 eax, DWORD PTR [esi+4]

; 573  : 	      }
; 574  : 	      _STLP_UNWIND(_STLP_STD::_Destroy(this->_M_finish + 1, this->_M_finish + __n));
; 575  : 	      _Traits::assign(*end(), *__first);

  000b6	8b 4d 08	 mov	 ecx, DWORD PTR ___first$[ebp]
  000b9	c6 04 07 00	 mov	 BYTE PTR [edi+eax], 0
  000bd	8b 46 04	 mov	 eax, DWORD PTR [esi+4]
  000c0	8a 09		 mov	 cl, BYTE PTR [ecx]
  000c2	83 c4 0c	 add	 esp, 12			; 0000000cH
  000c5	88 08		 mov	 BYTE PTR [eax], cl

; 576  : 	      this->_M_finish += __n;

  000c7	01 7e 04	 add	 DWORD PTR [esi+4], edi
$L104380:
  000ca	5b		 pop	 ebx
$L101227:
  000cb	5f		 pop	 edi

; 577  : 	    }
; 578  : 	  }
; 579  : 	  return *this;  

  000cc	8b c6		 mov	 eax, esi
  000ce	5e		 pop	 esi

; 580  : 	}

  000cf	c9		 leave
  000d0	c2 0c 00	 ret	 12			; 0000000cH
??$append@PAD@?$basic_string@DV?$char_traits@D@_STL@@V?$allocator@D@2@@_STL@@AAEAAV01@PAD0ABUforward_iterator_tag@1@@Z ENDP ; _STL::basic_string<char,_STL::char_traits<char>,_STL::allocator<char> >::append<char *>
_TEXT	ENDS
PUBLIC	??1?$_String_base@DV?$allocator@D@_STL@@@_STL@@QAE@XZ ; _STL::_String_base<char,_STL::allocator<char> >::~_String_base<char,_STL::allocator<char> >
; Function compile flags: /Ogsy
;	COMDAT ??1?$_String_base@DV?$allocator@D@_STL@@@_STL@@QAE@XZ
_TEXT	SEGMENT
??1?$_String_base@DV?$allocator@D@_STL@@@_STL@@QAE@XZ PROC NEAR ; _STL::_String_base<char,_STL::allocator<char> >::~_String_base<char,_STL::allocator<char> >, COMDAT
; _this$ = ecx

; 135  :   ~_String_base() { _M_deallocate_block(); }

  00000	e9 00 00 00 00	 jmp	 ?_M_deallocate_block@?$_String_base@DV?$allocator@D@_STL@@@_STL@@QAEXXZ ; _STL::_String_base<char,_STL::allocator<char> >::_M_deallocate_block
??1?$_String_base@DV?$allocator@D@_STL@@@_STL@@QAE@XZ ENDP ; _STL::_String_base<char,_STL::allocator<char> >::~_String_base<char,_STL::allocator<char> >
_TEXT	ENDS
PUBLIC	??0?$basic_string@DV?$char_traits@D@_STL@@V?$allocator@D@2@@_STL@@QAE@PBDABV?$allocator@D@1@@Z ; _STL::basic_string<char,_STL::char_traits<char>,_STL::allocator<char> >::basic_string<char,_STL::char_traits<char>,_STL::allocator<char> >
;	COMDAT xdata$x
xdata$x	SEGMENT
$T104399 DD	0ffffffffH
	DD	FLAT:$L104386
$T104397 DD	019930520H
	DD	01H
	DD	FLAT:$T104399
	DD	2 DUP(00H)
	DD	2 DUP(00H)
; Function compile flags: /Ogsy
; File c:\stlport-4.6.1\stlport\stl\_string.c
xdata$x	ENDS
;	COMDAT ??0?$basic_string@DV?$char_traits@D@_STL@@V?$allocator@D@2@@_STL@@QAE@PBDABV?$allocator@D@1@@Z
_TEXT	SEGMENT
_this$ = -16						; size = 4
__$EHRec$ = -12						; size = 12
___s$ = 8						; size = 4
$T104394 = 11						; size = 1
___a$ = 12						; size = 4
??0?$basic_string@DV?$char_traits@D@_STL@@V?$allocator@D@2@@_STL@@QAE@PBDABV?$allocator@D@1@@Z PROC NEAR ; _STL::basic_string<char,_STL::char_traits<char>,_STL::allocator<char> >::basic_string<char,_STL::char_traits<char>,_STL::allocator<char> >, COMDAT
; _this$ = ecx

; 552  : { 

  00000	b8 00 00 00 00	 mov	 eax, __ehhandler$??0?$basic_string@DV?$char_traits@D@_STL@@V?$allocator@D@2@@_STL@@QAE@PBDABV?$allocator@D@1@@Z
  00005	e8 00 00 00 00	 call	 __EH_prolog
  0000a	51		 push	 ecx
  0000b	56		 push	 esi
  0000c	ff 75 0c	 push	 DWORD PTR ___a$[ebp]
  0000f	8b f1		 mov	 esi, ecx
  00011	89 75 f0	 mov	 DWORD PTR _this$[ebp], esi
  00014	e8 00 00 00 00	 call	 ??0?$_String_base@DV?$allocator@D@_STL@@@_STL@@QAE@ABV?$allocator@D@1@@Z ; _STL::_String_base<char,_STL::allocator<char> >::_String_base<char,_STL::allocator<char> >

; 553  :   _STLP_FIX_LITERAL_BUG(__s) 
; 554  :     _M_range_initialize(__s, __s + traits_type::length(__s));  

  00019	ff 75 08	 push	 DWORD PTR ___s$[ebp]
  0001c	83 65 fc 00	 and	 DWORD PTR __$EHRec$[ebp+8], 0
  00020	e8 00 00 00 00	 call	 _strlen
  00025	03 45 08	 add	 eax, DWORD PTR ___s$[ebp]
  00028	59		 pop	 ecx
  00029	8d 4d 0b	 lea	 ecx, DWORD PTR $T104394[ebp]
  0002c	51		 push	 ecx
  0002d	50		 push	 eax
  0002e	ff 75 08	 push	 DWORD PTR ___s$[ebp]
  00031	8b ce		 mov	 ecx, esi
  00033	e8 00 00 00 00	 call	 ??$_M_range_initialize@PBD@?$basic_string@DV?$char_traits@D@_STL@@V?$allocator@D@2@@_STL@@AAEXPBD0ABUforward_iterator_tag@1@@Z ; _STL::basic_string<char,_STL::char_traits<char>,_STL::allocator<char> >::_M_range_initialize<char const *>

; 555  : } 

  00038	8b 4d f4	 mov	 ecx, DWORD PTR __$EHRec$[ebp]
  0003b	8b c6		 mov	 eax, esi
  0003d	5e		 pop	 esi
  0003e	64 89 0d 00 00
	00 00		 mov	 DWORD PTR fs:__except_list, ecx
  00045	c9		 leave
  00046	c2 08 00	 ret	 8
_TEXT	ENDS
;	COMDAT text$x
text$x	SEGMENT
$L104386:
  00000	8b 4d f0	 mov	 ecx, DWORD PTR _this$[ebp]
  00003	e9 00 00 00 00	 jmp	 ??1?$_String_base@DV?$allocator@D@_STL@@@_STL@@QAE@XZ ; _STL::_String_base<char,_STL::allocator<char> >::~_String_base<char,_STL::allocator<char> >
__ehhandler$??0?$basic_string@DV?$char_traits@D@_STL@@V?$allocator@D@2@@_STL@@QAE@PBDABV?$allocator@D@1@@Z:
  00008	b8 00 00 00 00	 mov	 eax, OFFSET FLAT:$T104397
  0000d	e9 00 00 00 00	 jmp	 ___CxxFrameHandler
text$x	ENDS
??0?$basic_string@DV?$char_traits@D@_STL@@V?$allocator@D@2@@_STL@@QAE@PBDABV?$allocator@D@1@@Z ENDP ; _STL::basic_string<char,_STL::char_traits<char>,_STL::allocator<char> >::basic_string<char,_STL::char_traits<char>,_STL::allocator<char> >
PUBLIC	??0?$basic_string@DV?$char_traits@D@_STL@@V?$allocator@D@2@@_STL@@QAE@XZ ; _STL::basic_string<char,_STL::char_traits<char>,_STL::allocator<char> >::basic_string<char,_STL::char_traits<char>,_STL::allocator<char> >
;	COMDAT xdata$x
; File c:\stlport-4.6.1\stlport\stl\_string.h
xdata$x	SEGMENT
$T104450 DD	0ffffffffH
	DD	FLAT:$L104405
$T104448 DD	019930520H
	DD	01H
	DD	FLAT:$T104450
	DD	2 DUP(00H)
	DD	2 DUP(00H)
; Function compile flags: /Ogsy
; File c:\stlport-4.6.1\stlport\stl\_string.c
xdata$x	ENDS
;	COMDAT ??0?$basic_string@DV?$char_traits@D@_STL@@V?$allocator@D@2@@_STL@@QAE@XZ
_TEXT	SEGMENT
_this$ = -20						; size = 4
$T104404 = -13						; size = 1
__$EHRec$ = -12						; size = 12
??0?$basic_string@DV?$char_traits@D@_STL@@V?$allocator@D@2@@_STL@@QAE@XZ PROC NEAR ; _STL::basic_string<char,_STL::char_traits<char>,_STL::allocator<char> >::basic_string<char,_STL::char_traits<char>,_STL::allocator<char> >, COMDAT
; _this$ = ecx

; 541  :   : _String_base<_CharT,_Alloc>(allocator_type()) {  

  00000	b8 00 00 00 00	 mov	 eax, __ehhandler$??0?$basic_string@DV?$char_traits@D@_STL@@V?$allocator@D@2@@_STL@@QAE@XZ
  00005	e8 00 00 00 00	 call	 __EH_prolog
  0000a	51		 push	 ecx
  0000b	51		 push	 ecx
  0000c	56		 push	 esi
  0000d	8d 45 f3	 lea	 eax, DWORD PTR $T104404[ebp]
  00010	8b f1		 mov	 esi, ecx
  00012	50		 push	 eax
  00013	89 75 ec	 mov	 DWORD PTR _this$[ebp], esi
  00016	e8 00 00 00 00	 call	 ??0?$_String_base@DV?$allocator@D@_STL@@@_STL@@QAE@ABV?$allocator@D@1@@Z ; _STL::_String_base<char,_STL::allocator<char> >::_String_base<char,_STL::allocator<char> >
  0001b	83 65 fc 00	 and	 DWORD PTR __$EHRec$[ebp+8], 0

; 542  :   this->_M_start = this->_M_end_of_storage.allocate(8); 

  0001f	6a 08		 push	 8
  00021	e8 00 00 00 00	 call	 ?_M_allocate@?$__node_alloc@$00$0A@@_STL@@CAPAXI@Z ; _STL::__node_alloc<1,0>::_M_allocate
  00026	59		 pop	 ecx

; 543  :   this->_M_finish = this->_M_start; 
; 544  :   this->_M_end_of_storage._M_data = this->_M_start + 8; 

  00027	8d 48 08	 lea	 ecx, DWORD PTR [eax+8]
  0002a	89 06		 mov	 DWORD PTR [esi], eax
  0002c	89 46 04	 mov	 DWORD PTR [esi+4], eax
  0002f	89 4e 08	 mov	 DWORD PTR [esi+8], ecx

; 545  :   _M_terminate_string();  
; 546  : } 

  00032	8b 4d f4	 mov	 ecx, DWORD PTR __$EHRec$[ebp]
  00035	c6 00 00	 mov	 BYTE PTR [eax], 0
  00038	8b c6		 mov	 eax, esi
  0003a	5e		 pop	 esi
  0003b	64 89 0d 00 00
	00 00		 mov	 DWORD PTR fs:__except_list, ecx
  00042	c9		 leave
  00043	c3		 ret	 0
_TEXT	ENDS
;	COMDAT text$x
text$x	SEGMENT
$L104405:
  00000	8b 4d ec	 mov	 ecx, DWORD PTR _this$[ebp]
  00003	e9 00 00 00 00	 jmp	 ??1?$_String_base@DV?$allocator@D@_STL@@@_STL@@QAE@XZ ; _STL::_String_base<char,_STL::allocator<char> >::~_String_base<char,_STL::allocator<char> >
__ehhandler$??0?$basic_string@DV?$char_traits@D@_STL@@V?$allocator@D@2@@_STL@@QAE@XZ:
  00008	b8 00 00 00 00	 mov	 eax, OFFSET FLAT:$T104448
  0000d	e9 00 00 00 00	 jmp	 ___CxxFrameHandler
text$x	ENDS
??0?$basic_string@DV?$char_traits@D@_STL@@V?$allocator@D@2@@_STL@@QAE@XZ ENDP ; _STL::basic_string<char,_STL::char_traits<char>,_STL::allocator<char> >::basic_string<char,_STL::char_traits<char>,_STL::allocator<char> >
PUBLIC	??_D?$basic_ifstream@DV?$char_traits@D@_STL@@@_STL@@QAEXXZ ; _STL::basic_ifstream<char,_STL::char_traits<char> >::`vbase destructor'
; Function compile flags: /Ogsy
;	COMDAT ??_D?$basic_ifstream@DV?$char_traits@D@_STL@@@_STL@@QAEXXZ
_TEXT	SEGMENT
??_D?$basic_ifstream@DV?$char_traits@D@_STL@@@_STL@@QAEXXZ PROC NEAR ; _STL::basic_ifstream<char,_STL::char_traits<char> >::`vbase destructor', COMDAT
; _this$ = ecx
  00000	56		 push	 esi
  00001	8d b1 bc 00 00
	00		 lea	 esi, DWORD PTR [ecx+188]
  00007	8b ce		 mov	 ecx, esi
  00009	e8 00 00 00 00	 call	 ??1?$basic_ifstream@DV?$char_traits@D@_STL@@@_STL@@UAE@XZ ; _STL::basic_ifstream<char,_STL::char_traits<char> >::~basic_ifstream<char,_STL::char_traits<char> >
  0000e	8b ce		 mov	 ecx, esi
  00010	5e		 pop	 esi
  00011	e9 00 00 00 00	 jmp	 ??1?$basic_ios@DV?$char_traits@D@_STL@@@_STL@@UAE@XZ ; _STL::basic_ios<char,_STL::char_traits<char> >::~basic_ios<char,_STL::char_traits<char> >
??_D?$basic_ifstream@DV?$char_traits@D@_STL@@@_STL@@QAEXXZ ENDP ; _STL::basic_ifstream<char,_STL::char_traits<char> >::`vbase destructor'
; Function compile flags: /Ogsy
_TEXT	ENDS
;	COMDAT ??_G?$basic_ifstream@DV?$char_traits@D@_STL@@@_STL@@UAEPAXI@Z
_TEXT	SEGMENT
___flags$ = 8						; size = 4
??_G?$basic_ifstream@DV?$char_traits@D@_STL@@@_STL@@UAEPAXI@Z PROC NEAR ; _STL::basic_ifstream<char,_STL::char_traits<char> >::`scalar deleting destructor', COMDAT
; _this$ = ecx
  00000	56		 push	 esi
  00001	8d b1 44 ff ff
	ff		 lea	 esi, DWORD PTR [ecx-188]
  00007	8b ce		 mov	 ecx, esi
  00009	e8 00 00 00 00	 call	 ??_D?$basic_ifstream@DV?$char_traits@D@_STL@@@_STL@@QAEXXZ
  0000e	f6 44 24 08 01	 test	 BYTE PTR ___flags$[esp], 1
  00013	74 07		 je	 SHORT $L100425
  00015	56		 push	 esi
  00016	e8 00 00 00 00	 call	 ??3@YAXPAX@Z		; operator delete
  0001b	59		 pop	 ecx
$L100425:
  0001c	8b c6		 mov	 eax, esi
  0001e	5e		 pop	 esi
  0001f	c2 04 00	 ret	 4
??_G?$basic_ifstream@DV?$char_traits@D@_STL@@@_STL@@UAEPAXI@Z ENDP ; _STL::basic_ifstream<char,_STL::char_traits<char> >::`scalar deleting destructor'
_TEXT	ENDS
PUBLIC	??0sentry@?$basic_istream@DV?$char_traits@D@_STL@@@_STL@@QAE@AAV12@U_No_Skip_WS@2@@Z ; _STL::basic_istream<char,_STL::char_traits<char> >::sentry::sentry
; Function compile flags: /Ogsy
; File c:\stlport-4.6.1\stlport\stl\_istream.h
;	COMDAT ??0sentry@?$basic_istream@DV?$char_traits@D@_STL@@@_STL@@QAE@AAV12@U_No_Skip_WS@2@@Z
_TEXT	SEGMENT
___is$ = 8						; size = 4
___formal$ = 12						; size = 1
??0sentry@?$basic_istream@DV?$char_traits@D@_STL@@@_STL@@QAE@AAV12@U_No_Skip_WS@2@@Z PROC NEAR ; _STL::basic_istream<char,_STL::char_traits<char> >::sentry::sentry, COMDAT
; _this$ = ecx

; 229  :       _M_ok(_M_init_noskip(__is)) {}

  00000	56		 push	 esi
  00001	ff 74 24 08	 push	 DWORD PTR ___is$[esp]
  00005	8b f1		 mov	 esi, ecx
  00007	e8 00 00 00 00	 call	 ??$_M_init_noskip@DV?$char_traits@D@_STL@@@_STL@@YA_NAAV?$basic_istream@DV?$char_traits@D@_STL@@@0@@Z ; _STL::_M_init_noskip<char,_STL::char_traits<char> >
  0000c	88 06		 mov	 BYTE PTR [esi], al
  0000e	59		 pop	 ecx
  0000f	8b c6		 mov	 eax, esi
  00011	5e		 pop	 esi
  00012	c2 08 00	 ret	 8
??0sentry@?$basic_istream@DV?$char_traits@D@_STL@@@_STL@@QAE@AAV12@U_No_Skip_WS@2@@Z ENDP ; _STL::basic_istream<char,_STL::char_traits<char> >::sentry::sentry
_TEXT	ENDS
PUBLIC	??$_M_range_initialize@PAD@?$basic_string@DV?$char_traits@D@_STL@@V?$allocator@D@2@@_STL@@AAEXPAD0ABUforward_iterator_tag@1@@Z ; _STL::basic_string<char,_STL::char_traits<char>,_STL::allocator<char> >::_M_range_initialize<char *>
; Function compile flags: /Ogsy
; File c:\stlport-4.6.1\stlport\stl\_string.h
;	COMDAT ??$_M_range_initialize@PAD@?$basic_string@DV?$char_traits@D@_STL@@V?$allocator@D@2@@_STL@@AAEXPAD0ABUforward_iterator_tag@1@@Z
_TEXT	SEGMENT
___f$ = 8						; size = 4
___l$ = 12						; size = 4
___formal$ = 16						; size = 4
??$_M_range_initialize@PAD@?$basic_string@DV?$char_traits@D@_STL@@V?$allocator@D@2@@_STL@@AAEXPAD0ABUforward_iterator_tag@1@@Z PROC NEAR ; _STL::basic_string<char,_STL::char_traits<char>,_STL::allocator<char> >::_M_range_initialize<char *>, COMDAT
; _this$ = ecx

; 383  :                            const forward_iterator_tag &) {
; 384  :     difference_type __n = distance(__f, __l);
; 385  :     this->_M_allocate_block(__n + 1);

  00000	8b 44 24 08	 mov	 eax, DWORD PTR ___l$[esp-4]
  00004	2b 44 24 04	 sub	 eax, DWORD PTR ___f$[esp-4]
  00008	56		 push	 esi
  00009	40		 inc	 eax
  0000a	50		 push	 eax
  0000b	8b f1		 mov	 esi, ecx
  0000d	e8 00 00 00 00	 call	 ?_M_allocate_block@?$_String_base@DV?$allocator@D@_STL@@@_STL@@QAEXI@Z ; _STL::_String_base<char,_STL::allocator<char> >::_M_allocate_block

; 386  :     this->_M_finish = uninitialized_copy(__f, __l, this->_M_start);

  00012	ff 36		 push	 DWORD PTR [esi]
  00014	ff 74 24 10	 push	 DWORD PTR ___l$[esp+4]
  00018	ff 74 24 10	 push	 DWORD PTR ___f$[esp+8]
  0001c	e8 00 00 00 00	 call	 ?__copy_trivial@_STL@@YAPAXPBX0PAX@Z ; _STL::__copy_trivial
  00021	83 c4 0c	 add	 esp, 12			; 0000000cH
  00024	89 46 04	 mov	 DWORD PTR [esi+4], eax

; 387  :     _M_terminate_string();

  00027	c6 00 00	 mov	 BYTE PTR [eax], 0
  0002a	5e		 pop	 esi

; 388  :   }

  0002b	c2 0c 00	 ret	 12			; 0000000cH
??$_M_range_initialize@PAD@?$basic_string@DV?$char_traits@D@_STL@@V?$allocator@D@2@@_STL@@AAEXPAD0ABUforward_iterator_tag@1@@Z ENDP ; _STL::basic_string<char,_STL::char_traits<char>,_STL::allocator<char> >::_M_range_initialize<char *>
_TEXT	ENDS
PUBLIC	??$_M_append_dispatch@PBD@?$basic_string@DV?$char_traits@D@_STL@@V?$allocator@D@2@@_STL@@AAEAAV01@PBD0ABU__false_type@1@@Z ; _STL::basic_string<char,_STL::char_traits<char>,_STL::allocator<char> >::_M_append_dispatch<char const *>
; Function compile flags: /Ogsy
;	COMDAT ??$_M_append_dispatch@PBD@?$basic_string@DV?$char_traits@D@_STL@@V?$allocator@D@2@@_STL@@AAEAAV01@PBD0ABU__false_type@1@@Z
_TEXT	SEGMENT
___f$ = 8						; size = 4
___l$ = 12						; size = 4
$T104567 = 15						; size = 1
___formal$ = 16						; size = 4
??$_M_append_dispatch@PBD@?$basic_string@DV?$char_traits@D@_STL@@V?$allocator@D@2@@_STL@@AAEAAV01@PBD0ABU__false_type@1@@Z PROC NEAR ; _STL::basic_string<char,_STL::char_traits<char>,_STL::allocator<char> >::_M_append_dispatch<char const *>, COMDAT
; _this$ = ecx

; 586  :   template <class _InputIter> _Self& _M_append_dispatch(_InputIter __f, _InputIter __l,

  00000	55		 push	 ebp
  00001	8b ec		 mov	 ebp, esp

; 587  :                                    const __false_type&) {
; 588  :     return append(__f, __l, _STLP_ITERATOR_CATEGORY(__f, _InputIter));

  00003	8d 45 0f	 lea	 eax, DWORD PTR $T104567[ebp]
  00006	50		 push	 eax
  00007	ff 75 0c	 push	 DWORD PTR ___l$[ebp]
  0000a	ff 75 08	 push	 DWORD PTR ___f$[ebp]
  0000d	e8 00 00 00 00	 call	 ??$append@PBD@?$basic_string@DV?$char_traits@D@_STL@@V?$allocator@D@2@@_STL@@AAEAAV01@PBD0ABUforward_iterator_tag@1@@Z ; _STL::basic_string<char,_STL::char_traits<char>,_STL::allocator<char> >::append<char const *>

; 589  :   }

  00012	5d		 pop	 ebp
  00013	c2 0c 00	 ret	 12			; 0000000cH
??$_M_append_dispatch@PBD@?$basic_string@DV?$char_traits@D@_STL@@V?$allocator@D@2@@_STL@@AAEAAV01@PBD0ABU__false_type@1@@Z ENDP ; _STL::basic_string<char,_STL::char_traits<char>,_STL::allocator<char> >::_M_append_dispatch<char const *>
_TEXT	ENDS
PUBLIC	??$_M_append_dispatch@PAD@?$basic_string@DV?$char_traits@D@_STL@@V?$allocator@D@2@@_STL@@AAEAAV01@PAD0ABU__false_type@1@@Z ; _STL::basic_string<char,_STL::char_traits<char>,_STL::allocator<char> >::_M_append_dispatch<char *>
; Function compile flags: /Ogsy
;	COMDAT ??$_M_append_dispatch@PAD@?$basic_string@DV?$char_traits@D@_STL@@V?$allocator@D@2@@_STL@@AAEAAV01@PAD0ABU__false_type@1@@Z
_TEXT	SEGMENT
___f$ = 8						; size = 4
___l$ = 12						; size = 4
$T104570 = 15						; size = 1
___formal$ = 16						; size = 4
??$_M_append_dispatch@PAD@?$basic_string@DV?$char_traits@D@_STL@@V?$allocator@D@2@@_STL@@AAEAAV01@PAD0ABU__false_type@1@@Z PROC NEAR ; _STL::basic_string<char,_STL::char_traits<char>,_STL::allocator<char> >::_M_append_dispatch<char *>, COMDAT
; _this$ = ecx

; 586  :   template <class _InputIter> _Self& _M_append_dispatch(_InputIter __f, _InputIter __l,

  00000	55		 push	 ebp
  00001	8b ec		 mov	 ebp, esp

; 587  :                                    const __false_type&) {
; 588  :     return append(__f, __l, _STLP_ITERATOR_CATEGORY(__f, _InputIter));

  00003	8d 45 0f	 lea	 eax, DWORD PTR $T104570[ebp]
  00006	50		 push	 eax
  00007	ff 75 0c	 push	 DWORD PTR ___l$[ebp]
  0000a	ff 75 08	 push	 DWORD PTR ___f$[ebp]
  0000d	e8 00 00 00 00	 call	 ??$append@PAD@?$basic_string@DV?$char_traits@D@_STL@@V?$allocator@D@2@@_STL@@AAEAAV01@PAD0ABUforward_iterator_tag@1@@Z ; _STL::basic_string<char,_STL::char_traits<char>,_STL::allocator<char> >::append<char *>

; 589  :   }

  00012	5d		 pop	 ebp
  00013	c2 0c 00	 ret	 12			; 0000000cH
??$_M_append_dispatch@PAD@?$basic_string@DV?$char_traits@D@_STL@@V?$allocator@D@2@@_STL@@AAEAAV01@PAD0ABU__false_type@1@@Z ENDP ; _STL::basic_string<char,_STL::char_traits<char>,_STL::allocator<char> >::_M_append_dispatch<char *>
_TEXT	ENDS
PUBLIC	??1?$basic_string@DV?$char_traits@D@_STL@@V?$allocator@D@2@@_STL@@QAE@XZ ; _STL::basic_string<char,_STL::char_traits<char>,_STL::allocator<char> >::~basic_string<char,_STL::char_traits<char>,_STL::allocator<char> >
; Function compile flags: /Ogsy
;	COMDAT ??1?$basic_string@DV?$char_traits@D@_STL@@V?$allocator@D@2@@_STL@@QAE@XZ
_TEXT	SEGMENT
??1?$basic_string@DV?$char_traits@D@_STL@@V?$allocator@D@2@@_STL@@QAE@XZ PROC NEAR ; _STL::basic_string<char,_STL::char_traits<char>,_STL::allocator<char> >::~basic_string<char,_STL::char_traits<char>,_STL::allocator<char> >, COMDAT
; _this$ = ecx

; 305  :   ~basic_string() { _STLP_STD::_Destroy(this->_M_start, this->_M_finish + 1); }

  00000	e9 00 00 00 00	 jmp	 ?_M_deallocate_block@?$_String_base@DV?$allocator@D@_STL@@@_STL@@QAEXXZ ; _STL::_String_base<char,_STL::allocator<char> >::_M_deallocate_block
??1?$basic_string@DV?$char_traits@D@_STL@@V?$allocator@D@2@@_STL@@QAE@XZ ENDP ; _STL::basic_string<char,_STL::char_traits<char>,_STL::allocator<char> >::~basic_string<char,_STL::char_traits<char>,_STL::allocator<char> >
_TEXT	ENDS
PUBLIC	??1ServerInfoFileParser@@QAE@XZ			; ServerInfoFileParser::~ServerInfoFileParser
; Function compile flags: /Ogsy
; File c:\darkeden\designed_common\project\client\serverinfofileparser.cpp
;	COMDAT ??1ServerInfoFileParser@@QAE@XZ
_TEXT	SEGMENT
??1ServerInfoFileParser@@QAE@XZ PROC NEAR		; ServerInfoFileParser::~ServerInfoFileParser, COMDAT
; _this$ = ecx

; 16   : }

  00000	e9 00 00 00 00	 jmp	 ?_M_deallocate_block@?$_String_base@DV?$allocator@D@_STL@@@_STL@@QAEXXZ ; _STL::_String_base<char,_STL::allocator<char> >::_M_deallocate_block
??1ServerInfoFileParser@@QAE@XZ ENDP			; ServerInfoFileParser::~ServerInfoFileParser
_TEXT	ENDS
PUBLIC	??$_M_range_initialize@PAD@?$basic_string@DV?$char_traits@D@_STL@@V?$allocator@D@2@@_STL@@AAEXPAD0@Z ; _STL::basic_string<char,_STL::char_traits<char>,_STL::allocator<char> >::_M_range_initialize<char *>
; Function compile flags: /Ogsy
; File c:\stlport-4.6.1\stlport\stl\_string.h
;	COMDAT ??$_M_range_initialize@PAD@?$basic_string@DV?$char_traits@D@_STL@@V?$allocator@D@2@@_STL@@AAEXPAD0@Z
_TEXT	SEGMENT
___f$ = 8						; size = 4
___l$ = 12						; size = 4
$T104629 = 15						; size = 1
??$_M_range_initialize@PAD@?$basic_string@DV?$char_traits@D@_STL@@V?$allocator@D@2@@_STL@@AAEXPAD0@Z PROC NEAR ; _STL::basic_string<char,_STL::char_traits<char>,_STL::allocator<char> >::_M_range_initialize<char *>, COMDAT
; _this$ = ecx

; 390  :   template <class _InputIter> void _M_range_initialize(_InputIter __f, _InputIter __l) {

  00000	55		 push	 ebp
  00001	8b ec		 mov	 ebp, esp

; 391  :     _M_range_initialize(__f, __l, _STLP_ITERATOR_CATEGORY(__f, _InputIter));

  00003	8d 45 0f	 lea	 eax, DWORD PTR $T104629[ebp]
  00006	50		 push	 eax
  00007	ff 75 0c	 push	 DWORD PTR ___l$[ebp]
  0000a	ff 75 08	 push	 DWORD PTR ___f$[ebp]
  0000d	e8 00 00 00 00	 call	 ??$_M_range_initialize@PAD@?$basic_string@DV?$char_traits@D@_STL@@V?$allocator@D@2@@_STL@@AAEXPAD0ABUforward_iterator_tag@1@@Z ; _STL::basic_string<char,_STL::char_traits<char>,_STL::allocator<char> >::_M_range_initialize<char *>

; 392  :   }

  00012	5d		 pop	 ebp
  00013	c2 08 00	 ret	 8
??$_M_range_initialize@PAD@?$basic_string@DV?$char_traits@D@_STL@@V?$allocator@D@2@@_STL@@AAEXPAD0@Z ENDP ; _STL::basic_string<char,_STL::char_traits<char>,_STL::allocator<char> >::_M_range_initialize<char *>
_TEXT	ENDS
PUBLIC	?getline@?$basic_istream@DV?$char_traits@D@_STL@@@_STL@@QAEAAV12@PADHD@Z ; _STL::basic_istream<char,_STL::char_traits<char> >::getline
; Function compile flags: /Ogsy
; File c:\stlport-4.6.1\stlport\stl\_istream.c
;	COMDAT ?getline@?$basic_istream@DV?$char_traits@D@_STL@@@_STL@@QAEAAV12@PADHD@Z
_TEXT	SEGMENT
___s$ = 8						; size = 4
___n$ = 12						; size = 4
___delim$ = 16						; size = 1
?getline@?$basic_istream@DV?$char_traits@D@_STL@@@_STL@@QAEAAV12@PADHD@Z PROC NEAR ; _STL::basic_istream<char,_STL::char_traits<char> >::getline, COMDAT
; _this$ = ecx

; 740  :                                         _CharT __delim) {

  00000	55		 push	 ebp
  00001	8b ec		 mov	 ebp, esp
  00003	56		 push	 esi
  00004	8b f1		 mov	 esi, ecx

; 741  :   sentry __sentry(*this, _No_Skip_WS());

  00006	56		 push	 esi
  00007	e8 00 00 00 00	 call	 ??$_M_init_noskip@DV?$char_traits@D@_STL@@@_STL@@YA_NAAV?$basic_istream@DV?$char_traits@D@_STL@@@0@@Z ; _STL::_M_init_noskip<char,_STL::char_traits<char> >

; 742  :   this->_M_gcount = 0;

  0000c	83 66 04 00	 and	 DWORD PTR [esi+4], 0

; 743  : 
; 744  :   if (__sentry) {

  00010	84 c0		 test	 al, al
  00012	59		 pop	 ecx
  00013	74 4d		 je	 SHORT $L100711

; 745  :     if (__n > 0) {

  00015	8b 4d 0c	 mov	 ecx, DWORD PTR ___n$[ebp]
  00018	85 c9		 test	 ecx, ecx
  0001a	7e 46		 jle	 SHORT $L100711

; 746  :       basic_streambuf<_CharT, _Traits>* __buf = this->rdbuf();

  0001c	8b 06		 mov	 eax, DWORD PTR [esi]
  0001e	8b 40 04	 mov	 eax, DWORD PTR [eax+4]
  00021	8b 54 30 58	 mov	 edx, DWORD PTR [eax+esi+88]

; 747  :       this->_M_gcount = __buf->egptr() != __buf->gptr()
; 748  :         ? _M_read_buffered(this,  __buf, __n - 1, __s,
; 749  :                            _Eq_char_bound<_Traits>(__delim),
; 750  :                            _Scan_for_char_val<_Traits>(__delim),
; 751  :                            true, true, true)
; 752  :         : _M_read_unbuffered(this,  __buf, __n - 1, __s,
; 753  :                              _Eq_char_bound<_Traits>(__delim),
; 754  :                              true, true, true);

  00025	8b 42 04	 mov	 eax, DWORD PTR [edx+4]
  00028	57		 push	 edi
  00029	8b 78 04	 mov	 edi, DWORD PTR [eax+4]
  0002c	03 38		 add	 edi, DWORD PTR [eax]
  0002e	3b 38		 cmp	 edi, DWORD PTR [eax]
  00030	5f		 pop	 edi
  00031	6a 01		 push	 1
  00033	6a 01		 push	 1
  00035	6a 01		 push	 1
  00037	ff 75 10	 push	 DWORD PTR ___delim$[ebp]
  0003a	74 14		 je	 SHORT $L104636
  0003c	ff 75 10	 push	 DWORD PTR ___delim$[ebp]
  0003f	49		 dec	 ecx
  00040	ff 75 08	 push	 DWORD PTR ___s$[ebp]
  00043	51		 push	 ecx
  00044	52		 push	 edx
  00045	56		 push	 esi
  00046	e8 00 00 00 00	 call	 ??$_M_read_buffered@DV?$char_traits@D@_STL@@U?$_Eq_char_bound@V?$char_traits@D@_STL@@@2@U?$_Scan_for_char_val@V?$char_traits@D@_STL@@@2@@_STL@@YAHPAV?$basic_istream@DV?$char_traits@D@_STL@@@0@PAV?$basic_streambuf@DV?$char_traits@D@_STL@@@0@HPADU?$_Eq_char_bound@V?$char_traits@D@_STL@@@0@U?$_Scan_for_char_val@V?$char_traits@D@_STL@@@0@_N55@Z ; _STL::_M_read_buffered<char,_STL::char_traits<char>,_STL::_Eq_char_bound<_STL::char_traits<char> >,_STL::_Scan_for_char_val<_STL::char_traits<char> > >
  0004b	83 c4 24	 add	 esp, 36			; 00000024H
  0004e	eb 0f		 jmp	 SHORT $L104637
$L104636:
  00050	ff 75 08	 push	 DWORD PTR ___s$[ebp]
  00053	49		 dec	 ecx
  00054	51		 push	 ecx
  00055	52		 push	 edx
  00056	56		 push	 esi
  00057	e8 00 00 00 00	 call	 ??$_M_read_unbuffered@DV?$char_traits@D@_STL@@U?$_Eq_char_bound@V?$char_traits@D@_STL@@@2@@_STL@@YAHPAV?$basic_istream@DV?$char_traits@D@_STL@@@0@PAV?$basic_streambuf@DV?$char_traits@D@_STL@@@0@HPADU?$_Eq_char_bound@V?$char_traits@D@_STL@@@0@_N44@Z ; _STL::_M_read_unbuffered<char,_STL::char_traits<char>,_STL::_Eq_char_bound<_STL::char_traits<char> > >
  0005c	83 c4 20	 add	 esp, 32			; 00000020H
$L104637:
  0005f	89 46 04	 mov	 DWORD PTR [esi+4], eax
$L100711:

; 755  :     }
; 756  :   }
; 757  : 
; 758  :   if (this->_M_gcount == 0)

  00062	83 7e 04 00	 cmp	 DWORD PTR [esi+4], 0
  00066	75 13		 jne	 SHORT $L104682

; 759  :     this->setstate(ios_base::failbit);

  00068	8b 06		 mov	 eax, DWORD PTR [esi]
  0006a	8b 48 04	 mov	 ecx, DWORD PTR [eax+4]
  0006d	03 ce		 add	 ecx, esi
  0006f	8b 41 08	 mov	 eax, DWORD PTR [ecx+8]
  00072	83 c8 04	 or	 eax, 4
  00075	50		 push	 eax
  00076	e8 00 00 00 00	 call	 ?clear@?$basic_ios@DV?$char_traits@D@_STL@@@_STL@@QAEXH@Z ; _STL::basic_ios<char,_STL::char_traits<char> >::clear
$L104682:

; 760  : 
; 761  :   return *this;

  0007b	8b c6		 mov	 eax, esi
  0007d	5e		 pop	 esi

; 762  : }

  0007e	5d		 pop	 ebp
  0007f	c2 0c 00	 ret	 12			; 0000000cH
?getline@?$basic_istream@DV?$char_traits@D@_STL@@@_STL@@QAEAAV12@PADHD@Z ENDP ; _STL::basic_istream<char,_STL::char_traits<char> >::getline
_TEXT	ENDS
PUBLIC	??$append@PBD@?$basic_string@DV?$char_traits@D@_STL@@V?$allocator@D@2@@_STL@@QAEAAV01@PBD0@Z ; _STL::basic_string<char,_STL::char_traits<char>,_STL::allocator<char> >::append<char const *>
; Function compile flags: /Ogsy
; File c:\stlport-4.6.1\stlport\stl\_string.h
;	COMDAT ??$append@PBD@?$basic_string@DV?$char_traits@D@_STL@@V?$allocator@D@2@@_STL@@QAEAAV01@PBD0@Z
_TEXT	SEGMENT
___first$ = 8						; size = 4
___last$ = 12						; size = 4
$T104696 = 15						; size = 1
??$append@PBD@?$basic_string@DV?$char_traits@D@_STL@@V?$allocator@D@2@@_STL@@QAEAAV01@PBD0@Z PROC NEAR ; _STL::basic_string<char,_STL::char_traits<char>,_STL::allocator<char> >::append<char const *>, COMDAT
; _this$ = ecx

; 506  :   template <class _InputIter> _Self& append(_InputIter __first, _InputIter __last) {

  00000	55		 push	 ebp
  00001	8b ec		 mov	 ebp, esp

; 507  :     typedef typename _Is_integer<_InputIter>::_Integral _Integral;
; 508  :     return _M_append_dispatch(__first, __last, _Integral());

  00003	8d 45 0f	 lea	 eax, DWORD PTR $T104696[ebp]
  00006	50		 push	 eax
  00007	ff 75 0c	 push	 DWORD PTR ___last$[ebp]
  0000a	ff 75 08	 push	 DWORD PTR ___first$[ebp]
  0000d	e8 00 00 00 00	 call	 ??$append@PBD@?$basic_string@DV?$char_traits@D@_STL@@V?$allocator@D@2@@_STL@@AAEAAV01@PBD0ABUforward_iterator_tag@1@@Z ; _STL::basic_string<char,_STL::char_traits<char>,_STL::allocator<char> >::append<char const *>

; 509  :   }

  00012	5d		 pop	 ebp
  00013	c2 08 00	 ret	 8
??$append@PBD@?$basic_string@DV?$char_traits@D@_STL@@V?$allocator@D@2@@_STL@@QAEAAV01@PBD0@Z ENDP ; _STL::basic_string<char,_STL::char_traits<char>,_STL::allocator<char> >::append<char const *>
_TEXT	ENDS
PUBLIC	?grouping@?$numpunct@D@_STL@@QBE?AV?$basic_string@DV?$char_traits@D@_STL@@V?$allocator@D@2@@2@XZ ; _STL::numpunct<char>::grouping
; Function compile flags: /Ogsy
; File c:\stlport-4.6.1\stlport\stl\_numpunct.h
;	COMDAT ?grouping@?$numpunct@D@_STL@@QBE?AV?$basic_string@DV?$char_traits@D@_STL@@V?$allocator@D@2@@2@XZ
_TEXT	SEGMENT
$T104701 = -4						; size = 4
___$ReturnUdt$ = 8					; size = 4
?grouping@?$numpunct@D@_STL@@QBE?AV?$basic_string@DV?$char_traits@D@_STL@@V?$allocator@D@2@@2@XZ PROC NEAR ; _STL::numpunct<char>::grouping, COMDAT
; _this$ = ecx

; 62   :   string grouping() const { return do_grouping(); }

  00000	55		 push	 ebp
  00001	8b ec		 mov	 ebp, esp
  00003	51		 push	 ecx
  00004	ff 75 08	 push	 DWORD PTR ___$ReturnUdt$[ebp]
  00007	8b 01		 mov	 eax, DWORD PTR [ecx]
  00009	83 65 fc 00	 and	 DWORD PTR $T104701[ebp], 0
  0000d	ff 50 0c	 call	 DWORD PTR [eax+12]
  00010	8b 45 08	 mov	 eax, DWORD PTR ___$ReturnUdt$[ebp]
  00013	c9		 leave
  00014	c2 04 00	 ret	 4
?grouping@?$numpunct@D@_STL@@QBE?AV?$basic_string@DV?$char_traits@D@_STL@@V?$allocator@D@2@@2@XZ ENDP ; _STL::numpunct<char>::grouping
_TEXT	ENDS
PUBLIC	??$append@PAD@?$basic_string@DV?$char_traits@D@_STL@@V?$allocator@D@2@@_STL@@QAEAAV01@PAD0@Z ; _STL::basic_string<char,_STL::char_traits<char>,_STL::allocator<char> >::append<char *>
; Function compile flags: /Ogsy
; File c:\stlport-4.6.1\stlport\stl\_string.h
;	COMDAT ??$append@PAD@?$basic_string@DV?$char_traits@D@_STL@@V?$allocator@D@2@@_STL@@QAEAAV01@PAD0@Z
_TEXT	SEGMENT
___first$ = 8						; size = 4
___last$ = 12						; size = 4
$T104709 = 15						; size = 1
??$append@PAD@?$basic_string@DV?$char_traits@D@_STL@@V?$allocator@D@2@@_STL@@QAEAAV01@PAD0@Z PROC NEAR ; _STL::basic_string<char,_STL::char_traits<char>,_STL::allocator<char> >::append<char *>, COMDAT
; _this$ = ecx

; 506  :   template <class _InputIter> _Self& append(_InputIter __first, _InputIter __last) {

  00000	55		 push	 ebp
  00001	8b ec		 mov	 ebp, esp

; 507  :     typedef typename _Is_integer<_InputIter>::_Integral _Integral;
; 508  :     return _M_append_dispatch(__first, __last, _Integral());

  00003	8d 45 0f	 lea	 eax, DWORD PTR $T104709[ebp]
  00006	50		 push	 eax
  00007	ff 75 0c	 push	 DWORD PTR ___last$[ebp]
  0000a	ff 75 08	 push	 DWORD PTR ___first$[ebp]
  0000d	e8 00 00 00 00	 call	 ??$append@PAD@?$basic_string@DV?$char_traits@D@_STL@@V?$allocator@D@2@@_STL@@AAEAAV01@PAD0ABUforward_iterator_tag@1@@Z ; _STL::basic_string<char,_STL::char_traits<char>,_STL::allocator<char> >::append<char *>

; 509  :   }

  00012	5d		 pop	 ebp
  00013	c2 08 00	 ret	 8
??$append@PAD@?$basic_string@DV?$char_traits@D@_STL@@V?$allocator@D@2@@_STL@@QAEAAV01@PAD0@Z ENDP ; _STL::basic_string<char,_STL::char_traits<char>,_STL::allocator<char> >::append<char *>
_TEXT	ENDS
PUBLIC	??0?$basic_string@DV?$char_traits@D@_STL@@V?$allocator@D@2@@_STL@@QAE@ABV01@@Z ; _STL::basic_string<char,_STL::char_traits<char>,_STL::allocator<char> >::basic_string<char,_STL::char_traits<char>,_STL::allocator<char> >
;	COMDAT xdata$x
xdata$x	SEGMENT
$T104728 DD	0ffffffffH
	DD	FLAT:$L104714
$T104726 DD	019930520H
	DD	01H
	DD	FLAT:$T104728
	DD	2 DUP(00H)
	DD	2 DUP(00H)
; Function compile flags: /Ogsy
; File c:\stlport-4.6.1\stlport\stl\_string.c
xdata$x	ENDS
;	COMDAT ??0?$basic_string@DV?$char_traits@D@_STL@@V?$allocator@D@2@@_STL@@QAE@ABV01@@Z
_TEXT	SEGMENT
_this$ = -16						; size = 4
__$EHRec$ = -12						; size = 12
___s$ = 8						; size = 4
$T104722 = 11						; size = 1
$T104713 = 11						; size = 1
??0?$basic_string@DV?$char_traits@D@_STL@@V?$allocator@D@2@@_STL@@QAE@ABV01@@Z PROC NEAR ; _STL::basic_string<char,_STL::char_traits<char>,_STL::allocator<char> >::basic_string<char,_STL::char_traits<char>,_STL::allocator<char> >, COMDAT
; _this$ = ecx

; 560  : {  

  00000	b8 00 00 00 00	 mov	 eax, __ehhandler$??0?$basic_string@DV?$char_traits@D@_STL@@V?$allocator@D@2@@_STL@@QAE@ABV01@@Z
  00005	e8 00 00 00 00	 call	 __EH_prolog
  0000a	51		 push	 ecx
  0000b	56		 push	 esi
  0000c	8b 75 08	 mov	 esi, DWORD PTR ___s$[ebp]
  0000f	57		 push	 edi
  00010	8b f9		 mov	 edi, ecx
  00012	8d 45 0b	 lea	 eax, DWORD PTR $T104713[ebp]
  00015	50		 push	 eax
  00016	8b ce		 mov	 ecx, esi
  00018	89 7d f0	 mov	 DWORD PTR _this$[ebp], edi
  0001b	e8 00 00 00 00	 call	 ?get_allocator@?$basic_string@DV?$char_traits@D@_STL@@V?$allocator@D@2@@_STL@@QBE?AV?$allocator@D@2@XZ ; _STL::basic_string<char,_STL::char_traits<char>,_STL::allocator<char> >::get_allocator
  00020	50		 push	 eax
  00021	8b cf		 mov	 ecx, edi
  00023	e8 00 00 00 00	 call	 ??0?$_String_base@DV?$allocator@D@_STL@@@_STL@@QAE@ABV?$allocator@D@1@@Z ; _STL::_String_base<char,_STL::allocator<char> >::_String_base<char,_STL::allocator<char> >
  00028	83 65 fc 00	 and	 DWORD PTR __$EHRec$[ebp+8], 0

; 561  :   _M_range_initialize(__s._M_start, __s._M_finish);  

  0002c	8d 45 0b	 lea	 eax, DWORD PTR $T104722[ebp]
  0002f	50		 push	 eax
  00030	ff 76 04	 push	 DWORD PTR [esi+4]
  00033	8b cf		 mov	 ecx, edi
  00035	ff 36		 push	 DWORD PTR [esi]
  00037	e8 00 00 00 00	 call	 ??$_M_range_initialize@PAD@?$basic_string@DV?$char_traits@D@_STL@@V?$allocator@D@2@@_STL@@AAEXPAD0ABUforward_iterator_tag@1@@Z ; _STL::basic_string<char,_STL::char_traits<char>,_STL::allocator<char> >::_M_range_initialize<char *>

; 562  : } 

  0003c	8b 4d f4	 mov	 ecx, DWORD PTR __$EHRec$[ebp]
  0003f	8b c7		 mov	 eax, edi
  00041	5f		 pop	 edi
  00042	5e		 pop	 esi
  00043	64 89 0d 00 00
	00 00		 mov	 DWORD PTR fs:__except_list, ecx
  0004a	c9		 leave
  0004b	c2 04 00	 ret	 4
_TEXT	ENDS
;	COMDAT text$x
text$x	SEGMENT
$L104714:
  00000	8b 4d f0	 mov	 ecx, DWORD PTR _this$[ebp]
  00003	e9 00 00 00 00	 jmp	 ??1?$_String_base@DV?$allocator@D@_STL@@@_STL@@QAE@XZ ; _STL::_String_base<char,_STL::allocator<char> >::~_String_base<char,_STL::allocator<char> >
__ehhandler$??0?$basic_string@DV?$char_traits@D@_STL@@V?$allocator@D@2@@_STL@@QAE@ABV01@@Z:
  00008	b8 00 00 00 00	 mov	 eax, OFFSET FLAT:$T104726
  0000d	e9 00 00 00 00	 jmp	 ___CxxFrameHandler
text$x	ENDS
??0?$basic_string@DV?$char_traits@D@_STL@@V?$allocator@D@2@@_STL@@QAE@ABV01@@Z ENDP ; _STL::basic_string<char,_STL::char_traits<char>,_STL::allocator<char> >::basic_string<char,_STL::char_traits<char>,_STL::allocator<char> >
PUBLIC	?getline@?$basic_istream@DV?$char_traits@D@_STL@@@_STL@@QAEAAV12@PADH@Z ; _STL::basic_istream<char,_STL::char_traits<char> >::getline
; Function compile flags: /Ogsy
; File c:\stlport-4.6.1\stlport\stl\_istream.h
;	COMDAT ?getline@?$basic_istream@DV?$char_traits@D@_STL@@@_STL@@QAEAAV12@PADH@Z
_TEXT	SEGMENT
___s$ = 8						; size = 4
___n$ = 12						; size = 4
?getline@?$basic_istream@DV?$char_traits@D@_STL@@@_STL@@QAEAAV12@PADH@Z PROC NEAR ; _STL::basic_istream<char,_STL::char_traits<char> >::getline, COMDAT
; _this$ = ecx

; 165  :     { return getline(__s, __n, this->widen('\n')); }

  00000	56		 push	 esi
  00001	8b f1		 mov	 esi, ecx
  00003	8b 06		 mov	 eax, DWORD PTR [esi]
  00005	8b 40 04	 mov	 eax, DWORD PTR [eax+4]
  00008	8b 4c 30 40	 mov	 ecx, DWORD PTR [eax+esi+64]
  0000c	8b 01		 mov	 eax, DWORD PTR [ecx]
  0000e	6a 0a		 push	 10			; 0000000aH
  00010	ff 50 18	 call	 DWORD PTR [eax+24]
  00013	8b ce		 mov	 ecx, esi
  00015	50		 push	 eax
  00016	ff 74 24 10	 push	 DWORD PTR ___n$[esp+4]
  0001a	ff 74 24 10	 push	 DWORD PTR ___s$[esp+8]
  0001e	e8 00 00 00 00	 call	 ?getline@?$basic_istream@DV?$char_traits@D@_STL@@@_STL@@QAEAAV12@PADHD@Z ; _STL::basic_istream<char,_STL::char_traits<char> >::getline
  00023	5e		 pop	 esi
  00024	c2 08 00	 ret	 8
?getline@?$basic_istream@DV?$char_traits@D@_STL@@@_STL@@QAEAAV12@PADH@Z ENDP ; _STL::basic_istream<char,_STL::char_traits<char> >::getline
_TEXT	ENDS
PUBLIC	?append@?$basic_string@DV?$char_traits@D@_STL@@V?$allocator@D@2@@_STL@@QAEAAV12@PBD@Z ; _STL::basic_string<char,_STL::char_traits<char>,_STL::allocator<char> >::append
; Function compile flags: /Ogsy
; File c:\stlport-4.6.1\stlport\stl\_string.h
;	COMDAT ?append@?$basic_string@DV?$char_traits@D@_STL@@V?$allocator@D@2@@_STL@@QAEAAV12@PBD@Z
_TEXT	SEGMENT
___s$ = 8						; size = 4
$T104764 = 11						; size = 1
?append@?$basic_string@DV?$char_traits@D@_STL@@V?$allocator@D@2@@_STL@@QAEAAV12@PBD@Z PROC NEAR ; _STL::basic_string<char,_STL::char_traits<char>,_STL::allocator<char> >::append, COMDAT
; _this$ = ecx

; 499  :     { _STLP_FIX_LITERAL_BUG(__s) return append(__s, __s + traits_type::length(__s)); }

  00000	55		 push	 ebp
  00001	8b ec		 mov	 ebp, esp
  00003	56		 push	 esi
  00004	ff 75 08	 push	 DWORD PTR ___s$[ebp]
  00007	8b f1		 mov	 esi, ecx
  00009	e8 00 00 00 00	 call	 _strlen
  0000e	03 45 08	 add	 eax, DWORD PTR ___s$[ebp]
  00011	59		 pop	 ecx
  00012	8d 4d 0b	 lea	 ecx, DWORD PTR $T104764[ebp]
  00015	51		 push	 ecx
  00016	50		 push	 eax
  00017	ff 75 08	 push	 DWORD PTR ___s$[ebp]
  0001a	8b ce		 mov	 ecx, esi
  0001c	e8 00 00 00 00	 call	 ??$append@PBD@?$basic_string@DV?$char_traits@D@_STL@@V?$allocator@D@2@@_STL@@AAEAAV01@PBD0ABUforward_iterator_tag@1@@Z ; _STL::basic_string<char,_STL::char_traits<char>,_STL::allocator<char> >::append<char const *>
  00021	5e		 pop	 esi
  00022	5d		 pop	 ebp
  00023	c2 04 00	 ret	 4
?append@?$basic_string@DV?$char_traits@D@_STL@@V?$allocator@D@2@@_STL@@QAEAAV12@PBD@Z ENDP ; _STL::basic_string<char,_STL::char_traits<char>,_STL::allocator<char> >::append
_TEXT	ENDS
PUBLIC	?assign@?$basic_string@DV?$char_traits@D@_STL@@V?$allocator@D@2@@_STL@@QAEAAV12@PBD0@Z ; _STL::basic_string<char,_STL::char_traits<char>,_STL::allocator<char> >::assign
; Function compile flags: /Ogsy
;	COMDAT ?assign@?$basic_string@DV?$char_traits@D@_STL@@V?$allocator@D@2@@_STL@@QAEAAV12@PBD0@Z
_TEXT	SEGMENT
___f$ = 8						; size = 4
___l$ = 12						; size = 4
$T104814 = 15						; size = 1
?assign@?$basic_string@DV?$char_traits@D@_STL@@V?$allocator@D@2@@_STL@@QAEAAV12@PBD0@Z PROC NEAR ; _STL::basic_string<char,_STL::char_traits<char>,_STL::allocator<char> >::assign, COMDAT
; _this$ = ecx

; 650  :   {

  00000	55		 push	 ebp
  00001	8b ec		 mov	 ebp, esp
  00003	53		 push	 ebx

; 651  :     ptrdiff_t __n = __l - __f;

  00004	8b 5d 08	 mov	 ebx, DWORD PTR ___f$[ebp]
  00007	56		 push	 esi
  00008	8b f1		 mov	 esi, ecx

; 652  :     if (__STATIC_CAST(size_type,__n) <= size()) {

  0000a	8b 0e		 mov	 ecx, DWORD PTR [esi]
  0000c	8b 46 04	 mov	 eax, DWORD PTR [esi+4]
  0000f	57		 push	 edi
  00010	8b 7d 0c	 mov	 edi, DWORD PTR ___l$[ebp]
  00013	2b fb		 sub	 edi, ebx
  00015	2b c1		 sub	 eax, ecx
  00017	3b f8		 cmp	 edi, eax
  00019	77 20		 ja	 SHORT $L100442

; 653  :       _Traits::copy(this->_M_start, __f, __n);

  0001b	85 ff		 test	 edi, edi
  0001d	74 0b		 je	 SHORT $L104779
  0001f	57		 push	 edi
  00020	53		 push	 ebx
  00021	51		 push	 ecx
  00022	e8 00 00 00 00	 call	 _memcpy
  00027	83 c4 0c	 add	 esp, 12			; 0000000cH
$L104779:

; 654  :       erase(begin() + __n, end());

  0002a	8b 06		 mov	 eax, DWORD PTR [esi]
  0002c	ff 76 04	 push	 DWORD PTR [esi+4]
  0002f	03 c7		 add	 eax, edi
  00031	50		 push	 eax
  00032	8b ce		 mov	 ecx, esi
  00034	e8 00 00 00 00	 call	 ?erase@?$basic_string@DV?$char_traits@D@_STL@@V?$allocator@D@2@@_STL@@QAEPADPAD0@Z ; _STL::basic_string<char,_STL::char_traits<char>,_STL::allocator<char> >::erase

; 655  :     }
; 656  :     else {

  00039	eb 25		 jmp	 SHORT $L104816
$L100442:

; 657  :       _Traits::copy(this->_M_start, __f, size());

  0003b	85 c0		 test	 eax, eax
  0003d	74 0b		 je	 SHORT $L104798
  0003f	50		 push	 eax
  00040	53		 push	 ebx
  00041	51		 push	 ecx
  00042	e8 00 00 00 00	 call	 _memcpy
  00047	83 c4 0c	 add	 esp, 12			; 0000000cH
$L104798:

; 658  :       append(__f + size(), __l);

  0004a	8d 45 0f	 lea	 eax, DWORD PTR $T104814[ebp]
  0004d	50		 push	 eax
  0004e	8b 46 04	 mov	 eax, DWORD PTR [esi+4]
  00051	2b 06		 sub	 eax, DWORD PTR [esi]
  00053	ff 75 0c	 push	 DWORD PTR ___l$[ebp]
  00056	03 c3		 add	 eax, ebx
  00058	50		 push	 eax
  00059	8b ce		 mov	 ecx, esi
  0005b	e8 00 00 00 00	 call	 ??$append@PBD@?$basic_string@DV?$char_traits@D@_STL@@V?$allocator@D@2@@_STL@@AAEAAV01@PBD0ABUforward_iterator_tag@1@@Z ; _STL::basic_string<char,_STL::char_traits<char>,_STL::allocator<char> >::append<char const *>
$L104816:
  00060	5f		 pop	 edi

; 659  :     }
; 660  :     return *this;

  00061	8b c6		 mov	 eax, esi
  00063	5e		 pop	 esi
  00064	5b		 pop	 ebx

; 661  :   }

  00065	5d		 pop	 ebp
  00066	c2 08 00	 ret	 8
?assign@?$basic_string@DV?$char_traits@D@_STL@@V?$allocator@D@2@@_STL@@QAEAAV12@PBD0@Z ENDP ; _STL::basic_string<char,_STL::char_traits<char>,_STL::allocator<char> >::assign
_TEXT	ENDS
PUBLIC	??$_M_assign_dispatch@PAD@?$basic_string@DV?$char_traits@D@_STL@@V?$allocator@D@2@@_STL@@AAEAAV01@PAD0ABU__false_type@1@@Z ; _STL::basic_string<char,_STL::char_traits<char>,_STL::allocator<char> >::_M_assign_dispatch<char *>
; Function compile flags: /Ogsy
;	COMDAT ??$_M_assign_dispatch@PAD@?$basic_string@DV?$char_traits@D@_STL@@V?$allocator@D@2@@_STL@@AAEAAV01@PAD0ABU__false_type@1@@Z
_TEXT	SEGMENT
___f$ = 8						; size = 4
$T104837 = 11						; size = 1
___l$ = 12						; size = 4
___formal$ = 16						; size = 4
??$_M_assign_dispatch@PAD@?$basic_string@DV?$char_traits@D@_STL@@V?$allocator@D@2@@_STL@@AAEAAV01@PAD0ABU__false_type@1@@Z PROC NEAR ; _STL::basic_string<char,_STL::char_traits<char>,_STL::allocator<char> >::_M_assign_dispatch<char *>, COMDAT
; _this$ = ecx

; 624  :   _Self& _M_assign_dispatch(_InputIter __f, _InputIter __l,

  00000	55		 push	 ebp
  00001	8b ec		 mov	 ebp, esp
  00003	56		 push	 esi
  00004	8b f1		 mov	 esi, ecx

; 625  : 			    const __false_type&)  {
; 626  :     pointer __cur = this->_M_start;
; 627  :     while (__f != __l && __cur != this->_M_finish) {

  00006	8b 4d 08	 mov	 ecx, DWORD PTR ___f$[ebp]
  00009	8b 06		 mov	 eax, DWORD PTR [esi]
  0000b	57		 push	 edi
  0000c	8b 7d 0c	 mov	 edi, DWORD PTR ___l$[ebp]
  0000f	3b cf		 cmp	 ecx, edi
  00011	74 13		 je	 SHORT $L104842
$L100653:
  00013	3b 46 04	 cmp	 eax, DWORD PTR [esi+4]
  00016	74 0a		 je	 SHORT $L100654

; 628  :       _Traits::assign(*__cur, *__f);

  00018	8a 11		 mov	 dl, BYTE PTR [ecx]

; 629  :       ++__f;

  0001a	41		 inc	 ecx
  0001b	88 10		 mov	 BYTE PTR [eax], dl

; 630  :       ++__cur;

  0001d	40		 inc	 eax
  0001e	3b cf		 cmp	 ecx, edi
  00020	75 f1		 jne	 SHORT $L100653
$L100654:

; 631  :     }
; 632  :     if (__f == __l)

  00022	3b cf		 cmp	 ecx, edi
  00024	75 0d		 jne	 SHORT $L100655
$L104842:

; 633  :       erase(__cur, end());

  00026	ff 76 04	 push	 DWORD PTR [esi+4]
  00029	8b ce		 mov	 ecx, esi
  0002b	50		 push	 eax
  0002c	e8 00 00 00 00	 call	 ?erase@?$basic_string@DV?$char_traits@D@_STL@@V?$allocator@D@2@@_STL@@QAEPADPAD0@Z ; _STL::basic_string<char,_STL::char_traits<char>,_STL::allocator<char> >::erase

; 634  :     else

  00031	eb 0d		 jmp	 SHORT $L104839
$L100655:

; 635  :       append(__f, __l);

  00033	8d 45 0b	 lea	 eax, DWORD PTR $T104837[ebp]
  00036	50		 push	 eax
  00037	57		 push	 edi
  00038	51		 push	 ecx
  00039	8b ce		 mov	 ecx, esi
  0003b	e8 00 00 00 00	 call	 ??$append@PAD@?$basic_string@DV?$char_traits@D@_STL@@V?$allocator@D@2@@_STL@@AAEAAV01@PAD0ABUforward_iterator_tag@1@@Z ; _STL::basic_string<char,_STL::char_traits<char>,_STL::allocator<char> >::append<char *>
$L104839:
  00040	5f		 pop	 edi

; 636  :     return *this;

  00041	8b c6		 mov	 eax, esi
  00043	5e		 pop	 esi

; 637  :   }

  00044	5d		 pop	 ebp
  00045	c2 0c 00	 ret	 12			; 0000000cH
??$_M_assign_dispatch@PAD@?$basic_string@DV?$char_traits@D@_STL@@V?$allocator@D@2@@_STL@@AAEAAV01@PAD0ABU__false_type@1@@Z ENDP ; _STL::basic_string<char,_STL::char_traits<char>,_STL::allocator<char> >::_M_assign_dispatch<char *>
_TEXT	ENDS
PUBLIC	??$assign@PAD@?$basic_string@DV?$char_traits@D@_STL@@V?$allocator@D@2@@_STL@@QAEAAV01@PAD0@Z ; _STL::basic_string<char,_STL::char_traits<char>,_STL::allocator<char> >::assign<char *>
; Function compile flags: /Ogsy
;	COMDAT ??$assign@PAD@?$basic_string@DV?$char_traits@D@_STL@@V?$allocator@D@2@@_STL@@QAEAAV01@PAD0@Z
_TEXT	SEGMENT
___first$ = 8						; size = 4
___last$ = 12						; size = 4
$T104845 = 15						; size = 1
??$assign@PAD@?$basic_string@DV?$char_traits@D@_STL@@V?$allocator@D@2@@_STL@@QAEAAV01@PAD0@Z PROC NEAR ; _STL::basic_string<char,_STL::char_traits<char>,_STL::allocator<char> >::assign<char *>, COMDAT
; _this$ = ecx

; 642  :   template <class _InputIter> _Self& assign(_InputIter __first, _InputIter __last) {

  00000	55		 push	 ebp
  00001	8b ec		 mov	 ebp, esp

; 643  :     typedef typename _Is_integer<_InputIter>::_Integral _Integral;
; 644  :     return _M_assign_dispatch(__first, __last, _Integral());

  00003	8d 45 0f	 lea	 eax, DWORD PTR $T104845[ebp]
  00006	50		 push	 eax
  00007	ff 75 0c	 push	 DWORD PTR ___last$[ebp]
  0000a	ff 75 08	 push	 DWORD PTR ___first$[ebp]
  0000d	e8 00 00 00 00	 call	 ??$_M_assign_dispatch@PAD@?$basic_string@DV?$char_traits@D@_STL@@V?$allocator@D@2@@_STL@@AAEAAV01@PAD0ABU__false_type@1@@Z ; _STL::basic_string<char,_STL::char_traits<char>,_STL::allocator<char> >::_M_assign_dispatch<char *>

; 645  :   }

  00012	5d		 pop	 ebp
  00013	c2 08 00	 ret	 8
??$assign@PAD@?$basic_string@DV?$char_traits@D@_STL@@V?$allocator@D@2@@_STL@@QAEAAV01@PAD0@Z ENDP ; _STL::basic_string<char,_STL::char_traits<char>,_STL::allocator<char> >::assign<char *>
_TEXT	ENDS
PUBLIC	??4?$basic_string@DV?$char_traits@D@_STL@@V?$allocator@D@2@@_STL@@QAEAAV01@PBD@Z ; _STL::basic_string<char,_STL::char_traits<char>,_STL::allocator<char> >::operator=
; Function compile flags: /Ogsy
;	COMDAT ??4?$basic_string@DV?$char_traits@D@_STL@@V?$allocator@D@2@@_STL@@QAEAAV01@PBD@Z
_TEXT	SEGMENT
___s$ = 8						; size = 4
??4?$basic_string@DV?$char_traits@D@_STL@@V?$allocator@D@2@@_STL@@QAEAAV01@PBD@Z PROC NEAR ; _STL::basic_string<char,_STL::char_traits<char>,_STL::allocator<char> >::operator=, COMDAT
; _this$ = ecx

; 313  :   _Self& operator=(const _CharT* __s) { 

  00000	56		 push	 esi

; 314  :     _STLP_FIX_LITERAL_BUG(__s)
; 315  :     return assign(__s, __s + traits_type::length(__s)); 

  00001	8b 74 24 08	 mov	 esi, DWORD PTR ___s$[esp]
  00005	57		 push	 edi
  00006	56		 push	 esi
  00007	8b f9		 mov	 edi, ecx
  00009	e8 00 00 00 00	 call	 _strlen
  0000e	59		 pop	 ecx
  0000f	03 c6		 add	 eax, esi
  00011	50		 push	 eax
  00012	56		 push	 esi
  00013	8b cf		 mov	 ecx, edi
  00015	e8 00 00 00 00	 call	 ?assign@?$basic_string@DV?$char_traits@D@_STL@@V?$allocator@D@2@@_STL@@QAEAAV12@PBD0@Z ; _STL::basic_string<char,_STL::char_traits<char>,_STL::allocator<char> >::assign
  0001a	5f		 pop	 edi
  0001b	5e		 pop	 esi

; 316  :   }

  0001c	c2 04 00	 ret	 4
??4?$basic_string@DV?$char_traits@D@_STL@@V?$allocator@D@2@@_STL@@QAEAAV01@PBD@Z ENDP ; _STL::basic_string<char,_STL::char_traits<char>,_STL::allocator<char> >::operator=
_TEXT	ENDS
PUBLIC	??Y?$basic_string@DV?$char_traits@D@_STL@@V?$allocator@D@2@@_STL@@QAEAAV01@PBD@Z ; _STL::basic_string<char,_STL::char_traits<char>,_STL::allocator<char> >::operator+=
; Function compile flags: /Ogsy
;	COMDAT ??Y?$basic_string@DV?$char_traits@D@_STL@@V?$allocator@D@2@@_STL@@QAEAAV01@PBD@Z
_TEXT	SEGMENT
___s$ = 8						; size = 4
??Y?$basic_string@DV?$char_traits@D@_STL@@V?$allocator@D@2@@_STL@@QAEAAV01@PBD@Z PROC NEAR ; _STL::basic_string<char,_STL::char_traits<char>,_STL::allocator<char> >::operator+=, COMDAT
; _this$ = ecx

; 481  :   _Self& operator+=(const _CharT* __s) { _STLP_FIX_LITERAL_BUG(__s) return append(__s); }

  00000	e9 00 00 00 00	 jmp	 ?append@?$basic_string@DV?$char_traits@D@_STL@@V?$allocator@D@2@@_STL@@QAEAAV12@PBD@Z ; _STL::basic_string<char,_STL::char_traits<char>,_STL::allocator<char> >::append
??Y?$basic_string@DV?$char_traits@D@_STL@@V?$allocator@D@2@@_STL@@QAEAAV01@PBD@Z ENDP ; _STL::basic_string<char,_STL::char_traits<char>,_STL::allocator<char> >::operator+=
_TEXT	ENDS
PUBLIC	??4?$basic_string@DV?$char_traits@D@_STL@@V?$allocator@D@2@@_STL@@QAEAAV01@ABV01@@Z ; _STL::basic_string<char,_STL::char_traits<char>,_STL::allocator<char> >::operator=
; Function compile flags: /Ogsy
;	COMDAT ??4?$basic_string@DV?$char_traits@D@_STL@@V?$allocator@D@2@@_STL@@QAEAAV01@ABV01@@Z
_TEXT	SEGMENT
___s$ = 8						; size = 4
$T104861 = 11						; size = 1
??4?$basic_string@DV?$char_traits@D@_STL@@V?$allocator@D@2@@_STL@@QAEAAV01@ABV01@@Z PROC NEAR ; _STL::basic_string<char,_STL::char_traits<char>,_STL::allocator<char> >::operator=, COMDAT
; _this$ = ecx

; 307  :   _Self& operator=(const _Self& __s) {

  00000	55		 push	 ebp
  00001	8b ec		 mov	 ebp, esp

; 308  :     if (&__s != this) 

  00003	8b 45 08	 mov	 eax, DWORD PTR ___s$[ebp]
  00006	56		 push	 esi
  00007	8b f1		 mov	 esi, ecx
  00009	3b c6		 cmp	 eax, esi
  0000b	74 10		 je	 SHORT $L104862

; 309  :       assign(__s._M_start, __s._M_finish);

  0000d	8d 4d 0b	 lea	 ecx, DWORD PTR $T104861[ebp]
  00010	51		 push	 ecx
  00011	ff 70 04	 push	 DWORD PTR [eax+4]
  00014	8b ce		 mov	 ecx, esi
  00016	ff 30		 push	 DWORD PTR [eax]
  00018	e8 00 00 00 00	 call	 ??$_M_assign_dispatch@PAD@?$basic_string@DV?$char_traits@D@_STL@@V?$allocator@D@2@@_STL@@AAEAAV01@PAD0ABU__false_type@1@@Z ; _STL::basic_string<char,_STL::char_traits<char>,_STL::allocator<char> >::_M_assign_dispatch<char *>
$L104862:

; 310  :     return *this;

  0001d	8b c6		 mov	 eax, esi
  0001f	5e		 pop	 esi

; 311  :   }

  00020	5d		 pop	 ebp
  00021	c2 04 00	 ret	 4
??4?$basic_string@DV?$char_traits@D@_STL@@V?$allocator@D@2@@_STL@@QAEAAV01@ABV01@@Z ENDP ; _STL::basic_string<char,_STL::char_traits<char>,_STL::allocator<char> >::operator=
_TEXT	ENDS
PUBLIC	??0ServerInfoFileParser@@QAE@V?$basic_string@DV?$char_traits@D@_STL@@V?$allocator@D@2@@_STL@@@Z ; ServerInfoFileParser::ServerInfoFileParser
;	COMDAT xdata$x
; File c:\stlport-4.6.1\stlport\stl\_alloc.h
xdata$x	SEGMENT
$T104910 DD	0ffffffffH
	DD	FLAT:$L104868
	DD	00H
	DD	FLAT:$L104869
$T104908 DD	019930520H
	DD	02H
	DD	FLAT:$T104910
	DD	2 DUP(00H)
	DD	2 DUP(00H)
; Function compile flags: /Ogsy
; File c:\darkeden\designed_common\project\client\serverinfofileparser.cpp
xdata$x	ENDS
;	COMDAT ??0ServerInfoFileParser@@QAE@V?$basic_string@DV?$char_traits@D@_STL@@V?$allocator@D@2@@_STL@@@Z
_TEXT	SEGMENT
_this$ = -16						; size = 4
__$EHRec$ = -12						; size = 12
_infofilename$ = 8					; size = 12
??0ServerInfoFileParser@@QAE@V?$basic_string@DV?$char_traits@D@_STL@@V?$allocator@D@2@@_STL@@@Z PROC NEAR ; ServerInfoFileParser::ServerInfoFileParser, COMDAT
; _this$ = ecx

; 10   : {

  00000	b8 00 00 00 00	 mov	 eax, __ehhandler$??0ServerInfoFileParser@@QAE@V?$basic_string@DV?$char_traits@D@_STL@@V?$allocator@D@2@@_STL@@@Z
  00005	e8 00 00 00 00	 call	 __EH_prolog
  0000a	51		 push	 ecx
  0000b	56		 push	 esi
  0000c	8b f1		 mov	 esi, ecx
  0000e	89 75 f0	 mov	 DWORD PTR _this$[ebp], esi
  00011	83 65 fc 00	 and	 DWORD PTR __$EHRec$[ebp+8], 0
  00015	e8 00 00 00 00	 call	 ??0?$basic_string@DV?$char_traits@D@_STL@@V?$allocator@D@2@@_STL@@QAE@XZ ; _STL::basic_string<char,_STL::char_traits<char>,_STL::allocator<char> >::basic_string<char,_STL::char_traits<char>,_STL::allocator<char> >

; 11   : 	m_FileName = infofilename;

  0001a	8d 45 08	 lea	 eax, DWORD PTR _infofilename$[ebp]
  0001d	50		 push	 eax
  0001e	8b ce		 mov	 ecx, esi
  00020	c6 45 fc 01	 mov	 BYTE PTR __$EHRec$[ebp+8], 1
  00024	e8 00 00 00 00	 call	 ??4?$basic_string@DV?$char_traits@D@_STL@@V?$allocator@D@2@@_STL@@QAEAAV01@ABV01@@Z ; _STL::basic_string<char,_STL::char_traits<char>,_STL::allocator<char> >::operator=

; 12   : }

  00029	8b 45 10	 mov	 eax, DWORD PTR _infofilename$[ebp+8]
  0002c	2b 45 08	 sub	 eax, DWORD PTR _infofilename$[ebp]
  0002f	83 4d fc ff	 or	 DWORD PTR __$EHRec$[ebp+8], -1
  00033	50		 push	 eax
  00034	ff 75 08	 push	 DWORD PTR _infofilename$[ebp]
  00037	8d 4d 10	 lea	 ecx, DWORD PTR _infofilename$[ebp+8]
  0003a	e8 00 00 00 00	 call	 ?deallocate@?$allocator@D@_STL@@QAEXPADI@Z ; _STL::allocator<char>::deallocate
  0003f	8b 4d f4	 mov	 ecx, DWORD PTR __$EHRec$[ebp]
  00042	8b c6		 mov	 eax, esi
  00044	5e		 pop	 esi
  00045	64 89 0d 00 00
	00 00		 mov	 DWORD PTR fs:__except_list, ecx
  0004c	c9		 leave
  0004d	c2 0c 00	 ret	 12			; 0000000cH
_TEXT	ENDS
;	COMDAT text$x
text$x	SEGMENT
$L104868:
  00000	8d 4d 08	 lea	 ecx, DWORD PTR _infofilename$[ebp]
  00003	e9 00 00 00 00	 jmp	 ??1?$basic_string@DV?$char_traits@D@_STL@@V?$allocator@D@2@@_STL@@QAE@XZ ; _STL::basic_string<char,_STL::char_traits<char>,_STL::allocator<char> >::~basic_string<char,_STL::char_traits<char>,_STL::allocator<char> >
$L104869:
  00008	8b 4d f0	 mov	 ecx, DWORD PTR _this$[ebp]
  0000b	e9 00 00 00 00	 jmp	 ??1?$basic_string@DV?$char_traits@D@_STL@@V?$allocator@D@2@@_STL@@QAE@XZ ; _STL::basic_string<char,_STL::char_traits<char>,_STL::allocator<char> >::~basic_string<char,_STL::char_traits<char>,_STL::allocator<char> >
__ehhandler$??0ServerInfoFileParser@@QAE@V?$basic_string@DV?$char_traits@D@_STL@@V?$allocator@D@2@@_STL@@@Z:
  00010	b8 00 00 00 00	 mov	 eax, OFFSET FLAT:$T104908
  00015	e9 00 00 00 00	 jmp	 ___CxxFrameHandler
text$x	ENDS
??0ServerInfoFileParser@@QAE@V?$basic_string@DV?$char_traits@D@_STL@@V?$allocator@D@2@@_STL@@@Z ENDP ; ServerInfoFileParser::ServerInfoFileParser
PUBLIC	?imbue@?$basic_ios@DV?$char_traits@D@_STL@@@_STL@@QAE?AVlocale@2@ABV32@@Z ; _STL::basic_ios<char,_STL::char_traits<char> >::imbue
EXTRN	?pubimbue@?$basic_streambuf@DV?$char_traits@D@_STL@@@_STL@@QAE?AVlocale@2@ABV32@@Z:NEAR ; _STL::basic_streambuf<char,_STL::char_traits<char> >::pubimbue
EXTRN	??0locale@_STL@@QAE@ABV01@@Z:NEAR		; _STL::locale::locale
EXTRN	?_M_get_facet@locale@_STL@@QBEPAVfacet@12@ABVid@12@@Z:NEAR ; _STL::locale::_M_get_facet
EXTRN	?id@?$ctype@D@_STL@@2V0locale@2@A:DWORD		; _STL::ctype<char>::id
EXTRN	?imbue@ios_base@_STL@@QAE?AVlocale@2@ABV32@@Z:NEAR ; _STL::ios_base::imbue
EXTRN	?id@?$numpunct@D@_STL@@2V0locale@2@A:DWORD	; _STL::numpunct<char>::id
;	COMDAT xdata$x
; File c:\stlport-4.6.1\stlport\stl\_alloc.h
xdata$x	SEGMENT
$T104963 DD	0ffffffffH
	DD	FLAT:$L104920
	DD	00H
	DD	FLAT:$L104917
	DD	01H
	DD	FLAT:$L104919
$T104961 DD	019930520H
	DD	03H
	DD	FLAT:$T104963
	DD	2 DUP(00H)
	DD	2 DUP(00H)
; Function compile flags: /Ogsy
; File c:\stlport-4.6.1\stlport\stl\_ios.c
xdata$x	ENDS
;	COMDAT ?imbue@?$basic_ios@DV?$char_traits@D@_STL@@@_STL@@QAE?AVlocale@2@ABV32@@Z
_TEXT	SEGMENT
$T104916 = -32						; size = 12
$T104921 = -20						; size = 4
$T104915 = -16						; size = 4
__$EHRec$ = -12						; size = 12
___$ReturnUdt$ = 8					; size = 4
___tmp$ = 12						; size = 4
___loc$ = 12						; size = 4
?imbue@?$basic_ios@DV?$char_traits@D@_STL@@@_STL@@QAE?AVlocale@2@ABV32@@Z PROC NEAR ; _STL::basic_ios<char,_STL::char_traits<char> >::imbue, COMDAT
; _this$ = ecx

; 74   : {

  00000	b8 00 00 00 00	 mov	 eax, __ehhandler$?imbue@?$basic_ios@DV?$char_traits@D@_STL@@@_STL@@QAE?AVlocale@2@ABV32@@Z
  00005	e8 00 00 00 00	 call	 __EH_prolog
  0000a	83 ec 14	 sub	 esp, 20			; 00000014H
  0000d	83 65 ec 00	 and	 DWORD PTR $T104921[ebp], 0
  00011	53		 push	 ebx
  00012	56		 push	 esi
  00013	57		 push	 edi

; 75   :   locale __tmp = ios_base::imbue(__loc);

  00014	8b 7d 0c	 mov	 edi, DWORD PTR ___loc$[ebp]
  00017	57		 push	 edi
  00018	8d 45 0c	 lea	 eax, DWORD PTR ___tmp$[ebp]
  0001b	50		 push	 eax
  0001c	8b f1		 mov	 esi, ecx
  0001e	e8 00 00 00 00	 call	 ?imbue@ios_base@_STL@@QAE?AVlocale@2@ABV32@@Z ; _STL::ios_base::imbue

; 76   : 
; 77   :   if (_M_streambuf)

  00023	8b 4e 58	 mov	 ecx, DWORD PTR [esi+88]
  00026	33 db		 xor	 ebx, ebx
  00028	43		 inc	 ebx
  00029	85 c9		 test	 ecx, ecx
  0002b	89 5d fc	 mov	 DWORD PTR __$EHRec$[ebp+8], ebx
  0002e	74 12		 je	 SHORT $L100954

; 78   :     _M_streambuf->pubimbue(__loc);

  00030	57		 push	 edi
  00031	8d 45 f0	 lea	 eax, DWORD PTR $T104915[ebp]
  00034	50		 push	 eax
  00035	e8 00 00 00 00	 call	 ?pubimbue@?$basic_streambuf@DV?$char_traits@D@_STL@@@_STL@@QAE?AVlocale@2@ABV32@@Z ; _STL::basic_streambuf<char,_STL::char_traits<char> >::pubimbue
  0003a	8d 4d f0	 lea	 ecx, DWORD PTR $T104915[ebp]
  0003d	e8 00 00 00 00	 call	 ??1locale@_STL@@QAE@XZ	; _STL::locale::~locale
$L100954:

; 79   : 
; 80   :   // no throwing here
; 81   :   this->_M_cached_ctype = __loc._M_get_facet(ctype<char_type>::id) ;

  00042	68 00 00 00 00	 push	 OFFSET FLAT:?id@?$ctype@D@_STL@@2V0locale@2@A ; _STL::ctype<char>::id
  00047	8b cf		 mov	 ecx, edi
  00049	e8 00 00 00 00	 call	 ?_M_get_facet@locale@_STL@@QBEPAVfacet@12@ABVid@12@@Z ; _STL::locale::_M_get_facet

; 82   :   this->_M_cached_numpunct = __loc._M_get_facet(numpunct<char_type>::id) ;

  0004e	68 00 00 00 00	 push	 OFFSET FLAT:?id@?$numpunct@D@_STL@@2V0locale@2@A ; _STL::numpunct<char>::id
  00053	8b cf		 mov	 ecx, edi
  00055	89 46 40	 mov	 DWORD PTR [esi+64], eax
  00058	e8 00 00 00 00	 call	 ?_M_get_facet@locale@_STL@@QBEPAVfacet@12@ABVid@12@@Z ; _STL::locale::_M_get_facet

; 83   :   this->_M_cached_grouping = ((numpunct<char_type>*)_M_cached_numpunct)->grouping() ;

  0005d	8d 4d e0	 lea	 ecx, DWORD PTR $T104916[ebp]
  00060	51		 push	 ecx
  00061	8b c8		 mov	 ecx, eax
  00063	89 46 44	 mov	 DWORD PTR [esi+68], eax
  00066	e8 00 00 00 00	 call	 ?grouping@?$numpunct@D@_STL@@QBE?AV?$basic_string@DV?$char_traits@D@_STL@@V?$allocator@D@2@@2@XZ ; _STL::numpunct<char>::grouping
  0006b	50		 push	 eax
  0006c	8d 4e 48	 lea	 ecx, DWORD PTR [esi+72]
  0006f	c6 45 fc 02	 mov	 BYTE PTR __$EHRec$[ebp+8], 2
  00073	e8 00 00 00 00	 call	 ??4?$basic_string@DV?$char_traits@D@_STL@@V?$allocator@D@2@@_STL@@QAEAAV01@ABV01@@Z ; _STL::basic_string<char,_STL::char_traits<char>,_STL::allocator<char> >::operator=
  00078	8b 45 e8	 mov	 eax, DWORD PTR $T104916[ebp+8]
  0007b	2b 45 e0	 sub	 eax, DWORD PTR $T104916[ebp]
  0007e	8d 4d e8	 lea	 ecx, DWORD PTR $T104916[ebp+8]
  00081	50		 push	 eax
  00082	ff 75 e0	 push	 DWORD PTR $T104916[ebp]
  00085	88 5d fc	 mov	 BYTE PTR __$EHRec$[ebp+8], bl
  00088	e8 00 00 00 00	 call	 ?deallocate@?$allocator@D@_STL@@QAEXPADI@Z ; _STL::allocator<char>::deallocate

; 84   :   return __tmp;

  0008d	8b 4d 08	 mov	 ecx, DWORD PTR ___$ReturnUdt$[ebp]
  00090	8d 45 0c	 lea	 eax, DWORD PTR ___tmp$[ebp]
  00093	50		 push	 eax
  00094	e8 00 00 00 00	 call	 ??0locale@_STL@@QAE@ABV01@@Z ; _STL::locale::locale
  00099	8d 4d 0c	 lea	 ecx, DWORD PTR ___tmp$[ebp]
  0009c	89 5d ec	 mov	 DWORD PTR $T104921[ebp], ebx
  0009f	c6 45 fc 00	 mov	 BYTE PTR __$EHRec$[ebp+8], 0
  000a3	e8 00 00 00 00	 call	 ??1locale@_STL@@QAE@XZ	; _STL::locale::~locale

; 85   : }

  000a8	8b 4d f4	 mov	 ecx, DWORD PTR __$EHRec$[ebp]
  000ab	8b 45 08	 mov	 eax, DWORD PTR ___$ReturnUdt$[ebp]
  000ae	5f		 pop	 edi
  000af	5e		 pop	 esi
  000b0	5b		 pop	 ebx
  000b1	64 89 0d 00 00
	00 00		 mov	 DWORD PTR fs:__except_list, ecx
  000b8	c9		 leave
  000b9	c2 08 00	 ret	 8
_TEXT	ENDS
;	COMDAT text$x
text$x	SEGMENT
$L104917:
  00000	8d 4d 0c	 lea	 ecx, DWORD PTR ___tmp$[ebp]
  00003	e9 00 00 00 00	 jmp	 ??1locale@_STL@@QAE@XZ	; _STL::locale::~locale
$L104919:
  00008	8d 4d e0	 lea	 ecx, DWORD PTR $T104916[ebp]
  0000b	e9 00 00 00 00	 jmp	 ??1?$basic_string@DV?$char_traits@D@_STL@@V?$allocator@D@2@@_STL@@QAE@XZ ; _STL::basic_string<char,_STL::char_traits<char>,_STL::allocator<char> >::~basic_string<char,_STL::char_traits<char>,_STL::allocator<char> >
$L104920:
  00010	8b 45 ec	 mov	 eax, DWORD PTR $T104921[ebp]
  00013	83 e0 01	 and	 eax, 1
  00016	0f 84 0c 00 00
	00		 je	 $L104922
  0001c	83 65 ec fe	 and	 DWORD PTR $T104921[ebp], -2 ; fffffffeH
  00020	8b 4d 08	 mov	 ecx, DWORD PTR ___$ReturnUdt$[ebp]
  00023	e9 00 00 00 00	 jmp	 ??1locale@_STL@@QAE@XZ	; _STL::locale::~locale
$L104922:
  00028	c3		 ret	 0
__ehhandler$?imbue@?$basic_ios@DV?$char_traits@D@_STL@@@_STL@@QAE?AVlocale@2@ABV32@@Z:
  00029	b8 00 00 00 00	 mov	 eax, OFFSET FLAT:$T104961
  0002e	e9 00 00 00 00	 jmp	 ___CxxFrameHandler
text$x	ENDS
?imbue@?$basic_ios@DV?$char_traits@D@_STL@@@_STL@@QAE?AVlocale@2@ABV32@@Z ENDP ; _STL::basic_ios<char,_STL::char_traits<char> >::imbue
PUBLIC	?init@?$basic_ios@DV?$char_traits@D@_STL@@@_STL@@IAEXPAV?$basic_streambuf@DV?$char_traits@D@_STL@@@2@@Z ; _STL::basic_ios<char,_STL::char_traits<char> >::init
;	COMDAT xdata$x
; File c:\stlport-4.6.1\stlport\stl\_ios.h
xdata$x	SEGMENT
$T105016 DD	0ffffffffH
	DD	FLAT:$L104970
$T105014 DD	019930520H
	DD	01H
	DD	FLAT:$T105016
	DD	2 DUP(00H)
	DD	2 DUP(00H)
; Function compile flags: /Ogsy
; File c:\stlport-4.6.1\stlport\stl\_ios.c
xdata$x	ENDS
;	COMDAT ?init@?$basic_ios@DV?$char_traits@D@_STL@@@_STL@@IAEXPAV?$basic_streambuf@DV?$char_traits@D@_STL@@@2@@Z
_TEXT	SEGMENT
$T104968 = -20						; size = 4
$T104969 = -16						; size = 4
__$EHRec$ = -12						; size = 12
___sb$ = 8						; size = 4
?init@?$basic_ios@DV?$char_traits@D@_STL@@@_STL@@IAEXPAV?$basic_streambuf@DV?$char_traits@D@_STL@@@2@@Z PROC NEAR ; _STL::basic_ios<char,_STL::char_traits<char> >::init, COMDAT
; _this$ = ecx

; 100  : {

  00000	b8 00 00 00 00	 mov	 eax, __ehhandler$?init@?$basic_ios@DV?$char_traits@D@_STL@@@_STL@@IAEXPAV?$basic_streambuf@DV?$char_traits@D@_STL@@@2@@Z
  00005	e8 00 00 00 00	 call	 __EH_prolog
  0000a	51		 push	 ecx
  0000b	51		 push	 ecx
  0000c	56		 push	 esi
  0000d	57		 push	 edi

; 101  :   this->rdbuf(__sb);

  0000e	ff 75 08	 push	 DWORD PTR ___sb$[ebp]
  00011	8b f1		 mov	 esi, ecx
  00013	e8 00 00 00 00	 call	 ?rdbuf@?$basic_ios@DV?$char_traits@D@_STL@@@_STL@@QAEPAV?$basic_streambuf@DV?$char_traits@D@_STL@@@2@PAV32@@Z ; _STL::basic_ios<char,_STL::char_traits<char> >::rdbuf

; 102  :   this->imbue(locale());

  00018	8d 4d ec	 lea	 ecx, DWORD PTR $T104968[ebp]
  0001b	e8 00 00 00 00	 call	 ??0locale@_STL@@QAE@XZ	; _STL::locale::locale
  00020	50		 push	 eax
  00021	8d 45 f0	 lea	 eax, DWORD PTR $T104969[ebp]
  00024	33 ff		 xor	 edi, edi
  00026	50		 push	 eax
  00027	8b ce		 mov	 ecx, esi
  00029	89 7d fc	 mov	 DWORD PTR __$EHRec$[ebp+8], edi
  0002c	e8 00 00 00 00	 call	 ?imbue@?$basic_ios@DV?$char_traits@D@_STL@@@_STL@@QAE?AVlocale@2@ABV32@@Z ; _STL::basic_ios<char,_STL::char_traits<char> >::imbue
  00031	8d 4d f0	 lea	 ecx, DWORD PTR $T104969[ebp]
  00034	e8 00 00 00 00	 call	 ??1locale@_STL@@QAE@XZ	; _STL::locale::~locale
  00039	83 4d fc ff	 or	 DWORD PTR __$EHRec$[ebp+8], -1
  0003d	8d 4d ec	 lea	 ecx, DWORD PTR $T104968[ebp]
  00040	e8 00 00 00 00	 call	 ??1locale@_STL@@QAE@XZ	; _STL::locale::~locale

; 103  :   this->tie(0);
; 104  :   this->_M_set_exception_mask(ios_base::goodbit);
; 105  :   this->_M_clear_nothrow(__sb != 0 ? ios_base::goodbit : ios_base::badbit);
; 106  :   ios_base::flags(ios_base::skipws | ios_base::dec);
; 107  :   ios_base::width(0);
; 108  :   ios_base::precision(6);
; 109  :   this->fill(widen(' '));

  00045	8b 4e 40	 mov	 ecx, DWORD PTR [esi+64]
  00048	33 c0		 xor	 eax, eax
  0004a	39 7d 08	 cmp	 DWORD PTR ___sb$[ebp], edi
  0004d	89 7e 5c	 mov	 DWORD PTR [esi+92], edi
  00050	0f 94 c0	 sete	 al
  00053	89 7e 14	 mov	 DWORD PTR [esi+20], edi
  00056	c7 46 04 08 10
	00 00		 mov	 DWORD PTR [esi+4], 4104	; 00001008H
  0005d	89 7e 1c	 mov	 DWORD PTR [esi+28], edi
  00060	c7 46 18 06 00
	00 00		 mov	 DWORD PTR [esi+24], 6
  00067	6a 20		 push	 32			; 00000020H
  00069	89 46 08	 mov	 DWORD PTR [esi+8], eax
  0006c	8b 01		 mov	 eax, DWORD PTR [ecx]
  0006e	ff 50 18	 call	 DWORD PTR [eax+24]

; 110  :   // We don't need to worry about any of the three arrays: they are
; 111  :   // initialized correctly in ios_base's constructor.
; 112  : }

  00071	8b 4d f4	 mov	 ecx, DWORD PTR __$EHRec$[ebp]
  00074	88 46 54	 mov	 BYTE PTR [esi+84], al
  00077	5f		 pop	 edi
  00078	5e		 pop	 esi
  00079	64 89 0d 00 00
	00 00		 mov	 DWORD PTR fs:__except_list, ecx
  00080	c9		 leave
  00081	c2 04 00	 ret	 4
_TEXT	ENDS
;	COMDAT text$x
text$x	SEGMENT
$L104970:
  00000	8d 4d ec	 lea	 ecx, DWORD PTR $T104968[ebp]
  00003	e9 00 00 00 00	 jmp	 ??1locale@_STL@@QAE@XZ	; _STL::locale::~locale
__ehhandler$?init@?$basic_ios@DV?$char_traits@D@_STL@@@_STL@@IAEXPAV?$basic_streambuf@DV?$char_traits@D@_STL@@@2@@Z:
  00008	b8 00 00 00 00	 mov	 eax, OFFSET FLAT:$T105014
  0000d	e9 00 00 00 00	 jmp	 ___CxxFrameHandler
text$x	ENDS
?init@?$basic_ios@DV?$char_traits@D@_STL@@@_STL@@IAEXPAV?$basic_streambuf@DV?$char_traits@D@_STL@@@2@@Z ENDP ; _STL::basic_ios<char,_STL::char_traits<char> >::init
PUBLIC	??0?$basic_istream@DV?$char_traits@D@_STL@@@_STL@@QAE@PAV?$basic_streambuf@DV?$char_traits@D@_STL@@@1@@Z ; _STL::basic_istream<char,_STL::char_traits<char> >::basic_istream<char,_STL::char_traits<char> >
PUBLIC	??_8?$basic_istream@DV?$char_traits@D@_STL@@@_STL@@7B@ ; _STL::basic_istream<char,_STL::char_traits<char> >::`vbtable'
;	COMDAT xdata$x
; File c:\stlport-4.6.1\stlport\stl\_istream.h
xdata$x	SEGMENT
$T105027 DD	0ffffffffH
	DD	FLAT:$L105022
$T105025 DD	019930520H
	DD	01H
	DD	FLAT:$T105027
	DD	2 DUP(00H)
	DD	2 DUP(00H)
xdata$x	ENDS
;	COMDAT ??_8?$basic_istream@DV?$char_traits@D@_STL@@@_STL@@7B@
CONST	SEGMENT
??_8?$basic_istream@DV?$char_traits@D@_STL@@@_STL@@7B@ DD 00H ; _STL::basic_istream<char,_STL::char_traits<char> >::`vbtable'
	DD	08H
; Function compile flags: /Ogsy
CONST	ENDS
;	COMDAT ??0?$basic_istream@DV?$char_traits@D@_STL@@@_STL@@QAE@PAV?$basic_streambuf@DV?$char_traits@D@_STL@@@1@@Z
_TEXT	SEGMENT
_this$ = -20						; size = 4
$T105021 = -16						; size = 4
__$EHRec$ = -12						; size = 12
___buf$ = 8						; size = 4
_$initVBases$ = 12					; size = 4
??0?$basic_istream@DV?$char_traits@D@_STL@@@_STL@@QAE@PAV?$basic_streambuf@DV?$char_traits@D@_STL@@@1@@Z PROC NEAR ; _STL::basic_istream<char,_STL::char_traits<char> >::basic_istream<char,_STL::char_traits<char> >, COMDAT
; _this$ = ecx

; 84   :     basic_ios<_CharT, _Traits>(), _M_gcount(0) {

  00000	b8 00 00 00 00	 mov	 eax, __ehhandler$??0?$basic_istream@DV?$char_traits@D@_STL@@@_STL@@QAE@PAV?$basic_streambuf@DV?$char_traits@D@_STL@@@1@@Z
  00005	e8 00 00 00 00	 call	 __EH_prolog
  0000a	51		 push	 ecx
  0000b	51		 push	 ecx
  0000c	83 65 f0 00	 and	 DWORD PTR $T105021[ebp], 0
  00010	83 7d 0c 00	 cmp	 DWORD PTR _$initVBases$[ebp], 0
  00014	56		 push	 esi
  00015	8b f1		 mov	 esi, ecx
  00017	89 75 ec	 mov	 DWORD PTR _this$[ebp], esi
  0001a	74 19		 je	 SHORT $L100457
  0001c	8d 4e 08	 lea	 ecx, DWORD PTR [esi+8]
  0001f	c7 06 00 00 00
	00		 mov	 DWORD PTR [esi], OFFSET FLAT:??_8?$basic_istream@DV?$char_traits@D@_STL@@@_STL@@7B@
  00025	e8 00 00 00 00	 call	 ??0?$basic_ios@DV?$char_traits@D@_STL@@@_STL@@IAE@XZ ; _STL::basic_ios<char,_STL::char_traits<char> >::basic_ios<char,_STL::char_traits<char> >
  0002a	83 65 fc 00	 and	 DWORD PTR __$EHRec$[ebp+8], 0
  0002e	c7 45 f0 01 00
	00 00		 mov	 DWORD PTR $T105021[ebp], 1
$L100457:
  00035	8b 06		 mov	 eax, DWORD PTR [esi]
  00037	8b 40 04	 mov	 eax, DWORD PTR [eax+4]

; 85   :     this->init(__buf);

  0003a	ff 75 08	 push	 DWORD PTR ___buf$[ebp]
  0003d	c7 04 06 00 00
	00 00		 mov	 DWORD PTR [esi+eax], OFFSET FLAT:??_7?$basic_istream@DV?$char_traits@D@_STL@@@_STL@@6B@
  00044	8b 06		 mov	 eax, DWORD PTR [esi]
  00046	83 66 04 00	 and	 DWORD PTR [esi+4], 0
  0004a	8b 48 04	 mov	 ecx, DWORD PTR [eax+4]
  0004d	03 ce		 add	 ecx, esi
  0004f	e8 00 00 00 00	 call	 ?init@?$basic_ios@DV?$char_traits@D@_STL@@@_STL@@IAEXPAV?$basic_streambuf@DV?$char_traits@D@_STL@@@2@@Z ; _STL::basic_ios<char,_STL::char_traits<char> >::init

; 86   :   }

  00054	8b 4d f4	 mov	 ecx, DWORD PTR __$EHRec$[ebp]
  00057	8b c6		 mov	 eax, esi
  00059	5e		 pop	 esi
  0005a	64 89 0d 00 00
	00 00		 mov	 DWORD PTR fs:__except_list, ecx
  00061	c9		 leave
  00062	c2 08 00	 ret	 8
_TEXT	ENDS
;	COMDAT text$x
text$x	SEGMENT
$L105022:
  00000	8b 45 f0	 mov	 eax, DWORD PTR $T105021[ebp]
  00003	83 e0 01	 and	 eax, 1
  00006	0f 84 0f 00 00
	00		 je	 $L105023
  0000c	83 65 f0 fe	 and	 DWORD PTR $T105021[ebp], -2 ; fffffffeH
  00010	8b 4d ec	 mov	 ecx, DWORD PTR _this$[ebp]
  00013	83 c1 08	 add	 ecx, 8
  00016	e9 00 00 00 00	 jmp	 ??1?$basic_ios@DV?$char_traits@D@_STL@@@_STL@@UAE@XZ ; _STL::basic_ios<char,_STL::char_traits<char> >::~basic_ios<char,_STL::char_traits<char> >
$L105023:
  0001b	c3		 ret	 0
__ehhandler$??0?$basic_istream@DV?$char_traits@D@_STL@@@_STL@@QAE@PAV?$basic_streambuf@DV?$char_traits@D@_STL@@@1@@Z:
  0001c	b8 00 00 00 00	 mov	 eax, OFFSET FLAT:$T105025
  00021	e9 00 00 00 00	 jmp	 ___CxxFrameHandler
text$x	ENDS
??0?$basic_istream@DV?$char_traits@D@_STL@@@_STL@@QAE@PAV?$basic_streambuf@DV?$char_traits@D@_STL@@@1@@Z ENDP ; _STL::basic_istream<char,_STL::char_traits<char> >::basic_istream<char,_STL::char_traits<char> >
PUBLIC	??0?$basic_ifstream@DV?$char_traits@D@_STL@@@_STL@@QAE@PBDH@Z ; _STL::basic_ifstream<char,_STL::char_traits<char> >::basic_ifstream<char,_STL::char_traits<char> >
PUBLIC	??_8?$basic_ifstream@DV?$char_traits@D@_STL@@@_STL@@7B@ ; _STL::basic_ifstream<char,_STL::char_traits<char> >::`vbtable'
;	COMDAT xdata$x
; File c:\stlport-4.6.1\stlport\stl\_ios_base.h
xdata$x	SEGMENT
$T105050 DD	0ffffffffH
	DD	FLAT:$L105033
	DD	00H
	DD	FLAT:$L105035
	DD	01H
	DD	FLAT:$L105036
$T105048 DD	019930520H
	DD	03H
	DD	FLAT:$T105050
	DD	2 DUP(00H)
	DD	2 DUP(00H)
xdata$x	ENDS
;	COMDAT ??_8?$basic_ifstream@DV?$char_traits@D@_STL@@@_STL@@7B@
CONST	SEGMENT
??_8?$basic_ifstream@DV?$char_traits@D@_STL@@@_STL@@7B@ DD 00H ; _STL::basic_ifstream<char,_STL::char_traits<char> >::`vbtable'
	DD	0bcH
; Function compile flags: /Ogsy
; File c:\stlport-4.6.1\stlport\stl\_fstream.h
CONST	ENDS
;	COMDAT ??0?$basic_ifstream@DV?$char_traits@D@_STL@@@_STL@@QAE@PBDH@Z
_TEXT	SEGMENT
_this$ = -20						; size = 4
$T105032 = -16						; size = 4
__$EHRec$ = -12						; size = 12
___s$ = 8						; size = 4
___mod$ = 12						; size = 4
_$initVBases$ = 16					; size = 4
??0?$basic_ifstream@DV?$char_traits@D@_STL@@@_STL@@QAE@PBDH@Z PROC NEAR ; _STL::basic_ifstream<char,_STL::char_traits<char> >::basic_ifstream<char,_STL::char_traits<char> >, COMDAT
; _this$ = ecx

; 520  :     _M_buf() {

  00000	b8 00 00 00 00	 mov	 eax, __ehhandler$??0?$basic_ifstream@DV?$char_traits@D@_STL@@@_STL@@QAE@PBDH@Z
  00005	e8 00 00 00 00	 call	 __EH_prolog
  0000a	51		 push	 ecx
  0000b	51		 push	 ecx
  0000c	53		 push	 ebx
  0000d	56		 push	 esi
  0000e	57		 push	 edi
  0000f	33 ff		 xor	 edi, edi
  00011	33 db		 xor	 ebx, ebx
  00013	8b f1		 mov	 esi, ecx
  00015	47		 inc	 edi
  00016	39 5d 10	 cmp	 DWORD PTR _$initVBases$[ebp], ebx
  00019	89 75 ec	 mov	 DWORD PTR _this$[ebp], esi
  0001c	89 5d f0	 mov	 DWORD PTR $T105032[ebp], ebx
  0001f	74 17		 je	 SHORT $L100415
  00021	8d 8e bc 00 00
	00		 lea	 ecx, DWORD PTR [esi+188]
  00027	c7 06 00 00 00
	00		 mov	 DWORD PTR [esi], OFFSET FLAT:??_8?$basic_ifstream@DV?$char_traits@D@_STL@@@_STL@@7B@
  0002d	e8 00 00 00 00	 call	 ??0?$basic_ios@DV?$char_traits@D@_STL@@@_STL@@IAE@XZ ; _STL::basic_ios<char,_STL::char_traits<char> >::basic_ios<char,_STL::char_traits<char> >
  00032	89 5d fc	 mov	 DWORD PTR __$EHRec$[ebp+8], ebx
  00035	89 7d f0	 mov	 DWORD PTR $T105032[ebp], edi
$L100415:
  00038	53		 push	 ebx
  00039	53		 push	 ebx
  0003a	8b ce		 mov	 ecx, esi
  0003c	e8 00 00 00 00	 call	 ??0?$basic_istream@DV?$char_traits@D@_STL@@@_STL@@QAE@PAV?$basic_streambuf@DV?$char_traits@D@_STL@@@1@@Z ; _STL::basic_istream<char,_STL::char_traits<char> >::basic_istream<char,_STL::char_traits<char> >
  00041	8b 06		 mov	 eax, DWORD PTR [esi]
  00043	8b 40 04	 mov	 eax, DWORD PTR [eax+4]
  00046	89 7d fc	 mov	 DWORD PTR __$EHRec$[ebp+8], edi
  00049	8d 7e 08	 lea	 edi, DWORD PTR [esi+8]
  0004c	8b cf		 mov	 ecx, edi
  0004e	c7 04 06 00 00
	00 00		 mov	 DWORD PTR [esi+eax], OFFSET FLAT:??_7?$basic_ifstream@DV?$char_traits@D@_STL@@@_STL@@6B@
  00055	e8 00 00 00 00	 call	 ??0?$basic_filebuf@DV?$char_traits@D@_STL@@@_STL@@QAE@XZ ; _STL::basic_filebuf<char,_STL::char_traits<char> >::basic_filebuf<char,_STL::char_traits<char> >

; 521  :       this->init(&_M_buf);

  0005a	8b 06		 mov	 eax, DWORD PTR [esi]
  0005c	8b 48 04	 mov	 ecx, DWORD PTR [eax+4]
  0005f	57		 push	 edi
  00060	03 ce		 add	 ecx, esi
  00062	c6 45 fc 02	 mov	 BYTE PTR __$EHRec$[ebp+8], 2
  00066	e8 00 00 00 00	 call	 ?init@?$basic_ios@DV?$char_traits@D@_STL@@@_STL@@IAEXPAV?$basic_streambuf@DV?$char_traits@D@_STL@@@2@@Z ; _STL::basic_ios<char,_STL::char_traits<char> >::init

; 522  :       if (!_M_buf.open(__s, __mod | ios_base::in))

  0006b	8b 45 0c	 mov	 eax, DWORD PTR ___mod$[ebp]
  0006e	83 c8 08	 or	 eax, 8
  00071	50		 push	 eax
  00072	ff 75 08	 push	 DWORD PTR ___s$[ebp]
  00075	8b cf		 mov	 ecx, edi
  00077	e8 00 00 00 00	 call	 ?open@?$basic_filebuf@DV?$char_traits@D@_STL@@@_STL@@QAEPAV12@PBDH@Z ; _STL::basic_filebuf<char,_STL::char_traits<char> >::open
  0007c	85 c0		 test	 eax, eax
  0007e	75 13		 jne	 SHORT $L105042

; 523  : 	this->setstate(ios_base::failbit);

  00080	8b 06		 mov	 eax, DWORD PTR [esi]
  00082	8b 48 04	 mov	 ecx, DWORD PTR [eax+4]
  00085	03 ce		 add	 ecx, esi
  00087	8b 41 08	 mov	 eax, DWORD PTR [ecx+8]
  0008a	83 c8 04	 or	 eax, 4
  0008d	50		 push	 eax
  0008e	e8 00 00 00 00	 call	 ?clear@?$basic_ios@DV?$char_traits@D@_STL@@@_STL@@QAEXH@Z ; _STL::basic_ios<char,_STL::char_traits<char> >::clear
$L105042:

; 524  :   }

  00093	8b 4d f4	 mov	 ecx, DWORD PTR __$EHRec$[ebp]
  00096	5f		 pop	 edi
  00097	8b c6		 mov	 eax, esi
  00099	5e		 pop	 esi
  0009a	5b		 pop	 ebx
  0009b	64 89 0d 00 00
	00 00		 mov	 DWORD PTR fs:__except_list, ecx
  000a2	c9		 leave
  000a3	c2 0c 00	 ret	 12			; 0000000cH
_TEXT	ENDS
;	COMDAT text$x
text$x	SEGMENT
$L105033:
  00000	8b 45 f0	 mov	 eax, DWORD PTR $T105032[ebp]
  00003	83 e0 01	 and	 eax, 1
  00006	0f 84 12 00 00
	00		 je	 $L105034
  0000c	83 65 f0 fe	 and	 DWORD PTR $T105032[ebp], -2 ; fffffffeH
  00010	8b 4d ec	 mov	 ecx, DWORD PTR _this$[ebp]
  00013	81 c1 bc 00 00
	00		 add	 ecx, 188		; 000000bcH
  00019	e9 00 00 00 00	 jmp	 ??1?$basic_ios@DV?$char_traits@D@_STL@@@_STL@@UAE@XZ ; _STL::basic_ios<char,_STL::char_traits<char> >::~basic_ios<char,_STL::char_traits<char> >
$L105034:
  0001e	c3		 ret	 0
$L105035:
  0001f	8b 4d ec	 mov	 ecx, DWORD PTR _this$[ebp]
  00022	83 c1 08	 add	 ecx, 8
  00025	e9 00 00 00 00	 jmp	 ??1?$basic_istream@DV?$char_traits@D@_STL@@@_STL@@UAE@XZ ; _STL::basic_istream<char,_STL::char_traits<char> >::~basic_istream<char,_STL::char_traits<char> >
$L105036:
  0002a	8b 4d ec	 mov	 ecx, DWORD PTR _this$[ebp]
  0002d	83 c1 08	 add	 ecx, 8
  00030	e9 00 00 00 00	 jmp	 ??1?$basic_filebuf@DV?$char_traits@D@_STL@@@_STL@@UAE@XZ ; _STL::basic_filebuf<char,_STL::char_traits<char> >::~basic_filebuf<char,_STL::char_traits<char> >
__ehhandler$??0?$basic_ifstream@DV?$char_traits@D@_STL@@@_STL@@QAE@PBDH@Z:
  00035	b8 00 00 00 00	 mov	 eax, OFFSET FLAT:$T105048
  0003a	e9 00 00 00 00	 jmp	 ___CxxFrameHandler
text$x	ENDS
??0?$basic_ifstream@DV?$char_traits@D@_STL@@@_STL@@QAE@PBDH@Z ENDP ; _STL::basic_ifstream<char,_STL::char_traits<char> >::basic_ifstream<char,_STL::char_traits<char> >
PUBLIC	?getProperty@ServerInfoFileParser@@QAE?AV?$basic_string@DV?$char_traits@D@_STL@@V?$allocator@D@2@@_STL@@HV23@@Z ; ServerInfoFileParser::getProperty
PUBLIC	??_C@_01CLKCMJKC@?5?$AA@			; `string'
PUBLIC	??_C@_01JLIPDDHJ@?3?$AA@			; `string'
PUBLIC	??_C@_0BA@DCDCBIAO@Cannot?5find?5key?$AA@	; `string'
PUBLIC	??_C@_00CNPNBAHC@?$AA@				; `string'
EXTRN	__imp__MessageBoxA@16:NEAR
EXTRN	_memset:NEAR
EXTRN	___security_cookie:DWORD
EXTRN	@__security_check_cookie@4:NEAR
;	COMDAT xdata$x
; File c:\stlport-4.6.1\stlport\stl\_alloc.h
xdata$x	SEGMENT
$T105461 DD	0ffffffffH
	DD	FLAT:$L105063
	DD	00H
	DD	FLAT:$L105058
	DD	01H
	DD	FLAT:$L105059
	DD	02H
	DD	FLAT:$L105060
	DD	03H
	DD	FLAT:$L105061
	DD	04H
	DD	FLAT:$L105062
$T105445 DD	019930520H
	DD	06H
	DD	FLAT:$T105461
	DD	2 DUP(00H)
	DD	2 DUP(00H)
xdata$x	ENDS
;	COMDAT ??_C@_01JLIPDDHJ@?3?$AA@
CONST	SEGMENT
??_C@_01JLIPDDHJ@?3?$AA@ DB ':', 00H			; `string'
CONST	ENDS
;	COMDAT ??_C@_01CLKCMJKC@?5?$AA@
CONST	SEGMENT
??_C@_01CLKCMJKC@?5?$AA@ DB ' ', 00H			; `string'
CONST	ENDS
;	COMDAT ??_C@_0BA@DCDCBIAO@Cannot?5find?5key?$AA@
CONST	SEGMENT
??_C@_0BA@DCDCBIAO@Cannot?5find?5key?$AA@ DB 'Cannot find key', 00H ; `string'
CONST	ENDS
;	COMDAT ??_C@_00CNPNBAHC@?$AA@
CONST	SEGMENT
??_C@_00CNPNBAHC@?$AA@ DB 00H				; `string'
; Function compile flags: /Ogsy
; File c:\darkeden\designed_common\project\client\serverinfofileparser.cpp
CONST	ENDS
;	COMDAT ?getProperty@ServerInfoFileParser@@QAE?AV?$basic_string@DV?$char_traits@D@_STL@@V?$allocator@D@2@@_STL@@HV23@@Z
_TEXT	SEGMENT
_ret$100329 = -2396					; size = 12
$T105064 = -2384					; size = 4
_dim$ = -2380						; size = 4
_ukey$ = -2376						; size = 12
_line$100314 = -2364					; size = 12
_bStart$ = -2349					; size = 1
_sztemp$ = -2348					; size = 2048
_file$ = -300						; size = 284
__$ArrayPad$ = -16					; size = 4
__$EHRec$ = -12						; size = 12
__$ReturnAddr$ = 4					; size = 4
___$ReturnUdt$ = 8					; size = 4
$T105057 = 11						; size = 1
$T105056 = 11						; size = 1
_dimension$ = 12					; size = 4
_key$ = 16						; size = 12
?getProperty@ServerInfoFileParser@@QAE?AV?$basic_string@DV?$char_traits@D@_STL@@V?$allocator@D@2@@_STL@@HV23@@Z PROC NEAR ; ServerInfoFileParser::getProperty, COMDAT
; _this$ = ecx

; 19   : {

  00000	b8 00 00 00 00	 mov	 eax, __ehhandler$?getProperty@ServerInfoFileParser@@QAE?AV?$basic_string@DV?$char_traits@D@_STL@@V?$allocator@D@2@@_STL@@HV23@@Z
  00005	e8 00 00 00 00	 call	 __EH_prolog
  0000a	81 ec 50 09 00
	00		 sub	 esp, 2384		; 00000950H
  00010	a1 00 00 00 00	 mov	 eax, DWORD PTR ___security_cookie
  00015	53		 push	 ebx
  00016	56		 push	 esi
  00017	33 f6		 xor	 esi, esi
  00019	89 45 f0	 mov	 DWORD PTR __$ArrayPad$[ebp], eax
  0001c	57		 push	 edi
  0001d	89 b5 b0 f6 ff
	ff		 mov	 DWORD PTR $T105064[ebp], esi

; 20   : 	std::ifstream file( m_FileName.c_str(), ios::in );

  00023	8b 09		 mov	 ecx, DWORD PTR [ecx]
  00025	33 db		 xor	 ebx, ebx
  00027	43		 inc	 ebx
  00028	53		 push	 ebx
  00029	6a 08		 push	 8
  0002b	51		 push	 ecx
  0002c	8d 8d d4 fe ff
	ff		 lea	 ecx, DWORD PTR _file$[ebp]
  00032	89 5d fc	 mov	 DWORD PTR __$EHRec$[ebp+8], ebx
  00035	e8 00 00 00 00	 call	 ??0?$basic_ifstream@DV?$char_traits@D@_STL@@@_STL@@QAE@PBDH@Z ; _STL::basic_ifstream<char,_STL::char_traits<char> >::basic_ifstream<char,_STL::char_traits<char> >

; 21   : 
; 22   : 	bool bStart = false;
; 23   : 	int dim=0;
; 24   : 	
; 25   : 	std::string ukey = key;

  0003a	8d 45 10	 lea	 eax, DWORD PTR _key$[ebp]
  0003d	50		 push	 eax
  0003e	8d 8d b8 f6 ff
	ff		 lea	 ecx, DWORD PTR _ukey$[ebp]
  00044	c6 45 fc 02	 mov	 BYTE PTR __$EHRec$[ebp+8], 2
  00048	c6 85 d3 f6 ff
	ff 00		 mov	 BYTE PTR _bStart$[ebp], 0
  0004f	89 b5 b4 f6 ff
	ff		 mov	 DWORD PTR _dim$[ebp], esi
  00055	e8 00 00 00 00	 call	 ??0?$basic_string@DV?$char_traits@D@_STL@@V?$allocator@D@2@@_STL@@QAE@ABV01@@Z ; _STL::basic_string<char,_STL::char_traits<char>,_STL::allocator<char> >::basic_string<char,_STL::char_traits<char>,_STL::allocator<char> >

; 26   : 	char sztemp[2048];
; 27   : 	ukey += ":";

  0005a	68 00 00 00 00	 push	 OFFSET FLAT:??_C@_01JLIPDDHJ@?3?$AA@
  0005f	8d 8d b8 f6 ff
	ff		 lea	 ecx, DWORD PTR _ukey$[ebp]
  00065	c6 45 fc 03	 mov	 BYTE PTR __$EHRec$[ebp+8], 3
  00069	e8 00 00 00 00	 call	 ?append@?$basic_string@DV?$char_traits@D@_STL@@V?$allocator@D@2@@_STL@@QAEAAV12@PBD@Z ; _STL::basic_string<char,_STL::char_traits<char>,_STL::allocator<char> >::append

; 28   : 		
; 29   : 	while( !file.eof() )

  0006e	8b 85 d4 fe ff
	ff		 mov	 eax, DWORD PTR _file$[ebp]
  00074	8b 40 04	 mov	 eax, DWORD PTR [eax+4]
  00077	8b 84 05 dc fe
	ff ff		 mov	 eax, DWORD PTR _file$[ebp+eax+8]
  0007e	d1 e8		 shr	 eax, 1
  00080	84 c3		 test	 al, bl
  00082	0f 85 4c 01 00
	00		 jne	 $L100313
  00088	bf 00 00 00 00	 mov	 edi, OFFSET FLAT:??_C@_01CLKCMJKC@?5?$AA@
$L100312:

; 30   : 	{
; 31   : 		std::string line;

  0008d	8d 8d c4 f6 ff
	ff		 lea	 ecx, DWORD PTR _line$100314[ebp]
  00093	e8 00 00 00 00	 call	 ??0?$basic_string@DV?$char_traits@D@_STL@@V?$allocator@D@2@@_STL@@QAE@XZ ; _STL::basic_string<char,_STL::char_traits<char>,_STL::allocator<char> >::basic_string<char,_STL::char_traits<char>,_STL::allocator<char> >

; 32   : 		memset(sztemp,0,2048);

  00098	68 00 08 00 00	 push	 2048			; 00000800H
  0009d	8d 85 d4 f6 ff
	ff		 lea	 eax, DWORD PTR _sztemp$[ebp]
  000a3	56		 push	 esi
  000a4	50		 push	 eax
  000a5	c6 45 fc 04	 mov	 BYTE PTR __$EHRec$[ebp+8], 4
  000a9	e8 00 00 00 00	 call	 _memset
  000ae	83 c4 0c	 add	 esp, 12			; 0000000cH

; 33   : 		file.getline( sztemp, 2048 );

  000b1	68 00 08 00 00	 push	 2048			; 00000800H
  000b6	8d 85 d4 f6 ff
	ff		 lea	 eax, DWORD PTR _sztemp$[ebp]
  000bc	50		 push	 eax
  000bd	8d 8d d4 fe ff
	ff		 lea	 ecx, DWORD PTR _file$[ebp]
  000c3	e8 00 00 00 00	 call	 ?getline@?$basic_istream@DV?$char_traits@D@_STL@@@_STL@@QAEAAV12@PADH@Z ; _STL::basic_istream<char,_STL::char_traits<char> >::getline

; 34   : 			
; 35   : 		line = sztemp;

  000c8	8d 85 d4 f6 ff
	ff		 lea	 eax, DWORD PTR _sztemp$[ebp]
  000ce	50		 push	 eax
  000cf	8d 8d c4 f6 ff
	ff		 lea	 ecx, DWORD PTR _line$100314[ebp]
  000d5	e8 00 00 00 00	 call	 ??4?$basic_string@DV?$char_traits@D@_STL@@V?$allocator@D@2@@_STL@@QAEAAV01@PBD@Z ; _STL::basic_string<char,_STL::char_traits<char>,_STL::allocator<char> >::operator=

; 36   : 		while(1)
; 37   : 		{
; 38   : 			int pos = line.find(" ");

  000da	eb 0d		 jmp	 SHORT $L105458
$L100316:

; 39   : 			if(pos != -1)
; 40   : 			{
; 41   : 				line.erase( pos, 1 );

  000dc	53		 push	 ebx
  000dd	50		 push	 eax
  000de	8d 8d c4 f6 ff
	ff		 lea	 ecx, DWORD PTR _line$100314[ebp]
  000e4	e8 00 00 00 00	 call	 ?erase@?$basic_string@DV?$char_traits@D@_STL@@V?$allocator@D@2@@_STL@@QAEAAV12@II@Z ; _STL::basic_string<char,_STL::char_traits<char>,_STL::allocator<char> >::erase
$L105458:
  000e9	56		 push	 esi
  000ea	8d 8d c4 f6 ff
	ff		 lea	 ecx, DWORD PTR _line$100314[ebp]
  000f0	57		 push	 edi
  000f1	e8 00 00 00 00	 call	 ?find@?$basic_string@DV?$char_traits@D@_STL@@V?$allocator@D@2@@_STL@@QBEIPBDI@Z ; _STL::basic_string<char,_STL::char_traits<char>,_STL::allocator<char> >::find
  000f6	83 f8 ff	 cmp	 eax, -1
  000f9	75 e1		 jne	 SHORT $L100316

; 42   : 			}
; 43   : 			else
; 44   : 				break;
; 45   : 		}
; 46   : 
; 47   : 		if( line.empty() || line.c_str()[0] == '#')

  000fb	8b 8d c4 f6 ff
	ff		 mov	 ecx, DWORD PTR _line$100314[ebp]
  00101	3b 8d c8 f6 ff
	ff		 cmp	 ecx, DWORD PTR _line$100314[ebp+4]
  00107	0f 84 94 00 00
	00		 je	 $L100322
  0010d	8a 01		 mov	 al, BYTE PTR [ecx]
  0010f	3c 23		 cmp	 al, 35			; 00000023H
  00111	0f 84 8a 00 00
	00		 je	 $L100322

; 49   : 
; 50   : 		if( line.c_str()[0] == '@' )

  00117	3c 40		 cmp	 al, 64			; 00000040H
  00119	75 1a		 jne	 SHORT $L105450

; 51   : 		{
; 52   : 			bStart = !bStart;

  0011b	80 bd d3 f6 ff
	ff 00		 cmp	 BYTE PTR _bStart$[ebp], 0
  00122	0f 94 c0	 sete	 al

; 53   : 			if( !bStart )

  00125	84 c0		 test	 al, al
  00127	88 85 d3 f6 ff
	ff		 mov	 BYTE PTR _bStart$[ebp], al
  0012d	75 06		 jne	 SHORT $L105450

; 54   : 				dim++;				

  0012f	ff 85 b4 f6 ff
	ff		 inc	 DWORD PTR _dim$[ebp]
$L105450:

; 55   : 		}
; 56   : 		
; 57   : 		if( dim == dimension && bStart )

  00135	8b 85 b4 f6 ff
	ff		 mov	 eax, DWORD PTR _dim$[ebp]
  0013b	3b 45 0c	 cmp	 eax, DWORD PTR _dimension$[ebp]
  0013e	75 61		 jne	 SHORT $L100322
  00140	80 bd d3 f6 ff
	ff 00		 cmp	 BYTE PTR _bStart$[ebp], 0
  00147	74 58		 je	 SHORT $L100322

; 58   : 		{
; 59   : 			int pos = line.find( ukey );

  00149	8b 85 bc f6 ff
	ff		 mov	 eax, DWORD PTR _ukey$[ebp+4]
  0014f	2b 85 b8 f6 ff
	ff		 sub	 eax, DWORD PTR _ukey$[ebp]
  00155	8d 8d c4 f6 ff
	ff		 lea	 ecx, DWORD PTR _line$100314[ebp]
  0015b	50		 push	 eax
  0015c	56		 push	 esi
  0015d	ff b5 b8 f6 ff
	ff		 push	 DWORD PTR _ukey$[ebp]
  00163	e8 00 00 00 00	 call	 ?find@?$basic_string@DV?$char_traits@D@_STL@@V?$allocator@D@2@@_STL@@QBEIPBDII@Z ; _STL::basic_string<char,_STL::char_traits<char>,_STL::allocator<char> >::find

; 60   : 			if( pos == 0 )

  00168	3b c6		 cmp	 eax, esi
  0016a	75 2f		 jne	 SHORT $L105452

; 61   : 			{
; 62   : 				pos = line.find(":");

  0016c	56		 push	 esi
  0016d	68 00 00 00 00	 push	 OFFSET FLAT:??_C@_01JLIPDDHJ@?3?$AA@
  00172	8d 8d c4 f6 ff
	ff		 lea	 ecx, DWORD PTR _line$100314[ebp]
  00178	e8 00 00 00 00	 call	 ?find@?$basic_string@DV?$char_traits@D@_STL@@V?$allocator@D@2@@_STL@@QBEIPBDI@Z ; _STL::basic_string<char,_STL::char_traits<char>,_STL::allocator<char> >::find

; 63   : 				if( pos == -1 )

  0017d	83 f8 ff	 cmp	 eax, -1
  00180	0f 85 e2 00 00
	00		 jne	 $L100328

; 64   : 					continue;

  00186	8b 85 cc f6 ff
	ff		 mov	 eax, DWORD PTR _line$100314[ebp+8]
  0018c	2b 85 c4 f6 ff
	ff		 sub	 eax, DWORD PTR _line$100314[ebp]
  00192	50		 push	 eax
  00193	ff b5 c4 f6 ff
	ff		 push	 DWORD PTR _line$100314[ebp]
  00199	eb 10		 jmp	 SHORT $L105459
$L105452:
  0019b	8b 8d c4 f6 ff
	ff		 mov	 ecx, DWORD PTR _line$100314[ebp]
$L100322:

; 48   : 			continue;

  001a1	8b 85 cc f6 ff
	ff		 mov	 eax, DWORD PTR _line$100314[ebp+8]
  001a7	2b c1		 sub	 eax, ecx
  001a9	50		 push	 eax
  001aa	51		 push	 ecx
$L105459:
  001ab	8d 8d cc f6 ff
	ff		 lea	 ecx, DWORD PTR _line$100314[ebp+8]
  001b1	c6 45 fc 03	 mov	 BYTE PTR __$EHRec$[ebp+8], 3
  001b5	e8 00 00 00 00	 call	 ?deallocate@?$allocator@D@_STL@@QAEXPADI@Z ; _STL::allocator<char>::deallocate
  001ba	8b 85 d4 fe ff
	ff		 mov	 eax, DWORD PTR _file$[ebp]
  001c0	8b 40 04	 mov	 eax, DWORD PTR [eax+4]
  001c3	8b 84 05 dc fe
	ff ff		 mov	 eax, DWORD PTR _file$[ebp+eax+8]
  001ca	d1 e8		 shr	 eax, 1
  001cc	84 c3		 test	 al, bl
  001ce	0f 84 b9 fe ff
	ff		 je	 $L100312
$L100313:

; 69   : 			}
; 70   : 		}
; 71   : 	}
; 72   : 	
; 73   : 	file.close();

  001d4	8d 8d d4 fe ff
	ff		 lea	 ecx, DWORD PTR _file$[ebp]
  001da	e8 00 00 00 00	 call	 ?close@?$basic_ifstream@DV?$char_traits@D@_STL@@@_STL@@QAEXXZ ; _STL::basic_ifstream<char,_STL::char_traits<char> >::close

; 74   : 	MessageBox( NULL, key.c_str(), "Cannot find key",MB_OK);

  001df	56		 push	 esi
  001e0	68 00 00 00 00	 push	 OFFSET FLAT:??_C@_0BA@DCDCBIAO@Cannot?5find?5key?$AA@
  001e5	ff 75 10	 push	 DWORD PTR _key$[ebp]
  001e8	56		 push	 esi
  001e9	ff 15 00 00 00
	00		 call	 DWORD PTR __imp__MessageBoxA@16

; 75   : 	return "";

  001ef	8b 4d 08	 mov	 ecx, DWORD PTR ___$ReturnUdt$[ebp]
  001f2	8d 45 0b	 lea	 eax, DWORD PTR $T105057[ebp]
  001f5	50		 push	 eax
  001f6	68 00 00 00 00	 push	 OFFSET FLAT:??_C@_00CNPNBAHC@?$AA@
  001fb	e8 00 00 00 00	 call	 ??0?$basic_string@DV?$char_traits@D@_STL@@V?$allocator@D@2@@_STL@@QAE@PBDABV?$allocator@D@1@@Z ; _STL::basic_string<char,_STL::char_traits<char>,_STL::allocator<char> >::basic_string<char,_STL::char_traits<char>,_STL::allocator<char> >
  00200	89 9d b0 f6 ff
	ff		 mov	 DWORD PTR $T105064[ebp], ebx
$L105460:
  00206	8b 85 c0 f6 ff
	ff		 mov	 eax, DWORD PTR _ukey$[ebp+8]
  0020c	2b 85 b8 f6 ff
	ff		 sub	 eax, DWORD PTR _ukey$[ebp]
  00212	8d 8d c0 f6 ff
	ff		 lea	 ecx, DWORD PTR _ukey$[ebp+8]
  00218	50		 push	 eax
  00219	ff b5 b8 f6 ff
	ff		 push	 DWORD PTR _ukey$[ebp]
  0021f	c6 45 fc 02	 mov	 BYTE PTR __$EHRec$[ebp+8], 2
  00223	e8 00 00 00 00	 call	 ?deallocate@?$allocator@D@_STL@@QAEXPADI@Z ; _STL::allocator<char>::deallocate
  00228	8d 8d d4 fe ff
	ff		 lea	 ecx, DWORD PTR _file$[ebp]
  0022e	88 5d fc	 mov	 BYTE PTR __$EHRec$[ebp+8], bl
  00231	e8 00 00 00 00	 call	 ??_D?$basic_ifstream@DV?$char_traits@D@_STL@@@_STL@@QAEXXZ
  00236	8b 45 18	 mov	 eax, DWORD PTR _key$[ebp+8]
  00239	2b 45 10	 sub	 eax, DWORD PTR _key$[ebp]
  0023c	8d 4d 18	 lea	 ecx, DWORD PTR _key$[ebp+8]
  0023f	50		 push	 eax
  00240	ff 75 10	 push	 DWORD PTR _key$[ebp]
  00243	c6 45 fc 00	 mov	 BYTE PTR __$EHRec$[ebp+8], 0
  00247	e8 00 00 00 00	 call	 ?deallocate@?$allocator@D@_STL@@QAEXPADI@Z ; _STL::allocator<char>::deallocate

; 76   : }

  0024c	8b 4d f4	 mov	 ecx, DWORD PTR __$EHRec$[ebp]
  0024f	8b 45 08	 mov	 eax, DWORD PTR ___$ReturnUdt$[ebp]
  00252	5f		 pop	 edi
  00253	5e		 pop	 esi
  00254	64 89 0d 00 00
	00 00		 mov	 DWORD PTR fs:__except_list, ecx
  0025b	8b 4d f0	 mov	 ecx, DWORD PTR __$ArrayPad$[ebp]
  0025e	5b		 pop	 ebx
  0025f	e8 00 00 00 00	 call	 @__security_check_cookie@4
  00264	c9		 leave
  00265	c2 14 00	 ret	 20			; 00000014H
$L100328:

; 65   : 				
; 66   : 				string ret = line.c_str()+pos+1;

  00268	8d 4d 0b	 lea	 ecx, DWORD PTR $T105056[ebp]
  0026b	51		 push	 ecx
  0026c	8b 8d c4 f6 ff
	ff		 mov	 ecx, DWORD PTR _line$100314[ebp]
  00272	8d 44 08 01	 lea	 eax, DWORD PTR [eax+ecx+1]
  00276	50		 push	 eax
  00277	8d 8d a4 f6 ff
	ff		 lea	 ecx, DWORD PTR _ret$100329[ebp]
  0027d	e8 00 00 00 00	 call	 ??0?$basic_string@DV?$char_traits@D@_STL@@V?$allocator@D@2@@_STL@@QAE@PBDABV?$allocator@D@1@@Z ; _STL::basic_string<char,_STL::char_traits<char>,_STL::allocator<char> >::basic_string<char,_STL::char_traits<char>,_STL::allocator<char> >

; 67   : 				file.close();

  00282	8d 8d d4 fe ff
	ff		 lea	 ecx, DWORD PTR _file$[ebp]
  00288	c6 45 fc 05	 mov	 BYTE PTR __$EHRec$[ebp+8], 5
  0028c	e8 00 00 00 00	 call	 ?close@?$basic_ifstream@DV?$char_traits@D@_STL@@@_STL@@QAEXXZ ; _STL::basic_ifstream<char,_STL::char_traits<char> >::close

; 68   : 				return  ret;

  00291	8b 4d 08	 mov	 ecx, DWORD PTR ___$ReturnUdt$[ebp]
  00294	8d 85 a4 f6 ff
	ff		 lea	 eax, DWORD PTR _ret$100329[ebp]
  0029a	50		 push	 eax
  0029b	e8 00 00 00 00	 call	 ??0?$basic_string@DV?$char_traits@D@_STL@@V?$allocator@D@2@@_STL@@QAE@ABV01@@Z ; _STL::basic_string<char,_STL::char_traits<char>,_STL::allocator<char> >::basic_string<char,_STL::char_traits<char>,_STL::allocator<char> >
  002a0	8b 85 ac f6 ff
	ff		 mov	 eax, DWORD PTR _ret$100329[ebp+8]
  002a6	2b 85 a4 f6 ff
	ff		 sub	 eax, DWORD PTR _ret$100329[ebp]
  002ac	8d 8d ac f6 ff
	ff		 lea	 ecx, DWORD PTR _ret$100329[ebp+8]
  002b2	50		 push	 eax
  002b3	ff b5 a4 f6 ff
	ff		 push	 DWORD PTR _ret$100329[ebp]
  002b9	89 9d b0 f6 ff
	ff		 mov	 DWORD PTR $T105064[ebp], ebx
  002bf	c6 45 fc 04	 mov	 BYTE PTR __$EHRec$[ebp+8], 4
  002c3	e8 00 00 00 00	 call	 ?deallocate@?$allocator@D@_STL@@QAEXPADI@Z ; _STL::allocator<char>::deallocate
  002c8	8b 85 cc f6 ff
	ff		 mov	 eax, DWORD PTR _line$100314[ebp+8]
  002ce	2b 85 c4 f6 ff
	ff		 sub	 eax, DWORD PTR _line$100314[ebp]
  002d4	8d 8d cc f6 ff
	ff		 lea	 ecx, DWORD PTR _line$100314[ebp+8]
  002da	50		 push	 eax
  002db	ff b5 c4 f6 ff
	ff		 push	 DWORD PTR _line$100314[ebp]
  002e1	c6 45 fc 03	 mov	 BYTE PTR __$EHRec$[ebp+8], 3
  002e5	e8 00 00 00 00	 call	 ?deallocate@?$allocator@D@_STL@@QAEXPADI@Z ; _STL::allocator<char>::deallocate
  002ea	e9 17 ff ff ff	 jmp	 $L105460
_TEXT	ENDS
;	COMDAT text$x
text$x	SEGMENT
$L105058:
  00000	8d 4d 10	 lea	 ecx, DWORD PTR _key$[ebp]
  00003	e9 00 00 00 00	 jmp	 ??1?$basic_string@DV?$char_traits@D@_STL@@V?$allocator@D@2@@_STL@@QAE@XZ ; _STL::basic_string<char,_STL::char_traits<char>,_STL::allocator<char> >::~basic_string<char,_STL::char_traits<char>,_STL::allocator<char> >
$L105059:
  00008	8d 8d d4 fe ff
	ff		 lea	 ecx, DWORD PTR _file$[ebp]
  0000e	e9 00 00 00 00	 jmp	 ??_D?$basic_ifstream@DV?$char_traits@D@_STL@@@_STL@@QAEXXZ
$L105060:
  00013	8d 8d b8 f6 ff
	ff		 lea	 ecx, DWORD PTR _ukey$[ebp]
  00019	e9 00 00 00 00	 jmp	 ??1?$basic_string@DV?$char_traits@D@_STL@@V?$allocator@D@2@@_STL@@QAE@XZ ; _STL::basic_string<char,_STL::char_traits<char>,_STL::allocator<char> >::~basic_string<char,_STL::char_traits<char>,_STL::allocator<char> >
$L105061:
  0001e	8d 8d c4 f6 ff
	ff		 lea	 ecx, DWORD PTR _line$100314[ebp]
  00024	e9 00 00 00 00	 jmp	 ??1?$basic_string@DV?$char_traits@D@_STL@@V?$allocator@D@2@@_STL@@QAE@XZ ; _STL::basic_string<char,_STL::char_traits<char>,_STL::allocator<char> >::~basic_string<char,_STL::char_traits<char>,_STL::allocator<char> >
$L105062:
  00029	8d 8d a4 f6 ff
	ff		 lea	 ecx, DWORD PTR _ret$100329[ebp]
  0002f	e9 00 00 00 00	 jmp	 ??1?$basic_string@DV?$char_traits@D@_STL@@V?$allocator@D@2@@_STL@@QAE@XZ ; _STL::basic_string<char,_STL::char_traits<char>,_STL::allocator<char> >::~basic_string<char,_STL::char_traits<char>,_STL::allocator<char> >
$L105063:
  00034	8b 85 b0 f6 ff
	ff		 mov	 eax, DWORD PTR $T105064[ebp]
  0003a	83 e0 01	 and	 eax, 1
  0003d	0f 84 0f 00 00
	00		 je	 $L105065
  00043	83 a5 b0 f6 ff
	ff fe		 and	 DWORD PTR $T105064[ebp], -2 ; fffffffeH
  0004a	8b 4d 08	 mov	 ecx, DWORD PTR ___$ReturnUdt$[ebp]
  0004d	e9 00 00 00 00	 jmp	 ??1?$basic_string@DV?$char_traits@D@_STL@@V?$allocator@D@2@@_STL@@QAE@XZ ; _STL::basic_string<char,_STL::char_traits<char>,_STL::allocator<char> >::~basic_string<char,_STL::char_traits<char>,_STL::allocator<char> >
$L105065:
  00052	c3		 ret	 0
__ehhandler$?getProperty@ServerInfoFileParser@@QAE?AV?$basic_string@DV?$char_traits@D@_STL@@V?$allocator@D@2@@_STL@@HV23@@Z:
  00053	b8 00 00 00 00	 mov	 eax, OFFSET FLAT:$T105445
  00058	e9 00 00 00 00	 jmp	 ___CxxFrameHandler
text$x	ENDS
?getProperty@ServerInfoFileParser@@QAE?AV?$basic_string@DV?$char_traits@D@_STL@@V?$allocator@D@2@@_STL@@HV23@@Z ENDP ; ServerInfoFileParser::getProperty
PUBLIC	?getPropertyInt@ServerInfoFileParser@@QAEHHV?$basic_string@DV?$char_traits@D@_STL@@V?$allocator@D@2@@_STL@@@Z ; ServerInfoFileParser::getPropertyInt
EXTRN	_atoi:NEAR
;	COMDAT xdata$x
; File c:\stlport-4.6.1\stlport\stl\_alloc.h
xdata$x	SEGMENT
$T105630 DD	0ffffffffH
	DD	FLAT:$L105469
	DD	00H
	DD	FLAT:$L105471
$T105627 DD	019930520H
	DD	02H
	DD	FLAT:$T105630
	DD	2 DUP(00H)
	DD	2 DUP(00H)
; Function compile flags: /Ogsy
; File c:\darkeden\designed_common\project\client\serverinfofileparser.cpp
xdata$x	ENDS
;	COMDAT ?getPropertyInt@ServerInfoFileParser@@QAEHHV?$basic_string@DV?$char_traits@D@_STL@@V?$allocator@D@2@@_STL@@@Z
_TEXT	SEGMENT
_re$ = -28						; size = 12
$T105466 = -16						; size = 4
__$EHRec$ = -12						; size = 12
_dimension$ = 8						; size = 4
_key$ = 12						; size = 12
?getPropertyInt@ServerInfoFileParser@@QAEHHV?$basic_string@DV?$char_traits@D@_STL@@V?$allocator@D@2@@_STL@@@Z PROC NEAR ; ServerInfoFileParser::getPropertyInt, COMDAT
; _this$ = ecx

; 79   : {

  00000	b8 00 00 00 00	 mov	 eax, __ehhandler$?getPropertyInt@ServerInfoFileParser@@QAEHHV?$basic_string@DV?$char_traits@D@_STL@@V?$allocator@D@2@@_STL@@@Z
  00005	e8 00 00 00 00	 call	 __EH_prolog
  0000a	83 ec 10	 sub	 esp, 16			; 00000010H
  0000d	56		 push	 esi
  0000e	8b f1		 mov	 esi, ecx
  00010	83 65 fc 00	 and	 DWORD PTR __$EHRec$[ebp+8], 0

; 80   : 	string re = getProperty( dimension, key );

  00014	83 ec 0c	 sub	 esp, 12			; 0000000cH
  00017	8d 45 0c	 lea	 eax, DWORD PTR _key$[ebp]
  0001a	8b cc		 mov	 ecx, esp
  0001c	89 65 f0	 mov	 DWORD PTR $T105466[ebp], esp
  0001f	50		 push	 eax
  00020	e8 00 00 00 00	 call	 ??0?$basic_string@DV?$char_traits@D@_STL@@V?$allocator@D@2@@_STL@@QAE@ABV01@@Z ; _STL::basic_string<char,_STL::char_traits<char>,_STL::allocator<char> >::basic_string<char,_STL::char_traits<char>,_STL::allocator<char> >
  00025	ff 75 08	 push	 DWORD PTR _dimension$[ebp]
  00028	8d 45 e4	 lea	 eax, DWORD PTR _re$[ebp]
  0002b	50		 push	 eax
  0002c	8b ce		 mov	 ecx, esi
  0002e	e8 00 00 00 00	 call	 ?getProperty@ServerInfoFileParser@@QAE?AV?$basic_string@DV?$char_traits@D@_STL@@V?$allocator@D@2@@_STL@@HV23@@Z ; ServerInfoFileParser::getProperty

; 81   : 	if (re.empty() ) return -1;

  00033	8b 45 e4	 mov	 eax, DWORD PTR _re$[ebp]
  00036	3b 45 e8	 cmp	 eax, DWORD PTR _re$[ebp+4]
  00039	75 05		 jne	 SHORT $L100344
  0003b	83 ce ff	 or	 esi, -1
  0003e	eb 09		 jmp	 SHORT $L105628
$L100344:

; 82   : 	
; 83   : 	return atoi( re.c_str() );

  00040	50		 push	 eax
  00041	e8 00 00 00 00	 call	 _atoi
  00046	59		 pop	 ecx
  00047	8b f0		 mov	 esi, eax
$L105628:
  00049	8b 45 ec	 mov	 eax, DWORD PTR _re$[ebp+8]
  0004c	2b 45 e4	 sub	 eax, DWORD PTR _re$[ebp]
  0004f	8d 4d ec	 lea	 ecx, DWORD PTR _re$[ebp+8]
  00052	50		 push	 eax
  00053	ff 75 e4	 push	 DWORD PTR _re$[ebp]
  00056	c6 45 fc 00	 mov	 BYTE PTR __$EHRec$[ebp+8], 0
  0005a	e8 00 00 00 00	 call	 ?deallocate@?$allocator@D@_STL@@QAEXPADI@Z ; _STL::allocator<char>::deallocate
  0005f	8b 45 14	 mov	 eax, DWORD PTR _key$[ebp+8]
  00062	2b 45 0c	 sub	 eax, DWORD PTR _key$[ebp]
  00065	83 4d fc ff	 or	 DWORD PTR __$EHRec$[ebp+8], -1
  00069	50		 push	 eax
  0006a	ff 75 0c	 push	 DWORD PTR _key$[ebp]
  0006d	8d 4d 14	 lea	 ecx, DWORD PTR _key$[ebp+8]
  00070	e8 00 00 00 00	 call	 ?deallocate@?$allocator@D@_STL@@QAEXPADI@Z ; _STL::allocator<char>::deallocate

; 84   : }

  00075	8b 4d f4	 mov	 ecx, DWORD PTR __$EHRec$[ebp]
  00078	8b c6		 mov	 eax, esi
  0007a	64 89 0d 00 00
	00 00		 mov	 DWORD PTR fs:__except_list, ecx
  00081	5e		 pop	 esi
  00082	c9		 leave
  00083	c2 10 00	 ret	 16			; 00000010H
_TEXT	ENDS
;	COMDAT text$x
text$x	SEGMENT
$L105469:
  00000	8d 4d 0c	 lea	 ecx, DWORD PTR _key$[ebp]
  00003	e9 00 00 00 00	 jmp	 ??1?$basic_string@DV?$char_traits@D@_STL@@V?$allocator@D@2@@_STL@@QAE@XZ ; _STL::basic_string<char,_STL::char_traits<char>,_STL::allocator<char> >::~basic_string<char,_STL::char_traits<char>,_STL::allocator<char> >
$L105471:
  00008	8d 4d e4	 lea	 ecx, DWORD PTR _re$[ebp]
  0000b	e9 00 00 00 00	 jmp	 ??1?$basic_string@DV?$char_traits@D@_STL@@V?$allocator@D@2@@_STL@@QAE@XZ ; _STL::basic_string<char,_STL::char_traits<char>,_STL::allocator<char> >::~basic_string<char,_STL::char_traits<char>,_STL::allocator<char> >
__ehhandler$?getPropertyInt@ServerInfoFileParser@@QAEHHV?$basic_string@DV?$char_traits@D@_STL@@V?$allocator@D@2@@_STL@@@Z:
  00010	b8 00 00 00 00	 mov	 eax, OFFSET FLAT:$T105627
  00015	e9 00 00 00 00	 jmp	 ___CxxFrameHandler
text$x	ENDS
?getPropertyInt@ServerInfoFileParser@@QAEHHV?$basic_string@DV?$char_traits@D@_STL@@V?$allocator@D@2@@_STL@@@Z ENDP ; ServerInfoFileParser::getPropertyInt
END
