; Listing generated by Microsoft (R) Optimizing Compiler Version 13.10.3077 

	TITLE	\darkeden\Designed_Common\Project\Client\ServerInformation.cpp
	.386P
include listing.inc
if @Version gt 510
.model FLAT
else
_TEXT	SEGMENT PARA USE32 PUBLIC 'CODE'
_TEXT	ENDS
_DATA	SEGMENT DWORD USE32 PUBLIC 'DATA'
_DATA	ENDS
CONST	SEGMENT DWORD USE32 PUBLIC 'CONST'
CONST	ENDS
_BSS	SEGMENT DWORD USE32 PUBLIC 'BSS'
_BSS	ENDS
$$SYMBOLS	SEGMENT BYTE USE32 'DEBSYM'
$$SYMBOLS	ENDS
$$TYPES	SEGMENT BYTE USE32 'DEBTYP'
$$TYPES	ENDS
_TLS	SEGMENT DWORD USE32 PUBLIC 'TLS'
_TLS	ENDS
;	COMDAT ??_C@_0BN@ODLNCKCA@Data?2?2Info?2?2ClientConfig?4inf?$AA@
CONST	SEGMENT DWORD USE32 PUBLIC 'CONST'
CONST	ENDS
;	COMDAT ??_C@_0BM@DFPLPGPC@Data?2?2Info?2?2GuildMapper?4inf?$AA@
CONST	SEGMENT DWORD USE32 PUBLIC 'CONST'
CONST	ENDS
;	COMDAT ??_C@_0BN@LHODHNBK@Data?2?2Info?2?2GuildVersion?4inf?$AA@
CONST	SEGMENT DWORD USE32 PUBLIC 'CONST'
CONST	ENDS
;	COMDAT ??_C@_0BH@DDPLNCOL@Data?2?2Info?2?2Player?4inf?$AA@
CONST	SEGMENT DWORD USE32 PUBLIC 'CONST'
CONST	ENDS
;	COMDAT ??_C@_0BL@ILLNAPHB@Data?2?2Info?2?2Resolution?4inf?$AA@
CONST	SEGMENT DWORD USE32 PUBLIC 'CONST'
CONST	ENDS
;	COMDAT ??_C@_0CA@HEIGFDLG@Data?2?2Info?2?2SelectedChannel?4inf?$AA@
CONST	SEGMENT DWORD USE32 PUBLIC 'CONST'
CONST	ENDS
;	COMDAT ??_C@_0N@GOPDCEEB@basic_string?$AA@
CONST	SEGMENT DWORD USE32 PUBLIC 'CONST'
CONST	ENDS
rdata$r	SEGMENT DWORD USE32 PUBLIC 'CONST'
rdata$r	ENDS
text$yc	SEGMENT PARA USE32 PUBLIC 'CODE'
text$yc	ENDS
CRT$XCA	SEGMENT DWORD USE32 PUBLIC 'DATA'
CRT$XCA	ENDS
CRT$XCU	SEGMENT DWORD USE32 PUBLIC 'DATA'
CRT$XCU	ENDS
CRT$XCL	SEGMENT DWORD USE32 PUBLIC 'DATA'
CRT$XCL	ENDS
CRT$XCC	SEGMENT DWORD USE32 PUBLIC 'DATA'
CRT$XCC	ENDS
CRT$XCZ	SEGMENT DWORD USE32 PUBLIC 'DATA'
CRT$XCZ	ENDS
text$yd	SEGMENT PARA USE32 PUBLIC 'CODE'
text$yd	ENDS
;	COMDAT ?start@CNFS@@QAE_NPADH@Z
_TEXT	SEGMENT PARA USE32 PUBLIC 'CODE'
_TEXT	ENDS
;	COMDAT ?end@CNFS@@QAEXXZ
_TEXT	SEGMENT PARA USE32 PUBLIC 'CODE'
_TEXT	ENDS
;	COMDAT ?Init@VirtualFileHeader@@QAEXXZ
_TEXT	SEGMENT PARA USE32 PUBLIC 'CODE'
_TEXT	ENDS
;	COMDAT ??1IFileIO@@UAE@XZ
_TEXT	SEGMENT PARA USE32 PUBLIC 'CODE'
_TEXT	ENDS
;	COMDAT ??_GIFileIO@@UAEPAXI@Z
_TEXT	SEGMENT PARA USE32 PUBLIC 'CODE'
_TEXT	ENDS
;	COMDAT ??0iovfs_base@@QAE@XZ
_TEXT	SEGMENT PARA USE32 PUBLIC 'CODE'
_TEXT	ENDS
;	COMDAT ??_Giovfs_base@@UAEPAXI@Z
_TEXT	SEGMENT PARA USE32 PUBLIC 'CODE'
_TEXT	ENDS
;	COMDAT ??1iovfs_base@@UAE@XZ
_TEXT	SEGMENT PARA USE32 PUBLIC 'CODE'
_TEXT	ENDS
;	COMDAT ?Init@iovfs_base@@QAEXXZ
_TEXT	SEGMENT PARA USE32 PUBLIC 'CODE'
_TEXT	ENDS
;	COMDAT ??_Givfstream@@UAEPAXI@Z
_TEXT	SEGMENT PARA USE32 PUBLIC 'CODE'
_TEXT	ENDS
;	COMDAT ??1ivfstream@@UAE@XZ
_TEXT	SEGMENT PARA USE32 PUBLIC 'CODE'
_TEXT	ENDS
;	COMDAT ?open@ivfstream@@UAEXPBDH@Z
_TEXT	SEGMENT PARA USE32 PUBLIC 'CODE'
_TEXT	ENDS
;	COMDAT ??_Govfstream@@UAEPAXI@Z
_TEXT	SEGMENT PARA USE32 PUBLIC 'CODE'
_TEXT	ENDS
;	COMDAT ??1ovfstream@@UAE@XZ
_TEXT	SEGMENT PARA USE32 PUBLIC 'CODE'
_TEXT	ENDS
;	COMDAT ?open@ovfstream@@UAEXPBDH@Z
_TEXT	SEGMENT PARA USE32 PUBLIC 'CODE'
_TEXT	ENDS
;	COMDAT ?GetString@MString@@QBEPADXZ
_TEXT	SEGMENT PARA USE32 PUBLIC 'CODE'
_TEXT	ENDS
;	COMDAT ??1SERVER_INFO@@QAE@XZ
_TEXT	SEGMENT PARA USE32 PUBLIC 'CODE'
_TEXT	ENDS
;	COMDAT ??1ServerGroup@@UAE@XZ
_TEXT	SEGMENT PARA USE32 PUBLIC 'CODE'
_TEXT	ENDS
;	COMDAT ?GetGroupName@ServerGroup@@QBEPBDXZ
_TEXT	SEGMENT PARA USE32 PUBLIC 'CODE'
_TEXT	ENDS
;	COMDAT ?GetGroupStatus@ServerGroup@@QBEHXZ
_TEXT	SEGMENT PARA USE32 PUBLIC 'CODE'
_TEXT	ENDS
;	COMDAT ??_GServerGroup@@UAEPAXI@Z
_TEXT	SEGMENT PARA USE32 PUBLIC 'CODE'
_TEXT	ENDS
;	COMDAT ??0ServerGroup@@QAE@XZ
_TEXT	SEGMENT PARA USE32 PUBLIC 'CODE'
_TEXT	ENDS
;	COMDAT ??0ServerInformation@@QAE@XZ
_TEXT	SEGMENT PARA USE32 PUBLIC 'CODE'
_TEXT	ENDS
;	COMDAT ??_GServerInformation@@UAEPAXI@Z
_TEXT	SEGMENT PARA USE32 PUBLIC 'CODE'
_TEXT	ENDS
;	COMDAT ??1ServerInformation@@UAE@XZ
_TEXT	SEGMENT PARA USE32 PUBLIC 'CODE'
_TEXT	ENDS
;	COMDAT ?Release@ServerInformation@@UAEXXZ
_TEXT	SEGMENT PARA USE32 PUBLIC 'CODE'
_TEXT	ENDS
;	COMDAT ?SetServerGroupID@ServerInformation@@QAE_NI@Z
_TEXT	SEGMENT PARA USE32 PUBLIC 'CODE'
_TEXT	ENDS
;	COMDAT ?SetServerID@ServerInformation@@QAE_NI@Z
_TEXT	SEGMENT PARA USE32 PUBLIC 'CODE'
_TEXT	ENDS
;	COMDAT ?eq@?$__char_traits_base@DH@_STL@@SA_NABD0@Z
_TEXT	SEGMENT PARA USE32 PUBLIC 'CODE'
_TEXT	ENDS
;	COMDAT ?not_eof@?$__char_traits_base@DH@_STL@@SAHABH@Z
_TEXT	SEGMENT PARA USE32 PUBLIC 'CODE'
_TEXT	ENDS
;	COMDAT ?eq_int_type@?$__char_traits_base@DH@_STL@@SA_NABH0@Z
_TEXT	SEGMENT PARA USE32 PUBLIC 'CODE'
_TEXT	ENDS
;	COMDAT ?get_allocator@?$basic_string@DV?$char_traits@D@_STL@@V?$allocator@D@2@@_STL@@QBE?AV?$allocator@D@2@XZ
_TEXT	SEGMENT PARA USE32 PUBLIC 'CODE'
_TEXT	ENDS
;	COMDAT ??4?$basic_string@DV?$char_traits@D@_STL@@V?$allocator@D@2@@_STL@@QAEAAV01@PBD@Z
_TEXT	SEGMENT PARA USE32 PUBLIC 'CODE'
_TEXT	ENDS
;	COMDAT ?_M_terminate_string@?$basic_string@DV?$char_traits@D@_STL@@V?$allocator@D@2@@_STL@@AAEXXZ
_TEXT	SEGMENT PARA USE32 PUBLIC 'CODE'
_TEXT	ENDS
;	COMDAT ??0?$_String_base@DV?$allocator@D@_STL@@@_STL@@QAE@ABV?$allocator@D@1@@Z
_TEXT	SEGMENT PARA USE32 PUBLIC 'CODE'
_TEXT	ENDS
;	COMDAT ?allocate@?$allocator@D@_STL@@QAEPADIPBX@Z
_TEXT	SEGMENT PARA USE32 PUBLIC 'CODE'
_TEXT	ENDS
;	COMDAT ??0?$fpos@H@_STL@@QAE@J@Z
_TEXT	SEGMENT PARA USE32 PUBLIC 'CODE'
_TEXT	ENDS
;	COMDAT ??B?$fpos@H@_STL@@QBEJXZ
_TEXT	SEGMENT PARA USE32 PUBLIC 'CODE'
_TEXT	ENDS
;	COMDAT ?state@?$fpos@H@_STL@@QBEHXZ
_TEXT	SEGMENT PARA USE32 PUBLIC 'CODE'
_TEXT	ENDS
;	COMDAT ?is_open@?$basic_filebuf@DV?$char_traits@D@_STL@@@_STL@@QBE_NXZ
_TEXT	SEGMENT PARA USE32 PUBLIC 'CODE'
_TEXT	ENDS
;	COMDAT ?_M_seek_return@?$basic_filebuf@DV?$char_traits@D@_STL@@@_STL@@AAE?AV?$fpos@H@2@JH@Z
_TEXT	SEGMENT PARA USE32 PUBLIC 'CODE'
_TEXT	ENDS
;	COMDAT ??0?$_Filebuf_Tmp_Buf@D@_STL@@QAE@H@Z
_TEXT	SEGMENT PARA USE32 PUBLIC 'CODE'
_TEXT	ENDS
;	COMDAT ??1?$_Filebuf_Tmp_Buf@D@_STL@@QAE@XZ
_TEXT	SEGMENT PARA USE32 PUBLIC 'CODE'
_TEXT	ENDS
;	COMDAT ?_M_terminate_string_aux@?$basic_string@DV?$char_traits@D@_STL@@V?$allocator@D@2@@_STL@@AAEXABU__true_type@2@@Z
_TEXT	SEGMENT PARA USE32 PUBLIC 'CODE'
_TEXT	ENDS
;	COMDAT ?assign@?$basic_string@DV?$char_traits@D@_STL@@V?$allocator@D@2@@_STL@@QAEAAV12@PBD0@Z
_TEXT	SEGMENT PARA USE32 PUBLIC 'CODE'
_TEXT	ENDS
;	COMDAT ??0?$allocator@D@_STL@@QAE@ABV01@@Z
_TEXT	SEGMENT PARA USE32 PUBLIC 'CODE'
_TEXT	ENDS
;	COMDAT ??0?$_STLP_alloc_proxy@PADDV?$allocator@D@_STL@@@_STL@@QAE@ABV?$allocator@D@1@PAD@Z
_TEXT	SEGMENT PARA USE32 PUBLIC 'CODE'
_TEXT	ENDS
;	COMDAT ?state@?$fpos@H@_STL@@QAEXH@Z
_TEXT	SEGMENT PARA USE32 PUBLIC 'CODE'
_TEXT	ENDS
;	COMDAT ?copy@?$__char_traits_base@DH@_STL@@SAPADPADPBDI@Z
_TEXT	SEGMENT PARA USE32 PUBLIC 'CODE'
_TEXT	ENDS
;	COMDAT ?begin@?$basic_string@DV?$char_traits@D@_STL@@V?$allocator@D@2@@_STL@@QAEPADXZ
_TEXT	SEGMENT PARA USE32 PUBLIC 'CODE'
_TEXT	ENDS
;	COMDAT ?end@?$basic_string@DV?$char_traits@D@_STL@@V?$allocator@D@2@@_STL@@QAEPADXZ
_TEXT	SEGMENT PARA USE32 PUBLIC 'CODE'
_TEXT	ENDS
;	COMDAT ?size@?$basic_string@DV?$char_traits@D@_STL@@V?$allocator@D@2@@_STL@@QBEIXZ
_TEXT	SEGMENT PARA USE32 PUBLIC 'CODE'
_TEXT	ENDS
;	COMDAT ?erase@?$basic_string@DV?$char_traits@D@_STL@@V?$allocator@D@2@@_STL@@QAEPADPAD0@Z
_TEXT	SEGMENT PARA USE32 PUBLIC 'CODE'
_TEXT	ENDS
;	COMDAT ?move@?$__char_traits_base@DH@_STL@@SAPADPADPBDI@Z
_TEXT	SEGMENT PARA USE32 PUBLIC 'CODE'
_TEXT	ENDS
;	COMDAT ??$_M_range_initialize@PBD@?$basic_string@DV?$char_traits@D@_STL@@V?$allocator@D@2@@_STL@@AAEXPBD0@Z
_TEXT	SEGMENT PARA USE32 PUBLIC 'CODE'
_TEXT	ENDS
;	COMDAT ??$_M_range_initialize@PAD@?$basic_string@DV?$char_traits@D@_STL@@V?$allocator@D@2@@_STL@@AAEXPAD0@Z
_TEXT	SEGMENT PARA USE32 PUBLIC 'CODE'
_TEXT	ENDS
;	COMDAT ?close@?$basic_filebuf@DV?$char_traits@D@_STL@@@_STL@@QAEPAV12@XZ
_TEXT	SEGMENT PARA USE32 PUBLIC 'CODE'
_TEXT	ENDS
;	COMDAT ?_M_exit_input_mode@?$basic_filebuf@DV?$char_traits@D@_STL@@@_STL@@AAEXXZ
_TEXT	SEGMENT PARA USE32 PUBLIC 'CODE'
_TEXT	ENDS
;	COMDAT ?_M_switch_to_output_mode@?$basic_filebuf@DV?$char_traits@D@_STL@@@_STL@@AAE_NXZ
_TEXT	SEGMENT PARA USE32 PUBLIC 'CODE'
_TEXT	ENDS
;	COMDAT ?_M_output_error@?$basic_filebuf@DV?$char_traits@D@_STL@@@_STL@@AAEHXZ
_TEXT	SEGMENT PARA USE32 PUBLIC 'CODE'
_TEXT	ENDS
;	COMDAT ?_M_allocate_buffers@?$basic_filebuf@DV?$char_traits@D@_STL@@@_STL@@AAE_NPADH@Z
_TEXT	SEGMENT PARA USE32 PUBLIC 'CODE'
_TEXT	ENDS
;	COMDAT ?_M_deallocate_buffers@?$basic_filebuf@DV?$char_traits@D@_STL@@@_STL@@AAEXXZ
_TEXT	SEGMENT PARA USE32 PUBLIC 'CODE'
_TEXT	ENDS
;	COMDAT ?_M_seek_init@?$basic_filebuf@DV?$char_traits@D@_STL@@@_STL@@AAE_N_N@Z
_TEXT	SEGMENT PARA USE32 PUBLIC 'CODE'
_TEXT	ENDS
;	COMDAT ?_M_setup_codecvt@?$basic_filebuf@DV?$char_traits@D@_STL@@@_STL@@AAEXABVlocale@2@@Z
_TEXT	SEGMENT PARA USE32 PUBLIC 'CODE'
_TEXT	ENDS
;	COMDAT ??$equal@PADPADU?$_Eq_traits@V?$char_traits@D@_STL@@@_STL@@@_STL@@YA_NPAD00U?$_Eq_traits@V?$char_traits@D@_STL@@@0@@Z
_TEXT	SEGMENT PARA USE32 PUBLIC 'CODE'
_TEXT	ENDS
;	COMDAT ??$_Destroy@V?$basic_string@DV?$char_traits@D@_STL@@V?$allocator@D@2@@_STL@@@_STL@@YAXPAV?$basic_string@DV?$char_traits@D@_STL@@V?$allocator@D@2@@0@@Z
_TEXT	SEGMENT PARA USE32 PUBLIC 'CODE'
_TEXT	ENDS
;	COMDAT ??$_M_assign_dispatch@PAD@?$basic_string@DV?$char_traits@D@_STL@@V?$allocator@D@2@@_STL@@AAEAAV01@PAD0ABU__false_type@1@@Z
_TEXT	SEGMENT PARA USE32 PUBLIC 'CODE'
_TEXT	ENDS
;	COMDAT ??0?$CTypeMap2@VSERVER_INFO@@@@QAE@XZ
_TEXT	SEGMENT PARA USE32 PUBLIC 'CODE'
_TEXT	ENDS
;	COMDAT ??1?$CTypeMap2@VSERVER_INFO@@@@UAE@XZ
_TEXT	SEGMENT PARA USE32 PUBLIC 'CODE'
_TEXT	ENDS
;	COMDAT ?Release@?$CTypeMap2@VSERVER_INFO@@@@UAEXXZ
_TEXT	SEGMENT PARA USE32 PUBLIC 'CODE'
_TEXT	ENDS
;	COMDAT ?AddData@?$CTypeMap2@VSERVER_INFO@@@@UAE_NIPAVSERVER_INFO@@@Z
_TEXT	SEGMENT PARA USE32 PUBLIC 'CODE'
_TEXT	ENDS
;	COMDAT ?GetData@?$CTypeMap2@VSERVER_INFO@@@@UBEPBVSERVER_INFO@@I@Z
_TEXT	SEGMENT PARA USE32 PUBLIC 'CODE'
_TEXT	ENDS
;	COMDAT ?GetData@?$CTypeMap2@VSERVER_INFO@@@@UAEPAVSERVER_INFO@@I@Z
_TEXT	SEGMENT PARA USE32 PUBLIC 'CODE'
_TEXT	ENDS
;	COMDAT ?RemoveData@?$CTypeMap2@VSERVER_INFO@@@@UAE_NI@Z
_TEXT	SEGMENT PARA USE32 PUBLIC 'CODE'
_TEXT	ENDS
;	COMDAT ??0?$CTypeMap2@VServerGroup@@@@QAE@XZ
_TEXT	SEGMENT PARA USE32 PUBLIC 'CODE'
_TEXT	ENDS
;	COMDAT ??1?$CTypeMap2@VServerGroup@@@@UAE@XZ
_TEXT	SEGMENT PARA USE32 PUBLIC 'CODE'
_TEXT	ENDS
;	COMDAT ?Release@?$CTypeMap2@VServerGroup@@@@UAEXXZ
_TEXT	SEGMENT PARA USE32 PUBLIC 'CODE'
_TEXT	ENDS
;	COMDAT ?AddData@?$CTypeMap2@VServerGroup@@@@UAE_NIPAVServerGroup@@@Z
_TEXT	SEGMENT PARA USE32 PUBLIC 'CODE'
_TEXT	ENDS
;	COMDAT ?GetData@?$CTypeMap2@VServerGroup@@@@UBEPBVServerGroup@@I@Z
_TEXT	SEGMENT PARA USE32 PUBLIC 'CODE'
_TEXT	ENDS
;	COMDAT ?GetData@?$CTypeMap2@VServerGroup@@@@UAEPAVServerGroup@@I@Z
_TEXT	SEGMENT PARA USE32 PUBLIC 'CODE'
_TEXT	ENDS
;	COMDAT ?RemoveData@?$CTypeMap2@VServerGroup@@@@UAE_NI@Z
_TEXT	SEGMENT PARA USE32 PUBLIC 'CODE'
_TEXT	ENDS
;	COMDAT ??$append@PBD@?$basic_string@DV?$char_traits@D@_STL@@V?$allocator@D@2@@_STL@@QAEAAV01@PBD0@Z
_TEXT	SEGMENT PARA USE32 PUBLIC 'CODE'
_TEXT	ENDS
;	COMDAT ??_G?$basic_string@DV?$char_traits@D@_STL@@V?$allocator@D@2@@_STL@@QAEPAXI@Z
_TEXT	SEGMENT PARA USE32 PUBLIC 'CODE'
_TEXT	ENDS
;	COMDAT ??_G?$CTypeMap2@VSERVER_INFO@@@@UAEPAXI@Z
_TEXT	SEGMENT PARA USE32 PUBLIC 'CODE'
_TEXT	ENDS
;	COMDAT ??1?$map@IPAVSERVER_INFO@@U?$less@I@_STL@@V?$allocator@U?$pair@$$CBIPAVSERVER_INFO@@@_STL@@@3@@_STL@@QAE@XZ
_TEXT	SEGMENT PARA USE32 PUBLIC 'CODE'
_TEXT	ENDS
;	COMDAT ??_GSERVER_INFO@@QAEPAXI@Z
_TEXT	SEGMENT PARA USE32 PUBLIC 'CODE'
_TEXT	ENDS
;	COMDAT ??_G?$CTypeMap2@VServerGroup@@@@UAEPAXI@Z
_TEXT	SEGMENT PARA USE32 PUBLIC 'CODE'
_TEXT	ENDS
;	COMDAT ??1?$map@IPAVServerGroup@@U?$less@I@_STL@@V?$allocator@U?$pair@$$CBIPAVServerGroup@@@_STL@@@3@@_STL@@QAE@XZ
_TEXT	SEGMENT PARA USE32 PUBLIC 'CODE'
_TEXT	ENDS
;	COMDAT ?_M_exit_putback_mode@?$basic_filebuf@DV?$char_traits@D@_STL@@@_STL@@AAEXXZ
_TEXT	SEGMENT PARA USE32 PUBLIC 'CODE'
_TEXT	ENDS
;	COMDAT ??R?$_Eq_traits@V?$char_traits@D@_STL@@@_STL@@QBE_NABD0@Z
_TEXT	SEGMENT PARA USE32 PUBLIC 'CODE'
_TEXT	ENDS
;	COMDAT ??0?$map@IPAVSERVER_INFO@@U?$less@I@_STL@@V?$allocator@U?$pair@$$CBIPAVSERVER_INFO@@@_STL@@@3@@_STL@@QAE@XZ
_TEXT	SEGMENT PARA USE32 PUBLIC 'CODE'
_TEXT	ENDS
;	COMDAT ?begin@?$map@IPAVSERVER_INFO@@U?$less@I@_STL@@V?$allocator@U?$pair@$$CBIPAVSERVER_INFO@@@_STL@@@3@@_STL@@QAE?AU?$_Rb_tree_iterator@U?$pair@$$CBIPAVSERVER_INFO@@@_STL@@U?$_Nonconst_traits@U?$pair@$$CBIPAVSERVER_INFO@@@_STL@@@2@@2@XZ
_TEXT	SEGMENT PARA USE32 PUBLIC 'CODE'
_TEXT	ENDS
;	COMDAT ?end@?$map@IPAVSERVER_INFO@@U?$less@I@_STL@@V?$allocator@U?$pair@$$CBIPAVSERVER_INFO@@@_STL@@@3@@_STL@@QAE?AU?$_Rb_tree_iterator@U?$pair@$$CBIPAVSERVER_INFO@@@_STL@@U?$_Nonconst_traits@U?$pair@$$CBIPAVSERVER_INFO@@@_STL@@@2@@2@XZ
_TEXT	SEGMENT PARA USE32 PUBLIC 'CODE'
_TEXT	ENDS
;	COMDAT ?end@?$map@IPAVSERVER_INFO@@U?$less@I@_STL@@V?$allocator@U?$pair@$$CBIPAVSERVER_INFO@@@_STL@@@3@@_STL@@QBE?AU?$_Rb_tree_iterator@U?$pair@$$CBIPAVSERVER_INFO@@@_STL@@U?$_Const_traits@U?$pair@$$CBIPAVSERVER_INFO@@@_STL@@@2@@2@XZ
_TEXT	SEGMENT PARA USE32 PUBLIC 'CODE'
_TEXT	ENDS
;	COMDAT ?insert@?$map@IPAVSERVER_INFO@@U?$less@I@_STL@@V?$allocator@U?$pair@$$CBIPAVSERVER_INFO@@@_STL@@@3@@_STL@@QAE?AU?$pair@U?$_Rb_tree_iterator@U?$pair@$$CBIPAVSERVER_INFO@@@_STL@@U?$_Nonconst_traits@U?$pair@$$CBIPAVSERVER_INFO@@@_STL@@@2@@_STL@@_N@2@ABU?$pair@$$CBIPAVSERVER_INFO@@@2@@Z
_TEXT	SEGMENT PARA USE32 PUBLIC 'CODE'
_TEXT	ENDS
;	COMDAT ?erase@?$map@IPAVSERVER_INFO@@U?$less@I@_STL@@V?$allocator@U?$pair@$$CBIPAVSERVER_INFO@@@_STL@@@3@@_STL@@QAEXU?$_Rb_tree_iterator@U?$pair@$$CBIPAVSERVER_INFO@@@_STL@@U?$_Nonconst_traits@U?$pair@$$CBIPAVSERVER_INFO@@@_STL@@@2@@2@@Z
_TEXT	SEGMENT PARA USE32 PUBLIC 'CODE'
_TEXT	ENDS
;	COMDAT ?clear@?$map@IPAVSERVER_INFO@@U?$less@I@_STL@@V?$allocator@U?$pair@$$CBIPAVSERVER_INFO@@@_STL@@@3@@_STL@@QAEXXZ
_TEXT	SEGMENT PARA USE32 PUBLIC 'CODE'
_TEXT	ENDS
;	COMDAT ?find@?$map@IPAVSERVER_INFO@@U?$less@I@_STL@@V?$allocator@U?$pair@$$CBIPAVSERVER_INFO@@@_STL@@@3@@_STL@@QAE?AU?$_Rb_tree_iterator@U?$pair@$$CBIPAVSERVER_INFO@@@_STL@@U?$_Nonconst_traits@U?$pair@$$CBIPAVSERVER_INFO@@@_STL@@@2@@2@ABI@Z
_TEXT	SEGMENT PARA USE32 PUBLIC 'CODE'
_TEXT	ENDS
;	COMDAT ?find@?$map@IPAVSERVER_INFO@@U?$less@I@_STL@@V?$allocator@U?$pair@$$CBIPAVSERVER_INFO@@@_STL@@@3@@_STL@@QBE?AU?$_Rb_tree_iterator@U?$pair@$$CBIPAVSERVER_INFO@@@_STL@@U?$_Const_traits@U?$pair@$$CBIPAVSERVER_INFO@@@_STL@@@2@@2@ABI@Z
_TEXT	SEGMENT PARA USE32 PUBLIC 'CODE'
_TEXT	ENDS
;	COMDAT ??1?$_Rb_tree@IU?$pair@$$CBIPAVSERVER_INFO@@@_STL@@U?$_Select1st@U?$pair@$$CBIPAVSERVER_INFO@@@_STL@@@2@U?$less@I@2@V?$allocator@U?$pair@$$CBIPAVSERVER_INFO@@@_STL@@@2@@_STL@@QAE@XZ
_TEXT	SEGMENT PARA USE32 PUBLIC 'CODE'
_TEXT	ENDS
;	COMDAT ??0?$map@IPAVServerGroup@@U?$less@I@_STL@@V?$allocator@U?$pair@$$CBIPAVServerGroup@@@_STL@@@3@@_STL@@QAE@XZ
_TEXT	SEGMENT PARA USE32 PUBLIC 'CODE'
_TEXT	ENDS
;	COMDAT ?begin@?$map@IPAVServerGroup@@U?$less@I@_STL@@V?$allocator@U?$pair@$$CBIPAVServerGroup@@@_STL@@@3@@_STL@@QAE?AU?$_Rb_tree_iterator@U?$pair@$$CBIPAVServerGroup@@@_STL@@U?$_Nonconst_traits@U?$pair@$$CBIPAVServerGroup@@@_STL@@@2@@2@XZ
_TEXT	SEGMENT PARA USE32 PUBLIC 'CODE'
_TEXT	ENDS
;	COMDAT ?end@?$map@IPAVServerGroup@@U?$less@I@_STL@@V?$allocator@U?$pair@$$CBIPAVServerGroup@@@_STL@@@3@@_STL@@QAE?AU?$_Rb_tree_iterator@U?$pair@$$CBIPAVServerGroup@@@_STL@@U?$_Nonconst_traits@U?$pair@$$CBIPAVServerGroup@@@_STL@@@2@@2@XZ
_TEXT	SEGMENT PARA USE32 PUBLIC 'CODE'
_TEXT	ENDS
;	COMDAT ?end@?$map@IPAVServerGroup@@U?$less@I@_STL@@V?$allocator@U?$pair@$$CBIPAVServerGroup@@@_STL@@@3@@_STL@@QBE?AU?$_Rb_tree_iterator@U?$pair@$$CBIPAVServerGroup@@@_STL@@U?$_Const_traits@U?$pair@$$CBIPAVServerGroup@@@_STL@@@2@@2@XZ
_TEXT	SEGMENT PARA USE32 PUBLIC 'CODE'
_TEXT	ENDS
;	COMDAT ?insert@?$map@IPAVServerGroup@@U?$less@I@_STL@@V?$allocator@U?$pair@$$CBIPAVServerGroup@@@_STL@@@3@@_STL@@QAE?AU?$pair@U?$_Rb_tree_iterator@U?$pair@$$CBIPAVServerGroup@@@_STL@@U?$_Nonconst_traits@U?$pair@$$CBIPAVServerGroup@@@_STL@@@2@@_STL@@_N@2@ABU?$pair@$$CBIPAVServerGroup@@@2@@Z
_TEXT	SEGMENT PARA USE32 PUBLIC 'CODE'
_TEXT	ENDS
;	COMDAT ?erase@?$map@IPAVServerGroup@@U?$less@I@_STL@@V?$allocator@U?$pair@$$CBIPAVServerGroup@@@_STL@@@3@@_STL@@QAEXU?$_Rb_tree_iterator@U?$pair@$$CBIPAVServerGroup@@@_STL@@U?$_Nonconst_traits@U?$pair@$$CBIPAVServerGroup@@@_STL@@@2@@2@@Z
_TEXT	SEGMENT PARA USE32 PUBLIC 'CODE'
_TEXT	ENDS
;	COMDAT ?clear@?$map@IPAVServerGroup@@U?$less@I@_STL@@V?$allocator@U?$pair@$$CBIPAVServerGroup@@@_STL@@@3@@_STL@@QAEXXZ
_TEXT	SEGMENT PARA USE32 PUBLIC 'CODE'
_TEXT	ENDS
;	COMDAT ?find@?$map@IPAVServerGroup@@U?$less@I@_STL@@V?$allocator@U?$pair@$$CBIPAVServerGroup@@@_STL@@@3@@_STL@@QAE?AU?$_Rb_tree_iterator@U?$pair@$$CBIPAVServerGroup@@@_STL@@U?$_Nonconst_traits@U?$pair@$$CBIPAVServerGroup@@@_STL@@@2@@2@ABI@Z
_TEXT	SEGMENT PARA USE32 PUBLIC 'CODE'
_TEXT	ENDS
;	COMDAT ?find@?$map@IPAVServerGroup@@U?$less@I@_STL@@V?$allocator@U?$pair@$$CBIPAVServerGroup@@@_STL@@@3@@_STL@@QBE?AU?$_Rb_tree_iterator@U?$pair@$$CBIPAVServerGroup@@@_STL@@U?$_Const_traits@U?$pair@$$CBIPAVServerGroup@@@_STL@@@2@@2@ABI@Z
_TEXT	SEGMENT PARA USE32 PUBLIC 'CODE'
_TEXT	ENDS
;	COMDAT ??1?$_Rb_tree@IU?$pair@$$CBIPAVServerGroup@@@_STL@@U?$_Select1st@U?$pair@$$CBIPAVServerGroup@@@_STL@@@2@U?$less@I@2@V?$allocator@U?$pair@$$CBIPAVServerGroup@@@_STL@@@2@@_STL@@QAE@XZ
_TEXT	SEGMENT PARA USE32 PUBLIC 'CODE'
_TEXT	ENDS
;	COMDAT ??0?$_Rb_tree_iterator@U?$pair@$$CBIPAVSERVER_INFO@@@_STL@@U?$_Nonconst_traits@U?$pair@$$CBIPAVSERVER_INFO@@@_STL@@@2@@_STL@@QAE@ABU01@@Z
_TEXT	SEGMENT PARA USE32 PUBLIC 'CODE'
_TEXT	ENDS
;	COMDAT ??D?$_Rb_tree_iterator@U?$pair@$$CBIPAVSERVER_INFO@@@_STL@@U?$_Nonconst_traits@U?$pair@$$CBIPAVSERVER_INFO@@@_STL@@@2@@_STL@@QBEAAU?$pair@$$CBIPAVSERVER_INFO@@@1@XZ
_TEXT	SEGMENT PARA USE32 PUBLIC 'CODE'
_TEXT	ENDS
;	COMDAT ??E?$_Rb_tree_iterator@U?$pair@$$CBIPAVSERVER_INFO@@@_STL@@U?$_Nonconst_traits@U?$pair@$$CBIPAVSERVER_INFO@@@_STL@@@2@@_STL@@QAE?AU01@H@Z
_TEXT	SEGMENT PARA USE32 PUBLIC 'CODE'
_TEXT	ENDS
;	COMDAT ??0?$pair@$$CBIPAVSERVER_INFO@@@_STL@@QAE@ABIABQAVSERVER_INFO@@@Z
_TEXT	SEGMENT PARA USE32 PUBLIC 'CODE'
_TEXT	ENDS
;	COMDAT ??D?$_Rb_tree_iterator@U?$pair@$$CBIPAVSERVER_INFO@@@_STL@@U?$_Const_traits@U?$pair@$$CBIPAVSERVER_INFO@@@_STL@@@2@@_STL@@QBEABU?$pair@$$CBIPAVSERVER_INFO@@@1@XZ
_TEXT	SEGMENT PARA USE32 PUBLIC 'CODE'
_TEXT	ENDS
;	COMDAT ??0?$_Rb_tree_iterator@U?$pair@$$CBIPAVServerGroup@@@_STL@@U?$_Nonconst_traits@U?$pair@$$CBIPAVServerGroup@@@_STL@@@2@@_STL@@QAE@ABU01@@Z
_TEXT	SEGMENT PARA USE32 PUBLIC 'CODE'
_TEXT	ENDS
;	COMDAT ??D?$_Rb_tree_iterator@U?$pair@$$CBIPAVServerGroup@@@_STL@@U?$_Nonconst_traits@U?$pair@$$CBIPAVServerGroup@@@_STL@@@2@@_STL@@QBEAAU?$pair@$$CBIPAVServerGroup@@@1@XZ
_TEXT	SEGMENT PARA USE32 PUBLIC 'CODE'
_TEXT	ENDS
;	COMDAT ??E?$_Rb_tree_iterator@U?$pair@$$CBIPAVServerGroup@@@_STL@@U?$_Nonconst_traits@U?$pair@$$CBIPAVServerGroup@@@_STL@@@2@@_STL@@QAE?AU01@H@Z
_TEXT	SEGMENT PARA USE32 PUBLIC 'CODE'
_TEXT	ENDS
;	COMDAT ??0?$pair@$$CBIPAVServerGroup@@@_STL@@QAE@ABIABQAVServerGroup@@@Z
_TEXT	SEGMENT PARA USE32 PUBLIC 'CODE'
_TEXT	ENDS
;	COMDAT ??D?$_Rb_tree_iterator@U?$pair@$$CBIPAVServerGroup@@@_STL@@U?$_Const_traits@U?$pair@$$CBIPAVServerGroup@@@_STL@@@2@@_STL@@QBEABU?$pair@$$CBIPAVServerGroup@@@1@XZ
_TEXT	SEGMENT PARA USE32 PUBLIC 'CODE'
_TEXT	ENDS
;	COMDAT ??0?$_Rb_tree@IU?$pair@$$CBIPAVSERVER_INFO@@@_STL@@U?$_Select1st@U?$pair@$$CBIPAVSERVER_INFO@@@_STL@@@2@U?$less@I@2@V?$allocator@U?$pair@$$CBIPAVSERVER_INFO@@@_STL@@@2@@_STL@@QAE@ABU?$less@I@1@ABV?$allocator@U?$pair@$$CBIPAVSERVER_INFO@@@_STL@@@1@@Z
_TEXT	SEGMENT PARA USE32 PUBLIC 'CODE'
_TEXT	ENDS
;	COMDAT ?begin@?$_Rb_tree@IU?$pair@$$CBIPAVSERVER_INFO@@@_STL@@U?$_Select1st@U?$pair@$$CBIPAVSERVER_INFO@@@_STL@@@2@U?$less@I@2@V?$allocator@U?$pair@$$CBIPAVSERVER_INFO@@@_STL@@@2@@_STL@@QAE?AU?$_Rb_tree_iterator@U?$pair@$$CBIPAVSERVER_INFO@@@_STL@@U?$_Nonconst_traits@U?$pair@$$CBIPAVSERVER_INFO@@@_STL@@@2@@2@XZ
_TEXT	SEGMENT PARA USE32 PUBLIC 'CODE'
_TEXT	ENDS
;	COMDAT ?end@?$_Rb_tree@IU?$pair@$$CBIPAVSERVER_INFO@@@_STL@@U?$_Select1st@U?$pair@$$CBIPAVSERVER_INFO@@@_STL@@@2@U?$less@I@2@V?$allocator@U?$pair@$$CBIPAVSERVER_INFO@@@_STL@@@2@@_STL@@QAE?AU?$_Rb_tree_iterator@U?$pair@$$CBIPAVSERVER_INFO@@@_STL@@U?$_Nonconst_traits@U?$pair@$$CBIPAVSERVER_INFO@@@_STL@@@2@@2@XZ
_TEXT	SEGMENT PARA USE32 PUBLIC 'CODE'
_TEXT	ENDS
;	COMDAT ?end@?$_Rb_tree@IU?$pair@$$CBIPAVSERVER_INFO@@@_STL@@U?$_Select1st@U?$pair@$$CBIPAVSERVER_INFO@@@_STL@@@2@U?$less@I@2@V?$allocator@U?$pair@$$CBIPAVSERVER_INFO@@@_STL@@@2@@_STL@@QBE?AU?$_Rb_tree_iterator@U?$pair@$$CBIPAVSERVER_INFO@@@_STL@@U?$_Const_traits@U?$pair@$$CBIPAVSERVER_INFO@@@_STL@@@2@@2@XZ
_TEXT	SEGMENT PARA USE32 PUBLIC 'CODE'
_TEXT	ENDS
;	COMDAT ?erase@?$_Rb_tree@IU?$pair@$$CBIPAVSERVER_INFO@@@_STL@@U?$_Select1st@U?$pair@$$CBIPAVSERVER_INFO@@@_STL@@@2@U?$less@I@2@V?$allocator@U?$pair@$$CBIPAVSERVER_INFO@@@_STL@@@2@@_STL@@QAEXU?$_Rb_tree_iterator@U?$pair@$$CBIPAVSERVER_INFO@@@_STL@@U?$_Nonconst_traits@U?$pair@$$CBIPAVSERVER_INFO@@@_STL@@@2@@2@@Z
_TEXT	SEGMENT PARA USE32 PUBLIC 'CODE'
_TEXT	ENDS
;	COMDAT ?clear@?$_Rb_tree@IU?$pair@$$CBIPAVSERVER_INFO@@@_STL@@U?$_Select1st@U?$pair@$$CBIPAVSERVER_INFO@@@_STL@@@2@U?$less@I@2@V?$allocator@U?$pair@$$CBIPAVSERVER_INFO@@@_STL@@@2@@_STL@@QAEXXZ
_TEXT	SEGMENT PARA USE32 PUBLIC 'CODE'
_TEXT	ENDS
;	COMDAT ??1?$_Rb_tree_base@U?$pair@$$CBIPAVSERVER_INFO@@@_STL@@V?$allocator@U?$pair@$$CBIPAVSERVER_INFO@@@_STL@@@2@@_STL@@QAE@XZ
_TEXT	SEGMENT PARA USE32 PUBLIC 'CODE'
_TEXT	ENDS
;	COMDAT ??0?$allocator@U?$pair@$$CBIPAVSERVER_INFO@@@_STL@@@_STL@@QAE@XZ
_TEXT	SEGMENT PARA USE32 PUBLIC 'CODE'
_TEXT	ENDS
;	COMDAT ??1?$allocator@U?$pair@$$CBIPAVSERVER_INFO@@@_STL@@@_STL@@QAE@XZ
_TEXT	SEGMENT PARA USE32 PUBLIC 'CODE'
_TEXT	ENDS
;	COMDAT ??0?$_Rb_tree@IU?$pair@$$CBIPAVServerGroup@@@_STL@@U?$_Select1st@U?$pair@$$CBIPAVServerGroup@@@_STL@@@2@U?$less@I@2@V?$allocator@U?$pair@$$CBIPAVServerGroup@@@_STL@@@2@@_STL@@QAE@ABU?$less@I@1@ABV?$allocator@U?$pair@$$CBIPAVServerGroup@@@_STL@@@1@@Z
_TEXT	SEGMENT PARA USE32 PUBLIC 'CODE'
_TEXT	ENDS
;	COMDAT ?begin@?$_Rb_tree@IU?$pair@$$CBIPAVServerGroup@@@_STL@@U?$_Select1st@U?$pair@$$CBIPAVServerGroup@@@_STL@@@2@U?$less@I@2@V?$allocator@U?$pair@$$CBIPAVServerGroup@@@_STL@@@2@@_STL@@QAE?AU?$_Rb_tree_iterator@U?$pair@$$CBIPAVServerGroup@@@_STL@@U?$_Nonconst_traits@U?$pair@$$CBIPAVServerGroup@@@_STL@@@2@@2@XZ
_TEXT	SEGMENT PARA USE32 PUBLIC 'CODE'
_TEXT	ENDS
;	COMDAT ?end@?$_Rb_tree@IU?$pair@$$CBIPAVServerGroup@@@_STL@@U?$_Select1st@U?$pair@$$CBIPAVServerGroup@@@_STL@@@2@U?$less@I@2@V?$allocator@U?$pair@$$CBIPAVServerGroup@@@_STL@@@2@@_STL@@QAE?AU?$_Rb_tree_iterator@U?$pair@$$CBIPAVServerGroup@@@_STL@@U?$_Nonconst_traits@U?$pair@$$CBIPAVServerGroup@@@_STL@@@2@@2@XZ
_TEXT	SEGMENT PARA USE32 PUBLIC 'CODE'
_TEXT	ENDS
;	COMDAT ?end@?$_Rb_tree@IU?$pair@$$CBIPAVServerGroup@@@_STL@@U?$_Select1st@U?$pair@$$CBIPAVServerGroup@@@_STL@@@2@U?$less@I@2@V?$allocator@U?$pair@$$CBIPAVServerGroup@@@_STL@@@2@@_STL@@QBE?AU?$_Rb_tree_iterator@U?$pair@$$CBIPAVServerGroup@@@_STL@@U?$_Const_traits@U?$pair@$$CBIPAVServerGroup@@@_STL@@@2@@2@XZ
_TEXT	SEGMENT PARA USE32 PUBLIC 'CODE'
_TEXT	ENDS
;	COMDAT ?erase@?$_Rb_tree@IU?$pair@$$CBIPAVServerGroup@@@_STL@@U?$_Select1st@U?$pair@$$CBIPAVServerGroup@@@_STL@@@2@U?$less@I@2@V?$allocator@U?$pair@$$CBIPAVServerGroup@@@_STL@@@2@@_STL@@QAEXU?$_Rb_tree_iterator@U?$pair@$$CBIPAVServerGroup@@@_STL@@U?$_Nonconst_traits@U?$pair@$$CBIPAVServerGroup@@@_STL@@@2@@2@@Z
_TEXT	SEGMENT PARA USE32 PUBLIC 'CODE'
_TEXT	ENDS
;	COMDAT ?clear@?$_Rb_tree@IU?$pair@$$CBIPAVServerGroup@@@_STL@@U?$_Select1st@U?$pair@$$CBIPAVServerGroup@@@_STL@@@2@U?$less@I@2@V?$allocator@U?$pair@$$CBIPAVServerGroup@@@_STL@@@2@@_STL@@QAEXXZ
_TEXT	SEGMENT PARA USE32 PUBLIC 'CODE'
_TEXT	ENDS
;	COMDAT ??1?$_Rb_tree_base@U?$pair@$$CBIPAVServerGroup@@@_STL@@V?$allocator@U?$pair@$$CBIPAVServerGroup@@@_STL@@@2@@_STL@@QAE@XZ
_TEXT	SEGMENT PARA USE32 PUBLIC 'CODE'
_TEXT	ENDS
;	COMDAT ??0?$allocator@U?$pair@$$CBIPAVServerGroup@@@_STL@@@_STL@@QAE@XZ
_TEXT	SEGMENT PARA USE32 PUBLIC 'CODE'
_TEXT	ENDS
;	COMDAT ??1?$allocator@U?$pair@$$CBIPAVServerGroup@@@_STL@@@_STL@@QAE@XZ
_TEXT	SEGMENT PARA USE32 PUBLIC 'CODE'
_TEXT	ENDS
;	COMDAT ??1?$_STLP_alloc_proxy@PAU?$_Rb_tree_node@U?$pair@$$CBIPAVSERVER_INFO@@@_STL@@@_STL@@U12@V?$allocator@U?$_Rb_tree_node@U?$pair@$$CBIPAVSERVER_INFO@@@_STL@@@_STL@@@2@@_STL@@QAE@XZ
_TEXT	SEGMENT PARA USE32 PUBLIC 'CODE'
_TEXT	ENDS
;	COMDAT ??1?$_STLP_alloc_proxy@PAU?$_Rb_tree_node@U?$pair@$$CBIPAVServerGroup@@@_STL@@@_STL@@U12@V?$allocator@U?$_Rb_tree_node@U?$pair@$$CBIPAVServerGroup@@@_STL@@@_STL@@@2@@_STL@@QAE@XZ
_TEXT	SEGMENT PARA USE32 PUBLIC 'CODE'
_TEXT	ENDS
;	COMDAT ?_M_root@?$_Rb_tree@IU?$pair@$$CBIPAVSERVER_INFO@@@_STL@@U?$_Select1st@U?$pair@$$CBIPAVSERVER_INFO@@@_STL@@@2@U?$less@I@2@V?$allocator@U?$pair@$$CBIPAVSERVER_INFO@@@_STL@@@2@@_STL@@IBEAAPAU?$_Rb_tree_node@U?$pair@$$CBIPAVSERVER_INFO@@@_STL@@@2@XZ
_TEXT	SEGMENT PARA USE32 PUBLIC 'CODE'
_TEXT	ENDS
;	COMDAT ?_M_leftmost@?$_Rb_tree@IU?$pair@$$CBIPAVSERVER_INFO@@@_STL@@U?$_Select1st@U?$pair@$$CBIPAVSERVER_INFO@@@_STL@@@2@U?$less@I@2@V?$allocator@U?$pair@$$CBIPAVSERVER_INFO@@@_STL@@@2@@_STL@@IBEAAPAU?$_Rb_tree_node@U?$pair@$$CBIPAVSERVER_INFO@@@_STL@@@2@XZ
_TEXT	SEGMENT PARA USE32 PUBLIC 'CODE'
_TEXT	ENDS
;	COMDAT ?_M_rightmost@?$_Rb_tree@IU?$pair@$$CBIPAVSERVER_INFO@@@_STL@@U?$_Select1st@U?$pair@$$CBIPAVSERVER_INFO@@@_STL@@@2@U?$less@I@2@V?$allocator@U?$pair@$$CBIPAVSERVER_INFO@@@_STL@@@2@@_STL@@IBEAAPAU?$_Rb_tree_node@U?$pair@$$CBIPAVSERVER_INFO@@@_STL@@@2@XZ
_TEXT	SEGMENT PARA USE32 PUBLIC 'CODE'
_TEXT	ENDS
;	COMDAT ?_M_empty_initialize@?$_Rb_tree@IU?$pair@$$CBIPAVSERVER_INFO@@@_STL@@U?$_Select1st@U?$pair@$$CBIPAVSERVER_INFO@@@_STL@@@2@U?$less@I@2@V?$allocator@U?$pair@$$CBIPAVSERVER_INFO@@@_STL@@@2@@_STL@@AAEXXZ
_TEXT	SEGMENT PARA USE32 PUBLIC 'CODE'
_TEXT	ENDS
;	COMDAT ??0?$_Rb_tree_base@U?$pair@$$CBIPAVSERVER_INFO@@@_STL@@V?$allocator@U?$pair@$$CBIPAVSERVER_INFO@@@_STL@@@2@@_STL@@QAE@ABV?$allocator@U?$pair@$$CBIPAVSERVER_INFO@@@_STL@@@1@@Z
_TEXT	SEGMENT PARA USE32 PUBLIC 'CODE'
_TEXT	ENDS
;	COMDAT ??1?$allocator@U?$_Rb_tree_node@U?$pair@$$CBIPAVSERVER_INFO@@@_STL@@@_STL@@@_STL@@QAE@XZ
_TEXT	SEGMENT PARA USE32 PUBLIC 'CODE'
_TEXT	ENDS
;	COMDAT ?deallocate@?$allocator@U?$_Rb_tree_node@U?$pair@$$CBIPAVSERVER_INFO@@@_STL@@@_STL@@@_STL@@QAEXPAU?$_Rb_tree_node@U?$pair@$$CBIPAVSERVER_INFO@@@_STL@@@2@I@Z
_TEXT	SEGMENT PARA USE32 PUBLIC 'CODE'
_TEXT	ENDS
;	COMDAT ?_M_root@?$_Rb_tree@IU?$pair@$$CBIPAVServerGroup@@@_STL@@U?$_Select1st@U?$pair@$$CBIPAVServerGroup@@@_STL@@@2@U?$less@I@2@V?$allocator@U?$pair@$$CBIPAVServerGroup@@@_STL@@@2@@_STL@@IBEAAPAU?$_Rb_tree_node@U?$pair@$$CBIPAVServerGroup@@@_STL@@@2@XZ
_TEXT	SEGMENT PARA USE32 PUBLIC 'CODE'
_TEXT	ENDS
;	COMDAT ?_M_leftmost@?$_Rb_tree@IU?$pair@$$CBIPAVServerGroup@@@_STL@@U?$_Select1st@U?$pair@$$CBIPAVServerGroup@@@_STL@@@2@U?$less@I@2@V?$allocator@U?$pair@$$CBIPAVServerGroup@@@_STL@@@2@@_STL@@IBEAAPAU?$_Rb_tree_node@U?$pair@$$CBIPAVServerGroup@@@_STL@@@2@XZ
_TEXT	SEGMENT PARA USE32 PUBLIC 'CODE'
_TEXT	ENDS
;	COMDAT ?_M_rightmost@?$_Rb_tree@IU?$pair@$$CBIPAVServerGroup@@@_STL@@U?$_Select1st@U?$pair@$$CBIPAVServerGroup@@@_STL@@@2@U?$less@I@2@V?$allocator@U?$pair@$$CBIPAVServerGroup@@@_STL@@@2@@_STL@@IBEAAPAU?$_Rb_tree_node@U?$pair@$$CBIPAVServerGroup@@@_STL@@@2@XZ
_TEXT	SEGMENT PARA USE32 PUBLIC 'CODE'
_TEXT	ENDS
;	COMDAT ?_M_empty_initialize@?$_Rb_tree@IU?$pair@$$CBIPAVServerGroup@@@_STL@@U?$_Select1st@U?$pair@$$CBIPAVServerGroup@@@_STL@@@2@U?$less@I@2@V?$allocator@U?$pair@$$CBIPAVServerGroup@@@_STL@@@2@@_STL@@AAEXXZ
_TEXT	SEGMENT PARA USE32 PUBLIC 'CODE'
_TEXT	ENDS
;	COMDAT ??0?$_Rb_tree_base@U?$pair@$$CBIPAVServerGroup@@@_STL@@V?$allocator@U?$pair@$$CBIPAVServerGroup@@@_STL@@@2@@_STL@@QAE@ABV?$allocator@U?$pair@$$CBIPAVServerGroup@@@_STL@@@1@@Z
_TEXT	SEGMENT PARA USE32 PUBLIC 'CODE'
_TEXT	ENDS
;	COMDAT ??1?$allocator@U?$_Rb_tree_node@U?$pair@$$CBIPAVServerGroup@@@_STL@@@_STL@@@_STL@@QAE@XZ
_TEXT	SEGMENT PARA USE32 PUBLIC 'CODE'
_TEXT	ENDS
;	COMDAT ?deallocate@?$allocator@U?$_Rb_tree_node@U?$pair@$$CBIPAVServerGroup@@@_STL@@@_STL@@@_STL@@QAEXPAU?$_Rb_tree_node@U?$pair@$$CBIPAVServerGroup@@@_STL@@@2@I@Z
_TEXT	SEGMENT PARA USE32 PUBLIC 'CODE'
_TEXT	ENDS
;	COMDAT ??0?$_Rb_tree_iterator@U?$pair@$$CBIPAVSERVER_INFO@@@_STL@@U?$_Nonconst_traits@U?$pair@$$CBIPAVSERVER_INFO@@@_STL@@@2@@_STL@@QAE@PAU?$_Rb_tree_node@U?$pair@$$CBIPAVSERVER_INFO@@@_STL@@@1@@Z
_TEXT	SEGMENT PARA USE32 PUBLIC 'CODE'
_TEXT	ENDS
;	COMDAT ??0?$_Rb_tree_iterator@U?$pair@$$CBIPAVSERVER_INFO@@@_STL@@U?$_Const_traits@U?$pair@$$CBIPAVSERVER_INFO@@@_STL@@@2@@_STL@@QAE@PAU?$_Rb_tree_node@U?$pair@$$CBIPAVSERVER_INFO@@@_STL@@@1@@Z
_TEXT	SEGMENT PARA USE32 PUBLIC 'CODE'
_TEXT	ENDS
;	COMDAT ??0?$_Rb_tree_iterator@U?$pair@$$CBIPAVServerGroup@@@_STL@@U?$_Nonconst_traits@U?$pair@$$CBIPAVServerGroup@@@_STL@@@2@@_STL@@QAE@PAU?$_Rb_tree_node@U?$pair@$$CBIPAVServerGroup@@@_STL@@@1@@Z
_TEXT	SEGMENT PARA USE32 PUBLIC 'CODE'
_TEXT	ENDS
;	COMDAT ??0?$_Rb_tree_iterator@U?$pair@$$CBIPAVServerGroup@@@_STL@@U?$_Const_traits@U?$pair@$$CBIPAVServerGroup@@@_STL@@@2@@_STL@@QAE@PAU?$_Rb_tree_node@U?$pair@$$CBIPAVServerGroup@@@_STL@@@1@@Z
_TEXT	SEGMENT PARA USE32 PUBLIC 'CODE'
_TEXT	ENDS
;	COMDAT ?_S_color@?$_Rb_tree@IU?$pair@$$CBIPAVSERVER_INFO@@@_STL@@U?$_Select1st@U?$pair@$$CBIPAVSERVER_INFO@@@_STL@@@2@U?$less@I@2@V?$allocator@U?$pair@$$CBIPAVSERVER_INFO@@@_STL@@@2@@_STL@@KAAA_NPAU?$_Rb_tree_node@U?$pair@$$CBIPAVSERVER_INFO@@@_STL@@@2@@Z
_TEXT	SEGMENT PARA USE32 PUBLIC 'CODE'
_TEXT	ENDS
;	COMDAT ??0?$_STLP_alloc_proxy@PAU?$_Rb_tree_node@U?$pair@$$CBIPAVSERVER_INFO@@@_STL@@@_STL@@U12@V?$allocator@U?$_Rb_tree_node@U?$pair@$$CBIPAVSERVER_INFO@@@_STL@@@_STL@@@2@@_STL@@QAE@ABV?$allocator@U?$_Rb_tree_node@U?$pair@$$CBIPAVSERVER_INFO@@@_STL@@@_STL@@@1@PAU?$_Rb_tree_node@U?$pair@$$CBIPAVSERVER_INFO@@@_STL@@@1@@Z
_TEXT	SEGMENT PARA USE32 PUBLIC 'CODE'
_TEXT	ENDS
;	COMDAT ?allocate@?$allocator@U?$_Rb_tree_node@U?$pair@$$CBIPAVSERVER_INFO@@@_STL@@@_STL@@@_STL@@QAEPAU?$_Rb_tree_node@U?$pair@$$CBIPAVSERVER_INFO@@@_STL@@@2@IPBX@Z
_TEXT	SEGMENT PARA USE32 PUBLIC 'CODE'
_TEXT	ENDS
;	COMDAT ?_S_color@?$_Rb_tree@IU?$pair@$$CBIPAVServerGroup@@@_STL@@U?$_Select1st@U?$pair@$$CBIPAVServerGroup@@@_STL@@@2@U?$less@I@2@V?$allocator@U?$pair@$$CBIPAVServerGroup@@@_STL@@@2@@_STL@@KAAA_NPAU?$_Rb_tree_node@U?$pair@$$CBIPAVServerGroup@@@_STL@@@2@@Z
_TEXT	SEGMENT PARA USE32 PUBLIC 'CODE'
_TEXT	ENDS
;	COMDAT ??0?$_STLP_alloc_proxy@PAU?$_Rb_tree_node@U?$pair@$$CBIPAVServerGroup@@@_STL@@@_STL@@U12@V?$allocator@U?$_Rb_tree_node@U?$pair@$$CBIPAVServerGroup@@@_STL@@@_STL@@@2@@_STL@@QAE@ABV?$allocator@U?$_Rb_tree_node@U?$pair@$$CBIPAVServerGroup@@@_STL@@@_STL@@@1@PAU?$_Rb_tree_node@U?$pair@$$CBIPAVServerGroup@@@_STL@@@1@@Z
_TEXT	SEGMENT PARA USE32 PUBLIC 'CODE'
_TEXT	ENDS
;	COMDAT ?allocate@?$allocator@U?$_Rb_tree_node@U?$pair@$$CBIPAVServerGroup@@@_STL@@@_STL@@@_STL@@QAEPAU?$_Rb_tree_node@U?$pair@$$CBIPAVServerGroup@@@_STL@@@2@IPBX@Z
_TEXT	SEGMENT PARA USE32 PUBLIC 'CODE'
_TEXT	ENDS
;	COMDAT ??0?$allocator@U?$_Rb_tree_node@U?$pair@$$CBIPAVSERVER_INFO@@@_STL@@@_STL@@@_STL@@QAE@ABV01@@Z
_TEXT	SEGMENT PARA USE32 PUBLIC 'CODE'
_TEXT	ENDS
;	COMDAT ??0?$allocator@U?$_Rb_tree_node@U?$pair@$$CBIPAVServerGroup@@@_STL@@@_STL@@@_STL@@QAE@ABV01@@Z
_TEXT	SEGMENT PARA USE32 PUBLIC 'CODE'
_TEXT	ENDS
;	COMDAT ??$_M_range_initialize@PBD@?$basic_string@DV?$char_traits@D@_STL@@V?$allocator@D@2@@_STL@@AAEXPBD0ABUforward_iterator_tag@1@@Z
_TEXT	SEGMENT PARA USE32 PUBLIC 'CODE'
_TEXT	ENDS
;	COMDAT ??$_M_range_initialize@PAD@?$basic_string@DV?$char_traits@D@_STL@@V?$allocator@D@2@@_STL@@AAEXPAD0ABUforward_iterator_tag@1@@Z
_TEXT	SEGMENT PARA USE32 PUBLIC 'CODE'
_TEXT	ENDS
;	COMDAT ?_M_unshift@?$basic_filebuf@DV?$char_traits@D@_STL@@@_STL@@AAE_NXZ
_TEXT	SEGMENT PARA USE32 PUBLIC 'CODE'
_TEXT	ENDS
;	COMDAT ?_M_allocate_buffers@?$basic_filebuf@DV?$char_traits@D@_STL@@@_STL@@AAE_NXZ
_TEXT	SEGMENT PARA USE32 PUBLIC 'CODE'
_TEXT	ENDS
;	COMDAT ??$max@H@_STL@@YAABHABH0@Z
_TEXT	SEGMENT PARA USE32 PUBLIC 'CODE'
_TEXT	ENDS
;	COMDAT ??$use_facet@V?$codecvt@DDH@_STL@@@_STL@@YAABV?$codecvt@DDH@0@ABVlocale@0@@Z
_TEXT	SEGMENT PARA USE32 PUBLIC 'CODE'
_TEXT	ENDS
;	COMDAT ??$append@PAD@?$basic_string@DV?$char_traits@D@_STL@@V?$allocator@D@2@@_STL@@QAEAAV01@PAD0@Z
_TEXT	SEGMENT PARA USE32 PUBLIC 'CODE'
_TEXT	ENDS
;	COMDAT ??$_M_append_dispatch@PBD@?$basic_string@DV?$char_traits@D@_STL@@V?$allocator@D@2@@_STL@@AAEAAV01@PBD0ABU__false_type@1@@Z
_TEXT	SEGMENT PARA USE32 PUBLIC 'CODE'
_TEXT	ENDS
;	COMDAT ?_M_erase@?$_Rb_tree@IU?$pair@$$CBIPAVSERVER_INFO@@@_STL@@U?$_Select1st@U?$pair@$$CBIPAVSERVER_INFO@@@_STL@@@2@U?$less@I@2@V?$allocator@U?$pair@$$CBIPAVSERVER_INFO@@@_STL@@@2@@_STL@@AAEXPAU?$_Rb_tree_node@U?$pair@$$CBIPAVSERVER_INFO@@@_STL@@@2@@Z
_TEXT	SEGMENT PARA USE32 PUBLIC 'CODE'
_TEXT	ENDS
;	COMDAT ?insert_unique@?$_Rb_tree@IU?$pair@$$CBIPAVSERVER_INFO@@@_STL@@U?$_Select1st@U?$pair@$$CBIPAVSERVER_INFO@@@_STL@@@2@U?$less@I@2@V?$allocator@U?$pair@$$CBIPAVSERVER_INFO@@@_STL@@@2@@_STL@@QAE?AU?$pair@U?$_Rb_tree_iterator@U?$pair@$$CBIPAVSERVER_INFO@@@_STL@@U?$_Nonconst_traits@U?$pair@$$CBIPAVSERVER_INFO@@@_STL@@@2@@_STL@@_N@2@ABU?$pair@$$CBIPAVSERVER_INFO@@@2@@Z
_TEXT	SEGMENT PARA USE32 PUBLIC 'CODE'
_TEXT	ENDS
;	COMDAT ?_M_erase@?$_Rb_tree@IU?$pair@$$CBIPAVServerGroup@@@_STL@@U?$_Select1st@U?$pair@$$CBIPAVServerGroup@@@_STL@@@2@U?$less@I@2@V?$allocator@U?$pair@$$CBIPAVServerGroup@@@_STL@@@2@@_STL@@AAEXPAU?$_Rb_tree_node@U?$pair@$$CBIPAVServerGroup@@@_STL@@@2@@Z
_TEXT	SEGMENT PARA USE32 PUBLIC 'CODE'
_TEXT	ENDS
;	COMDAT ?insert_unique@?$_Rb_tree@IU?$pair@$$CBIPAVServerGroup@@@_STL@@U?$_Select1st@U?$pair@$$CBIPAVServerGroup@@@_STL@@@2@U?$less@I@2@V?$allocator@U?$pair@$$CBIPAVServerGroup@@@_STL@@@2@@_STL@@QAE?AU?$pair@U?$_Rb_tree_iterator@U?$pair@$$CBIPAVServerGroup@@@_STL@@U?$_Nonconst_traits@U?$pair@$$CBIPAVServerGroup@@@_STL@@@2@@_STL@@_N@2@ABU?$pair@$$CBIPAVServerGroup@@@2@@Z
_TEXT	SEGMENT PARA USE32 PUBLIC 'CODE'
_TEXT	ENDS
;	COMDAT ??$find@I@?$_Rb_tree@IU?$pair@$$CBIPAVSERVER_INFO@@@_STL@@U?$_Select1st@U?$pair@$$CBIPAVSERVER_INFO@@@_STL@@@2@U?$less@I@2@V?$allocator@U?$pair@$$CBIPAVSERVER_INFO@@@_STL@@@2@@_STL@@QAE?AU?$_Rb_tree_iterator@U?$pair@$$CBIPAVSERVER_INFO@@@_STL@@U?$_Nonconst_traits@U?$pair@$$CBIPAVSERVER_INFO@@@_STL@@@2@@1@ABI@Z
_TEXT	SEGMENT PARA USE32 PUBLIC 'CODE'
_TEXT	ENDS
;	COMDAT ??$find@I@?$_Rb_tree@IU?$pair@$$CBIPAVSERVER_INFO@@@_STL@@U?$_Select1st@U?$pair@$$CBIPAVSERVER_INFO@@@_STL@@@2@U?$less@I@2@V?$allocator@U?$pair@$$CBIPAVSERVER_INFO@@@_STL@@@2@@_STL@@QBE?AU?$_Rb_tree_iterator@U?$pair@$$CBIPAVSERVER_INFO@@@_STL@@U?$_Const_traits@U?$pair@$$CBIPAVSERVER_INFO@@@_STL@@@2@@1@ABI@Z
_TEXT	SEGMENT PARA USE32 PUBLIC 'CODE'
_TEXT	ENDS
;	COMDAT ??$find@I@?$_Rb_tree@IU?$pair@$$CBIPAVServerGroup@@@_STL@@U?$_Select1st@U?$pair@$$CBIPAVServerGroup@@@_STL@@@2@U?$less@I@2@V?$allocator@U?$pair@$$CBIPAVServerGroup@@@_STL@@@2@@_STL@@QAE?AU?$_Rb_tree_iterator@U?$pair@$$CBIPAVServerGroup@@@_STL@@U?$_Nonconst_traits@U?$pair@$$CBIPAVServerGroup@@@_STL@@@2@@1@ABI@Z
_TEXT	SEGMENT PARA USE32 PUBLIC 'CODE'
_TEXT	ENDS
;	COMDAT ??$find@I@?$_Rb_tree@IU?$pair@$$CBIPAVServerGroup@@@_STL@@U?$_Select1st@U?$pair@$$CBIPAVServerGroup@@@_STL@@@2@U?$less@I@2@V?$allocator@U?$pair@$$CBIPAVServerGroup@@@_STL@@@2@@_STL@@QBE?AU?$_Rb_tree_iterator@U?$pair@$$CBIPAVServerGroup@@@_STL@@U?$_Const_traits@U?$pair@$$CBIPAVServerGroup@@@_STL@@@2@@1@ABI@Z
_TEXT	SEGMENT PARA USE32 PUBLIC 'CODE'
_TEXT	ENDS
;	COMDAT ??$_Destroy@U?$pair@$$CBIPAVSERVER_INFO@@@_STL@@@_STL@@YAXPAU?$pair@$$CBIPAVSERVER_INFO@@@0@@Z
_TEXT	SEGMENT PARA USE32 PUBLIC 'CODE'
_TEXT	ENDS
;	COMDAT ??$_Destroy@U?$pair@$$CBIPAVServerGroup@@@_STL@@@_STL@@YAXPAU?$pair@$$CBIPAVServerGroup@@@0@@Z
_TEXT	SEGMENT PARA USE32 PUBLIC 'CODE'
_TEXT	ENDS
;	COMDAT ??$?0U?$pair@$$CBIPAVSERVER_INFO@@@_STL@@@?$allocator@U?$_Rb_tree_node@U?$pair@$$CBIPAVSERVER_INFO@@@_STL@@@_STL@@@_STL@@QAE@ABV?$allocator@U?$pair@$$CBIPAVSERVER_INFO@@@_STL@@@1@@Z
_TEXT	SEGMENT PARA USE32 PUBLIC 'CODE'
_TEXT	ENDS
;	COMDAT ??$?0U?$pair@$$CBIPAVServerGroup@@@_STL@@@?$allocator@U?$_Rb_tree_node@U?$pair@$$CBIPAVServerGroup@@@_STL@@@_STL@@@_STL@@QAE@ABV?$allocator@U?$pair@$$CBIPAVServerGroup@@@_STL@@@1@@Z
_TEXT	SEGMENT PARA USE32 PUBLIC 'CODE'
_TEXT	ENDS
;	COMDAT ?_S_left@?$_Rb_tree@IU?$pair@$$CBIPAVSERVER_INFO@@@_STL@@U?$_Select1st@U?$pair@$$CBIPAVSERVER_INFO@@@_STL@@@2@U?$less@I@2@V?$allocator@U?$pair@$$CBIPAVSERVER_INFO@@@_STL@@@2@@_STL@@KAAAPAU?$_Rb_tree_node@U?$pair@$$CBIPAVSERVER_INFO@@@_STL@@@2@PAU32@@Z
_TEXT	SEGMENT PARA USE32 PUBLIC 'CODE'
_TEXT	ENDS
;	COMDAT ?_S_right@?$_Rb_tree@IU?$pair@$$CBIPAVSERVER_INFO@@@_STL@@U?$_Select1st@U?$pair@$$CBIPAVSERVER_INFO@@@_STL@@@2@U?$less@I@2@V?$allocator@U?$pair@$$CBIPAVSERVER_INFO@@@_STL@@@2@@_STL@@KAAAPAU?$_Rb_tree_node@U?$pair@$$CBIPAVSERVER_INFO@@@_STL@@@2@PAU32@@Z
_TEXT	SEGMENT PARA USE32 PUBLIC 'CODE'
_TEXT	ENDS
;	COMDAT ?_S_key@?$_Rb_tree@IU?$pair@$$CBIPAVSERVER_INFO@@@_STL@@U?$_Select1st@U?$pair@$$CBIPAVSERVER_INFO@@@_STL@@@2@U?$less@I@2@V?$allocator@U?$pair@$$CBIPAVSERVER_INFO@@@_STL@@@2@@_STL@@KAABIPAU?$_Rb_tree_node@U?$pair@$$CBIPAVSERVER_INFO@@@_STL@@@2@@Z
_TEXT	SEGMENT PARA USE32 PUBLIC 'CODE'
_TEXT	ENDS
;	COMDAT ?_S_key@?$_Rb_tree@IU?$pair@$$CBIPAVSERVER_INFO@@@_STL@@U?$_Select1st@U?$pair@$$CBIPAVSERVER_INFO@@@_STL@@@2@U?$less@I@2@V?$allocator@U?$pair@$$CBIPAVSERVER_INFO@@@_STL@@@2@@_STL@@KAABIPAU_Rb_tree_node_base@2@@Z
_TEXT	SEGMENT PARA USE32 PUBLIC 'CODE'
_TEXT	ENDS
;	COMDAT ??R?$less@I@_STL@@QBE_NABI0@Z
_TEXT	SEGMENT PARA USE32 PUBLIC 'CODE'
_TEXT	ENDS
;	COMDAT ?_S_left@?$_Rb_tree@IU?$pair@$$CBIPAVServerGroup@@@_STL@@U?$_Select1st@U?$pair@$$CBIPAVServerGroup@@@_STL@@@2@U?$less@I@2@V?$allocator@U?$pair@$$CBIPAVServerGroup@@@_STL@@@2@@_STL@@KAAAPAU?$_Rb_tree_node@U?$pair@$$CBIPAVServerGroup@@@_STL@@@2@PAU32@@Z
_TEXT	SEGMENT PARA USE32 PUBLIC 'CODE'
_TEXT	ENDS
;	COMDAT ?_S_right@?$_Rb_tree@IU?$pair@$$CBIPAVServerGroup@@@_STL@@U?$_Select1st@U?$pair@$$CBIPAVServerGroup@@@_STL@@@2@U?$less@I@2@V?$allocator@U?$pair@$$CBIPAVServerGroup@@@_STL@@@2@@_STL@@KAAAPAU?$_Rb_tree_node@U?$pair@$$CBIPAVServerGroup@@@_STL@@@2@PAU32@@Z
_TEXT	SEGMENT PARA USE32 PUBLIC 'CODE'
_TEXT	ENDS
;	COMDAT ?_S_key@?$_Rb_tree@IU?$pair@$$CBIPAVServerGroup@@@_STL@@U?$_Select1st@U?$pair@$$CBIPAVServerGroup@@@_STL@@@2@U?$less@I@2@V?$allocator@U?$pair@$$CBIPAVServerGroup@@@_STL@@@2@@_STL@@KAABIPAU?$_Rb_tree_node@U?$pair@$$CBIPAVServerGroup@@@_STL@@@2@@Z
_TEXT	SEGMENT PARA USE32 PUBLIC 'CODE'
_TEXT	ENDS
;	COMDAT ?_S_key@?$_Rb_tree@IU?$pair@$$CBIPAVServerGroup@@@_STL@@U?$_Select1st@U?$pair@$$CBIPAVServerGroup@@@_STL@@@2@U?$less@I@2@V?$allocator@U?$pair@$$CBIPAVServerGroup@@@_STL@@@2@@_STL@@KAABIPAU_Rb_tree_node_base@2@@Z
_TEXT	SEGMENT PARA USE32 PUBLIC 'CODE'
_TEXT	ENDS
;	COMDAT ??F?$_Rb_tree_iterator@U?$pair@$$CBIPAVSERVER_INFO@@@_STL@@U?$_Nonconst_traits@U?$pair@$$CBIPAVSERVER_INFO@@@_STL@@@2@@_STL@@QAEAAU01@XZ
_TEXT	SEGMENT PARA USE32 PUBLIC 'CODE'
_TEXT	ENDS
;	COMDAT ??0?$pair@U?$_Rb_tree_iterator@U?$pair@$$CBIPAVSERVER_INFO@@@_STL@@U?$_Nonconst_traits@U?$pair@$$CBIPAVSERVER_INFO@@@_STL@@@2@@_STL@@_N@_STL@@QAE@ABU?$_Rb_tree_iterator@U?$pair@$$CBIPAVSERVER_INFO@@@_STL@@U?$_Nonconst_traits@U?$pair@$$CBIPAVSERVER_INFO@@@_STL@@@2@@1@AB_N@Z
_TEXT	SEGMENT PARA USE32 PUBLIC 'CODE'
_TEXT	ENDS
;	COMDAT ??F?$_Rb_tree_iterator@U?$pair@$$CBIPAVServerGroup@@@_STL@@U?$_Nonconst_traits@U?$pair@$$CBIPAVServerGroup@@@_STL@@@2@@_STL@@QAEAAU01@XZ
_TEXT	SEGMENT PARA USE32 PUBLIC 'CODE'
_TEXT	ENDS
;	COMDAT ??0?$pair@U?$_Rb_tree_iterator@U?$pair@$$CBIPAVServerGroup@@@_STL@@U?$_Nonconst_traits@U?$pair@$$CBIPAVServerGroup@@@_STL@@@2@@_STL@@_N@_STL@@QAE@ABU?$_Rb_tree_iterator@U?$pair@$$CBIPAVServerGroup@@@_STL@@U?$_Nonconst_traits@U?$pair@$$CBIPAVServerGroup@@@_STL@@@2@@1@AB_N@Z
_TEXT	SEGMENT PARA USE32 PUBLIC 'CODE'
_TEXT	ENDS
;	COMDAT ??R?$_Select1st@U?$pair@$$CBIPAVSERVER_INFO@@@_STL@@@_STL@@QBEABIABU?$pair@$$CBIPAVSERVER_INFO@@@1@@Z
_TEXT	SEGMENT PARA USE32 PUBLIC 'CODE'
_TEXT	ENDS
;	COMDAT ??R?$_Select1st@U?$pair@$$CBIPAVServerGroup@@@_STL@@@_STL@@QBEABIABU?$pair@$$CBIPAVServerGroup@@@1@@Z
_TEXT	SEGMENT PARA USE32 PUBLIC 'CODE'
_TEXT	ENDS
;	COMDAT ?_S_value@?$_Rb_tree@IU?$pair@$$CBIPAVSERVER_INFO@@@_STL@@U?$_Select1st@U?$pair@$$CBIPAVSERVER_INFO@@@_STL@@@2@U?$less@I@2@V?$allocator@U?$pair@$$CBIPAVSERVER_INFO@@@_STL@@@2@@_STL@@KAAAU?$pair@$$CBIPAVSERVER_INFO@@@2@PAU?$_Rb_tree_node@U?$pair@$$CBIPAVSERVER_INFO@@@_STL@@@2@@Z
_TEXT	SEGMENT PARA USE32 PUBLIC 'CODE'
_TEXT	ENDS
;	COMDAT ?_S_value@?$_Rb_tree@IU?$pair@$$CBIPAVServerGroup@@@_STL@@U?$_Select1st@U?$pair@$$CBIPAVServerGroup@@@_STL@@@2@U?$less@I@2@V?$allocator@U?$pair@$$CBIPAVServerGroup@@@_STL@@@2@@_STL@@KAAAU?$pair@$$CBIPAVServerGroup@@@2@PAU?$_Rb_tree_node@U?$pair@$$CBIPAVServerGroup@@@_STL@@@2@@Z
_TEXT	SEGMENT PARA USE32 PUBLIC 'CODE'
_TEXT	ENDS
;	COMDAT ??$distance@PBD@_STL@@YAHABQBD0@Z
_TEXT	SEGMENT PARA USE32 PUBLIC 'CODE'
_TEXT	ENDS
;	COMDAT ?_M_allocate_block@?$_String_base@DV?$allocator@D@_STL@@@_STL@@QAEXI@Z
_TEXT	SEGMENT PARA USE32 PUBLIC 'CODE'
_TEXT	ENDS
;	COMDAT ??$distance@PAD@_STL@@YAHABQAD0@Z
_TEXT	SEGMENT PARA USE32 PUBLIC 'CODE'
_TEXT	ENDS
;	COMDAT ??$uninitialized_copy@PADPAD@_STL@@YAPADPAD00@Z
_TEXT	SEGMENT PARA USE32 PUBLIC 'CODE'
_TEXT	ENDS
;	COMDAT ??$_M_append_dispatch@PAD@?$basic_string@DV?$char_traits@D@_STL@@V?$allocator@D@2@@_STL@@AAEAAV01@PAD0ABU__false_type@1@@Z
_TEXT	SEGMENT PARA USE32 PUBLIC 'CODE'
_TEXT	ENDS
;	COMDAT ??$append@PBD@?$basic_string@DV?$char_traits@D@_STL@@V?$allocator@D@2@@_STL@@AAEAAV01@PBD0ABUforward_iterator_tag@1@@Z
_TEXT	SEGMENT PARA USE32 PUBLIC 'CODE'
_TEXT	ENDS
;	COMDAT ?_M_insert@?$_Rb_tree@IU?$pair@$$CBIPAVSERVER_INFO@@@_STL@@U?$_Select1st@U?$pair@$$CBIPAVSERVER_INFO@@@_STL@@@2@U?$less@I@2@V?$allocator@U?$pair@$$CBIPAVSERVER_INFO@@@_STL@@@2@@_STL@@AAE?AU?$_Rb_tree_iterator@U?$pair@$$CBIPAVSERVER_INFO@@@_STL@@U?$_Nonconst_traits@U?$pair@$$CBIPAVSERVER_INFO@@@_STL@@@2@@2@PAU_Rb_tree_node_base@2@0ABU?$pair@$$CBIPAVSERVER_INFO@@@2@0@Z
_TEXT	SEGMENT PARA USE32 PUBLIC 'CODE'
_TEXT	ENDS
;	COMDAT ?_M_insert@?$_Rb_tree@IU?$pair@$$CBIPAVServerGroup@@@_STL@@U?$_Select1st@U?$pair@$$CBIPAVServerGroup@@@_STL@@@2@U?$less@I@2@V?$allocator@U?$pair@$$CBIPAVServerGroup@@@_STL@@@2@@_STL@@AAE?AU?$_Rb_tree_iterator@U?$pair@$$CBIPAVServerGroup@@@_STL@@U?$_Nonconst_traits@U?$pair@$$CBIPAVServerGroup@@@_STL@@@2@@2@PAU_Rb_tree_node_base@2@0ABU?$pair@$$CBIPAVServerGroup@@@2@0@Z
_TEXT	SEGMENT PARA USE32 PUBLIC 'CODE'
_TEXT	ENDS
;	COMDAT ??$_M_find@I@?$_Rb_tree@IU?$pair@$$CBIPAVSERVER_INFO@@@_STL@@U?$_Select1st@U?$pair@$$CBIPAVSERVER_INFO@@@_STL@@@2@U?$less@I@2@V?$allocator@U?$pair@$$CBIPAVSERVER_INFO@@@_STL@@@2@@_STL@@ABEPAU?$_Rb_tree_node@U?$pair@$$CBIPAVSERVER_INFO@@@_STL@@@1@ABI@Z
_TEXT	SEGMENT PARA USE32 PUBLIC 'CODE'
_TEXT	ENDS
;	COMDAT ??$_M_find@I@?$_Rb_tree@IU?$pair@$$CBIPAVServerGroup@@@_STL@@U?$_Select1st@U?$pair@$$CBIPAVServerGroup@@@_STL@@@2@U?$less@I@2@V?$allocator@U?$pair@$$CBIPAVServerGroup@@@_STL@@@2@@_STL@@ABEPAU?$_Rb_tree_node@U?$pair@$$CBIPAVServerGroup@@@_STL@@@1@ABI@Z
_TEXT	SEGMENT PARA USE32 PUBLIC 'CODE'
_TEXT	ENDS
;	COMDAT ?_M_construct_null@?$basic_string@DV?$char_traits@D@_STL@@V?$allocator@D@2@@_STL@@AAEXPAD@Z
_TEXT	SEGMENT PARA USE32 PUBLIC 'CODE'
_TEXT	ENDS
;	COMDAT ?max_size@?$basic_string@DV?$char_traits@D@_STL@@V?$allocator@D@2@@_STL@@QBEIXZ
_TEXT	SEGMENT PARA USE32 PUBLIC 'CODE'
_TEXT	ENDS
;	COMDAT ?capacity@?$basic_string@DV?$char_traits@D@_STL@@V?$allocator@D@2@@_STL@@QBEIXZ
_TEXT	SEGMENT PARA USE32 PUBLIC 'CODE'
_TEXT	ENDS
;	COMDAT ?max_size@?$_String_base@DV?$allocator@D@_STL@@@_STL@@QBEIXZ
_TEXT	SEGMENT PARA USE32 PUBLIC 'CODE'
_TEXT	ENDS
;	COMDAT ?_M_create_node@?$_Rb_tree@IU?$pair@$$CBIPAVSERVER_INFO@@@_STL@@U?$_Select1st@U?$pair@$$CBIPAVSERVER_INFO@@@_STL@@@2@U?$less@I@2@V?$allocator@U?$pair@$$CBIPAVSERVER_INFO@@@_STL@@@2@@_STL@@IAEPAU?$_Rb_tree_node@U?$pair@$$CBIPAVSERVER_INFO@@@_STL@@@2@ABU?$pair@$$CBIPAVSERVER_INFO@@@2@@Z
_TEXT	SEGMENT PARA USE32 PUBLIC 'CODE'
_TEXT	ENDS
;	COMDAT ?_S_parent@?$_Rb_tree@IU?$pair@$$CBIPAVSERVER_INFO@@@_STL@@U?$_Select1st@U?$pair@$$CBIPAVSERVER_INFO@@@_STL@@@2@U?$less@I@2@V?$allocator@U?$pair@$$CBIPAVSERVER_INFO@@@_STL@@@2@@_STL@@KAAAPAU?$_Rb_tree_node@U?$pair@$$CBIPAVSERVER_INFO@@@_STL@@@2@PAU32@@Z
_TEXT	SEGMENT PARA USE32 PUBLIC 'CODE'
_TEXT	ENDS
;	COMDAT ?_M_create_node@?$_Rb_tree@IU?$pair@$$CBIPAVServerGroup@@@_STL@@U?$_Select1st@U?$pair@$$CBIPAVServerGroup@@@_STL@@@2@U?$less@I@2@V?$allocator@U?$pair@$$CBIPAVServerGroup@@@_STL@@@2@@_STL@@IAEPAU?$_Rb_tree_node@U?$pair@$$CBIPAVServerGroup@@@_STL@@@2@ABU?$pair@$$CBIPAVServerGroup@@@2@@Z
_TEXT	SEGMENT PARA USE32 PUBLIC 'CODE'
_TEXT	ENDS
;	COMDAT ?_S_parent@?$_Rb_tree@IU?$pair@$$CBIPAVServerGroup@@@_STL@@U?$_Select1st@U?$pair@$$CBIPAVServerGroup@@@_STL@@@2@U?$less@I@2@V?$allocator@U?$pair@$$CBIPAVServerGroup@@@_STL@@@2@@_STL@@KAAAPAU?$_Rb_tree_node@U?$pair@$$CBIPAVServerGroup@@@_STL@@@2@PAU32@@Z
_TEXT	SEGMENT PARA USE32 PUBLIC 'CODE'
_TEXT	ENDS
;	COMDAT ?_M_construct_null_aux@?$basic_string@DV?$char_traits@D@_STL@@V?$allocator@D@2@@_STL@@AAEXPADABU__true_type@2@@Z
_TEXT	SEGMENT PARA USE32 PUBLIC 'CODE'
_TEXT	ENDS
;	COMDAT ??$__distance@PBD@_STL@@YAHABQBD0ABUrandom_access_iterator_tag@0@@Z
_TEXT	SEGMENT PARA USE32 PUBLIC 'CODE'
_TEXT	ENDS
;	COMDAT ?_M_throw_length_error@?$_String_base@DV?$allocator@D@_STL@@@_STL@@QBEXXZ
_TEXT	SEGMENT PARA USE32 PUBLIC 'CODE'
_TEXT	ENDS
;	COMDAT ??$__distance@PAD@_STL@@YAHABQAD0ABUrandom_access_iterator_tag@0@@Z
_TEXT	SEGMENT PARA USE32 PUBLIC 'CODE'
_TEXT	ENDS
;	COMDAT ??$__uninitialized_copy@PADPAD@_STL@@YAPADPAD00ABU__true_type@0@@Z
_TEXT	SEGMENT PARA USE32 PUBLIC 'CODE'
_TEXT	ENDS
;	COMDAT ??$append@PAD@?$basic_string@DV?$char_traits@D@_STL@@V?$allocator@D@2@@_STL@@AAEAAV01@PAD0ABUforward_iterator_tag@1@@Z
_TEXT	SEGMENT PARA USE32 PUBLIC 'CODE'
_TEXT	ENDS
;	COMDAT ??$max@I@_STL@@YAABIABI0@Z
_TEXT	SEGMENT PARA USE32 PUBLIC 'CODE'
_TEXT	ENDS
;	COMDAT ??$_Construct@U?$pair@$$CBIPAVSERVER_INFO@@@_STL@@U12@@_STL@@YAXPAU?$pair@$$CBIPAVSERVER_INFO@@@0@ABU10@@Z
_TEXT	SEGMENT PARA USE32 PUBLIC 'CODE'
_TEXT	ENDS
;	COMDAT ??$_Construct@U?$pair@$$CBIPAVServerGroup@@@_STL@@U12@@_STL@@YAXPAU?$pair@$$CBIPAVServerGroup@@@0@ABU10@@Z
_TEXT	SEGMENT PARA USE32 PUBLIC 'CODE'
_TEXT	ENDS
;	COMDAT ??0?$pair@$$CBIPAVSERVER_INFO@@@_STL@@QAE@ABU01@@Z
_TEXT	SEGMENT PARA USE32 PUBLIC 'CODE'
_TEXT	ENDS
;	COMDAT ??0?$pair@$$CBIPAVServerGroup@@@_STL@@QAE@ABU01@@Z
_TEXT	SEGMENT PARA USE32 PUBLIC 'CODE'
_TEXT	ENDS
;	COMDAT ?_Ret@?$_BothPtrType@PADPAD@_STL@@SA?AU__true_type@2@XZ
_TEXT	SEGMENT PARA USE32 PUBLIC 'CODE'
_TEXT	ENDS
;	COMDAT ??$__copy_aux@PADPAD@_STL@@YAPADPAD00ABU__true_type@0@@Z
_TEXT	SEGMENT PARA USE32 PUBLIC 'CODE'
_TEXT	ENDS
;	COMDAT ?_Ret@?$_OKToMemCpy@DD@_STL@@SA?AU__true_type@2@XZ
_TEXT	SEGMENT PARA USE32 PUBLIC 'CODE'
_TEXT	ENDS
;	COMDAT ??$_IsOKToMemCpy@DD@_STL@@YA?AU?$_OKToMemCpy@DD@0@PAD0@Z
_TEXT	SEGMENT PARA USE32 PUBLIC 'CODE'
_TEXT	ENDS
;	COMDAT ??$__copy_ptrs@PADPAD@_STL@@YAPADPAD00ABU__true_type@0@@Z
_TEXT	SEGMENT PARA USE32 PUBLIC 'CODE'
_TEXT	ENDS
;	COMDAT ??_R3ovfstream@@8
rdata$r	SEGMENT DWORD USE32 PUBLIC 'CONST'
rdata$r	ENDS
;	COMDAT ??_R3?$CTypeMap2@VSERVER_INFO@@@@8
rdata$r	SEGMENT DWORD USE32 PUBLIC 'CONST'
rdata$r	ENDS
;	COMDAT ??_R3ServerGroup@@8
rdata$r	SEGMENT DWORD USE32 PUBLIC 'CONST'
rdata$r	ENDS
;	COMDAT ??_R3ivfstream@@8
rdata$r	SEGMENT DWORD USE32 PUBLIC 'CONST'
rdata$r	ENDS
;	COMDAT ??_R3iovfs_base@@8
rdata$r	SEGMENT DWORD USE32 PUBLIC 'CONST'
rdata$r	ENDS
;	COMDAT ??_R3IFileIO@@8
rdata$r	SEGMENT DWORD USE32 PUBLIC 'CONST'
rdata$r	ENDS
;	COMDAT ??_R3?$CTypeMap2@VServerGroup@@@@8
rdata$r	SEGMENT DWORD USE32 PUBLIC 'CONST'
rdata$r	ENDS
;	COMDAT ??_R3ServerInformation@@8
rdata$r	SEGMENT DWORD USE32 PUBLIC 'CONST'
rdata$r	ENDS
;	COMDAT ??_R2ovfstream@@8
rdata$r	SEGMENT DWORD USE32 PUBLIC 'CONST'
rdata$r	ENDS
;	COMDAT ??_R2?$CTypeMap2@VSERVER_INFO@@@@8
rdata$r	SEGMENT DWORD USE32 PUBLIC 'CONST'
rdata$r	ENDS
;	COMDAT ??_R2ServerGroup@@8
rdata$r	SEGMENT DWORD USE32 PUBLIC 'CONST'
rdata$r	ENDS
;	COMDAT ??_R2ivfstream@@8
rdata$r	SEGMENT DWORD USE32 PUBLIC 'CONST'
rdata$r	ENDS
;	COMDAT ??_R2iovfs_base@@8
rdata$r	SEGMENT DWORD USE32 PUBLIC 'CONST'
rdata$r	ENDS
;	COMDAT ??_R2IFileIO@@8
rdata$r	SEGMENT DWORD USE32 PUBLIC 'CONST'
rdata$r	ENDS
;	COMDAT ??_R2?$CTypeMap2@VServerGroup@@@@8
rdata$r	SEGMENT DWORD USE32 PUBLIC 'CONST'
rdata$r	ENDS
;	COMDAT ??_R2ServerInformation@@8
rdata$r	SEGMENT DWORD USE32 PUBLIC 'CONST'
rdata$r	ENDS
;	COMDAT ??_R1A@?0A@A@ovfstream@@8
rdata$r	SEGMENT DWORD USE32 PUBLIC 'CONST'
rdata$r	ENDS
;	COMDAT ??_R13?0A@A@?$map@IPAVSERVER_INFO@@U?$less@I@_STL@@V?$allocator@U?$pair@$$CBIPAVSERVER_INFO@@@_STL@@@3@@_STL@@8
rdata$r	SEGMENT DWORD USE32 PUBLIC 'CONST'
rdata$r	ENDS
;	COMDAT ??_R1A@?0A@A@?$CTypeMap2@VSERVER_INFO@@@@8
rdata$r	SEGMENT DWORD USE32 PUBLIC 'CONST'
rdata$r	ENDS
;	COMDAT ??_R1A@?0A@A@ServerGroup@@8
rdata$r	SEGMENT DWORD USE32 PUBLIC 'CONST'
rdata$r	ENDS
;	COMDAT ??_R1A@?0A@A@ivfstream@@8
rdata$r	SEGMENT DWORD USE32 PUBLIC 'CONST'
rdata$r	ENDS
;	COMDAT ??_R1A@?0A@A@iovfs_base@@8
rdata$r	SEGMENT DWORD USE32 PUBLIC 'CONST'
rdata$r	ENDS
;	COMDAT ??_R1A@?0A@A@IFileIO@@8
rdata$r	SEGMENT DWORD USE32 PUBLIC 'CONST'
rdata$r	ENDS
;	COMDAT ??_R13?0A@A@?$map@IPAVServerGroup@@U?$less@I@_STL@@V?$allocator@U?$pair@$$CBIPAVServerGroup@@@_STL@@@3@@_STL@@8
rdata$r	SEGMENT DWORD USE32 PUBLIC 'CONST'
rdata$r	ENDS
;	COMDAT ??_R1A@?0A@A@?$CTypeMap2@VServerGroup@@@@8
rdata$r	SEGMENT DWORD USE32 PUBLIC 'CONST'
rdata$r	ENDS
;	COMDAT ??_R1A@?0A@A@ServerInformation@@8
rdata$r	SEGMENT DWORD USE32 PUBLIC 'CONST'
rdata$r	ENDS
;	COMDAT ??_R0?AVovfstream@@@8
_DATA	SEGMENT DWORD USE32 PUBLIC 'DATA'
_DATA	ENDS
;	COMDAT ??_R0?AV?$map@IPAVSERVER_INFO@@U?$less@I@_STL@@V?$allocator@U?$pair@$$CBIPAVSERVER_INFO@@@_STL@@@3@@_STL@@@8
_DATA	SEGMENT DWORD USE32 PUBLIC 'DATA'
_DATA	ENDS
;	COMDAT ??_R0?AV?$CTypeMap2@VSERVER_INFO@@@@@8
_DATA	SEGMENT DWORD USE32 PUBLIC 'DATA'
_DATA	ENDS
;	COMDAT ??_R0?AVServerGroup@@@8
_DATA	SEGMENT DWORD USE32 PUBLIC 'DATA'
_DATA	ENDS
;	COMDAT ??_R0?AVivfstream@@@8
_DATA	SEGMENT DWORD USE32 PUBLIC 'DATA'
_DATA	ENDS
;	COMDAT ??_R0?AViovfs_base@@@8
_DATA	SEGMENT DWORD USE32 PUBLIC 'DATA'
_DATA	ENDS
;	COMDAT ??_R0?AVIFileIO@@@8
_DATA	SEGMENT DWORD USE32 PUBLIC 'DATA'
_DATA	ENDS
;	COMDAT ??_R0?AV?$map@IPAVServerGroup@@U?$less@I@_STL@@V?$allocator@U?$pair@$$CBIPAVServerGroup@@@_STL@@@3@@_STL@@@8
_DATA	SEGMENT DWORD USE32 PUBLIC 'DATA'
_DATA	ENDS
;	COMDAT ??_R0?AV?$CTypeMap2@VServerGroup@@@@@8
_DATA	SEGMENT DWORD USE32 PUBLIC 'DATA'
_DATA	ENDS
;	COMDAT ??_R0?AVServerInformation@@@8
_DATA	SEGMENT DWORD USE32 PUBLIC 'DATA'
_DATA	ENDS
;	COMDAT ??_R4ovfstream@@6B@
rdata$r	SEGMENT DWORD USE32 PUBLIC 'CONST'
rdata$r	ENDS
;	COMDAT ??_R4?$CTypeMap2@VSERVER_INFO@@@@6B@
rdata$r	SEGMENT DWORD USE32 PUBLIC 'CONST'
rdata$r	ENDS
;	COMDAT ??_R4ServerGroup@@6B@
rdata$r	SEGMENT DWORD USE32 PUBLIC 'CONST'
rdata$r	ENDS
;	COMDAT ??_R4ivfstream@@6B@
rdata$r	SEGMENT DWORD USE32 PUBLIC 'CONST'
rdata$r	ENDS
;	COMDAT ??_R4iovfs_base@@6B@
rdata$r	SEGMENT DWORD USE32 PUBLIC 'CONST'
rdata$r	ENDS
;	COMDAT ??_R4IFileIO@@6B@
rdata$r	SEGMENT DWORD USE32 PUBLIC 'CONST'
rdata$r	ENDS
;	COMDAT ??_R4?$CTypeMap2@VServerGroup@@@@6B@
rdata$r	SEGMENT DWORD USE32 PUBLIC 'CONST'
rdata$r	ENDS
;	COMDAT ??_R4ServerInformation@@6B@
rdata$r	SEGMENT DWORD USE32 PUBLIC 'CONST'
rdata$r	ENDS
;	COMDAT ?__copy_trivial@_STL@@YAPAXPBX0PAX@Z
_TEXT	SEGMENT PARA USE32 PUBLIC 'CODE'
_TEXT	ENDS
;	COMDAT ??3@YAXPAX0@Z
_TEXT	SEGMENT PARA USE32 PUBLIC 'CODE'
_TEXT	ENDS
;	COMDAT ??2@YAPAXIPAX@Z
_TEXT	SEGMENT PARA USE32 PUBLIC 'CODE'
_TEXT	ENDS
;	COMDAT ?_M_deallocate_block@?$_String_base@DV?$allocator@D@_STL@@@_STL@@QAEXXZ
_TEXT	SEGMENT PARA USE32 PUBLIC 'CODE'
_TEXT	ENDS
;	COMDAT ?deallocate@?$allocator@D@_STL@@QAEXPADI@Z
_TEXT	SEGMENT PARA USE32 PUBLIC 'CODE'
_TEXT	ENDS
;	COMDAT ?__page_size@_Filebuf_base@_STL@@SAIXZ
_TEXT	SEGMENT PARA USE32 PUBLIC 'CODE'
_TEXT	ENDS
;	COMDAT ?_M_write@?$basic_filebuf@DV?$char_traits@D@_STL@@@_STL@@QAE_NPADH@Z
_TEXT	SEGMENT PARA USE32 PUBLIC 'CODE'
_TEXT	ENDS
;	COMDAT ?unshift@?$codecvt@DDH@_STL@@QBE?AW4result@codecvt_base@2@AAHPAD1AAPAD@Z
_TEXT	SEGMENT PARA USE32 PUBLIC 'CODE'
_TEXT	ENDS
;	COMDAT ?uninitialized_copy@_STL@@YAPADPBD0PAD@Z
_TEXT	SEGMENT PARA USE32 PUBLIC 'CODE'
_TEXT	ENDS
;	COMDAT ?deallocate@?$__node_alloc@$00$0A@@_STL@@SAXPAXI@Z
_TEXT	SEGMENT PARA USE32 PUBLIC 'CODE'
_TEXT	ENDS
;	COMDAT ?__stl_delete@_STL@@YAXPAX@Z
_TEXT	SEGMENT PARA USE32 PUBLIC 'CODE'
_TEXT	ENDS
;	COMDAT ??_7?$CTypeMap2@VServerGroup@@@@6B@
CONST	SEGMENT DWORD USE32 PUBLIC 'CONST'
CONST	ENDS
;	COMDAT ??8_Rb_tree_base_iterator@_STL@@QBE_NABU01@@Z
_TEXT	SEGMENT PARA USE32 PUBLIC 'CODE'
_TEXT	ENDS
;	COMDAT ??9_Rb_tree_base_iterator@_STL@@QBE_NABU01@@Z
_TEXT	SEGMENT PARA USE32 PUBLIC 'CODE'
_TEXT	ENDS
;	COMDAT ??_7?$CTypeMap2@VSERVER_INFO@@@@6B@
CONST	SEGMENT DWORD USE32 PUBLIC 'CONST'
CONST	ENDS
;	COMDAT ?assign@?$char_traits@D@_STL@@SAXAADABD@Z
_TEXT	SEGMENT PARA USE32 PUBLIC 'CODE'
_TEXT	ENDS
;	COMDAT ?always_noconv@?$codecvt@DDH@_STL@@QBE_NXZ
_TEXT	SEGMENT PARA USE32 PUBLIC 'CODE'
_TEXT	ENDS
;	COMDAT ?encoding@?$codecvt@DDH@_STL@@QBEHXZ
_TEXT	SEGMENT PARA USE32 PUBLIC 'CODE'
_TEXT	ENDS
;	COMDAT ?max_length@?$codecvt@DDH@_STL@@QBEHXZ
_TEXT	SEGMENT PARA USE32 PUBLIC 'CODE'
_TEXT	ENDS
;	COMDAT ?__o_mode@_Filebuf_base@_STL@@QBEHXZ
_TEXT	SEGMENT PARA USE32 PUBLIC 'CODE'
_TEXT	ENDS
;	COMDAT ?_Destroy@_STL@@YAXPAD0@Z
_TEXT	SEGMENT PARA USE32 PUBLIC 'CODE'
_TEXT	ENDS
;	COMDAT ?setp@?$basic_streambuf@DV?$char_traits@D@_STL@@@_STL@@IAEXPAD0@Z
_TEXT	SEGMENT PARA USE32 PUBLIC 'CODE'
_TEXT	ENDS
;	COMDAT ?_FILE_O_set@_STL@@YAXPAU_iobuf@@PAD11@Z
_TEXT	SEGMENT PARA USE32 PUBLIC 'CODE'
_TEXT	ENDS
;	COMDAT ?_FILE_I_set@_STL@@YAXPAU_iobuf@@PAD11@Z
_TEXT	SEGMENT PARA USE32 PUBLIC 'CODE'
_TEXT	ENDS
;	COMDAT ?setg@?$basic_streambuf@DV?$char_traits@D@_STL@@@_STL@@IAEXPAD00@Z
_TEXT	SEGMENT PARA USE32 PUBLIC 'CODE'
_TEXT	ENDS
;	COMDAT ?__is_open@_Filebuf_base@_STL@@QBE_NXZ
_TEXT	SEGMENT PARA USE32 PUBLIC 'CODE'
_TEXT	ENDS
;	COMDAT ?allocate@?$__node_alloc@$00$0A@@_STL@@SAPAXI@Z
_TEXT	SEGMENT PARA USE32 PUBLIC 'CODE'
_TEXT	ENDS
;	COMDAT ?__stl_new@_STL@@YAPAXI@Z
_TEXT	SEGMENT PARA USE32 PUBLIC 'CODE'
_TEXT	ENDS
;	COMDAT ??1?$_STLP_alloc_proxy@PADDV?$allocator@D@_STL@@@_STL@@QAE@XZ
_TEXT	SEGMENT PARA USE32 PUBLIC 'CODE'
_TEXT	ENDS
;	COMDAT ?length@?$char_traits@D@_STL@@SAIPBD@Z
_TEXT	SEGMENT PARA USE32 PUBLIC 'CODE'
_TEXT	ENDS
;	COMDAT ??1?$allocator@D@_STL@@QAE@XZ
_TEXT	SEGMENT PARA USE32 PUBLIC 'CODE'
_TEXT	ENDS
;	COMDAT ?eof@?$__char_traits_base@DH@_STL@@SAHXZ
_TEXT	SEGMENT PARA USE32 PUBLIC 'CODE'
_TEXT	ENDS
;	COMDAT ??_7ServerInformation@@6B@
CONST	SEGMENT DWORD USE32 PUBLIC 'CONST'
CONST	ENDS
;	COMDAT ??_7ServerGroup@@6B@
CONST	SEGMENT DWORD USE32 PUBLIC 'CONST'
CONST	ENDS
;	COMDAT ??_7ovfstream@@6B@
CONST	SEGMENT DWORD USE32 PUBLIC 'CONST'
CONST	ENDS
;	COMDAT ??_7ivfstream@@6B@
CONST	SEGMENT DWORD USE32 PUBLIC 'CONST'
CONST	ENDS
;	COMDAT ??0?$basic_string@DV?$char_traits@D@_STL@@V?$allocator@D@2@@_STL@@QAE@XZ
_TEXT	SEGMENT PARA USE32 PUBLIC 'CODE'
_TEXT	ENDS
;	COMDAT ??0?$allocator@D@_STL@@QAE@XZ
_TEXT	SEGMENT PARA USE32 PUBLIC 'CODE'
_TEXT	ENDS
;	COMDAT ??1?$_String_base@DV?$allocator@D@_STL@@@_STL@@QAE@XZ
_TEXT	SEGMENT PARA USE32 PUBLIC 'CODE'
_TEXT	ENDS
;	COMDAT ??1?$basic_string@DV?$char_traits@D@_STL@@V?$allocator@D@2@@_STL@@QAE@XZ
_TEXT	SEGMENT PARA USE32 PUBLIC 'CODE'
_TEXT	ENDS
;	COMDAT ??_7iovfs_base@@6B@
CONST	SEGMENT DWORD USE32 PUBLIC 'CONST'
CONST	ENDS
;	COMDAT ??_7IFileIO@@6B@
CONST	SEGMENT DWORD USE32 PUBLIC 'CONST'
CONST	ENDS
sxdata	SEGMENT DWORD USE32 'SXDATA'
sxdata	ENDS
FLAT	GROUP _DATA, CONST, _BSS
	ASSUME	CS: FLAT, DS: FLAT, SS: FLAT
endif

INCLUDELIB LIBCMT
INCLUDELIB OLDNAMES

PUBLIC	?g_pServerInformation@@3PAVServerInformation@@A	; g_pServerInformation
_BSS	SEGMENT
?g_pServerInformation@@3PAVServerInformation@@A DD 01H DUP (?) ; g_pServerInformation
_BSS	ENDS
PUBLIC	?__stl_new@_STL@@YAPAXI@Z			; _STL::__stl_new
EXTRN	??2@YAPAXI@Z:NEAR				; operator new
; Function compile flags: /Ogsy
; File c:\stlport-4.6.1\stlport\stl\_new.h
;	COMDAT ?__stl_new@_STL@@YAPAXI@Z
_TEXT	SEGMENT
___n$ = 8						; size = 4
?__stl_new@_STL@@YAPAXI@Z PROC NEAR			; _STL::__stl_new, COMDAT

; 86   : inline void*  _STLP_CALL __stl_new(size_t __n)   { _STLP_CHECK_NULL_ALLOC(::operator _STLP_NEW(__n)); }

  00000	e9 00 00 00 00	 jmp	 ??2@YAPAXI@Z		; operator new
?__stl_new@_STL@@YAPAXI@Z ENDP				; _STL::__stl_new
_TEXT	ENDS
PUBLIC	?__stl_delete@_STL@@YAXPAX@Z			; _STL::__stl_delete
EXTRN	??3@YAXPAX@Z:NEAR				; operator delete
; Function compile flags: /Ogsy
;	COMDAT ?__stl_delete@_STL@@YAXPAX@Z
_TEXT	SEGMENT
___p$ = 8						; size = 4
?__stl_delete@_STL@@YAXPAX@Z PROC NEAR			; _STL::__stl_delete, COMDAT

; 87   : inline void   _STLP_CALL __stl_delete(void* __p) { ::operator delete(__p); }

  00000	e9 00 00 00 00	 jmp	 ??3@YAXPAX@Z		; operator delete
?__stl_delete@_STL@@YAXPAX@Z ENDP			; _STL::__stl_delete
_TEXT	ENDS
PUBLIC	?GetString@MString@@QBEPADXZ			; MString::GetString
; Function compile flags: /Ogsy
; File c:\darkeden\designed_common\project\client\mstring.h
;	COMDAT ?GetString@MString@@QBEPADXZ
_TEXT	SEGMENT
?GetString@MString@@QBEPADXZ PROC NEAR			; MString::GetString, COMDAT
; _this$ = ecx

; 39   : 		char*		GetString() const		{ return m_pString; }

  00000	8b 41 08	 mov	 eax, DWORD PTR [ecx+8]
  00003	c3		 ret	 0
?GetString@MString@@QBEPADXZ ENDP			; MString::GetString
_TEXT	ENDS
PUBLIC	??1SERVER_INFO@@QAE@XZ				; SERVER_INFO::~SERVER_INFO
EXTRN	??1MString@@UAE@XZ:NEAR				; MString::~MString
; Function compile flags: /Ogsy
; File c:\darkeden\designed_common\project\client\serverinformation.h
;	COMDAT ??1SERVER_INFO@@QAE@XZ
_TEXT	SEGMENT
??1SERVER_INFO@@QAE@XZ PROC NEAR			; SERVER_INFO::~SERVER_INFO, COMDAT
; _this$ = ecx

; 36   : 		~SERVER_INFO() {}

  00000	e9 00 00 00 00	 jmp	 ??1MString@@UAE@XZ	; MString::~MString
??1SERVER_INFO@@QAE@XZ ENDP				; SERVER_INFO::~SERVER_INFO
_TEXT	ENDS
PUBLIC	?GetGroupName@ServerGroup@@QBEPBDXZ		; ServerGroup::GetGroupName
; Function compile flags: /Ogsy
;	COMDAT ?GetGroupName@ServerGroup@@QBEPBDXZ
_TEXT	SEGMENT
?GetGroupName@ServerGroup@@QBEPBDXZ PROC NEAR		; ServerGroup::GetGroupName, COMDAT
; _this$ = ecx

; 75   : 		const char*	GetGroupName() const			{ return m_GroupName.GetString(); }

  00000	8b 41 18	 mov	 eax, DWORD PTR [ecx+24]
  00003	c3		 ret	 0
?GetGroupName@ServerGroup@@QBEPBDXZ ENDP		; ServerGroup::GetGroupName
_TEXT	ENDS
PUBLIC	?GetGroupStatus@ServerGroup@@QBEHXZ		; ServerGroup::GetGroupStatus
; Function compile flags: /Ogsy
;	COMDAT ?GetGroupStatus@ServerGroup@@QBEHXZ
_TEXT	SEGMENT
?GetGroupStatus@ServerGroup@@QBEHXZ PROC NEAR		; ServerGroup::GetGroupStatus, COMDAT
; _this$ = ecx

; 81   : 		int			GetGroupStatus() const			{ return m_GroupStatus; }

  00000	8b 41 1c	 mov	 eax, DWORD PTR [ecx+28]
  00003	c3		 ret	 0
?GetGroupStatus@ServerGroup@@QBEHXZ ENDP		; ServerGroup::GetGroupStatus
_TEXT	ENDS
PUBLIC	?SetServerGroupID@ServerInformation@@QAE_NI@Z	; ServerInformation::SetServerGroupID
EXTRN	?Release@MString@@QAEXXZ:NEAR			; MString::Release
EXTRN	??4MString@@QAEXPBD@Z:NEAR			; MString::operator=
; Function compile flags: /Ogsy
; File c:\darkeden\designed_common\project\client\serverinformation.cpp
;	COMDAT ?SetServerGroupID@ServerInformation@@QAE_NI@Z
_TEXT	SEGMENT
_id$ = 8						; size = 4
?SetServerGroupID@ServerInformation@@QAE_NI@Z PROC NEAR	; ServerInformation::SetServerGroupID, COMDAT
; _this$ = ecx

; 58   : { 

  00000	53		 push	 ebx

; 59   : 	//-----------------------------------------------------------
; 60   : 	// Group  .
; 61   : 	//-----------------------------------------------------------
; 62   : 	ServerGroup* pGroup = GetData( id );

  00001	8b 5c 24 08	 mov	 ebx, DWORD PTR _id$[esp]
  00005	56		 push	 esi
  00006	57		 push	 edi
  00007	8b f1		 mov	 esi, ecx
  00009	8b 06		 mov	 eax, DWORD PTR [esi]
  0000b	53		 push	 ebx
  0000c	ff 50 10	 call	 DWORD PTR [eax+16]
  0000f	8b f8		 mov	 edi, eax

; 63   : 
; 64   : 	if (pGroup==NULL)

  00011	85 ff		 test	 edi, edi

; 65   : 	{
; 66   : 		m_ServerGroupName.Release();

  00013	8d 4e 18	 lea	 ecx, DWORD PTR [esi+24]
  00016	75 09		 jne	 SHORT $L101663
  00018	e8 00 00 00 00	 call	 ?Release@MString@@QAEXXZ ; MString::Release

; 67   : 
; 68   : 		return false;

  0001d	32 c0		 xor	 al, al
  0001f	eb 13		 jmp	 SHORT $L101661
$L101663:

; 69   : 	}
; 70   : 	
; 71   : 	m_ServerGroupID = id; 

  00021	89 5e 10	 mov	 DWORD PTR [esi+16], ebx

; 72   : 	m_ServerGroupName = pGroup->GetGroupName();	

  00024	ff 77 18	 push	 DWORD PTR [edi+24]
  00027	e8 00 00 00 00	 call	 ??4MString@@QAEXPBD@Z	; MString::operator=

; 73   : 	m_ServerGroupStatus = pGroup->GetGroupStatus();

  0002c	8b 47 1c	 mov	 eax, DWORD PTR [edi+28]
  0002f	89 46 24	 mov	 DWORD PTR [esi+36], eax

; 74   : 
; 75   : 	return true;

  00032	b0 01		 mov	 al, 1
$L101661:
  00034	5f		 pop	 edi
  00035	5e		 pop	 esi
  00036	5b		 pop	 ebx

; 76   : }

  00037	c2 04 00	 ret	 4
?SetServerGroupID@ServerInformation@@QAE_NI@Z ENDP	; ServerInformation::SetServerGroupID
_TEXT	ENDS
PUBLIC	?SetServerID@ServerInformation@@QAE_NI@Z	; ServerInformation::SetServerID
EXTRN	??4MString@@QAEXABV0@@Z:NEAR			; MString::operator=
; Function compile flags: /Ogsy
;	COMDAT ?SetServerID@ServerInformation@@QAE_NI@Z
_TEXT	SEGMENT
_id$ = 8						; size = 4
?SetServerID@ServerInformation@@QAE_NI@Z PROC NEAR	; ServerInformation::SetServerID, COMDAT
; _this$ = ecx

; 83   : { 

  00000	56		 push	 esi
  00001	8b f1		 mov	 esi, ecx

; 84   : 	//-----------------------------------------------------------
; 85   : 	// Group
; 86   : 	//-----------------------------------------------------------
; 87   : 	ServerGroup* pGroup = GetData( m_ServerGroupID );

  00003	ff 76 10	 push	 DWORD PTR [esi+16]
  00006	8b 06		 mov	 eax, DWORD PTR [esi]
  00008	ff 50 10	 call	 DWORD PTR [eax+16]

; 88   : 
; 89   : 	if (pGroup==NULL)

  0000b	85 c0		 test	 eax, eax
  0000d	75 04		 jne	 SHORT $L101669

; 90   : 	{
; 91   : 		return false;

  0000f	32 c0		 xor	 al, al
  00011	eb 34		 jmp	 SHORT $L101667
$L101669:

; 92   : 	}
; 93   : 
; 94   : 	//-----------------------------------------------------------
; 95   : 	// Server  
; 96   : 	//-----------------------------------------------------------
; 97   : 	SERVER_INFO* pInfo = pGroup->GetData( id );

  00013	8b 10		 mov	 edx, DWORD PTR [eax]
  00015	53		 push	 ebx
  00016	8b 5c 24 0c	 mov	 ebx, DWORD PTR _id$[esp+4]
  0001a	57		 push	 edi
  0001b	53		 push	 ebx
  0001c	8b c8		 mov	 ecx, eax
  0001e	ff 52 10	 call	 DWORD PTR [edx+16]
  00021	8b f8		 mov	 edi, eax

; 98   : 
; 99   : 	if (pInfo==NULL)

  00023	85 ff		 test	 edi, edi
  00025	75 04		 jne	 SHORT $L101671

; 100  : 	{
; 101  : 		return false;

  00027	32 c0		 xor	 al, al
  00029	eb 1a		 jmp	 SHORT $L103645
$L101671:

; 102  : 	}
; 103  : 		
; 104  : 	m_ServerID		= id; 
; 105  : 	m_ServerName	= pInfo->ServerName;

  0002b	57		 push	 edi
  0002c	8d 4e 28	 lea	 ecx, DWORD PTR [esi+40]
  0002f	89 5e 14	 mov	 DWORD PTR [esi+20], ebx
  00032	e8 00 00 00 00	 call	 ??4MString@@QAEXABV0@@Z	; MString::operator=

; 106  : 	m_ServerStatus	= pInfo->ServerStatus;

  00037	8b 47 0c	 mov	 eax, DWORD PTR [edi+12]
  0003a	89 46 34	 mov	 DWORD PTR [esi+52], eax

; 107  : 	m_ServerNonPK	= pInfo->ServerNonPK;

  0003d	8a 47 10	 mov	 al, BYTE PTR [edi+16]
  00040	88 46 38	 mov	 BYTE PTR [esi+56], al

; 108  : 
; 109  : 	return true;

  00043	b0 01		 mov	 al, 1
$L103645:
  00045	5f		 pop	 edi
  00046	5b		 pop	 ebx
$L101667:
  00047	5e		 pop	 esi

; 110  : }

  00048	c2 04 00	 ret	 4
?SetServerID@ServerInformation@@QAE_NI@Z ENDP		; ServerInformation::SetServerID
_TEXT	ENDS
PUBLIC	??_GSERVER_INFO@@QAEPAXI@Z			; SERVER_INFO::`scalar deleting destructor'
; Function compile flags: /Ogsy
;	COMDAT ??_GSERVER_INFO@@QAEPAXI@Z
_TEXT	SEGMENT
___flags$ = 8						; size = 4
??_GSERVER_INFO@@QAEPAXI@Z PROC NEAR			; SERVER_INFO::`scalar deleting destructor', COMDAT
; _this$ = ecx
  00000	56		 push	 esi
  00001	8b f1		 mov	 esi, ecx
  00003	e8 00 00 00 00	 call	 ??1SERVER_INFO@@QAE@XZ	; SERVER_INFO::~SERVER_INFO
  00008	f6 44 24 08 01	 test	 BYTE PTR ___flags$[esp], 1
  0000d	74 07		 je	 SHORT $L102279
  0000f	56		 push	 esi
  00010	e8 00 00 00 00	 call	 ??3@YAXPAX@Z		; operator delete
  00015	59		 pop	 ecx
$L102279:
  00016	8b c6		 mov	 eax, esi
  00018	5e		 pop	 esi
  00019	c2 04 00	 ret	 4
??_GSERVER_INFO@@QAEPAXI@Z ENDP				; SERVER_INFO::`scalar deleting destructor'
_TEXT	ENDS
PUBLIC	??0?$_Rb_tree_iterator@U?$pair@$$CBIPAVSERVER_INFO@@@_STL@@U?$_Nonconst_traits@U?$pair@$$CBIPAVSERVER_INFO@@@_STL@@@2@@_STL@@QAE@ABU01@@Z ; _STL::_Rb_tree_iterator<_STL::pair<unsigned int const ,SERVER_INFO *>,_STL::_Nonconst_traits<_STL::pair<unsigned int const ,SERVER_INFO *> > >::_Rb_tree_iterator<_STL::pair<unsigned int const ,SERVER_INFO *>,_STL::_Nonconst_traits<_STL::pair<unsigned int const ,SERVER_INFO *> > >
; Function compile flags: /Ogsy
; File c:\stlport-4.6.1\stlport\stl\_tree.h
;	COMDAT ??0?$_Rb_tree_iterator@U?$pair@$$CBIPAVSERVER_INFO@@@_STL@@U?$_Nonconst_traits@U?$pair@$$CBIPAVSERVER_INFO@@@_STL@@@2@@_STL@@QAE@ABU01@@Z
_TEXT	SEGMENT
___it$ = 8						; size = 4
??0?$_Rb_tree_iterator@U?$pair@$$CBIPAVSERVER_INFO@@@_STL@@U?$_Nonconst_traits@U?$pair@$$CBIPAVSERVER_INFO@@@_STL@@@2@@_STL@@QAE@ABU01@@Z PROC NEAR ; _STL::_Rb_tree_iterator<_STL::pair<unsigned int const ,SERVER_INFO *>,_STL::_Nonconst_traits<_STL::pair<unsigned int const ,SERVER_INFO *> > >::_Rb_tree_iterator<_STL::pair<unsigned int const ,SERVER_INFO *>,_STL::_Nonconst_traits<_STL::pair<unsigned int const ,SERVER_INFO *> > >, COMDAT
; _this$ = ecx

; 165  :   _Rb_tree_iterator(const _Rb_tree_iterator<_Value, 

  00000	8b c1		 mov	 eax, ecx
  00002	8b 4c 24 04	 mov	 ecx, DWORD PTR ___it$[esp-4]
  00006	8b 09		 mov	 ecx, DWORD PTR [ecx]
  00008	89 08		 mov	 DWORD PTR [eax], ecx

; 166  :                     _Nonconst_traits<_Value> >& __it) { _M_node = __it._M_node; }

  0000a	c2 04 00	 ret	 4
??0?$_Rb_tree_iterator@U?$pair@$$CBIPAVSERVER_INFO@@@_STL@@U?$_Nonconst_traits@U?$pair@$$CBIPAVSERVER_INFO@@@_STL@@@2@@_STL@@QAE@ABU01@@Z ENDP ; _STL::_Rb_tree_iterator<_STL::pair<unsigned int const ,SERVER_INFO *>,_STL::_Nonconst_traits<_STL::pair<unsigned int const ,SERVER_INFO *> > >::_Rb_tree_iterator<_STL::pair<unsigned int const ,SERVER_INFO *>,_STL::_Nonconst_traits<_STL::pair<unsigned int const ,SERVER_INFO *> > >
_TEXT	ENDS
PUBLIC	??D?$_Rb_tree_iterator@U?$pair@$$CBIPAVSERVER_INFO@@@_STL@@U?$_Nonconst_traits@U?$pair@$$CBIPAVSERVER_INFO@@@_STL@@@2@@_STL@@QBEAAU?$pair@$$CBIPAVSERVER_INFO@@@1@XZ ; _STL::_Rb_tree_iterator<_STL::pair<unsigned int const ,SERVER_INFO *>,_STL::_Nonconst_traits<_STL::pair<unsigned int const ,SERVER_INFO *> > >::operator*
; Function compile flags: /Ogsy
;	COMDAT ??D?$_Rb_tree_iterator@U?$pair@$$CBIPAVSERVER_INFO@@@_STL@@U?$_Nonconst_traits@U?$pair@$$CBIPAVSERVER_INFO@@@_STL@@@2@@_STL@@QBEAAU?$pair@$$CBIPAVSERVER_INFO@@@1@XZ
_TEXT	SEGMENT
??D?$_Rb_tree_iterator@U?$pair@$$CBIPAVSERVER_INFO@@@_STL@@U?$_Nonconst_traits@U?$pair@$$CBIPAVSERVER_INFO@@@_STL@@@2@@_STL@@QBEAAU?$pair@$$CBIPAVSERVER_INFO@@@1@XZ PROC NEAR ; _STL::_Rb_tree_iterator<_STL::pair<unsigned int const ,SERVER_INFO *>,_STL::_Nonconst_traits<_STL::pair<unsigned int const ,SERVER_INFO *> > >::operator*, COMDAT
; _this$ = ecx

; 169  :     return _Link_type(_M_node)->_M_value_field; 

  00000	8b 01		 mov	 eax, DWORD PTR [ecx]
  00002	83 c0 10	 add	 eax, 16			; 00000010H

; 170  :   }

  00005	c3		 ret	 0
??D?$_Rb_tree_iterator@U?$pair@$$CBIPAVSERVER_INFO@@@_STL@@U?$_Nonconst_traits@U?$pair@$$CBIPAVSERVER_INFO@@@_STL@@@2@@_STL@@QBEAAU?$pair@$$CBIPAVSERVER_INFO@@@1@XZ ENDP ; _STL::_Rb_tree_iterator<_STL::pair<unsigned int const ,SERVER_INFO *>,_STL::_Nonconst_traits<_STL::pair<unsigned int const ,SERVER_INFO *> > >::operator*
_TEXT	ENDS
PUBLIC	??E?$_Rb_tree_iterator@U?$pair@$$CBIPAVSERVER_INFO@@@_STL@@U?$_Nonconst_traits@U?$pair@$$CBIPAVSERVER_INFO@@@_STL@@@2@@_STL@@QAE?AU01@H@Z ; _STL::_Rb_tree_iterator<_STL::pair<unsigned int const ,SERVER_INFO *>,_STL::_Nonconst_traits<_STL::pair<unsigned int const ,SERVER_INFO *> > >::operator++
EXTRN	?_M_increment@?$_Rb_global@_N@_STL@@SAPAU_Rb_tree_node_base@2@PAU32@@Z:NEAR ; _STL::_Rb_global<bool>::_M_increment
; Function compile flags: /Ogsy
;	COMDAT ??E?$_Rb_tree_iterator@U?$pair@$$CBIPAVSERVER_INFO@@@_STL@@U?$_Nonconst_traits@U?$pair@$$CBIPAVSERVER_INFO@@@_STL@@@2@@_STL@@QAE?AU01@H@Z
_TEXT	SEGMENT
___$ReturnUdt$ = 8					; size = 4
___formal$ = 12						; size = 4
??E?$_Rb_tree_iterator@U?$pair@$$CBIPAVSERVER_INFO@@@_STL@@U?$_Nonconst_traits@U?$pair@$$CBIPAVSERVER_INFO@@@_STL@@@2@@_STL@@QAE?AU01@H@Z PROC NEAR ; _STL::_Rb_tree_iterator<_STL::pair<unsigned int const ,SERVER_INFO *>,_STL::_Nonconst_traits<_STL::pair<unsigned int const ,SERVER_INFO *> > >::operator++, COMDAT
; _this$ = ecx

; 175  :   _Self operator++(int) {

  00000	56		 push	 esi
  00001	8b f1		 mov	 esi, ecx
  00003	57		 push	 edi

; 176  :     _Self __tmp = *this;

  00004	8b 3e		 mov	 edi, DWORD PTR [esi]

; 177  :     _M_node = _Rb_global_inst::_M_increment(_M_node);

  00006	57		 push	 edi
  00007	e8 00 00 00 00	 call	 ?_M_increment@?$_Rb_global@_N@_STL@@SAPAU_Rb_tree_node_base@2@PAU32@@Z ; _STL::_Rb_global<bool>::_M_increment
  0000c	89 06		 mov	 DWORD PTR [esi], eax

; 178  :     return __tmp;

  0000e	8b 44 24 10	 mov	 eax, DWORD PTR ___$ReturnUdt$[esp+8]
  00012	59		 pop	 ecx
  00013	89 38		 mov	 DWORD PTR [eax], edi
  00015	5f		 pop	 edi
  00016	5e		 pop	 esi

; 179  :   }

  00017	c2 08 00	 ret	 8
??E?$_Rb_tree_iterator@U?$pair@$$CBIPAVSERVER_INFO@@@_STL@@U?$_Nonconst_traits@U?$pair@$$CBIPAVSERVER_INFO@@@_STL@@@2@@_STL@@QAE?AU01@H@Z ENDP ; _STL::_Rb_tree_iterator<_STL::pair<unsigned int const ,SERVER_INFO *>,_STL::_Nonconst_traits<_STL::pair<unsigned int const ,SERVER_INFO *> > >::operator++
_TEXT	ENDS
PUBLIC	??0?$_Rb_tree_iterator@U?$pair@$$CBIPAVServerGroup@@@_STL@@U?$_Nonconst_traits@U?$pair@$$CBIPAVServerGroup@@@_STL@@@2@@_STL@@QAE@ABU01@@Z ; _STL::_Rb_tree_iterator<_STL::pair<unsigned int const ,ServerGroup *>,_STL::_Nonconst_traits<_STL::pair<unsigned int const ,ServerGroup *> > >::_Rb_tree_iterator<_STL::pair<unsigned int const ,ServerGroup *>,_STL::_Nonconst_traits<_STL::pair<unsigned int const ,ServerGroup *> > >
; Function compile flags: /Ogsy
;	COMDAT ??0?$_Rb_tree_iterator@U?$pair@$$CBIPAVServerGroup@@@_STL@@U?$_Nonconst_traits@U?$pair@$$CBIPAVServerGroup@@@_STL@@@2@@_STL@@QAE@ABU01@@Z
_TEXT	SEGMENT
___it$ = 8						; size = 4
??0?$_Rb_tree_iterator@U?$pair@$$CBIPAVServerGroup@@@_STL@@U?$_Nonconst_traits@U?$pair@$$CBIPAVServerGroup@@@_STL@@@2@@_STL@@QAE@ABU01@@Z PROC NEAR ; _STL::_Rb_tree_iterator<_STL::pair<unsigned int const ,ServerGroup *>,_STL::_Nonconst_traits<_STL::pair<unsigned int const ,ServerGroup *> > >::_Rb_tree_iterator<_STL::pair<unsigned int const ,ServerGroup *>,_STL::_Nonconst_traits<_STL::pair<unsigned int const ,ServerGroup *> > >, COMDAT
; _this$ = ecx

; 165  :   _Rb_tree_iterator(const _Rb_tree_iterator<_Value, 

  00000	8b c1		 mov	 eax, ecx
  00002	8b 4c 24 04	 mov	 ecx, DWORD PTR ___it$[esp-4]
  00006	8b 09		 mov	 ecx, DWORD PTR [ecx]
  00008	89 08		 mov	 DWORD PTR [eax], ecx

; 166  :                     _Nonconst_traits<_Value> >& __it) { _M_node = __it._M_node; }

  0000a	c2 04 00	 ret	 4
??0?$_Rb_tree_iterator@U?$pair@$$CBIPAVServerGroup@@@_STL@@U?$_Nonconst_traits@U?$pair@$$CBIPAVServerGroup@@@_STL@@@2@@_STL@@QAE@ABU01@@Z ENDP ; _STL::_Rb_tree_iterator<_STL::pair<unsigned int const ,ServerGroup *>,_STL::_Nonconst_traits<_STL::pair<unsigned int const ,ServerGroup *> > >::_Rb_tree_iterator<_STL::pair<unsigned int const ,ServerGroup *>,_STL::_Nonconst_traits<_STL::pair<unsigned int const ,ServerGroup *> > >
_TEXT	ENDS
PUBLIC	??D?$_Rb_tree_iterator@U?$pair@$$CBIPAVServerGroup@@@_STL@@U?$_Nonconst_traits@U?$pair@$$CBIPAVServerGroup@@@_STL@@@2@@_STL@@QBEAAU?$pair@$$CBIPAVServerGroup@@@1@XZ ; _STL::_Rb_tree_iterator<_STL::pair<unsigned int const ,ServerGroup *>,_STL::_Nonconst_traits<_STL::pair<unsigned int const ,ServerGroup *> > >::operator*
; Function compile flags: /Ogsy
;	COMDAT ??D?$_Rb_tree_iterator@U?$pair@$$CBIPAVServerGroup@@@_STL@@U?$_Nonconst_traits@U?$pair@$$CBIPAVServerGroup@@@_STL@@@2@@_STL@@QBEAAU?$pair@$$CBIPAVServerGroup@@@1@XZ
_TEXT	SEGMENT
??D?$_Rb_tree_iterator@U?$pair@$$CBIPAVServerGroup@@@_STL@@U?$_Nonconst_traits@U?$pair@$$CBIPAVServerGroup@@@_STL@@@2@@_STL@@QBEAAU?$pair@$$CBIPAVServerGroup@@@1@XZ PROC NEAR ; _STL::_Rb_tree_iterator<_STL::pair<unsigned int const ,ServerGroup *>,_STL::_Nonconst_traits<_STL::pair<unsigned int const ,ServerGroup *> > >::operator*, COMDAT
; _this$ = ecx

; 169  :     return _Link_type(_M_node)->_M_value_field; 

  00000	8b 01		 mov	 eax, DWORD PTR [ecx]
  00002	83 c0 10	 add	 eax, 16			; 00000010H

; 170  :   }

  00005	c3		 ret	 0
??D?$_Rb_tree_iterator@U?$pair@$$CBIPAVServerGroup@@@_STL@@U?$_Nonconst_traits@U?$pair@$$CBIPAVServerGroup@@@_STL@@@2@@_STL@@QBEAAU?$pair@$$CBIPAVServerGroup@@@1@XZ ENDP ; _STL::_Rb_tree_iterator<_STL::pair<unsigned int const ,ServerGroup *>,_STL::_Nonconst_traits<_STL::pair<unsigned int const ,ServerGroup *> > >::operator*
_TEXT	ENDS
PUBLIC	??E?$_Rb_tree_iterator@U?$pair@$$CBIPAVServerGroup@@@_STL@@U?$_Nonconst_traits@U?$pair@$$CBIPAVServerGroup@@@_STL@@@2@@_STL@@QAE?AU01@H@Z ; _STL::_Rb_tree_iterator<_STL::pair<unsigned int const ,ServerGroup *>,_STL::_Nonconst_traits<_STL::pair<unsigned int const ,ServerGroup *> > >::operator++
; Function compile flags: /Ogsy
;	COMDAT ??E?$_Rb_tree_iterator@U?$pair@$$CBIPAVServerGroup@@@_STL@@U?$_Nonconst_traits@U?$pair@$$CBIPAVServerGroup@@@_STL@@@2@@_STL@@QAE?AU01@H@Z
_TEXT	SEGMENT
___$ReturnUdt$ = 8					; size = 4
___formal$ = 12						; size = 4
??E?$_Rb_tree_iterator@U?$pair@$$CBIPAVServerGroup@@@_STL@@U?$_Nonconst_traits@U?$pair@$$CBIPAVServerGroup@@@_STL@@@2@@_STL@@QAE?AU01@H@Z PROC NEAR ; _STL::_Rb_tree_iterator<_STL::pair<unsigned int const ,ServerGroup *>,_STL::_Nonconst_traits<_STL::pair<unsigned int const ,ServerGroup *> > >::operator++, COMDAT
; _this$ = ecx

; 175  :   _Self operator++(int) {

  00000	56		 push	 esi
  00001	8b f1		 mov	 esi, ecx
  00003	57		 push	 edi

; 176  :     _Self __tmp = *this;

  00004	8b 3e		 mov	 edi, DWORD PTR [esi]

; 177  :     _M_node = _Rb_global_inst::_M_increment(_M_node);

  00006	57		 push	 edi
  00007	e8 00 00 00 00	 call	 ?_M_increment@?$_Rb_global@_N@_STL@@SAPAU_Rb_tree_node_base@2@PAU32@@Z ; _STL::_Rb_global<bool>::_M_increment
  0000c	89 06		 mov	 DWORD PTR [esi], eax

; 178  :     return __tmp;

  0000e	8b 44 24 10	 mov	 eax, DWORD PTR ___$ReturnUdt$[esp+8]
  00012	59		 pop	 ecx
  00013	89 38		 mov	 DWORD PTR [eax], edi
  00015	5f		 pop	 edi
  00016	5e		 pop	 esi

; 179  :   }

  00017	c2 08 00	 ret	 8
??E?$_Rb_tree_iterator@U?$pair@$$CBIPAVServerGroup@@@_STL@@U?$_Nonconst_traits@U?$pair@$$CBIPAVServerGroup@@@_STL@@@2@@_STL@@QAE?AU01@H@Z ENDP ; _STL::_Rb_tree_iterator<_STL::pair<unsigned int const ,ServerGroup *>,_STL::_Nonconst_traits<_STL::pair<unsigned int const ,ServerGroup *> > >::operator++
_TEXT	ENDS
PUBLIC	??0?$allocator@U?$pair@$$CBIPAVSERVER_INFO@@@_STL@@@_STL@@QAE@XZ ; _STL::allocator<_STL::pair<unsigned int const ,SERVER_INFO *> >::allocator<_STL::pair<unsigned int const ,SERVER_INFO *> >
; Function compile flags: /Ogsy
; File c:\stlport-4.6.1\stlport\stl\_alloc.h
;	COMDAT ??0?$allocator@U?$pair@$$CBIPAVSERVER_INFO@@@_STL@@@_STL@@QAE@XZ
_TEXT	SEGMENT
??0?$allocator@U?$pair@$$CBIPAVSERVER_INFO@@@_STL@@@_STL@@QAE@XZ PROC NEAR ; _STL::allocator<_STL::pair<unsigned int const ,SERVER_INFO *> >::allocator<_STL::pair<unsigned int const ,SERVER_INFO *> >, COMDAT
; _this$ = ecx

; 345  :   allocator() _STLP_NOTHROW {}

  00000	8b c1		 mov	 eax, ecx
  00002	c3		 ret	 0
??0?$allocator@U?$pair@$$CBIPAVSERVER_INFO@@@_STL@@@_STL@@QAE@XZ ENDP ; _STL::allocator<_STL::pair<unsigned int const ,SERVER_INFO *> >::allocator<_STL::pair<unsigned int const ,SERVER_INFO *> >
_TEXT	ENDS
PUBLIC	??1?$allocator@U?$pair@$$CBIPAVSERVER_INFO@@@_STL@@@_STL@@QAE@XZ ; _STL::allocator<_STL::pair<unsigned int const ,SERVER_INFO *> >::~allocator<_STL::pair<unsigned int const ,SERVER_INFO *> >
; Function compile flags: /Ogsy
;	COMDAT ??1?$allocator@U?$pair@$$CBIPAVSERVER_INFO@@@_STL@@@_STL@@QAE@XZ
_TEXT	SEGMENT
??1?$allocator@U?$pair@$$CBIPAVSERVER_INFO@@@_STL@@@_STL@@QAE@XZ PROC NEAR ; _STL::allocator<_STL::pair<unsigned int const ,SERVER_INFO *> >::~allocator<_STL::pair<unsigned int const ,SERVER_INFO *> >, COMDAT
; _this$ = ecx

; 350  :   ~allocator() _STLP_NOTHROW {}

  00000	c3		 ret	 0
??1?$allocator@U?$pair@$$CBIPAVSERVER_INFO@@@_STL@@@_STL@@QAE@XZ ENDP ; _STL::allocator<_STL::pair<unsigned int const ,SERVER_INFO *> >::~allocator<_STL::pair<unsigned int const ,SERVER_INFO *> >
_TEXT	ENDS
PUBLIC	??0?$allocator@U?$pair@$$CBIPAVServerGroup@@@_STL@@@_STL@@QAE@XZ ; _STL::allocator<_STL::pair<unsigned int const ,ServerGroup *> >::allocator<_STL::pair<unsigned int const ,ServerGroup *> >
; Function compile flags: /Ogsy
;	COMDAT ??0?$allocator@U?$pair@$$CBIPAVServerGroup@@@_STL@@@_STL@@QAE@XZ
_TEXT	SEGMENT
??0?$allocator@U?$pair@$$CBIPAVServerGroup@@@_STL@@@_STL@@QAE@XZ PROC NEAR ; _STL::allocator<_STL::pair<unsigned int const ,ServerGroup *> >::allocator<_STL::pair<unsigned int const ,ServerGroup *> >, COMDAT
; _this$ = ecx

; 345  :   allocator() _STLP_NOTHROW {}

  00000	8b c1		 mov	 eax, ecx
  00002	c3		 ret	 0
??0?$allocator@U?$pair@$$CBIPAVServerGroup@@@_STL@@@_STL@@QAE@XZ ENDP ; _STL::allocator<_STL::pair<unsigned int const ,ServerGroup *> >::allocator<_STL::pair<unsigned int const ,ServerGroup *> >
_TEXT	ENDS
PUBLIC	??1?$allocator@U?$pair@$$CBIPAVServerGroup@@@_STL@@@_STL@@QAE@XZ ; _STL::allocator<_STL::pair<unsigned int const ,ServerGroup *> >::~allocator<_STL::pair<unsigned int const ,ServerGroup *> >
; Function compile flags: /Ogsy
;	COMDAT ??1?$allocator@U?$pair@$$CBIPAVServerGroup@@@_STL@@@_STL@@QAE@XZ
_TEXT	SEGMENT
??1?$allocator@U?$pair@$$CBIPAVServerGroup@@@_STL@@@_STL@@QAE@XZ PROC NEAR ; _STL::allocator<_STL::pair<unsigned int const ,ServerGroup *> >::~allocator<_STL::pair<unsigned int const ,ServerGroup *> >, COMDAT
; _this$ = ecx

; 350  :   ~allocator() _STLP_NOTHROW {}

  00000	c3		 ret	 0
??1?$allocator@U?$pair@$$CBIPAVServerGroup@@@_STL@@@_STL@@QAE@XZ ENDP ; _STL::allocator<_STL::pair<unsigned int const ,ServerGroup *> >::~allocator<_STL::pair<unsigned int const ,ServerGroup *> >
_TEXT	ENDS
PUBLIC	?_M_root@?$_Rb_tree@IU?$pair@$$CBIPAVSERVER_INFO@@@_STL@@U?$_Select1st@U?$pair@$$CBIPAVSERVER_INFO@@@_STL@@@2@U?$less@I@2@V?$allocator@U?$pair@$$CBIPAVSERVER_INFO@@@_STL@@@2@@_STL@@IBEAAPAU?$_Rb_tree_node@U?$pair@$$CBIPAVSERVER_INFO@@@_STL@@@2@XZ ; _STL::_Rb_tree<unsigned int,_STL::pair<unsigned int const ,SERVER_INFO *>,_STL::_Select1st<_STL::pair<unsigned int const ,SERVER_INFO *> >,_STL::less<unsigned int>,_STL::allocator<_STL::pair<unsigned int const ,SERVER_INFO *> > >::_M_root
; Function compile flags: /Ogsy
; File c:\stlport-4.6.1\stlport\stl\_tree.h
;	COMDAT ?_M_root@?$_Rb_tree@IU?$pair@$$CBIPAVSERVER_INFO@@@_STL@@U?$_Select1st@U?$pair@$$CBIPAVSERVER_INFO@@@_STL@@@2@U?$less@I@2@V?$allocator@U?$pair@$$CBIPAVSERVER_INFO@@@_STL@@@2@@_STL@@IBEAAPAU?$_Rb_tree_node@U?$pair@$$CBIPAVSERVER_INFO@@@_STL@@@2@XZ
_TEXT	SEGMENT
?_M_root@?$_Rb_tree@IU?$pair@$$CBIPAVSERVER_INFO@@@_STL@@U?$_Select1st@U?$pair@$$CBIPAVSERVER_INFO@@@_STL@@@2@U?$less@I@2@V?$allocator@U?$pair@$$CBIPAVSERVER_INFO@@@_STL@@@2@@_STL@@IBEAAPAU?$_Rb_tree_node@U?$pair@$$CBIPAVSERVER_INFO@@@_STL@@@2@XZ PROC NEAR ; _STL::_Rb_tree<unsigned int,_STL::pair<unsigned int const ,SERVER_INFO *>,_STL::_Select1st<_STL::pair<unsigned int const ,SERVER_INFO *> >,_STL::less<unsigned int>,_STL::allocator<_STL::pair<unsigned int const ,SERVER_INFO *> > >::_M_root, COMDAT
; _this$ = ecx

; 265  :     { return (_Link_type&) this->_M_header._M_data->_M_parent; }

  00000	8b 01		 mov	 eax, DWORD PTR [ecx]
  00002	83 c0 04	 add	 eax, 4
  00005	c3		 ret	 0
?_M_root@?$_Rb_tree@IU?$pair@$$CBIPAVSERVER_INFO@@@_STL@@U?$_Select1st@U?$pair@$$CBIPAVSERVER_INFO@@@_STL@@@2@U?$less@I@2@V?$allocator@U?$pair@$$CBIPAVSERVER_INFO@@@_STL@@@2@@_STL@@IBEAAPAU?$_Rb_tree_node@U?$pair@$$CBIPAVSERVER_INFO@@@_STL@@@2@XZ ENDP ; _STL::_Rb_tree<unsigned int,_STL::pair<unsigned int const ,SERVER_INFO *>,_STL::_Select1st<_STL::pair<unsigned int const ,SERVER_INFO *> >,_STL::less<unsigned int>,_STL::allocator<_STL::pair<unsigned int const ,SERVER_INFO *> > >::_M_root
_TEXT	ENDS
PUBLIC	?_M_leftmost@?$_Rb_tree@IU?$pair@$$CBIPAVSERVER_INFO@@@_STL@@U?$_Select1st@U?$pair@$$CBIPAVSERVER_INFO@@@_STL@@@2@U?$less@I@2@V?$allocator@U?$pair@$$CBIPAVSERVER_INFO@@@_STL@@@2@@_STL@@IBEAAPAU?$_Rb_tree_node@U?$pair@$$CBIPAVSERVER_INFO@@@_STL@@@2@XZ ; _STL::_Rb_tree<unsigned int,_STL::pair<unsigned int const ,SERVER_INFO *>,_STL::_Select1st<_STL::pair<unsigned int const ,SERVER_INFO *> >,_STL::less<unsigned int>,_STL::allocator<_STL::pair<unsigned int const ,SERVER_INFO *> > >::_M_leftmost
; Function compile flags: /Ogsy
;	COMDAT ?_M_leftmost@?$_Rb_tree@IU?$pair@$$CBIPAVSERVER_INFO@@@_STL@@U?$_Select1st@U?$pair@$$CBIPAVSERVER_INFO@@@_STL@@@2@U?$less@I@2@V?$allocator@U?$pair@$$CBIPAVSERVER_INFO@@@_STL@@@2@@_STL@@IBEAAPAU?$_Rb_tree_node@U?$pair@$$CBIPAVSERVER_INFO@@@_STL@@@2@XZ
_TEXT	SEGMENT
?_M_leftmost@?$_Rb_tree@IU?$pair@$$CBIPAVSERVER_INFO@@@_STL@@U?$_Select1st@U?$pair@$$CBIPAVSERVER_INFO@@@_STL@@@2@U?$less@I@2@V?$allocator@U?$pair@$$CBIPAVSERVER_INFO@@@_STL@@@2@@_STL@@IBEAAPAU?$_Rb_tree_node@U?$pair@$$CBIPAVSERVER_INFO@@@_STL@@@2@XZ PROC NEAR ; _STL::_Rb_tree<unsigned int,_STL::pair<unsigned int const ,SERVER_INFO *>,_STL::_Select1st<_STL::pair<unsigned int const ,SERVER_INFO *> >,_STL::less<unsigned int>,_STL::allocator<_STL::pair<unsigned int const ,SERVER_INFO *> > >::_M_leftmost, COMDAT
; _this$ = ecx

; 267  :     { return (_Link_type&) this->_M_header._M_data->_M_left; }

  00000	8b 01		 mov	 eax, DWORD PTR [ecx]
  00002	83 c0 08	 add	 eax, 8
  00005	c3		 ret	 0
?_M_leftmost@?$_Rb_tree@IU?$pair@$$CBIPAVSERVER_INFO@@@_STL@@U?$_Select1st@U?$pair@$$CBIPAVSERVER_INFO@@@_STL@@@2@U?$less@I@2@V?$allocator@U?$pair@$$CBIPAVSERVER_INFO@@@_STL@@@2@@_STL@@IBEAAPAU?$_Rb_tree_node@U?$pair@$$CBIPAVSERVER_INFO@@@_STL@@@2@XZ ENDP ; _STL::_Rb_tree<unsigned int,_STL::pair<unsigned int const ,SERVER_INFO *>,_STL::_Select1st<_STL::pair<unsigned int const ,SERVER_INFO *> >,_STL::less<unsigned int>,_STL::allocator<_STL::pair<unsigned int const ,SERVER_INFO *> > >::_M_leftmost
_TEXT	ENDS
PUBLIC	?_M_rightmost@?$_Rb_tree@IU?$pair@$$CBIPAVSERVER_INFO@@@_STL@@U?$_Select1st@U?$pair@$$CBIPAVSERVER_INFO@@@_STL@@@2@U?$less@I@2@V?$allocator@U?$pair@$$CBIPAVSERVER_INFO@@@_STL@@@2@@_STL@@IBEAAPAU?$_Rb_tree_node@U?$pair@$$CBIPAVSERVER_INFO@@@_STL@@@2@XZ ; _STL::_Rb_tree<unsigned int,_STL::pair<unsigned int const ,SERVER_INFO *>,_STL::_Select1st<_STL::pair<unsigned int const ,SERVER_INFO *> >,_STL::less<unsigned int>,_STL::allocator<_STL::pair<unsigned int const ,SERVER_INFO *> > >::_M_rightmost
; Function compile flags: /Ogsy
;	COMDAT ?_M_rightmost@?$_Rb_tree@IU?$pair@$$CBIPAVSERVER_INFO@@@_STL@@U?$_Select1st@U?$pair@$$CBIPAVSERVER_INFO@@@_STL@@@2@U?$less@I@2@V?$allocator@U?$pair@$$CBIPAVSERVER_INFO@@@_STL@@@2@@_STL@@IBEAAPAU?$_Rb_tree_node@U?$pair@$$CBIPAVSERVER_INFO@@@_STL@@@2@XZ
_TEXT	SEGMENT
?_M_rightmost@?$_Rb_tree@IU?$pair@$$CBIPAVSERVER_INFO@@@_STL@@U?$_Select1st@U?$pair@$$CBIPAVSERVER_INFO@@@_STL@@@2@U?$less@I@2@V?$allocator@U?$pair@$$CBIPAVSERVER_INFO@@@_STL@@@2@@_STL@@IBEAAPAU?$_Rb_tree_node@U?$pair@$$CBIPAVSERVER_INFO@@@_STL@@@2@XZ PROC NEAR ; _STL::_Rb_tree<unsigned int,_STL::pair<unsigned int const ,SERVER_INFO *>,_STL::_Select1st<_STL::pair<unsigned int const ,SERVER_INFO *> >,_STL::less<unsigned int>,_STL::allocator<_STL::pair<unsigned int const ,SERVER_INFO *> > >::_M_rightmost, COMDAT
; _this$ = ecx

; 269  :     { return (_Link_type&) this->_M_header._M_data->_M_right; }

  00000	8b 01		 mov	 eax, DWORD PTR [ecx]
  00002	83 c0 0c	 add	 eax, 12			; 0000000cH
  00005	c3		 ret	 0
?_M_rightmost@?$_Rb_tree@IU?$pair@$$CBIPAVSERVER_INFO@@@_STL@@U?$_Select1st@U?$pair@$$CBIPAVSERVER_INFO@@@_STL@@@2@U?$less@I@2@V?$allocator@U?$pair@$$CBIPAVSERVER_INFO@@@_STL@@@2@@_STL@@IBEAAPAU?$_Rb_tree_node@U?$pair@$$CBIPAVSERVER_INFO@@@_STL@@@2@XZ ENDP ; _STL::_Rb_tree<unsigned int,_STL::pair<unsigned int const ,SERVER_INFO *>,_STL::_Select1st<_STL::pair<unsigned int const ,SERVER_INFO *> >,_STL::less<unsigned int>,_STL::allocator<_STL::pair<unsigned int const ,SERVER_INFO *> > >::_M_rightmost
_TEXT	ENDS
PUBLIC	??1?$allocator@U?$_Rb_tree_node@U?$pair@$$CBIPAVSERVER_INFO@@@_STL@@@_STL@@@_STL@@QAE@XZ ; _STL::allocator<_STL::_Rb_tree_node<_STL::pair<unsigned int const ,SERVER_INFO *> > >::~allocator<_STL::_Rb_tree_node<_STL::pair<unsigned int const ,SERVER_INFO *> > >
; Function compile flags: /Ogsy
; File c:\stlport-4.6.1\stlport\stl\_alloc.h
;	COMDAT ??1?$allocator@U?$_Rb_tree_node@U?$pair@$$CBIPAVSERVER_INFO@@@_STL@@@_STL@@@_STL@@QAE@XZ
_TEXT	SEGMENT
??1?$allocator@U?$_Rb_tree_node@U?$pair@$$CBIPAVSERVER_INFO@@@_STL@@@_STL@@@_STL@@QAE@XZ PROC NEAR ; _STL::allocator<_STL::_Rb_tree_node<_STL::pair<unsigned int const ,SERVER_INFO *> > >::~allocator<_STL::_Rb_tree_node<_STL::pair<unsigned int const ,SERVER_INFO *> > >, COMDAT
; _this$ = ecx

; 350  :   ~allocator() _STLP_NOTHROW {}

  00000	c3		 ret	 0
??1?$allocator@U?$_Rb_tree_node@U?$pair@$$CBIPAVSERVER_INFO@@@_STL@@@_STL@@@_STL@@QAE@XZ ENDP ; _STL::allocator<_STL::_Rb_tree_node<_STL::pair<unsigned int const ,SERVER_INFO *> > >::~allocator<_STL::_Rb_tree_node<_STL::pair<unsigned int const ,SERVER_INFO *> > >
_TEXT	ENDS
PUBLIC	?_M_root@?$_Rb_tree@IU?$pair@$$CBIPAVServerGroup@@@_STL@@U?$_Select1st@U?$pair@$$CBIPAVServerGroup@@@_STL@@@2@U?$less@I@2@V?$allocator@U?$pair@$$CBIPAVServerGroup@@@_STL@@@2@@_STL@@IBEAAPAU?$_Rb_tree_node@U?$pair@$$CBIPAVServerGroup@@@_STL@@@2@XZ ; _STL::_Rb_tree<unsigned int,_STL::pair<unsigned int const ,ServerGroup *>,_STL::_Select1st<_STL::pair<unsigned int const ,ServerGroup *> >,_STL::less<unsigned int>,_STL::allocator<_STL::pair<unsigned int const ,ServerGroup *> > >::_M_root
; Function compile flags: /Ogsy
; File c:\stlport-4.6.1\stlport\stl\_tree.h
;	COMDAT ?_M_root@?$_Rb_tree@IU?$pair@$$CBIPAVServerGroup@@@_STL@@U?$_Select1st@U?$pair@$$CBIPAVServerGroup@@@_STL@@@2@U?$less@I@2@V?$allocator@U?$pair@$$CBIPAVServerGroup@@@_STL@@@2@@_STL@@IBEAAPAU?$_Rb_tree_node@U?$pair@$$CBIPAVServerGroup@@@_STL@@@2@XZ
_TEXT	SEGMENT
?_M_root@?$_Rb_tree@IU?$pair@$$CBIPAVServerGroup@@@_STL@@U?$_Select1st@U?$pair@$$CBIPAVServerGroup@@@_STL@@@2@U?$less@I@2@V?$allocator@U?$pair@$$CBIPAVServerGroup@@@_STL@@@2@@_STL@@IBEAAPAU?$_Rb_tree_node@U?$pair@$$CBIPAVServerGroup@@@_STL@@@2@XZ PROC NEAR ; _STL::_Rb_tree<unsigned int,_STL::pair<unsigned int const ,ServerGroup *>,_STL::_Select1st<_STL::pair<unsigned int const ,ServerGroup *> >,_STL::less<unsigned int>,_STL::allocator<_STL::pair<unsigned int const ,ServerGroup *> > >::_M_root, COMDAT
; _this$ = ecx

; 265  :     { return (_Link_type&) this->_M_header._M_data->_M_parent; }

  00000	8b 01		 mov	 eax, DWORD PTR [ecx]
  00002	83 c0 04	 add	 eax, 4
  00005	c3		 ret	 0
?_M_root@?$_Rb_tree@IU?$pair@$$CBIPAVServerGroup@@@_STL@@U?$_Select1st@U?$pair@$$CBIPAVServerGroup@@@_STL@@@2@U?$less@I@2@V?$allocator@U?$pair@$$CBIPAVServerGroup@@@_STL@@@2@@_STL@@IBEAAPAU?$_Rb_tree_node@U?$pair@$$CBIPAVServerGroup@@@_STL@@@2@XZ ENDP ; _STL::_Rb_tree<unsigned int,_STL::pair<unsigned int const ,ServerGroup *>,_STL::_Select1st<_STL::pair<unsigned int const ,ServerGroup *> >,_STL::less<unsigned int>,_STL::allocator<_STL::pair<unsigned int const ,ServerGroup *> > >::_M_root
_TEXT	ENDS
PUBLIC	?_M_leftmost@?$_Rb_tree@IU?$pair@$$CBIPAVServerGroup@@@_STL@@U?$_Select1st@U?$pair@$$CBIPAVServerGroup@@@_STL@@@2@U?$less@I@2@V?$allocator@U?$pair@$$CBIPAVServerGroup@@@_STL@@@2@@_STL@@IBEAAPAU?$_Rb_tree_node@U?$pair@$$CBIPAVServerGroup@@@_STL@@@2@XZ ; _STL::_Rb_tree<unsigned int,_STL::pair<unsigned int const ,ServerGroup *>,_STL::_Select1st<_STL::pair<unsigned int const ,ServerGroup *> >,_STL::less<unsigned int>,_STL::allocator<_STL::pair<unsigned int const ,ServerGroup *> > >::_M_leftmost
; Function compile flags: /Ogsy
;	COMDAT ?_M_leftmost@?$_Rb_tree@IU?$pair@$$CBIPAVServerGroup@@@_STL@@U?$_Select1st@U?$pair@$$CBIPAVServerGroup@@@_STL@@@2@U?$less@I@2@V?$allocator@U?$pair@$$CBIPAVServerGroup@@@_STL@@@2@@_STL@@IBEAAPAU?$_Rb_tree_node@U?$pair@$$CBIPAVServerGroup@@@_STL@@@2@XZ
_TEXT	SEGMENT
?_M_leftmost@?$_Rb_tree@IU?$pair@$$CBIPAVServerGroup@@@_STL@@U?$_Select1st@U?$pair@$$CBIPAVServerGroup@@@_STL@@@2@U?$less@I@2@V?$allocator@U?$pair@$$CBIPAVServerGroup@@@_STL@@@2@@_STL@@IBEAAPAU?$_Rb_tree_node@U?$pair@$$CBIPAVServerGroup@@@_STL@@@2@XZ PROC NEAR ; _STL::_Rb_tree<unsigned int,_STL::pair<unsigned int const ,ServerGroup *>,_STL::_Select1st<_STL::pair<unsigned int const ,ServerGroup *> >,_STL::less<unsigned int>,_STL::allocator<_STL::pair<unsigned int const ,ServerGroup *> > >::_M_leftmost, COMDAT
; _this$ = ecx

; 267  :     { return (_Link_type&) this->_M_header._M_data->_M_left; }

  00000	8b 01		 mov	 eax, DWORD PTR [ecx]
  00002	83 c0 08	 add	 eax, 8
  00005	c3		 ret	 0
?_M_leftmost@?$_Rb_tree@IU?$pair@$$CBIPAVServerGroup@@@_STL@@U?$_Select1st@U?$pair@$$CBIPAVServerGroup@@@_STL@@@2@U?$less@I@2@V?$allocator@U?$pair@$$CBIPAVServerGroup@@@_STL@@@2@@_STL@@IBEAAPAU?$_Rb_tree_node@U?$pair@$$CBIPAVServerGroup@@@_STL@@@2@XZ ENDP ; _STL::_Rb_tree<unsigned int,_STL::pair<unsigned int const ,ServerGroup *>,_STL::_Select1st<_STL::pair<unsigned int const ,ServerGroup *> >,_STL::less<unsigned int>,_STL::allocator<_STL::pair<unsigned int const ,ServerGroup *> > >::_M_leftmost
_TEXT	ENDS
PUBLIC	?_M_rightmost@?$_Rb_tree@IU?$pair@$$CBIPAVServerGroup@@@_STL@@U?$_Select1st@U?$pair@$$CBIPAVServerGroup@@@_STL@@@2@U?$less@I@2@V?$allocator@U?$pair@$$CBIPAVServerGroup@@@_STL@@@2@@_STL@@IBEAAPAU?$_Rb_tree_node@U?$pair@$$CBIPAVServerGroup@@@_STL@@@2@XZ ; _STL::_Rb_tree<unsigned int,_STL::pair<unsigned int const ,ServerGroup *>,_STL::_Select1st<_STL::pair<unsigned int const ,ServerGroup *> >,_STL::less<unsigned int>,_STL::allocator<_STL::pair<unsigned int const ,ServerGroup *> > >::_M_rightmost
; Function compile flags: /Ogsy
;	COMDAT ?_M_rightmost@?$_Rb_tree@IU?$pair@$$CBIPAVServerGroup@@@_STL@@U?$_Select1st@U?$pair@$$CBIPAVServerGroup@@@_STL@@@2@U?$less@I@2@V?$allocator@U?$pair@$$CBIPAVServerGroup@@@_STL@@@2@@_STL@@IBEAAPAU?$_Rb_tree_node@U?$pair@$$CBIPAVServerGroup@@@_STL@@@2@XZ
_TEXT	SEGMENT
?_M_rightmost@?$_Rb_tree@IU?$pair@$$CBIPAVServerGroup@@@_STL@@U?$_Select1st@U?$pair@$$CBIPAVServerGroup@@@_STL@@@2@U?$less@I@2@V?$allocator@U?$pair@$$CBIPAVServerGroup@@@_STL@@@2@@_STL@@IBEAAPAU?$_Rb_tree_node@U?$pair@$$CBIPAVServerGroup@@@_STL@@@2@XZ PROC NEAR ; _STL::_Rb_tree<unsigned int,_STL::pair<unsigned int const ,ServerGroup *>,_STL::_Select1st<_STL::pair<unsigned int const ,ServerGroup *> >,_STL::less<unsigned int>,_STL::allocator<_STL::pair<unsigned int const ,ServerGroup *> > >::_M_rightmost, COMDAT
; _this$ = ecx

; 269  :     { return (_Link_type&) this->_M_header._M_data->_M_right; }

  00000	8b 01		 mov	 eax, DWORD PTR [ecx]
  00002	83 c0 0c	 add	 eax, 12			; 0000000cH
  00005	c3		 ret	 0
?_M_rightmost@?$_Rb_tree@IU?$pair@$$CBIPAVServerGroup@@@_STL@@U?$_Select1st@U?$pair@$$CBIPAVServerGroup@@@_STL@@@2@U?$less@I@2@V?$allocator@U?$pair@$$CBIPAVServerGroup@@@_STL@@@2@@_STL@@IBEAAPAU?$_Rb_tree_node@U?$pair@$$CBIPAVServerGroup@@@_STL@@@2@XZ ENDP ; _STL::_Rb_tree<unsigned int,_STL::pair<unsigned int const ,ServerGroup *>,_STL::_Select1st<_STL::pair<unsigned int const ,ServerGroup *> >,_STL::less<unsigned int>,_STL::allocator<_STL::pair<unsigned int const ,ServerGroup *> > >::_M_rightmost
_TEXT	ENDS
PUBLIC	??1?$allocator@U?$_Rb_tree_node@U?$pair@$$CBIPAVServerGroup@@@_STL@@@_STL@@@_STL@@QAE@XZ ; _STL::allocator<_STL::_Rb_tree_node<_STL::pair<unsigned int const ,ServerGroup *> > >::~allocator<_STL::_Rb_tree_node<_STL::pair<unsigned int const ,ServerGroup *> > >
; Function compile flags: /Ogsy
; File c:\stlport-4.6.1\stlport\stl\_alloc.h
;	COMDAT ??1?$allocator@U?$_Rb_tree_node@U?$pair@$$CBIPAVServerGroup@@@_STL@@@_STL@@@_STL@@QAE@XZ
_TEXT	SEGMENT
??1?$allocator@U?$_Rb_tree_node@U?$pair@$$CBIPAVServerGroup@@@_STL@@@_STL@@@_STL@@QAE@XZ PROC NEAR ; _STL::allocator<_STL::_Rb_tree_node<_STL::pair<unsigned int const ,ServerGroup *> > >::~allocator<_STL::_Rb_tree_node<_STL::pair<unsigned int const ,ServerGroup *> > >, COMDAT
; _this$ = ecx

; 350  :   ~allocator() _STLP_NOTHROW {}

  00000	c3		 ret	 0
??1?$allocator@U?$_Rb_tree_node@U?$pair@$$CBIPAVServerGroup@@@_STL@@@_STL@@@_STL@@QAE@XZ ENDP ; _STL::allocator<_STL::_Rb_tree_node<_STL::pair<unsigned int const ,ServerGroup *> > >::~allocator<_STL::_Rb_tree_node<_STL::pair<unsigned int const ,ServerGroup *> > >
_TEXT	ENDS
PUBLIC	??0?$_Rb_tree_iterator@U?$pair@$$CBIPAVSERVER_INFO@@@_STL@@U?$_Nonconst_traits@U?$pair@$$CBIPAVSERVER_INFO@@@_STL@@@2@@_STL@@QAE@PAU?$_Rb_tree_node@U?$pair@$$CBIPAVSERVER_INFO@@@_STL@@@1@@Z ; _STL::_Rb_tree_iterator<_STL::pair<unsigned int const ,SERVER_INFO *>,_STL::_Nonconst_traits<_STL::pair<unsigned int const ,SERVER_INFO *> > >::_Rb_tree_iterator<_STL::pair<unsigned int const ,SERVER_INFO *>,_STL::_Nonconst_traits<_STL::pair<unsigned int const ,SERVER_INFO *> > >
; Function compile flags: /Ogsy
; File c:\stlport-4.6.1\stlport\stl\_tree.h
;	COMDAT ??0?$_Rb_tree_iterator@U?$pair@$$CBIPAVSERVER_INFO@@@_STL@@U?$_Nonconst_traits@U?$pair@$$CBIPAVSERVER_INFO@@@_STL@@@2@@_STL@@QAE@PAU?$_Rb_tree_node@U?$pair@$$CBIPAVSERVER_INFO@@@_STL@@@1@@Z
_TEXT	SEGMENT
___x$ = 8						; size = 4
??0?$_Rb_tree_iterator@U?$pair@$$CBIPAVSERVER_INFO@@@_STL@@U?$_Nonconst_traits@U?$pair@$$CBIPAVSERVER_INFO@@@_STL@@@2@@_STL@@QAE@PAU?$_Rb_tree_node@U?$pair@$$CBIPAVSERVER_INFO@@@_STL@@@1@@Z PROC NEAR ; _STL::_Rb_tree_iterator<_STL::pair<unsigned int const ,SERVER_INFO *>,_STL::_Nonconst_traits<_STL::pair<unsigned int const ,SERVER_INFO *> > >::_Rb_tree_iterator<_STL::pair<unsigned int const ,SERVER_INFO *>,_STL::_Nonconst_traits<_STL::pair<unsigned int const ,SERVER_INFO *> > >, COMDAT
; _this$ = ecx

; 164  :   _Rb_tree_iterator(_Link_type __x) { _M_node = __x; }

  00000	8b c1		 mov	 eax, ecx
  00002	8b 4c 24 04	 mov	 ecx, DWORD PTR ___x$[esp-4]
  00006	89 08		 mov	 DWORD PTR [eax], ecx
  00008	c2 04 00	 ret	 4
??0?$_Rb_tree_iterator@U?$pair@$$CBIPAVSERVER_INFO@@@_STL@@U?$_Nonconst_traits@U?$pair@$$CBIPAVSERVER_INFO@@@_STL@@@2@@_STL@@QAE@PAU?$_Rb_tree_node@U?$pair@$$CBIPAVSERVER_INFO@@@_STL@@@1@@Z ENDP ; _STL::_Rb_tree_iterator<_STL::pair<unsigned int const ,SERVER_INFO *>,_STL::_Nonconst_traits<_STL::pair<unsigned int const ,SERVER_INFO *> > >::_Rb_tree_iterator<_STL::pair<unsigned int const ,SERVER_INFO *>,_STL::_Nonconst_traits<_STL::pair<unsigned int const ,SERVER_INFO *> > >
_TEXT	ENDS
PUBLIC	??0?$_Rb_tree_iterator@U?$pair@$$CBIPAVServerGroup@@@_STL@@U?$_Nonconst_traits@U?$pair@$$CBIPAVServerGroup@@@_STL@@@2@@_STL@@QAE@PAU?$_Rb_tree_node@U?$pair@$$CBIPAVServerGroup@@@_STL@@@1@@Z ; _STL::_Rb_tree_iterator<_STL::pair<unsigned int const ,ServerGroup *>,_STL::_Nonconst_traits<_STL::pair<unsigned int const ,ServerGroup *> > >::_Rb_tree_iterator<_STL::pair<unsigned int const ,ServerGroup *>,_STL::_Nonconst_traits<_STL::pair<unsigned int const ,ServerGroup *> > >
; Function compile flags: /Ogsy
;	COMDAT ??0?$_Rb_tree_iterator@U?$pair@$$CBIPAVServerGroup@@@_STL@@U?$_Nonconst_traits@U?$pair@$$CBIPAVServerGroup@@@_STL@@@2@@_STL@@QAE@PAU?$_Rb_tree_node@U?$pair@$$CBIPAVServerGroup@@@_STL@@@1@@Z
_TEXT	SEGMENT
___x$ = 8						; size = 4
??0?$_Rb_tree_iterator@U?$pair@$$CBIPAVServerGroup@@@_STL@@U?$_Nonconst_traits@U?$pair@$$CBIPAVServerGroup@@@_STL@@@2@@_STL@@QAE@PAU?$_Rb_tree_node@U?$pair@$$CBIPAVServerGroup@@@_STL@@@1@@Z PROC NEAR ; _STL::_Rb_tree_iterator<_STL::pair<unsigned int const ,ServerGroup *>,_STL::_Nonconst_traits<_STL::pair<unsigned int const ,ServerGroup *> > >::_Rb_tree_iterator<_STL::pair<unsigned int const ,ServerGroup *>,_STL::_Nonconst_traits<_STL::pair<unsigned int const ,ServerGroup *> > >, COMDAT
; _this$ = ecx

; 164  :   _Rb_tree_iterator(_Link_type __x) { _M_node = __x; }

  00000	8b c1		 mov	 eax, ecx
  00002	8b 4c 24 04	 mov	 ecx, DWORD PTR ___x$[esp-4]
  00006	89 08		 mov	 DWORD PTR [eax], ecx
  00008	c2 04 00	 ret	 4
??0?$_Rb_tree_iterator@U?$pair@$$CBIPAVServerGroup@@@_STL@@U?$_Nonconst_traits@U?$pair@$$CBIPAVServerGroup@@@_STL@@@2@@_STL@@QAE@PAU?$_Rb_tree_node@U?$pair@$$CBIPAVServerGroup@@@_STL@@@1@@Z ENDP ; _STL::_Rb_tree_iterator<_STL::pair<unsigned int const ,ServerGroup *>,_STL::_Nonconst_traits<_STL::pair<unsigned int const ,ServerGroup *> > >::_Rb_tree_iterator<_STL::pair<unsigned int const ,ServerGroup *>,_STL::_Nonconst_traits<_STL::pair<unsigned int const ,ServerGroup *> > >
_TEXT	ENDS
PUBLIC	?_S_color@?$_Rb_tree@IU?$pair@$$CBIPAVSERVER_INFO@@@_STL@@U?$_Select1st@U?$pair@$$CBIPAVSERVER_INFO@@@_STL@@@2@U?$less@I@2@V?$allocator@U?$pair@$$CBIPAVSERVER_INFO@@@_STL@@@2@@_STL@@KAAA_NPAU?$_Rb_tree_node@U?$pair@$$CBIPAVSERVER_INFO@@@_STL@@@2@@Z ; _STL::_Rb_tree<unsigned int,_STL::pair<unsigned int const ,SERVER_INFO *>,_STL::_Select1st<_STL::pair<unsigned int const ,SERVER_INFO *> >,_STL::less<unsigned int>,_STL::allocator<_STL::pair<unsigned int const ,SERVER_INFO *> > >::_S_color
; Function compile flags: /Ogsy
;	COMDAT ?_S_color@?$_Rb_tree@IU?$pair@$$CBIPAVSERVER_INFO@@@_STL@@U?$_Select1st@U?$pair@$$CBIPAVSERVER_INFO@@@_STL@@@2@U?$less@I@2@V?$allocator@U?$pair@$$CBIPAVSERVER_INFO@@@_STL@@@2@@_STL@@KAAA_NPAU?$_Rb_tree_node@U?$pair@$$CBIPAVSERVER_INFO@@@_STL@@@2@@Z
_TEXT	SEGMENT
___x$ = 8						; size = 4
?_S_color@?$_Rb_tree@IU?$pair@$$CBIPAVSERVER_INFO@@@_STL@@U?$_Select1st@U?$pair@$$CBIPAVSERVER_INFO@@@_STL@@@2@U?$less@I@2@V?$allocator@U?$pair@$$CBIPAVSERVER_INFO@@@_STL@@@2@@_STL@@KAAA_NPAU?$_Rb_tree_node@U?$pair@$$CBIPAVSERVER_INFO@@@_STL@@@2@@Z PROC NEAR ; _STL::_Rb_tree<unsigned int,_STL::pair<unsigned int const ,SERVER_INFO *>,_STL::_Select1st<_STL::pair<unsigned int const ,SERVER_INFO *> >,_STL::less<unsigned int>,_STL::allocator<_STL::pair<unsigned int const ,SERVER_INFO *> > >::_S_color, COMDAT

; 282  :     { return (_Color_type&)(__x->_M_color); }

  00000	8b 44 24 04	 mov	 eax, DWORD PTR ___x$[esp-4]
  00004	c3		 ret	 0
?_S_color@?$_Rb_tree@IU?$pair@$$CBIPAVSERVER_INFO@@@_STL@@U?$_Select1st@U?$pair@$$CBIPAVSERVER_INFO@@@_STL@@@2@U?$less@I@2@V?$allocator@U?$pair@$$CBIPAVSERVER_INFO@@@_STL@@@2@@_STL@@KAAA_NPAU?$_Rb_tree_node@U?$pair@$$CBIPAVSERVER_INFO@@@_STL@@@2@@Z ENDP ; _STL::_Rb_tree<unsigned int,_STL::pair<unsigned int const ,SERVER_INFO *>,_STL::_Select1st<_STL::pair<unsigned int const ,SERVER_INFO *> >,_STL::less<unsigned int>,_STL::allocator<_STL::pair<unsigned int const ,SERVER_INFO *> > >::_S_color
_TEXT	ENDS
PUBLIC	?_S_color@?$_Rb_tree@IU?$pair@$$CBIPAVServerGroup@@@_STL@@U?$_Select1st@U?$pair@$$CBIPAVServerGroup@@@_STL@@@2@U?$less@I@2@V?$allocator@U?$pair@$$CBIPAVServerGroup@@@_STL@@@2@@_STL@@KAAA_NPAU?$_Rb_tree_node@U?$pair@$$CBIPAVServerGroup@@@_STL@@@2@@Z ; _STL::_Rb_tree<unsigned int,_STL::pair<unsigned int const ,ServerGroup *>,_STL::_Select1st<_STL::pair<unsigned int const ,ServerGroup *> >,_STL::less<unsigned int>,_STL::allocator<_STL::pair<unsigned int const ,ServerGroup *> > >::_S_color
; Function compile flags: /Ogsy
;	COMDAT ?_S_color@?$_Rb_tree@IU?$pair@$$CBIPAVServerGroup@@@_STL@@U?$_Select1st@U?$pair@$$CBIPAVServerGroup@@@_STL@@@2@U?$less@I@2@V?$allocator@U?$pair@$$CBIPAVServerGroup@@@_STL@@@2@@_STL@@KAAA_NPAU?$_Rb_tree_node@U?$pair@$$CBIPAVServerGroup@@@_STL@@@2@@Z
_TEXT	SEGMENT
___x$ = 8						; size = 4
?_S_color@?$_Rb_tree@IU?$pair@$$CBIPAVServerGroup@@@_STL@@U?$_Select1st@U?$pair@$$CBIPAVServerGroup@@@_STL@@@2@U?$less@I@2@V?$allocator@U?$pair@$$CBIPAVServerGroup@@@_STL@@@2@@_STL@@KAAA_NPAU?$_Rb_tree_node@U?$pair@$$CBIPAVServerGroup@@@_STL@@@2@@Z PROC NEAR ; _STL::_Rb_tree<unsigned int,_STL::pair<unsigned int const ,ServerGroup *>,_STL::_Select1st<_STL::pair<unsigned int const ,ServerGroup *> >,_STL::less<unsigned int>,_STL::allocator<_STL::pair<unsigned int const ,ServerGroup *> > >::_S_color, COMDAT

; 282  :     { return (_Color_type&)(__x->_M_color); }

  00000	8b 44 24 04	 mov	 eax, DWORD PTR ___x$[esp-4]
  00004	c3		 ret	 0
?_S_color@?$_Rb_tree@IU?$pair@$$CBIPAVServerGroup@@@_STL@@U?$_Select1st@U?$pair@$$CBIPAVServerGroup@@@_STL@@@2@U?$less@I@2@V?$allocator@U?$pair@$$CBIPAVServerGroup@@@_STL@@@2@@_STL@@KAAA_NPAU?$_Rb_tree_node@U?$pair@$$CBIPAVServerGroup@@@_STL@@@2@@Z ENDP ; _STL::_Rb_tree<unsigned int,_STL::pair<unsigned int const ,ServerGroup *>,_STL::_Select1st<_STL::pair<unsigned int const ,ServerGroup *> >,_STL::less<unsigned int>,_STL::allocator<_STL::pair<unsigned int const ,ServerGroup *> > >::_S_color
_TEXT	ENDS
PUBLIC	??0?$allocator@U?$_Rb_tree_node@U?$pair@$$CBIPAVSERVER_INFO@@@_STL@@@_STL@@@_STL@@QAE@ABV01@@Z ; _STL::allocator<_STL::_Rb_tree_node<_STL::pair<unsigned int const ,SERVER_INFO *> > >::allocator<_STL::_Rb_tree_node<_STL::pair<unsigned int const ,SERVER_INFO *> > >
; Function compile flags: /Ogsy
; File c:\stlport-4.6.1\stlport\stl\_alloc.h
;	COMDAT ??0?$allocator@U?$_Rb_tree_node@U?$pair@$$CBIPAVSERVER_INFO@@@_STL@@@_STL@@@_STL@@QAE@ABV01@@Z
_TEXT	SEGMENT
___formal$ = 8						; size = 4
??0?$allocator@U?$_Rb_tree_node@U?$pair@$$CBIPAVSERVER_INFO@@@_STL@@@_STL@@@_STL@@QAE@ABV01@@Z PROC NEAR ; _STL::allocator<_STL::_Rb_tree_node<_STL::pair<unsigned int const ,SERVER_INFO *> > >::allocator<_STL::_Rb_tree_node<_STL::pair<unsigned int const ,SERVER_INFO *> > >, COMDAT
; _this$ = ecx

; 349  :   allocator(const allocator<_Tp>&) _STLP_NOTHROW {}

  00000	8b c1		 mov	 eax, ecx
  00002	c2 04 00	 ret	 4
??0?$allocator@U?$_Rb_tree_node@U?$pair@$$CBIPAVSERVER_INFO@@@_STL@@@_STL@@@_STL@@QAE@ABV01@@Z ENDP ; _STL::allocator<_STL::_Rb_tree_node<_STL::pair<unsigned int const ,SERVER_INFO *> > >::allocator<_STL::_Rb_tree_node<_STL::pair<unsigned int const ,SERVER_INFO *> > >
_TEXT	ENDS
PUBLIC	??0?$allocator@U?$_Rb_tree_node@U?$pair@$$CBIPAVServerGroup@@@_STL@@@_STL@@@_STL@@QAE@ABV01@@Z ; _STL::allocator<_STL::_Rb_tree_node<_STL::pair<unsigned int const ,ServerGroup *> > >::allocator<_STL::_Rb_tree_node<_STL::pair<unsigned int const ,ServerGroup *> > >
; Function compile flags: /Ogsy
;	COMDAT ??0?$allocator@U?$_Rb_tree_node@U?$pair@$$CBIPAVServerGroup@@@_STL@@@_STL@@@_STL@@QAE@ABV01@@Z
_TEXT	SEGMENT
___formal$ = 8						; size = 4
??0?$allocator@U?$_Rb_tree_node@U?$pair@$$CBIPAVServerGroup@@@_STL@@@_STL@@@_STL@@QAE@ABV01@@Z PROC NEAR ; _STL::allocator<_STL::_Rb_tree_node<_STL::pair<unsigned int const ,ServerGroup *> > >::allocator<_STL::_Rb_tree_node<_STL::pair<unsigned int const ,ServerGroup *> > >, COMDAT
; _this$ = ecx

; 349  :   allocator(const allocator<_Tp>&) _STLP_NOTHROW {}

  00000	8b c1		 mov	 eax, ecx
  00002	c2 04 00	 ret	 4
??0?$allocator@U?$_Rb_tree_node@U?$pair@$$CBIPAVServerGroup@@@_STL@@@_STL@@@_STL@@QAE@ABV01@@Z ENDP ; _STL::allocator<_STL::_Rb_tree_node<_STL::pair<unsigned int const ,ServerGroup *> > >::allocator<_STL::_Rb_tree_node<_STL::pair<unsigned int const ,ServerGroup *> > >
_TEXT	ENDS
PUBLIC	??$_Destroy@U?$pair@$$CBIPAVSERVER_INFO@@@_STL@@@_STL@@YAXPAU?$pair@$$CBIPAVSERVER_INFO@@@0@@Z ; _STL::_Destroy<_STL::pair<unsigned int const ,SERVER_INFO *> >
; Function compile flags: /Ogsy
; File c:\stlport-4.6.1\stlport\stl\_construct.h
;	COMDAT ??$_Destroy@U?$pair@$$CBIPAVSERVER_INFO@@@_STL@@@_STL@@YAXPAU?$pair@$$CBIPAVSERVER_INFO@@@0@@Z
_TEXT	SEGMENT
___pointer$ = 8						; size = 4
??$_Destroy@U?$pair@$$CBIPAVSERVER_INFO@@@_STL@@@_STL@@YAXPAU?$pair@$$CBIPAVSERVER_INFO@@@0@@Z PROC NEAR ; _STL::_Destroy<_STL::pair<unsigned int const ,SERVER_INFO *> >, COMDAT

; 57   : # if _MSC_VER >= 1010
; 58   :   __pointer;
; 59   : # endif	// _MSC_VER >= 1000
; 60   : # ifdef _STLP_TRIVIAL_DESTRUCTOR_BUG
; 61   :   typedef typename __type_traits<_Tp>::has_trivial_destructor _Trivial_destructor;
; 62   :   __destroy_aux(__pointer, _Trivial_destructor());
; 63   : # else
; 64   : #  if ( defined (__BORLANDC__) && ( __BORLANDC__ < 0x500 ) )
; 65   :     __pointer->_Tp::~_Tp();
; 66   : #  else
; 67   :     __pointer->~_Tp();
; 68   : #  endif
; 69   : # endif
; 70   : # ifdef _STLP_DEBUG_UNINITIALIZED
; 71   : 	memset((char*)__pointer, _STLP_SHRED_BYTE, sizeof(_Tp));
; 72   : # endif
; 73   : }

  00000	c3		 ret	 0
??$_Destroy@U?$pair@$$CBIPAVSERVER_INFO@@@_STL@@@_STL@@YAXPAU?$pair@$$CBIPAVSERVER_INFO@@@0@@Z ENDP ; _STL::_Destroy<_STL::pair<unsigned int const ,SERVER_INFO *> >
_TEXT	ENDS
PUBLIC	??$_Destroy@U?$pair@$$CBIPAVServerGroup@@@_STL@@@_STL@@YAXPAU?$pair@$$CBIPAVServerGroup@@@0@@Z ; _STL::_Destroy<_STL::pair<unsigned int const ,ServerGroup *> >
; Function compile flags: /Ogsy
;	COMDAT ??$_Destroy@U?$pair@$$CBIPAVServerGroup@@@_STL@@@_STL@@YAXPAU?$pair@$$CBIPAVServerGroup@@@0@@Z
_TEXT	SEGMENT
___pointer$ = 8						; size = 4
??$_Destroy@U?$pair@$$CBIPAVServerGroup@@@_STL@@@_STL@@YAXPAU?$pair@$$CBIPAVServerGroup@@@0@@Z PROC NEAR ; _STL::_Destroy<_STL::pair<unsigned int const ,ServerGroup *> >, COMDAT

; 57   : # if _MSC_VER >= 1010
; 58   :   __pointer;
; 59   : # endif	// _MSC_VER >= 1000
; 60   : # ifdef _STLP_TRIVIAL_DESTRUCTOR_BUG
; 61   :   typedef typename __type_traits<_Tp>::has_trivial_destructor _Trivial_destructor;
; 62   :   __destroy_aux(__pointer, _Trivial_destructor());
; 63   : # else
; 64   : #  if ( defined (__BORLANDC__) && ( __BORLANDC__ < 0x500 ) )
; 65   :     __pointer->_Tp::~_Tp();
; 66   : #  else
; 67   :     __pointer->~_Tp();
; 68   : #  endif
; 69   : # endif
; 70   : # ifdef _STLP_DEBUG_UNINITIALIZED
; 71   : 	memset((char*)__pointer, _STLP_SHRED_BYTE, sizeof(_Tp));
; 72   : # endif
; 73   : }

  00000	c3		 ret	 0
??$_Destroy@U?$pair@$$CBIPAVServerGroup@@@_STL@@@_STL@@YAXPAU?$pair@$$CBIPAVServerGroup@@@0@@Z ENDP ; _STL::_Destroy<_STL::pair<unsigned int const ,ServerGroup *> >
_TEXT	ENDS
PUBLIC	??$?0U?$pair@$$CBIPAVSERVER_INFO@@@_STL@@@?$allocator@U?$_Rb_tree_node@U?$pair@$$CBIPAVSERVER_INFO@@@_STL@@@_STL@@@_STL@@QAE@ABV?$allocator@U?$pair@$$CBIPAVSERVER_INFO@@@_STL@@@1@@Z ; _STL::allocator<_STL::_Rb_tree_node<_STL::pair<unsigned int const ,SERVER_INFO *> > >::allocator<_STL::_Rb_tree_node<_STL::pair<unsigned int const ,SERVER_INFO *> > ><_STL::pair<unsigned int const ,SERVER_INFO *> >
; Function compile flags: /Ogsy
; File c:\stlport-4.6.1\stlport\stl\_alloc.h
;	COMDAT ??$?0U?$pair@$$CBIPAVSERVER_INFO@@@_STL@@@?$allocator@U?$_Rb_tree_node@U?$pair@$$CBIPAVSERVER_INFO@@@_STL@@@_STL@@@_STL@@QAE@ABV?$allocator@U?$pair@$$CBIPAVSERVER_INFO@@@_STL@@@1@@Z
_TEXT	SEGMENT
___formal$ = 8						; size = 4
??$?0U?$pair@$$CBIPAVSERVER_INFO@@@_STL@@@?$allocator@U?$_Rb_tree_node@U?$pair@$$CBIPAVSERVER_INFO@@@_STL@@@_STL@@@_STL@@QAE@ABV?$allocator@U?$pair@$$CBIPAVSERVER_INFO@@@_STL@@@1@@Z PROC NEAR ; _STL::allocator<_STL::_Rb_tree_node<_STL::pair<unsigned int const ,SERVER_INFO *> > >::allocator<_STL::_Rb_tree_node<_STL::pair<unsigned int const ,SERVER_INFO *> > ><_STL::pair<unsigned int const ,SERVER_INFO *> >, COMDAT
; _this$ = ecx

; 347  :   template <class _Tp1> allocator(const allocator<_Tp1>&) _STLP_NOTHROW {}

  00000	8b c1		 mov	 eax, ecx
  00002	c2 04 00	 ret	 4
??$?0U?$pair@$$CBIPAVSERVER_INFO@@@_STL@@@?$allocator@U?$_Rb_tree_node@U?$pair@$$CBIPAVSERVER_INFO@@@_STL@@@_STL@@@_STL@@QAE@ABV?$allocator@U?$pair@$$CBIPAVSERVER_INFO@@@_STL@@@1@@Z ENDP ; _STL::allocator<_STL::_Rb_tree_node<_STL::pair<unsigned int const ,SERVER_INFO *> > >::allocator<_STL::_Rb_tree_node<_STL::pair<unsigned int const ,SERVER_INFO *> > ><_STL::pair<unsigned int const ,SERVER_INFO *> >
_TEXT	ENDS
PUBLIC	??$?0U?$pair@$$CBIPAVServerGroup@@@_STL@@@?$allocator@U?$_Rb_tree_node@U?$pair@$$CBIPAVServerGroup@@@_STL@@@_STL@@@_STL@@QAE@ABV?$allocator@U?$pair@$$CBIPAVServerGroup@@@_STL@@@1@@Z ; _STL::allocator<_STL::_Rb_tree_node<_STL::pair<unsigned int const ,ServerGroup *> > >::allocator<_STL::_Rb_tree_node<_STL::pair<unsigned int const ,ServerGroup *> > ><_STL::pair<unsigned int const ,ServerGroup *> >
; Function compile flags: /Ogsy
;	COMDAT ??$?0U?$pair@$$CBIPAVServerGroup@@@_STL@@@?$allocator@U?$_Rb_tree_node@U?$pair@$$CBIPAVServerGroup@@@_STL@@@_STL@@@_STL@@QAE@ABV?$allocator@U?$pair@$$CBIPAVServerGroup@@@_STL@@@1@@Z
_TEXT	SEGMENT
___formal$ = 8						; size = 4
??$?0U?$pair@$$CBIPAVServerGroup@@@_STL@@@?$allocator@U?$_Rb_tree_node@U?$pair@$$CBIPAVServerGroup@@@_STL@@@_STL@@@_STL@@QAE@ABV?$allocator@U?$pair@$$CBIPAVServerGroup@@@_STL@@@1@@Z PROC NEAR ; _STL::allocator<_STL::_Rb_tree_node<_STL::pair<unsigned int const ,ServerGroup *> > >::allocator<_STL::_Rb_tree_node<_STL::pair<unsigned int const ,ServerGroup *> > ><_STL::pair<unsigned int const ,ServerGroup *> >, COMDAT
; _this$ = ecx

; 347  :   template <class _Tp1> allocator(const allocator<_Tp1>&) _STLP_NOTHROW {}

  00000	8b c1		 mov	 eax, ecx
  00002	c2 04 00	 ret	 4
??$?0U?$pair@$$CBIPAVServerGroup@@@_STL@@@?$allocator@U?$_Rb_tree_node@U?$pair@$$CBIPAVServerGroup@@@_STL@@@_STL@@@_STL@@QAE@ABV?$allocator@U?$pair@$$CBIPAVServerGroup@@@_STL@@@1@@Z ENDP ; _STL::allocator<_STL::_Rb_tree_node<_STL::pair<unsigned int const ,ServerGroup *> > >::allocator<_STL::_Rb_tree_node<_STL::pair<unsigned int const ,ServerGroup *> > ><_STL::pair<unsigned int const ,ServerGroup *> >
_TEXT	ENDS
PUBLIC	?_S_left@?$_Rb_tree@IU?$pair@$$CBIPAVSERVER_INFO@@@_STL@@U?$_Select1st@U?$pair@$$CBIPAVSERVER_INFO@@@_STL@@@2@U?$less@I@2@V?$allocator@U?$pair@$$CBIPAVSERVER_INFO@@@_STL@@@2@@_STL@@KAAAPAU?$_Rb_tree_node@U?$pair@$$CBIPAVSERVER_INFO@@@_STL@@@2@PAU32@@Z ; _STL::_Rb_tree<unsigned int,_STL::pair<unsigned int const ,SERVER_INFO *>,_STL::_Select1st<_STL::pair<unsigned int const ,SERVER_INFO *> >,_STL::less<unsigned int>,_STL::allocator<_STL::pair<unsigned int const ,SERVER_INFO *> > >::_S_left
; Function compile flags: /Ogsy
; File c:\stlport-4.6.1\stlport\stl\_tree.h
;	COMDAT ?_S_left@?$_Rb_tree@IU?$pair@$$CBIPAVSERVER_INFO@@@_STL@@U?$_Select1st@U?$pair@$$CBIPAVSERVER_INFO@@@_STL@@@2@U?$less@I@2@V?$allocator@U?$pair@$$CBIPAVSERVER_INFO@@@_STL@@@2@@_STL@@KAAAPAU?$_Rb_tree_node@U?$pair@$$CBIPAVSERVER_INFO@@@_STL@@@2@PAU32@@Z
_TEXT	SEGMENT
___x$ = 8						; size = 4
?_S_left@?$_Rb_tree@IU?$pair@$$CBIPAVSERVER_INFO@@@_STL@@U?$_Select1st@U?$pair@$$CBIPAVSERVER_INFO@@@_STL@@@2@U?$less@I@2@V?$allocator@U?$pair@$$CBIPAVSERVER_INFO@@@_STL@@@2@@_STL@@KAAAPAU?$_Rb_tree_node@U?$pair@$$CBIPAVSERVER_INFO@@@_STL@@@2@PAU32@@Z PROC NEAR ; _STL::_Rb_tree<unsigned int,_STL::pair<unsigned int const ,SERVER_INFO *>,_STL::_Select1st<_STL::pair<unsigned int const ,SERVER_INFO *> >,_STL::less<unsigned int>,_STL::allocator<_STL::pair<unsigned int const ,SERVER_INFO *> > >::_S_left, COMDAT

; 272  :     { return (_Link_type&)(__x->_M_left); }

  00000	8b 44 24 04	 mov	 eax, DWORD PTR ___x$[esp-4]
  00004	83 c0 08	 add	 eax, 8
  00007	c3		 ret	 0
?_S_left@?$_Rb_tree@IU?$pair@$$CBIPAVSERVER_INFO@@@_STL@@U?$_Select1st@U?$pair@$$CBIPAVSERVER_INFO@@@_STL@@@2@U?$less@I@2@V?$allocator@U?$pair@$$CBIPAVSERVER_INFO@@@_STL@@@2@@_STL@@KAAAPAU?$_Rb_tree_node@U?$pair@$$CBIPAVSERVER_INFO@@@_STL@@@2@PAU32@@Z ENDP ; _STL::_Rb_tree<unsigned int,_STL::pair<unsigned int const ,SERVER_INFO *>,_STL::_Select1st<_STL::pair<unsigned int const ,SERVER_INFO *> >,_STL::less<unsigned int>,_STL::allocator<_STL::pair<unsigned int const ,SERVER_INFO *> > >::_S_left
_TEXT	ENDS
PUBLIC	?_S_right@?$_Rb_tree@IU?$pair@$$CBIPAVSERVER_INFO@@@_STL@@U?$_Select1st@U?$pair@$$CBIPAVSERVER_INFO@@@_STL@@@2@U?$less@I@2@V?$allocator@U?$pair@$$CBIPAVSERVER_INFO@@@_STL@@@2@@_STL@@KAAAPAU?$_Rb_tree_node@U?$pair@$$CBIPAVSERVER_INFO@@@_STL@@@2@PAU32@@Z ; _STL::_Rb_tree<unsigned int,_STL::pair<unsigned int const ,SERVER_INFO *>,_STL::_Select1st<_STL::pair<unsigned int const ,SERVER_INFO *> >,_STL::less<unsigned int>,_STL::allocator<_STL::pair<unsigned int const ,SERVER_INFO *> > >::_S_right
; Function compile flags: /Ogsy
;	COMDAT ?_S_right@?$_Rb_tree@IU?$pair@$$CBIPAVSERVER_INFO@@@_STL@@U?$_Select1st@U?$pair@$$CBIPAVSERVER_INFO@@@_STL@@@2@U?$less@I@2@V?$allocator@U?$pair@$$CBIPAVSERVER_INFO@@@_STL@@@2@@_STL@@KAAAPAU?$_Rb_tree_node@U?$pair@$$CBIPAVSERVER_INFO@@@_STL@@@2@PAU32@@Z
_TEXT	SEGMENT
___x$ = 8						; size = 4
?_S_right@?$_Rb_tree@IU?$pair@$$CBIPAVSERVER_INFO@@@_STL@@U?$_Select1st@U?$pair@$$CBIPAVSERVER_INFO@@@_STL@@@2@U?$less@I@2@V?$allocator@U?$pair@$$CBIPAVSERVER_INFO@@@_STL@@@2@@_STL@@KAAAPAU?$_Rb_tree_node@U?$pair@$$CBIPAVSERVER_INFO@@@_STL@@@2@PAU32@@Z PROC NEAR ; _STL::_Rb_tree<unsigned int,_STL::pair<unsigned int const ,SERVER_INFO *>,_STL::_Select1st<_STL::pair<unsigned int const ,SERVER_INFO *> >,_STL::less<unsigned int>,_STL::allocator<_STL::pair<unsigned int const ,SERVER_INFO *> > >::_S_right, COMDAT

; 274  :     { return (_Link_type&)(__x->_M_right); }

  00000	8b 44 24 04	 mov	 eax, DWORD PTR ___x$[esp-4]
  00004	83 c0 0c	 add	 eax, 12			; 0000000cH
  00007	c3		 ret	 0
?_S_right@?$_Rb_tree@IU?$pair@$$CBIPAVSERVER_INFO@@@_STL@@U?$_Select1st@U?$pair@$$CBIPAVSERVER_INFO@@@_STL@@@2@U?$less@I@2@V?$allocator@U?$pair@$$CBIPAVSERVER_INFO@@@_STL@@@2@@_STL@@KAAAPAU?$_Rb_tree_node@U?$pair@$$CBIPAVSERVER_INFO@@@_STL@@@2@PAU32@@Z ENDP ; _STL::_Rb_tree<unsigned int,_STL::pair<unsigned int const ,SERVER_INFO *>,_STL::_Select1st<_STL::pair<unsigned int const ,SERVER_INFO *> >,_STL::less<unsigned int>,_STL::allocator<_STL::pair<unsigned int const ,SERVER_INFO *> > >::_S_right
_TEXT	ENDS
PUBLIC	?_S_left@?$_Rb_tree@IU?$pair@$$CBIPAVServerGroup@@@_STL@@U?$_Select1st@U?$pair@$$CBIPAVServerGroup@@@_STL@@@2@U?$less@I@2@V?$allocator@U?$pair@$$CBIPAVServerGroup@@@_STL@@@2@@_STL@@KAAAPAU?$_Rb_tree_node@U?$pair@$$CBIPAVServerGroup@@@_STL@@@2@PAU32@@Z ; _STL::_Rb_tree<unsigned int,_STL::pair<unsigned int const ,ServerGroup *>,_STL::_Select1st<_STL::pair<unsigned int const ,ServerGroup *> >,_STL::less<unsigned int>,_STL::allocator<_STL::pair<unsigned int const ,ServerGroup *> > >::_S_left
; Function compile flags: /Ogsy
;	COMDAT ?_S_left@?$_Rb_tree@IU?$pair@$$CBIPAVServerGroup@@@_STL@@U?$_Select1st@U?$pair@$$CBIPAVServerGroup@@@_STL@@@2@U?$less@I@2@V?$allocator@U?$pair@$$CBIPAVServerGroup@@@_STL@@@2@@_STL@@KAAAPAU?$_Rb_tree_node@U?$pair@$$CBIPAVServerGroup@@@_STL@@@2@PAU32@@Z
_TEXT	SEGMENT
___x$ = 8						; size = 4
?_S_left@?$_Rb_tree@IU?$pair@$$CBIPAVServerGroup@@@_STL@@U?$_Select1st@U?$pair@$$CBIPAVServerGroup@@@_STL@@@2@U?$less@I@2@V?$allocator@U?$pair@$$CBIPAVServerGroup@@@_STL@@@2@@_STL@@KAAAPAU?$_Rb_tree_node@U?$pair@$$CBIPAVServerGroup@@@_STL@@@2@PAU32@@Z PROC NEAR ; _STL::_Rb_tree<unsigned int,_STL::pair<unsigned int const ,ServerGroup *>,_STL::_Select1st<_STL::pair<unsigned int const ,ServerGroup *> >,_STL::less<unsigned int>,_STL::allocator<_STL::pair<unsigned int const ,ServerGroup *> > >::_S_left, COMDAT

; 272  :     { return (_Link_type&)(__x->_M_left); }

  00000	8b 44 24 04	 mov	 eax, DWORD PTR ___x$[esp-4]
  00004	83 c0 08	 add	 eax, 8
  00007	c3		 ret	 0
?_S_left@?$_Rb_tree@IU?$pair@$$CBIPAVServerGroup@@@_STL@@U?$_Select1st@U?$pair@$$CBIPAVServerGroup@@@_STL@@@2@U?$less@I@2@V?$allocator@U?$pair@$$CBIPAVServerGroup@@@_STL@@@2@@_STL@@KAAAPAU?$_Rb_tree_node@U?$pair@$$CBIPAVServerGroup@@@_STL@@@2@PAU32@@Z ENDP ; _STL::_Rb_tree<unsigned int,_STL::pair<unsigned int const ,ServerGroup *>,_STL::_Select1st<_STL::pair<unsigned int const ,ServerGroup *> >,_STL::less<unsigned int>,_STL::allocator<_STL::pair<unsigned int const ,ServerGroup *> > >::_S_left
_TEXT	ENDS
PUBLIC	?_S_right@?$_Rb_tree@IU?$pair@$$CBIPAVServerGroup@@@_STL@@U?$_Select1st@U?$pair@$$CBIPAVServerGroup@@@_STL@@@2@U?$less@I@2@V?$allocator@U?$pair@$$CBIPAVServerGroup@@@_STL@@@2@@_STL@@KAAAPAU?$_Rb_tree_node@U?$pair@$$CBIPAVServerGroup@@@_STL@@@2@PAU32@@Z ; _STL::_Rb_tree<unsigned int,_STL::pair<unsigned int const ,ServerGroup *>,_STL::_Select1st<_STL::pair<unsigned int const ,ServerGroup *> >,_STL::less<unsigned int>,_STL::allocator<_STL::pair<unsigned int const ,ServerGroup *> > >::_S_right
; Function compile flags: /Ogsy
;	COMDAT ?_S_right@?$_Rb_tree@IU?$pair@$$CBIPAVServerGroup@@@_STL@@U?$_Select1st@U?$pair@$$CBIPAVServerGroup@@@_STL@@@2@U?$less@I@2@V?$allocator@U?$pair@$$CBIPAVServerGroup@@@_STL@@@2@@_STL@@KAAAPAU?$_Rb_tree_node@U?$pair@$$CBIPAVServerGroup@@@_STL@@@2@PAU32@@Z
_TEXT	SEGMENT
___x$ = 8						; size = 4
?_S_right@?$_Rb_tree@IU?$pair@$$CBIPAVServerGroup@@@_STL@@U?$_Select1st@U?$pair@$$CBIPAVServerGroup@@@_STL@@@2@U?$less@I@2@V?$allocator@U?$pair@$$CBIPAVServerGroup@@@_STL@@@2@@_STL@@KAAAPAU?$_Rb_tree_node@U?$pair@$$CBIPAVServerGroup@@@_STL@@@2@PAU32@@Z PROC NEAR ; _STL::_Rb_tree<unsigned int,_STL::pair<unsigned int const ,ServerGroup *>,_STL::_Select1st<_STL::pair<unsigned int const ,ServerGroup *> >,_STL::less<unsigned int>,_STL::allocator<_STL::pair<unsigned int const ,ServerGroup *> > >::_S_right, COMDAT

; 274  :     { return (_Link_type&)(__x->_M_right); }

  00000	8b 44 24 04	 mov	 eax, DWORD PTR ___x$[esp-4]
  00004	83 c0 0c	 add	 eax, 12			; 0000000cH
  00007	c3		 ret	 0
?_S_right@?$_Rb_tree@IU?$pair@$$CBIPAVServerGroup@@@_STL@@U?$_Select1st@U?$pair@$$CBIPAVServerGroup@@@_STL@@@2@U?$less@I@2@V?$allocator@U?$pair@$$CBIPAVServerGroup@@@_STL@@@2@@_STL@@KAAAPAU?$_Rb_tree_node@U?$pair@$$CBIPAVServerGroup@@@_STL@@@2@PAU32@@Z ENDP ; _STL::_Rb_tree<unsigned int,_STL::pair<unsigned int const ,ServerGroup *>,_STL::_Select1st<_STL::pair<unsigned int const ,ServerGroup *> >,_STL::less<unsigned int>,_STL::allocator<_STL::pair<unsigned int const ,ServerGroup *> > >::_S_right
_TEXT	ENDS
PUBLIC	??9_Rb_tree_base_iterator@_STL@@QBE_NABU01@@Z	; _STL::_Rb_tree_base_iterator::operator!=
; Function compile flags: /Ogsy
;	COMDAT ??9_Rb_tree_base_iterator@_STL@@QBE_NABU01@@Z
_TEXT	SEGMENT
___y$ = 8						; size = 4
??9_Rb_tree_base_iterator@_STL@@QBE_NABU01@@Z PROC NEAR	; _STL::_Rb_tree_base_iterator::operator!=, COMDAT
; _this$ = ecx

; 150  :     return _M_node != __y._M_node;

  00000	8b 01		 mov	 eax, DWORD PTR [ecx]
  00002	8b 54 24 04	 mov	 edx, DWORD PTR ___y$[esp-4]
  00006	33 c9		 xor	 ecx, ecx
  00008	3b 02		 cmp	 eax, DWORD PTR [edx]
  0000a	0f 95 c1	 setne	 cl
  0000d	8a c1		 mov	 al, cl

; 151  :   }

  0000f	c2 04 00	 ret	 4
??9_Rb_tree_base_iterator@_STL@@QBE_NABU01@@Z ENDP	; _STL::_Rb_tree_base_iterator::operator!=
_TEXT	ENDS
PUBLIC	?allocate@?$__node_alloc@$00$0A@@_STL@@SAPAXI@Z	; _STL::__node_alloc<1,0>::allocate
EXTRN	?_M_allocate@?$__node_alloc@$00$0A@@_STL@@CAPAXI@Z:NEAR ; _STL::__node_alloc<1,0>::_M_allocate
; Function compile flags: /Ogsy
; File c:\stlport-4.6.1\stlport\stl\_alloc.h
;	COMDAT ?allocate@?$__node_alloc@$00$0A@@_STL@@SAPAXI@Z
_TEXT	SEGMENT
___n$ = 8						; size = 4
?allocate@?$__node_alloc@$00$0A@@_STL@@SAPAXI@Z PROC NEAR ; _STL::__node_alloc<1,0>::allocate, COMDAT

; 251  :   static void * _STLP_CALL allocate(size_t __n) { return (__n > (size_t)_MAX_BYTES) ?  __stl_new(__n) : _M_allocate(__n); }

  00000	8b 44 24 04	 mov	 eax, DWORD PTR ___n$[esp-4]
  00004	3d 80 00 00 00	 cmp	 eax, 128		; 00000080H
  00009	50		 push	 eax
  0000a	76 07		 jbe	 SHORT $L103764
  0000c	e8 00 00 00 00	 call	 ??2@YAPAXI@Z		; operator new
  00011	59		 pop	 ecx
  00012	c3		 ret	 0
$L103764:
  00013	e8 00 00 00 00	 call	 ?_M_allocate@?$__node_alloc@$00$0A@@_STL@@CAPAXI@Z ; _STL::__node_alloc<1,0>::_M_allocate
  00018	59		 pop	 ecx
  00019	c3		 ret	 0
?allocate@?$__node_alloc@$00$0A@@_STL@@SAPAXI@Z ENDP	; _STL::__node_alloc<1,0>::allocate
_TEXT	ENDS
PUBLIC	?deallocate@?$__node_alloc@$00$0A@@_STL@@SAXPAXI@Z ; _STL::__node_alloc<1,0>::deallocate
EXTRN	?_M_deallocate@?$__node_alloc@$00$0A@@_STL@@CAXPAXI@Z:NEAR ; _STL::__node_alloc<1,0>::_M_deallocate
; Function compile flags: /Ogsy
;	COMDAT ?deallocate@?$__node_alloc@$00$0A@@_STL@@SAXPAXI@Z
_TEXT	SEGMENT
___p$ = 8						; size = 4
___n$ = 12						; size = 4
?deallocate@?$__node_alloc@$00$0A@@_STL@@SAXPAXI@Z PROC NEAR ; _STL::__node_alloc<1,0>::deallocate, COMDAT

; 253  :   static void _STLP_CALL deallocate(void *__p, size_t __n) { if (__n > (size_t)_MAX_BYTES) __stl_delete(__p); else _M_deallocate(__p, __n); }

  00000	81 7c 24 08 80
	00 00 00	 cmp	 DWORD PTR ___n$[esp-4], 128 ; 00000080H
  00008	76 0b		 jbe	 SHORT $L98677
  0000a	ff 74 24 04	 push	 DWORD PTR ___p$[esp-4]
  0000e	e8 00 00 00 00	 call	 ??3@YAXPAX@Z		; operator delete
  00013	59		 pop	 ecx
  00014	c3		 ret	 0
$L98677:
  00015	e9 00 00 00 00	 jmp	 ?_M_deallocate@?$__node_alloc@$00$0A@@_STL@@CAXPAXI@Z ; _STL::__node_alloc<1,0>::_M_deallocate
?deallocate@?$__node_alloc@$00$0A@@_STL@@SAXPAXI@Z ENDP	; _STL::__node_alloc<1,0>::deallocate
_TEXT	ENDS
PUBLIC	?begin@?$_Rb_tree@IU?$pair@$$CBIPAVSERVER_INFO@@@_STL@@U?$_Select1st@U?$pair@$$CBIPAVSERVER_INFO@@@_STL@@@2@U?$less@I@2@V?$allocator@U?$pair@$$CBIPAVSERVER_INFO@@@_STL@@@2@@_STL@@QAE?AU?$_Rb_tree_iterator@U?$pair@$$CBIPAVSERVER_INFO@@@_STL@@U?$_Nonconst_traits@U?$pair@$$CBIPAVSERVER_INFO@@@_STL@@@2@@2@XZ ; _STL::_Rb_tree<unsigned int,_STL::pair<unsigned int const ,SERVER_INFO *>,_STL::_Select1st<_STL::pair<unsigned int const ,SERVER_INFO *> >,_STL::less<unsigned int>,_STL::allocator<_STL::pair<unsigned int const ,SERVER_INFO *> > >::begin
; Function compile flags: /Ogsy
; File c:\stlport-4.6.1\stlport\stl\_tree.h
;	COMDAT ?begin@?$_Rb_tree@IU?$pair@$$CBIPAVSERVER_INFO@@@_STL@@U?$_Select1st@U?$pair@$$CBIPAVSERVER_INFO@@@_STL@@@2@U?$less@I@2@V?$allocator@U?$pair@$$CBIPAVSERVER_INFO@@@_STL@@@2@@_STL@@QAE?AU?$_Rb_tree_iterator@U?$pair@$$CBIPAVSERVER_INFO@@@_STL@@U?$_Nonconst_traits@U?$pair@$$CBIPAVSERVER_INFO@@@_STL@@@2@@2@XZ
_TEXT	SEGMENT
___$ReturnUdt$ = 8					; size = 4
?begin@?$_Rb_tree@IU?$pair@$$CBIPAVSERVER_INFO@@@_STL@@U?$_Select1st@U?$pair@$$CBIPAVSERVER_INFO@@@_STL@@@2@U?$less@I@2@V?$allocator@U?$pair@$$CBIPAVSERVER_INFO@@@_STL@@@2@@_STL@@QAE?AU?$_Rb_tree_iterator@U?$pair@$$CBIPAVSERVER_INFO@@@_STL@@U?$_Nonconst_traits@U?$pair@$$CBIPAVSERVER_INFO@@@_STL@@@2@@2@XZ PROC NEAR ; _STL::_Rb_tree<unsigned int,_STL::pair<unsigned int const ,SERVER_INFO *>,_STL::_Select1st<_STL::pair<unsigned int const ,SERVER_INFO *> >,_STL::less<unsigned int>,_STL::allocator<_STL::pair<unsigned int const ,SERVER_INFO *> > >::begin, COMDAT
; _this$ = ecx

; 357  :   iterator begin() { return iterator(_M_leftmost()); }

  00000	8b 01		 mov	 eax, DWORD PTR [ecx]
  00002	8b 48 08	 mov	 ecx, DWORD PTR [eax+8]
  00005	8b 44 24 04	 mov	 eax, DWORD PTR ___$ReturnUdt$[esp-4]
  00009	89 08		 mov	 DWORD PTR [eax], ecx
  0000b	c2 04 00	 ret	 4
?begin@?$_Rb_tree@IU?$pair@$$CBIPAVSERVER_INFO@@@_STL@@U?$_Select1st@U?$pair@$$CBIPAVSERVER_INFO@@@_STL@@@2@U?$less@I@2@V?$allocator@U?$pair@$$CBIPAVSERVER_INFO@@@_STL@@@2@@_STL@@QAE?AU?$_Rb_tree_iterator@U?$pair@$$CBIPAVSERVER_INFO@@@_STL@@U?$_Nonconst_traits@U?$pair@$$CBIPAVSERVER_INFO@@@_STL@@@2@@2@XZ ENDP ; _STL::_Rb_tree<unsigned int,_STL::pair<unsigned int const ,SERVER_INFO *>,_STL::_Select1st<_STL::pair<unsigned int const ,SERVER_INFO *> >,_STL::less<unsigned int>,_STL::allocator<_STL::pair<unsigned int const ,SERVER_INFO *> > >::begin
_TEXT	ENDS
PUBLIC	?end@?$_Rb_tree@IU?$pair@$$CBIPAVSERVER_INFO@@@_STL@@U?$_Select1st@U?$pair@$$CBIPAVSERVER_INFO@@@_STL@@@2@U?$less@I@2@V?$allocator@U?$pair@$$CBIPAVSERVER_INFO@@@_STL@@@2@@_STL@@QAE?AU?$_Rb_tree_iterator@U?$pair@$$CBIPAVSERVER_INFO@@@_STL@@U?$_Nonconst_traits@U?$pair@$$CBIPAVSERVER_INFO@@@_STL@@@2@@2@XZ ; _STL::_Rb_tree<unsigned int,_STL::pair<unsigned int const ,SERVER_INFO *>,_STL::_Select1st<_STL::pair<unsigned int const ,SERVER_INFO *> >,_STL::less<unsigned int>,_STL::allocator<_STL::pair<unsigned int const ,SERVER_INFO *> > >::end
; Function compile flags: /Ogsy
;	COMDAT ?end@?$_Rb_tree@IU?$pair@$$CBIPAVSERVER_INFO@@@_STL@@U?$_Select1st@U?$pair@$$CBIPAVSERVER_INFO@@@_STL@@@2@U?$less@I@2@V?$allocator@U?$pair@$$CBIPAVSERVER_INFO@@@_STL@@@2@@_STL@@QAE?AU?$_Rb_tree_iterator@U?$pair@$$CBIPAVSERVER_INFO@@@_STL@@U?$_Nonconst_traits@U?$pair@$$CBIPAVSERVER_INFO@@@_STL@@@2@@2@XZ
_TEXT	SEGMENT
___$ReturnUdt$ = 8					; size = 4
?end@?$_Rb_tree@IU?$pair@$$CBIPAVSERVER_INFO@@@_STL@@U?$_Select1st@U?$pair@$$CBIPAVSERVER_INFO@@@_STL@@@2@U?$less@I@2@V?$allocator@U?$pair@$$CBIPAVSERVER_INFO@@@_STL@@@2@@_STL@@QAE?AU?$_Rb_tree_iterator@U?$pair@$$CBIPAVSERVER_INFO@@@_STL@@U?$_Nonconst_traits@U?$pair@$$CBIPAVSERVER_INFO@@@_STL@@@2@@2@XZ PROC NEAR ; _STL::_Rb_tree<unsigned int,_STL::pair<unsigned int const ,SERVER_INFO *>,_STL::_Select1st<_STL::pair<unsigned int const ,SERVER_INFO *> >,_STL::less<unsigned int>,_STL::allocator<_STL::pair<unsigned int const ,SERVER_INFO *> > >::end, COMDAT
; _this$ = ecx

; 359  :   iterator end() { return iterator(this->_M_header._M_data); }

  00000	8b 09		 mov	 ecx, DWORD PTR [ecx]
  00002	8b 44 24 04	 mov	 eax, DWORD PTR ___$ReturnUdt$[esp-4]
  00006	89 08		 mov	 DWORD PTR [eax], ecx
  00008	c2 04 00	 ret	 4
?end@?$_Rb_tree@IU?$pair@$$CBIPAVSERVER_INFO@@@_STL@@U?$_Select1st@U?$pair@$$CBIPAVSERVER_INFO@@@_STL@@@2@U?$less@I@2@V?$allocator@U?$pair@$$CBIPAVSERVER_INFO@@@_STL@@@2@@_STL@@QAE?AU?$_Rb_tree_iterator@U?$pair@$$CBIPAVSERVER_INFO@@@_STL@@U?$_Nonconst_traits@U?$pair@$$CBIPAVSERVER_INFO@@@_STL@@@2@@2@XZ ENDP ; _STL::_Rb_tree<unsigned int,_STL::pair<unsigned int const ,SERVER_INFO *>,_STL::_Select1st<_STL::pair<unsigned int const ,SERVER_INFO *> >,_STL::less<unsigned int>,_STL::allocator<_STL::pair<unsigned int const ,SERVER_INFO *> > >::end
_TEXT	ENDS
PUBLIC	?begin@?$_Rb_tree@IU?$pair@$$CBIPAVServerGroup@@@_STL@@U?$_Select1st@U?$pair@$$CBIPAVServerGroup@@@_STL@@@2@U?$less@I@2@V?$allocator@U?$pair@$$CBIPAVServerGroup@@@_STL@@@2@@_STL@@QAE?AU?$_Rb_tree_iterator@U?$pair@$$CBIPAVServerGroup@@@_STL@@U?$_Nonconst_traits@U?$pair@$$CBIPAVServerGroup@@@_STL@@@2@@2@XZ ; _STL::_Rb_tree<unsigned int,_STL::pair<unsigned int const ,ServerGroup *>,_STL::_Select1st<_STL::pair<unsigned int const ,ServerGroup *> >,_STL::less<unsigned int>,_STL::allocator<_STL::pair<unsigned int const ,ServerGroup *> > >::begin
; Function compile flags: /Ogsy
;	COMDAT ?begin@?$_Rb_tree@IU?$pair@$$CBIPAVServerGroup@@@_STL@@U?$_Select1st@U?$pair@$$CBIPAVServerGroup@@@_STL@@@2@U?$less@I@2@V?$allocator@U?$pair@$$CBIPAVServerGroup@@@_STL@@@2@@_STL@@QAE?AU?$_Rb_tree_iterator@U?$pair@$$CBIPAVServerGroup@@@_STL@@U?$_Nonconst_traits@U?$pair@$$CBIPAVServerGroup@@@_STL@@@2@@2@XZ
_TEXT	SEGMENT
___$ReturnUdt$ = 8					; size = 4
?begin@?$_Rb_tree@IU?$pair@$$CBIPAVServerGroup@@@_STL@@U?$_Select1st@U?$pair@$$CBIPAVServerGroup@@@_STL@@@2@U?$less@I@2@V?$allocator@U?$pair@$$CBIPAVServerGroup@@@_STL@@@2@@_STL@@QAE?AU?$_Rb_tree_iterator@U?$pair@$$CBIPAVServerGroup@@@_STL@@U?$_Nonconst_traits@U?$pair@$$CBIPAVServerGroup@@@_STL@@@2@@2@XZ PROC NEAR ; _STL::_Rb_tree<unsigned int,_STL::pair<unsigned int const ,ServerGroup *>,_STL::_Select1st<_STL::pair<unsigned int const ,ServerGroup *> >,_STL::less<unsigned int>,_STL::allocator<_STL::pair<unsigned int const ,ServerGroup *> > >::begin, COMDAT
; _this$ = ecx

; 357  :   iterator begin() { return iterator(_M_leftmost()); }

  00000	8b 01		 mov	 eax, DWORD PTR [ecx]
  00002	8b 48 08	 mov	 ecx, DWORD PTR [eax+8]
  00005	8b 44 24 04	 mov	 eax, DWORD PTR ___$ReturnUdt$[esp-4]
  00009	89 08		 mov	 DWORD PTR [eax], ecx
  0000b	c2 04 00	 ret	 4
?begin@?$_Rb_tree@IU?$pair@$$CBIPAVServerGroup@@@_STL@@U?$_Select1st@U?$pair@$$CBIPAVServerGroup@@@_STL@@@2@U?$less@I@2@V?$allocator@U?$pair@$$CBIPAVServerGroup@@@_STL@@@2@@_STL@@QAE?AU?$_Rb_tree_iterator@U?$pair@$$CBIPAVServerGroup@@@_STL@@U?$_Nonconst_traits@U?$pair@$$CBIPAVServerGroup@@@_STL@@@2@@2@XZ ENDP ; _STL::_Rb_tree<unsigned int,_STL::pair<unsigned int const ,ServerGroup *>,_STL::_Select1st<_STL::pair<unsigned int const ,ServerGroup *> >,_STL::less<unsigned int>,_STL::allocator<_STL::pair<unsigned int const ,ServerGroup *> > >::begin
_TEXT	ENDS
PUBLIC	?end@?$_Rb_tree@IU?$pair@$$CBIPAVServerGroup@@@_STL@@U?$_Select1st@U?$pair@$$CBIPAVServerGroup@@@_STL@@@2@U?$less@I@2@V?$allocator@U?$pair@$$CBIPAVServerGroup@@@_STL@@@2@@_STL@@QAE?AU?$_Rb_tree_iterator@U?$pair@$$CBIPAVServerGroup@@@_STL@@U?$_Nonconst_traits@U?$pair@$$CBIPAVServerGroup@@@_STL@@@2@@2@XZ ; _STL::_Rb_tree<unsigned int,_STL::pair<unsigned int const ,ServerGroup *>,_STL::_Select1st<_STL::pair<unsigned int const ,ServerGroup *> >,_STL::less<unsigned int>,_STL::allocator<_STL::pair<unsigned int const ,ServerGroup *> > >::end
; Function compile flags: /Ogsy
;	COMDAT ?end@?$_Rb_tree@IU?$pair@$$CBIPAVServerGroup@@@_STL@@U?$_Select1st@U?$pair@$$CBIPAVServerGroup@@@_STL@@@2@U?$less@I@2@V?$allocator@U?$pair@$$CBIPAVServerGroup@@@_STL@@@2@@_STL@@QAE?AU?$_Rb_tree_iterator@U?$pair@$$CBIPAVServerGroup@@@_STL@@U?$_Nonconst_traits@U?$pair@$$CBIPAVServerGroup@@@_STL@@@2@@2@XZ
_TEXT	SEGMENT
___$ReturnUdt$ = 8					; size = 4
?end@?$_Rb_tree@IU?$pair@$$CBIPAVServerGroup@@@_STL@@U?$_Select1st@U?$pair@$$CBIPAVServerGroup@@@_STL@@@2@U?$less@I@2@V?$allocator@U?$pair@$$CBIPAVServerGroup@@@_STL@@@2@@_STL@@QAE?AU?$_Rb_tree_iterator@U?$pair@$$CBIPAVServerGroup@@@_STL@@U?$_Nonconst_traits@U?$pair@$$CBIPAVServerGroup@@@_STL@@@2@@2@XZ PROC NEAR ; _STL::_Rb_tree<unsigned int,_STL::pair<unsigned int const ,ServerGroup *>,_STL::_Select1st<_STL::pair<unsigned int const ,ServerGroup *> >,_STL::less<unsigned int>,_STL::allocator<_STL::pair<unsigned int const ,ServerGroup *> > >::end, COMDAT
; _this$ = ecx

; 359  :   iterator end() { return iterator(this->_M_header._M_data); }

  00000	8b 09		 mov	 ecx, DWORD PTR [ecx]
  00002	8b 44 24 04	 mov	 eax, DWORD PTR ___$ReturnUdt$[esp-4]
  00006	89 08		 mov	 DWORD PTR [eax], ecx
  00008	c2 04 00	 ret	 4
?end@?$_Rb_tree@IU?$pair@$$CBIPAVServerGroup@@@_STL@@U?$_Select1st@U?$pair@$$CBIPAVServerGroup@@@_STL@@@2@U?$less@I@2@V?$allocator@U?$pair@$$CBIPAVServerGroup@@@_STL@@@2@@_STL@@QAE?AU?$_Rb_tree_iterator@U?$pair@$$CBIPAVServerGroup@@@_STL@@U?$_Nonconst_traits@U?$pair@$$CBIPAVServerGroup@@@_STL@@@2@@2@XZ ENDP ; _STL::_Rb_tree<unsigned int,_STL::pair<unsigned int const ,ServerGroup *>,_STL::_Select1st<_STL::pair<unsigned int const ,ServerGroup *> >,_STL::less<unsigned int>,_STL::allocator<_STL::pair<unsigned int const ,ServerGroup *> > >::end
_TEXT	ENDS
PUBLIC	??1?$_STLP_alloc_proxy@PAU?$_Rb_tree_node@U?$pair@$$CBIPAVSERVER_INFO@@@_STL@@@_STL@@U12@V?$allocator@U?$_Rb_tree_node@U?$pair@$$CBIPAVSERVER_INFO@@@_STL@@@_STL@@@2@@_STL@@QAE@XZ ; _STL::_STLP_alloc_proxy<_STL::_Rb_tree_node<_STL::pair<unsigned int const ,SERVER_INFO *> > *,_STL::_Rb_tree_node<_STL::pair<unsigned int const ,SERVER_INFO *> >,_STL::allocator<_STL::_Rb_tree_node<_STL::pair<unsigned int const ,SERVER_INFO *> > > >::~_STLP_alloc_proxy<_STL::_Rb_tree_node<_STL::pair<unsigned int const ,SERVER_INFO *> > *,_STL::_Rb_tree_node<_STL::pair<unsigned int const ,SERVER_INFO *> >,_STL::allocator<_STL::_Rb_tree_node<_STL::pair<unsigned int const ,SERVER_INFO *> > > >
; Function compile flags: /Ogsy
;	COMDAT ??1?$_STLP_alloc_proxy@PAU?$_Rb_tree_node@U?$pair@$$CBIPAVSERVER_INFO@@@_STL@@@_STL@@U12@V?$allocator@U?$_Rb_tree_node@U?$pair@$$CBIPAVSERVER_INFO@@@_STL@@@_STL@@@2@@_STL@@QAE@XZ
_TEXT	SEGMENT
??1?$_STLP_alloc_proxy@PAU?$_Rb_tree_node@U?$pair@$$CBIPAVSERVER_INFO@@@_STL@@@_STL@@U12@V?$allocator@U?$_Rb_tree_node@U?$pair@$$CBIPAVSERVER_INFO@@@_STL@@@_STL@@@2@@_STL@@QAE@XZ PROC NEAR ; _STL::_STLP_alloc_proxy<_STL::_Rb_tree_node<_STL::pair<unsigned int const ,SERVER_INFO *> > *,_STL::_Rb_tree_node<_STL::pair<unsigned int const ,SERVER_INFO *> >,_STL::allocator<_STL::_Rb_tree_node<_STL::pair<unsigned int const ,SERVER_INFO *> > > >::~_STLP_alloc_proxy<_STL::_Rb_tree_node<_STL::pair<unsigned int const ,SERVER_INFO *> > *,_STL::_Rb_tree_node<_STL::pair<unsigned int const ,SERVER_INFO *> >,_STL::allocator<_STL::_Rb_tree_node<_STL::pair<unsigned int const ,SERVER_INFO *> > > >, COMDAT
; _this$ = ecx
  00000	c3		 ret	 0
??1?$_STLP_alloc_proxy@PAU?$_Rb_tree_node@U?$pair@$$CBIPAVSERVER_INFO@@@_STL@@@_STL@@U12@V?$allocator@U?$_Rb_tree_node@U?$pair@$$CBIPAVSERVER_INFO@@@_STL@@@_STL@@@2@@_STL@@QAE@XZ ENDP ; _STL::_STLP_alloc_proxy<_STL::_Rb_tree_node<_STL::pair<unsigned int const ,SERVER_INFO *> > *,_STL::_Rb_tree_node<_STL::pair<unsigned int const ,SERVER_INFO *> >,_STL::allocator<_STL::_Rb_tree_node<_STL::pair<unsigned int const ,SERVER_INFO *> > > >::~_STLP_alloc_proxy<_STL::_Rb_tree_node<_STL::pair<unsigned int const ,SERVER_INFO *> > *,_STL::_Rb_tree_node<_STL::pair<unsigned int const ,SERVER_INFO *> >,_STL::allocator<_STL::_Rb_tree_node<_STL::pair<unsigned int const ,SERVER_INFO *> > > >
_TEXT	ENDS
PUBLIC	??1?$_STLP_alloc_proxy@PAU?$_Rb_tree_node@U?$pair@$$CBIPAVServerGroup@@@_STL@@@_STL@@U12@V?$allocator@U?$_Rb_tree_node@U?$pair@$$CBIPAVServerGroup@@@_STL@@@_STL@@@2@@_STL@@QAE@XZ ; _STL::_STLP_alloc_proxy<_STL::_Rb_tree_node<_STL::pair<unsigned int const ,ServerGroup *> > *,_STL::_Rb_tree_node<_STL::pair<unsigned int const ,ServerGroup *> >,_STL::allocator<_STL::_Rb_tree_node<_STL::pair<unsigned int const ,ServerGroup *> > > >::~_STLP_alloc_proxy<_STL::_Rb_tree_node<_STL::pair<unsigned int const ,ServerGroup *> > *,_STL::_Rb_tree_node<_STL::pair<unsigned int const ,ServerGroup *> >,_STL::allocator<_STL::_Rb_tree_node<_STL::pair<unsigned int const ,ServerGroup *> > > >
; Function compile flags: /Ogsy
;	COMDAT ??1?$_STLP_alloc_proxy@PAU?$_Rb_tree_node@U?$pair@$$CBIPAVServerGroup@@@_STL@@@_STL@@U12@V?$allocator@U?$_Rb_tree_node@U?$pair@$$CBIPAVServerGroup@@@_STL@@@_STL@@@2@@_STL@@QAE@XZ
_TEXT	SEGMENT
??1?$_STLP_alloc_proxy@PAU?$_Rb_tree_node@U?$pair@$$CBIPAVServerGroup@@@_STL@@@_STL@@U12@V?$allocator@U?$_Rb_tree_node@U?$pair@$$CBIPAVServerGroup@@@_STL@@@_STL@@@2@@_STL@@QAE@XZ PROC NEAR ; _STL::_STLP_alloc_proxy<_STL::_Rb_tree_node<_STL::pair<unsigned int const ,ServerGroup *> > *,_STL::_Rb_tree_node<_STL::pair<unsigned int const ,ServerGroup *> >,_STL::allocator<_STL::_Rb_tree_node<_STL::pair<unsigned int const ,ServerGroup *> > > >::~_STLP_alloc_proxy<_STL::_Rb_tree_node<_STL::pair<unsigned int const ,ServerGroup *> > *,_STL::_Rb_tree_node<_STL::pair<unsigned int const ,ServerGroup *> >,_STL::allocator<_STL::_Rb_tree_node<_STL::pair<unsigned int const ,ServerGroup *> > > >, COMDAT
; _this$ = ecx
  00000	c3		 ret	 0
??1?$_STLP_alloc_proxy@PAU?$_Rb_tree_node@U?$pair@$$CBIPAVServerGroup@@@_STL@@@_STL@@U12@V?$allocator@U?$_Rb_tree_node@U?$pair@$$CBIPAVServerGroup@@@_STL@@@_STL@@@2@@_STL@@QAE@XZ ENDP ; _STL::_STLP_alloc_proxy<_STL::_Rb_tree_node<_STL::pair<unsigned int const ,ServerGroup *> > *,_STL::_Rb_tree_node<_STL::pair<unsigned int const ,ServerGroup *> >,_STL::allocator<_STL::_Rb_tree_node<_STL::pair<unsigned int const ,ServerGroup *> > > >::~_STLP_alloc_proxy<_STL::_Rb_tree_node<_STL::pair<unsigned int const ,ServerGroup *> > *,_STL::_Rb_tree_node<_STL::pair<unsigned int const ,ServerGroup *> >,_STL::allocator<_STL::_Rb_tree_node<_STL::pair<unsigned int const ,ServerGroup *> > > >
_TEXT	ENDS
PUBLIC	?_M_empty_initialize@?$_Rb_tree@IU?$pair@$$CBIPAVSERVER_INFO@@@_STL@@U?$_Select1st@U?$pair@$$CBIPAVSERVER_INFO@@@_STL@@@2@U?$less@I@2@V?$allocator@U?$pair@$$CBIPAVSERVER_INFO@@@_STL@@@2@@_STL@@AAEXXZ ; _STL::_Rb_tree<unsigned int,_STL::pair<unsigned int const ,SERVER_INFO *>,_STL::_Select1st<_STL::pair<unsigned int const ,SERVER_INFO *> >,_STL::less<unsigned int>,_STL::allocator<_STL::pair<unsigned int const ,SERVER_INFO *> > >::_M_empty_initialize
; Function compile flags: /Ogsy
;	COMDAT ?_M_empty_initialize@?$_Rb_tree@IU?$pair@$$CBIPAVSERVER_INFO@@@_STL@@U?$_Select1st@U?$pair@$$CBIPAVSERVER_INFO@@@_STL@@@2@U?$less@I@2@V?$allocator@U?$pair@$$CBIPAVSERVER_INFO@@@_STL@@@2@@_STL@@AAEXXZ
_TEXT	SEGMENT
?_M_empty_initialize@?$_Rb_tree@IU?$pair@$$CBIPAVSERVER_INFO@@@_STL@@U?$_Select1st@U?$pair@$$CBIPAVSERVER_INFO@@@_STL@@@2@U?$less@I@2@V?$allocator@U?$pair@$$CBIPAVSERVER_INFO@@@_STL@@@2@@_STL@@AAEXXZ PROC NEAR ; _STL::_Rb_tree<unsigned int,_STL::pair<unsigned int const ,SERVER_INFO *>,_STL::_Select1st<_STL::pair<unsigned int const ,SERVER_INFO *> >,_STL::less<unsigned int>,_STL::allocator<_STL::pair<unsigned int const ,SERVER_INFO *> > >::_M_empty_initialize, COMDAT
; _this$ = ecx

; 346  :     _S_color(this->_M_header._M_data) = _S_rb_tree_red; // used to distinguish header from 

  00000	8b 01		 mov	 eax, DWORD PTR [ecx]
  00002	c6 00 00	 mov	 BYTE PTR [eax], 0

; 347  :                                           // __root, in iterator.operator++
; 348  :     _M_root() = 0;

  00005	8b 01		 mov	 eax, DWORD PTR [ecx]
  00007	83 60 04 00	 and	 DWORD PTR [eax+4], 0

; 349  :     _M_leftmost() = this->_M_header._M_data;

  0000b	8b 01		 mov	 eax, DWORD PTR [ecx]
  0000d	89 40 08	 mov	 DWORD PTR [eax+8], eax

; 350  :     _M_rightmost() = this->_M_header._M_data;

  00010	8b 09		 mov	 ecx, DWORD PTR [ecx]
  00012	89 49 0c	 mov	 DWORD PTR [ecx+12], ecx

; 351  :   }

  00015	c3		 ret	 0
?_M_empty_initialize@?$_Rb_tree@IU?$pair@$$CBIPAVSERVER_INFO@@@_STL@@U?$_Select1st@U?$pair@$$CBIPAVSERVER_INFO@@@_STL@@@2@U?$less@I@2@V?$allocator@U?$pair@$$CBIPAVSERVER_INFO@@@_STL@@@2@@_STL@@AAEXXZ ENDP ; _STL::_Rb_tree<unsigned int,_STL::pair<unsigned int const ,SERVER_INFO *>,_STL::_Select1st<_STL::pair<unsigned int const ,SERVER_INFO *> >,_STL::less<unsigned int>,_STL::allocator<_STL::pair<unsigned int const ,SERVER_INFO *> > >::_M_empty_initialize
_TEXT	ENDS
PUBLIC	?deallocate@?$allocator@U?$_Rb_tree_node@U?$pair@$$CBIPAVSERVER_INFO@@@_STL@@@_STL@@@_STL@@QAEXPAU?$_Rb_tree_node@U?$pair@$$CBIPAVSERVER_INFO@@@_STL@@@2@I@Z ; _STL::allocator<_STL::_Rb_tree_node<_STL::pair<unsigned int const ,SERVER_INFO *> > >::deallocate
; Function compile flags: /Ogsy
; File c:\stlport-4.6.1\stlport\stl\_alloc.h
;	COMDAT ?deallocate@?$allocator@U?$_Rb_tree_node@U?$pair@$$CBIPAVSERVER_INFO@@@_STL@@@_STL@@@_STL@@QAEXPAU?$_Rb_tree_node@U?$pair@$$CBIPAVSERVER_INFO@@@_STL@@@2@I@Z
_TEXT	SEGMENT
___p$ = 8						; size = 4
___n$ = 12						; size = 4
?deallocate@?$allocator@U?$_Rb_tree_node@U?$pair@$$CBIPAVSERVER_INFO@@@_STL@@@_STL@@@_STL@@QAEXPAU?$_Rb_tree_node@U?$pair@$$CBIPAVSERVER_INFO@@@_STL@@@2@I@Z PROC NEAR ; _STL::allocator<_STL::_Rb_tree_node<_STL::pair<unsigned int const ,SERVER_INFO *> > >::deallocate, COMDAT
; _this$ = ecx

; 359  :     _STLP_ASSERT( (__p == 0) == (__n == 0) )
; 360  :       if (__p != 0) __sgi_alloc::deallocate((void*)__p, __n * sizeof(value_type));

  00000	83 7c 24 04 00	 cmp	 DWORD PTR ___p$[esp-4], 0
  00005	74 16		 je	 SHORT $L102529
  00007	8b 44 24 08	 mov	 eax, DWORD PTR ___n$[esp-4]
  0000b	8d 04 40	 lea	 eax, DWORD PTR [eax+eax*2]
  0000e	c1 e0 03	 shl	 eax, 3
  00011	50		 push	 eax
  00012	ff 74 24 08	 push	 DWORD PTR ___p$[esp]
  00016	e8 00 00 00 00	 call	 ?deallocate@?$__node_alloc@$00$0A@@_STL@@SAXPAXI@Z ; _STL::__node_alloc<1,0>::deallocate
  0001b	59		 pop	 ecx
  0001c	59		 pop	 ecx
$L102529:

; 361  :   }

  0001d	c2 08 00	 ret	 8
?deallocate@?$allocator@U?$_Rb_tree_node@U?$pair@$$CBIPAVSERVER_INFO@@@_STL@@@_STL@@@_STL@@QAEXPAU?$_Rb_tree_node@U?$pair@$$CBIPAVSERVER_INFO@@@_STL@@@2@I@Z ENDP ; _STL::allocator<_STL::_Rb_tree_node<_STL::pair<unsigned int const ,SERVER_INFO *> > >::deallocate
_TEXT	ENDS
PUBLIC	?_M_empty_initialize@?$_Rb_tree@IU?$pair@$$CBIPAVServerGroup@@@_STL@@U?$_Select1st@U?$pair@$$CBIPAVServerGroup@@@_STL@@@2@U?$less@I@2@V?$allocator@U?$pair@$$CBIPAVServerGroup@@@_STL@@@2@@_STL@@AAEXXZ ; _STL::_Rb_tree<unsigned int,_STL::pair<unsigned int const ,ServerGroup *>,_STL::_Select1st<_STL::pair<unsigned int const ,ServerGroup *> >,_STL::less<unsigned int>,_STL::allocator<_STL::pair<unsigned int const ,ServerGroup *> > >::_M_empty_initialize
; Function compile flags: /Ogsy
; File c:\stlport-4.6.1\stlport\stl\_tree.h
;	COMDAT ?_M_empty_initialize@?$_Rb_tree@IU?$pair@$$CBIPAVServerGroup@@@_STL@@U?$_Select1st@U?$pair@$$CBIPAVServerGroup@@@_STL@@@2@U?$less@I@2@V?$allocator@U?$pair@$$CBIPAVServerGroup@@@_STL@@@2@@_STL@@AAEXXZ
_TEXT	SEGMENT
?_M_empty_initialize@?$_Rb_tree@IU?$pair@$$CBIPAVServerGroup@@@_STL@@U?$_Select1st@U?$pair@$$CBIPAVServerGroup@@@_STL@@@2@U?$less@I@2@V?$allocator@U?$pair@$$CBIPAVServerGroup@@@_STL@@@2@@_STL@@AAEXXZ PROC NEAR ; _STL::_Rb_tree<unsigned int,_STL::pair<unsigned int const ,ServerGroup *>,_STL::_Select1st<_STL::pair<unsigned int const ,ServerGroup *> >,_STL::less<unsigned int>,_STL::allocator<_STL::pair<unsigned int const ,ServerGroup *> > >::_M_empty_initialize, COMDAT
; _this$ = ecx

; 346  :     _S_color(this->_M_header._M_data) = _S_rb_tree_red; // used to distinguish header from 

  00000	8b 01		 mov	 eax, DWORD PTR [ecx]
  00002	c6 00 00	 mov	 BYTE PTR [eax], 0

; 347  :                                           // __root, in iterator.operator++
; 348  :     _M_root() = 0;

  00005	8b 01		 mov	 eax, DWORD PTR [ecx]
  00007	83 60 04 00	 and	 DWORD PTR [eax+4], 0

; 349  :     _M_leftmost() = this->_M_header._M_data;

  0000b	8b 01		 mov	 eax, DWORD PTR [ecx]
  0000d	89 40 08	 mov	 DWORD PTR [eax+8], eax

; 350  :     _M_rightmost() = this->_M_header._M_data;

  00010	8b 09		 mov	 ecx, DWORD PTR [ecx]
  00012	89 49 0c	 mov	 DWORD PTR [ecx+12], ecx

; 351  :   }

  00015	c3		 ret	 0
?_M_empty_initialize@?$_Rb_tree@IU?$pair@$$CBIPAVServerGroup@@@_STL@@U?$_Select1st@U?$pair@$$CBIPAVServerGroup@@@_STL@@@2@U?$less@I@2@V?$allocator@U?$pair@$$CBIPAVServerGroup@@@_STL@@@2@@_STL@@AAEXXZ ENDP ; _STL::_Rb_tree<unsigned int,_STL::pair<unsigned int const ,ServerGroup *>,_STL::_Select1st<_STL::pair<unsigned int const ,ServerGroup *> >,_STL::less<unsigned int>,_STL::allocator<_STL::pair<unsigned int const ,ServerGroup *> > >::_M_empty_initialize
_TEXT	ENDS
PUBLIC	?deallocate@?$allocator@U?$_Rb_tree_node@U?$pair@$$CBIPAVServerGroup@@@_STL@@@_STL@@@_STL@@QAEXPAU?$_Rb_tree_node@U?$pair@$$CBIPAVServerGroup@@@_STL@@@2@I@Z ; _STL::allocator<_STL::_Rb_tree_node<_STL::pair<unsigned int const ,ServerGroup *> > >::deallocate
; Function compile flags: /Ogsy
; File c:\stlport-4.6.1\stlport\stl\_alloc.h
;	COMDAT ?deallocate@?$allocator@U?$_Rb_tree_node@U?$pair@$$CBIPAVServerGroup@@@_STL@@@_STL@@@_STL@@QAEXPAU?$_Rb_tree_node@U?$pair@$$CBIPAVServerGroup@@@_STL@@@2@I@Z
_TEXT	SEGMENT
___p$ = 8						; size = 4
___n$ = 12						; size = 4
?deallocate@?$allocator@U?$_Rb_tree_node@U?$pair@$$CBIPAVServerGroup@@@_STL@@@_STL@@@_STL@@QAEXPAU?$_Rb_tree_node@U?$pair@$$CBIPAVServerGroup@@@_STL@@@2@I@Z PROC NEAR ; _STL::allocator<_STL::_Rb_tree_node<_STL::pair<unsigned int const ,ServerGroup *> > >::deallocate, COMDAT
; _this$ = ecx

; 359  :     _STLP_ASSERT( (__p == 0) == (__n == 0) )
; 360  :       if (__p != 0) __sgi_alloc::deallocate((void*)__p, __n * sizeof(value_type));

  00000	83 7c 24 04 00	 cmp	 DWORD PTR ___p$[esp-4], 0
  00005	74 16		 je	 SHORT $L102554
  00007	8b 44 24 08	 mov	 eax, DWORD PTR ___n$[esp-4]
  0000b	8d 04 40	 lea	 eax, DWORD PTR [eax+eax*2]
  0000e	c1 e0 03	 shl	 eax, 3
  00011	50		 push	 eax
  00012	ff 74 24 08	 push	 DWORD PTR ___p$[esp]
  00016	e8 00 00 00 00	 call	 ?deallocate@?$__node_alloc@$00$0A@@_STL@@SAXPAXI@Z ; _STL::__node_alloc<1,0>::deallocate
  0001b	59		 pop	 ecx
  0001c	59		 pop	 ecx
$L102554:

; 361  :   }

  0001d	c2 08 00	 ret	 8
?deallocate@?$allocator@U?$_Rb_tree_node@U?$pair@$$CBIPAVServerGroup@@@_STL@@@_STL@@@_STL@@QAEXPAU?$_Rb_tree_node@U?$pair@$$CBIPAVServerGroup@@@_STL@@@2@I@Z ENDP ; _STL::allocator<_STL::_Rb_tree_node<_STL::pair<unsigned int const ,ServerGroup *> > >::deallocate
_TEXT	ENDS
PUBLIC	??0?$_STLP_alloc_proxy@PAU?$_Rb_tree_node@U?$pair@$$CBIPAVSERVER_INFO@@@_STL@@@_STL@@U12@V?$allocator@U?$_Rb_tree_node@U?$pair@$$CBIPAVSERVER_INFO@@@_STL@@@_STL@@@2@@_STL@@QAE@ABV?$allocator@U?$_Rb_tree_node@U?$pair@$$CBIPAVSERVER_INFO@@@_STL@@@_STL@@@1@PAU?$_Rb_tree_node@U?$pair@$$CBIPAVSERVER_INFO@@@_STL@@@1@@Z ; _STL::_STLP_alloc_proxy<_STL::_Rb_tree_node<_STL::pair<unsigned int const ,SERVER_INFO *> > *,_STL::_Rb_tree_node<_STL::pair<unsigned int const ,SERVER_INFO *> >,_STL::allocator<_STL::_Rb_tree_node<_STL::pair<unsigned int const ,SERVER_INFO *> > > >::_STLP_alloc_proxy<_STL::_Rb_tree_node<_STL::pair<unsigned int const ,SERVER_INFO *> > *,_STL::_Rb_tree_node<_STL::pair<unsigned int const ,SERVER_INFO *> >,_STL::allocator<_STL::_Rb_tree_node<_STL::pair<unsigned int const ,SERVER_INFO *> > > >
; Function compile flags: /Ogsy
;	COMDAT ??0?$_STLP_alloc_proxy@PAU?$_Rb_tree_node@U?$pair@$$CBIPAVSERVER_INFO@@@_STL@@@_STL@@U12@V?$allocator@U?$_Rb_tree_node@U?$pair@$$CBIPAVSERVER_INFO@@@_STL@@@_STL@@@2@@_STL@@QAE@ABV?$allocator@U?$_Rb_tree_node@U?$pair@$$CBIPAVSERVER_INFO@@@_STL@@@_STL@@@1@PAU?$_Rb_tree_node@U?$pair@$$CBIPAVSERVER_INFO@@@_STL@@@1@@Z
_TEXT	SEGMENT
___a$ = 8						; size = 4
___p$ = 12						; size = 4
??0?$_STLP_alloc_proxy@PAU?$_Rb_tree_node@U?$pair@$$CBIPAVSERVER_INFO@@@_STL@@@_STL@@U12@V?$allocator@U?$_Rb_tree_node@U?$pair@$$CBIPAVSERVER_INFO@@@_STL@@@_STL@@@2@@_STL@@QAE@ABV?$allocator@U?$_Rb_tree_node@U?$pair@$$CBIPAVSERVER_INFO@@@_STL@@@_STL@@@1@PAU?$_Rb_tree_node@U?$pair@$$CBIPAVSERVER_INFO@@@_STL@@@1@@Z PROC NEAR ; _STL::_STLP_alloc_proxy<_STL::_Rb_tree_node<_STL::pair<unsigned int const ,SERVER_INFO *> > *,_STL::_Rb_tree_node<_STL::pair<unsigned int const ,SERVER_INFO *> >,_STL::allocator<_STL::_Rb_tree_node<_STL::pair<unsigned int const ,SERVER_INFO *> > > >::_STLP_alloc_proxy<_STL::_Rb_tree_node<_STL::pair<unsigned int const ,SERVER_INFO *> > *,_STL::_Rb_tree_node<_STL::pair<unsigned int const ,SERVER_INFO *> >,_STL::allocator<_STL::_Rb_tree_node<_STL::pair<unsigned int const ,SERVER_INFO *> > > >, COMDAT
; _this$ = ecx

; 487  :   inline _STLP_alloc_proxy(const _MaybeReboundAlloc& __a, _Value __p) : _MaybeReboundAlloc(__a), _M_data(__p) {}

  00000	8b c1		 mov	 eax, ecx
  00002	8b 4c 24 08	 mov	 ecx, DWORD PTR ___p$[esp-4]
  00006	89 08		 mov	 DWORD PTR [eax], ecx
  00008	c2 08 00	 ret	 8
??0?$_STLP_alloc_proxy@PAU?$_Rb_tree_node@U?$pair@$$CBIPAVSERVER_INFO@@@_STL@@@_STL@@U12@V?$allocator@U?$_Rb_tree_node@U?$pair@$$CBIPAVSERVER_INFO@@@_STL@@@_STL@@@2@@_STL@@QAE@ABV?$allocator@U?$_Rb_tree_node@U?$pair@$$CBIPAVSERVER_INFO@@@_STL@@@_STL@@@1@PAU?$_Rb_tree_node@U?$pair@$$CBIPAVSERVER_INFO@@@_STL@@@1@@Z ENDP ; _STL::_STLP_alloc_proxy<_STL::_Rb_tree_node<_STL::pair<unsigned int const ,SERVER_INFO *> > *,_STL::_Rb_tree_node<_STL::pair<unsigned int const ,SERVER_INFO *> >,_STL::allocator<_STL::_Rb_tree_node<_STL::pair<unsigned int const ,SERVER_INFO *> > > >::_STLP_alloc_proxy<_STL::_Rb_tree_node<_STL::pair<unsigned int const ,SERVER_INFO *> > *,_STL::_Rb_tree_node<_STL::pair<unsigned int const ,SERVER_INFO *> >,_STL::allocator<_STL::_Rb_tree_node<_STL::pair<unsigned int const ,SERVER_INFO *> > > >
_TEXT	ENDS
PUBLIC	?allocate@?$allocator@U?$_Rb_tree_node@U?$pair@$$CBIPAVSERVER_INFO@@@_STL@@@_STL@@@_STL@@QAEPAU?$_Rb_tree_node@U?$pair@$$CBIPAVSERVER_INFO@@@_STL@@@2@IPBX@Z ; _STL::allocator<_STL::_Rb_tree_node<_STL::pair<unsigned int const ,SERVER_INFO *> > >::allocate
; Function compile flags: /Ogsy
;	COMDAT ?allocate@?$allocator@U?$_Rb_tree_node@U?$pair@$$CBIPAVSERVER_INFO@@@_STL@@@_STL@@@_STL@@QAEPAU?$_Rb_tree_node@U?$pair@$$CBIPAVSERVER_INFO@@@_STL@@@2@IPBX@Z
_TEXT	SEGMENT
___n$ = 8						; size = 4
___formal$ = 12						; size = 4
?allocate@?$allocator@U?$_Rb_tree_node@U?$pair@$$CBIPAVSERVER_INFO@@@_STL@@@_STL@@@_STL@@QAEPAU?$_Rb_tree_node@U?$pair@$$CBIPAVSERVER_INFO@@@_STL@@@2@IPBX@Z PROC NEAR ; _STL::allocator<_STL::_Rb_tree_node<_STL::pair<unsigned int const ,SERVER_INFO *> > >::allocate, COMDAT
; _this$ = ecx

; 355  :     return __n != 0 ? __REINTERPRET_CAST(value_type*,__sgi_alloc::allocate(__n * sizeof(value_type))) : 0;

  00000	8b 44 24 04	 mov	 eax, DWORD PTR ___n$[esp-4]
  00004	85 c0		 test	 eax, eax
  00006	74 0f		 je	 SHORT $L103866
  00008	8d 04 40	 lea	 eax, DWORD PTR [eax+eax*2]
  0000b	c1 e0 03	 shl	 eax, 3
  0000e	50		 push	 eax
  0000f	e8 00 00 00 00	 call	 ?allocate@?$__node_alloc@$00$0A@@_STL@@SAPAXI@Z ; _STL::__node_alloc<1,0>::allocate
  00014	59		 pop	 ecx
  00015	eb 02		 jmp	 SHORT $L103867
$L103866:
  00017	33 c0		 xor	 eax, eax
$L103867:

; 356  :   }

  00019	c2 08 00	 ret	 8
?allocate@?$allocator@U?$_Rb_tree_node@U?$pair@$$CBIPAVSERVER_INFO@@@_STL@@@_STL@@@_STL@@QAEPAU?$_Rb_tree_node@U?$pair@$$CBIPAVSERVER_INFO@@@_STL@@@2@IPBX@Z ENDP ; _STL::allocator<_STL::_Rb_tree_node<_STL::pair<unsigned int const ,SERVER_INFO *> > >::allocate
_TEXT	ENDS
PUBLIC	??0?$_STLP_alloc_proxy@PAU?$_Rb_tree_node@U?$pair@$$CBIPAVServerGroup@@@_STL@@@_STL@@U12@V?$allocator@U?$_Rb_tree_node@U?$pair@$$CBIPAVServerGroup@@@_STL@@@_STL@@@2@@_STL@@QAE@ABV?$allocator@U?$_Rb_tree_node@U?$pair@$$CBIPAVServerGroup@@@_STL@@@_STL@@@1@PAU?$_Rb_tree_node@U?$pair@$$CBIPAVServerGroup@@@_STL@@@1@@Z ; _STL::_STLP_alloc_proxy<_STL::_Rb_tree_node<_STL::pair<unsigned int const ,ServerGroup *> > *,_STL::_Rb_tree_node<_STL::pair<unsigned int const ,ServerGroup *> >,_STL::allocator<_STL::_Rb_tree_node<_STL::pair<unsigned int const ,ServerGroup *> > > >::_STLP_alloc_proxy<_STL::_Rb_tree_node<_STL::pair<unsigned int const ,ServerGroup *> > *,_STL::_Rb_tree_node<_STL::pair<unsigned int const ,ServerGroup *> >,_STL::allocator<_STL::_Rb_tree_node<_STL::pair<unsigned int const ,ServerGroup *> > > >
; Function compile flags: /Ogsy
;	COMDAT ??0?$_STLP_alloc_proxy@PAU?$_Rb_tree_node@U?$pair@$$CBIPAVServerGroup@@@_STL@@@_STL@@U12@V?$allocator@U?$_Rb_tree_node@U?$pair@$$CBIPAVServerGroup@@@_STL@@@_STL@@@2@@_STL@@QAE@ABV?$allocator@U?$_Rb_tree_node@U?$pair@$$CBIPAVServerGroup@@@_STL@@@_STL@@@1@PAU?$_Rb_tree_node@U?$pair@$$CBIPAVServerGroup@@@_STL@@@1@@Z
_TEXT	SEGMENT
___a$ = 8						; size = 4
___p$ = 12						; size = 4
??0?$_STLP_alloc_proxy@PAU?$_Rb_tree_node@U?$pair@$$CBIPAVServerGroup@@@_STL@@@_STL@@U12@V?$allocator@U?$_Rb_tree_node@U?$pair@$$CBIPAVServerGroup@@@_STL@@@_STL@@@2@@_STL@@QAE@ABV?$allocator@U?$_Rb_tree_node@U?$pair@$$CBIPAVServerGroup@@@_STL@@@_STL@@@1@PAU?$_Rb_tree_node@U?$pair@$$CBIPAVServerGroup@@@_STL@@@1@@Z PROC NEAR ; _STL::_STLP_alloc_proxy<_STL::_Rb_tree_node<_STL::pair<unsigned int const ,ServerGroup *> > *,_STL::_Rb_tree_node<_STL::pair<unsigned int const ,ServerGroup *> >,_STL::allocator<_STL::_Rb_tree_node<_STL::pair<unsigned int const ,ServerGroup *> > > >::_STLP_alloc_proxy<_STL::_Rb_tree_node<_STL::pair<unsigned int const ,ServerGroup *> > *,_STL::_Rb_tree_node<_STL::pair<unsigned int const ,ServerGroup *> >,_STL::allocator<_STL::_Rb_tree_node<_STL::pair<unsigned int const ,ServerGroup *> > > >, COMDAT
; _this$ = ecx

; 487  :   inline _STLP_alloc_proxy(const _MaybeReboundAlloc& __a, _Value __p) : _MaybeReboundAlloc(__a), _M_data(__p) {}

  00000	8b c1		 mov	 eax, ecx
  00002	8b 4c 24 08	 mov	 ecx, DWORD PTR ___p$[esp-4]
  00006	89 08		 mov	 DWORD PTR [eax], ecx
  00008	c2 08 00	 ret	 8
??0?$_STLP_alloc_proxy@PAU?$_Rb_tree_node@U?$pair@$$CBIPAVServerGroup@@@_STL@@@_STL@@U12@V?$allocator@U?$_Rb_tree_node@U?$pair@$$CBIPAVServerGroup@@@_STL@@@_STL@@@2@@_STL@@QAE@ABV?$allocator@U?$_Rb_tree_node@U?$pair@$$CBIPAVServerGroup@@@_STL@@@_STL@@@1@PAU?$_Rb_tree_node@U?$pair@$$CBIPAVServerGroup@@@_STL@@@1@@Z ENDP ; _STL::_STLP_alloc_proxy<_STL::_Rb_tree_node<_STL::pair<unsigned int const ,ServerGroup *> > *,_STL::_Rb_tree_node<_STL::pair<unsigned int const ,ServerGroup *> >,_STL::allocator<_STL::_Rb_tree_node<_STL::pair<unsigned int const ,ServerGroup *> > > >::_STLP_alloc_proxy<_STL::_Rb_tree_node<_STL::pair<unsigned int const ,ServerGroup *> > *,_STL::_Rb_tree_node<_STL::pair<unsigned int const ,ServerGroup *> >,_STL::allocator<_STL::_Rb_tree_node<_STL::pair<unsigned int const ,ServerGroup *> > > >
_TEXT	ENDS
PUBLIC	?allocate@?$allocator@U?$_Rb_tree_node@U?$pair@$$CBIPAVServerGroup@@@_STL@@@_STL@@@_STL@@QAEPAU?$_Rb_tree_node@U?$pair@$$CBIPAVServerGroup@@@_STL@@@2@IPBX@Z ; _STL::allocator<_STL::_Rb_tree_node<_STL::pair<unsigned int const ,ServerGroup *> > >::allocate
; Function compile flags: /Ogsy
;	COMDAT ?allocate@?$allocator@U?$_Rb_tree_node@U?$pair@$$CBIPAVServerGroup@@@_STL@@@_STL@@@_STL@@QAEPAU?$_Rb_tree_node@U?$pair@$$CBIPAVServerGroup@@@_STL@@@2@IPBX@Z
_TEXT	SEGMENT
___n$ = 8						; size = 4
___formal$ = 12						; size = 4
?allocate@?$allocator@U?$_Rb_tree_node@U?$pair@$$CBIPAVServerGroup@@@_STL@@@_STL@@@_STL@@QAEPAU?$_Rb_tree_node@U?$pair@$$CBIPAVServerGroup@@@_STL@@@2@IPBX@Z PROC NEAR ; _STL::allocator<_STL::_Rb_tree_node<_STL::pair<unsigned int const ,ServerGroup *> > >::allocate, COMDAT
; _this$ = ecx

; 355  :     return __n != 0 ? __REINTERPRET_CAST(value_type*,__sgi_alloc::allocate(__n * sizeof(value_type))) : 0;

  00000	8b 44 24 04	 mov	 eax, DWORD PTR ___n$[esp-4]
  00004	85 c0		 test	 eax, eax
  00006	74 0f		 je	 SHORT $L103874
  00008	8d 04 40	 lea	 eax, DWORD PTR [eax+eax*2]
  0000b	c1 e0 03	 shl	 eax, 3
  0000e	50		 push	 eax
  0000f	e8 00 00 00 00	 call	 ?allocate@?$__node_alloc@$00$0A@@_STL@@SAPAXI@Z ; _STL::__node_alloc<1,0>::allocate
  00014	59		 pop	 ecx
  00015	eb 02		 jmp	 SHORT $L103875
$L103874:
  00017	33 c0		 xor	 eax, eax
$L103875:

; 356  :   }

  00019	c2 08 00	 ret	 8
?allocate@?$allocator@U?$_Rb_tree_node@U?$pair@$$CBIPAVServerGroup@@@_STL@@@_STL@@@_STL@@QAEPAU?$_Rb_tree_node@U?$pair@$$CBIPAVServerGroup@@@_STL@@@2@IPBX@Z ENDP ; _STL::allocator<_STL::_Rb_tree_node<_STL::pair<unsigned int const ,ServerGroup *> > >::allocate
_TEXT	ENDS
PUBLIC	?_M_erase@?$_Rb_tree@IU?$pair@$$CBIPAVSERVER_INFO@@@_STL@@U?$_Select1st@U?$pair@$$CBIPAVSERVER_INFO@@@_STL@@@2@U?$less@I@2@V?$allocator@U?$pair@$$CBIPAVSERVER_INFO@@@_STL@@@2@@_STL@@AAEXPAU?$_Rb_tree_node@U?$pair@$$CBIPAVSERVER_INFO@@@_STL@@@2@@Z ; _STL::_Rb_tree<unsigned int,_STL::pair<unsigned int const ,SERVER_INFO *>,_STL::_Select1st<_STL::pair<unsigned int const ,SERVER_INFO *> >,_STL::less<unsigned int>,_STL::allocator<_STL::pair<unsigned int const ,SERVER_INFO *> > >::_M_erase
; Function compile flags: /Ogsy
; File c:\stlport-4.6.1\stlport\stl\_tree.c
;	COMDAT ?_M_erase@?$_Rb_tree@IU?$pair@$$CBIPAVSERVER_INFO@@@_STL@@U?$_Select1st@U?$pair@$$CBIPAVSERVER_INFO@@@_STL@@@2@U?$less@I@2@V?$allocator@U?$pair@$$CBIPAVSERVER_INFO@@@_STL@@@2@@_STL@@AAEXPAU?$_Rb_tree_node@U?$pair@$$CBIPAVSERVER_INFO@@@_STL@@@2@@Z
_TEXT	SEGMENT
___x$ = 8						; size = 4
?_M_erase@?$_Rb_tree@IU?$pair@$$CBIPAVSERVER_INFO@@@_STL@@U?$_Select1st@U?$pair@$$CBIPAVSERVER_INFO@@@_STL@@@2@U?$less@I@2@V?$allocator@U?$pair@$$CBIPAVSERVER_INFO@@@_STL@@@2@@_STL@@AAEXPAU?$_Rb_tree_node@U?$pair@$$CBIPAVSERVER_INFO@@@_STL@@@2@@Z PROC NEAR ; _STL::_Rb_tree<unsigned int,_STL::pair<unsigned int const ,SERVER_INFO *>,_STL::_Select1st<_STL::pair<unsigned int const ,SERVER_INFO *> >,_STL::less<unsigned int>,_STL::allocator<_STL::pair<unsigned int const ,SERVER_INFO *> > >::_M_erase, COMDAT
; _this$ = ecx

; 637  : {

  00000	53		 push	 ebx
  00001	56		 push	 esi

; 638  :                                 // erase without rebalancing
; 639  :   while (__x != 0) {

  00002	8b 74 24 0c	 mov	 esi, DWORD PTR ___x$[esp+4]
  00006	85 f6		 test	 esi, esi
  00008	8b d9		 mov	 ebx, ecx
  0000a	74 1f		 je	 SHORT $L102687
  0000c	57		 push	 edi
$L102686:

; 640  :     _M_erase(_S_right(__x));

  0000d	ff 76 0c	 push	 DWORD PTR [esi+12]
  00010	8b cb		 mov	 ecx, ebx
  00012	e8 00 00 00 00	 call	 ?_M_erase@?$_Rb_tree@IU?$pair@$$CBIPAVSERVER_INFO@@@_STL@@U?$_Select1st@U?$pair@$$CBIPAVSERVER_INFO@@@_STL@@@2@U?$less@I@2@V?$allocator@U?$pair@$$CBIPAVSERVER_INFO@@@_STL@@@2@@_STL@@AAEXPAU?$_Rb_tree_node@U?$pair@$$CBIPAVSERVER_INFO@@@_STL@@@2@@Z ; _STL::_Rb_tree<unsigned int,_STL::pair<unsigned int const ,SERVER_INFO *>,_STL::_Select1st<_STL::pair<unsigned int const ,SERVER_INFO *> >,_STL::less<unsigned int>,_STL::allocator<_STL::pair<unsigned int const ,SERVER_INFO *> > >::_M_erase

; 641  :     _Link_type __y = _S_left(__x);

  00017	8b 7e 08	 mov	 edi, DWORD PTR [esi+8]

; 642  :     _STLP_STD::_Destroy(&__x->_M_value_field);
; 643  :     this->_M_header.deallocate(__x,1);

  0001a	6a 01		 push	 1
  0001c	56		 push	 esi
  0001d	8b cb		 mov	 ecx, ebx
  0001f	e8 00 00 00 00	 call	 ?deallocate@?$allocator@U?$_Rb_tree_node@U?$pair@$$CBIPAVSERVER_INFO@@@_STL@@@_STL@@@_STL@@QAEXPAU?$_Rb_tree_node@U?$pair@$$CBIPAVSERVER_INFO@@@_STL@@@2@I@Z ; _STL::allocator<_STL::_Rb_tree_node<_STL::pair<unsigned int const ,SERVER_INFO *> > >::deallocate
  00024	85 ff		 test	 edi, edi

; 644  :     __x = __y;

  00026	8b f7		 mov	 esi, edi
  00028	75 e3		 jne	 SHORT $L102686
  0002a	5f		 pop	 edi
$L102687:
  0002b	5e		 pop	 esi
  0002c	5b		 pop	 ebx

; 645  :   }
; 646  : }

  0002d	c2 04 00	 ret	 4
?_M_erase@?$_Rb_tree@IU?$pair@$$CBIPAVSERVER_INFO@@@_STL@@U?$_Select1st@U?$pair@$$CBIPAVSERVER_INFO@@@_STL@@@2@U?$less@I@2@V?$allocator@U?$pair@$$CBIPAVSERVER_INFO@@@_STL@@@2@@_STL@@AAEXPAU?$_Rb_tree_node@U?$pair@$$CBIPAVSERVER_INFO@@@_STL@@@2@@Z ENDP ; _STL::_Rb_tree<unsigned int,_STL::pair<unsigned int const ,SERVER_INFO *>,_STL::_Select1st<_STL::pair<unsigned int const ,SERVER_INFO *> >,_STL::less<unsigned int>,_STL::allocator<_STL::pair<unsigned int const ,SERVER_INFO *> > >::_M_erase
_TEXT	ENDS
PUBLIC	?_M_erase@?$_Rb_tree@IU?$pair@$$CBIPAVServerGroup@@@_STL@@U?$_Select1st@U?$pair@$$CBIPAVServerGroup@@@_STL@@@2@U?$less@I@2@V?$allocator@U?$pair@$$CBIPAVServerGroup@@@_STL@@@2@@_STL@@AAEXPAU?$_Rb_tree_node@U?$pair@$$CBIPAVServerGroup@@@_STL@@@2@@Z ; _STL::_Rb_tree<unsigned int,_STL::pair<unsigned int const ,ServerGroup *>,_STL::_Select1st<_STL::pair<unsigned int const ,ServerGroup *> >,_STL::less<unsigned int>,_STL::allocator<_STL::pair<unsigned int const ,ServerGroup *> > >::_M_erase
; Function compile flags: /Ogsy
;	COMDAT ?_M_erase@?$_Rb_tree@IU?$pair@$$CBIPAVServerGroup@@@_STL@@U?$_Select1st@U?$pair@$$CBIPAVServerGroup@@@_STL@@@2@U?$less@I@2@V?$allocator@U?$pair@$$CBIPAVServerGroup@@@_STL@@@2@@_STL@@AAEXPAU?$_Rb_tree_node@U?$pair@$$CBIPAVServerGroup@@@_STL@@@2@@Z
_TEXT	SEGMENT
___x$ = 8						; size = 4
?_M_erase@?$_Rb_tree@IU?$pair@$$CBIPAVServerGroup@@@_STL@@U?$_Select1st@U?$pair@$$CBIPAVServerGroup@@@_STL@@@2@U?$less@I@2@V?$allocator@U?$pair@$$CBIPAVServerGroup@@@_STL@@@2@@_STL@@AAEXPAU?$_Rb_tree_node@U?$pair@$$CBIPAVServerGroup@@@_STL@@@2@@Z PROC NEAR ; _STL::_Rb_tree<unsigned int,_STL::pair<unsigned int const ,ServerGroup *>,_STL::_Select1st<_STL::pair<unsigned int const ,ServerGroup *> >,_STL::less<unsigned int>,_STL::allocator<_STL::pair<unsigned int const ,ServerGroup *> > >::_M_erase, COMDAT
; _this$ = ecx

; 637  : {

  00000	53		 push	 ebx
  00001	56		 push	 esi

; 638  :                                 // erase without rebalancing
; 639  :   while (__x != 0) {

  00002	8b 74 24 0c	 mov	 esi, DWORD PTR ___x$[esp+4]
  00006	85 f6		 test	 esi, esi
  00008	8b d9		 mov	 ebx, ecx
  0000a	74 1f		 je	 SHORT $L102755
  0000c	57		 push	 edi
$L102754:

; 640  :     _M_erase(_S_right(__x));

  0000d	ff 76 0c	 push	 DWORD PTR [esi+12]
  00010	8b cb		 mov	 ecx, ebx
  00012	e8 00 00 00 00	 call	 ?_M_erase@?$_Rb_tree@IU?$pair@$$CBIPAVServerGroup@@@_STL@@U?$_Select1st@U?$pair@$$CBIPAVServerGroup@@@_STL@@@2@U?$less@I@2@V?$allocator@U?$pair@$$CBIPAVServerGroup@@@_STL@@@2@@_STL@@AAEXPAU?$_Rb_tree_node@U?$pair@$$CBIPAVServerGroup@@@_STL@@@2@@Z ; _STL::_Rb_tree<unsigned int,_STL::pair<unsigned int const ,ServerGroup *>,_STL::_Select1st<_STL::pair<unsigned int const ,ServerGroup *> >,_STL::less<unsigned int>,_STL::allocator<_STL::pair<unsigned int const ,ServerGroup *> > >::_M_erase

; 641  :     _Link_type __y = _S_left(__x);

  00017	8b 7e 08	 mov	 edi, DWORD PTR [esi+8]

; 642  :     _STLP_STD::_Destroy(&__x->_M_value_field);
; 643  :     this->_M_header.deallocate(__x,1);

  0001a	6a 01		 push	 1
  0001c	56		 push	 esi
  0001d	8b cb		 mov	 ecx, ebx
  0001f	e8 00 00 00 00	 call	 ?deallocate@?$allocator@U?$_Rb_tree_node@U?$pair@$$CBIPAVServerGroup@@@_STL@@@_STL@@@_STL@@QAEXPAU?$_Rb_tree_node@U?$pair@$$CBIPAVServerGroup@@@_STL@@@2@I@Z ; _STL::allocator<_STL::_Rb_tree_node<_STL::pair<unsigned int const ,ServerGroup *> > >::deallocate
  00024	85 ff		 test	 edi, edi

; 644  :     __x = __y;

  00026	8b f7		 mov	 esi, edi
  00028	75 e3		 jne	 SHORT $L102754
  0002a	5f		 pop	 edi
$L102755:
  0002b	5e		 pop	 esi
  0002c	5b		 pop	 ebx

; 645  :   }
; 646  : }

  0002d	c2 04 00	 ret	 4
?_M_erase@?$_Rb_tree@IU?$pair@$$CBIPAVServerGroup@@@_STL@@U?$_Select1st@U?$pair@$$CBIPAVServerGroup@@@_STL@@@2@U?$less@I@2@V?$allocator@U?$pair@$$CBIPAVServerGroup@@@_STL@@@2@@_STL@@AAEXPAU?$_Rb_tree_node@U?$pair@$$CBIPAVServerGroup@@@_STL@@@2@@Z ENDP ; _STL::_Rb_tree<unsigned int,_STL::pair<unsigned int const ,ServerGroup *>,_STL::_Select1st<_STL::pair<unsigned int const ,ServerGroup *> >,_STL::less<unsigned int>,_STL::allocator<_STL::pair<unsigned int const ,ServerGroup *> > >::_M_erase
_TEXT	ENDS
PUBLIC	?begin@?$map@IPAVSERVER_INFO@@U?$less@I@_STL@@V?$allocator@U?$pair@$$CBIPAVSERVER_INFO@@@_STL@@@3@@_STL@@QAE?AU?$_Rb_tree_iterator@U?$pair@$$CBIPAVSERVER_INFO@@@_STL@@U?$_Nonconst_traits@U?$pair@$$CBIPAVSERVER_INFO@@@_STL@@@2@@2@XZ ; _STL::map<unsigned int,SERVER_INFO *,_STL::less<unsigned int>,_STL::allocator<_STL::pair<unsigned int const ,SERVER_INFO *> > >::begin
; Function compile flags: /Ogsy
; File c:\stlport-4.6.1\stlport\stl\_map.h
;	COMDAT ?begin@?$map@IPAVSERVER_INFO@@U?$less@I@_STL@@V?$allocator@U?$pair@$$CBIPAVSERVER_INFO@@@_STL@@@3@@_STL@@QAE?AU?$_Rb_tree_iterator@U?$pair@$$CBIPAVSERVER_INFO@@@_STL@@U?$_Nonconst_traits@U?$pair@$$CBIPAVSERVER_INFO@@@_STL@@@2@@2@XZ
_TEXT	SEGMENT
___$ReturnUdt$ = 8					; size = 4
?begin@?$map@IPAVSERVER_INFO@@U?$less@I@_STL@@V?$allocator@U?$pair@$$CBIPAVSERVER_INFO@@@_STL@@@3@@_STL@@QAE?AU?$_Rb_tree_iterator@U?$pair@$$CBIPAVSERVER_INFO@@@_STL@@U?$_Nonconst_traits@U?$pair@$$CBIPAVSERVER_INFO@@@_STL@@@2@@2@XZ PROC NEAR ; _STL::map<unsigned int,SERVER_INFO *,_STL::less<unsigned int>,_STL::allocator<_STL::pair<unsigned int const ,SERVER_INFO *> > >::begin, COMDAT
; _this$ = ecx

; 147  :   iterator begin() { return _M_t.begin(); }

  00000	8b 01		 mov	 eax, DWORD PTR [ecx]
  00002	8b 48 08	 mov	 ecx, DWORD PTR [eax+8]
  00005	8b 44 24 04	 mov	 eax, DWORD PTR ___$ReturnUdt$[esp-4]
  00009	89 08		 mov	 DWORD PTR [eax], ecx
  0000b	c2 04 00	 ret	 4
?begin@?$map@IPAVSERVER_INFO@@U?$less@I@_STL@@V?$allocator@U?$pair@$$CBIPAVSERVER_INFO@@@_STL@@@3@@_STL@@QAE?AU?$_Rb_tree_iterator@U?$pair@$$CBIPAVSERVER_INFO@@@_STL@@U?$_Nonconst_traits@U?$pair@$$CBIPAVSERVER_INFO@@@_STL@@@2@@2@XZ ENDP ; _STL::map<unsigned int,SERVER_INFO *,_STL::less<unsigned int>,_STL::allocator<_STL::pair<unsigned int const ,SERVER_INFO *> > >::begin
_TEXT	ENDS
PUBLIC	?end@?$map@IPAVSERVER_INFO@@U?$less@I@_STL@@V?$allocator@U?$pair@$$CBIPAVSERVER_INFO@@@_STL@@@3@@_STL@@QAE?AU?$_Rb_tree_iterator@U?$pair@$$CBIPAVSERVER_INFO@@@_STL@@U?$_Nonconst_traits@U?$pair@$$CBIPAVSERVER_INFO@@@_STL@@@2@@2@XZ ; _STL::map<unsigned int,SERVER_INFO *,_STL::less<unsigned int>,_STL::allocator<_STL::pair<unsigned int const ,SERVER_INFO *> > >::end
; Function compile flags: /Ogsy
;	COMDAT ?end@?$map@IPAVSERVER_INFO@@U?$less@I@_STL@@V?$allocator@U?$pair@$$CBIPAVSERVER_INFO@@@_STL@@@3@@_STL@@QAE?AU?$_Rb_tree_iterator@U?$pair@$$CBIPAVSERVER_INFO@@@_STL@@U?$_Nonconst_traits@U?$pair@$$CBIPAVSERVER_INFO@@@_STL@@@2@@2@XZ
_TEXT	SEGMENT
___$ReturnUdt$ = 8					; size = 4
?end@?$map@IPAVSERVER_INFO@@U?$less@I@_STL@@V?$allocator@U?$pair@$$CBIPAVSERVER_INFO@@@_STL@@@3@@_STL@@QAE?AU?$_Rb_tree_iterator@U?$pair@$$CBIPAVSERVER_INFO@@@_STL@@U?$_Nonconst_traits@U?$pair@$$CBIPAVSERVER_INFO@@@_STL@@@2@@2@XZ PROC NEAR ; _STL::map<unsigned int,SERVER_INFO *,_STL::less<unsigned int>,_STL::allocator<_STL::pair<unsigned int const ,SERVER_INFO *> > >::end, COMDAT
; _this$ = ecx

; 149  :   iterator end() { return _M_t.end(); }

  00000	8b 09		 mov	 ecx, DWORD PTR [ecx]
  00002	8b 44 24 04	 mov	 eax, DWORD PTR ___$ReturnUdt$[esp-4]
  00006	89 08		 mov	 DWORD PTR [eax], ecx
  00008	c2 04 00	 ret	 4
?end@?$map@IPAVSERVER_INFO@@U?$less@I@_STL@@V?$allocator@U?$pair@$$CBIPAVSERVER_INFO@@@_STL@@@3@@_STL@@QAE?AU?$_Rb_tree_iterator@U?$pair@$$CBIPAVSERVER_INFO@@@_STL@@U?$_Nonconst_traits@U?$pair@$$CBIPAVSERVER_INFO@@@_STL@@@2@@2@XZ ENDP ; _STL::map<unsigned int,SERVER_INFO *,_STL::less<unsigned int>,_STL::allocator<_STL::pair<unsigned int const ,SERVER_INFO *> > >::end
_TEXT	ENDS
PUBLIC	?begin@?$map@IPAVServerGroup@@U?$less@I@_STL@@V?$allocator@U?$pair@$$CBIPAVServerGroup@@@_STL@@@3@@_STL@@QAE?AU?$_Rb_tree_iterator@U?$pair@$$CBIPAVServerGroup@@@_STL@@U?$_Nonconst_traits@U?$pair@$$CBIPAVServerGroup@@@_STL@@@2@@2@XZ ; _STL::map<unsigned int,ServerGroup *,_STL::less<unsigned int>,_STL::allocator<_STL::pair<unsigned int const ,ServerGroup *> > >::begin
; Function compile flags: /Ogsy
;	COMDAT ?begin@?$map@IPAVServerGroup@@U?$less@I@_STL@@V?$allocator@U?$pair@$$CBIPAVServerGroup@@@_STL@@@3@@_STL@@QAE?AU?$_Rb_tree_iterator@U?$pair@$$CBIPAVServerGroup@@@_STL@@U?$_Nonconst_traits@U?$pair@$$CBIPAVServerGroup@@@_STL@@@2@@2@XZ
_TEXT	SEGMENT
___$ReturnUdt$ = 8					; size = 4
?begin@?$map@IPAVServerGroup@@U?$less@I@_STL@@V?$allocator@U?$pair@$$CBIPAVServerGroup@@@_STL@@@3@@_STL@@QAE?AU?$_Rb_tree_iterator@U?$pair@$$CBIPAVServerGroup@@@_STL@@U?$_Nonconst_traits@U?$pair@$$CBIPAVServerGroup@@@_STL@@@2@@2@XZ PROC NEAR ; _STL::map<unsigned int,ServerGroup *,_STL::less<unsigned int>,_STL::allocator<_STL::pair<unsigned int const ,ServerGroup *> > >::begin, COMDAT
; _this$ = ecx

; 147  :   iterator begin() { return _M_t.begin(); }

  00000	8b 01		 mov	 eax, DWORD PTR [ecx]
  00002	8b 48 08	 mov	 ecx, DWORD PTR [eax+8]
  00005	8b 44 24 04	 mov	 eax, DWORD PTR ___$ReturnUdt$[esp-4]
  00009	89 08		 mov	 DWORD PTR [eax], ecx
  0000b	c2 04 00	 ret	 4
?begin@?$map@IPAVServerGroup@@U?$less@I@_STL@@V?$allocator@U?$pair@$$CBIPAVServerGroup@@@_STL@@@3@@_STL@@QAE?AU?$_Rb_tree_iterator@U?$pair@$$CBIPAVServerGroup@@@_STL@@U?$_Nonconst_traits@U?$pair@$$CBIPAVServerGroup@@@_STL@@@2@@2@XZ ENDP ; _STL::map<unsigned int,ServerGroup *,_STL::less<unsigned int>,_STL::allocator<_STL::pair<unsigned int const ,ServerGroup *> > >::begin
_TEXT	ENDS
PUBLIC	?end@?$map@IPAVServerGroup@@U?$less@I@_STL@@V?$allocator@U?$pair@$$CBIPAVServerGroup@@@_STL@@@3@@_STL@@QAE?AU?$_Rb_tree_iterator@U?$pair@$$CBIPAVServerGroup@@@_STL@@U?$_Nonconst_traits@U?$pair@$$CBIPAVServerGroup@@@_STL@@@2@@2@XZ ; _STL::map<unsigned int,ServerGroup *,_STL::less<unsigned int>,_STL::allocator<_STL::pair<unsigned int const ,ServerGroup *> > >::end
; Function compile flags: /Ogsy
;	COMDAT ?end@?$map@IPAVServerGroup@@U?$less@I@_STL@@V?$allocator@U?$pair@$$CBIPAVServerGroup@@@_STL@@@3@@_STL@@QAE?AU?$_Rb_tree_iterator@U?$pair@$$CBIPAVServerGroup@@@_STL@@U?$_Nonconst_traits@U?$pair@$$CBIPAVServerGroup@@@_STL@@@2@@2@XZ
_TEXT	SEGMENT
___$ReturnUdt$ = 8					; size = 4
?end@?$map@IPAVServerGroup@@U?$less@I@_STL@@V?$allocator@U?$pair@$$CBIPAVServerGroup@@@_STL@@@3@@_STL@@QAE?AU?$_Rb_tree_iterator@U?$pair@$$CBIPAVServerGroup@@@_STL@@U?$_Nonconst_traits@U?$pair@$$CBIPAVServerGroup@@@_STL@@@2@@2@XZ PROC NEAR ; _STL::map<unsigned int,ServerGroup *,_STL::less<unsigned int>,_STL::allocator<_STL::pair<unsigned int const ,ServerGroup *> > >::end, COMDAT
; _this$ = ecx

; 149  :   iterator end() { return _M_t.end(); }

  00000	8b 09		 mov	 ecx, DWORD PTR [ecx]
  00002	8b 44 24 04	 mov	 eax, DWORD PTR ___$ReturnUdt$[esp-4]
  00006	89 08		 mov	 DWORD PTR [eax], ecx
  00008	c2 04 00	 ret	 4
?end@?$map@IPAVServerGroup@@U?$less@I@_STL@@V?$allocator@U?$pair@$$CBIPAVServerGroup@@@_STL@@@3@@_STL@@QAE?AU?$_Rb_tree_iterator@U?$pair@$$CBIPAVServerGroup@@@_STL@@U?$_Nonconst_traits@U?$pair@$$CBIPAVServerGroup@@@_STL@@@2@@2@XZ ENDP ; _STL::map<unsigned int,ServerGroup *,_STL::less<unsigned int>,_STL::allocator<_STL::pair<unsigned int const ,ServerGroup *> > >::end
_TEXT	ENDS
PUBLIC	?clear@?$_Rb_tree@IU?$pair@$$CBIPAVSERVER_INFO@@@_STL@@U?$_Select1st@U?$pair@$$CBIPAVSERVER_INFO@@@_STL@@@2@U?$less@I@2@V?$allocator@U?$pair@$$CBIPAVSERVER_INFO@@@_STL@@@2@@_STL@@QAEXXZ ; _STL::_Rb_tree<unsigned int,_STL::pair<unsigned int const ,SERVER_INFO *>,_STL::_Select1st<_STL::pair<unsigned int const ,SERVER_INFO *> >,_STL::less<unsigned int>,_STL::allocator<_STL::pair<unsigned int const ,SERVER_INFO *> > >::clear
; Function compile flags: /Ogsy
; File c:\stlport-4.6.1\stlport\stl\_tree.h
;	COMDAT ?clear@?$_Rb_tree@IU?$pair@$$CBIPAVSERVER_INFO@@@_STL@@U?$_Select1st@U?$pair@$$CBIPAVSERVER_INFO@@@_STL@@@2@U?$less@I@2@V?$allocator@U?$pair@$$CBIPAVSERVER_INFO@@@_STL@@@2@@_STL@@QAEXXZ
_TEXT	SEGMENT
?clear@?$_Rb_tree@IU?$pair@$$CBIPAVSERVER_INFO@@@_STL@@U?$_Select1st@U?$pair@$$CBIPAVSERVER_INFO@@@_STL@@@2@U?$less@I@2@V?$allocator@U?$pair@$$CBIPAVSERVER_INFO@@@_STL@@@2@@_STL@@QAEXXZ PROC NEAR ; _STL::_Rb_tree<unsigned int,_STL::pair<unsigned int const ,SERVER_INFO *>,_STL::_Select1st<_STL::pair<unsigned int const ,SERVER_INFO *> >,_STL::less<unsigned int>,_STL::allocator<_STL::pair<unsigned int const ,SERVER_INFO *> > >::clear, COMDAT
; _this$ = ecx

; 445  :   void clear() {

  00000	56		 push	 esi
  00001	8b f1		 mov	 esi, ecx

; 446  :     if (_M_node_count != 0) {

  00003	83 7e 04 00	 cmp	 DWORD PTR [esi+4], 0
  00007	74 1e		 je	 SHORT $L102465

; 447  :       _M_erase(_M_root());

  00009	8b 06		 mov	 eax, DWORD PTR [esi]
  0000b	ff 70 04	 push	 DWORD PTR [eax+4]
  0000e	e8 00 00 00 00	 call	 ?_M_erase@?$_Rb_tree@IU?$pair@$$CBIPAVSERVER_INFO@@@_STL@@U?$_Select1st@U?$pair@$$CBIPAVSERVER_INFO@@@_STL@@@2@U?$less@I@2@V?$allocator@U?$pair@$$CBIPAVSERVER_INFO@@@_STL@@@2@@_STL@@AAEXPAU?$_Rb_tree_node@U?$pair@$$CBIPAVSERVER_INFO@@@_STL@@@2@@Z ; _STL::_Rb_tree<unsigned int,_STL::pair<unsigned int const ,SERVER_INFO *>,_STL::_Select1st<_STL::pair<unsigned int const ,SERVER_INFO *> >,_STL::less<unsigned int>,_STL::allocator<_STL::pair<unsigned int const ,SERVER_INFO *> > >::_M_erase

; 448  :       _M_leftmost() = this->_M_header._M_data;

  00013	8b 06		 mov	 eax, DWORD PTR [esi]
  00015	89 40 08	 mov	 DWORD PTR [eax+8], eax

; 449  :       _M_root() = 0;

  00018	8b 06		 mov	 eax, DWORD PTR [esi]
  0001a	83 60 04 00	 and	 DWORD PTR [eax+4], 0

; 450  :       _M_rightmost() = this->_M_header._M_data;

  0001e	8b 06		 mov	 eax, DWORD PTR [esi]
  00020	89 40 0c	 mov	 DWORD PTR [eax+12], eax

; 451  :       _M_node_count = 0;

  00023	83 66 04 00	 and	 DWORD PTR [esi+4], 0
$L102465:
  00027	5e		 pop	 esi

; 452  :     }
; 453  :   }      

  00028	c3		 ret	 0
?clear@?$_Rb_tree@IU?$pair@$$CBIPAVSERVER_INFO@@@_STL@@U?$_Select1st@U?$pair@$$CBIPAVSERVER_INFO@@@_STL@@@2@U?$less@I@2@V?$allocator@U?$pair@$$CBIPAVSERVER_INFO@@@_STL@@@2@@_STL@@QAEXXZ ENDP ; _STL::_Rb_tree<unsigned int,_STL::pair<unsigned int const ,SERVER_INFO *>,_STL::_Select1st<_STL::pair<unsigned int const ,SERVER_INFO *> >,_STL::less<unsigned int>,_STL::allocator<_STL::pair<unsigned int const ,SERVER_INFO *> > >::clear
_TEXT	ENDS
PUBLIC	??1?$_Rb_tree_base@U?$pair@$$CBIPAVSERVER_INFO@@@_STL@@V?$allocator@U?$pair@$$CBIPAVSERVER_INFO@@@_STL@@@2@@_STL@@QAE@XZ ; _STL::_Rb_tree_base<_STL::pair<unsigned int const ,SERVER_INFO *>,_STL::allocator<_STL::pair<unsigned int const ,SERVER_INFO *> > >::~_Rb_tree_base<_STL::pair<unsigned int const ,SERVER_INFO *>,_STL::allocator<_STL::pair<unsigned int const ,SERVER_INFO *> > >
; Function compile flags: /Ogsy
;	COMDAT ??1?$_Rb_tree_base@U?$pair@$$CBIPAVSERVER_INFO@@@_STL@@V?$allocator@U?$pair@$$CBIPAVSERVER_INFO@@@_STL@@@2@@_STL@@QAE@XZ
_TEXT	SEGMENT
??1?$_Rb_tree_base@U?$pair@$$CBIPAVSERVER_INFO@@@_STL@@V?$allocator@U?$pair@$$CBIPAVSERVER_INFO@@@_STL@@@2@@_STL@@QAE@XZ PROC NEAR ; _STL::_Rb_tree_base<_STL::pair<unsigned int const ,SERVER_INFO *>,_STL::allocator<_STL::pair<unsigned int const ,SERVER_INFO *> > >::~_Rb_tree_base<_STL::pair<unsigned int const ,SERVER_INFO *>,_STL::allocator<_STL::pair<unsigned int const ,SERVER_INFO *> > >, COMDAT
; _this$ = ecx

; 208  :     _M_header.deallocate(_M_header._M_data,1); 

  00000	6a 01		 push	 1
  00002	ff 31		 push	 DWORD PTR [ecx]
  00004	e8 00 00 00 00	 call	 ?deallocate@?$allocator@U?$_Rb_tree_node@U?$pair@$$CBIPAVSERVER_INFO@@@_STL@@@_STL@@@_STL@@QAEXPAU?$_Rb_tree_node@U?$pair@$$CBIPAVSERVER_INFO@@@_STL@@@2@I@Z ; _STL::allocator<_STL::_Rb_tree_node<_STL::pair<unsigned int const ,SERVER_INFO *> > >::deallocate

; 209  :   }

  00009	c3		 ret	 0
??1?$_Rb_tree_base@U?$pair@$$CBIPAVSERVER_INFO@@@_STL@@V?$allocator@U?$pair@$$CBIPAVSERVER_INFO@@@_STL@@@2@@_STL@@QAE@XZ ENDP ; _STL::_Rb_tree_base<_STL::pair<unsigned int const ,SERVER_INFO *>,_STL::allocator<_STL::pair<unsigned int const ,SERVER_INFO *> > >::~_Rb_tree_base<_STL::pair<unsigned int const ,SERVER_INFO *>,_STL::allocator<_STL::pair<unsigned int const ,SERVER_INFO *> > >
_TEXT	ENDS
PUBLIC	?clear@?$_Rb_tree@IU?$pair@$$CBIPAVServerGroup@@@_STL@@U?$_Select1st@U?$pair@$$CBIPAVServerGroup@@@_STL@@@2@U?$less@I@2@V?$allocator@U?$pair@$$CBIPAVServerGroup@@@_STL@@@2@@_STL@@QAEXXZ ; _STL::_Rb_tree<unsigned int,_STL::pair<unsigned int const ,ServerGroup *>,_STL::_Select1st<_STL::pair<unsigned int const ,ServerGroup *> >,_STL::less<unsigned int>,_STL::allocator<_STL::pair<unsigned int const ,ServerGroup *> > >::clear
; Function compile flags: /Ogsy
;	COMDAT ?clear@?$_Rb_tree@IU?$pair@$$CBIPAVServerGroup@@@_STL@@U?$_Select1st@U?$pair@$$CBIPAVServerGroup@@@_STL@@@2@U?$less@I@2@V?$allocator@U?$pair@$$CBIPAVServerGroup@@@_STL@@@2@@_STL@@QAEXXZ
_TEXT	SEGMENT
?clear@?$_Rb_tree@IU?$pair@$$CBIPAVServerGroup@@@_STL@@U?$_Select1st@U?$pair@$$CBIPAVServerGroup@@@_STL@@@2@U?$less@I@2@V?$allocator@U?$pair@$$CBIPAVServerGroup@@@_STL@@@2@@_STL@@QAEXXZ PROC NEAR ; _STL::_Rb_tree<unsigned int,_STL::pair<unsigned int const ,ServerGroup *>,_STL::_Select1st<_STL::pair<unsigned int const ,ServerGroup *> >,_STL::less<unsigned int>,_STL::allocator<_STL::pair<unsigned int const ,ServerGroup *> > >::clear, COMDAT
; _this$ = ecx

; 445  :   void clear() {

  00000	56		 push	 esi
  00001	8b f1		 mov	 esi, ecx

; 446  :     if (_M_node_count != 0) {

  00003	83 7e 04 00	 cmp	 DWORD PTR [esi+4], 0
  00007	74 1e		 je	 SHORT $L102496

; 447  :       _M_erase(_M_root());

  00009	8b 06		 mov	 eax, DWORD PTR [esi]
  0000b	ff 70 04	 push	 DWORD PTR [eax+4]
  0000e	e8 00 00 00 00	 call	 ?_M_erase@?$_Rb_tree@IU?$pair@$$CBIPAVServerGroup@@@_STL@@U?$_Select1st@U?$pair@$$CBIPAVServerGroup@@@_STL@@@2@U?$less@I@2@V?$allocator@U?$pair@$$CBIPAVServerGroup@@@_STL@@@2@@_STL@@AAEXPAU?$_Rb_tree_node@U?$pair@$$CBIPAVServerGroup@@@_STL@@@2@@Z ; _STL::_Rb_tree<unsigned int,_STL::pair<unsigned int const ,ServerGroup *>,_STL::_Select1st<_STL::pair<unsigned int const ,ServerGroup *> >,_STL::less<unsigned int>,_STL::allocator<_STL::pair<unsigned int const ,ServerGroup *> > >::_M_erase

; 448  :       _M_leftmost() = this->_M_header._M_data;

  00013	8b 06		 mov	 eax, DWORD PTR [esi]
  00015	89 40 08	 mov	 DWORD PTR [eax+8], eax

; 449  :       _M_root() = 0;

  00018	8b 06		 mov	 eax, DWORD PTR [esi]
  0001a	83 60 04 00	 and	 DWORD PTR [eax+4], 0

; 450  :       _M_rightmost() = this->_M_header._M_data;

  0001e	8b 06		 mov	 eax, DWORD PTR [esi]
  00020	89 40 0c	 mov	 DWORD PTR [eax+12], eax

; 451  :       _M_node_count = 0;

  00023	83 66 04 00	 and	 DWORD PTR [esi+4], 0
$L102496:
  00027	5e		 pop	 esi

; 452  :     }
; 453  :   }      

  00028	c3		 ret	 0
?clear@?$_Rb_tree@IU?$pair@$$CBIPAVServerGroup@@@_STL@@U?$_Select1st@U?$pair@$$CBIPAVServerGroup@@@_STL@@@2@U?$less@I@2@V?$allocator@U?$pair@$$CBIPAVServerGroup@@@_STL@@@2@@_STL@@QAEXXZ ENDP ; _STL::_Rb_tree<unsigned int,_STL::pair<unsigned int const ,ServerGroup *>,_STL::_Select1st<_STL::pair<unsigned int const ,ServerGroup *> >,_STL::less<unsigned int>,_STL::allocator<_STL::pair<unsigned int const ,ServerGroup *> > >::clear
_TEXT	ENDS
PUBLIC	??1?$_Rb_tree_base@U?$pair@$$CBIPAVServerGroup@@@_STL@@V?$allocator@U?$pair@$$CBIPAVServerGroup@@@_STL@@@2@@_STL@@QAE@XZ ; _STL::_Rb_tree_base<_STL::pair<unsigned int const ,ServerGroup *>,_STL::allocator<_STL::pair<unsigned int const ,ServerGroup *> > >::~_Rb_tree_base<_STL::pair<unsigned int const ,ServerGroup *>,_STL::allocator<_STL::pair<unsigned int const ,ServerGroup *> > >
; Function compile flags: /Ogsy
;	COMDAT ??1?$_Rb_tree_base@U?$pair@$$CBIPAVServerGroup@@@_STL@@V?$allocator@U?$pair@$$CBIPAVServerGroup@@@_STL@@@2@@_STL@@QAE@XZ
_TEXT	SEGMENT
??1?$_Rb_tree_base@U?$pair@$$CBIPAVServerGroup@@@_STL@@V?$allocator@U?$pair@$$CBIPAVServerGroup@@@_STL@@@2@@_STL@@QAE@XZ PROC NEAR ; _STL::_Rb_tree_base<_STL::pair<unsigned int const ,ServerGroup *>,_STL::allocator<_STL::pair<unsigned int const ,ServerGroup *> > >::~_Rb_tree_base<_STL::pair<unsigned int const ,ServerGroup *>,_STL::allocator<_STL::pair<unsigned int const ,ServerGroup *> > >, COMDAT
; _this$ = ecx

; 208  :     _M_header.deallocate(_M_header._M_data,1); 

  00000	6a 01		 push	 1
  00002	ff 31		 push	 DWORD PTR [ecx]
  00004	e8 00 00 00 00	 call	 ?deallocate@?$allocator@U?$_Rb_tree_node@U?$pair@$$CBIPAVServerGroup@@@_STL@@@_STL@@@_STL@@QAEXPAU?$_Rb_tree_node@U?$pair@$$CBIPAVServerGroup@@@_STL@@@2@I@Z ; _STL::allocator<_STL::_Rb_tree_node<_STL::pair<unsigned int const ,ServerGroup *> > >::deallocate

; 209  :   }

  00009	c3		 ret	 0
??1?$_Rb_tree_base@U?$pair@$$CBIPAVServerGroup@@@_STL@@V?$allocator@U?$pair@$$CBIPAVServerGroup@@@_STL@@@2@@_STL@@QAE@XZ ENDP ; _STL::_Rb_tree_base<_STL::pair<unsigned int const ,ServerGroup *>,_STL::allocator<_STL::pair<unsigned int const ,ServerGroup *> > >::~_Rb_tree_base<_STL::pair<unsigned int const ,ServerGroup *>,_STL::allocator<_STL::pair<unsigned int const ,ServerGroup *> > >
_TEXT	ENDS
PUBLIC	??0?$_Rb_tree_base@U?$pair@$$CBIPAVSERVER_INFO@@@_STL@@V?$allocator@U?$pair@$$CBIPAVSERVER_INFO@@@_STL@@@2@@_STL@@QAE@ABV?$allocator@U?$pair@$$CBIPAVSERVER_INFO@@@_STL@@@1@@Z ; _STL::_Rb_tree_base<_STL::pair<unsigned int const ,SERVER_INFO *>,_STL::allocator<_STL::pair<unsigned int const ,SERVER_INFO *> > >::_Rb_tree_base<_STL::pair<unsigned int const ,SERVER_INFO *>,_STL::allocator<_STL::pair<unsigned int const ,SERVER_INFO *> > >
; Function compile flags: /Ogsy
;	COMDAT ??0?$_Rb_tree_base@U?$pair@$$CBIPAVSERVER_INFO@@@_STL@@V?$allocator@U?$pair@$$CBIPAVSERVER_INFO@@@_STL@@@2@@_STL@@QAE@ABV?$allocator@U?$pair@$$CBIPAVSERVER_INFO@@@_STL@@@1@@Z
_TEXT	SEGMENT
$T104001 = -1						; size = 1
___a$ = 8						; size = 4
??0?$_Rb_tree_base@U?$pair@$$CBIPAVSERVER_INFO@@@_STL@@V?$allocator@U?$pair@$$CBIPAVSERVER_INFO@@@_STL@@@2@@_STL@@QAE@ABV?$allocator@U?$pair@$$CBIPAVSERVER_INFO@@@_STL@@@1@@Z PROC NEAR ; _STL::_Rb_tree_base<_STL::pair<unsigned int const ,SERVER_INFO *>,_STL::allocator<_STL::pair<unsigned int const ,SERVER_INFO *> > >::_Rb_tree_base<_STL::pair<unsigned int const ,SERVER_INFO *>,_STL::allocator<_STL::pair<unsigned int const ,SERVER_INFO *> > >, COMDAT
; _this$ = ecx

; 204  :     _M_header(_STLP_CONVERT_ALLOCATOR(__a, _Node), (_Node*)0) { 

  00000	51		 push	 ecx
  00001	56		 push	 esi
  00002	6a 00		 push	 0
  00004	8d 44 24 0b	 lea	 eax, DWORD PTR $T104001[esp+12]
  00008	50		 push	 eax
  00009	8b f1		 mov	 esi, ecx
  0000b	e8 00 00 00 00	 call	 ??0?$_STLP_alloc_proxy@PAU?$_Rb_tree_node@U?$pair@$$CBIPAVSERVER_INFO@@@_STL@@@_STL@@U12@V?$allocator@U?$_Rb_tree_node@U?$pair@$$CBIPAVSERVER_INFO@@@_STL@@@_STL@@@2@@_STL@@QAE@ABV?$allocator@U?$_Rb_tree_node@U?$pair@$$CBIPAVSERVER_INFO@@@_STL@@@_STL@@@1@PAU?$_Rb_tree_node@U?$pair@$$CBIPAVSERVER_INFO@@@_STL@@@1@@Z ; _STL::_STLP_alloc_proxy<_STL::_Rb_tree_node<_STL::pair<unsigned int const ,SERVER_INFO *> > *,_STL::_Rb_tree_node<_STL::pair<unsigned int const ,SERVER_INFO *> >,_STL::allocator<_STL::_Rb_tree_node<_STL::pair<unsigned int const ,SERVER_INFO *> > > >::_STLP_alloc_proxy<_STL::_Rb_tree_node<_STL::pair<unsigned int const ,SERVER_INFO *> > *,_STL::_Rb_tree_node<_STL::pair<unsigned int const ,SERVER_INFO *> >,_STL::allocator<_STL::_Rb_tree_node<_STL::pair<unsigned int const ,SERVER_INFO *> > > >

; 205  :       _M_header._M_data = _M_header.allocate(1); 

  00010	6a 18		 push	 24			; 00000018H
  00012	e8 00 00 00 00	 call	 ?allocate@?$__node_alloc@$00$0A@@_STL@@SAPAXI@Z ; _STL::__node_alloc<1,0>::allocate
  00017	89 06		 mov	 DWORD PTR [esi], eax
  00019	59		 pop	 ecx

; 206  :   }

  0001a	8b c6		 mov	 eax, esi
  0001c	5e		 pop	 esi
  0001d	59		 pop	 ecx
  0001e	c2 04 00	 ret	 4
??0?$_Rb_tree_base@U?$pair@$$CBIPAVSERVER_INFO@@@_STL@@V?$allocator@U?$pair@$$CBIPAVSERVER_INFO@@@_STL@@@2@@_STL@@QAE@ABV?$allocator@U?$pair@$$CBIPAVSERVER_INFO@@@_STL@@@1@@Z ENDP ; _STL::_Rb_tree_base<_STL::pair<unsigned int const ,SERVER_INFO *>,_STL::allocator<_STL::pair<unsigned int const ,SERVER_INFO *> > >::_Rb_tree_base<_STL::pair<unsigned int const ,SERVER_INFO *>,_STL::allocator<_STL::pair<unsigned int const ,SERVER_INFO *> > >
_TEXT	ENDS
PUBLIC	??0?$_Rb_tree_base@U?$pair@$$CBIPAVServerGroup@@@_STL@@V?$allocator@U?$pair@$$CBIPAVServerGroup@@@_STL@@@2@@_STL@@QAE@ABV?$allocator@U?$pair@$$CBIPAVServerGroup@@@_STL@@@1@@Z ; _STL::_Rb_tree_base<_STL::pair<unsigned int const ,ServerGroup *>,_STL::allocator<_STL::pair<unsigned int const ,ServerGroup *> > >::_Rb_tree_base<_STL::pair<unsigned int const ,ServerGroup *>,_STL::allocator<_STL::pair<unsigned int const ,ServerGroup *> > >
; Function compile flags: /Ogsy
;	COMDAT ??0?$_Rb_tree_base@U?$pair@$$CBIPAVServerGroup@@@_STL@@V?$allocator@U?$pair@$$CBIPAVServerGroup@@@_STL@@@2@@_STL@@QAE@ABV?$allocator@U?$pair@$$CBIPAVServerGroup@@@_STL@@@1@@Z
_TEXT	SEGMENT
$T104015 = -1						; size = 1
___a$ = 8						; size = 4
??0?$_Rb_tree_base@U?$pair@$$CBIPAVServerGroup@@@_STL@@V?$allocator@U?$pair@$$CBIPAVServerGroup@@@_STL@@@2@@_STL@@QAE@ABV?$allocator@U?$pair@$$CBIPAVServerGroup@@@_STL@@@1@@Z PROC NEAR ; _STL::_Rb_tree_base<_STL::pair<unsigned int const ,ServerGroup *>,_STL::allocator<_STL::pair<unsigned int const ,ServerGroup *> > >::_Rb_tree_base<_STL::pair<unsigned int const ,ServerGroup *>,_STL::allocator<_STL::pair<unsigned int const ,ServerGroup *> > >, COMDAT
; _this$ = ecx

; 204  :     _M_header(_STLP_CONVERT_ALLOCATOR(__a, _Node), (_Node*)0) { 

  00000	51		 push	 ecx
  00001	56		 push	 esi
  00002	6a 00		 push	 0
  00004	8d 44 24 0b	 lea	 eax, DWORD PTR $T104015[esp+12]
  00008	50		 push	 eax
  00009	8b f1		 mov	 esi, ecx
  0000b	e8 00 00 00 00	 call	 ??0?$_STLP_alloc_proxy@PAU?$_Rb_tree_node@U?$pair@$$CBIPAVServerGroup@@@_STL@@@_STL@@U12@V?$allocator@U?$_Rb_tree_node@U?$pair@$$CBIPAVServerGroup@@@_STL@@@_STL@@@2@@_STL@@QAE@ABV?$allocator@U?$_Rb_tree_node@U?$pair@$$CBIPAVServerGroup@@@_STL@@@_STL@@@1@PAU?$_Rb_tree_node@U?$pair@$$CBIPAVServerGroup@@@_STL@@@1@@Z ; _STL::_STLP_alloc_proxy<_STL::_Rb_tree_node<_STL::pair<unsigned int const ,ServerGroup *> > *,_STL::_Rb_tree_node<_STL::pair<unsigned int const ,ServerGroup *> >,_STL::allocator<_STL::_Rb_tree_node<_STL::pair<unsigned int const ,ServerGroup *> > > >::_STLP_alloc_proxy<_STL::_Rb_tree_node<_STL::pair<unsigned int const ,ServerGroup *> > *,_STL::_Rb_tree_node<_STL::pair<unsigned int const ,ServerGroup *> >,_STL::allocator<_STL::_Rb_tree_node<_STL::pair<unsigned int const ,ServerGroup *> > > >

; 205  :       _M_header._M_data = _M_header.allocate(1); 

  00010	6a 18		 push	 24			; 00000018H
  00012	e8 00 00 00 00	 call	 ?allocate@?$__node_alloc@$00$0A@@_STL@@SAPAXI@Z ; _STL::__node_alloc<1,0>::allocate
  00017	89 06		 mov	 DWORD PTR [esi], eax
  00019	59		 pop	 ecx

; 206  :   }

  0001a	8b c6		 mov	 eax, esi
  0001c	5e		 pop	 esi
  0001d	59		 pop	 ecx
  0001e	c2 04 00	 ret	 4
??0?$_Rb_tree_base@U?$pair@$$CBIPAVServerGroup@@@_STL@@V?$allocator@U?$pair@$$CBIPAVServerGroup@@@_STL@@@2@@_STL@@QAE@ABV?$allocator@U?$pair@$$CBIPAVServerGroup@@@_STL@@@1@@Z ENDP ; _STL::_Rb_tree_base<_STL::pair<unsigned int const ,ServerGroup *>,_STL::allocator<_STL::pair<unsigned int const ,ServerGroup *> > >::_Rb_tree_base<_STL::pair<unsigned int const ,ServerGroup *>,_STL::allocator<_STL::pair<unsigned int const ,ServerGroup *> > >
_TEXT	ENDS
PUBLIC	?clear@?$map@IPAVSERVER_INFO@@U?$less@I@_STL@@V?$allocator@U?$pair@$$CBIPAVSERVER_INFO@@@_STL@@@3@@_STL@@QAEXXZ ; _STL::map<unsigned int,SERVER_INFO *,_STL::less<unsigned int>,_STL::allocator<_STL::pair<unsigned int const ,SERVER_INFO *> > >::clear
; Function compile flags: /Ogsy
; File c:\stlport-4.6.1\stlport\stl\_map.h
;	COMDAT ?clear@?$map@IPAVSERVER_INFO@@U?$less@I@_STL@@V?$allocator@U?$pair@$$CBIPAVSERVER_INFO@@@_STL@@@3@@_STL@@QAEXXZ
_TEXT	SEGMENT
?clear@?$map@IPAVSERVER_INFO@@U?$less@I@_STL@@V?$allocator@U?$pair@$$CBIPAVSERVER_INFO@@@_STL@@@3@@_STL@@QAEXXZ PROC NEAR ; _STL::map<unsigned int,SERVER_INFO *,_STL::less<unsigned int>,_STL::allocator<_STL::pair<unsigned int const ,SERVER_INFO *> > >::clear, COMDAT
; _this$ = ecx

; 191  :   void clear() { _M_t.clear(); }

  00000	e9 00 00 00 00	 jmp	 ?clear@?$_Rb_tree@IU?$pair@$$CBIPAVSERVER_INFO@@@_STL@@U?$_Select1st@U?$pair@$$CBIPAVSERVER_INFO@@@_STL@@@2@U?$less@I@2@V?$allocator@U?$pair@$$CBIPAVSERVER_INFO@@@_STL@@@2@@_STL@@QAEXXZ ; _STL::_Rb_tree<unsigned int,_STL::pair<unsigned int const ,SERVER_INFO *>,_STL::_Select1st<_STL::pair<unsigned int const ,SERVER_INFO *> >,_STL::less<unsigned int>,_STL::allocator<_STL::pair<unsigned int const ,SERVER_INFO *> > >::clear
?clear@?$map@IPAVSERVER_INFO@@U?$less@I@_STL@@V?$allocator@U?$pair@$$CBIPAVSERVER_INFO@@@_STL@@@3@@_STL@@QAEXXZ ENDP ; _STL::map<unsigned int,SERVER_INFO *,_STL::less<unsigned int>,_STL::allocator<_STL::pair<unsigned int const ,SERVER_INFO *> > >::clear
_TEXT	ENDS
PUBLIC	??1?$_Rb_tree@IU?$pair@$$CBIPAVSERVER_INFO@@@_STL@@U?$_Select1st@U?$pair@$$CBIPAVSERVER_INFO@@@_STL@@@2@U?$less@I@2@V?$allocator@U?$pair@$$CBIPAVSERVER_INFO@@@_STL@@@2@@_STL@@QAE@XZ ; _STL::_Rb_tree<unsigned int,_STL::pair<unsigned int const ,SERVER_INFO *>,_STL::_Select1st<_STL::pair<unsigned int const ,SERVER_INFO *> >,_STL::less<unsigned int>,_STL::allocator<_STL::pair<unsigned int const ,SERVER_INFO *> > >::~_Rb_tree<unsigned int,_STL::pair<unsigned int const ,SERVER_INFO *>,_STL::_Select1st<_STL::pair<unsigned int const ,SERVER_INFO *> >,_STL::less<unsigned int>,_STL::allocator<_STL::pair<unsigned int const ,SERVER_INFO *> > >
EXTRN	__EH_prolog:NEAR
EXTRN	__except_list:DWORD
EXTRN	___CxxFrameHandler:NEAR
;	COMDAT xdata$x
; File c:\stlport-4.6.1\stlport\stl\_alloc.h
xdata$x	SEGMENT
$T104055 DD	0ffffffffH
	DD	FLAT:$L104032
$T104051 DD	019930520H
	DD	01H
	DD	FLAT:$T104055
	DD	2 DUP(00H)
	DD	2 DUP(00H)
; Function compile flags: /Ogsy
; File c:\stlport-4.6.1\stlport\stl\_tree.h
xdata$x	ENDS
;	COMDAT ??1?$_Rb_tree@IU?$pair@$$CBIPAVSERVER_INFO@@@_STL@@U?$_Select1st@U?$pair@$$CBIPAVSERVER_INFO@@@_STL@@@2@U?$less@I@2@V?$allocator@U?$pair@$$CBIPAVSERVER_INFO@@@_STL@@@2@@_STL@@QAE@XZ
_TEXT	SEGMENT
_this$ = -16						; size = 4
__$EHRec$ = -12						; size = 12
??1?$_Rb_tree@IU?$pair@$$CBIPAVSERVER_INFO@@@_STL@@U?$_Select1st@U?$pair@$$CBIPAVSERVER_INFO@@@_STL@@@2@U?$less@I@2@V?$allocator@U?$pair@$$CBIPAVSERVER_INFO@@@_STL@@@2@@_STL@@QAE@XZ PROC NEAR ; _STL::_Rb_tree<unsigned int,_STL::pair<unsigned int const ,SERVER_INFO *>,_STL::_Select1st<_STL::pair<unsigned int const ,SERVER_INFO *> >,_STL::less<unsigned int>,_STL::allocator<_STL::pair<unsigned int const ,SERVER_INFO *> > >::~_Rb_tree<unsigned int,_STL::pair<unsigned int const ,SERVER_INFO *>,_STL::_Select1st<_STL::pair<unsigned int const ,SERVER_INFO *> >,_STL::less<unsigned int>,_STL::allocator<_STL::pair<unsigned int const ,SERVER_INFO *> > >, COMDAT
; _this$ = ecx

; 341  :   ~_Rb_tree() { clear(); }

  00000	b8 00 00 00 00	 mov	 eax, __ehhandler$??1?$_Rb_tree@IU?$pair@$$CBIPAVSERVER_INFO@@@_STL@@U?$_Select1st@U?$pair@$$CBIPAVSERVER_INFO@@@_STL@@@2@U?$less@I@2@V?$allocator@U?$pair@$$CBIPAVSERVER_INFO@@@_STL@@@2@@_STL@@QAE@XZ
  00005	e8 00 00 00 00	 call	 __EH_prolog
  0000a	51		 push	 ecx
  0000b	56		 push	 esi
  0000c	8b f1		 mov	 esi, ecx
  0000e	89 75 f0	 mov	 DWORD PTR _this$[ebp], esi
  00011	83 65 fc 00	 and	 DWORD PTR __$EHRec$[ebp+8], 0
  00015	e8 00 00 00 00	 call	 ?clear@?$_Rb_tree@IU?$pair@$$CBIPAVSERVER_INFO@@@_STL@@U?$_Select1st@U?$pair@$$CBIPAVSERVER_INFO@@@_STL@@@2@U?$less@I@2@V?$allocator@U?$pair@$$CBIPAVSERVER_INFO@@@_STL@@@2@@_STL@@QAEXXZ ; _STL::_Rb_tree<unsigned int,_STL::pair<unsigned int const ,SERVER_INFO *>,_STL::_Select1st<_STL::pair<unsigned int const ,SERVER_INFO *> >,_STL::less<unsigned int>,_STL::allocator<_STL::pair<unsigned int const ,SERVER_INFO *> > >::clear
  0001a	83 4d fc ff	 or	 DWORD PTR __$EHRec$[ebp+8], -1
  0001e	6a 01		 push	 1
  00020	ff 36		 push	 DWORD PTR [esi]
  00022	8b ce		 mov	 ecx, esi
  00024	e8 00 00 00 00	 call	 ?deallocate@?$allocator@U?$_Rb_tree_node@U?$pair@$$CBIPAVSERVER_INFO@@@_STL@@@_STL@@@_STL@@QAEXPAU?$_Rb_tree_node@U?$pair@$$CBIPAVSERVER_INFO@@@_STL@@@2@I@Z ; _STL::allocator<_STL::_Rb_tree_node<_STL::pair<unsigned int const ,SERVER_INFO *> > >::deallocate
  00029	8b 4d f4	 mov	 ecx, DWORD PTR __$EHRec$[ebp]
  0002c	5e		 pop	 esi
  0002d	64 89 0d 00 00
	00 00		 mov	 DWORD PTR fs:__except_list, ecx
  00034	c9		 leave
  00035	c3		 ret	 0
_TEXT	ENDS
;	COMDAT text$x
text$x	SEGMENT
$L104032:
  00000	8b 4d f0	 mov	 ecx, DWORD PTR _this$[ebp]
  00003	e9 00 00 00 00	 jmp	 ??1?$_Rb_tree_base@U?$pair@$$CBIPAVSERVER_INFO@@@_STL@@V?$allocator@U?$pair@$$CBIPAVSERVER_INFO@@@_STL@@@2@@_STL@@QAE@XZ ; _STL::_Rb_tree_base<_STL::pair<unsigned int const ,SERVER_INFO *>,_STL::allocator<_STL::pair<unsigned int const ,SERVER_INFO *> > >::~_Rb_tree_base<_STL::pair<unsigned int const ,SERVER_INFO *>,_STL::allocator<_STL::pair<unsigned int const ,SERVER_INFO *> > >
__ehhandler$??1?$_Rb_tree@IU?$pair@$$CBIPAVSERVER_INFO@@@_STL@@U?$_Select1st@U?$pair@$$CBIPAVSERVER_INFO@@@_STL@@@2@U?$less@I@2@V?$allocator@U?$pair@$$CBIPAVSERVER_INFO@@@_STL@@@2@@_STL@@QAE@XZ:
  00008	b8 00 00 00 00	 mov	 eax, OFFSET FLAT:$T104051
  0000d	e9 00 00 00 00	 jmp	 ___CxxFrameHandler
text$x	ENDS
??1?$_Rb_tree@IU?$pair@$$CBIPAVSERVER_INFO@@@_STL@@U?$_Select1st@U?$pair@$$CBIPAVSERVER_INFO@@@_STL@@@2@U?$less@I@2@V?$allocator@U?$pair@$$CBIPAVSERVER_INFO@@@_STL@@@2@@_STL@@QAE@XZ ENDP ; _STL::_Rb_tree<unsigned int,_STL::pair<unsigned int const ,SERVER_INFO *>,_STL::_Select1st<_STL::pair<unsigned int const ,SERVER_INFO *> >,_STL::less<unsigned int>,_STL::allocator<_STL::pair<unsigned int const ,SERVER_INFO *> > >::~_Rb_tree<unsigned int,_STL::pair<unsigned int const ,SERVER_INFO *>,_STL::_Select1st<_STL::pair<unsigned int const ,SERVER_INFO *> >,_STL::less<unsigned int>,_STL::allocator<_STL::pair<unsigned int const ,SERVER_INFO *> > >
PUBLIC	?clear@?$map@IPAVServerGroup@@U?$less@I@_STL@@V?$allocator@U?$pair@$$CBIPAVServerGroup@@@_STL@@@3@@_STL@@QAEXXZ ; _STL::map<unsigned int,ServerGroup *,_STL::less<unsigned int>,_STL::allocator<_STL::pair<unsigned int const ,ServerGroup *> > >::clear
; Function compile flags: /Ogsy
; File c:\stlport-4.6.1\stlport\stl\_map.h
;	COMDAT ?clear@?$map@IPAVServerGroup@@U?$less@I@_STL@@V?$allocator@U?$pair@$$CBIPAVServerGroup@@@_STL@@@3@@_STL@@QAEXXZ
_TEXT	SEGMENT
?clear@?$map@IPAVServerGroup@@U?$less@I@_STL@@V?$allocator@U?$pair@$$CBIPAVServerGroup@@@_STL@@@3@@_STL@@QAEXXZ PROC NEAR ; _STL::map<unsigned int,ServerGroup *,_STL::less<unsigned int>,_STL::allocator<_STL::pair<unsigned int const ,ServerGroup *> > >::clear, COMDAT
; _this$ = ecx

; 191  :   void clear() { _M_t.clear(); }

  00000	e9 00 00 00 00	 jmp	 ?clear@?$_Rb_tree@IU?$pair@$$CBIPAVServerGroup@@@_STL@@U?$_Select1st@U?$pair@$$CBIPAVServerGroup@@@_STL@@@2@U?$less@I@2@V?$allocator@U?$pair@$$CBIPAVServerGroup@@@_STL@@@2@@_STL@@QAEXXZ ; _STL::_Rb_tree<unsigned int,_STL::pair<unsigned int const ,ServerGroup *>,_STL::_Select1st<_STL::pair<unsigned int const ,ServerGroup *> >,_STL::less<unsigned int>,_STL::allocator<_STL::pair<unsigned int const ,ServerGroup *> > >::clear
?clear@?$map@IPAVServerGroup@@U?$less@I@_STL@@V?$allocator@U?$pair@$$CBIPAVServerGroup@@@_STL@@@3@@_STL@@QAEXXZ ENDP ; _STL::map<unsigned int,ServerGroup *,_STL::less<unsigned int>,_STL::allocator<_STL::pair<unsigned int const ,ServerGroup *> > >::clear
_TEXT	ENDS
PUBLIC	??1?$_Rb_tree@IU?$pair@$$CBIPAVServerGroup@@@_STL@@U?$_Select1st@U?$pair@$$CBIPAVServerGroup@@@_STL@@@2@U?$less@I@2@V?$allocator@U?$pair@$$CBIPAVServerGroup@@@_STL@@@2@@_STL@@QAE@XZ ; _STL::_Rb_tree<unsigned int,_STL::pair<unsigned int const ,ServerGroup *>,_STL::_Select1st<_STL::pair<unsigned int const ,ServerGroup *> >,_STL::less<unsigned int>,_STL::allocator<_STL::pair<unsigned int const ,ServerGroup *> > >::~_Rb_tree<unsigned int,_STL::pair<unsigned int const ,ServerGroup *>,_STL::_Select1st<_STL::pair<unsigned int const ,ServerGroup *> >,_STL::less<unsigned int>,_STL::allocator<_STL::pair<unsigned int const ,ServerGroup *> > >
;	COMDAT xdata$x
; File c:\stlport-4.6.1\stlport\stl\_alloc.h
xdata$x	SEGMENT
$T104083 DD	0ffffffffH
	DD	FLAT:$L104064
$T104081 DD	019930520H
	DD	01H
	DD	FLAT:$T104083
	DD	2 DUP(00H)
	DD	2 DUP(00H)
; Function compile flags: /Ogsy
; File c:\stlport-4.6.1\stlport\stl\_tree.h
xdata$x	ENDS
;	COMDAT ??1?$_Rb_tree@IU?$pair@$$CBIPAVServerGroup@@@_STL@@U?$_Select1st@U?$pair@$$CBIPAVServerGroup@@@_STL@@@2@U?$less@I@2@V?$allocator@U?$pair@$$CBIPAVServerGroup@@@_STL@@@2@@_STL@@QAE@XZ
_TEXT	SEGMENT
_this$ = -16						; size = 4
__$EHRec$ = -12						; size = 12
??1?$_Rb_tree@IU?$pair@$$CBIPAVServerGroup@@@_STL@@U?$_Select1st@U?$pair@$$CBIPAVServerGroup@@@_STL@@@2@U?$less@I@2@V?$allocator@U?$pair@$$CBIPAVServerGroup@@@_STL@@@2@@_STL@@QAE@XZ PROC NEAR ; _STL::_Rb_tree<unsigned int,_STL::pair<unsigned int const ,ServerGroup *>,_STL::_Select1st<_STL::pair<unsigned int const ,ServerGroup *> >,_STL::less<unsigned int>,_STL::allocator<_STL::pair<unsigned int const ,ServerGroup *> > >::~_Rb_tree<unsigned int,_STL::pair<unsigned int const ,ServerGroup *>,_STL::_Select1st<_STL::pair<unsigned int const ,ServerGroup *> >,_STL::less<unsigned int>,_STL::allocator<_STL::pair<unsigned int const ,ServerGroup *> > >, COMDAT
; _this$ = ecx

; 341  :   ~_Rb_tree() { clear(); }

  00000	b8 00 00 00 00	 mov	 eax, __ehhandler$??1?$_Rb_tree@IU?$pair@$$CBIPAVServerGroup@@@_STL@@U?$_Select1st@U?$pair@$$CBIPAVServerGroup@@@_STL@@@2@U?$less@I@2@V?$allocator@U?$pair@$$CBIPAVServerGroup@@@_STL@@@2@@_STL@@QAE@XZ
  00005	e8 00 00 00 00	 call	 __EH_prolog
  0000a	51		 push	 ecx
  0000b	56		 push	 esi
  0000c	8b f1		 mov	 esi, ecx
  0000e	89 75 f0	 mov	 DWORD PTR _this$[ebp], esi
  00011	83 65 fc 00	 and	 DWORD PTR __$EHRec$[ebp+8], 0
  00015	e8 00 00 00 00	 call	 ?clear@?$_Rb_tree@IU?$pair@$$CBIPAVServerGroup@@@_STL@@U?$_Select1st@U?$pair@$$CBIPAVServerGroup@@@_STL@@@2@U?$less@I@2@V?$allocator@U?$pair@$$CBIPAVServerGroup@@@_STL@@@2@@_STL@@QAEXXZ ; _STL::_Rb_tree<unsigned int,_STL::pair<unsigned int const ,ServerGroup *>,_STL::_Select1st<_STL::pair<unsigned int const ,ServerGroup *> >,_STL::less<unsigned int>,_STL::allocator<_STL::pair<unsigned int const ,ServerGroup *> > >::clear
  0001a	83 4d fc ff	 or	 DWORD PTR __$EHRec$[ebp+8], -1
  0001e	6a 01		 push	 1
  00020	ff 36		 push	 DWORD PTR [esi]
  00022	8b ce		 mov	 ecx, esi
  00024	e8 00 00 00 00	 call	 ?deallocate@?$allocator@U?$_Rb_tree_node@U?$pair@$$CBIPAVServerGroup@@@_STL@@@_STL@@@_STL@@QAEXPAU?$_Rb_tree_node@U?$pair@$$CBIPAVServerGroup@@@_STL@@@2@I@Z ; _STL::allocator<_STL::_Rb_tree_node<_STL::pair<unsigned int const ,ServerGroup *> > >::deallocate
  00029	8b 4d f4	 mov	 ecx, DWORD PTR __$EHRec$[ebp]
  0002c	5e		 pop	 esi
  0002d	64 89 0d 00 00
	00 00		 mov	 DWORD PTR fs:__except_list, ecx
  00034	c9		 leave
  00035	c3		 ret	 0
_TEXT	ENDS
;	COMDAT text$x
text$x	SEGMENT
$L104064:
  00000	8b 4d f0	 mov	 ecx, DWORD PTR _this$[ebp]
  00003	e9 00 00 00 00	 jmp	 ??1?$_Rb_tree_base@U?$pair@$$CBIPAVServerGroup@@@_STL@@V?$allocator@U?$pair@$$CBIPAVServerGroup@@@_STL@@@2@@_STL@@QAE@XZ ; _STL::_Rb_tree_base<_STL::pair<unsigned int const ,ServerGroup *>,_STL::allocator<_STL::pair<unsigned int const ,ServerGroup *> > >::~_Rb_tree_base<_STL::pair<unsigned int const ,ServerGroup *>,_STL::allocator<_STL::pair<unsigned int const ,ServerGroup *> > >
__ehhandler$??1?$_Rb_tree@IU?$pair@$$CBIPAVServerGroup@@@_STL@@U?$_Select1st@U?$pair@$$CBIPAVServerGroup@@@_STL@@@2@U?$less@I@2@V?$allocator@U?$pair@$$CBIPAVServerGroup@@@_STL@@@2@@_STL@@QAE@XZ:
  00008	b8 00 00 00 00	 mov	 eax, OFFSET FLAT:$T104081
  0000d	e9 00 00 00 00	 jmp	 ___CxxFrameHandler
text$x	ENDS
??1?$_Rb_tree@IU?$pair@$$CBIPAVServerGroup@@@_STL@@U?$_Select1st@U?$pair@$$CBIPAVServerGroup@@@_STL@@@2@U?$less@I@2@V?$allocator@U?$pair@$$CBIPAVServerGroup@@@_STL@@@2@@_STL@@QAE@XZ ENDP ; _STL::_Rb_tree<unsigned int,_STL::pair<unsigned int const ,ServerGroup *>,_STL::_Select1st<_STL::pair<unsigned int const ,ServerGroup *> >,_STL::less<unsigned int>,_STL::allocator<_STL::pair<unsigned int const ,ServerGroup *> > >::~_Rb_tree<unsigned int,_STL::pair<unsigned int const ,ServerGroup *>,_STL::_Select1st<_STL::pair<unsigned int const ,ServerGroup *> >,_STL::less<unsigned int>,_STL::allocator<_STL::pair<unsigned int const ,ServerGroup *> > >
PUBLIC	??0?$_Rb_tree@IU?$pair@$$CBIPAVSERVER_INFO@@@_STL@@U?$_Select1st@U?$pair@$$CBIPAVSERVER_INFO@@@_STL@@@2@U?$less@I@2@V?$allocator@U?$pair@$$CBIPAVSERVER_INFO@@@_STL@@@2@@_STL@@QAE@ABU?$less@I@1@ABV?$allocator@U?$pair@$$CBIPAVSERVER_INFO@@@_STL@@@1@@Z ; _STL::_Rb_tree<unsigned int,_STL::pair<unsigned int const ,SERVER_INFO *>,_STL::_Select1st<_STL::pair<unsigned int const ,SERVER_INFO *> >,_STL::less<unsigned int>,_STL::allocator<_STL::pair<unsigned int const ,SERVER_INFO *> > >::_Rb_tree<unsigned int,_STL::pair<unsigned int const ,SERVER_INFO *>,_STL::_Select1st<_STL::pair<unsigned int const ,SERVER_INFO *> >,_STL::less<unsigned int>,_STL::allocator<_STL::pair<unsigned int const ,SERVER_INFO *> > >
; Function compile flags: /Ogsy
;	COMDAT ??0?$_Rb_tree@IU?$pair@$$CBIPAVSERVER_INFO@@@_STL@@U?$_Select1st@U?$pair@$$CBIPAVSERVER_INFO@@@_STL@@@2@U?$less@I@2@V?$allocator@U?$pair@$$CBIPAVSERVER_INFO@@@_STL@@@2@@_STL@@QAE@ABU?$less@I@1@ABV?$allocator@U?$pair@$$CBIPAVSERVER_INFO@@@_STL@@@1@@Z
_TEXT	SEGMENT
___comp$ = 8						; size = 4
___a$ = 12						; size = 4
??0?$_Rb_tree@IU?$pair@$$CBIPAVSERVER_INFO@@@_STL@@U?$_Select1st@U?$pair@$$CBIPAVSERVER_INFO@@@_STL@@@2@U?$less@I@2@V?$allocator@U?$pair@$$CBIPAVSERVER_INFO@@@_STL@@@2@@_STL@@QAE@ABU?$less@I@1@ABV?$allocator@U?$pair@$$CBIPAVSERVER_INFO@@@_STL@@@1@@Z PROC NEAR ; _STL::_Rb_tree<unsigned int,_STL::pair<unsigned int const ,SERVER_INFO *>,_STL::_Select1st<_STL::pair<unsigned int const ,SERVER_INFO *> >,_STL::less<unsigned int>,_STL::allocator<_STL::pair<unsigned int const ,SERVER_INFO *> > >::_Rb_tree<unsigned int,_STL::pair<unsigned int const ,SERVER_INFO *>,_STL::_Select1st<_STL::pair<unsigned int const ,SERVER_INFO *> >,_STL::less<unsigned int>,_STL::allocator<_STL::pair<unsigned int const ,SERVER_INFO *> > >, COMDAT
; _this$ = ecx

; 325  :     { _M_empty_initialize(); }

  00000	56		 push	 esi
  00001	ff 74 24 0c	 push	 DWORD PTR ___a$[esp]
  00005	8b f1		 mov	 esi, ecx
  00007	e8 00 00 00 00	 call	 ??0?$_Rb_tree_base@U?$pair@$$CBIPAVSERVER_INFO@@@_STL@@V?$allocator@U?$pair@$$CBIPAVSERVER_INFO@@@_STL@@@2@@_STL@@QAE@ABV?$allocator@U?$pair@$$CBIPAVSERVER_INFO@@@_STL@@@1@@Z ; _STL::_Rb_tree_base<_STL::pair<unsigned int const ,SERVER_INFO *>,_STL::allocator<_STL::pair<unsigned int const ,SERVER_INFO *> > >::_Rb_tree_base<_STL::pair<unsigned int const ,SERVER_INFO *>,_STL::allocator<_STL::pair<unsigned int const ,SERVER_INFO *> > >
  0000c	8b 0e		 mov	 ecx, DWORD PTR [esi]
  0000e	33 c0		 xor	 eax, eax
  00010	89 46 04	 mov	 DWORD PTR [esi+4], eax
  00013	88 01		 mov	 BYTE PTR [ecx], al
  00015	8b 0e		 mov	 ecx, DWORD PTR [esi]
  00017	89 41 04	 mov	 DWORD PTR [ecx+4], eax
  0001a	8b 06		 mov	 eax, DWORD PTR [esi]
  0001c	89 40 08	 mov	 DWORD PTR [eax+8], eax
  0001f	8b 06		 mov	 eax, DWORD PTR [esi]
  00021	89 40 0c	 mov	 DWORD PTR [eax+12], eax
  00024	8b c6		 mov	 eax, esi
  00026	5e		 pop	 esi
  00027	c2 08 00	 ret	 8
??0?$_Rb_tree@IU?$pair@$$CBIPAVSERVER_INFO@@@_STL@@U?$_Select1st@U?$pair@$$CBIPAVSERVER_INFO@@@_STL@@@2@U?$less@I@2@V?$allocator@U?$pair@$$CBIPAVSERVER_INFO@@@_STL@@@2@@_STL@@QAE@ABU?$less@I@1@ABV?$allocator@U?$pair@$$CBIPAVSERVER_INFO@@@_STL@@@1@@Z ENDP ; _STL::_Rb_tree<unsigned int,_STL::pair<unsigned int const ,SERVER_INFO *>,_STL::_Select1st<_STL::pair<unsigned int const ,SERVER_INFO *> >,_STL::less<unsigned int>,_STL::allocator<_STL::pair<unsigned int const ,SERVER_INFO *> > >::_Rb_tree<unsigned int,_STL::pair<unsigned int const ,SERVER_INFO *>,_STL::_Select1st<_STL::pair<unsigned int const ,SERVER_INFO *> >,_STL::less<unsigned int>,_STL::allocator<_STL::pair<unsigned int const ,SERVER_INFO *> > >
_TEXT	ENDS
PUBLIC	??0?$_Rb_tree@IU?$pair@$$CBIPAVServerGroup@@@_STL@@U?$_Select1st@U?$pair@$$CBIPAVServerGroup@@@_STL@@@2@U?$less@I@2@V?$allocator@U?$pair@$$CBIPAVServerGroup@@@_STL@@@2@@_STL@@QAE@ABU?$less@I@1@ABV?$allocator@U?$pair@$$CBIPAVServerGroup@@@_STL@@@1@@Z ; _STL::_Rb_tree<unsigned int,_STL::pair<unsigned int const ,ServerGroup *>,_STL::_Select1st<_STL::pair<unsigned int const ,ServerGroup *> >,_STL::less<unsigned int>,_STL::allocator<_STL::pair<unsigned int const ,ServerGroup *> > >::_Rb_tree<unsigned int,_STL::pair<unsigned int const ,ServerGroup *>,_STL::_Select1st<_STL::pair<unsigned int const ,ServerGroup *> >,_STL::less<unsigned int>,_STL::allocator<_STL::pair<unsigned int const ,ServerGroup *> > >
; Function compile flags: /Ogsy
;	COMDAT ??0?$_Rb_tree@IU?$pair@$$CBIPAVServerGroup@@@_STL@@U?$_Select1st@U?$pair@$$CBIPAVServerGroup@@@_STL@@@2@U?$less@I@2@V?$allocator@U?$pair@$$CBIPAVServerGroup@@@_STL@@@2@@_STL@@QAE@ABU?$less@I@1@ABV?$allocator@U?$pair@$$CBIPAVServerGroup@@@_STL@@@1@@Z
_TEXT	SEGMENT
___comp$ = 8						; size = 4
___a$ = 12						; size = 4
??0?$_Rb_tree@IU?$pair@$$CBIPAVServerGroup@@@_STL@@U?$_Select1st@U?$pair@$$CBIPAVServerGroup@@@_STL@@@2@U?$less@I@2@V?$allocator@U?$pair@$$CBIPAVServerGroup@@@_STL@@@2@@_STL@@QAE@ABU?$less@I@1@ABV?$allocator@U?$pair@$$CBIPAVServerGroup@@@_STL@@@1@@Z PROC NEAR ; _STL::_Rb_tree<unsigned int,_STL::pair<unsigned int const ,ServerGroup *>,_STL::_Select1st<_STL::pair<unsigned int const ,ServerGroup *> >,_STL::less<unsigned int>,_STL::allocator<_STL::pair<unsigned int const ,ServerGroup *> > >::_Rb_tree<unsigned int,_STL::pair<unsigned int const ,ServerGroup *>,_STL::_Select1st<_STL::pair<unsigned int const ,ServerGroup *> >,_STL::less<unsigned int>,_STL::allocator<_STL::pair<unsigned int const ,ServerGroup *> > >, COMDAT
; _this$ = ecx

; 325  :     { _M_empty_initialize(); }

  00000	56		 push	 esi
  00001	ff 74 24 0c	 push	 DWORD PTR ___a$[esp]
  00005	8b f1		 mov	 esi, ecx
  00007	e8 00 00 00 00	 call	 ??0?$_Rb_tree_base@U?$pair@$$CBIPAVServerGroup@@@_STL@@V?$allocator@U?$pair@$$CBIPAVServerGroup@@@_STL@@@2@@_STL@@QAE@ABV?$allocator@U?$pair@$$CBIPAVServerGroup@@@_STL@@@1@@Z ; _STL::_Rb_tree_base<_STL::pair<unsigned int const ,ServerGroup *>,_STL::allocator<_STL::pair<unsigned int const ,ServerGroup *> > >::_Rb_tree_base<_STL::pair<unsigned int const ,ServerGroup *>,_STL::allocator<_STL::pair<unsigned int const ,ServerGroup *> > >
  0000c	8b 0e		 mov	 ecx, DWORD PTR [esi]
  0000e	33 c0		 xor	 eax, eax
  00010	89 46 04	 mov	 DWORD PTR [esi+4], eax
  00013	88 01		 mov	 BYTE PTR [ecx], al
  00015	8b 0e		 mov	 ecx, DWORD PTR [esi]
  00017	89 41 04	 mov	 DWORD PTR [ecx+4], eax
  0001a	8b 06		 mov	 eax, DWORD PTR [esi]
  0001c	89 40 08	 mov	 DWORD PTR [eax+8], eax
  0001f	8b 06		 mov	 eax, DWORD PTR [esi]
  00021	89 40 0c	 mov	 DWORD PTR [eax+12], eax
  00024	8b c6		 mov	 eax, esi
  00026	5e		 pop	 esi
  00027	c2 08 00	 ret	 8
??0?$_Rb_tree@IU?$pair@$$CBIPAVServerGroup@@@_STL@@U?$_Select1st@U?$pair@$$CBIPAVServerGroup@@@_STL@@@2@U?$less@I@2@V?$allocator@U?$pair@$$CBIPAVServerGroup@@@_STL@@@2@@_STL@@QAE@ABU?$less@I@1@ABV?$allocator@U?$pair@$$CBIPAVServerGroup@@@_STL@@@1@@Z ENDP ; _STL::_Rb_tree<unsigned int,_STL::pair<unsigned int const ,ServerGroup *>,_STL::_Select1st<_STL::pair<unsigned int const ,ServerGroup *> >,_STL::less<unsigned int>,_STL::allocator<_STL::pair<unsigned int const ,ServerGroup *> > >::_Rb_tree<unsigned int,_STL::pair<unsigned int const ,ServerGroup *>,_STL::_Select1st<_STL::pair<unsigned int const ,ServerGroup *> >,_STL::less<unsigned int>,_STL::allocator<_STL::pair<unsigned int const ,ServerGroup *> > >
_TEXT	ENDS
PUBLIC	?Release@?$CTypeMap2@VSERVER_INFO@@@@UAEXXZ	; CTypeMap2<SERVER_INFO>::Release
; Function compile flags: /Ogsy
; File c:\darkeden\designed_common\project\client\ctypemap2.h
;	COMDAT ?Release@?$CTypeMap2@VSERVER_INFO@@@@UAEXXZ
_TEXT	SEGMENT
?Release@?$CTypeMap2@VSERVER_INFO@@@@UAEXXZ PROC NEAR	; CTypeMap2<SERVER_INFO>::Release, COMDAT
; _this$ = ecx

; 70   : {

  00000	56		 push	 esi
  00001	57		 push	 edi

; 71   : 	TYPE_MAP::iterator iData = begin();

  00002	8d 79 04	 lea	 edi, DWORD PTR [ecx+4]
  00005	8b 07		 mov	 eax, DWORD PTR [edi]
  00007	8b 70 08	 mov	 esi, DWORD PTR [eax+8]

; 72   : 
; 73   : 	while (iData != end())

  0000a	3b f0		 cmp	 esi, eax
  0000c	74 24		 je	 SHORT $L101952
  0000e	53		 push	 ebx
$L101951:

; 74   : 	{
; 75   : 		DataType*	pData	= (*iData).second;		
; 76   : 
; 77   : 		delete pData;

  0000f	8b 5e 14	 mov	 ebx, DWORD PTR [esi+20]
  00012	85 db		 test	 ebx, ebx
  00014	74 0e		 je	 SHORT $L104147
  00016	8b cb		 mov	 ecx, ebx
  00018	e8 00 00 00 00	 call	 ??1SERVER_INFO@@QAE@XZ	; SERVER_INFO::~SERVER_INFO
  0001d	53		 push	 ebx
  0001e	e8 00 00 00 00	 call	 ??3@YAXPAX@Z		; operator delete
  00023	59		 pop	 ecx
$L104147:

; 78   : 
; 79   : 		iData ++;

  00024	56		 push	 esi
  00025	e8 00 00 00 00	 call	 ?_M_increment@?$_Rb_global@_N@_STL@@SAPAU_Rb_tree_node_base@2@PAU32@@Z ; _STL::_Rb_global<bool>::_M_increment
  0002a	8b f0		 mov	 esi, eax
  0002c	3b 37		 cmp	 esi, DWORD PTR [edi]
  0002e	59		 pop	 ecx
  0002f	75 de		 jne	 SHORT $L101951
  00031	5b		 pop	 ebx
$L101952:

; 80   : 	}
; 81   : 
; 82   : 	clear();

  00032	8b cf		 mov	 ecx, edi
  00034	5f		 pop	 edi
  00035	5e		 pop	 esi
  00036	e9 00 00 00 00	 jmp	 ?clear@?$_Rb_tree@IU?$pair@$$CBIPAVSERVER_INFO@@@_STL@@U?$_Select1st@U?$pair@$$CBIPAVSERVER_INFO@@@_STL@@@2@U?$less@I@2@V?$allocator@U?$pair@$$CBIPAVSERVER_INFO@@@_STL@@@2@@_STL@@QAEXXZ ; _STL::_Rb_tree<unsigned int,_STL::pair<unsigned int const ,SERVER_INFO *>,_STL::_Select1st<_STL::pair<unsigned int const ,SERVER_INFO *> >,_STL::less<unsigned int>,_STL::allocator<_STL::pair<unsigned int const ,SERVER_INFO *> > >::clear
?Release@?$CTypeMap2@VSERVER_INFO@@@@UAEXXZ ENDP	; CTypeMap2<SERVER_INFO>::Release
_TEXT	ENDS
PUBLIC	?Release@?$CTypeMap2@VServerGroup@@@@UAEXXZ	; CTypeMap2<ServerGroup>::Release
; Function compile flags: /Ogsy
;	COMDAT ?Release@?$CTypeMap2@VServerGroup@@@@UAEXXZ
_TEXT	SEGMENT
?Release@?$CTypeMap2@VServerGroup@@@@UAEXXZ PROC NEAR	; CTypeMap2<ServerGroup>::Release, COMDAT
; _this$ = ecx

; 70   : {

  00000	56		 push	 esi
  00001	57		 push	 edi

; 71   : 	TYPE_MAP::iterator iData = begin();

  00002	8d 79 04	 lea	 edi, DWORD PTR [ecx+4]
  00005	8b 07		 mov	 eax, DWORD PTR [edi]
  00007	8b 70 08	 mov	 esi, DWORD PTR [eax+8]

; 72   : 
; 73   : 	while (iData != end())

  0000a	3b f0		 cmp	 esi, eax
  0000c	74 1a		 je	 SHORT $L102122
$L102121:

; 74   : 	{
; 75   : 		DataType*	pData	= (*iData).second;		
; 76   : 
; 77   : 		delete pData;

  0000e	8b 4e 14	 mov	 ecx, DWORD PTR [esi+20]
  00011	85 c9		 test	 ecx, ecx
  00013	74 06		 je	 SHORT $L104224
  00015	8b 01		 mov	 eax, DWORD PTR [ecx]
  00017	6a 01		 push	 1
  00019	ff 10		 call	 DWORD PTR [eax]
$L104224:

; 78   : 
; 79   : 		iData ++;

  0001b	56		 push	 esi
  0001c	e8 00 00 00 00	 call	 ?_M_increment@?$_Rb_global@_N@_STL@@SAPAU_Rb_tree_node_base@2@PAU32@@Z ; _STL::_Rb_global<bool>::_M_increment
  00021	8b f0		 mov	 esi, eax
  00023	3b 37		 cmp	 esi, DWORD PTR [edi]
  00025	59		 pop	 ecx
  00026	75 e6		 jne	 SHORT $L102121
$L102122:

; 80   : 	}
; 81   : 
; 82   : 	clear();

  00028	8b cf		 mov	 ecx, edi
  0002a	5f		 pop	 edi
  0002b	5e		 pop	 esi
  0002c	e9 00 00 00 00	 jmp	 ?clear@?$_Rb_tree@IU?$pair@$$CBIPAVServerGroup@@@_STL@@U?$_Select1st@U?$pair@$$CBIPAVServerGroup@@@_STL@@@2@U?$less@I@2@V?$allocator@U?$pair@$$CBIPAVServerGroup@@@_STL@@@2@@_STL@@QAEXXZ ; _STL::_Rb_tree<unsigned int,_STL::pair<unsigned int const ,ServerGroup *>,_STL::_Select1st<_STL::pair<unsigned int const ,ServerGroup *> >,_STL::less<unsigned int>,_STL::allocator<_STL::pair<unsigned int const ,ServerGroup *> > >::clear
?Release@?$CTypeMap2@VServerGroup@@@@UAEXXZ ENDP	; CTypeMap2<ServerGroup>::Release
_TEXT	ENDS
PUBLIC	??1?$map@IPAVSERVER_INFO@@U?$less@I@_STL@@V?$allocator@U?$pair@$$CBIPAVSERVER_INFO@@@_STL@@@3@@_STL@@QAE@XZ ; _STL::map<unsigned int,SERVER_INFO *,_STL::less<unsigned int>,_STL::allocator<_STL::pair<unsigned int const ,SERVER_INFO *> > >::~map<unsigned int,SERVER_INFO *,_STL::less<unsigned int>,_STL::allocator<_STL::pair<unsigned int const ,SERVER_INFO *> > >
; Function compile flags: /Ogsy
;	COMDAT ??1?$map@IPAVSERVER_INFO@@U?$less@I@_STL@@V?$allocator@U?$pair@$$CBIPAVSERVER_INFO@@@_STL@@@3@@_STL@@QAE@XZ
_TEXT	SEGMENT
??1?$map@IPAVSERVER_INFO@@U?$less@I@_STL@@V?$allocator@U?$pair@$$CBIPAVSERVER_INFO@@@_STL@@@3@@_STL@@QAE@XZ PROC NEAR ; _STL::map<unsigned int,SERVER_INFO *,_STL::less<unsigned int>,_STL::allocator<_STL::pair<unsigned int const ,SERVER_INFO *> > >::~map<unsigned int,SERVER_INFO *,_STL::less<unsigned int>,_STL::allocator<_STL::pair<unsigned int const ,SERVER_INFO *> > >, COMDAT
; _this$ = ecx
  00000	e9 00 00 00 00	 jmp	 ??1?$_Rb_tree@IU?$pair@$$CBIPAVSERVER_INFO@@@_STL@@U?$_Select1st@U?$pair@$$CBIPAVSERVER_INFO@@@_STL@@@2@U?$less@I@2@V?$allocator@U?$pair@$$CBIPAVSERVER_INFO@@@_STL@@@2@@_STL@@QAE@XZ ; _STL::_Rb_tree<unsigned int,_STL::pair<unsigned int const ,SERVER_INFO *>,_STL::_Select1st<_STL::pair<unsigned int const ,SERVER_INFO *> >,_STL::less<unsigned int>,_STL::allocator<_STL::pair<unsigned int const ,SERVER_INFO *> > >::~_Rb_tree<unsigned int,_STL::pair<unsigned int const ,SERVER_INFO *>,_STL::_Select1st<_STL::pair<unsigned int const ,SERVER_INFO *> >,_STL::less<unsigned int>,_STL::allocator<_STL::pair<unsigned int const ,SERVER_INFO *> > >
??1?$map@IPAVSERVER_INFO@@U?$less@I@_STL@@V?$allocator@U?$pair@$$CBIPAVSERVER_INFO@@@_STL@@@3@@_STL@@QAE@XZ ENDP ; _STL::map<unsigned int,SERVER_INFO *,_STL::less<unsigned int>,_STL::allocator<_STL::pair<unsigned int const ,SERVER_INFO *> > >::~map<unsigned int,SERVER_INFO *,_STL::less<unsigned int>,_STL::allocator<_STL::pair<unsigned int const ,SERVER_INFO *> > >
_TEXT	ENDS
PUBLIC	??1?$map@IPAVServerGroup@@U?$less@I@_STL@@V?$allocator@U?$pair@$$CBIPAVServerGroup@@@_STL@@@3@@_STL@@QAE@XZ ; _STL::map<unsigned int,ServerGroup *,_STL::less<unsigned int>,_STL::allocator<_STL::pair<unsigned int const ,ServerGroup *> > >::~map<unsigned int,ServerGroup *,_STL::less<unsigned int>,_STL::allocator<_STL::pair<unsigned int const ,ServerGroup *> > >
; Function compile flags: /Ogsy
;	COMDAT ??1?$map@IPAVServerGroup@@U?$less@I@_STL@@V?$allocator@U?$pair@$$CBIPAVServerGroup@@@_STL@@@3@@_STL@@QAE@XZ
_TEXT	SEGMENT
??1?$map@IPAVServerGroup@@U?$less@I@_STL@@V?$allocator@U?$pair@$$CBIPAVServerGroup@@@_STL@@@3@@_STL@@QAE@XZ PROC NEAR ; _STL::map<unsigned int,ServerGroup *,_STL::less<unsigned int>,_STL::allocator<_STL::pair<unsigned int const ,ServerGroup *> > >::~map<unsigned int,ServerGroup *,_STL::less<unsigned int>,_STL::allocator<_STL::pair<unsigned int const ,ServerGroup *> > >, COMDAT
; _this$ = ecx
  00000	e9 00 00 00 00	 jmp	 ??1?$_Rb_tree@IU?$pair@$$CBIPAVServerGroup@@@_STL@@U?$_Select1st@U?$pair@$$CBIPAVServerGroup@@@_STL@@@2@U?$less@I@2@V?$allocator@U?$pair@$$CBIPAVServerGroup@@@_STL@@@2@@_STL@@QAE@XZ ; _STL::_Rb_tree<unsigned int,_STL::pair<unsigned int const ,ServerGroup *>,_STL::_Select1st<_STL::pair<unsigned int const ,ServerGroup *> >,_STL::less<unsigned int>,_STL::allocator<_STL::pair<unsigned int const ,ServerGroup *> > >::~_Rb_tree<unsigned int,_STL::pair<unsigned int const ,ServerGroup *>,_STL::_Select1st<_STL::pair<unsigned int const ,ServerGroup *> >,_STL::less<unsigned int>,_STL::allocator<_STL::pair<unsigned int const ,ServerGroup *> > >
??1?$map@IPAVServerGroup@@U?$less@I@_STL@@V?$allocator@U?$pair@$$CBIPAVServerGroup@@@_STL@@@3@@_STL@@QAE@XZ ENDP ; _STL::map<unsigned int,ServerGroup *,_STL::less<unsigned int>,_STL::allocator<_STL::pair<unsigned int const ,ServerGroup *> > >::~map<unsigned int,ServerGroup *,_STL::less<unsigned int>,_STL::allocator<_STL::pair<unsigned int const ,ServerGroup *> > >
_TEXT	ENDS
PUBLIC	??0?$map@IPAVSERVER_INFO@@U?$less@I@_STL@@V?$allocator@U?$pair@$$CBIPAVSERVER_INFO@@@_STL@@@3@@_STL@@QAE@XZ ; _STL::map<unsigned int,SERVER_INFO *,_STL::less<unsigned int>,_STL::allocator<_STL::pair<unsigned int const ,SERVER_INFO *> > >::map<unsigned int,SERVER_INFO *,_STL::less<unsigned int>,_STL::allocator<_STL::pair<unsigned int const ,SERVER_INFO *> > >
; Function compile flags: /Ogsy
; File c:\stlport-4.6.1\stlport\stl\_map.h
;	COMDAT ??0?$map@IPAVSERVER_INFO@@U?$less@I@_STL@@V?$allocator@U?$pair@$$CBIPAVSERVER_INFO@@@_STL@@@3@@_STL@@QAE@XZ
_TEXT	SEGMENT
$T104303 = -1						; size = 1
$T104302 = -1						; size = 1
??0?$map@IPAVSERVER_INFO@@U?$less@I@_STL@@V?$allocator@U?$pair@$$CBIPAVSERVER_INFO@@@_STL@@@3@@_STL@@QAE@XZ PROC NEAR ; _STL::map<unsigned int,SERVER_INFO *,_STL::less<unsigned int>,_STL::allocator<_STL::pair<unsigned int const ,SERVER_INFO *> > >::map<unsigned int,SERVER_INFO *,_STL::less<unsigned int>,_STL::allocator<_STL::pair<unsigned int const ,SERVER_INFO *> > >, COMDAT
; _this$ = ecx

; 91   :   map() : _M_t(_Compare(), allocator_type()) {}

  00000	55		 push	 ebp
  00001	8b ec		 mov	 ebp, esp
  00003	51		 push	 ecx
  00004	56		 push	 esi
  00005	8d 45 ff	 lea	 eax, DWORD PTR $T104302[ebp]
  00008	50		 push	 eax
  00009	8d 45 ff	 lea	 eax, DWORD PTR $T104303[ebp]
  0000c	50		 push	 eax
  0000d	8b f1		 mov	 esi, ecx
  0000f	e8 00 00 00 00	 call	 ??0?$_Rb_tree@IU?$pair@$$CBIPAVSERVER_INFO@@@_STL@@U?$_Select1st@U?$pair@$$CBIPAVSERVER_INFO@@@_STL@@@2@U?$less@I@2@V?$allocator@U?$pair@$$CBIPAVSERVER_INFO@@@_STL@@@2@@_STL@@QAE@ABU?$less@I@1@ABV?$allocator@U?$pair@$$CBIPAVSERVER_INFO@@@_STL@@@1@@Z ; _STL::_Rb_tree<unsigned int,_STL::pair<unsigned int const ,SERVER_INFO *>,_STL::_Select1st<_STL::pair<unsigned int const ,SERVER_INFO *> >,_STL::less<unsigned int>,_STL::allocator<_STL::pair<unsigned int const ,SERVER_INFO *> > >::_Rb_tree<unsigned int,_STL::pair<unsigned int const ,SERVER_INFO *>,_STL::_Select1st<_STL::pair<unsigned int const ,SERVER_INFO *> >,_STL::less<unsigned int>,_STL::allocator<_STL::pair<unsigned int const ,SERVER_INFO *> > >
  00014	8b c6		 mov	 eax, esi
  00016	5e		 pop	 esi
  00017	c9		 leave
  00018	c3		 ret	 0
??0?$map@IPAVSERVER_INFO@@U?$less@I@_STL@@V?$allocator@U?$pair@$$CBIPAVSERVER_INFO@@@_STL@@@3@@_STL@@QAE@XZ ENDP ; _STL::map<unsigned int,SERVER_INFO *,_STL::less<unsigned int>,_STL::allocator<_STL::pair<unsigned int const ,SERVER_INFO *> > >::map<unsigned int,SERVER_INFO *,_STL::less<unsigned int>,_STL::allocator<_STL::pair<unsigned int const ,SERVER_INFO *> > >
_TEXT	ENDS
PUBLIC	??0?$map@IPAVServerGroup@@U?$less@I@_STL@@V?$allocator@U?$pair@$$CBIPAVServerGroup@@@_STL@@@3@@_STL@@QAE@XZ ; _STL::map<unsigned int,ServerGroup *,_STL::less<unsigned int>,_STL::allocator<_STL::pair<unsigned int const ,ServerGroup *> > >::map<unsigned int,ServerGroup *,_STL::less<unsigned int>,_STL::allocator<_STL::pair<unsigned int const ,ServerGroup *> > >
; Function compile flags: /Ogsy
;	COMDAT ??0?$map@IPAVServerGroup@@U?$less@I@_STL@@V?$allocator@U?$pair@$$CBIPAVServerGroup@@@_STL@@@3@@_STL@@QAE@XZ
_TEXT	SEGMENT
$T104314 = -1						; size = 1
$T104313 = -1						; size = 1
??0?$map@IPAVServerGroup@@U?$less@I@_STL@@V?$allocator@U?$pair@$$CBIPAVServerGroup@@@_STL@@@3@@_STL@@QAE@XZ PROC NEAR ; _STL::map<unsigned int,ServerGroup *,_STL::less<unsigned int>,_STL::allocator<_STL::pair<unsigned int const ,ServerGroup *> > >::map<unsigned int,ServerGroup *,_STL::less<unsigned int>,_STL::allocator<_STL::pair<unsigned int const ,ServerGroup *> > >, COMDAT
; _this$ = ecx

; 91   :   map() : _M_t(_Compare(), allocator_type()) {}

  00000	55		 push	 ebp
  00001	8b ec		 mov	 ebp, esp
  00003	51		 push	 ecx
  00004	56		 push	 esi
  00005	8d 45 ff	 lea	 eax, DWORD PTR $T104313[ebp]
  00008	50		 push	 eax
  00009	8d 45 ff	 lea	 eax, DWORD PTR $T104314[ebp]
  0000c	50		 push	 eax
  0000d	8b f1		 mov	 esi, ecx
  0000f	e8 00 00 00 00	 call	 ??0?$_Rb_tree@IU?$pair@$$CBIPAVServerGroup@@@_STL@@U?$_Select1st@U?$pair@$$CBIPAVServerGroup@@@_STL@@@2@U?$less@I@2@V?$allocator@U?$pair@$$CBIPAVServerGroup@@@_STL@@@2@@_STL@@QAE@ABU?$less@I@1@ABV?$allocator@U?$pair@$$CBIPAVServerGroup@@@_STL@@@1@@Z ; _STL::_Rb_tree<unsigned int,_STL::pair<unsigned int const ,ServerGroup *>,_STL::_Select1st<_STL::pair<unsigned int const ,ServerGroup *> >,_STL::less<unsigned int>,_STL::allocator<_STL::pair<unsigned int const ,ServerGroup *> > >::_Rb_tree<unsigned int,_STL::pair<unsigned int const ,ServerGroup *>,_STL::_Select1st<_STL::pair<unsigned int const ,ServerGroup *> >,_STL::less<unsigned int>,_STL::allocator<_STL::pair<unsigned int const ,ServerGroup *> > >
  00014	8b c6		 mov	 eax, esi
  00016	5e		 pop	 esi
  00017	c9		 leave
  00018	c3		 ret	 0
??0?$map@IPAVServerGroup@@U?$less@I@_STL@@V?$allocator@U?$pair@$$CBIPAVServerGroup@@@_STL@@@3@@_STL@@QAE@XZ ENDP ; _STL::map<unsigned int,ServerGroup *,_STL::less<unsigned int>,_STL::allocator<_STL::pair<unsigned int const ,ServerGroup *> > >::map<unsigned int,ServerGroup *,_STL::less<unsigned int>,_STL::allocator<_STL::pair<unsigned int const ,ServerGroup *> > >
_TEXT	ENDS
PUBLIC	?Release@ServerInformation@@UAEXXZ		; ServerInformation::Release
; Function compile flags: /Ogsy
; File c:\darkeden\designed_common\project\client\serverinformation.cpp
;	COMDAT ?Release@ServerInformation@@UAEXXZ
_TEXT	SEGMENT
?Release@ServerInformation@@UAEXXZ PROC NEAR		; ServerInformation::Release, COMDAT
; _this$ = ecx

; 41   : {

  00000	56		 push	 esi
  00001	8b f1		 mov	 esi, ecx

; 42   : 	SERVER_GROUP_MAP::Release();

  00003	e8 00 00 00 00	 call	 ?Release@?$CTypeMap2@VServerGroup@@@@UAEXXZ ; CTypeMap2<ServerGroup>::Release

; 43   : 
; 44   : 	m_ServerGroupID = 0;

  00008	33 c0		 xor	 eax, eax

; 45   : 	m_ServerGroupStatus = 0;
; 46   : 	m_ServerID = 0;
; 47   : 
; 48   : 	//  .
; 49   : 	m_ServerGroupName.Release();

  0000a	8d 4e 18	 lea	 ecx, DWORD PTR [esi+24]
  0000d	89 46 10	 mov	 DWORD PTR [esi+16], eax
  00010	89 46 24	 mov	 DWORD PTR [esi+36], eax
  00013	89 46 14	 mov	 DWORD PTR [esi+20], eax
  00016	e8 00 00 00 00	 call	 ?Release@MString@@QAEXXZ ; MString::Release

; 50   : 	m_ServerName.Release();

  0001b	8d 4e 28	 lea	 ecx, DWORD PTR [esi+40]
  0001e	5e		 pop	 esi
  0001f	e9 00 00 00 00	 jmp	 ?Release@MString@@QAEXXZ ; MString::Release
?Release@ServerInformation@@UAEXXZ ENDP			; ServerInformation::Release
_TEXT	ENDS
PUBLIC	??0?$CTypeMap2@VSERVER_INFO@@@@QAE@XZ		; CTypeMap2<SERVER_INFO>::CTypeMap2<SERVER_INFO>
PUBLIC	?AddData@?$CTypeMap2@VSERVER_INFO@@@@UAE_NIPAVSERVER_INFO@@@Z ; CTypeMap2<SERVER_INFO>::AddData
PUBLIC	?GetData@?$CTypeMap2@VSERVER_INFO@@@@UAEPAVSERVER_INFO@@I@Z ; CTypeMap2<SERVER_INFO>::GetData
PUBLIC	?GetData@?$CTypeMap2@VSERVER_INFO@@@@UBEPBVSERVER_INFO@@I@Z ; CTypeMap2<SERVER_INFO>::GetData
PUBLIC	?RemoveData@?$CTypeMap2@VSERVER_INFO@@@@UAE_NI@Z ; CTypeMap2<SERVER_INFO>::RemoveData
PUBLIC	??_7?$CTypeMap2@VSERVER_INFO@@@@6B@		; CTypeMap2<SERVER_INFO>::`vftable'
PUBLIC	??_G?$CTypeMap2@VSERVER_INFO@@@@UAEPAXI@Z	; CTypeMap2<SERVER_INFO>::`scalar deleting destructor'
PUBLIC	??_R1A@?0A@A@?$CTypeMap2@VSERVER_INFO@@@@8	; CTypeMap2<SERVER_INFO>::`RTTI Base Class Descriptor at (0,-1,0,0)'
PUBLIC	??_R0?AV?$CTypeMap2@VSERVER_INFO@@@@@8		; CTypeMap2<SERVER_INFO> `RTTI Type Descriptor'
PUBLIC	??_R13?0A@A@?$map@IPAVSERVER_INFO@@U?$less@I@_STL@@V?$allocator@U?$pair@$$CBIPAVSERVER_INFO@@@_STL@@@3@@_STL@@8 ; _STL::map<unsigned int,SERVER_INFO *,_STL::less<unsigned int>,_STL::allocator<_STL::pair<unsigned int const ,SERVER_INFO *> > >::`RTTI Base Class Descriptor at (4,-1,0,0)'
PUBLIC	??_R0?AV?$map@IPAVSERVER_INFO@@U?$less@I@_STL@@V?$allocator@U?$pair@$$CBIPAVSERVER_INFO@@@_STL@@@3@@_STL@@@8 ; _STL::map<unsigned int,SERVER_INFO *,_STL::less<unsigned int>,_STL::allocator<_STL::pair<unsigned int const ,SERVER_INFO *> > > `RTTI Type Descriptor'
PUBLIC	??_R4?$CTypeMap2@VSERVER_INFO@@@@6B@		; CTypeMap2<SERVER_INFO>::`RTTI Complete Object Locator'
PUBLIC	??_R3?$CTypeMap2@VSERVER_INFO@@@@8		; CTypeMap2<SERVER_INFO>::`RTTI Class Hierarchy Descriptor'
PUBLIC	??_R2?$CTypeMap2@VSERVER_INFO@@@@8		; CTypeMap2<SERVER_INFO>::`RTTI Base Class Array'
EXTRN	??_7type_info@@6B@:QWORD			; type_info::`vftable'
EXTRN	??_E?$CTypeMap2@VSERVER_INFO@@@@UAEPAXI@Z:NEAR	; CTypeMap2<SERVER_INFO>::`vector deleting destructor'
;	COMDAT ??_7?$CTypeMap2@VSERVER_INFO@@@@6B@
; File c:\darkeden\designed_common\project\client\ctypemap2.h
CONST	SEGMENT
??_7?$CTypeMap2@VSERVER_INFO@@@@6B@ DD FLAT:??_R4?$CTypeMap2@VSERVER_INFO@@@@6B@ ; CTypeMap2<SERVER_INFO>::`vftable'
	DD	FLAT:??_E?$CTypeMap2@VSERVER_INFO@@@@UAEPAXI@Z
	DD	FLAT:?Release@?$CTypeMap2@VSERVER_INFO@@@@UAEXXZ
	DD	FLAT:?AddData@?$CTypeMap2@VSERVER_INFO@@@@UAE_NIPAVSERVER_INFO@@@Z
	DD	FLAT:?GetData@?$CTypeMap2@VSERVER_INFO@@@@UBEPBVSERVER_INFO@@I@Z
	DD	FLAT:?GetData@?$CTypeMap2@VSERVER_INFO@@@@UAEPAVSERVER_INFO@@I@Z
	DD	FLAT:?RemoveData@?$CTypeMap2@VSERVER_INFO@@@@UAE_NI@Z
CONST	ENDS
;	COMDAT ??_R4?$CTypeMap2@VSERVER_INFO@@@@6B@
rdata$r	SEGMENT
??_R4?$CTypeMap2@VSERVER_INFO@@@@6B@ DD 00H		; CTypeMap2<SERVER_INFO>::`RTTI Complete Object Locator'
	DD	00H
	DD	00H
	DD	FLAT:??_R0?AV?$CTypeMap2@VSERVER_INFO@@@@@8
	DD	FLAT:??_R3?$CTypeMap2@VSERVER_INFO@@@@8
rdata$r	ENDS
;	COMDAT ??_R0?AV?$CTypeMap2@VSERVER_INFO@@@@@8
_DATA	SEGMENT
??_R0?AV?$CTypeMap2@VSERVER_INFO@@@@@8 DD FLAT:??_7type_info@@6B@ ; CTypeMap2<SERVER_INFO> `RTTI Type Descriptor'
	DD	00H
	DB	'.?AV?$CTypeMap2@VSERVER_INFO@@@@', 00H
_DATA	ENDS
;	COMDAT ??_R3?$CTypeMap2@VSERVER_INFO@@@@8
rdata$r	SEGMENT
??_R3?$CTypeMap2@VSERVER_INFO@@@@8 DD 00H		; CTypeMap2<SERVER_INFO>::`RTTI Class Hierarchy Descriptor'
	DD	00H
	DD	02H
	DD	FLAT:??_R2?$CTypeMap2@VSERVER_INFO@@@@8
rdata$r	ENDS
;	COMDAT ??_R2?$CTypeMap2@VSERVER_INFO@@@@8
rdata$r	SEGMENT
??_R2?$CTypeMap2@VSERVER_INFO@@@@8 DD FLAT:??_R1A@?0A@A@?$CTypeMap2@VSERVER_INFO@@@@8 ; CTypeMap2<SERVER_INFO>::`RTTI Base Class Array'
	DD	FLAT:??_R13?0A@A@?$map@IPAVSERVER_INFO@@U?$less@I@_STL@@V?$allocator@U?$pair@$$CBIPAVSERVER_INFO@@@_STL@@@3@@_STL@@8
rdata$r	ENDS
;	COMDAT ??_R1A@?0A@A@?$CTypeMap2@VSERVER_INFO@@@@8
rdata$r	SEGMENT
??_R1A@?0A@A@?$CTypeMap2@VSERVER_INFO@@@@8 DD FLAT:??_R0?AV?$CTypeMap2@VSERVER_INFO@@@@@8 ; CTypeMap2<SERVER_INFO>::`RTTI Base Class Descriptor at (0,-1,0,0)'
	DD	01H
	DD	00H
	DD	0ffffffffH
	DD	00H
	DD	00H
rdata$r	ENDS
;	COMDAT ??_R13?0A@A@?$map@IPAVSERVER_INFO@@U?$less@I@_STL@@V?$allocator@U?$pair@$$CBIPAVSERVER_INFO@@@_STL@@@3@@_STL@@8
rdata$r	SEGMENT
??_R13?0A@A@?$map@IPAVSERVER_INFO@@U?$less@I@_STL@@V?$allocator@U?$pair@$$CBIPAVSERVER_INFO@@@_STL@@@3@@_STL@@8 DD FLAT:??_R0?AV?$map@IPAVSERVER_INFO@@U?$less@I@_STL@@V?$allocator@U?$pair@$$CBIPAVSERVER_INFO@@@_STL@@@3@@_STL@@@8 ; _STL::map<unsigned int,SERVER_INFO *,_STL::less<unsigned int>,_STL::allocator<_STL::pair<unsigned int const ,SERVER_INFO *> > >::`RTTI Base Class Descriptor at (4,-1,0,0)'
	DD	00H
	DD	04H
	DD	0ffffffffH
	DD	00H
	DD	00H
rdata$r	ENDS
;	COMDAT ??_R0?AV?$map@IPAVSERVER_INFO@@U?$less@I@_STL@@V?$allocator@U?$pair@$$CBIPAVSERVER_INFO@@@_STL@@@3@@_STL@@@8
_DATA	SEGMENT
??_R0?AV?$map@IPAVSERVER_INFO@@U?$less@I@_STL@@V?$allocator@U?$pair@$$CBIPAVSERVER_INFO@@@_STL@@@3@@_STL@@@8 DD FLAT:??_7type_info@@6B@ ; _STL::map<unsigned int,SERVER_INFO *,_STL::less<unsigned int>,_STL::allocator<_STL::pair<unsigned int const ,SERVER_INFO *> > > `RTTI Type Descriptor'
	DD	00H
	DB	'.?AV?$map@IPAVSERVER_INFO@@U?$less@I@_STL@@V?$allocator@'
	DB	'U?$pair@$$CBIPAVSERVER_INFO@@@_STL@@@3@@_STL@@', 00H
; Function compile flags: /Ogsy
_DATA	ENDS
;	COMDAT ??0?$CTypeMap2@VSERVER_INFO@@@@QAE@XZ
_TEXT	SEGMENT
??0?$CTypeMap2@VSERVER_INFO@@@@QAE@XZ PROC NEAR		; CTypeMap2<SERVER_INFO>::CTypeMap2<SERVER_INFO>, COMDAT
; _this$ = ecx

; 55   : {

  00000	56		 push	 esi
  00001	8b f1		 mov	 esi, ecx
  00003	8d 4e 04	 lea	 ecx, DWORD PTR [esi+4]
  00006	e8 00 00 00 00	 call	 ??0?$map@IPAVSERVER_INFO@@U?$less@I@_STL@@V?$allocator@U?$pair@$$CBIPAVSERVER_INFO@@@_STL@@@3@@_STL@@QAE@XZ ; _STL::map<unsigned int,SERVER_INFO *,_STL::less<unsigned int>,_STL::allocator<_STL::pair<unsigned int const ,SERVER_INFO *> > >::map<unsigned int,SERVER_INFO *,_STL::less<unsigned int>,_STL::allocator<_STL::pair<unsigned int const ,SERVER_INFO *> > >
  0000b	c7 06 00 00 00
	00		 mov	 DWORD PTR [esi], OFFSET FLAT:??_7?$CTypeMap2@VSERVER_INFO@@@@6B@

; 56   : }

  00011	8b c6		 mov	 eax, esi
  00013	5e		 pop	 esi
  00014	c3		 ret	 0
??0?$CTypeMap2@VSERVER_INFO@@@@QAE@XZ ENDP		; CTypeMap2<SERVER_INFO>::CTypeMap2<SERVER_INFO>
_TEXT	ENDS
PUBLIC	??$_M_find@I@?$_Rb_tree@IU?$pair@$$CBIPAVSERVER_INFO@@@_STL@@U?$_Select1st@U?$pair@$$CBIPAVSERVER_INFO@@@_STL@@@2@U?$less@I@2@V?$allocator@U?$pair@$$CBIPAVSERVER_INFO@@@_STL@@@2@@_STL@@ABEPAU?$_Rb_tree_node@U?$pair@$$CBIPAVSERVER_INFO@@@_STL@@@1@ABI@Z ; _STL::_Rb_tree<unsigned int,_STL::pair<unsigned int const ,SERVER_INFO *>,_STL::_Select1st<_STL::pair<unsigned int const ,SERVER_INFO *> >,_STL::less<unsigned int>,_STL::allocator<_STL::pair<unsigned int const ,SERVER_INFO *> > >::_M_find<unsigned int>
; Function compile flags: /Ogsy
;	COMDAT ?GetData@?$CTypeMap2@VSERVER_INFO@@@@UBEPBVSERVER_INFO@@I@Z
_TEXT	SEGMENT
_id$ = 8						; size = 4
?GetData@?$CTypeMap2@VSERVER_INFO@@@@UBEPBVSERVER_INFO@@I@Z PROC NEAR ; CTypeMap2<SERVER_INFO>::GetData, COMDAT
; _this$ = ecx

; 134  : {

  00000	56		 push	 esi

; 135  : 	TYPE_MAP::const_iterator	iData = find( id );

  00001	8d 71 04	 lea	 esi, DWORD PTR [ecx+4]
  00004	8d 44 24 08	 lea	 eax, DWORD PTR _id$[esp]
  00008	50		 push	 eax
  00009	8b ce		 mov	 ecx, esi
  0000b	e8 00 00 00 00	 call	 ??$_M_find@I@?$_Rb_tree@IU?$pair@$$CBIPAVSERVER_INFO@@@_STL@@U?$_Select1st@U?$pair@$$CBIPAVSERVER_INFO@@@_STL@@@2@U?$less@I@2@V?$allocator@U?$pair@$$CBIPAVSERVER_INFO@@@_STL@@@2@@_STL@@ABEPAU?$_Rb_tree_node@U?$pair@$$CBIPAVSERVER_INFO@@@_STL@@@1@ABI@Z ; _STL::_Rb_tree<unsigned int,_STL::pair<unsigned int const ,SERVER_INFO *>,_STL::_Select1st<_STL::pair<unsigned int const ,SERVER_INFO *> >,_STL::less<unsigned int>,_STL::allocator<_STL::pair<unsigned int const ,SERVER_INFO *> > >::_M_find<unsigned int>

; 136  : 
; 137  : 	if (iData == end())

  00010	3b 06		 cmp	 eax, DWORD PTR [esi]
  00012	5e		 pop	 esi
  00013	75 04		 jne	 SHORT $L102050

; 138  : 	{
; 139  : 		//   
; 140  : 		return NULL;

  00015	33 c0		 xor	 eax, eax
  00017	eb 03		 jmp	 SHORT $L102010
$L102050:

; 141  : 	}
; 142  : 
; 143  : 	//  
; 144  : 	return (*iData).second;

  00019	8b 40 14	 mov	 eax, DWORD PTR [eax+20]
$L102010:

; 145  : }

  0001c	c2 04 00	 ret	 4
?GetData@?$CTypeMap2@VSERVER_INFO@@@@UBEPBVSERVER_INFO@@I@Z ENDP ; CTypeMap2<SERVER_INFO>::GetData
; Function compile flags: /Ogsy
; File c:\stlport-4.6.1\stlport\stl\_tree.h
_TEXT	ENDS
;	COMDAT ??$_M_find@I@?$_Rb_tree@IU?$pair@$$CBIPAVSERVER_INFO@@@_STL@@U?$_Select1st@U?$pair@$$CBIPAVSERVER_INFO@@@_STL@@@2@U?$less@I@2@V?$allocator@U?$pair@$$CBIPAVSERVER_INFO@@@_STL@@@2@@_STL@@ABEPAU?$_Rb_tree_node@U?$pair@$$CBIPAVSERVER_INFO@@@_STL@@@1@ABI@Z
_TEXT	SEGMENT
___k$ = 8						; size = 4
??$_M_find@I@?$_Rb_tree@IU?$pair@$$CBIPAVSERVER_INFO@@@_STL@@U?$_Select1st@U?$pair@$$CBIPAVSERVER_INFO@@@_STL@@@2@U?$less@I@2@V?$allocator@U?$pair@$$CBIPAVSERVER_INFO@@@_STL@@@2@@_STL@@ABEPAU?$_Rb_tree_node@U?$pair@$$CBIPAVSERVER_INFO@@@_STL@@@1@ABI@Z PROC NEAR ; _STL::_Rb_tree<unsigned int,_STL::pair<unsigned int const ,SERVER_INFO *>,_STL::_Select1st<_STL::pair<unsigned int const ,SERVER_INFO *> >,_STL::less<unsigned int>,_STL::allocator<_STL::pair<unsigned int const ,SERVER_INFO *> > >::_M_find<unsigned int>, COMDAT
; _this$ = ecx

; 462  : # else
; 463  :   iterator find(const key_type& __x) { return iterator(_M_find(__x)); }
; 464  :   const_iterator find(const key_type& __x) const { return const_iterator(_M_find(__x)); }
; 465  : private:
; 466  :   _Rb_tree_node<_Value>* _M_find(const key_type& __k) const
; 467  : # endif
; 468  :   {
; 469  :     _Link_type __y = this->_M_header._M_data;      // Last node which is not less than __k. 

  00000	8b 11		 mov	 edx, DWORD PTR [ecx]

; 470  :     _Link_type __x = _M_root();      // Current node. 

  00002	8b 4a 04	 mov	 ecx, DWORD PTR [edx+4]

; 471  :     
; 472  :     while (__x != 0) 

  00005	85 c9		 test	 ecx, ecx
  00007	57		 push	 edi
  00008	8b 7c 24 08	 mov	 edi, DWORD PTR ___k$[esp]
  0000c	8b c2		 mov	 eax, edx
  0000e	74 17		 je	 SHORT $L103028
  00010	56		 push	 esi
  00011	8b 37		 mov	 esi, DWORD PTR [edi]
$L103027:

; 473  :       if (!_M_key_compare(_S_key(__x), __k))

  00013	39 71 10	 cmp	 DWORD PTR [ecx+16], esi
  00016	72 07		 jb	 SHORT $L103029

; 474  : 	__y = __x, __x = _S_left(__x);

  00018	8b c1		 mov	 eax, ecx
  0001a	8b 49 08	 mov	 ecx, DWORD PTR [ecx+8]

; 475  :       else

  0001d	eb 03		 jmp	 SHORT $L103030
$L103029:

; 476  : 	__x = _S_right(__x);

  0001f	8b 49 0c	 mov	 ecx, DWORD PTR [ecx+12]
$L103030:

; 471  :     
; 472  :     while (__x != 0) 

  00022	85 c9		 test	 ecx, ecx
  00024	75 ed		 jne	 SHORT $L103027
  00026	5e		 pop	 esi
$L103028:

; 477  :     if (__y == this->_M_header._M_data || _M_key_compare(__k, _S_key(__y)))

  00027	3b c2		 cmp	 eax, edx
  00029	74 07		 je	 SHORT $L103032
  0002b	8b 0f		 mov	 ecx, DWORD PTR [edi]
  0002d	3b 48 10	 cmp	 ecx, DWORD PTR [eax+16]
  00030	73 02		 jae	 SHORT $L103031
$L103032:

; 478  :       __y = this->_M_header._M_data;

  00032	8b c2		 mov	 eax, edx
$L103031:
  00034	5f		 pop	 edi

; 479  :     return __y;
; 480  :   }

  00035	c2 04 00	 ret	 4
??$_M_find@I@?$_Rb_tree@IU?$pair@$$CBIPAVSERVER_INFO@@@_STL@@U?$_Select1st@U?$pair@$$CBIPAVSERVER_INFO@@@_STL@@@2@U?$less@I@2@V?$allocator@U?$pair@$$CBIPAVSERVER_INFO@@@_STL@@@2@@_STL@@ABEPAU?$_Rb_tree_node@U?$pair@$$CBIPAVSERVER_INFO@@@_STL@@@1@ABI@Z ENDP ; _STL::_Rb_tree<unsigned int,_STL::pair<unsigned int const ,SERVER_INFO *>,_STL::_Select1st<_STL::pair<unsigned int const ,SERVER_INFO *> >,_STL::less<unsigned int>,_STL::allocator<_STL::pair<unsigned int const ,SERVER_INFO *> > >::_M_find<unsigned int>
; Function compile flags: /Ogsy
; File c:\darkeden\designed_common\project\client\ctypemap2.h
_TEXT	ENDS
;	COMDAT ?GetData@?$CTypeMap2@VSERVER_INFO@@@@UAEPAVSERVER_INFO@@I@Z
_TEXT	SEGMENT
_id$ = 8						; size = 4
?GetData@?$CTypeMap2@VSERVER_INFO@@@@UAEPAVSERVER_INFO@@I@Z PROC NEAR ; CTypeMap2<SERVER_INFO>::GetData, COMDAT
; _this$ = ecx

; 115  : {

  00000	56		 push	 esi

; 116  : 	TYPE_MAP::iterator	iData = find( id );

  00001	8d 71 04	 lea	 esi, DWORD PTR [ecx+4]
  00004	8d 44 24 08	 lea	 eax, DWORD PTR _id$[esp]
  00008	50		 push	 eax
  00009	8b ce		 mov	 ecx, esi
  0000b	e8 00 00 00 00	 call	 ??$_M_find@I@?$_Rb_tree@IU?$pair@$$CBIPAVSERVER_INFO@@@_STL@@U?$_Select1st@U?$pair@$$CBIPAVSERVER_INFO@@@_STL@@@2@U?$less@I@2@V?$allocator@U?$pair@$$CBIPAVSERVER_INFO@@@_STL@@@2@@_STL@@ABEPAU?$_Rb_tree_node@U?$pair@$$CBIPAVSERVER_INFO@@@_STL@@@1@ABI@Z ; _STL::_Rb_tree<unsigned int,_STL::pair<unsigned int const ,SERVER_INFO *>,_STL::_Select1st<_STL::pair<unsigned int const ,SERVER_INFO *> >,_STL::less<unsigned int>,_STL::allocator<_STL::pair<unsigned int const ,SERVER_INFO *> > >::_M_find<unsigned int>

; 117  : 
; 118  : 	if (iData == end())

  00010	3b 06		 cmp	 eax, DWORD PTR [esi]
  00012	5e		 pop	 esi
  00013	75 04		 jne	 SHORT $L102059

; 119  : 	{
; 120  : 		//   
; 121  : 		return NULL;

  00015	33 c0		 xor	 eax, eax
  00017	eb 03		 jmp	 SHORT $L102055
$L102059:

; 122  : 	}
; 123  : 
; 124  : 	//  
; 125  : 	return (*iData).second;

  00019	8b 40 14	 mov	 eax, DWORD PTR [eax+20]
$L102055:

; 126  : }

  0001c	c2 04 00	 ret	 4
?GetData@?$CTypeMap2@VSERVER_INFO@@@@UAEPAVSERVER_INFO@@I@Z ENDP ; CTypeMap2<SERVER_INFO>::GetData
_TEXT	ENDS
PUBLIC	?erase@?$_Rb_tree@IU?$pair@$$CBIPAVSERVER_INFO@@@_STL@@U?$_Select1st@U?$pair@$$CBIPAVSERVER_INFO@@@_STL@@@2@U?$less@I@2@V?$allocator@U?$pair@$$CBIPAVSERVER_INFO@@@_STL@@@2@@_STL@@QAEXU?$_Rb_tree_iterator@U?$pair@$$CBIPAVSERVER_INFO@@@_STL@@U?$_Nonconst_traits@U?$pair@$$CBIPAVSERVER_INFO@@@_STL@@@2@@2@@Z ; _STL::_Rb_tree<unsigned int,_STL::pair<unsigned int const ,SERVER_INFO *>,_STL::_Select1st<_STL::pair<unsigned int const ,SERVER_INFO *> >,_STL::less<unsigned int>,_STL::allocator<_STL::pair<unsigned int const ,SERVER_INFO *> > >::erase
; Function compile flags: /Ogsy
;	COMDAT ?RemoveData@?$CTypeMap2@VSERVER_INFO@@@@UAE_NI@Z
_TEXT	SEGMENT
_id$ = 8						; size = 4
?RemoveData@?$CTypeMap2@VSERVER_INFO@@@@UAE_NI@Z PROC NEAR ; CTypeMap2<SERVER_INFO>::RemoveData, COMDAT
; _this$ = ecx

; 153  : {

  00000	53		 push	 ebx
  00001	56		 push	 esi
  00002	57		 push	 edi

; 154  : 	TYPE_MAP::iterator	iData = find( id );

  00003	8d 79 04	 lea	 edi, DWORD PTR [ecx+4]
  00006	8d 44 24 10	 lea	 eax, DWORD PTR _id$[esp+8]
  0000a	50		 push	 eax
  0000b	8b cf		 mov	 ecx, edi
  0000d	e8 00 00 00 00	 call	 ??$_M_find@I@?$_Rb_tree@IU?$pair@$$CBIPAVSERVER_INFO@@@_STL@@U?$_Select1st@U?$pair@$$CBIPAVSERVER_INFO@@@_STL@@@2@U?$less@I@2@V?$allocator@U?$pair@$$CBIPAVSERVER_INFO@@@_STL@@@2@@_STL@@ABEPAU?$_Rb_tree_node@U?$pair@$$CBIPAVSERVER_INFO@@@_STL@@@1@ABI@Z ; _STL::_Rb_tree<unsigned int,_STL::pair<unsigned int const ,SERVER_INFO *>,_STL::_Select1st<_STL::pair<unsigned int const ,SERVER_INFO *> >,_STL::less<unsigned int>,_STL::allocator<_STL::pair<unsigned int const ,SERVER_INFO *> > >::_M_find<unsigned int>
  00012	8b f0		 mov	 esi, eax

; 155  : 
; 156  : 	if (iData == end())

  00014	3b 37		 cmp	 esi, DWORD PTR [edi]
  00016	75 04		 jne	 SHORT $L102068

; 157  : 	{
; 158  : 		//   
; 159  : 		return false;

  00018	32 c0		 xor	 al, al
  0001a	eb 23		 jmp	 SHORT $L102064
$L102068:

; 160  : 	}
; 161  : 
; 162  : 	//   .
; 163  : 	delete (*iData).second;

  0001c	8b 5e 14	 mov	 ebx, DWORD PTR [esi+20]
  0001f	85 db		 test	 ebx, ebx
  00021	74 0e		 je	 SHORT $L104468
  00023	8b cb		 mov	 ecx, ebx
  00025	e8 00 00 00 00	 call	 ??1SERVER_INFO@@QAE@XZ	; SERVER_INFO::~SERVER_INFO
  0002a	53		 push	 ebx
  0002b	e8 00 00 00 00	 call	 ??3@YAXPAX@Z		; operator delete
  00030	59		 pop	 ecx
$L104468:

; 164  : 
; 165  : 	erase( iData );

  00031	51		 push	 ecx
  00032	8b c4		 mov	 eax, esp
  00034	8b cf		 mov	 ecx, edi
  00036	89 30		 mov	 DWORD PTR [eax], esi
  00038	e8 00 00 00 00	 call	 ?erase@?$_Rb_tree@IU?$pair@$$CBIPAVSERVER_INFO@@@_STL@@U?$_Select1st@U?$pair@$$CBIPAVSERVER_INFO@@@_STL@@@2@U?$less@I@2@V?$allocator@U?$pair@$$CBIPAVSERVER_INFO@@@_STL@@@2@@_STL@@QAEXU?$_Rb_tree_iterator@U?$pair@$$CBIPAVSERVER_INFO@@@_STL@@U?$_Nonconst_traits@U?$pair@$$CBIPAVSERVER_INFO@@@_STL@@@2@@2@@Z ; _STL::_Rb_tree<unsigned int,_STL::pair<unsigned int const ,SERVER_INFO *>,_STL::_Select1st<_STL::pair<unsigned int const ,SERVER_INFO *> >,_STL::less<unsigned int>,_STL::allocator<_STL::pair<unsigned int const ,SERVER_INFO *> > >::erase

; 166  : 
; 167  : 	return true;

  0003d	b0 01		 mov	 al, 1
$L102064:

; 168  : }

  0003f	5f		 pop	 edi
  00040	5e		 pop	 esi
  00041	5b		 pop	 ebx
  00042	c2 04 00	 ret	 4
?RemoveData@?$CTypeMap2@VSERVER_INFO@@@@UAE_NI@Z ENDP	; CTypeMap2<SERVER_INFO>::RemoveData
_TEXT	ENDS
EXTRN	?_Rebalance_for_erase@?$_Rb_global@_N@_STL@@SAPAU_Rb_tree_node_base@2@PAU32@AAPAU32@11@Z:NEAR ; _STL::_Rb_global<bool>::_Rebalance_for_erase
; Function compile flags: /Ogsy
; File c:\stlport-4.6.1\stlport\stl\_tree.h
;	COMDAT ?erase@?$_Rb_tree@IU?$pair@$$CBIPAVSERVER_INFO@@@_STL@@U?$_Select1st@U?$pair@$$CBIPAVSERVER_INFO@@@_STL@@@2@U?$less@I@2@V?$allocator@U?$pair@$$CBIPAVSERVER_INFO@@@_STL@@@2@@_STL@@QAEXU?$_Rb_tree_iterator@U?$pair@$$CBIPAVSERVER_INFO@@@_STL@@U?$_Nonconst_traits@U?$pair@$$CBIPAVSERVER_INFO@@@_STL@@@2@@2@@Z
_TEXT	SEGMENT
___position$ = 8					; size = 4
?erase@?$_Rb_tree@IU?$pair@$$CBIPAVSERVER_INFO@@@_STL@@U?$_Select1st@U?$pair@$$CBIPAVSERVER_INFO@@@_STL@@@2@U?$less@I@2@V?$allocator@U?$pair@$$CBIPAVSERVER_INFO@@@_STL@@@2@@_STL@@QAEXU?$_Rb_tree_iterator@U?$pair@$$CBIPAVSERVER_INFO@@@_STL@@U?$_Nonconst_traits@U?$pair@$$CBIPAVSERVER_INFO@@@_STL@@@2@@2@@Z PROC NEAR ; _STL::_Rb_tree<unsigned int,_STL::pair<unsigned int const ,SERVER_INFO *>,_STL::_Select1st<_STL::pair<unsigned int const ,SERVER_INFO *> >,_STL::less<unsigned int>,_STL::allocator<_STL::pair<unsigned int const ,SERVER_INFO *> > >::erase, COMDAT
; _this$ = ecx

; 416  :   void erase(iterator __position) {

  00000	56		 push	 esi
  00001	8b f1		 mov	 esi, ecx

; 417  :     _Link_type __y = 
; 418  :       (_Link_type) _Rb_global_inst::_Rebalance_for_erase(__position._M_node,
; 419  : 							 this->_M_header._M_data->_M_parent,
; 420  : 							 this->_M_header._M_data->_M_left,
; 421  : 							 this->_M_header._M_data->_M_right);

  00003	8b 06		 mov	 eax, DWORD PTR [esi]
  00005	8d 48 0c	 lea	 ecx, DWORD PTR [eax+12]
  00008	51		 push	 ecx
  00009	8d 48 08	 lea	 ecx, DWORD PTR [eax+8]
  0000c	51		 push	 ecx
  0000d	83 c0 04	 add	 eax, 4
  00010	50		 push	 eax
  00011	ff 74 24 14	 push	 DWORD PTR ___position$[esp+12]
  00015	e8 00 00 00 00	 call	 ?_Rebalance_for_erase@?$_Rb_global@_N@_STL@@SAPAU_Rb_tree_node_base@2@PAU32@AAPAU32@11@Z ; _STL::_Rb_global<bool>::_Rebalance_for_erase
  0001a	83 c4 10	 add	 esp, 16			; 00000010H

; 422  :     _STLP_STD::_Destroy(&__y->_M_value_field);
; 423  :     this->_M_header.deallocate(__y,1);

  0001d	6a 01		 push	 1
  0001f	50		 push	 eax
  00020	8b ce		 mov	 ecx, esi
  00022	e8 00 00 00 00	 call	 ?deallocate@?$allocator@U?$_Rb_tree_node@U?$pair@$$CBIPAVSERVER_INFO@@@_STL@@@_STL@@@_STL@@QAEXPAU?$_Rb_tree_node@U?$pair@$$CBIPAVSERVER_INFO@@@_STL@@@2@I@Z ; _STL::allocator<_STL::_Rb_tree_node<_STL::pair<unsigned int const ,SERVER_INFO *> > >::deallocate

; 424  :     --_M_node_count;

  00027	ff 4e 04	 dec	 DWORD PTR [esi+4]
  0002a	5e		 pop	 esi

; 425  :   }

  0002b	c2 04 00	 ret	 4
?erase@?$_Rb_tree@IU?$pair@$$CBIPAVSERVER_INFO@@@_STL@@U?$_Select1st@U?$pair@$$CBIPAVSERVER_INFO@@@_STL@@@2@U?$less@I@2@V?$allocator@U?$pair@$$CBIPAVSERVER_INFO@@@_STL@@@2@@_STL@@QAEXU?$_Rb_tree_iterator@U?$pair@$$CBIPAVSERVER_INFO@@@_STL@@U?$_Nonconst_traits@U?$pair@$$CBIPAVSERVER_INFO@@@_STL@@@2@@2@@Z ENDP ; _STL::_Rb_tree<unsigned int,_STL::pair<unsigned int const ,SERVER_INFO *>,_STL::_Select1st<_STL::pair<unsigned int const ,SERVER_INFO *> >,_STL::less<unsigned int>,_STL::allocator<_STL::pair<unsigned int const ,SERVER_INFO *> > >::erase
_TEXT	ENDS
PUBLIC	??1?$CTypeMap2@VSERVER_INFO@@@@UAE@XZ		; CTypeMap2<SERVER_INFO>::~CTypeMap2<SERVER_INFO>
;	COMDAT xdata$x
; File c:\stlport-4.6.1\stlport\stl\char_traits.h
xdata$x	SEGMENT
$T104551 DD	0ffffffffH
	DD	FLAT:$L104542
$T104549 DD	019930520H
	DD	01H
	DD	FLAT:$T104551
	DD	2 DUP(00H)
	DD	2 DUP(00H)
; Function compile flags: /Ogsy
; File c:\darkeden\designed_common\project\client\ctypemap2.h
xdata$x	ENDS
;	COMDAT ??1?$CTypeMap2@VSERVER_INFO@@@@UAE@XZ
_TEXT	SEGMENT
_this$ = -16						; size = 4
__$EHRec$ = -12						; size = 12
??1?$CTypeMap2@VSERVER_INFO@@@@UAE@XZ PROC NEAR		; CTypeMap2<SERVER_INFO>::~CTypeMap2<SERVER_INFO>, COMDAT
; _this$ = ecx

; 60   : {

  00000	b8 00 00 00 00	 mov	 eax, __ehhandler$??1?$CTypeMap2@VSERVER_INFO@@@@UAE@XZ
  00005	e8 00 00 00 00	 call	 __EH_prolog
  0000a	51		 push	 ecx
  0000b	56		 push	 esi
  0000c	8b f1		 mov	 esi, ecx
  0000e	89 75 f0	 mov	 DWORD PTR _this$[ebp], esi
  00011	c7 06 00 00 00
	00		 mov	 DWORD PTR [esi], OFFSET FLAT:??_7?$CTypeMap2@VSERVER_INFO@@@@6B@
  00017	83 65 fc 00	 and	 DWORD PTR __$EHRec$[ebp+8], 0

; 61   : 	Release();

  0001b	e8 00 00 00 00	 call	 ?Release@?$CTypeMap2@VSERVER_INFO@@@@UAEXXZ ; CTypeMap2<SERVER_INFO>::Release

; 62   : }

  00020	83 4d fc ff	 or	 DWORD PTR __$EHRec$[ebp+8], -1
  00024	8d 4e 04	 lea	 ecx, DWORD PTR [esi+4]
  00027	e8 00 00 00 00	 call	 ??1?$_Rb_tree@IU?$pair@$$CBIPAVSERVER_INFO@@@_STL@@U?$_Select1st@U?$pair@$$CBIPAVSERVER_INFO@@@_STL@@@2@U?$less@I@2@V?$allocator@U?$pair@$$CBIPAVSERVER_INFO@@@_STL@@@2@@_STL@@QAE@XZ ; _STL::_Rb_tree<unsigned int,_STL::pair<unsigned int const ,SERVER_INFO *>,_STL::_Select1st<_STL::pair<unsigned int const ,SERVER_INFO *> >,_STL::less<unsigned int>,_STL::allocator<_STL::pair<unsigned int const ,SERVER_INFO *> > >::~_Rb_tree<unsigned int,_STL::pair<unsigned int const ,SERVER_INFO *>,_STL::_Select1st<_STL::pair<unsigned int const ,SERVER_INFO *> >,_STL::less<unsigned int>,_STL::allocator<_STL::pair<unsigned int const ,SERVER_INFO *> > >
  0002c	8b 4d f4	 mov	 ecx, DWORD PTR __$EHRec$[ebp]
  0002f	5e		 pop	 esi
  00030	64 89 0d 00 00
	00 00		 mov	 DWORD PTR fs:__except_list, ecx
  00037	c9		 leave
  00038	c3		 ret	 0
_TEXT	ENDS
;	COMDAT text$x
text$x	SEGMENT
$L104542:
  00000	8b 4d f0	 mov	 ecx, DWORD PTR _this$[ebp]
  00003	8b 45 f0	 mov	 eax, DWORD PTR _this$[ebp]
  00006	83 c0 04	 add	 eax, 4
  00009	f7 d9		 neg	 ecx
  0000b	1b c9		 sbb	 ecx, ecx
  0000d	23 c8		 and	 ecx, eax
  0000f	e9 00 00 00 00	 jmp	 ??1?$map@IPAVSERVER_INFO@@U?$less@I@_STL@@V?$allocator@U?$pair@$$CBIPAVSERVER_INFO@@@_STL@@@3@@_STL@@QAE@XZ
__ehhandler$??1?$CTypeMap2@VSERVER_INFO@@@@UAE@XZ:
  00014	b8 00 00 00 00	 mov	 eax, OFFSET FLAT:$T104549
  00019	e9 00 00 00 00	 jmp	 ___CxxFrameHandler
text$x	ENDS
??1?$CTypeMap2@VSERVER_INFO@@@@UAE@XZ ENDP		; CTypeMap2<SERVER_INFO>::~CTypeMap2<SERVER_INFO>
PUBLIC	??0?$CTypeMap2@VServerGroup@@@@QAE@XZ		; CTypeMap2<ServerGroup>::CTypeMap2<ServerGroup>
PUBLIC	?AddData@?$CTypeMap2@VServerGroup@@@@UAE_NIPAVServerGroup@@@Z ; CTypeMap2<ServerGroup>::AddData
PUBLIC	?GetData@?$CTypeMap2@VServerGroup@@@@UAEPAVServerGroup@@I@Z ; CTypeMap2<ServerGroup>::GetData
PUBLIC	?GetData@?$CTypeMap2@VServerGroup@@@@UBEPBVServerGroup@@I@Z ; CTypeMap2<ServerGroup>::GetData
PUBLIC	?RemoveData@?$CTypeMap2@VServerGroup@@@@UAE_NI@Z ; CTypeMap2<ServerGroup>::RemoveData
PUBLIC	??_7?$CTypeMap2@VServerGroup@@@@6B@		; CTypeMap2<ServerGroup>::`vftable'
PUBLIC	??_G?$CTypeMap2@VServerGroup@@@@UAEPAXI@Z	; CTypeMap2<ServerGroup>::`scalar deleting destructor'
PUBLIC	??_R1A@?0A@A@?$CTypeMap2@VServerGroup@@@@8	; CTypeMap2<ServerGroup>::`RTTI Base Class Descriptor at (0,-1,0,0)'
PUBLIC	??_R0?AV?$CTypeMap2@VServerGroup@@@@@8		; CTypeMap2<ServerGroup> `RTTI Type Descriptor'
PUBLIC	??_R13?0A@A@?$map@IPAVServerGroup@@U?$less@I@_STL@@V?$allocator@U?$pair@$$CBIPAVServerGroup@@@_STL@@@3@@_STL@@8 ; _STL::map<unsigned int,ServerGroup *,_STL::less<unsigned int>,_STL::allocator<_STL::pair<unsigned int const ,ServerGroup *> > >::`RTTI Base Class Descriptor at (4,-1,0,0)'
PUBLIC	??_R0?AV?$map@IPAVServerGroup@@U?$less@I@_STL@@V?$allocator@U?$pair@$$CBIPAVServerGroup@@@_STL@@@3@@_STL@@@8 ; _STL::map<unsigned int,ServerGroup *,_STL::less<unsigned int>,_STL::allocator<_STL::pair<unsigned int const ,ServerGroup *> > > `RTTI Type Descriptor'
PUBLIC	??_R4?$CTypeMap2@VServerGroup@@@@6B@		; CTypeMap2<ServerGroup>::`RTTI Complete Object Locator'
PUBLIC	??_R3?$CTypeMap2@VServerGroup@@@@8		; CTypeMap2<ServerGroup>::`RTTI Class Hierarchy Descriptor'
PUBLIC	??_R2?$CTypeMap2@VServerGroup@@@@8		; CTypeMap2<ServerGroup>::`RTTI Base Class Array'
EXTRN	??_E?$CTypeMap2@VServerGroup@@@@UAEPAXI@Z:NEAR	; CTypeMap2<ServerGroup>::`vector deleting destructor'
;	COMDAT ??_7?$CTypeMap2@VServerGroup@@@@6B@
CONST	SEGMENT
??_7?$CTypeMap2@VServerGroup@@@@6B@ DD FLAT:??_R4?$CTypeMap2@VServerGroup@@@@6B@ ; CTypeMap2<ServerGroup>::`vftable'
	DD	FLAT:??_E?$CTypeMap2@VServerGroup@@@@UAEPAXI@Z
	DD	FLAT:?Release@?$CTypeMap2@VServerGroup@@@@UAEXXZ
	DD	FLAT:?AddData@?$CTypeMap2@VServerGroup@@@@UAE_NIPAVServerGroup@@@Z
	DD	FLAT:?GetData@?$CTypeMap2@VServerGroup@@@@UBEPBVServerGroup@@I@Z
	DD	FLAT:?GetData@?$CTypeMap2@VServerGroup@@@@UAEPAVServerGroup@@I@Z
	DD	FLAT:?RemoveData@?$CTypeMap2@VServerGroup@@@@UAE_NI@Z
CONST	ENDS
;	COMDAT ??_R4?$CTypeMap2@VServerGroup@@@@6B@
rdata$r	SEGMENT
??_R4?$CTypeMap2@VServerGroup@@@@6B@ DD 00H		; CTypeMap2<ServerGroup>::`RTTI Complete Object Locator'
	DD	00H
	DD	00H
	DD	FLAT:??_R0?AV?$CTypeMap2@VServerGroup@@@@@8
	DD	FLAT:??_R3?$CTypeMap2@VServerGroup@@@@8
rdata$r	ENDS
;	COMDAT ??_R0?AV?$CTypeMap2@VServerGroup@@@@@8
_DATA	SEGMENT
??_R0?AV?$CTypeMap2@VServerGroup@@@@@8 DD FLAT:??_7type_info@@6B@ ; CTypeMap2<ServerGroup> `RTTI Type Descriptor'
	DD	00H
	DB	'.?AV?$CTypeMap2@VServerGroup@@@@', 00H
_DATA	ENDS
;	COMDAT ??_R3?$CTypeMap2@VServerGroup@@@@8
rdata$r	SEGMENT
??_R3?$CTypeMap2@VServerGroup@@@@8 DD 00H		; CTypeMap2<ServerGroup>::`RTTI Class Hierarchy Descriptor'
	DD	00H
	DD	02H
	DD	FLAT:??_R2?$CTypeMap2@VServerGroup@@@@8
rdata$r	ENDS
;	COMDAT ??_R2?$CTypeMap2@VServerGroup@@@@8
rdata$r	SEGMENT
??_R2?$CTypeMap2@VServerGroup@@@@8 DD FLAT:??_R1A@?0A@A@?$CTypeMap2@VServerGroup@@@@8 ; CTypeMap2<ServerGroup>::`RTTI Base Class Array'
	DD	FLAT:??_R13?0A@A@?$map@IPAVServerGroup@@U?$less@I@_STL@@V?$allocator@U?$pair@$$CBIPAVServerGroup@@@_STL@@@3@@_STL@@8
rdata$r	ENDS
;	COMDAT ??_R1A@?0A@A@?$CTypeMap2@VServerGroup@@@@8
rdata$r	SEGMENT
??_R1A@?0A@A@?$CTypeMap2@VServerGroup@@@@8 DD FLAT:??_R0?AV?$CTypeMap2@VServerGroup@@@@@8 ; CTypeMap2<ServerGroup>::`RTTI Base Class Descriptor at (0,-1,0,0)'
	DD	01H
	DD	00H
	DD	0ffffffffH
	DD	00H
	DD	00H
rdata$r	ENDS
;	COMDAT ??_R13?0A@A@?$map@IPAVServerGroup@@U?$less@I@_STL@@V?$allocator@U?$pair@$$CBIPAVServerGroup@@@_STL@@@3@@_STL@@8
rdata$r	SEGMENT
??_R13?0A@A@?$map@IPAVServerGroup@@U?$less@I@_STL@@V?$allocator@U?$pair@$$CBIPAVServerGroup@@@_STL@@@3@@_STL@@8 DD FLAT:??_R0?AV?$map@IPAVServerGroup@@U?$less@I@_STL@@V?$allocator@U?$pair@$$CBIPAVServerGroup@@@_STL@@@3@@_STL@@@8 ; _STL::map<unsigned int,ServerGroup *,_STL::less<unsigned int>,_STL::allocator<_STL::pair<unsigned int const ,ServerGroup *> > >::`RTTI Base Class Descriptor at (4,-1,0,0)'
	DD	00H
	DD	04H
	DD	0ffffffffH
	DD	00H
	DD	00H
rdata$r	ENDS
;	COMDAT ??_R0?AV?$map@IPAVServerGroup@@U?$less@I@_STL@@V?$allocator@U?$pair@$$CBIPAVServerGroup@@@_STL@@@3@@_STL@@@8
_DATA	SEGMENT
??_R0?AV?$map@IPAVServerGroup@@U?$less@I@_STL@@V?$allocator@U?$pair@$$CBIPAVServerGroup@@@_STL@@@3@@_STL@@@8 DD FLAT:??_7type_info@@6B@ ; _STL::map<unsigned int,ServerGroup *,_STL::less<unsigned int>,_STL::allocator<_STL::pair<unsigned int const ,ServerGroup *> > > `RTTI Type Descriptor'
	DD	00H
	DB	'.?AV?$map@IPAVServerGroup@@U?$less@I@_STL@@V?$allocator@'
	DB	'U?$pair@$$CBIPAVServerGroup@@@_STL@@@3@@_STL@@', 00H
; Function compile flags: /Ogsy
_DATA	ENDS
;	COMDAT ??0?$CTypeMap2@VServerGroup@@@@QAE@XZ
_TEXT	SEGMENT
??0?$CTypeMap2@VServerGroup@@@@QAE@XZ PROC NEAR		; CTypeMap2<ServerGroup>::CTypeMap2<ServerGroup>, COMDAT
; _this$ = ecx

; 55   : {

  00000	56		 push	 esi
  00001	8b f1		 mov	 esi, ecx
  00003	8d 4e 04	 lea	 ecx, DWORD PTR [esi+4]
  00006	e8 00 00 00 00	 call	 ??0?$map@IPAVServerGroup@@U?$less@I@_STL@@V?$allocator@U?$pair@$$CBIPAVServerGroup@@@_STL@@@3@@_STL@@QAE@XZ ; _STL::map<unsigned int,ServerGroup *,_STL::less<unsigned int>,_STL::allocator<_STL::pair<unsigned int const ,ServerGroup *> > >::map<unsigned int,ServerGroup *,_STL::less<unsigned int>,_STL::allocator<_STL::pair<unsigned int const ,ServerGroup *> > >
  0000b	c7 06 00 00 00
	00		 mov	 DWORD PTR [esi], OFFSET FLAT:??_7?$CTypeMap2@VServerGroup@@@@6B@

; 56   : }

  00011	8b c6		 mov	 eax, esi
  00013	5e		 pop	 esi
  00014	c3		 ret	 0
??0?$CTypeMap2@VServerGroup@@@@QAE@XZ ENDP		; CTypeMap2<ServerGroup>::CTypeMap2<ServerGroup>
_TEXT	ENDS
PUBLIC	??$_M_find@I@?$_Rb_tree@IU?$pair@$$CBIPAVServerGroup@@@_STL@@U?$_Select1st@U?$pair@$$CBIPAVServerGroup@@@_STL@@@2@U?$less@I@2@V?$allocator@U?$pair@$$CBIPAVServerGroup@@@_STL@@@2@@_STL@@ABEPAU?$_Rb_tree_node@U?$pair@$$CBIPAVServerGroup@@@_STL@@@1@ABI@Z ; _STL::_Rb_tree<unsigned int,_STL::pair<unsigned int const ,ServerGroup *>,_STL::_Select1st<_STL::pair<unsigned int const ,ServerGroup *> >,_STL::less<unsigned int>,_STL::allocator<_STL::pair<unsigned int const ,ServerGroup *> > >::_M_find<unsigned int>
; Function compile flags: /Ogsy
;	COMDAT ?GetData@?$CTypeMap2@VServerGroup@@@@UBEPBVServerGroup@@I@Z
_TEXT	SEGMENT
_id$ = 8						; size = 4
?GetData@?$CTypeMap2@VServerGroup@@@@UBEPBVServerGroup@@I@Z PROC NEAR ; CTypeMap2<ServerGroup>::GetData, COMDAT
; _this$ = ecx

; 134  : {

  00000	56		 push	 esi

; 135  : 	TYPE_MAP::const_iterator	iData = find( id );

  00001	8d 71 04	 lea	 esi, DWORD PTR [ecx+4]
  00004	8d 44 24 08	 lea	 eax, DWORD PTR _id$[esp]
  00008	50		 push	 eax
  00009	8b ce		 mov	 ecx, esi
  0000b	e8 00 00 00 00	 call	 ??$_M_find@I@?$_Rb_tree@IU?$pair@$$CBIPAVServerGroup@@@_STL@@U?$_Select1st@U?$pair@$$CBIPAVServerGroup@@@_STL@@@2@U?$less@I@2@V?$allocator@U?$pair@$$CBIPAVServerGroup@@@_STL@@@2@@_STL@@ABEPAU?$_Rb_tree_node@U?$pair@$$CBIPAVServerGroup@@@_STL@@@1@ABI@Z ; _STL::_Rb_tree<unsigned int,_STL::pair<unsigned int const ,ServerGroup *>,_STL::_Select1st<_STL::pair<unsigned int const ,ServerGroup *> >,_STL::less<unsigned int>,_STL::allocator<_STL::pair<unsigned int const ,ServerGroup *> > >::_M_find<unsigned int>

; 136  : 
; 137  : 	if (iData == end())

  00010	3b 06		 cmp	 eax, DWORD PTR [esi]
  00012	5e		 pop	 esi
  00013	75 04		 jne	 SHORT $L102220

; 138  : 	{
; 139  : 		//   
; 140  : 		return NULL;

  00015	33 c0		 xor	 eax, eax
  00017	eb 03		 jmp	 SHORT $L102180
$L102220:

; 141  : 	}
; 142  : 
; 143  : 	//  
; 144  : 	return (*iData).second;

  00019	8b 40 14	 mov	 eax, DWORD PTR [eax+20]
$L102180:

; 145  : }

  0001c	c2 04 00	 ret	 4
?GetData@?$CTypeMap2@VServerGroup@@@@UBEPBVServerGroup@@I@Z ENDP ; CTypeMap2<ServerGroup>::GetData
; Function compile flags: /Ogsy
; File c:\stlport-4.6.1\stlport\stl\_tree.h
_TEXT	ENDS
;	COMDAT ??$_M_find@I@?$_Rb_tree@IU?$pair@$$CBIPAVServerGroup@@@_STL@@U?$_Select1st@U?$pair@$$CBIPAVServerGroup@@@_STL@@@2@U?$less@I@2@V?$allocator@U?$pair@$$CBIPAVServerGroup@@@_STL@@@2@@_STL@@ABEPAU?$_Rb_tree_node@U?$pair@$$CBIPAVServerGroup@@@_STL@@@1@ABI@Z
_TEXT	SEGMENT
___k$ = 8						; size = 4
??$_M_find@I@?$_Rb_tree@IU?$pair@$$CBIPAVServerGroup@@@_STL@@U?$_Select1st@U?$pair@$$CBIPAVServerGroup@@@_STL@@@2@U?$less@I@2@V?$allocator@U?$pair@$$CBIPAVServerGroup@@@_STL@@@2@@_STL@@ABEPAU?$_Rb_tree_node@U?$pair@$$CBIPAVServerGroup@@@_STL@@@1@ABI@Z PROC NEAR ; _STL::_Rb_tree<unsigned int,_STL::pair<unsigned int const ,ServerGroup *>,_STL::_Select1st<_STL::pair<unsigned int const ,ServerGroup *> >,_STL::less<unsigned int>,_STL::allocator<_STL::pair<unsigned int const ,ServerGroup *> > >::_M_find<unsigned int>, COMDAT
; _this$ = ecx

; 462  : # else
; 463  :   iterator find(const key_type& __x) { return iterator(_M_find(__x)); }
; 464  :   const_iterator find(const key_type& __x) const { return const_iterator(_M_find(__x)); }
; 465  : private:
; 466  :   _Rb_tree_node<_Value>* _M_find(const key_type& __k) const
; 467  : # endif
; 468  :   {
; 469  :     _Link_type __y = this->_M_header._M_data;      // Last node which is not less than __k. 

  00000	8b 11		 mov	 edx, DWORD PTR [ecx]

; 470  :     _Link_type __x = _M_root();      // Current node. 

  00002	8b 4a 04	 mov	 ecx, DWORD PTR [edx+4]

; 471  :     
; 472  :     while (__x != 0) 

  00005	85 c9		 test	 ecx, ecx
  00007	57		 push	 edi
  00008	8b 7c 24 08	 mov	 edi, DWORD PTR ___k$[esp]
  0000c	8b c2		 mov	 eax, edx
  0000e	74 17		 je	 SHORT $L103039
  00010	56		 push	 esi
  00011	8b 37		 mov	 esi, DWORD PTR [edi]
$L103038:

; 473  :       if (!_M_key_compare(_S_key(__x), __k))

  00013	39 71 10	 cmp	 DWORD PTR [ecx+16], esi
  00016	72 07		 jb	 SHORT $L103040

