; Listing generated by Microsoft (R) Optimizing Compiler Version 13.10.3077 

	TITLE	\darkeden\Designed_Common\Project\Client\Packet\SlayerSkillInfo.cpp
	.386P
include listing.inc
if @Version gt 510
.model FLAT
else
_TEXT	SEGMENT PARA USE32 PUBLIC 'CODE'
_TEXT	ENDS
_DATA	SEGMENT DWORD USE32 PUBLIC 'DATA'
_DATA	ENDS
CONST	SEGMENT DWORD USE32 PUBLIC 'CONST'
CONST	ENDS
_BSS	SEGMENT DWORD USE32 PUBLIC 'BSS'
_BSS	ENDS
$$SYMBOLS	SEGMENT BYTE USE32 'DEBSYM'
$$SYMBOLS	ENDS
$$TYPES	SEGMENT BYTE USE32 'DEBTYP'
$$TYPES	ENDS
_TLS	SEGMENT DWORD USE32 PUBLIC 'TLS'
_TLS	ENDS
;	COMDAT ??_C@_0CA@NDINADEE@SocketOutputStream?$CIm_BufferLen?3?$AA@
CONST	SEGMENT DWORD USE32 PUBLIC 'CONST'
CONST	ENDS
;	COMDAT ??_C@_08LIHEOLAN@?0m_Head?3?$AA@
CONST	SEGMENT DWORD USE32 PUBLIC 'CONST'
CONST	ENDS
;	COMDAT ??_C@_08PCEHPGHK@?0m_Tail?3?$AA@
CONST	SEGMENT DWORD USE32 PUBLIC 'CONST'
CONST	ENDS
;	COMDAT ??_C@_01PKGAHCOL@?$CJ?$AA@
CONST	SEGMENT DWORD USE32 PUBLIC 'CONST'
CONST	ENDS
;	COMDAT ??_C@_0N@GOPDCEEB@basic_string?$AA@
CONST	SEGMENT DWORD USE32 PUBLIC 'CONST'
CONST	ENDS
xdata$x	SEGMENT DWORD USE32 PUBLIC 'CONST'
xdata$x	ENDS
rdata$r	SEGMENT DWORD USE32 PUBLIC 'CONST'
rdata$r	ENDS
text$yc	SEGMENT PARA USE32 PUBLIC 'CODE'
text$yc	ENDS
CRT$XCA	SEGMENT DWORD USE32 PUBLIC 'DATA'
CRT$XCA	ENDS
CRT$XCU	SEGMENT DWORD USE32 PUBLIC 'DATA'
CRT$XCU	ENDS
CRT$XCL	SEGMENT DWORD USE32 PUBLIC 'DATA'
CRT$XCL	ENDS
CRT$XCC	SEGMENT DWORD USE32 PUBLIC 'DATA'
CRT$XCC	ENDS
CRT$XCZ	SEGMENT DWORD USE32 PUBLIC 'DATA'
CRT$XCZ	ENDS
text$yd	SEGMENT PARA USE32 PUBLIC 'CODE'
text$yd	ENDS
;	COMDAT ?getHost@SocketImpl@@QBE?AV?$basic_string@DV?$char_traits@D@_STL@@V?$allocator@D@2@@_STL@@XZ
_TEXT	SEGMENT PARA USE32 PUBLIC 'CODE'
_TEXT	ENDS
;	COMDAT ?getPort@SocketImpl@@QBEIXZ
_TEXT	SEGMENT PARA USE32 PUBLIC 'CODE'
_TEXT	ENDS
;	COMDAT ?isValid@SocketImpl@@QBE_NXZ
_TEXT	SEGMENT PARA USE32 PUBLIC 'CODE'
_TEXT	ENDS
;	COMDAT ?getSOCKET@SocketImpl@@QBEIXZ
_TEXT	SEGMENT PARA USE32 PUBLIC 'CODE'
_TEXT	ENDS
;	COMDAT ?read@SocketInputStream@@QAEIAA_N@Z
_TEXT	SEGMENT PARA USE32 PUBLIC 'CODE'
_TEXT	ENDS
;	COMDAT ?read@SocketInputStream@@QAEIAAE@Z
_TEXT	SEGMENT PARA USE32 PUBLIC 'CODE'
_TEXT	ENDS
;	COMDAT ?write@SocketOutputStream@@QAEI_N@Z
_TEXT	SEGMENT PARA USE32 PUBLIC 'CODE'
_TEXT	ENDS
;	COMDAT ?write@SocketOutputStream@@QAEIE@Z
_TEXT	SEGMENT PARA USE32 PUBLIC 'CODE'
_TEXT	ENDS
;	COMDAT ?write@SocketOutputStream@@QAEIG@Z
_TEXT	SEGMENT PARA USE32 PUBLIC 'CODE'
_TEXT	ENDS
;	COMDAT ?write@SocketOutputStream@@QAEII@Z
_TEXT	SEGMENT PARA USE32 PUBLIC 'CODE'
_TEXT	ENDS
;	COMDAT ??1Packet@@UAE@XZ
_TEXT	SEGMENT PARA USE32 PUBLIC 'CODE'
_TEXT	ENDS
;	COMDAT ?read@Packet@@UAEXPAVSocket@@@Z
_TEXT	SEGMENT PARA USE32 PUBLIC 'CODE'
_TEXT	ENDS
;	COMDAT ?write@Packet@@UBEXPAVSocket@@@Z
_TEXT	SEGMENT PARA USE32 PUBLIC 'CODE'
_TEXT	ENDS
;	COMDAT ??_GPacket@@UAEPAXI@Z
_TEXT	SEGMENT PARA USE32 PUBLIC 'CODE'
_TEXT	ENDS
;	COMDAT ??0UnsupportedError@@QAE@ABV0@@Z
_TEXT	SEGMENT PARA USE32 PUBLIC 'CODE'
_TEXT	ENDS
;	COMDAT ??0Error@@QAE@ABV0@@Z
_TEXT	SEGMENT PARA USE32 PUBLIC 'CODE'
_TEXT	ENDS
;	COMDAT ??0Throwable@@QAE@ABV0@@Z
_TEXT	SEGMENT PARA USE32 PUBLIC 'CODE'
_TEXT	ENDS
;	COMDAT ??0PCSkillInfo@@QAE@XZ
_TEXT	SEGMENT PARA USE32 PUBLIC 'CODE'
_TEXT	ENDS
;	COMDAT ??1PCSkillInfo@@UAE@XZ
_TEXT	SEGMENT PARA USE32 PUBLIC 'CODE'
_TEXT	ENDS
;	COMDAT ??_GPCSkillInfo@@UAEPAXI@Z
_TEXT	SEGMENT PARA USE32 PUBLIC 'CODE'
_TEXT	ENDS
;	COMDAT ?getSize@SubSlayerSkillInfo@@QBEIXZ
_TEXT	SEGMENT PARA USE32 PUBLIC 'CODE'
_TEXT	ENDS
;	COMDAT ?getMaxSize@SubSlayerSkillInfo@@SAIXZ
_TEXT	SEGMENT PARA USE32 PUBLIC 'CODE'
_TEXT	ENDS
;	COMDAT ??0SlayerSkillInfo@@QAE@XZ
_TEXT	SEGMENT PARA USE32 PUBLIC 'CODE'
_TEXT	ENDS
;	COMDAT ??_GSlayerSkillInfo@@UAEPAXI@Z
_TEXT	SEGMENT PARA USE32 PUBLIC 'CODE'
_TEXT	ENDS
;	COMDAT ??1SlayerSkillInfo@@UAE@XZ
_TEXT	SEGMENT PARA USE32 PUBLIC 'CODE'
_TEXT	ENDS
;	COMDAT ?read@SlayerSkillInfo@@UAEXAAVSocketInputStream@@@Z
_TEXT	SEGMENT PARA USE32 PUBLIC 'CODE'
_TEXT	ENDS
;	COMDAT ?write@SlayerSkillInfo@@UBEXAAVSocketOutputStream@@@Z
_TEXT	SEGMENT PARA USE32 PUBLIC 'CODE'
_TEXT	ENDS
;	COMDAT ?getSize@SlayerSkillInfo@@UAEIXZ
_TEXT	SEGMENT PARA USE32 PUBLIC 'CODE'
_TEXT	ENDS
;	COMDAT ?eq@?$__char_traits_base@DH@_STL@@SA_NABD0@Z
_TEXT	SEGMENT PARA USE32 PUBLIC 'CODE'
_TEXT	ENDS
;	COMDAT ?not_eof@?$__char_traits_base@DH@_STL@@SAHABH@Z
_TEXT	SEGMENT PARA USE32 PUBLIC 'CODE'
_TEXT	ENDS
;	COMDAT ?eq_int_type@?$__char_traits_base@DH@_STL@@SA_NABH0@Z
_TEXT	SEGMENT PARA USE32 PUBLIC 'CODE'
_TEXT	ENDS
;	COMDAT ?get_allocator@?$basic_string@DV?$char_traits@D@_STL@@V?$allocator@D@2@@_STL@@QBE?AV?$allocator@D@2@XZ
_TEXT	SEGMENT PARA USE32 PUBLIC 'CODE'
_TEXT	ENDS
;	COMDAT ?_M_terminate_string@?$basic_string@DV?$char_traits@D@_STL@@V?$allocator@D@2@@_STL@@AAEXXZ
_TEXT	SEGMENT PARA USE32 PUBLIC 'CODE'
_TEXT	ENDS
;	COMDAT ?size@?$basic_string@DV?$char_traits@D@_STL@@V?$allocator@D@2@@_STL@@QBEIXZ
_TEXT	SEGMENT PARA USE32 PUBLIC 'CODE'
_TEXT	ENDS
;	COMDAT ?c_str@?$basic_string@DV?$char_traits@D@_STL@@V?$allocator@D@2@@_STL@@QBEPBDXZ
_TEXT	SEGMENT PARA USE32 PUBLIC 'CODE'
_TEXT	ENDS
;	COMDAT ??0?$_String_base@DV?$allocator@D@_STL@@@_STL@@QAE@ABV?$allocator@D@1@@Z
_TEXT	SEGMENT PARA USE32 PUBLIC 'CODE'
_TEXT	ENDS
;	COMDAT ?allocate@?$allocator@D@_STL@@QAEPADIPBX@Z
_TEXT	SEGMENT PARA USE32 PUBLIC 'CODE'
_TEXT	ENDS
;	COMDAT ??0?$fpos@H@_STL@@QAE@J@Z
_TEXT	SEGMENT PARA USE32 PUBLIC 'CODE'
_TEXT	ENDS
;	COMDAT ??B?$fpos@H@_STL@@QBEJXZ
_TEXT	SEGMENT PARA USE32 PUBLIC 'CODE'
_TEXT	ENDS
;	COMDAT ?state@?$fpos@H@_STL@@QBEHXZ
_TEXT	SEGMENT PARA USE32 PUBLIC 'CODE'
_TEXT	ENDS
;	COMDAT ?is_open@?$basic_filebuf@DV?$char_traits@D@_STL@@@_STL@@QBE_NXZ
_TEXT	SEGMENT PARA USE32 PUBLIC 'CODE'
_TEXT	ENDS
;	COMDAT ?_M_seek_return@?$basic_filebuf@DV?$char_traits@D@_STL@@@_STL@@AAE?AV?$fpos@H@2@JH@Z
_TEXT	SEGMENT PARA USE32 PUBLIC 'CODE'
_TEXT	ENDS
;	COMDAT ??0?$list@V?$basic_string@DV?$char_traits@D@_STL@@V?$allocator@D@2@@_STL@@V?$allocator@V?$basic_string@DV?$char_traits@D@_STL@@V?$allocator@D@2@@_STL@@@2@@_STL@@QAE@ABV01@@Z
_TEXT	SEGMENT PARA USE32 PUBLIC 'CODE'
_TEXT	ENDS
;	COMDAT ??0?$_Filebuf_Tmp_Buf@D@_STL@@QAE@H@Z
_TEXT	SEGMENT PARA USE32 PUBLIC 'CODE'
_TEXT	ENDS
;	COMDAT ??1?$_Filebuf_Tmp_Buf@D@_STL@@QAE@XZ
_TEXT	SEGMENT PARA USE32 PUBLIC 'CODE'
_TEXT	ENDS
;	COMDAT ??0?$list@PAVSubSlayerSkillInfo@@V?$allocator@PAVSubSlayerSkillInfo@@@_STL@@@_STL@@QAE@ABV?$allocator@PAVSubSlayerSkillInfo@@@1@@Z
_TEXT	SEGMENT PARA USE32 PUBLIC 'CODE'
_TEXT	ENDS
;	COMDAT ?begin@?$list@PAVSubSlayerSkillInfo@@V?$allocator@PAVSubSlayerSkillInfo@@@_STL@@@_STL@@QAE?AU?$_List_iterator@PAVSubSlayerSkillInfo@@U?$_Nonconst_traits@PAVSubSlayerSkillInfo@@@_STL@@@2@XZ
_TEXT	SEGMENT PARA USE32 PUBLIC 'CODE'
_TEXT	ENDS
;	COMDAT ?begin@?$list@PAVSubSlayerSkillInfo@@V?$allocator@PAVSubSlayerSkillInfo@@@_STL@@@_STL@@QBE?AU?$_List_iterator@PAVSubSlayerSkillInfo@@U?$_Const_traits@PAVSubSlayerSkillInfo@@@_STL@@@2@XZ
_TEXT	SEGMENT PARA USE32 PUBLIC 'CODE'
_TEXT	ENDS
;	COMDAT ?end@?$list@PAVSubSlayerSkillInfo@@V?$allocator@PAVSubSlayerSkillInfo@@@_STL@@@_STL@@QAE?AU?$_List_iterator@PAVSubSlayerSkillInfo@@U?$_Nonconst_traits@PAVSubSlayerSkillInfo@@@_STL@@@2@XZ
_TEXT	SEGMENT PARA USE32 PUBLIC 'CODE'
_TEXT	ENDS
;	COMDAT ?end@?$list@PAVSubSlayerSkillInfo@@V?$allocator@PAVSubSlayerSkillInfo@@@_STL@@@_STL@@QBE?AU?$_List_iterator@PAVSubSlayerSkillInfo@@U?$_Const_traits@PAVSubSlayerSkillInfo@@@_STL@@@2@XZ
_TEXT	SEGMENT PARA USE32 PUBLIC 'CODE'
_TEXT	ENDS
;	COMDAT ?empty@?$list@PAVSubSlayerSkillInfo@@V?$allocator@PAVSubSlayerSkillInfo@@@_STL@@@_STL@@QBE_NXZ
_TEXT	SEGMENT PARA USE32 PUBLIC 'CODE'
_TEXT	ENDS
;	COMDAT ?front@?$list@PAVSubSlayerSkillInfo@@V?$allocator@PAVSubSlayerSkillInfo@@@_STL@@@_STL@@QAEAAPAVSubSlayerSkillInfo@@XZ
_TEXT	SEGMENT PARA USE32 PUBLIC 'CODE'
_TEXT	ENDS
;	COMDAT ?push_back@?$list@PAVSubSlayerSkillInfo@@V?$allocator@PAVSubSlayerSkillInfo@@@_STL@@@_STL@@QAEXABQAVSubSlayerSkillInfo@@@Z
_TEXT	SEGMENT PARA USE32 PUBLIC 'CODE'
_TEXT	ENDS
;	COMDAT ?pop_front@?$list@PAVSubSlayerSkillInfo@@V?$allocator@PAVSubSlayerSkillInfo@@@_STL@@@_STL@@QAEXXZ
_TEXT	SEGMENT PARA USE32 PUBLIC 'CODE'
_TEXT	ENDS
;	COMDAT ??1?$list@PAVSubSlayerSkillInfo@@V?$allocator@PAVSubSlayerSkillInfo@@@_STL@@@_STL@@QAE@XZ
_TEXT	SEGMENT PARA USE32 PUBLIC 'CODE'
_TEXT	ENDS
;	COMDAT ??0?$allocator@PAVSubSlayerSkillInfo@@@_STL@@QAE@XZ
_TEXT	SEGMENT PARA USE32 PUBLIC 'CODE'
_TEXT	ENDS
;	COMDAT ??1?$allocator@PAVSubSlayerSkillInfo@@@_STL@@QAE@XZ
_TEXT	SEGMENT PARA USE32 PUBLIC 'CODE'
_TEXT	ENDS
;	COMDAT ??0?$_List_iterator@PAVSubSlayerSkillInfo@@U?$_Const_traits@PAVSubSlayerSkillInfo@@@_STL@@@_STL@@QAE@ABU?$_List_iterator@PAVSubSlayerSkillInfo@@U?$_Nonconst_traits@PAVSubSlayerSkillInfo@@@_STL@@@1@@Z
_TEXT	SEGMENT PARA USE32 PUBLIC 'CODE'
_TEXT	ENDS
;	COMDAT ??D?$_List_iterator@PAVSubSlayerSkillInfo@@U?$_Const_traits@PAVSubSlayerSkillInfo@@@_STL@@@_STL@@QBEABQAVSubSlayerSkillInfo@@XZ
_TEXT	SEGMENT PARA USE32 PUBLIC 'CODE'
_TEXT	ENDS
;	COMDAT ??E?$_List_iterator@PAVSubSlayerSkillInfo@@U?$_Const_traits@PAVSubSlayerSkillInfo@@@_STL@@@_STL@@QAE?AU01@H@Z
_TEXT	SEGMENT PARA USE32 PUBLIC 'CODE'
_TEXT	ENDS
;	COMDAT ?_M_terminate_string_aux@?$basic_string@DV?$char_traits@D@_STL@@V?$allocator@D@2@@_STL@@AAEXABU__true_type@2@@Z
_TEXT	SEGMENT PARA USE32 PUBLIC 'CODE'
_TEXT	ENDS
;	COMDAT ??0?$allocator@D@_STL@@QAE@ABV01@@Z
_TEXT	SEGMENT PARA USE32 PUBLIC 'CODE'
_TEXT	ENDS
;	COMDAT ??0?$_STLP_alloc_proxy@PADDV?$allocator@D@_STL@@@_STL@@QAE@ABV?$allocator@D@1@PAD@Z
_TEXT	SEGMENT PARA USE32 PUBLIC 'CODE'
_TEXT	ENDS
;	COMDAT ?state@?$fpos@H@_STL@@QAEXH@Z
_TEXT	SEGMENT PARA USE32 PUBLIC 'CODE'
_TEXT	ENDS
;	COMDAT ?get_allocator@?$_List_base@V?$basic_string@DV?$char_traits@D@_STL@@V?$allocator@D@2@@_STL@@V?$allocator@V?$basic_string@DV?$char_traits@D@_STL@@V?$allocator@D@2@@_STL@@@2@@_STL@@QBE?AV?$allocator@V?$basic_string@DV?$char_traits@D@_STL@@V?$allocator@D@2@@_STL@@@2@XZ
_TEXT	SEGMENT PARA USE32 PUBLIC 'CODE'
_TEXT	ENDS
;	COMDAT ?insert@?$list@PAVSubSlayerSkillInfo@@V?$allocator@PAVSubSlayerSkillInfo@@@_STL@@@_STL@@QAE?AU?$_List_iterator@PAVSubSlayerSkillInfo@@U?$_Nonconst_traits@PAVSubSlayerSkillInfo@@@_STL@@@2@U32@ABQAVSubSlayerSkillInfo@@@Z
_TEXT	SEGMENT PARA USE32 PUBLIC 'CODE'
_TEXT	ENDS
;	COMDAT ?erase@?$list@PAVSubSlayerSkillInfo@@V?$allocator@PAVSubSlayerSkillInfo@@@_STL@@@_STL@@QAE?AU?$_List_iterator@PAVSubSlayerSkillInfo@@U?$_Nonconst_traits@PAVSubSlayerSkillInfo@@@_STL@@@2@U32@@Z
_TEXT	SEGMENT PARA USE32 PUBLIC 'CODE'
_TEXT	ENDS
;	COMDAT ??0?$_List_base@PAVSubSlayerSkillInfo@@V?$allocator@PAVSubSlayerSkillInfo@@@_STL@@@_STL@@QAE@ABV?$allocator@PAVSubSlayerSkillInfo@@@1@@Z
_TEXT	SEGMENT PARA USE32 PUBLIC 'CODE'
_TEXT	ENDS
;	COMDAT ??1?$_List_base@PAVSubSlayerSkillInfo@@V?$allocator@PAVSubSlayerSkillInfo@@@_STL@@@_STL@@QAE@XZ
_TEXT	SEGMENT PARA USE32 PUBLIC 'CODE'
_TEXT	ENDS
;	COMDAT ??0?$_List_iterator@PAVSubSlayerSkillInfo@@U?$_Const_traits@PAVSubSlayerSkillInfo@@@_STL@@@_STL@@QAE@PAU?$_List_node@PAVSubSlayerSkillInfo@@@1@@Z
_TEXT	SEGMENT PARA USE32 PUBLIC 'CODE'
_TEXT	ENDS
;	COMDAT ??0?$_List_iterator@PAVSubSlayerSkillInfo@@U?$_Nonconst_traits@PAVSubSlayerSkillInfo@@@_STL@@@_STL@@QAE@PAU?$_List_node@PAVSubSlayerSkillInfo@@@1@@Z
_TEXT	SEGMENT PARA USE32 PUBLIC 'CODE'
_TEXT	ENDS
;	COMDAT ??D?$_List_iterator@PAVSubSlayerSkillInfo@@U?$_Nonconst_traits@PAVSubSlayerSkillInfo@@@_STL@@@_STL@@QBEAAPAVSubSlayerSkillInfo@@XZ
_TEXT	SEGMENT PARA USE32 PUBLIC 'CODE'
_TEXT	ENDS
;	COMDAT ??1?$_STLP_alloc_proxy@PAU?$_List_node@PAVSubSlayerSkillInfo@@@_STL@@U12@V?$allocator@U?$_List_node@PAVSubSlayerSkillInfo@@@_STL@@@2@@_STL@@QAE@XZ
_TEXT	SEGMENT PARA USE32 PUBLIC 'CODE'
_TEXT	ENDS
;	COMDAT ?_M_create_node@?$list@PAVSubSlayerSkillInfo@@V?$allocator@PAVSubSlayerSkillInfo@@@_STL@@@_STL@@IAEPAU?$_List_node@PAVSubSlayerSkillInfo@@@2@ABQAVSubSlayerSkillInfo@@@Z
_TEXT	SEGMENT PARA USE32 PUBLIC 'CODE'
_TEXT	ENDS
;	COMDAT ??0?$_STLP_alloc_proxy@PAU?$_List_node@PAVSubSlayerSkillInfo@@@_STL@@U12@V?$allocator@U?$_List_node@PAVSubSlayerSkillInfo@@@_STL@@@2@@_STL@@QAE@ABV?$allocator@U?$_List_node@PAVSubSlayerSkillInfo@@@_STL@@@1@PAU?$_List_node@PAVSubSlayerSkillInfo@@@1@@Z
_TEXT	SEGMENT PARA USE32 PUBLIC 'CODE'
_TEXT	ENDS
;	COMDAT ??1?$allocator@U?$_List_node@PAVSubSlayerSkillInfo@@@_STL@@@_STL@@QAE@XZ
_TEXT	SEGMENT PARA USE32 PUBLIC 'CODE'
_TEXT	ENDS
;	COMDAT ?allocate@?$allocator@U?$_List_node@PAVSubSlayerSkillInfo@@@_STL@@@_STL@@QAEPAU?$_List_node@PAVSubSlayerSkillInfo@@@2@IPBX@Z
_TEXT	SEGMENT PARA USE32 PUBLIC 'CODE'
_TEXT	ENDS
;	COMDAT ?deallocate@?$allocator@U?$_List_node@PAVSubSlayerSkillInfo@@@_STL@@@_STL@@QAEXPAU?$_List_node@PAVSubSlayerSkillInfo@@@2@I@Z
_TEXT	SEGMENT PARA USE32 PUBLIC 'CODE'
_TEXT	ENDS
;	COMDAT ??0?$allocator@U?$_List_node@PAVSubSlayerSkillInfo@@@_STL@@@_STL@@QAE@ABV01@@Z
_TEXT	SEGMENT PARA USE32 PUBLIC 'CODE'
_TEXT	ENDS
;	COMDAT ??$_M_range_initialize@PBD@?$basic_string@DV?$char_traits@D@_STL@@V?$allocator@D@2@@_STL@@AAEXPBD0@Z
_TEXT	SEGMENT PARA USE32 PUBLIC 'CODE'
_TEXT	ENDS
;	COMDAT ??$_M_range_initialize@PAD@?$basic_string@DV?$char_traits@D@_STL@@V?$allocator@D@2@@_STL@@AAEXPAD0@Z
_TEXT	SEGMENT PARA USE32 PUBLIC 'CODE'
_TEXT	ENDS
;	COMDAT ?close@?$basic_filebuf@DV?$char_traits@D@_STL@@@_STL@@QAEPAV12@XZ
_TEXT	SEGMENT PARA USE32 PUBLIC 'CODE'
_TEXT	ENDS
;	COMDAT ?_M_exit_input_mode@?$basic_filebuf@DV?$char_traits@D@_STL@@@_STL@@AAEXXZ
_TEXT	SEGMENT PARA USE32 PUBLIC 'CODE'
_TEXT	ENDS
;	COMDAT ?_M_switch_to_output_mode@?$basic_filebuf@DV?$char_traits@D@_STL@@@_STL@@AAE_NXZ
_TEXT	SEGMENT PARA USE32 PUBLIC 'CODE'
_TEXT	ENDS
;	COMDAT ?_M_output_error@?$basic_filebuf@DV?$char_traits@D@_STL@@@_STL@@AAEHXZ
_TEXT	SEGMENT PARA USE32 PUBLIC 'CODE'
_TEXT	ENDS
;	COMDAT ?_M_allocate_buffers@?$basic_filebuf@DV?$char_traits@D@_STL@@@_STL@@AAE_NPADH@Z
_TEXT	SEGMENT PARA USE32 PUBLIC 'CODE'
_TEXT	ENDS
;	COMDAT ?_M_deallocate_buffers@?$basic_filebuf@DV?$char_traits@D@_STL@@@_STL@@AAEXXZ
_TEXT	SEGMENT PARA USE32 PUBLIC 'CODE'
_TEXT	ENDS
;	COMDAT ?_M_seek_init@?$basic_filebuf@DV?$char_traits@D@_STL@@@_STL@@AAE_N_N@Z
_TEXT	SEGMENT PARA USE32 PUBLIC 'CODE'
_TEXT	ENDS
;	COMDAT ?_M_setup_codecvt@?$basic_filebuf@DV?$char_traits@D@_STL@@@_STL@@AAEXABVlocale@2@@Z
_TEXT	SEGMENT PARA USE32 PUBLIC 'CODE'
_TEXT	ENDS
;	COMDAT ??$equal@PADPADU?$_Eq_traits@V?$char_traits@D@_STL@@@_STL@@@_STL@@YA_NPAD00U?$_Eq_traits@V?$char_traits@D@_STL@@@0@@Z
_TEXT	SEGMENT PARA USE32 PUBLIC 'CODE'
_TEXT	ENDS
;	COMDAT ??$_Destroy@V?$basic_string@DV?$char_traits@D@_STL@@V?$allocator@D@2@@_STL@@@_STL@@YAXPAV?$basic_string@DV?$char_traits@D@_STL@@V?$allocator@D@2@@0@@Z
_TEXT	SEGMENT PARA USE32 PUBLIC 'CODE'
_TEXT	ENDS
;	COMDAT ??$_M_assign_dispatch@PAD@?$basic_string@DV?$char_traits@D@_STL@@V?$allocator@D@2@@_STL@@AAEAAV01@PAD0ABU__false_type@1@@Z
_TEXT	SEGMENT PARA USE32 PUBLIC 'CODE'
_TEXT	ENDS
;	COMDAT ?clear@?$_List_base@PAVSubSlayerSkillInfo@@V?$allocator@PAVSubSlayerSkillInfo@@@_STL@@@_STL@@QAEXXZ
_TEXT	SEGMENT PARA USE32 PUBLIC 'CODE'
_TEXT	ENDS
;	COMDAT ??$insert@U?$_List_iterator@V?$basic_string@DV?$char_traits@D@_STL@@V?$allocator@D@2@@_STL@@U?$_Const_traits@V?$basic_string@DV?$char_traits@D@_STL@@V?$allocator@D@2@@_STL@@@2@@_STL@@@?$list@V?$basic_string@DV?$char_traits@D@_STL@@V?$allocator@D@2@@_STL@@V?$allocator@V?$basic_string@DV?$char_traits@D@_STL@@V?$allocator@D@2@@_STL@@@2@@_STL@@QAEXU?$_List_iterator@V?$basic_string@DV?$char_traits@D@_STL@@V?$allocator@D@2@@_STL@@U?$_Nonconst_traits@V?$basic_string@DV?$char_traits@D@_STL@@V?$allocator@D@2@@_STL@@@2@@1@U?$_List_iterator@V?$basic_string@DV?$char_traits@D@_STL@@V?$allocator@D@2@@_STL@@U?$_Const_traits@V?$basic_string@DV?$char_traits@D@_STL@@V?$allocator@D@2@@_STL@@@2@@1@1@Z
_TEXT	SEGMENT PARA USE32 PUBLIC 'CODE'
_TEXT	ENDS
;	COMDAT ??$?0U?$_List_node@V?$basic_string@DV?$char_traits@D@_STL@@V?$allocator@D@2@@_STL@@@_STL@@@?$allocator@V?$basic_string@DV?$char_traits@D@_STL@@V?$allocator@D@2@@_STL@@@_STL@@QAE@ABV?$allocator@U?$_List_node@V?$basic_string@DV?$char_traits@D@_STL@@V?$allocator@D@2@@_STL@@@_STL@@@1@@Z
_TEXT	SEGMENT PARA USE32 PUBLIC 'CODE'
_TEXT	ENDS
;	COMDAT ??$_Destroy@PAVSubSlayerSkillInfo@@@_STL@@YAXPAPAVSubSlayerSkillInfo@@@Z
_TEXT	SEGMENT PARA USE32 PUBLIC 'CODE'
_TEXT	ENDS
;	COMDAT ??$?0PAVSubSlayerSkillInfo@@@?$allocator@U?$_List_node@PAVSubSlayerSkillInfo@@@_STL@@@_STL@@QAE@ABV?$allocator@PAVSubSlayerSkillInfo@@@1@@Z
_TEXT	SEGMENT PARA USE32 PUBLIC 'CODE'
_TEXT	ENDS
;	COMDAT ??$_Construct@PAVSubSlayerSkillInfo@@PAV1@@_STL@@YAXPAPAVSubSlayerSkillInfo@@ABQAV1@@Z
_TEXT	SEGMENT PARA USE32 PUBLIC 'CODE'
_TEXT	ENDS
;	COMDAT ??_G?$basic_string@DV?$char_traits@D@_STL@@V?$allocator@D@2@@_STL@@QAEPAXI@Z
_TEXT	SEGMENT PARA USE32 PUBLIC 'CODE'
_TEXT	ENDS
;	COMDAT ?end@?$basic_string@DV?$char_traits@D@_STL@@V?$allocator@D@2@@_STL@@QAEPADXZ
_TEXT	SEGMENT PARA USE32 PUBLIC 'CODE'
_TEXT	ENDS
;	COMDAT ?erase@?$basic_string@DV?$char_traits@D@_STL@@V?$allocator@D@2@@_STL@@QAEPADPAD0@Z
_TEXT	SEGMENT PARA USE32 PUBLIC 'CODE'
_TEXT	ENDS
;	COMDAT ?_M_exit_putback_mode@?$basic_filebuf@DV?$char_traits@D@_STL@@@_STL@@AAEXXZ
_TEXT	SEGMENT PARA USE32 PUBLIC 'CODE'
_TEXT	ENDS
;	COMDAT ??0?$_List_iterator@V?$basic_string@DV?$char_traits@D@_STL@@V?$allocator@D@2@@_STL@@U?$_Nonconst_traits@V?$basic_string@DV?$char_traits@D@_STL@@V?$allocator@D@2@@_STL@@@2@@_STL@@QAE@ABU01@@Z
_TEXT	SEGMENT PARA USE32 PUBLIC 'CODE'
_TEXT	ENDS
;	COMDAT ??R?$_Eq_traits@V?$char_traits@D@_STL@@@_STL@@QBE_NABD0@Z
_TEXT	SEGMENT PARA USE32 PUBLIC 'CODE'
_TEXT	ENDS
;	COMDAT ?move@?$__char_traits_base@DH@_STL@@SAPADPADPBDI@Z
_TEXT	SEGMENT PARA USE32 PUBLIC 'CODE'
_TEXT	ENDS
;	COMDAT ??$_M_range_initialize@PBD@?$basic_string@DV?$char_traits@D@_STL@@V?$allocator@D@2@@_STL@@AAEXPBD0ABUforward_iterator_tag@1@@Z
_TEXT	SEGMENT PARA USE32 PUBLIC 'CODE'
_TEXT	ENDS
;	COMDAT ??$_M_range_initialize@PAD@?$basic_string@DV?$char_traits@D@_STL@@V?$allocator@D@2@@_STL@@AAEXPAD0ABUforward_iterator_tag@1@@Z
_TEXT	SEGMENT PARA USE32 PUBLIC 'CODE'
_TEXT	ENDS
;	COMDAT ?_M_unshift@?$basic_filebuf@DV?$char_traits@D@_STL@@@_STL@@AAE_NXZ
_TEXT	SEGMENT PARA USE32 PUBLIC 'CODE'
_TEXT	ENDS
;	COMDAT ?_M_allocate_buffers@?$basic_filebuf@DV?$char_traits@D@_STL@@@_STL@@AAE_NXZ
_TEXT	SEGMENT PARA USE32 PUBLIC 'CODE'
_TEXT	ENDS
;	COMDAT ??$max@H@_STL@@YAABHABH0@Z
_TEXT	SEGMENT PARA USE32 PUBLIC 'CODE'
_TEXT	ENDS
;	COMDAT ??$use_facet@V?$codecvt@DDH@_STL@@@_STL@@YAABV?$codecvt@DDH@0@ABVlocale@0@@Z
_TEXT	SEGMENT PARA USE32 PUBLIC 'CODE'
_TEXT	ENDS
;	COMDAT ??$append@PAD@?$basic_string@DV?$char_traits@D@_STL@@V?$allocator@D@2@@_STL@@QAEAAV01@PAD0@Z
_TEXT	SEGMENT PARA USE32 PUBLIC 'CODE'
_TEXT	ENDS
;	COMDAT ??$_M_insert_dispatch@U?$_List_iterator@V?$basic_string@DV?$char_traits@D@_STL@@V?$allocator@D@2@@_STL@@U?$_Const_traits@V?$basic_string@DV?$char_traits@D@_STL@@V?$allocator@D@2@@_STL@@@2@@_STL@@@?$list@V?$basic_string@DV?$char_traits@D@_STL@@V?$allocator@D@2@@_STL@@V?$allocator@V?$basic_string@DV?$char_traits@D@_STL@@V?$allocator@D@2@@_STL@@@2@@_STL@@QAEXU?$_List_iterator@V?$basic_string@DV?$char_traits@D@_STL@@V?$allocator@D@2@@_STL@@U?$_Nonconst_traits@V?$basic_string@DV?$char_traits@D@_STL@@V?$allocator@D@2@@_STL@@@2@@1@U?$_List_iterator@V?$basic_string@DV?$char_traits@D@_STL@@V?$allocator@D@2@@_STL@@U?$_Const_traits@V?$basic_string@DV?$char_traits@D@_STL@@V?$allocator@D@2@@_STL@@@2@@1@1ABU__false_type@1@@Z
_TEXT	SEGMENT PARA USE32 PUBLIC 'CODE'
_TEXT	ENDS
;	COMDAT ??E?$_List_iterator@V?$basic_string@DV?$char_traits@D@_STL@@V?$allocator@D@2@@_STL@@U?$_Const_traits@V?$basic_string@DV?$char_traits@D@_STL@@V?$allocator@D@2@@_STL@@@2@@_STL@@QAEAAU01@XZ
_TEXT	SEGMENT PARA USE32 PUBLIC 'CODE'
_TEXT	ENDS
;	COMDAT ??$distance@PBD@_STL@@YAHABQBD0@Z
_TEXT	SEGMENT PARA USE32 PUBLIC 'CODE'
_TEXT	ENDS
;	COMDAT ?_M_allocate_block@?$_String_base@DV?$allocator@D@_STL@@@_STL@@QAEXI@Z
_TEXT	SEGMENT PARA USE32 PUBLIC 'CODE'
_TEXT	ENDS
;	COMDAT ??$distance@PAD@_STL@@YAHABQAD0@Z
_TEXT	SEGMENT PARA USE32 PUBLIC 'CODE'
_TEXT	ENDS
;	COMDAT ??$uninitialized_copy@PADPAD@_STL@@YAPADPAD00@Z
_TEXT	SEGMENT PARA USE32 PUBLIC 'CODE'
_TEXT	ENDS
;	COMDAT ??$_M_append_dispatch@PAD@?$basic_string@DV?$char_traits@D@_STL@@V?$allocator@D@2@@_STL@@AAEAAV01@PAD0ABU__false_type@1@@Z
_TEXT	SEGMENT PARA USE32 PUBLIC 'CODE'
_TEXT	ENDS
;	COMDAT ?max_size@?$_String_base@DV?$allocator@D@_STL@@@_STL@@QBEIXZ
_TEXT	SEGMENT PARA USE32 PUBLIC 'CODE'
_TEXT	ENDS
;	COMDAT ??$__distance@PBD@_STL@@YAHABQBD0ABUrandom_access_iterator_tag@0@@Z
_TEXT	SEGMENT PARA USE32 PUBLIC 'CODE'
_TEXT	ENDS
;	COMDAT ?_M_throw_length_error@?$_String_base@DV?$allocator@D@_STL@@@_STL@@QBEXXZ
_TEXT	SEGMENT PARA USE32 PUBLIC 'CODE'
_TEXT	ENDS
;	COMDAT ??$__distance@PAD@_STL@@YAHABQAD0ABUrandom_access_iterator_tag@0@@Z
_TEXT	SEGMENT PARA USE32 PUBLIC 'CODE'
_TEXT	ENDS
;	COMDAT ??$__uninitialized_copy@PADPAD@_STL@@YAPADPAD00ABU__true_type@0@@Z
_TEXT	SEGMENT PARA USE32 PUBLIC 'CODE'
_TEXT	ENDS
;	COMDAT ??$append@PAD@?$basic_string@DV?$char_traits@D@_STL@@V?$allocator@D@2@@_STL@@AAEAAV01@PAD0ABUforward_iterator_tag@1@@Z
_TEXT	SEGMENT PARA USE32 PUBLIC 'CODE'
_TEXT	ENDS
;	COMDAT ?_M_construct_null@?$basic_string@DV?$char_traits@D@_STL@@V?$allocator@D@2@@_STL@@AAEXPAD@Z
_TEXT	SEGMENT PARA USE32 PUBLIC 'CODE'
_TEXT	ENDS
;	COMDAT ?max_size@?$basic_string@DV?$char_traits@D@_STL@@V?$allocator@D@2@@_STL@@QBEIXZ
_TEXT	SEGMENT PARA USE32 PUBLIC 'CODE'
_TEXT	ENDS
;	COMDAT ?capacity@?$basic_string@DV?$char_traits@D@_STL@@V?$allocator@D@2@@_STL@@QBEIXZ
_TEXT	SEGMENT PARA USE32 PUBLIC 'CODE'
_TEXT	ENDS
;	COMDAT ?_Ret@?$_BothPtrType@PADPAD@_STL@@SA?AU__true_type@2@XZ
_TEXT	SEGMENT PARA USE32 PUBLIC 'CODE'
_TEXT	ENDS
;	COMDAT ?_M_construct_null_aux@?$basic_string@DV?$char_traits@D@_STL@@V?$allocator@D@2@@_STL@@AAEXPADABU__true_type@2@@Z
_TEXT	SEGMENT PARA USE32 PUBLIC 'CODE'
_TEXT	ENDS
;	COMDAT ??$__copy_aux@PADPAD@_STL@@YAPADPAD00ABU__true_type@0@@Z
_TEXT	SEGMENT PARA USE32 PUBLIC 'CODE'
_TEXT	ENDS
;	COMDAT ??$max@I@_STL@@YAABIABI0@Z
_TEXT	SEGMENT PARA USE32 PUBLIC 'CODE'
_TEXT	ENDS
;	COMDAT ?_Ret@?$_OKToMemCpy@DD@_STL@@SA?AU__true_type@2@XZ
_TEXT	SEGMENT PARA USE32 PUBLIC 'CODE'
_TEXT	ENDS
;	COMDAT ??$_IsOKToMemCpy@DD@_STL@@YA?AU?$_OKToMemCpy@DD@0@PAD0@Z
_TEXT	SEGMENT PARA USE32 PUBLIC 'CODE'
_TEXT	ENDS
;	COMDAT ??$__copy_ptrs@PADPAD@_STL@@YAPADPAD00ABU__true_type@0@@Z
_TEXT	SEGMENT PARA USE32 PUBLIC 'CODE'
_TEXT	ENDS
;	COMDAT ??_R3Packet@@8
rdata$r	SEGMENT DWORD USE32 PUBLIC 'CONST'
rdata$r	ENDS
;	COMDAT ??_R3SlayerSkillInfo@@8
rdata$r	SEGMENT DWORD USE32 PUBLIC 'CONST'
rdata$r	ENDS
;	COMDAT ??_R3PCSkillInfo@@8
rdata$r	SEGMENT DWORD USE32 PUBLIC 'CONST'
rdata$r	ENDS
;	COMDAT ??_R2Packet@@8
rdata$r	SEGMENT DWORD USE32 PUBLIC 'CONST'
rdata$r	ENDS
;	COMDAT ??_R2SlayerSkillInfo@@8
rdata$r	SEGMENT DWORD USE32 PUBLIC 'CONST'
rdata$r	ENDS
;	COMDAT ??_R2PCSkillInfo@@8
rdata$r	SEGMENT DWORD USE32 PUBLIC 'CONST'
rdata$r	ENDS
;	COMDAT ??_R1A@?0A@A@Packet@@8
rdata$r	SEGMENT DWORD USE32 PUBLIC 'CONST'
rdata$r	ENDS
;	COMDAT ??_R1A@?0A@A@SlayerSkillInfo@@8
rdata$r	SEGMENT DWORD USE32 PUBLIC 'CONST'
rdata$r	ENDS
;	COMDAT ??_R1A@?0A@A@PCSkillInfo@@8
rdata$r	SEGMENT DWORD USE32 PUBLIC 'CONST'
rdata$r	ENDS
;	COMDAT ??_R0?AVPacket@@@8
_DATA	SEGMENT DWORD USE32 PUBLIC 'DATA'
_DATA	ENDS
;	COMDAT ??_R0?AVSlayerSkillInfo@@@8
_DATA	SEGMENT DWORD USE32 PUBLIC 'DATA'
_DATA	ENDS
;	COMDAT ??_R0?AVPCSkillInfo@@@8
_DATA	SEGMENT DWORD USE32 PUBLIC 'DATA'
_DATA	ENDS
;	COMDAT ??_R4Packet@@6B@
rdata$r	SEGMENT DWORD USE32 PUBLIC 'CONST'
rdata$r	ENDS
;	COMDAT ??_R4SlayerSkillInfo@@6B@
rdata$r	SEGMENT DWORD USE32 PUBLIC 'CONST'
rdata$r	ENDS
;	COMDAT ??_R4PCSkillInfo@@6B@
rdata$r	SEGMENT DWORD USE32 PUBLIC 'CONST'
rdata$r	ENDS
;	COMDAT ?__copy_trivial@_STL@@YAPAXPBX0PAX@Z
_TEXT	SEGMENT PARA USE32 PUBLIC 'CODE'
_TEXT	ENDS
;	COMDAT ?_M_deallocate_block@?$_String_base@DV?$allocator@D@_STL@@@_STL@@QAEXXZ
_TEXT	SEGMENT PARA USE32 PUBLIC 'CODE'
_TEXT	ENDS
;	COMDAT ?deallocate@?$allocator@D@_STL@@QAEXPADI@Z
_TEXT	SEGMENT PARA USE32 PUBLIC 'CODE'
_TEXT	ENDS
;	COMDAT ??D?$_List_iterator@V?$basic_string@DV?$char_traits@D@_STL@@V?$allocator@D@2@@_STL@@U?$_Const_traits@V?$basic_string@DV?$char_traits@D@_STL@@V?$allocator@D@2@@_STL@@@2@@_STL@@QBEABV?$basic_string@DV?$char_traits@D@_STL@@V?$allocator@D@2@@1@XZ
_TEXT	SEGMENT PARA USE32 PUBLIC 'CODE'
_TEXT	ENDS
;	COMDAT ?insert@?$list@V?$basic_string@DV?$char_traits@D@_STL@@V?$allocator@D@2@@_STL@@V?$allocator@V?$basic_string@DV?$char_traits@D@_STL@@V?$allocator@D@2@@_STL@@@2@@_STL@@QAE?AU?$_List_iterator@V?$basic_string@DV?$char_traits@D@_STL@@V?$allocator@D@2@@_STL@@U?$_Nonconst_traits@V?$basic_string@DV?$char_traits@D@_STL@@V?$allocator@D@2@@_STL@@@2@@2@U32@ABV?$basic_string@DV?$char_traits@D@_STL@@V?$allocator@D@2@@2@@Z
_TEXT	SEGMENT PARA USE32 PUBLIC 'CODE'
_TEXT	ENDS
;	COMDAT ?_M_create_node@?$list@V?$basic_string@DV?$char_traits@D@_STL@@V?$allocator@D@2@@_STL@@V?$allocator@V?$basic_string@DV?$char_traits@D@_STL@@V?$allocator@D@2@@_STL@@@2@@_STL@@IAEPAU?$_List_node@V?$basic_string@DV?$char_traits@D@_STL@@V?$allocator@D@2@@_STL@@@2@ABV?$basic_string@DV?$char_traits@D@_STL@@V?$allocator@D@2@@2@@Z
_TEXT	SEGMENT PARA USE32 PUBLIC 'CODE'
_TEXT	ENDS
;	COMDAT ?allocate@?$allocator@U?$_List_node@V?$basic_string@DV?$char_traits@D@_STL@@V?$allocator@D@2@@_STL@@@_STL@@@_STL@@QAEPAU?$_List_node@V?$basic_string@DV?$char_traits@D@_STL@@V?$allocator@D@2@@_STL@@@2@IPBX@Z
_TEXT	SEGMENT PARA USE32 PUBLIC 'CODE'
_TEXT	ENDS
;	COMDAT ??$_Construct@V?$basic_string@DV?$char_traits@D@_STL@@V?$allocator@D@2@@_STL@@V12@@_STL@@YAXPAV?$basic_string@DV?$char_traits@D@_STL@@V?$allocator@D@2@@0@ABV10@@Z
_TEXT	SEGMENT PARA USE32 PUBLIC 'CODE'
_TEXT	ENDS
;	COMDAT ??3@YAXPAX0@Z
_TEXT	SEGMENT PARA USE32 PUBLIC 'CODE'
_TEXT	ENDS
;	COMDAT ?deallocate@?$allocator@U?$_List_node@V?$basic_string@DV?$char_traits@D@_STL@@V?$allocator@D@2@@_STL@@@_STL@@@_STL@@QAEXPAU?$_List_node@V?$basic_string@DV?$char_traits@D@_STL@@V?$allocator@D@2@@_STL@@@2@I@Z
_TEXT	SEGMENT PARA USE32 PUBLIC 'CODE'
_TEXT	ENDS
;	COMDAT ??0?$_List_iterator@V?$basic_string@DV?$char_traits@D@_STL@@V?$allocator@D@2@@_STL@@U?$_Nonconst_traits@V?$basic_string@DV?$char_traits@D@_STL@@V?$allocator@D@2@@_STL@@@2@@_STL@@QAE@PAU?$_List_node@V?$basic_string@DV?$char_traits@D@_STL@@V?$allocator@D@2@@_STL@@@1@@Z
_TEXT	SEGMENT PARA USE32 PUBLIC 'CODE'
_TEXT	ENDS
;	COMDAT ?__page_size@_Filebuf_base@_STL@@SAIXZ
_TEXT	SEGMENT PARA USE32 PUBLIC 'CODE'
_TEXT	ENDS
;	COMDAT ?_M_write@?$basic_filebuf@DV?$char_traits@D@_STL@@@_STL@@QAE_NPADH@Z
_TEXT	SEGMENT PARA USE32 PUBLIC 'CODE'
_TEXT	ENDS
;	COMDAT ?unshift@?$codecvt@DDH@_STL@@QBE?AW4result@codecvt_base@2@AAHPAD1AAPAD@Z
_TEXT	SEGMENT PARA USE32 PUBLIC 'CODE'
_TEXT	ENDS
;	COMDAT ?uninitialized_copy@_STL@@YAPADPBD0PAD@Z
_TEXT	SEGMENT PARA USE32 PUBLIC 'CODE'
_TEXT	ENDS
;	COMDAT ?_Destroy@_STL@@YAXPAD0@Z
_TEXT	SEGMENT PARA USE32 PUBLIC 'CODE'
_TEXT	ENDS
;	COMDAT ??2@YAPAXIPAX@Z
_TEXT	SEGMENT PARA USE32 PUBLIC 'CODE'
_TEXT	ENDS
;	COMDAT ?assign@?$char_traits@D@_STL@@SAXAADABD@Z
_TEXT	SEGMENT PARA USE32 PUBLIC 'CODE'
_TEXT	ENDS
;	COMDAT ?always_noconv@?$codecvt@DDH@_STL@@QBE_NXZ
_TEXT	SEGMENT PARA USE32 PUBLIC 'CODE'
_TEXT	ENDS
;	COMDAT ?encoding@?$codecvt@DDH@_STL@@QBEHXZ
_TEXT	SEGMENT PARA USE32 PUBLIC 'CODE'
_TEXT	ENDS
;	COMDAT ?max_length@?$codecvt@DDH@_STL@@QBEHXZ
_TEXT	SEGMENT PARA USE32 PUBLIC 'CODE'
_TEXT	ENDS
;	COMDAT ?__o_mode@_Filebuf_base@_STL@@QBEHXZ
_TEXT	SEGMENT PARA USE32 PUBLIC 'CODE'
_TEXT	ENDS
;	COMDAT ?deallocate@?$__node_alloc@$00$0A@@_STL@@SAXPAXI@Z
_TEXT	SEGMENT PARA USE32 PUBLIC 'CODE'
_TEXT	ENDS
;	COMDAT ?__stl_delete@_STL@@YAXPAX@Z
_TEXT	SEGMENT PARA USE32 PUBLIC 'CODE'
_TEXT	ENDS
;	COMDAT ?_M_incr@_List_iterator_base@_STL@@QAEXXZ
_TEXT	SEGMENT PARA USE32 PUBLIC 'CODE'
_TEXT	ENDS
;	COMDAT ??0_List_iterator_base@_STL@@QAE@PAU_List_node_base@1@@Z
_TEXT	SEGMENT PARA USE32 PUBLIC 'CODE'
_TEXT	ENDS
;	COMDAT ?begin@?$list@V?$basic_string@DV?$char_traits@D@_STL@@V?$allocator@D@2@@_STL@@V?$allocator@V?$basic_string@DV?$char_traits@D@_STL@@V?$allocator@D@2@@_STL@@@2@@_STL@@QAE?AU?$_List_iterator@V?$basic_string@DV?$char_traits@D@_STL@@V?$allocator@D@2@@_STL@@U?$_Nonconst_traits@V?$basic_string@DV?$char_traits@D@_STL@@V?$allocator@D@2@@_STL@@@2@@2@XZ
_TEXT	SEGMENT PARA USE32 PUBLIC 'CODE'
_TEXT	ENDS
;	COMDAT ?begin@?$list@V?$basic_string@DV?$char_traits@D@_STL@@V?$allocator@D@2@@_STL@@V?$allocator@V?$basic_string@DV?$char_traits@D@_STL@@V?$allocator@D@2@@_STL@@@2@@_STL@@QBE?AU?$_List_iterator@V?$basic_string@DV?$char_traits@D@_STL@@V?$allocator@D@2@@_STL@@U?$_Const_traits@V?$basic_string@DV?$char_traits@D@_STL@@V?$allocator@D@2@@_STL@@@2@@2@XZ
_TEXT	SEGMENT PARA USE32 PUBLIC 'CODE'
_TEXT	ENDS
;	COMDAT ??0?$_List_iterator@V?$basic_string@DV?$char_traits@D@_STL@@V?$allocator@D@2@@_STL@@U?$_Const_traits@V?$basic_string@DV?$char_traits@D@_STL@@V?$allocator@D@2@@_STL@@@2@@_STL@@QAE@PAU?$_List_node@V?$basic_string@DV?$char_traits@D@_STL@@V?$allocator@D@2@@_STL@@@1@@Z
_TEXT	SEGMENT PARA USE32 PUBLIC 'CODE'
_TEXT	ENDS
;	COMDAT ?end@?$list@V?$basic_string@DV?$char_traits@D@_STL@@V?$allocator@D@2@@_STL@@V?$allocator@V?$basic_string@DV?$char_traits@D@_STL@@V?$allocator@D@2@@_STL@@@2@@_STL@@QBE?AU?$_List_iterator@V?$basic_string@DV?$char_traits@D@_STL@@V?$allocator@D@2@@_STL@@U?$_Const_traits@V?$basic_string@DV?$char_traits@D@_STL@@V?$allocator@D@2@@_STL@@@2@@2@XZ
_TEXT	SEGMENT PARA USE32 PUBLIC 'CODE'
_TEXT	ENDS
;	COMDAT ??1?$_List_base@V?$basic_string@DV?$char_traits@D@_STL@@V?$allocator@D@2@@_STL@@V?$allocator@V?$basic_string@DV?$char_traits@D@_STL@@V?$allocator@D@2@@_STL@@@2@@_STL@@QAE@XZ
_TEXT	SEGMENT PARA USE32 PUBLIC 'CODE'
_TEXT	ENDS
;	COMDAT ??1?$_STLP_alloc_proxy@PAU?$_List_node@V?$basic_string@DV?$char_traits@D@_STL@@V?$allocator@D@2@@_STL@@@_STL@@U12@V?$allocator@U?$_List_node@V?$basic_string@DV?$char_traits@D@_STL@@V?$allocator@D@2@@_STL@@@_STL@@@2@@_STL@@QAE@XZ
_TEXT	SEGMENT PARA USE32 PUBLIC 'CODE'
_TEXT	ENDS
;	COMDAT ??1?$allocator@U?$_List_node@V?$basic_string@DV?$char_traits@D@_STL@@V?$allocator@D@2@@_STL@@@_STL@@@_STL@@QAE@XZ
_TEXT	SEGMENT PARA USE32 PUBLIC 'CODE'
_TEXT	ENDS
;	COMDAT ?clear@?$_List_base@V?$basic_string@DV?$char_traits@D@_STL@@V?$allocator@D@2@@_STL@@V?$allocator@V?$basic_string@DV?$char_traits@D@_STL@@V?$allocator@D@2@@_STL@@@2@@_STL@@QAEXXZ
_TEXT	SEGMENT PARA USE32 PUBLIC 'CODE'
_TEXT	ENDS
;	COMDAT ??1?$allocator@V?$basic_string@DV?$char_traits@D@_STL@@V?$allocator@D@2@@_STL@@@_STL@@QAE@XZ
_TEXT	SEGMENT PARA USE32 PUBLIC 'CODE'
_TEXT	ENDS
;	COMDAT ??0?$_List_base@V?$basic_string@DV?$char_traits@D@_STL@@V?$allocator@D@2@@_STL@@V?$allocator@V?$basic_string@DV?$char_traits@D@_STL@@V?$allocator@D@2@@_STL@@@2@@_STL@@QAE@ABV?$allocator@V?$basic_string@DV?$char_traits@D@_STL@@V?$allocator@D@2@@_STL@@@1@@Z
_TEXT	SEGMENT PARA USE32 PUBLIC 'CODE'
_TEXT	ENDS
;	COMDAT ??0?$_STLP_alloc_proxy@PAU?$_List_node@V?$basic_string@DV?$char_traits@D@_STL@@V?$allocator@D@2@@_STL@@@_STL@@U12@V?$allocator@U?$_List_node@V?$basic_string@DV?$char_traits@D@_STL@@V?$allocator@D@2@@_STL@@@_STL@@@2@@_STL@@QAE@ABV?$allocator@U?$_List_node@V?$basic_string@DV?$char_traits@D@_STL@@V?$allocator@D@2@@_STL@@@_STL@@@1@PAU?$_List_node@V?$basic_string@DV?$char_traits@D@_STL@@V?$allocator@D@2@@_STL@@@1@@Z
_TEXT	SEGMENT PARA USE32 PUBLIC 'CODE'
_TEXT	ENDS
;	COMDAT ??0?$allocator@U?$_List_node@V?$basic_string@DV?$char_traits@D@_STL@@V?$allocator@D@2@@_STL@@@_STL@@@_STL@@QAE@ABV01@@Z
_TEXT	SEGMENT PARA USE32 PUBLIC 'CODE'
_TEXT	ENDS
;	COMDAT ??$?0V?$basic_string@DV?$char_traits@D@_STL@@V?$allocator@D@2@@_STL@@@?$allocator@U?$_List_node@V?$basic_string@DV?$char_traits@D@_STL@@V?$allocator@D@2@@_STL@@@_STL@@@_STL@@QAE@ABV?$allocator@V?$basic_string@DV?$char_traits@D@_STL@@V?$allocator@D@2@@_STL@@@1@@Z
_TEXT	SEGMENT PARA USE32 PUBLIC 'CODE'
_TEXT	ENDS
;	COMDAT ?setp@?$basic_streambuf@DV?$char_traits@D@_STL@@@_STL@@IAEXPAD0@Z
_TEXT	SEGMENT PARA USE32 PUBLIC 'CODE'
_TEXT	ENDS
;	COMDAT ?_FILE_O_set@_STL@@YAXPAU_iobuf@@PAD11@Z
_TEXT	SEGMENT PARA USE32 PUBLIC 'CODE'
_TEXT	ENDS
;	COMDAT ?_FILE_I_set@_STL@@YAXPAU_iobuf@@PAD11@Z
_TEXT	SEGMENT PARA USE32 PUBLIC 'CODE'
_TEXT	ENDS
;	COMDAT ?setg@?$basic_streambuf@DV?$char_traits@D@_STL@@@_STL@@IAEXPAD00@Z
_TEXT	SEGMENT PARA USE32 PUBLIC 'CODE'
_TEXT	ENDS
;	COMDAT ?__is_open@_Filebuf_base@_STL@@QBE_NXZ
_TEXT	SEGMENT PARA USE32 PUBLIC 'CODE'
_TEXT	ENDS
;	COMDAT ?allocate@?$__node_alloc@$00$0A@@_STL@@SAPAXI@Z
_TEXT	SEGMENT PARA USE32 PUBLIC 'CODE'
_TEXT	ENDS
;	COMDAT ?__stl_new@_STL@@YAPAXI@Z
_TEXT	SEGMENT PARA USE32 PUBLIC 'CODE'
_TEXT	ENDS
;	COMDAT ??1?$_STLP_alloc_proxy@PADDV?$allocator@D@_STL@@@_STL@@QAE@XZ
_TEXT	SEGMENT PARA USE32 PUBLIC 'CODE'
_TEXT	ENDS
;	COMDAT ??1?$allocator@D@_STL@@QAE@XZ
_TEXT	SEGMENT PARA USE32 PUBLIC 'CODE'
_TEXT	ENDS
;	COMDAT ?eof@?$__char_traits_base@DH@_STL@@SAHXZ
_TEXT	SEGMENT PARA USE32 PUBLIC 'CODE'
_TEXT	ENDS
;	COMDAT ??9_List_iterator_base@_STL@@QBE_NABU01@@Z
_TEXT	SEGMENT PARA USE32 PUBLIC 'CODE'
_TEXT	ENDS
;	COMDAT ??_7SlayerSkillInfo@@6B@
CONST	SEGMENT DWORD USE32 PUBLIC 'CONST'
CONST	ENDS
;	COMDAT ??_7PCSkillInfo@@6B@
CONST	SEGMENT DWORD USE32 PUBLIC 'CONST'
CONST	ENDS
;	COMDAT ??1?$list@V?$basic_string@DV?$char_traits@D@_STL@@V?$allocator@D@2@@_STL@@V?$allocator@V?$basic_string@DV?$char_traits@D@_STL@@V?$allocator@D@2@@_STL@@@2@@_STL@@QAE@XZ
_TEXT	SEGMENT PARA USE32 PUBLIC 'CODE'
_TEXT	ENDS
;	COMDAT ??_7Throwable@@6B@
CONST	SEGMENT DWORD USE32 PUBLIC 'CONST'
CONST	ENDS
;	COMDAT ??_R4Throwable@@6B@
rdata$r	SEGMENT DWORD USE32 PUBLIC 'CONST'
rdata$r	ENDS
;	COMDAT ??_R3Throwable@@8
rdata$r	SEGMENT DWORD USE32 PUBLIC 'CONST'
rdata$r	ENDS
;	COMDAT ??_R2Throwable@@8
rdata$r	SEGMENT DWORD USE32 PUBLIC 'CONST'
rdata$r	ENDS
;	COMDAT ??_R1A@?0A@A@Throwable@@8
rdata$r	SEGMENT DWORD USE32 PUBLIC 'CONST'
rdata$r	ENDS
;	COMDAT ??_GThrowable@@UAEPAXI@Z
_TEXT	SEGMENT PARA USE32 PUBLIC 'CODE'
_TEXT	ENDS
;	COMDAT ?getName@Throwable@@UBE?AV?$basic_string@DV?$char_traits@D@_STL@@V?$allocator@D@2@@_STL@@XZ
_TEXT	SEGMENT PARA USE32 PUBLIC 'CODE'
_TEXT	ENDS
;	COMDAT ??0?$basic_string@DV?$char_traits@D@_STL@@V?$allocator@D@2@@_STL@@QAE@PBDABV?$allocator@D@1@@Z
_TEXT	SEGMENT PARA USE32 PUBLIC 'CODE'
_TEXT	ENDS
;	COMDAT ??1?$_String_base@DV?$allocator@D@_STL@@@_STL@@QAE@XZ
_TEXT	SEGMENT PARA USE32 PUBLIC 'CODE'
_TEXT	ENDS
;	COMDAT ?length@?$char_traits@D@_STL@@SAIPBD@Z
_TEXT	SEGMENT PARA USE32 PUBLIC 'CODE'
_TEXT	ENDS
;	COMDAT ??0?$allocator@D@_STL@@QAE@XZ
_TEXT	SEGMENT PARA USE32 PUBLIC 'CODE'
_TEXT	ENDS
;	COMDAT ??_C@_09KCKHMJEM@Throwable?$AA@
CONST	SEGMENT DWORD USE32 PUBLIC 'CONST'
CONST	ENDS
;	COMDAT ?toString@Throwable@@UBE?AV?$basic_string@DV?$char_traits@D@_STL@@V?$allocator@D@2@@_STL@@XZ
_TEXT	SEGMENT PARA USE32 PUBLIC 'CODE'
_TEXT	ENDS
;	COMDAT ??_C@_03MCPBMLDJ@?5?3?5?$AA@
CONST	SEGMENT DWORD USE32 PUBLIC 'CONST'
CONST	ENDS
;	COMDAT ?getStackTrace@Throwable@@QBE?AV?$basic_string@DV?$char_traits@D@_STL@@V?$allocator@D@2@@_STL@@XZ
_TEXT	SEGMENT PARA USE32 PUBLIC 'CODE'
_TEXT	ENDS
;	COMDAT ??E?$_List_iterator@V?$basic_string@DV?$char_traits@D@_STL@@V?$allocator@D@2@@_STL@@U?$_Const_traits@V?$basic_string@DV?$char_traits@D@_STL@@V?$allocator@D@2@@_STL@@@2@@_STL@@QAE?AU01@H@Z
_TEXT	SEGMENT PARA USE32 PUBLIC 'CODE'
_TEXT	ENDS
;	COMDAT ??_C@_01CLKCMJKC@?5?$AA@
CONST	SEGMENT DWORD USE32 PUBLIC 'CONST'
CONST	ENDS
;	COMDAT ??_7Error@@6B@
CONST	SEGMENT DWORD USE32 PUBLIC 'CONST'
CONST	ENDS
;	COMDAT ??_R4Error@@6B@
rdata$r	SEGMENT DWORD USE32 PUBLIC 'CONST'
rdata$r	ENDS
;	COMDAT ??_R3Error@@8
rdata$r	SEGMENT DWORD USE32 PUBLIC 'CONST'
rdata$r	ENDS
;	COMDAT ??_R2Error@@8
rdata$r	SEGMENT DWORD USE32 PUBLIC 'CONST'
rdata$r	ENDS
;	COMDAT ??_R1A@?0A@A@Error@@8
rdata$r	SEGMENT DWORD USE32 PUBLIC 'CONST'
rdata$r	ENDS
;	COMDAT ??_GError@@UAEPAXI@Z
_TEXT	SEGMENT PARA USE32 PUBLIC 'CODE'
_TEXT	ENDS
;	COMDAT ?getName@Error@@UBE?AV?$basic_string@DV?$char_traits@D@_STL@@V?$allocator@D@2@@_STL@@XZ
_TEXT	SEGMENT PARA USE32 PUBLIC 'CODE'
_TEXT	ENDS
;	COMDAT ??_C@_05NAOIJFC@Error?$AA@
CONST	SEGMENT DWORD USE32 PUBLIC 'CONST'
CONST	ENDS
;	COMDAT ??1Throwable@@UAE@XZ
_TEXT	SEGMENT PARA USE32 PUBLIC 'CODE'
_TEXT	ENDS
;	COMDAT ??_7UnsupportedError@@6B@
CONST	SEGMENT DWORD USE32 PUBLIC 'CONST'
CONST	ENDS
;	COMDAT ??_R4UnsupportedError@@6B@
rdata$r	SEGMENT DWORD USE32 PUBLIC 'CONST'
rdata$r	ENDS
;	COMDAT ??_R3UnsupportedError@@8
rdata$r	SEGMENT DWORD USE32 PUBLIC 'CONST'
rdata$r	ENDS
;	COMDAT ??_R2UnsupportedError@@8
rdata$r	SEGMENT DWORD USE32 PUBLIC 'CONST'
rdata$r	ENDS
;	COMDAT ??_R1A@?0A@A@UnsupportedError@@8
rdata$r	SEGMENT DWORD USE32 PUBLIC 'CONST'
rdata$r	ENDS
;	COMDAT ??_GUnsupportedError@@UAEPAXI@Z
_TEXT	SEGMENT PARA USE32 PUBLIC 'CODE'
_TEXT	ENDS
;	COMDAT ?getName@UnsupportedError@@UBE?AV?$basic_string@DV?$char_traits@D@_STL@@V?$allocator@D@2@@_STL@@XZ
_TEXT	SEGMENT PARA USE32 PUBLIC 'CODE'
_TEXT	ENDS
;	COMDAT ??_C@_0BB@EOCHEBED@UnsupportedError?$AA@
CONST	SEGMENT DWORD USE32 PUBLIC 'CONST'
CONST	ENDS
;	COMDAT ??1Error@@UAE@XZ
_TEXT	SEGMENT PARA USE32 PUBLIC 'CODE'
_TEXT	ENDS
;	COMDAT __CTA3?AVUnsupportedError@@
xdata$x	SEGMENT DWORD USE32 PUBLIC 'CONST'
xdata$x	ENDS
;	COMDAT ??1UnsupportedError@@UAE@XZ
_TEXT	SEGMENT PARA USE32 PUBLIC 'CODE'
_TEXT	ENDS
;	COMDAT __CT??_R0?AVThrowable@@@8??0Throwable@@QAE@ABV0@@Z20
xdata$x	SEGMENT DWORD USE32 PUBLIC 'CONST'
xdata$x	ENDS
;	COMDAT __CT??_R0?AVError@@@8??0Error@@QAE@ABV0@@Z20
xdata$x	SEGMENT DWORD USE32 PUBLIC 'CONST'
xdata$x	ENDS
;	COMDAT __CT??_R0?AVUnsupportedError@@@8??0UnsupportedError@@QAE@ABV0@@Z20
xdata$x	SEGMENT DWORD USE32 PUBLIC 'CONST'
xdata$x	ENDS
;	COMDAT ??_R0?AVThrowable@@@8
_DATA	SEGMENT DWORD USE32 PUBLIC 'DATA'
_DATA	ENDS
;	COMDAT ??_R0?AVError@@@8
_DATA	SEGMENT DWORD USE32 PUBLIC 'DATA'
_DATA	ENDS
;	COMDAT ??_R0?AVUnsupportedError@@@8
_DATA	SEGMENT DWORD USE32 PUBLIC 'DATA'
_DATA	ENDS
;	COMDAT __TI3?AVUnsupportedError@@
xdata$x	SEGMENT DWORD USE32 PUBLIC 'CONST'
xdata$x	ENDS
;	COMDAT ??0UnsupportedError@@QAE@XZ
_TEXT	SEGMENT PARA USE32 PUBLIC 'CODE'
_TEXT	ENDS
;	COMDAT ??0Error@@QAE@XZ
_TEXT	SEGMENT PARA USE32 PUBLIC 'CODE'
_TEXT	ENDS
;	COMDAT ??0Throwable@@QAE@XZ
_TEXT	SEGMENT PARA USE32 PUBLIC 'CODE'
_TEXT	ENDS
;	COMDAT ??0?$basic_string@DV?$char_traits@D@_STL@@V?$allocator@D@2@@_STL@@QAE@XZ
_TEXT	SEGMENT PARA USE32 PUBLIC 'CODE'
_TEXT	ENDS
;	COMDAT ??0?$list@V?$basic_string@DV?$char_traits@D@_STL@@V?$allocator@D@2@@_STL@@V?$allocator@V?$basic_string@DV?$char_traits@D@_STL@@V?$allocator@D@2@@_STL@@@2@@_STL@@QAE@ABV?$allocator@V?$basic_string@DV?$char_traits@D@_STL@@V?$allocator@D@2@@_STL@@@1@@Z
_TEXT	SEGMENT PARA USE32 PUBLIC 'CODE'
_TEXT	ENDS
;	COMDAT ??0?$allocator@V?$basic_string@DV?$char_traits@D@_STL@@V?$allocator@D@2@@_STL@@@_STL@@QAE@XZ
_TEXT	SEGMENT PARA USE32 PUBLIC 'CODE'
_TEXT	ENDS
;	COMDAT ??_7Packet@@6B@
CONST	SEGMENT DWORD USE32 PUBLIC 'CONST'
CONST	ENDS
;	COMDAT ??1?$basic_string@DV?$char_traits@D@_STL@@V?$allocator@D@2@@_STL@@QAE@XZ
_TEXT	SEGMENT PARA USE32 PUBLIC 'CODE'
_TEXT	ENDS
;	COMDAT ??0?$basic_string@DV?$char_traits@D@_STL@@V?$allocator@D@2@@_STL@@QAE@ABV01@@Z
_TEXT	SEGMENT PARA USE32 PUBLIC 'CODE'
_TEXT	ENDS
sxdata	SEGMENT DWORD USE32 'SXDATA'
sxdata	ENDS
FLAT	GROUP _DATA, CONST, _BSS
	ASSUME	CS: FLAT, DS: FLAT, SS: FLAT
endif

INCLUDELIB LIBCMT
INCLUDELIB OLDNAMES

PUBLIC	??2@YAPAXIPAX@Z					; operator new
; Function compile flags: /Ogsy
; File c:\program files\microsoft visual studio .net 2003\vc7\include\new
;	COMDAT ??2@YAPAXIPAX@Z
_TEXT	SEGMENT
___formal$ = 8						; size = 4
__Where$ = 12						; size = 4
??2@YAPAXIPAX@Z PROC NEAR				; operator new, COMDAT

; 64   : 	return (_Where);

  00000	8b 44 24 08	 mov	 eax, DWORD PTR __Where$[esp-4]

; 65   : 	}

  00004	c3		 ret	 0
??2@YAPAXIPAX@Z ENDP					; operator new
_TEXT	ENDS
PUBLIC	?__stl_new@_STL@@YAPAXI@Z			; _STL::__stl_new
EXTRN	??2@YAPAXI@Z:NEAR				; operator new
; Function compile flags: /Ogsy
; File c:\stlport-4.6.1\stlport\stl\_new.h
;	COMDAT ?__stl_new@_STL@@YAPAXI@Z
_TEXT	SEGMENT
___n$ = 8						; size = 4
?__stl_new@_STL@@YAPAXI@Z PROC NEAR			; _STL::__stl_new, COMDAT

; 86   : inline void*  _STLP_CALL __stl_new(size_t __n)   { _STLP_CHECK_NULL_ALLOC(::operator _STLP_NEW(__n)); }

  00000	e9 00 00 00 00	 jmp	 ??2@YAPAXI@Z		; operator new
?__stl_new@_STL@@YAPAXI@Z ENDP				; _STL::__stl_new
_TEXT	ENDS
PUBLIC	?__stl_delete@_STL@@YAXPAX@Z			; _STL::__stl_delete
EXTRN	??3@YAXPAX@Z:NEAR				; operator delete
; Function compile flags: /Ogsy
;	COMDAT ?__stl_delete@_STL@@YAXPAX@Z
_TEXT	SEGMENT
___p$ = 8						; size = 4
?__stl_delete@_STL@@YAXPAX@Z PROC NEAR			; _STL::__stl_delete, COMDAT

; 87   : inline void   _STLP_CALL __stl_delete(void* __p) { ::operator delete(__p); }

  00000	e9 00 00 00 00	 jmp	 ??3@YAXPAX@Z		; operator delete
?__stl_delete@_STL@@YAXPAX@Z ENDP			; _STL::__stl_delete
_TEXT	ENDS
PUBLIC	?read@SocketInputStream@@QAEIAA_N@Z		; SocketInputStream::read
EXTRN	?read@SocketInputStream@@QAEIPADI@Z:NEAR	; SocketInputStream::read
; Function compile flags: /Ogsy
; File c:\darkeden\designed_common\project\client\packet\socketinputstream.h
;	COMDAT ?read@SocketInputStream@@QAEIAA_N@Z
_TEXT	SEGMENT
_buf$ = 8						; size = 4
?read@SocketInputStream@@QAEIAA_N@Z PROC NEAR		; SocketInputStream::read, COMDAT
; _this$ = ecx

; 67   : 	uint read ( bool   & buf ) throw ( ProtocolException , Error ) { return read( (char*)&buf, szbool   ); }

  00000	6a 01		 push	 1
  00002	ff 74 24 08	 push	 DWORD PTR _buf$[esp]
  00006	e8 00 00 00 00	 call	 ?read@SocketInputStream@@QAEIPADI@Z ; SocketInputStream::read
  0000b	c2 04 00	 ret	 4
?read@SocketInputStream@@QAEIAA_N@Z ENDP		; SocketInputStream::read
_TEXT	ENDS
PUBLIC	?read@SocketInputStream@@QAEIAAE@Z		; SocketInputStream::read
; Function compile flags: /Ogsy
;	COMDAT ?read@SocketInputStream@@QAEIAAE@Z
_TEXT	SEGMENT
_buf$ = 8						; size = 4
?read@SocketInputStream@@QAEIAAE@Z PROC NEAR		; SocketInputStream::read, COMDAT
; _this$ = ecx

; 69   : 	uint read ( uchar  & buf ) throw ( ProtocolException , Error ) { return read( (char*)&buf, szuchar  ); }

  00000	6a 01		 push	 1
  00002	ff 74 24 08	 push	 DWORD PTR _buf$[esp]
  00006	e8 00 00 00 00	 call	 ?read@SocketInputStream@@QAEIPADI@Z ; SocketInputStream::read
  0000b	c2 04 00	 ret	 4
?read@SocketInputStream@@QAEIAAE@Z ENDP			; SocketInputStream::read
_TEXT	ENDS
PUBLIC	?write@SocketOutputStream@@QAEI_N@Z		; SocketOutputStream::write
EXTRN	?write@SocketOutputStream@@QAEIPBDI@Z:NEAR	; SocketOutputStream::write
; Function compile flags: /Ogsy
; File c:\darkeden\designed_common\project\client\packet\socketoutputstream.h
;	COMDAT ?write@SocketOutputStream@@QAEI_N@Z
_TEXT	SEGMENT
_buf$ = 8						; size = 1
?write@SocketOutputStream@@QAEI_N@Z PROC NEAR		; SocketOutputStream::write, COMDAT
; _this$ = ecx

; 60   :     uint write ( bool   buf ) throw ( ProtocolException , Error ) { return write( (const char*)&buf, szbool   ); }

  00000	6a 01		 push	 1
  00002	8d 44 24 08	 lea	 eax, DWORD PTR _buf$[esp]
  00006	50		 push	 eax
  00007	e8 00 00 00 00	 call	 ?write@SocketOutputStream@@QAEIPBDI@Z ; SocketOutputStream::write
  0000c	c2 04 00	 ret	 4
?write@SocketOutputStream@@QAEI_N@Z ENDP		; SocketOutputStream::write
_TEXT	ENDS
PUBLIC	?write@SocketOutputStream@@QAEIE@Z		; SocketOutputStream::write
; Function compile flags: /Ogsy
;	COMDAT ?write@SocketOutputStream@@QAEIE@Z
_TEXT	SEGMENT
_buf$ = 8						; size = 1
?write@SocketOutputStream@@QAEIE@Z PROC NEAR		; SocketOutputStream::write, COMDAT
; _this$ = ecx

; 62   :     uint write ( uchar  buf ) throw ( ProtocolException , Error ) { return write( (const char*)&buf, szuchar  ); }

  00000	6a 01		 push	 1
  00002	8d 44 24 08	 lea	 eax, DWORD PTR _buf$[esp]
  00006	50		 push	 eax
  00007	e8 00 00 00 00	 call	 ?write@SocketOutputStream@@QAEIPBDI@Z ; SocketOutputStream::write
  0000c	c2 04 00	 ret	 4
?write@SocketOutputStream@@QAEIE@Z ENDP			; SocketOutputStream::write
_TEXT	ENDS
PUBLIC	??0PCSkillInfo@@QAE@XZ				; PCSkillInfo::PCSkillInfo
PUBLIC	??_7PCSkillInfo@@6B@				; PCSkillInfo::`vftable'
PUBLIC	??_GPCSkillInfo@@UAEPAXI@Z			; PCSkillInfo::`scalar deleting destructor'
PUBLIC	??_R4PCSkillInfo@@6B@				; PCSkillInfo::`RTTI Complete Object Locator'
PUBLIC	??_R0?AVPCSkillInfo@@@8				; PCSkillInfo `RTTI Type Descriptor'
PUBLIC	??_R3PCSkillInfo@@8				; PCSkillInfo::`RTTI Class Hierarchy Descriptor'
PUBLIC	??_R2PCSkillInfo@@8				; PCSkillInfo::`RTTI Base Class Array'
PUBLIC	??_R1A@?0A@A@PCSkillInfo@@8			; PCSkillInfo::`RTTI Base Class Descriptor at (0,-1,0,0)'
EXTRN	??_7type_info@@6B@:QWORD			; type_info::`vftable'
EXTRN	__purecall:NEAR
EXTRN	??_EPCSkillInfo@@UAEPAXI@Z:NEAR			; PCSkillInfo::`vector deleting destructor'
;	COMDAT ??_7PCSkillInfo@@6B@
; File c:\darkeden\designed_common\project\client\packet\pcskillinfo.h
CONST	SEGMENT
??_7PCSkillInfo@@6B@ DD FLAT:??_R4PCSkillInfo@@6B@	; PCSkillInfo::`vftable'
	DD	FLAT:??_EPCSkillInfo@@UAEPAXI@Z
	DD	FLAT:__purecall
	DD	FLAT:__purecall
	DD	FLAT:__purecall
CONST	ENDS
;	COMDAT ??_R4PCSkillInfo@@6B@
rdata$r	SEGMENT
??_R4PCSkillInfo@@6B@ DD 00H				; PCSkillInfo::`RTTI Complete Object Locator'
	DD	00H
	DD	00H
	DD	FLAT:??_R0?AVPCSkillInfo@@@8
	DD	FLAT:??_R3PCSkillInfo@@8
rdata$r	ENDS
;	COMDAT ??_R0?AVPCSkillInfo@@@8
_DATA	SEGMENT
??_R0?AVPCSkillInfo@@@8 DD FLAT:??_7type_info@@6B@	; PCSkillInfo `RTTI Type Descriptor'
	DD	00H
	DB	'.?AVPCSkillInfo@@', 00H
_DATA	ENDS
;	COMDAT ??_R3PCSkillInfo@@8
rdata$r	SEGMENT
??_R3PCSkillInfo@@8 DD 00H				; PCSkillInfo::`RTTI Class Hierarchy Descriptor'
	DD	00H
	DD	01H
	DD	FLAT:??_R2PCSkillInfo@@8
rdata$r	ENDS
;	COMDAT ??_R2PCSkillInfo@@8
rdata$r	SEGMENT
??_R2PCSkillInfo@@8 DD FLAT:??_R1A@?0A@A@PCSkillInfo@@8	; PCSkillInfo::`RTTI Base Class Array'
rdata$r	ENDS
;	COMDAT ??_R1A@?0A@A@PCSkillInfo@@8
rdata$r	SEGMENT
??_R1A@?0A@A@PCSkillInfo@@8 DD FLAT:??_R0?AVPCSkillInfo@@@8 ; PCSkillInfo::`RTTI Base Class Descriptor at (0,-1,0,0)'
	DD	00H
	DD	00H
	DD	0ffffffffH
	DD	00H
	DD	00H
; Function compile flags: /Ogsy
rdata$r	ENDS
;	COMDAT ??0PCSkillInfo@@QAE@XZ
_TEXT	SEGMENT
??0PCSkillInfo@@QAE@XZ PROC NEAR			; PCSkillInfo::PCSkillInfo, COMDAT
; _this$ = ecx

; 30   : 	PCSkillInfo () throw () {}

  00000	8b c1		 mov	 eax, ecx
  00002	c7 00 00 00 00
	00		 mov	 DWORD PTR [eax], OFFSET FLAT:??_7PCSkillInfo@@6B@
  00008	c3		 ret	 0
??0PCSkillInfo@@QAE@XZ ENDP				; PCSkillInfo::PCSkillInfo
_TEXT	ENDS
PUBLIC	??1PCSkillInfo@@UAE@XZ				; PCSkillInfo::~PCSkillInfo
; Function compile flags: /Ogsy
;	COMDAT ??1PCSkillInfo@@UAE@XZ
_TEXT	SEGMENT
??1PCSkillInfo@@UAE@XZ PROC NEAR			; PCSkillInfo::~PCSkillInfo, COMDAT
; _this$ = ecx

; 33   : 	virtual ~PCSkillInfo () throw () {}

  00000	c7 01 00 00 00
	00		 mov	 DWORD PTR [ecx], OFFSET FLAT:??_7PCSkillInfo@@6B@
  00006	c3		 ret	 0
??1PCSkillInfo@@UAE@XZ ENDP				; PCSkillInfo::~PCSkillInfo
; Function compile flags: /Ogsy
_TEXT	ENDS
;	COMDAT ??_GPCSkillInfo@@UAEPAXI@Z
_TEXT	SEGMENT
___flags$ = 8						; size = 4
??_GPCSkillInfo@@UAEPAXI@Z PROC NEAR			; PCSkillInfo::`scalar deleting destructor', COMDAT
; _this$ = ecx
  00000	f6 44 24 04 01	 test	 BYTE PTR ___flags$[esp-4], 1
  00005	56		 push	 esi
  00006	8b f1		 mov	 esi, ecx
  00008	c7 06 00 00 00
	00		 mov	 DWORD PTR [esi], OFFSET FLAT:??_7PCSkillInfo@@6B@
  0000e	74 07		 je	 SHORT $L100489
  00010	56		 push	 esi
  00011	e8 00 00 00 00	 call	 ??3@YAXPAX@Z		; operator delete
  00016	59		 pop	 ecx
$L100489:
  00017	8b c6		 mov	 eax, esi
  00019	5e		 pop	 esi
  0001a	c2 04 00	 ret	 4
??_GPCSkillInfo@@UAEPAXI@Z ENDP				; PCSkillInfo::`scalar deleting destructor'
_TEXT	ENDS
PUBLIC	?getSize@SubSlayerSkillInfo@@QBEIXZ		; SubSlayerSkillInfo::getSize
; Function compile flags: /Ogsy
; File c:\darkeden\designed_common\project\client\packet\subslayerskillinfo.h
;	COMDAT ?getSize@SubSlayerSkillInfo@@QBEIXZ
_TEXT	SEGMENT
?getSize@SubSlayerSkillInfo@@QBEIXZ PROC NEAR		; SubSlayerSkillInfo::getSize, COMDAT
; _this$ = ecx

; 38   : 	uint getSize () const throw () { return szSkillType + szExp + szExpLevel + szTurn + szTurn + szBYTE; }

  00000	6a 11		 push	 17			; 00000011H
  00002	58		 pop	 eax
  00003	c3		 ret	 0
?getSize@SubSlayerSkillInfo@@QBEIXZ ENDP		; SubSlayerSkillInfo::getSize
_TEXT	ENDS
PUBLIC	?empty@?$list@PAVSubSlayerSkillInfo@@V?$allocator@PAVSubSlayerSkillInfo@@@_STL@@@_STL@@QBE_NXZ ; _STL::list<SubSlayerSkillInfo *,_STL::allocator<SubSlayerSkillInfo *> >::empty
; Function compile flags: /Ogsy
; File c:\stlport-4.6.1\stlport\stl\_list.h
;	COMDAT ?empty@?$list@PAVSubSlayerSkillInfo@@V?$allocator@PAVSubSlayerSkillInfo@@@_STL@@@_STL@@QBE_NXZ
_TEXT	SEGMENT
?empty@?$list@PAVSubSlayerSkillInfo@@V?$allocator@PAVSubSlayerSkillInfo@@@_STL@@@_STL@@QBE_NXZ PROC NEAR ; _STL::list<SubSlayerSkillInfo *,_STL::allocator<SubSlayerSkillInfo *> >::empty, COMDAT
; _this$ = ecx

; 282  :   bool empty() const { return this->_M_node._M_data->_M_next == this->_M_node._M_data; }

  00000	8b 01		 mov	 eax, DWORD PTR [ecx]
  00002	33 c9		 xor	 ecx, ecx
  00004	39 00		 cmp	 DWORD PTR [eax], eax
  00006	0f 94 c1	 sete	 cl
  00009	8a c1		 mov	 al, cl
  0000b	c3		 ret	 0
?empty@?$list@PAVSubSlayerSkillInfo@@V?$allocator@PAVSubSlayerSkillInfo@@@_STL@@@_STL@@QBE_NXZ ENDP ; _STL::list<SubSlayerSkillInfo *,_STL::allocator<SubSlayerSkillInfo *> >::empty
_TEXT	ENDS
PUBLIC	??0?$allocator@PAVSubSlayerSkillInfo@@@_STL@@QAE@XZ ; _STL::allocator<SubSlayerSkillInfo *>::allocator<SubSlayerSkillInfo *>
; Function compile flags: /Ogsy
; File c:\stlport-4.6.1\stlport\stl\_alloc.h
;	COMDAT ??0?$allocator@PAVSubSlayerSkillInfo@@@_STL@@QAE@XZ
_TEXT	SEGMENT
??0?$allocator@PAVSubSlayerSkillInfo@@@_STL@@QAE@XZ PROC NEAR ; _STL::allocator<SubSlayerSkillInfo *>::allocator<SubSlayerSkillInfo *>, COMDAT
; _this$ = ecx

; 345  :   allocator() _STLP_NOTHROW {}

  00000	8b c1		 mov	 eax, ecx
  00002	c3		 ret	 0
??0?$allocator@PAVSubSlayerSkillInfo@@@_STL@@QAE@XZ ENDP ; _STL::allocator<SubSlayerSkillInfo *>::allocator<SubSlayerSkillInfo *>
_TEXT	ENDS
PUBLIC	??1?$allocator@PAVSubSlayerSkillInfo@@@_STL@@QAE@XZ ; _STL::allocator<SubSlayerSkillInfo *>::~allocator<SubSlayerSkillInfo *>
; Function compile flags: /Ogsy
;	COMDAT ??1?$allocator@PAVSubSlayerSkillInfo@@@_STL@@QAE@XZ
_TEXT	SEGMENT
??1?$allocator@PAVSubSlayerSkillInfo@@@_STL@@QAE@XZ PROC NEAR ; _STL::allocator<SubSlayerSkillInfo *>::~allocator<SubSlayerSkillInfo *>, COMDAT
; _this$ = ecx

; 350  :   ~allocator() _STLP_NOTHROW {}

  00000	c3		 ret	 0
??1?$allocator@PAVSubSlayerSkillInfo@@@_STL@@QAE@XZ ENDP ; _STL::allocator<SubSlayerSkillInfo *>::~allocator<SubSlayerSkillInfo *>
_TEXT	ENDS
PUBLIC	??D?$_List_iterator@PAVSubSlayerSkillInfo@@U?$_Const_traits@PAVSubSlayerSkillInfo@@@_STL@@@_STL@@QBEABQAVSubSlayerSkillInfo@@XZ ; _STL::_List_iterator<SubSlayerSkillInfo *,_STL::_Const_traits<SubSlayerSkillInfo *> >::operator*
; Function compile flags: /Ogsy
; File c:\stlport-4.6.1\stlport\stl\_list.h
;	COMDAT ??D?$_List_iterator@PAVSubSlayerSkillInfo@@U?$_Const_traits@PAVSubSlayerSkillInfo@@@_STL@@@_STL@@QBEABQAVSubSlayerSkillInfo@@XZ
_TEXT	SEGMENT
??D?$_List_iterator@PAVSubSlayerSkillInfo@@U?$_Const_traits@PAVSubSlayerSkillInfo@@@_STL@@@_STL@@QBEABQAVSubSlayerSkillInfo@@XZ PROC NEAR ; _STL::_List_iterator<SubSlayerSkillInfo *,_STL::_Const_traits<SubSlayerSkillInfo *> >::operator*, COMDAT
; _this$ = ecx

; 130  :   reference operator*() const { return ((_Node*)_M_node)->_M_data; }

  00000	8b 01		 mov	 eax, DWORD PTR [ecx]
  00002	83 c0 08	 add	 eax, 8
  00005	c3		 ret	 0
??D?$_List_iterator@PAVSubSlayerSkillInfo@@U?$_Const_traits@PAVSubSlayerSkillInfo@@@_STL@@@_STL@@QBEABQAVSubSlayerSkillInfo@@XZ ENDP ; _STL::_List_iterator<SubSlayerSkillInfo *,_STL::_Const_traits<SubSlayerSkillInfo *> >::operator*
_TEXT	ENDS
PUBLIC	??D?$_List_iterator@PAVSubSlayerSkillInfo@@U?$_Nonconst_traits@PAVSubSlayerSkillInfo@@@_STL@@@_STL@@QBEAAPAVSubSlayerSkillInfo@@XZ ; _STL::_List_iterator<SubSlayerSkillInfo *,_STL::_Nonconst_traits<SubSlayerSkillInfo *> >::operator*
; Function compile flags: /Ogsy
;	COMDAT ??D?$_List_iterator@PAVSubSlayerSkillInfo@@U?$_Nonconst_traits@PAVSubSlayerSkillInfo@@@_STL@@@_STL@@QBEAAPAVSubSlayerSkillInfo@@XZ
_TEXT	SEGMENT
??D?$_List_iterator@PAVSubSlayerSkillInfo@@U?$_Nonconst_traits@PAVSubSlayerSkillInfo@@@_STL@@@_STL@@QBEAAPAVSubSlayerSkillInfo@@XZ PROC NEAR ; _STL::_List_iterator<SubSlayerSkillInfo *,_STL::_Nonconst_traits<SubSlayerSkillInfo *> >::operator*, COMDAT
; _this$ = ecx

; 130  :   reference operator*() const { return ((_Node*)_M_node)->_M_data; }

  00000	8b 01		 mov	 eax, DWORD PTR [ecx]
  00002	83 c0 08	 add	 eax, 8
  00005	c3		 ret	 0
??D?$_List_iterator@PAVSubSlayerSkillInfo@@U?$_Nonconst_traits@PAVSubSlayerSkillInfo@@@_STL@@@_STL@@QBEAAPAVSubSlayerSkillInfo@@XZ ENDP ; _STL::_List_iterator<SubSlayerSkillInfo *,_STL::_Nonconst_traits<SubSlayerSkillInfo *> >::operator*
_TEXT	ENDS
PUBLIC	??1?$allocator@U?$_List_node@PAVSubSlayerSkillInfo@@@_STL@@@_STL@@QAE@XZ ; _STL::allocator<_STL::_List_node<SubSlayerSkillInfo *> >::~allocator<_STL::_List_node<SubSlayerSkillInfo *> >
; Function compile flags: /Ogsy
; File c:\stlport-4.6.1\stlport\stl\_alloc.h
;	COMDAT ??1?$allocator@U?$_List_node@PAVSubSlayerSkillInfo@@@_STL@@@_STL@@QAE@XZ
_TEXT	SEGMENT
??1?$allocator@U?$_List_node@PAVSubSlayerSkillInfo@@@_STL@@@_STL@@QAE@XZ PROC NEAR ; _STL::allocator<_STL::_List_node<SubSlayerSkillInfo *> >::~allocator<_STL::_List_node<SubSlayerSkillInfo *> >, COMDAT
; _this$ = ecx

; 350  :   ~allocator() _STLP_NOTHROW {}

  00000	c3		 ret	 0
??1?$allocator@U?$_List_node@PAVSubSlayerSkillInfo@@@_STL@@@_STL@@QAE@XZ ENDP ; _STL::allocator<_STL::_List_node<SubSlayerSkillInfo *> >::~allocator<_STL::_List_node<SubSlayerSkillInfo *> >
_TEXT	ENDS
PUBLIC	??0?$allocator@U?$_List_node@PAVSubSlayerSkillInfo@@@_STL@@@_STL@@QAE@ABV01@@Z ; _STL::allocator<_STL::_List_node<SubSlayerSkillInfo *> >::allocator<_STL::_List_node<SubSlayerSkillInfo *> >
; Function compile flags: /Ogsy
;	COMDAT ??0?$allocator@U?$_List_node@PAVSubSlayerSkillInfo@@@_STL@@@_STL@@QAE@ABV01@@Z
_TEXT	SEGMENT
___formal$ = 8						; size = 4
??0?$allocator@U?$_List_node@PAVSubSlayerSkillInfo@@@_STL@@@_STL@@QAE@ABV01@@Z PROC NEAR ; _STL::allocator<_STL::_List_node<SubSlayerSkillInfo *> >::allocator<_STL::_List_node<SubSlayerSkillInfo *> >, COMDAT
; _this$ = ecx

; 349  :   allocator(const allocator<_Tp>&) _STLP_NOTHROW {}

  00000	8b c1		 mov	 eax, ecx
  00002	c2 04 00	 ret	 4
??0?$allocator@U?$_List_node@PAVSubSlayerSkillInfo@@@_STL@@@_STL@@QAE@ABV01@@Z ENDP ; _STL::allocator<_STL::_List_node<SubSlayerSkillInfo *> >::allocator<_STL::_List_node<SubSlayerSkillInfo *> >
_TEXT	ENDS
PUBLIC	??$_Destroy@PAVSubSlayerSkillInfo@@@_STL@@YAXPAPAVSubSlayerSkillInfo@@@Z ; _STL::_Destroy<SubSlayerSkillInfo *>
; Function compile flags: /Ogsy
; File c:\stlport-4.6.1\stlport\stl\_construct.h
;	COMDAT ??$_Destroy@PAVSubSlayerSkillInfo@@@_STL@@YAXPAPAVSubSlayerSkillInfo@@@Z
_TEXT	SEGMENT
___pointer$ = 8						; size = 4
??$_Destroy@PAVSubSlayerSkillInfo@@@_STL@@YAXPAPAVSubSlayerSkillInfo@@@Z PROC NEAR ; _STL::_Destroy<SubSlayerSkillInfo *>, COMDAT

; 57   : # if _MSC_VER >= 1010
; 58   :   __pointer;
; 59   : # endif	// _MSC_VER >= 1000
; 60   : # ifdef _STLP_TRIVIAL_DESTRUCTOR_BUG
; 61   :   typedef typename __type_traits<_Tp>::has_trivial_destructor _Trivial_destructor;
; 62   :   __destroy_aux(__pointer, _Trivial_destructor());
; 63   : # else
; 64   : #  if ( defined (__BORLANDC__) && ( __BORLANDC__ < 0x500 ) )
; 65   :     __pointer->_Tp::~_Tp();
; 66   : #  else
; 67   :     __pointer->~_Tp();
; 68   : #  endif
; 69   : # endif
; 70   : # ifdef _STLP_DEBUG_UNINITIALIZED
; 71   : 	memset((char*)__pointer, _STLP_SHRED_BYTE, sizeof(_Tp));
; 72   : # endif
; 73   : }

  00000	c3		 ret	 0
??$_Destroy@PAVSubSlayerSkillInfo@@@_STL@@YAXPAPAVSubSlayerSkillInfo@@@Z ENDP ; _STL::_Destroy<SubSlayerSkillInfo *>
_TEXT	ENDS
PUBLIC	??$?0PAVSubSlayerSkillInfo@@@?$allocator@U?$_List_node@PAVSubSlayerSkillInfo@@@_STL@@@_STL@@QAE@ABV?$allocator@PAVSubSlayerSkillInfo@@@1@@Z ; _STL::allocator<_STL::_List_node<SubSlayerSkillInfo *> >::allocator<_STL::_List_node<SubSlayerSkillInfo *> ><SubSlayerSkillInfo *>
; Function compile flags: /Ogsy
; File c:\stlport-4.6.1\stlport\stl\_alloc.h
;	COMDAT ??$?0PAVSubSlayerSkillInfo@@@?$allocator@U?$_List_node@PAVSubSlayerSkillInfo@@@_STL@@@_STL@@QAE@ABV?$allocator@PAVSubSlayerSkillInfo@@@1@@Z
_TEXT	SEGMENT
___formal$ = 8						; size = 4
??$?0PAVSubSlayerSkillInfo@@@?$allocator@U?$_List_node@PAVSubSlayerSkillInfo@@@_STL@@@_STL@@QAE@ABV?$allocator@PAVSubSlayerSkillInfo@@@1@@Z PROC NEAR ; _STL::allocator<_STL::_List_node<SubSlayerSkillInfo *> >::allocator<_STL::_List_node<SubSlayerSkillInfo *> ><SubSlayerSkillInfo *>, COMDAT
; _this$ = ecx

; 347  :   template <class _Tp1> allocator(const allocator<_Tp1>&) _STLP_NOTHROW {}

  00000	8b c1		 mov	 eax, ecx
  00002	c2 04 00	 ret	 4
??$?0PAVSubSlayerSkillInfo@@@?$allocator@U?$_List_node@PAVSubSlayerSkillInfo@@@_STL@@@_STL@@QAE@ABV?$allocator@PAVSubSlayerSkillInfo@@@1@@Z ENDP ; _STL::allocator<_STL::_List_node<SubSlayerSkillInfo *> >::allocator<_STL::_List_node<SubSlayerSkillInfo *> ><SubSlayerSkillInfo *>
_TEXT	ENDS
PUBLIC	??$_Construct@PAVSubSlayerSkillInfo@@PAV1@@_STL@@YAXPAPAVSubSlayerSkillInfo@@ABQAV1@@Z ; _STL::_Construct<SubSlayerSkillInfo *,SubSlayerSkillInfo *>
; Function compile flags: /Ogsy
; File c:\stlport-4.6.1\stlport\stl\_construct.h
;	COMDAT ??$_Construct@PAVSubSlayerSkillInfo@@PAV1@@_STL@@YAXPAPAVSubSlayerSkillInfo@@ABQAV1@@Z
_TEXT	SEGMENT
___p$ = 8						; size = 4
___val$ = 12						; size = 4
??$_Construct@PAVSubSlayerSkillInfo@@PAV1@@_STL@@YAXPAPAVSubSlayerSkillInfo@@ABQAV1@@Z PROC NEAR ; _STL::_Construct<SubSlayerSkillInfo *,SubSlayerSkillInfo *>, COMDAT

; 94   : # ifdef _STLP_DEBUG_UNINITIALIZED
; 95   : 	memset((char*)__p, _STLP_SHRED_BYTE, sizeof(_T1));
; 96   : # endif
; 97   :     _STLP_PLACEMENT_NEW (__p) _T1(__val);

  00000	8b 44 24 04	 mov	 eax, DWORD PTR ___p$[esp-4]
  00004	85 c0		 test	 eax, eax
  00006	74 08		 je	 SHORT $L102135
  00008	8b 4c 24 08	 mov	 ecx, DWORD PTR ___val$[esp-4]
  0000c	8b 09		 mov	 ecx, DWORD PTR [ecx]
  0000e	89 08		 mov	 DWORD PTR [eax], ecx
$L102135:

; 98   : }

  00010	c3		 ret	 0
??$_Construct@PAVSubSlayerSkillInfo@@PAV1@@_STL@@YAXPAPAVSubSlayerSkillInfo@@ABQAV1@@Z ENDP ; _STL::_Construct<SubSlayerSkillInfo *,SubSlayerSkillInfo *>
_TEXT	ENDS
PUBLIC	??0_List_iterator_base@_STL@@QAE@PAU_List_node_base@1@@Z ; _STL::_List_iterator_base::_List_iterator_base
; Function compile flags: /Ogsy
; File c:\stlport-4.6.1\stlport\stl\_list.h
;	COMDAT ??0_List_iterator_base@_STL@@QAE@PAU_List_node_base@1@@Z
_TEXT	SEGMENT
___x$ = 8						; size = 4
??0_List_iterator_base@_STL@@QAE@PAU_List_node_base@1@@Z PROC NEAR ; _STL::_List_iterator_base::_List_iterator_base, COMDAT
; _this$ = ecx

; 95   :   _List_iterator_base(_List_node_base* __x) : _M_node(__x) {}

  00000	8b c1		 mov	 eax, ecx
  00002	8b 4c 24 04	 mov	 ecx, DWORD PTR ___x$[esp-4]
  00006	89 08		 mov	 DWORD PTR [eax], ecx
  00008	c2 04 00	 ret	 4
??0_List_iterator_base@_STL@@QAE@PAU_List_node_base@1@@Z ENDP ; _STL::_List_iterator_base::_List_iterator_base
_TEXT	ENDS
PUBLIC	?_M_incr@_List_iterator_base@_STL@@QAEXXZ	; _STL::_List_iterator_base::_M_incr
; Function compile flags: /Ogsy
;	COMDAT ?_M_incr@_List_iterator_base@_STL@@QAEXXZ
_TEXT	SEGMENT
?_M_incr@_List_iterator_base@_STL@@QAEXXZ PROC NEAR	; _STL::_List_iterator_base::_M_incr, COMDAT
; _this$ = ecx

; 98   :   void _M_incr() { _M_node = _M_node->_M_next; }

  00000	8b 01		 mov	 eax, DWORD PTR [ecx]
  00002	8b 00		 mov	 eax, DWORD PTR [eax]
  00004	89 01		 mov	 DWORD PTR [ecx], eax
  00006	c3		 ret	 0
?_M_incr@_List_iterator_base@_STL@@QAEXXZ ENDP		; _STL::_List_iterator_base::_M_incr
_TEXT	ENDS
PUBLIC	??9_List_iterator_base@_STL@@QBE_NABU01@@Z	; _STL::_List_iterator_base::operator!=
; Function compile flags: /Ogsy
;	COMDAT ??9_List_iterator_base@_STL@@QBE_NABU01@@Z
_TEXT	SEGMENT
___y$ = 8						; size = 4
??9_List_iterator_base@_STL@@QBE_NABU01@@Z PROC NEAR	; _STL::_List_iterator_base::operator!=, COMDAT
; _this$ = ecx

; 104  :     return _M_node != __y._M_node; 

  00000	8b 01		 mov	 eax, DWORD PTR [ecx]
  00002	8b 54 24 04	 mov	 edx, DWORD PTR ___y$[esp-4]
  00006	33 c9		 xor	 ecx, ecx
  00008	3b 02		 cmp	 eax, DWORD PTR [edx]
  0000a	0f 95 c1	 setne	 cl
  0000d	8a c1		 mov	 al, cl

; 105  :   }

  0000f	c2 04 00	 ret	 4
??9_List_iterator_base@_STL@@QBE_NABU01@@Z ENDP		; _STL::_List_iterator_base::operator!=
_TEXT	ENDS
PUBLIC	?allocate@?$__node_alloc@$00$0A@@_STL@@SAPAXI@Z	; _STL::__node_alloc<1,0>::allocate
EXTRN	?_M_allocate@?$__node_alloc@$00$0A@@_STL@@CAPAXI@Z:NEAR ; _STL::__node_alloc<1,0>::_M_allocate
; Function compile flags: /Ogsy
; File c:\stlport-4.6.1\stlport\stl\_alloc.h
;	COMDAT ?allocate@?$__node_alloc@$00$0A@@_STL@@SAPAXI@Z
_TEXT	SEGMENT
___n$ = 8						; size = 4
?allocate@?$__node_alloc@$00$0A@@_STL@@SAPAXI@Z PROC NEAR ; _STL::__node_alloc<1,0>::allocate, COMDAT

; 251  :   static void * _STLP_CALL allocate(size_t __n) { return (__n > (size_t)_MAX_BYTES) ?  __stl_new(__n) : _M_allocate(__n); }

  00000	8b 44 24 04	 mov	 eax, DWORD PTR ___n$[esp-4]
  00004	3d 80 00 00 00	 cmp	 eax, 128		; 00000080H
  00009	50		 push	 eax
  0000a	76 07		 jbe	 SHORT $L102152
  0000c	e8 00 00 00 00	 call	 ??2@YAPAXI@Z		; operator new
  00011	59		 pop	 ecx
  00012	c3		 ret	 0
$L102152:
  00013	e8 00 00 00 00	 call	 ?_M_allocate@?$__node_alloc@$00$0A@@_STL@@CAPAXI@Z ; _STL::__node_alloc<1,0>::_M_allocate
  00018	59		 pop	 ecx
  00019	c3		 ret	 0
?allocate@?$__node_alloc@$00$0A@@_STL@@SAPAXI@Z ENDP	; _STL::__node_alloc<1,0>::allocate
_TEXT	ENDS
PUBLIC	?deallocate@?$__node_alloc@$00$0A@@_STL@@SAXPAXI@Z ; _STL::__node_alloc<1,0>::deallocate
EXTRN	?_M_deallocate@?$__node_alloc@$00$0A@@_STL@@CAXPAXI@Z:NEAR ; _STL::__node_alloc<1,0>::_M_deallocate
; Function compile flags: /Ogsy
;	COMDAT ?deallocate@?$__node_alloc@$00$0A@@_STL@@SAXPAXI@Z
_TEXT	SEGMENT
___p$ = 8						; size = 4
___n$ = 12						; size = 4
?deallocate@?$__node_alloc@$00$0A@@_STL@@SAXPAXI@Z PROC NEAR ; _STL::__node_alloc<1,0>::deallocate, COMDAT

; 253  :   static void _STLP_CALL deallocate(void *__p, size_t __n) { if (__n > (size_t)_MAX_BYTES) __stl_delete(__p); else _M_deallocate(__p, __n); }

  00000	81 7c 24 08 80
	00 00 00	 cmp	 DWORD PTR ___n$[esp-4], 128 ; 00000080H
  00008	76 0b		 jbe	 SHORT $L98677
  0000a	ff 74 24 04	 push	 DWORD PTR ___p$[esp-4]
  0000e	e8 00 00 00 00	 call	 ??3@YAXPAX@Z		; operator delete
  00013	59		 pop	 ecx
  00014	c3		 ret	 0
$L98677:
  00015	e9 00 00 00 00	 jmp	 ?_M_deallocate@?$__node_alloc@$00$0A@@_STL@@CAXPAXI@Z ; _STL::__node_alloc<1,0>::_M_deallocate
?deallocate@?$__node_alloc@$00$0A@@_STL@@SAXPAXI@Z ENDP	; _STL::__node_alloc<1,0>::deallocate
_TEXT	ENDS
PUBLIC	??0?$_List_iterator@PAVSubSlayerSkillInfo@@U?$_Const_traits@PAVSubSlayerSkillInfo@@@_STL@@@_STL@@QAE@ABU?$_List_iterator@PAVSubSlayerSkillInfo@@U?$_Nonconst_traits@PAVSubSlayerSkillInfo@@@_STL@@@1@@Z ; _STL::_List_iterator<SubSlayerSkillInfo *,_STL::_Const_traits<SubSlayerSkillInfo *> >::_List_iterator<SubSlayerSkillInfo *,_STL::_Const_traits<SubSlayerSkillInfo *> >
; Function compile flags: /Ogsy
; File c:\stlport-4.6.1\stlport\stl\_list.h
;	COMDAT ??0?$_List_iterator@PAVSubSlayerSkillInfo@@U?$_Const_traits@PAVSubSlayerSkillInfo@@@_STL@@@_STL@@QAE@ABU?$_List_iterator@PAVSubSlayerSkillInfo@@U?$_Nonconst_traits@PAVSubSlayerSkillInfo@@@_STL@@@1@@Z
_TEXT	SEGMENT
___x$ = 8						; size = 4
??0?$_List_iterator@PAVSubSlayerSkillInfo@@U?$_Const_traits@PAVSubSlayerSkillInfo@@@_STL@@@_STL@@QAE@ABU?$_List_iterator@PAVSubSlayerSkillInfo@@U?$_Nonconst_traits@PAVSubSlayerSkillInfo@@@_STL@@@1@@Z PROC NEAR ; _STL::_List_iterator<SubSlayerSkillInfo *,_STL::_Const_traits<SubSlayerSkillInfo *> >::_List_iterator<SubSlayerSkillInfo *,_STL::_Const_traits<SubSlayerSkillInfo *> >, COMDAT
; _this$ = ecx

; 128  :   _List_iterator(const iterator& __x) :  _List_iterator_base(__x._M_node) {}

  00000	8b c1		 mov	 eax, ecx
  00002	8b 4c 24 04	 mov	 ecx, DWORD PTR ___x$[esp-4]
  00006	8b 09		 mov	 ecx, DWORD PTR [ecx]
  00008	89 08		 mov	 DWORD PTR [eax], ecx
  0000a	c2 04 00	 ret	 4
??0?$_List_iterator@PAVSubSlayerSkillInfo@@U?$_Const_traits@PAVSubSlayerSkillInfo@@@_STL@@@_STL@@QAE@ABU?$_List_iterator@PAVSubSlayerSkillInfo@@U?$_Nonconst_traits@PAVSubSlayerSkillInfo@@@_STL@@@1@@Z ENDP ; _STL::_List_iterator<SubSlayerSkillInfo *,_STL::_Const_traits<SubSlayerSkillInfo *> >::_List_iterator<SubSlayerSkillInfo *,_STL::_Const_traits<SubSlayerSkillInfo *> >
_TEXT	ENDS
PUBLIC	??E?$_List_iterator@PAVSubSlayerSkillInfo@@U?$_Const_traits@PAVSubSlayerSkillInfo@@@_STL@@@_STL@@QAE?AU01@H@Z ; _STL::_List_iterator<SubSlayerSkillInfo *,_STL::_Const_traits<SubSlayerSkillInfo *> >::operator++
; Function compile flags: /Ogsy
;	COMDAT ??E?$_List_iterator@PAVSubSlayerSkillInfo@@U?$_Const_traits@PAVSubSlayerSkillInfo@@@_STL@@@_STL@@QAE?AU01@H@Z
_TEXT	SEGMENT
___$ReturnUdt$ = 8					; size = 4
___formal$ = 12						; size = 4
??E?$_List_iterator@PAVSubSlayerSkillInfo@@U?$_Const_traits@PAVSubSlayerSkillInfo@@@_STL@@@_STL@@QAE?AU01@H@Z PROC NEAR ; _STL::_List_iterator<SubSlayerSkillInfo *,_STL::_Const_traits<SubSlayerSkillInfo *> >::operator++, COMDAT
; _this$ = ecx

; 139  :     _Self __tmp = *this;

  00000	8b 11		 mov	 edx, DWORD PTR [ecx]

; 140  :     this->_M_incr();

  00002	8b 02		 mov	 eax, DWORD PTR [edx]
  00004	89 01		 mov	 DWORD PTR [ecx], eax

; 141  :     return __tmp;

  00006	8b 44 24 04	 mov	 eax, DWORD PTR ___$ReturnUdt$[esp-4]
  0000a	89 10		 mov	 DWORD PTR [eax], edx

; 142  :   }

  0000c	c2 08 00	 ret	 8
??E?$_List_iterator@PAVSubSlayerSkillInfo@@U?$_Const_traits@PAVSubSlayerSkillInfo@@@_STL@@@_STL@@QAE?AU01@H@Z ENDP ; _STL::_List_iterator<SubSlayerSkillInfo *,_STL::_Const_traits<SubSlayerSkillInfo *> >::operator++
_TEXT	ENDS
PUBLIC	??0?$_List_iterator@PAVSubSlayerSkillInfo@@U?$_Const_traits@PAVSubSlayerSkillInfo@@@_STL@@@_STL@@QAE@PAU?$_List_node@PAVSubSlayerSkillInfo@@@1@@Z ; _STL::_List_iterator<SubSlayerSkillInfo *,_STL::_Const_traits<SubSlayerSkillInfo *> >::_List_iterator<SubSlayerSkillInfo *,_STL::_Const_traits<SubSlayerSkillInfo *> >
; Function compile flags: /Ogsy
;	COMDAT ??0?$_List_iterator@PAVSubSlayerSkillInfo@@U?$_Const_traits@PAVSubSlayerSkillInfo@@@_STL@@@_STL@@QAE@PAU?$_List_node@PAVSubSlayerSkillInfo@@@1@@Z
_TEXT	SEGMENT
___x$ = 8						; size = 4
??0?$_List_iterator@PAVSubSlayerSkillInfo@@U?$_Const_traits@PAVSubSlayerSkillInfo@@@_STL@@@_STL@@QAE@PAU?$_List_node@PAVSubSlayerSkillInfo@@@1@@Z PROC NEAR ; _STL::_List_iterator<SubSlayerSkillInfo *,_STL::_Const_traits<SubSlayerSkillInfo *> >::_List_iterator<SubSlayerSkillInfo *,_STL::_Const_traits<SubSlayerSkillInfo *> >, COMDAT
; _this$ = ecx

; 126  :   _List_iterator(_Node* __x) : _List_iterator_base(__x) {}

  00000	8b c1		 mov	 eax, ecx
  00002	8b 4c 24 04	 mov	 ecx, DWORD PTR ___x$[esp-4]
  00006	89 08		 mov	 DWORD PTR [eax], ecx
  00008	c2 04 00	 ret	 4
??0?$_List_iterator@PAVSubSlayerSkillInfo@@U?$_Const_traits@PAVSubSlayerSkillInfo@@@_STL@@@_STL@@QAE@PAU?$_List_node@PAVSubSlayerSkillInfo@@@1@@Z ENDP ; _STL::_List_iterator<SubSlayerSkillInfo *,_STL::_Const_traits<SubSlayerSkillInfo *> >::_List_iterator<SubSlayerSkillInfo *,_STL::_Const_traits<SubSlayerSkillInfo *> >
_TEXT	ENDS
PUBLIC	??0?$_List_iterator@PAVSubSlayerSkillInfo@@U?$_Nonconst_traits@PAVSubSlayerSkillInfo@@@_STL@@@_STL@@QAE@PAU?$_List_node@PAVSubSlayerSkillInfo@@@1@@Z ; _STL::_List_iterator<SubSlayerSkillInfo *,_STL::_Nonconst_traits<SubSlayerSkillInfo *> >::_List_iterator<SubSlayerSkillInfo *,_STL::_Nonconst_traits<SubSlayerSkillInfo *> >
; Function compile flags: /Ogsy
;	COMDAT ??0?$_List_iterator@PAVSubSlayerSkillInfo@@U?$_Nonconst_traits@PAVSubSlayerSkillInfo@@@_STL@@@_STL@@QAE@PAU?$_List_node@PAVSubSlayerSkillInfo@@@1@@Z
_TEXT	SEGMENT
___x$ = 8						; size = 4
??0?$_List_iterator@PAVSubSlayerSkillInfo@@U?$_Nonconst_traits@PAVSubSlayerSkillInfo@@@_STL@@@_STL@@QAE@PAU?$_List_node@PAVSubSlayerSkillInfo@@@1@@Z PROC NEAR ; _STL::_List_iterator<SubSlayerSkillInfo *,_STL::_Nonconst_traits<SubSlayerSkillInfo *> >::_List_iterator<SubSlayerSkillInfo *,_STL::_Nonconst_traits<SubSlayerSkillInfo *> >, COMDAT
; _this$ = ecx

; 126  :   _List_iterator(_Node* __x) : _List_iterator_base(__x) {}

  00000	8b c1		 mov	 eax, ecx
  00002	8b 4c 24 04	 mov	 ecx, DWORD PTR ___x$[esp-4]
  00006	89 08		 mov	 DWORD PTR [eax], ecx
  00008	c2 04 00	 ret	 4
??0?$_List_iterator@PAVSubSlayerSkillInfo@@U?$_Nonconst_traits@PAVSubSlayerSkillInfo@@@_STL@@@_STL@@QAE@PAU?$_List_node@PAVSubSlayerSkillInfo@@@1@@Z ENDP ; _STL::_List_iterator<SubSlayerSkillInfo *,_STL::_Nonconst_traits<SubSlayerSkillInfo *> >::_List_iterator<SubSlayerSkillInfo *,_STL::_Nonconst_traits<SubSlayerSkillInfo *> >
_TEXT	ENDS
PUBLIC	??1?$_STLP_alloc_proxy@PAU?$_List_node@PAVSubSlayerSkillInfo@@@_STL@@U12@V?$allocator@U?$_List_node@PAVSubSlayerSkillInfo@@@_STL@@@2@@_STL@@QAE@XZ ; _STL::_STLP_alloc_proxy<_STL::_List_node<SubSlayerSkillInfo *> *,_STL::_List_node<SubSlayerSkillInfo *>,_STL::allocator<_STL::_List_node<SubSlayerSkillInfo *> > >::~_STLP_alloc_proxy<_STL::_List_node<SubSlayerSkillInfo *> *,_STL::_List_node<SubSlayerSkillInfo *>,_STL::allocator<_STL::_List_node<SubSlayerSkillInfo *> > >
; Function compile flags: /Ogsy
;	COMDAT ??1?$_STLP_alloc_proxy@PAU?$_List_node@PAVSubSlayerSkillInfo@@@_STL@@U12@V?$allocator@U?$_List_node@PAVSubSlayerSkillInfo@@@_STL@@@2@@_STL@@QAE@XZ
_TEXT	SEGMENT
??1?$_STLP_alloc_proxy@PAU?$_List_node@PAVSubSlayerSkillInfo@@@_STL@@U12@V?$allocator@U?$_List_node@PAVSubSlayerSkillInfo@@@_STL@@@2@@_STL@@QAE@XZ PROC NEAR ; _STL::_STLP_alloc_proxy<_STL::_List_node<SubSlayerSkillInfo *> *,_STL::_List_node<SubSlayerSkillInfo *>,_STL::allocator<_STL::_List_node<SubSlayerSkillInfo *> > >::~_STLP_alloc_proxy<_STL::_List_node<SubSlayerSkillInfo *> *,_STL::_List_node<SubSlayerSkillInfo *>,_STL::allocator<_STL::_List_node<SubSlayerSkillInfo *> > >, COMDAT
; _this$ = ecx
  00000	c3		 ret	 0
??1?$_STLP_alloc_proxy@PAU?$_List_node@PAVSubSlayerSkillInfo@@@_STL@@U12@V?$allocator@U?$_List_node@PAVSubSlayerSkillInfo@@@_STL@@@2@@_STL@@QAE@XZ ENDP ; _STL::_STLP_alloc_proxy<_STL::_List_node<SubSlayerSkillInfo *> *,_STL::_List_node<SubSlayerSkillInfo *>,_STL::allocator<_STL::_List_node<SubSlayerSkillInfo *> > >::~_STLP_alloc_proxy<_STL::_List_node<SubSlayerSkillInfo *> *,_STL::_List_node<SubSlayerSkillInfo *>,_STL::allocator<_STL::_List_node<SubSlayerSkillInfo *> > >
_TEXT	ENDS
PUBLIC	??0?$_STLP_alloc_proxy@PAU?$_List_node@PAVSubSlayerSkillInfo@@@_STL@@U12@V?$allocator@U?$_List_node@PAVSubSlayerSkillInfo@@@_STL@@@2@@_STL@@QAE@ABV?$allocator@U?$_List_node@PAVSubSlayerSkillInfo@@@_STL@@@1@PAU?$_List_node@PAVSubSlayerSkillInfo@@@1@@Z ; _STL::_STLP_alloc_proxy<_STL::_List_node<SubSlayerSkillInfo *> *,_STL::_List_node<SubSlayerSkillInfo *>,_STL::allocator<_STL::_List_node<SubSlayerSkillInfo *> > >::_STLP_alloc_proxy<_STL::_List_node<SubSlayerSkillInfo *> *,_STL::_List_node<SubSlayerSkillInfo *>,_STL::allocator<_STL::_List_node<SubSlayerSkillInfo *> > >
; Function compile flags: /Ogsy
; File c:\stlport-4.6.1\stlport\stl\_alloc.h
;	COMDAT ??0?$_STLP_alloc_proxy@PAU?$_List_node@PAVSubSlayerSkillInfo@@@_STL@@U12@V?$allocator@U?$_List_node@PAVSubSlayerSkillInfo@@@_STL@@@2@@_STL@@QAE@ABV?$allocator@U?$_List_node@PAVSubSlayerSkillInfo@@@_STL@@@1@PAU?$_List_node@PAVSubSlayerSkillInfo@@@1@@Z
_TEXT	SEGMENT
___a$ = 8						; size = 4
___p$ = 12						; size = 4
??0?$_STLP_alloc_proxy@PAU?$_List_node@PAVSubSlayerSkillInfo@@@_STL@@U12@V?$allocator@U?$_List_node@PAVSubSlayerSkillInfo@@@_STL@@@2@@_STL@@QAE@ABV?$allocator@U?$_List_node@PAVSubSlayerSkillInfo@@@_STL@@@1@PAU?$_List_node@PAVSubSlayerSkillInfo@@@1@@Z PROC NEAR ; _STL::_STLP_alloc_proxy<_STL::_List_node<SubSlayerSkillInfo *> *,_STL::_List_node<SubSlayerSkillInfo *>,_STL::allocator<_STL::_List_node<SubSlayerSkillInfo *> > >::_STLP_alloc_proxy<_STL::_List_node<SubSlayerSkillInfo *> *,_STL::_List_node<SubSlayerSkillInfo *>,_STL::allocator<_STL::_List_node<SubSlayerSkillInfo *> > >, COMDAT
; _this$ = ecx

; 487  :   inline _STLP_alloc_proxy(const _MaybeReboundAlloc& __a, _Value __p) : _MaybeReboundAlloc(__a), _M_data(__p) {}

  00000	8b c1		 mov	 eax, ecx
  00002	8b 4c 24 08	 mov	 ecx, DWORD PTR ___p$[esp-4]
  00006	89 08		 mov	 DWORD PTR [eax], ecx
  00008	c2 08 00	 ret	 8
??0?$_STLP_alloc_proxy@PAU?$_List_node@PAVSubSlayerSkillInfo@@@_STL@@U12@V?$allocator@U?$_List_node@PAVSubSlayerSkillInfo@@@_STL@@@2@@_STL@@QAE@ABV?$allocator@U?$_List_node@PAVSubSlayerSkillInfo@@@_STL@@@1@PAU?$_List_node@PAVSubSlayerSkillInfo@@@1@@Z ENDP ; _STL::_STLP_alloc_proxy<_STL::_List_node<SubSlayerSkillInfo *> *,_STL::_List_node<SubSlayerSkillInfo *>,_STL::allocator<_STL::_List_node<SubSlayerSkillInfo *> > >::_STLP_alloc_proxy<_STL::_List_node<SubSlayerSkillInfo *> *,_STL::_List_node<SubSlayerSkillInfo *>,_STL::allocator<_STL::_List_node<SubSlayerSkillInfo *> > >
_TEXT	ENDS
PUBLIC	?allocate@?$allocator@U?$_List_node@PAVSubSlayerSkillInfo@@@_STL@@@_STL@@QAEPAU?$_List_node@PAVSubSlayerSkillInfo@@@2@IPBX@Z ; _STL::allocator<_STL::_List_node<SubSlayerSkillInfo *> >::allocate
; Function compile flags: /Ogsy
;	COMDAT ?allocate@?$allocator@U?$_List_node@PAVSubSlayerSkillInfo@@@_STL@@@_STL@@QAEPAU?$_List_node@PAVSubSlayerSkillInfo@@@2@IPBX@Z
_TEXT	SEGMENT
___n$ = 8						; size = 4
___formal$ = 12						; size = 4
?allocate@?$allocator@U?$_List_node@PAVSubSlayerSkillInfo@@@_STL@@@_STL@@QAEPAU?$_List_node@PAVSubSlayerSkillInfo@@@2@IPBX@Z PROC NEAR ; _STL::allocator<_STL::_List_node<SubSlayerSkillInfo *> >::allocate, COMDAT
; _this$ = ecx

; 355  :     return __n != 0 ? __REINTERPRET_CAST(value_type*,__sgi_alloc::allocate(__n * sizeof(value_type))) : 0;

  00000	8b 44 24 04	 mov	 eax, DWORD PTR ___n$[esp-4]
  00004	85 c0		 test	 eax, eax
  00006	74 0f		 je	 SHORT $L102201
  00008	8d 04 40	 lea	 eax, DWORD PTR [eax+eax*2]
  0000b	c1 e0 02	 shl	 eax, 2
  0000e	50		 push	 eax
  0000f	e8 00 00 00 00	 call	 ?allocate@?$__node_alloc@$00$0A@@_STL@@SAPAXI@Z ; _STL::__node_alloc<1,0>::allocate
  00014	59		 pop	 ecx
  00015	eb 02		 jmp	 SHORT $L102202
$L102201:
  00017	33 c0		 xor	 eax, eax
$L102202:

; 356  :   }

  00019	c2 08 00	 ret	 8
?allocate@?$allocator@U?$_List_node@PAVSubSlayerSkillInfo@@@_STL@@@_STL@@QAEPAU?$_List_node@PAVSubSlayerSkillInfo@@@2@IPBX@Z ENDP ; _STL::allocator<_STL::_List_node<SubSlayerSkillInfo *> >::allocate
_TEXT	ENDS
PUBLIC	?deallocate@?$allocator@U?$_List_node@PAVSubSlayerSkillInfo@@@_STL@@@_STL@@QAEXPAU?$_List_node@PAVSubSlayerSkillInfo@@@2@I@Z ; _STL::allocator<_STL::_List_node<SubSlayerSkillInfo *> >::deallocate
; Function compile flags: /Ogsy
;	COMDAT ?deallocate@?$allocator@U?$_List_node@PAVSubSlayerSkillInfo@@@_STL@@@_STL@@QAEXPAU?$_List_node@PAVSubSlayerSkillInfo@@@2@I@Z
_TEXT	SEGMENT
___p$ = 8						; size = 4
___n$ = 12						; size = 4
?deallocate@?$allocator@U?$_List_node@PAVSubSlayerSkillInfo@@@_STL@@@_STL@@QAEXPAU?$_List_node@PAVSubSlayerSkillInfo@@@2@I@Z PROC NEAR ; _STL::allocator<_STL::_List_node<SubSlayerSkillInfo *> >::deallocate, COMDAT
; _this$ = ecx

; 359  :     _STLP_ASSERT( (__p == 0) == (__n == 0) )
; 360  :       if (__p != 0) __sgi_alloc::deallocate((void*)__p, __n * sizeof(value_type));

  00000	83 7c 24 04 00	 cmp	 DWORD PTR ___p$[esp-4], 0
  00005	74 16		 je	 SHORT $L101285
  00007	8b 44 24 08	 mov	 eax, DWORD PTR ___n$[esp-4]
  0000b	8d 04 40	 lea	 eax, DWORD PTR [eax+eax*2]
  0000e	c1 e0 02	 shl	 eax, 2
  00011	50		 push	 eax
  00012	ff 74 24 08	 push	 DWORD PTR ___p$[esp]
  00016	e8 00 00 00 00	 call	 ?deallocate@?$__node_alloc@$00$0A@@_STL@@SAXPAXI@Z ; _STL::__node_alloc<1,0>::deallocate
  0001b	59		 pop	 ecx
  0001c	59		 pop	 ecx
$L101285:

; 361  :   }

  0001d	c2 08 00	 ret	 8
?deallocate@?$allocator@U?$_List_node@PAVSubSlayerSkillInfo@@@_STL@@@_STL@@QAEXPAU?$_List_node@PAVSubSlayerSkillInfo@@@2@I@Z ENDP ; _STL::allocator<_STL::_List_node<SubSlayerSkillInfo *> >::deallocate
_TEXT	ENDS
PUBLIC	?clear@?$_List_base@PAVSubSlayerSkillInfo@@V?$allocator@PAVSubSlayerSkillInfo@@@_STL@@@_STL@@QAEXXZ ; _STL::_List_base<SubSlayerSkillInfo *,_STL::allocator<SubSlayerSkillInfo *> >::clear
; Function compile flags: /Ogsy
; File c:\stlport-4.6.1\stlport\stl\_list.c
;	COMDAT ?clear@?$_List_base@PAVSubSlayerSkillInfo@@V?$allocator@PAVSubSlayerSkillInfo@@@_STL@@@_STL@@QAEXXZ
_TEXT	SEGMENT
?clear@?$_List_base@PAVSubSlayerSkillInfo@@V?$allocator@PAVSubSlayerSkillInfo@@@_STL@@@_STL@@QAEXXZ PROC NEAR ; _STL::_List_base<SubSlayerSkillInfo *,_STL::allocator<SubSlayerSkillInfo *> >::clear, COMDAT
; _this$ = ecx

; 68   : {

  00000	56		 push	 esi
  00001	57		 push	 edi
  00002	8b f9		 mov	 edi, ecx

; 69   :   _List_node<_Tp>* __cur = (_List_node<_Tp>*) this->_M_node._M_data->_M_next;

  00004	8b 07		 mov	 eax, DWORD PTR [edi]
  00006	8b 30		 mov	 esi, DWORD PTR [eax]

; 70   :   while (__cur != this->_M_node._M_data) {

  00008	3b f0		 cmp	 esi, eax
  0000a	74 12		 je	 SHORT $L101446
$L101445:

; 71   :     _List_node<_Tp>* __tmp = __cur;

  0000c	8b c6		 mov	 eax, esi

; 72   :     __cur = (_List_node<_Tp>*) __cur->_M_next;

  0000e	8b 36		 mov	 esi, DWORD PTR [esi]

; 73   :     _STLP_STD::_Destroy(&__tmp->_M_data);
; 74   :     this->_M_node.deallocate(__tmp, 1);

  00010	6a 01		 push	 1
  00012	50		 push	 eax
  00013	8b cf		 mov	 ecx, edi
  00015	e8 00 00 00 00	 call	 ?deallocate@?$allocator@U?$_List_node@PAVSubSlayerSkillInfo@@@_STL@@@_STL@@QAEXPAU?$_List_node@PAVSubSlayerSkillInfo@@@2@I@Z ; _STL::allocator<_STL::_List_node<SubSlayerSkillInfo *> >::deallocate
  0001a	3b 37		 cmp	 esi, DWORD PTR [edi]
  0001c	75 ee		 jne	 SHORT $L101445
$L101446:

; 75   :   }
; 76   :   this->_M_node._M_data->_M_next = this->_M_node._M_data;

  0001e	8b 07		 mov	 eax, DWORD PTR [edi]
  00020	89 00		 mov	 DWORD PTR [eax], eax

; 77   :   this->_M_node._M_data->_M_prev = this->_M_node._M_data;

  00022	8b 3f		 mov	 edi, DWORD PTR [edi]
  00024	89 7f 04	 mov	 DWORD PTR [edi+4], edi
  00027	5f		 pop	 edi
  00028	5e		 pop	 esi

; 78   : }

  00029	c3		 ret	 0
?clear@?$_List_base@PAVSubSlayerSkillInfo@@V?$allocator@PAVSubSlayerSkillInfo@@@_STL@@@_STL@@QAEXXZ ENDP ; _STL::_List_base<SubSlayerSkillInfo *,_STL::allocator<SubSlayerSkillInfo *> >::clear
_TEXT	ENDS
PUBLIC	?begin@?$list@PAVSubSlayerSkillInfo@@V?$allocator@PAVSubSlayerSkillInfo@@@_STL@@@_STL@@QAE?AU?$_List_iterator@PAVSubSlayerSkillInfo@@U?$_Nonconst_traits@PAVSubSlayerSkillInfo@@@_STL@@@2@XZ ; _STL::list<SubSlayerSkillInfo *,_STL::allocator<SubSlayerSkillInfo *> >::begin
; Function compile flags: /Ogsy
; File c:\stlport-4.6.1\stlport\stl\_list.h
;	COMDAT ?begin@?$list@PAVSubSlayerSkillInfo@@V?$allocator@PAVSubSlayerSkillInfo@@@_STL@@@_STL@@QAE?AU?$_List_iterator@PAVSubSlayerSkillInfo@@U?$_Nonconst_traits@PAVSubSlayerSkillInfo@@@_STL@@@2@XZ
_TEXT	SEGMENT
___$ReturnUdt$ = 8					; size = 4
?begin@?$list@PAVSubSlayerSkillInfo@@V?$allocator@PAVSubSlayerSkillInfo@@@_STL@@@_STL@@QAE?AU?$_List_iterator@PAVSubSlayerSkillInfo@@U?$_Nonconst_traits@PAVSubSlayerSkillInfo@@@_STL@@@2@XZ PROC NEAR ; _STL::list<SubSlayerSkillInfo *,_STL::allocator<SubSlayerSkillInfo *> >::begin, COMDAT
; _this$ = ecx

; 266  :   iterator begin()             { return iterator((_Node*)(this->_M_node._M_data->_M_next)); }

  00000	8b 01		 mov	 eax, DWORD PTR [ecx]
  00002	8b 08		 mov	 ecx, DWORD PTR [eax]
  00004	8b 44 24 04	 mov	 eax, DWORD PTR ___$ReturnUdt$[esp-4]
  00008	89 08		 mov	 DWORD PTR [eax], ecx
  0000a	c2 04 00	 ret	 4
?begin@?$list@PAVSubSlayerSkillInfo@@V?$allocator@PAVSubSlayerSkillInfo@@@_STL@@@_STL@@QAE?AU?$_List_iterator@PAVSubSlayerSkillInfo@@U?$_Nonconst_traits@PAVSubSlayerSkillInfo@@@_STL@@@2@XZ ENDP ; _STL::list<SubSlayerSkillInfo *,_STL::allocator<SubSlayerSkillInfo *> >::begin
_TEXT	ENDS
PUBLIC	?begin@?$list@PAVSubSlayerSkillInfo@@V?$allocator@PAVSubSlayerSkillInfo@@@_STL@@@_STL@@QBE?AU?$_List_iterator@PAVSubSlayerSkillInfo@@U?$_Const_traits@PAVSubSlayerSkillInfo@@@_STL@@@2@XZ ; _STL::list<SubSlayerSkillInfo *,_STL::allocator<SubSlayerSkillInfo *> >::begin
; Function compile flags: /Ogsy
;	COMDAT ?begin@?$list@PAVSubSlayerSkillInfo@@V?$allocator@PAVSubSlayerSkillInfo@@@_STL@@@_STL@@QBE?AU?$_List_iterator@PAVSubSlayerSkillInfo@@U?$_Const_traits@PAVSubSlayerSkillInfo@@@_STL@@@2@XZ
_TEXT	SEGMENT
___$ReturnUdt$ = 8					; size = 4
?begin@?$list@PAVSubSlayerSkillInfo@@V?$allocator@PAVSubSlayerSkillInfo@@@_STL@@@_STL@@QBE?AU?$_List_iterator@PAVSubSlayerSkillInfo@@U?$_Const_traits@PAVSubSlayerSkillInfo@@@_STL@@@2@XZ PROC NEAR ; _STL::list<SubSlayerSkillInfo *,_STL::allocator<SubSlayerSkillInfo *> >::begin, COMDAT
; _this$ = ecx

; 267  :   const_iterator begin() const { return const_iterator((_Node*)(this->_M_node._M_data->_M_next)); }

  00000	8b 01		 mov	 eax, DWORD PTR [ecx]
  00002	8b 08		 mov	 ecx, DWORD PTR [eax]
  00004	8b 44 24 04	 mov	 eax, DWORD PTR ___$ReturnUdt$[esp-4]
  00008	89 08		 mov	 DWORD PTR [eax], ecx
  0000a	c2 04 00	 ret	 4
?begin@?$list@PAVSubSlayerSkillInfo@@V?$allocator@PAVSubSlayerSkillInfo@@@_STL@@@_STL@@QBE?AU?$_List_iterator@PAVSubSlayerSkillInfo@@U?$_Const_traits@PAVSubSlayerSkillInfo@@@_STL@@@2@XZ ENDP ; _STL::list<SubSlayerSkillInfo *,_STL::allocator<SubSlayerSkillInfo *> >::begin
_TEXT	ENDS
PUBLIC	?end@?$list@PAVSubSlayerSkillInfo@@V?$allocator@PAVSubSlayerSkillInfo@@@_STL@@@_STL@@QAE?AU?$_List_iterator@PAVSubSlayerSkillInfo@@U?$_Nonconst_traits@PAVSubSlayerSkillInfo@@@_STL@@@2@XZ ; _STL::list<SubSlayerSkillInfo *,_STL::allocator<SubSlayerSkillInfo *> >::end
; Function compile flags: /Ogsy
;	COMDAT ?end@?$list@PAVSubSlayerSkillInfo@@V?$allocator@PAVSubSlayerSkillInfo@@@_STL@@@_STL@@QAE?AU?$_List_iterator@PAVSubSlayerSkillInfo@@U?$_Nonconst_traits@PAVSubSlayerSkillInfo@@@_STL@@@2@XZ
_TEXT	SEGMENT
___$ReturnUdt$ = 8					; size = 4
?end@?$list@PAVSubSlayerSkillInfo@@V?$allocator@PAVSubSlayerSkillInfo@@@_STL@@@_STL@@QAE?AU?$_List_iterator@PAVSubSlayerSkillInfo@@U?$_Nonconst_traits@PAVSubSlayerSkillInfo@@@_STL@@@2@XZ PROC NEAR ; _STL::list<SubSlayerSkillInfo *,_STL::allocator<SubSlayerSkillInfo *> >::end, COMDAT
; _this$ = ecx

; 269  :   iterator end()             { return this->_M_node._M_data; }

  00000	8b 09		 mov	 ecx, DWORD PTR [ecx]
  00002	8b 44 24 04	 mov	 eax, DWORD PTR ___$ReturnUdt$[esp-4]
  00006	89 08		 mov	 DWORD PTR [eax], ecx
  00008	c2 04 00	 ret	 4
?end@?$list@PAVSubSlayerSkillInfo@@V?$allocator@PAVSubSlayerSkillInfo@@@_STL@@@_STL@@QAE?AU?$_List_iterator@PAVSubSlayerSkillInfo@@U?$_Nonconst_traits@PAVSubSlayerSkillInfo@@@_STL@@@2@XZ ENDP ; _STL::list<SubSlayerSkillInfo *,_STL::allocator<SubSlayerSkillInfo *> >::end
_TEXT	ENDS
PUBLIC	?end@?$list@PAVSubSlayerSkillInfo@@V?$allocator@PAVSubSlayerSkillInfo@@@_STL@@@_STL@@QBE?AU?$_List_iterator@PAVSubSlayerSkillInfo@@U?$_Const_traits@PAVSubSlayerSkillInfo@@@_STL@@@2@XZ ; _STL::list<SubSlayerSkillInfo *,_STL::allocator<SubSlayerSkillInfo *> >::end
; Function compile flags: /Ogsy
;	COMDAT ?end@?$list@PAVSubSlayerSkillInfo@@V?$allocator@PAVSubSlayerSkillInfo@@@_STL@@@_STL@@QBE?AU?$_List_iterator@PAVSubSlayerSkillInfo@@U?$_Const_traits@PAVSubSlayerSkillInfo@@@_STL@@@2@XZ
_TEXT	SEGMENT
___$ReturnUdt$ = 8					; size = 4
?end@?$list@PAVSubSlayerSkillInfo@@V?$allocator@PAVSubSlayerSkillInfo@@@_STL@@@_STL@@QBE?AU?$_List_iterator@PAVSubSlayerSkillInfo@@U?$_Const_traits@PAVSubSlayerSkillInfo@@@_STL@@@2@XZ PROC NEAR ; _STL::list<SubSlayerSkillInfo *,_STL::allocator<SubSlayerSkillInfo *> >::end, COMDAT
; _this$ = ecx

; 270  :   const_iterator end() const { return this->_M_node._M_data; }

  00000	8b 09		 mov	 ecx, DWORD PTR [ecx]
  00002	8b 44 24 04	 mov	 eax, DWORD PTR ___$ReturnUdt$[esp-4]
  00006	89 08		 mov	 DWORD PTR [eax], ecx
  00008	c2 04 00	 ret	 4
?end@?$list@PAVSubSlayerSkillInfo@@V?$allocator@PAVSubSlayerSkillInfo@@@_STL@@@_STL@@QBE?AU?$_List_iterator@PAVSubSlayerSkillInfo@@U?$_Const_traits@PAVSubSlayerSkillInfo@@@_STL@@@2@XZ ENDP ; _STL::list<SubSlayerSkillInfo *,_STL::allocator<SubSlayerSkillInfo *> >::end
_TEXT	ENDS
PUBLIC	?front@?$list@PAVSubSlayerSkillInfo@@V?$allocator@PAVSubSlayerSkillInfo@@@_STL@@@_STL@@QAEAAPAVSubSlayerSkillInfo@@XZ ; _STL::list<SubSlayerSkillInfo *,_STL::allocator<SubSlayerSkillInfo *> >::front
; Function compile flags: /Ogsy
;	COMDAT ?front@?$list@PAVSubSlayerSkillInfo@@V?$allocator@PAVSubSlayerSkillInfo@@@_STL@@@_STL@@QAEAAPAVSubSlayerSkillInfo@@XZ
_TEXT	SEGMENT
?front@?$list@PAVSubSlayerSkillInfo@@V?$allocator@PAVSubSlayerSkillInfo@@@_STL@@@_STL@@QAEAAPAVSubSlayerSkillInfo@@XZ PROC NEAR ; _STL::list<SubSlayerSkillInfo *,_STL::allocator<SubSlayerSkillInfo *> >::front, COMDAT
; _this$ = ecx

; 289  :   reference front() { return *begin(); }

  00000	8b 01		 mov	 eax, DWORD PTR [ecx]
  00002	8b 00		 mov	 eax, DWORD PTR [eax]
  00004	83 c0 08	 add	 eax, 8
  00007	c3		 ret	 0
?front@?$list@PAVSubSlayerSkillInfo@@V?$allocator@PAVSubSlayerSkillInfo@@@_STL@@@_STL@@QAEAAPAVSubSlayerSkillInfo@@XZ ENDP ; _STL::list<SubSlayerSkillInfo *,_STL::allocator<SubSlayerSkillInfo *> >::front
_TEXT	ENDS
PUBLIC	?erase@?$list@PAVSubSlayerSkillInfo@@V?$allocator@PAVSubSlayerSkillInfo@@@_STL@@@_STL@@QAE?AU?$_List_iterator@PAVSubSlayerSkillInfo@@U?$_Nonconst_traits@PAVSubSlayerSkillInfo@@@_STL@@@2@U32@@Z ; _STL::list<SubSlayerSkillInfo *,_STL::allocator<SubSlayerSkillInfo *> >::erase
; Function compile flags: /Ogsy
;	COMDAT ?erase@?$list@PAVSubSlayerSkillInfo@@V?$allocator@PAVSubSlayerSkillInfo@@@_STL@@@_STL@@QAE?AU?$_List_iterator@PAVSubSlayerSkillInfo@@U?$_Nonconst_traits@PAVSubSlayerSkillInfo@@@_STL@@@2@U32@@Z
_TEXT	SEGMENT
___$ReturnUdt$ = 8					; size = 4
___position$ = 12					; size = 4
?erase@?$list@PAVSubSlayerSkillInfo@@V?$allocator@PAVSubSlayerSkillInfo@@@_STL@@@_STL@@QAE?AU?$_List_iterator@PAVSubSlayerSkillInfo@@U?$_Nonconst_traits@PAVSubSlayerSkillInfo@@@_STL@@@2@U32@@Z PROC NEAR ; _STL::list<SubSlayerSkillInfo *,_STL::allocator<SubSlayerSkillInfo *> >::erase, COMDAT
; _this$ = ecx

; 354  :     _List_node_base* __next_node = __position._M_node->_M_next;

  00000	8b 54 24 08	 mov	 edx, DWORD PTR ___position$[esp-4]

; 355  :     _List_node_base* __prev_node = __position._M_node->_M_prev;

  00004	8b 42 04	 mov	 eax, DWORD PTR [edx+4]
  00007	56		 push	 esi
  00008	8b 32		 mov	 esi, DWORD PTR [edx]

; 356  :     _Node* __n = (_Node*) __position._M_node;
; 357  :     __prev_node->_M_next = __next_node;
; 358  :     __next_node->_M_prev = __prev_node;
; 359  :     _STLP_STD::_Destroy(&__n->_M_data);
; 360  :     this->_M_node.deallocate(__n, 1);

  0000a	6a 01		 push	 1
  0000c	89 30		 mov	 DWORD PTR [eax], esi
  0000e	52		 push	 edx
  0000f	89 46 04	 mov	 DWORD PTR [esi+4], eax
  00012	e8 00 00 00 00	 call	 ?deallocate@?$allocator@U?$_List_node@PAVSubSlayerSkillInfo@@@_STL@@@_STL@@QAEXPAU?$_List_node@PAVSubSlayerSkillInfo@@@2@I@Z ; _STL::allocator<_STL::_List_node<SubSlayerSkillInfo *> >::deallocate

; 361  :     return iterator((_Node*)__next_node);

  00017	8b 44 24 08	 mov	 eax, DWORD PTR ___$ReturnUdt$[esp]
  0001b	89 30		 mov	 DWORD PTR [eax], esi
  0001d	5e		 pop	 esi

; 362  :     }

  0001e	c2 08 00	 ret	 8
?erase@?$list@PAVSubSlayerSkillInfo@@V?$allocator@PAVSubSlayerSkillInfo@@@_STL@@@_STL@@QAE?AU?$_List_iterator@PAVSubSlayerSkillInfo@@U?$_Nonconst_traits@PAVSubSlayerSkillInfo@@@_STL@@@2@U32@@Z ENDP ; _STL::list<SubSlayerSkillInfo *,_STL::allocator<SubSlayerSkillInfo *> >::erase
_TEXT	ENDS
PUBLIC	??0?$_List_base@PAVSubSlayerSkillInfo@@V?$allocator@PAVSubSlayerSkillInfo@@@_STL@@@_STL@@QAE@ABV?$allocator@PAVSubSlayerSkillInfo@@@1@@Z ; _STL::_List_base<SubSlayerSkillInfo *,_STL::allocator<SubSlayerSkillInfo *> >::_List_base<SubSlayerSkillInfo *,_STL::allocator<SubSlayerSkillInfo *> >
; Function compile flags: /Ogsy
;	COMDAT ??0?$_List_base@PAVSubSlayerSkillInfo@@V?$allocator@PAVSubSlayerSkillInfo@@@_STL@@@_STL@@QAE@ABV?$allocator@PAVSubSlayerSkillInfo@@@1@@Z
_TEXT	SEGMENT
$T102302 = -1						; size = 1
___a$ = 8						; size = 4
??0?$_List_base@PAVSubSlayerSkillInfo@@V?$allocator@PAVSubSlayerSkillInfo@@@_STL@@@_STL@@QAE@ABV?$allocator@PAVSubSlayerSkillInfo@@@1@@Z PROC NEAR ; _STL::_List_base<SubSlayerSkillInfo *,_STL::allocator<SubSlayerSkillInfo *> >::_List_base<SubSlayerSkillInfo *,_STL::allocator<SubSlayerSkillInfo *> >, COMDAT
; _this$ = ecx

; 182  :   _List_base(const allocator_type& __a) : _M_node(_STLP_CONVERT_ALLOCATOR(__a, _Node), (_Node*)0) {

  00000	51		 push	 ecx
  00001	56		 push	 esi
  00002	6a 00		 push	 0
  00004	8d 44 24 0b	 lea	 eax, DWORD PTR $T102302[esp+12]
  00008	50		 push	 eax
  00009	8b f1		 mov	 esi, ecx
  0000b	e8 00 00 00 00	 call	 ??0?$_STLP_alloc_proxy@PAU?$_List_node@PAVSubSlayerSkillInfo@@@_STL@@U12@V?$allocator@U?$_List_node@PAVSubSlayerSkillInfo@@@_STL@@@2@@_STL@@QAE@ABV?$allocator@U?$_List_node@PAVSubSlayerSkillInfo@@@_STL@@@1@PAU?$_List_node@PAVSubSlayerSkillInfo@@@1@@Z ; _STL::_STLP_alloc_proxy<_STL::_List_node<SubSlayerSkillInfo *> *,_STL::_List_node<SubSlayerSkillInfo *>,_STL::allocator<_STL::_List_node<SubSlayerSkillInfo *> > >::_STLP_alloc_proxy<_STL::_List_node<SubSlayerSkillInfo *> *,_STL::_List_node<SubSlayerSkillInfo *>,_STL::allocator<_STL::_List_node<SubSlayerSkillInfo *> > >

; 183  :     _Node* __n = _M_node.allocate(1);

  00010	6a 0c		 push	 12			; 0000000cH
  00012	e8 00 00 00 00	 call	 ?allocate@?$__node_alloc@$00$0A@@_STL@@SAPAXI@Z ; _STL::__node_alloc<1,0>::allocate

; 184  :     __n->_M_next = __n;

  00017	89 00		 mov	 DWORD PTR [eax], eax

; 185  :     __n->_M_prev = __n;

  00019	89 40 04	 mov	 DWORD PTR [eax+4], eax

; 186  :     _M_node._M_data = __n;

  0001c	89 06		 mov	 DWORD PTR [esi], eax
  0001e	59		 pop	 ecx

; 187  :   }

  0001f	8b c6		 mov	 eax, esi
  00021	5e		 pop	 esi
  00022	59		 pop	 ecx
  00023	c2 04 00	 ret	 4
??0?$_List_base@PAVSubSlayerSkillInfo@@V?$allocator@PAVSubSlayerSkillInfo@@@_STL@@@_STL@@QAE@ABV?$allocator@PAVSubSlayerSkillInfo@@@1@@Z ENDP ; _STL::_List_base<SubSlayerSkillInfo *,_STL::allocator<SubSlayerSkillInfo *> >::_List_base<SubSlayerSkillInfo *,_STL::allocator<SubSlayerSkillInfo *> >
_TEXT	ENDS
PUBLIC	??1?$_List_base@PAVSubSlayerSkillInfo@@V?$allocator@PAVSubSlayerSkillInfo@@@_STL@@@_STL@@QAE@XZ ; _STL::_List_base<SubSlayerSkillInfo *,_STL::allocator<SubSlayerSkillInfo *> >::~_List_base<SubSlayerSkillInfo *,_STL::allocator<SubSlayerSkillInfo *> >
; Function compile flags: /Ogsy
;	COMDAT ??1?$_List_base@PAVSubSlayerSkillInfo@@V?$allocator@PAVSubSlayerSkillInfo@@@_STL@@@_STL@@QAE@XZ
_TEXT	SEGMENT
??1?$_List_base@PAVSubSlayerSkillInfo@@V?$allocator@PAVSubSlayerSkillInfo@@@_STL@@@_STL@@QAE@XZ PROC NEAR ; _STL::_List_base<SubSlayerSkillInfo *,_STL::allocator<SubSlayerSkillInfo *> >::~_List_base<SubSlayerSkillInfo *,_STL::allocator<SubSlayerSkillInfo *> >, COMDAT
; _this$ = ecx

; 188  :   ~_List_base() {

  00000	56		 push	 esi
  00001	8b f1		 mov	 esi, ecx

; 189  :     clear();

  00003	e8 00 00 00 00	 call	 ?clear@?$_List_base@PAVSubSlayerSkillInfo@@V?$allocator@PAVSubSlayerSkillInfo@@@_STL@@@_STL@@QAEXXZ ; _STL::_List_base<SubSlayerSkillInfo *,_STL::allocator<SubSlayerSkillInfo *> >::clear

; 190  :     _M_node.deallocate(_M_node._M_data, 1);

  00008	6a 01		 push	 1
  0000a	ff 36		 push	 DWORD PTR [esi]
  0000c	8b ce		 mov	 ecx, esi
  0000e	e8 00 00 00 00	 call	 ?deallocate@?$allocator@U?$_List_node@PAVSubSlayerSkillInfo@@@_STL@@@_STL@@QAEXPAU?$_List_node@PAVSubSlayerSkillInfo@@@2@I@Z ; _STL::allocator<_STL::_List_node<SubSlayerSkillInfo *> >::deallocate
  00013	5e		 pop	 esi

; 191  :   }

  00014	c3		 ret	 0
??1?$_List_base@PAVSubSlayerSkillInfo@@V?$allocator@PAVSubSlayerSkillInfo@@@_STL@@@_STL@@QAE@XZ ENDP ; _STL::_List_base<SubSlayerSkillInfo *,_STL::allocator<SubSlayerSkillInfo *> >::~_List_base<SubSlayerSkillInfo *,_STL::allocator<SubSlayerSkillInfo *> >
_TEXT	ENDS
PUBLIC	?_M_create_node@?$list@PAVSubSlayerSkillInfo@@V?$allocator@PAVSubSlayerSkillInfo@@@_STL@@@_STL@@IAEPAU?$_List_node@PAVSubSlayerSkillInfo@@@2@ABQAVSubSlayerSkillInfo@@@Z ; _STL::list<SubSlayerSkillInfo *,_STL::allocator<SubSlayerSkillInfo *> >::_M_create_node
EXTRN	__CxxThrowException@8:NEAR
; Function compile flags: /Ogsy
;	COMDAT ?_M_create_node@?$list@PAVSubSlayerSkillInfo@@V?$allocator@PAVSubSlayerSkillInfo@@@_STL@@@_STL@@IAEPAU?$_List_node@PAVSubSlayerSkillInfo@@@2@ABQAVSubSlayerSkillInfo@@@Z
_TEXT	SEGMENT
___x$ = 8						; size = 4
?_M_create_node@?$list@PAVSubSlayerSkillInfo@@V?$allocator@PAVSubSlayerSkillInfo@@@_STL@@@_STL@@IAEPAU?$_List_node@PAVSubSlayerSkillInfo@@@2@ABQAVSubSlayerSkillInfo@@@Z PROC NEAR ; _STL::list<SubSlayerSkillInfo *,_STL::allocator<SubSlayerSkillInfo *> >::_M_create_node, COMDAT
; _this$ = ecx

; 241  :     _Node* __p = this->_M_node.allocate(1);

  00000	6a 0c		 push	 12			; 0000000cH
  00002	e8 00 00 00 00	 call	 ?allocate@?$__node_alloc@$00$0A@@_STL@@SAPAXI@Z ; _STL::__node_alloc<1,0>::allocate
  00007	59		 pop	 ecx

; 242  :     _STLP_TRY {
; 243  :       _Construct(&__p->_M_data, __x);

  00008	8d 48 08	 lea	 ecx, DWORD PTR [eax+8]
  0000b	85 c9		 test	 ecx, ecx
  0000d	74 08		 je	 SHORT $L102339
  0000f	8b 54 24 04	 mov	 edx, DWORD PTR ___x$[esp-4]
  00013	8b 12		 mov	 edx, DWORD PTR [edx]
  00015	89 11		 mov	 DWORD PTR [ecx], edx
$L102339:

; 244  :     }
; 245  :     _STLP_UNWIND(this->_M_node.deallocate(__p, 1));
; 246  :     return __p;
; 247  :   }

  00017	c2 04 00	 ret	 4
?_M_create_node@?$list@PAVSubSlayerSkillInfo@@V?$allocator@PAVSubSlayerSkillInfo@@@_STL@@@_STL@@IAEPAU?$_List_node@PAVSubSlayerSkillInfo@@@2@ABQAVSubSlayerSkillInfo@@@Z ENDP ; _STL::list<SubSlayerSkillInfo *,_STL::allocator<SubSlayerSkillInfo *> >::_M_create_node
_TEXT	ENDS
PUBLIC	?write@SlayerSkillInfo@@UBEXAAVSocketOutputStream@@@Z ; SlayerSkillInfo::write
EXTRN	?write@SubSlayerSkillInfo@@QBEXAAVSocketOutputStream@@@Z:NEAR ; SubSlayerSkillInfo::write
; Function compile flags: /Ogsy
; File c:\darkeden\designed_common\project\client\packet\slayerskillinfo.cpp
;	COMDAT ?write@SlayerSkillInfo@@UBEXAAVSocketOutputStream@@@Z
_TEXT	SEGMENT
$T102355 = -4						; size = 1
_oStream$ = 8						; size = 4
$T102363 = 11						; size = 1
$T102359 = 11						; size = 1
?write@SlayerSkillInfo@@UBEXAAVSocketOutputStream@@@Z PROC NEAR ; SlayerSkillInfo::write, COMDAT
; _this$ = ecx

; 81   : {

  00000	55		 push	 ebp
  00001	8b ec		 mov	 ebp, esp
  00003	51		 push	 ecx
  00004	53		 push	 ebx

; 82   : 	__BEGIN_TRY
; 83   : 		
; 84   : 	//      .
; 85   : 	oStream.write( m_bLearnNewSkill );

  00005	8b 5d 08	 mov	 ebx, DWORD PTR _oStream$[ebp]
  00008	56		 push	 esi
  00009	8b f1		 mov	 esi, ecx
  0000b	8a 46 04	 mov	 al, BYTE PTR [esi+4]
  0000e	57		 push	 edi
  0000f	88 45 fc	 mov	 BYTE PTR $T102355[ebp], al
  00012	6a 01		 push	 1
  00014	8d 45 fc	 lea	 eax, DWORD PTR $T102355[ebp]
  00017	50		 push	 eax
  00018	8b cb		 mov	 ecx, ebx
  0001a	e8 00 00 00 00	 call	 ?write@SocketOutputStream@@QAEIPBDI@Z ; SocketOutputStream::write

; 86   : 	oStream.write( m_DomainType );

  0001f	8a 46 05	 mov	 al, BYTE PTR [esi+5]
  00022	88 45 0b	 mov	 BYTE PTR $T102359[ebp], al
  00025	6a 01		 push	 1
  00027	8d 45 0b	 lea	 eax, DWORD PTR $T102359[ebp]
  0002a	50		 push	 eax
  0002b	8b cb		 mov	 ecx, ebx
  0002d	e8 00 00 00 00	 call	 ?write@SocketOutputStream@@QAEIPBDI@Z ; SocketOutputStream::write

; 87   : 	oStream.write( m_ListNum );

  00032	8a 46 06	 mov	 al, BYTE PTR [esi+6]
  00035	88 45 0b	 mov	 BYTE PTR $T102363[ebp], al
  00038	6a 01		 push	 1
  0003a	8d 45 0b	 lea	 eax, DWORD PTR $T102363[ebp]
  0003d	50		 push	 eax
  0003e	8b cb		 mov	 ecx, ebx
  00040	e8 00 00 00 00	 call	 ?write@SocketOutputStream@@QAEIPBDI@Z ; SocketOutputStream::write

; 88   : 
; 89   :     for ( std::list<SubSlayerSkillInfo*>:: const_iterator itr = m_SubSlayerSkillInfoList.begin(); itr!= m_SubSlayerSkillInfoList.end(); itr++) {

  00045	8b 46 08	 mov	 eax, DWORD PTR [esi+8]
  00048	8b 38		 mov	 edi, DWORD PTR [eax]
  0004a	3b f8		 cmp	 edi, eax
  0004c	74 10		 je	 SHORT $L101079
$L102384:

; 90   : 		Assert( *itr != NULL );
; 91   : 		(*itr)->write( oStream );

  0004e	8b 4f 08	 mov	 ecx, DWORD PTR [edi+8]
  00051	53		 push	 ebx
  00052	e8 00 00 00 00	 call	 ?write@SubSlayerSkillInfo@@QBEXAAVSocketOutputStream@@@Z ; SubSlayerSkillInfo::write
  00057	8b 3f		 mov	 edi, DWORD PTR [edi]
  00059	3b 7e 08	 cmp	 edi, DWORD PTR [esi+8]
  0005c	75 f0		 jne	 SHORT $L102384
$L101079:
  0005e	5f		 pop	 edi
  0005f	5e		 pop	 esi
  00060	5b		 pop	 ebx

; 92   : 	}
; 93   : 
; 94   : 	__END_CATCH
; 95   : }

  00061	c9		 leave
  00062	c2 04 00	 ret	 4
?write@SlayerSkillInfo@@UBEXAAVSocketOutputStream@@@Z ENDP ; SlayerSkillInfo::write
_TEXT	ENDS
PUBLIC	?getSize@SlayerSkillInfo@@UAEIXZ		; SlayerSkillInfo::getSize
; Function compile flags: /Ogsy
;	COMDAT ?getSize@SlayerSkillInfo@@UAEIXZ
_TEXT	SEGMENT
?getSize@SlayerSkillInfo@@UAEIXZ PROC NEAR		; SlayerSkillInfo::getSize, COMDAT
; _this$ = ecx

; 103  : 
; 104  : 	PacketSize_t PacketSize = szBYTE + szSkillDomainType + szBYTE;
; 105  : 
; 106  : 	for ( std::list< SubSlayerSkillInfo* >::const_iterator itr = m_SubSlayerSkillInfoList.begin() ; itr != m_SubSlayerSkillInfoList.end() ; itr ++ ) {

  00000	8b 51 08	 mov	 edx, DWORD PTR [ecx+8]
  00003	8b 0a		 mov	 ecx, DWORD PTR [edx]
  00005	6a 03		 push	 3
  00007	58		 pop	 eax
  00008	eb 05		 jmp	 SHORT $L102478
$L102449:
  0000a	8b 09		 mov	 ecx, DWORD PTR [ecx]

; 107  : 
; 108  : 		PacketSize += (*itr)->getSize();

  0000c	83 c0 11	 add	 eax, 17			; 00000011H
$L102478:

; 103  : 
; 104  : 	PacketSize_t PacketSize = szBYTE + szSkillDomainType + szBYTE;
; 105  : 
; 106  : 	for ( std::list< SubSlayerSkillInfo* >::const_iterator itr = m_SubSlayerSkillInfoList.begin() ; itr != m_SubSlayerSkillInfoList.end() ; itr ++ ) {

  0000f	3b ca		 cmp	 ecx, edx
  00011	75 f7		 jne	 SHORT $L102449

; 109  : 
; 110  : 	}
; 111  : 
; 112  : 	return PacketSize;
; 113  : 
; 114  : }

  00013	c3		 ret	 0
?getSize@SlayerSkillInfo@@UAEIXZ ENDP			; SlayerSkillInfo::getSize
_TEXT	ENDS
PUBLIC	??0?$list@PAVSubSlayerSkillInfo@@V?$allocator@PAVSubSlayerSkillInfo@@@_STL@@@_STL@@QAE@ABV?$allocator@PAVSubSlayerSkillInfo@@@1@@Z ; _STL::list<SubSlayerSkillInfo *,_STL::allocator<SubSlayerSkillInfo *> >::list<SubSlayerSkillInfo *,_STL::allocator<SubSlayerSkillInfo *> >
; Function compile flags: /Ogsy
; File c:\stlport-4.6.1\stlport\stl\_list.h
;	COMDAT ??0?$list@PAVSubSlayerSkillInfo@@V?$allocator@PAVSubSlayerSkillInfo@@@_STL@@@_STL@@QAE@ABV?$allocator@PAVSubSlayerSkillInfo@@@1@@Z
_TEXT	SEGMENT
___a$ = 8						; size = 4
??0?$list@PAVSubSlayerSkillInfo@@V?$allocator@PAVSubSlayerSkillInfo@@@_STL@@@_STL@@QAE@ABV?$allocator@PAVSubSlayerSkillInfo@@@1@@Z PROC NEAR ; _STL::list<SubSlayerSkillInfo *,_STL::allocator<SubSlayerSkillInfo *> >::list<SubSlayerSkillInfo *,_STL::allocator<SubSlayerSkillInfo *> >, COMDAT
; _this$ = ecx

; 264  :     _List_base<_Tp, _Alloc>(__a) {}

  00000	56		 push	 esi
  00001	ff 74 24 08	 push	 DWORD PTR ___a$[esp]
  00005	8b f1		 mov	 esi, ecx
  00007	e8 00 00 00 00	 call	 ??0?$_List_base@PAVSubSlayerSkillInfo@@V?$allocator@PAVSubSlayerSkillInfo@@@_STL@@@_STL@@QAE@ABV?$allocator@PAVSubSlayerSkillInfo@@@1@@Z ; _STL::_List_base<SubSlayerSkillInfo *,_STL::allocator<SubSlayerSkillInfo *> >::_List_base<SubSlayerSkillInfo *,_STL::allocator<SubSlayerSkillInfo *> >
  0000c	8b c6		 mov	 eax, esi
  0000e	5e		 pop	 esi
  0000f	c2 04 00	 ret	 4
??0?$list@PAVSubSlayerSkillInfo@@V?$allocator@PAVSubSlayerSkillInfo@@@_STL@@@_STL@@QAE@ABV?$allocator@PAVSubSlayerSkillInfo@@@1@@Z ENDP ; _STL::list<SubSlayerSkillInfo *,_STL::allocator<SubSlayerSkillInfo *> >::list<SubSlayerSkillInfo *,_STL::allocator<SubSlayerSkillInfo *> >
_TEXT	ENDS
PUBLIC	?pop_front@?$list@PAVSubSlayerSkillInfo@@V?$allocator@PAVSubSlayerSkillInfo@@@_STL@@@_STL@@QAEXXZ ; _STL::list<SubSlayerSkillInfo *,_STL::allocator<SubSlayerSkillInfo *> >::pop_front
; Function compile flags: /Ogsy
;	COMDAT ?pop_front@?$list@PAVSubSlayerSkillInfo@@V?$allocator@PAVSubSlayerSkillInfo@@@_STL@@@_STL@@QAEXXZ
_TEXT	SEGMENT
$T102487 = -4						; size = 4
?pop_front@?$list@PAVSubSlayerSkillInfo@@V?$allocator@PAVSubSlayerSkillInfo@@@_STL@@@_STL@@QAEXXZ PROC NEAR ; _STL::list<SubSlayerSkillInfo *,_STL::allocator<SubSlayerSkillInfo *> >::pop_front, COMDAT
; _this$ = ecx

; 373  :   void pop_front() { erase(begin()); }

  00000	51		 push	 ecx
  00001	8b 11		 mov	 edx, DWORD PTR [ecx]
  00003	8b 12		 mov	 edx, DWORD PTR [edx]
  00005	51		 push	 ecx
  00006	8b c4		 mov	 eax, esp
  00008	89 10		 mov	 DWORD PTR [eax], edx
  0000a	8d 44 24 04	 lea	 eax, DWORD PTR $T102487[esp+8]
  0000e	50		 push	 eax
  0000f	e8 00 00 00 00	 call	 ?erase@?$list@PAVSubSlayerSkillInfo@@V?$allocator@PAVSubSlayerSkillInfo@@@_STL@@@_STL@@QAE?AU?$_List_iterator@PAVSubSlayerSkillInfo@@U?$_Nonconst_traits@PAVSubSlayerSkillInfo@@@_STL@@@2@U32@@Z ; _STL::list<SubSlayerSkillInfo *,_STL::allocator<SubSlayerSkillInfo *> >::erase
  00014	59		 pop	 ecx
  00015	c3		 ret	 0
?pop_front@?$list@PAVSubSlayerSkillInfo@@V?$allocator@PAVSubSlayerSkillInfo@@@_STL@@@_STL@@QAEXXZ ENDP ; _STL::list<SubSlayerSkillInfo *,_STL::allocator<SubSlayerSkillInfo *> >::pop_front
_TEXT	ENDS
PUBLIC	??1?$list@PAVSubSlayerSkillInfo@@V?$allocator@PAVSubSlayerSkillInfo@@@_STL@@@_STL@@QAE@XZ ; _STL::list<SubSlayerSkillInfo *,_STL::allocator<SubSlayerSkillInfo *> >::~list<SubSlayerSkillInfo *,_STL::allocator<SubSlayerSkillInfo *> >
; Function compile flags: /Ogsy
;	COMDAT ??1?$list@PAVSubSlayerSkillInfo@@V?$allocator@PAVSubSlayerSkillInfo@@@_STL@@@_STL@@QAE@XZ
_TEXT	SEGMENT
??1?$list@PAVSubSlayerSkillInfo@@V?$allocator@PAVSubSlayerSkillInfo@@@_STL@@@_STL@@QAE@XZ PROC NEAR ; _STL::list<SubSlayerSkillInfo *,_STL::allocator<SubSlayerSkillInfo *> >::~list<SubSlayerSkillInfo *,_STL::allocator<SubSlayerSkillInfo *> >, COMDAT
; _this$ = ecx

; 416  :   ~list() { }

  00000	e9 00 00 00 00	 jmp	 ??1?$_List_base@PAVSubSlayerSkillInfo@@V?$allocator@PAVSubSlayerSkillInfo@@@_STL@@@_STL@@QAE@XZ ; _STL::_List_base<SubSlayerSkillInfo *,_STL::allocator<SubSlayerSkillInfo *> >::~_List_base<SubSlayerSkillInfo *,_STL::allocator<SubSlayerSkillInfo *> >
??1?$list@PAVSubSlayerSkillInfo@@V?$allocator@PAVSubSlayerSkillInfo@@@_STL@@@_STL@@QAE@XZ ENDP ; _STL::list<SubSlayerSkillInfo *,_STL::allocator<SubSlayerSkillInfo *> >::~list<SubSlayerSkillInfo *,_STL::allocator<SubSlayerSkillInfo *> >
_TEXT	ENDS
PUBLIC	?insert@?$list@PAVSubSlayerSkillInfo@@V?$allocator@PAVSubSlayerSkillInfo@@@_STL@@@_STL@@QAE?AU?$_List_iterator@PAVSubSlayerSkillInfo@@U?$_Nonconst_traits@PAVSubSlayerSkillInfo@@@_STL@@@2@U32@ABQAVSubSlayerSkillInfo@@@Z ; _STL::list<SubSlayerSkillInfo *,_STL::allocator<SubSlayerSkillInfo *> >::insert
; Function compile flags: /Ogsy
;	COMDAT ?insert@?$list@PAVSubSlayerSkillInfo@@V?$allocator@PAVSubSlayerSkillInfo@@@_STL@@@_STL@@QAE?AU?$_List_iterator@PAVSubSlayerSkillInfo@@U?$_Nonconst_traits@PAVSubSlayerSkillInfo@@@_STL@@@2@U32@ABQAVSubSlayerSkillInfo@@@Z
_TEXT	SEGMENT
___$ReturnUdt$ = 8					; size = 4
___position$ = 12					; size = 4
___x$ = 16						; size = 4
?insert@?$list@PAVSubSlayerSkillInfo@@V?$allocator@PAVSubSlayerSkillInfo@@@_STL@@@_STL@@QAE?AU?$_List_iterator@PAVSubSlayerSkillInfo@@U?$_Nonconst_traits@PAVSubSlayerSkillInfo@@@_STL@@@2@U32@ABQAVSubSlayerSkillInfo@@@Z PROC NEAR ; _STL::list<SubSlayerSkillInfo *,_STL::allocator<SubSlayerSkillInfo *> >::insert, COMDAT
; _this$ = ecx

; 299  : 
; 300  :     _Node* __tmp = _M_create_node(__x);

  00000	ff 74 24 0c	 push	 DWORD PTR ___x$[esp-4]
  00004	e8 00 00 00 00	 call	 ?_M_create_node@?$list@PAVSubSlayerSkillInfo@@V?$allocator@PAVSubSlayerSkillInfo@@@_STL@@@_STL@@IAEPAU?$_List_node@PAVSubSlayerSkillInfo@@@2@ABQAVSubSlayerSkillInfo@@@Z ; _STL::list<SubSlayerSkillInfo *,_STL::allocator<SubSlayerSkillInfo *> >::_M_create_node

; 301  :     _List_node_base* __n = __position._M_node;
; 302  :     _List_node_base* __p = __n->_M_prev;

  00009	8b 4c 24 08	 mov	 ecx, DWORD PTR ___position$[esp-4]
  0000d	8b 51 04	 mov	 edx, DWORD PTR [ecx+4]

; 303  :     __tmp->_M_next = __n;

  00010	89 08		 mov	 DWORD PTR [eax], ecx

; 304  :     __tmp->_M_prev = __p;

  00012	89 50 04	 mov	 DWORD PTR [eax+4], edx

; 305  :     __p->_M_next = __tmp;

  00015	89 02		 mov	 DWORD PTR [edx], eax

; 306  :     __n->_M_prev = __tmp;

  00017	89 41 04	 mov	 DWORD PTR [ecx+4], eax

; 307  :     return __tmp;

  0001a	8b 4c 24 04	 mov	 ecx, DWORD PTR ___$ReturnUdt$[esp-4]
  0001e	89 01		 mov	 DWORD PTR [ecx], eax
  00020	8b c1		 mov	 eax, ecx

; 308  :   }

  00022	c2 0c 00	 ret	 12			; 0000000cH
?insert@?$list@PAVSubSlayerSkillInfo@@V?$allocator@PAVSubSlayerSkillInfo@@@_STL@@@_STL@@QAE?AU?$_List_iterator@PAVSubSlayerSkillInfo@@U?$_Nonconst_traits@PAVSubSlayerSkillInfo@@@_STL@@@2@U32@ABQAVSubSlayerSkillInfo@@@Z ENDP ; _STL::list<SubSlayerSkillInfo *,_STL::allocator<SubSlayerSkillInfo *> >::insert
_TEXT	ENDS
PUBLIC	??0SlayerSkillInfo@@QAE@XZ			; SlayerSkillInfo::SlayerSkillInfo
PUBLIC	?read@SlayerSkillInfo@@UAEXAAVSocketInputStream@@@Z ; SlayerSkillInfo::read
PUBLIC	??_R4SlayerSkillInfo@@6B@			; SlayerSkillInfo::`RTTI Complete Object Locator'
PUBLIC	??_R0?AVSlayerSkillInfo@@@8			; SlayerSkillInfo `RTTI Type Descriptor'
PUBLIC	??_R3SlayerSkillInfo@@8				; SlayerSkillInfo::`RTTI Class Hierarchy Descriptor'
PUBLIC	??_R2SlayerSkillInfo@@8				; SlayerSkillInfo::`RTTI Base Class Array'
PUBLIC	??_R1A@?0A@A@SlayerSkillInfo@@8			; SlayerSkillInfo::`RTTI Base Class Descriptor at (0,-1,0,0)'
PUBLIC	??_7SlayerSkillInfo@@6B@			; SlayerSkillInfo::`vftable'
PUBLIC	??_GSlayerSkillInfo@@UAEPAXI@Z			; SlayerSkillInfo::`scalar deleting destructor'
EXTRN	??_ESlayerSkillInfo@@UAEPAXI@Z:NEAR		; SlayerSkillInfo::`vector deleting destructor'
;	COMDAT ??_7SlayerSkillInfo@@6B@
; File c:\stlport-4.6.1\stlport\stl\_alloc.h
CONST	SEGMENT
??_7SlayerSkillInfo@@6B@ DD FLAT:??_R4SlayerSkillInfo@@6B@ ; SlayerSkillInfo::`vftable'
	DD	FLAT:??_ESlayerSkillInfo@@UAEPAXI@Z
	DD	FLAT:?read@SlayerSkillInfo@@UAEXAAVSocketInputStream@@@Z
	DD	FLAT:?write@SlayerSkillInfo@@UBEXAAVSocketOutputStream@@@Z
	DD	FLAT:?getSize@SlayerSkillInfo@@UAEIXZ
CONST	ENDS
;	COMDAT ??_R4SlayerSkillInfo@@6B@
rdata$r	SEGMENT
??_R4SlayerSkillInfo@@6B@ DD 00H			; SlayerSkillInfo::`RTTI Complete Object Locator'
	DD	00H
	DD	00H
	DD	FLAT:??_R0?AVSlayerSkillInfo@@@8
	DD	FLAT:??_R3SlayerSkillInfo@@8
rdata$r	ENDS
;	COMDAT ??_R0?AVSlayerSkillInfo@@@8
_DATA	SEGMENT
??_R0?AVSlayerSkillInfo@@@8 DD FLAT:??_7type_info@@6B@	; SlayerSkillInfo `RTTI Type Descriptor'
	DD	00H
	DB	'.?AVSlayerSkillInfo@@', 00H
_DATA	ENDS
;	COMDAT ??_R3SlayerSkillInfo@@8
rdata$r	SEGMENT
??_R3SlayerSkillInfo@@8 DD 00H				; SlayerSkillInfo::`RTTI Class Hierarchy Descriptor'
	DD	00H
	DD	02H
	DD	FLAT:??_R2SlayerSkillInfo@@8
rdata$r	ENDS
;	COMDAT ??_R2SlayerSkillInfo@@8
rdata$r	SEGMENT
??_R2SlayerSkillInfo@@8 DD FLAT:??_R1A@?0A@A@SlayerSkillInfo@@8 ; SlayerSkillInfo::`RTTI Base Class Array'
	DD	FLAT:??_R1A@?0A@A@PCSkillInfo@@8
rdata$r	ENDS
;	COMDAT ??_R1A@?0A@A@SlayerSkillInfo@@8
rdata$r	SEGMENT
??_R1A@?0A@A@SlayerSkillInfo@@8 DD FLAT:??_R0?AVSlayerSkillInfo@@@8 ; SlayerSkillInfo::`RTTI Base Class Descriptor at (0,-1,0,0)'
	DD	01H
	DD	00H
	DD	0ffffffffH
	DD	00H
	DD	00H
; Function compile flags: /Ogsy
; File c:\darkeden\designed_common\project\client\packet\slayerskillinfo.cpp
rdata$r	ENDS
;	COMDAT ??0SlayerSkillInfo@@QAE@XZ
_TEXT	SEGMENT
$T102523 = -1						; size = 1
??0SlayerSkillInfo@@QAE@XZ PROC NEAR			; SlayerSkillInfo::SlayerSkillInfo, COMDAT
; _this$ = ecx

; 24   : {

  00000	51		 push	 ecx
  00001	56		 push	 esi
  00002	8b f1		 mov	 esi, ecx
  00004	8d 44 24 07	 lea	 eax, DWORD PTR $T102523[esp+8]
  00008	50		 push	 eax
  00009	8d 4e 08	 lea	 ecx, DWORD PTR [esi+8]
  0000c	c7 06 00 00 00
	00		 mov	 DWORD PTR [esi], OFFSET FLAT:??_7SlayerSkillInfo@@6B@
  00012	e8 00 00 00 00	 call	 ??0?$list@PAVSubSlayerSkillInfo@@V?$allocator@PAVSubSlayerSkillInfo@@@_STL@@@_STL@@QAE@ABV?$allocator@PAVSubSlayerSkillInfo@@@1@@Z ; _STL::list<SubSlayerSkillInfo *,_STL::allocator<SubSlayerSkillInfo *> >::list<SubSlayerSkillInfo *,_STL::allocator<SubSlayerSkillInfo *> >

; 25   : 	__BEGIN_TRY
; 26   : 	m_bLearnNewSkill = false;

  00017	32 c0		 xor	 al, al
  00019	88 46 04	 mov	 BYTE PTR [esi+4], al

; 27   : 	m_DomainType = 0;

  0001c	88 46 05	 mov	 BYTE PTR [esi+5], al

; 28   : 	m_ListNum = 0;

  0001f	88 46 06	 mov	 BYTE PTR [esi+6], al

; 29   : 	__END_CATCH
; 30   : }

  00022	8b c6		 mov	 eax, esi
  00024	5e		 pop	 esi
  00025	59		 pop	 ecx
  00026	c3		 ret	 0
??0SlayerSkillInfo@@QAE@XZ ENDP				; SlayerSkillInfo::SlayerSkillInfo
_TEXT	ENDS
PUBLIC	??1SlayerSkillInfo@@UAE@XZ			; SlayerSkillInfo::~SlayerSkillInfo
; Function compile flags: /Ogsy
;	COMDAT ??1SlayerSkillInfo@@UAE@XZ
_TEXT	SEGMENT
??1SlayerSkillInfo@@UAE@XZ PROC NEAR			; SlayerSkillInfo::~SlayerSkillInfo, COMDAT
; _this$ = ecx

; 38   : {

  00000	56		 push	 esi
  00001	57		 push	 edi
  00002	8b f9		 mov	 edi, ecx
  00004	c7 07 00 00 00
	00		 mov	 DWORD PTR [edi], OFFSET FLAT:??_7SlayerSkillInfo@@6B@

; 39   : 	__BEGIN_TRY
; 40   : 
; 41   : 	//    .
; 42   : 	while ( !m_SubSlayerSkillInfoList.empty() ) {

  0000a	8d 77 08	 lea	 esi, DWORD PTR [edi+8]
  0000d	eb 14		 jmp	 SHORT $L102579
$L100968:

; 43   : 		SubSlayerSkillInfo * pSubSlayerSkillInfo = m_SubSlayerSkillInfoList.front();

  0000f	8b 06		 mov	 eax, DWORD PTR [esi]

; 44   : 		delete pSubSlayerSkillInfo;

  00011	8b 00		 mov	 eax, DWORD PTR [eax]
  00013	ff 70 08	 push	 DWORD PTR [eax+8]
  00016	e8 00 00 00 00	 call	 ??3@YAXPAX@Z		; operator delete
  0001b	59		 pop	 ecx

; 45   : 		m_SubSlayerSkillInfoList.pop_front();

  0001c	8b ce		 mov	 ecx, esi
  0001e	e8 00 00 00 00	 call	 ?pop_front@?$list@PAVSubSlayerSkillInfo@@V?$allocator@PAVSubSlayerSkillInfo@@@_STL@@@_STL@@QAEXXZ ; _STL::list<SubSlayerSkillInfo *,_STL::allocator<SubSlayerSkillInfo *> >::pop_front
$L102579:
  00023	8b 06		 mov	 eax, DWORD PTR [esi]
  00025	39 00		 cmp	 DWORD PTR [eax], eax
  00027	75 e6		 jne	 SHORT $L100968

; 46   : 	}
; 47   : 
; 48   : 	__END_CATCH
; 49   : }

  00029	8b ce		 mov	 ecx, esi
  0002b	e8 00 00 00 00	 call	 ??1?$list@PAVSubSlayerSkillInfo@@V?$allocator@PAVSubSlayerSkillInfo@@@_STL@@@_STL@@QAE@XZ ; _STL::list<SubSlayerSkillInfo *,_STL::allocator<SubSlayerSkillInfo *> >::~list<SubSlayerSkillInfo *,_STL::allocator<SubSlayerSkillInfo *> >
  00030	c7 07 00 00 00
	00		 mov	 DWORD PTR [edi], OFFSET FLAT:??_7PCSkillInfo@@6B@
  00036	5f		 pop	 edi
  00037	5e		 pop	 esi
  00038	c3		 ret	 0
??1SlayerSkillInfo@@UAE@XZ ENDP				; SlayerSkillInfo::~SlayerSkillInfo
_TEXT	ENDS
PUBLIC	?push_back@?$list@PAVSubSlayerSkillInfo@@V?$allocator@PAVSubSlayerSkillInfo@@@_STL@@@_STL@@QAEXABQAVSubSlayerSkillInfo@@@Z ; _STL::list<SubSlayerSkillInfo *,_STL::allocator<SubSlayerSkillInfo *> >::push_back
; Function compile flags: /Ogsy
; File c:\stlport-4.6.1\stlport\stl\_list.h
;	COMDAT ?push_back@?$list@PAVSubSlayerSkillInfo@@V?$allocator@PAVSubSlayerSkillInfo@@@_STL@@@_STL@@QAEXABQAVSubSlayerSkillInfo@@@Z
_TEXT	SEGMENT
$T102584 = 8						; size = 4
___x$ = 8						; size = 4
?push_back@?$list@PAVSubSlayerSkillInfo@@V?$allocator@PAVSubSlayerSkillInfo@@@_STL@@@_STL@@QAEXABQAVSubSlayerSkillInfo@@@Z PROC NEAR ; _STL::list<SubSlayerSkillInfo *,_STL::allocator<SubSlayerSkillInfo *> >::push_back, COMDAT
; _this$ = ecx

; 345  :   void push_back(const _Tp& __x) { insert(end(), __x); }

  00000	55		 push	 ebp
  00001	8b ec		 mov	 ebp, esp
  00003	ff 75 08	 push	 DWORD PTR ___x$[ebp]
  00006	8b 11		 mov	 edx, DWORD PTR [ecx]
  00008	51		 push	 ecx
  00009	8b c4		 mov	 eax, esp
  0000b	89 10		 mov	 DWORD PTR [eax], edx
  0000d	8d 45 08	 lea	 eax, DWORD PTR $T102584[ebp]
  00010	50		 push	 eax
  00011	e8 00 00 00 00	 call	 ?insert@?$list@PAVSubSlayerSkillInfo@@V?$allocator@PAVSubSlayerSkillInfo@@@_STL@@@_STL@@QAE?AU?$_List_iterator@PAVSubSlayerSkillInfo@@U?$_Nonconst_traits@PAVSubSlayerSkillInfo@@@_STL@@@2@U32@ABQAVSubSlayerSkillInfo@@@Z ; _STL::list<SubSlayerSkillInfo *,_STL::allocator<SubSlayerSkillInfo *> >::insert
  00016	5d		 pop	 ebp
  00017	c2 04 00	 ret	 4
?push_back@?$list@PAVSubSlayerSkillInfo@@V?$allocator@PAVSubSlayerSkillInfo@@@_STL@@@_STL@@QAEXABQAVSubSlayerSkillInfo@@@Z ENDP ; _STL::list<SubSlayerSkillInfo *,_STL::allocator<SubSlayerSkillInfo *> >::push_back
; Function compile flags: /Ogsy
_TEXT	ENDS
;	COMDAT ??_GSlayerSkillInfo@@UAEPAXI@Z
_TEXT	SEGMENT
___flags$ = 8						; size = 4
??_GSlayerSkillInfo@@UAEPAXI@Z PROC NEAR		; SlayerSkillInfo::`scalar deleting destructor', COMDAT
; _this$ = ecx
  00000	56		 push	 esi
  00001	8b f1		 mov	 esi, ecx
  00003	e8 00 00 00 00	 call	 ??1SlayerSkillInfo@@UAE@XZ ; SlayerSkillInfo::~SlayerSkillInfo
  00008	f6 44 24 08 01	 test	 BYTE PTR ___flags$[esp], 1
  0000d	74 07		 je	 SHORT $L100962
  0000f	56		 push	 esi
  00010	e8 00 00 00 00	 call	 ??3@YAXPAX@Z		; operator delete
  00015	59		 pop	 ecx
$L100962:
  00016	8b c6		 mov	 eax, esi
  00018	5e		 pop	 esi
  00019	c2 04 00	 ret	 4
??_GSlayerSkillInfo@@UAEPAXI@Z ENDP			; SlayerSkillInfo::`scalar deleting destructor'
_TEXT	ENDS
EXTRN	?read@SubSlayerSkillInfo@@QAEXAAVSocketInputStream@@@Z:NEAR ; SubSlayerSkillInfo::read
; Function compile flags: /Ogsy
; File c:\darkeden\designed_common\project\client\packet\slayerskillinfo.cpp
;	COMDAT ?read@SlayerSkillInfo@@UAEXAAVSocketInputStream@@@Z
_TEXT	SEGMENT
_i$100978 = -8						; size = 4
_pSubSlayerSkillInfo$100982 = -4			; size = 4
_iStream$ = 8						; size = 4
?read@SlayerSkillInfo@@UAEXAAVSocketInputStream@@@Z PROC NEAR ; SlayerSkillInfo::read, COMDAT
; _this$ = ecx

; 57   : {

  00000	55		 push	 ebp
  00001	8b ec		 mov	 ebp, esp
  00003	51		 push	 ecx
  00004	51		 push	 ecx
  00005	53		 push	 ebx
  00006	56		 push	 esi
  00007	8b f1		 mov	 esi, ecx

; 58   : 	__BEGIN_TRY
; 59   : 		
; 60   : 	//      .
; 61   : 	iStream.read( m_bLearnNewSkill);

  00009	8b 4d 08	 mov	 ecx, DWORD PTR _iStream$[ebp]
  0000c	6a 01		 push	 1
  0000e	8d 46 04	 lea	 eax, DWORD PTR [esi+4]
  00011	50		 push	 eax
  00012	e8 00 00 00 00	 call	 ?read@SocketInputStream@@QAEIPADI@Z ; SocketInputStream::read

; 62   : 	iStream.read( m_DomainType );

  00017	8b 4d 08	 mov	 ecx, DWORD PTR _iStream$[ebp]
  0001a	6a 01		 push	 1
  0001c	8d 46 05	 lea	 eax, DWORD PTR [esi+5]
  0001f	50		 push	 eax
  00020	e8 00 00 00 00	 call	 ?read@SocketInputStream@@QAEIPADI@Z ; SocketInputStream::read

; 63   : 	iStream.read( m_ListNum );

  00025	8b 4d 08	 mov	 ecx, DWORD PTR _iStream$[ebp]
  00028	6a 01		 push	 1
  0002a	8d 5e 06	 lea	 ebx, DWORD PTR [esi+6]
  0002d	53		 push	 ebx
  0002e	e8 00 00 00 00	 call	 ?read@SocketInputStream@@QAEIPADI@Z ; SocketInputStream::read

; 64   : 
; 65   : 	for( int i = 0; i < m_ListNum; i++ ) {

  00033	83 65 f8 00	 and	 DWORD PTR _i$100978[ebp], 0
  00037	80 3b 00	 cmp	 BYTE PTR [ebx], 0
  0003a	76 46		 jbe	 SHORT $L100981
  0003c	83 c6 08	 add	 esi, 8
  0003f	57		 push	 edi
$L102622:

; 66   : 		SubSlayerSkillInfo * pSubSlayerSkillInfo = new SubSlayerSkillInfo();

  00040	6a 18		 push	 24			; 00000018H
  00042	e8 00 00 00 00	 call	 ??2@YAPAXI@Z		; operator new
  00047	8b d0		 mov	 edx, eax
  00049	85 d2		 test	 edx, edx
  0004b	59		 pop	 ecx
  0004c	74 0e		 je	 SHORT $L102609
  0004e	6a 06		 push	 6
  00050	59		 pop	 ecx
  00051	33 c0		 xor	 eax, eax
  00053	8b fa		 mov	 edi, edx
  00055	f3 ab		 rep stosd
  00057	89 55 fc	 mov	 DWORD PTR _pSubSlayerSkillInfo$100982[ebp], edx
  0005a	eb 04		 jmp	 SHORT $L102610
$L102609:
  0005c	83 65 fc 00	 and	 DWORD PTR _pSubSlayerSkillInfo$100982[ebp], 0
$L102610:

; 67   : 		pSubSlayerSkillInfo->read( iStream );

  00060	ff 75 08	 push	 DWORD PTR _iStream$[ebp]
  00063	8b 4d fc	 mov	 ecx, DWORD PTR _pSubSlayerSkillInfo$100982[ebp]
  00066	e8 00 00 00 00	 call	 ?read@SubSlayerSkillInfo@@QAEXAAVSocketInputStream@@@Z ; SubSlayerSkillInfo::read

; 68   : 		m_SubSlayerSkillInfoList.push_back( pSubSlayerSkillInfo );

  0006b	8d 45 fc	 lea	 eax, DWORD PTR _pSubSlayerSkillInfo$100982[ebp]
  0006e	50		 push	 eax
  0006f	8b ce		 mov	 ecx, esi
  00071	e8 00 00 00 00	 call	 ?push_back@?$list@PAVSubSlayerSkillInfo@@V?$allocator@PAVSubSlayerSkillInfo@@@_STL@@@_STL@@QAEXABQAVSubSlayerSkillInfo@@@Z ; _STL::list<SubSlayerSkillInfo *,_STL::allocator<SubSlayerSkillInfo *> >::push_back
  00076	0f b6 03	 movzx	 eax, BYTE PTR [ebx]
  00079	ff 45 f8	 inc	 DWORD PTR _i$100978[ebp]
  0007c	39 45 f8	 cmp	 DWORD PTR _i$100978[ebp], eax
  0007f	7c bf		 jl	 SHORT $L102622
  00081	5f		 pop	 edi
$L100981:
  00082	5e		 pop	 esi
  00083	5b		 pop	 ebx

; 69   : 
; 70   : 	}
; 71   : 
; 72   : 	__END_CATCH
; 73   : }

  00084	c9		 leave
  00085	c2 04 00	 ret	 4
?read@SlayerSkillInfo@@UAEXAAVSocketInputStream@@@Z ENDP ; SlayerSkillInfo::read
_TEXT	ENDS
END
