; Listing generated by Microsoft (R) Optimizing Compiler Version 13.10.3077 

	TITLE	\darkeden\Designed_Common\Project\Client\Packet\SocketAPI.cpp
	.386P
include listing.inc
if @Version gt 510
.model FLAT
else
_TEXT	SEGMENT PARA USE32 PUBLIC 'CODE'
_TEXT	ENDS
_DATA	SEGMENT DWORD USE32 PUBLIC 'DATA'
_DATA	ENDS
CONST	SEGMENT DWORD USE32 PUBLIC 'CONST'
CONST	ENDS
_BSS	SEGMENT DWORD USE32 PUBLIC 'BSS'
_BSS	ENDS
$$SYMBOLS	SEGMENT BYTE USE32 'DEBSYM'
$$SYMBOLS	ENDS
$$TYPES	SEGMENT BYTE USE32 'DEBTYP'
$$TYPES	ENDS
_TLS	SEGMENT DWORD USE32 PUBLIC 'TLS'
_TLS	ENDS
;	COMDAT ??_C@_0DP@GBHCAAKN@A?5successful?5WSAStartup?5must?5occ@
CONST	SEGMENT DWORD USE32 PUBLIC 'CONST'
CONST	ENDS
;	COMDAT ??_C@_0EF@CKIMHLLF@The?5network?5subsystem?5or?5the?5ass@
CONST	SEGMENT DWORD USE32 PUBLIC 'CONST'
CONST	ENDS
;	COMDAT ??_C@_0CP@CMMCJPID@The?5specified?5address?5family?5is?5@
CONST	SEGMENT DWORD USE32 PUBLIC 'CONST'
CONST	ENDS
;	COMDAT ??_C@_0HF@MHMDKDMH@A?5blocking?5Windows?5Sockets?51?41?5c@
CONST	SEGMENT DWORD USE32 PUBLIC 'CONST'
CONST	ENDS
;	COMDAT ??_C@_0CK@CCIODIMH@No?5more?5socket?5descriptors?5are?5a@
CONST	SEGMENT DWORD USE32 PUBLIC 'CONST'
CONST	ENDS
;	COMDAT ??_C@_0DM@PDGFCCEO@No?5buffer?5space?5is?5available?4?5Th@
CONST	SEGMENT DWORD USE32 PUBLIC 'CONST'
CONST	ENDS
;	COMDAT ??_C@_0CJ@GPPCBGGF@The?5specified?5protocol?5is?5not?5su@
CONST	SEGMENT DWORD USE32 PUBLIC 'CONST'
CONST	ENDS
;	COMDAT ??_C@_0DK@JOBMIHGA@The?5specified?5protocol?5is?5the?5wr@
CONST	SEGMENT DWORD USE32 PUBLIC 'CONST'
CONST	ENDS
;	COMDAT ??_C@_0ED@CJEADFCG@The?5specified?5socket?5type?5is?5not@
CONST	SEGMENT DWORD USE32 PUBLIC 'CONST'
CONST	ENDS
;	COMDAT ??_C@_08MGOJEIPC@socket?$CI?$CJ?$AA@
CONST	SEGMENT DWORD USE32 PUBLIC 'CONST'
CONST	ENDS
;	COMDAT ??_C@_0CC@ECDFBOEN@The?5network?5subsystem?5has?5failed@
CONST	SEGMENT DWORD USE32 PUBLIC 'CONST'
CONST	ENDS
;	COMDAT ??_C@_0BBF@PFOALLAD@A?5process?5on?5the?5machine?5is?5alre@
CONST	SEGMENT DWORD USE32 PUBLIC 'CONST'
CONST	ENDS
;	COMDAT ??_C@_0DP@BCGDOFHN@The?5specified?5address?5is?5not?5a?5v@
CONST	SEGMENT DWORD USE32 PUBLIC 'CONST'
CONST	ENDS
;	COMDAT ??_C@_0BFF@ICELJIHE@The?5name?5or?5the?5namelen?5paramete@
CONST	SEGMENT DWORD USE32 PUBLIC 'CONST'
CONST	ENDS
;	COMDAT ??_C@_0CL@NDPGBJGA@The?5socket?5is?5already?5bound?5to?5a@
CONST	SEGMENT DWORD USE32 PUBLIC 'CONST'
CONST	ENDS
;	COMDAT ??_C@_0DE@MNEOPKLK@Not?5enough?5buffers?5available?0?5to@
CONST	SEGMENT DWORD USE32 PUBLIC 'CONST'
CONST	ENDS
;	COMDAT ??_C@_0CA@EGNBMMLP@The?5descriptor?5is?5not?5a?5socket?4?$AA@
CONST	SEGMENT DWORD USE32 PUBLIC 'CONST'
CONST	ENDS
;	COMDAT ??_C@_06LBBPACBE@bind?$CI?$CJ?$AA@
CONST	SEGMENT DWORD USE32 PUBLIC 'CONST'
CONST	ENDS
;	COMDAT ??_C@_0BGB@KCBKDGKJ@The?5socket?8s?5local?5address?5is?5al@
CONST	SEGMENT DWORD USE32 PUBLIC 'CONST'
CONST	ENDS
;	COMDAT ??_C@_0FD@ELPGMEKP@The?5?$CIblocking?$CJ?5Windows?5Socket?51?4@
CONST	SEGMENT DWORD USE32 PUBLIC 'CONST'
CONST	ENDS
;	COMDAT ??_C@_0ON@ECCLKFL@A?5nonblocking?5connect?5call?5is?5in@
CONST	SEGMENT DWORD USE32 PUBLIC 'CONST'
CONST	ENDS
;	COMDAT ??_C@_0DO@JIMMDM@The?5remote?5address?5is?5not?5a?5vali@
CONST	SEGMENT DWORD USE32 PUBLIC 'CONST'
CONST	ENDS
;	COMDAT ??_C@_0ED@MFEPMPNB@Addresses?5in?5the?5specified?5famil@
CONST	SEGMENT DWORD USE32 PUBLIC 'CONST'
CONST	ENDS
;	COMDAT ??_C@_0DA@GOHODKIG@The?5attempt?5to?5connect?5was?5force@
CONST	SEGMENT DWORD USE32 PUBLIC 'CONST'
CONST	ENDS
;	COMDAT ??_C@_0NA@FODJMBGJ@The?5name?5or?5the?5namelen?5paramete@
CONST	SEGMENT DWORD USE32 PUBLIC 'CONST'
CONST	ENDS
;	COMDAT ??_C@_0JI@LPPNBOAP@The?5parameter?5s?5is?5a?5listening?5s@
CONST	SEGMENT DWORD USE32 PUBLIC 'CONST'
CONST	ENDS
;	COMDAT ??_C@_0EE@KOFAJNHE@The?5socket?5is?5already?5connected?5@
CONST	SEGMENT DWORD USE32 PUBLIC 'CONST'
CONST	ENDS
;	COMDAT ??_C@_0DL@GIJDBKPC@The?5network?5cannot?5be?5reached?5fr@
CONST	SEGMENT DWORD USE32 PUBLIC 'CONST'
CONST	ENDS
;	COMDAT ??_C@_0DO@ENGDAACK@No?5buffer?5space?5is?5available?4?5Th@
CONST	SEGMENT DWORD USE32 PUBLIC 'CONST'
CONST	ENDS
;	COMDAT ??_C@_0EA@GABJIBBJ@Attempt?5to?5connect?5timed?5out?5wit@
CONST	SEGMENT DWORD USE32 PUBLIC 'CONST'
CONST	ENDS
;	COMDAT ??_C@_0P@BLDHJENA@WSAEWOULDBLOCK?$AA@
CONST	SEGMENT DWORD USE32 PUBLIC 'CONST'
CONST	ENDS
;	COMDAT ??_C@_09KLHJMPLC@connect?$CI?$CJ?$AA@
CONST	SEGMENT DWORD USE32 PUBLIC 'CONST'
CONST	ENDS
;	COMDAT ??_C@_0BHF@GJCPFMJJ@The?5socket?8s?5local?5address?5is?5al@
CONST	SEGMENT DWORD USE32 PUBLIC 'CONST'
CONST	ENDS
;	COMDAT ??_C@_0CJ@CNCNEJKH@The?5socket?5has?5not?5been?5bound?5wi@
CONST	SEGMENT DWORD USE32 PUBLIC 'CONST'
CONST	ENDS
;	COMDAT ??_C@_0CB@NOGOGHML@The?5socket?5is?5already?5connected?4@
CONST	SEGMENT DWORD USE32 PUBLIC 'CONST'
CONST	ENDS
;	COMDAT ??_C@_0BO@MFIBOLAF@No?5buffer?5space?5is?5available?4?$AA@
CONST	SEGMENT DWORD USE32 PUBLIC 'CONST'
CONST	ENDS
;	COMDAT ??_C@_0EL@EIOBEEOK@The?5referenced?5socket?5is?5not?5of?5@
CONST	SEGMENT DWORD USE32 PUBLIC 'CONST'
CONST	ENDS
;	COMDAT ??_C@_08NJAFFHKO@listen?$CI?$CJ?$AA@
CONST	SEGMENT DWORD USE32 PUBLIC 'CONST'
CONST	ENDS
;	COMDAT ??_C@_0DP@MEAHBJPI@A?5successful?5WSAStartup?5must?5occ@
CONST	SEGMENT DWORD USE32 PUBLIC 'CONST'
CONST	ENDS
;	COMDAT ??_C@_0FK@HEDLOHPK@The?5addrlen?5parameter?5is?5too?5sma@
CONST	SEGMENT DWORD USE32 PUBLIC 'CONST'
CONST	ENDS
;	COMDAT ??_C@_0FA@JJCMAGDB@A?5blocking?5Windows?5Sockets?51?41?5c@
CONST	SEGMENT DWORD USE32 PUBLIC 'CONST'
CONST	ENDS
;	COMDAT ??_C@_0DF@LKFANLNJ@The?5listen?5function?5was?5not?5invo@
CONST	SEGMENT DWORD USE32 PUBLIC 'CONST'
CONST	ENDS
;	COMDAT ??_C@_0FD@KEHCLIIF@The?5queue?5is?5nonempty?5upon?5entry@
CONST	SEGMENT DWORD USE32 PUBLIC 'CONST'
CONST	ENDS
;	COMDAT ??_C@_0EP@NMJFBCHH@The?5referenced?5socket?5is?5not?5a?5t@
CONST	SEGMENT DWORD USE32 PUBLIC 'CONST'
CONST	ENDS
;	COMDAT ??_C@_0FD@ILDKKPPJ@The?5socket?5is?5marked?5as?5nonblock@
CONST	SEGMENT DWORD USE32 PUBLIC 'CONST'
CONST	ENDS
;	COMDAT ??_C@_08IBHKEOMI@accept?$CI?$CJ?$AA@
CONST	SEGMENT DWORD USE32 PUBLIC 'CONST'
CONST	ENDS
;	COMDAT ??_C@_0IA@DNGLFLJJ@One?5of?5the?5optval?5or?5the?5optlen?5@
CONST	SEGMENT DWORD USE32 PUBLIC 'CONST'
CONST	ENDS
;	COMDAT ??_C@_0CL@IBEKHBIK@The?5level?5parameter?5is?5unknown?5o@
CONST	SEGMENT DWORD USE32 PUBLIC 'CONST'
CONST	ENDS
;	COMDAT ??_C@_0EH@CBGGLBMD@The?5option?5is?5unknown?5or?5unsuppo@
CONST	SEGMENT DWORD USE32 PUBLIC 'CONST'
CONST	ENDS
;	COMDAT ??_C@_0N@KCEFHCID@getsockopt?$CI?$CJ?$AA@
CONST	SEGMENT DWORD USE32 PUBLIC 'CONST'
CONST	ENDS
;	COMDAT ??_C@_0FN@OOGMPNPC@optval?5is?5not?5in?5a?5valid?5part?5of@
CONST	SEGMENT DWORD USE32 PUBLIC 'CONST'
CONST	ENDS
;	COMDAT ??_C@_0DP@KPAMKPPE@level?5is?5not?5valid?0?5or?5the?5infor@
CONST	SEGMENT DWORD USE32 PUBLIC 'CONST'
CONST	ENDS
;	COMDAT ??_C@_0DD@MEHHAPMO@Connection?5has?5timed?5out?5when?5SO@
CONST	SEGMENT DWORD USE32 PUBLIC 'CONST'
CONST	ENDS
;	COMDAT ??_C@_0GP@DNBIAMDO@The?5option?5is?5unknown?5or?5unsuppo@
CONST	SEGMENT DWORD USE32 PUBLIC 'CONST'
CONST	ENDS
;	COMDAT ??_C@_0DE@PNLMBPGF@Connection?5has?5been?5reset?5when?5S@
CONST	SEGMENT DWORD USE32 PUBLIC 'CONST'
CONST	ENDS
;	COMDAT ??_C@_0N@NGPLLOMP@setsockopt?$CI?$CJ?$AA@
CONST	SEGMENT DWORD USE32 PUBLIC 'CONST'
CONST	ENDS
;	COMDAT ??_C@_0KP@GLGADKOB@The?5requested?5address?5is?5a?5broad@
CONST	SEGMENT DWORD USE32 PUBLIC 'CONST'
CONST	ENDS
;	COMDAT ??_C@_0FJ@HDNMPKKL@The?5buf?5parameter?5is?5not?5complet@
CONST	SEGMENT DWORD USE32 PUBLIC 'CONST'
CONST	ENDS
;	COMDAT ??_C@_0HJ@JGDNLCKB@The?5connection?5has?5been?5broken?5d@
CONST	SEGMENT DWORD USE32 PUBLIC 'CONST'
CONST	ENDS
;	COMDAT ??_C@_0BN@LPMAEJNJ@The?5socket?5is?5not?5connected?4?$AA@
CONST	SEGMENT DWORD USE32 PUBLIC 'CONST'
CONST	ENDS
;	COMDAT ??_C@_0PF@GACPBHPE@MSG_OOB?5was?5specified?0?5but?5the?5s@
CONST	SEGMENT DWORD USE32 PUBLIC 'CONST'
CONST	ENDS
;	COMDAT ??_C@_0IK@HKLJNMCP@The?5socket?5has?5been?5shut?5down?$DL?5i@
CONST	SEGMENT DWORD USE32 PUBLIC 'CONST'
CONST	ENDS
;	COMDAT ??_C@_0EN@KAKAIMBJ@The?5socket?5is?5marked?5as?5nonblock@
CONST	SEGMENT DWORD USE32 PUBLIC 'CONST'
CONST	ENDS
;	COMDAT ??_C@_0HC@GAPLAGOO@The?5socket?5is?5message?5oriented?0?5@
CONST	SEGMENT DWORD USE32 PUBLIC 'CONST'
CONST	ENDS
;	COMDAT ??_C@_0DP@LALJGPFA@The?5remote?5host?5cannot?5be?5reache@
CONST	SEGMENT DWORD USE32 PUBLIC 'CONST'
CONST	ENDS
;	COMDAT ??_C@_0IM@CAIJHNDB@The?5socket?5has?5not?5been?5bound?5wi@
CONST	SEGMENT DWORD USE32 PUBLIC 'CONST'
CONST	ENDS
;	COMDAT ??_C@_0IK@GAHLFOHO@The?5virtual?5circuit?5was?5terminat@
CONST	SEGMENT DWORD USE32 PUBLIC 'CONST'
CONST	ENDS
;	COMDAT ??_C@_0BCH@PECBDLNP@The?5virtual?5circuit?5was?5reset?5by@
CONST	SEGMENT DWORD USE32 PUBLIC 'CONST'
CONST	ENDS
;	COMDAT ??_C@_0HP@NKLLPBNE@The?5connection?5has?5been?5dropped?0@
CONST	SEGMENT DWORD USE32 PUBLIC 'CONST'
CONST	ENDS
;	COMDAT ??_C@_06HHEFFBF@send?$CI?$CJ?$AA@
CONST	SEGMENT DWORD USE32 PUBLIC 'CONST'
CONST	ENDS
;	COMDAT ??_C@_0BA@LPDPIADO@connect?5closed?4?$AA@
CONST	SEGMENT DWORD USE32 PUBLIC 'CONST'
CONST	ENDS
;	COMDAT ??_C@_0EA@GIDFMNMA@The?5?$CIblocking?$CJ?5call?5was?5canceled@
CONST	SEGMENT DWORD USE32 PUBLIC 'CONST'
CONST	ENDS
;	COMDAT ??_C@_0HH@KEHKPEMA@The?5connection?5has?5been?5broken?5d@
CONST	SEGMENT DWORD USE32 PUBLIC 'CONST'
CONST	ENDS
;	COMDAT ??_C@_0PC@GBFNJIKP@MSG_OOB?5was?5specified?0?5but?5the?5s@
CONST	SEGMENT DWORD USE32 PUBLIC 'CONST'
CONST	ENDS
;	COMDAT ??_C@_0IN@EAFECAFG@The?5socket?5has?5been?5shut?5down?$DL?5i@
CONST	SEGMENT DWORD USE32 PUBLIC 'CONST'
CONST	ENDS
;	COMDAT ??_C@_0EL@GJOFKNEE@The?5socket?5is?5marked?5as?5nonblock@
CONST	SEGMENT DWORD USE32 PUBLIC 'CONST'
CONST	ENDS
;	COMDAT ??_C@_0EO@FIIKOGOC@The?5message?5was?5too?5large?5to?5fit@
CONST	SEGMENT DWORD USE32 PUBLIC 'CONST'
CONST	ENDS
;	COMDAT ??_C@_0MH@CKKEDHBL@The?5socket?5has?5not?5been?5bound?5wi@
CONST	SEGMENT DWORD USE32 PUBLIC 'CONST'
CONST	ENDS
;	COMDAT ??_C@_0GL@FJKKOBPB@The?5connection?5has?5been?5dropped?5@
CONST	SEGMENT DWORD USE32 PUBLIC 'CONST'
CONST	ENDS
;	COMDAT ??_C@_0BBO@KAGHOHNO@The?5virtual?5circuit?5was?5reset?5by@
CONST	SEGMENT DWORD USE32 PUBLIC 'CONST'
CONST	ENDS
;	COMDAT ??_C@_06KDIDAFAE@recv?$CI?$CJ?$AA@
CONST	SEGMENT DWORD USE32 PUBLIC 'CONST'
CONST	ENDS
;	COMDAT ??_C@_0FG@FLFNGAMC@The?5socket?5is?5marked?5as?5nonblock@
CONST	SEGMENT DWORD USE32 PUBLIC 'CONST'
CONST	ENDS
;	COMDAT ??_C@_0O@JPGGOEHD@closesocket?$CI?$CJ?$AA@
CONST	SEGMENT DWORD USE32 PUBLIC 'CONST'
CONST	ENDS
;	COMDAT ??_C@_0EA@DNICIJPH@A?5successful?5WSAStartup?5must?5occ@
CONST	SEGMENT DWORD USE32 PUBLIC 'CONST'
CONST	ENDS
;	COMDAT ??_C@_0CD@JNKLCMJB@The?5network?5subsystem?5has?5failed@
CONST	SEGMENT DWORD USE32 PUBLIC 'CONST'
CONST	ENDS
;	COMDAT ??_C@_0HG@JAEDLABC@A?5blocking?5Windows?5Sockets?51?41?5c@
CONST	SEGMENT DWORD USE32 PUBLIC 'CONST'
CONST	ENDS
;	COMDAT ??_C@_0CD@CEBDBHEN@The?5descriptor?5s?5is?5not?5a?5socket@
CONST	SEGMENT DWORD USE32 PUBLIC 'CONST'
CONST	ENDS
;	COMDAT ??_C@_0ED@OHHFHBA@The?5argp?5parameter?5is?5not?5a?5vali@
CONST	SEGMENT DWORD USE32 PUBLIC 'CONST'
CONST	ENDS
;	COMDAT ??_C@_0O@CALPCBOO@ioctlsocket?$CI?$CJ?$AA@
CONST	SEGMENT DWORD USE32 PUBLIC 'CONST'
CONST	ENDS
;	COMDAT ??_C@_0IF@IMEIFAF@The?5how?5parameter?5is?5not?5valid?0?5@
CONST	SEGMENT DWORD USE32 PUBLIC 'CONST'
CONST	ENDS
;	COMDAT ??_C@_0EA@LOCICJDC@The?5socket?5is?5not?5connected?5?$CIcon@
CONST	SEGMENT DWORD USE32 PUBLIC 'CONST'
CONST	ENDS
;	COMDAT ??_C@_0L@MHOOMGLA@shutdown?$CI?$CJ?$AA@
CONST	SEGMENT DWORD USE32 PUBLIC 'CONST'
CONST	ENDS
;	COMDAT ??_C@_0N@GOPDCEEB@basic_string?$AA@
CONST	SEGMENT DWORD USE32 PUBLIC 'CONST'
CONST	ENDS
xdata$x	SEGMENT DWORD USE32 PUBLIC 'CONST'
xdata$x	ENDS
rdata$r	SEGMENT DWORD USE32 PUBLIC 'CONST'
rdata$r	ENDS
text$yc	SEGMENT PARA USE32 PUBLIC 'CODE'
text$yc	ENDS
CRT$XCA	SEGMENT DWORD USE32 PUBLIC 'DATA'
CRT$XCA	ENDS
CRT$XCU	SEGMENT DWORD USE32 PUBLIC 'DATA'
CRT$XCU	ENDS
CRT$XCL	SEGMENT DWORD USE32 PUBLIC 'DATA'
CRT$XCL	ENDS
CRT$XCC	SEGMENT DWORD USE32 PUBLIC 'DATA'
CRT$XCC	ENDS
CRT$XCZ	SEGMENT DWORD USE32 PUBLIC 'DATA'
CRT$XCZ	ENDS
text$yd	SEGMENT PARA USE32 PUBLIC 'CODE'
text$yd	ENDS
;	COMDAT ?socket_ex@SocketAPI@@YAIHHH@Z
_TEXT	SEGMENT PARA USE32 PUBLIC 'CODE'
_TEXT	ENDS
;	COMDAT ??0Error@@QAE@ABV0@@Z
_TEXT	SEGMENT PARA USE32 PUBLIC 'CODE'
_TEXT	ENDS
;	COMDAT ??0Throwable@@QAE@ABV0@@Z
_TEXT	SEGMENT PARA USE32 PUBLIC 'CODE'
_TEXT	ENDS
;	COMDAT ??0UnknownError@@QAE@ABV0@@Z
_TEXT	SEGMENT PARA USE32 PUBLIC 'CODE'
_TEXT	ENDS
;	COMDAT ?bind_ex@SocketAPI@@YAXIPBUsockaddr@@I@Z
_TEXT	SEGMENT PARA USE32 PUBLIC 'CODE'
_TEXT	ENDS
;	COMDAT ??0BindException@@QAE@ABV0@@Z
_TEXT	SEGMENT PARA USE32 PUBLIC 'CODE'
_TEXT	ENDS
;	COMDAT ??0SocketException@@QAE@ABV0@@Z
_TEXT	SEGMENT PARA USE32 PUBLIC 'CODE'
_TEXT	ENDS
;	COMDAT ??0IOException@@QAE@ABV0@@Z
_TEXT	SEGMENT PARA USE32 PUBLIC 'CODE'
_TEXT	ENDS
;	COMDAT ??0Exception@@QAE@ABV0@@Z
_TEXT	SEGMENT PARA USE32 PUBLIC 'CODE'
_TEXT	ENDS
;	COMDAT ?connect_ex@SocketAPI@@YAXIPBUsockaddr@@I@Z
_TEXT	SEGMENT PARA USE32 PUBLIC 'CODE'
_TEXT	ENDS
;	COMDAT ??0ConnectException@@QAE@ABV0@@Z
_TEXT	SEGMENT PARA USE32 PUBLIC 'CODE'
_TEXT	ENDS
;	COMDAT ?listen_ex@SocketAPI@@YAXII@Z
_TEXT	SEGMENT PARA USE32 PUBLIC 'CODE'
_TEXT	ENDS
;	COMDAT ?accept_ex@SocketAPI@@YAIIPAUsockaddr@@PAI@Z
_TEXT	SEGMENT PARA USE32 PUBLIC 'CODE'
_TEXT	ENDS
;	COMDAT ??0NonBlockingIOException@@QAE@ABV0@@Z
_TEXT	SEGMENT PARA USE32 PUBLIC 'CODE'
_TEXT	ENDS
;	COMDAT ?getsockopt_ex@SocketAPI@@YAXIHHPAXPAI@Z
_TEXT	SEGMENT PARA USE32 PUBLIC 'CODE'
_TEXT	ENDS
;	COMDAT ?setsockopt_ex@SocketAPI@@YAXIHHPBXI@Z
_TEXT	SEGMENT PARA USE32 PUBLIC 'CODE'
_TEXT	ENDS
;	COMDAT ?send_ex@SocketAPI@@YAIIPBXII@Z
_TEXT	SEGMENT PARA USE32 PUBLIC 'CODE'
_TEXT	ENDS
;	COMDAT ?sendto_ex@SocketAPI@@YAIIPBXHIPBUsockaddr@@H@Z
_TEXT	SEGMENT PARA USE32 PUBLIC 'CODE'
_TEXT	ENDS
;	COMDAT ?recv_ex@SocketAPI@@YAIIPAXII@Z
_TEXT	SEGMENT PARA USE32 PUBLIC 'CODE'
_TEXT	ENDS
;	COMDAT ?recvfrom_ex@SocketAPI@@YAIIPAXHIPAUsockaddr@@PAI@Z
_TEXT	SEGMENT PARA USE32 PUBLIC 'CODE'
_TEXT	ENDS
;	COMDAT ?closesocket_ex@SocketAPI@@YAXI@Z
_TEXT	SEGMENT PARA USE32 PUBLIC 'CODE'
_TEXT	ENDS
;	COMDAT ??0FileNotOpenedException@@QAE@ABV0@@Z
_TEXT	SEGMENT PARA USE32 PUBLIC 'CODE'
_TEXT	ENDS
;	COMDAT ?ioctlsocket_ex@SocketAPI@@YAXIJPAK@Z
_TEXT	SEGMENT PARA USE32 PUBLIC 'CODE'
_TEXT	ENDS
;	COMDAT ?getsocketnonblocking_ex@SocketAPI@@YA_NI@Z
_TEXT	SEGMENT PARA USE32 PUBLIC 'CODE'
_TEXT	ENDS
;	COMDAT ??0UnsupportedError@@QAE@ABV0@@Z
_TEXT	SEGMENT PARA USE32 PUBLIC 'CODE'
_TEXT	ENDS
;	COMDAT ?setsocketnonblocking_ex@SocketAPI@@YAXI_N@Z
_TEXT	SEGMENT PARA USE32 PUBLIC 'CODE'
_TEXT	ENDS
;	COMDAT ?availablesocket_ex@SocketAPI@@YAII@Z
_TEXT	SEGMENT PARA USE32 PUBLIC 'CODE'
_TEXT	ENDS
;	COMDAT ?shutdown_ex@SocketAPI@@YAXII@Z
_TEXT	SEGMENT PARA USE32 PUBLIC 'CODE'
_TEXT	ENDS
;	COMDAT ?select_ex@SocketAPI@@YAHHPAUfd_set@@00PAUtimeval@@@Z
_TEXT	SEGMENT PARA USE32 PUBLIC 'CODE'
_TEXT	ENDS
;	COMDAT ?eq@?$__char_traits_base@DH@_STL@@SA_NABD0@Z
_TEXT	SEGMENT PARA USE32 PUBLIC 'CODE'
_TEXT	ENDS
;	COMDAT ?not_eof@?$__char_traits_base@DH@_STL@@SAHABH@Z
_TEXT	SEGMENT PARA USE32 PUBLIC 'CODE'
_TEXT	ENDS
;	COMDAT ?eq_int_type@?$__char_traits_base@DH@_STL@@SA_NABH0@Z
_TEXT	SEGMENT PARA USE32 PUBLIC 'CODE'
_TEXT	ENDS
;	COMDAT ?get_allocator@?$basic_string@DV?$char_traits@D@_STL@@V?$allocator@D@2@@_STL@@QBE?AV?$allocator@D@2@XZ
_TEXT	SEGMENT PARA USE32 PUBLIC 'CODE'
_TEXT	ENDS
;	COMDAT ?_M_terminate_string@?$basic_string@DV?$char_traits@D@_STL@@V?$allocator@D@2@@_STL@@AAEXXZ
_TEXT	SEGMENT PARA USE32 PUBLIC 'CODE'
_TEXT	ENDS
;	COMDAT ??0?$_String_base@DV?$allocator@D@_STL@@@_STL@@QAE@ABV?$allocator@D@1@@Z
_TEXT	SEGMENT PARA USE32 PUBLIC 'CODE'
_TEXT	ENDS
;	COMDAT ?allocate@?$allocator@D@_STL@@QAEPADIPBX@Z
_TEXT	SEGMENT PARA USE32 PUBLIC 'CODE'
_TEXT	ENDS
;	COMDAT ??0?$fpos@H@_STL@@QAE@J@Z
_TEXT	SEGMENT PARA USE32 PUBLIC 'CODE'
_TEXT	ENDS
;	COMDAT ??B?$fpos@H@_STL@@QBEJXZ
_TEXT	SEGMENT PARA USE32 PUBLIC 'CODE'
_TEXT	ENDS
;	COMDAT ?state@?$fpos@H@_STL@@QBEHXZ
_TEXT	SEGMENT PARA USE32 PUBLIC 'CODE'
_TEXT	ENDS
;	COMDAT ?is_open@?$basic_filebuf@DV?$char_traits@D@_STL@@@_STL@@QBE_NXZ
_TEXT	SEGMENT PARA USE32 PUBLIC 'CODE'
_TEXT	ENDS
;	COMDAT ?_M_seek_return@?$basic_filebuf@DV?$char_traits@D@_STL@@@_STL@@AAE?AV?$fpos@H@2@JH@Z
_TEXT	SEGMENT PARA USE32 PUBLIC 'CODE'
_TEXT	ENDS
;	COMDAT ??0?$list@V?$basic_string@DV?$char_traits@D@_STL@@V?$allocator@D@2@@_STL@@V?$allocator@V?$basic_string@DV?$char_traits@D@_STL@@V?$allocator@D@2@@_STL@@@2@@_STL@@QAE@ABV01@@Z
_TEXT	SEGMENT PARA USE32 PUBLIC 'CODE'
_TEXT	ENDS
;	COMDAT ??0?$_Filebuf_Tmp_Buf@D@_STL@@QAE@H@Z
_TEXT	SEGMENT PARA USE32 PUBLIC 'CODE'
_TEXT	ENDS
;	COMDAT ??1?$_Filebuf_Tmp_Buf@D@_STL@@QAE@XZ
_TEXT	SEGMENT PARA USE32 PUBLIC 'CODE'
_TEXT	ENDS
;	COMDAT ?_M_terminate_string_aux@?$basic_string@DV?$char_traits@D@_STL@@V?$allocator@D@2@@_STL@@AAEXABU__true_type@2@@Z
_TEXT	SEGMENT PARA USE32 PUBLIC 'CODE'
_TEXT	ENDS
;	COMDAT ??0?$allocator@D@_STL@@QAE@ABV01@@Z
_TEXT	SEGMENT PARA USE32 PUBLIC 'CODE'
_TEXT	ENDS
;	COMDAT ??0?$_STLP_alloc_proxy@PADDV?$allocator@D@_STL@@@_STL@@QAE@ABV?$allocator@D@1@PAD@Z
_TEXT	SEGMENT PARA USE32 PUBLIC 'CODE'
_TEXT	ENDS
;	COMDAT ?state@?$fpos@H@_STL@@QAEXH@Z
_TEXT	SEGMENT PARA USE32 PUBLIC 'CODE'
_TEXT	ENDS
;	COMDAT ?get_allocator@?$_List_base@V?$basic_string@DV?$char_traits@D@_STL@@V?$allocator@D@2@@_STL@@V?$allocator@V?$basic_string@DV?$char_traits@D@_STL@@V?$allocator@D@2@@_STL@@@2@@_STL@@QBE?AV?$allocator@V?$basic_string@DV?$char_traits@D@_STL@@V?$allocator@D@2@@_STL@@@2@XZ
_TEXT	SEGMENT PARA USE32 PUBLIC 'CODE'
_TEXT	ENDS
;	COMDAT ??$_M_range_initialize@PBD@?$basic_string@DV?$char_traits@D@_STL@@V?$allocator@D@2@@_STL@@AAEXPBD0@Z
_TEXT	SEGMENT PARA USE32 PUBLIC 'CODE'
_TEXT	ENDS
;	COMDAT ??$_M_range_initialize@PAD@?$basic_string@DV?$char_traits@D@_STL@@V?$allocator@D@2@@_STL@@AAEXPAD0@Z
_TEXT	SEGMENT PARA USE32 PUBLIC 'CODE'
_TEXT	ENDS
;	COMDAT ?close@?$basic_filebuf@DV?$char_traits@D@_STL@@@_STL@@QAEPAV12@XZ
_TEXT	SEGMENT PARA USE32 PUBLIC 'CODE'
_TEXT	ENDS
;	COMDAT ?_M_exit_input_mode@?$basic_filebuf@DV?$char_traits@D@_STL@@@_STL@@AAEXXZ
_TEXT	SEGMENT PARA USE32 PUBLIC 'CODE'
_TEXT	ENDS
;	COMDAT ?_M_switch_to_output_mode@?$basic_filebuf@DV?$char_traits@D@_STL@@@_STL@@AAE_NXZ
_TEXT	SEGMENT PARA USE32 PUBLIC 'CODE'
_TEXT	ENDS
;	COMDAT ?_M_output_error@?$basic_filebuf@DV?$char_traits@D@_STL@@@_STL@@AAEHXZ
_TEXT	SEGMENT PARA USE32 PUBLIC 'CODE'
_TEXT	ENDS
;	COMDAT ?_M_allocate_buffers@?$basic_filebuf@DV?$char_traits@D@_STL@@@_STL@@AAE_NPADH@Z
_TEXT	SEGMENT PARA USE32 PUBLIC 'CODE'
_TEXT	ENDS
;	COMDAT ?_M_deallocate_buffers@?$basic_filebuf@DV?$char_traits@D@_STL@@@_STL@@AAEXXZ
_TEXT	SEGMENT PARA USE32 PUBLIC 'CODE'
_TEXT	ENDS
;	COMDAT ?_M_seek_init@?$basic_filebuf@DV?$char_traits@D@_STL@@@_STL@@AAE_N_N@Z
_TEXT	SEGMENT PARA USE32 PUBLIC 'CODE'
_TEXT	ENDS
;	COMDAT ?_M_setup_codecvt@?$basic_filebuf@DV?$char_traits@D@_STL@@@_STL@@AAEXABVlocale@2@@Z
_TEXT	SEGMENT PARA USE32 PUBLIC 'CODE'
_TEXT	ENDS
;	COMDAT ??$equal@PADPADU?$_Eq_traits@V?$char_traits@D@_STL@@@_STL@@@_STL@@YA_NPAD00U?$_Eq_traits@V?$char_traits@D@_STL@@@0@@Z
_TEXT	SEGMENT PARA USE32 PUBLIC 'CODE'
_TEXT	ENDS
;	COMDAT ??$_Destroy@V?$basic_string@DV?$char_traits@D@_STL@@V?$allocator@D@2@@_STL@@@_STL@@YAXPAV?$basic_string@DV?$char_traits@D@_STL@@V?$allocator@D@2@@0@@Z
_TEXT	SEGMENT PARA USE32 PUBLIC 'CODE'
_TEXT	ENDS
;	COMDAT ??$_M_assign_dispatch@PAD@?$basic_string@DV?$char_traits@D@_STL@@V?$allocator@D@2@@_STL@@AAEAAV01@PAD0ABU__false_type@1@@Z
_TEXT	SEGMENT PARA USE32 PUBLIC 'CODE'
_TEXT	ENDS
;	COMDAT ??$insert@U?$_List_iterator@V?$basic_string@DV?$char_traits@D@_STL@@V?$allocator@D@2@@_STL@@U?$_Const_traits@V?$basic_string@DV?$char_traits@D@_STL@@V?$allocator@D@2@@_STL@@@2@@_STL@@@?$list@V?$basic_string@DV?$char_traits@D@_STL@@V?$allocator@D@2@@_STL@@V?$allocator@V?$basic_string@DV?$char_traits@D@_STL@@V?$allocator@D@2@@_STL@@@2@@_STL@@QAEXU?$_List_iterator@V?$basic_string@DV?$char_traits@D@_STL@@V?$allocator@D@2@@_STL@@U?$_Nonconst_traits@V?$basic_string@DV?$char_traits@D@_STL@@V?$allocator@D@2@@_STL@@@2@@1@U?$_List_iterator@V?$basic_string@DV?$char_traits@D@_STL@@V?$allocator@D@2@@_STL@@U?$_Const_traits@V?$basic_string@DV?$char_traits@D@_STL@@V?$allocator@D@2@@_STL@@@2@@1@1@Z
_TEXT	SEGMENT PARA USE32 PUBLIC 'CODE'
_TEXT	ENDS
;	COMDAT ??$?0U?$_List_node@V?$basic_string@DV?$char_traits@D@_STL@@V?$allocator@D@2@@_STL@@@_STL@@@?$allocator@V?$basic_string@DV?$char_traits@D@_STL@@V?$allocator@D@2@@_STL@@@_STL@@QAE@ABV?$allocator@U?$_List_node@V?$basic_string@DV?$char_traits@D@_STL@@V?$allocator@D@2@@_STL@@@_STL@@@1@@Z
_TEXT	SEGMENT PARA USE32 PUBLIC 'CODE'
_TEXT	ENDS
;	COMDAT ??_G?$basic_string@DV?$char_traits@D@_STL@@V?$allocator@D@2@@_STL@@QAEPAXI@Z
_TEXT	SEGMENT PARA USE32 PUBLIC 'CODE'
_TEXT	ENDS
;	COMDAT ?end@?$basic_string@DV?$char_traits@D@_STL@@V?$allocator@D@2@@_STL@@QAEPADXZ
_TEXT	SEGMENT PARA USE32 PUBLIC 'CODE'
_TEXT	ENDS
;	COMDAT ?erase@?$basic_string@DV?$char_traits@D@_STL@@V?$allocator@D@2@@_STL@@QAEPADPAD0@Z
_TEXT	SEGMENT PARA USE32 PUBLIC 'CODE'
_TEXT	ENDS
;	COMDAT ?_M_exit_putback_mode@?$basic_filebuf@DV?$char_traits@D@_STL@@@_STL@@AAEXXZ
_TEXT	SEGMENT PARA USE32 PUBLIC 'CODE'
_TEXT	ENDS
;	COMDAT ??0?$_List_iterator@V?$basic_string@DV?$char_traits@D@_STL@@V?$allocator@D@2@@_STL@@U?$_Nonconst_traits@V?$basic_string@DV?$char_traits@D@_STL@@V?$allocator@D@2@@_STL@@@2@@_STL@@QAE@ABU01@@Z
_TEXT	SEGMENT PARA USE32 PUBLIC 'CODE'
_TEXT	ENDS
;	COMDAT ??R?$_Eq_traits@V?$char_traits@D@_STL@@@_STL@@QBE_NABD0@Z
_TEXT	SEGMENT PARA USE32 PUBLIC 'CODE'
_TEXT	ENDS
;	COMDAT ?move@?$__char_traits_base@DH@_STL@@SAPADPADPBDI@Z
_TEXT	SEGMENT PARA USE32 PUBLIC 'CODE'
_TEXT	ENDS
;	COMDAT ??$_M_range_initialize@PBD@?$basic_string@DV?$char_traits@D@_STL@@V?$allocator@D@2@@_STL@@AAEXPBD0ABUforward_iterator_tag@1@@Z
_TEXT	SEGMENT PARA USE32 PUBLIC 'CODE'
_TEXT	ENDS
;	COMDAT ??$_M_range_initialize@PAD@?$basic_string@DV?$char_traits@D@_STL@@V?$allocator@D@2@@_STL@@AAEXPAD0ABUforward_iterator_tag@1@@Z
_TEXT	SEGMENT PARA USE32 PUBLIC 'CODE'
_TEXT	ENDS
;	COMDAT ?_M_unshift@?$basic_filebuf@DV?$char_traits@D@_STL@@@_STL@@AAE_NXZ
_TEXT	SEGMENT PARA USE32 PUBLIC 'CODE'
_TEXT	ENDS
;	COMDAT ?_M_allocate_buffers@?$basic_filebuf@DV?$char_traits@D@_STL@@@_STL@@AAE_NXZ
_TEXT	SEGMENT PARA USE32 PUBLIC 'CODE'
_TEXT	ENDS
;	COMDAT ??$max@H@_STL@@YAABHABH0@Z
_TEXT	SEGMENT PARA USE32 PUBLIC 'CODE'
_TEXT	ENDS
;	COMDAT ??$use_facet@V?$codecvt@DDH@_STL@@@_STL@@YAABV?$codecvt@DDH@0@ABVlocale@0@@Z
_TEXT	SEGMENT PARA USE32 PUBLIC 'CODE'
_TEXT	ENDS
;	COMDAT ??$append@PAD@?$basic_string@DV?$char_traits@D@_STL@@V?$allocator@D@2@@_STL@@QAEAAV01@PAD0@Z
_TEXT	SEGMENT PARA USE32 PUBLIC 'CODE'
_TEXT	ENDS
;	COMDAT ??$_M_insert_dispatch@U?$_List_iterator@V?$basic_string@DV?$char_traits@D@_STL@@V?$allocator@D@2@@_STL@@U?$_Const_traits@V?$basic_string@DV?$char_traits@D@_STL@@V?$allocator@D@2@@_STL@@@2@@_STL@@@?$list@V?$basic_string@DV?$char_traits@D@_STL@@V?$allocator@D@2@@_STL@@V?$allocator@V?$basic_string@DV?$char_traits@D@_STL@@V?$allocator@D@2@@_STL@@@2@@_STL@@QAEXU?$_List_iterator@V?$basic_string@DV?$char_traits@D@_STL@@V?$allocator@D@2@@_STL@@U?$_Nonconst_traits@V?$basic_string@DV?$char_traits@D@_STL@@V?$allocator@D@2@@_STL@@@2@@1@U?$_List_iterator@V?$basic_string@DV?$char_traits@D@_STL@@V?$allocator@D@2@@_STL@@U?$_Const_traits@V?$basic_string@DV?$char_traits@D@_STL@@V?$allocator@D@2@@_STL@@@2@@1@1ABU__false_type@1@@Z
_TEXT	SEGMENT PARA USE32 PUBLIC 'CODE'
_TEXT	ENDS
;	COMDAT ??E?$_List_iterator@V?$basic_string@DV?$char_traits@D@_STL@@V?$allocator@D@2@@_STL@@U?$_Const_traits@V?$basic_string@DV?$char_traits@D@_STL@@V?$allocator@D@2@@_STL@@@2@@_STL@@QAEAAU01@XZ
_TEXT	SEGMENT PARA USE32 PUBLIC 'CODE'
_TEXT	ENDS
;	COMDAT ??$distance@PBD@_STL@@YAHABQBD0@Z
_TEXT	SEGMENT PARA USE32 PUBLIC 'CODE'
_TEXT	ENDS
;	COMDAT ?_M_allocate_block@?$_String_base@DV?$allocator@D@_STL@@@_STL@@QAEXI@Z
_TEXT	SEGMENT PARA USE32 PUBLIC 'CODE'
_TEXT	ENDS
;	COMDAT ??$distance@PAD@_STL@@YAHABQAD0@Z
_TEXT	SEGMENT PARA USE32 PUBLIC 'CODE'
_TEXT	ENDS
;	COMDAT ??$uninitialized_copy@PADPAD@_STL@@YAPADPAD00@Z
_TEXT	SEGMENT PARA USE32 PUBLIC 'CODE'
_TEXT	ENDS
;	COMDAT ??$_M_append_dispatch@PAD@?$basic_string@DV?$char_traits@D@_STL@@V?$allocator@D@2@@_STL@@AAEAAV01@PAD0ABU__false_type@1@@Z
_TEXT	SEGMENT PARA USE32 PUBLIC 'CODE'
_TEXT	ENDS
;	COMDAT ?max_size@?$_String_base@DV?$allocator@D@_STL@@@_STL@@QBEIXZ
_TEXT	SEGMENT PARA USE32 PUBLIC 'CODE'
_TEXT	ENDS
;	COMDAT ??$__distance@PBD@_STL@@YAHABQBD0ABUrandom_access_iterator_tag@0@@Z
_TEXT	SEGMENT PARA USE32 PUBLIC 'CODE'
_TEXT	ENDS
;	COMDAT ?_M_throw_length_error@?$_String_base@DV?$allocator@D@_STL@@@_STL@@QBEXXZ
_TEXT	SEGMENT PARA USE32 PUBLIC 'CODE'
_TEXT	ENDS
;	COMDAT ??$__distance@PAD@_STL@@YAHABQAD0ABUrandom_access_iterator_tag@0@@Z
_TEXT	SEGMENT PARA USE32 PUBLIC 'CODE'
_TEXT	ENDS
;	COMDAT ??$__uninitialized_copy@PADPAD@_STL@@YAPADPAD00ABU__true_type@0@@Z
_TEXT	SEGMENT PARA USE32 PUBLIC 'CODE'
_TEXT	ENDS
;	COMDAT ??$append@PAD@?$basic_string@DV?$char_traits@D@_STL@@V?$allocator@D@2@@_STL@@AAEAAV01@PAD0ABUforward_iterator_tag@1@@Z
_TEXT	SEGMENT PARA USE32 PUBLIC 'CODE'
_TEXT	ENDS
;	COMDAT ?_M_construct_null@?$basic_string@DV?$char_traits@D@_STL@@V?$allocator@D@2@@_STL@@AAEXPAD@Z
_TEXT	SEGMENT PARA USE32 PUBLIC 'CODE'
_TEXT	ENDS
;	COMDAT ?size@?$basic_string@DV?$char_traits@D@_STL@@V?$allocator@D@2@@_STL@@QBEIXZ
_TEXT	SEGMENT PARA USE32 PUBLIC 'CODE'
_TEXT	ENDS
;	COMDAT ?max_size@?$basic_string@DV?$char_traits@D@_STL@@V?$allocator@D@2@@_STL@@QBEIXZ
_TEXT	SEGMENT PARA USE32 PUBLIC 'CODE'
_TEXT	ENDS
;	COMDAT ?capacity@?$basic_string@DV?$char_traits@D@_STL@@V?$allocator@D@2@@_STL@@QBEIXZ
_TEXT	SEGMENT PARA USE32 PUBLIC 'CODE'
_TEXT	ENDS
;	COMDAT ?_Ret@?$_BothPtrType@PADPAD@_STL@@SA?AU__true_type@2@XZ
_TEXT	SEGMENT PARA USE32 PUBLIC 'CODE'
_TEXT	ENDS
;	COMDAT ?_M_construct_null_aux@?$basic_string@DV?$char_traits@D@_STL@@V?$allocator@D@2@@_STL@@AAEXPADABU__true_type@2@@Z
_TEXT	SEGMENT PARA USE32 PUBLIC 'CODE'
_TEXT	ENDS
;	COMDAT ??$__copy_aux@PADPAD@_STL@@YAPADPAD00ABU__true_type@0@@Z
_TEXT	SEGMENT PARA USE32 PUBLIC 'CODE'
_TEXT	ENDS
;	COMDAT ??$max@I@_STL@@YAABIABI0@Z
_TEXT	SEGMENT PARA USE32 PUBLIC 'CODE'
_TEXT	ENDS
;	COMDAT ?_Ret@?$_OKToMemCpy@DD@_STL@@SA?AU__true_type@2@XZ
_TEXT	SEGMENT PARA USE32 PUBLIC 'CODE'
_TEXT	ENDS
;	COMDAT ??$_IsOKToMemCpy@DD@_STL@@YA?AU?$_OKToMemCpy@DD@0@PAD0@Z
_TEXT	SEGMENT PARA USE32 PUBLIC 'CODE'
_TEXT	ENDS
;	COMDAT ??$__copy_ptrs@PADPAD@_STL@@YAPADPAD00ABU__true_type@0@@Z
_TEXT	SEGMENT PARA USE32 PUBLIC 'CODE'
_TEXT	ENDS
;	COMDAT ?__copy_trivial@_STL@@YAPAXPBX0PAX@Z
_TEXT	SEGMENT PARA USE32 PUBLIC 'CODE'
_TEXT	ENDS
;	COMDAT ?_M_deallocate_block@?$_String_base@DV?$allocator@D@_STL@@@_STL@@QAEXXZ
_TEXT	SEGMENT PARA USE32 PUBLIC 'CODE'
_TEXT	ENDS
;	COMDAT ?deallocate@?$allocator@D@_STL@@QAEXPADI@Z
_TEXT	SEGMENT PARA USE32 PUBLIC 'CODE'
_TEXT	ENDS
;	COMDAT ?deallocate@?$__node_alloc@$00$0A@@_STL@@SAXPAXI@Z
_TEXT	SEGMENT PARA USE32 PUBLIC 'CODE'
_TEXT	ENDS
;	COMDAT ?__stl_delete@_STL@@YAXPAX@Z
_TEXT	SEGMENT PARA USE32 PUBLIC 'CODE'
_TEXT	ENDS
;	COMDAT ?_M_incr@_List_iterator_base@_STL@@QAEXXZ
_TEXT	SEGMENT PARA USE32 PUBLIC 'CODE'
_TEXT	ENDS
;	COMDAT ??D?$_List_iterator@V?$basic_string@DV?$char_traits@D@_STL@@V?$allocator@D@2@@_STL@@U?$_Const_traits@V?$basic_string@DV?$char_traits@D@_STL@@V?$allocator@D@2@@_STL@@@2@@_STL@@QBEABV?$basic_string@DV?$char_traits@D@_STL@@V?$allocator@D@2@@1@XZ
_TEXT	SEGMENT PARA USE32 PUBLIC 'CODE'
_TEXT	ENDS
;	COMDAT ?insert@?$list@V?$basic_string@DV?$char_traits@D@_STL@@V?$allocator@D@2@@_STL@@V?$allocator@V?$basic_string@DV?$char_traits@D@_STL@@V?$allocator@D@2@@_STL@@@2@@_STL@@QAE?AU?$_List_iterator@V?$basic_string@DV?$char_traits@D@_STL@@V?$allocator@D@2@@_STL@@U?$_Nonconst_traits@V?$basic_string@DV?$char_traits@D@_STL@@V?$allocator@D@2@@_STL@@@2@@2@U32@ABV?$basic_string@DV?$char_traits@D@_STL@@V?$allocator@D@2@@2@@Z
_TEXT	SEGMENT PARA USE32 PUBLIC 'CODE'
_TEXT	ENDS
;	COMDAT ?_M_create_node@?$list@V?$basic_string@DV?$char_traits@D@_STL@@V?$allocator@D@2@@_STL@@V?$allocator@V?$basic_string@DV?$char_traits@D@_STL@@V?$allocator@D@2@@_STL@@@2@@_STL@@IAEPAU?$_List_node@V?$basic_string@DV?$char_traits@D@_STL@@V?$allocator@D@2@@_STL@@@2@ABV?$basic_string@DV?$char_traits@D@_STL@@V?$allocator@D@2@@2@@Z
_TEXT	SEGMENT PARA USE32 PUBLIC 'CODE'
_TEXT	ENDS
;	COMDAT ?allocate@?$allocator@U?$_List_node@V?$basic_string@DV?$char_traits@D@_STL@@V?$allocator@D@2@@_STL@@@_STL@@@_STL@@QAEPAU?$_List_node@V?$basic_string@DV?$char_traits@D@_STL@@V?$allocator@D@2@@_STL@@@2@IPBX@Z
_TEXT	SEGMENT PARA USE32 PUBLIC 'CODE'
_TEXT	ENDS
;	COMDAT ??$_Construct@V?$basic_string@DV?$char_traits@D@_STL@@V?$allocator@D@2@@_STL@@V12@@_STL@@YAXPAV?$basic_string@DV?$char_traits@D@_STL@@V?$allocator@D@2@@0@ABV10@@Z
_TEXT	SEGMENT PARA USE32 PUBLIC 'CODE'
_TEXT	ENDS
;	COMDAT ??2@YAPAXIPAX@Z
_TEXT	SEGMENT PARA USE32 PUBLIC 'CODE'
_TEXT	ENDS
;	COMDAT ??3@YAXPAX0@Z
_TEXT	SEGMENT PARA USE32 PUBLIC 'CODE'
_TEXT	ENDS
;	COMDAT ?deallocate@?$allocator@U?$_List_node@V?$basic_string@DV?$char_traits@D@_STL@@V?$allocator@D@2@@_STL@@@_STL@@@_STL@@QAEXPAU?$_List_node@V?$basic_string@DV?$char_traits@D@_STL@@V?$allocator@D@2@@_STL@@@2@I@Z
_TEXT	SEGMENT PARA USE32 PUBLIC 'CODE'
_TEXT	ENDS
;	COMDAT ??0?$_List_iterator@V?$basic_string@DV?$char_traits@D@_STL@@V?$allocator@D@2@@_STL@@U?$_Nonconst_traits@V?$basic_string@DV?$char_traits@D@_STL@@V?$allocator@D@2@@_STL@@@2@@_STL@@QAE@PAU?$_List_node@V?$basic_string@DV?$char_traits@D@_STL@@V?$allocator@D@2@@_STL@@@1@@Z
_TEXT	SEGMENT PARA USE32 PUBLIC 'CODE'
_TEXT	ENDS
;	COMDAT ??9_List_iterator_base@_STL@@QBE_NABU01@@Z
_TEXT	SEGMENT PARA USE32 PUBLIC 'CODE'
_TEXT	ENDS
;	COMDAT ?__page_size@_Filebuf_base@_STL@@SAIXZ
_TEXT	SEGMENT PARA USE32 PUBLIC 'CODE'
_TEXT	ENDS
;	COMDAT ?_M_write@?$basic_filebuf@DV?$char_traits@D@_STL@@@_STL@@QAE_NPADH@Z
_TEXT	SEGMENT PARA USE32 PUBLIC 'CODE'
_TEXT	ENDS
;	COMDAT ?unshift@?$codecvt@DDH@_STL@@QBE?AW4result@codecvt_base@2@AAHPAD1AAPAD@Z
_TEXT	SEGMENT PARA USE32 PUBLIC 'CODE'
_TEXT	ENDS
;	COMDAT ?uninitialized_copy@_STL@@YAPADPBD0PAD@Z
_TEXT	SEGMENT PARA USE32 PUBLIC 'CODE'
_TEXT	ENDS
;	COMDAT ??0_List_iterator_base@_STL@@QAE@PAU_List_node_base@1@@Z
_TEXT	SEGMENT PARA USE32 PUBLIC 'CODE'
_TEXT	ENDS
;	COMDAT ?_Destroy@_STL@@YAXPAD0@Z
_TEXT	SEGMENT PARA USE32 PUBLIC 'CODE'
_TEXT	ENDS
;	COMDAT ?assign@?$char_traits@D@_STL@@SAXAADABD@Z
_TEXT	SEGMENT PARA USE32 PUBLIC 'CODE'
_TEXT	ENDS
;	COMDAT ?always_noconv@?$codecvt@DDH@_STL@@QBE_NXZ
_TEXT	SEGMENT PARA USE32 PUBLIC 'CODE'
_TEXT	ENDS
;	COMDAT ?encoding@?$codecvt@DDH@_STL@@QBEHXZ
_TEXT	SEGMENT PARA USE32 PUBLIC 'CODE'
_TEXT	ENDS
;	COMDAT ?max_length@?$codecvt@DDH@_STL@@QBEHXZ
_TEXT	SEGMENT PARA USE32 PUBLIC 'CODE'
_TEXT	ENDS
;	COMDAT ?__o_mode@_Filebuf_base@_STL@@QBEHXZ
_TEXT	SEGMENT PARA USE32 PUBLIC 'CODE'
_TEXT	ENDS
;	COMDAT ?begin@?$list@V?$basic_string@DV?$char_traits@D@_STL@@V?$allocator@D@2@@_STL@@V?$allocator@V?$basic_string@DV?$char_traits@D@_STL@@V?$allocator@D@2@@_STL@@@2@@_STL@@QAE?AU?$_List_iterator@V?$basic_string@DV?$char_traits@D@_STL@@V?$allocator@D@2@@_STL@@U?$_Nonconst_traits@V?$basic_string@DV?$char_traits@D@_STL@@V?$allocator@D@2@@_STL@@@2@@2@XZ
_TEXT	SEGMENT PARA USE32 PUBLIC 'CODE'
_TEXT	ENDS
;	COMDAT ?begin@?$list@V?$basic_string@DV?$char_traits@D@_STL@@V?$allocator@D@2@@_STL@@V?$allocator@V?$basic_string@DV?$char_traits@D@_STL@@V?$allocator@D@2@@_STL@@@2@@_STL@@QBE?AU?$_List_iterator@V?$basic_string@DV?$char_traits@D@_STL@@V?$allocator@D@2@@_STL@@U?$_Const_traits@V?$basic_string@DV?$char_traits@D@_STL@@V?$allocator@D@2@@_STL@@@2@@2@XZ
_TEXT	SEGMENT PARA USE32 PUBLIC 'CODE'
_TEXT	ENDS
;	COMDAT ??0?$_List_iterator@V?$basic_string@DV?$char_traits@D@_STL@@V?$allocator@D@2@@_STL@@U?$_Const_traits@V?$basic_string@DV?$char_traits@D@_STL@@V?$allocator@D@2@@_STL@@@2@@_STL@@QAE@PAU?$_List_node@V?$basic_string@DV?$char_traits@D@_STL@@V?$allocator@D@2@@_STL@@@1@@Z
_TEXT	SEGMENT PARA USE32 PUBLIC 'CODE'
_TEXT	ENDS
;	COMDAT ?end@?$list@V?$basic_string@DV?$char_traits@D@_STL@@V?$allocator@D@2@@_STL@@V?$allocator@V?$basic_string@DV?$char_traits@D@_STL@@V?$allocator@D@2@@_STL@@@2@@_STL@@QBE?AU?$_List_iterator@V?$basic_string@DV?$char_traits@D@_STL@@V?$allocator@D@2@@_STL@@U?$_Const_traits@V?$basic_string@DV?$char_traits@D@_STL@@V?$allocator@D@2@@_STL@@@2@@2@XZ
_TEXT	SEGMENT PARA USE32 PUBLIC 'CODE'
_TEXT	ENDS
;	COMDAT ??1?$_List_base@V?$basic_string@DV?$char_traits@D@_STL@@V?$allocator@D@2@@_STL@@V?$allocator@V?$basic_string@DV?$char_traits@D@_STL@@V?$allocator@D@2@@_STL@@@2@@_STL@@QAE@XZ
_TEXT	SEGMENT PARA USE32 PUBLIC 'CODE'
_TEXT	ENDS
;	COMDAT ??1?$_STLP_alloc_proxy@PAU?$_List_node@V?$basic_string@DV?$char_traits@D@_STL@@V?$allocator@D@2@@_STL@@@_STL@@U12@V?$allocator@U?$_List_node@V?$basic_string@DV?$char_traits@D@_STL@@V?$allocator@D@2@@_STL@@@_STL@@@2@@_STL@@QAE@XZ
_TEXT	SEGMENT PARA USE32 PUBLIC 'CODE'
_TEXT	ENDS
;	COMDAT ??1?$allocator@U?$_List_node@V?$basic_string@DV?$char_traits@D@_STL@@V?$allocator@D@2@@_STL@@@_STL@@@_STL@@QAE@XZ
_TEXT	SEGMENT PARA USE32 PUBLIC 'CODE'
_TEXT	ENDS
;	COMDAT ?clear@?$_List_base@V?$basic_string@DV?$char_traits@D@_STL@@V?$allocator@D@2@@_STL@@V?$allocator@V?$basic_string@DV?$char_traits@D@_STL@@V?$allocator@D@2@@_STL@@@2@@_STL@@QAEXXZ
_TEXT	SEGMENT PARA USE32 PUBLIC 'CODE'
_TEXT	ENDS
;	COMDAT ??1?$allocator@V?$basic_string@DV?$char_traits@D@_STL@@V?$allocator@D@2@@_STL@@@_STL@@QAE@XZ
_TEXT	SEGMENT PARA USE32 PUBLIC 'CODE'
_TEXT	ENDS
;	COMDAT ??0?$_List_base@V?$basic_string@DV?$char_traits@D@_STL@@V?$allocator@D@2@@_STL@@V?$allocator@V?$basic_string@DV?$char_traits@D@_STL@@V?$allocator@D@2@@_STL@@@2@@_STL@@QAE@ABV?$allocator@V?$basic_string@DV?$char_traits@D@_STL@@V?$allocator@D@2@@_STL@@@1@@Z
_TEXT	SEGMENT PARA USE32 PUBLIC 'CODE'
_TEXT	ENDS
;	COMDAT ??0?$_STLP_alloc_proxy@PAU?$_List_node@V?$basic_string@DV?$char_traits@D@_STL@@V?$allocator@D@2@@_STL@@@_STL@@U12@V?$allocator@U?$_List_node@V?$basic_string@DV?$char_traits@D@_STL@@V?$allocator@D@2@@_STL@@@_STL@@@2@@_STL@@QAE@ABV?$allocator@U?$_List_node@V?$basic_string@DV?$char_traits@D@_STL@@V?$allocator@D@2@@_STL@@@_STL@@@1@PAU?$_List_node@V?$basic_string@DV?$char_traits@D@_STL@@V?$allocator@D@2@@_STL@@@1@@Z
_TEXT	SEGMENT PARA USE32 PUBLIC 'CODE'
_TEXT	ENDS
;	COMDAT ??0?$allocator@U?$_List_node@V?$basic_string@DV?$char_traits@D@_STL@@V?$allocator@D@2@@_STL@@@_STL@@@_STL@@QAE@ABV01@@Z
_TEXT	SEGMENT PARA USE32 PUBLIC 'CODE'
_TEXT	ENDS
;	COMDAT ??$?0V?$basic_string@DV?$char_traits@D@_STL@@V?$allocator@D@2@@_STL@@@?$allocator@U?$_List_node@V?$basic_string@DV?$char_traits@D@_STL@@V?$allocator@D@2@@_STL@@@_STL@@@_STL@@QAE@ABV?$allocator@V?$basic_string@DV?$char_traits@D@_STL@@V?$allocator@D@2@@_STL@@@1@@Z
_TEXT	SEGMENT PARA USE32 PUBLIC 'CODE'
_TEXT	ENDS
;	COMDAT ?setp@?$basic_streambuf@DV?$char_traits@D@_STL@@@_STL@@IAEXPAD0@Z
_TEXT	SEGMENT PARA USE32 PUBLIC 'CODE'
_TEXT	ENDS
;	COMDAT ?_FILE_O_set@_STL@@YAXPAU_iobuf@@PAD11@Z
_TEXT	SEGMENT PARA USE32 PUBLIC 'CODE'
_TEXT	ENDS
;	COMDAT ?_FILE_I_set@_STL@@YAXPAU_iobuf@@PAD11@Z
_TEXT	SEGMENT PARA USE32 PUBLIC 'CODE'
_TEXT	ENDS
;	COMDAT ?setg@?$basic_streambuf@DV?$char_traits@D@_STL@@@_STL@@IAEXPAD00@Z
_TEXT	SEGMENT PARA USE32 PUBLIC 'CODE'
_TEXT	ENDS
;	COMDAT ?__is_open@_Filebuf_base@_STL@@QBE_NXZ
_TEXT	SEGMENT PARA USE32 PUBLIC 'CODE'
_TEXT	ENDS
;	COMDAT ?allocate@?$__node_alloc@$00$0A@@_STL@@SAPAXI@Z
_TEXT	SEGMENT PARA USE32 PUBLIC 'CODE'
_TEXT	ENDS
;	COMDAT ?__stl_new@_STL@@YAPAXI@Z
_TEXT	SEGMENT PARA USE32 PUBLIC 'CODE'
_TEXT	ENDS
;	COMDAT ??1?$_STLP_alloc_proxy@PADDV?$allocator@D@_STL@@@_STL@@QAE@XZ
_TEXT	SEGMENT PARA USE32 PUBLIC 'CODE'
_TEXT	ENDS
;	COMDAT ?eof@?$__char_traits_base@DH@_STL@@SAHXZ
_TEXT	SEGMENT PARA USE32 PUBLIC 'CODE'
_TEXT	ENDS
;	COMDAT ??_7UnsupportedError@@6B@
CONST	SEGMENT DWORD USE32 PUBLIC 'CONST'
CONST	ENDS
;	COMDAT ??_R4UnsupportedError@@6B@
rdata$r	SEGMENT DWORD USE32 PUBLIC 'CONST'
rdata$r	ENDS
;	COMDAT ??_R3UnsupportedError@@8
rdata$r	SEGMENT DWORD USE32 PUBLIC 'CONST'
rdata$r	ENDS
;	COMDAT ??_R2UnsupportedError@@8
rdata$r	SEGMENT DWORD USE32 PUBLIC 'CONST'
rdata$r	ENDS
;	COMDAT ??_R1A@?0A@A@UnsupportedError@@8
rdata$r	SEGMENT DWORD USE32 PUBLIC 'CONST'
rdata$r	ENDS
;	COMDAT ??_R1A@?0A@A@Error@@8
rdata$r	SEGMENT DWORD USE32 PUBLIC 'CONST'
rdata$r	ENDS
;	COMDAT ??_R1A@?0A@A@Throwable@@8
rdata$r	SEGMENT DWORD USE32 PUBLIC 'CONST'
rdata$r	ENDS
;	COMDAT ??_GUnsupportedError@@UAEPAXI@Z
_TEXT	SEGMENT PARA USE32 PUBLIC 'CODE'
_TEXT	ENDS
;	COMDAT ?getName@UnsupportedError@@UBE?AV?$basic_string@DV?$char_traits@D@_STL@@V?$allocator@D@2@@_STL@@XZ
_TEXT	SEGMENT PARA USE32 PUBLIC 'CODE'
_TEXT	ENDS
;	COMDAT ??_C@_0BB@EOCHEBED@UnsupportedError?$AA@
CONST	SEGMENT DWORD USE32 PUBLIC 'CONST'
CONST	ENDS
;	COMDAT ?toString@Throwable@@UBE?AV?$basic_string@DV?$char_traits@D@_STL@@V?$allocator@D@2@@_STL@@XZ
_TEXT	SEGMENT PARA USE32 PUBLIC 'CODE'
_TEXT	ENDS
;	COMDAT ??_C@_03MCPBMLDJ@?5?3?5?$AA@
CONST	SEGMENT DWORD USE32 PUBLIC 'CONST'
CONST	ENDS
;	COMDAT ?getStackTrace@Throwable@@QBE?AV?$basic_string@DV?$char_traits@D@_STL@@V?$allocator@D@2@@_STL@@XZ
_TEXT	SEGMENT PARA USE32 PUBLIC 'CODE'
_TEXT	ENDS
;	COMDAT ??E?$_List_iterator@V?$basic_string@DV?$char_traits@D@_STL@@V?$allocator@D@2@@_STL@@U?$_Const_traits@V?$basic_string@DV?$char_traits@D@_STL@@V?$allocator@D@2@@_STL@@@2@@_STL@@QAE?AU01@H@Z
_TEXT	SEGMENT PARA USE32 PUBLIC 'CODE'
_TEXT	ENDS
;	COMDAT ??_C@_01CLKCMJKC@?5?$AA@
CONST	SEGMENT DWORD USE32 PUBLIC 'CONST'
CONST	ENDS
;	COMDAT __CTA3?AVUnsupportedError@@
xdata$x	SEGMENT DWORD USE32 PUBLIC 'CONST'
xdata$x	ENDS
;	COMDAT ??1UnsupportedError@@UAE@XZ
_TEXT	SEGMENT PARA USE32 PUBLIC 'CODE'
_TEXT	ENDS
;	COMDAT __CT??_R0?AVUnsupportedError@@@8??0UnsupportedError@@QAE@ABV0@@Z20
xdata$x	SEGMENT DWORD USE32 PUBLIC 'CONST'
xdata$x	ENDS
;	COMDAT ??_R0?AVUnsupportedError@@@8
_DATA	SEGMENT DWORD USE32 PUBLIC 'DATA'
_DATA	ENDS
;	COMDAT __TI3?AVUnsupportedError@@
xdata$x	SEGMENT DWORD USE32 PUBLIC 'CONST'
xdata$x	ENDS
;	COMDAT ??0UnsupportedError@@QAE@XZ
_TEXT	SEGMENT PARA USE32 PUBLIC 'CODE'
_TEXT	ENDS
;	COMDAT ??0Error@@QAE@XZ
_TEXT	SEGMENT PARA USE32 PUBLIC 'CODE'
_TEXT	ENDS
;	COMDAT ??0Throwable@@QAE@XZ
_TEXT	SEGMENT PARA USE32 PUBLIC 'CODE'
_TEXT	ENDS
;	COMDAT ??0?$basic_string@DV?$char_traits@D@_STL@@V?$allocator@D@2@@_STL@@QAE@XZ
_TEXT	SEGMENT PARA USE32 PUBLIC 'CODE'
_TEXT	ENDS
;	COMDAT ??1?$_String_base@DV?$allocator@D@_STL@@@_STL@@QAE@XZ
_TEXT	SEGMENT PARA USE32 PUBLIC 'CODE'
_TEXT	ENDS
;	COMDAT ??0?$list@V?$basic_string@DV?$char_traits@D@_STL@@V?$allocator@D@2@@_STL@@V?$allocator@V?$basic_string@DV?$char_traits@D@_STL@@V?$allocator@D@2@@_STL@@@2@@_STL@@QAE@ABV?$allocator@V?$basic_string@DV?$char_traits@D@_STL@@V?$allocator@D@2@@_STL@@@1@@Z
_TEXT	SEGMENT PARA USE32 PUBLIC 'CODE'
_TEXT	ENDS
;	COMDAT ??0?$allocator@V?$basic_string@DV?$char_traits@D@_STL@@V?$allocator@D@2@@_STL@@@_STL@@QAE@XZ
_TEXT	SEGMENT PARA USE32 PUBLIC 'CODE'
_TEXT	ENDS
;	COMDAT ??_7FileNotOpenedException@@6B@
CONST	SEGMENT DWORD USE32 PUBLIC 'CONST'
CONST	ENDS
;	COMDAT ??_R4FileNotOpenedException@@6B@
rdata$r	SEGMENT DWORD USE32 PUBLIC 'CONST'
rdata$r	ENDS
;	COMDAT ??_R3FileNotOpenedException@@8
rdata$r	SEGMENT DWORD USE32 PUBLIC 'CONST'
rdata$r	ENDS
;	COMDAT ??_R2FileNotOpenedException@@8
rdata$r	SEGMENT DWORD USE32 PUBLIC 'CONST'
rdata$r	ENDS
;	COMDAT ??_R1A@?0A@A@FileNotOpenedException@@8
rdata$r	SEGMENT DWORD USE32 PUBLIC 'CONST'
rdata$r	ENDS
;	COMDAT ??_R1A@?0A@A@IOException@@8
rdata$r	SEGMENT DWORD USE32 PUBLIC 'CONST'
rdata$r	ENDS
;	COMDAT ??_R1A@?0A@A@Exception@@8
rdata$r	SEGMENT DWORD USE32 PUBLIC 'CONST'
rdata$r	ENDS
;	COMDAT ??_GFileNotOpenedException@@UAEPAXI@Z
_TEXT	SEGMENT PARA USE32 PUBLIC 'CODE'
_TEXT	ENDS
;	COMDAT ?getName@FileNotOpenedException@@UBE?AV?$basic_string@DV?$char_traits@D@_STL@@V?$allocator@D@2@@_STL@@XZ
_TEXT	SEGMENT PARA USE32 PUBLIC 'CODE'
_TEXT	ENDS
;	COMDAT ??_C@_0BH@EBMCKLMN@FileNotOpenedException?$AA@
CONST	SEGMENT DWORD USE32 PUBLIC 'CONST'
CONST	ENDS
;	COMDAT __CTA4?AVFileNotOpenedException@@
xdata$x	SEGMENT DWORD USE32 PUBLIC 'CONST'
xdata$x	ENDS
;	COMDAT __CT??_R0?AVFileNotOpenedException@@@8??0FileNotOpenedException@@QAE@ABV0@@Z20
xdata$x	SEGMENT DWORD USE32 PUBLIC 'CONST'
xdata$x	ENDS
;	COMDAT ??_R0?AVFileNotOpenedException@@@8
_DATA	SEGMENT DWORD USE32 PUBLIC 'DATA'
_DATA	ENDS
;	COMDAT __TI4?AVFileNotOpenedException@@
xdata$x	SEGMENT DWORD USE32 PUBLIC 'CONST'
xdata$x	ENDS
;	COMDAT ??1FileNotOpenedException@@UAE@XZ
_TEXT	SEGMENT PARA USE32 PUBLIC 'CODE'
_TEXT	ENDS
;	COMDAT ??0FileNotOpenedException@@QAE@V?$basic_string@DV?$char_traits@D@_STL@@V?$allocator@D@2@@_STL@@@Z
_TEXT	SEGMENT PARA USE32 PUBLIC 'CODE'
_TEXT	ENDS
;	COMDAT ??0IOException@@QAE@V?$basic_string@DV?$char_traits@D@_STL@@V?$allocator@D@2@@_STL@@@Z
_TEXT	SEGMENT PARA USE32 PUBLIC 'CODE'
_TEXT	ENDS
;	COMDAT ??0Exception@@QAE@V?$basic_string@DV?$char_traits@D@_STL@@V?$allocator@D@2@@_STL@@@Z
_TEXT	SEGMENT PARA USE32 PUBLIC 'CODE'
_TEXT	ENDS
;	COMDAT ??0Throwable@@QAE@V?$basic_string@DV?$char_traits@D@_STL@@V?$allocator@D@2@@_STL@@@Z
_TEXT	SEGMENT PARA USE32 PUBLIC 'CODE'
_TEXT	ENDS
;	COMDAT ??_7NonBlockingIOException@@6B@
CONST	SEGMENT DWORD USE32 PUBLIC 'CONST'
CONST	ENDS
;	COMDAT ??_R4NonBlockingIOException@@6B@
rdata$r	SEGMENT DWORD USE32 PUBLIC 'CONST'
rdata$r	ENDS
;	COMDAT ??_R3NonBlockingIOException@@8
rdata$r	SEGMENT DWORD USE32 PUBLIC 'CONST'
rdata$r	ENDS
;	COMDAT ??_R2NonBlockingIOException@@8
rdata$r	SEGMENT DWORD USE32 PUBLIC 'CONST'
rdata$r	ENDS
;	COMDAT ??_R1A@?0A@A@NonBlockingIOException@@8
rdata$r	SEGMENT DWORD USE32 PUBLIC 'CONST'
rdata$r	ENDS
;	COMDAT ??_GNonBlockingIOException@@UAEPAXI@Z
_TEXT	SEGMENT PARA USE32 PUBLIC 'CODE'
_TEXT	ENDS
;	COMDAT ?getName@NonBlockingIOException@@UBE?AV?$basic_string@DV?$char_traits@D@_STL@@V?$allocator@D@2@@_STL@@XZ
_TEXT	SEGMENT PARA USE32 PUBLIC 'CODE'
_TEXT	ENDS
;	COMDAT ??_C@_0BH@MIDAMAGI@NonBlockingIOException?$AA@
CONST	SEGMENT DWORD USE32 PUBLIC 'CONST'
CONST	ENDS
;	COMDAT __CTA4?AVNonBlockingIOException@@
xdata$x	SEGMENT DWORD USE32 PUBLIC 'CONST'
xdata$x	ENDS
;	COMDAT __CT??_R0?AVNonBlockingIOException@@@8??0NonBlockingIOException@@QAE@ABV0@@Z20
xdata$x	SEGMENT DWORD USE32 PUBLIC 'CONST'
xdata$x	ENDS
;	COMDAT ??_R0?AVNonBlockingIOException@@@8
_DATA	SEGMENT DWORD USE32 PUBLIC 'DATA'
_DATA	ENDS
;	COMDAT __TI4?AVNonBlockingIOException@@
xdata$x	SEGMENT DWORD USE32 PUBLIC 'CONST'
xdata$x	ENDS
;	COMDAT ??1NonBlockingIOException@@UAE@XZ
_TEXT	SEGMENT PARA USE32 PUBLIC 'CODE'
_TEXT	ENDS
;	COMDAT ??0NonBlockingIOException@@QAE@V?$basic_string@DV?$char_traits@D@_STL@@V?$allocator@D@2@@_STL@@@Z
_TEXT	SEGMENT PARA USE32 PUBLIC 'CODE'
_TEXT	ENDS
;	COMDAT ??_7ConnectException@@6B@
CONST	SEGMENT DWORD USE32 PUBLIC 'CONST'
CONST	ENDS
;	COMDAT ??_R4ConnectException@@6B@
rdata$r	SEGMENT DWORD USE32 PUBLIC 'CONST'
rdata$r	ENDS
;	COMDAT ??_R3ConnectException@@8
rdata$r	SEGMENT DWORD USE32 PUBLIC 'CONST'
rdata$r	ENDS
;	COMDAT ??_R2ConnectException@@8
rdata$r	SEGMENT DWORD USE32 PUBLIC 'CONST'
rdata$r	ENDS
;	COMDAT ??_R1A@?0A@A@ConnectException@@8
rdata$r	SEGMENT DWORD USE32 PUBLIC 'CONST'
rdata$r	ENDS
;	COMDAT ??_R1A@?0A@A@SocketException@@8
rdata$r	SEGMENT DWORD USE32 PUBLIC 'CONST'
rdata$r	ENDS
;	COMDAT ??_GConnectException@@UAEPAXI@Z
_TEXT	SEGMENT PARA USE32 PUBLIC 'CODE'
_TEXT	ENDS
;	COMDAT ?getName@ConnectException@@UBE?AV?$basic_string@DV?$char_traits@D@_STL@@V?$allocator@D@2@@_STL@@XZ
_TEXT	SEGMENT PARA USE32 PUBLIC 'CODE'
_TEXT	ENDS
;	COMDAT ??_C@_0BB@CICOPLDE@ConnectException?$AA@
CONST	SEGMENT DWORD USE32 PUBLIC 'CONST'
CONST	ENDS
;	COMDAT __CTA5?AVConnectException@@
xdata$x	SEGMENT DWORD USE32 PUBLIC 'CONST'
xdata$x	ENDS
;	COMDAT __CT??_R0?AVConnectException@@@8??0ConnectException@@QAE@ABV0@@Z20
xdata$x	SEGMENT DWORD USE32 PUBLIC 'CONST'
xdata$x	ENDS
;	COMDAT ??_R0?AVConnectException@@@8
_DATA	SEGMENT DWORD USE32 PUBLIC 'DATA'
_DATA	ENDS
;	COMDAT __TI5?AVConnectException@@
xdata$x	SEGMENT DWORD USE32 PUBLIC 'CONST'
xdata$x	ENDS
;	COMDAT ??1ConnectException@@UAE@XZ
_TEXT	SEGMENT PARA USE32 PUBLIC 'CODE'
_TEXT	ENDS
;	COMDAT ??0ConnectException@@QAE@V?$basic_string@DV?$char_traits@D@_STL@@V?$allocator@D@2@@_STL@@@Z
_TEXT	SEGMENT PARA USE32 PUBLIC 'CODE'
_TEXT	ENDS
;	COMDAT ??0SocketException@@QAE@V?$basic_string@DV?$char_traits@D@_STL@@V?$allocator@D@2@@_STL@@@Z
_TEXT	SEGMENT PARA USE32 PUBLIC 'CODE'
_TEXT	ENDS
;	COMDAT ??_7Exception@@6B@
CONST	SEGMENT DWORD USE32 PUBLIC 'CONST'
CONST	ENDS
;	COMDAT ??_R4Exception@@6B@
rdata$r	SEGMENT DWORD USE32 PUBLIC 'CONST'
rdata$r	ENDS
;	COMDAT ??_R3Exception@@8
rdata$r	SEGMENT DWORD USE32 PUBLIC 'CONST'
rdata$r	ENDS
;	COMDAT ??_R2Exception@@8
rdata$r	SEGMENT DWORD USE32 PUBLIC 'CONST'
rdata$r	ENDS
;	COMDAT ??_GException@@UAEPAXI@Z
_TEXT	SEGMENT PARA USE32 PUBLIC 'CODE'
_TEXT	ENDS
;	COMDAT ?getName@Exception@@UBE?AV?$basic_string@DV?$char_traits@D@_STL@@V?$allocator@D@2@@_STL@@XZ
_TEXT	SEGMENT PARA USE32 PUBLIC 'CODE'
_TEXT	ENDS
;	COMDAT ??_C@_09FBNMMHMJ@Exception?$AA@
CONST	SEGMENT DWORD USE32 PUBLIC 'CONST'
CONST	ENDS
;	COMDAT ??_7IOException@@6B@
CONST	SEGMENT DWORD USE32 PUBLIC 'CONST'
CONST	ENDS
;	COMDAT ??_R4IOException@@6B@
rdata$r	SEGMENT DWORD USE32 PUBLIC 'CONST'
rdata$r	ENDS
;	COMDAT ??_R3IOException@@8
rdata$r	SEGMENT DWORD USE32 PUBLIC 'CONST'
rdata$r	ENDS
;	COMDAT ??_R2IOException@@8
rdata$r	SEGMENT DWORD USE32 PUBLIC 'CONST'
rdata$r	ENDS
;	COMDAT ??_GIOException@@UAEPAXI@Z
_TEXT	SEGMENT PARA USE32 PUBLIC 'CODE'
_TEXT	ENDS
;	COMDAT ?getName@IOException@@UBE?AV?$basic_string@DV?$char_traits@D@_STL@@V?$allocator@D@2@@_STL@@XZ
_TEXT	SEGMENT PARA USE32 PUBLIC 'CODE'
_TEXT	ENDS
;	COMDAT ??_C@_0M@CBPJAJJI@IOException?$AA@
CONST	SEGMENT DWORD USE32 PUBLIC 'CONST'
CONST	ENDS
;	COMDAT ??1Exception@@UAE@XZ
_TEXT	SEGMENT PARA USE32 PUBLIC 'CODE'
_TEXT	ENDS
;	COMDAT ??_7SocketException@@6B@
CONST	SEGMENT DWORD USE32 PUBLIC 'CONST'
CONST	ENDS
;	COMDAT ??_R4SocketException@@6B@
rdata$r	SEGMENT DWORD USE32 PUBLIC 'CONST'
rdata$r	ENDS
;	COMDAT ??_R3SocketException@@8
rdata$r	SEGMENT DWORD USE32 PUBLIC 'CONST'
rdata$r	ENDS
;	COMDAT ??_R2SocketException@@8
rdata$r	SEGMENT DWORD USE32 PUBLIC 'CONST'
rdata$r	ENDS
;	COMDAT ??_GSocketException@@UAEPAXI@Z
_TEXT	SEGMENT PARA USE32 PUBLIC 'CODE'
_TEXT	ENDS
;	COMDAT ?getName@SocketException@@UBE?AV?$basic_string@DV?$char_traits@D@_STL@@V?$allocator@D@2@@_STL@@XZ
_TEXT	SEGMENT PARA USE32 PUBLIC 'CODE'
_TEXT	ENDS
;	COMDAT ??_C@_0BA@EOEGOLGE@SocketException?$AA@
CONST	SEGMENT DWORD USE32 PUBLIC 'CONST'
CONST	ENDS
;	COMDAT ??1IOException@@UAE@XZ
_TEXT	SEGMENT PARA USE32 PUBLIC 'CODE'
_TEXT	ENDS
;	COMDAT ??_7BindException@@6B@
CONST	SEGMENT DWORD USE32 PUBLIC 'CONST'
CONST	ENDS
;	COMDAT ??_R4BindException@@6B@
rdata$r	SEGMENT DWORD USE32 PUBLIC 'CONST'
rdata$r	ENDS
;	COMDAT ??_R3BindException@@8
rdata$r	SEGMENT DWORD USE32 PUBLIC 'CONST'
rdata$r	ENDS
;	COMDAT ??_R2BindException@@8
rdata$r	SEGMENT DWORD USE32 PUBLIC 'CONST'
rdata$r	ENDS
;	COMDAT ??_R1A@?0A@A@BindException@@8
rdata$r	SEGMENT DWORD USE32 PUBLIC 'CONST'
rdata$r	ENDS
;	COMDAT ??_GBindException@@UAEPAXI@Z
_TEXT	SEGMENT PARA USE32 PUBLIC 'CODE'
_TEXT	ENDS
;	COMDAT ?getName@BindException@@UBE?AV?$basic_string@DV?$char_traits@D@_STL@@V?$allocator@D@2@@_STL@@XZ
_TEXT	SEGMENT PARA USE32 PUBLIC 'CODE'
_TEXT	ENDS
;	COMDAT ??_C@_0O@GLDCGPDO@BindException?$AA@
CONST	SEGMENT DWORD USE32 PUBLIC 'CONST'
CONST	ENDS
;	COMDAT ??1SocketException@@UAE@XZ
_TEXT	SEGMENT PARA USE32 PUBLIC 'CODE'
_TEXT	ENDS
;	COMDAT __CTA5?AVBindException@@
xdata$x	SEGMENT DWORD USE32 PUBLIC 'CONST'
xdata$x	ENDS
;	COMDAT __CT??_R0?AVException@@@8??0Exception@@QAE@ABV0@@Z20
xdata$x	SEGMENT DWORD USE32 PUBLIC 'CONST'
xdata$x	ENDS
;	COMDAT __CT??_R0?AVIOException@@@8??0IOException@@QAE@ABV0@@Z20
xdata$x	SEGMENT DWORD USE32 PUBLIC 'CONST'
xdata$x	ENDS
;	COMDAT __CT??_R0?AVSocketException@@@8??0SocketException@@QAE@ABV0@@Z20
xdata$x	SEGMENT DWORD USE32 PUBLIC 'CONST'
xdata$x	ENDS
;	COMDAT __CT??_R0?AVBindException@@@8??0BindException@@QAE@ABV0@@Z20
xdata$x	SEGMENT DWORD USE32 PUBLIC 'CONST'
xdata$x	ENDS
;	COMDAT ??_R0?AVException@@@8
_DATA	SEGMENT DWORD USE32 PUBLIC 'DATA'
_DATA	ENDS
;	COMDAT ??_R0?AVIOException@@@8
_DATA	SEGMENT DWORD USE32 PUBLIC 'DATA'
_DATA	ENDS
;	COMDAT ??_R0?AVSocketException@@@8
_DATA	SEGMENT DWORD USE32 PUBLIC 'DATA'
_DATA	ENDS
;	COMDAT ??_R0?AVBindException@@@8
_DATA	SEGMENT DWORD USE32 PUBLIC 'DATA'
_DATA	ENDS
;	COMDAT __TI5?AVBindException@@
xdata$x	SEGMENT DWORD USE32 PUBLIC 'CONST'
xdata$x	ENDS
;	COMDAT ??1BindException@@UAE@XZ
_TEXT	SEGMENT PARA USE32 PUBLIC 'CODE'
_TEXT	ENDS
;	COMDAT ??0BindException@@QAE@V?$basic_string@DV?$char_traits@D@_STL@@V?$allocator@D@2@@_STL@@@Z
_TEXT	SEGMENT PARA USE32 PUBLIC 'CODE'
_TEXT	ENDS
;	COMDAT ??_7UnknownError@@6B@
CONST	SEGMENT DWORD USE32 PUBLIC 'CONST'
CONST	ENDS
;	COMDAT ??_R4UnknownError@@6B@
rdata$r	SEGMENT DWORD USE32 PUBLIC 'CONST'
rdata$r	ENDS
;	COMDAT ??_R3UnknownError@@8
rdata$r	SEGMENT DWORD USE32 PUBLIC 'CONST'
rdata$r	ENDS
;	COMDAT ??_R2UnknownError@@8
rdata$r	SEGMENT DWORD USE32 PUBLIC 'CONST'
rdata$r	ENDS
;	COMDAT ??_R1A@?0A@A@UnknownError@@8
rdata$r	SEGMENT DWORD USE32 PUBLIC 'CONST'
rdata$r	ENDS
;	COMDAT ??_GUnknownError@@UAEPAXI@Z
_TEXT	SEGMENT PARA USE32 PUBLIC 'CODE'
_TEXT	ENDS
;	COMDAT ?getName@UnknownError@@UBE?AV?$basic_string@DV?$char_traits@D@_STL@@V?$allocator@D@2@@_STL@@XZ
_TEXT	SEGMENT PARA USE32 PUBLIC 'CODE'
_TEXT	ENDS
;	COMDAT ??_C@_0N@CEGDJBPM@UnknownError?$AA@
CONST	SEGMENT DWORD USE32 PUBLIC 'CONST'
CONST	ENDS
;	COMDAT ?toString@UnknownError@@UBE?AV?$basic_string@DV?$char_traits@D@_STL@@V?$allocator@D@2@@_STL@@XZ
_TEXT	SEGMENT PARA USE32 PUBLIC 'CODE'
_TEXT	ENDS
;	COMDAT ?getMessage@Throwable@@QBE?AV?$basic_string@DV?$char_traits@D@_STL@@V?$allocator@D@2@@_STL@@XZ
_TEXT	SEGMENT PARA USE32 PUBLIC 'CODE'
_TEXT	ENDS
;	COMDAT ??_C@_03NNFDLMCH@?5?$CI?5?$AA@
CONST	SEGMENT DWORD USE32 PUBLIC 'CONST'
CONST	ENDS
;	COMDAT ?getErrorCode@UnknownError@@QBEIXZ
_TEXT	SEGMENT PARA USE32 PUBLIC 'CODE'
_TEXT	ENDS
;	COMDAT ??_C@_04OHIEGJDI@?5?$CJ?5?6?$AA@
CONST	SEGMENT DWORD USE32 PUBLIC 'CONST'
CONST	ENDS
;	COMDAT ??1?$list@V?$basic_string@DV?$char_traits@D@_STL@@V?$allocator@D@2@@_STL@@V?$allocator@V?$basic_string@DV?$char_traits@D@_STL@@V?$allocator@D@2@@_STL@@@2@@_STL@@QAE@XZ
_TEXT	SEGMENT PARA USE32 PUBLIC 'CODE'
_TEXT	ENDS
;	COMDAT ??0?$basic_string@DV?$char_traits@D@_STL@@V?$allocator@D@2@@_STL@@QAE@ABV01@@Z
_TEXT	SEGMENT PARA USE32 PUBLIC 'CODE'
_TEXT	ENDS
;	COMDAT ??_7Throwable@@6B@
CONST	SEGMENT DWORD USE32 PUBLIC 'CONST'
CONST	ENDS
;	COMDAT ??_R4Throwable@@6B@
rdata$r	SEGMENT DWORD USE32 PUBLIC 'CONST'
rdata$r	ENDS
;	COMDAT ??_R3Throwable@@8
rdata$r	SEGMENT DWORD USE32 PUBLIC 'CONST'
rdata$r	ENDS
;	COMDAT ??_R2Throwable@@8
rdata$r	SEGMENT DWORD USE32 PUBLIC 'CONST'
rdata$r	ENDS
;	COMDAT ??_GThrowable@@UAEPAXI@Z
_TEXT	SEGMENT PARA USE32 PUBLIC 'CODE'
_TEXT	ENDS
;	COMDAT ?getName@Throwable@@UBE?AV?$basic_string@DV?$char_traits@D@_STL@@V?$allocator@D@2@@_STL@@XZ
_TEXT	SEGMENT PARA USE32 PUBLIC 'CODE'
_TEXT	ENDS
;	COMDAT ??_C@_09KCKHMJEM@Throwable?$AA@
CONST	SEGMENT DWORD USE32 PUBLIC 'CONST'
CONST	ENDS
;	COMDAT ??_7Error@@6B@
CONST	SEGMENT DWORD USE32 PUBLIC 'CONST'
CONST	ENDS
;	COMDAT ??_R4Error@@6B@
rdata$r	SEGMENT DWORD USE32 PUBLIC 'CONST'
rdata$r	ENDS
;	COMDAT ??_R3Error@@8
rdata$r	SEGMENT DWORD USE32 PUBLIC 'CONST'
rdata$r	ENDS
;	COMDAT ??_R2Error@@8
rdata$r	SEGMENT DWORD USE32 PUBLIC 'CONST'
rdata$r	ENDS
;	COMDAT ??_GError@@UAEPAXI@Z
_TEXT	SEGMENT PARA USE32 PUBLIC 'CODE'
_TEXT	ENDS
;	COMDAT ?getName@Error@@UBE?AV?$basic_string@DV?$char_traits@D@_STL@@V?$allocator@D@2@@_STL@@XZ
_TEXT	SEGMENT PARA USE32 PUBLIC 'CODE'
_TEXT	ENDS
;	COMDAT ??_C@_05NAOIJFC@Error?$AA@
CONST	SEGMENT DWORD USE32 PUBLIC 'CONST'
CONST	ENDS
;	COMDAT ??1Throwable@@UAE@XZ
_TEXT	SEGMENT PARA USE32 PUBLIC 'CODE'
_TEXT	ENDS
;	COMDAT __CTA3?AVUnknownError@@
xdata$x	SEGMENT DWORD USE32 PUBLIC 'CONST'
xdata$x	ENDS
;	COMDAT ??1UnknownError@@UAE@XZ
_TEXT	SEGMENT PARA USE32 PUBLIC 'CODE'
_TEXT	ENDS
;	COMDAT __CTA2?AVError@@
xdata$x	SEGMENT DWORD USE32 PUBLIC 'CONST'
xdata$x	ENDS
;	COMDAT ??1Error@@UAE@XZ
_TEXT	SEGMENT PARA USE32 PUBLIC 'CODE'
_TEXT	ENDS
;	COMDAT __CT??_R0?AVUnknownError@@@8??0UnknownError@@QAE@ABV0@@Z24
xdata$x	SEGMENT DWORD USE32 PUBLIC 'CONST'
xdata$x	ENDS
;	COMDAT __CT??_R0?AVThrowable@@@8??0Throwable@@QAE@ABV0@@Z20
xdata$x	SEGMENT DWORD USE32 PUBLIC 'CONST'
xdata$x	ENDS
;	COMDAT __CT??_R0?AVError@@@8??0Error@@QAE@ABV0@@Z20
xdata$x	SEGMENT DWORD USE32 PUBLIC 'CONST'
xdata$x	ENDS
;	COMDAT ??_R0?AVUnknownError@@@8
_DATA	SEGMENT DWORD USE32 PUBLIC 'DATA'
_DATA	ENDS
;	COMDAT ??_R0?AVThrowable@@@8
_DATA	SEGMENT DWORD USE32 PUBLIC 'DATA'
_DATA	ENDS
;	COMDAT ??_R0?AVError@@@8
_DATA	SEGMENT DWORD USE32 PUBLIC 'DATA'
_DATA	ENDS
;	COMDAT __TI3?AVUnknownError@@
xdata$x	SEGMENT DWORD USE32 PUBLIC 'CONST'
xdata$x	ENDS
;	COMDAT ??0UnknownError@@QAE@ABV?$basic_string@DV?$char_traits@D@_STL@@V?$allocator@D@2@@_STL@@@Z
_TEXT	SEGMENT PARA USE32 PUBLIC 'CODE'
_TEXT	ENDS
;	COMDAT __TI2?AVError@@
xdata$x	SEGMENT DWORD USE32 PUBLIC 'CONST'
xdata$x	ENDS
;	COMDAT ??1?$basic_string@DV?$char_traits@D@_STL@@V?$allocator@D@2@@_STL@@QAE@XZ
_TEXT	SEGMENT PARA USE32 PUBLIC 'CODE'
_TEXT	ENDS
;	COMDAT ??1?$allocator@D@_STL@@QAE@XZ
_TEXT	SEGMENT PARA USE32 PUBLIC 'CODE'
_TEXT	ENDS
;	COMDAT ??0?$allocator@D@_STL@@QAE@XZ
_TEXT	SEGMENT PARA USE32 PUBLIC 'CODE'
_TEXT	ENDS
;	COMDAT ??0?$basic_string@DV?$char_traits@D@_STL@@V?$allocator@D@2@@_STL@@QAE@PBDABV?$allocator@D@1@@Z
_TEXT	SEGMENT PARA USE32 PUBLIC 'CODE'
_TEXT	ENDS
;	COMDAT ?length@?$char_traits@D@_STL@@SAIPBD@Z
_TEXT	SEGMENT PARA USE32 PUBLIC 'CODE'
_TEXT	ENDS
;	COMDAT ??0Error@@QAE@ABV?$basic_string@DV?$char_traits@D@_STL@@V?$allocator@D@2@@_STL@@@Z
_TEXT	SEGMENT PARA USE32 PUBLIC 'CODE'
_TEXT	ENDS
sxdata	SEGMENT DWORD USE32 'SXDATA'
sxdata	ENDS
FLAT	GROUP _DATA, CONST, _BSS
	ASSUME	CS: FLAT, DS: FLAT, SS: FLAT
endif

INCLUDELIB LIBCMT
INCLUDELIB OLDNAMES

PUBLIC	??2@YAPAXIPAX@Z					; operator new
; Function compile flags: /Ogsy
; File c:\program files\microsoft visual studio .net 2003\vc7\include\new
;	COMDAT ??2@YAPAXIPAX@Z
_TEXT	SEGMENT
___formal$ = 8						; size = 4
__Where$ = 12						; size = 4
??2@YAPAXIPAX@Z PROC NEAR				; operator new, COMDAT

; 64   : 	return (_Where);

  00000	8b 44 24 08	 mov	 eax, DWORD PTR __Where$[esp-4]

; 65   : 	}

  00004	c3		 ret	 0
??2@YAPAXIPAX@Z ENDP					; operator new
_TEXT	ENDS
PUBLIC	??3@YAXPAX0@Z					; operator delete
; Function compile flags: /Ogsy
;	COMDAT ??3@YAXPAX0@Z
_TEXT	SEGMENT
___formal$ = 8						; size = 4
___formal$ = 12						; size = 4
??3@YAXPAX0@Z PROC NEAR					; operator delete, COMDAT

; 69   : 	}

  00000	c3		 ret	 0
??3@YAXPAX0@Z ENDP					; operator delete
_TEXT	ENDS
PUBLIC	?__stl_new@_STL@@YAPAXI@Z			; _STL::__stl_new
EXTRN	??2@YAPAXI@Z:NEAR				; operator new
; Function compile flags: /Ogsy
; File c:\stlport-4.6.1\stlport\stl\_new.h
;	COMDAT ?__stl_new@_STL@@YAPAXI@Z
_TEXT	SEGMENT
___n$ = 8						; size = 4
?__stl_new@_STL@@YAPAXI@Z PROC NEAR			; _STL::__stl_new, COMDAT

; 86   : inline void*  _STLP_CALL __stl_new(size_t __n)   { _STLP_CHECK_NULL_ALLOC(::operator _STLP_NEW(__n)); }

  00000	e9 00 00 00 00	 jmp	 ??2@YAPAXI@Z		; operator new
?__stl_new@_STL@@YAPAXI@Z ENDP				; _STL::__stl_new
_TEXT	ENDS
PUBLIC	?__stl_delete@_STL@@YAXPAX@Z			; _STL::__stl_delete
EXTRN	??3@YAXPAX@Z:NEAR				; operator delete
; Function compile flags: /Ogsy
;	COMDAT ?__stl_delete@_STL@@YAXPAX@Z
_TEXT	SEGMENT
___p$ = 8						; size = 4
?__stl_delete@_STL@@YAXPAX@Z PROC NEAR			; _STL::__stl_delete, COMDAT

; 87   : inline void   _STLP_CALL __stl_delete(void* __p) { ::operator delete(__p); }

  00000	e9 00 00 00 00	 jmp	 ??3@YAXPAX@Z		; operator delete
?__stl_delete@_STL@@YAXPAX@Z ENDP			; _STL::__stl_delete
_TEXT	ENDS
PUBLIC	?_Destroy@_STL@@YAXPAD0@Z			; _STL::_Destroy
; Function compile flags: /Ogsy
; File c:\stlport-4.6.1\stlport\stl\_construct.h
;	COMDAT ?_Destroy@_STL@@YAXPAD0@Z
_TEXT	SEGMENT
___formal$ = 8						; size = 4
___formal$ = 12						; size = 4
?_Destroy@_STL@@YAXPAD0@Z PROC NEAR			; _STL::_Destroy, COMDAT

; 142  : inline void _Destroy(char*, char*) {}

  00000	c3		 ret	 0
?_Destroy@_STL@@YAXPAD0@Z ENDP				; _STL::_Destroy
_TEXT	ENDS
PUBLIC	?__copy_trivial@_STL@@YAPAXPBX0PAX@Z		; _STL::__copy_trivial
EXTRN	_memmove:NEAR
; Function compile flags: /Ogsy
; File c:\stlport-4.6.1\stlport\stl\_algobase.h
;	COMDAT ?__copy_trivial@_STL@@YAPAXPBX0PAX@Z
_TEXT	SEGMENT
___first$ = 8						; size = 4
___last$ = 12						; size = 4
___result$ = 16						; size = 4
?__copy_trivial@_STL@@YAPAXPBX0PAX@Z PROC NEAR		; _STL::__copy_trivial, COMDAT

; 147  : __copy_trivial(const void* __first, const void* __last, void* __result) {

  00000	55		 push	 ebp
  00001	8b ec		 mov	 ebp, esp
  00003	56		 push	 esi

; 148  :   return (__last == __first) ? __result : 
; 149  :     ((char*)memmove(__result, __first, ((const char*)__last - (const char*)__first))) + 
; 150  :     ((const char*)__last - (const char*)__first);

  00004	8b 75 0c	 mov	 esi, DWORD PTR ___last$[ebp]
  00007	3b 75 08	 cmp	 esi, DWORD PTR ___first$[ebp]
  0000a	75 05		 jne	 SHORT $L101557
  0000c	8b 45 10	 mov	 eax, DWORD PTR ___result$[ebp]
  0000f	eb 14		 jmp	 SHORT $L101558
$L101557:
  00011	2b 75 08	 sub	 esi, DWORD PTR ___first$[ebp]
  00014	56		 push	 esi
  00015	ff 75 08	 push	 DWORD PTR ___first$[ebp]
  00018	ff 75 10	 push	 DWORD PTR ___result$[ebp]
  0001b	e8 00 00 00 00	 call	 _memmove
  00020	83 c4 0c	 add	 esp, 12			; 0000000cH
  00023	03 c6		 add	 eax, esi
$L101558:
  00025	5e		 pop	 esi

; 151  : }

  00026	5d		 pop	 ebp
  00027	c3		 ret	 0
?__copy_trivial@_STL@@YAPAXPBX0PAX@Z ENDP		; _STL::__copy_trivial
_TEXT	ENDS
PUBLIC	?uninitialized_copy@_STL@@YAPADPBD0PAD@Z	; _STL::uninitialized_copy
; Function compile flags: /Ogsy
; File c:\stlport-4.6.1\stlport\stl\_uninitialized.h
;	COMDAT ?uninitialized_copy@_STL@@YAPADPBD0PAD@Z
_TEXT	SEGMENT
___first$ = 8						; size = 4
___last$ = 12						; size = 4
___result$ = 16						; size = 4
?uninitialized_copy@_STL@@YAPADPBD0PAD@Z PROC NEAR	; _STL::uninitialized_copy, COMDAT

; 84   :   return  (char*)__copy_trivial (__first, __last, __result);

  00000	e9 00 00 00 00	 jmp	 ?__copy_trivial@_STL@@YAPAXPBX0PAX@Z ; _STL::__copy_trivial
?uninitialized_copy@_STL@@YAPADPBD0PAD@Z ENDP		; _STL::uninitialized_copy
_TEXT	ENDS
PUBLIC	?length@?$char_traits@D@_STL@@SAIPBD@Z		; _STL::char_traits<char>::length
EXTRN	_strlen:NEAR
; Function compile flags: /Ogsy
; File c:\stlport-4.6.1\stlport\stl\char_traits.h
;	COMDAT ?length@?$char_traits@D@_STL@@SAIPBD@Z
_TEXT	SEGMENT
___s$ = 8						; size = 4
?length@?$char_traits@D@_STL@@SAIPBD@Z PROC NEAR	; _STL::char_traits<char>::length, COMDAT

; 238  :   static size_t _STLP_CALL length(const char* __s) { return strlen(__s); }

  00000	e9 00 00 00 00	 jmp	 _strlen
?length@?$char_traits@D@_STL@@SAIPBD@Z ENDP		; _STL::char_traits<char>::length
_TEXT	ENDS
PUBLIC	?sendto_ex@SocketAPI@@YAIIPBXHIPBUsockaddr@@H@Z	; SocketAPI::sendto_ex
EXTRN	_sendto@24:NEAR
; Function compile flags: /Ogsy
; File c:\darkeden\designed_common\project\client\packet\socketapi.cpp
;	COMDAT ?sendto_ex@SocketAPI@@YAIIPBXHIPBUsockaddr@@H@Z
_TEXT	SEGMENT
_s$ = 8							; size = 4
_buf$ = 12						; size = 4
_len$ = 16						; size = 4
_flags$ = 20						; size = 4
_to$ = 24						; size = 4
_tolen$ = 28						; size = 4
?sendto_ex@SocketAPI@@YAIIPBXHIPBUsockaddr@@H@Z PROC NEAR ; SocketAPI::sendto_ex, COMDAT

; 709  : {

  00000	55		 push	 ebp
  00001	8b ec		 mov	 ebp, esp

; 710  : 	__BEGIN_TRY
; 711  : 
; 712  : #if __LINUX__
; 713  : 	int nSent = sendto(s,buf,len,flags,to,tolen);
; 714  : #elif __WINDOWS__
; 715  : 	int nSent = sendto(s,(const char *)buf,len,flags,to,tolen);

  00003	ff 75 1c	 push	 DWORD PTR _tolen$[ebp]
  00006	ff 75 18	 push	 DWORD PTR _to$[ebp]
  00009	ff 75 14	 push	 DWORD PTR _flags$[ebp]
  0000c	ff 75 10	 push	 DWORD PTR _len$[ebp]
  0000f	ff 75 0c	 push	 DWORD PTR _buf$[ebp]
  00012	ff 75 08	 push	 DWORD PTR _s$[ebp]
  00015	e8 00 00 00 00	 call	 _sendto@24

; 716  : #endif
; 717  : 
; 718  : 	if ( nSent == SOCKET_ERROR ) {
; 719  : #if __LINUX__
; 720  : 		switch ( errno ) {
; 721  : 		case EBADF : 
; 722  : 			throw Error("An invalid descriptor was specified.");
; 723  : 		case ENOTSOCK : 
; 724  : 			throw Error("The argument s is not a socket.");
; 725  : 		case EFAULT : 
; 726  : 			throw Error("An invalid user space address was specified for a parameter.");
; 727  : 		case EMSGSIZE : 
; 728  : 			throw Error("The socket requires that message be sent atomically, and the size of the message to be sent made this impossible.");
; 729  : 		case EWOULDBLOCK : 
; 730  : 			throw NonBlockingIOException("The socket is marked non-blocking and the requested operation would block.");
; 731  : 		case ENOBUFS : 
; 732  : 			throw Error("The system was unable to allocate an internal buffer. The operation may succeed when buffers become available. & The output queue for a network interface was full. This generally indicates that the interface has stopped sending, but may be caused by transient congestion.");
; 733  : 		case ECONNRESET :
; 734  : 			throw ConnectException("connection reset by peer.");
; 735  : 		case EPIPE :
; 736  : 			throw ConnectException("pipe broken. may be peer host has shut down or has been disabled.        .");
; 737  : 		default : 
; 738  : 			throw UnknownError(strerror(errno),errno);
; 739  : 		}	
; 740  : #elif __WINDOWS__
; 741  : #endif
; 742  : 	}
; 743  : 
; 744  : 	return nSent;
; 745  : 
; 746  : 	__END_CATCH
; 747  : }

  0001a	5d		 pop	 ebp
  0001b	c3		 ret	 0
?sendto_ex@SocketAPI@@YAIIPBXHIPBUsockaddr@@H@Z ENDP	; SocketAPI::sendto_ex
_TEXT	ENDS
PUBLIC	?recvfrom_ex@SocketAPI@@YAIIPAXHIPAUsockaddr@@PAI@Z ; SocketAPI::recvfrom_ex
EXTRN	_recvfrom@24:NEAR
; Function compile flags: /Ogsy
;	COMDAT ?recvfrom_ex@SocketAPI@@YAIIPAXHIPAUsockaddr@@PAI@Z
_TEXT	SEGMENT
_s$ = 8							; size = 4
_buf$ = 12						; size = 4
_len$ = 16						; size = 4
_flags$ = 20						; size = 4
_from$ = 24						; size = 4
_fromlen$ = 28						; size = 4
?recvfrom_ex@SocketAPI@@YAIIPAXHIPAUsockaddr@@PAI@Z PROC NEAR ; SocketAPI::recvfrom_ex, COMDAT

; 859  : {

  00000	55		 push	 ebp
  00001	8b ec		 mov	 ebp, esp

; 860  : 	__BEGIN_TRY
; 861  : 
; 862  : #if __LINUX__
; 863  : 	int nReceived = recvfrom(s,buf,len,flags,from,fromlen);
; 864  : #elif __WINDOWS__
; 865  : 	int nReceived = recvfrom(s,(char*)buf,len,flags,from,(int*)fromlen);

  00003	ff 75 1c	 push	 DWORD PTR _fromlen$[ebp]
  00006	ff 75 18	 push	 DWORD PTR _from$[ebp]
  00009	ff 75 14	 push	 DWORD PTR _flags$[ebp]
  0000c	ff 75 10	 push	 DWORD PTR _len$[ebp]
  0000f	ff 75 0c	 push	 DWORD PTR _buf$[ebp]
  00012	ff 75 08	 push	 DWORD PTR _s$[ebp]
  00015	e8 00 00 00 00	 call	 _recvfrom@24

; 866  : #endif
; 867  : 
; 868  : 	if ( nReceived == SOCKET_ERROR ) {
; 869  : #if __LINUX__
; 870  : 		switch ( errno ) {
; 871  : 		case EBADF : 
; 872  : 			throw Error("The argument s is an invalid descriptor.");
; 873  : 		case ENOTCONN : 
; 874  : 			throw Error("The socket is associated with a connection-oriented protocol and has not been connected (see connect(2) and accept(2)).");
; 875  : 		case ENOTSOCK : 
; 876  : 			throw Error("The argument s does not refer to a socket.");
; 877  : 		case EWOULDBLOCK : 
; 878  : 			throw NonBlockingIOException("The socket is marked non-blocking, and the receive operation would block, or a receive  timeout  had been set, and the timeout expired before data were received.");
; 879  : 		case EINTR : 
; 880  : 			throw Error("The receive was interrupted by delivery of a signal before any data were available.");
; 881  : 		case EFAULT : 
; 882  : 			throw Error("The receive buffer pointer(s) point outside the process's address space.");
; 883  : 		case ECONNRESET :
; 884  : 			throw ConnectException("connection reset by peer.");
; 885  : 		case EPIPE :
; 886  : 			throw ConnectException("pipe broken. may be peer host has shut down or has been disabled.        .");
; 887  : 		default : 
; 888  : 			throw UnknownError(strerror(errno),errno);
; 889  : 		}//end of switch
; 890  : #elif __WINDOWS__
; 891  : 	/*
; 892  : 	#ifdef OUTPUT_DEBUG
; 893  : 		switch (WSAGetLastError())
; 894  : 		{
; 895  : 			case WSANOTINITIALISED :
; 896  : 				throw Error("WSANOTINITIALISED");
; 897  : 			break;
; 898  : 			case WSAENETDOWN :
; 899  : 				throw Error("WSAENETDOWN");
; 900  : 			break;
; 901  : 			case WSAEFAULT :
; 902  : 				throw Error("WSAEFAULT");
; 903  : 			break;
; 904  : 			case WSAEINTR :
; 905  : 				throw Error("WSAEINTR");
; 906  : 			break;
; 907  : 			case WSAEINPROGRESS :
; 908  : 				throw Error("WSAEINPROGRESS");
; 909  : 			break;
; 910  : 			case WSAEINVAL :
; 911  : 				throw Error("WSAEINVAL");
; 912  : 			break;
; 913  : 			case WSAEISCONN :
; 914  : 				throw Error("WSAEISCONN");
; 915  : 			break;
; 916  : 			case WSAENETRESET :
; 917  : 				throw Error("WSAENETRESET");
; 918  : 			break;
; 919  : 			case WSAENOTSOCK :
; 920  : 				throw Error("WSAENOTSOCK");
; 921  : 			break;
; 922  : 			case WSAEOPNOTSUPP :
; 923  : 				throw Error("WSAEOPNOTSUPP");
; 924  : 			break;
; 925  : 			case WSAESHUTDOWN :
; 926  : 				throw Error("WSAESHUTDOWN");
; 927  : 			break;
; 928  : 			case WSAEWOULDBLOCK :
; 929  : 				throw Error("WSAEWOULDBLOCK");
; 930  : 			break;
; 931  : 			case WSAEMSGSIZE :
; 932  : 				throw Error("WSAEMSGSIZE");
; 933  : 			break;
; 934  : 			case WSAETIMEDOUT :
; 935  : 				throw Error("WSAETIMEDOUT");
; 936  : 			break;
; 937  : 			case WSAECONNRESET :
; 938  : 				throw Error("WSAECONNRESET");
; 939  : 			break;
; 940  : 			default : 
; 941  : 				throw UnknownError("what??");
; 942  : 		}
; 943  : 	#endif
; 944  : 	*/
; 945  : #endif
; 946  : 	}
; 947  : 
; 948  : 	return nReceived;
; 949  : 
; 950  : 	__END_CATCH
; 951  : }

  0001a	5d		 pop	 ebp
  0001b	c3		 ret	 0
?recvfrom_ex@SocketAPI@@YAIIPAXHIPAUsockaddr@@PAI@Z ENDP ; SocketAPI::recvfrom_ex
_TEXT	ENDS
PUBLIC	?_M_terminate_string_aux@?$basic_string@DV?$char_traits@D@_STL@@V?$allocator@D@2@@_STL@@AAEXABU__true_type@2@@Z ; _STL::basic_string<char,_STL::char_traits<char>,_STL::allocator<char> >::_M_terminate_string_aux
; Function compile flags: /Ogsy
; File c:\stlport-4.6.1\stlport\stl\_string.h
;	COMDAT ?_M_terminate_string_aux@?$basic_string@DV?$char_traits@D@_STL@@V?$allocator@D@2@@_STL@@AAEXABU__true_type@2@@Z
_TEXT	SEGMENT
___formal$ = 8						; size = 4
?_M_terminate_string_aux@?$basic_string@DV?$char_traits@D@_STL@@V?$allocator@D@2@@_STL@@AAEXABU__true_type@2@@Z PROC NEAR ; _STL::basic_string<char,_STL::char_traits<char>,_STL::allocator<char> >::_M_terminate_string_aux, COMDAT
; _this$ = ecx

; 351  :     *(this->_M_finish)=0;

  00000	8b 41 04	 mov	 eax, DWORD PTR [ecx+4]
  00003	c6 00 00	 mov	 BYTE PTR [eax], 0

; 352  :   }

  00006	c2 04 00	 ret	 4
?_M_terminate_string_aux@?$basic_string@DV?$char_traits@D@_STL@@V?$allocator@D@2@@_STL@@AAEXABU__true_type@2@@Z ENDP ; _STL::basic_string<char,_STL::char_traits<char>,_STL::allocator<char> >::_M_terminate_string_aux
_TEXT	ENDS
PUBLIC	??0?$allocator@D@_STL@@QAE@ABV01@@Z		; _STL::allocator<char>::allocator<char>
; Function compile flags: /Ogsy
; File c:\stlport-4.6.1\stlport\stl\_alloc.h
;	COMDAT ??0?$allocator@D@_STL@@QAE@ABV01@@Z
_TEXT	SEGMENT
___formal$ = 8						; size = 4
??0?$allocator@D@_STL@@QAE@ABV01@@Z PROC NEAR		; _STL::allocator<char>::allocator<char>, COMDAT
; _this$ = ecx

; 349  :   allocator(const allocator<_Tp>&) _STLP_NOTHROW {}

  00000	8b c1		 mov	 eax, ecx
  00002	c2 04 00	 ret	 4
??0?$allocator@D@_STL@@QAE@ABV01@@Z ENDP		; _STL::allocator<char>::allocator<char>
_TEXT	ENDS
PUBLIC	??$?0U?$_List_node@V?$basic_string@DV?$char_traits@D@_STL@@V?$allocator@D@2@@_STL@@@_STL@@@?$allocator@V?$basic_string@DV?$char_traits@D@_STL@@V?$allocator@D@2@@_STL@@@_STL@@QAE@ABV?$allocator@U?$_List_node@V?$basic_string@DV?$char_traits@D@_STL@@V?$allocator@D@2@@_STL@@@_STL@@@1@@Z ; _STL::allocator<_STL::basic_string<char,_STL::char_traits<char>,_STL::allocator<char> > >::allocator<_STL::basic_string<char,_STL::char_traits<char>,_STL::allocator<char> > ><_STL::_List_node<_STL::basic_string<char,_STL::char_traits<char>,_STL::allocator<char> > > >
; Function compile flags: /Ogsy
;	COMDAT ??$?0U?$_List_node@V?$basic_string@DV?$char_traits@D@_STL@@V?$allocator@D@2@@_STL@@@_STL@@@?$allocator@V?$basic_string@DV?$char_traits@D@_STL@@V?$allocator@D@2@@_STL@@@_STL@@QAE@ABV?$allocator@U?$_List_node@V?$basic_string@DV?$char_traits@D@_STL@@V?$allocator@D@2@@_STL@@@_STL@@@1@@Z
_TEXT	SEGMENT
___formal$ = 8						; size = 4
??$?0U?$_List_node@V?$basic_string@DV?$char_traits@D@_STL@@V?$allocator@D@2@@_STL@@@_STL@@@?$allocator@V?$basic_string@DV?$char_traits@D@_STL@@V?$allocator@D@2@@_STL@@@_STL@@QAE@ABV?$allocator@U?$_List_node@V?$basic_string@DV?$char_traits@D@_STL@@V?$allocator@D@2@@_STL@@@_STL@@@1@@Z PROC NEAR ; _STL::allocator<_STL::basic_string<char,_STL::char_traits<char>,_STL::allocator<char> > >::allocator<_STL::basic_string<char,_STL::char_traits<char>,_STL::allocator<char> > ><_STL::_List_node<_STL::basic_string<char,_STL::char_traits<char>,_STL::allocator<char> > > >, COMDAT
; _this$ = ecx

; 347  :   template <class _Tp1> allocator(const allocator<_Tp1>&) _STLP_NOTHROW {}

  00000	8b c1		 mov	 eax, ecx
  00002	c2 04 00	 ret	 4
??$?0U?$_List_node@V?$basic_string@DV?$char_traits@D@_STL@@V?$allocator@D@2@@_STL@@@_STL@@@?$allocator@V?$basic_string@DV?$char_traits@D@_STL@@V?$allocator@D@2@@_STL@@@_STL@@QAE@ABV?$allocator@U?$_List_node@V?$basic_string@DV?$char_traits@D@_STL@@V?$allocator@D@2@@_STL@@@_STL@@@1@@Z ENDP ; _STL::allocator<_STL::basic_string<char,_STL::char_traits<char>,_STL::allocator<char> > >::allocator<_STL::basic_string<char,_STL::char_traits<char>,_STL::allocator<char> > ><_STL::_List_node<_STL::basic_string<char,_STL::char_traits<char>,_STL::allocator<char> > > >
_TEXT	ENDS
PUBLIC	?max_size@?$_String_base@DV?$allocator@D@_STL@@@_STL@@QBEIXZ ; _STL::_String_base<char,_STL::allocator<char> >::max_size
; Function compile flags: /Ogsy
; File c:\stlport-4.6.1\stlport\stl\_string.h
;	COMDAT ?max_size@?$_String_base@DV?$allocator@D@_STL@@@_STL@@QBEIXZ
_TEXT	SEGMENT
?max_size@?$_String_base@DV?$allocator@D@_STL@@@_STL@@QBEIXZ PROC NEAR ; _STL::_String_base<char,_STL::allocator<char> >::max_size, COMDAT
; _this$ = ecx

; 126  :   size_t max_size() const { return (size_t(-1) / sizeof(_Tp)) - 1; }

  00000	6a fe		 push	 -2			; fffffffeH
  00002	58		 pop	 eax
  00003	c3		 ret	 0
?max_size@?$_String_base@DV?$allocator@D@_STL@@@_STL@@QBEIXZ ENDP ; _STL::_String_base<char,_STL::allocator<char> >::max_size
_TEXT	ENDS
PUBLIC	??$__distance@PBD@_STL@@YAHABQBD0ABUrandom_access_iterator_tag@0@@Z ; _STL::__distance<char const *>
; Function compile flags: /Ogsy
; File c:\stlport-4.6.1\stlport\stl\_iterator_base.h
;	COMDAT ??$__distance@PBD@_STL@@YAHABQBD0ABUrandom_access_iterator_tag@0@@Z
_TEXT	SEGMENT
___first$ = 8						; size = 4
___last$ = 12						; size = 4
___formal$ = 16						; size = 4
??$__distance@PBD@_STL@@YAHABQBD0ABUrandom_access_iterator_tag@0@@Z PROC NEAR ; _STL::__distance<char const *>, COMDAT

; 363  :   return __last - __first;

  00000	8b 44 24 08	 mov	 eax, DWORD PTR ___last$[esp-4]
  00004	8b 00		 mov	 eax, DWORD PTR [eax]
  00006	8b 4c 24 04	 mov	 ecx, DWORD PTR ___first$[esp-4]
  0000a	2b 01		 sub	 eax, DWORD PTR [ecx]

; 364  : }

  0000c	c3		 ret	 0
??$__distance@PBD@_STL@@YAHABQBD0ABUrandom_access_iterator_tag@0@@Z ENDP ; _STL::__distance<char const *>
_TEXT	ENDS
PUBLIC	??_C@_0N@GOPDCEEB@basic_string?$AA@		; `string'
PUBLIC	?_M_throw_length_error@?$_String_base@DV?$allocator@D@_STL@@@_STL@@QBEXXZ ; _STL::_String_base<char,_STL::allocator<char> >::_M_throw_length_error
EXTRN	?__stl_throw_length_error@_STL@@YAXPBD@Z:NEAR	; _STL::__stl_throw_length_error
;	COMDAT ??_C@_0N@GOPDCEEB@basic_string?$AA@
; File c:\stlport-4.6.1\stlport\stl\_string.c
CONST	SEGMENT
??_C@_0N@GOPDCEEB@basic_string?$AA@ DB 'basic_string', 00H ; `string'
; Function compile flags: /Ogsy
CONST	ENDS
;	COMDAT ?_M_throw_length_error@?$_String_base@DV?$allocator@D@_STL@@@_STL@@QBEXXZ
_TEXT	SEGMENT
?_M_throw_length_error@?$_String_base@DV?$allocator@D@_STL@@@_STL@@QBEXXZ PROC NEAR ; _STL::_String_base<char,_STL::allocator<char> >::_M_throw_length_error, COMDAT
; _this$ = ecx

; 523  :     __stl_throw_length_error("basic_string");

  00000	68 00 00 00 00	 push	 OFFSET FLAT:??_C@_0N@GOPDCEEB@basic_string?$AA@
  00005	e8 00 00 00 00	 call	 ?__stl_throw_length_error@_STL@@YAXPBD@Z ; _STL::__stl_throw_length_error
  0000a	59		 pop	 ecx

; 524  : }

  0000b	c3		 ret	 0
?_M_throw_length_error@?$_String_base@DV?$allocator@D@_STL@@@_STL@@QBEXXZ ENDP ; _STL::_String_base<char,_STL::allocator<char> >::_M_throw_length_error
_TEXT	ENDS
PUBLIC	??$__distance@PAD@_STL@@YAHABQAD0ABUrandom_access_iterator_tag@0@@Z ; _STL::__distance<char *>
; Function compile flags: /Ogsy
; File c:\stlport-4.6.1\stlport\stl\_iterator_base.h
;	COMDAT ??$__distance@PAD@_STL@@YAHABQAD0ABUrandom_access_iterator_tag@0@@Z
_TEXT	SEGMENT
___first$ = 8						; size = 4
___last$ = 12						; size = 4
___formal$ = 16						; size = 4
??$__distance@PAD@_STL@@YAHABQAD0ABUrandom_access_iterator_tag@0@@Z PROC NEAR ; _STL::__distance<char *>, COMDAT

; 363  :   return __last - __first;

  00000	8b 44 24 08	 mov	 eax, DWORD PTR ___last$[esp-4]
  00004	8b 00		 mov	 eax, DWORD PTR [eax]
  00006	8b 4c 24 04	 mov	 ecx, DWORD PTR ___first$[esp-4]
  0000a	2b 01		 sub	 eax, DWORD PTR [ecx]

; 364  : }

  0000c	c3		 ret	 0
??$__distance@PAD@_STL@@YAHABQAD0ABUrandom_access_iterator_tag@0@@Z ENDP ; _STL::__distance<char *>
_TEXT	ENDS
PUBLIC	?_Ret@?$_BothPtrType@PADPAD@_STL@@SA?AU__true_type@2@XZ ; _STL::_BothPtrType<char *,char *>::_Ret
; Function compile flags: /Ogsy
; File c:\stlport-4.6.1\stlport\stl\type_traits.h
;	COMDAT ?_Ret@?$_BothPtrType@PADPAD@_STL@@SA?AU__true_type@2@XZ
_TEXT	SEGMENT
$T101594 = -1						; size = 1
?_Ret@?$_BothPtrType@PADPAD@_STL@@SA?AU__true_type@2@XZ PROC NEAR ; _STL::_BothPtrType<char *,char *>::_Ret, COMDAT

; 234  :   static __true_type _Ret() { return __true_type();} 

  00000	55		 push	 ebp
  00001	8b ec		 mov	 ebp, esp
  00003	51		 push	 ecx
  00004	57		 push	 edi
  00005	33 c0		 xor	 eax, eax
  00007	8d 7d ff	 lea	 edi, DWORD PTR $T101594[ebp]
  0000a	aa		 stosb
  0000b	8a 45 ff	 mov	 al, BYTE PTR $T101594[ebp]
  0000e	5f		 pop	 edi
  0000f	c9		 leave
  00010	c3		 ret	 0
?_Ret@?$_BothPtrType@PADPAD@_STL@@SA?AU__true_type@2@XZ ENDP ; _STL::_BothPtrType<char *,char *>::_Ret
_TEXT	ENDS
PUBLIC	?_Ret@?$_OKToMemCpy@DD@_STL@@SA?AU__true_type@2@XZ ; _STL::_OKToMemCpy<char,char>::_Ret
; Function compile flags: /Ogsy
;	COMDAT ?_Ret@?$_OKToMemCpy@DD@_STL@@SA?AU__true_type@2@XZ
_TEXT	SEGMENT
$T101597 = -1						; size = 1
?_Ret@?$_OKToMemCpy@DD@_STL@@SA?AU__true_type@2@XZ PROC NEAR ; _STL::_OKToMemCpy<char,char>::_Ret, COMDAT

; 361  :   static _Type _Ret() { return _Type(); }

  00000	55		 push	 ebp
  00001	8b ec		 mov	 ebp, esp
  00003	51		 push	 ecx
  00004	57		 push	 edi
  00005	33 c0		 xor	 eax, eax
  00007	8d 7d ff	 lea	 edi, DWORD PTR $T101597[ebp]
  0000a	aa		 stosb
  0000b	8a 45 ff	 mov	 al, BYTE PTR $T101597[ebp]
  0000e	5f		 pop	 edi
  0000f	c9		 leave
  00010	c3		 ret	 0
?_Ret@?$_OKToMemCpy@DD@_STL@@SA?AU__true_type@2@XZ ENDP	; _STL::_OKToMemCpy<char,char>::_Ret
_TEXT	ENDS
PUBLIC	??$_IsOKToMemCpy@DD@_STL@@YA?AU?$_OKToMemCpy@DD@0@PAD0@Z ; _STL::_IsOKToMemCpy<char,char>
; Function compile flags: /Ogsy
;	COMDAT ??$_IsOKToMemCpy@DD@_STL@@YA?AU?$_OKToMemCpy@DD@0@PAD0@Z
_TEXT	SEGMENT
$T101600 = -1						; size = 1
___formal$ = 8						; size = 4
___formal$ = 12						; size = 4
??$_IsOKToMemCpy@DD@_STL@@YA?AU?$_OKToMemCpy@DD@0@PAD0@Z PROC NEAR ; _STL::_IsOKToMemCpy<char,char>, COMDAT

; 365  : inline _OKToMemCpy<_Tp1, _Tp2> _IsOKToMemCpy(_Tp1*, _Tp2*)  {

  00000	55		 push	 ebp
  00001	8b ec		 mov	 ebp, esp
  00003	51		 push	 ecx
  00004	57		 push	 edi

; 366  :   return _OKToMemCpy<_Tp1, _Tp2>();

  00005	33 c0		 xor	 eax, eax
  00007	8d 7d ff	 lea	 edi, DWORD PTR $T101600[ebp]
  0000a	aa		 stosb
  0000b	8a 45 ff	 mov	 al, BYTE PTR $T101600[ebp]
  0000e	5f		 pop	 edi

; 367  : }

  0000f	c9		 leave
  00010	c3		 ret	 0
??$_IsOKToMemCpy@DD@_STL@@YA?AU?$_OKToMemCpy@DD@0@PAD0@Z ENDP ; _STL::_IsOKToMemCpy<char,char>
_TEXT	ENDS
PUBLIC	??$__copy_ptrs@PADPAD@_STL@@YAPADPAD00ABU__true_type@0@@Z ; _STL::__copy_ptrs<char *,char *>
; Function compile flags: /Ogsy
; File c:\stlport-4.6.1\stlport\stl\_algobase.h
;	COMDAT ??$__copy_ptrs@PADPAD@_STL@@YAPADPAD00ABU__true_type@0@@Z
_TEXT	SEGMENT
___first$ = 8						; size = 4
___last$ = 12						; size = 4
___result$ = 16						; size = 4
___formal$ = 20						; size = 4
??$__copy_ptrs@PADPAD@_STL@@YAPADPAD00ABU__true_type@0@@Z PROC NEAR ; _STL::__copy_ptrs<char *,char *>, COMDAT

; 195  : // we know they all pointers, so this cast is OK 
; 196  :   //  return (_OutputIter)__copy_trivial(&(*__first), &(*__last), &(*__result));
; 197  :   return (_OutputIter)__copy_trivial(__first, __last, __result);

  00000	ff 74 24 0c	 push	 DWORD PTR ___result$[esp-4]
  00004	ff 74 24 0c	 push	 DWORD PTR ___last$[esp]
  00008	ff 74 24 0c	 push	 DWORD PTR ___first$[esp+4]
  0000c	e8 00 00 00 00	 call	 ?__copy_trivial@_STL@@YAPAXPBX0PAX@Z ; _STL::__copy_trivial
  00011	83 c4 0c	 add	 esp, 12			; 0000000cH

; 198  : }

  00014	c3		 ret	 0
??$__copy_ptrs@PADPAD@_STL@@YAPADPAD00ABU__true_type@0@@Z ENDP ; _STL::__copy_ptrs<char *,char *>
_TEXT	ENDS
PUBLIC	??0_List_iterator_base@_STL@@QAE@PAU_List_node_base@1@@Z ; _STL::_List_iterator_base::_List_iterator_base
; Function compile flags: /Ogsy
; File c:\stlport-4.6.1\stlport\stl\_list.h
;	COMDAT ??0_List_iterator_base@_STL@@QAE@PAU_List_node_base@1@@Z
_TEXT	SEGMENT
___x$ = 8						; size = 4
??0_List_iterator_base@_STL@@QAE@PAU_List_node_base@1@@Z PROC NEAR ; _STL::_List_iterator_base::_List_iterator_base, COMDAT
; _this$ = ecx

; 95   :   _List_iterator_base(_List_node_base* __x) : _M_node(__x) {}

  00000	8b c1		 mov	 eax, ecx
  00002	8b 4c 24 04	 mov	 ecx, DWORD PTR ___x$[esp-4]
  00006	89 08		 mov	 DWORD PTR [eax], ecx
  00008	c2 04 00	 ret	 4
??0_List_iterator_base@_STL@@QAE@PAU_List_node_base@1@@Z ENDP ; _STL::_List_iterator_base::_List_iterator_base
_TEXT	ENDS
PUBLIC	?_M_incr@_List_iterator_base@_STL@@QAEXXZ	; _STL::_List_iterator_base::_M_incr
; Function compile flags: /Ogsy
;	COMDAT ?_M_incr@_List_iterator_base@_STL@@QAEXXZ
_TEXT	SEGMENT
?_M_incr@_List_iterator_base@_STL@@QAEXXZ PROC NEAR	; _STL::_List_iterator_base::_M_incr, COMDAT
; _this$ = ecx

; 98   :   void _M_incr() { _M_node = _M_node->_M_next; }

  00000	8b 01		 mov	 eax, DWORD PTR [ecx]
  00002	8b 00		 mov	 eax, DWORD PTR [eax]
  00004	89 01		 mov	 DWORD PTR [ecx], eax
  00006	c3		 ret	 0
?_M_incr@_List_iterator_base@_STL@@QAEXXZ ENDP		; _STL::_List_iterator_base::_M_incr
_TEXT	ENDS
PUBLIC	??9_List_iterator_base@_STL@@QBE_NABU01@@Z	; _STL::_List_iterator_base::operator!=
; Function compile flags: /Ogsy
;	COMDAT ??9_List_iterator_base@_STL@@QBE_NABU01@@Z
_TEXT	SEGMENT
___y$ = 8						; size = 4
??9_List_iterator_base@_STL@@QBE_NABU01@@Z PROC NEAR	; _STL::_List_iterator_base::operator!=, COMDAT
; _this$ = ecx

; 104  :     return _M_node != __y._M_node; 

  00000	8b 01		 mov	 eax, DWORD PTR [ecx]
  00002	8b 54 24 04	 mov	 edx, DWORD PTR ___y$[esp-4]
  00006	33 c9		 xor	 ecx, ecx
  00008	3b 02		 cmp	 eax, DWORD PTR [edx]
  0000a	0f 95 c1	 setne	 cl
  0000d	8a c1		 mov	 al, cl

; 105  :   }

  0000f	c2 04 00	 ret	 4
??9_List_iterator_base@_STL@@QBE_NABU01@@Z ENDP		; _STL::_List_iterator_base::operator!=
_TEXT	ENDS
PUBLIC	??0?$allocator@D@_STL@@QAE@XZ			; _STL::allocator<char>::allocator<char>
; Function compile flags: /Ogsy
; File c:\stlport-4.6.1\stlport\stl\_alloc.h
;	COMDAT ??0?$allocator@D@_STL@@QAE@XZ
_TEXT	SEGMENT
??0?$allocator@D@_STL@@QAE@XZ PROC NEAR			; _STL::allocator<char>::allocator<char>, COMDAT
; _this$ = ecx

; 345  :   allocator() _STLP_NOTHROW {}

  00000	8b c1		 mov	 eax, ecx
  00002	c3		 ret	 0
??0?$allocator@D@_STL@@QAE@XZ ENDP			; _STL::allocator<char>::allocator<char>
_TEXT	ENDS
PUBLIC	??1?$allocator@D@_STL@@QAE@XZ			; _STL::allocator<char>::~allocator<char>
; Function compile flags: /Ogsy
;	COMDAT ??1?$allocator@D@_STL@@QAE@XZ
_TEXT	SEGMENT
??1?$allocator@D@_STL@@QAE@XZ PROC NEAR			; _STL::allocator<char>::~allocator<char>, COMDAT
; _this$ = ecx

; 350  :   ~allocator() _STLP_NOTHROW {}

  00000	c3		 ret	 0
??1?$allocator@D@_STL@@QAE@XZ ENDP			; _STL::allocator<char>::~allocator<char>
_TEXT	ENDS
PUBLIC	??0?$allocator@V?$basic_string@DV?$char_traits@D@_STL@@V?$allocator@D@2@@_STL@@@_STL@@QAE@XZ ; _STL::allocator<_STL::basic_string<char,_STL::char_traits<char>,_STL::allocator<char> > >::allocator<_STL::basic_string<char,_STL::char_traits<char>,_STL::allocator<char> > >
; Function compile flags: /Ogsy
;	COMDAT ??0?$allocator@V?$basic_string@DV?$char_traits@D@_STL@@V?$allocator@D@2@@_STL@@@_STL@@QAE@XZ
_TEXT	SEGMENT
??0?$allocator@V?$basic_string@DV?$char_traits@D@_STL@@V?$allocator@D@2@@_STL@@@_STL@@QAE@XZ PROC NEAR ; _STL::allocator<_STL::basic_string<char,_STL::char_traits<char>,_STL::allocator<char> > >::allocator<_STL::basic_string<char,_STL::char_traits<char>,_STL::allocator<char> > >, COMDAT
; _this$ = ecx

; 345  :   allocator() _STLP_NOTHROW {}

  00000	8b c1		 mov	 eax, ecx
  00002	c3		 ret	 0
??0?$allocator@V?$basic_string@DV?$char_traits@D@_STL@@V?$allocator@D@2@@_STL@@@_STL@@QAE@XZ ENDP ; _STL::allocator<_STL::basic_string<char,_STL::char_traits<char>,_STL::allocator<char> > >::allocator<_STL::basic_string<char,_STL::char_traits<char>,_STL::allocator<char> > >
_TEXT	ENDS
PUBLIC	??1?$allocator@V?$basic_string@DV?$char_traits@D@_STL@@V?$allocator@D@2@@_STL@@@_STL@@QAE@XZ ; _STL::allocator<_STL::basic_string<char,_STL::char_traits<char>,_STL::allocator<char> > >::~allocator<_STL::basic_string<char,_STL::char_traits<char>,_STL::allocator<char> > >
; Function compile flags: /Ogsy
;	COMDAT ??1?$allocator@V?$basic_string@DV?$char_traits@D@_STL@@V?$allocator@D@2@@_STL@@@_STL@@QAE@XZ
_TEXT	SEGMENT
??1?$allocator@V?$basic_string@DV?$char_traits@D@_STL@@V?$allocator@D@2@@_STL@@@_STL@@QAE@XZ PROC NEAR ; _STL::allocator<_STL::basic_string<char,_STL::char_traits<char>,_STL::allocator<char> > >::~allocator<_STL::basic_string<char,_STL::char_traits<char>,_STL::allocator<char> > >, COMDAT
; _this$ = ecx

; 350  :   ~allocator() _STLP_NOTHROW {}

  00000	c3		 ret	 0
??1?$allocator@V?$basic_string@DV?$char_traits@D@_STL@@V?$allocator@D@2@@_STL@@@_STL@@QAE@XZ ENDP ; _STL::allocator<_STL::basic_string<char,_STL::char_traits<char>,_STL::allocator<char> > >::~allocator<_STL::basic_string<char,_STL::char_traits<char>,_STL::allocator<char> > >
_TEXT	ENDS
PUBLIC	??D?$_List_iterator@V?$basic_string@DV?$char_traits@D@_STL@@V?$allocator@D@2@@_STL@@U?$_Const_traits@V?$basic_string@DV?$char_traits@D@_STL@@V?$allocator@D@2@@_STL@@@2@@_STL@@QBEABV?$basic_string@DV?$char_traits@D@_STL@@V?$allocator@D@2@@1@XZ ; _STL::_List_iterator<_STL::basic_string<char,_STL::char_traits<char>,_STL::allocator<char> >,_STL::_Const_traits<_STL::basic_string<char,_STL::char_traits<char>,_STL::allocator<char> > > >::operator*
; Function compile flags: /Ogsy
; File c:\stlport-4.6.1\stlport\stl\_list.h
;	COMDAT ??D?$_List_iterator@V?$basic_string@DV?$char_traits@D@_STL@@V?$allocator@D@2@@_STL@@U?$_Const_traits@V?$basic_string@DV?$char_traits@D@_STL@@V?$allocator@D@2@@_STL@@@2@@_STL@@QBEABV?$basic_string@DV?$char_traits@D@_STL@@V?$allocator@D@2@@1@XZ
_TEXT	SEGMENT
??D?$_List_iterator@V?$basic_string@DV?$char_traits@D@_STL@@V?$allocator@D@2@@_STL@@U?$_Const_traits@V?$basic_string@DV?$char_traits@D@_STL@@V?$allocator@D@2@@_STL@@@2@@_STL@@QBEABV?$basic_string@DV?$char_traits@D@_STL@@V?$allocator@D@2@@1@XZ PROC NEAR ; _STL::_List_iterator<_STL::basic_string<char,_STL::char_traits<char>,_STL::allocator<char> >,_STL::_Const_traits<_STL::basic_string<char,_STL::char_traits<char>,_STL::allocator<char> > > >::operator*, COMDAT
; _this$ = ecx

; 130  :   reference operator*() const { return ((_Node*)_M_node)->_M_data; }

  00000	8b 01		 mov	 eax, DWORD PTR [ecx]
  00002	83 c0 08	 add	 eax, 8
  00005	c3		 ret	 0
??D?$_List_iterator@V?$basic_string@DV?$char_traits@D@_STL@@V?$allocator@D@2@@_STL@@U?$_Const_traits@V?$basic_string@DV?$char_traits@D@_STL@@V?$allocator@D@2@@_STL@@@2@@_STL@@QBEABV?$basic_string@DV?$char_traits@D@_STL@@V?$allocator@D@2@@1@XZ ENDP ; _STL::_List_iterator<_STL::basic_string<char,_STL::char_traits<char>,_STL::allocator<char> >,_STL::_Const_traits<_STL::basic_string<char,_STL::char_traits<char>,_STL::allocator<char> > > >::operator*
_TEXT	ENDS
PUBLIC	??0?$_List_iterator@V?$basic_string@DV?$char_traits@D@_STL@@V?$allocator@D@2@@_STL@@U?$_Const_traits@V?$basic_string@DV?$char_traits@D@_STL@@V?$allocator@D@2@@_STL@@@2@@_STL@@QAE@PAU?$_List_node@V?$basic_string@DV?$char_traits@D@_STL@@V?$allocator@D@2@@_STL@@@1@@Z ; _STL::_List_iterator<_STL::basic_string<char,_STL::char_traits<char>,_STL::allocator<char> >,_STL::_Const_traits<_STL::basic_string<char,_STL::char_traits<char>,_STL::allocator<char> > > >::_List_iterator<_STL::basic_string<char,_STL::char_traits<char>,_STL::allocator<char> >,_STL::_Const_traits<_STL::basic_string<char,_STL::char_traits<char>,_STL::allocator<char> > > >
; Function compile flags: /Ogsy
;	COMDAT ??0?$_List_iterator@V?$basic_string@DV?$char_traits@D@_STL@@V?$allocator@D@2@@_STL@@U?$_Const_traits@V?$basic_string@DV?$char_traits@D@_STL@@V?$allocator@D@2@@_STL@@@2@@_STL@@QAE@PAU?$_List_node@V?$basic_string@DV?$char_traits@D@_STL@@V?$allocator@D@2@@_STL@@@1@@Z
_TEXT	SEGMENT
___x$ = 8						; size = 4
??0?$_List_iterator@V?$basic_string@DV?$char_traits@D@_STL@@V?$allocator@D@2@@_STL@@U?$_Const_traits@V?$basic_string@DV?$char_traits@D@_STL@@V?$allocator@D@2@@_STL@@@2@@_STL@@QAE@PAU?$_List_node@V?$basic_string@DV?$char_traits@D@_STL@@V?$allocator@D@2@@_STL@@@1@@Z PROC NEAR ; _STL::_List_iterator<_STL::basic_string<char,_STL::char_traits<char>,_STL::allocator<char> >,_STL::_Const_traits<_STL::basic_string<char,_STL::char_traits<char>,_STL::allocator<char> > > >::_List_iterator<_STL::basic_string<char,_STL::char_traits<char>,_STL::allocator<char> >,_STL::_Const_traits<_STL::basic_string<char,_STL::char_traits<char>,_STL::allocator<char> > > >, COMDAT
; _this$ = ecx

; 126  :   _List_iterator(_Node* __x) : _List_iterator_base(__x) {}

  00000	8b c1		 mov	 eax, ecx
  00002	8b 4c 24 04	 mov	 ecx, DWORD PTR ___x$[esp-4]
  00006	89 08		 mov	 DWORD PTR [eax], ecx
  00008	c2 04 00	 ret	 4
??0?$_List_iterator@V?$basic_string@DV?$char_traits@D@_STL@@V?$allocator@D@2@@_STL@@U?$_Const_traits@V?$basic_string@DV?$char_traits@D@_STL@@V?$allocator@D@2@@_STL@@@2@@_STL@@QAE@PAU?$_List_node@V?$basic_string@DV?$char_traits@D@_STL@@V?$allocator@D@2@@_STL@@@1@@Z ENDP ; _STL::_List_iterator<_STL::basic_string<char,_STL::char_traits<char>,_STL::allocator<char> >,_STL::_Const_traits<_STL::basic_string<char,_STL::char_traits<char>,_STL::allocator<char> > > >::_List_iterator<_STL::basic_string<char,_STL::char_traits<char>,_STL::allocator<char> >,_STL::_Const_traits<_STL::basic_string<char,_STL::char_traits<char>,_STL::allocator<char> > > >
_TEXT	ENDS
PUBLIC	??1?$_STLP_alloc_proxy@PADDV?$allocator@D@_STL@@@_STL@@QAE@XZ ; _STL::_STLP_alloc_proxy<char *,char,_STL::allocator<char> >::~_STLP_alloc_proxy<char *,char,_STL::allocator<char> >
; Function compile flags: /Ogsy
;	COMDAT ??1?$_STLP_alloc_proxy@PADDV?$allocator@D@_STL@@@_STL@@QAE@XZ
_TEXT	SEGMENT
??1?$_STLP_alloc_proxy@PADDV?$allocator@D@_STL@@@_STL@@QAE@XZ PROC NEAR ; _STL::_STLP_alloc_proxy<char *,char,_STL::allocator<char> >::~_STLP_alloc_proxy<char *,char,_STL::allocator<char> >, COMDAT
; _this$ = ecx
  00000	c3		 ret	 0
??1?$_STLP_alloc_proxy@PADDV?$allocator@D@_STL@@@_STL@@QAE@XZ ENDP ; _STL::_STLP_alloc_proxy<char *,char,_STL::allocator<char> >::~_STLP_alloc_proxy<char *,char,_STL::allocator<char> >
_TEXT	ENDS
PUBLIC	??1?$allocator@U?$_List_node@V?$basic_string@DV?$char_traits@D@_STL@@V?$allocator@D@2@@_STL@@@_STL@@@_STL@@QAE@XZ ; _STL::allocator<_STL::_List_node<_STL::basic_string<char,_STL::char_traits<char>,_STL::allocator<char> > > >::~allocator<_STL::_List_node<_STL::basic_string<char,_STL::char_traits<char>,_STL::allocator<char> > > >
; Function compile flags: /Ogsy
; File c:\stlport-4.6.1\stlport\stl\_alloc.h
;	COMDAT ??1?$allocator@U?$_List_node@V?$basic_string@DV?$char_traits@D@_STL@@V?$allocator@D@2@@_STL@@@_STL@@@_STL@@QAE@XZ
_TEXT	SEGMENT
??1?$allocator@U?$_List_node@V?$basic_string@DV?$char_traits@D@_STL@@V?$allocator@D@2@@_STL@@@_STL@@@_STL@@QAE@XZ PROC NEAR ; _STL::allocator<_STL::_List_node<_STL::basic_string<char,_STL::char_traits<char>,_STL::allocator<char> > > >::~allocator<_STL::_List_node<_STL::basic_string<char,_STL::char_traits<char>,_STL::allocator<char> > > >, COMDAT
; _this$ = ecx

; 350  :   ~allocator() _STLP_NOTHROW {}

  00000	c3		 ret	 0
??1?$allocator@U?$_List_node@V?$basic_string@DV?$char_traits@D@_STL@@V?$allocator@D@2@@_STL@@@_STL@@@_STL@@QAE@XZ ENDP ; _STL::allocator<_STL::_List_node<_STL::basic_string<char,_STL::char_traits<char>,_STL::allocator<char> > > >::~allocator<_STL::_List_node<_STL::basic_string<char,_STL::char_traits<char>,_STL::allocator<char> > > >
_TEXT	ENDS
PUBLIC	??0?$_List_iterator@V?$basic_string@DV?$char_traits@D@_STL@@V?$allocator@D@2@@_STL@@U?$_Nonconst_traits@V?$basic_string@DV?$char_traits@D@_STL@@V?$allocator@D@2@@_STL@@@2@@_STL@@QAE@PAU?$_List_node@V?$basic_string@DV?$char_traits@D@_STL@@V?$allocator@D@2@@_STL@@@1@@Z ; _STL::_List_iterator<_STL::basic_string<char,_STL::char_traits<char>,_STL::allocator<char> >,_STL::_Nonconst_traits<_STL::basic_string<char,_STL::char_traits<char>,_STL::allocator<char> > > >::_List_iterator<_STL::basic_string<char,_STL::char_traits<char>,_STL::allocator<char> >,_STL::_Nonconst_traits<_STL::basic_string<char,_STL::char_traits<char>,_STL::allocator<char> > > >
; Function compile flags: /Ogsy
; File c:\stlport-4.6.1\stlport\stl\_list.h
;	COMDAT ??0?$_List_iterator@V?$basic_string@DV?$char_traits@D@_STL@@V?$allocator@D@2@@_STL@@U?$_Nonconst_traits@V?$basic_string@DV?$char_traits@D@_STL@@V?$allocator@D@2@@_STL@@@2@@_STL@@QAE@PAU?$_List_node@V?$basic_string@DV?$char_traits@D@_STL@@V?$allocator@D@2@@_STL@@@1@@Z
_TEXT	SEGMENT
___x$ = 8						; size = 4
??0?$_List_iterator@V?$basic_string@DV?$char_traits@D@_STL@@V?$allocator@D@2@@_STL@@U?$_Nonconst_traits@V?$basic_string@DV?$char_traits@D@_STL@@V?$allocator@D@2@@_STL@@@2@@_STL@@QAE@PAU?$_List_node@V?$basic_string@DV?$char_traits@D@_STL@@V?$allocator@D@2@@_STL@@@1@@Z PROC NEAR ; _STL::_List_iterator<_STL::basic_string<char,_STL::char_traits<char>,_STL::allocator<char> >,_STL::_Nonconst_traits<_STL::basic_string<char,_STL::char_traits<char>,_STL::allocator<char> > > >::_List_iterator<_STL::basic_string<char,_STL::char_traits<char>,_STL::allocator<char> >,_STL::_Nonconst_traits<_STL::basic_string<char,_STL::char_traits<char>,_STL::allocator<char> > > >, COMDAT
; _this$ = ecx

; 126  :   _List_iterator(_Node* __x) : _List_iterator_base(__x) {}

  00000	8b c1		 mov	 eax, ecx
  00002	8b 4c 24 04	 mov	 ecx, DWORD PTR ___x$[esp-4]
  00006	89 08		 mov	 DWORD PTR [eax], ecx
  00008	c2 04 00	 ret	 4
??0?$_List_iterator@V?$basic_string@DV?$char_traits@D@_STL@@V?$allocator@D@2@@_STL@@U?$_Nonconst_traits@V?$basic_string@DV?$char_traits@D@_STL@@V?$allocator@D@2@@_STL@@@2@@_STL@@QAE@PAU?$_List_node@V?$basic_string@DV?$char_traits@D@_STL@@V?$allocator@D@2@@_STL@@@1@@Z ENDP ; _STL::_List_iterator<_STL::basic_string<char,_STL::char_traits<char>,_STL::allocator<char> >,_STL::_Nonconst_traits<_STL::basic_string<char,_STL::char_traits<char>,_STL::allocator<char> > > >::_List_iterator<_STL::basic_string<char,_STL::char_traits<char>,_STL::allocator<char> >,_STL::_Nonconst_traits<_STL::basic_string<char,_STL::char_traits<char>,_STL::allocator<char> > > >
_TEXT	ENDS
PUBLIC	??0?$allocator@U?$_List_node@V?$basic_string@DV?$char_traits@D@_STL@@V?$allocator@D@2@@_STL@@@_STL@@@_STL@@QAE@ABV01@@Z ; _STL::allocator<_STL::_List_node<_STL::basic_string<char,_STL::char_traits<char>,_STL::allocator<char> > > >::allocator<_STL::_List_node<_STL::basic_string<char,_STL::char_traits<char>,_STL::allocator<char> > > >
; Function compile flags: /Ogsy
; File c:\stlport-4.6.1\stlport\stl\_alloc.h
;	COMDAT ??0?$allocator@U?$_List_node@V?$basic_string@DV?$char_traits@D@_STL@@V?$allocator@D@2@@_STL@@@_STL@@@_STL@@QAE@ABV01@@Z
_TEXT	SEGMENT
___formal$ = 8						; size = 4
??0?$allocator@U?$_List_node@V?$basic_string@DV?$char_traits@D@_STL@@V?$allocator@D@2@@_STL@@@_STL@@@_STL@@QAE@ABV01@@Z PROC NEAR ; _STL::allocator<_STL::_List_node<_STL::basic_string<char,_STL::char_traits<char>,_STL::allocator<char> > > >::allocator<_STL::_List_node<_STL::basic_string<char,_STL::char_traits<char>,_STL::allocator<char> > > >, COMDAT
; _this$ = ecx

; 349  :   allocator(const allocator<_Tp>&) _STLP_NOTHROW {}

  00000	8b c1		 mov	 eax, ecx
  00002	c2 04 00	 ret	 4
??0?$allocator@U?$_List_node@V?$basic_string@DV?$char_traits@D@_STL@@V?$allocator@D@2@@_STL@@@_STL@@@_STL@@QAE@ABV01@@Z ENDP ; _STL::allocator<_STL::_List_node<_STL::basic_string<char,_STL::char_traits<char>,_STL::allocator<char> > > >::allocator<_STL::_List_node<_STL::basic_string<char,_STL::char_traits<char>,_STL::allocator<char> > > >
_TEXT	ENDS
PUBLIC	?allocate@?$__node_alloc@$00$0A@@_STL@@SAPAXI@Z	; _STL::__node_alloc<1,0>::allocate
EXTRN	?_M_allocate@?$__node_alloc@$00$0A@@_STL@@CAPAXI@Z:NEAR ; _STL::__node_alloc<1,0>::_M_allocate
; Function compile flags: /Ogsy
;	COMDAT ?allocate@?$__node_alloc@$00$0A@@_STL@@SAPAXI@Z
_TEXT	SEGMENT
___n$ = 8						; size = 4
?allocate@?$__node_alloc@$00$0A@@_STL@@SAPAXI@Z PROC NEAR ; _STL::__node_alloc<1,0>::allocate, COMDAT

; 251  :   static void * _STLP_CALL allocate(size_t __n) { return (__n > (size_t)_MAX_BYTES) ?  __stl_new(__n) : _M_allocate(__n); }

  00000	8b 44 24 04	 mov	 eax, DWORD PTR ___n$[esp-4]
  00004	3d 80 00 00 00	 cmp	 eax, 128		; 00000080H
  00009	50		 push	 eax
  0000a	76 07		 jbe	 SHORT $L101654
  0000c	e8 00 00 00 00	 call	 ??2@YAPAXI@Z		; operator new
  00011	59		 pop	 ecx
  00012	c3		 ret	 0
$L101654:
  00013	e8 00 00 00 00	 call	 ?_M_allocate@?$__node_alloc@$00$0A@@_STL@@CAPAXI@Z ; _STL::__node_alloc<1,0>::_M_allocate
  00018	59		 pop	 ecx
  00019	c3		 ret	 0
?allocate@?$__node_alloc@$00$0A@@_STL@@SAPAXI@Z ENDP	; _STL::__node_alloc<1,0>::allocate
_TEXT	ENDS
PUBLIC	?deallocate@?$__node_alloc@$00$0A@@_STL@@SAXPAXI@Z ; _STL::__node_alloc<1,0>::deallocate
EXTRN	?_M_deallocate@?$__node_alloc@$00$0A@@_STL@@CAXPAXI@Z:NEAR ; _STL::__node_alloc<1,0>::_M_deallocate
; Function compile flags: /Ogsy
;	COMDAT ?deallocate@?$__node_alloc@$00$0A@@_STL@@SAXPAXI@Z
_TEXT	SEGMENT
___p$ = 8						; size = 4
___n$ = 12						; size = 4
?deallocate@?$__node_alloc@$00$0A@@_STL@@SAXPAXI@Z PROC NEAR ; _STL::__node_alloc<1,0>::deallocate, COMDAT

; 253  :   static void _STLP_CALL deallocate(void *__p, size_t __n) { if (__n > (size_t)_MAX_BYTES) __stl_delete(__p); else _M_deallocate(__p, __n); }

  00000	81 7c 24 08 80
	00 00 00	 cmp	 DWORD PTR ___n$[esp-4], 128 ; 00000080H
  00008	76 0b		 jbe	 SHORT $L98677
  0000a	ff 74 24 04	 push	 DWORD PTR ___p$[esp-4]
  0000e	e8 00 00 00 00	 call	 ??3@YAXPAX@Z		; operator delete
  00013	59		 pop	 ecx
  00014	c3		 ret	 0
$L98677:
  00015	e9 00 00 00 00	 jmp	 ?_M_deallocate@?$__node_alloc@$00$0A@@_STL@@CAXPAXI@Z ; _STL::__node_alloc<1,0>::_M_deallocate
?deallocate@?$__node_alloc@$00$0A@@_STL@@SAXPAXI@Z ENDP	; _STL::__node_alloc<1,0>::deallocate
_TEXT	ENDS
PUBLIC	??$?0V?$basic_string@DV?$char_traits@D@_STL@@V?$allocator@D@2@@_STL@@@?$allocator@U?$_List_node@V?$basic_string@DV?$char_traits@D@_STL@@V?$allocator@D@2@@_STL@@@_STL@@@_STL@@QAE@ABV?$allocator@V?$basic_string@DV?$char_traits@D@_STL@@V?$allocator@D@2@@_STL@@@1@@Z ; _STL::allocator<_STL::_List_node<_STL::basic_string<char,_STL::char_traits<char>,_STL::allocator<char> > > >::allocator<_STL::_List_node<_STL::basic_string<char,_STL::char_traits<char>,_STL::allocator<char> > > ><_STL::basic_string<char,_STL::char_traits<char>,_STL::allocator<char> > >
; Function compile flags: /Ogsy
;	COMDAT ??$?0V?$basic_string@DV?$char_traits@D@_STL@@V?$allocator@D@2@@_STL@@@?$allocator@U?$_List_node@V?$basic_string@DV?$char_traits@D@_STL@@V?$allocator@D@2@@_STL@@@_STL@@@_STL@@QAE@ABV?$allocator@V?$basic_string@DV?$char_traits@D@_STL@@V?$allocator@D@2@@_STL@@@1@@Z
_TEXT	SEGMENT
___formal$ = 8						; size = 4
??$?0V?$basic_string@DV?$char_traits@D@_STL@@V?$allocator@D@2@@_STL@@@?$allocator@U?$_List_node@V?$basic_string@DV?$char_traits@D@_STL@@V?$allocator@D@2@@_STL@@@_STL@@@_STL@@QAE@ABV?$allocator@V?$basic_string@DV?$char_traits@D@_STL@@V?$allocator@D@2@@_STL@@@1@@Z PROC NEAR ; _STL::allocator<_STL::_List_node<_STL::basic_string<char,_STL::char_traits<char>,_STL::allocator<char> > > >::allocator<_STL::_List_node<_STL::basic_string<char,_STL::char_traits<char>,_STL::allocator<char> > > ><_STL::basic_string<char,_STL::char_traits<char>,_STL::allocator<char> > >, COMDAT
; _this$ = ecx

; 347  :   template <class _Tp1> allocator(const allocator<_Tp1>&) _STLP_NOTHROW {}

  00000	8b c1		 mov	 eax, ecx
  00002	c2 04 00	 ret	 4
??$?0V?$basic_string@DV?$char_traits@D@_STL@@V?$allocator@D@2@@_STL@@@?$allocator@U?$_List_node@V?$basic_string@DV?$char_traits@D@_STL@@V?$allocator@D@2@@_STL@@@_STL@@@_STL@@QAE@ABV?$allocator@V?$basic_string@DV?$char_traits@D@_STL@@V?$allocator@D@2@@_STL@@@1@@Z ENDP ; _STL::allocator<_STL::_List_node<_STL::basic_string<char,_STL::char_traits<char>,_STL::allocator<char> > > >::allocator<_STL::_List_node<_STL::basic_string<char,_STL::char_traits<char>,_STL::allocator<char> > > ><_STL::basic_string<char,_STL::char_traits<char>,_STL::allocator<char> > >
_TEXT	ENDS
PUBLIC	?get_allocator@?$basic_string@DV?$char_traits@D@_STL@@V?$allocator@D@2@@_STL@@QBE?AV?$allocator@D@2@XZ ; _STL::basic_string<char,_STL::char_traits<char>,_STL::allocator<char> >::get_allocator
; Function compile flags: /Ogsy
; File c:\stlport-4.6.1\stlport\stl\_string.h
;	COMDAT ?get_allocator@?$basic_string@DV?$char_traits@D@_STL@@V?$allocator@D@2@@_STL@@QBE?AV?$allocator@D@2@XZ
_TEXT	SEGMENT
___$ReturnUdt$ = 8					; size = 4
?get_allocator@?$basic_string@DV?$char_traits@D@_STL@@V?$allocator@D@2@@_STL@@QBE?AV?$allocator@D@2@XZ PROC NEAR ; _STL::basic_string<char,_STL::char_traits<char>,_STL::allocator<char> >::get_allocator, COMDAT
; _this$ = ecx

; 216  :     return _STLP_CONVERT_ALLOCATOR((const allocator_type&)this->_M_end_of_storage, _CharT);

  00000	8b 44 24 04	 mov	 eax, DWORD PTR ___$ReturnUdt$[esp-4]

; 217  :   }

  00004	c2 04 00	 ret	 4
?get_allocator@?$basic_string@DV?$char_traits@D@_STL@@V?$allocator@D@2@@_STL@@QBE?AV?$allocator@D@2@XZ ENDP ; _STL::basic_string<char,_STL::char_traits<char>,_STL::allocator<char> >::get_allocator
_TEXT	ENDS
PUBLIC	?_M_terminate_string@?$basic_string@DV?$char_traits@D@_STL@@V?$allocator@D@2@@_STL@@AAEXXZ ; _STL::basic_string<char,_STL::char_traits<char>,_STL::allocator<char> >::_M_terminate_string
; Function compile flags: /Ogsy
;	COMDAT ?_M_terminate_string@?$basic_string@DV?$char_traits@D@_STL@@V?$allocator@D@2@@_STL@@AAEXXZ
_TEXT	SEGMENT
?_M_terminate_string@?$basic_string@DV?$char_traits@D@_STL@@V?$allocator@D@2@@_STL@@AAEXXZ PROC NEAR ; _STL::basic_string<char,_STL::char_traits<char>,_STL::allocator<char> >::_M_terminate_string, COMDAT
; _this$ = ecx

; 355  :     _M_terminate_string_aux(_Char_Is_Integral());

  00000	8b 41 04	 mov	 eax, DWORD PTR [ecx+4]
  00003	c6 00 00	 mov	 BYTE PTR [eax], 0

; 356  :   }

  00006	c3		 ret	 0
?_M_terminate_string@?$basic_string@DV?$char_traits@D@_STL@@V?$allocator@D@2@@_STL@@AAEXXZ ENDP ; _STL::basic_string<char,_STL::char_traits<char>,_STL::allocator<char> >::_M_terminate_string
_TEXT	ENDS
PUBLIC	?allocate@?$allocator@D@_STL@@QAEPADIPBX@Z	; _STL::allocator<char>::allocate
; Function compile flags: /Ogsy
; File c:\stlport-4.6.1\stlport\stl\_alloc.h
;	COMDAT ?allocate@?$allocator@D@_STL@@QAEPADIPBX@Z
_TEXT	SEGMENT
___n$ = 8						; size = 4
___formal$ = 12						; size = 4
?allocate@?$allocator@D@_STL@@QAEPADIPBX@Z PROC NEAR	; _STL::allocator<char>::allocate, COMDAT
; _this$ = ecx

; 355  :     return __n != 0 ? __REINTERPRET_CAST(value_type*,__sgi_alloc::allocate(__n * sizeof(value_type))) : 0;

  00000	33 c0		 xor	 eax, eax
  00002	39 44 24 04	 cmp	 DWORD PTR ___n$[esp-4], eax
  00006	74 0a		 je	 SHORT $L101683
  00008	ff 74 24 04	 push	 DWORD PTR ___n$[esp-4]
  0000c	e8 00 00 00 00	 call	 ?allocate@?$__node_alloc@$00$0A@@_STL@@SAPAXI@Z ; _STL::__node_alloc<1,0>::allocate
  00011	59		 pop	 ecx
$L101683:

; 356  :   }

  00012	c2 08 00	 ret	 8
?allocate@?$allocator@D@_STL@@QAEPADIPBX@Z ENDP		; _STL::allocator<char>::allocate
_TEXT	ENDS
PUBLIC	??0?$_STLP_alloc_proxy@PADDV?$allocator@D@_STL@@@_STL@@QAE@ABV?$allocator@D@1@PAD@Z ; _STL::_STLP_alloc_proxy<char *,char,_STL::allocator<char> >::_STLP_alloc_proxy<char *,char,_STL::allocator<char> >
; Function compile flags: /Ogsy
;	COMDAT ??0?$_STLP_alloc_proxy@PADDV?$allocator@D@_STL@@@_STL@@QAE@ABV?$allocator@D@1@PAD@Z
_TEXT	SEGMENT
___a$ = 8						; size = 4
___p$ = 12						; size = 4
??0?$_STLP_alloc_proxy@PADDV?$allocator@D@_STL@@@_STL@@QAE@ABV?$allocator@D@1@PAD@Z PROC NEAR ; _STL::_STLP_alloc_proxy<char *,char,_STL::allocator<char> >::_STLP_alloc_proxy<char *,char,_STL::allocator<char> >, COMDAT
; _this$ = ecx

; 487  :   inline _STLP_alloc_proxy(const _MaybeReboundAlloc& __a, _Value __p) : _MaybeReboundAlloc(__a), _M_data(__p) {}

  00000	8b c1		 mov	 eax, ecx
  00002	8b 4c 24 08	 mov	 ecx, DWORD PTR ___p$[esp-4]
  00006	89 08		 mov	 DWORD PTR [eax], ecx
  00008	c2 08 00	 ret	 8
??0?$_STLP_alloc_proxy@PADDV?$allocator@D@_STL@@@_STL@@QAE@ABV?$allocator@D@1@PAD@Z ENDP ; _STL::_STLP_alloc_proxy<char *,char,_STL::allocator<char> >::_STLP_alloc_proxy<char *,char,_STL::allocator<char> >
_TEXT	ENDS
PUBLIC	?get_allocator@?$_List_base@V?$basic_string@DV?$char_traits@D@_STL@@V?$allocator@D@2@@_STL@@V?$allocator@V?$basic_string@DV?$char_traits@D@_STL@@V?$allocator@D@2@@_STL@@@2@@_STL@@QBE?AV?$allocator@V?$basic_string@DV?$char_traits@D@_STL@@V?$allocator@D@2@@_STL@@@2@XZ ; _STL::_List_base<_STL::basic_string<char,_STL::char_traits<char>,_STL::allocator<char> >,_STL::allocator<_STL::basic_string<char,_STL::char_traits<char>,_STL::allocator<char> > > >::get_allocator
; Function compile flags: /Ogsy
; File c:\stlport-4.6.1\stlport\stl\_list.h
;	COMDAT ?get_allocator@?$_List_base@V?$basic_string@DV?$char_traits@D@_STL@@V?$allocator@D@2@@_STL@@V?$allocator@V?$basic_string@DV?$char_traits@D@_STL@@V?$allocator@D@2@@_STL@@@2@@_STL@@QBE?AV?$allocator@V?$basic_string@DV?$char_traits@D@_STL@@V?$allocator@D@2@@_STL@@@2@XZ
_TEXT	SEGMENT
___$ReturnUdt$ = 8					; size = 4
?get_allocator@?$_List_base@V?$basic_string@DV?$char_traits@D@_STL@@V?$allocator@D@2@@_STL@@V?$allocator@V?$basic_string@DV?$char_traits@D@_STL@@V?$allocator@D@2@@_STL@@@2@@_STL@@QBE?AV?$allocator@V?$basic_string@DV?$char_traits@D@_STL@@V?$allocator@D@2@@_STL@@@2@XZ PROC NEAR ; _STL::_List_base<_STL::basic_string<char,_STL::char_traits<char>,_STL::allocator<char> >,_STL::allocator<_STL::basic_string<char,_STL::char_traits<char>,_STL::allocator<char> > > >::get_allocator, COMDAT
; _this$ = ecx

; 179  :     return _STLP_CONVERT_ALLOCATOR((const _Node_allocator_type&)_M_node, _Tp);

  00000	8b 44 24 04	 mov	 eax, DWORD PTR ___$ReturnUdt$[esp-4]

; 180  :   }

  00004	c2 04 00	 ret	 4
?get_allocator@?$_List_base@V?$basic_string@DV?$char_traits@D@_STL@@V?$allocator@D@2@@_STL@@V?$allocator@V?$basic_string@DV?$char_traits@D@_STL@@V?$allocator@D@2@@_STL@@@2@@_STL@@QBE?AV?$allocator@V?$basic_string@DV?$char_traits@D@_STL@@V?$allocator@D@2@@_STL@@@2@XZ ENDP ; _STL::_List_base<_STL::basic_string<char,_STL::char_traits<char>,_STL::allocator<char> >,_STL::allocator<_STL::basic_string<char,_STL::char_traits<char>,_STL::allocator<char> > > >::get_allocator
_TEXT	ENDS
PUBLIC	??0?$_List_iterator@V?$basic_string@DV?$char_traits@D@_STL@@V?$allocator@D@2@@_STL@@U?$_Nonconst_traits@V?$basic_string@DV?$char_traits@D@_STL@@V?$allocator@D@2@@_STL@@@2@@_STL@@QAE@ABU01@@Z ; _STL::_List_iterator<_STL::basic_string<char,_STL::char_traits<char>,_STL::allocator<char> >,_STL::_Nonconst_traits<_STL::basic_string<char,_STL::char_traits<char>,_STL::allocator<char> > > >::_List_iterator<_STL::basic_string<char,_STL::char_traits<char>,_STL::allocator<char> >,_STL::_Nonconst_traits<_STL::basic_string<char,_STL::char_traits<char>,_STL::allocator<char> > > >
; Function compile flags: /Ogsy
;	COMDAT ??0?$_List_iterator@V?$basic_string@DV?$char_traits@D@_STL@@V?$allocator@D@2@@_STL@@U?$_Nonconst_traits@V?$basic_string@DV?$char_traits@D@_STL@@V?$allocator@D@2@@_STL@@@2@@_STL@@QAE@ABU01@@Z
_TEXT	SEGMENT
___x$ = 8						; size = 4
??0?$_List_iterator@V?$basic_string@DV?$char_traits@D@_STL@@V?$allocator@D@2@@_STL@@U?$_Nonconst_traits@V?$basic_string@DV?$char_traits@D@_STL@@V?$allocator@D@2@@_STL@@@2@@_STL@@QAE@ABU01@@Z PROC NEAR ; _STL::_List_iterator<_STL::basic_string<char,_STL::char_traits<char>,_STL::allocator<char> >,_STL::_Nonconst_traits<_STL::basic_string<char,_STL::char_traits<char>,_STL::allocator<char> > > >::_List_iterator<_STL::basic_string<char,_STL::char_traits<char>,_STL::allocator<char> >,_STL::_Nonconst_traits<_STL::basic_string<char,_STL::char_traits<char>,_STL::allocator<char> > > >, COMDAT
; _this$ = ecx

; 128  :   _List_iterator(const iterator& __x) :  _List_iterator_base(__x._M_node) {}

  00000	8b c1		 mov	 eax, ecx
  00002	8b 4c 24 04	 mov	 ecx, DWORD PTR ___x$[esp-4]
  00006	8b 09		 mov	 ecx, DWORD PTR [ecx]
  00008	89 08		 mov	 DWORD PTR [eax], ecx
  0000a	c2 04 00	 ret	 4
??0?$_List_iterator@V?$basic_string@DV?$char_traits@D@_STL@@V?$allocator@D@2@@_STL@@U?$_Nonconst_traits@V?$basic_string@DV?$char_traits@D@_STL@@V?$allocator@D@2@@_STL@@@2@@_STL@@QAE@ABU01@@Z ENDP ; _STL::_List_iterator<_STL::basic_string<char,_STL::char_traits<char>,_STL::allocator<char> >,_STL::_Nonconst_traits<_STL::basic_string<char,_STL::char_traits<char>,_STL::allocator<char> > > >::_List_iterator<_STL::basic_string<char,_STL::char_traits<char>,_STL::allocator<char> >,_STL::_Nonconst_traits<_STL::basic_string<char,_STL::char_traits<char>,_STL::allocator<char> > > >
_TEXT	ENDS
PUBLIC	??E?$_List_iterator@V?$basic_string@DV?$char_traits@D@_STL@@V?$allocator@D@2@@_STL@@U?$_Const_traits@V?$basic_string@DV?$char_traits@D@_STL@@V?$allocator@D@2@@_STL@@@2@@_STL@@QAEAAU01@XZ ; _STL::_List_iterator<_STL::basic_string<char,_STL::char_traits<char>,_STL::allocator<char> >,_STL::_Const_traits<_STL::basic_string<char,_STL::char_traits<char>,_STL::allocator<char> > > >::operator++
; Function compile flags: /Ogsy
;	COMDAT ??E?$_List_iterator@V?$basic_string@DV?$char_traits@D@_STL@@V?$allocator@D@2@@_STL@@U?$_Const_traits@V?$basic_string@DV?$char_traits@D@_STL@@V?$allocator@D@2@@_STL@@@2@@_STL@@QAEAAU01@XZ
_TEXT	SEGMENT
??E?$_List_iterator@V?$basic_string@DV?$char_traits@D@_STL@@V?$allocator@D@2@@_STL@@U?$_Const_traits@V?$basic_string@DV?$char_traits@D@_STL@@V?$allocator@D@2@@_STL@@@2@@_STL@@QAEAAU01@XZ PROC NEAR ; _STL::_List_iterator<_STL::basic_string<char,_STL::char_traits<char>,_STL::allocator<char> >,_STL::_Const_traits<_STL::basic_string<char,_STL::char_traits<char>,_STL::allocator<char> > > >::operator++, COMDAT
; _this$ = ecx

; 134  :   _Self& operator++() { 

  00000	8b c1		 mov	 eax, ecx

; 135  :     this->_M_incr();

  00002	8b 08		 mov	 ecx, DWORD PTR [eax]
  00004	8b 09		 mov	 ecx, DWORD PTR [ecx]
  00006	89 08		 mov	 DWORD PTR [eax], ecx

; 136  :     return *this;
; 137  :   }

  00008	c3		 ret	 0
??E?$_List_iterator@V?$basic_string@DV?$char_traits@D@_STL@@V?$allocator@D@2@@_STL@@U?$_Const_traits@V?$basic_string@DV?$char_traits@D@_STL@@V?$allocator@D@2@@_STL@@@2@@_STL@@QAEAAU01@XZ ENDP ; _STL::_List_iterator<_STL::basic_string<char,_STL::char_traits<char>,_STL::allocator<char> >,_STL::_Const_traits<_STL::basic_string<char,_STL::char_traits<char>,_STL::allocator<char> > > >::operator++
_TEXT	ENDS
PUBLIC	??$distance@PBD@_STL@@YAHABQBD0@Z		; _STL::distance<char const *>
; Function compile flags: /Ogsy
; File c:\stlport-4.6.1\stlport\stl\_iterator_base.h
;	COMDAT ??$distance@PBD@_STL@@YAHABQBD0@Z
_TEXT	SEGMENT
___first$ = 8						; size = 4
___last$ = 12						; size = 4
??$distance@PBD@_STL@@YAHABQBD0@Z PROC NEAR		; _STL::distance<char const *>, COMDAT

; 369  :   return __distance(__first, __last, _STLP_ITERATOR_CATEGORY(__first, _InputIterator));  

  00000	8b 44 24 08	 mov	 eax, DWORD PTR ___last$[esp-4]
  00004	8b 00		 mov	 eax, DWORD PTR [eax]
  00006	8b 4c 24 04	 mov	 ecx, DWORD PTR ___first$[esp-4]
  0000a	2b 01		 sub	 eax, DWORD PTR [ecx]

; 370  : }

  0000c	c3		 ret	 0
??$distance@PBD@_STL@@YAHABQBD0@Z ENDP			; _STL::distance<char const *>
_TEXT	ENDS
PUBLIC	?_M_allocate_block@?$_String_base@DV?$allocator@D@_STL@@@_STL@@QAEXI@Z ; _STL::_String_base<char,_STL::allocator<char> >::_M_allocate_block
; Function compile flags: /Ogsy
; File c:\stlport-4.6.1\stlport\stl\_string.c
;	COMDAT ?_M_allocate_block@?$_String_base@DV?$allocator@D@_STL@@@_STL@@QAEXI@Z
_TEXT	SEGMENT
___n$ = 8						; size = 4
?_M_allocate_block@?$_String_base@DV?$allocator@D@_STL@@@_STL@@QAEXI@Z PROC NEAR ; _STL::_String_base<char,_STL::allocator<char> >::_M_allocate_block, COMDAT
; _this$ = ecx

; 530  : template <class _Tp, class _Alloc> void _String_base<_Tp, _Alloc>::_M_allocate_block(size_t __n) {  

  00000	56		 push	 esi
  00001	57		 push	 edi

; 531  :   if ((__n <= (max_size()+1)) && (__n>0)){ 

  00002	8b 7c 24 0c	 mov	 edi, DWORD PTR ___n$[esp+4]
  00006	83 ff ff	 cmp	 edi, -1
  00009	8b f1		 mov	 esi, ecx
  0000b	77 17		 ja	 SHORT $L100935
  0000d	85 ff		 test	 edi, edi
  0000f	76 13		 jbe	 SHORT $L100935

; 532  :     _M_start  = _M_end_of_storage.allocate(__n); 

  00011	57		 push	 edi
  00012	e8 00 00 00 00	 call	 ?allocate@?$__node_alloc@$00$0A@@_STL@@SAPAXI@Z ; _STL::__node_alloc<1,0>::allocate
  00017	89 06		 mov	 DWORD PTR [esi], eax

; 533  :     _M_finish = _M_start; 

  00019	89 46 04	 mov	 DWORD PTR [esi+4], eax

; 534  :     _M_end_of_storage._M_data = _M_start + __n; 

  0001c	03 c7		 add	 eax, edi
  0001e	59		 pop	 ecx
  0001f	89 46 08	 mov	 DWORD PTR [esi+8], eax

; 535  :   } 
; 536  :     else 

  00022	eb 07		 jmp	 SHORT $L100936
$L100935:

; 537  :       _M_throw_length_error(); 

  00024	8b ce		 mov	 ecx, esi
  00026	e8 00 00 00 00	 call	 ?_M_throw_length_error@?$_String_base@DV?$allocator@D@_STL@@@_STL@@QBEXXZ ; _STL::_String_base<char,_STL::allocator<char> >::_M_throw_length_error
$L100936:
  0002b	5f		 pop	 edi
  0002c	5e		 pop	 esi

; 538  : } 

  0002d	c2 04 00	 ret	 4
?_M_allocate_block@?$_String_base@DV?$allocator@D@_STL@@@_STL@@QAEXI@Z ENDP ; _STL::_String_base<char,_STL::allocator<char> >::_M_allocate_block
_TEXT	ENDS
PUBLIC	??$distance@PAD@_STL@@YAHABQAD0@Z		; _STL::distance<char *>
; Function compile flags: /Ogsy
; File c:\stlport-4.6.1\stlport\stl\_iterator_base.h
;	COMDAT ??$distance@PAD@_STL@@YAHABQAD0@Z
_TEXT	SEGMENT
___first$ = 8						; size = 4
___last$ = 12						; size = 4
??$distance@PAD@_STL@@YAHABQAD0@Z PROC NEAR		; _STL::distance<char *>, COMDAT

; 369  :   return __distance(__first, __last, _STLP_ITERATOR_CATEGORY(__first, _InputIterator));  

  00000	8b 44 24 08	 mov	 eax, DWORD PTR ___last$[esp-4]
  00004	8b 00		 mov	 eax, DWORD PTR [eax]
  00006	8b 4c 24 04	 mov	 ecx, DWORD PTR ___first$[esp-4]
  0000a	2b 01		 sub	 eax, DWORD PTR [ecx]

; 370  : }

  0000c	c3		 ret	 0
??$distance@PAD@_STL@@YAHABQAD0@Z ENDP			; _STL::distance<char *>
_TEXT	ENDS
PUBLIC	??$__copy_aux@PADPAD@_STL@@YAPADPAD00ABU__true_type@0@@Z ; _STL::__copy_aux<char *,char *>
; Function compile flags: /Ogsy
; File c:\stlport-4.6.1\stlport\stl\_algobase.h
;	COMDAT ??$__copy_aux@PADPAD@_STL@@YAPADPAD00ABU__true_type@0@@Z
_TEXT	SEGMENT
___first$ = 8						; size = 4
___last$ = 12						; size = 4
___result$ = 16						; size = 4
___formal$ = 20						; size = 4
??$__copy_aux@PADPAD@_STL@@YAPADPAD00ABU__true_type@0@@Z PROC NEAR ; _STL::__copy_aux<char *,char *>, COMDAT

; 202  :   return __copy_ptrs(__first, __last, __result, 
; 203  :                      _IsOKToMemCpy(_STLP_VALUE_TYPE(__first, _InputIter), 
; 204  :                                    _STLP_VALUE_TYPE(__result, _OutputIter))._Ret());

  00000	ff 74 24 0c	 push	 DWORD PTR ___result$[esp-4]
  00004	ff 74 24 0c	 push	 DWORD PTR ___last$[esp]
  00008	ff 74 24 0c	 push	 DWORD PTR ___first$[esp+4]
  0000c	e8 00 00 00 00	 call	 ?__copy_trivial@_STL@@YAPAXPBX0PAX@Z ; _STL::__copy_trivial
  00011	83 c4 0c	 add	 esp, 12			; 0000000cH

; 205  : }

  00014	c3		 ret	 0
??$__copy_aux@PADPAD@_STL@@YAPADPAD00ABU__true_type@0@@Z ENDP ; _STL::__copy_aux<char *,char *>
_TEXT	ENDS
PUBLIC	?begin@?$list@V?$basic_string@DV?$char_traits@D@_STL@@V?$allocator@D@2@@_STL@@V?$allocator@V?$basic_string@DV?$char_traits@D@_STL@@V?$allocator@D@2@@_STL@@@2@@_STL@@QBE?AU?$_List_iterator@V?$basic_string@DV?$char_traits@D@_STL@@V?$allocator@D@2@@_STL@@U?$_Const_traits@V?$basic_string@DV?$char_traits@D@_STL@@V?$allocator@D@2@@_STL@@@2@@2@XZ ; _STL::list<_STL::basic_string<char,_STL::char_traits<char>,_STL::allocator<char> >,_STL::allocator<_STL::basic_string<char,_STL::char_traits<char>,_STL::allocator<char> > > >::begin
; Function compile flags: /Ogsy
; File c:\stlport-4.6.1\stlport\stl\_list.h
;	COMDAT ?begin@?$list@V?$basic_string@DV?$char_traits@D@_STL@@V?$allocator@D@2@@_STL@@V?$allocator@V?$basic_string@DV?$char_traits@D@_STL@@V?$allocator@D@2@@_STL@@@2@@_STL@@QBE?AU?$_List_iterator@V?$basic_string@DV?$char_traits@D@_STL@@V?$allocator@D@2@@_STL@@U?$_Const_traits@V?$basic_string@DV?$char_traits@D@_STL@@V?$allocator@D@2@@_STL@@@2@@2@XZ
_TEXT	SEGMENT
___$ReturnUdt$ = 8					; size = 4
?begin@?$list@V?$basic_string@DV?$char_traits@D@_STL@@V?$allocator@D@2@@_STL@@V?$allocator@V?$basic_string@DV?$char_traits@D@_STL@@V?$allocator@D@2@@_STL@@@2@@_STL@@QBE?AU?$_List_iterator@V?$basic_string@DV?$char_traits@D@_STL@@V?$allocator@D@2@@_STL@@U?$_Const_traits@V?$basic_string@DV?$char_traits@D@_STL@@V?$allocator@D@2@@_STL@@@2@@2@XZ PROC NEAR ; _STL::list<_STL::basic_string<char,_STL::char_traits<char>,_STL::allocator<char> >,_STL::allocator<_STL::basic_string<char,_STL::char_traits<char>,_STL::allocator<char> > > >::begin, COMDAT
; _this$ = ecx

; 267  :   const_iterator begin() const { return const_iterator((_Node*)(this->_M_node._M_data->_M_next)); }

  00000	8b 01		 mov	 eax, DWORD PTR [ecx]
  00002	8b 08		 mov	 ecx, DWORD PTR [eax]
  00004	8b 44 24 04	 mov	 eax, DWORD PTR ___$ReturnUdt$[esp-4]
  00008	89 08		 mov	 DWORD PTR [eax], ecx
  0000a	c2 04 00	 ret	 4
?begin@?$list@V?$basic_string@DV?$char_traits@D@_STL@@V?$allocator@D@2@@_STL@@V?$allocator@V?$basic_string@DV?$char_traits@D@_STL@@V?$allocator@D@2@@_STL@@@2@@_STL@@QBE?AU?$_List_iterator@V?$basic_string@DV?$char_traits@D@_STL@@V?$allocator@D@2@@_STL@@U?$_Const_traits@V?$basic_string@DV?$char_traits@D@_STL@@V?$allocator@D@2@@_STL@@@2@@2@XZ ENDP ; _STL::list<_STL::basic_string<char,_STL::char_traits<char>,_STL::allocator<char> >,_STL::allocator<_STL::basic_string<char,_STL::char_traits<char>,_STL::allocator<char> > > >::begin
_TEXT	ENDS
PUBLIC	?end@?$list@V?$basic_string@DV?$char_traits@D@_STL@@V?$allocator@D@2@@_STL@@V?$allocator@V?$basic_string@DV?$char_traits@D@_STL@@V?$allocator@D@2@@_STL@@@2@@_STL@@QBE?AU?$_List_iterator@V?$basic_string@DV?$char_traits@D@_STL@@V?$allocator@D@2@@_STL@@U?$_Const_traits@V?$basic_string@DV?$char_traits@D@_STL@@V?$allocator@D@2@@_STL@@@2@@2@XZ ; _STL::list<_STL::basic_string<char,_STL::char_traits<char>,_STL::allocator<char> >,_STL::allocator<_STL::basic_string<char,_STL::char_traits<char>,_STL::allocator<char> > > >::end
; Function compile flags: /Ogsy
;	COMDAT ?end@?$list@V?$basic_string@DV?$char_traits@D@_STL@@V?$allocator@D@2@@_STL@@V?$allocator@V?$basic_string@DV?$char_traits@D@_STL@@V?$allocator@D@2@@_STL@@@2@@_STL@@QBE?AU?$_List_iterator@V?$basic_string@DV?$char_traits@D@_STL@@V?$allocator@D@2@@_STL@@U?$_Const_traits@V?$basic_string@DV?$char_traits@D@_STL@@V?$allocator@D@2@@_STL@@@2@@2@XZ
_TEXT	SEGMENT
___$ReturnUdt$ = 8					; size = 4
?end@?$list@V?$basic_string@DV?$char_traits@D@_STL@@V?$allocator@D@2@@_STL@@V?$allocator@V?$basic_string@DV?$char_traits@D@_STL@@V?$allocator@D@2@@_STL@@@2@@_STL@@QBE?AU?$_List_iterator@V?$basic_string@DV?$char_traits@D@_STL@@V?$allocator@D@2@@_STL@@U?$_Const_traits@V?$basic_string@DV?$char_traits@D@_STL@@V?$allocator@D@2@@_STL@@@2@@2@XZ PROC NEAR ; _STL::list<_STL::basic_string<char,_STL::char_traits<char>,_STL::allocator<char> >,_STL::allocator<_STL::basic_string<char,_STL::char_traits<char>,_STL::allocator<char> > > >::end, COMDAT
; _this$ = ecx

; 270  :   const_iterator end() const { return this->_M_node._M_data; }

  00000	8b 09		 mov	 ecx, DWORD PTR [ecx]
  00002	8b 44 24 04	 mov	 eax, DWORD PTR ___$ReturnUdt$[esp-4]
  00006	89 08		 mov	 DWORD PTR [eax], ecx
  00008	c2 04 00	 ret	 4
?end@?$list@V?$basic_string@DV?$char_traits@D@_STL@@V?$allocator@D@2@@_STL@@V?$allocator@V?$basic_string@DV?$char_traits@D@_STL@@V?$allocator@D@2@@_STL@@@2@@_STL@@QBE?AU?$_List_iterator@V?$basic_string@DV?$char_traits@D@_STL@@V?$allocator@D@2@@_STL@@U?$_Const_traits@V?$basic_string@DV?$char_traits@D@_STL@@V?$allocator@D@2@@_STL@@@2@@2@XZ ENDP ; _STL::list<_STL::basic_string<char,_STL::char_traits<char>,_STL::allocator<char> >,_STL::allocator<_STL::basic_string<char,_STL::char_traits<char>,_STL::allocator<char> > > >::end
_TEXT	ENDS
PUBLIC	?begin@?$list@V?$basic_string@DV?$char_traits@D@_STL@@V?$allocator@D@2@@_STL@@V?$allocator@V?$basic_string@DV?$char_traits@D@_STL@@V?$allocator@D@2@@_STL@@@2@@_STL@@QAE?AU?$_List_iterator@V?$basic_string@DV?$char_traits@D@_STL@@V?$allocator@D@2@@_STL@@U?$_Nonconst_traits@V?$basic_string@DV?$char_traits@D@_STL@@V?$allocator@D@2@@_STL@@@2@@2@XZ ; _STL::list<_STL::basic_string<char,_STL::char_traits<char>,_STL::allocator<char> >,_STL::allocator<_STL::basic_string<char,_STL::char_traits<char>,_STL::allocator<char> > > >::begin
; Function compile flags: /Ogsy
;	COMDAT ?begin@?$list@V?$basic_string@DV?$char_traits@D@_STL@@V?$allocator@D@2@@_STL@@V?$allocator@V?$basic_string@DV?$char_traits@D@_STL@@V?$allocator@D@2@@_STL@@@2@@_STL@@QAE?AU?$_List_iterator@V?$basic_string@DV?$char_traits@D@_STL@@V?$allocator@D@2@@_STL@@U?$_Nonconst_traits@V?$basic_string@DV?$char_traits@D@_STL@@V?$allocator@D@2@@_STL@@@2@@2@XZ
_TEXT	SEGMENT
___$ReturnUdt$ = 8					; size = 4
?begin@?$list@V?$basic_string@DV?$char_traits@D@_STL@@V?$allocator@D@2@@_STL@@V?$allocator@V?$basic_string@DV?$char_traits@D@_STL@@V?$allocator@D@2@@_STL@@@2@@_STL@@QAE?AU?$_List_iterator@V?$basic_string@DV?$char_traits@D@_STL@@V?$allocator@D@2@@_STL@@U?$_Nonconst_traits@V?$basic_string@DV?$char_traits@D@_STL@@V?$allocator@D@2@@_STL@@@2@@2@XZ PROC NEAR ; _STL::list<_STL::basic_string<char,_STL::char_traits<char>,_STL::allocator<char> >,_STL::allocator<_STL::basic_string<char,_STL::char_traits<char>,_STL::allocator<char> > > >::begin, COMDAT
; _this$ = ecx

; 266  :   iterator begin()             { return iterator((_Node*)(this->_M_node._M_data->_M_next)); }

  00000	8b 01		 mov	 eax, DWORD PTR [ecx]
  00002	8b 08		 mov	 ecx, DWORD PTR [eax]
  00004	8b 44 24 04	 mov	 eax, DWORD PTR ___$ReturnUdt$[esp-4]
  00008	89 08		 mov	 DWORD PTR [eax], ecx
  0000a	c2 04 00	 ret	 4
?begin@?$list@V?$basic_string@DV?$char_traits@D@_STL@@V?$allocator@D@2@@_STL@@V?$allocator@V?$basic_string@DV?$char_traits@D@_STL@@V?$allocator@D@2@@_STL@@@2@@_STL@@QAE?AU?$_List_iterator@V?$basic_string@DV?$char_traits@D@_STL@@V?$allocator@D@2@@_STL@@U?$_Nonconst_traits@V?$basic_string@DV?$char_traits@D@_STL@@V?$allocator@D@2@@_STL@@@2@@2@XZ ENDP ; _STL::list<_STL::basic_string<char,_STL::char_traits<char>,_STL::allocator<char> >,_STL::allocator<_STL::basic_string<char,_STL::char_traits<char>,_STL::allocator<char> > > >::begin
_TEXT	ENDS
PUBLIC	??1?$_STLP_alloc_proxy@PAU?$_List_node@V?$basic_string@DV?$char_traits@D@_STL@@V?$allocator@D@2@@_STL@@@_STL@@U12@V?$allocator@U?$_List_node@V?$basic_string@DV?$char_traits@D@_STL@@V?$allocator@D@2@@_STL@@@_STL@@@2@@_STL@@QAE@XZ ; _STL::_STLP_alloc_proxy<_STL::_List_node<_STL::basic_string<char,_STL::char_traits<char>,_STL::allocator<char> > > *,_STL::_List_node<_STL::basic_string<char,_STL::char_traits<char>,_STL::allocator<char> > >,_STL::allocator<_STL::_List_node<_STL::basic_string<char,_STL::char_traits<char>,_STL::allocator<char> > > > >::~_STLP_alloc_proxy<_STL::_List_node<_STL::basic_string<char,_STL::char_traits<char>,_STL::allocator<char> > > *,_STL::_List_node<_STL::basic_string<char,_STL::char_traits<char>,_STL::allocator<char> > >,_STL::allocator<_STL::_List_node<_STL::basic_string<char,_STL::char_traits<char>,_STL::allocator<char> > > > >
; Function compile flags: /Ogsy
;	COMDAT ??1?$_STLP_alloc_proxy@PAU?$_List_node@V?$basic_string@DV?$char_traits@D@_STL@@V?$allocator@D@2@@_STL@@@_STL@@U12@V?$allocator@U?$_List_node@V?$basic_string@DV?$char_traits@D@_STL@@V?$allocator@D@2@@_STL@@@_STL@@@2@@_STL@@QAE@XZ
_TEXT	SEGMENT
??1?$_STLP_alloc_proxy@PAU?$_List_node@V?$basic_string@DV?$char_traits@D@_STL@@V?$allocator@D@2@@_STL@@@_STL@@U12@V?$allocator@U?$_List_node@V?$basic_string@DV?$char_traits@D@_STL@@V?$allocator@D@2@@_STL@@@_STL@@@2@@_STL@@QAE@XZ PROC NEAR ; _STL::_STLP_alloc_proxy<_STL::_List_node<_STL::basic_string<char,_STL::char_traits<char>,_STL::allocator<char> > > *,_STL::_List_node<_STL::basic_string<char,_STL::char_traits<char>,_STL::allocator<char> > >,_STL::allocator<_STL::_List_node<_STL::basic_string<char,_STL::char_traits<char>,_STL::allocator<char> > > > >::~_STLP_alloc_proxy<_STL::_List_node<_STL::basic_string<char,_STL::char_traits<char>,_STL::allocator<char> > > *,_STL::_List_node<_STL::basic_string<char,_STL::char_traits<char>,_STL::allocator<char> > >,_STL::allocator<_STL::_List_node<_STL::basic_string<char,_STL::char_traits<char>,_STL::allocator<char> > > > >, COMDAT
; _this$ = ecx
  00000	c3		 ret	 0
??1?$_STLP_alloc_proxy@PAU?$_List_node@V?$basic_string@DV?$char_traits@D@_STL@@V?$allocator@D@2@@_STL@@@_STL@@U12@V?$allocator@U?$_List_node@V?$basic_string@DV?$char_traits@D@_STL@@V?$allocator@D@2@@_STL@@@_STL@@@2@@_STL@@QAE@XZ ENDP ; _STL::_STLP_alloc_proxy<_STL::_List_node<_STL::basic_string<char,_STL::char_traits<char>,_STL::allocator<char> > > *,_STL::_List_node<_STL::basic_string<char,_STL::char_traits<char>,_STL::allocator<char> > >,_STL::allocator<_STL::_List_node<_STL::basic_string<char,_STL::char_traits<char>,_STL::allocator<char> > > > >::~_STLP_alloc_proxy<_STL::_List_node<_STL::basic_string<char,_STL::char_traits<char>,_STL::allocator<char> > > *,_STL::_List_node<_STL::basic_string<char,_STL::char_traits<char>,_STL::allocator<char> > >,_STL::allocator<_STL::_List_node<_STL::basic_string<char,_STL::char_traits<char>,_STL::allocator<char> > > > >
_TEXT	ENDS
PUBLIC	??0?$_STLP_alloc_proxy@PAU?$_List_node@V?$basic_string@DV?$char_traits@D@_STL@@V?$allocator@D@2@@_STL@@@_STL@@U12@V?$allocator@U?$_List_node@V?$basic_string@DV?$char_traits@D@_STL@@V?$allocator@D@2@@_STL@@@_STL@@@2@@_STL@@QAE@ABV?$allocator@U?$_List_node@V?$basic_string@DV?$char_traits@D@_STL@@V?$allocator@D@2@@_STL@@@_STL@@@1@PAU?$_List_node@V?$basic_string@DV?$char_traits@D@_STL@@V?$allocator@D@2@@_STL@@@1@@Z ; _STL::_STLP_alloc_proxy<_STL::_List_node<_STL::basic_string<char,_STL::char_traits<char>,_STL::allocator<char> > > *,_STL::_List_node<_STL::basic_string<char,_STL::char_traits<char>,_STL::allocator<char> > >,_STL::allocator<_STL::_List_node<_STL::basic_string<char,_STL::char_traits<char>,_STL::allocator<char> > > > >::_STLP_alloc_proxy<_STL::_List_node<_STL::basic_string<char,_STL::char_traits<char>,_STL::allocator<char> > > *,_STL::_List_node<_STL::basic_string<char,_STL::char_traits<char>,_STL::allocator<char> > >,_STL::allocator<_STL::_List_node<_STL::basic_string<char,_STL::char_traits<char>,_STL::allocator<char> > > > >
; Function compile flags: /Ogsy
; File c:\stlport-4.6.1\stlport\stl\_alloc.h
;	COMDAT ??0?$_STLP_alloc_proxy@PAU?$_List_node@V?$basic_string@DV?$char_traits@D@_STL@@V?$allocator@D@2@@_STL@@@_STL@@U12@V?$allocator@U?$_List_node@V?$basic_string@DV?$char_traits@D@_STL@@V?$allocator@D@2@@_STL@@@_STL@@@2@@_STL@@QAE@ABV?$allocator@U?$_List_node@V?$basic_string@DV?$char_traits@D@_STL@@V?$allocator@D@2@@_STL@@@_STL@@@1@PAU?$_List_node@V?$basic_string@DV?$char_traits@D@_STL@@V?$allocator@D@2@@_STL@@@1@@Z
_TEXT	SEGMENT
___a$ = 8						; size = 4
___p$ = 12						; size = 4
??0?$_STLP_alloc_proxy@PAU?$_List_node@V?$basic_string@DV?$char_traits@D@_STL@@V?$allocator@D@2@@_STL@@@_STL@@U12@V?$allocator@U?$_List_node@V?$basic_string@DV?$char_traits@D@_STL@@V?$allocator@D@2@@_STL@@@_STL@@@2@@_STL@@QAE@ABV?$allocator@U?$_List_node@V?$basic_string@DV?$char_traits@D@_STL@@V?$allocator@D@2@@_STL@@@_STL@@@1@PAU?$_List_node@V?$basic_string@DV?$char_traits@D@_STL@@V?$allocator@D@2@@_STL@@@1@@Z PROC NEAR ; _STL::_STLP_alloc_proxy<_STL::_List_node<_STL::basic_string<char,_STL::char_traits<char>,_STL::allocator<char> > > *,_STL::_List_node<_STL::basic_string<char,_STL::char_traits<char>,_STL::allocator<char> > >,_STL::allocator<_STL::_List_node<_STL::basic_string<char,_STL::char_traits<char>,_STL::allocator<char> > > > >::_STLP_alloc_proxy<_STL::_List_node<_STL::basic_string<char,_STL::char_traits<char>,_STL::allocator<char> > > *,_STL::_List_node<_STL::basic_string<char,_STL::char_traits<char>,_STL::allocator<char> > >,_STL::allocator<_STL::_List_node<_STL::basic_string<char,_STL::char_traits<char>,_STL::allocator<char> > > > >, COMDAT
; _this$ = ecx

; 487  :   inline _STLP_alloc_proxy(const _MaybeReboundAlloc& __a, _Value __p) : _MaybeReboundAlloc(__a), _M_data(__p) {}

  00000	8b c1		 mov	 eax, ecx
  00002	8b 4c 24 08	 mov	 ecx, DWORD PTR ___p$[esp-4]
  00006	89 08		 mov	 DWORD PTR [eax], ecx
  00008	c2 08 00	 ret	 8
??0?$_STLP_alloc_proxy@PAU?$_List_node@V?$basic_string@DV?$char_traits@D@_STL@@V?$allocator@D@2@@_STL@@@_STL@@U12@V?$allocator@U?$_List_node@V?$basic_string@DV?$char_traits@D@_STL@@V?$allocator@D@2@@_STL@@@_STL@@@2@@_STL@@QAE@ABV?$allocator@U?$_List_node@V?$basic_string@DV?$char_traits@D@_STL@@V?$allocator@D@2@@_STL@@@_STL@@@1@PAU?$_List_node@V?$basic_string@DV?$char_traits@D@_STL@@V?$allocator@D@2@@_STL@@@1@@Z ENDP ; _STL::_STLP_alloc_proxy<_STL::_List_node<_STL::basic_string<char,_STL::char_traits<char>,_STL::allocator<char> > > *,_STL::_List_node<_STL::basic_string<char,_STL::char_traits<char>,_STL::allocator<char> > >,_STL::allocator<_STL::_List_node<_STL::basic_string<char,_STL::char_traits<char>,_STL::allocator<char> > > > >::_STLP_alloc_proxy<_STL::_List_node<_STL::basic_string<char,_STL::char_traits<char>,_STL::allocator<char> > > *,_STL::_List_node<_STL::basic_string<char,_STL::char_traits<char>,_STL::allocator<char> > >,_STL::allocator<_STL::_List_node<_STL::basic_string<char,_STL::char_traits<char>,_STL::allocator<char> > > > >
_TEXT	ENDS
PUBLIC	?allocate@?$allocator@U?$_List_node@V?$basic_string@DV?$char_traits@D@_STL@@V?$allocator@D@2@@_STL@@@_STL@@@_STL@@QAEPAU?$_List_node@V?$basic_string@DV?$char_traits@D@_STL@@V?$allocator@D@2@@_STL@@@2@IPBX@Z ; _STL::allocator<_STL::_List_node<_STL::basic_string<char,_STL::char_traits<char>,_STL::allocator<char> > > >::allocate
; Function compile flags: /Ogsy
;	COMDAT ?allocate@?$allocator@U?$_List_node@V?$basic_string@DV?$char_traits@D@_STL@@V?$allocator@D@2@@_STL@@@_STL@@@_STL@@QAEPAU?$_List_node@V?$basic_string@DV?$char_traits@D@_STL@@V?$allocator@D@2@@_STL@@@2@IPBX@Z
_TEXT	SEGMENT
___n$ = 8						; size = 4
___formal$ = 12						; size = 4
?allocate@?$allocator@U?$_List_node@V?$basic_string@DV?$char_traits@D@_STL@@V?$allocator@D@2@@_STL@@@_STL@@@_STL@@QAEPAU?$_List_node@V?$basic_string@DV?$char_traits@D@_STL@@V?$allocator@D@2@@_STL@@@2@IPBX@Z PROC NEAR ; _STL::allocator<_STL::_List_node<_STL::basic_string<char,_STL::char_traits<char>,_STL::allocator<char> > > >::allocate, COMDAT
; _this$ = ecx

; 355  :     return __n != 0 ? __REINTERPRET_CAST(value_type*,__sgi_alloc::allocate(__n * sizeof(value_type))) : 0;

  00000	8b 44 24 04	 mov	 eax, DWORD PTR ___n$[esp-4]
  00004	85 c0		 test	 eax, eax
  00006	74 0f		 je	 SHORT $L101796
  00008	8d 04 80	 lea	 eax, DWORD PTR [eax+eax*4]
  0000b	c1 e0 02	 shl	 eax, 2
  0000e	50		 push	 eax
  0000f	e8 00 00 00 00	 call	 ?allocate@?$__node_alloc@$00$0A@@_STL@@SAPAXI@Z ; _STL::__node_alloc<1,0>::allocate
  00014	59		 pop	 ecx
  00015	eb 02		 jmp	 SHORT $L101797
$L101796:
  00017	33 c0		 xor	 eax, eax
$L101797:

; 356  :   }

  00019	c2 08 00	 ret	 8
?allocate@?$allocator@U?$_List_node@V?$basic_string@DV?$char_traits@D@_STL@@V?$allocator@D@2@@_STL@@@_STL@@@_STL@@QAEPAU?$_List_node@V?$basic_string@DV?$char_traits@D@_STL@@V?$allocator@D@2@@_STL@@@2@IPBX@Z ENDP ; _STL::allocator<_STL::_List_node<_STL::basic_string<char,_STL::char_traits<char>,_STL::allocator<char> > > >::allocate
_TEXT	ENDS
PUBLIC	?deallocate@?$allocator@U?$_List_node@V?$basic_string@DV?$char_traits@D@_STL@@V?$allocator@D@2@@_STL@@@_STL@@@_STL@@QAEXPAU?$_List_node@V?$basic_string@DV?$char_traits@D@_STL@@V?$allocator@D@2@@_STL@@@2@I@Z ; _STL::allocator<_STL::_List_node<_STL::basic_string<char,_STL::char_traits<char>,_STL::allocator<char> > > >::deallocate
; Function compile flags: /Ogsy
;	COMDAT ?deallocate@?$allocator@U?$_List_node@V?$basic_string@DV?$char_traits@D@_STL@@V?$allocator@D@2@@_STL@@@_STL@@@_STL@@QAEXPAU?$_List_node@V?$basic_string@DV?$char_traits@D@_STL@@V?$allocator@D@2@@_STL@@@2@I@Z
_TEXT	SEGMENT
___p$ = 8						; size = 4
___n$ = 12						; size = 4
?deallocate@?$allocator@U?$_List_node@V?$basic_string@DV?$char_traits@D@_STL@@V?$allocator@D@2@@_STL@@@_STL@@@_STL@@QAEXPAU?$_List_node@V?$basic_string@DV?$char_traits@D@_STL@@V?$allocator@D@2@@_STL@@@2@I@Z PROC NEAR ; _STL::allocator<_STL::_List_node<_STL::basic_string<char,_STL::char_traits<char>,_STL::allocator<char> > > >::deallocate, COMDAT
; _this$ = ecx

; 359  :     _STLP_ASSERT( (__p == 0) == (__n == 0) )
; 360  :       if (__p != 0) __sgi_alloc::deallocate((void*)__p, __n * sizeof(value_type));

  00000	83 7c 24 04 00	 cmp	 DWORD PTR ___p$[esp-4], 0
  00005	74 16		 je	 SHORT $L98656
  00007	8b 44 24 08	 mov	 eax, DWORD PTR ___n$[esp-4]
  0000b	8d 04 80	 lea	 eax, DWORD PTR [eax+eax*4]
  0000e	c1 e0 02	 shl	 eax, 2
  00011	50		 push	 eax
  00012	ff 74 24 08	 push	 DWORD PTR ___p$[esp]
  00016	e8 00 00 00 00	 call	 ?deallocate@?$__node_alloc@$00$0A@@_STL@@SAXPAXI@Z ; _STL::__node_alloc<1,0>::deallocate
  0001b	59		 pop	 ecx
  0001c	59		 pop	 ecx
$L98656:

; 361  :   }

  0001d	c2 08 00	 ret	 8
?deallocate@?$allocator@U?$_List_node@V?$basic_string@DV?$char_traits@D@_STL@@V?$allocator@D@2@@_STL@@@_STL@@@_STL@@QAEXPAU?$_List_node@V?$basic_string@DV?$char_traits@D@_STL@@V?$allocator@D@2@@_STL@@@2@I@Z ENDP ; _STL::allocator<_STL::_List_node<_STL::basic_string<char,_STL::char_traits<char>,_STL::allocator<char> > > >::deallocate
_TEXT	ENDS
PUBLIC	?deallocate@?$allocator@D@_STL@@QAEXPADI@Z	; _STL::allocator<char>::deallocate
; Function compile flags: /Ogsy
;	COMDAT ?deallocate@?$allocator@D@_STL@@QAEXPADI@Z
_TEXT	SEGMENT
___p$ = 8						; size = 4
___n$ = 12						; size = 4
?deallocate@?$allocator@D@_STL@@QAEXPADI@Z PROC NEAR	; _STL::allocator<char>::deallocate, COMDAT
; _this$ = ecx

; 359  :     _STLP_ASSERT( (__p == 0) == (__n == 0) )
; 360  :       if (__p != 0) __sgi_alloc::deallocate((void*)__p, __n * sizeof(value_type));

  00000	83 7c 24 04 00	 cmp	 DWORD PTR ___p$[esp-4], 0
  00005	74 0f		 je	 SHORT $L98663
  00007	ff 74 24 08	 push	 DWORD PTR ___n$[esp-4]
  0000b	ff 74 24 08	 push	 DWORD PTR ___p$[esp]
  0000f	e8 00 00 00 00	 call	 ?deallocate@?$__node_alloc@$00$0A@@_STL@@SAXPAXI@Z ; _STL::__node_alloc<1,0>::deallocate
  00014	59		 pop	 ecx
  00015	59		 pop	 ecx
$L98663:

; 361  :   }

  00016	c2 08 00	 ret	 8
?deallocate@?$allocator@D@_STL@@QAEXPADI@Z ENDP		; _STL::allocator<char>::deallocate
_TEXT	ENDS
PUBLIC	??0?$_String_base@DV?$allocator@D@_STL@@@_STL@@QAE@ABV?$allocator@D@1@@Z ; _STL::_String_base<char,_STL::allocator<char> >::_String_base<char,_STL::allocator<char> >
; Function compile flags: /Ogsy
; File c:\stlport-4.6.1\stlport\stl\_string.h
;	COMDAT ??0?$_String_base@DV?$allocator@D@_STL@@@_STL@@QAE@ABV?$allocator@D@1@@Z
_TEXT	SEGMENT
___a$ = 8						; size = 4
??0?$_String_base@DV?$allocator@D@_STL@@@_STL@@QAE@ABV?$allocator@D@1@@Z PROC NEAR ; _STL::_String_base<char,_STL::allocator<char> >::_String_base<char,_STL::allocator<char> >, COMDAT
; _this$ = ecx

; 129  :     : _M_start(0), _M_finish(0), _M_end_of_storage(__a, (_Tp*)0) {}

  00000	56		 push	 esi
  00001	33 c0		 xor	 eax, eax
  00003	8b f1		 mov	 esi, ecx
  00005	50		 push	 eax
  00006	ff 74 24 0c	 push	 DWORD PTR ___a$[esp+4]
  0000a	8d 4e 08	 lea	 ecx, DWORD PTR [esi+8]
  0000d	89 06		 mov	 DWORD PTR [esi], eax
  0000f	89 46 04	 mov	 DWORD PTR [esi+4], eax
  00012	e8 00 00 00 00	 call	 ??0?$_STLP_alloc_proxy@PADDV?$allocator@D@_STL@@@_STL@@QAE@ABV?$allocator@D@1@PAD@Z ; _STL::_STLP_alloc_proxy<char *,char,_STL::allocator<char> >::_STLP_alloc_proxy<char *,char,_STL::allocator<char> >
  00017	8b c6		 mov	 eax, esi
  00019	5e		 pop	 esi
  0001a	c2 04 00	 ret	 4
??0?$_String_base@DV?$allocator@D@_STL@@@_STL@@QAE@ABV?$allocator@D@1@@Z ENDP ; _STL::_String_base<char,_STL::allocator<char> >::_String_base<char,_STL::allocator<char> >
_TEXT	ENDS
PUBLIC	??$_M_range_initialize@PBD@?$basic_string@DV?$char_traits@D@_STL@@V?$allocator@D@2@@_STL@@AAEXPBD0ABUforward_iterator_tag@1@@Z ; _STL::basic_string<char,_STL::char_traits<char>,_STL::allocator<char> >::_M_range_initialize<char const *>
; Function compile flags: /Ogsy
;	COMDAT ??$_M_range_initialize@PBD@?$basic_string@DV?$char_traits@D@_STL@@V?$allocator@D@2@@_STL@@AAEXPBD0ABUforward_iterator_tag@1@@Z
_TEXT	SEGMENT
___f$ = 8						; size = 4
___l$ = 12						; size = 4
___formal$ = 16						; size = 4
??$_M_range_initialize@PBD@?$basic_string@DV?$char_traits@D@_STL@@V?$allocator@D@2@@_STL@@AAEXPBD0ABUforward_iterator_tag@1@@Z PROC NEAR ; _STL::basic_string<char,_STL::char_traits<char>,_STL::allocator<char> >::_M_range_initialize<char const *>, COMDAT
; _this$ = ecx

; 383  :                            const forward_iterator_tag &) {
; 384  :     difference_type __n = distance(__f, __l);
; 385  :     this->_M_allocate_block(__n + 1);

  00000	8b 44 24 08	 mov	 eax, DWORD PTR ___l$[esp-4]
  00004	2b 44 24 04	 sub	 eax, DWORD PTR ___f$[esp-4]
  00008	56		 push	 esi
  00009	40		 inc	 eax
  0000a	50		 push	 eax
  0000b	8b f1		 mov	 esi, ecx
  0000d	e8 00 00 00 00	 call	 ?_M_allocate_block@?$_String_base@DV?$allocator@D@_STL@@@_STL@@QAEXI@Z ; _STL::_String_base<char,_STL::allocator<char> >::_M_allocate_block

; 386  :     this->_M_finish = uninitialized_copy(__f, __l, this->_M_start);

  00012	ff 36		 push	 DWORD PTR [esi]
  00014	ff 74 24 10	 push	 DWORD PTR ___l$[esp+4]
  00018	ff 74 24 10	 push	 DWORD PTR ___f$[esp+8]
  0001c	e8 00 00 00 00	 call	 ?__copy_trivial@_STL@@YAPAXPBX0PAX@Z ; _STL::__copy_trivial
  00021	83 c4 0c	 add	 esp, 12			; 0000000cH
  00024	89 46 04	 mov	 DWORD PTR [esi+4], eax

; 387  :     _M_terminate_string();

  00027	c6 00 00	 mov	 BYTE PTR [eax], 0
  0002a	5e		 pop	 esi

; 388  :   }

  0002b	c2 0c 00	 ret	 12			; 0000000cH
??$_M_range_initialize@PBD@?$basic_string@DV?$char_traits@D@_STL@@V?$allocator@D@2@@_STL@@AAEXPBD0ABUforward_iterator_tag@1@@Z ENDP ; _STL::basic_string<char,_STL::char_traits<char>,_STL::allocator<char> >::_M_range_initialize<char const *>
_TEXT	ENDS
PUBLIC	??$__uninitialized_copy@PADPAD@_STL@@YAPADPAD00ABU__true_type@0@@Z ; _STL::__uninitialized_copy<char *,char *>
; Function compile flags: /Ogsy
; File c:\stlport-4.6.1\stlport\stl\_uninitialized.h
;	COMDAT ??$__uninitialized_copy@PADPAD@_STL@@YAPADPAD00ABU__true_type@0@@Z
_TEXT	SEGMENT
___first$ = 8						; size = 4
___last$ = 12						; size = 4
___result$ = 16						; size = 4
___formal$ = 20						; size = 4
??$__uninitialized_copy@PADPAD@_STL@@YAPADPAD00ABU__true_type@0@@Z PROC NEAR ; _STL::__uninitialized_copy<char *,char *>, COMDAT

; 55   :   return __copy_aux(__first, __last, __result, _BothPtrType< _InputIter, _ForwardIter> :: _Ret());

  00000	ff 74 24 0c	 push	 DWORD PTR ___result$[esp-4]
  00004	ff 74 24 0c	 push	 DWORD PTR ___last$[esp]
  00008	ff 74 24 0c	 push	 DWORD PTR ___first$[esp+4]
  0000c	e8 00 00 00 00	 call	 ?__copy_trivial@_STL@@YAPAXPBX0PAX@Z ; _STL::__copy_trivial
  00011	83 c4 0c	 add	 esp, 12			; 0000000cH

; 56   : }

  00014	c3		 ret	 0
??$__uninitialized_copy@PADPAD@_STL@@YAPADPAD00ABU__true_type@0@@Z ENDP ; _STL::__uninitialized_copy<char *,char *>
_TEXT	ENDS
PUBLIC	??0?$_List_base@V?$basic_string@DV?$char_traits@D@_STL@@V?$allocator@D@2@@_STL@@V?$allocator@V?$basic_string@DV?$char_traits@D@_STL@@V?$allocator@D@2@@_STL@@@2@@_STL@@QAE@ABV?$allocator@V?$basic_string@DV?$char_traits@D@_STL@@V?$allocator@D@2@@_STL@@@1@@Z ; _STL::_List_base<_STL::basic_string<char,_STL::char_traits<char>,_STL::allocator<char> >,_STL::allocator<_STL::basic_string<char,_STL::char_traits<char>,_STL::allocator<char> > > >::_List_base<_STL::basic_string<char,_STL::char_traits<char>,_STL::allocator<char> >,_STL::allocator<_STL::basic_string<char,_STL::char_traits<char>,_STL::allocator<char> > > >
; Function compile flags: /Ogsy
; File c:\stlport-4.6.1\stlport\stl\_list.h
;	COMDAT ??0?$_List_base@V?$basic_string@DV?$char_traits@D@_STL@@V?$allocator@D@2@@_STL@@V?$allocator@V?$basic_string@DV?$char_traits@D@_STL@@V?$allocator@D@2@@_STL@@@2@@_STL@@QAE@ABV?$allocator@V?$basic_string@DV?$char_traits@D@_STL@@V?$allocator@D@2@@_STL@@@1@@Z
_TEXT	SEGMENT
$T101876 = -1						; size = 1
___a$ = 8						; size = 4
??0?$_List_base@V?$basic_string@DV?$char_traits@D@_STL@@V?$allocator@D@2@@_STL@@V?$allocator@V?$basic_string@DV?$char_traits@D@_STL@@V?$allocator@D@2@@_STL@@@2@@_STL@@QAE@ABV?$allocator@V?$basic_string@DV?$char_traits@D@_STL@@V?$allocator@D@2@@_STL@@@1@@Z PROC NEAR ; _STL::_List_base<_STL::basic_string<char,_STL::char_traits<char>,_STL::allocator<char> >,_STL::allocator<_STL::basic_string<char,_STL::char_traits<char>,_STL::allocator<char> > > >::_List_base<_STL::basic_string<char,_STL::char_traits<char>,_STL::allocator<char> >,_STL::allocator<_STL::basic_string<char,_STL::char_traits<char>,_STL::allocator<char> > > >, COMDAT
; _this$ = ecx

; 182  :   _List_base(const allocator_type& __a) : _M_node(_STLP_CONVERT_ALLOCATOR(__a, _Node), (_Node*)0) {

  00000	51		 push	 ecx
  00001	56		 push	 esi
  00002	6a 00		 push	 0
  00004	8d 44 24 0b	 lea	 eax, DWORD PTR $T101876[esp+12]
  00008	50		 push	 eax
  00009	8b f1		 mov	 esi, ecx
  0000b	e8 00 00 00 00	 call	 ??0?$_STLP_alloc_proxy@PAU?$_List_node@V?$basic_string@DV?$char_traits@D@_STL@@V?$allocator@D@2@@_STL@@@_STL@@U12@V?$allocator@U?$_List_node@V?$basic_string@DV?$char_traits@D@_STL@@V?$allocator@D@2@@_STL@@@_STL@@@2@@_STL@@QAE@ABV?$allocator@U?$_List_node@V?$basic_string@DV?$char_traits@D@_STL@@V?$allocator@D@2@@_STL@@@_STL@@@1@PAU?$_List_node@V?$basic_string@DV?$char_traits@D@_STL@@V?$allocator@D@2@@_STL@@@1@@Z ; _STL::_STLP_alloc_proxy<_STL::_List_node<_STL::basic_string<char,_STL::char_traits<char>,_STL::allocator<char> > > *,_STL::_List_node<_STL::basic_string<char,_STL::char_traits<char>,_STL::allocator<char> > >,_STL::allocator<_STL::_List_node<_STL::basic_string<char,_STL::char_traits<char>,_STL::allocator<char> > > > >::_STLP_alloc_proxy<_STL::_List_node<_STL::basic_string<char,_STL::char_traits<char>,_STL::allocator<char> > > *,_STL::_List_node<_STL::basic_string<char,_STL::char_traits<char>,_STL::allocator<char> > >,_STL::allocator<_STL::_List_node<_STL::basic_string<char,_STL::char_traits<char>,_STL::allocator<char> > > > >

; 183  :     _Node* __n = _M_node.allocate(1);

  00010	6a 14		 push	 20			; 00000014H
  00012	e8 00 00 00 00	 call	 ?allocate@?$__node_alloc@$00$0A@@_STL@@SAPAXI@Z ; _STL::__node_alloc<1,0>::allocate

; 184  :     __n->_M_next = __n;

  00017	89 00		 mov	 DWORD PTR [eax], eax

; 185  :     __n->_M_prev = __n;

  00019	89 40 04	 mov	 DWORD PTR [eax+4], eax

; 186  :     _M_node._M_data = __n;

  0001c	89 06		 mov	 DWORD PTR [esi], eax
  0001e	59		 pop	 ecx

; 187  :   }

  0001f	8b c6		 mov	 eax, esi
  00021	5e		 pop	 esi
  00022	59		 pop	 ecx
  00023	c2 04 00	 ret	 4
??0?$_List_base@V?$basic_string@DV?$char_traits@D@_STL@@V?$allocator@D@2@@_STL@@V?$allocator@V?$basic_string@DV?$char_traits@D@_STL@@V?$allocator@D@2@@_STL@@@2@@_STL@@QAE@ABV?$allocator@V?$basic_string@DV?$char_traits@D@_STL@@V?$allocator@D@2@@_STL@@@1@@Z ENDP ; _STL::_List_base<_STL::basic_string<char,_STL::char_traits<char>,_STL::allocator<char> >,_STL::allocator<_STL::basic_string<char,_STL::char_traits<char>,_STL::allocator<char> > > >::_List_base<_STL::basic_string<char,_STL::char_traits<char>,_STL::allocator<char> >,_STL::allocator<_STL::basic_string<char,_STL::char_traits<char>,_STL::allocator<char> > > >
_TEXT	ENDS
PUBLIC	?_M_deallocate_block@?$_String_base@DV?$allocator@D@_STL@@@_STL@@QAEXXZ ; _STL::_String_base<char,_STL::allocator<char> >::_M_deallocate_block
; Function compile flags: /Ogsy
; File c:\stlport-4.6.1\stlport\stl\_string.h
;	COMDAT ?_M_deallocate_block@?$_String_base@DV?$allocator@D@_STL@@@_STL@@QAEXXZ
_TEXT	SEGMENT
?_M_deallocate_block@?$_String_base@DV?$allocator@D@_STL@@@_STL@@QAEXXZ PROC NEAR ; _STL::_String_base<char,_STL::allocator<char> >::_M_deallocate_block, COMDAT
; _this$ = ecx

; 124  :     { _M_end_of_storage.deallocate(_M_start, _M_end_of_storage._M_data - _M_start); }

  00000	8b c1		 mov	 eax, ecx
  00002	8d 48 08	 lea	 ecx, DWORD PTR [eax+8]
  00005	8b 00		 mov	 eax, DWORD PTR [eax]
  00007	8b 11		 mov	 edx, DWORD PTR [ecx]
  00009	2b d0		 sub	 edx, eax
  0000b	52		 push	 edx
  0000c	50		 push	 eax
  0000d	e8 00 00 00 00	 call	 ?deallocate@?$allocator@D@_STL@@QAEXPADI@Z ; _STL::allocator<char>::deallocate
  00012	c3		 ret	 0
?_M_deallocate_block@?$_String_base@DV?$allocator@D@_STL@@@_STL@@QAEXXZ ENDP ; _STL::_String_base<char,_STL::allocator<char> >::_M_deallocate_block
_TEXT	ENDS
PUBLIC	??$_M_range_initialize@PBD@?$basic_string@DV?$char_traits@D@_STL@@V?$allocator@D@2@@_STL@@AAEXPBD0@Z ; _STL::basic_string<char,_STL::char_traits<char>,_STL::allocator<char> >::_M_range_initialize<char const *>
; Function compile flags: /Ogsy
;	COMDAT ??$_M_range_initialize@PBD@?$basic_string@DV?$char_traits@D@_STL@@V?$allocator@D@2@@_STL@@AAEXPBD0@Z
_TEXT	SEGMENT
___f$ = 8						; size = 4
___l$ = 12						; size = 4
$T101893 = 15						; size = 1
??$_M_range_initialize@PBD@?$basic_string@DV?$char_traits@D@_STL@@V?$allocator@D@2@@_STL@@AAEXPBD0@Z PROC NEAR ; _STL::basic_string<char,_STL::char_traits<char>,_STL::allocator<char> >::_M_range_initialize<char const *>, COMDAT
; _this$ = ecx

; 390  :   template <class _InputIter> void _M_range_initialize(_InputIter __f, _InputIter __l) {

  00000	55		 push	 ebp
  00001	8b ec		 mov	 ebp, esp

; 391  :     _M_range_initialize(__f, __l, _STLP_ITERATOR_CATEGORY(__f, _InputIter));

  00003	8d 45 0f	 lea	 eax, DWORD PTR $T101893[ebp]
  00006	50		 push	 eax
  00007	ff 75 0c	 push	 DWORD PTR ___l$[ebp]
  0000a	ff 75 08	 push	 DWORD PTR ___f$[ebp]
  0000d	e8 00 00 00 00	 call	 ??$_M_range_initialize@PBD@?$basic_string@DV?$char_traits@D@_STL@@V?$allocator@D@2@@_STL@@AAEXPBD0ABUforward_iterator_tag@1@@Z ; _STL::basic_string<char,_STL::char_traits<char>,_STL::allocator<char> >::_M_range_initialize<char const *>

; 392  :   }

  00012	5d		 pop	 ebp
  00013	c2 08 00	 ret	 8
??$_M_range_initialize@PBD@?$basic_string@DV?$char_traits@D@_STL@@V?$allocator@D@2@@_STL@@AAEXPBD0@Z ENDP ; _STL::basic_string<char,_STL::char_traits<char>,_STL::allocator<char> >::_M_range_initialize<char const *>
_TEXT	ENDS
PUBLIC	??$uninitialized_copy@PADPAD@_STL@@YAPADPAD00@Z	; _STL::uninitialized_copy<char *,char *>
; Function compile flags: /Ogsy
; File c:\stlport-4.6.1\stlport\stl\_uninitialized.h
;	COMDAT ??$uninitialized_copy@PADPAD@_STL@@YAPADPAD00@Z
_TEXT	SEGMENT
___first$ = 8						; size = 4
___last$ = 12						; size = 4
___result$ = 16						; size = 4
??$uninitialized_copy@PADPAD@_STL@@YAPADPAD00@Z PROC NEAR ; _STL::uninitialized_copy<char *,char *>, COMDAT

; 79   :   return __uninitialized_copy(__first, __last, __result,  _IS_POD_ITER(__result, _ForwardIter));

  00000	e9 00 00 00 00	 jmp	 ?__copy_trivial@_STL@@YAPAXPBX0PAX@Z ; _STL::__copy_trivial
??$uninitialized_copy@PADPAD@_STL@@YAPADPAD00@Z ENDP	; _STL::uninitialized_copy<char *,char *>
_TEXT	ENDS
PUBLIC	??1?$_String_base@DV?$allocator@D@_STL@@@_STL@@QAE@XZ ; _STL::_String_base<char,_STL::allocator<char> >::~_String_base<char,_STL::allocator<char> >
; Function compile flags: /Ogsy
; File c:\stlport-4.6.1\stlport\stl\_string.h
;	COMDAT ??1?$_String_base@DV?$allocator@D@_STL@@@_STL@@QAE@XZ
_TEXT	SEGMENT
??1?$_String_base@DV?$allocator@D@_STL@@@_STL@@QAE@XZ PROC NEAR ; _STL::_String_base<char,_STL::allocator<char> >::~_String_base<char,_STL::allocator<char> >, COMDAT
; _this$ = ecx

; 135  :   ~_String_base() { _M_deallocate_block(); }

  00000	e9 00 00 00 00	 jmp	 ?_M_deallocate_block@?$_String_base@DV?$allocator@D@_STL@@@_STL@@QAEXXZ ; _STL::_String_base<char,_STL::allocator<char> >::_M_deallocate_block
??1?$_String_base@DV?$allocator@D@_STL@@@_STL@@QAE@XZ ENDP ; _STL::_String_base<char,_STL::allocator<char> >::~_String_base<char,_STL::allocator<char> >
_TEXT	ENDS
PUBLIC	??0?$basic_string@DV?$char_traits@D@_STL@@V?$allocator@D@2@@_STL@@QAE@PBDABV?$allocator@D@1@@Z ; _STL::basic_string<char,_STL::char_traits<char>,_STL::allocator<char> >::basic_string<char,_STL::char_traits<char>,_STL::allocator<char> >
EXTRN	__EH_prolog:NEAR
EXTRN	__except_list:DWORD
EXTRN	___CxxFrameHandler:NEAR
;	COMDAT xdata$x
xdata$x	SEGMENT
$T101974 DD	0ffffffffH
	DD	FLAT:$L101957
$T101970 DD	019930520H
	DD	01H
	DD	FLAT:$T101974
	DD	2 DUP(00H)
	DD	2 DUP(00H)
; Function compile flags: /Ogsy
; File c:\stlport-4.6.1\stlport\stl\_string.c
xdata$x	ENDS
;	COMDAT ??0?$basic_string@DV?$char_traits@D@_STL@@V?$allocator@D@2@@_STL@@QAE@PBDABV?$allocator@D@1@@Z
_TEXT	SEGMENT
_this$ = -16						; size = 4
__$EHRec$ = -12						; size = 12
___s$ = 8						; size = 4
$T101965 = 11						; size = 1
___a$ = 12						; size = 4
??0?$basic_string@DV?$char_traits@D@_STL@@V?$allocator@D@2@@_STL@@QAE@PBDABV?$allocator@D@1@@Z PROC NEAR ; _STL::basic_string<char,_STL::char_traits<char>,_STL::allocator<char> >::basic_string<char,_STL::char_traits<char>,_STL::allocator<char> >, COMDAT
; _this$ = ecx

; 552  : { 

  00000	b8 00 00 00 00	 mov	 eax, __ehhandler$??0?$basic_string@DV?$char_traits@D@_STL@@V?$allocator@D@2@@_STL@@QAE@PBDABV?$allocator@D@1@@Z
  00005	e8 00 00 00 00	 call	 __EH_prolog
  0000a	51		 push	 ecx
  0000b	56		 push	 esi
  0000c	ff 75 0c	 push	 DWORD PTR ___a$[ebp]
  0000f	8b f1		 mov	 esi, ecx
  00011	89 75 f0	 mov	 DWORD PTR _this$[ebp], esi
  00014	e8 00 00 00 00	 call	 ??0?$_String_base@DV?$allocator@D@_STL@@@_STL@@QAE@ABV?$allocator@D@1@@Z ; _STL::_String_base<char,_STL::allocator<char> >::_String_base<char,_STL::allocator<char> >

; 553  :   _STLP_FIX_LITERAL_BUG(__s) 
; 554  :     _M_range_initialize(__s, __s + traits_type::length(__s));  

  00019	ff 75 08	 push	 DWORD PTR ___s$[ebp]
  0001c	83 65 fc 00	 and	 DWORD PTR __$EHRec$[ebp+8], 0
  00020	e8 00 00 00 00	 call	 _strlen
  00025	03 45 08	 add	 eax, DWORD PTR ___s$[ebp]
  00028	59		 pop	 ecx
  00029	8d 4d 0b	 lea	 ecx, DWORD PTR $T101965[ebp]
  0002c	51		 push	 ecx
  0002d	50		 push	 eax
  0002e	ff 75 08	 push	 DWORD PTR ___s$[ebp]
  00031	8b ce		 mov	 ecx, esi
  00033	e8 00 00 00 00	 call	 ??$_M_range_initialize@PBD@?$basic_string@DV?$char_traits@D@_STL@@V?$allocator@D@2@@_STL@@AAEXPBD0ABUforward_iterator_tag@1@@Z ; _STL::basic_string<char,_STL::char_traits<char>,_STL::allocator<char> >::_M_range_initialize<char const *>

; 555  : } 

  00038	8b 4d f4	 mov	 ecx, DWORD PTR __$EHRec$[ebp]
  0003b	8b c6		 mov	 eax, esi
  0003d	5e		 pop	 esi
  0003e	64 89 0d 00 00
	00 00		 mov	 DWORD PTR fs:__except_list, ecx
  00045	c9		 leave
  00046	c2 08 00	 ret	 8
_TEXT	ENDS
;	COMDAT text$x
text$x	SEGMENT
$L101957:
  00000	8b 4d f0	 mov	 ecx, DWORD PTR _this$[ebp]
  00003	e9 00 00 00 00	 jmp	 ??1?$_String_base@DV?$allocator@D@_STL@@@_STL@@QAE@XZ ; _STL::_String_base<char,_STL::allocator<char> >::~_String_base<char,_STL::allocator<char> >
__ehhandler$??0?$basic_string@DV?$char_traits@D@_STL@@V?$allocator@D@2@@_STL@@QAE@PBDABV?$allocator@D@1@@Z:
  00008	b8 00 00 00 00	 mov	 eax, OFFSET FLAT:$T101970
  0000d	e9 00 00 00 00	 jmp	 ___CxxFrameHandler
text$x	ENDS
??0?$basic_string@DV?$char_traits@D@_STL@@V?$allocator@D@2@@_STL@@QAE@PBDABV?$allocator@D@1@@Z ENDP ; _STL::basic_string<char,_STL::char_traits<char>,_STL::allocator<char> >::basic_string<char,_STL::char_traits<char>,_STL::allocator<char> >
PUBLIC	??0?$basic_string@DV?$char_traits@D@_STL@@V?$allocator@D@2@@_STL@@QAE@XZ ; _STL::basic_string<char,_STL::char_traits<char>,_STL::allocator<char> >::basic_string<char,_STL::char_traits<char>,_STL::allocator<char> >
;	COMDAT xdata$x
; File c:\stlport-4.6.1\stlport\stl\_string.h
xdata$x	SEGMENT
$T102026 DD	0ffffffffH
	DD	FLAT:$L101981
$T102024 DD	019930520H
	DD	01H
	DD	FLAT:$T102026
	DD	2 DUP(00H)
	DD	2 DUP(00H)
; Function compile flags: /Ogsy
; File c:\stlport-4.6.1\stlport\stl\_string.c
xdata$x	ENDS
;	COMDAT ??0?$basic_string@DV?$char_traits@D@_STL@@V?$allocator@D@2@@_STL@@QAE@XZ
_TEXT	SEGMENT
_this$ = -20						; size = 4
$T101980 = -13						; size = 1
__$EHRec$ = -12						; size = 12
??0?$basic_string@DV?$char_traits@D@_STL@@V?$allocator@D@2@@_STL@@QAE@XZ PROC NEAR ; _STL::basic_string<char,_STL::char_traits<char>,_STL::allocator<char> >::basic_string<char,_STL::char_traits<char>,_STL::allocator<char> >, COMDAT
; _this$ = ecx

; 541  :   : _String_base<_CharT,_Alloc>(allocator_type()) {  

  00000	b8 00 00 00 00	 mov	 eax, __ehhandler$??0?$basic_string@DV?$char_traits@D@_STL@@V?$allocator@D@2@@_STL@@QAE@XZ
  00005	e8 00 00 00 00	 call	 __EH_prolog
  0000a	51		 push	 ecx
  0000b	51		 push	 ecx
  0000c	56		 push	 esi
  0000d	8d 45 f3	 lea	 eax, DWORD PTR $T101980[ebp]
  00010	8b f1		 mov	 esi, ecx
  00012	50		 push	 eax
  00013	89 75 ec	 mov	 DWORD PTR _this$[ebp], esi
  00016	e8 00 00 00 00	 call	 ??0?$_String_base@DV?$allocator@D@_STL@@@_STL@@QAE@ABV?$allocator@D@1@@Z ; _STL::_String_base<char,_STL::allocator<char> >::_String_base<char,_STL::allocator<char> >
  0001b	83 65 fc 00	 and	 DWORD PTR __$EHRec$[ebp+8], 0

; 542  :   this->_M_start = this->_M_end_of_storage.allocate(8); 

  0001f	6a 08		 push	 8
  00021	e8 00 00 00 00	 call	 ?_M_allocate@?$__node_alloc@$00$0A@@_STL@@CAPAXI@Z ; _STL::__node_alloc<1,0>::_M_allocate
  00026	59		 pop	 ecx

; 543  :   this->_M_finish = this->_M_start; 
; 544  :   this->_M_end_of_storage._M_data = this->_M_start + 8; 

  00027	8d 48 08	 lea	 ecx, DWORD PTR [eax+8]
  0002a	89 06		 mov	 DWORD PTR [esi], eax
  0002c	89 46 04	 mov	 DWORD PTR [esi+4], eax
  0002f	89 4e 08	 mov	 DWORD PTR [esi+8], ecx

; 545  :   _M_terminate_string();  
; 546  : } 

  00032	8b 4d f4	 mov	 ecx, DWORD PTR __$EHRec$[ebp]
  00035	c6 00 00	 mov	 BYTE PTR [eax], 0
  00038	8b c6		 mov	 eax, esi
  0003a	5e		 pop	 esi
  0003b	64 89 0d 00 00
	00 00		 mov	 DWORD PTR fs:__except_list, ecx
  00042	c9		 leave
  00043	c3		 ret	 0
_TEXT	ENDS
;	COMDAT text$x
text$x	SEGMENT
$L101981:
  00000	8b 4d ec	 mov	 ecx, DWORD PTR _this$[ebp]
  00003	e9 00 00 00 00	 jmp	 ??1?$_String_base@DV?$allocator@D@_STL@@@_STL@@QAE@XZ ; _STL::_String_base<char,_STL::allocator<char> >::~_String_base<char,_STL::allocator<char> >
__ehhandler$??0?$basic_string@DV?$char_traits@D@_STL@@V?$allocator@D@2@@_STL@@QAE@XZ:
  00008	b8 00 00 00 00	 mov	 eax, OFFSET FLAT:$T102024
  0000d	e9 00 00 00 00	 jmp	 ___CxxFrameHandler
text$x	ENDS
??0?$basic_string@DV?$char_traits@D@_STL@@V?$allocator@D@2@@_STL@@QAE@XZ ENDP ; _STL::basic_string<char,_STL::char_traits<char>,_STL::allocator<char> >::basic_string<char,_STL::char_traits<char>,_STL::allocator<char> >
PUBLIC	??$_M_range_initialize@PAD@?$basic_string@DV?$char_traits@D@_STL@@V?$allocator@D@2@@_STL@@AAEXPAD0ABUforward_iterator_tag@1@@Z ; _STL::basic_string<char,_STL::char_traits<char>,_STL::allocator<char> >::_M_range_initialize<char *>
; Function compile flags: /Ogsy
; File c:\stlport-4.6.1\stlport\stl\_string.h
;	COMDAT ??$_M_range_initialize@PAD@?$basic_string@DV?$char_traits@D@_STL@@V?$allocator@D@2@@_STL@@AAEXPAD0ABUforward_iterator_tag@1@@Z
_TEXT	SEGMENT
___f$ = 8						; size = 4
___l$ = 12						; size = 4
___formal$ = 16						; size = 4
??$_M_range_initialize@PAD@?$basic_string@DV?$char_traits@D@_STL@@V?$allocator@D@2@@_STL@@AAEXPAD0ABUforward_iterator_tag@1@@Z PROC NEAR ; _STL::basic_string<char,_STL::char_traits<char>,_STL::allocator<char> >::_M_range_initialize<char *>, COMDAT
; _this$ = ecx

; 383  :                            const forward_iterator_tag &) {
; 384  :     difference_type __n = distance(__f, __l);
; 385  :     this->_M_allocate_block(__n + 1);

  00000	8b 44 24 08	 mov	 eax, DWORD PTR ___l$[esp-4]
  00004	2b 44 24 04	 sub	 eax, DWORD PTR ___f$[esp-4]
  00008	56		 push	 esi
  00009	40		 inc	 eax
  0000a	50		 push	 eax
  0000b	8b f1		 mov	 esi, ecx
  0000d	e8 00 00 00 00	 call	 ?_M_allocate_block@?$_String_base@DV?$allocator@D@_STL@@@_STL@@QAEXI@Z ; _STL::_String_base<char,_STL::allocator<char> >::_M_allocate_block

; 386  :     this->_M_finish = uninitialized_copy(__f, __l, this->_M_start);

  00012	ff 36		 push	 DWORD PTR [esi]
  00014	ff 74 24 10	 push	 DWORD PTR ___l$[esp+4]
  00018	ff 74 24 10	 push	 DWORD PTR ___f$[esp+8]
  0001c	e8 00 00 00 00	 call	 ?__copy_trivial@_STL@@YAPAXPBX0PAX@Z ; _STL::__copy_trivial
  00021	83 c4 0c	 add	 esp, 12			; 0000000cH
  00024	89 46 04	 mov	 DWORD PTR [esi+4], eax

; 387  :     _M_terminate_string();

  00027	c6 00 00	 mov	 BYTE PTR [eax], 0
  0002a	5e		 pop	 esi

; 388  :   }

  0002b	c2 0c 00	 ret	 12			; 0000000cH
??$_M_range_initialize@PAD@?$basic_string@DV?$char_traits@D@_STL@@V?$allocator@D@2@@_STL@@AAEXPAD0ABUforward_iterator_tag@1@@Z ENDP ; _STL::basic_string<char,_STL::char_traits<char>,_STL::allocator<char> >::_M_range_initialize<char *>
_TEXT	ENDS
PUBLIC	??1?$basic_string@DV?$char_traits@D@_STL@@V?$allocator@D@2@@_STL@@QAE@XZ ; _STL::basic_string<char,_STL::char_traits<char>,_STL::allocator<char> >::~basic_string<char,_STL::char_traits<char>,_STL::allocator<char> >
; Function compile flags: /Ogsy
;	COMDAT ??1?$basic_string@DV?$char_traits@D@_STL@@V?$allocator@D@2@@_STL@@QAE@XZ
_TEXT	SEGMENT
??1?$basic_string@DV?$char_traits@D@_STL@@V?$allocator@D@2@@_STL@@QAE@XZ PROC NEAR ; _STL::basic_string<char,_STL::char_traits<char>,_STL::allocator<char> >::~basic_string<char,_STL::char_traits<char>,_STL::allocator<char> >, COMDAT
; _this$ = ecx

; 305  :   ~basic_string() { _STLP_STD::_Destroy(this->_M_start, this->_M_finish + 1); }

  00000	e9 00 00 00 00	 jmp	 ?_M_deallocate_block@?$_String_base@DV?$allocator@D@_STL@@@_STL@@QAEXXZ ; _STL::_String_base<char,_STL::allocator<char> >::_M_deallocate_block
??1?$basic_string@DV?$char_traits@D@_STL@@V?$allocator@D@2@@_STL@@QAE@XZ ENDP ; _STL::basic_string<char,_STL::char_traits<char>,_STL::allocator<char> >::~basic_string<char,_STL::char_traits<char>,_STL::allocator<char> >
_TEXT	ENDS
PUBLIC	??$_M_range_initialize@PAD@?$basic_string@DV?$char_traits@D@_STL@@V?$allocator@D@2@@_STL@@AAEXPAD0@Z ; _STL::basic_string<char,_STL::char_traits<char>,_STL::allocator<char> >::_M_range_initialize<char *>
; Function compile flags: /Ogsy
;	COMDAT ??$_M_range_initialize@PAD@?$basic_string@DV?$char_traits@D@_STL@@V?$allocator@D@2@@_STL@@AAEXPAD0@Z
_TEXT	SEGMENT
___f$ = 8						; size = 4
___l$ = 12						; size = 4
$T102155 = 15						; size = 1
??$_M_range_initialize@PAD@?$basic_string@DV?$char_traits@D@_STL@@V?$allocator@D@2@@_STL@@AAEXPAD0@Z PROC NEAR ; _STL::basic_string<char,_STL::char_traits<char>,_STL::allocator<char> >::_M_range_initialize<char *>, COMDAT
; _this$ = ecx

; 390  :   template <class _InputIter> void _M_range_initialize(_InputIter __f, _InputIter __l) {

  00000	55		 push	 ebp
  00001	8b ec		 mov	 ebp, esp

; 391  :     _M_range_initialize(__f, __l, _STLP_ITERATOR_CATEGORY(__f, _InputIter));

  00003	8d 45 0f	 lea	 eax, DWORD PTR $T102155[ebp]
  00006	50		 push	 eax
  00007	ff 75 0c	 push	 DWORD PTR ___l$[ebp]
  0000a	ff 75 08	 push	 DWORD PTR ___f$[ebp]
  0000d	e8 00 00 00 00	 call	 ??$_M_range_initialize@PAD@?$basic_string@DV?$char_traits@D@_STL@@V?$allocator@D@2@@_STL@@AAEXPAD0ABUforward_iterator_tag@1@@Z ; _STL::basic_string<char,_STL::char_traits<char>,_STL::allocator<char> >::_M_range_initialize<char *>

; 392  :   }

  00012	5d		 pop	 ebp
  00013	c2 08 00	 ret	 8
??$_M_range_initialize@PAD@?$basic_string@DV?$char_traits@D@_STL@@V?$allocator@D@2@@_STL@@AAEXPAD0@Z ENDP ; _STL::basic_string<char,_STL::char_traits<char>,_STL::allocator<char> >::_M_range_initialize<char *>
_TEXT	ENDS
PUBLIC	??_G?$basic_string@DV?$char_traits@D@_STL@@V?$allocator@D@2@@_STL@@QAEPAXI@Z ; _STL::basic_string<char,_STL::char_traits<char>,_STL::allocator<char> >::`scalar deleting destructor'
; Function compile flags: /Ogsy
;	COMDAT ??_G?$basic_string@DV?$char_traits@D@_STL@@V?$allocator@D@2@@_STL@@QAEPAXI@Z
_TEXT	SEGMENT
___flags$ = 8						; size = 4
??_G?$basic_string@DV?$char_traits@D@_STL@@V?$allocator@D@2@@_STL@@QAEPAXI@Z PROC NEAR ; _STL::basic_string<char,_STL::char_traits<char>,_STL::allocator<char> >::`scalar deleting destructor', COMDAT
; _this$ = ecx
  00000	56		 push	 esi
  00001	8b f1		 mov	 esi, ecx
  00003	e8 00 00 00 00	 call	 ??1?$basic_string@DV?$char_traits@D@_STL@@V?$allocator@D@2@@_STL@@QAE@XZ ; _STL::basic_string<char,_STL::char_traits<char>,_STL::allocator<char> >::~basic_string<char,_STL::char_traits<char>,_STL::allocator<char> >
  00008	f6 44 24 08 01	 test	 BYTE PTR ___flags$[esp], 1
  0000d	74 07		 je	 SHORT $L100818
  0000f	56		 push	 esi
  00010	e8 00 00 00 00	 call	 ??3@YAXPAX@Z		; operator delete
  00015	59		 pop	 ecx
$L100818:
  00016	8b c6		 mov	 eax, esi
  00018	5e		 pop	 esi
  00019	c2 04 00	 ret	 4
??_G?$basic_string@DV?$char_traits@D@_STL@@V?$allocator@D@2@@_STL@@QAEPAXI@Z ENDP ; _STL::basic_string<char,_STL::char_traits<char>,_STL::allocator<char> >::`scalar deleting destructor'
_TEXT	ENDS
PUBLIC	??0?$basic_string@DV?$char_traits@D@_STL@@V?$allocator@D@2@@_STL@@QAE@ABV01@@Z ; _STL::basic_string<char,_STL::char_traits<char>,_STL::allocator<char> >::basic_string<char,_STL::char_traits<char>,_STL::allocator<char> >
;	COMDAT xdata$x
xdata$x	SEGMENT
$T102176 DD	0ffffffffH
	DD	FLAT:$L102162
$T102174 DD	019930520H
	DD	01H
	DD	FLAT:$T102176
	DD	2 DUP(00H)
	DD	2 DUP(00H)
; Function compile flags: /Ogsy
; File c:\stlport-4.6.1\stlport\stl\_string.c
xdata$x	ENDS
;	COMDAT ??0?$basic_string@DV?$char_traits@D@_STL@@V?$allocator@D@2@@_STL@@QAE@ABV01@@Z
_TEXT	SEGMENT
_this$ = -16						; size = 4
__$EHRec$ = -12						; size = 12
___s$ = 8						; size = 4
$T102170 = 11						; size = 1
$T102161 = 11						; size = 1
??0?$basic_string@DV?$char_traits@D@_STL@@V?$allocator@D@2@@_STL@@QAE@ABV01@@Z PROC NEAR ; _STL::basic_string<char,_STL::char_traits<char>,_STL::allocator<char> >::basic_string<char,_STL::char_traits<char>,_STL::allocator<char> >, COMDAT
; _this$ = ecx

; 560  : {  

  00000	b8 00 00 00 00	 mov	 eax, __ehhandler$??0?$basic_string@DV?$char_traits@D@_STL@@V?$allocator@D@2@@_STL@@QAE@ABV01@@Z
  00005	e8 00 00 00 00	 call	 __EH_prolog
  0000a	51		 push	 ecx
  0000b	56		 push	 esi
  0000c	8b 75 08	 mov	 esi, DWORD PTR ___s$[ebp]
  0000f	57		 push	 edi
  00010	8b f9		 mov	 edi, ecx
  00012	8d 45 0b	 lea	 eax, DWORD PTR $T102161[ebp]
  00015	50		 push	 eax
  00016	8b ce		 mov	 ecx, esi
  00018	89 7d f0	 mov	 DWORD PTR _this$[ebp], edi
  0001b	e8 00 00 00 00	 call	 ?get_allocator@?$basic_string@DV?$char_traits@D@_STL@@V?$allocator@D@2@@_STL@@QBE?AV?$allocator@D@2@XZ ; _STL::basic_string<char,_STL::char_traits<char>,_STL::allocator<char> >::get_allocator
  00020	50		 push	 eax
  00021	8b cf		 mov	 ecx, edi
  00023	e8 00 00 00 00	 call	 ??0?$_String_base@DV?$allocator@D@_STL@@@_STL@@QAE@ABV?$allocator@D@1@@Z ; _STL::_String_base<char,_STL::allocator<char> >::_String_base<char,_STL::allocator<char> >
  00028	83 65 fc 00	 and	 DWORD PTR __$EHRec$[ebp+8], 0

; 561  :   _M_range_initialize(__s._M_start, __s._M_finish);  

  0002c	8d 45 0b	 lea	 eax, DWORD PTR $T102170[ebp]
  0002f	50		 push	 eax
  00030	ff 76 04	 push	 DWORD PTR [esi+4]
  00033	8b cf		 mov	 ecx, edi
  00035	ff 36		 push	 DWORD PTR [esi]
  00037	e8 00 00 00 00	 call	 ??$_M_range_initialize@PAD@?$basic_string@DV?$char_traits@D@_STL@@V?$allocator@D@2@@_STL@@AAEXPAD0ABUforward_iterator_tag@1@@Z ; _STL::basic_string<char,_STL::char_traits<char>,_STL::allocator<char> >::_M_range_initialize<char *>

; 562  : } 

  0003c	8b 4d f4	 mov	 ecx, DWORD PTR __$EHRec$[ebp]
  0003f	8b c7		 mov	 eax, edi
  00041	5f		 pop	 edi
  00042	5e		 pop	 esi
  00043	64 89 0d 00 00
	00 00		 mov	 DWORD PTR fs:__except_list, ecx
  0004a	c9		 leave
  0004b	c2 04 00	 ret	 4
_TEXT	ENDS
;	COMDAT text$x
text$x	SEGMENT
$L102162:
  00000	8b 4d f0	 mov	 ecx, DWORD PTR _this$[ebp]
  00003	e9 00 00 00 00	 jmp	 ??1?$_String_base@DV?$allocator@D@_STL@@@_STL@@QAE@XZ ; _STL::_String_base<char,_STL::allocator<char> >::~_String_base<char,_STL::allocator<char> >
__ehhandler$??0?$basic_string@DV?$char_traits@D@_STL@@V?$allocator@D@2@@_STL@@QAE@ABV01@@Z:
  00008	b8 00 00 00 00	 mov	 eax, OFFSET FLAT:$T102174
  0000d	e9 00 00 00 00	 jmp	 ___CxxFrameHandler
text$x	ENDS
??0?$basic_string@DV?$char_traits@D@_STL@@V?$allocator@D@2@@_STL@@QAE@ABV01@@Z ENDP ; _STL::basic_string<char,_STL::char_traits<char>,_STL::allocator<char> >::basic_string<char,_STL::char_traits<char>,_STL::allocator<char> >
PUBLIC	??$_Construct@V?$basic_string@DV?$char_traits@D@_STL@@V?$allocator@D@2@@_STL@@V12@@_STL@@YAXPAV?$basic_string@DV?$char_traits@D@_STL@@V?$allocator@D@2@@0@ABV10@@Z ; _STL::_Construct<_STL::basic_string<char,_STL::char_traits<char>,_STL::allocator<char> >,_STL::basic_string<char,_STL::char_traits<char>,_STL::allocator<char> > >
;	COMDAT xdata$x
; File c:\program files\microsoft visual studio .net 2003\vc7\include\new
xdata$x	SEGMENT
$T102192 DD	0ffffffffH
	DD	FLAT:$L102185
$T102190 DD	019930520H
	DD	01H
	DD	FLAT:$T102192
	DD	2 DUP(00H)
	DD	2 DUP(00H)
; Function compile flags: /Ogsy
; File c:\stlport-4.6.1\stlport\stl\_construct.h
xdata$x	ENDS
;	COMDAT ??$_Construct@V?$basic_string@DV?$char_traits@D@_STL@@V?$allocator@D@2@@_STL@@V12@@_STL@@YAXPAV?$basic_string@DV?$char_traits@D@_STL@@V?$allocator@D@2@@0@ABV10@@Z
_TEXT	SEGMENT
$T102182 = -16						; size = 4
__$EHRec$ = -12						; size = 12
___p$ = 8						; size = 4
___val$ = 12						; size = 4
??$_Construct@V?$basic_string@DV?$char_traits@D@_STL@@V?$allocator@D@2@@_STL@@V12@@_STL@@YAXPAV?$basic_string@DV?$char_traits@D@_STL@@V?$allocator@D@2@@0@ABV10@@Z PROC NEAR ; _STL::_Construct<_STL::basic_string<char,_STL::char_traits<char>,_STL::allocator<char> >,_STL::basic_string<char,_STL::char_traits<char>,_STL::allocator<char> > >, COMDAT

; 93   : inline void _Construct(_T1* __p, const _T2& __val) {

  00000	b8 00 00 00 00	 mov	 eax, __ehhandler$??$_Construct@V?$basic_string@DV?$char_traits@D@_STL@@V?$allocator@D@2@@_STL@@V12@@_STL@@YAXPAV?$basic_string@DV?$char_traits@D@_STL@@V?$allocator@D@2@@0@ABV10@@Z
  00005	e8 00 00 00 00	 call	 __EH_prolog
  0000a	51		 push	 ecx

; 94   : # ifdef _STLP_DEBUG_UNINITIALIZED
; 95   : 	memset((char*)__p, _STLP_SHRED_BYTE, sizeof(_T1));
; 96   : # endif
; 97   :     _STLP_PLACEMENT_NEW (__p) _T1(__val);

  0000b	8b 4d 08	 mov	 ecx, DWORD PTR ___p$[ebp]
  0000e	89 4d f0	 mov	 DWORD PTR $T102182[ebp], ecx
  00011	83 65 fc 00	 and	 DWORD PTR __$EHRec$[ebp+8], 0
  00015	85 c9		 test	 ecx, ecx
  00017	74 08		 je	 SHORT $L102183
  00019	ff 75 0c	 push	 DWORD PTR ___val$[ebp]
  0001c	e8 00 00 00 00	 call	 ??0?$basic_string@DV?$char_traits@D@_STL@@V?$allocator@D@2@@_STL@@QAE@ABV01@@Z ; _STL::basic_string<char,_STL::char_traits<char>,_STL::allocator<char> >::basic_string<char,_STL::char_traits<char>,_STL::allocator<char> >
$L102183:

; 98   : }

  00021	8b 4d f4	 mov	 ecx, DWORD PTR __$EHRec$[ebp]
  00024	64 89 0d 00 00
	00 00		 mov	 DWORD PTR fs:__except_list, ecx
  0002b	c9		 leave
  0002c	c3		 ret	 0
_TEXT	ENDS
;	COMDAT text$x
text$x	SEGMENT
$L102185:
  00000	ff 75 08	 push	 DWORD PTR ___p$[ebp]
  00003	ff 75 f0	 push	 DWORD PTR $T102182[ebp]
  00006	e8 00 00 00 00	 call	 ??3@YAXPAX0@Z		; operator delete
  0000b	59		 pop	 ecx
  0000c	59		 pop	 ecx
  0000d	c3		 ret	 0
__ehhandler$??$_Construct@V?$basic_string@DV?$char_traits@D@_STL@@V?$allocator@D@2@@_STL@@V12@@_STL@@YAXPAV?$basic_string@DV?$char_traits@D@_STL@@V?$allocator@D@2@@0@ABV10@@Z:
  0000e	b8 00 00 00 00	 mov	 eax, OFFSET FLAT:$T102190
  00013	e9 00 00 00 00	 jmp	 ___CxxFrameHandler
text$x	ENDS
??$_Construct@V?$basic_string@DV?$char_traits@D@_STL@@V?$allocator@D@2@@_STL@@V12@@_STL@@YAXPAV?$basic_string@DV?$char_traits@D@_STL@@V?$allocator@D@2@@0@ABV10@@Z ENDP ; _STL::_Construct<_STL::basic_string<char,_STL::char_traits<char>,_STL::allocator<char> >,_STL::basic_string<char,_STL::char_traits<char>,_STL::allocator<char> > >
PUBLIC	??$_Destroy@V?$basic_string@DV?$char_traits@D@_STL@@V?$allocator@D@2@@_STL@@@_STL@@YAXPAV?$basic_string@DV?$char_traits@D@_STL@@V?$allocator@D@2@@0@@Z ; _STL::_Destroy<_STL::basic_string<char,_STL::char_traits<char>,_STL::allocator<char> > >
; Function compile flags: /Ogsy
;	COMDAT ??$_Destroy@V?$basic_string@DV?$char_traits@D@_STL@@V?$allocator@D@2@@_STL@@@_STL@@YAXPAV?$basic_string@DV?$char_traits@D@_STL@@V?$allocator@D@2@@0@@Z
_TEXT	SEGMENT
___pointer$ = 8						; size = 4
??$_Destroy@V?$basic_string@DV?$char_traits@D@_STL@@V?$allocator@D@2@@_STL@@@_STL@@YAXPAV?$basic_string@DV?$char_traits@D@_STL@@V?$allocator@D@2@@0@@Z PROC NEAR ; _STL::_Destroy<_STL::basic_string<char,_STL::char_traits<char>,_STL::allocator<char> > >, COMDAT

; 57   : # if _MSC_VER >= 1010
; 58   :   __pointer;
; 59   : # endif	// _MSC_VER >= 1000
; 60   : # ifdef _STLP_TRIVIAL_DESTRUCTOR_BUG
; 61   :   typedef typename __type_traits<_Tp>::has_trivial_destructor _Trivial_destructor;
; 62   :   __destroy_aux(__pointer, _Trivial_destructor());
; 63   : # else
; 64   : #  if ( defined (__BORLANDC__) && ( __BORLANDC__ < 0x500 ) )
; 65   :     __pointer->_Tp::~_Tp();
; 66   : #  else
; 67   :     __pointer->~_Tp();

  00000	8b 4c 24 04	 mov	 ecx, DWORD PTR ___pointer$[esp-4]
  00004	e9 00 00 00 00	 jmp	 ??1?$basic_string@DV?$char_traits@D@_STL@@V?$allocator@D@2@@_STL@@QAE@XZ ; _STL::basic_string<char,_STL::char_traits<char>,_STL::allocator<char> >::~basic_string<char,_STL::char_traits<char>,_STL::allocator<char> >
??$_Destroy@V?$basic_string@DV?$char_traits@D@_STL@@V?$allocator@D@2@@_STL@@@_STL@@YAXPAV?$basic_string@DV?$char_traits@D@_STL@@V?$allocator@D@2@@0@@Z ENDP ; _STL::_Destroy<_STL::basic_string<char,_STL::char_traits<char>,_STL::allocator<char> > >
_TEXT	ENDS
PUBLIC	?_M_create_node@?$list@V?$basic_string@DV?$char_traits@D@_STL@@V?$allocator@D@2@@_STL@@V?$allocator@V?$basic_string@DV?$char_traits@D@_STL@@V?$allocator@D@2@@_STL@@@2@@_STL@@IAEPAU?$_List_node@V?$basic_string@DV?$char_traits@D@_STL@@V?$allocator@D@2@@_STL@@@2@ABV?$basic_string@DV?$char_traits@D@_STL@@V?$allocator@D@2@@2@@Z ; _STL::list<_STL::basic_string<char,_STL::char_traits<char>,_STL::allocator<char> >,_STL::allocator<_STL::basic_string<char,_STL::char_traits<char>,_STL::allocator<char> > > >::_M_create_node
EXTRN	__CxxThrowException@8:NEAR
;	COMDAT xdata$x
; File c:\stlport-4.6.1\stlport\stl\_alloc.h
xdata$x	SEGMENT
$T102218 DD	0ffffffffH
	DD	00H
	DD	0ffffffffH
	DD	00H
$T102220 DD	00H
	DD	00H
	DD	00H
	DD	FLAT:$L102206
$T102219 DD	00H
	DD	00H
	DD	01H
	DD	01H
	DD	FLAT:$T102220
$T102215 DD	019930520H
	DD	02H
	DD	FLAT:$T102218
	DD	01H
	DD	FLAT:$T102219
	DD	2 DUP(00H)
; Function compile flags: /Ogsy
; File c:\stlport-4.6.1\stlport\stl\_list.h
xdata$x	ENDS
;	COMDAT ?_M_create_node@?$list@V?$basic_string@DV?$char_traits@D@_STL@@V?$allocator@D@2@@_STL@@V?$allocator@V?$basic_string@DV?$char_traits@D@_STL@@V?$allocator@D@2@@_STL@@@2@@_STL@@IAEPAU?$_List_node@V?$basic_string@DV?$char_traits@D@_STL@@V?$allocator@D@2@@_STL@@@2@ABV?$basic_string@DV?$char_traits@D@_STL@@V?$allocator@D@2@@2@@Z
_TEXT	SEGMENT
_this$ = -24						; size = 4
___p$ = -20						; size = 4
__$EHRec$ = -16						; size = 16
___x$ = 8						; size = 4
?_M_create_node@?$list@V?$basic_string@DV?$char_traits@D@_STL@@V?$allocator@D@2@@_STL@@V?$allocator@V?$basic_string@DV?$char_traits@D@_STL@@V?$allocator@D@2@@_STL@@@2@@_STL@@IAEPAU?$_List_node@V?$basic_string@DV?$char_traits@D@_STL@@V?$allocator@D@2@@_STL@@@2@ABV?$basic_string@DV?$char_traits@D@_STL@@V?$allocator@D@2@@2@@Z PROC NEAR ; _STL::list<_STL::basic_string<char,_STL::char_traits<char>,_STL::allocator<char> >,_STL::allocator<_STL::basic_string<char,_STL::char_traits<char>,_STL::allocator<char> > > >::_M_create_node, COMDAT
; _this$ = ecx

; 240  :   {

  00000	b8 00 00 00 00	 mov	 eax, __ehhandler$?_M_create_node@?$list@V?$basic_string@DV?$char_traits@D@_STL@@V?$allocator@D@2@@_STL@@V?$allocator@V?$basic_string@DV?$char_traits@D@_STL@@V?$allocator@D@2@@_STL@@@2@@_STL@@IAEPAU?$_List_node@V?$basic_string@DV?$char_traits@D@_STL@@V?$allocator@D@2@@_STL@@@2@ABV?$basic_string@DV?$char_traits@D@_STL@@V?$allocator@D@2@@2@@Z
  00005	e8 00 00 00 00	 call	 __EH_prolog
  0000a	83 ec 0c	 sub	 esp, 12			; 0000000cH
  0000d	53		 push	 ebx
  0000e	56		 push	 esi
  0000f	57		 push	 edi
  00010	89 65 f0	 mov	 DWORD PTR __$EHRec$[ebp], esp

; 241  :     _Node* __p = this->_M_node.allocate(1);

  00013	6a 14		 push	 20			; 00000014H
  00015	89 4d e8	 mov	 DWORD PTR _this$[ebp], ecx
  00018	e8 00 00 00 00	 call	 ?allocate@?$__node_alloc@$00$0A@@_STL@@SAPAXI@Z ; _STL::__node_alloc<1,0>::allocate

; 242  :     _STLP_TRY {
; 243  :       _Construct(&__p->_M_data, __x);

  0001d	ff 75 08	 push	 DWORD PTR ___x$[ebp]
  00020	83 65 fc 00	 and	 DWORD PTR __$EHRec$[ebp+12], 0
  00024	8b f0		 mov	 esi, eax
  00026	8d 46 08	 lea	 eax, DWORD PTR [esi+8]
  00029	50		 push	 eax
  0002a	89 75 ec	 mov	 DWORD PTR ___p$[ebp], esi
  0002d	e8 00 00 00 00	 call	 ??$_Construct@V?$basic_string@DV?$char_traits@D@_STL@@V?$allocator@D@2@@_STL@@V12@@_STL@@YAXPAV?$basic_string@DV?$char_traits@D@_STL@@V?$allocator@D@2@@0@ABV10@@Z ; _STL::_Construct<_STL::basic_string<char,_STL::char_traits<char>,_STL::allocator<char> >,_STL::basic_string<char,_STL::char_traits<char>,_STL::allocator<char> > >

; 246  :     return __p;
; 247  :   }

  00032	8b 4d f4	 mov	 ecx, DWORD PTR __$EHRec$[ebp+4]
  00035	83 c4 0c	 add	 esp, 12			; 0000000cH
  00038	5f		 pop	 edi
  00039	8b c6		 mov	 eax, esi
  0003b	5e		 pop	 esi
  0003c	64 89 0d 00 00
	00 00		 mov	 DWORD PTR fs:__except_list, ecx
  00043	5b		 pop	 ebx
  00044	c9		 leave
  00045	c2 04 00	 ret	 4
$L102206:

; 244  :     }
; 245  :     _STLP_UNWIND(this->_M_node.deallocate(__p, 1));

  00048	8b 4d e8	 mov	 ecx, DWORD PTR _this$[ebp]
  0004b	6a 01		 push	 1
  0004d	ff 75 ec	 push	 DWORD PTR ___p$[ebp]
  00050	e8 00 00 00 00	 call	 ?deallocate@?$allocator@U?$_List_node@V?$basic_string@DV?$char_traits@D@_STL@@V?$allocator@D@2@@_STL@@@_STL@@@_STL@@QAEXPAU?$_List_node@V?$basic_string@DV?$char_traits@D@_STL@@V?$allocator@D@2@@_STL@@@2@I@Z ; _STL::allocator<_STL::_List_node<_STL::basic_string<char,_STL::char_traits<char>,_STL::allocator<char> > > >::deallocate
  00055	6a 00		 push	 0
  00057	6a 00		 push	 0
  00059	e8 00 00 00 00	 call	 __CxxThrowException@8
$L102221:
$L102217:
  0005e	cc		 int	 3
_TEXT	ENDS
;	COMDAT text$x
text$x	SEGMENT
__ehhandler$?_M_create_node@?$list@V?$basic_string@DV?$char_traits@D@_STL@@V?$allocator@D@2@@_STL@@V?$allocator@V?$basic_string@DV?$char_traits@D@_STL@@V?$allocator@D@2@@_STL@@@2@@_STL@@IAEPAU?$_List_node@V?$basic_string@DV?$char_traits@D@_STL@@V?$allocator@D@2@@_STL@@@2@ABV?$basic_string@DV?$char_traits@D@_STL@@V?$allocator@D@2@@2@@Z:
  00000	b8 00 00 00 00	 mov	 eax, OFFSET FLAT:$T102215
  00005	e9 00 00 00 00	 jmp	 ___CxxFrameHandler
text$x	ENDS
?_M_create_node@?$list@V?$basic_string@DV?$char_traits@D@_STL@@V?$allocator@D@2@@_STL@@V?$allocator@V?$basic_string@DV?$char_traits@D@_STL@@V?$allocator@D@2@@_STL@@@2@@_STL@@IAEPAU?$_List_node@V?$basic_string@DV?$char_traits@D@_STL@@V?$allocator@D@2@@_STL@@@2@ABV?$basic_string@DV?$char_traits@D@_STL@@V?$allocator@D@2@@2@@Z ENDP ; _STL::list<_STL::basic_string<char,_STL::char_traits<char>,_STL::allocator<char> >,_STL::allocator<_STL::basic_string<char,_STL::char_traits<char>,_STL::allocator<char> > > >::_M_create_node
PUBLIC	?clear@?$_List_base@V?$basic_string@DV?$char_traits@D@_STL@@V?$allocator@D@2@@_STL@@V?$allocator@V?$basic_string@DV?$char_traits@D@_STL@@V?$allocator@D@2@@_STL@@@2@@_STL@@QAEXXZ ; _STL::_List_base<_STL::basic_string<char,_STL::char_traits<char>,_STL::allocator<char> >,_STL::allocator<_STL::basic_string<char,_STL::char_traits<char>,_STL::allocator<char> > > >::clear
; Function compile flags: /Ogsy
; File c:\stlport-4.6.1\stlport\stl\_list.c
;	COMDAT ?clear@?$_List_base@V?$basic_string@DV?$char_traits@D@_STL@@V?$allocator@D@2@@_STL@@V?$allocator@V?$basic_string@DV?$char_traits@D@_STL@@V?$allocator@D@2@@_STL@@@2@@_STL@@QAEXXZ
_TEXT	SEGMENT
?clear@?$_List_base@V?$basic_string@DV?$char_traits@D@_STL@@V?$allocator@D@2@@_STL@@V?$allocator@V?$basic_string@DV?$char_traits@D@_STL@@V?$allocator@D@2@@_STL@@@2@@_STL@@QAEXXZ PROC NEAR ; _STL::_List_base<_STL::basic_string<char,_STL::char_traits<char>,_STL::allocator<char> >,_STL::allocator<_STL::basic_string<char,_STL::char_traits<char>,_STL::allocator<char> > > >::clear, COMDAT
; _this$ = ecx

; 68   : {

  00000	56		 push	 esi
  00001	57		 push	 edi
  00002	8b f9		 mov	 edi, ecx

; 69   :   _List_node<_Tp>* __cur = (_List_node<_Tp>*) this->_M_node._M_data->_M_next;

  00004	8b 07		 mov	 eax, DWORD PTR [edi]
  00006	8b 30		 mov	 esi, DWORD PTR [eax]

; 70   :   while (__cur != this->_M_node._M_data) {

  00008	3b f0		 cmp	 esi, eax
  0000a	74 1c		 je	 SHORT $L98971
  0000c	53		 push	 ebx
$L98970:

; 71   :     _List_node<_Tp>* __tmp = __cur;

  0000d	8b de		 mov	 ebx, esi

; 72   :     __cur = (_List_node<_Tp>*) __cur->_M_next;

  0000f	8b 36		 mov	 esi, DWORD PTR [esi]

; 73   :     _STLP_STD::_Destroy(&__tmp->_M_data);

  00011	8d 4b 08	 lea	 ecx, DWORD PTR [ebx+8]
  00014	e8 00 00 00 00	 call	 ??1?$basic_string@DV?$char_traits@D@_STL@@V?$allocator@D@2@@_STL@@QAE@XZ ; _STL::basic_string<char,_STL::char_traits<char>,_STL::allocator<char> >::~basic_string<char,_STL::char_traits<char>,_STL::allocator<char> >

; 74   :     this->_M_node.deallocate(__tmp, 1);

  00019	6a 01		 push	 1
  0001b	53		 push	 ebx
  0001c	8b cf		 mov	 ecx, edi
  0001e	e8 00 00 00 00	 call	 ?deallocate@?$allocator@U?$_List_node@V?$basic_string@DV?$char_traits@D@_STL@@V?$allocator@D@2@@_STL@@@_STL@@@_STL@@QAEXPAU?$_List_node@V?$basic_string@DV?$char_traits@D@_STL@@V?$allocator@D@2@@_STL@@@2@I@Z ; _STL::allocator<_STL::_List_node<_STL::basic_string<char,_STL::char_traits<char>,_STL::allocator<char> > > >::deallocate
  00023	3b 37		 cmp	 esi, DWORD PTR [edi]
  00025	75 e6		 jne	 SHORT $L98970
  00027	5b		 pop	 ebx
$L98971:

; 75   :   }
; 76   :   this->_M_node._M_data->_M_next = this->_M_node._M_data;

  00028	8b 07		 mov	 eax, DWORD PTR [edi]
  0002a	89 00		 mov	 DWORD PTR [eax], eax

; 77   :   this->_M_node._M_data->_M_prev = this->_M_node._M_data;

  0002c	8b 3f		 mov	 edi, DWORD PTR [edi]
  0002e	89 7f 04	 mov	 DWORD PTR [edi+4], edi
  00031	5f		 pop	 edi
  00032	5e		 pop	 esi

; 78   : }

  00033	c3		 ret	 0
?clear@?$_List_base@V?$basic_string@DV?$char_traits@D@_STL@@V?$allocator@D@2@@_STL@@V?$allocator@V?$basic_string@DV?$char_traits@D@_STL@@V?$allocator@D@2@@_STL@@@2@@_STL@@QAEXXZ ENDP ; _STL::_List_base<_STL::basic_string<char,_STL::char_traits<char>,_STL::allocator<char> >,_STL::allocator<_STL::basic_string<char,_STL::char_traits<char>,_STL::allocator<char> > > >::clear
_TEXT	ENDS
PUBLIC	?insert@?$list@V?$basic_string@DV?$char_traits@D@_STL@@V?$allocator@D@2@@_STL@@V?$allocator@V?$basic_string@DV?$char_traits@D@_STL@@V?$allocator@D@2@@_STL@@@2@@_STL@@QAE?AU?$_List_iterator@V?$basic_string@DV?$char_traits@D@_STL@@V?$allocator@D@2@@_STL@@U?$_Nonconst_traits@V?$basic_string@DV?$char_traits@D@_STL@@V?$allocator@D@2@@_STL@@@2@@2@U32@ABV?$basic_string@DV?$char_traits@D@_STL@@V?$allocator@D@2@@2@@Z ; _STL::list<_STL::basic_string<char,_STL::char_traits<char>,_STL::allocator<char> >,_STL::allocator<_STL::basic_string<char,_STL::char_traits<char>,_STL::allocator<char> > > >::insert
; Function compile flags: /Ogsy
; File c:\stlport-4.6.1\stlport\stl\_list.h
;	COMDAT ?insert@?$list@V?$basic_string@DV?$char_traits@D@_STL@@V?$allocator@D@2@@_STL@@V?$allocator@V?$basic_string@DV?$char_traits@D@_STL@@V?$allocator@D@2@@_STL@@@2@@_STL@@QAE?AU?$_List_iterator@V?$basic_string@DV?$char_traits@D@_STL@@V?$allocator@D@2@@_STL@@U?$_Nonconst_traits@V?$basic_string@DV?$char_traits@D@_STL@@V?$allocator@D@2@@_STL@@@2@@2@U32@ABV?$basic_string@DV?$char_traits@D@_STL@@V?$allocator@D@2@@2@@Z
_TEXT	SEGMENT
___$ReturnUdt$ = 8					; size = 4
___position$ = 12					; size = 4
___x$ = 16						; size = 4
?insert@?$list@V?$basic_string@DV?$char_traits@D@_STL@@V?$allocator@D@2@@_STL@@V?$allocator@V?$basic_string@DV?$char_traits@D@_STL@@V?$allocator@D@2@@_STL@@@2@@_STL@@QAE?AU?$_List_iterator@V?$basic_string@DV?$char_traits@D@_STL@@V?$allocator@D@2@@_STL@@U?$_Nonconst_traits@V?$basic_string@DV?$char_traits@D@_STL@@V?$allocator@D@2@@_STL@@@2@@2@U32@ABV?$basic_string@DV?$char_traits@D@_STL@@V?$allocator@D@2@@2@@Z PROC NEAR ; _STL::list<_STL::basic_string<char,_STL::char_traits<char>,_STL::allocator<char> >,_STL::allocator<_STL::basic_string<char,_STL::char_traits<char>,_STL::allocator<char> > > >::insert, COMDAT
; _this$ = ecx

; 299  : 
; 300  :     _Node* __tmp = _M_create_node(__x);

  00000	ff 74 24 0c	 push	 DWORD PTR ___x$[esp-4]
  00004	e8 00 00 00 00	 call	 ?_M_create_node@?$list@V?$basic_string@DV?$char_traits@D@_STL@@V?$allocator@D@2@@_STL@@V?$allocator@V?$basic_string@DV?$char_traits@D@_STL@@V?$allocator@D@2@@_STL@@@2@@_STL@@IAEPAU?$_List_node@V?$basic_string@DV?$char_traits@D@_STL@@V?$allocator@D@2@@_STL@@@2@ABV?$basic_string@DV?$char_traits@D@_STL@@V?$allocator@D@2@@2@@Z ; _STL::list<_STL::basic_string<char,_STL::char_traits<char>,_STL::allocator<char> >,_STL::allocator<_STL::basic_string<char,_STL::char_traits<char>,_STL::allocator<char> > > >::_M_create_node

; 301  :     _List_node_base* __n = __position._M_node;
; 302  :     _List_node_base* __p = __n->_M_prev;

  00009	8b 4c 24 08	 mov	 ecx, DWORD PTR ___position$[esp-4]
  0000d	8b 51 04	 mov	 edx, DWORD PTR [ecx+4]

; 303  :     __tmp->_M_next = __n;

  00010	89 08		 mov	 DWORD PTR [eax], ecx

; 304  :     __tmp->_M_prev = __p;

  00012	89 50 04	 mov	 DWORD PTR [eax+4], edx

; 305  :     __p->_M_next = __tmp;

  00015	89 02		 mov	 DWORD PTR [edx], eax

; 306  :     __n->_M_prev = __tmp;

  00017	89 41 04	 mov	 DWORD PTR [ecx+4], eax

; 307  :     return __tmp;

  0001a	8b 4c 24 04	 mov	 ecx, DWORD PTR ___$ReturnUdt$[esp-4]
  0001e	89 01		 mov	 DWORD PTR [ecx], eax
  00020	8b c1		 mov	 eax, ecx

; 308  :   }

  00022	c2 0c 00	 ret	 12			; 0000000cH
?insert@?$list@V?$basic_string@DV?$char_traits@D@_STL@@V?$allocator@D@2@@_STL@@V?$allocator@V?$basic_string@DV?$char_traits@D@_STL@@V?$allocator@D@2@@_STL@@@2@@_STL@@QAE?AU?$_List_iterator@V?$basic_string@DV?$char_traits@D@_STL@@V?$allocator@D@2@@_STL@@U?$_Nonconst_traits@V?$basic_string@DV?$char_traits@D@_STL@@V?$allocator@D@2@@_STL@@@2@@2@U32@ABV?$basic_string@DV?$char_traits@D@_STL@@V?$allocator@D@2@@2@@Z ENDP ; _STL::list<_STL::basic_string<char,_STL::char_traits<char>,_STL::allocator<char> >,_STL::allocator<_STL::basic_string<char,_STL::char_traits<char>,_STL::allocator<char> > > >::insert
_TEXT	ENDS
PUBLIC	??1?$_List_base@V?$basic_string@DV?$char_traits@D@_STL@@V?$allocator@D@2@@_STL@@V?$allocator@V?$basic_string@DV?$char_traits@D@_STL@@V?$allocator@D@2@@_STL@@@2@@_STL@@QAE@XZ ; _STL::_List_base<_STL::basic_string<char,_STL::char_traits<char>,_STL::allocator<char> >,_STL::allocator<_STL::basic_string<char,_STL::char_traits<char>,_STL::allocator<char> > > >::~_List_base<_STL::basic_string<char,_STL::char_traits<char>,_STL::allocator<char> >,_STL::allocator<_STL::basic_string<char,_STL::char_traits<char>,_STL::allocator<char> > > >
; Function compile flags: /Ogsy
;	COMDAT ??1?$_List_base@V?$basic_string@DV?$char_traits@D@_STL@@V?$allocator@D@2@@_STL@@V?$allocator@V?$basic_string@DV?$char_traits@D@_STL@@V?$allocator@D@2@@_STL@@@2@@_STL@@QAE@XZ
_TEXT	SEGMENT
??1?$_List_base@V?$basic_string@DV?$char_traits@D@_STL@@V?$allocator@D@2@@_STL@@V?$allocator@V?$basic_string@DV?$char_traits@D@_STL@@V?$allocator@D@2@@_STL@@@2@@_STL@@QAE@XZ PROC NEAR ; _STL::_List_base<_STL::basic_string<char,_STL::char_traits<char>,_STL::allocator<char> >,_STL::allocator<_STL::basic_string<char,_STL::char_traits<char>,_STL::allocator<char> > > >::~_List_base<_STL::basic_string<char,_STL::char_traits<char>,_STL::allocator<char> >,_STL::allocator<_STL::basic_string<char,_STL::char_traits<char>,_STL::allocator<char> > > >, COMDAT
; _this$ = ecx

; 188  :   ~_List_base() {

  00000	56		 push	 esi
  00001	8b f1		 mov	 esi, ecx

; 189  :     clear();

  00003	e8 00 00 00 00	 call	 ?clear@?$_List_base@V?$basic_string@DV?$char_traits@D@_STL@@V?$allocator@D@2@@_STL@@V?$allocator@V?$basic_string@DV?$char_traits@D@_STL@@V?$allocator@D@2@@_STL@@@2@@_STL@@QAEXXZ ; _STL::_List_base<_STL::basic_string<char,_STL::char_traits<char>,_STL::allocator<char> >,_STL::allocator<_STL::basic_string<char,_STL::char_traits<char>,_STL::allocator<char> > > >::clear

; 190  :     _M_node.deallocate(_M_node._M_data, 1);

  00008	6a 01		 push	 1
  0000a	ff 36		 push	 DWORD PTR [esi]
  0000c	8b ce		 mov	 ecx, esi
  0000e	e8 00 00 00 00	 call	 ?deallocate@?$allocator@U?$_List_node@V?$basic_string@DV?$char_traits@D@_STL@@V?$allocator@D@2@@_STL@@@_STL@@@_STL@@QAEXPAU?$_List_node@V?$basic_string@DV?$char_traits@D@_STL@@V?$allocator@D@2@@_STL@@@2@I@Z ; _STL::allocator<_STL::_List_node<_STL::basic_string<char,_STL::char_traits<char>,_STL::allocator<char> > > >::deallocate
  00013	5e		 pop	 esi

; 191  :   }

  00014	c3		 ret	 0
??1?$_List_base@V?$basic_string@DV?$char_traits@D@_STL@@V?$allocator@D@2@@_STL@@V?$allocator@V?$basic_string@DV?$char_traits@D@_STL@@V?$allocator@D@2@@_STL@@@2@@_STL@@QAE@XZ ENDP ; _STL::_List_base<_STL::basic_string<char,_STL::char_traits<char>,_STL::allocator<char> >,_STL::allocator<_STL::basic_string<char,_STL::char_traits<char>,_STL::allocator<char> > > >::~_List_base<_STL::basic_string<char,_STL::char_traits<char>,_STL::allocator<char> >,_STL::allocator<_STL::basic_string<char,_STL::char_traits<char>,_STL::allocator<char> > > >
_TEXT	ENDS
PUBLIC	??$_M_insert_dispatch@U?$_List_iterator@V?$basic_string@DV?$char_traits@D@_STL@@V?$allocator@D@2@@_STL@@U?$_Const_traits@V?$basic_string@DV?$char_traits@D@_STL@@V?$allocator@D@2@@_STL@@@2@@_STL@@@?$list@V?$basic_string@DV?$char_traits@D@_STL@@V?$allocator@D@2@@_STL@@V?$allocator@V?$basic_string@DV?$char_traits@D@_STL@@V?$allocator@D@2@@_STL@@@2@@_STL@@QAEXU?$_List_iterator@V?$basic_string@DV?$char_traits@D@_STL@@V?$allocator@D@2@@_STL@@U?$_Nonconst_traits@V?$basic_string@DV?$char_traits@D@_STL@@V?$allocator@D@2@@_STL@@@2@@1@U?$_List_iterator@V?$basic_string@DV?$char_traits@D@_STL@@V?$allocator@D@2@@_STL@@U?$_Const_traits@V?$basic_string@DV?$char_traits@D@_STL@@V?$allocator@D@2@@_STL@@@2@@1@1ABU__false_type@1@@Z ; _STL::list<_STL::basic_string<char,_STL::char_traits<char>,_STL::allocator<char> >,_STL::allocator<_STL::basic_string<char,_STL::char_traits<char>,_STL::allocator<char> > > >::_M_insert_dispatch<_STL::_List_iterator<_STL::basic_string<char,_STL::char_traits<char>,_STL::allocator<char> >,_STL::_Const_traits<_STL::basic_string<char,_STL::char_traits<char>,_STL::allocator<char> > > > >
; Function compile flags: /Ogsy
;	COMDAT ??$_M_insert_dispatch@U?$_List_iterator@V?$basic_string@DV?$char_traits@D@_STL@@V?$allocator@D@2@@_STL@@U?$_Const_traits@V?$basic_string@DV?$char_traits@D@_STL@@V?$allocator@D@2@@_STL@@@2@@_STL@@@?$list@V?$basic_string@DV?$char_traits@D@_STL@@V?$allocator@D@2@@_STL@@V?$allocator@V?$basic_string@DV?$char_traits@D@_STL@@V?$allocator@D@2@@_STL@@@2@@_STL@@QAEXU?$_List_iterator@V?$basic_string@DV?$char_traits@D@_STL@@V?$allocator@D@2@@_STL@@U?$_Nonconst_traits@V?$basic_string@DV?$char_traits@D@_STL@@V?$allocator@D@2@@_STL@@@2@@1@U?$_List_iterator@V?$basic_string@DV?$char_traits@D@_STL@@V?$allocator@D@2@@_STL@@U?$_Const_traits@V?$basic_string@DV?$char_traits@D@_STL@@V?$allocator@D@2@@_STL@@@2@@1@1ABU__false_type@1@@Z
_TEXT	SEGMENT
___position$ = 8					; size = 4
$T102257 = 12						; size = 4
___first$ = 12						; size = 4
___last$ = 16						; size = 4
___formal$ = 20						; size = 4
??$_M_insert_dispatch@U?$_List_iterator@V?$basic_string@DV?$char_traits@D@_STL@@V?$allocator@D@2@@_STL@@U?$_Const_traits@V?$basic_string@DV?$char_traits@D@_STL@@V?$allocator@D@2@@_STL@@@2@@_STL@@@?$list@V?$basic_string@DV?$char_traits@D@_STL@@V?$allocator@D@2@@_STL@@V?$allocator@V?$basic_string@DV?$char_traits@D@_STL@@V?$allocator@D@2@@_STL@@@2@@_STL@@QAEXU?$_List_iterator@V?$basic_string@DV?$char_traits@D@_STL@@V?$allocator@D@2@@_STL@@U?$_Nonconst_traits@V?$basic_string@DV?$char_traits@D@_STL@@V?$allocator@D@2@@_STL@@@2@@1@U?$_List_iterator@V?$basic_string@DV?$char_traits@D@_STL@@V?$allocator@D@2@@_STL@@U?$_Const_traits@V?$basic_string@DV?$char_traits@D@_STL@@V?$allocator@D@2@@_STL@@@2@@1@1ABU__false_type@1@@Z PROC NEAR ; _STL::list<_STL::basic_string<char,_STL::char_traits<char>,_STL::allocator<char> >,_STL::allocator<_STL::basic_string<char,_STL::char_traits<char>,_STL::allocator<char> > > >::_M_insert_dispatch<_STL::_List_iterator<_STL::basic_string<char,_STL::char_traits<char>,_STL::allocator<char> >,_STL::_Const_traits<_STL::basic_string<char,_STL::char_traits<char>,_STL::allocator<char> > > > >, COMDAT
; _this$ = ecx

; 323  :   void 

  00000	55		 push	 ebp
  00001	8b ec		 mov	 ebp, esp
  00003	56		 push	 esi

; 324  :   _M_insert_dispatch(iterator __position,
; 325  : 		     _InputIter __first, _InputIter __last,
; 326  : 		     const __false_type&) 
; 327  : #else /* _STLP_MEMBER_TEMPLATES */
; 328  :   void insert(iterator __position, const _Tp* __first, const _Tp* __last) {
; 329  :     for ( ; __first != __last; ++__first)
; 330  :       insert(__position, *__first);
; 331  :   }
; 332  :   void insert(iterator __position, const_iterator __first, const_iterator __last)
; 333  : #endif /* _STLP_MEMBER_TEMPLATES */
; 334  :   {
; 335  :     for ( ; __first != __last; ++__first)

  00004	8b 75 0c	 mov	 esi, DWORD PTR ___first$[ebp]
  00007	57		 push	 edi
  00008	8b f9		 mov	 edi, ecx
  0000a	eb 19		 jmp	 SHORT $L102283
$L102262:

; 336  :       insert(__position, *__first);

  0000c	8d 46 08	 lea	 eax, DWORD PTR [esi+8]
  0000f	50		 push	 eax
  00010	51		 push	 ecx
  00011	8b 4d 08	 mov	 ecx, DWORD PTR ___position$[ebp]
  00014	8b c4		 mov	 eax, esp
  00016	89 08		 mov	 DWORD PTR [eax], ecx
  00018	8d 45 0c	 lea	 eax, DWORD PTR $T102257[ebp]
  0001b	50		 push	 eax
  0001c	8b cf		 mov	 ecx, edi
  0001e	e8 00 00 00 00	 call	 ?insert@?$list@V?$basic_string@DV?$char_traits@D@_STL@@V?$allocator@D@2@@_STL@@V?$allocator@V?$basic_string@DV?$char_traits@D@_STL@@V?$allocator@D@2@@_STL@@@2@@_STL@@QAE?AU?$_List_iterator@V?$basic_string@DV?$char_traits@D@_STL@@V?$allocator@D@2@@_STL@@U?$_Nonconst_traits@V?$basic_string@DV?$char_traits@D@_STL@@V?$allocator@D@2@@_STL@@@2@@2@U32@ABV?$basic_string@DV?$char_traits@D@_STL@@V?$allocator@D@2@@2@@Z ; _STL::list<_STL::basic_string<char,_STL::char_traits<char>,_STL::allocator<char> >,_STL::allocator<_STL::basic_string<char,_STL::char_traits<char>,_STL::allocator<char> > > >::insert
  00023	8b 36		 mov	 esi, DWORD PTR [esi]
$L102283:

; 324  :   _M_insert_dispatch(iterator __position,
; 325  : 		     _InputIter __first, _InputIter __last,
; 326  : 		     const __false_type&) 
; 327  : #else /* _STLP_MEMBER_TEMPLATES */
; 328  :   void insert(iterator __position, const _Tp* __first, const _Tp* __last) {
; 329  :     for ( ; __first != __last; ++__first)
; 330  :       insert(__position, *__first);
; 331  :   }
; 332  :   void insert(iterator __position, const_iterator __first, const_iterator __last)
; 333  : #endif /* _STLP_MEMBER_TEMPLATES */
; 334  :   {
; 335  :     for ( ; __first != __last; ++__first)

  00025	3b 75 10	 cmp	 esi, DWORD PTR ___last$[ebp]
  00028	75 e2		 jne	 SHORT $L102262

; 337  :   }

  0002a	5f		 pop	 edi
  0002b	5e		 pop	 esi
  0002c	5d		 pop	 ebp
  0002d	c2 10 00	 ret	 16			; 00000010H
??$_M_insert_dispatch@U?$_List_iterator@V?$basic_string@DV?$char_traits@D@_STL@@V?$allocator@D@2@@_STL@@U?$_Const_traits@V?$basic_string@DV?$char_traits@D@_STL@@V?$allocator@D@2@@_STL@@@2@@_STL@@@?$list@V?$basic_string@DV?$char_traits@D@_STL@@V?$allocator@D@2@@_STL@@V?$allocator@V?$basic_string@DV?$char_traits@D@_STL@@V?$allocator@D@2@@_STL@@@2@@_STL@@QAEXU?$_List_iterator@V?$basic_string@DV?$char_traits@D@_STL@@V?$allocator@D@2@@_STL@@U?$_Nonconst_traits@V?$basic_string@DV?$char_traits@D@_STL@@V?$allocator@D@2@@_STL@@@2@@1@U?$_List_iterator@V?$basic_string@DV?$char_traits@D@_STL@@V?$allocator@D@2@@_STL@@U?$_Const_traits@V?$basic_string@DV?$char_traits@D@_STL@@V?$allocator@D@2@@_STL@@@2@@1@1ABU__false_type@1@@Z ENDP ; _STL::list<_STL::basic_string<char,_STL::char_traits<char>,_STL::allocator<char> >,_STL::allocator<_STL::basic_string<char,_STL::char_traits<char>,_STL::allocator<char> > > >::_M_insert_dispatch<_STL::_List_iterator<_STL::basic_string<char,_STL::char_traits<char>,_STL::allocator<char> >,_STL::_Const_traits<_STL::basic_string<char,_STL::char_traits<char>,_STL::allocator<char> > > > >
_TEXT	ENDS
PUBLIC	??0?$list@V?$basic_string@DV?$char_traits@D@_STL@@V?$allocator@D@2@@_STL@@V?$allocator@V?$basic_string@DV?$char_traits@D@_STL@@V?$allocator@D@2@@_STL@@@2@@_STL@@QAE@ABV?$allocator@V?$basic_string@DV?$char_traits@D@_STL@@V?$allocator@D@2@@_STL@@@1@@Z ; _STL::list<_STL::basic_string<char,_STL::char_traits<char>,_STL::allocator<char> >,_STL::allocator<_STL::basic_string<char,_STL::char_traits<char>,_STL::allocator<char> > > >::list<_STL::basic_string<char,_STL::char_traits<char>,_STL::allocator<char> >,_STL::allocator<_STL::basic_string<char,_STL::char_traits<char>,_STL::allocator<char> > > >
; Function compile flags: /Ogsy
;	COMDAT ??0?$list@V?$basic_string@DV?$char_traits@D@_STL@@V?$allocator@D@2@@_STL@@V?$allocator@V?$basic_string@DV?$char_traits@D@_STL@@V?$allocator@D@2@@_STL@@@2@@_STL@@QAE@ABV?$allocator@V?$basic_string@DV?$char_traits@D@_STL@@V?$allocator@D@2@@_STL@@@1@@Z
_TEXT	SEGMENT
___a$ = 8						; size = 4
??0?$list@V?$basic_string@DV?$char_traits@D@_STL@@V?$allocator@D@2@@_STL@@V?$allocator@V?$basic_string@DV?$char_traits@D@_STL@@V?$allocator@D@2@@_STL@@@2@@_STL@@QAE@ABV?$allocator@V?$basic_string@DV?$char_traits@D@_STL@@V?$allocator@D@2@@_STL@@@1@@Z PROC NEAR ; _STL::list<_STL::basic_string<char,_STL::char_traits<char>,_STL::allocator<char> >,_STL::allocator<_STL::basic_string<char,_STL::char_traits<char>,_STL::allocator<char> > > >::list<_STL::basic_string<char,_STL::char_traits<char>,_STL::allocator<char> >,_STL::allocator<_STL::basic_string<char,_STL::char_traits<char>,_STL::allocator<char> > > >, COMDAT
; _this$ = ecx

; 264  :     _List_base<_Tp, _Alloc>(__a) {}

  00000	56		 push	 esi
  00001	ff 74 24 08	 push	 DWORD PTR ___a$[esp]
  00005	8b f1		 mov	 esi, ecx
  00007	e8 00 00 00 00	 call	 ??0?$_List_base@V?$basic_string@DV?$char_traits@D@_STL@@V?$allocator@D@2@@_STL@@V?$allocator@V?$basic_string@DV?$char_traits@D@_STL@@V?$allocator@D@2@@_STL@@@2@@_STL@@QAE@ABV?$allocator@V?$basic_string@DV?$char_traits@D@_STL@@V?$allocator@D@2@@_STL@@@1@@Z ; _STL::_List_base<_STL::basic_string<char,_STL::char_traits<char>,_STL::allocator<char> >,_STL::allocator<_STL::basic_string<char,_STL::char_traits<char>,_STL::allocator<char> > > >::_List_base<_STL::basic_string<char,_STL::char_traits<char>,_STL::allocator<char> >,_STL::allocator<_STL::basic_string<char,_STL::char_traits<char>,_STL::allocator<char> > > >
  0000c	8b c6		 mov	 eax, esi
  0000e	5e		 pop	 esi
  0000f	c2 04 00	 ret	 4
??0?$list@V?$basic_string@DV?$char_traits@D@_STL@@V?$allocator@D@2@@_STL@@V?$allocator@V?$basic_string@DV?$char_traits@D@_STL@@V?$allocator@D@2@@_STL@@@2@@_STL@@QAE@ABV?$allocator@V?$basic_string@DV?$char_traits@D@_STL@@V?$allocator@D@2@@_STL@@@1@@Z ENDP ; _STL::list<_STL::basic_string<char,_STL::char_traits<char>,_STL::allocator<char> >,_STL::allocator<_STL::basic_string<char,_STL::char_traits<char>,_STL::allocator<char> > > >::list<_STL::basic_string<char,_STL::char_traits<char>,_STL::allocator<char> >,_STL::allocator<_STL::basic_string<char,_STL::char_traits<char>,_STL::allocator<char> > > >
_TEXT	ENDS
PUBLIC	??1?$list@V?$basic_string@DV?$char_traits@D@_STL@@V?$allocator@D@2@@_STL@@V?$allocator@V?$basic_string@DV?$char_traits@D@_STL@@V?$allocator@D@2@@_STL@@@2@@_STL@@QAE@XZ ; _STL::list<_STL::basic_string<char,_STL::char_traits<char>,_STL::allocator<char> >,_STL::allocator<_STL::basic_string<char,_STL::char_traits<char>,_STL::allocator<char> > > >::~list<_STL::basic_string<char,_STL::char_traits<char>,_STL::allocator<char> >,_STL::allocator<_STL::basic_string<char,_STL::char_traits<char>,_STL::allocator<char> > > >
; Function compile flags: /Ogsy
;	COMDAT ??1?$list@V?$basic_string@DV?$char_traits@D@_STL@@V?$allocator@D@2@@_STL@@V?$allocator@V?$basic_string@DV?$char_traits@D@_STL@@V?$allocator@D@2@@_STL@@@2@@_STL@@QAE@XZ
_TEXT	SEGMENT
??1?$list@V?$basic_string@DV?$char_traits@D@_STL@@V?$allocator@D@2@@_STL@@V?$allocator@V?$basic_string@DV?$char_traits@D@_STL@@V?$allocator@D@2@@_STL@@@2@@_STL@@QAE@XZ PROC NEAR ; _STL::list<_STL::basic_string<char,_STL::char_traits<char>,_STL::allocator<char> >,_STL::allocator<_STL::basic_string<char,_STL::char_traits<char>,_STL::allocator<char> > > >::~list<_STL::basic_string<char,_STL::char_traits<char>,_STL::allocator<char> >,_STL::allocator<_STL::basic_string<char,_STL::char_traits<char>,_STL::allocator<char> > > >, COMDAT
; _this$ = ecx

; 416  :   ~list() { }

  00000	e9 00 00 00 00	 jmp	 ??1?$_List_base@V?$basic_string@DV?$char_traits@D@_STL@@V?$allocator@D@2@@_STL@@V?$allocator@V?$basic_string@DV?$char_traits@D@_STL@@V?$allocator@D@2@@_STL@@@2@@_STL@@QAE@XZ ; _STL::_List_base<_STL::basic_string<char,_STL::char_traits<char>,_STL::allocator<char> >,_STL::allocator<_STL::basic_string<char,_STL::char_traits<char>,_STL::allocator<char> > > >::~_List_base<_STL::basic_string<char,_STL::char_traits<char>,_STL::allocator<char> >,_STL::allocator<_STL::basic_string<char,_STL::char_traits<char>,_STL::allocator<char> > > >
??1?$list@V?$basic_string@DV?$char_traits@D@_STL@@V?$allocator@D@2@@_STL@@V?$allocator@V?$basic_string@DV?$char_traits@D@_STL@@V?$allocator@D@2@@_STL@@@2@@_STL@@QAE@XZ ENDP ; _STL::list<_STL::basic_string<char,_STL::char_traits<char>,_STL::allocator<char> >,_STL::allocator<_STL::basic_string<char,_STL::char_traits<char>,_STL::allocator<char> > > >::~list<_STL::basic_string<char,_STL::char_traits<char>,_STL::allocator<char> >,_STL::allocator<_STL::basic_string<char,_STL::char_traits<char>,_STL::allocator<char> > > >
_TEXT	ENDS
PUBLIC	??$insert@U?$_List_iterator@V?$basic_string@DV?$char_traits@D@_STL@@V?$allocator@D@2@@_STL@@U?$_Const_traits@V?$basic_string@DV?$char_traits@D@_STL@@V?$allocator@D@2@@_STL@@@2@@_STL@@@?$list@V?$basic_string@DV?$char_traits@D@_STL@@V?$allocator@D@2@@_STL@@V?$allocator@V?$basic_string@DV?$char_traits@D@_STL@@V?$allocator@D@2@@_STL@@@2@@_STL@@QAEXU?$_List_iterator@V?$basic_string@DV?$char_traits@D@_STL@@V?$allocator@D@2@@_STL@@U?$_Nonconst_traits@V?$basic_string@DV?$char_traits@D@_STL@@V?$allocator@D@2@@_STL@@@2@@1@U?$_List_iterator@V?$basic_string@DV?$char_traits@D@_STL@@V?$allocator@D@2@@_STL@@U?$_Const_traits@V?$basic_string@DV?$char_traits@D@_STL@@V?$allocator@D@2@@_STL@@@2@@1@1@Z ; _STL::list<_STL::basic_string<char,_STL::char_traits<char>,_STL::allocator<char> >,_STL::allocator<_STL::basic_string<char,_STL::char_traits<char>,_STL::allocator<char> > > >::insert<_STL::_List_iterator<_STL::basic_string<char,_STL::char_traits<char>,_STL::allocator<char> >,_STL::_Const_traits<_STL::basic_string<char,_STL::char_traits<char>,_STL::allocator<char> > > > >
; Function compile flags: /Ogsy
;	COMDAT ??$insert@U?$_List_iterator@V?$basic_string@DV?$char_traits@D@_STL@@V?$allocator@D@2@@_STL@@U?$_Const_traits@V?$basic_string@DV?$char_traits@D@_STL@@V?$allocator@D@2@@_STL@@@2@@_STL@@@?$list@V?$basic_string@DV?$char_traits@D@_STL@@V?$allocator@D@2@@_STL@@V?$allocator@V?$basic_string@DV?$char_traits@D@_STL@@V?$allocator@D@2@@_STL@@@2@@_STL@@QAEXU?$_List_iterator@V?$basic_string@DV?$char_traits@D@_STL@@V?$allocator@D@2@@_STL@@U?$_Nonconst_traits@V?$basic_string@DV?$char_traits@D@_STL@@V?$allocator@D@2@@_STL@@@2@@1@U?$_List_iterator@V?$basic_string@DV?$char_traits@D@_STL@@V?$allocator@D@2@@_STL@@U?$_Const_traits@V?$basic_string@DV?$char_traits@D@_STL@@V?$allocator@D@2@@_STL@@@2@@1@1@Z
_TEXT	SEGMENT
___pos$ = 8						; size = 4
___first$ = 12						; size = 4
___last$ = 16						; size = 4
$T102294 = 19						; size = 1
??$insert@U?$_List_iterator@V?$basic_string@DV?$char_traits@D@_STL@@V?$allocator@D@2@@_STL@@U?$_Const_traits@V?$basic_string@DV?$char_traits@D@_STL@@V?$allocator@D@2@@_STL@@@2@@_STL@@@?$list@V?$basic_string@DV?$char_traits@D@_STL@@V?$allocator@D@2@@_STL@@V?$allocator@V?$basic_string@DV?$char_traits@D@_STL@@V?$allocator@D@2@@_STL@@@2@@_STL@@QAEXU?$_List_iterator@V?$basic_string@DV?$char_traits@D@_STL@@V?$allocator@D@2@@_STL@@U?$_Nonconst_traits@V?$basic_string@DV?$char_traits@D@_STL@@V?$allocator@D@2@@_STL@@@2@@1@U?$_List_iterator@V?$basic_string@DV?$char_traits@D@_STL@@V?$allocator@D@2@@_STL@@U?$_Const_traits@V?$basic_string@DV?$char_traits@D@_STL@@V?$allocator@D@2@@_STL@@@2@@1@1@Z PROC NEAR ; _STL::list<_STL::basic_string<char,_STL::char_traits<char>,_STL::allocator<char> >,_STL::allocator<_STL::basic_string<char,_STL::char_traits<char>,_STL::allocator<char> > > >::insert<_STL::_List_iterator<_STL::basic_string<char,_STL::char_traits<char>,_STL::allocator<char> >,_STL::_Const_traits<_STL::basic_string<char,_STL::char_traits<char>,_STL::allocator<char> > > > >, COMDAT
; _this$ = ecx

; 312  :   void insert(iterator __pos, _InputIterator __first, _InputIterator __last) {

  00000	55		 push	 ebp
  00001	8b ec		 mov	 ebp, esp

; 313  :     typedef typename _Is_integer<_InputIterator>::_Integral _Integral;
; 314  :     _M_insert_dispatch(__pos, __first, __last, _Integral());

  00003	8b 55 08	 mov	 edx, DWORD PTR ___pos$[ebp]
  00006	8d 45 13	 lea	 eax, DWORD PTR $T102294[ebp]
  00009	50		 push	 eax
  0000a	ff 75 10	 push	 DWORD PTR ___last$[ebp]
  0000d	ff 75 0c	 push	 DWORD PTR ___first$[ebp]
  00010	51		 push	 ecx
  00011	8b c4		 mov	 eax, esp
  00013	89 10		 mov	 DWORD PTR [eax], edx
  00015	e8 00 00 00 00	 call	 ??$_M_insert_dispatch@U?$_List_iterator@V?$basic_string@DV?$char_traits@D@_STL@@V?$allocator@D@2@@_STL@@U?$_Const_traits@V?$basic_string@DV?$char_traits@D@_STL@@V?$allocator@D@2@@_STL@@@2@@_STL@@@?$list@V?$basic_string@DV?$char_traits@D@_STL@@V?$allocator@D@2@@_STL@@V?$allocator@V?$basic_string@DV?$char_traits@D@_STL@@V?$allocator@D@2@@_STL@@@2@@_STL@@QAEXU?$_List_iterator@V?$basic_string@DV?$char_traits@D@_STL@@V?$allocator@D@2@@_STL@@U?$_Nonconst_traits@V?$basic_string@DV?$char_traits@D@_STL@@V?$allocator@D@2@@_STL@@@2@@1@U?$_List_iterator@V?$basic_string@DV?$char_traits@D@_STL@@V?$allocator@D@2@@_STL@@U?$_Const_traits@V?$basic_string@DV?$char_traits@D@_STL@@V?$allocator@D@2@@_STL@@@2@@1@1ABU__false_type@1@@Z ; _STL::list<_STL::basic_string<char,_STL::char_traits<char>,_STL::allocator<char> >,_STL::allocator<_STL::basic_string<char,_STL::char_traits<char>,_STL::allocator<char> > > >::_M_insert_dispatch<_STL::_List_iterator<_STL::basic_string<char,_STL::char_traits<char>,_STL::allocator<char> >,_STL::_Const_traits<_STL::basic_string<char,_STL::char_traits<char>,_STL::allocator<char> > > > >

; 315  :   }

  0001a	5d		 pop	 ebp
  0001b	c2 0c 00	 ret	 12			; 0000000cH
??$insert@U?$_List_iterator@V?$basic_string@DV?$char_traits@D@_STL@@V?$allocator@D@2@@_STL@@U?$_Const_traits@V?$basic_string@DV?$char_traits@D@_STL@@V?$allocator@D@2@@_STL@@@2@@_STL@@@?$list@V?$basic_string@DV?$char_traits@D@_STL@@V?$allocator@D@2@@_STL@@V?$allocator@V?$basic_string@DV?$char_traits@D@_STL@@V?$allocator@D@2@@_STL@@@2@@_STL@@QAEXU?$_List_iterator@V?$basic_string@DV?$char_traits@D@_STL@@V?$allocator@D@2@@_STL@@U?$_Nonconst_traits@V?$basic_string@DV?$char_traits@D@_STL@@V?$allocator@D@2@@_STL@@@2@@1@U?$_List_iterator@V?$basic_string@DV?$char_traits@D@_STL@@V?$allocator@D@2@@_STL@@U?$_Const_traits@V?$basic_string@DV?$char_traits@D@_STL@@V?$allocator@D@2@@_STL@@@2@@1@1@Z ENDP ; _STL::list<_STL::basic_string<char,_STL::char_traits<char>,_STL::allocator<char> >,_STL::allocator<_STL::basic_string<char,_STL::char_traits<char>,_STL::allocator<char> > > >::insert<_STL::_List_iterator<_STL::basic_string<char,_STL::char_traits<char>,_STL::allocator<char> >,_STL::_Const_traits<_STL::basic_string<char,_STL::char_traits<char>,_STL::allocator<char> > > > >
_TEXT	ENDS
PUBLIC	??_R1A@?0A@A@Throwable@@8			; Throwable::`RTTI Base Class Descriptor at (0,-1,0,0)'
PUBLIC	??_R0?AVThrowable@@@8				; Throwable `RTTI Type Descriptor'
PUBLIC	??0Throwable@@QAE@XZ				; Throwable::Throwable
PUBLIC	?getName@Throwable@@UBE?AV?$basic_string@DV?$char_traits@D@_STL@@V?$allocator@D@2@@_STL@@XZ ; Throwable::getName
PUBLIC	?toString@Throwable@@UBE?AV?$basic_string@DV?$char_traits@D@_STL@@V?$allocator@D@2@@_STL@@XZ ; Throwable::toString
PUBLIC	??_R4Throwable@@6B@				; Throwable::`RTTI Complete Object Locator'
PUBLIC	??_R3Throwable@@8				; Throwable::`RTTI Class Hierarchy Descriptor'
PUBLIC	??_R2Throwable@@8				; Throwable::`RTTI Base Class Array'
PUBLIC	??_7Throwable@@6B@				; Throwable::`vftable'
PUBLIC	??_GThrowable@@UAEPAXI@Z			; Throwable::`scalar deleting destructor'
EXTRN	??_7type_info@@6B@:QWORD			; type_info::`vftable'
EXTRN	??_EThrowable@@UAEPAXI@Z:NEAR			; Throwable::`vector deleting destructor'
;	COMDAT ??_7Throwable@@6B@
; File c:\stlport-4.6.1\stlport\stl\_alloc.h
CONST	SEGMENT
??_7Throwable@@6B@ DD FLAT:??_R4Throwable@@6B@		; Throwable::`vftable'
	DD	FLAT:??_EThrowable@@UAEPAXI@Z
	DD	FLAT:?getName@Throwable@@UBE?AV?$basic_string@DV?$char_traits@D@_STL@@V?$allocator@D@2@@_STL@@XZ
	DD	FLAT:?toString@Throwable@@UBE?AV?$basic_string@DV?$char_traits@D@_STL@@V?$allocator@D@2@@_STL@@XZ
CONST	ENDS
;	COMDAT ??_R4Throwable@@6B@
rdata$r	SEGMENT
??_R4Throwable@@6B@ DD 00H				; Throwable::`RTTI Complete Object Locator'
	DD	00H
	DD	00H
	DD	FLAT:??_R0?AVThrowable@@@8
	DD	FLAT:??_R3Throwable@@8
rdata$r	ENDS
;	COMDAT ??_R0?AVThrowable@@@8
_DATA	SEGMENT
??_R0?AVThrowable@@@8 DD FLAT:??_7type_info@@6B@	; Throwable `RTTI Type Descriptor'
	DD	00H
	DB	'.?AVThrowable@@', 00H
	ORG $-24
	DD	FLAT:??_7type_info@@6B@
	DD	00H
	DB	'.?AVThrowable@@', 00H
_DATA	ENDS
;	COMDAT ??_R3Throwable@@8
rdata$r	SEGMENT
??_R3Throwable@@8 DD 00H				; Throwable::`RTTI Class Hierarchy Descriptor'
	DD	00H
	DD	01H
	DD	FLAT:??_R2Throwable@@8
rdata$r	ENDS
;	COMDAT ??_R2Throwable@@8
rdata$r	SEGMENT
??_R2Throwable@@8 DD FLAT:??_R1A@?0A@A@Throwable@@8	; Throwable::`RTTI Base Class Array'
rdata$r	ENDS
;	COMDAT ??_R1A@?0A@A@Throwable@@8
rdata$r	SEGMENT
??_R1A@?0A@A@Throwable@@8 DD FLAT:??_R0?AVThrowable@@@8	; Throwable::`RTTI Base Class Descriptor at (0,-1,0,0)'
	DD	00H
	DD	00H
	DD	0ffffffffH
	DD	00H
	DD	00H
; Function compile flags: /Ogsy
; File c:\darkeden\designed_common\project\client\packet\exception.h
rdata$r	ENDS
;	COMDAT ??0Throwable@@QAE@XZ
_TEXT	SEGMENT
$T102308 = -1						; size = 1
??0Throwable@@QAE@XZ PROC NEAR				; Throwable::Throwable, COMDAT
; _this$ = ecx

; 37   : 	Throwable () throw () {}

  00000	51		 push	 ecx
  00001	56		 push	 esi
  00002	8b f1		 mov	 esi, ecx
  00004	8d 4e 04	 lea	 ecx, DWORD PTR [esi+4]
  00007	c7 06 00 00 00
	00		 mov	 DWORD PTR [esi], OFFSET FLAT:??_7Throwable@@6B@
  0000d	e8 00 00 00 00	 call	 ??0?$basic_string@DV?$char_traits@D@_STL@@V?$allocator@D@2@@_STL@@QAE@XZ ; _STL::basic_string<char,_STL::char_traits<char>,_STL::allocator<char> >::basic_string<char,_STL::char_traits<char>,_STL::allocator<char> >
  00012	8d 44 24 07	 lea	 eax, DWORD PTR $T102308[esp+8]
  00016	50		 push	 eax
  00017	8d 4e 10	 lea	 ecx, DWORD PTR [esi+16]
  0001a	e8 00 00 00 00	 call	 ??0?$list@V?$basic_string@DV?$char_traits@D@_STL@@V?$allocator@D@2@@_STL@@V?$allocator@V?$basic_string@DV?$char_traits@D@_STL@@V?$allocator@D@2@@_STL@@@2@@_STL@@QAE@ABV?$allocator@V?$basic_string@DV?$char_traits@D@_STL@@V?$allocator@D@2@@_STL@@@1@@Z ; _STL::list<_STL::basic_string<char,_STL::char_traits<char>,_STL::allocator<char> >,_STL::allocator<_STL::basic_string<char,_STL::char_traits<char>,_STL::allocator<char> > > >::list<_STL::basic_string<char,_STL::char_traits<char>,_STL::allocator<char> >,_STL::allocator<_STL::basic_string<char,_STL::char_traits<char>,_STL::allocator<char> > > >
  0001f	8b c6		 mov	 eax, esi
  00021	5e		 pop	 esi
  00022	59		 pop	 ecx
  00023	c3		 ret	 0
??0Throwable@@QAE@XZ ENDP				; Throwable::Throwable
_TEXT	ENDS
PUBLIC	??_C@_09KCKHMJEM@Throwable?$AA@			; `string'
;	COMDAT ??_C@_09KCKHMJEM@Throwable?$AA@
; File c:\stlport-4.6.1\stlport\stl\_alloc.h
CONST	SEGMENT
??_C@_09KCKHMJEM@Throwable?$AA@ DB 'Throwable', 00H	; `string'
; Function compile flags: /Ogsy
; File c:\darkeden\designed_common\project\client\packet\exception.h
CONST	ENDS
;	COMDAT ?getName@Throwable@@UBE?AV?$basic_string@DV?$char_traits@D@_STL@@V?$allocator@D@2@@_STL@@XZ
_TEXT	SEGMENT
___$ReturnUdt$ = 8					; size = 4
$T102318 = 11						; size = 1
?getName@Throwable@@UBE?AV?$basic_string@DV?$char_traits@D@_STL@@V?$allocator@D@2@@_STL@@XZ PROC NEAR ; Throwable::getName, COMDAT
; _this$ = ecx

; 46   : 	virtual std::string getName () const throw () { return "Throwable"; }

  00000	55		 push	 ebp
  00001	8b ec		 mov	 ebp, esp
  00003	8b 4d 08	 mov	 ecx, DWORD PTR ___$ReturnUdt$[ebp]
  00006	8d 45 0b	 lea	 eax, DWORD PTR $T102318[ebp]
  00009	50		 push	 eax
  0000a	68 00 00 00 00	 push	 OFFSET FLAT:??_C@_09KCKHMJEM@Throwable?$AA@
  0000f	e8 00 00 00 00	 call	 ??0?$basic_string@DV?$char_traits@D@_STL@@V?$allocator@D@2@@_STL@@QAE@PBDABV?$allocator@D@1@@Z ; _STL::basic_string<char,_STL::char_traits<char>,_STL::allocator<char> >::basic_string<char,_STL::char_traits<char>,_STL::allocator<char> >
  00014	8b 45 08	 mov	 eax, DWORD PTR ___$ReturnUdt$[ebp]
  00017	5d		 pop	 ebp
  00018	c2 04 00	 ret	 4
?getName@Throwable@@UBE?AV?$basic_string@DV?$char_traits@D@_STL@@V?$allocator@D@2@@_STL@@XZ ENDP ; Throwable::getName
_TEXT	ENDS
PUBLIC	?getStackTrace@Throwable@@QBE?AV?$basic_string@DV?$char_traits@D@_STL@@V?$allocator@D@2@@_STL@@XZ ; Throwable::getStackTrace
PUBLIC	??_C@_03MCPBMLDJ@?5?3?5?$AA@			; `string'
EXTRN	??0StringStream@@QAE@XZ:NEAR			; StringStream::StringStream
EXTRN	??1StringStream@@QAE@XZ:NEAR			; StringStream::~StringStream
EXTRN	??6StringStream@@QAEAAV0@D@Z:NEAR		; StringStream::operator<<
EXTRN	??6StringStream@@QAEAAV0@PBD@Z:NEAR		; StringStream::operator<<
EXTRN	??6StringStream@@QAEAAV0@ABV?$basic_string@DV?$char_traits@D@_STL@@V?$allocator@D@2@@_STL@@@Z:NEAR ; StringStream::operator<<
EXTRN	?toString@StringStream@@QBE?AV?$basic_string@DV?$char_traits@D@_STL@@V?$allocator@D@2@@_STL@@XZ:NEAR ; StringStream::toString
;	COMDAT ??_C@_03MCPBMLDJ@?5?3?5?$AA@
CONST	SEGMENT
??_C@_03MCPBMLDJ@?5?3?5?$AA@ DB ' : ', 00H		; `string'
; Function compile flags: /Ogsy
CONST	ENDS
;	COMDAT ?toString@Throwable@@UBE?AV?$basic_string@DV?$char_traits@D@_STL@@V?$allocator@D@2@@_STL@@XZ
_TEXT	SEGMENT
_buf$ = -44						; size = 20
$T102329 = -24						; size = 12
$T102328 = -24						; size = 12
$T102327 = -12						; size = 12
___$ReturnUdt$ = 8					; size = 4
?toString@Throwable@@UBE?AV?$basic_string@DV?$char_traits@D@_STL@@V?$allocator@D@2@@_STL@@XZ PROC NEAR ; Throwable::toString, COMDAT
; _this$ = ecx

; 79   : 	{

  00000	55		 push	 ebp
  00001	8b ec		 mov	 ebp, esp
  00003	83 ec 2c	 sub	 esp, 44			; 0000002cH
  00006	56		 push	 esi
  00007	8b f1		 mov	 esi, ecx

; 80   : 		StringStream buf;

  00009	8d 4d d4	 lea	 ecx, DWORD PTR _buf$[ebp]
  0000c	e8 00 00 00 00	 call	 ??0StringStream@@QAE@XZ	; StringStream::StringStream

; 81   : 		buf << getName() << " : " << m_Message << '\n'
; 82   : 			<< getStackTrace () ;

  00011	8d 45 e8	 lea	 eax, DWORD PTR $T102328[ebp]
  00014	50		 push	 eax
  00015	8b ce		 mov	 ecx, esi
  00017	e8 00 00 00 00	 call	 ?getStackTrace@Throwable@@QBE?AV?$basic_string@DV?$char_traits@D@_STL@@V?$allocator@D@2@@_STL@@XZ ; Throwable::getStackTrace
  0001c	50		 push	 eax
  0001d	6a 0a		 push	 10			; 0000000aH
  0001f	8d 46 04	 lea	 eax, DWORD PTR [esi+4]
  00022	50		 push	 eax
  00023	8b 06		 mov	 eax, DWORD PTR [esi]
  00025	68 00 00 00 00	 push	 OFFSET FLAT:??_C@_03MCPBMLDJ@?5?3?5?$AA@
  0002a	8d 4d f4	 lea	 ecx, DWORD PTR $T102327[ebp]
  0002d	51		 push	 ecx
  0002e	8b ce		 mov	 ecx, esi
  00030	ff 50 04	 call	 DWORD PTR [eax+4]
  00033	50		 push	 eax
  00034	8d 4d d4	 lea	 ecx, DWORD PTR _buf$[ebp]
  00037	e8 00 00 00 00	 call	 ??6StringStream@@QAEAAV0@ABV?$basic_string@DV?$char_traits@D@_STL@@V?$allocator@D@2@@_STL@@@Z ; StringStream::operator<<
  0003c	8b c8		 mov	 ecx, eax
  0003e	e8 00 00 00 00	 call	 ??6StringStream@@QAEAAV0@PBD@Z ; StringStream::operator<<
  00043	8b c8		 mov	 ecx, eax
  00045	e8 00 00 00 00	 call	 ??6StringStream@@QAEAAV0@ABV?$basic_string@DV?$char_traits@D@_STL@@V?$allocator@D@2@@_STL@@@Z ; StringStream::operator<<
  0004a	8b c8		 mov	 ecx, eax
  0004c	e8 00 00 00 00	 call	 ??6StringStream@@QAEAAV0@D@Z ; StringStream::operator<<
  00051	8b c8		 mov	 ecx, eax
  00053	e8 00 00 00 00	 call	 ??6StringStream@@QAEAAV0@ABV?$basic_string@DV?$char_traits@D@_STL@@V?$allocator@D@2@@_STL@@@Z ; StringStream::operator<<
  00058	8d 4d f4	 lea	 ecx, DWORD PTR $T102327[ebp]
  0005b	e8 00 00 00 00	 call	 ??1?$basic_string@DV?$char_traits@D@_STL@@V?$allocator@D@2@@_STL@@QAE@XZ ; _STL::basic_string<char,_STL::char_traits<char>,_STL::allocator<char> >::~basic_string<char,_STL::char_traits<char>,_STL::allocator<char> >
  00060	8d 4d e8	 lea	 ecx, DWORD PTR $T102328[ebp]
  00063	e8 00 00 00 00	 call	 ??1?$basic_string@DV?$char_traits@D@_STL@@V?$allocator@D@2@@_STL@@QAE@XZ ; _STL::basic_string<char,_STL::char_traits<char>,_STL::allocator<char> >::~basic_string<char,_STL::char_traits<char>,_STL::allocator<char> >

; 83   : 		
; 84   : 		return std::string( buf.toString() );

  00068	8d 45 e8	 lea	 eax, DWORD PTR $T102329[ebp]
  0006b	50		 push	 eax
  0006c	8d 4d d4	 lea	 ecx, DWORD PTR _buf$[ebp]
  0006f	e8 00 00 00 00	 call	 ?toString@StringStream@@QBE?AV?$basic_string@DV?$char_traits@D@_STL@@V?$allocator@D@2@@_STL@@XZ ; StringStream::toString
  00074	8b 4d 08	 mov	 ecx, DWORD PTR ___$ReturnUdt$[ebp]
  00077	50		 push	 eax
  00078	e8 00 00 00 00	 call	 ??0?$basic_string@DV?$char_traits@D@_STL@@V?$allocator@D@2@@_STL@@QAE@ABV01@@Z ; _STL::basic_string<char,_STL::char_traits<char>,_STL::allocator<char> >::basic_string<char,_STL::char_traits<char>,_STL::allocator<char> >
  0007d	8d 4d e8	 lea	 ecx, DWORD PTR $T102329[ebp]
  00080	e8 00 00 00 00	 call	 ??1?$basic_string@DV?$char_traits@D@_STL@@V?$allocator@D@2@@_STL@@QAE@XZ ; _STL::basic_string<char,_STL::char_traits<char>,_STL::allocator<char> >::~basic_string<char,_STL::char_traits<char>,_STL::allocator<char> >
  00085	8d 4d d4	 lea	 ecx, DWORD PTR _buf$[ebp]
  00088	e8 00 00 00 00	 call	 ??1StringStream@@QAE@XZ	; StringStream::~StringStream
  0008d	8b 45 08	 mov	 eax, DWORD PTR ___$ReturnUdt$[ebp]
  00090	5e		 pop	 esi

; 85   : 	}

  00091	c9		 leave
  00092	c2 04 00	 ret	 4
?toString@Throwable@@UBE?AV?$basic_string@DV?$char_traits@D@_STL@@V?$allocator@D@2@@_STL@@XZ ENDP ; Throwable::toString
_TEXT	ENDS
PUBLIC	??_C@_01CLKCMJKC@?5?$AA@			; `string'
;	COMDAT ??_C@_01CLKCMJKC@?5?$AA@
; File c:\stlport-4.6.1\stlport\stl\_list.h
CONST	SEGMENT
??_C@_01CLKCMJKC@?5?$AA@ DB ' ', 00H			; `string'
; Function compile flags: /Ogsy
; File c:\darkeden\designed_common\project\client\packet\exception.h
CONST	ENDS
;	COMDAT ?getStackTrace@Throwable@@QBE?AV?$basic_string@DV?$char_traits@D@_STL@@V?$allocator@D@2@@_STL@@XZ
_TEXT	SEGMENT
_buf$ = -36						; size = 20
$T102334 = -16						; size = 12
tv90 = -4						; size = 4
___$ReturnUdt$ = 8					; size = 4
?getStackTrace@Throwable@@QBE?AV?$basic_string@DV?$char_traits@D@_STL@@V?$allocator@D@2@@_STL@@XZ PROC NEAR ; Throwable::getStackTrace, COMDAT
; _this$ = ecx

; 56   : 	{

  00000	55		 push	 ebp
  00001	8b ec		 mov	 ebp, esp
  00003	83 ec 24	 sub	 esp, 36			; 00000024H
  00006	53		 push	 ebx
  00007	56		 push	 esi
  00008	57		 push	 edi
  00009	8b f9		 mov	 edi, ecx

; 57   : 		StringStream buf;

  0000b	8d 4d dc	 lea	 ecx, DWORD PTR _buf$[ebp]
  0000e	e8 00 00 00 00	 call	 ??0StringStream@@QAE@XZ	; StringStream::StringStream

; 58   : 		int i = 1;
; 59   : 
; 60   : 		for ( std::list<std::string>::const_iterator itr = m_Stacks.begin() ;

  00013	8b 47 10	 mov	 eax, DWORD PTR [edi+16]
  00016	8b 30		 mov	 esi, DWORD PTR [eax]
  00018	33 db		 xor	 ebx, ebx
  0001a	43		 inc	 ebx

; 61   : 			  itr != m_Stacks.end() ;
; 62   : 			  itr ++ , i ++ ) {

  0001b	3b f0		 cmp	 esi, eax
  0001d	74 36		 je	 SHORT $L88001
$L87999:

; 63   : 			for ( int j = 0 ; j < i ; j ++ )

  0001f	85 db		 test	 ebx, ebx
  00021	7e 15		 jle	 SHORT $L88005
  00023	89 5d fc	 mov	 DWORD PTR tv90[ebp], ebx
$L88003:

; 64   : 				buf << " ";

  00026	68 00 00 00 00	 push	 OFFSET FLAT:??_C@_01CLKCMJKC@?5?$AA@
  0002b	8d 4d dc	 lea	 ecx, DWORD PTR _buf$[ebp]
  0002e	e8 00 00 00 00	 call	 ??6StringStream@@QAEAAV0@PBD@Z ; StringStream::operator<<
  00033	ff 4d fc	 dec	 DWORD PTR tv90[ebp]
  00036	75 ee		 jne	 SHORT $L88003
$L88005:

; 65   : 			buf << *itr << '\n' ;

  00038	6a 0a		 push	 10			; 0000000aH
  0003a	8d 46 08	 lea	 eax, DWORD PTR [esi+8]
  0003d	50		 push	 eax
  0003e	8d 4d dc	 lea	 ecx, DWORD PTR _buf$[ebp]
  00041	e8 00 00 00 00	 call	 ??6StringStream@@QAEAAV0@ABV?$basic_string@DV?$char_traits@D@_STL@@V?$allocator@D@2@@_STL@@@Z ; StringStream::operator<<
  00046	8b c8		 mov	 ecx, eax
  00048	e8 00 00 00 00	 call	 ??6StringStream@@QAEAAV0@D@Z ; StringStream::operator<<
  0004d	8b 36		 mov	 esi, DWORD PTR [esi]
  0004f	43		 inc	 ebx
  00050	3b 77 10	 cmp	 esi, DWORD PTR [edi+16]
  00053	75 ca		 jne	 SHORT $L87999
$L88001:

; 66   : 		}
; 67   : 		
; 68   : 		return std::string( buf.toString() );

  00055	8d 45 f0	 lea	 eax, DWORD PTR $T102334[ebp]
  00058	50		 push	 eax
  00059	8d 4d dc	 lea	 ecx, DWORD PTR _buf$[ebp]
  0005c	e8 00 00 00 00	 call	 ?toString@StringStream@@QBE?AV?$basic_string@DV?$char_traits@D@_STL@@V?$allocator@D@2@@_STL@@XZ ; StringStream::toString
  00061	8b 4d 08	 mov	 ecx, DWORD PTR ___$ReturnUdt$[ebp]
  00064	50		 push	 eax
  00065	e8 00 00 00 00	 call	 ??0?$basic_string@DV?$char_traits@D@_STL@@V?$allocator@D@2@@_STL@@QAE@ABV01@@Z ; _STL::basic_string<char,_STL::char_traits<char>,_STL::allocator<char> >::basic_string<char,_STL::char_traits<char>,_STL::allocator<char> >
  0006a	8d 4d f0	 lea	 ecx, DWORD PTR $T102334[ebp]
  0006d	e8 00 00 00 00	 call	 ??1?$basic_string@DV?$char_traits@D@_STL@@V?$allocator@D@2@@_STL@@QAE@XZ ; _STL::basic_string<char,_STL::char_traits<char>,_STL::allocator<char> >::~basic_string<char,_STL::char_traits<char>,_STL::allocator<char> >
  00072	8d 4d dc	 lea	 ecx, DWORD PTR _buf$[ebp]
  00075	e8 00 00 00 00	 call	 ??1StringStream@@QAE@XZ	; StringStream::~StringStream
  0007a	8b 45 08	 mov	 eax, DWORD PTR ___$ReturnUdt$[ebp]
  0007d	5f		 pop	 edi
  0007e	5e		 pop	 esi
  0007f	5b		 pop	 ebx

; 69   : 	}

  00080	c9		 leave
  00081	c2 04 00	 ret	 4
?getStackTrace@Throwable@@QBE?AV?$basic_string@DV?$char_traits@D@_STL@@V?$allocator@D@2@@_STL@@XZ ENDP ; Throwable::getStackTrace
_TEXT	ENDS
PUBLIC	??0Throwable@@QAE@V?$basic_string@DV?$char_traits@D@_STL@@V?$allocator@D@2@@_STL@@@Z ; Throwable::Throwable
; Function compile flags: /Ogsy
;	COMDAT ??0Throwable@@QAE@V?$basic_string@DV?$char_traits@D@_STL@@V?$allocator@D@2@@_STL@@@Z
_TEXT	SEGMENT
_message$ = 8						; size = 12
$T102388 = 19						; size = 1
??0Throwable@@QAE@V?$basic_string@DV?$char_traits@D@_STL@@V?$allocator@D@2@@_STL@@@Z PROC NEAR ; Throwable::Throwable, COMDAT
; _this$ = ecx

; 40   : 	Throwable ( std::string message ) throw () : m_Message(message) {}

  00000	55		 push	 ebp
  00001	8b ec		 mov	 ebp, esp
  00003	56		 push	 esi
  00004	8b f1		 mov	 esi, ecx
  00006	8d 45 08	 lea	 eax, DWORD PTR _message$[ebp]
  00009	50		 push	 eax
  0000a	8d 4e 04	 lea	 ecx, DWORD PTR [esi+4]
  0000d	c7 06 00 00 00
	00		 mov	 DWORD PTR [esi], OFFSET FLAT:??_7Throwable@@6B@
  00013	e8 00 00 00 00	 call	 ??0?$basic_string@DV?$char_traits@D@_STL@@V?$allocator@D@2@@_STL@@QAE@ABV01@@Z ; _STL::basic_string<char,_STL::char_traits<char>,_STL::allocator<char> >::basic_string<char,_STL::char_traits<char>,_STL::allocator<char> >
  00018	8d 45 13	 lea	 eax, DWORD PTR $T102388[ebp]
  0001b	50		 push	 eax
  0001c	8d 4e 10	 lea	 ecx, DWORD PTR [esi+16]
  0001f	e8 00 00 00 00	 call	 ??0?$list@V?$basic_string@DV?$char_traits@D@_STL@@V?$allocator@D@2@@_STL@@V?$allocator@V?$basic_string@DV?$char_traits@D@_STL@@V?$allocator@D@2@@_STL@@@2@@_STL@@QAE@ABV?$allocator@V?$basic_string@DV?$char_traits@D@_STL@@V?$allocator@D@2@@_STL@@@1@@Z ; _STL::list<_STL::basic_string<char,_STL::char_traits<char>,_STL::allocator<char> >,_STL::allocator<_STL::basic_string<char,_STL::char_traits<char>,_STL::allocator<char> > > >::list<_STL::basic_string<char,_STL::char_traits<char>,_STL::allocator<char> >,_STL::allocator<_STL::basic_string<char,_STL::char_traits<char>,_STL::allocator<char> > > >
  00024	8d 4d 08	 lea	 ecx, DWORD PTR _message$[ebp]
  00027	e8 00 00 00 00	 call	 ??1?$basic_string@DV?$char_traits@D@_STL@@V?$allocator@D@2@@_STL@@QAE@XZ ; _STL::basic_string<char,_STL::char_traits<char>,_STL::allocator<char> >::~basic_string<char,_STL::char_traits<char>,_STL::allocator<char> >
  0002c	8b c6		 mov	 eax, esi
  0002e	5e		 pop	 esi
  0002f	5d		 pop	 ebp
  00030	c2 0c 00	 ret	 12			; 0000000cH
??0Throwable@@QAE@V?$basic_string@DV?$char_traits@D@_STL@@V?$allocator@D@2@@_STL@@@Z ENDP ; Throwable::Throwable
_TEXT	ENDS
PUBLIC	??1Throwable@@UAE@XZ				; Throwable::~Throwable
; Function compile flags: /Ogsy
;	COMDAT ??1Throwable@@UAE@XZ
_TEXT	SEGMENT
??1Throwable@@UAE@XZ PROC NEAR				; Throwable::~Throwable, COMDAT
; _this$ = ecx

; 43   : 	virtual ~Throwable () throw () {}

  00000	56		 push	 esi
  00001	8b f1		 mov	 esi, ecx
  00003	8d 4e 10	 lea	 ecx, DWORD PTR [esi+16]
  00006	c7 06 00 00 00
	00		 mov	 DWORD PTR [esi], OFFSET FLAT:??_7Throwable@@6B@
  0000c	e8 00 00 00 00	 call	 ??1?$list@V?$basic_string@DV?$char_traits@D@_STL@@V?$allocator@D@2@@_STL@@V?$allocator@V?$basic_string@DV?$char_traits@D@_STL@@V?$allocator@D@2@@_STL@@@2@@_STL@@QAE@XZ ; _STL::list<_STL::basic_string<char,_STL::char_traits<char>,_STL::allocator<char> >,_STL::allocator<_STL::basic_string<char,_STL::char_traits<char>,_STL::allocator<char> > > >::~list<_STL::basic_string<char,_STL::char_traits<char>,_STL::allocator<char> >,_STL::allocator<_STL::basic_string<char,_STL::char_traits<char>,_STL::allocator<char> > > >
  00011	8d 4e 04	 lea	 ecx, DWORD PTR [esi+4]
  00014	5e		 pop	 esi
  00015	e9 00 00 00 00	 jmp	 ??1?$basic_string@DV?$char_traits@D@_STL@@V?$allocator@D@2@@_STL@@QAE@XZ ; _STL::basic_string<char,_STL::char_traits<char>,_STL::allocator<char> >::~basic_string<char,_STL::char_traits<char>,_STL::allocator<char> >
??1Throwable@@UAE@XZ ENDP				; Throwable::~Throwable
; Function compile flags: /Ogsy
_TEXT	ENDS
;	COMDAT ??_GThrowable@@UAEPAXI@Z
_TEXT	SEGMENT
___flags$ = 8						; size = 4
??_GThrowable@@UAEPAXI@Z PROC NEAR			; Throwable::`scalar deleting destructor', COMDAT
; _this$ = ecx
  00000	56		 push	 esi
  00001	8b f1		 mov	 esi, ecx
  00003	e8 00 00 00 00	 call	 ??1Throwable@@UAE@XZ	; Throwable::~Throwable
  00008	f6 44 24 08 01	 test	 BYTE PTR ___flags$[esp], 1
  0000d	74 07		 je	 SHORT $L88026
  0000f	56		 push	 esi
  00010	e8 00 00 00 00	 call	 ??3@YAXPAX@Z		; operator delete
  00015	59		 pop	 ecx
$L88026:
  00016	8b c6		 mov	 eax, esi
  00018	5e		 pop	 esi
  00019	c2 04 00	 ret	 4
??_GThrowable@@UAEPAXI@Z ENDP				; Throwable::`scalar deleting destructor'
_TEXT	ENDS
PUBLIC	??_R1A@?0A@A@Exception@@8			; Exception::`RTTI Base Class Descriptor at (0,-1,0,0)'
PUBLIC	??_R0?AVException@@@8				; Exception `RTTI Type Descriptor'
PUBLIC	??_R4Exception@@6B@				; Exception::`RTTI Complete Object Locator'
PUBLIC	??_R3Exception@@8				; Exception::`RTTI Class Hierarchy Descriptor'
PUBLIC	??_R2Exception@@8				; Exception::`RTTI Base Class Array'
PUBLIC	??0Exception@@QAE@V?$basic_string@DV?$char_traits@D@_STL@@V?$allocator@D@2@@_STL@@@Z ; Exception::Exception
PUBLIC	?getName@Exception@@UBE?AV?$basic_string@DV?$char_traits@D@_STL@@V?$allocator@D@2@@_STL@@XZ ; Exception::getName
PUBLIC	??_7Exception@@6B@				; Exception::`vftable'
PUBLIC	??_GException@@UAEPAXI@Z			; Exception::`scalar deleting destructor'
EXTRN	??_EException@@UAEPAXI@Z:NEAR			; Exception::`vector deleting destructor'
;	COMDAT ??_7Exception@@6B@
CONST	SEGMENT
??_7Exception@@6B@ DD FLAT:??_R4Exception@@6B@		; Exception::`vftable'
	DD	FLAT:??_EException@@UAEPAXI@Z
	DD	FLAT:?getName@Exception@@UBE?AV?$basic_string@DV?$char_traits@D@_STL@@V?$allocator@D@2@@_STL@@XZ
	DD	FLAT:?toString@Throwable@@UBE?AV?$basic_string@DV?$char_traits@D@_STL@@V?$allocator@D@2@@_STL@@XZ
CONST	ENDS
;	COMDAT ??_R4Exception@@6B@
rdata$r	SEGMENT
??_R4Exception@@6B@ DD 00H				; Exception::`RTTI Complete Object Locator'
	DD	00H
	DD	00H
	DD	FLAT:??_R0?AVException@@@8
	DD	FLAT:??_R3Exception@@8
rdata$r	ENDS
;	COMDAT ??_R0?AVException@@@8
_DATA	SEGMENT
??_R0?AVException@@@8 DD FLAT:??_7type_info@@6B@	; Exception `RTTI Type Descriptor'
	DD	00H
	DB	'.?AVException@@', 00H
	ORG $-24
	DD	FLAT:??_7type_info@@6B@
	DD	00H
	DB	'.?AVException@@', 00H
_DATA	ENDS
;	COMDAT ??_R3Exception@@8
rdata$r	SEGMENT
??_R3Exception@@8 DD 00H				; Exception::`RTTI Class Hierarchy Descriptor'
	DD	00H
	DD	02H
	DD	FLAT:??_R2Exception@@8
rdata$r	ENDS
;	COMDAT ??_R2Exception@@8
rdata$r	SEGMENT
??_R2Exception@@8 DD FLAT:??_R1A@?0A@A@Exception@@8	; Exception::`RTTI Base Class Array'
	DD	FLAT:??_R1A@?0A@A@Throwable@@8
rdata$r	ENDS
;	COMDAT ??_R1A@?0A@A@Exception@@8
rdata$r	SEGMENT
??_R1A@?0A@A@Exception@@8 DD FLAT:??_R0?AVException@@@8	; Exception::`RTTI Base Class Descriptor at (0,-1,0,0)'
	DD	01H
	DD	00H
	DD	0ffffffffH
	DD	00H
	DD	00H
; Function compile flags: /Ogsy
rdata$r	ENDS
;	COMDAT ??0Exception@@QAE@V?$basic_string@DV?$char_traits@D@_STL@@V?$allocator@D@2@@_STL@@@Z
_TEXT	SEGMENT
$T102404 = -4						; size = 4
_msg$ = 8						; size = 12
??0Exception@@QAE@V?$basic_string@DV?$char_traits@D@_STL@@V?$allocator@D@2@@_STL@@@Z PROC NEAR ; Exception::Exception, COMDAT
; _this$ = ecx

; 175  : 	Exception ( std::string msg ) throw () : Throwable(msg) {}

  00000	55		 push	 ebp
  00001	8b ec		 mov	 ebp, esp
  00003	51		 push	 ecx
  00004	56		 push	 esi
  00005	83 ec 0c	 sub	 esp, 12			; 0000000cH
  00008	8b f1		 mov	 esi, ecx
  0000a	8d 45 08	 lea	 eax, DWORD PTR _msg$[ebp]
  0000d	8b cc		 mov	 ecx, esp
  0000f	89 65 fc	 mov	 DWORD PTR $T102404[ebp], esp
  00012	50		 push	 eax
  00013	e8 00 00 00 00	 call	 ??0?$basic_string@DV?$char_traits@D@_STL@@V?$allocator@D@2@@_STL@@QAE@ABV01@@Z ; _STL::basic_string<char,_STL::char_traits<char>,_STL::allocator<char> >::basic_string<char,_STL::char_traits<char>,_STL::allocator<char> >
  00018	8b ce		 mov	 ecx, esi
  0001a	e8 00 00 00 00	 call	 ??0Throwable@@QAE@V?$basic_string@DV?$char_traits@D@_STL@@V?$allocator@D@2@@_STL@@@Z ; Throwable::Throwable
  0001f	8d 4d 08	 lea	 ecx, DWORD PTR _msg$[ebp]
  00022	c7 06 00 00 00
	00		 mov	 DWORD PTR [esi], OFFSET FLAT:??_7Exception@@6B@
  00028	e8 00 00 00 00	 call	 ??1?$basic_string@DV?$char_traits@D@_STL@@V?$allocator@D@2@@_STL@@QAE@XZ ; _STL::basic_string<char,_STL::char_traits<char>,_STL::allocator<char> >::~basic_string<char,_STL::char_traits<char>,_STL::allocator<char> >
  0002d	8b c6		 mov	 eax, esi
  0002f	5e		 pop	 esi
  00030	c9		 leave
  00031	c2 0c 00	 ret	 12			; 0000000cH
??0Exception@@QAE@V?$basic_string@DV?$char_traits@D@_STL@@V?$allocator@D@2@@_STL@@@Z ENDP ; Exception::Exception
_TEXT	ENDS
PUBLIC	??_C@_09FBNMMHMJ@Exception?$AA@			; `string'
;	COMDAT ??_C@_09FBNMMHMJ@Exception?$AA@
; File c:\stlport-4.6.1\stlport\stl\_alloc.h
CONST	SEGMENT
??_C@_09FBNMMHMJ@Exception?$AA@ DB 'Exception', 00H	; `string'
; Function compile flags: /Ogsy
; File c:\darkeden\designed_common\project\client\packet\exception.h
CONST	ENDS
;	COMDAT ?getName@Exception@@UBE?AV?$basic_string@DV?$char_traits@D@_STL@@V?$allocator@D@2@@_STL@@XZ
_TEXT	SEGMENT
___$ReturnUdt$ = 8					; size = 4
$T102407 = 11						; size = 1
?getName@Exception@@UBE?AV?$basic_string@DV?$char_traits@D@_STL@@V?$allocator@D@2@@_STL@@XZ PROC NEAR ; Exception::getName, COMDAT
; _this$ = ecx

; 176  : 	std::string getName () const throw () { return "Exception"; }

  00000	55		 push	 ebp
  00001	8b ec		 mov	 ebp, esp
  00003	8b 4d 08	 mov	 ecx, DWORD PTR ___$ReturnUdt$[ebp]
  00006	8d 45 0b	 lea	 eax, DWORD PTR $T102407[ebp]
  00009	50		 push	 eax
  0000a	68 00 00 00 00	 push	 OFFSET FLAT:??_C@_09FBNMMHMJ@Exception?$AA@
  0000f	e8 00 00 00 00	 call	 ??0?$basic_string@DV?$char_traits@D@_STL@@V?$allocator@D@2@@_STL@@QAE@PBDABV?$allocator@D@1@@Z ; _STL::basic_string<char,_STL::char_traits<char>,_STL::allocator<char> >::basic_string<char,_STL::char_traits<char>,_STL::allocator<char> >
  00014	8b 45 08	 mov	 eax, DWORD PTR ___$ReturnUdt$[ebp]
  00017	5d		 pop	 ebp
  00018	c2 04 00	 ret	 4
?getName@Exception@@UBE?AV?$basic_string@DV?$char_traits@D@_STL@@V?$allocator@D@2@@_STL@@XZ ENDP ; Exception::getName
_TEXT	ENDS
PUBLIC	??1Exception@@UAE@XZ				; Exception::~Exception
; Function compile flags: /Ogsy
;	COMDAT ??1Exception@@UAE@XZ
_TEXT	SEGMENT
??1Exception@@UAE@XZ PROC NEAR				; Exception::~Exception, COMDAT
; _this$ = ecx
  00000	e9 00 00 00 00	 jmp	 ??1Throwable@@UAE@XZ	; Throwable::~Throwable
??1Exception@@UAE@XZ ENDP				; Exception::~Exception
_TEXT	ENDS
PUBLIC	??0IOException@@QAE@V?$basic_string@DV?$char_traits@D@_STL@@V?$allocator@D@2@@_STL@@@Z ; IOException::IOException
PUBLIC	?getName@IOException@@UBE?AV?$basic_string@DV?$char_traits@D@_STL@@V?$allocator@D@2@@_STL@@XZ ; IOException::getName
PUBLIC	??_R4IOException@@6B@				; IOException::`RTTI Complete Object Locator'
PUBLIC	??_R3IOException@@8				; IOException::`RTTI Class Hierarchy Descriptor'
PUBLIC	??_R2IOException@@8				; IOException::`RTTI Base Class Array'
PUBLIC	??_7IOException@@6B@				; IOException::`vftable'
PUBLIC	??_GIOException@@UAEPAXI@Z			; IOException::`scalar deleting destructor'
PUBLIC	??_R1A@?0A@A@IOException@@8			; IOException::`RTTI Base Class Descriptor at (0,-1,0,0)'
PUBLIC	??_R0?AVIOException@@@8				; IOException `RTTI Type Descriptor'
EXTRN	??_EIOException@@UAEPAXI@Z:NEAR			; IOException::`vector deleting destructor'
;	COMDAT ??_7IOException@@6B@
CONST	SEGMENT
??_7IOException@@6B@ DD FLAT:??_R4IOException@@6B@	; IOException::`vftable'
	DD	FLAT:??_EIOException@@UAEPAXI@Z
	DD	FLAT:?getName@IOException@@UBE?AV?$basic_string@DV?$char_traits@D@_STL@@V?$allocator@D@2@@_STL@@XZ
	DD	FLAT:?toString@Throwable@@UBE?AV?$basic_string@DV?$char_traits@D@_STL@@V?$allocator@D@2@@_STL@@XZ
CONST	ENDS
;	COMDAT ??_R4IOException@@6B@
rdata$r	SEGMENT
??_R4IOException@@6B@ DD 00H				; IOException::`RTTI Complete Object Locator'
	DD	00H
	DD	00H
	DD	FLAT:??_R0?AVIOException@@@8
	DD	FLAT:??_R3IOException@@8
rdata$r	ENDS
;	COMDAT ??_R0?AVIOException@@@8
_DATA	SEGMENT
??_R0?AVIOException@@@8 DD FLAT:??_7type_info@@6B@	; IOException `RTTI Type Descriptor'
	DD	00H
	DB	'.?AVIOException@@', 00H
	ORG $-26
	DD	FLAT:??_7type_info@@6B@
	DD	00H
	DB	'.?AVIOException@@', 00H
_DATA	ENDS
;	COMDAT ??_R3IOException@@8
rdata$r	SEGMENT
??_R3IOException@@8 DD 00H				; IOException::`RTTI Class Hierarchy Descriptor'
	DD	00H
	DD	03H
	DD	FLAT:??_R2IOException@@8
rdata$r	ENDS
;	COMDAT ??_R2IOException@@8
rdata$r	SEGMENT
??_R2IOException@@8 DD FLAT:??_R1A@?0A@A@IOException@@8	; IOException::`RTTI Base Class Array'
	DD	FLAT:??_R1A@?0A@A@Exception@@8
	DD	FLAT:??_R1A@?0A@A@Throwable@@8
rdata$r	ENDS
;	COMDAT ??_R1A@?0A@A@IOException@@8
rdata$r	SEGMENT
??_R1A@?0A@A@IOException@@8 DD FLAT:??_R0?AVIOException@@@8 ; IOException::`RTTI Base Class Descriptor at (0,-1,0,0)'
	DD	02H
	DD	00H
	DD	0ffffffffH
	DD	00H
	DD	00H
; Function compile flags: /Ogsy
rdata$r	ENDS
;	COMDAT ??0IOException@@QAE@V?$basic_string@DV?$char_traits@D@_STL@@V?$allocator@D@2@@_STL@@@Z
_TEXT	SEGMENT
$T102419 = -4						; size = 4
_msg$ = 8						; size = 12
??0IOException@@QAE@V?$basic_string@DV?$char_traits@D@_STL@@V?$allocator@D@2@@_STL@@@Z PROC NEAR ; IOException::IOException, COMDAT
; _this$ = ecx

; 190  : 		IOException ( std::string msg ) throw () : Exception (msg) {}

  00000	55		 push	 ebp
  00001	8b ec		 mov	 ebp, esp
  00003	51		 push	 ecx
  00004	56		 push	 esi
  00005	83 ec 0c	 sub	 esp, 12			; 0000000cH
  00008	8b f1		 mov	 esi, ecx
  0000a	8d 45 08	 lea	 eax, DWORD PTR _msg$[ebp]
  0000d	8b cc		 mov	 ecx, esp
  0000f	89 65 fc	 mov	 DWORD PTR $T102419[ebp], esp
  00012	50		 push	 eax
  00013	e8 00 00 00 00	 call	 ??0?$basic_string@DV?$char_traits@D@_STL@@V?$allocator@D@2@@_STL@@QAE@ABV01@@Z ; _STL::basic_string<char,_STL::char_traits<char>,_STL::allocator<char> >::basic_string<char,_STL::char_traits<char>,_STL::allocator<char> >
  00018	8b ce		 mov	 ecx, esi
  0001a	e8 00 00 00 00	 call	 ??0Exception@@QAE@V?$basic_string@DV?$char_traits@D@_STL@@V?$allocator@D@2@@_STL@@@Z ; Exception::Exception
  0001f	8d 4d 08	 lea	 ecx, DWORD PTR _msg$[ebp]
  00022	c7 06 00 00 00
	00		 mov	 DWORD PTR [esi], OFFSET FLAT:??_7IOException@@6B@
  00028	e8 00 00 00 00	 call	 ??1?$basic_string@DV?$char_traits@D@_STL@@V?$allocator@D@2@@_STL@@QAE@XZ ; _STL::basic_string<char,_STL::char_traits<char>,_STL::allocator<char> >::~basic_string<char,_STL::char_traits<char>,_STL::allocator<char> >
  0002d	8b c6		 mov	 eax, esi
  0002f	5e		 pop	 esi
  00030	c9		 leave
  00031	c2 0c 00	 ret	 12			; 0000000cH
??0IOException@@QAE@V?$basic_string@DV?$char_traits@D@_STL@@V?$allocator@D@2@@_STL@@@Z ENDP ; IOException::IOException
_TEXT	ENDS
PUBLIC	??_C@_0M@CBPJAJJI@IOException?$AA@		; `string'
;	COMDAT ??_C@_0M@CBPJAJJI@IOException?$AA@
; File c:\stlport-4.6.1\stlport\stl\_alloc.h
CONST	SEGMENT
??_C@_0M@CBPJAJJI@IOException?$AA@ DB 'IOException', 00H ; `string'
; Function compile flags: /Ogsy
; File c:\darkeden\designed_common\project\client\packet\exception.h
CONST	ENDS
;	COMDAT ?getName@IOException@@UBE?AV?$basic_string@DV?$char_traits@D@_STL@@V?$allocator@D@2@@_STL@@XZ
_TEXT	SEGMENT
___$ReturnUdt$ = 8					; size = 4
$T102422 = 11						; size = 1
?getName@IOException@@UBE?AV?$basic_string@DV?$char_traits@D@_STL@@V?$allocator@D@2@@_STL@@XZ PROC NEAR ; IOException::getName, COMDAT
; _this$ = ecx

; 191  : 		std::string getName () const throw () { return "IOException"; }

  00000	55		 push	 ebp
  00001	8b ec		 mov	 ebp, esp
  00003	8b 4d 08	 mov	 ecx, DWORD PTR ___$ReturnUdt$[ebp]
  00006	8d 45 0b	 lea	 eax, DWORD PTR $T102422[ebp]
  00009	50		 push	 eax
  0000a	68 00 00 00 00	 push	 OFFSET FLAT:??_C@_0M@CBPJAJJI@IOException?$AA@
  0000f	e8 00 00 00 00	 call	 ??0?$basic_string@DV?$char_traits@D@_STL@@V?$allocator@D@2@@_STL@@QAE@PBDABV?$allocator@D@1@@Z ; _STL::basic_string<char,_STL::char_traits<char>,_STL::allocator<char> >::basic_string<char,_STL::char_traits<char>,_STL::allocator<char> >
  00014	8b 45 08	 mov	 eax, DWORD PTR ___$ReturnUdt$[ebp]
  00017	5d		 pop	 ebp
  00018	c2 04 00	 ret	 4
?getName@IOException@@UBE?AV?$basic_string@DV?$char_traits@D@_STL@@V?$allocator@D@2@@_STL@@XZ ENDP ; IOException::getName
_TEXT	ENDS
PUBLIC	??1IOException@@UAE@XZ				; IOException::~IOException
; Function compile flags: /Ogsy
;	COMDAT ??1IOException@@UAE@XZ
_TEXT	SEGMENT
??1IOException@@UAE@XZ PROC NEAR			; IOException::~IOException, COMDAT
; _this$ = ecx
  00000	e9 00 00 00 00	 jmp	 ??1Exception@@UAE@XZ
??1IOException@@UAE@XZ ENDP				; IOException::~IOException
_TEXT	ENDS
PUBLIC	??0NonBlockingIOException@@QAE@V?$basic_string@DV?$char_traits@D@_STL@@V?$allocator@D@2@@_STL@@@Z ; NonBlockingIOException::NonBlockingIOException
PUBLIC	?getName@NonBlockingIOException@@UBE?AV?$basic_string@DV?$char_traits@D@_STL@@V?$allocator@D@2@@_STL@@XZ ; NonBlockingIOException::getName
PUBLIC	??_7NonBlockingIOException@@6B@			; NonBlockingIOException::`vftable'
PUBLIC	??_GNonBlockingIOException@@UAEPAXI@Z		; NonBlockingIOException::`scalar deleting destructor'
PUBLIC	??_R4NonBlockingIOException@@6B@		; NonBlockingIOException::`RTTI Complete Object Locator'
PUBLIC	??_R0?AVNonBlockingIOException@@@8		; NonBlockingIOException `RTTI Type Descriptor'
PUBLIC	??_R3NonBlockingIOException@@8			; NonBlockingIOException::`RTTI Class Hierarchy Descriptor'
PUBLIC	??_R2NonBlockingIOException@@8			; NonBlockingIOException::`RTTI Base Class Array'
PUBLIC	??_R1A@?0A@A@NonBlockingIOException@@8		; NonBlockingIOException::`RTTI Base Class Descriptor at (0,-1,0,0)'
EXTRN	??_ENonBlockingIOException@@UAEPAXI@Z:NEAR	; NonBlockingIOException::`vector deleting destructor'
;	COMDAT ??_7NonBlockingIOException@@6B@
CONST	SEGMENT
??_7NonBlockingIOException@@6B@ DD FLAT:??_R4NonBlockingIOException@@6B@ ; NonBlockingIOException::`vftable'
	DD	FLAT:??_ENonBlockingIOException@@UAEPAXI@Z
	DD	FLAT:?getName@NonBlockingIOException@@UBE?AV?$basic_string@DV?$char_traits@D@_STL@@V?$allocator@D@2@@_STL@@XZ
	DD	FLAT:?toString@Throwable@@UBE?AV?$basic_string@DV?$char_traits@D@_STL@@V?$allocator@D@2@@_STL@@XZ
CONST	ENDS
;	COMDAT ??_R4NonBlockingIOException@@6B@
rdata$r	SEGMENT
??_R4NonBlockingIOException@@6B@ DD 00H			; NonBlockingIOException::`RTTI Complete Object Locator'
	DD	00H
	DD	00H
	DD	FLAT:??_R0?AVNonBlockingIOException@@@8
	DD	FLAT:??_R3NonBlockingIOException@@8
rdata$r	ENDS
;	COMDAT ??_R0?AVNonBlockingIOException@@@8
_DATA	SEGMENT
??_R0?AVNonBlockingIOException@@@8 DD FLAT:??_7type_info@@6B@ ; NonBlockingIOException `RTTI Type Descriptor'
	DD	00H
	DB	'.?AVNonBlockingIOException@@', 00H
	ORG $-37
	DD	FLAT:??_7type_info@@6B@
	DD	00H
	DB	'.?AVNonBlockingIOException@@', 00H
_DATA	ENDS
;	COMDAT ??_R3NonBlockingIOException@@8
rdata$r	SEGMENT
??_R3NonBlockingIOException@@8 DD 00H			; NonBlockingIOException::`RTTI Class Hierarchy Descriptor'
	DD	00H
	DD	04H
	DD	FLAT:??_R2NonBlockingIOException@@8
rdata$r	ENDS
;	COMDAT ??_R2NonBlockingIOException@@8
rdata$r	SEGMENT
??_R2NonBlockingIOException@@8 DD FLAT:??_R1A@?0A@A@NonBlockingIOException@@8 ; NonBlockingIOException::`RTTI Base Class Array'
	DD	FLAT:??_R1A@?0A@A@IOException@@8
	DD	FLAT:??_R1A@?0A@A@Exception@@8
	DD	FLAT:??_R1A@?0A@A@Throwable@@8
rdata$r	ENDS
;	COMDAT ??_R1A@?0A@A@NonBlockingIOException@@8
rdata$r	SEGMENT
??_R1A@?0A@A@NonBlockingIOException@@8 DD FLAT:??_R0?AVNonBlockingIOException@@@8 ; NonBlockingIOException::`RTTI Base Class Descriptor at (0,-1,0,0)'
	DD	03H
	DD	00H
	DD	0ffffffffH
	DD	00H
	DD	00H
; Function compile flags: /Ogsy
rdata$r	ENDS
;	COMDAT ??0NonBlockingIOException@@QAE@V?$basic_string@DV?$char_traits@D@_STL@@V?$allocator@D@2@@_STL@@@Z
_TEXT	SEGMENT
$T102434 = -4						; size = 4
_msg$ = 8						; size = 12
??0NonBlockingIOException@@QAE@V?$basic_string@DV?$char_traits@D@_STL@@V?$allocator@D@2@@_STL@@@Z PROC NEAR ; NonBlockingIOException::NonBlockingIOException, COMDAT
; _this$ = ecx

; 204  : 			NonBlockingIOException ( std::string msg ) throw () : IOException (msg) {}

  00000	55		 push	 ebp
  00001	8b ec		 mov	 ebp, esp
  00003	51		 push	 ecx
  00004	56		 push	 esi
  00005	83 ec 0c	 sub	 esp, 12			; 0000000cH
  00008	8b f1		 mov	 esi, ecx
  0000a	8d 45 08	 lea	 eax, DWORD PTR _msg$[ebp]
  0000d	8b cc		 mov	 ecx, esp
  0000f	89 65 fc	 mov	 DWORD PTR $T102434[ebp], esp
  00012	50		 push	 eax
  00013	e8 00 00 00 00	 call	 ??0?$basic_string@DV?$char_traits@D@_STL@@V?$allocator@D@2@@_STL@@QAE@ABV01@@Z ; _STL::basic_string<char,_STL::char_traits<char>,_STL::allocator<char> >::basic_string<char,_STL::char_traits<char>,_STL::allocator<char> >
  00018	8b ce		 mov	 ecx, esi
  0001a	e8 00 00 00 00	 call	 ??0IOException@@QAE@V?$basic_string@DV?$char_traits@D@_STL@@V?$allocator@D@2@@_STL@@@Z ; IOException::IOException
  0001f	8d 4d 08	 lea	 ecx, DWORD PTR _msg$[ebp]
  00022	c7 06 00 00 00
	00		 mov	 DWORD PTR [esi], OFFSET FLAT:??_7NonBlockingIOException@@6B@
  00028	e8 00 00 00 00	 call	 ??1?$basic_string@DV?$char_traits@D@_STL@@V?$allocator@D@2@@_STL@@QAE@XZ ; _STL::basic_string<char,_STL::char_traits<char>,_STL::allocator<char> >::~basic_string<char,_STL::char_traits<char>,_STL::allocator<char> >
  0002d	8b c6		 mov	 eax, esi
  0002f	5e		 pop	 esi
  00030	c9		 leave
  00031	c2 0c 00	 ret	 12			; 0000000cH
??0NonBlockingIOException@@QAE@V?$basic_string@DV?$char_traits@D@_STL@@V?$allocator@D@2@@_STL@@@Z ENDP ; NonBlockingIOException::NonBlockingIOException
_TEXT	ENDS
PUBLIC	??_C@_0BH@MIDAMAGI@NonBlockingIOException?$AA@	; `string'
;	COMDAT ??_C@_0BH@MIDAMAGI@NonBlockingIOException?$AA@
; File c:\stlport-4.6.1\stlport\stl\_alloc.h
CONST	SEGMENT
??_C@_0BH@MIDAMAGI@NonBlockingIOException?$AA@ DB 'NonBlockingIOException'
	DB	00H						; `string'
; Function compile flags: /Ogsy
; File c:\darkeden\designed_common\project\client\packet\exception.h
CONST	ENDS
;	COMDAT ?getName@NonBlockingIOException@@UBE?AV?$basic_string@DV?$char_traits@D@_STL@@V?$allocator@D@2@@_STL@@XZ
_TEXT	SEGMENT
___$ReturnUdt$ = 8					; size = 4
$T102437 = 11						; size = 1
?getName@NonBlockingIOException@@UBE?AV?$basic_string@DV?$char_traits@D@_STL@@V?$allocator@D@2@@_STL@@XZ PROC NEAR ; NonBlockingIOException::getName, COMDAT
; _this$ = ecx

; 205  : 			std::string getName () const throw () { return "NonBlockingIOException"; }

  00000	55		 push	 ebp
  00001	8b ec		 mov	 ebp, esp
  00003	8b 4d 08	 mov	 ecx, DWORD PTR ___$ReturnUdt$[ebp]
  00006	8d 45 0b	 lea	 eax, DWORD PTR $T102437[ebp]
  00009	50		 push	 eax
  0000a	68 00 00 00 00	 push	 OFFSET FLAT:??_C@_0BH@MIDAMAGI@NonBlockingIOException?$AA@
  0000f	e8 00 00 00 00	 call	 ??0?$basic_string@DV?$char_traits@D@_STL@@V?$allocator@D@2@@_STL@@QAE@PBDABV?$allocator@D@1@@Z ; _STL::basic_string<char,_STL::char_traits<char>,_STL::allocator<char> >::basic_string<char,_STL::char_traits<char>,_STL::allocator<char> >
  00014	8b 45 08	 mov	 eax, DWORD PTR ___$ReturnUdt$[ebp]
  00017	5d		 pop	 ebp
  00018	c2 04 00	 ret	 4
?getName@NonBlockingIOException@@UBE?AV?$basic_string@DV?$char_traits@D@_STL@@V?$allocator@D@2@@_STL@@XZ ENDP ; NonBlockingIOException::getName
_TEXT	ENDS
PUBLIC	??1NonBlockingIOException@@UAE@XZ		; NonBlockingIOException::~NonBlockingIOException
; Function compile flags: /Ogsy
;	COMDAT ??1NonBlockingIOException@@UAE@XZ
_TEXT	SEGMENT
??1NonBlockingIOException@@UAE@XZ PROC NEAR		; NonBlockingIOException::~NonBlockingIOException, COMDAT
; _this$ = ecx
  00000	e9 00 00 00 00	 jmp	 ??1IOException@@UAE@XZ
??1NonBlockingIOException@@UAE@XZ ENDP			; NonBlockingIOException::~NonBlockingIOException
_TEXT	ENDS
PUBLIC	??0FileNotOpenedException@@QAE@V?$basic_string@DV?$char_traits@D@_STL@@V?$allocator@D@2@@_STL@@@Z ; FileNotOpenedException::FileNotOpenedException
PUBLIC	?getName@FileNotOpenedException@@UBE?AV?$basic_string@DV?$char_traits@D@_STL@@V?$allocator@D@2@@_STL@@XZ ; FileNotOpenedException::getName
PUBLIC	??_7FileNotOpenedException@@6B@			; FileNotOpenedException::`vftable'
PUBLIC	??_GFileNotOpenedException@@UAEPAXI@Z		; FileNotOpenedException::`scalar deleting destructor'
PUBLIC	??_R4FileNotOpenedException@@6B@		; FileNotOpenedException::`RTTI Complete Object Locator'
PUBLIC	??_R0?AVFileNotOpenedException@@@8		; FileNotOpenedException `RTTI Type Descriptor'
PUBLIC	??_R3FileNotOpenedException@@8			; FileNotOpenedException::`RTTI Class Hierarchy Descriptor'
PUBLIC	??_R2FileNotOpenedException@@8			; FileNotOpenedException::`RTTI Base Class Array'
PUBLIC	??_R1A@?0A@A@FileNotOpenedException@@8		; FileNotOpenedException::`RTTI Base Class Descriptor at (0,-1,0,0)'
EXTRN	??_EFileNotOpenedException@@UAEPAXI@Z:NEAR	; FileNotOpenedException::`vector deleting destructor'
;	COMDAT ??_7FileNotOpenedException@@6B@
CONST	SEGMENT
??_7FileNotOpenedException@@6B@ DD FLAT:??_R4FileNotOpenedException@@6B@ ; FileNotOpenedException::`vftable'
	DD	FLAT:??_EFileNotOpenedException@@UAEPAXI@Z
	DD	FLAT:?getName@FileNotOpenedException@@UBE?AV?$basic_string@DV?$char_traits@D@_STL@@V?$allocator@D@2@@_STL@@XZ
	DD	FLAT:?toString@Throwable@@UBE?AV?$basic_string@DV?$char_traits@D@_STL@@V?$allocator@D@2@@_STL@@XZ
CONST	ENDS
;	COMDAT ??_R4FileNotOpenedException@@6B@
rdata$r	SEGMENT
??_R4FileNotOpenedException@@6B@ DD 00H			; FileNotOpenedException::`RTTI Complete Object Locator'
	DD	00H
	DD	00H
	DD	FLAT:??_R0?AVFileNotOpenedException@@@8
	DD	FLAT:??_R3FileNotOpenedException@@8
rdata$r	ENDS
;	COMDAT ??_R0?AVFileNotOpenedException@@@8
_DATA	SEGMENT
??_R0?AVFileNotOpenedException@@@8 DD FLAT:??_7type_info@@6B@ ; FileNotOpenedException `RTTI Type Descriptor'
	DD	00H
	DB	'.?AVFileNotOpenedException@@', 00H
	ORG $-37
	DD	FLAT:??_7type_info@@6B@
	DD	00H
	DB	'.?AVFileNotOpenedException@@', 00H
_DATA	ENDS
;	COMDAT ??_R3FileNotOpenedException@@8
rdata$r	SEGMENT
??_R3FileNotOpenedException@@8 DD 00H			; FileNotOpenedException::`RTTI Class Hierarchy Descriptor'
	DD	00H
	DD	04H
	DD	FLAT:??_R2FileNotOpenedException@@8
rdata$r	ENDS
;	COMDAT ??_R2FileNotOpenedException@@8
rdata$r	SEGMENT
??_R2FileNotOpenedException@@8 DD FLAT:??_R1A@?0A@A@FileNotOpenedException@@8 ; FileNotOpenedException::`RTTI Base Class Array'
	DD	FLAT:??_R1A@?0A@A@IOException@@8
	DD	FLAT:??_R1A@?0A@A@Exception@@8
	DD	FLAT:??_R1A@?0A@A@Throwable@@8
rdata$r	ENDS
;	COMDAT ??_R1A@?0A@A@FileNotOpenedException@@8
rdata$r	SEGMENT
??_R1A@?0A@A@FileNotOpenedException@@8 DD FLAT:??_R0?AVFileNotOpenedException@@@8 ; FileNotOpenedException::`RTTI Base Class Descriptor at (0,-1,0,0)'
	DD	03H
	DD	00H
	DD	0ffffffffH
	DD	00H
	DD	00H
; Function compile flags: /Ogsy
rdata$r	ENDS
;	COMDAT ??0FileNotOpenedException@@QAE@V?$basic_string@DV?$char_traits@D@_STL@@V?$allocator@D@2@@_STL@@@Z
_TEXT	SEGMENT
$T102449 = -4						; size = 4
_msg$ = 8						; size = 12
??0FileNotOpenedException@@QAE@V?$basic_string@DV?$char_traits@D@_STL@@V?$allocator@D@2@@_STL@@@Z PROC NEAR ; FileNotOpenedException::FileNotOpenedException, COMDAT
; _this$ = ecx

; 244  : 			FileNotOpenedException ( std::string msg ) throw () : IOException(msg) {}

  00000	55		 push	 ebp
  00001	8b ec		 mov	 ebp, esp
  00003	51		 push	 ecx
  00004	56		 push	 esi
  00005	83 ec 0c	 sub	 esp, 12			; 0000000cH
  00008	8b f1		 mov	 esi, ecx
  0000a	8d 45 08	 lea	 eax, DWORD PTR _msg$[ebp]
  0000d	8b cc		 mov	 ecx, esp
  0000f	89 65 fc	 mov	 DWORD PTR $T102449[ebp], esp
  00012	50		 push	 eax
  00013	e8 00 00 00 00	 call	 ??0?$basic_string@DV?$char_traits@D@_STL@@V?$allocator@D@2@@_STL@@QAE@ABV01@@Z ; _STL::basic_string<char,_STL::char_traits<char>,_STL::allocator<char> >::basic_string<char,_STL::char_traits<char>,_STL::allocator<char> >
  00018	8b ce		 mov	 ecx, esi
  0001a	e8 00 00 00 00	 call	 ??0IOException@@QAE@V?$basic_string@DV?$char_traits@D@_STL@@V?$allocator@D@2@@_STL@@@Z ; IOException::IOException
  0001f	8d 4d 08	 lea	 ecx, DWORD PTR _msg$[ebp]
  00022	c7 06 00 00 00
	00		 mov	 DWORD PTR [esi], OFFSET FLAT:??_7FileNotOpenedException@@6B@
  00028	e8 00 00 00 00	 call	 ??1?$basic_string@DV?$char_traits@D@_STL@@V?$allocator@D@2@@_STL@@QAE@XZ ; _STL::basic_string<char,_STL::char_traits<char>,_STL::allocator<char> >::~basic_string<char,_STL::char_traits<char>,_STL::allocator<char> >
  0002d	8b c6		 mov	 eax, esi
  0002f	5e		 pop	 esi
  00030	c9		 leave
  00031	c2 0c 00	 ret	 12			; 0000000cH
??0FileNotOpenedException@@QAE@V?$basic_string@DV?$char_traits@D@_STL@@V?$allocator@D@2@@_STL@@@Z ENDP ; FileNotOpenedException::FileNotOpenedException
_TEXT	ENDS
PUBLIC	??_C@_0BH@EBMCKLMN@FileNotOpenedException?$AA@	; `string'
;	COMDAT ??_C@_0BH@EBMCKLMN@FileNotOpenedException?$AA@
; File c:\stlport-4.6.1\stlport\stl\_alloc.h
CONST	SEGMENT
??_C@_0BH@EBMCKLMN@FileNotOpenedException?$AA@ DB 'FileNotOpenedException'
	DB	00H						; `string'
; Function compile flags: /Ogsy
; File c:\darkeden\designed_common\project\client\packet\exception.h
CONST	ENDS
;	COMDAT ?getName@FileNotOpenedException@@UBE?AV?$basic_string@DV?$char_traits@D@_STL@@V?$allocator@D@2@@_STL@@XZ
_TEXT	SEGMENT
___$ReturnUdt$ = 8					; size = 4
$T102452 = 11						; size = 1
?getName@FileNotOpenedException@@UBE?AV?$basic_string@DV?$char_traits@D@_STL@@V?$allocator@D@2@@_STL@@XZ PROC NEAR ; FileNotOpenedException::getName, COMDAT
; _this$ = ecx

; 245  : 			std::string getName () const throw () { return "FileNotOpenedException"; }

  00000	55		 push	 ebp
  00001	8b ec		 mov	 ebp, esp
  00003	8b 4d 08	 mov	 ecx, DWORD PTR ___$ReturnUdt$[ebp]
  00006	8d 45 0b	 lea	 eax, DWORD PTR $T102452[ebp]
  00009	50		 push	 eax
  0000a	68 00 00 00 00	 push	 OFFSET FLAT:??_C@_0BH@EBMCKLMN@FileNotOpenedException?$AA@
  0000f	e8 00 00 00 00	 call	 ??0?$basic_string@DV?$char_traits@D@_STL@@V?$allocator@D@2@@_STL@@QAE@PBDABV?$allocator@D@1@@Z ; _STL::basic_string<char,_STL::char_traits<char>,_STL::allocator<char> >::basic_string<char,_STL::char_traits<char>,_STL::allocator<char> >
  00014	8b 45 08	 mov	 eax, DWORD PTR ___$ReturnUdt$[ebp]
  00017	5d		 pop	 ebp
  00018	c2 04 00	 ret	 4
?getName@FileNotOpenedException@@UBE?AV?$basic_string@DV?$char_traits@D@_STL@@V?$allocator@D@2@@_STL@@XZ ENDP ; FileNotOpenedException::getName
_TEXT	ENDS
PUBLIC	??1FileNotOpenedException@@UAE@XZ		; FileNotOpenedException::~FileNotOpenedException
; Function compile flags: /Ogsy
;	COMDAT ??1FileNotOpenedException@@UAE@XZ
_TEXT	SEGMENT
??1FileNotOpenedException@@UAE@XZ PROC NEAR		; FileNotOpenedException::~FileNotOpenedException, COMDAT
; _this$ = ecx
  00000	e9 00 00 00 00	 jmp	 ??1IOException@@UAE@XZ
??1FileNotOpenedException@@UAE@XZ ENDP			; FileNotOpenedException::~FileNotOpenedException
_TEXT	ENDS
PUBLIC	??0SocketException@@QAE@V?$basic_string@DV?$char_traits@D@_STL@@V?$allocator@D@2@@_STL@@@Z ; SocketException::SocketException
PUBLIC	?getName@SocketException@@UBE?AV?$basic_string@DV?$char_traits@D@_STL@@V?$allocator@D@2@@_STL@@XZ ; SocketException::getName
PUBLIC	??_7SocketException@@6B@			; SocketException::`vftable'
PUBLIC	??_GSocketException@@UAEPAXI@Z			; SocketException::`scalar deleting destructor'
PUBLIC	??_R1A@?0A@A@SocketException@@8			; SocketException::`RTTI Base Class Descriptor at (0,-1,0,0)'
PUBLIC	??_R0?AVSocketException@@@8			; SocketException `RTTI Type Descriptor'
PUBLIC	??_R4SocketException@@6B@			; SocketException::`RTTI Complete Object Locator'
PUBLIC	??_R3SocketException@@8				; SocketException::`RTTI Class Hierarchy Descriptor'
PUBLIC	??_R2SocketException@@8				; SocketException::`RTTI Base Class Array'
EXTRN	??_ESocketException@@UAEPAXI@Z:NEAR		; SocketException::`vector deleting destructor'
;	COMDAT ??_7SocketException@@6B@
CONST	SEGMENT
??_7SocketException@@6B@ DD FLAT:??_R4SocketException@@6B@ ; SocketException::`vftable'
	DD	FLAT:??_ESocketException@@UAEPAXI@Z
	DD	FLAT:?getName@SocketException@@UBE?AV?$basic_string@DV?$char_traits@D@_STL@@V?$allocator@D@2@@_STL@@XZ
	DD	FLAT:?toString@Throwable@@UBE?AV?$basic_string@DV?$char_traits@D@_STL@@V?$allocator@D@2@@_STL@@XZ
CONST	ENDS
;	COMDAT ??_R4SocketException@@6B@
rdata$r	SEGMENT
??_R4SocketException@@6B@ DD 00H			; SocketException::`RTTI Complete Object Locator'
	DD	00H
	DD	00H
	DD	FLAT:??_R0?AVSocketException@@@8
	DD	FLAT:??_R3SocketException@@8
rdata$r	ENDS
;	COMDAT ??_R0?AVSocketException@@@8
_DATA	SEGMENT
??_R0?AVSocketException@@@8 DD FLAT:??_7type_info@@6B@	; SocketException `RTTI Type Descriptor'
	DD	00H
	DB	'.?AVSocketException@@', 00H
	ORG $-30
	DD	FLAT:??_7type_info@@6B@
	DD	00H
	DB	'.?AVSocketException@@', 00H
_DATA	ENDS
;	COMDAT ??_R3SocketException@@8
rdata$r	SEGMENT
??_R3SocketException@@8 DD 00H				; SocketException::`RTTI Class Hierarchy Descriptor'
	DD	00H
	DD	04H
	DD	FLAT:??_R2SocketException@@8
rdata$r	ENDS
;	COMDAT ??_R2SocketException@@8
rdata$r	SEGMENT
??_R2SocketException@@8 DD FLAT:??_R1A@?0A@A@SocketException@@8 ; SocketException::`RTTI Base Class Array'
	DD	FLAT:??_R1A@?0A@A@IOException@@8
	DD	FLAT:??_R1A@?0A@A@Exception@@8
	DD	FLAT:??_R1A@?0A@A@Throwable@@8
rdata$r	ENDS
;	COMDAT ??_R1A@?0A@A@SocketException@@8
rdata$r	SEGMENT
??_R1A@?0A@A@SocketException@@8 DD FLAT:??_R0?AVSocketException@@@8 ; SocketException::`RTTI Base Class Descriptor at (0,-1,0,0)'
	DD	03H
	DD	00H
	DD	0ffffffffH
	DD	00H
	DD	00H
; Function compile flags: /Ogsy
rdata$r	ENDS
;	COMDAT ??0SocketException@@QAE@V?$basic_string@DV?$char_traits@D@_STL@@V?$allocator@D@2@@_STL@@@Z
_TEXT	SEGMENT
$T102464 = -4						; size = 4
_msg$ = 8						; size = 12
??0SocketException@@QAE@V?$basic_string@DV?$char_traits@D@_STL@@V?$allocator@D@2@@_STL@@@Z PROC NEAR ; SocketException::SocketException, COMDAT
; _this$ = ecx

; 296  : 			SocketException ( std::string msg ) throw () : IOException (msg) {}

  00000	55		 push	 ebp
  00001	8b ec		 mov	 ebp, esp
  00003	51		 push	 ecx
  00004	56		 push	 esi
  00005	83 ec 0c	 sub	 esp, 12			; 0000000cH
  00008	8b f1		 mov	 esi, ecx
  0000a	8d 45 08	 lea	 eax, DWORD PTR _msg$[ebp]
  0000d	8b cc		 mov	 ecx, esp
  0000f	89 65 fc	 mov	 DWORD PTR $T102464[ebp], esp
  00012	50		 push	 eax
  00013	e8 00 00 00 00	 call	 ??0?$basic_string@DV?$char_traits@D@_STL@@V?$allocator@D@2@@_STL@@QAE@ABV01@@Z ; _STL::basic_string<char,_STL::char_traits<char>,_STL::allocator<char> >::basic_string<char,_STL::char_traits<char>,_STL::allocator<char> >
  00018	8b ce		 mov	 ecx, esi
  0001a	e8 00 00 00 00	 call	 ??0IOException@@QAE@V?$basic_string@DV?$char_traits@D@_STL@@V?$allocator@D@2@@_STL@@@Z ; IOException::IOException
  0001f	8d 4d 08	 lea	 ecx, DWORD PTR _msg$[ebp]
  00022	c7 06 00 00 00
	00		 mov	 DWORD PTR [esi], OFFSET FLAT:??_7SocketException@@6B@
  00028	e8 00 00 00 00	 call	 ??1?$basic_string@DV?$char_traits@D@_STL@@V?$allocator@D@2@@_STL@@QAE@XZ ; _STL::basic_string<char,_STL::char_traits<char>,_STL::allocator<char> >::~basic_string<char,_STL::char_traits<char>,_STL::allocator<char> >
  0002d	8b c6		 mov	 eax, esi
  0002f	5e		 pop	 esi
  00030	c9		 leave
  00031	c2 0c 00	 ret	 12			; 0000000cH
??0SocketException@@QAE@V?$basic_string@DV?$char_traits@D@_STL@@V?$allocator@D@2@@_STL@@@Z ENDP ; SocketException::SocketException
_TEXT	ENDS
PUBLIC	??_C@_0BA@EOEGOLGE@SocketException?$AA@		; `string'
;	COMDAT ??_C@_0BA@EOEGOLGE@SocketException?$AA@
; File c:\stlport-4.6.1\stlport\stl\_alloc.h
CONST	SEGMENT
??_C@_0BA@EOEGOLGE@SocketException?$AA@ DB 'SocketException', 00H ; `string'
; Function compile flags: /Ogsy
; File c:\darkeden\designed_common\project\client\packet\exception.h
CONST	ENDS
;	COMDAT ?getName@SocketException@@UBE?AV?$basic_string@DV?$char_traits@D@_STL@@V?$allocator@D@2@@_STL@@XZ
_TEXT	SEGMENT
___$ReturnUdt$ = 8					; size = 4
$T102467 = 11						; size = 1
?getName@SocketException@@UBE?AV?$basic_string@DV?$char_traits@D@_STL@@V?$allocator@D@2@@_STL@@XZ PROC NEAR ; SocketException::getName, COMDAT
; _this$ = ecx

; 297  : 			std::string getName () const throw () { return "SocketException"; }

  00000	55		 push	 ebp
  00001	8b ec		 mov	 ebp, esp
  00003	8b 4d 08	 mov	 ecx, DWORD PTR ___$ReturnUdt$[ebp]
  00006	8d 45 0b	 lea	 eax, DWORD PTR $T102467[ebp]
  00009	50		 push	 eax
  0000a	68 00 00 00 00	 push	 OFFSET FLAT:??_C@_0BA@EOEGOLGE@SocketException?$AA@
  0000f	e8 00 00 00 00	 call	 ??0?$basic_string@DV?$char_traits@D@_STL@@V?$allocator@D@2@@_STL@@QAE@PBDABV?$allocator@D@1@@Z ; _STL::basic_string<char,_STL::char_traits<char>,_STL::allocator<char> >::basic_string<char,_STL::char_traits<char>,_STL::allocator<char> >
  00014	8b 45 08	 mov	 eax, DWORD PTR ___$ReturnUdt$[ebp]
  00017	5d		 pop	 ebp
  00018	c2 04 00	 ret	 4
?getName@SocketException@@UBE?AV?$basic_string@DV?$char_traits@D@_STL@@V?$allocator@D@2@@_STL@@XZ ENDP ; SocketException::getName
_TEXT	ENDS
PUBLIC	??1SocketException@@UAE@XZ			; SocketException::~SocketException
; Function compile flags: /Ogsy
;	COMDAT ??1SocketException@@UAE@XZ
_TEXT	SEGMENT
??1SocketException@@UAE@XZ PROC NEAR			; SocketException::~SocketException, COMDAT
; _this$ = ecx
  00000	e9 00 00 00 00	 jmp	 ??1IOException@@UAE@XZ
??1SocketException@@UAE@XZ ENDP				; SocketException::~SocketException
_TEXT	ENDS
PUBLIC	??0BindException@@QAE@V?$basic_string@DV?$char_traits@D@_STL@@V?$allocator@D@2@@_STL@@@Z ; BindException::BindException
PUBLIC	?getName@BindException@@UBE?AV?$basic_string@DV?$char_traits@D@_STL@@V?$allocator@D@2@@_STL@@XZ ; BindException::getName
PUBLIC	??_7BindException@@6B@				; BindException::`vftable'
PUBLIC	??_GBindException@@UAEPAXI@Z			; BindException::`scalar deleting destructor'
PUBLIC	??_R4BindException@@6B@				; BindException::`RTTI Complete Object Locator'
PUBLIC	??_R0?AVBindException@@@8			; BindException `RTTI Type Descriptor'
PUBLIC	??_R3BindException@@8				; BindException::`RTTI Class Hierarchy Descriptor'
PUBLIC	??_R2BindException@@8				; BindException::`RTTI Base Class Array'
PUBLIC	??_R1A@?0A@A@BindException@@8			; BindException::`RTTI Base Class Descriptor at (0,-1,0,0)'
EXTRN	??_EBindException@@UAEPAXI@Z:NEAR		; BindException::`vector deleting destructor'
;	COMDAT ??_7BindException@@6B@
CONST	SEGMENT
??_7BindException@@6B@ DD FLAT:??_R4BindException@@6B@	; BindException::`vftable'
	DD	FLAT:??_EBindException@@UAEPAXI@Z
	DD	FLAT:?getName@BindException@@UBE?AV?$basic_string@DV?$char_traits@D@_STL@@V?$allocator@D@2@@_STL@@XZ
	DD	FLAT:?toString@Throwable@@UBE?AV?$basic_string@DV?$char_traits@D@_STL@@V?$allocator@D@2@@_STL@@XZ
CONST	ENDS
;	COMDAT ??_R4BindException@@6B@
rdata$r	SEGMENT
??_R4BindException@@6B@ DD 00H				; BindException::`RTTI Complete Object Locator'
	DD	00H
	DD	00H
	DD	FLAT:??_R0?AVBindException@@@8
	DD	FLAT:??_R3BindException@@8
rdata$r	ENDS
;	COMDAT ??_R0?AVBindException@@@8
_DATA	SEGMENT
??_R0?AVBindException@@@8 DD FLAT:??_7type_info@@6B@	; BindException `RTTI Type Descriptor'
	DD	00H
	DB	'.?AVBindException@@', 00H
	ORG $-28
	DD	FLAT:??_7type_info@@6B@
	DD	00H
	DB	'.?AVBindException@@', 00H
_DATA	ENDS
;	COMDAT ??_R3BindException@@8
rdata$r	SEGMENT
??_R3BindException@@8 DD 00H				; BindException::`RTTI Class Hierarchy Descriptor'
	DD	00H
	DD	05H
	DD	FLAT:??_R2BindException@@8
rdata$r	ENDS
;	COMDAT ??_R2BindException@@8
rdata$r	SEGMENT
??_R2BindException@@8 DD FLAT:??_R1A@?0A@A@BindException@@8 ; BindException::`RTTI Base Class Array'
	DD	FLAT:??_R1A@?0A@A@SocketException@@8
	DD	FLAT:??_R1A@?0A@A@IOException@@8
	DD	FLAT:??_R1A@?0A@A@Exception@@8
	DD	FLAT:??_R1A@?0A@A@Throwable@@8
rdata$r	ENDS
;	COMDAT ??_R1A@?0A@A@BindException@@8
rdata$r	SEGMENT
??_R1A@?0A@A@BindException@@8 DD FLAT:??_R0?AVBindException@@@8 ; BindException::`RTTI Base Class Descriptor at (0,-1,0,0)'
	DD	04H
	DD	00H
	DD	0ffffffffH
	DD	00H
	DD	00H
; Function compile flags: /Ogsy
rdata$r	ENDS
;	COMDAT ??0BindException@@QAE@V?$basic_string@DV?$char_traits@D@_STL@@V?$allocator@D@2@@_STL@@@Z
_TEXT	SEGMENT
$T102479 = -4						; size = 4
_msg$ = 8						; size = 12
??0BindException@@QAE@V?$basic_string@DV?$char_traits@D@_STL@@V?$allocator@D@2@@_STL@@@Z PROC NEAR ; BindException::BindException, COMDAT
; _this$ = ecx

; 310  : 				BindException ( std::string msg ) throw () : SocketException (msg) {}

  00000	55		 push	 ebp
  00001	8b ec		 mov	 ebp, esp
  00003	51		 push	 ecx
  00004	56		 push	 esi
  00005	83 ec 0c	 sub	 esp, 12			; 0000000cH
  00008	8b f1		 mov	 esi, ecx
  0000a	8d 45 08	 lea	 eax, DWORD PTR _msg$[ebp]
  0000d	8b cc		 mov	 ecx, esp
  0000f	89 65 fc	 mov	 DWORD PTR $T102479[ebp], esp
  00012	50		 push	 eax
  00013	e8 00 00 00 00	 call	 ??0?$basic_string@DV?$char_traits@D@_STL@@V?$allocator@D@2@@_STL@@QAE@ABV01@@Z ; _STL::basic_string<char,_STL::char_traits<char>,_STL::allocator<char> >::basic_string<char,_STL::char_traits<char>,_STL::allocator<char> >
  00018	8b ce		 mov	 ecx, esi
  0001a	e8 00 00 00 00	 call	 ??0SocketException@@QAE@V?$basic_string@DV?$char_traits@D@_STL@@V?$allocator@D@2@@_STL@@@Z ; SocketException::SocketException
  0001f	8d 4d 08	 lea	 ecx, DWORD PTR _msg$[ebp]
  00022	c7 06 00 00 00
	00		 mov	 DWORD PTR [esi], OFFSET FLAT:??_7BindException@@6B@
  00028	e8 00 00 00 00	 call	 ??1?$basic_string@DV?$char_traits@D@_STL@@V?$allocator@D@2@@_STL@@QAE@XZ ; _STL::basic_string<char,_STL::char_traits<char>,_STL::allocator<char> >::~basic_string<char,_STL::char_traits<char>,_STL::allocator<char> >
  0002d	8b c6		 mov	 eax, esi
  0002f	5e		 pop	 esi
  00030	c9		 leave
  00031	c2 0c 00	 ret	 12			; 0000000cH
??0BindException@@QAE@V?$basic_string@DV?$char_traits@D@_STL@@V?$allocator@D@2@@_STL@@@Z ENDP ; BindException::BindException
_TEXT	ENDS
PUBLIC	??_C@_0O@GLDCGPDO@BindException?$AA@		; `string'
;	COMDAT ??_C@_0O@GLDCGPDO@BindException?$AA@
; File c:\stlport-4.6.1\stlport\stl\_alloc.h
CONST	SEGMENT
??_C@_0O@GLDCGPDO@BindException?$AA@ DB 'BindException', 00H ; `string'
; Function compile flags: /Ogsy
; File c:\darkeden\designed_common\project\client\packet\exception.h
CONST	ENDS
;	COMDAT ?getName@BindException@@UBE?AV?$basic_string@DV?$char_traits@D@_STL@@V?$allocator@D@2@@_STL@@XZ
_TEXT	SEGMENT
___$ReturnUdt$ = 8					; size = 4
$T102482 = 11						; size = 1
?getName@BindException@@UBE?AV?$basic_string@DV?$char_traits@D@_STL@@V?$allocator@D@2@@_STL@@XZ PROC NEAR ; BindException::getName, COMDAT
; _this$ = ecx

; 311  : 				std::string getName () const throw () { return "BindException"; }

  00000	55		 push	 ebp
  00001	8b ec		 mov	 ebp, esp
  00003	8b 4d 08	 mov	 ecx, DWORD PTR ___$ReturnUdt$[ebp]
  00006	8d 45 0b	 lea	 eax, DWORD PTR $T102482[ebp]
  00009	50		 push	 eax
  0000a	68 00 00 00 00	 push	 OFFSET FLAT:??_C@_0O@GLDCGPDO@BindException?$AA@
  0000f	e8 00 00 00 00	 call	 ??0?$basic_string@DV?$char_traits@D@_STL@@V?$allocator@D@2@@_STL@@QAE@PBDABV?$allocator@D@1@@Z ; _STL::basic_string<char,_STL::char_traits<char>,_STL::allocator<char> >::basic_string<char,_STL::char_traits<char>,_STL::allocator<char> >
  00014	8b 45 08	 mov	 eax, DWORD PTR ___$ReturnUdt$[ebp]
  00017	5d		 pop	 ebp
  00018	c2 04 00	 ret	 4
?getName@BindException@@UBE?AV?$basic_string@DV?$char_traits@D@_STL@@V?$allocator@D@2@@_STL@@XZ ENDP ; BindException::getName
_TEXT	ENDS
PUBLIC	??1BindException@@UAE@XZ			; BindException::~BindException
; Function compile flags: /Ogsy
;	COMDAT ??1BindException@@UAE@XZ
_TEXT	SEGMENT
??1BindException@@UAE@XZ PROC NEAR			; BindException::~BindException, COMDAT
; _this$ = ecx
  00000	e9 00 00 00 00	 jmp	 ??1SocketException@@UAE@XZ
??1BindException@@UAE@XZ ENDP				; BindException::~BindException
_TEXT	ENDS
PUBLIC	??0ConnectException@@QAE@V?$basic_string@DV?$char_traits@D@_STL@@V?$allocator@D@2@@_STL@@@Z ; ConnectException::ConnectException
PUBLIC	?getName@ConnectException@@UBE?AV?$basic_string@DV?$char_traits@D@_STL@@V?$allocator@D@2@@_STL@@XZ ; ConnectException::getName
PUBLIC	??_7ConnectException@@6B@			; ConnectException::`vftable'
PUBLIC	??_GConnectException@@UAEPAXI@Z			; ConnectException::`scalar deleting destructor'
PUBLIC	??_R4ConnectException@@6B@			; ConnectException::`RTTI Complete Object Locator'
PUBLIC	??_R0?AVConnectException@@@8			; ConnectException `RTTI Type Descriptor'
PUBLIC	??_R3ConnectException@@8			; ConnectException::`RTTI Class Hierarchy Descriptor'
PUBLIC	??_R2ConnectException@@8			; ConnectException::`RTTI Base Class Array'
PUBLIC	??_R1A@?0A@A@ConnectException@@8		; ConnectException::`RTTI Base Class Descriptor at (0,-1,0,0)'
EXTRN	??_EConnectException@@UAEPAXI@Z:NEAR		; ConnectException::`vector deleting destructor'
;	COMDAT ??_7ConnectException@@6B@
CONST	SEGMENT
??_7ConnectException@@6B@ DD FLAT:??_R4ConnectException@@6B@ ; ConnectException::`vftable'
	DD	FLAT:??_EConnectException@@UAEPAXI@Z
	DD	FLAT:?getName@ConnectException@@UBE?AV?$basic_string@DV?$char_traits@D@_STL@@V?$allocator@D@2@@_STL@@XZ
	DD	FLAT:?toString@Throwable@@UBE?AV?$basic_string@DV?$char_traits@D@_STL@@V?$allocator@D@2@@_STL@@XZ
CONST	ENDS
;	COMDAT ??_R4ConnectException@@6B@
rdata$r	SEGMENT
??_R4ConnectException@@6B@ DD 00H			; ConnectException::`RTTI Complete Object Locator'
	DD	00H
	DD	00H
	DD	FLAT:??_R0?AVConnectException@@@8
	DD	FLAT:??_R3ConnectException@@8
rdata$r	ENDS
;	COMDAT ??_R0?AVConnectException@@@8
_DATA	SEGMENT
??_R0?AVConnectException@@@8 DD FLAT:??_7type_info@@6B@	; ConnectException `RTTI Type Descriptor'
	DD	00H
	DB	'.?AVConnectException@@', 00H
	ORG $-31
	DD	FLAT:??_7type_info@@6B@
	DD	00H
	DB	'.?AVConnectException@@', 00H
_DATA	ENDS
;	COMDAT ??_R3ConnectException@@8
rdata$r	SEGMENT
??_R3ConnectException@@8 DD 00H				; ConnectException::`RTTI Class Hierarchy Descriptor'
	DD	00H
	DD	05H
	DD	FLAT:??_R2ConnectException@@8
rdata$r	ENDS
;	COMDAT ??_R2ConnectException@@8
rdata$r	SEGMENT
??_R2ConnectException@@8 DD FLAT:??_R1A@?0A@A@ConnectException@@8 ; ConnectException::`RTTI Base Class Array'
	DD	FLAT:??_R1A@?0A@A@SocketException@@8
	DD	FLAT:??_R1A@?0A@A@IOException@@8
	DD	FLAT:??_R1A@?0A@A@Exception@@8
	DD	FLAT:??_R1A@?0A@A@Throwable@@8
rdata$r	ENDS
;	COMDAT ??_R1A@?0A@A@ConnectException@@8
rdata$r	SEGMENT
??_R1A@?0A@A@ConnectException@@8 DD FLAT:??_R0?AVConnectException@@@8 ; ConnectException::`RTTI Base Class Descriptor at (0,-1,0,0)'
	DD	04H
	DD	00H
	DD	0ffffffffH
	DD	00H
	DD	00H
; Function compile flags: /Ogsy
rdata$r	ENDS
;	COMDAT ??0ConnectException@@QAE@V?$basic_string@DV?$char_traits@D@_STL@@V?$allocator@D@2@@_STL@@@Z
_TEXT	SEGMENT
$T102494 = -4						; size = 4
_msg$ = 8						; size = 12
??0ConnectException@@QAE@V?$basic_string@DV?$char_traits@D@_STL@@V?$allocator@D@2@@_STL@@@Z PROC NEAR ; ConnectException::ConnectException, COMDAT
; _this$ = ecx

; 324  : 				ConnectException ( std::string msg ) throw () : SocketException (msg) {}

  00000	55		 push	 ebp
  00001	8b ec		 mov	 ebp, esp
  00003	51		 push	 ecx
  00004	56		 push	 esi
  00005	83 ec 0c	 sub	 esp, 12			; 0000000cH
  00008	8b f1		 mov	 esi, ecx
  0000a	8d 45 08	 lea	 eax, DWORD PTR _msg$[ebp]
  0000d	8b cc		 mov	 ecx, esp
  0000f	89 65 fc	 mov	 DWORD PTR $T102494[ebp], esp
  00012	50		 push	 eax
  00013	e8 00 00 00 00	 call	 ??0?$basic_string@DV?$char_traits@D@_STL@@V?$allocator@D@2@@_STL@@QAE@ABV01@@Z ; _STL::basic_string<char,_STL::char_traits<char>,_STL::allocator<char> >::basic_string<char,_STL::char_traits<char>,_STL::allocator<char> >
  00018	8b ce		 mov	 ecx, esi
  0001a	e8 00 00 00 00	 call	 ??0SocketException@@QAE@V?$basic_string@DV?$char_traits@D@_STL@@V?$allocator@D@2@@_STL@@@Z ; SocketException::SocketException
  0001f	8d 4d 08	 lea	 ecx, DWORD PTR _msg$[ebp]
  00022	c7 06 00 00 00
	00		 mov	 DWORD PTR [esi], OFFSET FLAT:??_7ConnectException@@6B@
  00028	e8 00 00 00 00	 call	 ??1?$basic_string@DV?$char_traits@D@_STL@@V?$allocator@D@2@@_STL@@QAE@XZ ; _STL::basic_string<char,_STL::char_traits<char>,_STL::allocator<char> >::~basic_string<char,_STL::char_traits<char>,_STL::allocator<char> >
  0002d	8b c6		 mov	 eax, esi
  0002f	5e		 pop	 esi
  00030	c9		 leave
  00031	c2 0c 00	 ret	 12			; 0000000cH
??0ConnectException@@QAE@V?$basic_string@DV?$char_traits@D@_STL@@V?$allocator@D@2@@_STL@@@Z ENDP ; ConnectException::ConnectException
_TEXT	ENDS
PUBLIC	??_C@_0BB@CICOPLDE@ConnectException?$AA@	; `string'
;	COMDAT ??_C@_0BB@CICOPLDE@ConnectException?$AA@
; File c:\stlport-4.6.1\stlport\stl\_alloc.h
CONST	SEGMENT
??_C@_0BB@CICOPLDE@ConnectException?$AA@ DB 'ConnectException', 00H ; `string'
; Function compile flags: /Ogsy
; File c:\darkeden\designed_common\project\client\packet\exception.h
CONST	ENDS
;	COMDAT ?getName@ConnectException@@UBE?AV?$basic_string@DV?$char_traits@D@_STL@@V?$allocator@D@2@@_STL@@XZ
_TEXT	SEGMENT
___$ReturnUdt$ = 8					; size = 4
$T102497 = 11						; size = 1
?getName@ConnectException@@UBE?AV?$basic_string@DV?$char_traits@D@_STL@@V?$allocator@D@2@@_STL@@XZ PROC NEAR ; ConnectException::getName, COMDAT
; _this$ = ecx

; 325  : 				std::string getName () const throw () { return "ConnectException"; }

  00000	55		 push	 ebp
  00001	8b ec		 mov	 ebp, esp
  00003	8b 4d 08	 mov	 ecx, DWORD PTR ___$ReturnUdt$[ebp]
  00006	8d 45 0b	 lea	 eax, DWORD PTR $T102497[ebp]
  00009	50		 push	 eax
  0000a	68 00 00 00 00	 push	 OFFSET FLAT:??_C@_0BB@CICOPLDE@ConnectException?$AA@
  0000f	e8 00 00 00 00	 call	 ??0?$basic_string@DV?$char_traits@D@_STL@@V?$allocator@D@2@@_STL@@QAE@PBDABV?$allocator@D@1@@Z ; _STL::basic_string<char,_STL::char_traits<char>,_STL::allocator<char> >::basic_string<char,_STL::char_traits<char>,_STL::allocator<char> >
  00014	8b 45 08	 mov	 eax, DWORD PTR ___$ReturnUdt$[ebp]
  00017	5d		 pop	 ebp
  00018	c2 04 00	 ret	 4
?getName@ConnectException@@UBE?AV?$basic_string@DV?$char_traits@D@_STL@@V?$allocator@D@2@@_STL@@XZ ENDP ; ConnectException::getName
_TEXT	ENDS
PUBLIC	??1ConnectException@@UAE@XZ			; ConnectException::~ConnectException
; Function compile flags: /Ogsy
;	COMDAT ??1ConnectException@@UAE@XZ
_TEXT	SEGMENT
??1ConnectException@@UAE@XZ PROC NEAR			; ConnectException::~ConnectException, COMDAT
; _this$ = ecx
  00000	e9 00 00 00 00	 jmp	 ??1SocketException@@UAE@XZ
??1ConnectException@@UAE@XZ ENDP			; ConnectException::~ConnectException
_TEXT	ENDS
PUBLIC	??0Error@@QAE@XZ				; Error::Error
PUBLIC	?getName@Error@@UBE?AV?$basic_string@DV?$char_traits@D@_STL@@V?$allocator@D@2@@_STL@@XZ ; Error::getName
PUBLIC	??_7Error@@6B@					; Error::`vftable'
PUBLIC	??_GError@@UAEPAXI@Z				; Error::`scalar deleting destructor'
PUBLIC	??_R1A@?0A@A@Error@@8				; Error::`RTTI Base Class Descriptor at (0,-1,0,0)'
PUBLIC	??_R0?AVError@@@8				; Error `RTTI Type Descriptor'
PUBLIC	??_R4Error@@6B@					; Error::`RTTI Complete Object Locator'
PUBLIC	??_R3Error@@8					; Error::`RTTI Class Hierarchy Descriptor'
PUBLIC	??_R2Error@@8					; Error::`RTTI Base Class Array'
EXTRN	??_EError@@UAEPAXI@Z:NEAR			; Error::`vector deleting destructor'
;	COMDAT ??_7Error@@6B@
CONST	SEGMENT
??_7Error@@6B@ DD FLAT:??_R4Error@@6B@			; Error::`vftable'
	DD	FLAT:??_EError@@UAEPAXI@Z
	DD	FLAT:?getName@Error@@UBE?AV?$basic_string@DV?$char_traits@D@_STL@@V?$allocator@D@2@@_STL@@XZ
	DD	FLAT:?toString@Throwable@@UBE?AV?$basic_string@DV?$char_traits@D@_STL@@V?$allocator@D@2@@_STL@@XZ
CONST	ENDS
;	COMDAT ??_R4Error@@6B@
rdata$r	SEGMENT
??_R4Error@@6B@ DD 00H					; Error::`RTTI Complete Object Locator'
	DD	00H
	DD	00H
	DD	FLAT:??_R0?AVError@@@8
	DD	FLAT:??_R3Error@@8
rdata$r	ENDS
;	COMDAT ??_R0?AVError@@@8
_DATA	SEGMENT
??_R0?AVError@@@8 DD FLAT:??_7type_info@@6B@		; Error `RTTI Type Descriptor'
	DD	00H
	DB	'.?AVError@@', 00H
	ORG $-20
	DD	FLAT:??_7type_info@@6B@
	DD	00H
	DB	'.?AVError@@', 00H
_DATA	ENDS
;	COMDAT ??_R3Error@@8
rdata$r	SEGMENT
??_R3Error@@8 DD 00H					; Error::`RTTI Class Hierarchy Descriptor'
	DD	00H
	DD	02H
	DD	FLAT:??_R2Error@@8
rdata$r	ENDS
;	COMDAT ??_R2Error@@8
rdata$r	SEGMENT
??_R2Error@@8 DD FLAT:??_R1A@?0A@A@Error@@8		; Error::`RTTI Base Class Array'
	DD	FLAT:??_R1A@?0A@A@Throwable@@8
rdata$r	ENDS
;	COMDAT ??_R1A@?0A@A@Error@@8
rdata$r	SEGMENT
??_R1A@?0A@A@Error@@8 DD FLAT:??_R0?AVError@@@8		; Error::`RTTI Base Class Descriptor at (0,-1,0,0)'
	DD	01H
	DD	00H
	DD	0ffffffffH
	DD	00H
	DD	00H
; Function compile flags: /Ogsy
rdata$r	ENDS
;	COMDAT ??0Error@@QAE@XZ
_TEXT	SEGMENT
??0Error@@QAE@XZ PROC NEAR				; Error::Error, COMDAT
; _this$ = ecx

; 675  : 	Error () throw () : Throwable() {}

  00000	56		 push	 esi
  00001	8b f1		 mov	 esi, ecx
  00003	e8 00 00 00 00	 call	 ??0Throwable@@QAE@XZ	; Throwable::Throwable
  00008	c7 06 00 00 00
	00		 mov	 DWORD PTR [esi], OFFSET FLAT:??_7Error@@6B@
  0000e	8b c6		 mov	 eax, esi
  00010	5e		 pop	 esi
  00011	c3		 ret	 0
??0Error@@QAE@XZ ENDP					; Error::Error
_TEXT	ENDS
PUBLIC	??_C@_05NAOIJFC@Error?$AA@			; `string'
;	COMDAT ??_C@_05NAOIJFC@Error?$AA@
; File c:\stlport-4.6.1\stlport\stl\_alloc.h
CONST	SEGMENT
??_C@_05NAOIJFC@Error?$AA@ DB 'Error', 00H		; `string'
; Function compile flags: /Ogsy
; File c:\darkeden\designed_common\project\client\packet\exception.h
CONST	ENDS
;	COMDAT ?getName@Error@@UBE?AV?$basic_string@DV?$char_traits@D@_STL@@V?$allocator@D@2@@_STL@@XZ
_TEXT	SEGMENT
___$ReturnUdt$ = 8					; size = 4
$T102512 = 11						; size = 1
?getName@Error@@UBE?AV?$basic_string@DV?$char_traits@D@_STL@@V?$allocator@D@2@@_STL@@XZ PROC NEAR ; Error::getName, COMDAT
; _this$ = ecx

; 677  : 	std::string getName () const throw () { return "Error"; }

  00000	55		 push	 ebp
  00001	8b ec		 mov	 ebp, esp
  00003	8b 4d 08	 mov	 ecx, DWORD PTR ___$ReturnUdt$[ebp]
  00006	8d 45 0b	 lea	 eax, DWORD PTR $T102512[ebp]
  00009	50		 push	 eax
  0000a	68 00 00 00 00	 push	 OFFSET FLAT:??_C@_05NAOIJFC@Error?$AA@
  0000f	e8 00 00 00 00	 call	 ??0?$basic_string@DV?$char_traits@D@_STL@@V?$allocator@D@2@@_STL@@QAE@PBDABV?$allocator@D@1@@Z ; _STL::basic_string<char,_STL::char_traits<char>,_STL::allocator<char> >::basic_string<char,_STL::char_traits<char>,_STL::allocator<char> >
  00014	8b 45 08	 mov	 eax, DWORD PTR ___$ReturnUdt$[ebp]
  00017	5d		 pop	 ebp
  00018	c2 04 00	 ret	 4
?getName@Error@@UBE?AV?$basic_string@DV?$char_traits@D@_STL@@V?$allocator@D@2@@_STL@@XZ ENDP ; Error::getName
_TEXT	ENDS
PUBLIC	??0Error@@QAE@ABV?$basic_string@DV?$char_traits@D@_STL@@V?$allocator@D@2@@_STL@@@Z ; Error::Error
; Function compile flags: /Ogsy
;	COMDAT ??0Error@@QAE@ABV?$basic_string@DV?$char_traits@D@_STL@@V?$allocator@D@2@@_STL@@@Z
_TEXT	SEGMENT
$T102521 = -4						; size = 4
_msg$ = 8						; size = 4
??0Error@@QAE@ABV?$basic_string@DV?$char_traits@D@_STL@@V?$allocator@D@2@@_STL@@@Z PROC NEAR ; Error::Error, COMDAT
; _this$ = ecx

; 676  : 	Error ( const std::string & msg ) throw () : Throwable(msg) {}

  00000	55		 push	 ebp
  00001	8b ec		 mov	 ebp, esp
  00003	51		 push	 ecx
  00004	56		 push	 esi
  00005	83 ec 0c	 sub	 esp, 12			; 0000000cH
  00008	8b f1		 mov	 esi, ecx
  0000a	8b cc		 mov	 ecx, esp
  0000c	89 65 fc	 mov	 DWORD PTR $T102521[ebp], esp
  0000f	ff 75 08	 push	 DWORD PTR _msg$[ebp]
  00012	e8 00 00 00 00	 call	 ??0?$basic_string@DV?$char_traits@D@_STL@@V?$allocator@D@2@@_STL@@QAE@ABV01@@Z ; _STL::basic_string<char,_STL::char_traits<char>,_STL::allocator<char> >::basic_string<char,_STL::char_traits<char>,_STL::allocator<char> >
  00017	8b ce		 mov	 ecx, esi
  00019	e8 00 00 00 00	 call	 ??0Throwable@@QAE@V?$basic_string@DV?$char_traits@D@_STL@@V?$allocator@D@2@@_STL@@@Z ; Throwable::Throwable
  0001e	c7 06 00 00 00
	00		 mov	 DWORD PTR [esi], OFFSET FLAT:??_7Error@@6B@
  00024	8b c6		 mov	 eax, esi
  00026	5e		 pop	 esi
  00027	c9		 leave
  00028	c2 04 00	 ret	 4
??0Error@@QAE@ABV?$basic_string@DV?$char_traits@D@_STL@@V?$allocator@D@2@@_STL@@@Z ENDP ; Error::Error
_TEXT	ENDS
PUBLIC	??1Error@@UAE@XZ				; Error::~Error
; Function compile flags: /Ogsy
;	COMDAT ??1Error@@UAE@XZ
_TEXT	SEGMENT
??1Error@@UAE@XZ PROC NEAR				; Error::~Error, COMDAT
; _this$ = ecx
  00000	e9 00 00 00 00	 jmp	 ??1Throwable@@UAE@XZ	; Throwable::~Throwable
??1Error@@UAE@XZ ENDP					; Error::~Error
_TEXT	ENDS
PUBLIC	??0UnsupportedError@@QAE@XZ			; UnsupportedError::UnsupportedError
PUBLIC	?getName@UnsupportedError@@UBE?AV?$basic_string@DV?$char_traits@D@_STL@@V?$allocator@D@2@@_STL@@XZ ; UnsupportedError::getName
PUBLIC	??_7UnsupportedError@@6B@			; UnsupportedError::`vftable'
PUBLIC	??_GUnsupportedError@@UAEPAXI@Z			; UnsupportedError::`scalar deleting destructor'
PUBLIC	??_R4UnsupportedError@@6B@			; UnsupportedError::`RTTI Complete Object Locator'
PUBLIC	??_R0?AVUnsupportedError@@@8			; UnsupportedError `RTTI Type Descriptor'
PUBLIC	??_R3UnsupportedError@@8			; UnsupportedError::`RTTI Class Hierarchy Descriptor'
PUBLIC	??_R2UnsupportedError@@8			; UnsupportedError::`RTTI Base Class Array'
PUBLIC	??_R1A@?0A@A@UnsupportedError@@8		; UnsupportedError::`RTTI Base Class Descriptor at (0,-1,0,0)'
EXTRN	??_EUnsupportedError@@UAEPAXI@Z:NEAR		; UnsupportedError::`vector deleting destructor'
;	COMDAT ??_7UnsupportedError@@6B@
CONST	SEGMENT
??_7UnsupportedError@@6B@ DD FLAT:??_R4UnsupportedError@@6B@ ; UnsupportedError::`vftable'
	DD	FLAT:??_EUnsupportedError@@UAEPAXI@Z
	DD	FLAT:?getName@UnsupportedError@@UBE?AV?$basic_string@DV?$char_traits@D@_STL@@V?$allocator@D@2@@_STL@@XZ
	DD	FLAT:?toString@Throwable@@UBE?AV?$basic_string@DV?$char_traits@D@_STL@@V?$allocator@D@2@@_STL@@XZ
CONST	ENDS
;	COMDAT ??_R4UnsupportedError@@6B@
rdata$r	SEGMENT
??_R4UnsupportedError@@6B@ DD 00H			; UnsupportedError::`RTTI Complete Object Locator'
	DD	00H
	DD	00H
	DD	FLAT:??_R0?AVUnsupportedError@@@8
	DD	FLAT:??_R3UnsupportedError@@8
rdata$r	ENDS
;	COMDAT ??_R0?AVUnsupportedError@@@8
_DATA	SEGMENT
??_R0?AVUnsupportedError@@@8 DD FLAT:??_7type_info@@6B@	; UnsupportedError `RTTI Type Descriptor'
	DD	00H
	DB	'.?AVUnsupportedError@@', 00H
	ORG $-31
	DD	FLAT:??_7type_info@@6B@
	DD	00H
	DB	'.?AVUnsupportedError@@', 00H
_DATA	ENDS
;	COMDAT ??_R3UnsupportedError@@8
rdata$r	SEGMENT
??_R3UnsupportedError@@8 DD 00H				; UnsupportedError::`RTTI Class Hierarchy Descriptor'
	DD	00H
	DD	03H
	DD	FLAT:??_R2UnsupportedError@@8
rdata$r	ENDS
;	COMDAT ??_R2UnsupportedError@@8
rdata$r	SEGMENT
??_R2UnsupportedError@@8 DD FLAT:??_R1A@?0A@A@UnsupportedError@@8 ; UnsupportedError::`RTTI Base Class Array'
	DD	FLAT:??_R1A@?0A@A@Error@@8
	DD	FLAT:??_R1A@?0A@A@Throwable@@8
rdata$r	ENDS
;	COMDAT ??_R1A@?0A@A@UnsupportedError@@8
rdata$r	SEGMENT
??_R1A@?0A@A@UnsupportedError@@8 DD FLAT:??_R0?AVUnsupportedError@@@8 ; UnsupportedError::`RTTI Base Class Descriptor at (0,-1,0,0)'
	DD	02H
	DD	00H
	DD	0ffffffffH
	DD	00H
	DD	00H
; Function compile flags: /Ogsy
rdata$r	ENDS
;	COMDAT ??0UnsupportedError@@QAE@XZ
_TEXT	SEGMENT
??0UnsupportedError@@QAE@XZ PROC NEAR			; UnsupportedError::UnsupportedError, COMDAT
; _this$ = ecx

; 711  : 		UnsupportedError () throw () : Error () {}

  00000	56		 push	 esi
  00001	8b f1		 mov	 esi, ecx
  00003	e8 00 00 00 00	 call	 ??0Error@@QAE@XZ	; Error::Error
  00008	c7 06 00 00 00
	00		 mov	 DWORD PTR [esi], OFFSET FLAT:??_7UnsupportedError@@6B@
  0000e	8b c6		 mov	 eax, esi
  00010	5e		 pop	 esi
  00011	c3		 ret	 0
??0UnsupportedError@@QAE@XZ ENDP			; UnsupportedError::UnsupportedError
_TEXT	ENDS
PUBLIC	??_C@_0BB@EOCHEBED@UnsupportedError?$AA@	; `string'
;	COMDAT ??_C@_0BB@EOCHEBED@UnsupportedError?$AA@
; File c:\stlport-4.6.1\stlport\stl\_alloc.h
CONST	SEGMENT
??_C@_0BB@EOCHEBED@UnsupportedError?$AA@ DB 'UnsupportedError', 00H ; `string'
; Function compile flags: /Ogsy
; File c:\darkeden\designed_common\project\client\packet\exception.h
CONST	ENDS
;	COMDAT ?getName@UnsupportedError@@UBE?AV?$basic_string@DV?$char_traits@D@_STL@@V?$allocator@D@2@@_STL@@XZ
_TEXT	SEGMENT
___$ReturnUdt$ = 8					; size = 4
$T102530 = 11						; size = 1
?getName@UnsupportedError@@UBE?AV?$basic_string@DV?$char_traits@D@_STL@@V?$allocator@D@2@@_STL@@XZ PROC NEAR ; UnsupportedError::getName, COMDAT
; _this$ = ecx

; 713  : 		std::string getName () const throw () { return "UnsupportedError"; }

  00000	55		 push	 ebp
  00001	8b ec		 mov	 ebp, esp
  00003	8b 4d 08	 mov	 ecx, DWORD PTR ___$ReturnUdt$[ebp]
  00006	8d 45 0b	 lea	 eax, DWORD PTR $T102530[ebp]
  00009	50		 push	 eax
  0000a	68 00 00 00 00	 push	 OFFSET FLAT:??_C@_0BB@EOCHEBED@UnsupportedError?$AA@
  0000f	e8 00 00 00 00	 call	 ??0?$basic_string@DV?$char_traits@D@_STL@@V?$allocator@D@2@@_STL@@QAE@PBDABV?$allocator@D@1@@Z ; _STL::basic_string<char,_STL::char_traits<char>,_STL::allocator<char> >::basic_string<char,_STL::char_traits<char>,_STL::allocator<char> >
  00014	8b 45 08	 mov	 eax, DWORD PTR ___$ReturnUdt$[ebp]
  00017	5d		 pop	 ebp
  00018	c2 04 00	 ret	 4
?getName@UnsupportedError@@UBE?AV?$basic_string@DV?$char_traits@D@_STL@@V?$allocator@D@2@@_STL@@XZ ENDP ; UnsupportedError::getName
_TEXT	ENDS
PUBLIC	??0UnknownError@@QAE@ABV?$basic_string@DV?$char_traits@D@_STL@@V?$allocator@D@2@@_STL@@@Z ; UnknownError::UnknownError
PUBLIC	?getName@UnknownError@@UBE?AV?$basic_string@DV?$char_traits@D@_STL@@V?$allocator@D@2@@_STL@@XZ ; UnknownError::getName
PUBLIC	?toString@UnknownError@@UBE?AV?$basic_string@DV?$char_traits@D@_STL@@V?$allocator@D@2@@_STL@@XZ ; UnknownError::toString
PUBLIC	??_7UnknownError@@6B@				; UnknownError::`vftable'
PUBLIC	??_GUnknownError@@UAEPAXI@Z			; UnknownError::`scalar deleting destructor'
PUBLIC	??_R4UnknownError@@6B@				; UnknownError::`RTTI Complete Object Locator'
PUBLIC	??_R0?AVUnknownError@@@8			; UnknownError `RTTI Type Descriptor'
PUBLIC	??_R3UnknownError@@8				; UnknownError::`RTTI Class Hierarchy Descriptor'
PUBLIC	??_R2UnknownError@@8				; UnknownError::`RTTI Base Class Array'
PUBLIC	??_R1A@?0A@A@UnknownError@@8			; UnknownError::`RTTI Base Class Descriptor at (0,-1,0,0)'
EXTRN	??_EUnknownError@@UAEPAXI@Z:NEAR		; UnknownError::`vector deleting destructor'
;	COMDAT ??_7UnknownError@@6B@
CONST	SEGMENT
??_7UnknownError@@6B@ DD FLAT:??_R4UnknownError@@6B@	; UnknownError::`vftable'
	DD	FLAT:??_EUnknownError@@UAEPAXI@Z
	DD	FLAT:?getName@UnknownError@@UBE?AV?$basic_string@DV?$char_traits@D@_STL@@V?$allocator@D@2@@_STL@@XZ
	DD	FLAT:?toString@UnknownError@@UBE?AV?$basic_string@DV?$char_traits@D@_STL@@V?$allocator@D@2@@_STL@@XZ
CONST	ENDS
;	COMDAT ??_R4UnknownError@@6B@
rdata$r	SEGMENT
??_R4UnknownError@@6B@ DD 00H				; UnknownError::`RTTI Complete Object Locator'
	DD	00H
	DD	00H
	DD	FLAT:??_R0?AVUnknownError@@@8
	DD	FLAT:??_R3UnknownError@@8
rdata$r	ENDS
;	COMDAT ??_R0?AVUnknownError@@@8
_DATA	SEGMENT
??_R0?AVUnknownError@@@8 DD FLAT:??_7type_info@@6B@	; UnknownError `RTTI Type Descriptor'
	DD	00H
	DB	'.?AVUnknownError@@', 00H
	ORG $-27
	DD	FLAT:??_7type_info@@6B@
	DD	00H
	DB	'.?AVUnknownError@@', 00H
_DATA	ENDS
;	COMDAT ??_R3UnknownError@@8
rdata$r	SEGMENT
??_R3UnknownError@@8 DD 00H				; UnknownError::`RTTI Class Hierarchy Descriptor'
	DD	00H
	DD	03H
	DD	FLAT:??_R2UnknownError@@8
rdata$r	ENDS
;	COMDAT ??_R2UnknownError@@8
rdata$r	SEGMENT
??_R2UnknownError@@8 DD FLAT:??_R1A@?0A@A@UnknownError@@8 ; UnknownError::`RTTI Base Class Array'
	DD	FLAT:??_R1A@?0A@A@Error@@8
	DD	FLAT:??_R1A@?0A@A@Throwable@@8
rdata$r	ENDS
;	COMDAT ??_R1A@?0A@A@UnknownError@@8
rdata$r	SEGMENT
??_R1A@?0A@A@UnknownError@@8 DD FLAT:??_R0?AVUnknownError@@@8 ; UnknownError::`RTTI Base Class Descriptor at (0,-1,0,0)'
	DD	02H
	DD	00H
	DD	0ffffffffH
	DD	00H
	DD	00H
; Function compile flags: /Ogsy
rdata$r	ENDS
;	COMDAT ??0UnknownError@@QAE@ABV?$basic_string@DV?$char_traits@D@_STL@@V?$allocator@D@2@@_STL@@@Z
_TEXT	SEGMENT
_msg$ = 8						; size = 4
??0UnknownError@@QAE@ABV?$basic_string@DV?$char_traits@D@_STL@@V?$allocator@D@2@@_STL@@@Z PROC NEAR ; UnknownError::UnknownError, COMDAT
; _this$ = ecx

; 739  : 		UnknownError ( const std::string & msg ) throw () : Error(msg) {}

  00000	56		 push	 esi
  00001	ff 74 24 08	 push	 DWORD PTR _msg$[esp]
  00005	8b f1		 mov	 esi, ecx
  00007	e8 00 00 00 00	 call	 ??0Error@@QAE@ABV?$basic_string@DV?$char_traits@D@_STL@@V?$allocator@D@2@@_STL@@@Z ; Error::Error
  0000c	c7 06 00 00 00
	00		 mov	 DWORD PTR [esi], OFFSET FLAT:??_7UnknownError@@6B@
  00012	8b c6		 mov	 eax, esi
  00014	5e		 pop	 esi
  00015	c2 04 00	 ret	 4
??0UnknownError@@QAE@ABV?$basic_string@DV?$char_traits@D@_STL@@V?$allocator@D@2@@_STL@@@Z ENDP ; UnknownError::UnknownError
_TEXT	ENDS
PUBLIC	??_C@_0N@CEGDJBPM@UnknownError?$AA@		; `string'
;	COMDAT ??_C@_0N@CEGDJBPM@UnknownError?$AA@
; File c:\stlport-4.6.1\stlport\stl\_alloc.h
CONST	SEGMENT
??_C@_0N@CEGDJBPM@UnknownError?$AA@ DB 'UnknownError', 00H ; `string'
; Function compile flags: /Ogsy
; File c:\darkeden\designed_common\project\client\packet\exception.h
CONST	ENDS
;	COMDAT ?getName@UnknownError@@UBE?AV?$basic_string@DV?$char_traits@D@_STL@@V?$allocator@D@2@@_STL@@XZ
_TEXT	SEGMENT
___$ReturnUdt$ = 8					; size = 4
$T102542 = 11						; size = 1
?getName@UnknownError@@UBE?AV?$basic_string@DV?$char_traits@D@_STL@@V?$allocator@D@2@@_STL@@XZ PROC NEAR ; UnknownError::getName, COMDAT
; _this$ = ecx

; 741  : 		std::string getName () const throw () { return "UnknownError"; }

  00000	55		 push	 ebp
  00001	8b ec		 mov	 ebp, esp
  00003	8b 4d 08	 mov	 ecx, DWORD PTR ___$ReturnUdt$[ebp]
  00006	8d 45 0b	 lea	 eax, DWORD PTR $T102542[ebp]
  00009	50		 push	 eax
  0000a	68 00 00 00 00	 push	 OFFSET FLAT:??_C@_0N@CEGDJBPM@UnknownError?$AA@
  0000f	e8 00 00 00 00	 call	 ??0?$basic_string@DV?$char_traits@D@_STL@@V?$allocator@D@2@@_STL@@QAE@PBDABV?$allocator@D@1@@Z ; _STL::basic_string<char,_STL::char_traits<char>,_STL::allocator<char> >::basic_string<char,_STL::char_traits<char>,_STL::allocator<char> >
  00014	8b 45 08	 mov	 eax, DWORD PTR ___$ReturnUdt$[ebp]
  00017	5d		 pop	 ebp
  00018	c2 04 00	 ret	 4
?getName@UnknownError@@UBE?AV?$basic_string@DV?$char_traits@D@_STL@@V?$allocator@D@2@@_STL@@XZ ENDP ; UnknownError::getName
_TEXT	ENDS
PUBLIC	??_C@_03NNFDLMCH@?5?$CI?5?$AA@			; `string'
PUBLIC	??_C@_04OHIEGJDI@?5?$CJ?5?6?$AA@		; `string'
PUBLIC	?getMessage@Throwable@@QBE?AV?$basic_string@DV?$char_traits@D@_STL@@V?$allocator@D@2@@_STL@@XZ ; Throwable::getMessage
EXTRN	??6StringStream@@QAEAAV0@I@Z:NEAR		; StringStream::operator<<
;	COMDAT ??_C@_04OHIEGJDI@?5?$CJ?5?6?$AA@
CONST	SEGMENT
??_C@_04OHIEGJDI@?5?$CJ?5?6?$AA@ DB ' ) ', 0aH, 00H	; `string'
CONST	ENDS
;	COMDAT ??_C@_03NNFDLMCH@?5?$CI?5?$AA@
CONST	SEGMENT
??_C@_03NNFDLMCH@?5?$CI?5?$AA@ DB ' ( ', 00H		; `string'
; Function compile flags: /Ogsy
CONST	ENDS
;	COMDAT ?toString@UnknownError@@UBE?AV?$basic_string@DV?$char_traits@D@_STL@@V?$allocator@D@2@@_STL@@XZ
_TEXT	SEGMENT
_buf$ = -56						; size = 20
$T102553 = -36						; size = 12
$T102552 = -24						; size = 12
$T102551 = -12						; size = 12
___$ReturnUdt$ = 8					; size = 4
?toString@UnknownError@@UBE?AV?$basic_string@DV?$char_traits@D@_STL@@V?$allocator@D@2@@_STL@@XZ PROC NEAR ; UnknownError::toString, COMDAT
; _this$ = ecx

; 744  : 		{

  00000	55		 push	 ebp
  00001	8b ec		 mov	 ebp, esp
  00003	83 ec 38	 sub	 esp, 56			; 00000038H
  00006	56		 push	 esi
  00007	8b f1		 mov	 esi, ecx
  00009	57		 push	 edi

; 745  : 			StringStream buf;

  0000a	8d 4d c8	 lea	 ecx, DWORD PTR _buf$[ebp]
  0000d	e8 00 00 00 00	 call	 ??0StringStream@@QAE@XZ	; StringStream::StringStream

; 746  : 			buf << getName() << " : " << getMessage() << " ( " << getErrorCode() << " ) \n"
; 747  : 				<< getStackTrace () ;

  00012	8b 7e 14	 mov	 edi, DWORD PTR [esi+20]
  00015	8d 45 dc	 lea	 eax, DWORD PTR $T102553[ebp]
  00018	50		 push	 eax
  00019	8b ce		 mov	 ecx, esi
  0001b	e8 00 00 00 00	 call	 ?getStackTrace@Throwable@@QBE?AV?$basic_string@DV?$char_traits@D@_STL@@V?$allocator@D@2@@_STL@@XZ ; Throwable::getStackTrace
  00020	50		 push	 eax
  00021	68 00 00 00 00	 push	 OFFSET FLAT:??_C@_04OHIEGJDI@?5?$CJ?5?6?$AA@
  00026	57		 push	 edi
  00027	68 00 00 00 00	 push	 OFFSET FLAT:??_C@_03NNFDLMCH@?5?$CI?5?$AA@
  0002c	8d 45 e8	 lea	 eax, DWORD PTR $T102552[ebp]
  0002f	50		 push	 eax
  00030	8b ce		 mov	 ecx, esi
  00032	e8 00 00 00 00	 call	 ?getMessage@Throwable@@QBE?AV?$basic_string@DV?$char_traits@D@_STL@@V?$allocator@D@2@@_STL@@XZ ; Throwable::getMessage
  00037	50		 push	 eax
  00038	8b 06		 mov	 eax, DWORD PTR [esi]
  0003a	68 00 00 00 00	 push	 OFFSET FLAT:??_C@_03MCPBMLDJ@?5?3?5?$AA@
  0003f	8d 4d f4	 lea	 ecx, DWORD PTR $T102551[ebp]
  00042	51		 push	 ecx
  00043	8b ce		 mov	 ecx, esi
  00045	ff 50 04	 call	 DWORD PTR [eax+4]
  00048	50		 push	 eax
  00049	8d 4d c8	 lea	 ecx, DWORD PTR _buf$[ebp]
  0004c	e8 00 00 00 00	 call	 ??6StringStream@@QAEAAV0@ABV?$basic_string@DV?$char_traits@D@_STL@@V?$allocator@D@2@@_STL@@@Z ; StringStream::operator<<
  00051	8b c8		 mov	 ecx, eax
  00053	e8 00 00 00 00	 call	 ??6StringStream@@QAEAAV0@PBD@Z ; StringStream::operator<<
  00058	8b c8		 mov	 ecx, eax
  0005a	e8 00 00 00 00	 call	 ??6StringStream@@QAEAAV0@ABV?$basic_string@DV?$char_traits@D@_STL@@V?$allocator@D@2@@_STL@@@Z ; StringStream::operator<<
  0005f	8b c8		 mov	 ecx, eax
  00061	e8 00 00 00 00	 call	 ??6StringStream@@QAEAAV0@PBD@Z ; StringStream::operator<<
  00066	8b c8		 mov	 ecx, eax
  00068	e8 00 00 00 00	 call	 ??6StringStream@@QAEAAV0@I@Z ; StringStream::operator<<
  0006d	8b c8		 mov	 ecx, eax
  0006f	e8 00 00 00 00	 call	 ??6StringStream@@QAEAAV0@PBD@Z ; StringStream::operator<<
  00074	8b c8		 mov	 ecx, eax
  00076	e8 00 00 00 00	 call	 ??6StringStream@@QAEAAV0@ABV?$basic_string@DV?$char_traits@D@_STL@@V?$allocator@D@2@@_STL@@@Z ; StringStream::operator<<
  0007b	8d 4d f4	 lea	 ecx, DWORD PTR $T102551[ebp]
  0007e	e8 00 00 00 00	 call	 ??1?$basic_string@DV?$char_traits@D@_STL@@V?$allocator@D@2@@_STL@@QAE@XZ ; _STL::basic_string<char,_STL::char_traits<char>,_STL::allocator<char> >::~basic_string<char,_STL::char_traits<char>,_STL::allocator<char> >
  00083	8d 4d e8	 lea	 ecx, DWORD PTR $T102552[ebp]
  00086	e8 00 00 00 00	 call	 ??1?$basic_string@DV?$char_traits@D@_STL@@V?$allocator@D@2@@_STL@@QAE@XZ ; _STL::basic_string<char,_STL::char_traits<char>,_STL::allocator<char> >::~basic_string<char,_STL::char_traits<char>,_STL::allocator<char> >
  0008b	8d 4d dc	 lea	 ecx, DWORD PTR $T102553[ebp]
  0008e	e8 00 00 00 00	 call	 ??1?$basic_string@DV?$char_traits@D@_STL@@V?$allocator@D@2@@_STL@@QAE@XZ ; _STL::basic_string<char,_STL::char_traits<char>,_STL::allocator<char> >::~basic_string<char,_STL::char_traits<char>,_STL::allocator<char> >

; 748  : 			
; 749  : 			return buf.toString();

  00093	ff 75 08	 push	 DWORD PTR ___$ReturnUdt$[ebp]
  00096	8d 4d c8	 lea	 ecx, DWORD PTR _buf$[ebp]
  00099	e8 00 00 00 00	 call	 ?toString@StringStream@@QBE?AV?$basic_string@DV?$char_traits@D@_STL@@V?$allocator@D@2@@_STL@@XZ ; StringStream::toString
  0009e	8d 4d c8	 lea	 ecx, DWORD PTR _buf$[ebp]
  000a1	e8 00 00 00 00	 call	 ??1StringStream@@QAE@XZ	; StringStream::~StringStream
  000a6	8b 45 08	 mov	 eax, DWORD PTR ___$ReturnUdt$[ebp]
  000a9	5f		 pop	 edi
  000aa	5e		 pop	 esi

; 750  : 		}

  000ab	c9		 leave
  000ac	c2 04 00	 ret	 4
?toString@UnknownError@@UBE?AV?$basic_string@DV?$char_traits@D@_STL@@V?$allocator@D@2@@_STL@@XZ ENDP ; UnknownError::toString
; Function compile flags: /Ogsy
_TEXT	ENDS
;	COMDAT ?getMessage@Throwable@@QBE?AV?$basic_string@DV?$char_traits@D@_STL@@V?$allocator@D@2@@_STL@@XZ
_TEXT	SEGMENT
___$ReturnUdt$ = 8					; size = 4
?getMessage@Throwable@@QBE?AV?$basic_string@DV?$char_traits@D@_STL@@V?$allocator@D@2@@_STL@@XZ PROC NEAR ; Throwable::getMessage, COMDAT
; _this$ = ecx

; 72   : 	std::string getMessage () const throw () { return m_Message; }

  00000	83 c1 04	 add	 ecx, 4
  00003	51		 push	 ecx
  00004	8b 4c 24 08	 mov	 ecx, DWORD PTR ___$ReturnUdt$[esp]
  00008	e8 00 00 00 00	 call	 ??0?$basic_string@DV?$char_traits@D@_STL@@V?$allocator@D@2@@_STL@@QAE@ABV01@@Z ; _STL::basic_string<char,_STL::char_traits<char>,_STL::allocator<char> >::basic_string<char,_STL::char_traits<char>,_STL::allocator<char> >
  0000d	8b 44 24 04	 mov	 eax, DWORD PTR ___$ReturnUdt$[esp-4]
  00011	c2 04 00	 ret	 4
?getMessage@Throwable@@QBE?AV?$basic_string@DV?$char_traits@D@_STL@@V?$allocator@D@2@@_STL@@XZ ENDP ; Throwable::getMessage
_TEXT	ENDS
PUBLIC	?socket_ex@SocketAPI@@YAIHHH@Z			; SocketAPI::socket_ex
PUBLIC	??0Error@@QAE@ABV0@@Z				; Error::Error
PUBLIC	__TI2?AVError@@
PUBLIC	__CTA2?AVError@@
PUBLIC	__CT??_R0?AVError@@@8??0Error@@QAE@ABV0@@Z20
PUBLIC	__CT??_R0?AVThrowable@@@8??0Throwable@@QAE@ABV0@@Z20
PUBLIC	??_C@_0DP@GBHCAAKN@A?5successful?5WSAStartup?5must?5occ@ ; `string'
PUBLIC	??_C@_0EF@CKIMHLLF@The?5network?5subsystem?5or?5the?5ass@ ; `string'
PUBLIC	??_C@_0CP@CMMCJPID@The?5specified?5address?5family?5is?5@ ; `string'
PUBLIC	??_C@_0HF@MHMDKDMH@A?5blocking?5Windows?5Sockets?51?41?5c@ ; `string'
PUBLIC	??_C@_0CK@CCIODIMH@No?5more?5socket?5descriptors?5are?5a@ ; `string'
PUBLIC	??_C@_0DM@PDGFCCEO@No?5buffer?5space?5is?5available?4?5Th@ ; `string'
PUBLIC	??_C@_0CJ@GPPCBGGF@The?5specified?5protocol?5is?5not?5su@ ; `string'
PUBLIC	??_C@_0DK@JOBMIHGA@The?5specified?5protocol?5is?5the?5wr@ ; `string'
PUBLIC	??_C@_0ED@CJEADFCG@The?5specified?5socket?5type?5is?5not@ ; `string'
PUBLIC	__TI3?AVUnknownError@@
PUBLIC	__CTA3?AVUnknownError@@
PUBLIC	__CT??_R0?AVUnknownError@@@8??0UnknownError@@QAE@ABV0@@Z24
PUBLIC	??_C@_08MGOJEIPC@socket?$CI?$CJ?$AA@		; `string'
PUBLIC	??1UnknownError@@UAE@XZ				; UnknownError::~UnknownError
PUBLIC	??0UnknownError@@QAE@ABV0@@Z			; UnknownError::UnknownError
PUBLIC	??0Throwable@@QAE@ABV0@@Z			; Throwable::Throwable
EXTRN	_socket@12:NEAR
EXTRN	_WSAGetLastError@0:NEAR
;	COMDAT xdata$x
; File c:\stlport-4.6.1\stlport\stl\_alloc.h
xdata$x	SEGMENT
$T103042 DD	0ffffffffH
	DD	FLAT:$L102594
	DD	0ffffffffH
	DD	FLAT:$L102595
	DD	0ffffffffH
	DD	FLAT:$L102596
	DD	0ffffffffH
	DD	FLAT:$L102597
	DD	0ffffffffH
	DD	FLAT:$L102598
	DD	0ffffffffH
	DD	FLAT:$L102599
	DD	0ffffffffH
	DD	FLAT:$L102600
	DD	0ffffffffH
	DD	FLAT:$L102601
	DD	0ffffffffH
	DD	FLAT:$L102602
	DD	0ffffffffH
	DD	FLAT:$L102603
$T103038 DD	019930520H
	DD	0aH
	DD	FLAT:$T103042
	DD	2 DUP(00H)
	DD	2 DUP(00H)
xdata$x	ENDS
;	COMDAT ??_C@_0CJ@GPPCBGGF@The?5specified?5protocol?5is?5not?5su@
CONST	SEGMENT
??_C@_0CJ@GPPCBGGF@The?5specified?5protocol?5is?5not?5su@ DB 'The specifi'
	DB	'ed protocol is not supported.', 00H		; `string'
CONST	ENDS
;	COMDAT __TI2?AVError@@
xdata$x	SEGMENT
__TI2?AVError@@ DD 00H
	DD	FLAT:??1Error@@UAE@XZ
	DD	00H
	DD	FLAT:__CTA2?AVError@@
xdata$x	ENDS
;	COMDAT ??_C@_0DK@JOBMIHGA@The?5specified?5protocol?5is?5the?5wr@
CONST	SEGMENT
??_C@_0DK@JOBMIHGA@The?5specified?5protocol?5is?5the?5wr@ DB 'The specifi'
	DB	'ed protocol is the wrong type for this socket.', 00H ; `string'
CONST	ENDS
;	COMDAT ??_C@_0HF@MHMDKDMH@A?5blocking?5Windows?5Sockets?51?41?5c@
CONST	SEGMENT
??_C@_0HF@MHMDKDMH@A?5blocking?5Windows?5Sockets?51?41?5c@ DB 'A blocking'
	DB	' Windows Sockets 1.1 call is in progress, or the service prov'
	DB	'ider is still processing a callback function.', 00H ; `string'
CONST	ENDS
;	COMDAT ??_C@_0CK@CCIODIMH@No?5more?5socket?5descriptors?5are?5a@
CONST	SEGMENT
??_C@_0CK@CCIODIMH@No?5more?5socket?5descriptors?5are?5a@ DB 'No more soc'
	DB	'ket descriptors are available.', 00H	; `string'
CONST	ENDS
;	COMDAT ??_C@_0ED@CJEADFCG@The?5specified?5socket?5type?5is?5not@
CONST	SEGMENT
??_C@_0ED@CJEADFCG@The?5specified?5socket?5type?5is?5not@ DB 'The specifi'
	DB	'ed socket type is not supported in this address family.', 00H ; `string'
CONST	ENDS
;	COMDAT ??_C@_08MGOJEIPC@socket?$CI?$CJ?$AA@
CONST	SEGMENT
??_C@_08MGOJEIPC@socket?$CI?$CJ?$AA@ DB 'socket()', 00H	; `string'
CONST	ENDS
;	COMDAT __TI3?AVUnknownError@@
xdata$x	SEGMENT
__TI3?AVUnknownError@@ DD 00H
	DD	FLAT:??1UnknownError@@UAE@XZ
	DD	00H
	DD	FLAT:__CTA3?AVUnknownError@@
xdata$x	ENDS
;	COMDAT ??_C@_0DP@GBHCAAKN@A?5successful?5WSAStartup?5must?5occ@
CONST	SEGMENT
??_C@_0DP@GBHCAAKN@A?5successful?5WSAStartup?5must?5occ@ DB 'A successful'
	DB	' WSAStartup must occur before using this function.', 00H ; `string'
CONST	ENDS
;	COMDAT ??_C@_0DM@PDGFCCEO@No?5buffer?5space?5is?5available?4?5Th@
CONST	SEGMENT
??_C@_0DM@PDGFCCEO@No?5buffer?5space?5is?5available?4?5Th@ DB 'No buffer '
	DB	'space is available. The socket cannot be created.', 00H ; `string'
CONST	ENDS
;	COMDAT ??_C@_0EF@CKIMHLLF@The?5network?5subsystem?5or?5the?5ass@
CONST	SEGMENT
??_C@_0EF@CKIMHLLF@The?5network?5subsystem?5or?5the?5ass@ DB 'The network'
	DB	' subsystem or the associated service provider has failed.', 00H ; `string'
CONST	ENDS
;	COMDAT ??_C@_0CP@CMMCJPID@The?5specified?5address?5family?5is?5@
CONST	SEGMENT
??_C@_0CP@CMMCJPID@The?5specified?5address?5family?5is?5@ DB 'The specifi'
	DB	'ed address family is not supported.', 00H	; `string'
CONST	ENDS
;	COMDAT __CTA2?AVError@@
xdata$x	SEGMENT
__CTA2?AVError@@ DD 02H
	DD	FLAT:__CT??_R0?AVError@@@8??0Error@@QAE@ABV0@@Z20
	DD	FLAT:__CT??_R0?AVThrowable@@@8??0Throwable@@QAE@ABV0@@Z20
xdata$x	ENDS
;	COMDAT __CT??_R0?AVError@@@8??0Error@@QAE@ABV0@@Z20
xdata$x	SEGMENT
__CT??_R0?AVError@@@8??0Error@@QAE@ABV0@@Z20 DD 00H
	DD	FLAT:??_R0?AVError@@@8
	DD	00H
	DD	0ffffffffH
	ORG $+4
	DD	014H
	DD	FLAT:??0Error@@QAE@ABV0@@Z
xdata$x	ENDS
;	COMDAT __CT??_R0?AVThrowable@@@8??0Throwable@@QAE@ABV0@@Z20
xdata$x	SEGMENT
__CT??_R0?AVThrowable@@@8??0Throwable@@QAE@ABV0@@Z20 DD 00H
	DD	FLAT:??_R0?AVThrowable@@@8
	DD	00H
	DD	0ffffffffH
	ORG $+4
	DD	014H
	DD	FLAT:??0Throwable@@QAE@ABV0@@Z
xdata$x	ENDS
;	COMDAT __CTA3?AVUnknownError@@
xdata$x	SEGMENT
__CTA3?AVUnknownError@@ DD 03H
	DD	FLAT:__CT??_R0?AVUnknownError@@@8??0UnknownError@@QAE@ABV0@@Z24
	DD	FLAT:__CT??_R0?AVError@@@8??0Error@@QAE@ABV0@@Z20
	DD	FLAT:__CT??_R0?AVThrowable@@@8??0Throwable@@QAE@ABV0@@Z20
xdata$x	ENDS
;	COMDAT __CT??_R0?AVUnknownError@@@8??0UnknownError@@QAE@ABV0@@Z24
xdata$x	SEGMENT
__CT??_R0?AVUnknownError@@@8??0UnknownError@@QAE@ABV0@@Z24 DD 00H
	DD	FLAT:??_R0?AVUnknownError@@@8
	DD	00H
	DD	0ffffffffH
	ORG $+4
	DD	018H
	DD	FLAT:??0UnknownError@@QAE@ABV0@@Z
; Function compile flags: /Ogsy
; File c:\darkeden\designed_common\project\client\packet\socketapi.cpp
xdata$x	ENDS
;	COMDAT ?socket_ex@SocketAPI@@YAIHHH@Z
_TEXT	SEGMENT
$T102584 = -340						; size = 20
$T102587 = -320						; size = 20
$T102569 = -300						; size = 20
$T102572 = -280						; size = 20
$T102566 = -260						; size = 20
$T102575 = -240						; size = 20
$T102578 = -220						; size = 20
$T102563 = -200						; size = 20
$T102581 = -180						; size = 20
$T102590 = -160						; size = 24
$T102585 = -136						; size = 12
$T102582 = -124						; size = 12
$T102576 = -112						; size = 12
$T102567 = -100						; size = 12
$T102588 = -88						; size = 12
$T102579 = -76						; size = 12
$T102573 = -64						; size = 12
$T102564 = -52						; size = 12
$T102591 = -40						; size = 12
$T102570 = -28						; size = 12
$T102592 = -13						; size = 1
$T102589 = -13						; size = 1
$T102586 = -13						; size = 1
$T102583 = -13						; size = 1
$T102580 = -13						; size = 1
$T102577 = -13						; size = 1
$T102574 = -13						; size = 1
$T102571 = -13						; size = 1
$T102568 = -13						; size = 1
$T102565 = -13						; size = 1
__$EHRec$ = -12						; size = 12
_domain$ = 8						; size = 4
_type$ = 12						; size = 4
_protocol$ = 16						; size = 4
?socket_ex@SocketAPI@@YAIHHH@Z PROC NEAR		; SocketAPI::socket_ex, COMDAT

; 58   : {

  00000	b8 00 00 00 00	 mov	 eax, __ehhandler$?socket_ex@SocketAPI@@YAIHHH@Z
  00005	e8 00 00 00 00	 call	 __EH_prolog
  0000a	81 ec 48 01 00
	00		 sub	 esp, 328		; 00000148H

; 59   : 	__BEGIN_TRY
; 60   : 
; 61   : 	SOCKET s = ::socket(domain,type,protocol);

  00010	ff 75 10	 push	 DWORD PTR _protocol$[ebp]
  00013	ff 75 0c	 push	 DWORD PTR _type$[ebp]
  00016	ff 75 08	 push	 DWORD PTR _domain$[ebp]
  00019	e8 00 00 00 00	 call	 _socket@12

; 62   : 
; 63   : 	if ( s == INVALID_SOCKET ) {

  0001e	83 f8 ff	 cmp	 eax, -1
  00021	0f 85 85 02 00
	00		 jne	 $L99511

; 64   : #if __LINUX__
; 65   : 		switch ( errno ) {
; 66   : 		case EPROTONOSUPPORT :
; 67   : 			throw Error("The protocol type or the specified protocol is not supported within this domain.");
; 68   : 		case EMFILE : 
; 69   : 			throw Error("The per-process descriptor table is full.");
; 70   : 		case ENFILE : 
; 71   : 			throw Error("The system file table is full.");
; 72   : 		case EACCES : 
; 73   : 			throw Error("Permission to create a socket of the specified type and/or protocol is denied.");
; 74   : 		case ENOBUFS : 
; 75   : 			throw Error("Insufficient buffer space is available. The socket cannot be created until sufficient resources are freed.");
; 76   : 		default : 
; 77   : 			throw UnknownError(strerror(errno),errno);
; 78   : 		}//end of switch
; 79   : #elif __WINDOWS__
; 80   : 		switch ( WSAGetLastError() ) {

  00027	e8 00 00 00 00	 call	 _WSAGetLastError@0
  0002c	b9 3c 27 00 00	 mov	 ecx, 10044		; 0000273cH
  00031	3b c1		 cmp	 eax, ecx
  00033	0f 8f 40 01 00
	00		 jg	 $L102593
  00039	0f 84 03 01 00
	00		 je	 $L102946
  0003f	2d 28 27 00 00	 sub	 eax, 10024		; 00002728H
  00044	0f 84 c1 00 00
	00		 je	 $L102774
  0004a	83 e8 0c	 sub	 eax, 12			; 0000000cH
  0004d	0f 84 81 00 00
	00		 je	 $L102731
  00053	83 e8 05	 sub	 eax, 5
  00056	74 3f		 je	 SHORT $L102903
  00058	48		 dec	 eax
  00059	48		 dec	 eax
  0005a	0f 85 37 01 00
	00		 jne	 $L102989

; 93   : 		case WSAEPROTONOSUPPORT : 
; 94   : 			throw Error("The specified protocol is not supported.");

  00060	8d 45 f3	 lea	 eax, DWORD PTR $T102583[ebp]
  00063	50		 push	 eax
  00064	68 00 00 00 00	 push	 OFFSET FLAT:??_C@_0CJ@GPPCBGGF@The?5specified?5protocol?5is?5not?5su@
  00069	8d 4d 84	 lea	 ecx, DWORD PTR $T102582[ebp]
  0006c	e8 00 00 00 00	 call	 ??0?$basic_string@DV?$char_traits@D@_STL@@V?$allocator@D@2@@_STL@@QAE@PBDABV?$allocator@D@1@@Z ; _STL::basic_string<char,_STL::char_traits<char>,_STL::allocator<char> >::basic_string<char,_STL::char_traits<char>,_STL::allocator<char> >
  00071	8d 45 84	 lea	 eax, DWORD PTR $T102582[ebp]
  00074	50		 push	 eax
  00075	8d 8d 4c ff ff
	ff		 lea	 ecx, DWORD PTR $T102581[ebp]
  0007b	c7 45 fc 06 00
	00 00		 mov	 DWORD PTR __$EHRec$[ebp+8], 6
  00082	e8 00 00 00 00	 call	 ??0Error@@QAE@ABV?$basic_string@DV?$char_traits@D@_STL@@V?$allocator@D@2@@_STL@@@Z ; Error::Error
  00087	68 00 00 00 00	 push	 OFFSET FLAT:__TI2?AVError@@
  0008c	8d 85 4c ff ff
	ff		 lea	 eax, DWORD PTR $T102581[ebp]
  00092	e9 0f 02 00 00	 jmp	 $L103041
$L102903:

; 95   : 		case WSAEPROTOTYPE : 
; 96   : 			throw Error("The specified protocol is the wrong type for this socket.");

  00097	8d 45 f3	 lea	 eax, DWORD PTR $T102586[ebp]
  0009a	50		 push	 eax
  0009b	68 00 00 00 00	 push	 OFFSET FLAT:??_C@_0DK@JOBMIHGA@The?5specified?5protocol?5is?5the?5wr@
  000a0	8d 8d 78 ff ff
	ff		 lea	 ecx, DWORD PTR $T102585[ebp]
  000a6	e8 00 00 00 00	 call	 ??0?$basic_string@DV?$char_traits@D@_STL@@V?$allocator@D@2@@_STL@@QAE@PBDABV?$allocator@D@1@@Z ; _STL::basic_string<char,_STL::char_traits<char>,_STL::allocator<char> >::basic_string<char,_STL::char_traits<char>,_STL::allocator<char> >
  000ab	8d 85 78 ff ff
	ff		 lea	 eax, DWORD PTR $T102585[ebp]
  000b1	50		 push	 eax
  000b2	8d 8d ac fe ff
	ff		 lea	 ecx, DWORD PTR $T102584[ebp]
  000b8	c7 45 fc 07 00
	00 00		 mov	 DWORD PTR __$EHRec$[ebp+8], 7
  000bf	e8 00 00 00 00	 call	 ??0Error@@QAE@ABV?$basic_string@DV?$char_traits@D@_STL@@V?$allocator@D@2@@_STL@@@Z ; Error::Error
  000c4	68 00 00 00 00	 push	 OFFSET FLAT:__TI2?AVError@@
  000c9	8d 85 ac fe ff
	ff		 lea	 eax, DWORD PTR $T102584[ebp]
  000cf	e9 d2 01 00 00	 jmp	 $L103041

; 85   : 		case WSAEAFNOSUPPORT : 
; 86   : 			throw Error("The specified address family is not supported.");

$L102731:

; 87   : 		case WSAEINPROGRESS : 
; 88   : 			throw Error("A blocking Windows Sockets 1.1 call is in progress, or the service provider is still processing a callback function.");

  000d4	8d 45 f3	 lea	 eax, DWORD PTR $T102574[ebp]
  000d7	50		 push	 eax
  000d8	68 00 00 00 00	 push	 OFFSET FLAT:??_C@_0HF@MHMDKDMH@A?5blocking?5Windows?5Sockets?51?41?5c@
  000dd	8d 4d c0	 lea	 ecx, DWORD PTR $T102573[ebp]
  000e0	e8 00 00 00 00	 call	 ??0?$basic_string@DV?$char_traits@D@_STL@@V?$allocator@D@2@@_STL@@QAE@PBDABV?$allocator@D@1@@Z ; _STL::basic_string<char,_STL::char_traits<char>,_STL::allocator<char> >::basic_string<char,_STL::char_traits<char>,_STL::allocator<char> >
  000e5	8d 45 c0	 lea	 eax, DWORD PTR $T102573[ebp]
  000e8	50		 push	 eax
  000e9	8d 8d e8 fe ff
	ff		 lea	 ecx, DWORD PTR $T102572[ebp]
  000ef	c7 45 fc 03 00
	00 00		 mov	 DWORD PTR __$EHRec$[ebp+8], 3
  000f6	e8 00 00 00 00	 call	 ??0Error@@QAE@ABV?$basic_string@DV?$char_traits@D@_STL@@V?$allocator@D@2@@_STL@@@Z ; Error::Error
  000fb	68 00 00 00 00	 push	 OFFSET FLAT:__TI2?AVError@@
  00100	8d 85 e8 fe ff
	ff		 lea	 eax, DWORD PTR $T102572[ebp]
  00106	e9 9b 01 00 00	 jmp	 $L103041
$L102774:

; 89   : 		case WSAEMFILE : 
; 90   : 			throw Error("No more socket descriptors are available.");

  0010b	8d 45 f3	 lea	 eax, DWORD PTR $T102577[ebp]
  0010e	50		 push	 eax
  0010f	68 00 00 00 00	 push	 OFFSET FLAT:??_C@_0CK@CCIODIMH@No?5more?5socket?5descriptors?5are?5a@
  00114	8d 4d 90	 lea	 ecx, DWORD PTR $T102576[ebp]
  00117	e8 00 00 00 00	 call	 ??0?$basic_string@DV?$char_traits@D@_STL@@V?$allocator@D@2@@_STL@@QAE@PBDABV?$allocator@D@1@@Z ; _STL::basic_string<char,_STL::char_traits<char>,_STL::allocator<char> >::basic_string<char,_STL::char_traits<char>,_STL::allocator<char> >
  0011c	8d 45 90	 lea	 eax, DWORD PTR $T102576[ebp]
  0011f	50		 push	 eax
  00120	8d 8d 10 ff ff
	ff		 lea	 ecx, DWORD PTR $T102575[ebp]
  00126	c7 45 fc 04 00
	00 00		 mov	 DWORD PTR __$EHRec$[ebp+8], 4
  0012d	e8 00 00 00 00	 call	 ??0Error@@QAE@ABV?$basic_string@DV?$char_traits@D@_STL@@V?$allocator@D@2@@_STL@@@Z ; Error::Error
  00132	68 00 00 00 00	 push	 OFFSET FLAT:__TI2?AVError@@
  00137	8d 85 10 ff ff
	ff		 lea	 eax, DWORD PTR $T102575[ebp]
  0013d	e9 64 01 00 00	 jmp	 $L103041

; 95   : 		case WSAEPROTOTYPE : 
; 96   : 			throw Error("The specified protocol is the wrong type for this socket.");

$L102946:

; 97   : 		case WSAESOCKTNOSUPPORT : 
; 98   : 			throw Error("The specified socket type is not supported in this address family.");

  00142	8d 45 f3	 lea	 eax, DWORD PTR $T102589[ebp]
  00145	50		 push	 eax
  00146	68 00 00 00 00	 push	 OFFSET FLAT:??_C@_0ED@CJEADFCG@The?5specified?5socket?5type?5is?5not@
  0014b	8d 4d a8	 lea	 ecx, DWORD PTR $T102588[ebp]
  0014e	e8 00 00 00 00	 call	 ??0?$basic_string@DV?$char_traits@D@_STL@@V?$allocator@D@2@@_STL@@QAE@PBDABV?$allocator@D@1@@Z ; _STL::basic_string<char,_STL::char_traits<char>,_STL::allocator<char> >::basic_string<char,_STL::char_traits<char>,_STL::allocator<char> >
  00153	8d 45 a8	 lea	 eax, DWORD PTR $T102588[ebp]
  00156	50		 push	 eax
  00157	8d 8d c0 fe ff
	ff		 lea	 ecx, DWORD PTR $T102587[ebp]
  0015d	c7 45 fc 08 00
	00 00		 mov	 DWORD PTR __$EHRec$[ebp+8], 8
  00164	e8 00 00 00 00	 call	 ??0Error@@QAE@ABV?$basic_string@DV?$char_traits@D@_STL@@V?$allocator@D@2@@_STL@@@Z ; Error::Error
  00169	68 00 00 00 00	 push	 OFFSET FLAT:__TI2?AVError@@
  0016e	8d 85 c0 fe ff
	ff		 lea	 eax, DWORD PTR $T102587[ebp]
  00174	e9 2d 01 00 00	 jmp	 $L103041
$L102593:

; 64   : #if __LINUX__
; 65   : 		switch ( errno ) {
; 66   : 		case EPROTONOSUPPORT :
; 67   : 			throw Error("The protocol type or the specified protocol is not supported within this domain.");
; 68   : 		case EMFILE : 
; 69   : 			throw Error("The per-process descriptor table is full.");
; 70   : 		case ENFILE : 
; 71   : 			throw Error("The system file table is full.");
; 72   : 		case EACCES : 
; 73   : 			throw Error("Permission to create a socket of the specified type and/or protocol is denied.");
; 74   : 		case ENOBUFS : 
; 75   : 			throw Error("Insufficient buffer space is available. The socket cannot be created until sufficient resources are freed.");
; 76   : 		default : 
; 77   : 			throw UnknownError(strerror(errno),errno);
; 78   : 		}//end of switch
; 79   : #elif __WINDOWS__
; 80   : 		switch ( WSAGetLastError() ) {

  00179	2d 3f 27 00 00	 sub	 eax, 10047		; 0000273fH
  0017e	0f 84 f0 00 00
	00		 je	 $L102688
  00184	83 e8 03	 sub	 eax, 3
  00187	0f 84 b3 00 00
	00		 je	 $L102645
  0018d	83 e8 05	 sub	 eax, 5
  00190	74 7a		 je	 SHORT $L102817
  00192	83 e8 26	 sub	 eax, 38			; 00000026H
  00195	74 41		 je	 SHORT $L99520

; 97   : 		case WSAESOCKTNOSUPPORT : 
; 98   : 			throw Error("The specified socket type is not supported in this address family.");

$L102989:

; 99   : 		default : 
; 100  : 			throw UnknownError("socket()");

  00197	8d 45 f3	 lea	 eax, DWORD PTR $T102592[ebp]
  0019a	50		 push	 eax
  0019b	68 00 00 00 00	 push	 OFFSET FLAT:??_C@_08MGOJEIPC@socket?$CI?$CJ?$AA@
  001a0	8d 4d d8	 lea	 ecx, DWORD PTR $T102591[ebp]
  001a3	e8 00 00 00 00	 call	 ??0?$basic_string@DV?$char_traits@D@_STL@@V?$allocator@D@2@@_STL@@QAE@PBDABV?$allocator@D@1@@Z ; _STL::basic_string<char,_STL::char_traits<char>,_STL::allocator<char> >::basic_string<char,_STL::char_traits<char>,_STL::allocator<char> >
  001a8	8d 45 d8	 lea	 eax, DWORD PTR $T102591[ebp]
  001ab	50		 push	 eax
  001ac	8d 8d 60 ff ff
	ff		 lea	 ecx, DWORD PTR $T102590[ebp]
  001b2	c7 45 fc 09 00
	00 00		 mov	 DWORD PTR __$EHRec$[ebp+8], 9
  001b9	e8 00 00 00 00	 call	 ??0Error@@QAE@ABV?$basic_string@DV?$char_traits@D@_STL@@V?$allocator@D@2@@_STL@@@Z ; Error::Error
  001be	c7 85 60 ff ff
	ff 00 00 00 00	 mov	 DWORD PTR $T102590[ebp], OFFSET FLAT:??_7UnknownError@@6B@
  001c8	68 00 00 00 00	 push	 OFFSET FLAT:__TI3?AVUnknownError@@
  001cd	8d 85 60 ff ff
	ff		 lea	 eax, DWORD PTR $T102590[ebp]
  001d3	e9 ce 00 00 00	 jmp	 $L103041
$L99520:

; 81   : 		case WSANOTINITIALISED : 
; 82   : 			throw Error("A successful WSAStartup must occur before using this function.");

  001d8	8d 45 f3	 lea	 eax, DWORD PTR $T102565[ebp]
  001db	50		 push	 eax
  001dc	68 00 00 00 00	 push	 OFFSET FLAT:??_C@_0DP@GBHCAAKN@A?5successful?5WSAStartup?5must?5occ@
  001e1	8d 4d cc	 lea	 ecx, DWORD PTR $T102564[ebp]
  001e4	e8 00 00 00 00	 call	 ??0?$basic_string@DV?$char_traits@D@_STL@@V?$allocator@D@2@@_STL@@QAE@PBDABV?$allocator@D@1@@Z ; _STL::basic_string<char,_STL::char_traits<char>,_STL::allocator<char> >::basic_string<char,_STL::char_traits<char>,_STL::allocator<char> >
  001e9	83 65 fc 00	 and	 DWORD PTR __$EHRec$[ebp+8], 0
  001ed	8d 45 cc	 lea	 eax, DWORD PTR $T102564[ebp]
  001f0	50		 push	 eax
  001f1	8d 8d 38 ff ff
	ff		 lea	 ecx, DWORD PTR $T102563[ebp]
  001f7	e8 00 00 00 00	 call	 ??0Error@@QAE@ABV?$basic_string@DV?$char_traits@D@_STL@@V?$allocator@D@2@@_STL@@@Z ; Error::Error
  001fc	68 00 00 00 00	 push	 OFFSET FLAT:__TI2?AVError@@
  00201	8d 85 38 ff ff
	ff		 lea	 eax, DWORD PTR $T102563[ebp]
  00207	e9 9a 00 00 00	 jmp	 $L103041

; 89   : 		case WSAEMFILE : 
; 90   : 			throw Error("No more socket descriptors are available.");

$L102817:

; 91   : 		case WSAENOBUFS : 
; 92   : 			throw Error("No buffer space is available. The socket cannot be created.");

  0020c	8d 45 f3	 lea	 eax, DWORD PTR $T102580[ebp]
  0020f	50		 push	 eax
  00210	68 00 00 00 00	 push	 OFFSET FLAT:??_C@_0DM@PDGFCCEO@No?5buffer?5space?5is?5available?4?5Th@
  00215	8d 4d b4	 lea	 ecx, DWORD PTR $T102579[ebp]
  00218	e8 00 00 00 00	 call	 ??0?$basic_string@DV?$char_traits@D@_STL@@V?$allocator@D@2@@_STL@@QAE@PBDABV?$allocator@D@1@@Z ; _STL::basic_string<char,_STL::char_traits<char>,_STL::allocator<char> >::basic_string<char,_STL::char_traits<char>,_STL::allocator<char> >
  0021d	8d 45 b4	 lea	 eax, DWORD PTR $T102579[ebp]
  00220	50		 push	 eax
  00221	8d 8d 24 ff ff
	ff		 lea	 ecx, DWORD PTR $T102578[ebp]
  00227	c7 45 fc 05 00
	00 00		 mov	 DWORD PTR __$EHRec$[ebp+8], 5
  0022e	e8 00 00 00 00	 call	 ??0Error@@QAE@ABV?$basic_string@DV?$char_traits@D@_STL@@V?$allocator@D@2@@_STL@@@Z ; Error::Error
  00233	68 00 00 00 00	 push	 OFFSET FLAT:__TI2?AVError@@
  00238	8d 85 24 ff ff
	ff		 lea	 eax, DWORD PTR $T102578[ebp]
  0023e	eb 66		 jmp	 SHORT $L103041

; 81   : 		case WSANOTINITIALISED : 
; 82   : 			throw Error("A successful WSAStartup must occur before using this function.");

$L102645:

; 83   : 		case WSAENETDOWN : 
; 84   : 			throw Error("The network subsystem or the associated service provider has failed.");

  00240	8d 45 f3	 lea	 eax, DWORD PTR $T102568[ebp]
  00243	50		 push	 eax
  00244	68 00 00 00 00	 push	 OFFSET FLAT:??_C@_0EF@CKIMHLLF@The?5network?5subsystem?5or?5the?5ass@
  00249	8d 4d 9c	 lea	 ecx, DWORD PTR $T102567[ebp]
  0024c	e8 00 00 00 00	 call	 ??0?$basic_string@DV?$char_traits@D@_STL@@V?$allocator@D@2@@_STL@@QAE@PBDABV?$allocator@D@1@@Z ; _STL::basic_string<char,_STL::char_traits<char>,_STL::allocator<char> >::basic_string<char,_STL::char_traits<char>,_STL::allocator<char> >
  00251	8d 45 9c	 lea	 eax, DWORD PTR $T102567[ebp]
  00254	50		 push	 eax
  00255	8d 8d fc fe ff
	ff		 lea	 ecx, DWORD PTR $T102566[ebp]
  0025b	c7 45 fc 01 00
	00 00		 mov	 DWORD PTR __$EHRec$[ebp+8], 1
  00262	e8 00 00 00 00	 call	 ??0Error@@QAE@ABV?$basic_string@DV?$char_traits@D@_STL@@V?$allocator@D@2@@_STL@@@Z ; Error::Error
  00267	68 00 00 00 00	 push	 OFFSET FLAT:__TI2?AVError@@
  0026c	8d 85 fc fe ff
	ff		 lea	 eax, DWORD PTR $T102566[ebp]
  00272	eb 32		 jmp	 SHORT $L103041
$L102688:

; 85   : 		case WSAEAFNOSUPPORT : 
; 86   : 			throw Error("The specified address family is not supported.");

  00274	8d 45 f3	 lea	 eax, DWORD PTR $T102571[ebp]
  00277	50		 push	 eax
  00278	68 00 00 00 00	 push	 OFFSET FLAT:??_C@_0CP@CMMCJPID@The?5specified?5address?5family?5is?5@
  0027d	8d 4d e4	 lea	 ecx, DWORD PTR $T102570[ebp]
  00280	e8 00 00 00 00	 call	 ??0?$basic_string@DV?$char_traits@D@_STL@@V?$allocator@D@2@@_STL@@QAE@PBDABV?$allocator@D@1@@Z ; _STL::basic_string<char,_STL::char_traits<char>,_STL::allocator<char> >::basic_string<char,_STL::char_traits<char>,_STL::allocator<char> >
  00285	8d 45 e4	 lea	 eax, DWORD PTR $T102570[ebp]
  00288	50		 push	 eax
  00289	8d 8d d4 fe ff
	ff		 lea	 ecx, DWORD PTR $T102569[ebp]
  0028f	c7 45 fc 02 00
	00 00		 mov	 DWORD PTR __$EHRec$[ebp+8], 2
  00296	e8 00 00 00 00	 call	 ??0Error@@QAE@ABV?$basic_string@DV?$char_traits@D@_STL@@V?$allocator@D@2@@_STL@@@Z ; Error::Error
  0029b	68 00 00 00 00	 push	 OFFSET FLAT:__TI2?AVError@@
  002a0	8d 85 d4 fe ff
	ff		 lea	 eax, DWORD PTR $T102569[ebp]
$L103041:
  002a6	50		 push	 eax
  002a7	e8 00 00 00 00	 call	 __CxxThrowException@8
$L103043:
$L99511:

; 101  : 		}//end of switch
; 102  : #endif
; 103  : 	}
; 104  : 
; 105  : 	return s;
; 106  : 	
; 107  : 	__END_CATCH
; 108  : }

  002ac	8b 4d f4	 mov	 ecx, DWORD PTR __$EHRec$[ebp]
  002af	64 89 0d 00 00
	00 00		 mov	 DWORD PTR fs:__except_list, ecx
  002b6	c9		 leave
  002b7	c3		 ret	 0
$L103040:
_TEXT	ENDS
;	COMDAT text$x
text$x	SEGMENT
$L102600:
  00000	8d 4d 84	 lea	 ecx, DWORD PTR $T102582[ebp]
  00003	e9 00 00 00 00	 jmp	 ??1?$basic_string@DV?$char_traits@D@_STL@@V?$allocator@D@2@@_STL@@QAE@XZ ; _STL::basic_string<char,_STL::char_traits<char>,_STL::allocator<char> >::~basic_string<char,_STL::char_traits<char>,_STL::allocator<char> >
$L102601:
  00008	8d 8d 78 ff ff
	ff		 lea	 ecx, DWORD PTR $T102585[ebp]
  0000e	e9 00 00 00 00	 jmp	 ??1?$basic_string@DV?$char_traits@D@_STL@@V?$allocator@D@2@@_STL@@QAE@XZ ; _STL::basic_string<char,_STL::char_traits<char>,_STL::allocator<char> >::~basic_string<char,_STL::char_traits<char>,_STL::allocator<char> >
$L102597:
  00013	8d 4d c0	 lea	 ecx, DWORD PTR $T102573[ebp]
  00016	e9 00 00 00 00	 jmp	 ??1?$basic_string@DV?$char_traits@D@_STL@@V?$allocator@D@2@@_STL@@QAE@XZ ; _STL::basic_string<char,_STL::char_traits<char>,_STL::allocator<char> >::~basic_string<char,_STL::char_traits<char>,_STL::allocator<char> >
$L102598:
  0001b	8d 4d 90	 lea	 ecx, DWORD PTR $T102576[ebp]
  0001e	e9 00 00 00 00	 jmp	 ??1?$basic_string@DV?$char_traits@D@_STL@@V?$allocator@D@2@@_STL@@QAE@XZ ; _STL::basic_string<char,_STL::char_traits<char>,_STL::allocator<char> >::~basic_string<char,_STL::char_traits<char>,_STL::allocator<char> >
$L102602:
  00023	8d 4d a8	 lea	 ecx, DWORD PTR $T102588[ebp]
  00026	e9 00 00 00 00	 jmp	 ??1?$basic_string@DV?$char_traits@D@_STL@@V?$allocator@D@2@@_STL@@QAE@XZ ; _STL::basic_string<char,_STL::char_traits<char>,_STL::allocator<char> >::~basic_string<char,_STL::char_traits<char>,_STL::allocator<char> >
$L102603:
  0002b	8d 4d d8	 lea	 ecx, DWORD PTR $T102591[ebp]
  0002e	e9 00 00 00 00	 jmp	 ??1?$basic_string@DV?$char_traits@D@_STL@@V?$allocator@D@2@@_STL@@QAE@XZ ; _STL::basic_string<char,_STL::char_traits<char>,_STL::allocator<char> >::~basic_string<char,_STL::char_traits<char>,_STL::allocator<char> >
$L102594:
  00033	8d 4d cc	 lea	 ecx, DWORD PTR $T102564[ebp]
  00036	e9 00 00 00 00	 jmp	 ??1?$basic_string@DV?$char_traits@D@_STL@@V?$allocator@D@2@@_STL@@QAE@XZ ; _STL::basic_string<char,_STL::char_traits<char>,_STL::allocator<char> >::~basic_string<char,_STL::char_traits<char>,_STL::allocator<char> >
$L102599:
  0003b	8d 4d b4	 lea	 ecx, DWORD PTR $T102579[ebp]
  0003e	e9 00 00 00 00	 jmp	 ??1?$basic_string@DV?$char_traits@D@_STL@@V?$allocator@D@2@@_STL@@QAE@XZ ; _STL::basic_string<char,_STL::char_traits<char>,_STL::allocator<char> >::~basic_string<char,_STL::char_traits<char>,_STL::allocator<char> >
$L102595:
  00043	8d 4d 9c	 lea	 ecx, DWORD PTR $T102567[ebp]
  00046	e9 00 00 00 00	 jmp	 ??1?$basic_string@DV?$char_traits@D@_STL@@V?$allocator@D@2@@_STL@@QAE@XZ ; _STL::basic_string<char,_STL::char_traits<char>,_STL::allocator<char> >::~basic_string<char,_STL::char_traits<char>,_STL::allocator<char> >
$L102596:
  0004b	8d 4d e4	 lea	 ecx, DWORD PTR $T102570[ebp]
  0004e	e9 00 00 00 00	 jmp	 ??1?$basic_string@DV?$char_traits@D@_STL@@V?$allocator@D@2@@_STL@@QAE@XZ ; _STL::basic_string<char,_STL::char_traits<char>,_STL::allocator<char> >::~basic_string<char,_STL::char_traits<char>,_STL::allocator<char> >
__ehhandler$?socket_ex@SocketAPI@@YAIHHH@Z:
  00053	b8 00 00 00 00	 mov	 eax, OFFSET FLAT:$T103038
  00058	e9 00 00 00 00	 jmp	 ___CxxFrameHandler
text$x	ENDS
?socket_ex@SocketAPI@@YAIHHH@Z ENDP			; SocketAPI::socket_ex
; Function compile flags: /Ogsy
;	COMDAT ??1UnknownError@@UAE@XZ
_TEXT	SEGMENT
??1UnknownError@@UAE@XZ PROC NEAR			; UnknownError::~UnknownError, COMDAT
; _this$ = ecx
  00000	e9 00 00 00 00	 jmp	 ??1Error@@UAE@XZ
??1UnknownError@@UAE@XZ ENDP				; UnknownError::~UnknownError
_TEXT	ENDS
PUBLIC	?listen_ex@SocketAPI@@YAXII@Z			; SocketAPI::listen_ex
PUBLIC	??_C@_0CC@ECDFBOEN@The?5network?5subsystem?5has?5failed@ ; `string'
PUBLIC	??_C@_0CA@EGNBMMLP@The?5descriptor?5is?5not?5a?5socket?4?$AA@ ; `string'
PUBLIC	??_C@_0BHF@GJCPFMJJ@The?5socket?8s?5local?5address?5is?5al@ ; `string'
PUBLIC	??_C@_0CJ@CNCNEJKH@The?5socket?5has?5not?5been?5bound?5wi@ ; `string'
PUBLIC	??_C@_0CB@NOGOGHML@The?5socket?5is?5already?5connected?4@ ; `string'
PUBLIC	??_C@_0BO@MFIBOLAF@No?5buffer?5space?5is?5available?4?$AA@ ; `string'
PUBLIC	??_C@_0EL@EIOBEEOK@The?5referenced?5socket?5is?5not?5of?5@ ; `string'
PUBLIC	??_C@_08NJAFFHKO@listen?$CI?$CJ?$AA@		; `string'
EXTRN	_listen@8:NEAR
;	COMDAT xdata$x
; File c:\stlport-4.6.1\stlport\stl\_alloc.h
xdata$x	SEGMENT
$T103577 DD	0ffffffffH
	DD	FLAT:$L103085
	DD	0ffffffffH
	DD	FLAT:$L103086
	DD	0ffffffffH
	DD	FLAT:$L103087
	DD	0ffffffffH
	DD	FLAT:$L103088
	DD	0ffffffffH
	DD	FLAT:$L103089
	DD	0ffffffffH
	DD	FLAT:$L103090
	DD	0ffffffffH
	DD	FLAT:$L103091
	DD	0ffffffffH
	DD	FLAT:$L103092
	DD	0ffffffffH
	DD	FLAT:$L103093
	DD	0ffffffffH
	DD	FLAT:$L103094
	DD	0ffffffffH
	DD	FLAT:$L103095
$T103573 DD	019930520H
	DD	0bH
	DD	FLAT:$T103577
	DD	2 DUP(00H)
	DD	2 DUP(00H)
xdata$x	ENDS
;	COMDAT ??_C@_0EL@EIOBEEOK@The?5referenced?5socket?5is?5not?5of?5@
CONST	SEGMENT
??_C@_0EL@EIOBEEOK@The?5referenced?5socket?5is?5not?5of?5@ DB 'The refere'
	DB	'nced socket is not of a type that supports the listen operati'
	DB	'on.', 00H					; `string'
CONST	ENDS
;	COMDAT ??_C@_0CA@EGNBMMLP@The?5descriptor?5is?5not?5a?5socket?4?$AA@
CONST	SEGMENT
??_C@_0CA@EGNBMMLP@The?5descriptor?5is?5not?5a?5socket?4?$AA@ DB 'The des'
	DB	'criptor is not a socket.', 00H		; `string'
CONST	ENDS
;	COMDAT ??_C@_0CJ@CNCNEJKH@The?5socket?5has?5not?5been?5bound?5wi@
CONST	SEGMENT
??_C@_0CJ@CNCNEJKH@The?5socket?5has?5not?5been?5bound?5wi@ DB 'The socket'
	DB	' has not been bound with bind.', 00H	; `string'
CONST	ENDS
;	COMDAT ??_C@_0BHF@GJCPFMJJ@The?5socket?8s?5local?5address?5is?5al@
CONST	SEGMENT
??_C@_0BHF@GJCPFMJJ@The?5socket?8s?5local?5address?5is?5al@ DB 'The socke'
	DB	't''s local address is already in use and the socket was not m'
	DB	'arked to allow address reuse with SO_REUSEADDR. This error us'
	DB	'ually occurs during execution of the bind function, but could'
	DB	' be delayed until this function if the bind was to a partiall'
	DB	'y wild-card address (involving ADDR_ANY) and if a specific ad'
	DB	'dress needs to be ''committed'' at the time of this function.'
	DB	00H						; `string'
CONST	ENDS
;	COMDAT ??_C@_08NJAFFHKO@listen?$CI?$CJ?$AA@
CONST	SEGMENT
??_C@_08NJAFFHKO@listen?$CI?$CJ?$AA@ DB 'listen()', 00H	; `string'
CONST	ENDS
;	COMDAT ??_C@_0CB@NOGOGHML@The?5socket?5is?5already?5connected?4@
CONST	SEGMENT
??_C@_0CB@NOGOGHML@The?5socket?5is?5already?5connected?4@ DB 'The socket '
	DB	'is already connected.', 00H			; `string'
CONST	ENDS
;	COMDAT ??_C@_0BO@MFIBOLAF@No?5buffer?5space?5is?5available?4?$AA@
CONST	SEGMENT
??_C@_0BO@MFIBOLAF@No?5buffer?5space?5is?5available?4?$AA@ DB 'No buffer '
	DB	'space is available.', 00H			; `string'
CONST	ENDS
;	COMDAT ??_C@_0CC@ECDFBOEN@The?5network?5subsystem?5has?5failed@
CONST	SEGMENT
??_C@_0CC@ECDFBOEN@The?5network?5subsystem?5has?5failed@ DB 'The network '
	DB	'subsystem has failed.', 00H			; `string'
; Function compile flags: /Ogsy
; File c:\darkeden\designed_common\project\client\packet\socketapi.cpp
CONST	ENDS
;	COMDAT ?listen_ex@SocketAPI@@YAXII@Z
_TEXT	SEGMENT
$T103075 = -372						; size = 20
$T103057 = -352						; size = 20
$T103054 = -332						; size = 20
$T103069 = -312						; size = 20
$T103072 = -292						; size = 20
$T103063 = -272						; size = 20
$T103066 = -252						; size = 20
$T103060 = -232						; size = 20
$T103051 = -212						; size = 20
$T103078 = -192						; size = 20
$T103081 = -172						; size = 24
$T103079 = -148						; size = 12
$T103058 = -136						; size = 12
$T103073 = -124						; size = 12
$T103070 = -112						; size = 12
$T103067 = -100						; size = 12
$T103064 = -88						; size = 12
$T103052 = -76						; size = 12
$T103076 = -64						; size = 12
$T103061 = -52						; size = 12
$T103082 = -40						; size = 12
$T103055 = -28						; size = 12
$T103083 = -13						; size = 1
$T103080 = -13						; size = 1
$T103077 = -13						; size = 1
$T103074 = -13						; size = 1
$T103071 = -13						; size = 1
$T103068 = -13						; size = 1
$T103065 = -13						; size = 1
$T103062 = -13						; size = 1
$T103059 = -13						; size = 1
$T103056 = -13						; size = 1
$T103053 = -13						; size = 1
__$EHRec$ = -12						; size = 12
_s$ = 8							; size = 4
_backlog$ = 12						; size = 4
?listen_ex@SocketAPI@@YAXII@Z PROC NEAR			; SocketAPI::listen_ex, COMDAT

; 323  : {

  00000	b8 00 00 00 00	 mov	 eax, __ehhandler$?listen_ex@SocketAPI@@YAXII@Z
  00005	e8 00 00 00 00	 call	 __EH_prolog
  0000a	81 ec 68 01 00
	00		 sub	 esp, 360		; 00000168H

; 324  : 	__BEGIN_TRY
; 325  : 
; 326  : 	if ( listen( s , backlog ) == SOCKET_ERROR ) {

  00010	ff 75 0c	 push	 DWORD PTR _backlog$[ebp]
  00013	ff 75 08	 push	 DWORD PTR _s$[ebp]
  00016	e8 00 00 00 00	 call	 _listen@8
  0001b	83 f8 ff	 cmp	 eax, -1
  0001e	0f 85 c8 02 00
	00		 jne	 $L99815

; 327  : #if __LINUX__
; 328  : 		switch ( errno ) {
; 329  : 		case EBADF : 
; 330  : 			throw Error("Bad descriptor.");
; 331  : 		case ENOTSOCK :
; 332  : 			throw Error("Not a socket.");
; 333  : 		case EOPNOTSUPP :
; 334  : 			throw Error("The socket is not of a type that supports the operation listen.");
; 335  : 		default :
; 336  : 			throw UnknownError(strerror(errno),errno);
; 337  : 		}//end of switch
; 338  : #elif __WINDOWS__
; 339  : 		switch ( WSAGetLastError() ) {

  00024	e8 00 00 00 00	 call	 _WSAGetLastError@0
  00029	b9 40 27 00 00	 mov	 ecx, 10048		; 00002740H
  0002e	3b c1		 cmp	 eax, ecx
  00030	0f 8f 85 01 00
	00		 jg	 $L103084
  00036	0f 84 42 01 00
	00		 je	 $L103180
  0003c	2d 26 27 00 00	 sub	 eax, 10022		; 00002726H
  00041	0f 84 00 01 00
	00		 je	 $L103266
  00047	48		 dec	 eax
  00048	48		 dec	 eax
  00049	0f 84 c1 00 00
	00		 je	 $L103352
  0004f	83 e8 0c	 sub	 eax, 12			; 0000000cH
  00052	0f 84 81 00 00
	00		 je	 $L103223
  00058	48		 dec	 eax
  00059	48		 dec	 eax
  0005a	74 46		 je	 SHORT $L103439
  0005c	83 e8 07	 sub	 eax, 7
  0005f	0f 85 72 01 00
	00		 jne	 $L103525

; 358  : 		case WSAEOPNOTSUPP : 
; 359  : 			throw Error("The referenced socket is not of a type that supports the listen operation.");

  00065	8d 45 f3	 lea	 eax, DWORD PTR $T103080[ebp]
  00068	50		 push	 eax
  00069	68 00 00 00 00	 push	 OFFSET FLAT:??_C@_0EL@EIOBEEOK@The?5referenced?5socket?5is?5not?5of?5@
  0006e	8d 8d 6c ff ff
	ff		 lea	 ecx, DWORD PTR $T103079[ebp]
  00074	e8 00 00 00 00	 call	 ??0?$basic_string@DV?$char_traits@D@_STL@@V?$allocator@D@2@@_STL@@QAE@PBDABV?$allocator@D@1@@Z ; _STL::basic_string<char,_STL::char_traits<char>,_STL::allocator<char> >::basic_string<char,_STL::char_traits<char>,_STL::allocator<char> >
  00079	8d 85 6c ff ff
	ff		 lea	 eax, DWORD PTR $T103079[ebp]
  0007f	50		 push	 eax
  00080	8d 8d 40 ff ff
	ff		 lea	 ecx, DWORD PTR $T103078[ebp]
  00086	c7 45 fc 09 00
	00 00		 mov	 DWORD PTR __$EHRec$[ebp+8], 9
  0008d	e8 00 00 00 00	 call	 ??0Error@@QAE@ABV?$basic_string@DV?$char_traits@D@_STL@@V?$allocator@D@2@@_STL@@@Z ; Error::Error
  00092	68 00 00 00 00	 push	 OFFSET FLAT:__TI2?AVError@@
  00097	8d 85 40 ff ff
	ff		 lea	 eax, DWORD PTR $T103078[ebp]
  0009d	e9 44 02 00 00	 jmp	 $L103576

; 354  : 		case WSAENOBUFS : 
; 355  : 			throw Error("No buffer space is available.");

$L103439:

; 356  : 		case WSAENOTSOCK : 
; 357  : 			throw Error("The descriptor is not a socket.");

  000a2	8d 45 f3	 lea	 eax, DWORD PTR $T103077[ebp]
  000a5	50		 push	 eax
  000a6	68 00 00 00 00	 push	 OFFSET FLAT:??_C@_0CA@EGNBMMLP@The?5descriptor?5is?5not?5a?5socket?4?$AA@
  000ab	8d 4d c0	 lea	 ecx, DWORD PTR $T103076[ebp]
  000ae	e8 00 00 00 00	 call	 ??0?$basic_string@DV?$char_traits@D@_STL@@V?$allocator@D@2@@_STL@@QAE@PBDABV?$allocator@D@1@@Z ; _STL::basic_string<char,_STL::char_traits<char>,_STL::allocator<char> >::basic_string<char,_STL::char_traits<char>,_STL::allocator<char> >
  000b3	8d 45 c0	 lea	 eax, DWORD PTR $T103076[ebp]
  000b6	50		 push	 eax
  000b7	8d 8d 8c fe ff
	ff		 lea	 ecx, DWORD PTR $T103075[ebp]
  000bd	c7 45 fc 08 00
	00 00		 mov	 DWORD PTR __$EHRec$[ebp+8], 8
  000c4	e8 00 00 00 00	 call	 ??0Error@@QAE@ABV?$basic_string@DV?$char_traits@D@_STL@@V?$allocator@D@2@@_STL@@@Z ; Error::Error
  000c9	68 00 00 00 00	 push	 OFFSET FLAT:__TI2?AVError@@
  000ce	8d 85 8c fe ff
	ff		 lea	 eax, DWORD PTR $T103075[ebp]
  000d4	e9 0d 02 00 00	 jmp	 $L103576

; 344  : 		case WSAEADDRINUSE : 
; 345  : 			throw Error("The socket's local address is already in use and the socket was not marked to allow address reuse with SO_REUSEADDR. This error usually occurs during execution of the bind function, but could be delayed until this function if the bind was to a partially wild-card address (involving ADDR_ANY) and if a specific address needs to be 'committed' at the time of this function.");

$L103223:

; 346  : 		case WSAEINPROGRESS : 
; 347  : 			throw Error("A blocking Windows Sockets 1.1 call is in progress, or the service provider is still processing a callback function.");

  000d9	8d 45 f3	 lea	 eax, DWORD PTR $T103062[ebp]
  000dc	50		 push	 eax
  000dd	68 00 00 00 00	 push	 OFFSET FLAT:??_C@_0HF@MHMDKDMH@A?5blocking?5Windows?5Sockets?51?41?5c@
  000e2	8d 4d cc	 lea	 ecx, DWORD PTR $T103061[ebp]
  000e5	e8 00 00 00 00	 call	 ??0?$basic_string@DV?$char_traits@D@_STL@@V?$allocator@D@2@@_STL@@QAE@PBDABV?$allocator@D@1@@Z ; _STL::basic_string<char,_STL::char_traits<char>,_STL::allocator<char> >::basic_string<char,_STL::char_traits<char>,_STL::allocator<char> >
  000ea	8d 45 cc	 lea	 eax, DWORD PTR $T103061[ebp]
  000ed	50		 push	 eax
  000ee	8d 8d 18 ff ff
	ff		 lea	 ecx, DWORD PTR $T103060[ebp]
  000f4	c7 45 fc 03 00
	00 00		 mov	 DWORD PTR __$EHRec$[ebp+8], 3
  000fb	e8 00 00 00 00	 call	 ??0Error@@QAE@ABV?$basic_string@DV?$char_traits@D@_STL@@V?$allocator@D@2@@_STL@@@Z ; Error::Error
  00100	68 00 00 00 00	 push	 OFFSET FLAT:__TI2?AVError@@
  00105	8d 85 18 ff ff
	ff		 lea	 eax, DWORD PTR $T103060[ebp]
  0010b	e9 d6 01 00 00	 jmp	 $L103576

; 350  : 		case WSAEISCONN : 
; 351  : 			throw Error("The socket is already connected.");

$L103352:

; 352  : 		case WSAEMFILE : 
; 353  : 			throw Error("No more socket descriptors are available.");

  00110	8d 45 f3	 lea	 eax, DWORD PTR $T103071[ebp]
  00113	50		 push	 eax
  00114	68 00 00 00 00	 push	 OFFSET FLAT:??_C@_0CK@CCIODIMH@No?5more?5socket?5descriptors?5are?5a@
  00119	8d 4d 90	 lea	 ecx, DWORD PTR $T103070[ebp]
  0011c	e8 00 00 00 00	 call	 ??0?$basic_string@DV?$char_traits@D@_STL@@V?$allocator@D@2@@_STL@@QAE@PBDABV?$allocator@D@1@@Z ; _STL::basic_string<char,_STL::char_traits<char>,_STL::allocator<char> >::basic_string<char,_STL::char_traits<char>,_STL::allocator<char> >
  00121	8d 45 90	 lea	 eax, DWORD PTR $T103070[ebp]
  00124	50		 push	 eax
  00125	8d 8d c8 fe ff
	ff		 lea	 ecx, DWORD PTR $T103069[ebp]
  0012b	c7 45 fc 06 00
	00 00		 mov	 DWORD PTR __$EHRec$[ebp+8], 6
  00132	e8 00 00 00 00	 call	 ??0Error@@QAE@ABV?$basic_string@DV?$char_traits@D@_STL@@V?$allocator@D@2@@_STL@@@Z ; Error::Error
  00137	68 00 00 00 00	 push	 OFFSET FLAT:__TI2?AVError@@
  0013c	8d 85 c8 fe ff
	ff		 lea	 eax, DWORD PTR $T103069[ebp]
  00142	e9 9f 01 00 00	 jmp	 $L103576

; 346  : 		case WSAEINPROGRESS : 
; 347  : 			throw Error("A blocking Windows Sockets 1.1 call is in progress, or the service provider is still processing a callback function.");

$L103266:

; 348  : 		case WSAEINVAL : 
; 349  : 			throw Error("The socket has not been bound with bind.");

  00147	8d 45 f3	 lea	 eax, DWORD PTR $T103065[ebp]
  0014a	50		 push	 eax
  0014b	68 00 00 00 00	 push	 OFFSET FLAT:??_C@_0CJ@CNCNEJKH@The?5socket?5has?5not?5been?5bound?5wi@
  00150	8d 4d a8	 lea	 ecx, DWORD PTR $T103064[ebp]
  00153	e8 00 00 00 00	 call	 ??0?$basic_string@DV?$char_traits@D@_STL@@V?$allocator@D@2@@_STL@@QAE@PBDABV?$allocator@D@1@@Z ; _STL::basic_string<char,_STL::char_traits<char>,_STL::allocator<char> >::basic_string<char,_STL::char_traits<char>,_STL::allocator<char> >
  00158	8d 45 a8	 lea	 eax, DWORD PTR $T103064[ebp]
  0015b	50		 push	 eax
  0015c	8d 8d f0 fe ff
	ff		 lea	 ecx, DWORD PTR $T103063[ebp]
  00162	c7 45 fc 04 00
	00 00		 mov	 DWORD PTR __$EHRec$[ebp+8], 4
  00169	e8 00 00 00 00	 call	 ??0Error@@QAE@ABV?$basic_string@DV?$char_traits@D@_STL@@V?$allocator@D@2@@_STL@@@Z ; Error::Error
  0016e	68 00 00 00 00	 push	 OFFSET FLAT:__TI2?AVError@@
  00173	8d 85 f0 fe ff
	ff		 lea	 eax, DWORD PTR $T103063[ebp]
  00179	e9 68 01 00 00	 jmp	 $L103576

; 342  : 		case WSAENETDOWN : 
; 343  : 			throw Error("The network subsystem has failed.");

$L103180:

; 344  : 		case WSAEADDRINUSE : 
; 345  : 			throw Error("The socket's local address is already in use and the socket was not marked to allow address reuse with SO_REUSEADDR. This error usually occurs during execution of the bind function, but could be delayed until this function if the bind was to a partially wild-card address (involving ADDR_ANY) and if a specific address needs to be 'committed' at the time of this function.");

  0017e	8d 45 f3	 lea	 eax, DWORD PTR $T103059[ebp]
  00181	50		 push	 eax
  00182	68 00 00 00 00	 push	 OFFSET FLAT:??_C@_0BHF@GJCPFMJJ@The?5socket?8s?5local?5address?5is?5al@
  00187	8d 8d 78 ff ff
	ff		 lea	 ecx, DWORD PTR $T103058[ebp]
  0018d	e8 00 00 00 00	 call	 ??0?$basic_string@DV?$char_traits@D@_STL@@V?$allocator@D@2@@_STL@@QAE@PBDABV?$allocator@D@1@@Z ; _STL::basic_string<char,_STL::char_traits<char>,_STL::allocator<char> >::basic_string<char,_STL::char_traits<char>,_STL::allocator<char> >
  00192	8d 85 78 ff ff
	ff		 lea	 eax, DWORD PTR $T103058[ebp]
  00198	50		 push	 eax
  00199	8d 8d a0 fe ff
	ff		 lea	 ecx, DWORD PTR $T103057[ebp]
  0019f	c7 45 fc 02 00
	00 00		 mov	 DWORD PTR __$EHRec$[ebp+8], 2
  001a6	e8 00 00 00 00	 call	 ??0Error@@QAE@ABV?$basic_string@DV?$char_traits@D@_STL@@V?$allocator@D@2@@_STL@@@Z ; Error::Error
  001ab	68 00 00 00 00	 push	 OFFSET FLAT:__TI2?AVError@@
  001b0	8d 85 a0 fe ff
	ff		 lea	 eax, DWORD PTR $T103057[ebp]
  001b6	e9 2b 01 00 00	 jmp	 $L103576
$L103084:

; 327  : #if __LINUX__
; 328  : 		switch ( errno ) {
; 329  : 		case EBADF : 
; 330  : 			throw Error("Bad descriptor.");
; 331  : 		case ENOTSOCK :
; 332  : 			throw Error("Not a socket.");
; 333  : 		case EOPNOTSUPP :
; 334  : 			throw Error("The socket is not of a type that supports the operation listen.");
; 335  : 		default :
; 336  : 			throw UnknownError(strerror(errno),errno);
; 337  : 		}//end of switch
; 338  : #elif __WINDOWS__
; 339  : 		switch ( WSAGetLastError() ) {

  001bb	2d 42 27 00 00	 sub	 eax, 10050		; 00002742H
  001c0	0f 84 ee 00 00
	00		 je	 $L103137
  001c6	83 e8 05	 sub	 eax, 5
  001c9	0f 84 b1 00 00
	00		 je	 $L103395
  001cf	48		 dec	 eax
  001d0	74 7a		 je	 SHORT $L103309
  001d2	83 e8 25	 sub	 eax, 37			; 00000025H
  001d5	74 41		 je	 SHORT $L99818

; 358  : 		case WSAEOPNOTSUPP : 
; 359  : 			throw Error("The referenced socket is not of a type that supports the listen operation.");

$L103525:

; 360  : 		default :
; 361  : 			throw UnknownError("listen()");

  001d7	8d 45 f3	 lea	 eax, DWORD PTR $T103083[ebp]
  001da	50		 push	 eax
  001db	68 00 00 00 00	 push	 OFFSET FLAT:??_C@_08NJAFFHKO@listen?$CI?$CJ?$AA@
  001e0	8d 4d d8	 lea	 ecx, DWORD PTR $T103082[ebp]
  001e3	e8 00 00 00 00	 call	 ??0?$basic_string@DV?$char_traits@D@_STL@@V?$allocator@D@2@@_STL@@QAE@PBDABV?$allocator@D@1@@Z ; _STL::basic_string<char,_STL::char_traits<char>,_STL::allocator<char> >::basic_string<char,_STL::char_traits<char>,_STL::allocator<char> >
  001e8	8d 45 d8	 lea	 eax, DWORD PTR $T103082[ebp]
  001eb	50		 push	 eax
  001ec	8d 8d 54 ff ff
	ff		 lea	 ecx, DWORD PTR $T103081[ebp]
  001f2	c7 45 fc 0a 00
	00 00		 mov	 DWORD PTR __$EHRec$[ebp+8], 10 ; 0000000aH
  001f9	e8 00 00 00 00	 call	 ??0Error@@QAE@ABV?$basic_string@DV?$char_traits@D@_STL@@V?$allocator@D@2@@_STL@@@Z ; Error::Error
  001fe	c7 85 54 ff ff
	ff 00 00 00 00	 mov	 DWORD PTR $T103081[ebp], OFFSET FLAT:??_7UnknownError@@6B@
  00208	68 00 00 00 00	 push	 OFFSET FLAT:__TI3?AVUnknownError@@
  0020d	8d 85 54 ff ff
	ff		 lea	 eax, DWORD PTR $T103081[ebp]
  00213	e9 ce 00 00 00	 jmp	 $L103576
$L99818:

; 340  : 		case WSANOTINITIALISED : 
; 341  : 			throw Error("A successful WSAStartup must occur before using this function.");

  00218	8d 45 f3	 lea	 eax, DWORD PTR $T103053[ebp]
  0021b	50		 push	 eax
  0021c	68 00 00 00 00	 push	 OFFSET FLAT:??_C@_0DP@GBHCAAKN@A?5successful?5WSAStartup?5must?5occ@
  00221	8d 4d b4	 lea	 ecx, DWORD PTR $T103052[ebp]
  00224	e8 00 00 00 00	 call	 ??0?$basic_string@DV?$char_traits@D@_STL@@V?$allocator@D@2@@_STL@@QAE@PBDABV?$allocator@D@1@@Z ; _STL::basic_string<char,_STL::char_traits<char>,_STL::allocator<char> >::basic_string<char,_STL::char_traits<char>,_STL::allocator<char> >
  00229	83 65 fc 00	 and	 DWORD PTR __$EHRec$[ebp+8], 0
  0022d	8d 45 b4	 lea	 eax, DWORD PTR $T103052[ebp]
  00230	50		 push	 eax
  00231	8d 8d 2c ff ff
	ff		 lea	 ecx, DWORD PTR $T103051[ebp]
  00237	e8 00 00 00 00	 call	 ??0Error@@QAE@ABV?$basic_string@DV?$char_traits@D@_STL@@V?$allocator@D@2@@_STL@@@Z ; Error::Error
  0023c	68 00 00 00 00	 push	 OFFSET FLAT:__TI2?AVError@@
  00241	8d 85 2c ff ff
	ff		 lea	 eax, DWORD PTR $T103051[ebp]
  00247	e9 9a 00 00 00	 jmp	 $L103576

; 348  : 		case WSAEINVAL : 
; 349  : 			throw Error("The socket has not been bound with bind.");

$L103309:

; 350  : 		case WSAEISCONN : 
; 351  : 			throw Error("The socket is already connected.");

  0024c	8d 45 f3	 lea	 eax, DWORD PTR $T103068[ebp]
  0024f	50		 push	 eax
  00250	68 00 00 00 00	 push	 OFFSET FLAT:??_C@_0CB@NOGOGHML@The?5socket?5is?5already?5connected?4@
  00255	8d 4d 9c	 lea	 ecx, DWORD PTR $T103067[ebp]
  00258	e8 00 00 00 00	 call	 ??0?$basic_string@DV?$char_traits@D@_STL@@V?$allocator@D@2@@_STL@@QAE@PBDABV?$allocator@D@1@@Z ; _STL::basic_string<char,_STL::char_traits<char>,_STL::allocator<char> >::basic_string<char,_STL::char_traits<char>,_STL::allocator<char> >
  0025d	8d 45 9c	 lea	 eax, DWORD PTR $T103067[ebp]
  00260	50		 push	 eax
  00261	8d 8d 04 ff ff
	ff		 lea	 ecx, DWORD PTR $T103066[ebp]
  00267	c7 45 fc 05 00
	00 00		 mov	 DWORD PTR __$EHRec$[ebp+8], 5
  0026e	e8 00 00 00 00	 call	 ??0Error@@QAE@ABV?$basic_string@DV?$char_traits@D@_STL@@V?$allocator@D@2@@_STL@@@Z ; Error::Error
  00273	68 00 00 00 00	 push	 OFFSET FLAT:__TI2?AVError@@
  00278	8d 85 04 ff ff
	ff		 lea	 eax, DWORD PTR $T103066[ebp]
  0027e	eb 66		 jmp	 SHORT $L103576

; 352  : 		case WSAEMFILE : 
; 353  : 			throw Error("No more socket descriptors are available.");

$L103395:

; 354  : 		case WSAENOBUFS : 
; 355  : 			throw Error("No buffer space is available.");

  00280	8d 45 f3	 lea	 eax, DWORD PTR $T103074[ebp]
  00283	50		 push	 eax
  00284	68 00 00 00 00	 push	 OFFSET FLAT:??_C@_0BO@MFIBOLAF@No?5buffer?5space?5is?5available?4?$AA@
  00289	8d 4d 84	 lea	 ecx, DWORD PTR $T103073[ebp]
  0028c	e8 00 00 00 00	 call	 ??0?$basic_string@DV?$char_traits@D@_STL@@V?$allocator@D@2@@_STL@@QAE@PBDABV?$allocator@D@1@@Z ; _STL::basic_string<char,_STL::char_traits<char>,_STL::allocator<char> >::basic_string<char,_STL::char_traits<char>,_STL::allocator<char> >
  00291	8d 45 84	 lea	 eax, DWORD PTR $T103073[ebp]
  00294	50		 push	 eax
  00295	8d 8d dc fe ff
	ff		 lea	 ecx, DWORD PTR $T103072[ebp]
  0029b	c7 45 fc 07 00
	00 00		 mov	 DWORD PTR __$EHRec$[ebp+8], 7
  002a2	e8 00 00 00 00	 call	 ??0Error@@QAE@ABV?$basic_string@DV?$char_traits@D@_STL@@V?$allocator@D@2@@_STL@@@Z ; Error::Error
  002a7	68 00 00 00 00	 push	 OFFSET FLAT:__TI2?AVError@@
  002ac	8d 85 dc fe ff
	ff		 lea	 eax, DWORD PTR $T103072[ebp]
  002b2	eb 32		 jmp	 SHORT $L103576

; 340  : 		case WSANOTINITIALISED : 
; 341  : 			throw Error("A successful WSAStartup must occur before using this function.");

$L103137:

; 342  : 		case WSAENETDOWN : 
; 343  : 			throw Error("The network subsystem has failed.");

  002b4	8d 45 f3	 lea	 eax, DWORD PTR $T103056[ebp]
  002b7	50		 push	 eax
  002b8	68 00 00 00 00	 push	 OFFSET FLAT:??_C@_0CC@ECDFBOEN@The?5network?5subsystem?5has?5failed@
  002bd	8d 4d e4	 lea	 ecx, DWORD PTR $T103055[ebp]
  002c0	e8 00 00 00 00	 call	 ??0?$basic_string@DV?$char_traits@D@_STL@@V?$allocator@D@2@@_STL@@QAE@PBDABV?$allocator@D@1@@Z ; _STL::basic_string<char,_STL::char_traits<char>,_STL::allocator<char> >::basic_string<char,_STL::char_traits<char>,_STL::allocator<char> >
  002c5	8d 45 e4	 lea	 eax, DWORD PTR $T103055[ebp]
  002c8	50		 push	 eax
  002c9	8d 8d b4 fe ff
	ff		 lea	 ecx, DWORD PTR $T103054[ebp]
  002cf	c7 45 fc 01 00
	00 00		 mov	 DWORD PTR __$EHRec$[ebp+8], 1
  002d6	e8 00 00 00 00	 call	 ??0Error@@QAE@ABV?$basic_string@DV?$char_traits@D@_STL@@V?$allocator@D@2@@_STL@@@Z ; Error::Error
  002db	68 00 00 00 00	 push	 OFFSET FLAT:__TI2?AVError@@
  002e0	8d 85 b4 fe ff
	ff		 lea	 eax, DWORD PTR $T103054[ebp]
$L103576:
  002e6	50		 push	 eax
  002e7	e8 00 00 00 00	 call	 __CxxThrowException@8
$L103578:
$L99815:

; 362  : 		}//end of switch
; 363  : #endif
; 364  : 	}
; 365  : 	
; 366  : 	__END_CATCH
; 367  : }

  002ec	8b 4d f4	 mov	 ecx, DWORD PTR __$EHRec$[ebp]
  002ef	64 89 0d 00 00
	00 00		 mov	 DWORD PTR fs:__except_list, ecx
  002f6	c9		 leave
  002f7	c3		 ret	 0
$L103575:
_TEXT	ENDS
;	COMDAT text$x
text$x	SEGMENT
$L103094:
  00000	8d 8d 6c ff ff
	ff		 lea	 ecx, DWORD PTR $T103079[ebp]
  00006	e9 00 00 00 00	 jmp	 ??1?$basic_string@DV?$char_traits@D@_STL@@V?$allocator@D@2@@_STL@@QAE@XZ ; _STL::basic_string<char,_STL::char_traits<char>,_STL::allocator<char> >::~basic_string<char,_STL::char_traits<char>,_STL::allocator<char> >
$L103093:
  0000b	8d 4d c0	 lea	 ecx, DWORD PTR $T103076[ebp]
  0000e	e9 00 00 00 00	 jmp	 ??1?$basic_string@DV?$char_traits@D@_STL@@V?$allocator@D@2@@_STL@@QAE@XZ ; _STL::basic_string<char,_STL::char_traits<char>,_STL::allocator<char> >::~basic_string<char,_STL::char_traits<char>,_STL::allocator<char> >
$L103088:
  00013	8d 4d cc	 lea	 ecx, DWORD PTR $T103061[ebp]
  00016	e9 00 00 00 00	 jmp	 ??1?$basic_string@DV?$char_traits@D@_STL@@V?$allocator@D@2@@_STL@@QAE@XZ ; _STL::basic_string<char,_STL::char_traits<char>,_STL::allocator<char> >::~basic_string<char,_STL::char_traits<char>,_STL::allocator<char> >
$L103091:
  0001b	8d 4d 90	 lea	 ecx, DWORD PTR $T103070[ebp]
  0001e	e9 00 00 00 00	 jmp	 ??1?$basic_string@DV?$char_traits@D@_STL@@V?$allocator@D@2@@_STL@@QAE@XZ ; _STL::basic_string<char,_STL::char_traits<char>,_STL::allocator<char> >::~basic_string<char,_STL::char_traits<char>,_STL::allocator<char> >
$L103089:
  00023	8d 4d a8	 lea	 ecx, DWORD PTR $T103064[ebp]
  00026	e9 00 00 00 00	 jmp	 ??1?$basic_string@DV?$char_traits@D@_STL@@V?$allocator@D@2@@_STL@@QAE@XZ ; _STL::basic_string<char,_STL::char_traits<char>,_STL::allocator<char> >::~basic_string<char,_STL::char_traits<char>,_STL::allocator<char> >
$L103087:
  0002b	8d 8d 78 ff ff
	ff		 lea	 ecx, DWORD PTR $T103058[ebp]
  00031	e9 00 00 00 00	 jmp	 ??1?$basic_string@DV?$char_traits@D@_STL@@V?$allocator@D@2@@_STL@@QAE@XZ ; _STL::basic_string<char,_STL::char_traits<char>,_STL::allocator<char> >::~basic_string<char,_STL::char_traits<char>,_STL::allocator<char> >
$L103095:
  00036	8d 4d d8	 lea	 ecx, DWORD PTR $T103082[ebp]
  00039	e9 00 00 00 00	 jmp	 ??1?$basic_string@DV?$char_traits@D@_STL@@V?$allocator@D@2@@_STL@@QAE@XZ ; _STL::basic_string<char,_STL::char_traits<char>,_STL::allocator<char> >::~basic_string<char,_STL::char_traits<char>,_STL::allocator<char> >
$L103085:
  0003e	8d 4d b4	 lea	 ecx, DWORD PTR $T103052[ebp]
  00041	e9 00 00 00 00	 jmp	 ??1?$basic_string@DV?$char_traits@D@_STL@@V?$allocator@D@2@@_STL@@QAE@XZ ; _STL::basic_string<char,_STL::char_traits<char>,_STL::allocator<char> >::~basic_string<char,_STL::char_traits<char>,_STL::allocator<char> >
$L103090:
  00046	8d 4d 9c	 lea	 ecx, DWORD PTR $T103067[ebp]
  00049	e9 00 00 00 00	 jmp	 ??1?$basic_string@DV?$char_traits@D@_STL@@V?$allocator@D@2@@_STL@@QAE@XZ ; _STL::basic_string<char,_STL::char_traits<char>,_STL::allocator<char> >::~basic_string<char,_STL::char_traits<char>,_STL::allocator<char> >
$L103092:
  0004e	8d 4d 84	 lea	 ecx, DWORD PTR $T103073[ebp]
  00051	e9 00 00 00 00	 jmp	 ??1?$basic_string@DV?$char_traits@D@_STL@@V?$allocator@D@2@@_STL@@QAE@XZ ; _STL::basic_string<char,_STL::char_traits<char>,_STL::allocator<char> >::~basic_string<char,_STL::char_traits<char>,_STL::allocator<char> >
$L103086:
  00056	8d 4d e4	 lea	 ecx, DWORD PTR $T103055[ebp]
  00059	e9 00 00 00 00	 jmp	 ??1?$basic_string@DV?$char_traits@D@_STL@@V?$allocator@D@2@@_STL@@QAE@XZ ; _STL::basic_string<char,_STL::char_traits<char>,_STL::allocator<char> >::~basic_string<char,_STL::char_traits<char>,_STL::allocator<char> >
__ehhandler$?listen_ex@SocketAPI@@YAXII@Z:
  0005e	b8 00 00 00 00	 mov	 eax, OFFSET FLAT:$T103573
  00063	e9 00 00 00 00	 jmp	 ___CxxFrameHandler
text$x	ENDS
?listen_ex@SocketAPI@@YAXII@Z ENDP			; SocketAPI::listen_ex
PUBLIC	?getsockopt_ex@SocketAPI@@YAXIHHPAXPAI@Z	; SocketAPI::getsockopt_ex
PUBLIC	??_C@_0IA@DNGLFLJJ@One?5of?5the?5optval?5or?5the?5optlen?5@ ; `string'
PUBLIC	??_C@_0CL@IBEKHBIK@The?5level?5parameter?5is?5unknown?5o@ ; `string'
PUBLIC	??_C@_0EH@CBGGLBMD@The?5option?5is?5unknown?5or?5unsuppo@ ; `string'
PUBLIC	??_C@_0N@KCEFHCID@getsockopt?$CI?$CJ?$AA@	; `string'
EXTRN	_getsockopt@20:NEAR
;	COMDAT xdata$x
; File c:\stlport-4.6.1\stlport\stl\_alloc.h
xdata$x	SEGMENT
$T103967 DD	0ffffffffH
	DD	FLAT:$L103607
	DD	0ffffffffH
	DD	FLAT:$L103608
	DD	0ffffffffH
	DD	FLAT:$L103609
	DD	0ffffffffH
	DD	FLAT:$L103610
	DD	0ffffffffH
	DD	FLAT:$L103611
	DD	0ffffffffH
	DD	FLAT:$L103612
	DD	0ffffffffH
	DD	FLAT:$L103613
	DD	0ffffffffH
	DD	FLAT:$L103614
$T103963 DD	019930520H
	DD	08H
	DD	FLAT:$T103967
	DD	2 DUP(00H)
	DD	2 DUP(00H)
xdata$x	ENDS
;	COMDAT ??_C@_0N@KCEFHCID@getsockopt?$CI?$CJ?$AA@
CONST	SEGMENT
??_C@_0N@KCEFHCID@getsockopt?$CI?$CJ?$AA@ DB 'getsockopt()', 00H ; `string'
CONST	ENDS
;	COMDAT ??_C@_0EH@CBGGLBMD@The?5option?5is?5unknown?5or?5unsuppo@
CONST	SEGMENT
??_C@_0EH@CBGGLBMD@The?5option?5is?5unknown?5or?5unsuppo@ DB 'The option '
	DB	'is unknown or unsupported by the indicated protocol family.', 00H ; `string'
CONST	ENDS
;	COMDAT ??_C@_0CL@IBEKHBIK@The?5level?5parameter?5is?5unknown?5o@
CONST	SEGMENT
??_C@_0CL@IBEKHBIK@The?5level?5parameter?5is?5unknown?5o@ DB 'The level p'
	DB	'arameter is unknown or invalid.', 00H	; `string'
CONST	ENDS
;	COMDAT ??_C@_0IA@DNGLFLJJ@One?5of?5the?5optval?5or?5the?5optlen?5@
CONST	SEGMENT
??_C@_0IA@DNGLFLJJ@One?5of?5the?5optval?5or?5the?5optlen?5@ DB 'One of th'
	DB	'e optval or the optlen parameters is not a valid part of the '
	DB	'user address space, or the optlen parameter is too small.', 00H ; `string'
; Function compile flags: /Ogsy
; File c:\darkeden\designed_common\project\client\packet\socketapi.cpp
CONST	ENDS
;	COMDAT ?getsockopt_ex@SocketAPI@@YAXIHHPAXPAI@Z
_TEXT	SEGMENT
$T103586 = -276						; size = 20
$T103598 = -256						; size = 20
$T103589 = -236						; size = 20
$T103601 = -216						; size = 20
$T103595 = -196						; size = 20
$T103592 = -176						; size = 20
$T103583 = -156						; size = 20
$T103604 = -136						; size = 24
$T103605 = -112						; size = 12
$T103584 = -100						; size = 12
$T103599 = -88						; size = 12
$T103596 = -76						; size = 12
$T103587 = -64						; size = 12
$T103593 = -52						; size = 12
$T103602 = -40						; size = 12
$T103590 = -28						; size = 12
$T103606 = -13						; size = 1
$T103603 = -13						; size = 1
$T103600 = -13						; size = 1
$T103597 = -13						; size = 1
$T103594 = -13						; size = 1
$T103591 = -13						; size = 1
$T103588 = -13						; size = 1
__$EHRec$ = -12						; size = 12
_s$ = 8							; size = 4
_level$ = 12						; size = 4
_optname$ = 16						; size = 4
_optval$ = 20						; size = 4
_optlen$ = 24						; size = 4
?getsockopt_ex@SocketAPI@@YAXIHHPAXPAI@Z PROC NEAR	; SocketAPI::getsockopt_ex, COMDAT

; 477  : {

  00000	b8 00 00 00 00	 mov	 eax, __ehhandler$?getsockopt_ex@SocketAPI@@YAXIHHPAXPAI@Z
  00005	e8 00 00 00 00	 call	 __EH_prolog
  0000a	81 ec 08 01 00
	00		 sub	 esp, 264		; 00000108H

; 478  : 	__BEGIN_TRY
; 479  : 
; 480  : #if __LINUX__
; 481  : 	if ( getsockopt( s , level , optname , optval , optlen ) == SOCKET_ERROR ) {
; 482  : 		switch ( errno ) {
; 483  : 		case EBADF : 
; 484  : 			throw Error("Bad descriptor.");
; 485  : 		case ENOTSOCK : 
; 486  : 			throw Error("Not a socket.");
; 487  : 		case ENOPROTOOPT : 
; 488  : 			throw Error("The option is unknown at the level indicated.");
; 489  : 		case EFAULT : 
; 490  : 			throw Error("The address pointed to by optval is not in a valid part of the process address space. For getsockopt, this error may also be returned if optlen is not in a valid part of the process address space.");
; 491  : 		default :
; 492  : 			throw UnknownError(strerror(errno),errno);
; 493  : 		}//end of switch
; 494  : 	}
; 495  : #elif __WINDOWS__
; 496  : 	if ( getsockopt( s , level , optname , (char*)optval , (int*)optlen ) == SOCKET_ERROR ) {

  00010	ff 75 18	 push	 DWORD PTR _optlen$[ebp]
  00013	ff 75 14	 push	 DWORD PTR _optval$[ebp]
  00016	ff 75 10	 push	 DWORD PTR _optname$[ebp]
  00019	ff 75 0c	 push	 DWORD PTR _level$[ebp]
  0001c	ff 75 08	 push	 DWORD PTR _s$[ebp]
  0001f	e8 00 00 00 00	 call	 _getsockopt@20
  00024	83 f8 ff	 cmp	 eax, -1
  00027	0f 85 f3 01 00
	00		 jne	 $L99981

; 497  : 		switch ( WSAGetLastError() ) {

  0002d	e8 00 00 00 00	 call	 _WSAGetLastError@0
  00032	2d 1e 27 00 00	 sub	 eax, 10014		; 0000271eH
  00037	0f 84 ab 01 00
	00		 je	 $L103699
  0003d	83 e8 08	 sub	 eax, 8
  00040	0f 84 6e 01 00
	00		 je	 $L103785
  00046	83 e8 0e	 sub	 eax, 14			; 0000000eH
  00049	0f 84 31 01 00
	00		 je	 $L103742
  0004f	48		 dec	 eax
  00050	48		 dec	 eax
  00051	0f 84 f2 00 00
	00		 je	 $L103871
  00057	83 e8 04	 sub	 eax, 4
  0005a	0f 84 b2 00 00
	00		 je	 $L103828
  00060	83 e8 08	 sub	 eax, 8
  00063	74 76		 je	 SHORT $L103656
  00065	83 e8 2b	 sub	 eax, 43			; 0000002bH

; 512  : 		default : 
; 513  : 			throw UnknownError("getsockopt()");

  00068	8d 45 f3	 lea	 eax, DWORD PTR $T103606[ebp]
  0006b	50		 push	 eax
  0006c	74 3d		 je	 SHORT $L99984
  0006e	68 00 00 00 00	 push	 OFFSET FLAT:??_C@_0N@KCEFHCID@getsockopt?$CI?$CJ?$AA@
  00073	8d 4d 90	 lea	 ecx, DWORD PTR $T103605[ebp]
  00076	e8 00 00 00 00	 call	 ??0?$basic_string@DV?$char_traits@D@_STL@@V?$allocator@D@2@@_STL@@QAE@PBDABV?$allocator@D@1@@Z ; _STL::basic_string<char,_STL::char_traits<char>,_STL::allocator<char> >::basic_string<char,_STL::char_traits<char>,_STL::allocator<char> >
  0007b	8d 45 90	 lea	 eax, DWORD PTR $T103605[ebp]
  0007e	50		 push	 eax
  0007f	8d 8d 78 ff ff
	ff		 lea	 ecx, DWORD PTR $T103604[ebp]
  00085	c7 45 fc 07 00
	00 00		 mov	 DWORD PTR __$EHRec$[ebp+8], 7
  0008c	e8 00 00 00 00	 call	 ??0Error@@QAE@ABV?$basic_string@DV?$char_traits@D@_STL@@V?$allocator@D@2@@_STL@@@Z ; Error::Error
  00091	c7 85 78 ff ff
	ff 00 00 00 00	 mov	 DWORD PTR $T103604[ebp], OFFSET FLAT:??_7UnknownError@@6B@
  0009b	68 00 00 00 00	 push	 OFFSET FLAT:__TI3?AVUnknownError@@
  000a0	8d 85 78 ff ff
	ff		 lea	 eax, DWORD PTR $T103604[ebp]
  000a6	e9 6f 01 00 00	 jmp	 $L103966
$L99984:

; 498  : 		case WSANOTINITIALISED : 
; 499  : 			throw Error("A successful WSAStartup must occur before using this function.");

  000ab	68 00 00 00 00	 push	 OFFSET FLAT:??_C@_0DP@GBHCAAKN@A?5successful?5WSAStartup?5must?5occ@
  000b0	8d 4d 9c	 lea	 ecx, DWORD PTR $T103584[ebp]
  000b3	e8 00 00 00 00	 call	 ??0?$basic_string@DV?$char_traits@D@_STL@@V?$allocator@D@2@@_STL@@QAE@PBDABV?$allocator@D@1@@Z ; _STL::basic_string<char,_STL::char_traits<char>,_STL::allocator<char> >::basic_string<char,_STL::char_traits<char>,_STL::allocator<char> >
  000b8	83 65 fc 00	 and	 DWORD PTR __$EHRec$[ebp+8], 0
  000bc	8d 45 9c	 lea	 eax, DWORD PTR $T103584[ebp]
  000bf	50		 push	 eax
  000c0	8d 8d 64 ff ff
	ff		 lea	 ecx, DWORD PTR $T103583[ebp]
  000c6	e8 00 00 00 00	 call	 ??0Error@@QAE@ABV?$basic_string@DV?$char_traits@D@_STL@@V?$allocator@D@2@@_STL@@@Z ; Error::Error
  000cb	68 00 00 00 00	 push	 OFFSET FLAT:__TI2?AVError@@
  000d0	8d 85 64 ff ff
	ff		 lea	 eax, DWORD PTR $T103583[ebp]
  000d6	e9 3f 01 00 00	 jmp	 $L103966
$L103656:

; 500  : 		case WSAENETDOWN : 
; 501  : 			throw Error("The network subsystem has failed.");

  000db	8d 45 f3	 lea	 eax, DWORD PTR $T103588[ebp]
  000de	50		 push	 eax
  000df	68 00 00 00 00	 push	 OFFSET FLAT:??_C@_0CC@ECDFBOEN@The?5network?5subsystem?5has?5failed@
  000e4	8d 4d c0	 lea	 ecx, DWORD PTR $T103587[ebp]
  000e7	e8 00 00 00 00	 call	 ??0?$basic_string@DV?$char_traits@D@_STL@@V?$allocator@D@2@@_STL@@QAE@PBDABV?$allocator@D@1@@Z ; _STL::basic_string<char,_STL::char_traits<char>,_STL::allocator<char> >::basic_string<char,_STL::char_traits<char>,_STL::allocator<char> >
  000ec	8d 45 c0	 lea	 eax, DWORD PTR $T103587[ebp]
  000ef	50		 push	 eax
  000f0	8d 8d ec fe ff
	ff		 lea	 ecx, DWORD PTR $T103586[ebp]
  000f6	c7 45 fc 01 00
	00 00		 mov	 DWORD PTR __$EHRec$[ebp+8], 1
  000fd	e8 00 00 00 00	 call	 ??0Error@@QAE@ABV?$basic_string@DV?$char_traits@D@_STL@@V?$allocator@D@2@@_STL@@@Z ; Error::Error
  00102	68 00 00 00 00	 push	 OFFSET FLAT:__TI2?AVError@@
  00107	8d 85 ec fe ff
	ff		 lea	 eax, DWORD PTR $T103586[ebp]
  0010d	e9 08 01 00 00	 jmp	 $L103966

; 506  : 		case WSAEINVAL : 
; 507  : 			throw Error("The level parameter is unknown or invalid.");

$L103828:

; 508  : 		case WSAENOPROTOOPT : 
; 509  : 			throw Error("The option is unknown or unsupported by the indicated protocol family.");

  00112	8d 45 f3	 lea	 eax, DWORD PTR $T103600[ebp]
  00115	50		 push	 eax
  00116	68 00 00 00 00	 push	 OFFSET FLAT:??_C@_0EH@CBGGLBMD@The?5option?5is?5unknown?5or?5unsuppo@
  0011b	8d 4d a8	 lea	 ecx, DWORD PTR $T103599[ebp]
  0011e	e8 00 00 00 00	 call	 ??0?$basic_string@DV?$char_traits@D@_STL@@V?$allocator@D@2@@_STL@@QAE@PBDABV?$allocator@D@1@@Z ; _STL::basic_string<char,_STL::char_traits<char>,_STL::allocator<char> >::basic_string<char,_STL::char_traits<char>,_STL::allocator<char> >
  00123	8d 45 a8	 lea	 eax, DWORD PTR $T103599[ebp]
  00126	50		 push	 eax
  00127	8d 8d 00 ff ff
	ff		 lea	 ecx, DWORD PTR $T103598[ebp]
  0012d	c7 45 fc 05 00
	00 00		 mov	 DWORD PTR __$EHRec$[ebp+8], 5
  00134	e8 00 00 00 00	 call	 ??0Error@@QAE@ABV?$basic_string@DV?$char_traits@D@_STL@@V?$allocator@D@2@@_STL@@@Z ; Error::Error
  00139	68 00 00 00 00	 push	 OFFSET FLAT:__TI2?AVError@@
  0013e	8d 85 00 ff ff
	ff		 lea	 eax, DWORD PTR $T103598[ebp]
  00144	e9 d1 00 00 00	 jmp	 $L103966
$L103871:

; 510  : 		case WSAENOTSOCK : 
; 511  : 			throw Error("The descriptor is not a socket.");

  00149	8d 45 f3	 lea	 eax, DWORD PTR $T103603[ebp]
  0014c	50		 push	 eax
  0014d	68 00 00 00 00	 push	 OFFSET FLAT:??_C@_0CA@EGNBMMLP@The?5descriptor?5is?5not?5a?5socket?4?$AA@
  00152	8d 4d d8	 lea	 ecx, DWORD PTR $T103602[ebp]
  00155	e8 00 00 00 00	 call	 ??0?$basic_string@DV?$char_traits@D@_STL@@V?$allocator@D@2@@_STL@@QAE@PBDABV?$allocator@D@1@@Z ; _STL::basic_string<char,_STL::char_traits<char>,_STL::allocator<char> >::basic_string<char,_STL::char_traits<char>,_STL::allocator<char> >
  0015a	8d 45 d8	 lea	 eax, DWORD PTR $T103602[ebp]
  0015d	50		 push	 eax
  0015e	8d 8d 28 ff ff
	ff		 lea	 ecx, DWORD PTR $T103601[ebp]
  00164	c7 45 fc 06 00
	00 00		 mov	 DWORD PTR __$EHRec$[ebp+8], 6
  0016b	e8 00 00 00 00	 call	 ??0Error@@QAE@ABV?$basic_string@DV?$char_traits@D@_STL@@V?$allocator@D@2@@_STL@@@Z ; Error::Error
  00170	68 00 00 00 00	 push	 OFFSET FLAT:__TI2?AVError@@
  00175	8d 85 28 ff ff
	ff		 lea	 eax, DWORD PTR $T103601[ebp]
  0017b	e9 9a 00 00 00	 jmp	 $L103966

; 502  : 		case WSAEFAULT : 
; 503  : 			throw Error("One of the optval or the optlen parameters is not a valid part of the user address space, or the optlen parameter is too small.");

$L103742:

; 504  : 		case WSAEINPROGRESS : 
; 505  : 			throw Error("A blocking Windows Sockets 1.1 call is in progress, or the service provider is still processing a callback function.");

  00180	8d 45 f3	 lea	 eax, DWORD PTR $T103594[ebp]
  00183	50		 push	 eax
  00184	68 00 00 00 00	 push	 OFFSET FLAT:??_C@_0HF@MHMDKDMH@A?5blocking?5Windows?5Sockets?51?41?5c@
  00189	8d 4d cc	 lea	 ecx, DWORD PTR $T103593[ebp]
  0018c	e8 00 00 00 00	 call	 ??0?$basic_string@DV?$char_traits@D@_STL@@V?$allocator@D@2@@_STL@@QAE@PBDABV?$allocator@D@1@@Z ; _STL::basic_string<char,_STL::char_traits<char>,_STL::allocator<char> >::basic_string<char,_STL::char_traits<char>,_STL::allocator<char> >
  00191	8d 45 cc	 lea	 eax, DWORD PTR $T103593[ebp]
  00194	50		 push	 eax
  00195	8d 8d 50 ff ff
	ff		 lea	 ecx, DWORD PTR $T103592[ebp]
  0019b	c7 45 fc 03 00
	00 00		 mov	 DWORD PTR __$EHRec$[ebp+8], 3
  001a2	e8 00 00 00 00	 call	 ??0Error@@QAE@ABV?$basic_string@DV?$char_traits@D@_STL@@V?$allocator@D@2@@_STL@@@Z ; Error::Error
  001a7	68 00 00 00 00	 push	 OFFSET FLAT:__TI2?AVError@@
  001ac	8d 85 50 ff ff
	ff		 lea	 eax, DWORD PTR $T103592[ebp]
  001b2	eb 66		 jmp	 SHORT $L103966
$L103785:

; 506  : 		case WSAEINVAL : 
; 507  : 			throw Error("The level parameter is unknown or invalid.");

  001b4	8d 45 f3	 lea	 eax, DWORD PTR $T103597[ebp]
  001b7	50		 push	 eax
  001b8	68 00 00 00 00	 push	 OFFSET FLAT:??_C@_0CL@IBEKHBIK@The?5level?5parameter?5is?5unknown?5o@
  001bd	8d 4d b4	 lea	 ecx, DWORD PTR $T103596[ebp]
  001c0	e8 00 00 00 00	 call	 ??0?$basic_string@DV?$char_traits@D@_STL@@V?$allocator@D@2@@_STL@@QAE@PBDABV?$allocator@D@1@@Z ; _STL::basic_string<char,_STL::char_traits<char>,_STL::allocator<char> >::basic_string<char,_STL::char_traits<char>,_STL::allocator<char> >
  001c5	8d 45 b4	 lea	 eax, DWORD PTR $T103596[ebp]
  001c8	50		 push	 eax
  001c9	8d 8d 3c ff ff
	ff		 lea	 ecx, DWORD PTR $T103595[ebp]
  001cf	c7 45 fc 04 00
	00 00		 mov	 DWORD PTR __$EHRec$[ebp+8], 4
  001d6	e8 00 00 00 00	 call	 ??0Error@@QAE@ABV?$basic_string@DV?$char_traits@D@_STL@@V?$allocator@D@2@@_STL@@@Z ; Error::Error
  001db	68 00 00 00 00	 push	 OFFSET FLAT:__TI2?AVError@@
  001e0	8d 85 3c ff ff
	ff		 lea	 eax, DWORD PTR $T103595[ebp]
  001e6	eb 32		 jmp	 SHORT $L103966

; 500  : 		case WSAENETDOWN : 
; 501  : 			throw Error("The network subsystem has failed.");

$L103699:

; 502  : 		case WSAEFAULT : 
; 503  : 			throw Error("One of the optval or the optlen parameters is not a valid part of the user address space, or the optlen parameter is too small.");

  001e8	8d 45 f3	 lea	 eax, DWORD PTR $T103591[ebp]
  001eb	50		 push	 eax
  001ec	68 00 00 00 00	 push	 OFFSET FLAT:??_C@_0IA@DNGLFLJJ@One?5of?5the?5optval?5or?5the?5optlen?5@
  001f1	8d 4d e4	 lea	 ecx, DWORD PTR $T103590[ebp]
  001f4	e8 00 00 00 00	 call	 ??0?$basic_string@DV?$char_traits@D@_STL@@V?$allocator@D@2@@_STL@@QAE@PBDABV?$allocator@D@1@@Z ; _STL::basic_string<char,_STL::char_traits<char>,_STL::allocator<char> >::basic_string<char,_STL::char_traits<char>,_STL::allocator<char> >
  001f9	8d 45 e4	 lea	 eax, DWORD PTR $T103590[ebp]
  001fc	50		 push	 eax
  001fd	8d 8d 14 ff ff
	ff		 lea	 ecx, DWORD PTR $T103589[ebp]
  00203	c7 45 fc 02 00
	00 00		 mov	 DWORD PTR __$EHRec$[ebp+8], 2
  0020a	e8 00 00 00 00	 call	 ??0Error@@QAE@ABV?$basic_string@DV?$char_traits@D@_STL@@V?$allocator@D@2@@_STL@@@Z ; Error::Error
  0020f	68 00 00 00 00	 push	 OFFSET FLAT:__TI2?AVError@@
  00214	8d 85 14 ff ff
	ff		 lea	 eax, DWORD PTR $T103589[ebp]
$L103966:
  0021a	50		 push	 eax
  0021b	e8 00 00 00 00	 call	 __CxxThrowException@8
$L103968:
$L99981:

; 514  : 		}//end of switch
; 515  : 	}
; 516  : #endif
; 517  : 	
; 518  : 	__END_CATCH
; 519  : }

  00220	8b 4d f4	 mov	 ecx, DWORD PTR __$EHRec$[ebp]
  00223	64 89 0d 00 00
	00 00		 mov	 DWORD PTR fs:__except_list, ecx
  0022a	c9		 leave
  0022b	c3		 ret	 0
$L103965:
_TEXT	ENDS
;	COMDAT text$x
text$x	SEGMENT
$L103614:
  00000	8d 4d 90	 lea	 ecx, DWORD PTR $T103605[ebp]
  00003	e9 00 00 00 00	 jmp	 ??1?$basic_string@DV?$char_traits@D@_STL@@V?$allocator@D@2@@_STL@@QAE@XZ ; _STL::basic_string<char,_STL::char_traits<char>,_STL::allocator<char> >::~basic_string<char,_STL::char_traits<char>,_STL::allocator<char> >
$L103607:
  00008	8d 4d 9c	 lea	 ecx, DWORD PTR $T103584[ebp]
  0000b	e9 00 00 00 00	 jmp	 ??1?$basic_string@DV?$char_traits@D@_STL@@V?$allocator@D@2@@_STL@@QAE@XZ ; _STL::basic_string<char,_STL::char_traits<char>,_STL::allocator<char> >::~basic_string<char,_STL::char_traits<char>,_STL::allocator<char> >
$L103608:
  00010	8d 4d c0	 lea	 ecx, DWORD PTR $T103587[ebp]
  00013	e9 00 00 00 00	 jmp	 ??1?$basic_string@DV?$char_traits@D@_STL@@V?$allocator@D@2@@_STL@@QAE@XZ ; _STL::basic_string<char,_STL::char_traits<char>,_STL::allocator<char> >::~basic_string<char,_STL::char_traits<char>,_STL::allocator<char> >
$L103612:
  00018	8d 4d a8	 lea	 ecx, DWORD PTR $T103599[ebp]
  0001b	e9 00 00 00 00	 jmp	 ??1?$basic_string@DV?$char_traits@D@_STL@@V?$allocator@D@2@@_STL@@QAE@XZ ; _STL::basic_string<char,_STL::char_traits<char>,_STL::allocator<char> >::~basic_string<char,_STL::char_traits<char>,_STL::allocator<char> >
$L103613:
  00020	8d 4d d8	 lea	 ecx, DWORD PTR $T103602[ebp]
  00023	e9 00 00 00 00	 jmp	 ??1?$basic_string@DV?$char_traits@D@_STL@@V?$allocator@D@2@@_STL@@QAE@XZ ; _STL::basic_string<char,_STL::char_traits<char>,_STL::allocator<char> >::~basic_string<char,_STL::char_traits<char>,_STL::allocator<char> >
$L103610:
  00028	8d 4d cc	 lea	 ecx, DWORD PTR $T103593[ebp]
  0002b	e9 00 00 00 00	 jmp	 ??1?$basic_string@DV?$char_traits@D@_STL@@V?$allocator@D@2@@_STL@@QAE@XZ ; _STL::basic_string<char,_STL::char_traits<char>,_STL::allocator<char> >::~basic_string<char,_STL::char_traits<char>,_STL::allocator<char> >
$L103611:
  00030	8d 4d b4	 lea	 ecx, DWORD PTR $T103596[ebp]
  00033	e9 00 00 00 00	 jmp	 ??1?$basic_string@DV?$char_traits@D@_STL@@V?$allocator@D@2@@_STL@@QAE@XZ ; _STL::basic_string<char,_STL::char_traits<char>,_STL::allocator<char> >::~basic_string<char,_STL::char_traits<char>,_STL::allocator<char> >
$L103609:
  00038	8d 4d e4	 lea	 ecx, DWORD PTR $T103590[ebp]
  0003b	e9 00 00 00 00	 jmp	 ??1?$basic_string@DV?$char_traits@D@_STL@@V?$allocator@D@2@@_STL@@QAE@XZ ; _STL::basic_string<char,_STL::char_traits<char>,_STL::allocator<char> >::~basic_string<char,_STL::char_traits<char>,_STL::allocator<char> >
__ehhandler$?getsockopt_ex@SocketAPI@@YAXIHHPAXPAI@Z:
  00040	b8 00 00 00 00	 mov	 eax, OFFSET FLAT:$T103963
  00045	e9 00 00 00 00	 jmp	 ___CxxFrameHandler
text$x	ENDS
?getsockopt_ex@SocketAPI@@YAXIHHPAXPAI@Z ENDP		; SocketAPI::getsockopt_ex
PUBLIC	?setsockopt_ex@SocketAPI@@YAXIHHPBXI@Z		; SocketAPI::setsockopt_ex
PUBLIC	??_C@_0FN@OOGMPNPC@optval?5is?5not?5in?5a?5valid?5part?5of@ ; `string'
PUBLIC	??_C@_0DP@KPAMKPPE@level?5is?5not?5valid?0?5or?5the?5infor@ ; `string'
PUBLIC	??_C@_0DD@MEHHAPMO@Connection?5has?5timed?5out?5when?5SO@ ; `string'
PUBLIC	??_C@_0GP@DNBIAMDO@The?5option?5is?5unknown?5or?5unsuppo@ ; `string'
PUBLIC	??_C@_0DE@PNLMBPGF@Connection?5has?5been?5reset?5when?5S@ ; `string'
PUBLIC	??_C@_0N@NGPLLOMP@setsockopt?$CI?$CJ?$AA@	; `string'
EXTRN	_setsockopt@20:NEAR
;	COMDAT xdata$x
; File c:\stlport-4.6.1\stlport\stl\_alloc.h
xdata$x	SEGMENT
$T104452 DD	0ffffffffH
	DD	FLAT:$L104004
	DD	0ffffffffH
	DD	FLAT:$L104005
	DD	0ffffffffH
	DD	FLAT:$L104006
	DD	0ffffffffH
	DD	FLAT:$L104007
	DD	0ffffffffH
	DD	FLAT:$L104008
	DD	0ffffffffH
	DD	FLAT:$L104009
	DD	0ffffffffH
	DD	FLAT:$L104010
	DD	0ffffffffH
	DD	FLAT:$L104011
	DD	0ffffffffH
	DD	FLAT:$L104012
	DD	0ffffffffH
	DD	FLAT:$L104013
$T104448 DD	019930520H
	DD	0aH
	DD	FLAT:$T104452
	DD	2 DUP(00H)
	DD	2 DUP(00H)
xdata$x	ENDS
;	COMDAT ??_C@_0DP@KPAMKPPE@level?5is?5not?5valid?0?5or?5the?5infor@
CONST	SEGMENT
??_C@_0DP@KPAMKPPE@level?5is?5not?5valid?0?5or?5the?5infor@ DB 'level is '
	DB	'not valid, or the information in optval is not valid.', 00H ; `string'
CONST	ENDS
;	COMDAT ??_C@_0FN@OOGMPNPC@optval?5is?5not?5in?5a?5valid?5part?5of@
CONST	SEGMENT
??_C@_0FN@OOGMPNPC@optval?5is?5not?5in?5a?5valid?5part?5of@ DB 'optval is'
	DB	' not in a valid part of the process address space or optlen p'
	DB	'arameter is too small.', 00H		; `string'
CONST	ENDS
;	COMDAT ??_C@_0GP@DNBIAMDO@The?5option?5is?5unknown?5or?5unsuppo@
CONST	SEGMENT
??_C@_0GP@DNBIAMDO@The?5option?5is?5unknown?5or?5unsuppo@ DB 'The option '
	DB	'is unknown or unsupported for the specified provider or socke'
	DB	't (see SO_GROUP_PRIORITY limitations).', 00H ; `string'
CONST	ENDS
;	COMDAT ??_C@_0N@NGPLLOMP@setsockopt?$CI?$CJ?$AA@
CONST	SEGMENT
??_C@_0N@NGPLLOMP@setsockopt?$CI?$CJ?$AA@ DB 'setsockopt()', 00H ; `string'
CONST	ENDS
;	COMDAT ??_C@_0DE@PNLMBPGF@Connection?5has?5been?5reset?5when?5S@
CONST	SEGMENT
??_C@_0DE@PNLMBPGF@Connection?5has?5been?5reset?5when?5S@ DB 'Connection '
	DB	'has been reset when SO_KEEPALIVE is set.', 00H ; `string'
CONST	ENDS
;	COMDAT ??_C@_0DD@MEHHAPMO@Connection?5has?5timed?5out?5when?5SO@
CONST	SEGMENT
??_C@_0DD@MEHHAPMO@Connection?5has?5timed?5out?5when?5SO@ DB 'Connection '
	DB	'has timed out when SO_KEEPALIVE is set.', 00H ; `string'
; Function compile flags: /Ogsy
; File c:\darkeden\designed_common\project\client\packet\socketapi.cpp
CONST	ENDS
;	COMDAT ?setsockopt_ex@SocketAPI@@YAXIHHPBXI@Z
_TEXT	SEGMENT
$T103982 = -340						; size = 20
$T103991 = -320						; size = 20
$T103976 = -300						; size = 20
$T103985 = -280						; size = 20
$T103988 = -260						; size = 20
$T103979 = -240						; size = 20
$T103994 = -220						; size = 20
$T103973 = -200						; size = 20
$T103997 = -180						; size = 20
$T104000 = -160						; size = 24
$T103983 = -136						; size = 12
$T103998 = -124						; size = 12
$T103980 = -112						; size = 12
$T103989 = -100						; size = 12
$T103992 = -88						; size = 12
$T103995 = -76						; size = 12
$T103986 = -64						; size = 12
$T103974 = -52						; size = 12
$T104001 = -40						; size = 12
$T103977 = -28						; size = 12
$T104002 = -13						; size = 1
$T103999 = -13						; size = 1
$T103996 = -13						; size = 1
$T103993 = -13						; size = 1
$T103990 = -13						; size = 1
$T103987 = -13						; size = 1
$T103984 = -13						; size = 1
$T103981 = -13						; size = 1
$T103978 = -13						; size = 1
$T103975 = -13						; size = 1
__$EHRec$ = -12						; size = 12
_s$ = 8							; size = 4
_level$ = 12						; size = 4
_optname$ = 16						; size = 4
_optval$ = 20						; size = 4
_optlen$ = 24						; size = 4
?setsockopt_ex@SocketAPI@@YAXIHHPBXI@Z PROC NEAR	; SocketAPI::setsockopt_ex, COMDAT

; 545  : {

  00000	b8 00 00 00 00	 mov	 eax, __ehhandler$?setsockopt_ex@SocketAPI@@YAXIHHPBXI@Z
  00005	e8 00 00 00 00	 call	 __EH_prolog
  0000a	81 ec 48 01 00
	00		 sub	 esp, 328		; 00000148H

; 546  : 	__BEGIN_TRY
; 547  : 
; 548  : #if __LINUX__
; 549  : 	if ( setsockopt( s , level , optname , optval , optlen ) == SOCKET_ERROR ) {
; 550  : 		switch ( errno ) {
; 551  : 			case EBADF : 
; 552  : 				throw Error("Bad descriptor.");
; 553  : 			case ENOTSOCK : 
; 554  : 				throw Error("Not a socket.");
; 555  : 			case ENOPROTOOPT : 
; 556  : 				throw Error("The option is unknown at the level indicated.");
; 557  : 			case EFAULT : 
; 558  : 				throw Error("The address pointed to by optval is not in a valid part of the process address space. For getsockopt, this error may also be returned if optlen is not in a valid part of the process address space.");
; 559  : 			default :
; 560  : 				throw UnknownError(strerror(errno),errno);
; 561  : 		}//end of switch
; 562  : 	}
; 563  : #elif __WINDOWS__
; 564  : 	if ( setsockopt( s , level , optname , (char*)optval , optlen ) == SOCKET_ERROR ) {

  00010	ff 75 18	 push	 DWORD PTR _optlen$[ebp]
  00013	ff 75 14	 push	 DWORD PTR _optval$[ebp]
  00016	ff 75 10	 push	 DWORD PTR _optname$[ebp]
  00019	ff 75 0c	 push	 DWORD PTR _level$[ebp]
  0001c	ff 75 08	 push	 DWORD PTR _s$[ebp]
  0001f	e8 00 00 00 00	 call	 _setsockopt@20
  00024	83 f8 ff	 cmp	 eax, -1
  00027	0f 85 84 02 00
	00		 jne	 $L100040

; 565  : 		switch ( WSAGetLastError() ) {

  0002d	e8 00 00 00 00	 call	 _WSAGetLastError@0
  00032	b9 3a 27 00 00	 mov	 ecx, 10042		; 0000273aH
  00037	3b c1		 cmp	 eax, ecx
  00039	0f 8f 40 01 00
	00		 jg	 $L104003
  0003f	0f 84 03 01 00
	00		 je	 $L104270
  00045	2d 1e 27 00 00	 sub	 eax, 10014		; 0000271eH
  0004a	0f 84 c1 00 00
	00		 je	 $L104098
  00050	83 e8 08	 sub	 eax, 8
  00053	0f 84 81 00 00
	00		 je	 $L104184
  00059	83 e8 0e	 sub	 eax, 14			; 0000000eH
  0005c	74 3f		 je	 SHORT $L104141
  0005e	48		 dec	 eax
  0005f	48		 dec	 eax
  00060	0f 85 36 01 00
	00		 jne	 $L104399

; 582  : 		case WSAENOTSOCK : 
; 583  : 			throw Error("The descriptor is not a socket.");

  00066	8d 45 f3	 lea	 eax, DWORD PTR $T103999[ebp]
  00069	50		 push	 eax
  0006a	68 00 00 00 00	 push	 OFFSET FLAT:??_C@_0CA@EGNBMMLP@The?5descriptor?5is?5not?5a?5socket?4?$AA@
  0006f	8d 4d 84	 lea	 ecx, DWORD PTR $T103998[ebp]
  00072	e8 00 00 00 00	 call	 ??0?$basic_string@DV?$char_traits@D@_STL@@V?$allocator@D@2@@_STL@@QAE@PBDABV?$allocator@D@1@@Z ; _STL::basic_string<char,_STL::char_traits<char>,_STL::allocator<char> >::basic_string<char,_STL::char_traits<char>,_STL::allocator<char> >
  00077	8d 45 84	 lea	 eax, DWORD PTR $T103998[ebp]
  0007a	50		 push	 eax
  0007b	8d 8d 4c ff ff
	ff		 lea	 ecx, DWORD PTR $T103997[ebp]
  00081	c7 45 fc 08 00
	00 00		 mov	 DWORD PTR __$EHRec$[ebp+8], 8
  00088	e8 00 00 00 00	 call	 ??0Error@@QAE@ABV?$basic_string@DV?$char_traits@D@_STL@@V?$allocator@D@2@@_STL@@@Z ; Error::Error
  0008d	68 00 00 00 00	 push	 OFFSET FLAT:__TI2?AVError@@
  00092	8d 85 4c ff ff
	ff		 lea	 eax, DWORD PTR $T103997[ebp]
  00098	e9 0e 02 00 00	 jmp	 $L104451

; 570  : 		case WSAEFAULT : 
; 571  : 			throw Error("optval is not in a valid part of the process address space or optlen parameter is too small.");

$L104141:

; 572  : 		case WSAEINPROGRESS : 
; 573  : 			throw Error("A blocking Windows Sockets 1.1 call is in progress, or the service provider is still processing a callback function.");

  0009d	8d 45 f3	 lea	 eax, DWORD PTR $T103984[ebp]
  000a0	50		 push	 eax
  000a1	68 00 00 00 00	 push	 OFFSET FLAT:??_C@_0HF@MHMDKDMH@A?5blocking?5Windows?5Sockets?51?41?5c@
  000a6	8d 8d 78 ff ff
	ff		 lea	 ecx, DWORD PTR $T103983[ebp]
  000ac	e8 00 00 00 00	 call	 ??0?$basic_string@DV?$char_traits@D@_STL@@V?$allocator@D@2@@_STL@@QAE@PBDABV?$allocator@D@1@@Z ; _STL::basic_string<char,_STL::char_traits<char>,_STL::allocator<char> >::basic_string<char,_STL::char_traits<char>,_STL::allocator<char> >
  000b1	8d 85 78 ff ff
	ff		 lea	 eax, DWORD PTR $T103983[ebp]
  000b7	50		 push	 eax
  000b8	8d 8d ac fe ff
	ff		 lea	 ecx, DWORD PTR $T103982[ebp]
  000be	c7 45 fc 03 00
	00 00		 mov	 DWORD PTR __$EHRec$[ebp+8], 3
  000c5	e8 00 00 00 00	 call	 ??0Error@@QAE@ABV?$basic_string@DV?$char_traits@D@_STL@@V?$allocator@D@2@@_STL@@@Z ; Error::Error
  000ca	68 00 00 00 00	 push	 OFFSET FLAT:__TI2?AVError@@
  000cf	8d 85 ac fe ff
	ff		 lea	 eax, DWORD PTR $T103982[ebp]
  000d5	e9 d1 01 00 00	 jmp	 $L104451
$L104184:

; 574  : 		case WSAEINVAL : 
; 575  : 			throw Error("level is not valid, or the information in optval is not valid.");

  000da	8d 45 f3	 lea	 eax, DWORD PTR $T103987[ebp]
  000dd	50		 push	 eax
  000de	68 00 00 00 00	 push	 OFFSET FLAT:??_C@_0DP@KPAMKPPE@level?5is?5not?5valid?0?5or?5the?5infor@
  000e3	8d 4d c0	 lea	 ecx, DWORD PTR $T103986[ebp]
  000e6	e8 00 00 00 00	 call	 ??0?$basic_string@DV?$char_traits@D@_STL@@V?$allocator@D@2@@_STL@@QAE@PBDABV?$allocator@D@1@@Z ; _STL::basic_string<char,_STL::char_traits<char>,_STL::allocator<char> >::basic_string<char,_STL::char_traits<char>,_STL::allocator<char> >
  000eb	8d 45 c0	 lea	 eax, DWORD PTR $T103986[ebp]
  000ee	50		 push	 eax
  000ef	8d 8d e8 fe ff
	ff		 lea	 ecx, DWORD PTR $T103985[ebp]
  000f5	c7 45 fc 04 00
	00 00		 mov	 DWORD PTR __$EHRec$[ebp+8], 4
  000fc	e8 00 00 00 00	 call	 ??0Error@@QAE@ABV?$basic_string@DV?$char_traits@D@_STL@@V?$allocator@D@2@@_STL@@@Z ; Error::Error
  00101	68 00 00 00 00	 push	 OFFSET FLAT:__TI2?AVError@@
  00106	8d 85 e8 fe ff
	ff		 lea	 eax, DWORD PTR $T103985[ebp]
  0010c	e9 9a 01 00 00	 jmp	 $L104451

; 568  : 		case WSAENETDOWN : 
; 569  : 			throw Error("The network subsystem has failed.");

$L104098:

; 570  : 		case WSAEFAULT : 
; 571  : 			throw Error("optval is not in a valid part of the process address space or optlen parameter is too small.");

  00111	8d 45 f3	 lea	 eax, DWORD PTR $T103981[ebp]
  00114	50		 push	 eax
  00115	68 00 00 00 00	 push	 OFFSET FLAT:??_C@_0FN@OOGMPNPC@optval?5is?5not?5in?5a?5valid?5part?5of@
  0011a	8d 4d 90	 lea	 ecx, DWORD PTR $T103980[ebp]
  0011d	e8 00 00 00 00	 call	 ??0?$basic_string@DV?$char_traits@D@_STL@@V?$allocator@D@2@@_STL@@QAE@PBDABV?$allocator@D@1@@Z ; _STL::basic_string<char,_STL::char_traits<char>,_STL::allocator<char> >::basic_string<char,_STL::char_traits<char>,_STL::allocator<char> >
  00122	8d 45 90	 lea	 eax, DWORD PTR $T103980[ebp]
  00125	50		 push	 eax
  00126	8d 8d 10 ff ff
	ff		 lea	 ecx, DWORD PTR $T103979[ebp]
  0012c	c7 45 fc 02 00
	00 00		 mov	 DWORD PTR __$EHRec$[ebp+8], 2
  00133	e8 00 00 00 00	 call	 ??0Error@@QAE@ABV?$basic_string@DV?$char_traits@D@_STL@@V?$allocator@D@2@@_STL@@@Z ; Error::Error
  00138	68 00 00 00 00	 push	 OFFSET FLAT:__TI2?AVError@@
  0013d	8d 85 10 ff ff
	ff		 lea	 eax, DWORD PTR $T103979[ebp]
  00143	e9 63 01 00 00	 jmp	 $L104451

; 576  : 		case WSAENETRESET : 
; 577  : 			throw Error("Connection has timed out when SO_KEEPALIVE is set.");

$L104270:

; 578  : 		case WSAENOPROTOOPT : 
; 579  : 			throw Error("The option is unknown or unsupported for the specified provider or socket (see SO_GROUP_PRIORITY limitations).");

  00148	8d 45 f3	 lea	 eax, DWORD PTR $T103993[ebp]
  0014b	50		 push	 eax
  0014c	68 00 00 00 00	 push	 OFFSET FLAT:??_C@_0GP@DNBIAMDO@The?5option?5is?5unknown?5or?5unsuppo@
  00151	8d 4d a8	 lea	 ecx, DWORD PTR $T103992[ebp]
  00154	e8 00 00 00 00	 call	 ??0?$basic_string@DV?$char_traits@D@_STL@@V?$allocator@D@2@@_STL@@QAE@PBDABV?$allocator@D@1@@Z ; _STL::basic_string<char,_STL::char_traits<char>,_STL::allocator<char> >::basic_string<char,_STL::char_traits<char>,_STL::allocator<char> >
  00159	8d 45 a8	 lea	 eax, DWORD PTR $T103992[ebp]
  0015c	50		 push	 eax
  0015d	8d 8d c0 fe ff
	ff		 lea	 ecx, DWORD PTR $T103991[ebp]
  00163	c7 45 fc 06 00
	00 00		 mov	 DWORD PTR __$EHRec$[ebp+8], 6
  0016a	e8 00 00 00 00	 call	 ??0Error@@QAE@ABV?$basic_string@DV?$char_traits@D@_STL@@V?$allocator@D@2@@_STL@@@Z ; Error::Error
  0016f	68 00 00 00 00	 push	 OFFSET FLAT:__TI2?AVError@@
  00174	8d 85 c0 fe ff
	ff		 lea	 eax, DWORD PTR $T103991[ebp]
  0017a	e9 2c 01 00 00	 jmp	 $L104451
$L104003:

; 565  : 		switch ( WSAGetLastError() ) {

  0017f	2d 42 27 00 00	 sub	 eax, 10050		; 00002742H
  00184	0f 84 ef 00 00
	00		 je	 $L104055
  0018a	48		 dec	 eax
  0018b	48		 dec	 eax
  0018c	0f 84 b3 00 00
	00		 je	 $L104227
  00192	83 e8 05	 sub	 eax, 5
  00195	74 7a		 je	 SHORT $L104313
  00197	83 e8 24	 sub	 eax, 36			; 00000024H
  0019a	74 41		 je	 SHORT $L100043

; 582  : 		case WSAENOTSOCK : 
; 583  : 			throw Error("The descriptor is not a socket.");

$L104399:

; 584  : 		default :
; 585  : 			throw UnknownError("setsockopt()");

  0019c	8d 45 f3	 lea	 eax, DWORD PTR $T104002[ebp]
  0019f	50		 push	 eax
  001a0	68 00 00 00 00	 push	 OFFSET FLAT:??_C@_0N@NGPLLOMP@setsockopt?$CI?$CJ?$AA@
  001a5	8d 4d d8	 lea	 ecx, DWORD PTR $T104001[ebp]
  001a8	e8 00 00 00 00	 call	 ??0?$basic_string@DV?$char_traits@D@_STL@@V?$allocator@D@2@@_STL@@QAE@PBDABV?$allocator@D@1@@Z ; _STL::basic_string<char,_STL::char_traits<char>,_STL::allocator<char> >::basic_string<char,_STL::char_traits<char>,_STL::allocator<char> >
  001ad	8d 45 d8	 lea	 eax, DWORD PTR $T104001[ebp]
  001b0	50		 push	 eax
  001b1	8d 8d 60 ff ff
	ff		 lea	 ecx, DWORD PTR $T104000[ebp]
  001b7	c7 45 fc 09 00
	00 00		 mov	 DWORD PTR __$EHRec$[ebp+8], 9
  001be	e8 00 00 00 00	 call	 ??0Error@@QAE@ABV?$basic_string@DV?$char_traits@D@_STL@@V?$allocator@D@2@@_STL@@@Z ; Error::Error
  001c3	c7 85 60 ff ff
	ff 00 00 00 00	 mov	 DWORD PTR $T104000[ebp], OFFSET FLAT:??_7UnknownError@@6B@
  001cd	68 00 00 00 00	 push	 OFFSET FLAT:__TI3?AVUnknownError@@
  001d2	8d 85 60 ff ff
	ff		 lea	 eax, DWORD PTR $T104000[ebp]
  001d8	e9 ce 00 00 00	 jmp	 $L104451
$L100043:

; 566  : 		case WSANOTINITIALISED : 
; 567  : 			throw Error("A successful WSAStartup must occur before using this function.");

  001dd	8d 45 f3	 lea	 eax, DWORD PTR $T103975[ebp]
  001e0	50		 push	 eax
  001e1	68 00 00 00 00	 push	 OFFSET FLAT:??_C@_0DP@GBHCAAKN@A?5successful?5WSAStartup?5must?5occ@
  001e6	8d 4d cc	 lea	 ecx, DWORD PTR $T103974[ebp]
  001e9	e8 00 00 00 00	 call	 ??0?$basic_string@DV?$char_traits@D@_STL@@V?$allocator@D@2@@_STL@@QAE@PBDABV?$allocator@D@1@@Z ; _STL::basic_string<char,_STL::char_traits<char>,_STL::allocator<char> >::basic_string<char,_STL::char_traits<char>,_STL::allocator<char> >
  001ee	83 65 fc 00	 and	 DWORD PTR __$EHRec$[ebp+8], 0
  001f2	8d 45 cc	 lea	 eax, DWORD PTR $T103974[ebp]
  001f5	50		 push	 eax
  001f6	8d 8d 38 ff ff
	ff		 lea	 ecx, DWORD PTR $T103973[ebp]
  001fc	e8 00 00 00 00	 call	 ??0Error@@QAE@ABV?$basic_string@DV?$char_traits@D@_STL@@V?$allocator@D@2@@_STL@@@Z ; Error::Error
  00201	68 00 00 00 00	 push	 OFFSET FLAT:__TI2?AVError@@
  00206	8d 85 38 ff ff
	ff		 lea	 eax, DWORD PTR $T103973[ebp]
  0020c	e9 9a 00 00 00	 jmp	 $L104451

; 578  : 		case WSAENOPROTOOPT : 
; 579  : 			throw Error("The option is unknown or unsupported for the specified provider or socket (see SO_GROUP_PRIORITY limitations).");

$L104313:

; 580  : 		case WSAENOTCONN : 
; 581  : 			throw Error("Connection has been reset when SO_KEEPALIVE is set.");

  00211	8d 45 f3	 lea	 eax, DWORD PTR $T103996[ebp]
  00214	50		 push	 eax
  00215	68 00 00 00 00	 push	 OFFSET FLAT:??_C@_0DE@PNLMBPGF@Connection?5has?5been?5reset?5when?5S@
  0021a	8d 4d b4	 lea	 ecx, DWORD PTR $T103995[ebp]
  0021d	e8 00 00 00 00	 call	 ??0?$basic_string@DV?$char_traits@D@_STL@@V?$allocator@D@2@@_STL@@QAE@PBDABV?$allocator@D@1@@Z ; _STL::basic_string<char,_STL::char_traits<char>,_STL::allocator<char> >::basic_string<char,_STL::char_traits<char>,_STL::allocator<char> >
  00222	8d 45 b4	 lea	 eax, DWORD PTR $T103995[ebp]
  00225	50		 push	 eax
  00226	8d 8d 24 ff ff
	ff		 lea	 ecx, DWORD PTR $T103994[ebp]
  0022c	c7 45 fc 07 00
	00 00		 mov	 DWORD PTR __$EHRec$[ebp+8], 7
  00233	e8 00 00 00 00	 call	 ??0Error@@QAE@ABV?$basic_string@DV?$char_traits@D@_STL@@V?$allocator@D@2@@_STL@@@Z ; Error::Error
  00238	68 00 00 00 00	 push	 OFFSET FLAT:__TI2?AVError@@
  0023d	8d 85 24 ff ff
	ff		 lea	 eax, DWORD PTR $T103994[ebp]
  00243	eb 66		 jmp	 SHORT $L104451

; 574  : 		case WSAEINVAL : 
; 575  : 			throw Error("level is not valid, or the information in optval is not valid.");

$L104227:

; 576  : 		case WSAENETRESET : 
; 577  : 			throw Error("Connection has timed out when SO_KEEPALIVE is set.");

  00245	8d 45 f3	 lea	 eax, DWORD PTR $T103990[ebp]
  00248	50		 push	 eax
  00249	68 00 00 00 00	 push	 OFFSET FLAT:??_C@_0DD@MEHHAPMO@Connection?5has?5timed?5out?5when?5SO@
  0024e	8d 4d 9c	 lea	 ecx, DWORD PTR $T103989[ebp]
  00251	e8 00 00 00 00	 call	 ??0?$basic_string@DV?$char_traits@D@_STL@@V?$allocator@D@2@@_STL@@QAE@PBDABV?$allocator@D@1@@Z ; _STL::basic_string<char,_STL::char_traits<char>,_STL::allocator<char> >::basic_string<char,_STL::char_traits<char>,_STL::allocator<char> >
  00256	8d 45 9c	 lea	 eax, DWORD PTR $T103989[ebp]
  00259	50		 push	 eax
  0025a	8d 8d fc fe ff
	ff		 lea	 ecx, DWORD PTR $T103988[ebp]
  00260	c7 45 fc 05 00
	00 00		 mov	 DWORD PTR __$EHRec$[ebp+8], 5
  00267	e8 00 00 00 00	 call	 ??0Error@@QAE@ABV?$basic_string@DV?$char_traits@D@_STL@@V?$allocator@D@2@@_STL@@@Z ; Error::Error
  0026c	68 00 00 00 00	 push	 OFFSET FLAT:__TI2?AVError@@
  00271	8d 85 fc fe ff
	ff		 lea	 eax, DWORD PTR $T103988[ebp]
  00277	eb 32		 jmp	 SHORT $L104451

; 566  : 		case WSANOTINITIALISED : 
; 567  : 			throw Error("A successful WSAStartup must occur before using this function.");

$L104055:

; 568  : 		case WSAENETDOWN : 
; 569  : 			throw Error("The network subsystem has failed.");

  00279	8d 45 f3	 lea	 eax, DWORD PTR $T103978[ebp]
  0027c	50		 push	 eax
  0027d	68 00 00 00 00	 push	 OFFSET FLAT:??_C@_0CC@ECDFBOEN@The?5network?5subsystem?5has?5failed@
  00282	8d 4d e4	 lea	 ecx, DWORD PTR $T103977[ebp]
  00285	e8 00 00 00 00	 call	 ??0?$basic_string@DV?$char_traits@D@_STL@@V?$allocator@D@2@@_STL@@QAE@PBDABV?$allocator@D@1@@Z ; _STL::basic_string<char,_STL::char_traits<char>,_STL::allocator<char> >::basic_string<char,_STL::char_traits<char>,_STL::allocator<char> >
  0028a	8d 45 e4	 lea	 eax, DWORD PTR $T103977[ebp]
  0028d	50		 push	 eax
  0028e	8d 8d d4 fe ff
	ff		 lea	 ecx, DWORD PTR $T103976[ebp]
  00294	c7 45 fc 01 00
	00 00		 mov	 DWORD PTR __$EHRec$[ebp+8], 1
  0029b	e8 00 00 00 00	 call	 ??0Error@@QAE@ABV?$basic_string@DV?$char_traits@D@_STL@@V?$allocator@D@2@@_STL@@@Z ; Error::Error
  002a0	68 00 00 00 00	 push	 OFFSET FLAT:__TI2?AVError@@
  002a5	8d 85 d4 fe ff
	ff		 lea	 eax, DWORD PTR $T103976[ebp]
$L104451:
  002ab	50		 push	 eax
  002ac	e8 00 00 00 00	 call	 __CxxThrowException@8
$L104453:
$L100040:

; 586  : 		}//end of switch
; 587  : 	}
; 588  : #endif
; 589  : 	
; 590  : 	__END_CATCH
; 591  : }

  002b1	8b 4d f4	 mov	 ecx, DWORD PTR __$EHRec$[ebp]
  002b4	64 89 0d 00 00
	00 00		 mov	 DWORD PTR fs:__except_list, ecx
  002bb	c9		 leave
  002bc	c3		 ret	 0
$L104450:
_TEXT	ENDS
;	COMDAT text$x
text$x	SEGMENT
$L104012:
  00000	8d 4d 84	 lea	 ecx, DWORD PTR $T103998[ebp]
  00003	e9 00 00 00 00	 jmp	 ??1?$basic_string@DV?$char_traits@D@_STL@@V?$allocator@D@2@@_STL@@QAE@XZ ; _STL::basic_string<char,_STL::char_traits<char>,_STL::allocator<char> >::~basic_string<char,_STL::char_traits<char>,_STL::allocator<char> >
$L104007:
  00008	8d 8d 78 ff ff
	ff		 lea	 ecx, DWORD PTR $T103983[ebp]
  0000e	e9 00 00 00 00	 jmp	 ??1?$basic_string@DV?$char_traits@D@_STL@@V?$allocator@D@2@@_STL@@QAE@XZ ; _STL::basic_string<char,_STL::char_traits<char>,_STL::allocator<char> >::~basic_string<char,_STL::char_traits<char>,_STL::allocator<char> >
$L104008:
  00013	8d 4d c0	 lea	 ecx, DWORD PTR $T103986[ebp]
  00016	e9 00 00 00 00	 jmp	 ??1?$basic_string@DV?$char_traits@D@_STL@@V?$allocator@D@2@@_STL@@QAE@XZ ; _STL::basic_string<char,_STL::char_traits<char>,_STL::allocator<char> >::~basic_string<char,_STL::char_traits<char>,_STL::allocator<char> >
$L104006:
  0001b	8d 4d 90	 lea	 ecx, DWORD PTR $T103980[ebp]
  0001e	e9 00 00 00 00	 jmp	 ??1?$basic_string@DV?$char_traits@D@_STL@@V?$allocator@D@2@@_STL@@QAE@XZ ; _STL::basic_string<char,_STL::char_traits<char>,_STL::allocator<char> >::~basic_string<char,_STL::char_traits<char>,_STL::allocator<char> >
$L104010:
  00023	8d 4d a8	 lea	 ecx, DWORD PTR $T103992[ebp]
  00026	e9 00 00 00 00	 jmp	 ??1?$basic_string@DV?$char_traits@D@_STL@@V?$allocator@D@2@@_STL@@QAE@XZ ; _STL::basic_string<char,_STL::char_traits<char>,_STL::allocator<char> >::~basic_string<char,_STL::char_traits<char>,_STL::allocator<char> >
$L104013:
  0002b	8d 4d d8	 lea	 ecx, DWORD PTR $T104001[ebp]
  0002e	e9 00 00 00 00	 jmp	 ??1?$basic_string@DV?$char_traits@D@_STL@@V?$allocator@D@2@@_STL@@QAE@XZ ; _STL::basic_string<char,_STL::char_traits<char>,_STL::allocator<char> >::~basic_string<char,_STL::char_traits<char>,_STL::allocator<char> >
$L104004:
  00033	8d 4d cc	 lea	 ecx, DWORD PTR $T103974[ebp]
  00036	e9 00 00 00 00	 jmp	 ??1?$basic_string@DV?$char_traits@D@_STL@@V?$allocator@D@2@@_STL@@QAE@XZ ; _STL::basic_string<char,_STL::char_traits<char>,_STL::allocator<char> >::~basic_string<char,_STL::char_traits<char>,_STL::allocator<char> >
$L104011:
  0003b	8d 4d b4	 lea	 ecx, DWORD PTR $T103995[ebp]
  0003e	e9 00 00 00 00	 jmp	 ??1?$basic_string@DV?$char_traits@D@_STL@@V?$allocator@D@2@@_STL@@QAE@XZ ; _STL::basic_string<char,_STL::char_traits<char>,_STL::allocator<char> >::~basic_string<char,_STL::char_traits<char>,_STL::allocator<char> >
$L104009:
  00043	8d 4d 9c	 lea	 ecx, DWORD PTR $T103989[ebp]
  00046	e9 00 00 00 00	 jmp	 ??1?$basic_string@DV?$char_traits@D@_STL@@V?$allocator@D@2@@_STL@@QAE@XZ ; _STL::basic_string<char,_STL::char_traits<char>,_STL::allocator<char> >::~basic_string<char,_STL::char_traits<char>,_STL::allocator<char> >
$L104005:
  0004b	8d 4d e4	 lea	 ecx, DWORD PTR $T103977[ebp]
  0004e	e9 00 00 00 00	 jmp	 ??1?$basic_string@DV?$char_traits@D@_STL@@V?$allocator@D@2@@_STL@@QAE@XZ ; _STL::basic_string<char,_STL::char_traits<char>,_STL::allocator<char> >::~basic_string<char,_STL::char_traits<char>,_STL::allocator<char> >
__ehhandler$?setsockopt_ex@SocketAPI@@YAXIHHPBXI@Z:
  00053	b8 00 00 00 00	 mov	 eax, OFFSET FLAT:$T104448
  00058	e9 00 00 00 00	 jmp	 ___CxxFrameHandler
text$x	ENDS
?setsockopt_ex@SocketAPI@@YAXIHHPBXI@Z ENDP		; SocketAPI::setsockopt_ex
PUBLIC	??_C@_0EA@DNICIJPH@A?5successful?5WSAStartup?5must?5occ@ ; `string'
PUBLIC	??_C@_0CD@JNKLCMJB@The?5network?5subsystem?5has?5failed@ ; `string'
PUBLIC	??_C@_0HG@JAEDLABC@A?5blocking?5Windows?5Sockets?51?41?5c@ ; `string'
PUBLIC	?ioctlsocket_ex@SocketAPI@@YAXIJPAK@Z		; SocketAPI::ioctlsocket_ex
PUBLIC	??_C@_0CD@CEBDBHEN@The?5descriptor?5s?5is?5not?5a?5socket@ ; `string'
PUBLIC	??_C@_0ED@OHHFHBA@The?5argp?5parameter?5is?5not?5a?5vali@ ; `string'
PUBLIC	??_C@_0O@CALPCBOO@ioctlsocket?$CI?$CJ?$AA@	; `string'
EXTRN	_ioctlsocket@12:NEAR
;	COMDAT xdata$x
; File c:\stlport-4.6.1\stlport\stl\_alloc.h
xdata$x	SEGMENT
$T104748 DD	0ffffffffH
	DD	FLAT:$L104476
	DD	0ffffffffH
	DD	FLAT:$L104477
	DD	0ffffffffH
	DD	FLAT:$L104478
	DD	0ffffffffH
	DD	FLAT:$L104479
	DD	0ffffffffH
	DD	FLAT:$L104480
	DD	0ffffffffH
	DD	FLAT:$L104481
$T104744 DD	019930520H
	DD	06H
	DD	FLAT:$T104748
	DD	2 DUP(00H)
	DD	2 DUP(00H)
xdata$x	ENDS
;	COMDAT ??_C@_0O@CALPCBOO@ioctlsocket?$CI?$CJ?$AA@
CONST	SEGMENT
??_C@_0O@CALPCBOO@ioctlsocket?$CI?$CJ?$AA@ DB 'ioctlsocket()', 00H ; `string'
CONST	ENDS
;	COMDAT ??_C@_0EA@DNICIJPH@A?5successful?5WSAStartup?5must?5occ@
CONST	SEGMENT
??_C@_0EA@DNICIJPH@A?5successful?5WSAStartup?5must?5occ@ DB 'A successful'
	DB	' WSAStartup must occur before using this function. ', 00H ; `string'
CONST	ENDS
;	COMDAT ??_C@_0CD@JNKLCMJB@The?5network?5subsystem?5has?5failed@
CONST	SEGMENT
??_C@_0CD@JNKLCMJB@The?5network?5subsystem?5has?5failed@ DB 'The network '
	DB	'subsystem has failed. ', 00H		; `string'
CONST	ENDS
;	COMDAT ??_C@_0CD@CEBDBHEN@The?5descriptor?5s?5is?5not?5a?5socket@
CONST	SEGMENT
??_C@_0CD@CEBDBHEN@The?5descriptor?5s?5is?5not?5a?5socket@ DB 'The descri'
	DB	'ptor s is not a socket. ', 00H		; `string'
CONST	ENDS
;	COMDAT ??_C@_0HG@JAEDLABC@A?5blocking?5Windows?5Sockets?51?41?5c@
CONST	SEGMENT
??_C@_0HG@JAEDLABC@A?5blocking?5Windows?5Sockets?51?41?5c@ DB 'A blocking'
	DB	' Windows Sockets 1.1 call is in progress, or the service prov'
	DB	'ider is still processing a callback function. ', 00H ; `string'
CONST	ENDS
;	COMDAT ??_C@_0ED@OHHFHBA@The?5argp?5parameter?5is?5not?5a?5vali@
CONST	SEGMENT
??_C@_0ED@OHHFHBA@The?5argp?5parameter?5is?5not?5a?5vali@ DB 'The argp pa'
	DB	'rameter is not a valid part of the user address space. ', 00H ; `string'
; Function compile flags: /Ogsy
; File c:\darkeden\designed_common\project\client\packet\socketapi.cpp
CONST	ENDS
;	COMDAT ?ioctlsocket_ex@SocketAPI@@YAXIJPAK@Z
_TEXT	SEGMENT
$T104461 = -212						; size = 20
$T104467 = -192						; size = 20
$T104470 = -172						; size = 20
$T104464 = -152						; size = 20
$T104458 = -132						; size = 20
$T104473 = -112						; size = 24
$T104459 = -88						; size = 12
$T104474 = -76						; size = 12
$T104462 = -64						; size = 12
$T104465 = -52						; size = 12
$T104468 = -40						; size = 12
$T104471 = -28						; size = 12
$T104475 = -13						; size = 1
$T104472 = -13						; size = 1
$T104469 = -13						; size = 1
$T104466 = -13						; size = 1
$T104463 = -13						; size = 1
__$EHRec$ = -12						; size = 12
_s$ = 8							; size = 4
_cmd$ = 12						; size = 4
_argp$ = 16						; size = 4
?ioctlsocket_ex@SocketAPI@@YAXIJPAK@Z PROC NEAR		; SocketAPI::ioctlsocket_ex, COMDAT

; 1014 : {

  00000	b8 00 00 00 00	 mov	 eax, __ehhandler$?ioctlsocket_ex@SocketAPI@@YAXIJPAK@Z
  00005	e8 00 00 00 00	 call	 __EH_prolog
  0000a	81 ec c8 00 00
	00		 sub	 esp, 200		; 000000c8H

; 1015 : 	__BEGIN_TRY
; 1016 : 
; 1017 : #if __LINUX__
; 1018 : 	throw UnsupportedError();
; 1019 : #elif __WINDOWS__
; 1020 : 	if ( ioctlsocket(s,cmd,argp) == SOCKET_ERROR ) {

  00010	ff 75 10	 push	 DWORD PTR _argp$[ebp]
  00013	ff 75 0c	 push	 DWORD PTR _cmd$[ebp]
  00016	ff 75 08	 push	 DWORD PTR _s$[ebp]
  00019	e8 00 00 00 00	 call	 _ioctlsocket@12
  0001e	83 f8 ff	 cmp	 eax, -1
  00021	0f 85 6a 01 00
	00		 jne	 $L100440

; 1021 : 		switch ( WSAGetLastError() ) {

  00027	e8 00 00 00 00	 call	 _WSAGetLastError@0
  0002c	2d 1e 27 00 00	 sub	 eax, 10014		; 0000271eH
  00031	0f 84 22 01 00
	00		 je	 $L104652
  00037	83 e8 16	 sub	 eax, 22			; 00000016H
  0003a	0f 84 e5 00 00
	00		 je	 $L104567
  00040	48		 dec	 eax
  00041	48		 dec	 eax
  00042	0f 84 a9 00 00
	00		 je	 $L104610
  00048	83 e8 0c	 sub	 eax, 12			; 0000000cH
  0004b	74 6d		 je	 SHORT $L104524
  0004d	83 e8 2b	 sub	 eax, 43			; 0000002bH

; 1032 : 		default :
; 1033 : 			throw UnknownError("ioctlsocket()");

  00050	8d 45 f3	 lea	 eax, DWORD PTR $T104475[ebp]
  00053	50		 push	 eax
  00054	74 34		 je	 SHORT $L100443
  00056	68 00 00 00 00	 push	 OFFSET FLAT:??_C@_0O@CALPCBOO@ioctlsocket?$CI?$CJ?$AA@
  0005b	8d 4d b4	 lea	 ecx, DWORD PTR $T104474[ebp]
  0005e	e8 00 00 00 00	 call	 ??0?$basic_string@DV?$char_traits@D@_STL@@V?$allocator@D@2@@_STL@@QAE@PBDABV?$allocator@D@1@@Z ; _STL::basic_string<char,_STL::char_traits<char>,_STL::allocator<char> >::basic_string<char,_STL::char_traits<char>,_STL::allocator<char> >
  00063	8d 45 b4	 lea	 eax, DWORD PTR $T104474[ebp]
  00066	50		 push	 eax
  00067	8d 4d 90	 lea	 ecx, DWORD PTR $T104473[ebp]
  0006a	c7 45 fc 05 00
	00 00		 mov	 DWORD PTR __$EHRec$[ebp+8], 5
  00071	e8 00 00 00 00	 call	 ??0Error@@QAE@ABV?$basic_string@DV?$char_traits@D@_STL@@V?$allocator@D@2@@_STL@@@Z ; Error::Error
  00076	c7 45 90 00 00
	00 00		 mov	 DWORD PTR $T104473[ebp], OFFSET FLAT:??_7UnknownError@@6B@
  0007d	68 00 00 00 00	 push	 OFFSET FLAT:__TI3?AVUnknownError@@
  00082	8d 45 90	 lea	 eax, DWORD PTR $T104473[ebp]
  00085	e9 01 01 00 00	 jmp	 $L104747
$L100443:

; 1022 : 		case WSANOTINITIALISED : 
; 1023 : 			throw Error("A successful WSAStartup must occur before using this function. ");

  0008a	68 00 00 00 00	 push	 OFFSET FLAT:??_C@_0EA@DNICIJPH@A?5successful?5WSAStartup?5must?5occ@
  0008f	8d 4d a8	 lea	 ecx, DWORD PTR $T104459[ebp]
  00092	e8 00 00 00 00	 call	 ??0?$basic_string@DV?$char_traits@D@_STL@@V?$allocator@D@2@@_STL@@QAE@PBDABV?$allocator@D@1@@Z ; _STL::basic_string<char,_STL::char_traits<char>,_STL::allocator<char> >::basic_string<char,_STL::char_traits<char>,_STL::allocator<char> >
  00097	83 65 fc 00	 and	 DWORD PTR __$EHRec$[ebp+8], 0
  0009b	8d 45 a8	 lea	 eax, DWORD PTR $T104459[ebp]
  0009e	50		 push	 eax
  0009f	8d 8d 7c ff ff
	ff		 lea	 ecx, DWORD PTR $T104458[ebp]
  000a5	e8 00 00 00 00	 call	 ??0Error@@QAE@ABV?$basic_string@DV?$char_traits@D@_STL@@V?$allocator@D@2@@_STL@@@Z ; Error::Error
  000aa	68 00 00 00 00	 push	 OFFSET FLAT:__TI2?AVError@@
  000af	8d 85 7c ff ff
	ff		 lea	 eax, DWORD PTR $T104458[ebp]
  000b5	e9 d1 00 00 00	 jmp	 $L104747
$L104524:

; 1024 : 		case WSAENETDOWN : 
; 1025 : 			throw Error("The network subsystem has failed. ");

  000ba	8d 45 f3	 lea	 eax, DWORD PTR $T104463[ebp]
  000bd	50		 push	 eax
  000be	68 00 00 00 00	 push	 OFFSET FLAT:??_C@_0CD@JNKLCMJB@The?5network?5subsystem?5has?5failed@
  000c3	8d 4d c0	 lea	 ecx, DWORD PTR $T104462[ebp]
  000c6	e8 00 00 00 00	 call	 ??0?$basic_string@DV?$char_traits@D@_STL@@V?$allocator@D@2@@_STL@@QAE@PBDABV?$allocator@D@1@@Z ; _STL::basic_string<char,_STL::char_traits<char>,_STL::allocator<char> >::basic_string<char,_STL::char_traits<char>,_STL::allocator<char> >
  000cb	8d 45 c0	 lea	 eax, DWORD PTR $T104462[ebp]
  000ce	50		 push	 eax
  000cf	8d 8d 2c ff ff
	ff		 lea	 ecx, DWORD PTR $T104461[ebp]
  000d5	c7 45 fc 01 00
	00 00		 mov	 DWORD PTR __$EHRec$[ebp+8], 1
  000dc	e8 00 00 00 00	 call	 ??0Error@@QAE@ABV?$basic_string@DV?$char_traits@D@_STL@@V?$allocator@D@2@@_STL@@@Z ; Error::Error
  000e1	68 00 00 00 00	 push	 OFFSET FLAT:__TI2?AVError@@
  000e6	8d 85 2c ff ff
	ff		 lea	 eax, DWORD PTR $T104461[ebp]
  000ec	e9 9a 00 00 00	 jmp	 $L104747

; 1026 : 		case WSAEINPROGRESS : 
; 1027 : 			throw Error("A blocking Windows Sockets 1.1 call is in progress, or the service provider is still processing a callback function. ");

$L104610:

; 1028 : 		case WSAENOTSOCK : 
; 1029 : 			throw Error("The descriptor s is not a socket. ");

  000f1	8d 45 f3	 lea	 eax, DWORD PTR $T104469[ebp]
  000f4	50		 push	 eax
  000f5	68 00 00 00 00	 push	 OFFSET FLAT:??_C@_0CD@CEBDBHEN@The?5descriptor?5s?5is?5not?5a?5socket@
  000fa	8d 4d d8	 lea	 ecx, DWORD PTR $T104468[ebp]
  000fd	e8 00 00 00 00	 call	 ??0?$basic_string@DV?$char_traits@D@_STL@@V?$allocator@D@2@@_STL@@QAE@PBDABV?$allocator@D@1@@Z ; _STL::basic_string<char,_STL::char_traits<char>,_STL::allocator<char> >::basic_string<char,_STL::char_traits<char>,_STL::allocator<char> >
  00102	8d 45 d8	 lea	 eax, DWORD PTR $T104468[ebp]
  00105	50		 push	 eax
  00106	8d 8d 40 ff ff
	ff		 lea	 ecx, DWORD PTR $T104467[ebp]
  0010c	c7 45 fc 03 00
	00 00		 mov	 DWORD PTR __$EHRec$[ebp+8], 3
  00113	e8 00 00 00 00	 call	 ??0Error@@QAE@ABV?$basic_string@DV?$char_traits@D@_STL@@V?$allocator@D@2@@_STL@@@Z ; Error::Error
  00118	68 00 00 00 00	 push	 OFFSET FLAT:__TI2?AVError@@
  0011d	8d 85 40 ff ff
	ff		 lea	 eax, DWORD PTR $T104467[ebp]
  00123	eb 66		 jmp	 SHORT $L104747

; 1024 : 		case WSAENETDOWN : 
; 1025 : 			throw Error("The network subsystem has failed. ");

$L104567:

; 1026 : 		case WSAEINPROGRESS : 
; 1027 : 			throw Error("A blocking Windows Sockets 1.1 call is in progress, or the service provider is still processing a callback function. ");

  00125	8d 45 f3	 lea	 eax, DWORD PTR $T104466[ebp]
  00128	50		 push	 eax
  00129	68 00 00 00 00	 push	 OFFSET FLAT:??_C@_0HG@JAEDLABC@A?5blocking?5Windows?5Sockets?51?41?5c@
  0012e	8d 4d cc	 lea	 ecx, DWORD PTR $T104465[ebp]
  00131	e8 00 00 00 00	 call	 ??0?$basic_string@DV?$char_traits@D@_STL@@V?$allocator@D@2@@_STL@@QAE@PBDABV?$allocator@D@1@@Z ; _STL::basic_string<char,_STL::char_traits<char>,_STL::allocator<char> >::basic_string<char,_STL::char_traits<char>,_STL::allocator<char> >
  00136	8d 45 cc	 lea	 eax, DWORD PTR $T104465[ebp]
  00139	50		 push	 eax
  0013a	8d 8d 68 ff ff
	ff		 lea	 ecx, DWORD PTR $T104464[ebp]
  00140	c7 45 fc 02 00
	00 00		 mov	 DWORD PTR __$EHRec$[ebp+8], 2
  00147	e8 00 00 00 00	 call	 ??0Error@@QAE@ABV?$basic_string@DV?$char_traits@D@_STL@@V?$allocator@D@2@@_STL@@@Z ; Error::Error
  0014c	68 00 00 00 00	 push	 OFFSET FLAT:__TI2?AVError@@
  00151	8d 85 68 ff ff
	ff		 lea	 eax, DWORD PTR $T104464[ebp]
  00157	eb 32		 jmp	 SHORT $L104747

; 1028 : 		case WSAENOTSOCK : 
; 1029 : 			throw Error("The descriptor s is not a socket. ");

$L104652:

; 1030 : 		case WSAEFAULT : 
; 1031 : 			throw Error("The argp parameter is not a valid part of the user address space. ");

  00159	8d 45 f3	 lea	 eax, DWORD PTR $T104472[ebp]
  0015c	50		 push	 eax
  0015d	68 00 00 00 00	 push	 OFFSET FLAT:??_C@_0ED@OHHFHBA@The?5argp?5parameter?5is?5not?5a?5vali@
  00162	8d 4d e4	 lea	 ecx, DWORD PTR $T104471[ebp]
  00165	e8 00 00 00 00	 call	 ??0?$basic_string@DV?$char_traits@D@_STL@@V?$allocator@D@2@@_STL@@QAE@PBDABV?$allocator@D@1@@Z ; _STL::basic_string<char,_STL::char_traits<char>,_STL::allocator<char> >::basic_string<char,_STL::char_traits<char>,_STL::allocator<char> >
  0016a	8d 45 e4	 lea	 eax, DWORD PTR $T104471[ebp]
  0016d	50		 push	 eax
  0016e	8d 8d 54 ff ff
	ff		 lea	 ecx, DWORD PTR $T104470[ebp]
  00174	c7 45 fc 04 00
	00 00		 mov	 DWORD PTR __$EHRec$[ebp+8], 4
  0017b	e8 00 00 00 00	 call	 ??0Error@@QAE@ABV?$basic_string@DV?$char_traits@D@_STL@@V?$allocator@D@2@@_STL@@@Z ; Error::Error
  00180	68 00 00 00 00	 push	 OFFSET FLAT:__TI2?AVError@@
  00185	8d 85 54 ff ff
	ff		 lea	 eax, DWORD PTR $T104470[ebp]
$L104747:
  0018b	50		 push	 eax
  0018c	e8 00 00 00 00	 call	 __CxxThrowException@8
$L104749:
$L100440:

; 1034 : 		}
; 1035 : 	}
; 1036 : #endif
; 1037 : 	
; 1038 : 	__END_CATCH
; 1039 : }

  00191	8b 4d f4	 mov	 ecx, DWORD PTR __$EHRec$[ebp]
  00194	64 89 0d 00 00
	00 00		 mov	 DWORD PTR fs:__except_list, ecx
  0019b	c9		 leave
  0019c	c3		 ret	 0
$L104746:
_TEXT	ENDS
;	COMDAT text$x
text$x	SEGMENT
$L104481:
  00000	8d 4d b4	 lea	 ecx, DWORD PTR $T104474[ebp]
  00003	e9 00 00 00 00	 jmp	 ??1?$basic_string@DV?$char_traits@D@_STL@@V?$allocator@D@2@@_STL@@QAE@XZ ; _STL::basic_string<char,_STL::char_traits<char>,_STL::allocator<char> >::~basic_string<char,_STL::char_traits<char>,_STL::allocator<char> >
$L104476:
  00008	8d 4d a8	 lea	 ecx, DWORD PTR $T104459[ebp]
  0000b	e9 00 00 00 00	 jmp	 ??1?$basic_string@DV?$char_traits@D@_STL@@V?$allocator@D@2@@_STL@@QAE@XZ ; _STL::basic_string<char,_STL::char_traits<char>,_STL::allocator<char> >::~basic_string<char,_STL::char_traits<char>,_STL::allocator<char> >
$L104477:
  00010	8d 4d c0	 lea	 ecx, DWORD PTR $T104462[ebp]
  00013	e9 00 00 00 00	 jmp	 ??1?$basic_string@DV?$char_traits@D@_STL@@V?$allocator@D@2@@_STL@@QAE@XZ ; _STL::basic_string<char,_STL::char_traits<char>,_STL::allocator<char> >::~basic_string<char,_STL::char_traits<char>,_STL::allocator<char> >
$L104479:
  00018	8d 4d d8	 lea	 ecx, DWORD PTR $T104468[ebp]
  0001b	e9 00 00 00 00	 jmp	 ??1?$basic_string@DV?$char_traits@D@_STL@@V?$allocator@D@2@@_STL@@QAE@XZ ; _STL::basic_string<char,_STL::char_traits<char>,_STL::allocator<char> >::~basic_string<char,_STL::char_traits<char>,_STL::allocator<char> >
$L104478:
  00020	8d 4d cc	 lea	 ecx, DWORD PTR $T104465[ebp]
  00023	e9 00 00 00 00	 jmp	 ??1?$basic_string@DV?$char_traits@D@_STL@@V?$allocator@D@2@@_STL@@QAE@XZ ; _STL::basic_string<char,_STL::char_traits<char>,_STL::allocator<char> >::~basic_string<char,_STL::char_traits<char>,_STL::allocator<char> >
$L104480:
  00028	8d 4d e4	 lea	 ecx, DWORD PTR $T104471[ebp]
  0002b	e9 00 00 00 00	 jmp	 ??1?$basic_string@DV?$char_traits@D@_STL@@V?$allocator@D@2@@_STL@@QAE@XZ ; _STL::basic_string<char,_STL::char_traits<char>,_STL::allocator<char> >::~basic_string<char,_STL::char_traits<char>,_STL::allocator<char> >
__ehhandler$?ioctlsocket_ex@SocketAPI@@YAXIJPAK@Z:
  00030	b8 00 00 00 00	 mov	 eax, OFFSET FLAT:$T104744
  00035	e9 00 00 00 00	 jmp	 ___CxxFrameHandler
text$x	ENDS
?ioctlsocket_ex@SocketAPI@@YAXIJPAK@Z ENDP		; SocketAPI::ioctlsocket_ex
PUBLIC	?getsocketnonblocking_ex@SocketAPI@@YA_NI@Z	; SocketAPI::getsocketnonblocking_ex
PUBLIC	__TI3?AVUnsupportedError@@
PUBLIC	__CTA3?AVUnsupportedError@@
PUBLIC	__CT??_R0?AVUnsupportedError@@@8??0UnsupportedError@@QAE@ABV0@@Z20
PUBLIC	??1UnsupportedError@@UAE@XZ			; UnsupportedError::~UnsupportedError
PUBLIC	??0UnsupportedError@@QAE@ABV0@@Z		; UnsupportedError::UnsupportedError
;	COMDAT __TI3?AVUnsupportedError@@
xdata$x	SEGMENT
__TI3?AVUnsupportedError@@ DD 00H
	DD	FLAT:??1UnsupportedError@@UAE@XZ
	DD	00H
	DD	FLAT:__CTA3?AVUnsupportedError@@
xdata$x	ENDS
;	COMDAT __CTA3?AVUnsupportedError@@
xdata$x	SEGMENT
__CTA3?AVUnsupportedError@@ DD 03H
	DD	FLAT:__CT??_R0?AVUnsupportedError@@@8??0UnsupportedError@@QAE@ABV0@@Z20
	DD	FLAT:__CT??_R0?AVError@@@8??0Error@@QAE@ABV0@@Z20
	DD	FLAT:__CT??_R0?AVThrowable@@@8??0Throwable@@QAE@ABV0@@Z20
xdata$x	ENDS
;	COMDAT __CT??_R0?AVUnsupportedError@@@8??0UnsupportedError@@QAE@ABV0@@Z20
xdata$x	SEGMENT
__CT??_R0?AVUnsupportedError@@@8??0UnsupportedError@@QAE@ABV0@@Z20 DD 00H
	DD	FLAT:??_R0?AVUnsupportedError@@@8
	DD	00H
	DD	0ffffffffH
	ORG $+4
	DD	014H
	DD	FLAT:??0UnsupportedError@@QAE@ABV0@@Z
; Function compile flags: /Ogsy
xdata$x	ENDS
;	COMDAT ?getsocketnonblocking_ex@SocketAPI@@YA_NI@Z
_TEXT	SEGMENT
$T104754 = -20						; size = 20
_s$ = 8							; size = 4
?getsocketnonblocking_ex@SocketAPI@@YA_NI@Z PROC NEAR	; SocketAPI::getsocketnonblocking_ex, COMDAT

; 1061 : {

  00000	55		 push	 ebp
  00001	8b ec		 mov	 ebp, esp
  00003	83 ec 14	 sub	 esp, 20			; 00000014H

; 1062 : 	__BEGIN_TRY
; 1063 : 
; 1064 : #if __LINUX__
; 1065 : 	return FileAPI::getfilenonblocking_ex(s);
; 1066 : #elif __WINDOWS__
; 1067 : 	throw UnsupportedError();

  00006	8d 4d ec	 lea	 ecx, DWORD PTR $T104754[ebp]
  00009	e8 00 00 00 00	 call	 ??0UnsupportedError@@QAE@XZ ; UnsupportedError::UnsupportedError
  0000e	68 00 00 00 00	 push	 OFFSET FLAT:__TI3?AVUnsupportedError@@
  00013	8d 45 ec	 lea	 eax, DWORD PTR $T104754[ebp]
  00016	50		 push	 eax
  00017	e8 00 00 00 00	 call	 __CxxThrowException@8
$L104756:
$L104755:
  0001c	cc		 int	 3
?getsocketnonblocking_ex@SocketAPI@@YA_NI@Z ENDP	; SocketAPI::getsocketnonblocking_ex
; Function compile flags: /Ogsy
_TEXT	ENDS
;	COMDAT ??1UnsupportedError@@UAE@XZ
_TEXT	SEGMENT
??1UnsupportedError@@UAE@XZ PROC NEAR			; UnsupportedError::~UnsupportedError, COMDAT
; _this$ = ecx
  00000	e9 00 00 00 00	 jmp	 ??1Error@@UAE@XZ
??1UnsupportedError@@UAE@XZ ENDP			; UnsupportedError::~UnsupportedError
_TEXT	ENDS
PUBLIC	?setsocketnonblocking_ex@SocketAPI@@YAXI_N@Z	; SocketAPI::setsocketnonblocking_ex
; Function compile flags: /Ogsy
;	COMDAT ?setsocketnonblocking_ex@SocketAPI@@YAXI_N@Z
_TEXT	SEGMENT
_s$ = 8							; size = 4
_argp$ = 12						; size = 4
_on$ = 12						; size = 1
?setsocketnonblocking_ex@SocketAPI@@YAXI_N@Z PROC NEAR	; SocketAPI::setsocketnonblocking_ex, COMDAT

; 1094 : {

  00000	55		 push	 ebp
  00001	8b ec		 mov	 ebp, esp

; 1095 : 	__BEGIN_TRY
; 1096 : 
; 1097 : #if __LINUX__
; 1098 : 	FileAPI::setfilenonblocking_ex(s,on);
; 1099 : #elif __WINDOWS__
; 1100 : 	ulong argp = ( on == true ) ? 1 : 0;

  00003	33 c0		 xor	 eax, eax
  00005	80 7d 0c 01	 cmp	 BYTE PTR _on$[ebp], 1
  00009	0f 94 c0	 sete	 al
  0000c	89 45 0c	 mov	 DWORD PTR _argp$[ebp], eax

; 1101 : 	ioctlsocket_ex(s,FIONBIO,&argp);

  0000f	8d 45 0c	 lea	 eax, DWORD PTR _argp$[ebp]
  00012	50		 push	 eax
  00013	68 7e 66 04 80	 push	 -2147195266		; 8004667eH
  00018	ff 75 08	 push	 DWORD PTR _s$[ebp]
  0001b	e8 00 00 00 00	 call	 ?ioctlsocket_ex@SocketAPI@@YAXIJPAK@Z ; SocketAPI::ioctlsocket_ex
  00020	83 c4 0c	 add	 esp, 12			; 0000000cH

; 1102 : #endif
; 1103 : 	
; 1104 : 	__END_CATCH
; 1105 : }

  00023	5d		 pop	 ebp
  00024	c3		 ret	 0
?setsocketnonblocking_ex@SocketAPI@@YAXI_N@Z ENDP	; SocketAPI::setsocketnonblocking_ex
_TEXT	ENDS
PUBLIC	?availablesocket_ex@SocketAPI@@YAII@Z		; SocketAPI::availablesocket_ex
; Function compile flags: /Ogsy
;	COMDAT ?availablesocket_ex@SocketAPI@@YAII@Z
_TEXT	SEGMENT
_argp$ = -4						; size = 4
_s$ = 8							; size = 4
?availablesocket_ex@SocketAPI@@YAII@Z PROC NEAR		; SocketAPI::availablesocket_ex, COMDAT

; 1126 : {

  00000	55		 push	 ebp
  00001	8b ec		 mov	 ebp, esp
  00003	51		 push	 ecx

; 1127 : 	__BEGIN_TRY
; 1128 : 
; 1129 : #if __LINUX__
; 1130 : 	return availablefile_ex(s);
; 1131 : #elif __WINDOWS__
; 1132 : 	ulong argp = 0;

  00004	83 65 fc 00	 and	 DWORD PTR _argp$[ebp], 0

; 1133 : 	ioctlsocket_ex(s,FIONREAD,&argp);

  00008	8d 45 fc	 lea	 eax, DWORD PTR _argp$[ebp]
  0000b	50		 push	 eax
  0000c	68 7f 66 04 40	 push	 1074030207		; 4004667fH
  00011	ff 75 08	 push	 DWORD PTR _s$[ebp]
  00014	e8 00 00 00 00	 call	 ?ioctlsocket_ex@SocketAPI@@YAXIJPAK@Z ; SocketAPI::ioctlsocket_ex

; 1134 : 	return argp;

  00019	8b 45 fc	 mov	 eax, DWORD PTR _argp$[ebp]
  0001c	83 c4 0c	 add	 esp, 12			; 0000000cH

; 1135 : #endif
; 1136 : 	
; 1137 : 	__END_CATCH
; 1138 : }

  0001f	c9		 leave
  00020	c3		 ret	 0
?availablesocket_ex@SocketAPI@@YAII@Z ENDP		; SocketAPI::availablesocket_ex
_TEXT	ENDS
PUBLIC	?shutdown_ex@SocketAPI@@YAXII@Z			; SocketAPI::shutdown_ex
PUBLIC	??_C@_0IF@IMEIFAF@The?5how?5parameter?5is?5not?5valid?0?5@ ; `string'
PUBLIC	??_C@_0EA@LOCICJDC@The?5socket?5is?5not?5connected?5?$CIcon@ ; `string'
PUBLIC	??_C@_0L@MHOOMGLA@shutdown?$CI?$CJ?$AA@		; `string'
EXTRN	_shutdown@8:NEAR
;	COMDAT xdata$x
; File c:\stlport-4.6.1\stlport\stl\_alloc.h
xdata$x	SEGMENT
$T105103 DD	0ffffffffH
	DD	FLAT:$L104787
	DD	0ffffffffH
	DD	FLAT:$L104788
	DD	0ffffffffH
	DD	FLAT:$L104789
	DD	0ffffffffH
	DD	FLAT:$L104790
	DD	0ffffffffH
	DD	FLAT:$L104791
	DD	0ffffffffH
	DD	FLAT:$L104792
	DD	0ffffffffH
	DD	FLAT:$L104793
$T105099 DD	019930520H
	DD	07H
	DD	FLAT:$T105103
	DD	2 DUP(00H)
	DD	2 DUP(00H)
xdata$x	ENDS
;	COMDAT ??_C@_0L@MHOOMGLA@shutdown?$CI?$CJ?$AA@
CONST	SEGMENT
??_C@_0L@MHOOMGLA@shutdown?$CI?$CJ?$AA@ DB 'shutdown()', 00H ; `string'
CONST	ENDS
;	COMDAT ??_C@_0EA@LOCICJDC@The?5socket?5is?5not?5connected?5?$CIcon@
CONST	SEGMENT
??_C@_0EA@LOCICJDC@The?5socket?5is?5not?5connected?5?$CIcon@ DB 'The sock'
	DB	'et is not connected (connection-oriented sockets only).', 00H ; `string'
CONST	ENDS
;	COMDAT ??_C@_0IF@IMEIFAF@The?5how?5parameter?5is?5not?5valid?0?5@
CONST	SEGMENT
??_C@_0IF@IMEIFAF@The?5how?5parameter?5is?5not?5valid?0?5@ DB 'The how pa'
	DB	'rameter is not valid, or is not consistent with the socket ty'
	DB	'pe. For example, SD_SEND is used with a UNI_RECV socket type.'
	DB	00H						; `string'
; Function compile flags: /Ogsy
; File c:\darkeden\designed_common\project\client\packet\socketapi.cpp
CONST	ENDS
;	COMDAT ?shutdown_ex@SocketAPI@@YAXII@Z
_TEXT	SEGMENT
$T104778 = -244						; size = 20
$T104781 = -224						; size = 20
$T104772 = -204						; size = 20
$T104769 = -184						; size = 20
$T104775 = -164						; size = 20
$T104766 = -144						; size = 20
$T104784 = -124						; size = 24
$T104785 = -100						; size = 12
$T104770 = -88						; size = 12
$T104776 = -76						; size = 12
$T104767 = -64						; size = 12
$T104779 = -52						; size = 12
$T104782 = -40						; size = 12
$T104773 = -28						; size = 12
$T104786 = -13						; size = 1
$T104783 = -13						; size = 1
$T104780 = -13						; size = 1
$T104777 = -13						; size = 1
$T104774 = -13						; size = 1
$T104771 = -13						; size = 1
__$EHRec$ = -12						; size = 12
_s$ = 8							; size = 4
_how$ = 12						; size = 4
?shutdown_ex@SocketAPI@@YAXII@Z PROC NEAR		; SocketAPI::shutdown_ex, COMDAT

; 1161 : {

  00000	b8 00 00 00 00	 mov	 eax, __ehhandler$?shutdown_ex@SocketAPI@@YAXII@Z
  00005	e8 00 00 00 00	 call	 __EH_prolog
  0000a	81 ec e8 00 00
	00		 sub	 esp, 232		; 000000e8H

; 1162 : 	__BEGIN_TRY
; 1163 : 
; 1164 : 	if ( shutdown(s,how) < 0 ) {

  00010	ff 75 0c	 push	 DWORD PTR _how$[ebp]
  00013	ff 75 08	 push	 DWORD PTR _s$[ebp]
  00016	e8 00 00 00 00	 call	 _shutdown@8
  0001b	85 c0		 test	 eax, eax
  0001d	0f 8d aa 01 00
	00		 jge	 $L100517

; 1165 : #if __LINUX__
; 1166 : 		switch ( errno ) {
; 1167 : 		case EBADF : 
; 1168 : 			throw Error("s is not a valid descriptor.");
; 1169 : 		case ENOTSOCK : 
; 1170 : 			throw Error("s is a file, not a socket.");
; 1171 : 		case ENOTCONN : 
; 1172 : 			throw Error("The specified socket is not connected.");
; 1173 : 		default : 
; 1174 : 			throw UnknownError(strerror(errno),errno);
; 1175 : 		}
; 1176 : #elif __WINDOWS__
; 1177 : 		switch ( WSAGetLastError() ) {

  00023	e8 00 00 00 00	 call	 _WSAGetLastError@0
  00028	2d 26 27 00 00	 sub	 eax, 10022		; 00002726H
  0002d	0f 84 62 01 00
	00		 je	 $L104878
  00033	83 e8 0e	 sub	 eax, 14			; 0000000eH
  00036	0f 84 25 01 00
	00		 je	 $L104921
  0003c	48		 dec	 eax
  0003d	48		 dec	 eax
  0003e	0f 84 e9 00 00
	00		 je	 $L105007
  00044	83 e8 0c	 sub	 eax, 12			; 0000000cH
  00047	0f 84 a9 00 00
	00		 je	 $L104835
  0004d	83 e8 07	 sub	 eax, 7
  00050	74 6d		 je	 SHORT $L104964
  00052	83 e8 24	 sub	 eax, 36			; 00000024H

; 1190 : 		default :
; 1191 : 			throw UnknownError("shutdown()");

  00055	8d 45 f3	 lea	 eax, DWORD PTR $T104786[ebp]
  00058	50		 push	 eax
  00059	74 34		 je	 SHORT $L100520
  0005b	68 00 00 00 00	 push	 OFFSET FLAT:??_C@_0L@MHOOMGLA@shutdown?$CI?$CJ?$AA@
  00060	8d 4d 9c	 lea	 ecx, DWORD PTR $T104785[ebp]
  00063	e8 00 00 00 00	 call	 ??0?$basic_string@DV?$char_traits@D@_STL@@V?$allocator@D@2@@_STL@@QAE@PBDABV?$allocator@D@1@@Z ; _STL::basic_string<char,_STL::char_traits<char>,_STL::allocator<char> >::basic_string<char,_STL::char_traits<char>,_STL::allocator<char> >
  00068	8d 45 9c	 lea	 eax, DWORD PTR $T104785[ebp]
  0006b	50		 push	 eax
  0006c	8d 4d 84	 lea	 ecx, DWORD PTR $T104784[ebp]
  0006f	c7 45 fc 06 00
	00 00		 mov	 DWORD PTR __$EHRec$[ebp+8], 6
  00076	e8 00 00 00 00	 call	 ??0Error@@QAE@ABV?$basic_string@DV?$char_traits@D@_STL@@V?$allocator@D@2@@_STL@@@Z ; Error::Error
  0007b	c7 45 84 00 00
	00 00		 mov	 DWORD PTR $T104784[ebp], OFFSET FLAT:??_7UnknownError@@6B@
  00082	68 00 00 00 00	 push	 OFFSET FLAT:__TI3?AVUnknownError@@
  00087	8d 45 84	 lea	 eax, DWORD PTR $T104784[ebp]
  0008a	e9 38 01 00 00	 jmp	 $L105102
$L100520:

; 1178 : 		case WSANOTINITIALISED : 
; 1179 : 			throw Error("A successful WSAStartup must occur before using this function.");

  0008f	68 00 00 00 00	 push	 OFFSET FLAT:??_C@_0DP@GBHCAAKN@A?5successful?5WSAStartup?5must?5occ@
  00094	8d 4d c0	 lea	 ecx, DWORD PTR $T104767[ebp]
  00097	e8 00 00 00 00	 call	 ??0?$basic_string@DV?$char_traits@D@_STL@@V?$allocator@D@2@@_STL@@QAE@PBDABV?$allocator@D@1@@Z ; _STL::basic_string<char,_STL::char_traits<char>,_STL::allocator<char> >::basic_string<char,_STL::char_traits<char>,_STL::allocator<char> >
  0009c	83 65 fc 00	 and	 DWORD PTR __$EHRec$[ebp+8], 0
  000a0	8d 45 c0	 lea	 eax, DWORD PTR $T104767[ebp]
  000a3	50		 push	 eax
  000a4	8d 8d 70 ff ff
	ff		 lea	 ecx, DWORD PTR $T104766[ebp]
  000aa	e8 00 00 00 00	 call	 ??0Error@@QAE@ABV?$basic_string@DV?$char_traits@D@_STL@@V?$allocator@D@2@@_STL@@@Z ; Error::Error
  000af	68 00 00 00 00	 push	 OFFSET FLAT:__TI2?AVError@@
  000b4	8d 85 70 ff ff
	ff		 lea	 eax, DWORD PTR $T104766[ebp]
  000ba	e9 08 01 00 00	 jmp	 $L105102

; 1184 : 		case WSAEINPROGRESS : 
; 1185 : 			throw Error("A blocking Windows Sockets 1.1 call is in progress, or the service provider is still processing a callback function.");

$L104964:

; 1186 : 		case WSAENOTCONN : 
; 1187 : 			throw Error("The socket is not connected (connection-oriented sockets only).");

  000bf	8d 45 f3	 lea	 eax, DWORD PTR $T104780[ebp]
  000c2	50		 push	 eax
  000c3	68 00 00 00 00	 push	 OFFSET FLAT:??_C@_0EA@LOCICJDC@The?5socket?5is?5not?5connected?5?$CIcon@
  000c8	8d 4d cc	 lea	 ecx, DWORD PTR $T104779[ebp]
  000cb	e8 00 00 00 00	 call	 ??0?$basic_string@DV?$char_traits@D@_STL@@V?$allocator@D@2@@_STL@@QAE@PBDABV?$allocator@D@1@@Z ; _STL::basic_string<char,_STL::char_traits<char>,_STL::allocator<char> >::basic_string<char,_STL::char_traits<char>,_STL::allocator<char> >
  000d0	8d 45 cc	 lea	 eax, DWORD PTR $T104779[ebp]
  000d3	50		 push	 eax
  000d4	8d 8d 0c ff ff
	ff		 lea	 ecx, DWORD PTR $T104778[ebp]
  000da	c7 45 fc 04 00
	00 00		 mov	 DWORD PTR __$EHRec$[ebp+8], 4
  000e1	e8 00 00 00 00	 call	 ??0Error@@QAE@ABV?$basic_string@DV?$char_traits@D@_STL@@V?$allocator@D@2@@_STL@@@Z ; Error::Error
  000e6	68 00 00 00 00	 push	 OFFSET FLAT:__TI2?AVError@@
  000eb	8d 85 0c ff ff
	ff		 lea	 eax, DWORD PTR $T104778[ebp]
  000f1	e9 d1 00 00 00	 jmp	 $L105102

; 1178 : 		case WSANOTINITIALISED : 
; 1179 : 			throw Error("A successful WSAStartup must occur before using this function.");

$L104835:

; 1180 : 		case WSAENETDOWN :
; 1181 : 			throw Error("The network subsystem has failed.");

  000f6	8d 45 f3	 lea	 eax, DWORD PTR $T104771[ebp]
  000f9	50		 push	 eax
  000fa	68 00 00 00 00	 push	 OFFSET FLAT:??_C@_0CC@ECDFBOEN@The?5network?5subsystem?5has?5failed@
  000ff	8d 4d a8	 lea	 ecx, DWORD PTR $T104770[ebp]
  00102	e8 00 00 00 00	 call	 ??0?$basic_string@DV?$char_traits@D@_STL@@V?$allocator@D@2@@_STL@@QAE@PBDABV?$allocator@D@1@@Z ; _STL::basic_string<char,_STL::char_traits<char>,_STL::allocator<char> >::basic_string<char,_STL::char_traits<char>,_STL::allocator<char> >
  00107	8d 45 a8	 lea	 eax, DWORD PTR $T104770[ebp]
  0010a	50		 push	 eax
  0010b	8d 8d 48 ff ff
	ff		 lea	 ecx, DWORD PTR $T104769[ebp]
  00111	c7 45 fc 01 00
	00 00		 mov	 DWORD PTR __$EHRec$[ebp+8], 1
  00118	e8 00 00 00 00	 call	 ??0Error@@QAE@ABV?$basic_string@DV?$char_traits@D@_STL@@V?$allocator@D@2@@_STL@@@Z ; Error::Error
  0011d	68 00 00 00 00	 push	 OFFSET FLAT:__TI2?AVError@@
  00122	8d 85 48 ff ff
	ff		 lea	 eax, DWORD PTR $T104769[ebp]
  00128	e9 9a 00 00 00	 jmp	 $L105102

; 1186 : 		case WSAENOTCONN : 
; 1187 : 			throw Error("The socket is not connected (connection-oriented sockets only).");

$L105007:

; 1188 : 		case WSAENOTSOCK : 
; 1189 : 			throw Error("The descriptor is not a socket.");

  0012d	8d 45 f3	 lea	 eax, DWORD PTR $T104783[ebp]
  00130	50		 push	 eax
  00131	68 00 00 00 00	 push	 OFFSET FLAT:??_C@_0CA@EGNBMMLP@The?5descriptor?5is?5not?5a?5socket?4?$AA@
  00136	8d 4d d8	 lea	 ecx, DWORD PTR $T104782[ebp]
  00139	e8 00 00 00 00	 call	 ??0?$basic_string@DV?$char_traits@D@_STL@@V?$allocator@D@2@@_STL@@QAE@PBDABV?$allocator@D@1@@Z ; _STL::basic_string<char,_STL::char_traits<char>,_STL::allocator<char> >::basic_string<char,_STL::char_traits<char>,_STL::allocator<char> >
  0013e	8d 45 d8	 lea	 eax, DWORD PTR $T104782[ebp]
  00141	50		 push	 eax
  00142	8d 8d 20 ff ff
	ff		 lea	 ecx, DWORD PTR $T104781[ebp]
  00148	c7 45 fc 05 00
	00 00		 mov	 DWORD PTR __$EHRec$[ebp+8], 5
  0014f	e8 00 00 00 00	 call	 ??0Error@@QAE@ABV?$basic_string@DV?$char_traits@D@_STL@@V?$allocator@D@2@@_STL@@@Z ; Error::Error
  00154	68 00 00 00 00	 push	 OFFSET FLAT:__TI2?AVError@@
  00159	8d 85 20 ff ff
	ff		 lea	 eax, DWORD PTR $T104781[ebp]
  0015f	eb 66		 jmp	 SHORT $L105102

; 1182 : 		case WSAEINVAL : 
; 1183 : 			throw Error("The how parameter is not valid, or is not consistent with the socket type. For example, SD_SEND is used with a UNI_RECV socket type.");

$L104921:

; 1184 : 		case WSAEINPROGRESS : 
; 1185 : 			throw Error("A blocking Windows Sockets 1.1 call is in progress, or the service provider is still processing a callback function.");

  00161	8d 45 f3	 lea	 eax, DWORD PTR $T104777[ebp]
  00164	50		 push	 eax
  00165	68 00 00 00 00	 push	 OFFSET FLAT:??_C@_0HF@MHMDKDMH@A?5blocking?5Windows?5Sockets?51?41?5c@
  0016a	8d 4d b4	 lea	 ecx, DWORD PTR $T104776[ebp]
  0016d	e8 00 00 00 00	 call	 ??0?$basic_string@DV?$char_traits@D@_STL@@V?$allocator@D@2@@_STL@@QAE@PBDABV?$allocator@D@1@@Z ; _STL::basic_string<char,_STL::char_traits<char>,_STL::allocator<char> >::basic_string<char,_STL::char_traits<char>,_STL::allocator<char> >
  00172	8d 45 b4	 lea	 eax, DWORD PTR $T104776[ebp]
  00175	50		 push	 eax
  00176	8d 8d 5c ff ff
	ff		 lea	 ecx, DWORD PTR $T104775[ebp]
  0017c	c7 45 fc 03 00
	00 00		 mov	 DWORD PTR __$EHRec$[ebp+8], 3
  00183	e8 00 00 00 00	 call	 ??0Error@@QAE@ABV?$basic_string@DV?$char_traits@D@_STL@@V?$allocator@D@2@@_STL@@@Z ; Error::Error
  00188	68 00 00 00 00	 push	 OFFSET FLAT:__TI2?AVError@@
  0018d	8d 85 5c ff ff
	ff		 lea	 eax, DWORD PTR $T104775[ebp]
  00193	eb 32		 jmp	 SHORT $L105102

; 1180 : 		case WSAENETDOWN :
; 1181 : 			throw Error("The network subsystem has failed.");

$L104878:

; 1182 : 		case WSAEINVAL : 
; 1183 : 			throw Error("The how parameter is not valid, or is not consistent with the socket type. For example, SD_SEND is used with a UNI_RECV socket type.");

  00195	8d 45 f3	 lea	 eax, DWORD PTR $T104774[ebp]
  00198	50		 push	 eax
  00199	68 00 00 00 00	 push	 OFFSET FLAT:??_C@_0IF@IMEIFAF@The?5how?5parameter?5is?5not?5valid?0?5@
  0019e	8d 4d e4	 lea	 ecx, DWORD PTR $T104773[ebp]
  001a1	e8 00 00 00 00	 call	 ??0?$basic_string@DV?$char_traits@D@_STL@@V?$allocator@D@2@@_STL@@QAE@PBDABV?$allocator@D@1@@Z ; _STL::basic_string<char,_STL::char_traits<char>,_STL::allocator<char> >::basic_string<char,_STL::char_traits<char>,_STL::allocator<char> >
  001a6	8d 45 e4	 lea	 eax, DWORD PTR $T104773[ebp]
  001a9	50		 push	 eax
  001aa	8d 8d 34 ff ff
	ff		 lea	 ecx, DWORD PTR $T104772[ebp]
  001b0	c7 45 fc 02 00
	00 00		 mov	 DWORD PTR __$EHRec$[ebp+8], 2
  001b7	e8 00 00 00 00	 call	 ??0Error@@QAE@ABV?$basic_string@DV?$char_traits@D@_STL@@V?$allocator@D@2@@_STL@@@Z ; Error::Error
  001bc	68 00 00 00 00	 push	 OFFSET FLAT:__TI2?AVError@@
  001c1	8d 85 34 ff ff
	ff		 lea	 eax, DWORD PTR $T104772[ebp]
$L105102:
  001c7	50		 push	 eax
  001c8	e8 00 00 00 00	 call	 __CxxThrowException@8
$L105104:
$L100517:

; 1192 : 		}
; 1193 : #endif
; 1194 : 	}
; 1195 : 	
; 1196 : 	__END_CATCH
; 1197 : }

  001cd	8b 4d f4	 mov	 ecx, DWORD PTR __$EHRec$[ebp]
  001d0	64 89 0d 00 00
	00 00		 mov	 DWORD PTR fs:__except_list, ecx
  001d7	c9		 leave
  001d8	c3		 ret	 0
$L105101:
_TEXT	ENDS
;	COMDAT text$x
text$x	SEGMENT
$L104793:
  00000	8d 4d 9c	 lea	 ecx, DWORD PTR $T104785[ebp]
  00003	e9 00 00 00 00	 jmp	 ??1?$basic_string@DV?$char_traits@D@_STL@@V?$allocator@D@2@@_STL@@QAE@XZ ; _STL::basic_string<char,_STL::char_traits<char>,_STL::allocator<char> >::~basic_string<char,_STL::char_traits<char>,_STL::allocator<char> >
$L104787:
  00008	8d 4d c0	 lea	 ecx, DWORD PTR $T104767[ebp]
  0000b	e9 00 00 00 00	 jmp	 ??1?$basic_string@DV?$char_traits@D@_STL@@V?$allocator@D@2@@_STL@@QAE@XZ ; _STL::basic_string<char,_STL::char_traits<char>,_STL::allocator<char> >::~basic_string<char,_STL::char_traits<char>,_STL::allocator<char> >
$L104791:
  00010	8d 4d cc	 lea	 ecx, DWORD PTR $T104779[ebp]
  00013	e9 00 00 00 00	 jmp	 ??1?$basic_string@DV?$char_traits@D@_STL@@V?$allocator@D@2@@_STL@@QAE@XZ ; _STL::basic_string<char,_STL::char_traits<char>,_STL::allocator<char> >::~basic_string<char,_STL::char_traits<char>,_STL::allocator<char> >
$L104788:
  00018	8d 4d a8	 lea	 ecx, DWORD PTR $T104770[ebp]
  0001b	e9 00 00 00 00	 jmp	 ??1?$basic_string@DV?$char_traits@D@_STL@@V?$allocator@D@2@@_STL@@QAE@XZ ; _STL::basic_string<char,_STL::char_traits<char>,_STL::allocator<char> >::~basic_string<char,_STL::char_traits<char>,_STL::allocator<char> >
$L104792:
  00020	8d 4d d8	 lea	 ecx, DWORD PTR $T104782[ebp]
  00023	e9 00 00 00 00	 jmp	 ??1?$basic_string@DV?$char_traits@D@_STL@@V?$allocator@D@2@@_STL@@QAE@XZ ; _STL::basic_string<char,_STL::char_traits<char>,_STL::allocator<char> >::~basic_string<char,_STL::char_traits<char>,_STL::allocator<char> >
$L104790:
  00028	8d 4d b4	 lea	 ecx, DWORD PTR $T104776[ebp]
  0002b	e9 00 00 00 00	 jmp	 ??1?$basic_string@DV?$char_traits@D@_STL@@V?$allocator@D@2@@_STL@@QAE@XZ ; _STL::basic_string<char,_STL::char_traits<char>,_STL::allocator<char> >::~basic_string<char,_STL::char_traits<char>,_STL::allocator<char> >
$L104789:
  00030	8d 4d e4	 lea	 ecx, DWORD PTR $T104773[ebp]
  00033	e9 00 00 00 00	 jmp	 ??1?$basic_string@DV?$char_traits@D@_STL@@V?$allocator@D@2@@_STL@@QAE@XZ ; _STL::basic_string<char,_STL::char_traits<char>,_STL::allocator<char> >::~basic_string<char,_STL::char_traits<char>,_STL::allocator<char> >
__ehhandler$?shutdown_ex@SocketAPI@@YAXII@Z:
  00038	b8 00 00 00 00	 mov	 eax, OFFSET FLAT:$T105099
  0003d	e9 00 00 00 00	 jmp	 ___CxxFrameHandler
text$x	ENDS
?shutdown_ex@SocketAPI@@YAXII@Z ENDP			; SocketAPI::shutdown_ex
PUBLIC	?select_ex@SocketAPI@@YAHHPAUfd_set@@00PAUtimeval@@@Z ; SocketAPI::select_ex
; Function compile flags: /Ogsy
;	COMDAT ?select_ex@SocketAPI@@YAHHPAUfd_set@@00PAUtimeval@@@Z
_TEXT	SEGMENT
$T105109 = -20						; size = 20
_maxfdp1$ = 8						; size = 4
_readset$ = 12						; size = 4
_writeset$ = 16						; size = 4
_exceptset$ = 20					; size = 4
_timeout$ = 24						; size = 4
?select_ex@SocketAPI@@YAHHPAUfd_set@@00PAUtimeval@@@Z PROC NEAR ; SocketAPI::select_ex, COMDAT

; 1224 : {

  00000	55		 push	 ebp
  00001	8b ec		 mov	 ebp, esp
  00003	83 ec 14	 sub	 esp, 20			; 00000014H

; 1225 : 	__BEGIN_TRY
; 1226 : 
; 1227 : #if __LINUX__
; 1228 : 
; 1229 : 	int result = select( maxfdp1 , readset , writeset , exceptset , timeout );
; 1230 : 
; 1231 : 	if ( result == 0 )
; 1232 : 		throw TimeoutException();
; 1233 : 
; 1234 : 	if ( result < 0 ) {
; 1235 : 		switch ( errno ) {
; 1236 : 		case EINTR : 
; 1237 : 			throw InterruptedException("A non blocked signal was caught.");
; 1238 : 		case EBADF : 
; 1239 : 			throw Error("An invalid file descriptor was given in one of the sets.");
; 1240 : 		case EINVAL : 
; 1241 : 			throw Error("parameter maxfdp1 is negative.");
; 1242 : 		case ENOMEM : 
; 1243 : 			throw Error("select was unable to allocate memory for internal tables.");
; 1244 : 		default : 
; 1245 : 			throw UnknownError(strerror(errno),errno);
; 1246 : 		}
; 1247 : 	}
; 1248 : 
; 1249 : 	return result;
; 1250 : 
; 1251 : #elif __WINDOWS__
; 1252 : 
; 1253 : 	throw UnsupportedError();

  00006	8d 4d ec	 lea	 ecx, DWORD PTR $T105109[ebp]
  00009	e8 00 00 00 00	 call	 ??0UnsupportedError@@QAE@XZ ; UnsupportedError::UnsupportedError
  0000e	68 00 00 00 00	 push	 OFFSET FLAT:__TI3?AVUnsupportedError@@
  00013	8d 45 ec	 lea	 eax, DWORD PTR $T105109[ebp]
  00016	50		 push	 eax
  00017	e8 00 00 00 00	 call	 __CxxThrowException@8
$L105111:
$L105110:
  0001c	cc		 int	 3
?select_ex@SocketAPI@@YAHHPAUfd_set@@00PAUtimeval@@@Z ENDP ; SocketAPI::select_ex
_TEXT	ENDS
PUBLIC	??0?$list@V?$basic_string@DV?$char_traits@D@_STL@@V?$allocator@D@2@@_STL@@V?$allocator@V?$basic_string@DV?$char_traits@D@_STL@@V?$allocator@D@2@@_STL@@@2@@_STL@@QAE@ABV01@@Z ; _STL::list<_STL::basic_string<char,_STL::char_traits<char>,_STL::allocator<char> >,_STL::allocator<_STL::basic_string<char,_STL::char_traits<char>,_STL::allocator<char> > > >::list<_STL::basic_string<char,_STL::char_traits<char>,_STL::allocator<char> >,_STL::allocator<_STL::basic_string<char,_STL::char_traits<char>,_STL::allocator<char> > > >
;	COMDAT xdata$x
; File c:\stlport-4.6.1\stlport\stl\_list.h
xdata$x	SEGMENT
$T105174 DD	0ffffffffH
	DD	FLAT:$L105118
$T105172 DD	019930520H
	DD	01H
	DD	FLAT:$T105174
	DD	2 DUP(00H)
	DD	2 DUP(00H)
; Function compile flags: /Ogsy
xdata$x	ENDS
;	COMDAT ??0?$list@V?$basic_string@DV?$char_traits@D@_STL@@V?$allocator@D@2@@_STL@@V?$allocator@V?$basic_string@DV?$char_traits@D@_STL@@V?$allocator@D@2@@_STL@@@2@@_STL@@QAE@ABV01@@Z
_TEXT	SEGMENT
$T105117 = -20						; size = 4
_this$ = -16						; size = 4
__$EHRec$ = -12						; size = 12
___x$ = 8						; size = 4
$T105114 = 11						; size = 1
??0?$list@V?$basic_string@DV?$char_traits@D@_STL@@V?$allocator@D@2@@_STL@@V?$allocator@V?$basic_string@DV?$char_traits@D@_STL@@V?$allocator@D@2@@_STL@@@2@@_STL@@QAE@ABV01@@Z PROC NEAR ; _STL::list<_STL::basic_string<char,_STL::char_traits<char>,_STL::allocator<char> >,_STL::allocator<_STL::basic_string<char,_STL::char_traits<char>,_STL::allocator<char> > > >::list<_STL::basic_string<char,_STL::char_traits<char>,_STL::allocator<char> >,_STL::allocator<_STL::basic_string<char,_STL::char_traits<char>,_STL::allocator<char> > > >, COMDAT
; _this$ = ecx

; 414  :     { insert(begin(), __x.begin(), __x.end()); }

  00000	b8 00 00 00 00	 mov	 eax, __ehhandler$??0?$list@V?$basic_string@DV?$char_traits@D@_STL@@V?$allocator@D@2@@_STL@@V?$allocator@V?$basic_string@DV?$char_traits@D@_STL@@V?$allocator@D@2@@_STL@@@2@@_STL@@QAE@ABV01@@Z
  00005	e8 00 00 00 00	 call	 __EH_prolog
  0000a	51		 push	 ecx
  0000b	51		 push	 ecx
  0000c	56		 push	 esi
  0000d	57		 push	 edi
  0000e	8b 7d 08	 mov	 edi, DWORD PTR ___x$[ebp]
  00011	8b f1		 mov	 esi, ecx
  00013	8d 45 0b	 lea	 eax, DWORD PTR $T105114[ebp]
  00016	50		 push	 eax
  00017	8b cf		 mov	 ecx, edi
  00019	89 75 f0	 mov	 DWORD PTR _this$[ebp], esi
  0001c	e8 00 00 00 00	 call	 ?get_allocator@?$_List_base@V?$basic_string@DV?$char_traits@D@_STL@@V?$allocator@D@2@@_STL@@V?$allocator@V?$basic_string@DV?$char_traits@D@_STL@@V?$allocator@D@2@@_STL@@@2@@_STL@@QBE?AV?$allocator@V?$basic_string@DV?$char_traits@D@_STL@@V?$allocator@D@2@@_STL@@@2@XZ ; _STL::_List_base<_STL::basic_string<char,_STL::char_traits<char>,_STL::allocator<char> >,_STL::allocator<_STL::basic_string<char,_STL::char_traits<char>,_STL::allocator<char> > > >::get_allocator
  00021	50		 push	 eax
  00022	8b ce		 mov	 ecx, esi
  00024	e8 00 00 00 00	 call	 ??0?$_List_base@V?$basic_string@DV?$char_traits@D@_STL@@V?$allocator@D@2@@_STL@@V?$allocator@V?$basic_string@DV?$char_traits@D@_STL@@V?$allocator@D@2@@_STL@@@2@@_STL@@QAE@ABV?$allocator@V?$basic_string@DV?$char_traits@D@_STL@@V?$allocator@D@2@@_STL@@@1@@Z ; _STL::_List_base<_STL::basic_string<char,_STL::char_traits<char>,_STL::allocator<char> >,_STL::allocator<_STL::basic_string<char,_STL::char_traits<char>,_STL::allocator<char> > > >::_List_base<_STL::basic_string<char,_STL::char_traits<char>,_STL::allocator<char> >,_STL::allocator<_STL::basic_string<char,_STL::char_traits<char>,_STL::allocator<char> > > >
  00029	8b 07		 mov	 eax, DWORD PTR [edi]
  0002b	8b 08		 mov	 ecx, DWORD PTR [eax]
  0002d	83 65 fc 00	 and	 DWORD PTR __$EHRec$[ebp+8], 0
  00031	50		 push	 eax
  00032	51		 push	 ecx
  00033	51		 push	 ecx
  00034	8b 0e		 mov	 ecx, DWORD PTR [esi]
  00036	8b 09		 mov	 ecx, DWORD PTR [ecx]
  00038	8b c4		 mov	 eax, esp
  0003a	89 08		 mov	 DWORD PTR [eax], ecx
  0003c	8b ce		 mov	 ecx, esi
  0003e	89 65 ec	 mov	 DWORD PTR $T105117[ebp], esp
  00041	e8 00 00 00 00	 call	 ??$insert@U?$_List_iterator@V?$basic_string@DV?$char_traits@D@_STL@@V?$allocator@D@2@@_STL@@U?$_Const_traits@V?$basic_string@DV?$char_traits@D@_STL@@V?$allocator@D@2@@_STL@@@2@@_STL@@@?$list@V?$basic_string@DV?$char_traits@D@_STL@@V?$allocator@D@2@@_STL@@V?$allocator@V?$basic_string@DV?$char_traits@D@_STL@@V?$allocator@D@2@@_STL@@@2@@_STL@@QAEXU?$_List_iterator@V?$basic_string@DV?$char_traits@D@_STL@@V?$allocator@D@2@@_STL@@U?$_Nonconst_traits@V?$basic_string@DV?$char_traits@D@_STL@@V?$allocator@D@2@@_STL@@@2@@1@U?$_List_iterator@V?$basic_string@DV?$char_traits@D@_STL@@V?$allocator@D@2@@_STL@@U?$_Const_traits@V?$basic_string@DV?$char_traits@D@_STL@@V?$allocator@D@2@@_STL@@@2@@1@1@Z ; _STL::list<_STL::basic_string<char,_STL::char_traits<char>,_STL::allocator<char> >,_STL::allocator<_STL::basic_string<char,_STL::char_traits<char>,_STL::allocator<char> > > >::insert<_STL::_List_iterator<_STL::basic_string<char,_STL::char_traits<char>,_STL::allocator<char> >,_STL::_Const_traits<_STL::basic_string<char,_STL::char_traits<char>,_STL::allocator<char> > > > >
  00046	8b 4d f4	 mov	 ecx, DWORD PTR __$EHRec$[ebp]
  00049	5f		 pop	 edi
  0004a	8b c6		 mov	 eax, esi
  0004c	64 89 0d 00 00
	00 00		 mov	 DWORD PTR fs:__except_list, ecx
  00053	5e		 pop	 esi
  00054	c9		 leave
  00055	c2 04 00	 ret	 4
_TEXT	ENDS
;	COMDAT text$x
text$x	SEGMENT
$L105118:
  00000	8b 4d f0	 mov	 ecx, DWORD PTR _this$[ebp]
  00003	e9 00 00 00 00	 jmp	 ??1?$_List_base@V?$basic_string@DV?$char_traits@D@_STL@@V?$allocator@D@2@@_STL@@V?$allocator@V?$basic_string@DV?$char_traits@D@_STL@@V?$allocator@D@2@@_STL@@@2@@_STL@@QAE@XZ ; _STL::_List_base<_STL::basic_string<char,_STL::char_traits<char>,_STL::allocator<char> >,_STL::allocator<_STL::basic_string<char,_STL::char_traits<char>,_STL::allocator<char> > > >::~_List_base<_STL::basic_string<char,_STL::char_traits<char>,_STL::allocator<char> >,_STL::allocator<_STL::basic_string<char,_STL::char_traits<char>,_STL::allocator<char> > > >
__ehhandler$??0?$list@V?$basic_string@DV?$char_traits@D@_STL@@V?$allocator@D@2@@_STL@@V?$allocator@V?$basic_string@DV?$char_traits@D@_STL@@V?$allocator@D@2@@_STL@@@2@@_STL@@QAE@ABV01@@Z:
  00008	b8 00 00 00 00	 mov	 eax, OFFSET FLAT:$T105172
  0000d	e9 00 00 00 00	 jmp	 ___CxxFrameHandler
text$x	ENDS
??0?$list@V?$basic_string@DV?$char_traits@D@_STL@@V?$allocator@D@2@@_STL@@V?$allocator@V?$basic_string@DV?$char_traits@D@_STL@@V?$allocator@D@2@@_STL@@@2@@_STL@@QAE@ABV01@@Z ENDP ; _STL::list<_STL::basic_string<char,_STL::char_traits<char>,_STL::allocator<char> >,_STL::allocator<_STL::basic_string<char,_STL::char_traits<char>,_STL::allocator<char> > > >::list<_STL::basic_string<char,_STL::char_traits<char>,_STL::allocator<char> >,_STL::allocator<_STL::basic_string<char,_STL::char_traits<char>,_STL::allocator<char> > > >
; Function compile flags: /Ogsy
;	COMDAT ??_GException@@UAEPAXI@Z
_TEXT	SEGMENT
___flags$ = 8						; size = 4
??_GException@@UAEPAXI@Z PROC NEAR			; Exception::`scalar deleting destructor', COMDAT
; _this$ = ecx
  00000	56		 push	 esi
  00001	8b f1		 mov	 esi, ecx
  00003	e8 00 00 00 00	 call	 ??1Exception@@UAE@XZ
  00008	f6 44 24 08 01	 test	 BYTE PTR ___flags$[esp], 1
  0000d	74 07		 je	 SHORT $L88063
  0000f	56		 push	 esi
  00010	e8 00 00 00 00	 call	 ??3@YAXPAX@Z		; operator delete
  00015	59		 pop	 ecx
$L88063:
  00016	8b c6		 mov	 eax, esi
  00018	5e		 pop	 esi
  00019	c2 04 00	 ret	 4
??_GException@@UAEPAXI@Z ENDP				; Exception::`scalar deleting destructor'
; Function compile flags: /Ogsy
_TEXT	ENDS
;	COMDAT ??_GIOException@@UAEPAXI@Z
_TEXT	SEGMENT
___flags$ = 8						; size = 4
??_GIOException@@UAEPAXI@Z PROC NEAR			; IOException::`scalar deleting destructor', COMDAT
; _this$ = ecx
  00000	56		 push	 esi
  00001	8b f1		 mov	 esi, ecx
  00003	e8 00 00 00 00	 call	 ??1IOException@@UAE@XZ
  00008	f6 44 24 08 01	 test	 BYTE PTR ___flags$[esp], 1
  0000d	74 07		 je	 SHORT $L88096
  0000f	56		 push	 esi
  00010	e8 00 00 00 00	 call	 ??3@YAXPAX@Z		; operator delete
  00015	59		 pop	 ecx
$L88096:
  00016	8b c6		 mov	 eax, esi
  00018	5e		 pop	 esi
  00019	c2 04 00	 ret	 4
??_GIOException@@UAEPAXI@Z ENDP				; IOException::`scalar deleting destructor'
; Function compile flags: /Ogsy
_TEXT	ENDS
;	COMDAT ??_GNonBlockingIOException@@UAEPAXI@Z
_TEXT	SEGMENT
___flags$ = 8						; size = 4
??_GNonBlockingIOException@@UAEPAXI@Z PROC NEAR		; NonBlockingIOException::`scalar deleting destructor', COMDAT
; _this$ = ecx
  00000	56		 push	 esi
  00001	8b f1		 mov	 esi, ecx
  00003	e8 00 00 00 00	 call	 ??1NonBlockingIOException@@UAE@XZ
  00008	f6 44 24 08 01	 test	 BYTE PTR ___flags$[esp], 1
  0000d	74 07		 je	 SHORT $L88129
  0000f	56		 push	 esi
  00010	e8 00 00 00 00	 call	 ??3@YAXPAX@Z		; operator delete
  00015	59		 pop	 ecx
$L88129:
  00016	8b c6		 mov	 eax, esi
  00018	5e		 pop	 esi
  00019	c2 04 00	 ret	 4
??_GNonBlockingIOException@@UAEPAXI@Z ENDP		; NonBlockingIOException::`scalar deleting destructor'
; Function compile flags: /Ogsy
_TEXT	ENDS
;	COMDAT ??_GFileNotOpenedException@@UAEPAXI@Z
_TEXT	SEGMENT
___flags$ = 8						; size = 4
??_GFileNotOpenedException@@UAEPAXI@Z PROC NEAR		; FileNotOpenedException::`scalar deleting destructor', COMDAT
; _this$ = ecx
  00000	56		 push	 esi
  00001	8b f1		 mov	 esi, ecx
  00003	e8 00 00 00 00	 call	 ??1FileNotOpenedException@@UAE@XZ
  00008	f6 44 24 08 01	 test	 BYTE PTR ___flags$[esp], 1
  0000d	74 07		 je	 SHORT $L88228
  0000f	56		 push	 esi
  00010	e8 00 00 00 00	 call	 ??3@YAXPAX@Z		; operator delete
  00015	59		 pop	 ecx
$L88228:
  00016	8b c6		 mov	 eax, esi
  00018	5e		 pop	 esi
  00019	c2 04 00	 ret	 4
??_GFileNotOpenedException@@UAEPAXI@Z ENDP		; FileNotOpenedException::`scalar deleting destructor'
; Function compile flags: /Ogsy
_TEXT	ENDS
;	COMDAT ??_GSocketException@@UAEPAXI@Z
_TEXT	SEGMENT
___flags$ = 8						; size = 4
??_GSocketException@@UAEPAXI@Z PROC NEAR		; SocketException::`scalar deleting destructor', COMDAT
; _this$ = ecx
  00000	56		 push	 esi
  00001	8b f1		 mov	 esi, ecx
  00003	e8 00 00 00 00	 call	 ??1SocketException@@UAE@XZ
  00008	f6 44 24 08 01	 test	 BYTE PTR ___flags$[esp], 1
  0000d	74 07		 je	 SHORT $L88360
  0000f	56		 push	 esi
  00010	e8 00 00 00 00	 call	 ??3@YAXPAX@Z		; operator delete
  00015	59		 pop	 ecx
$L88360:
  00016	8b c6		 mov	 eax, esi
  00018	5e		 pop	 esi
  00019	c2 04 00	 ret	 4
??_GSocketException@@UAEPAXI@Z ENDP			; SocketException::`scalar deleting destructor'
; Function compile flags: /Ogsy
_TEXT	ENDS
;	COMDAT ??_GBindException@@UAEPAXI@Z
_TEXT	SEGMENT
___flags$ = 8						; size = 4
??_GBindException@@UAEPAXI@Z PROC NEAR			; BindException::`scalar deleting destructor', COMDAT
; _this$ = ecx
  00000	56		 push	 esi
  00001	8b f1		 mov	 esi, ecx
  00003	e8 00 00 00 00	 call	 ??1BindException@@UAE@XZ
  00008	f6 44 24 08 01	 test	 BYTE PTR ___flags$[esp], 1
  0000d	74 07		 je	 SHORT $L88393
  0000f	56		 push	 esi
  00010	e8 00 00 00 00	 call	 ??3@YAXPAX@Z		; operator delete
  00015	59		 pop	 ecx
$L88393:
  00016	8b c6		 mov	 eax, esi
  00018	5e		 pop	 esi
  00019	c2 04 00	 ret	 4
??_GBindException@@UAEPAXI@Z ENDP			; BindException::`scalar deleting destructor'
; Function compile flags: /Ogsy
_TEXT	ENDS
;	COMDAT ??_GConnectException@@UAEPAXI@Z
_TEXT	SEGMENT
___flags$ = 8						; size = 4
??_GConnectException@@UAEPAXI@Z PROC NEAR		; ConnectException::`scalar deleting destructor', COMDAT
; _this$ = ecx
  00000	56		 push	 esi
  00001	8b f1		 mov	 esi, ecx
  00003	e8 00 00 00 00	 call	 ??1ConnectException@@UAE@XZ
  00008	f6 44 24 08 01	 test	 BYTE PTR ___flags$[esp], 1
  0000d	74 07		 je	 SHORT $L88426
  0000f	56		 push	 esi
  00010	e8 00 00 00 00	 call	 ??3@YAXPAX@Z		; operator delete
  00015	59		 pop	 ecx
$L88426:
  00016	8b c6		 mov	 eax, esi
  00018	5e		 pop	 esi
  00019	c2 04 00	 ret	 4
??_GConnectException@@UAEPAXI@Z ENDP			; ConnectException::`scalar deleting destructor'
; Function compile flags: /Ogsy
_TEXT	ENDS
;	COMDAT ??_GError@@UAEPAXI@Z
_TEXT	SEGMENT
___flags$ = 8						; size = 4
??_GError@@UAEPAXI@Z PROC NEAR				; Error::`scalar deleting destructor', COMDAT
; _this$ = ecx
  00000	56		 push	 esi
  00001	8b f1		 mov	 esi, ecx
  00003	e8 00 00 00 00	 call	 ??1Error@@UAE@XZ
  00008	f6 44 24 08 01	 test	 BYTE PTR ___flags$[esp], 1
  0000d	74 07		 je	 SHORT $L89237
  0000f	56		 push	 esi
  00010	e8 00 00 00 00	 call	 ??3@YAXPAX@Z		; operator delete
  00015	59		 pop	 ecx
$L89237:
  00016	8b c6		 mov	 eax, esi
  00018	5e		 pop	 esi
  00019	c2 04 00	 ret	 4
??_GError@@UAEPAXI@Z ENDP				; Error::`scalar deleting destructor'
; Function compile flags: /Ogsy
_TEXT	ENDS
;	COMDAT ??_GUnsupportedError@@UAEPAXI@Z
_TEXT	SEGMENT
___flags$ = 8						; size = 4
??_GUnsupportedError@@UAEPAXI@Z PROC NEAR		; UnsupportedError::`scalar deleting destructor', COMDAT
; _this$ = ecx
  00000	56		 push	 esi
  00001	8b f1		 mov	 esi, ecx
  00003	e8 00 00 00 00	 call	 ??1UnsupportedError@@UAE@XZ
  00008	f6 44 24 08 01	 test	 BYTE PTR ___flags$[esp], 1
  0000d	74 07		 je	 SHORT $L89333
  0000f	56		 push	 esi
  00010	e8 00 00 00 00	 call	 ??3@YAXPAX@Z		; operator delete
  00015	59		 pop	 ecx
$L89333:
  00016	8b c6		 mov	 eax, esi
  00018	5e		 pop	 esi
  00019	c2 04 00	 ret	 4
??_GUnsupportedError@@UAEPAXI@Z ENDP			; UnsupportedError::`scalar deleting destructor'
; Function compile flags: /Ogsy
_TEXT	ENDS
;	COMDAT ??_GUnknownError@@UAEPAXI@Z
_TEXT	SEGMENT
___flags$ = 8						; size = 4
??_GUnknownError@@UAEPAXI@Z PROC NEAR			; UnknownError::`scalar deleting destructor', COMDAT
; _this$ = ecx
  00000	56		 push	 esi
  00001	8b f1		 mov	 esi, ecx
  00003	e8 00 00 00 00	 call	 ??1UnknownError@@UAE@XZ
  00008	f6 44 24 08 01	 test	 BYTE PTR ___flags$[esp], 1
  0000d	74 07		 je	 SHORT $L89417
  0000f	56		 push	 esi
  00010	e8 00 00 00 00	 call	 ??3@YAXPAX@Z		; operator delete
  00015	59		 pop	 ecx
$L89417:
  00016	8b c6		 mov	 eax, esi
  00018	5e		 pop	 esi
  00019	c2 04 00	 ret	 4
??_GUnknownError@@UAEPAXI@Z ENDP			; UnknownError::`scalar deleting destructor'
_TEXT	ENDS
;	COMDAT xdata$x
xdata$x	SEGMENT
$T105214 DD	0ffffffffH
	DD	FLAT:$L105209
$T105212 DD	019930520H
	DD	01H
	DD	FLAT:$T105214
	DD	2 DUP(00H)
	DD	2 DUP(00H)
; Function compile flags: /Ogsy
xdata$x	ENDS
;	COMDAT ??0Throwable@@QAE@ABV0@@Z
_TEXT	SEGMENT
_this$ = -16						; size = 4
__$EHRec$ = -12						; size = 12
___that$ = 8						; size = 4
??0Throwable@@QAE@ABV0@@Z PROC NEAR			; Throwable::Throwable, COMDAT
; _this$ = ecx
  00000	b8 00 00 00 00	 mov	 eax, __ehhandler$??0Throwable@@QAE@ABV0@@Z
  00005	e8 00 00 00 00	 call	 __EH_prolog
  0000a	51		 push	 ecx
  0000b	56		 push	 esi
  0000c	57		 push	 edi
  0000d	8b 7d 08	 mov	 edi, DWORD PTR ___that$[ebp]
  00010	8b f1		 mov	 esi, ecx
  00012	8d 47 04	 lea	 eax, DWORD PTR [edi+4]
  00015	50		 push	 eax
  00016	8d 4e 04	 lea	 ecx, DWORD PTR [esi+4]
  00019	89 75 f0	 mov	 DWORD PTR _this$[ebp], esi
  0001c	c7 06 00 00 00
	00		 mov	 DWORD PTR [esi], OFFSET FLAT:??_7Throwable@@6B@
  00022	e8 00 00 00 00	 call	 ??0?$basic_string@DV?$char_traits@D@_STL@@V?$allocator@D@2@@_STL@@QAE@ABV01@@Z ; _STL::basic_string<char,_STL::char_traits<char>,_STL::allocator<char> >::basic_string<char,_STL::char_traits<char>,_STL::allocator<char> >
  00027	83 65 fc 00	 and	 DWORD PTR __$EHRec$[ebp+8], 0
  0002b	83 c7 10	 add	 edi, 16			; 00000010H
  0002e	57		 push	 edi
  0002f	8d 4e 10	 lea	 ecx, DWORD PTR [esi+16]
  00032	e8 00 00 00 00	 call	 ??0?$list@V?$basic_string@DV?$char_traits@D@_STL@@V?$allocator@D@2@@_STL@@V?$allocator@V?$basic_string@DV?$char_traits@D@_STL@@V?$allocator@D@2@@_STL@@@2@@_STL@@QAE@ABV01@@Z ; _STL::list<_STL::basic_string<char,_STL::char_traits<char>,_STL::allocator<char> >,_STL::allocator<_STL::basic_string<char,_STL::char_traits<char>,_STL::allocator<char> > > >::list<_STL::basic_string<char,_STL::char_traits<char>,_STL::allocator<char> >,_STL::allocator<_STL::basic_string<char,_STL::char_traits<char>,_STL::allocator<char> > > >
  00037	8b 4d f4	 mov	 ecx, DWORD PTR __$EHRec$[ebp]
  0003a	5f		 pop	 edi
  0003b	8b c6		 mov	 eax, esi
  0003d	5e		 pop	 esi
  0003e	64 89 0d 00 00
	00 00		 mov	 DWORD PTR fs:__except_list, ecx
  00045	c9		 leave
  00046	c2 04 00	 ret	 4
_TEXT	ENDS
;	COMDAT text$x
text$x	SEGMENT
$L105209:
  00000	8b 4d f0	 mov	 ecx, DWORD PTR _this$[ebp]
  00003	83 c1 04	 add	 ecx, 4
  00006	e9 00 00 00 00	 jmp	 ??1?$basic_string@DV?$char_traits@D@_STL@@V?$allocator@D@2@@_STL@@QAE@XZ ; _STL::basic_string<char,_STL::char_traits<char>,_STL::allocator<char> >::~basic_string<char,_STL::char_traits<char>,_STL::allocator<char> >
__ehhandler$??0Throwable@@QAE@ABV0@@Z:
  0000b	b8 00 00 00 00	 mov	 eax, OFFSET FLAT:$T105212
  00010	e9 00 00 00 00	 jmp	 ___CxxFrameHandler
text$x	ENDS
??0Throwable@@QAE@ABV0@@Z ENDP				; Throwable::Throwable
PUBLIC	??0Exception@@QAE@ABV0@@Z			; Exception::Exception
; Function compile flags: /Ogsy
;	COMDAT ??0Exception@@QAE@ABV0@@Z
_TEXT	SEGMENT
___that$ = 8						; size = 4
??0Exception@@QAE@ABV0@@Z PROC NEAR			; Exception::Exception, COMDAT
; _this$ = ecx
  00000	56		 push	 esi
  00001	ff 74 24 08	 push	 DWORD PTR ___that$[esp]
  00005	8b f1		 mov	 esi, ecx
  00007	e8 00 00 00 00	 call	 ??0Throwable@@QAE@ABV0@@Z
  0000c	c7 06 00 00 00
	00		 mov	 DWORD PTR [esi], OFFSET FLAT:??_7Exception@@6B@
  00012	8b c6		 mov	 eax, esi
  00014	5e		 pop	 esi
  00015	c2 04 00	 ret	 4
??0Exception@@QAE@ABV0@@Z ENDP				; Exception::Exception
; Function compile flags: /Ogsy
_TEXT	ENDS
;	COMDAT ??0Error@@QAE@ABV0@@Z
_TEXT	SEGMENT
___that$ = 8						; size = 4
??0Error@@QAE@ABV0@@Z PROC NEAR				; Error::Error, COMDAT
; _this$ = ecx
  00000	56		 push	 esi
  00001	ff 74 24 08	 push	 DWORD PTR ___that$[esp]
  00005	8b f1		 mov	 esi, ecx
  00007	e8 00 00 00 00	 call	 ??0Throwable@@QAE@ABV0@@Z
  0000c	c7 06 00 00 00
	00		 mov	 DWORD PTR [esi], OFFSET FLAT:??_7Error@@6B@
  00012	8b c6		 mov	 eax, esi
  00014	5e		 pop	 esi
  00015	c2 04 00	 ret	 4
??0Error@@QAE@ABV0@@Z ENDP				; Error::Error
; Function compile flags: /Ogsy
_TEXT	ENDS
;	COMDAT ??0UnknownError@@QAE@ABV0@@Z
_TEXT	SEGMENT
___that$ = 8						; size = 4
??0UnknownError@@QAE@ABV0@@Z PROC NEAR			; UnknownError::UnknownError, COMDAT
; _this$ = ecx
  00000	56		 push	 esi
  00001	57		 push	 edi
  00002	8b 7c 24 0c	 mov	 edi, DWORD PTR ___that$[esp+4]
  00006	57		 push	 edi
  00007	8b f1		 mov	 esi, ecx
  00009	e8 00 00 00 00	 call	 ??0Error@@QAE@ABV0@@Z
  0000e	c7 06 00 00 00
	00		 mov	 DWORD PTR [esi], OFFSET FLAT:??_7UnknownError@@6B@
  00014	8b 47 14	 mov	 eax, DWORD PTR [edi+20]
  00017	89 46 14	 mov	 DWORD PTR [esi+20], eax
  0001a	5f		 pop	 edi
  0001b	8b c6		 mov	 eax, esi
  0001d	5e		 pop	 esi
  0001e	c2 04 00	 ret	 4
??0UnknownError@@QAE@ABV0@@Z ENDP			; UnknownError::UnknownError
_TEXT	ENDS
PUBLIC	??0IOException@@QAE@ABV0@@Z			; IOException::IOException
; Function compile flags: /Ogsy
;	COMDAT ??0IOException@@QAE@ABV0@@Z
_TEXT	SEGMENT
___that$ = 8						; size = 4
??0IOException@@QAE@ABV0@@Z PROC NEAR			; IOException::IOException, COMDAT
; _this$ = ecx
  00000	56		 push	 esi
  00001	ff 74 24 08	 push	 DWORD PTR ___that$[esp]
  00005	8b f1		 mov	 esi, ecx
  00007	e8 00 00 00 00	 call	 ??0Exception@@QAE@ABV0@@Z
  0000c	c7 06 00 00 00
	00		 mov	 DWORD PTR [esi], OFFSET FLAT:??_7IOException@@6B@
  00012	8b c6		 mov	 eax, esi
  00014	5e		 pop	 esi
  00015	c2 04 00	 ret	 4
??0IOException@@QAE@ABV0@@Z ENDP			; IOException::IOException
_TEXT	ENDS
PUBLIC	??0NonBlockingIOException@@QAE@ABV0@@Z		; NonBlockingIOException::NonBlockingIOException
; Function compile flags: /Ogsy
;	COMDAT ??0NonBlockingIOException@@QAE@ABV0@@Z
_TEXT	SEGMENT
___that$ = 8						; size = 4
??0NonBlockingIOException@@QAE@ABV0@@Z PROC NEAR	; NonBlockingIOException::NonBlockingIOException, COMDAT
; _this$ = ecx
  00000	56		 push	 esi
  00001	ff 74 24 08	 push	 DWORD PTR ___that$[esp]
  00005	8b f1		 mov	 esi, ecx
  00007	e8 00 00 00 00	 call	 ??0IOException@@QAE@ABV0@@Z
  0000c	c7 06 00 00 00
	00		 mov	 DWORD PTR [esi], OFFSET FLAT:??_7NonBlockingIOException@@6B@
  00012	8b c6		 mov	 eax, esi
  00014	5e		 pop	 esi
  00015	c2 04 00	 ret	 4
??0NonBlockingIOException@@QAE@ABV0@@Z ENDP		; NonBlockingIOException::NonBlockingIOException
_TEXT	ENDS
PUBLIC	??0FileNotOpenedException@@QAE@ABV0@@Z		; FileNotOpenedException::FileNotOpenedException
; Function compile flags: /Ogsy
;	COMDAT ??0FileNotOpenedException@@QAE@ABV0@@Z
_TEXT	SEGMENT
___that$ = 8						; size = 4
??0FileNotOpenedException@@QAE@ABV0@@Z PROC NEAR	; FileNotOpenedException::FileNotOpenedException, COMDAT
; _this$ = ecx
  00000	56		 push	 esi
  00001	ff 74 24 08	 push	 DWORD PTR ___that$[esp]
  00005	8b f1		 mov	 esi, ecx
  00007	e8 00 00 00 00	 call	 ??0IOException@@QAE@ABV0@@Z
  0000c	c7 06 00 00 00
	00		 mov	 DWORD PTR [esi], OFFSET FLAT:??_7FileNotOpenedException@@6B@
  00012	8b c6		 mov	 eax, esi
  00014	5e		 pop	 esi
  00015	c2 04 00	 ret	 4
??0FileNotOpenedException@@QAE@ABV0@@Z ENDP		; FileNotOpenedException::FileNotOpenedException
; Function compile flags: /Ogsy
_TEXT	ENDS
;	COMDAT ??0UnsupportedError@@QAE@ABV0@@Z
_TEXT	SEGMENT
___that$ = 8						; size = 4
??0UnsupportedError@@QAE@ABV0@@Z PROC NEAR		; UnsupportedError::UnsupportedError, COMDAT
; _this$ = ecx
  00000	56		 push	 esi
  00001	ff 74 24 08	 push	 DWORD PTR ___that$[esp]
  00005	8b f1		 mov	 esi, ecx
  00007	e8 00 00 00 00	 call	 ??0Error@@QAE@ABV0@@Z
  0000c	c7 06 00 00 00
	00		 mov	 DWORD PTR [esi], OFFSET FLAT:??_7UnsupportedError@@6B@
  00012	8b c6		 mov	 eax, esi
  00014	5e		 pop	 esi
  00015	c2 04 00	 ret	 4
??0UnsupportedError@@QAE@ABV0@@Z ENDP			; UnsupportedError::UnsupportedError
_TEXT	ENDS
PUBLIC	??0SocketException@@QAE@ABV0@@Z			; SocketException::SocketException
; Function compile flags: /Ogsy
;	COMDAT ??0SocketException@@QAE@ABV0@@Z
_TEXT	SEGMENT
___that$ = 8						; size = 4
??0SocketException@@QAE@ABV0@@Z PROC NEAR		; SocketException::SocketException, COMDAT
; _this$ = ecx
  00000	56		 push	 esi
  00001	ff 74 24 08	 push	 DWORD PTR ___that$[esp]
  00005	8b f1		 mov	 esi, ecx
  00007	e8 00 00 00 00	 call	 ??0IOException@@QAE@ABV0@@Z
  0000c	c7 06 00 00 00
	00		 mov	 DWORD PTR [esi], OFFSET FLAT:??_7SocketException@@6B@
  00012	8b c6		 mov	 eax, esi
  00014	5e		 pop	 esi
  00015	c2 04 00	 ret	 4
??0SocketException@@QAE@ABV0@@Z ENDP			; SocketException::SocketException
_TEXT	ENDS
PUBLIC	??0ConnectException@@QAE@ABV0@@Z		; ConnectException::ConnectException
; Function compile flags: /Ogsy
;	COMDAT ??0ConnectException@@QAE@ABV0@@Z
_TEXT	SEGMENT
___that$ = 8						; size = 4
??0ConnectException@@QAE@ABV0@@Z PROC NEAR		; ConnectException::ConnectException, COMDAT
; _this$ = ecx
  00000	56		 push	 esi
  00001	ff 74 24 08	 push	 DWORD PTR ___that$[esp]
  00005	8b f1		 mov	 esi, ecx
  00007	e8 00 00 00 00	 call	 ??0SocketException@@QAE@ABV0@@Z
  0000c	c7 06 00 00 00
	00		 mov	 DWORD PTR [esi], OFFSET FLAT:??_7ConnectException@@6B@
  00012	8b c6		 mov	 eax, esi
  00014	5e		 pop	 esi
  00015	c2 04 00	 ret	 4
??0ConnectException@@QAE@ABV0@@Z ENDP			; ConnectException::ConnectException
_TEXT	ENDS
PUBLIC	?accept_ex@SocketAPI@@YAIIPAUsockaddr@@PAI@Z	; SocketAPI::accept_ex
PUBLIC	__CT??_R0?AVIOException@@@8??0IOException@@QAE@ABV0@@Z20
PUBLIC	__CT??_R0?AVException@@@8??0Exception@@QAE@ABV0@@Z20
PUBLIC	??_C@_0DP@MEAHBJPI@A?5successful?5WSAStartup?5must?5occ@ ; `string'
PUBLIC	??_C@_0FK@HEDLOHPK@The?5addrlen?5parameter?5is?5too?5sma@ ; `string'
PUBLIC	??_C@_0FA@JJCMAGDB@A?5blocking?5Windows?5Sockets?51?41?5c@ ; `string'
PUBLIC	??_C@_0DF@LKFANLNJ@The?5listen?5function?5was?5not?5invo@ ; `string'
PUBLIC	??_C@_0FD@KEHCLIIF@The?5queue?5is?5nonempty?5upon?5entry@ ; `string'
PUBLIC	??_C@_0EP@NMJFBCHH@The?5referenced?5socket?5is?5not?5a?5t@ ; `string'
PUBLIC	__TI4?AVNonBlockingIOException@@
PUBLIC	__CTA4?AVNonBlockingIOException@@
PUBLIC	__CT??_R0?AVNonBlockingIOException@@@8??0NonBlockingIOException@@QAE@ABV0@@Z20
PUBLIC	??_C@_0FD@ILDKKPPJ@The?5socket?5is?5marked?5as?5nonblock@ ; `string'
PUBLIC	??_C@_08IBHKEOMI@accept?$CI?$CJ?$AA@		; `string'
EXTRN	_accept@12:NEAR
;	COMDAT xdata$x
; File c:\stlport-4.6.1\stlport\stl\_alloc.h
xdata$x	SEGMENT
$T105808 DD	0ffffffffH
	DD	FLAT:$L105293
	DD	0ffffffffH
	DD	FLAT:$L105294
	DD	0ffffffffH
	DD	FLAT:$L105295
	DD	0ffffffffH
	DD	FLAT:$L105296
	DD	0ffffffffH
	DD	FLAT:$L105297
	DD	0ffffffffH
	DD	FLAT:$L105298
	DD	0ffffffffH
	DD	FLAT:$L105299
	DD	0ffffffffH
	DD	FLAT:$L105300
	DD	0ffffffffH
	DD	FLAT:$L105301
	DD	0ffffffffH
	DD	FLAT:$L105302
	DD	0ffffffffH
	DD	FLAT:$L105304
	DD	0ffffffffH
	DD	FLAT:$L105305
$T105804 DD	019930520H
	DD	0cH
	DD	FLAT:$T105808
	DD	2 DUP(00H)
	DD	2 DUP(00H)
xdata$x	ENDS
;	COMDAT ??_C@_0FD@ILDKKPPJ@The?5socket?5is?5marked?5as?5nonblock@
CONST	SEGMENT
??_C@_0FD@ILDKKPPJ@The?5socket?5is?5marked?5as?5nonblock@ DB 'The socket '
	DB	'is marked as nonblocking and no connections are present to be'
	DB	' accepted.', 00H				; `string'
CONST	ENDS
;	COMDAT __TI4?AVNonBlockingIOException@@
xdata$x	SEGMENT
__TI4?AVNonBlockingIOException@@ DD 00H
	DD	FLAT:??1NonBlockingIOException@@UAE@XZ
	DD	00H
	DD	FLAT:__CTA4?AVNonBlockingIOException@@
xdata$x	ENDS
;	COMDAT ??_C@_0FD@KEHCLIIF@The?5queue?5is?5nonempty?5upon?5entry@
CONST	SEGMENT
??_C@_0FD@KEHCLIIF@The?5queue?5is?5nonempty?5upon?5entry@ DB 'The queue i'
	DB	's nonempty upon entry to accept and there are no descriptors '
	DB	'available.', 00H				; `string'
CONST	ENDS
;	COMDAT ??_C@_0DF@LKFANLNJ@The?5listen?5function?5was?5not?5invo@
CONST	SEGMENT
??_C@_0DF@LKFANLNJ@The?5listen?5function?5was?5not?5invo@ DB 'The listen '
	DB	'function was not invoked prior to accept.', 00H ; `string'
CONST	ENDS
;	COMDAT ??_C@_0FK@HEDLOHPK@The?5addrlen?5parameter?5is?5too?5sma@
CONST	SEGMENT
??_C@_0FK@HEDLOHPK@The?5addrlen?5parameter?5is?5too?5sma@ DB 'The addrlen'
	DB	' parameter is too small or addr is not a valid part of the us'
	DB	'er address space.', 00H			; `string'
CONST	ENDS
;	COMDAT ??_C@_0FA@JJCMAGDB@A?5blocking?5Windows?5Sockets?51?41?5c@
CONST	SEGMENT
??_C@_0FA@JJCMAGDB@A?5blocking?5Windows?5Sockets?51?41?5c@ DB 'A blocking'
	DB	' Windows Sockets 1.1 call was canceled through WSACancelBlock'
	DB	'ingCall.', 00H				; `string'
CONST	ENDS
;	COMDAT ??_C@_08IBHKEOMI@accept?$CI?$CJ?$AA@
CONST	SEGMENT
??_C@_08IBHKEOMI@accept?$CI?$CJ?$AA@ DB 'accept()', 00H	; `string'
CONST	ENDS
;	COMDAT ??_C@_0DP@MEAHBJPI@A?5successful?5WSAStartup?5must?5occ@
CONST	SEGMENT
??_C@_0DP@MEAHBJPI@A?5successful?5WSAStartup?5must?5occ@ DB 'A successful'
	DB	' WSAStartup must occur before using this FUNCTION.', 00H ; `string'
CONST	ENDS
;	COMDAT ??_C@_0EP@NMJFBCHH@The?5referenced?5socket?5is?5not?5a?5t@
CONST	SEGMENT
??_C@_0EP@NMJFBCHH@The?5referenced?5socket?5is?5not?5a?5t@ DB 'The refere'
	DB	'nced socket is not a type that supports connection-oriented s'
	DB	'ervice.', 00H				; `string'
CONST	ENDS
;	COMDAT __CTA4?AVNonBlockingIOException@@
xdata$x	SEGMENT
__CTA4?AVNonBlockingIOException@@ DD 04H
	DD	FLAT:__CT??_R0?AVNonBlockingIOException@@@8??0NonBlockingIOException@@QAE@ABV0@@Z20
	DD	FLAT:__CT??_R0?AVIOException@@@8??0IOException@@QAE@ABV0@@Z20
	DD	FLAT:__CT??_R0?AVException@@@8??0Exception@@QAE@ABV0@@Z20
	DD	FLAT:__CT??_R0?AVThrowable@@@8??0Throwable@@QAE@ABV0@@Z20
xdata$x	ENDS
;	COMDAT __CT??_R0?AVNonBlockingIOException@@@8??0NonBlockingIOException@@QAE@ABV0@@Z20
xdata$x	SEGMENT
__CT??_R0?AVNonBlockingIOException@@@8??0NonBlockingIOException@@QAE@ABV0@@Z20 DD 00H
	DD	FLAT:??_R0?AVNonBlockingIOException@@@8
	DD	00H
	DD	0ffffffffH
	ORG $+4
	DD	014H
	DD	FLAT:??0NonBlockingIOException@@QAE@ABV0@@Z
xdata$x	ENDS
;	COMDAT __CT??_R0?AVIOException@@@8??0IOException@@QAE@ABV0@@Z20
xdata$x	SEGMENT
__CT??_R0?AVIOException@@@8??0IOException@@QAE@ABV0@@Z20 DD 00H
	DD	FLAT:??_R0?AVIOException@@@8
	DD	00H
	DD	0ffffffffH
	ORG $+4
	DD	014H
	DD	FLAT:??0IOException@@QAE@ABV0@@Z
xdata$x	ENDS
;	COMDAT __CT??_R0?AVException@@@8??0Exception@@QAE@ABV0@@Z20
xdata$x	SEGMENT
__CT??_R0?AVException@@@8??0Exception@@QAE@ABV0@@Z20 DD 00H
	DD	FLAT:??_R0?AVException@@@8
	DD	00H
	DD	0ffffffffH
	ORG $+4
	DD	014H
	DD	FLAT:??0Exception@@QAE@ABV0@@Z
; Function compile flags: /Ogsy
; File c:\darkeden\designed_common\project\client\packet\socketapi.cpp
xdata$x	ENDS
;	COMDAT ?accept_ex@SocketAPI@@YAIIPAUsockaddr@@PAI@Z
_TEXT	SEGMENT
$T105286 = -416						; size = 20
$T105261 = -396						; size = 20
$T105285 = -376						; size = 20
$T105267 = -356						; size = 20
$T105279 = -336						; size = 20
$T105255 = -316						; size = 20
$T105282 = -296						; size = 20
$T105264 = -276						; size = 20
$T105258 = -256						; size = 20
$T105270 = -236						; size = 20
$T105276 = -216						; size = 20
$T105273 = -196						; size = 20
$T105289 = -176						; size = 24
$T105274 = -152						; size = 12
$T105290 = -140						; size = 12
$T105283 = -128						; size = 12
$T105265 = -116						; size = 12
$T105259 = -104						; size = 12
$T105268 = -92						; size = 12
$T105277 = -80						; size = 12
$T105271 = -68						; size = 12
$T105262 = -56						; size = 12
$T105256 = -44						; size = 12
$T105280 = -32						; size = 12
$T105287 = -20						; size = 4
$T105291 = -13						; size = 1
$T105288 = -13						; size = 1
$T105284 = -13						; size = 1
$T105281 = -13						; size = 1
$T105278 = -13						; size = 1
$T105275 = -13						; size = 1
$T105272 = -13						; size = 1
$T105269 = -13						; size = 1
$T105266 = -13						; size = 1
$T105263 = -13						; size = 1
$T105260 = -13						; size = 1
$T105257 = -13						; size = 1
__$EHRec$ = -12						; size = 12
_s$ = 8							; size = 4
_addr$ = 12						; size = 4
_addrlen$ = 16						; size = 4
?accept_ex@SocketAPI@@YAIIPAUsockaddr@@PAI@Z PROC NEAR	; SocketAPI::accept_ex, COMDAT

; 394  : {

  00000	b8 00 00 00 00	 mov	 eax, __ehhandler$?accept_ex@SocketAPI@@YAIIPAUsockaddr@@PAI@Z
  00005	e8 00 00 00 00	 call	 __EH_prolog
  0000a	81 ec 94 01 00
	00		 sub	 esp, 404		; 00000194H

; 395  : 	__BEGIN_TRY
; 396  : 
; 397  : #if __LINUX__
; 398  : 	SOCKET client = accept( s , addr , addrlen );
; 399  : #elif __WINDOWS__
; 400  : 	SOCKET client = accept( s , addr , (int*)addrlen );

  00010	ff 75 10	 push	 DWORD PTR _addrlen$[ebp]
  00013	ff 75 0c	 push	 DWORD PTR _addr$[ebp]
  00016	ff 75 08	 push	 DWORD PTR _s$[ebp]
  00019	e8 00 00 00 00	 call	 _accept@12

; 401  : #endif
; 402  : 	
; 403  : 	if ( client == INVALID_SOCKET ) {

  0001e	83 f8 ff	 cmp	 eax, -1
  00021	0f 85 1c 03 00
	00		 jne	 $L99884

; 404  : #if __LINUX__
; 405  : 		switch ( errno ) {
; 406  : 		case EWOULDBLOCK : 
; 407  : 			throw NonBlockingIOException("The socket is marked non-blocking and no connections are present to be accepted.");
; 408  : 		case EBADF : 
; 409  : 			throw Error("The descriptor is invalid.");
; 410  : 		case ENOTSOCK : 
; 411  : 			throw Error("The descriptor references a file, not a socket.");
; 412  : 		case EOPNOTSUPP : 
; 413  : 			throw Error("The referenced socket is not of type SOCK_STREAM.");
; 414  : 		case EFAULT : 
; 415  : 			throw Error("The addr parameter is not in a writable part of the user address space.");
; 416  : 		default :
; 417  : 			throw UnknownError(strerror(errno),errno);
; 418  : 		}//end of switch
; 419  : #elif __WINDOWS__
; 420  : 		switch ( WSAGetLastError() ) {

  00027	e8 00 00 00 00	 call	 _WSAGetLastError@0
  0002c	b9 34 27 00 00	 mov	 ecx, 10036		; 00002734H
  00031	3b c1		 cmp	 eax, ecx
  00033	0f 8f 8d 01 00
	00		 jg	 $L105292
  00039	0f 84 50 01 00
	00		 je	 $L105477
  0003f	2d 14 27 00 00	 sub	 eax, 10004		; 00002714H
  00044	0f 84 0e 01 00
	00		 je	 $L105433
  0004a	83 e8 0a	 sub	 eax, 10			; 0000000aH
  0004d	0f 84 ce 00 00
	00		 je	 $L105390
  00053	83 e8 08	 sub	 eax, 8
  00056	0f 84 8e 00 00
	00		 je	 $L105520
  0005c	48		 dec	 eax
  0005d	48		 dec	 eax
  0005e	74 4d		 je	 SHORT $L105563
  00060	83 e8 0b	 sub	 eax, 11			; 0000000bH
  00063	0f 85 88 01 00
	00		 jne	 $L105755

; 441  : 		case WSAEWOULDBLOCK : 
; 442  : 			throw NonBlockingIOException("The socket is marked as nonblocking and no connections are present to be accepted.");

  00069	83 ec 0c	 sub	 esp, 12			; 0000000cH
  0006c	8b cc		 mov	 ecx, esp
  0006e	89 65 ec	 mov	 DWORD PTR $T105287[ebp], esp
  00071	8d 45 f3	 lea	 eax, DWORD PTR $T105288[ebp]
  00074	50		 push	 eax
  00075	68 00 00 00 00	 push	 OFFSET FLAT:??_C@_0FD@ILDKKPPJ@The?5socket?5is?5marked?5as?5nonblock@
  0007a	e8 00 00 00 00	 call	 ??0?$basic_string@DV?$char_traits@D@_STL@@V?$allocator@D@2@@_STL@@QAE@PBDABV?$allocator@D@1@@Z ; _STL::basic_string<char,_STL::char_traits<char>,_STL::allocator<char> >::basic_string<char,_STL::char_traits<char>,_STL::allocator<char> >
  0007f	8d 8d 60 fe ff
	ff		 lea	 ecx, DWORD PTR $T105286[ebp]
  00085	e8 00 00 00 00	 call	 ??0NonBlockingIOException@@QAE@V?$basic_string@DV?$char_traits@D@_STL@@V?$allocator@D@2@@_STL@@@Z ; NonBlockingIOException::NonBlockingIOException
  0008a	50		 push	 eax
  0008b	8d 8d 88 fe ff
	ff		 lea	 ecx, DWORD PTR $T105285[ebp]
  00091	c7 45 fc 0a 00
	00 00		 mov	 DWORD PTR __$EHRec$[ebp+8], 10 ; 0000000aH
  00098	e8 00 00 00 00	 call	 ??0NonBlockingIOException@@QAE@ABV0@@Z
  0009d	68 00 00 00 00	 push	 OFFSET FLAT:__TI4?AVNonBlockingIOException@@
  000a2	8d 85 88 fe ff
	ff		 lea	 eax, DWORD PTR $T105285[ebp]
  000a8	e9 90 02 00 00	 jmp	 $L105807

; 431  : 		case WSAEINVAL : 
; 432  : 			throw Error("The listen function was not invoked prior to accept.");

$L105563:

; 433  : 		case WSAEMFILE : 
; 434  : 			throw Error("The queue is nonempty upon entry to accept and there are no descriptors available.");

  000ad	8d 45 f3	 lea	 eax, DWORD PTR $T105275[ebp]
  000b0	50		 push	 eax
  000b1	68 00 00 00 00	 push	 OFFSET FLAT:??_C@_0FD@KEHCLIIF@The?5queue?5is?5nonempty?5upon?5entry@
  000b6	8d 8d 68 ff ff
	ff		 lea	 ecx, DWORD PTR $T105274[ebp]
  000bc	e8 00 00 00 00	 call	 ??0?$basic_string@DV?$char_traits@D@_STL@@V?$allocator@D@2@@_STL@@QAE@PBDABV?$allocator@D@1@@Z ; _STL::basic_string<char,_STL::char_traits<char>,_STL::allocator<char> >::basic_string<char,_STL::char_traits<char>,_STL::allocator<char> >
  000c1	8d 85 68 ff ff
	ff		 lea	 eax, DWORD PTR $T105274[ebp]
  000c7	50		 push	 eax
  000c8	8d 8d 3c ff ff
	ff		 lea	 ecx, DWORD PTR $T105273[ebp]
  000ce	c7 45 fc 06 00
	00 00		 mov	 DWORD PTR __$EHRec$[ebp+8], 6
  000d5	e8 00 00 00 00	 call	 ??0Error@@QAE@ABV?$basic_string@DV?$char_traits@D@_STL@@V?$allocator@D@2@@_STL@@@Z ; Error::Error
  000da	68 00 00 00 00	 push	 OFFSET FLAT:__TI2?AVError@@
  000df	8d 85 3c ff ff
	ff		 lea	 eax, DWORD PTR $T105273[ebp]
  000e5	e9 53 02 00 00	 jmp	 $L105807

; 429  : 		case WSAEINPROGRESS : 
; 430  : 			throw Error("A blocking Windows Sockets 1.1 call is in progress, or the service provider is still processing a callback function.");

$L105520:

; 431  : 		case WSAEINVAL : 
; 432  : 			throw Error("The listen function was not invoked prior to accept.");

  000ea	8d 45 f3	 lea	 eax, DWORD PTR $T105272[ebp]
  000ed	50		 push	 eax
  000ee	68 00 00 00 00	 push	 OFFSET FLAT:??_C@_0DF@LKFANLNJ@The?5listen?5function?5was?5not?5invo@
  000f3	8d 4d bc	 lea	 ecx, DWORD PTR $T105271[ebp]
  000f6	e8 00 00 00 00	 call	 ??0?$basic_string@DV?$char_traits@D@_STL@@V?$allocator@D@2@@_STL@@QAE@PBDABV?$allocator@D@1@@Z ; _STL::basic_string<char,_STL::char_traits<char>,_STL::allocator<char> >::basic_string<char,_STL::char_traits<char>,_STL::allocator<char> >
  000fb	8d 45 bc	 lea	 eax, DWORD PTR $T105271[ebp]
  000fe	50		 push	 eax
  000ff	8d 8d 14 ff ff
	ff		 lea	 ecx, DWORD PTR $T105270[ebp]
  00105	c7 45 fc 05 00
	00 00		 mov	 DWORD PTR __$EHRec$[ebp+8], 5
  0010c	e8 00 00 00 00	 call	 ??0Error@@QAE@ABV?$basic_string@DV?$char_traits@D@_STL@@V?$allocator@D@2@@_STL@@@Z ; Error::Error
  00111	68 00 00 00 00	 push	 OFFSET FLAT:__TI2?AVError@@
  00116	8d 85 14 ff ff
	ff		 lea	 eax, DWORD PTR $T105270[ebp]
  0011c	e9 1c 02 00 00	 jmp	 $L105807

; 423  : 		case WSAENETDOWN : 
; 424  : 			throw Error("The network subsystem has failed.");

$L105390:

; 425  : 		case WSAEFAULT : 
; 426  : 			throw Error("The addrlen parameter is too small or addr is not a valid part of the user address space.");

  00121	8d 45 f3	 lea	 eax, DWORD PTR $T105263[ebp]
  00124	50		 push	 eax
  00125	68 00 00 00 00	 push	 OFFSET FLAT:??_C@_0FK@HEDLOHPK@The?5addrlen?5parameter?5is?5too?5sma@
  0012a	8d 4d c8	 lea	 ecx, DWORD PTR $T105262[ebp]
  0012d	e8 00 00 00 00	 call	 ??0?$basic_string@DV?$char_traits@D@_STL@@V?$allocator@D@2@@_STL@@QAE@PBDABV?$allocator@D@1@@Z ; _STL::basic_string<char,_STL::char_traits<char>,_STL::allocator<char> >::basic_string<char,_STL::char_traits<char>,_STL::allocator<char> >
  00132	8d 45 c8	 lea	 eax, DWORD PTR $T105262[ebp]
  00135	50		 push	 eax
  00136	8d 8d 74 fe ff
	ff		 lea	 ecx, DWORD PTR $T105261[ebp]
  0013c	c7 45 fc 02 00
	00 00		 mov	 DWORD PTR __$EHRec$[ebp+8], 2
  00143	e8 00 00 00 00	 call	 ??0Error@@QAE@ABV?$basic_string@DV?$char_traits@D@_STL@@V?$allocator@D@2@@_STL@@@Z ; Error::Error
  00148	68 00 00 00 00	 push	 OFFSET FLAT:__TI2?AVError@@
  0014d	8d 85 74 fe ff
	ff		 lea	 eax, DWORD PTR $T105261[ebp]
  00153	e9 e5 01 00 00	 jmp	 $L105807
$L105433:

; 427  : 		case WSAEINTR : 
; 428  : 			throw Error("A blocking Windows Sockets 1.1 call was canceled through WSACancelBlockingCall.");

  00158	8d 45 f3	 lea	 eax, DWORD PTR $T105266[ebp]
  0015b	50		 push	 eax
  0015c	68 00 00 00 00	 push	 OFFSET FLAT:??_C@_0FA@JJCMAGDB@A?5blocking?5Windows?5Sockets?51?41?5c@
  00161	8d 4d 8c	 lea	 ecx, DWORD PTR $T105265[ebp]
  00164	e8 00 00 00 00	 call	 ??0?$basic_string@DV?$char_traits@D@_STL@@V?$allocator@D@2@@_STL@@QAE@PBDABV?$allocator@D@1@@Z ; _STL::basic_string<char,_STL::char_traits<char>,_STL::allocator<char> >::basic_string<char,_STL::char_traits<char>,_STL::allocator<char> >
  00169	8d 45 8c	 lea	 eax, DWORD PTR $T105265[ebp]
  0016c	50		 push	 eax
  0016d	8d 8d ec fe ff
	ff		 lea	 ecx, DWORD PTR $T105264[ebp]
  00173	c7 45 fc 03 00
	00 00		 mov	 DWORD PTR __$EHRec$[ebp+8], 3
  0017a	e8 00 00 00 00	 call	 ??0Error@@QAE@ABV?$basic_string@DV?$char_traits@D@_STL@@V?$allocator@D@2@@_STL@@@Z ; Error::Error
  0017f	68 00 00 00 00	 push	 OFFSET FLAT:__TI2?AVError@@
  00184	8d 85 ec fe ff
	ff		 lea	 eax, DWORD PTR $T105264[ebp]
  0018a	e9 ae 01 00 00	 jmp	 $L105807
$L105477:

; 429  : 		case WSAEINPROGRESS : 
; 430  : 			throw Error("A blocking Windows Sockets 1.1 call is in progress, or the service provider is still processing a callback function.");

  0018f	8d 45 f3	 lea	 eax, DWORD PTR $T105269[ebp]
  00192	50		 push	 eax
  00193	68 00 00 00 00	 push	 OFFSET FLAT:??_C@_0HF@MHMDKDMH@A?5blocking?5Windows?5Sockets?51?41?5c@
  00198	8d 4d a4	 lea	 ecx, DWORD PTR $T105268[ebp]
  0019b	e8 00 00 00 00	 call	 ??0?$basic_string@DV?$char_traits@D@_STL@@V?$allocator@D@2@@_STL@@QAE@PBDABV?$allocator@D@1@@Z ; _STL::basic_string<char,_STL::char_traits<char>,_STL::allocator<char> >::basic_string<char,_STL::char_traits<char>,_STL::allocator<char> >
  001a0	8d 45 a4	 lea	 eax, DWORD PTR $T105268[ebp]
  001a3	50		 push	 eax
  001a4	8d 8d 9c fe ff
	ff		 lea	 ecx, DWORD PTR $T105267[ebp]
  001aa	c7 45 fc 04 00
	00 00		 mov	 DWORD PTR __$EHRec$[ebp+8], 4
  001b1	e8 00 00 00 00	 call	 ??0Error@@QAE@ABV?$basic_string@DV?$char_traits@D@_STL@@V?$allocator@D@2@@_STL@@@Z ; Error::Error
  001b6	68 00 00 00 00	 push	 OFFSET FLAT:__TI2?AVError@@
  001bb	8d 85 9c fe ff
	ff		 lea	 eax, DWORD PTR $T105267[ebp]
  001c1	e9 77 01 00 00	 jmp	 $L105807
$L105292:

; 404  : #if __LINUX__
; 405  : 		switch ( errno ) {
; 406  : 		case EWOULDBLOCK : 
; 407  : 			throw NonBlockingIOException("The socket is marked non-blocking and no connections are present to be accepted.");
; 408  : 		case EBADF : 
; 409  : 			throw Error("The descriptor is invalid.");
; 410  : 		case ENOTSOCK : 
; 411  : 			throw Error("The descriptor references a file, not a socket.");
; 412  : 		case EOPNOTSUPP : 
; 413  : 			throw Error("The referenced socket is not of type SOCK_STREAM.");
; 414  : 		case EFAULT : 
; 415  : 			throw Error("The addr parameter is not in a writable part of the user address space.");
; 416  : 		default :
; 417  : 			throw UnknownError(strerror(errno),errno);
; 418  : 		}//end of switch
; 419  : #elif __WINDOWS__
; 420  : 		switch ( WSAGetLastError() ) {

  001c6	2d 36 27 00 00	 sub	 eax, 10038		; 00002736H
  001cb	0f 84 3a 01 00
	00		 je	 $L105648
  001d1	83 e8 07	 sub	 eax, 7
  001d4	0f 84 fd 00 00
	00		 je	 $L105691
  001da	83 e8 05	 sub	 eax, 5
  001dd	0f 84 c0 00 00
	00		 je	 $L105347
  001e3	83 e8 05	 sub	 eax, 5
  001e6	0f 84 80 00 00
	00		 je	 $L105606
  001ec	83 e8 26	 sub	 eax, 38			; 00000026H
  001ef	74 47		 je	 SHORT $L99894

; 441  : 		case WSAEWOULDBLOCK : 
; 442  : 			throw NonBlockingIOException("The socket is marked as nonblocking and no connections are present to be accepted.");

$L105755:

; 443  : 		default :
; 444  : 			throw UnknownError("accept()");

  001f1	8d 45 f3	 lea	 eax, DWORD PTR $T105291[ebp]
  001f4	50		 push	 eax
  001f5	68 00 00 00 00	 push	 OFFSET FLAT:??_C@_08IBHKEOMI@accept?$CI?$CJ?$AA@
  001fa	8d 8d 74 ff ff
	ff		 lea	 ecx, DWORD PTR $T105290[ebp]
  00200	e8 00 00 00 00	 call	 ??0?$basic_string@DV?$char_traits@D@_STL@@V?$allocator@D@2@@_STL@@QAE@PBDABV?$allocator@D@1@@Z ; _STL::basic_string<char,_STL::char_traits<char>,_STL::allocator<char> >::basic_string<char,_STL::char_traits<char>,_STL::allocator<char> >
  00205	8d 85 74 ff ff
	ff		 lea	 eax, DWORD PTR $T105290[ebp]
  0020b	50		 push	 eax
  0020c	8d 8d 50 ff ff
	ff		 lea	 ecx, DWORD PTR $T105289[ebp]
  00212	c7 45 fc 0b 00
	00 00		 mov	 DWORD PTR __$EHRec$[ebp+8], 11 ; 0000000bH
  00219	e8 00 00 00 00	 call	 ??0Error@@QAE@ABV?$basic_string@DV?$char_traits@D@_STL@@V?$allocator@D@2@@_STL@@@Z ; Error::Error
  0021e	c7 85 50 ff ff
	ff 00 00 00 00	 mov	 DWORD PTR $T105289[ebp], OFFSET FLAT:??_7UnknownError@@6B@
  00228	68 00 00 00 00	 push	 OFFSET FLAT:__TI3?AVUnknownError@@
  0022d	8d 85 50 ff ff
	ff		 lea	 eax, DWORD PTR $T105289[ebp]
  00233	e9 05 01 00 00	 jmp	 $L105807
$L99894:

; 421  : 		case WSANOTINITIALISED : 
; 422  : 			throw Error("A successful WSAStartup must occur before using this FUNCTION.");

  00238	8d 45 f3	 lea	 eax, DWORD PTR $T105257[ebp]
  0023b	50		 push	 eax
  0023c	68 00 00 00 00	 push	 OFFSET FLAT:??_C@_0DP@MEAHBJPI@A?5successful?5WSAStartup?5must?5occ@
  00241	8d 4d d4	 lea	 ecx, DWORD PTR $T105256[ebp]
  00244	e8 00 00 00 00	 call	 ??0?$basic_string@DV?$char_traits@D@_STL@@V?$allocator@D@2@@_STL@@QAE@PBDABV?$allocator@D@1@@Z ; _STL::basic_string<char,_STL::char_traits<char>,_STL::allocator<char> >::basic_string<char,_STL::char_traits<char>,_STL::allocator<char> >
  00249	83 65 fc 00	 and	 DWORD PTR __$EHRec$[ebp+8], 0
  0024d	8d 45 d4	 lea	 eax, DWORD PTR $T105256[ebp]
  00250	50		 push	 eax
  00251	8d 8d c4 fe ff
	ff		 lea	 ecx, DWORD PTR $T105255[ebp]
  00257	e8 00 00 00 00	 call	 ??0Error@@QAE@ABV?$basic_string@DV?$char_traits@D@_STL@@V?$allocator@D@2@@_STL@@@Z ; Error::Error
  0025c	68 00 00 00 00	 push	 OFFSET FLAT:__TI2?AVError@@
  00261	8d 85 c4 fe ff
	ff		 lea	 eax, DWORD PTR $T105255[ebp]
  00267	e9 d1 00 00 00	 jmp	 $L105807

; 433  : 		case WSAEMFILE : 
; 434  : 			throw Error("The queue is nonempty upon entry to accept and there are no descriptors available.");

$L105606:

; 435  : 		case WSAENOBUFS : 
; 436  : 			throw Error("No buffer space is available.");

  0026c	8d 45 f3	 lea	 eax, DWORD PTR $T105278[ebp]
  0026f	50		 push	 eax
  00270	68 00 00 00 00	 push	 OFFSET FLAT:??_C@_0BO@MFIBOLAF@No?5buffer?5space?5is?5available?4?$AA@
  00275	8d 4d b0	 lea	 ecx, DWORD PTR $T105277[ebp]
  00278	e8 00 00 00 00	 call	 ??0?$basic_string@DV?$char_traits@D@_STL@@V?$allocator@D@2@@_STL@@QAE@PBDABV?$allocator@D@1@@Z ; _STL::basic_string<char,_STL::char_traits<char>,_STL::allocator<char> >::basic_string<char,_STL::char_traits<char>,_STL::allocator<char> >
  0027d	8d 45 b0	 lea	 eax, DWORD PTR $T105277[ebp]
  00280	50		 push	 eax
  00281	8d 8d 28 ff ff
	ff		 lea	 ecx, DWORD PTR $T105276[ebp]
  00287	c7 45 fc 07 00
	00 00		 mov	 DWORD PTR __$EHRec$[ebp+8], 7
  0028e	e8 00 00 00 00	 call	 ??0Error@@QAE@ABV?$basic_string@DV?$char_traits@D@_STL@@V?$allocator@D@2@@_STL@@@Z ; Error::Error
  00293	68 00 00 00 00	 push	 OFFSET FLAT:__TI2?AVError@@
  00298	8d 85 28 ff ff
	ff		 lea	 eax, DWORD PTR $T105276[ebp]
  0029e	e9 9a 00 00 00	 jmp	 $L105807

; 421  : 		case WSANOTINITIALISED : 
; 422  : 			throw Error("A successful WSAStartup must occur before using this FUNCTION.");

$L105347:

; 423  : 		case WSAENETDOWN : 
; 424  : 			throw Error("The network subsystem has failed.");

  002a3	8d 45 f3	 lea	 eax, DWORD PTR $T105260[ebp]
  002a6	50		 push	 eax
  002a7	68 00 00 00 00	 push	 OFFSET FLAT:??_C@_0CC@ECDFBOEN@The?5network?5subsystem?5has?5failed@
  002ac	8d 4d 98	 lea	 ecx, DWORD PTR $T105259[ebp]
  002af	e8 00 00 00 00	 call	 ??0?$basic_string@DV?$char_traits@D@_STL@@V?$allocator@D@2@@_STL@@QAE@PBDABV?$allocator@D@1@@Z ; _STL::basic_string<char,_STL::char_traits<char>,_STL::allocator<char> >::basic_string<char,_STL::char_traits<char>,_STL::allocator<char> >
  002b4	8d 45 98	 lea	 eax, DWORD PTR $T105259[ebp]
  002b7	50		 push	 eax
  002b8	8d 8d 00 ff ff
	ff		 lea	 ecx, DWORD PTR $T105258[ebp]
  002be	c7 45 fc 01 00
	00 00		 mov	 DWORD PTR __$EHRec$[ebp+8], 1
  002c5	e8 00 00 00 00	 call	 ??0Error@@QAE@ABV?$basic_string@DV?$char_traits@D@_STL@@V?$allocator@D@2@@_STL@@@Z ; Error::Error
  002ca	68 00 00 00 00	 push	 OFFSET FLAT:__TI2?AVError@@
  002cf	8d 85 00 ff ff
	ff		 lea	 eax, DWORD PTR $T105258[ebp]
  002d5	eb 66		 jmp	 SHORT $L105807

; 437  : 		case WSAENOTSOCK : 
; 438  : 			throw Error("The descriptor is not a socket.");

$L105691:

; 439  : 		case WSAEOPNOTSUPP : 
; 440  : 			throw Error("The referenced socket is not a type that supports connection-oriented service.");

  002d7	8d 45 f3	 lea	 eax, DWORD PTR $T105284[ebp]
  002da	50		 push	 eax
  002db	68 00 00 00 00	 push	 OFFSET FLAT:??_C@_0EP@NMJFBCHH@The?5referenced?5socket?5is?5not?5a?5t@
  002e0	8d 4d 80	 lea	 ecx, DWORD PTR $T105283[ebp]
  002e3	e8 00 00 00 00	 call	 ??0?$basic_string@DV?$char_traits@D@_STL@@V?$allocator@D@2@@_STL@@QAE@PBDABV?$allocator@D@1@@Z ; _STL::basic_string<char,_STL::char_traits<char>,_STL::allocator<char> >::basic_string<char,_STL::char_traits<char>,_STL::allocator<char> >
  002e8	8d 45 80	 lea	 eax, DWORD PTR $T105283[ebp]
  002eb	50		 push	 eax
  002ec	8d 8d d8 fe ff
	ff		 lea	 ecx, DWORD PTR $T105282[ebp]
  002f2	c7 45 fc 09 00
	00 00		 mov	 DWORD PTR __$EHRec$[ebp+8], 9
  002f9	e8 00 00 00 00	 call	 ??0Error@@QAE@ABV?$basic_string@DV?$char_traits@D@_STL@@V?$allocator@D@2@@_STL@@@Z ; Error::Error
  002fe	68 00 00 00 00	 push	 OFFSET FLAT:__TI2?AVError@@
  00303	8d 85 d8 fe ff
	ff		 lea	 eax, DWORD PTR $T105282[ebp]
  00309	eb 32		 jmp	 SHORT $L105807

; 435  : 		case WSAENOBUFS : 
; 436  : 			throw Error("No buffer space is available.");

$L105648:

; 437  : 		case WSAENOTSOCK : 
; 438  : 			throw Error("The descriptor is not a socket.");

  0030b	8d 45 f3	 lea	 eax, DWORD PTR $T105281[ebp]
  0030e	50		 push	 eax
  0030f	68 00 00 00 00	 push	 OFFSET FLAT:??_C@_0CA@EGNBMMLP@The?5descriptor?5is?5not?5a?5socket?4?$AA@
  00314	8d 4d e0	 lea	 ecx, DWORD PTR $T105280[ebp]
  00317	e8 00 00 00 00	 call	 ??0?$basic_string@DV?$char_traits@D@_STL@@V?$allocator@D@2@@_STL@@QAE@PBDABV?$allocator@D@1@@Z ; _STL::basic_string<char,_STL::char_traits<char>,_STL::allocator<char> >::basic_string<char,_STL::char_traits<char>,_STL::allocator<char> >
  0031c	8d 45 e0	 lea	 eax, DWORD PTR $T105280[ebp]
  0031f	50		 push	 eax
  00320	8d 8d b0 fe ff
	ff		 lea	 ecx, DWORD PTR $T105279[ebp]
  00326	c7 45 fc 08 00
	00 00		 mov	 DWORD PTR __$EHRec$[ebp+8], 8
  0032d	e8 00 00 00 00	 call	 ??0Error@@QAE@ABV?$basic_string@DV?$char_traits@D@_STL@@V?$allocator@D@2@@_STL@@@Z ; Error::Error
  00332	68 00 00 00 00	 push	 OFFSET FLAT:__TI2?AVError@@
  00337	8d 85 b0 fe ff
	ff		 lea	 eax, DWORD PTR $T105279[ebp]
$L105807:
  0033d	50		 push	 eax
  0033e	e8 00 00 00 00	 call	 __CxxThrowException@8
$L105809:
$L99884:

; 445  : 		}//end of switch
; 446  : #endif
; 447  : 	}
; 448  : 	return client;
; 449  : 	
; 450  : 	__END_CATCH
; 451  : }

  00343	8b 4d f4	 mov	 ecx, DWORD PTR __$EHRec$[ebp]
  00346	64 89 0d 00 00
	00 00		 mov	 DWORD PTR fs:__except_list, ecx
  0034d	c9		 leave
  0034e	c3		 ret	 0
$L105806:
_TEXT	ENDS
;	COMDAT text$x
text$x	SEGMENT
$L105304:
  00000	8d 8d 60 fe ff
	ff		 lea	 ecx, DWORD PTR $T105286[ebp]
  00006	e9 00 00 00 00	 jmp	 ??1NonBlockingIOException@@UAE@XZ
$L105299:
  0000b	8d 8d 68 ff ff
	ff		 lea	 ecx, DWORD PTR $T105274[ebp]
  00011	e9 00 00 00 00	 jmp	 ??1?$basic_string@DV?$char_traits@D@_STL@@V?$allocator@D@2@@_STL@@QAE@XZ ; _STL::basic_string<char,_STL::char_traits<char>,_STL::allocator<char> >::~basic_string<char,_STL::char_traits<char>,_STL::allocator<char> >
$L105298:
  00016	8d 4d bc	 lea	 ecx, DWORD PTR $T105271[ebp]
  00019	e9 00 00 00 00	 jmp	 ??1?$basic_string@DV?$char_traits@D@_STL@@V?$allocator@D@2@@_STL@@QAE@XZ ; _STL::basic_string<char,_STL::char_traits<char>,_STL::allocator<char> >::~basic_string<char,_STL::char_traits<char>,_STL::allocator<char> >
$L105295:
  0001e	8d 4d c8	 lea	 ecx, DWORD PTR $T105262[ebp]
  00021	e9 00 00 00 00	 jmp	 ??1?$basic_string@DV?$char_traits@D@_STL@@V?$allocator@D@2@@_STL@@QAE@XZ ; _STL::basic_string<char,_STL::char_traits<char>,_STL::allocator<char> >::~basic_string<char,_STL::char_traits<char>,_STL::allocator<char> >
$L105296:
  00026	8d 4d 8c	 lea	 ecx, DWORD PTR $T105265[ebp]
  00029	e9 00 00 00 00	 jmp	 ??1?$basic_string@DV?$char_traits@D@_STL@@V?$allocator@D@2@@_STL@@QAE@XZ ; _STL::basic_string<char,_STL::char_traits<char>,_STL::allocator<char> >::~basic_string<char,_STL::char_traits<char>,_STL::allocator<char> >
$L105297:
  0002e	8d 4d a4	 lea	 ecx, DWORD PTR $T105268[ebp]
  00031	e9 00 00 00 00	 jmp	 ??1?$basic_string@DV?$char_traits@D@_STL@@V?$allocator@D@2@@_STL@@QAE@XZ ; _STL::basic_string<char,_STL::char_traits<char>,_STL::allocator<char> >::~basic_string<char,_STL::char_traits<char>,_STL::allocator<char> >
$L105305:
  00036	8d 8d 74 ff ff
	ff		 lea	 ecx, DWORD PTR $T105290[ebp]
  0003c	e9 00 00 00 00	 jmp	 ??1?$basic_string@DV?$char_traits@D@_STL@@V?$allocator@D@2@@_STL@@QAE@XZ ; _STL::basic_string<char,_STL::char_traits<char>,_STL::allocator<char> >::~basic_string<char,_STL::char_traits<char>,_STL::allocator<char> >
$L105293:
  00041	8d 4d d4	 lea	 ecx, DWORD PTR $T105256[ebp]
  00044	e9 00 00 00 00	 jmp	 ??1?$basic_string@DV?$char_traits@D@_STL@@V?$allocator@D@2@@_STL@@QAE@XZ ; _STL::basic_string<char,_STL::char_traits<char>,_STL::allocator<char> >::~basic_string<char,_STL::char_traits<char>,_STL::allocator<char> >
$L105300:
  00049	8d 4d b0	 lea	 ecx, DWORD PTR $T105277[ebp]
  0004c	e9 00 00 00 00	 jmp	 ??1?$basic_string@DV?$char_traits@D@_STL@@V?$allocator@D@2@@_STL@@QAE@XZ ; _STL::basic_string<char,_STL::char_traits<char>,_STL::allocator<char> >::~basic_string<char,_STL::char_traits<char>,_STL::allocator<char> >
$L105294:
  00051	8d 4d 98	 lea	 ecx, DWORD PTR $T105259[ebp]
  00054	e9 00 00 00 00	 jmp	 ??1?$basic_string@DV?$char_traits@D@_STL@@V?$allocator@D@2@@_STL@@QAE@XZ ; _STL::basic_string<char,_STL::char_traits<char>,_STL::allocator<char> >::~basic_string<char,_STL::char_traits<char>,_STL::allocator<char> >
$L105302:
  00059	8d 4d 80	 lea	 ecx, DWORD PTR $T105283[ebp]
  0005c	e9 00 00 00 00	 jmp	 ??1?$basic_string@DV?$char_traits@D@_STL@@V?$allocator@D@2@@_STL@@QAE@XZ ; _STL::basic_string<char,_STL::char_traits<char>,_STL::allocator<char> >::~basic_string<char,_STL::char_traits<char>,_STL::allocator<char> >
$L105301:
  00061	8d 4d e0	 lea	 ecx, DWORD PTR $T105280[ebp]
  00064	e9 00 00 00 00	 jmp	 ??1?$basic_string@DV?$char_traits@D@_STL@@V?$allocator@D@2@@_STL@@QAE@XZ ; _STL::basic_string<char,_STL::char_traits<char>,_STL::allocator<char> >::~basic_string<char,_STL::char_traits<char>,_STL::allocator<char> >
__ehhandler$?accept_ex@SocketAPI@@YAIIPAUsockaddr@@PAI@Z:
  00069	b8 00 00 00 00	 mov	 eax, OFFSET FLAT:$T105804
  0006e	e9 00 00 00 00	 jmp	 ___CxxFrameHandler
text$x	ENDS
?accept_ex@SocketAPI@@YAIIPAUsockaddr@@PAI@Z ENDP	; SocketAPI::accept_ex
PUBLIC	?send_ex@SocketAPI@@YAIIPBXII@Z			; SocketAPI::send_ex
PUBLIC	__CT??_R0?AVSocketException@@@8??0SocketException@@QAE@ABV0@@Z20
PUBLIC	__TI5?AVConnectException@@
PUBLIC	__CTA5?AVConnectException@@
PUBLIC	__CT??_R0?AVConnectException@@@8??0ConnectException@@QAE@ABV0@@Z20
PUBLIC	??_C@_0KP@GLGADKOB@The?5requested?5address?5is?5a?5broad@ ; `string'
PUBLIC	??_C@_0FJ@HDNMPKKL@The?5buf?5parameter?5is?5not?5complet@ ; `string'
PUBLIC	??_C@_0HJ@JGDNLCKB@The?5connection?5has?5been?5broken?5d@ ; `string'
PUBLIC	??_C@_0BN@LPMAEJNJ@The?5socket?5is?5not?5connected?4?$AA@ ; `string'
PUBLIC	??_C@_0PF@GACPBHPE@MSG_OOB?5was?5specified?0?5but?5the?5s@ ; `string'
PUBLIC	??_C@_0IK@HKLJNMCP@The?5socket?5has?5been?5shut?5down?$DL?5i@ ; `string'
PUBLIC	??_C@_0EN@KAKAIMBJ@The?5socket?5is?5marked?5as?5nonblock@ ; `string'
PUBLIC	??_C@_0HC@GAPLAGOO@The?5socket?5is?5message?5oriented?0?5@ ; `string'
PUBLIC	??_C@_0DP@LALJGPFA@The?5remote?5host?5cannot?5be?5reache@ ; `string'
PUBLIC	??_C@_0IM@CAIJHNDB@The?5socket?5has?5not?5been?5bound?5wi@ ; `string'
PUBLIC	??_C@_0IK@GAHLFOHO@The?5virtual?5circuit?5was?5terminat@ ; `string'
PUBLIC	??_C@_0BCH@PECBDLNP@The?5virtual?5circuit?5was?5reset?5by@ ; `string'
PUBLIC	??_C@_0HP@NKLLPBNE@The?5connection?5has?5been?5dropped?0@ ; `string'
PUBLIC	??_C@_06HHEFFBF@send?$CI?$CJ?$AA@		; `string'
PUBLIC	??_C@_0BA@LPDPIADO@connect?5closed?4?$AA@	; `string'
EXTRN	_send@16:NEAR
;	COMDAT xdata$x
; File c:\stlport-4.6.1\stlport\stl\_alloc.h
xdata$x	SEGMENT
$T106715 DD	0ffffffffH
	DD	FLAT:$L105888
	DD	0ffffffffH
	DD	FLAT:$L105889
	DD	0ffffffffH
	DD	FLAT:$L105890
	DD	0ffffffffH
	DD	FLAT:$L105891
	DD	0ffffffffH
	DD	FLAT:$L105892
	DD	0ffffffffH
	DD	FLAT:$L105893
	DD	0ffffffffH
	DD	FLAT:$L105895
	DD	0ffffffffH
	DD	FLAT:$L105896
	DD	0ffffffffH
	DD	FLAT:$L105897
	DD	0ffffffffH
	DD	FLAT:$L105898
	DD	0ffffffffH
	DD	FLAT:$L105899
	DD	0ffffffffH
	DD	FLAT:$L105901
	DD	0ffffffffH
	DD	FLAT:$L105903
	DD	0ffffffffH
	DD	FLAT:$L105904
	DD	0ffffffffH
	DD	FLAT:$L105906
	DD	0ffffffffH
	DD	FLAT:$L105907
	DD	0ffffffffH
	DD	FLAT:$L105909
	DD	0ffffffffH
	DD	FLAT:$L105911
	DD	0ffffffffH
	DD	FLAT:$L105913
	DD	0ffffffffH
	DD	FLAT:$L105914
	DD	0ffffffffH
	DD	FLAT:$L105916
$T106711 DD	019930520H
	DD	015H
	DD	FLAT:$T106715
	DD	2 DUP(00H)
	DD	2 DUP(00H)
xdata$x	ENDS
;	COMDAT ??_C@_0IM@CAIJHNDB@The?5socket?5has?5not?5been?5bound?5wi@
CONST	SEGMENT
??_C@_0IM@CAIJHNDB@The?5socket?5has?5not?5been?5bound?5wi@ DB 'The socket'
	DB	' has not been bound with bind, or an unknown flag was specifi'
	DB	'ed, or MSG_OOB was specified for a socket with SO_OOBINLINE e'
	DB	'nabled.', 00H				; `string'
CONST	ENDS
;	COMDAT ??_C@_0FJ@HDNMPKKL@The?5buf?5parameter?5is?5not?5complet@
CONST	SEGMENT
??_C@_0FJ@HDNMPKKL@The?5buf?5parameter?5is?5not?5complet@ DB 'The buf par'
	DB	'ameter is not completely contained in a valid part of the use'
	DB	'r address space.', 00H			; `string'
CONST	ENDS
;	COMDAT ??_C@_0KP@GLGADKOB@The?5requested?5address?5is?5a?5broad@
CONST	SEGMENT
??_C@_0KP@GLGADKOB@The?5requested?5address?5is?5a?5broad@ DB 'The request'
	DB	'ed address is a broadcast address, but the appropriate flag w'
	DB	'as not set. Call setsockopt with the SO_BROADCAST parameter t'
	DB	'o allow the use of the broadcast address.', 00H ; `string'
CONST	ENDS
;	COMDAT ??_C@_0EN@KAKAIMBJ@The?5socket?5is?5marked?5as?5nonblock@
CONST	SEGMENT
??_C@_0EN@KAKAIMBJ@The?5socket?5is?5marked?5as?5nonblock@ DB 'The socket '
	DB	'is marked as nonblocking and the requested operation would bl'
	DB	'ock.', 00H					; `string'
CONST	ENDS
;	COMDAT ??_C@_0PF@GACPBHPE@MSG_OOB?5was?5specified?0?5but?5the?5s@
CONST	SEGMENT
??_C@_0PF@GACPBHPE@MSG_OOB?5was?5specified?0?5but?5the?5s@ DB 'MSG_OOB wa'
	DB	's specified, but the socket is not stream-style such as type '
	DB	'SOCK_STREAM, out-of-band data is not supported in the communi'
	DB	'cation domain associated with this socket, or the socket is u'
	DB	'nidirectional and supports only receive operations.', 00H ; `string'
CONST	ENDS
;	COMDAT ??_C@_0HC@GAPLAGOO@The?5socket?5is?5message?5oriented?0?5@
CONST	SEGMENT
??_C@_0HC@GAPLAGOO@The?5socket?5is?5message?5oriented?0?5@ DB 'The socket'
	DB	' is message oriented, and the message is larger than the maxi'
	DB	'mum supported by the underlying transport.', 00H ; `string'
CONST	ENDS
;	COMDAT ??_C@_0BCH@PECBDLNP@The?5virtual?5circuit?5was?5reset?5by@
CONST	SEGMENT
??_C@_0BCH@PECBDLNP@The?5virtual?5circuit?5was?5reset?5by@ DB 'The virtua'
	DB	'l circuit was reset by the remote side executing a ''hard'' o'
	DB	'r ''abortive'' close. For UPD sockets, the remote host was un'
	DB	'able to deliver a previously sent UDP datagram and responded '
	DB	'with a ''Port Unreachable'' ICMP packet. The application shou'
	DB	'ld close the socket as it is no longer usable.', 00H ; `string'
CONST	ENDS
;	COMDAT __TI5?AVConnectException@@
xdata$x	SEGMENT
__TI5?AVConnectException@@ DD 00H
	DD	FLAT:??1ConnectException@@UAE@XZ
	DD	00H
	DD	FLAT:__CTA5?AVConnectException@@
xdata$x	ENDS
;	COMDAT ??_C@_0IK@GAHLFOHO@The?5virtual?5circuit?5was?5terminat@
CONST	SEGMENT
??_C@_0IK@GAHLFOHO@The?5virtual?5circuit?5was?5terminat@ DB 'The virtual '
	DB	'circuit was terminated due to a time-out or other failure. Th'
	DB	'e application should close the socket as it is no longer usab'
	DB	'le.', 00H					; `string'
CONST	ENDS
;	COMDAT ??_C@_0HJ@JGDNLCKB@The?5connection?5has?5been?5broken?5d@
CONST	SEGMENT
??_C@_0HJ@JGDNLCKB@The?5connection?5has?5been?5broken?5d@ DB 'The connect'
	DB	'ion has been broken due to the ''keep-alive'' activity detect'
	DB	'ing a failure while the operation was in progress.', 00H ; `string'
CONST	ENDS
;	COMDAT ??_C@_0BN@LPMAEJNJ@The?5socket?5is?5not?5connected?4?$AA@
CONST	SEGMENT
??_C@_0BN@LPMAEJNJ@The?5socket?5is?5not?5connected?4?$AA@ DB 'The socket '
	DB	'is not connected.', 00H			; `string'
CONST	ENDS
;	COMDAT ??_C@_06HHEFFBF@send?$CI?$CJ?$AA@
CONST	SEGMENT
??_C@_06HHEFFBF@send?$CI?$CJ?$AA@ DB 'send()', 00H	; `string'
CONST	ENDS
;	COMDAT ??_C@_0DP@LALJGPFA@The?5remote?5host?5cannot?5be?5reache@
CONST	SEGMENT
??_C@_0DP@LALJGPFA@The?5remote?5host?5cannot?5be?5reache@ DB 'The remote '
	DB	'host cannot be reached from this host at this time.', 00H ; `string'
CONST	ENDS
;	COMDAT ??_C@_0HP@NKLLPBNE@The?5connection?5has?5been?5dropped?0@
CONST	SEGMENT
??_C@_0HP@NKLLPBNE@The?5connection?5has?5been?5dropped?0@ DB 'The connect'
	DB	'ion has been dropped, because of a network failure or because'
	DB	' the system on the other end went down without notice.', 00H ; `string'
CONST	ENDS
;	COMDAT ??_C@_0IK@HKLJNMCP@The?5socket?5has?5been?5shut?5down?$DL?5i@
CONST	SEGMENT
??_C@_0IK@HKLJNMCP@The?5socket?5has?5been?5shut?5down?$DL?5i@ DB 'The soc'
	DB	'ket has been shut down; it is not possible to send on a socke'
	DB	't after shutdown has been invoked with how set to SD_SEND or '
	DB	'SD_BOTH.', 00H				; `string'
CONST	ENDS
;	COMDAT ??_C@_0BA@LPDPIADO@connect?5closed?4?$AA@
CONST	SEGMENT
??_C@_0BA@LPDPIADO@connect?5closed?4?$AA@ DB 'connect closed.', 00H ; `string'
CONST	ENDS
;	COMDAT __CTA5?AVConnectException@@
xdata$x	SEGMENT
__CTA5?AVConnectException@@ DD 05H
	DD	FLAT:__CT??_R0?AVConnectException@@@8??0ConnectException@@QAE@ABV0@@Z20
	DD	FLAT:__CT??_R0?AVSocketException@@@8??0SocketException@@QAE@ABV0@@Z20
	DD	FLAT:__CT??_R0?AVIOException@@@8??0IOException@@QAE@ABV0@@Z20
	DD	FLAT:__CT??_R0?AVException@@@8??0Exception@@QAE@ABV0@@Z20
	DD	FLAT:__CT??_R0?AVThrowable@@@8??0Throwable@@QAE@ABV0@@Z20
xdata$x	ENDS
;	COMDAT __CT??_R0?AVConnectException@@@8??0ConnectException@@QAE@ABV0@@Z20
xdata$x	SEGMENT
__CT??_R0?AVConnectException@@@8??0ConnectException@@QAE@ABV0@@Z20 DD 00H
	DD	FLAT:??_R0?AVConnectException@@@8
	DD	00H
	DD	0ffffffffH
	ORG $+4
	DD	014H
	DD	FLAT:??0ConnectException@@QAE@ABV0@@Z
xdata$x	ENDS
;	COMDAT __CT??_R0?AVSocketException@@@8??0SocketException@@QAE@ABV0@@Z20
xdata$x	SEGMENT
__CT??_R0?AVSocketException@@@8??0SocketException@@QAE@ABV0@@Z20 DD 00H
	DD	FLAT:??_R0?AVSocketException@@@8
	DD	00H
	DD	0ffffffffH
	ORG $+4
	DD	014H
	DD	FLAT:??0SocketException@@QAE@ABV0@@Z
; Function compile flags: /Ogsy
; File c:\darkeden\designed_common\project\client\packet\socketapi.cpp
xdata$x	ENDS
;	COMDAT ?send_ex@SocketAPI@@YAIIPBXII@Z
_TEXT	SEGMENT
$T105871 = -760						; size = 20
$T105833 = -740						; size = 20
$T105885 = -720						; size = 20
$T105860 = -700						; size = 20
$T105849 = -680						; size = 20
$T105867 = -660						; size = 20
$T105875 = -640						; size = 20
$T105853 = -620						; size = 20
$T105866 = -600						; size = 20
$T105823 = -580						; size = 20
$T105870 = -560						; size = 20
$T105832 = -540						; size = 20
$T105817 = -520						; size = 20
$T105839 = -500						; size = 20
$T105842 = -480						; size = 20
$T105829 = -460						; size = 20
$T105845 = -440						; size = 20
$T105836 = -420						; size = 20
$T105884 = -400						; size = 20
$T105826 = -380						; size = 20
$T105848 = -360						; size = 20
$T105863 = -340						; size = 20
$T105874 = -320						; size = 20
$T105852 = -300						; size = 20
$T105859 = -280						; size = 20
$T105820 = -260						; size = 20
$T105814 = -240						; size = 20
$T105856 = -220						; size = 20
$T105878 = -200						; size = 24
$T105815 = -176						; size = 12
$T105821 = -164						; size = 12
$T105879 = -152						; size = 12
$T105846 = -140						; size = 12
$T105840 = -128						; size = 12
$T105864 = -116						; size = 12
$T105843 = -104						; size = 12
$T105837 = -92						; size = 12
$T105824 = -80						; size = 12
$T105818 = -68						; size = 12
$T105830 = -56						; size = 12
$T105827 = -44						; size = 12
$T105857 = -32						; size = 12
$T105886 = -20						; size = 4
$T105876 = -20						; size = 4
$T105872 = -20						; size = 4
$T105868 = -20						; size = 4
$T105861 = -20						; size = 4
$T105854 = -20						; size = 4
$T105850 = -20						; size = 4
$T105834 = -20						; size = 4
$T105887 = -13						; size = 1
$T105880 = -13						; size = 1
$T105877 = -13						; size = 1
$T105873 = -13						; size = 1
$T105869 = -13						; size = 1
$T105865 = -13						; size = 1
$T105862 = -13						; size = 1
$T105858 = -13						; size = 1
$T105855 = -13						; size = 1
$T105851 = -13						; size = 1
$T105847 = -13						; size = 1
$T105844 = -13						; size = 1
$T105841 = -13						; size = 1
$T105838 = -13						; size = 1
$T105835 = -13						; size = 1
$T105831 = -13						; size = 1
$T105828 = -13						; size = 1
$T105825 = -13						; size = 1
$T105822 = -13						; size = 1
$T105819 = -13						; size = 1
$T105816 = -13						; size = 1
__$EHRec$ = -12						; size = 12
_s$ = 8							; size = 4
_buf$ = 12						; size = 4
_len$ = 16						; size = 4
_flags$ = 20						; size = 4
?send_ex@SocketAPI@@YAIIPBXII@Z PROC NEAR		; SocketAPI::send_ex, COMDAT

; 620  : {

  00000	b8 00 00 00 00	 mov	 eax, __ehhandler$?send_ex@SocketAPI@@YAIIPBXII@Z
  00005	e8 00 00 00 00	 call	 __EH_prolog
  0000a	81 ec ec 02 00
	00		 sub	 esp, 748		; 000002ecH

; 621  : 	__BEGIN_TRY
; 622  : 
; 623  : #if __LINUX__
; 624  : 	int nSent = send(s,buf,len,flags);
; 625  : #elif __WINDOWS__
; 626  : 	int nSent = send(s,(const char *)buf,len,flags);

  00010	ff 75 14	 push	 DWORD PTR _flags$[ebp]
  00013	ff 75 10	 push	 DWORD PTR _len$[ebp]
  00016	ff 75 0c	 push	 DWORD PTR _buf$[ebp]
  00019	ff 75 08	 push	 DWORD PTR _s$[ebp]
  0001c	e8 00 00 00 00	 call	 _send@16

; 627  : #endif
; 628  : 
; 629  : 	if ( nSent == SOCKET_ERROR ) {

  00021	83 f8 ff	 cmp	 eax, -1
  00024	0f 85 78 05 00
	00		 jne	 $L100109

; 630  : #if __LINUX__
; 631  : 		switch ( errno ) {
; 632  : 		case EBADF : 
; 633  : 			throw Error("An invalid descriptor was specified.");
; 634  : 		case ENOTSOCK : 
; 635  : 			throw Error("The argument s is not a socket.");
; 636  : 		case EFAULT : 
; 637  : 			throw Error("An invalid user space address was specified for a parameter.");
; 638  : 		case EMSGSIZE : 
; 639  : 			throw Error("The socket requires that message be sent atomically, and the size of the message to be sent made this impossible.");
; 640  : 		case EWOULDBLOCK : 
; 641  : 			throw NonBlockingIOException("The socket is marked non-blocking and the requested operation would block.");
; 642  : 		case ENOBUFS : 
; 643  : 			throw Error("The system was unable to allocate an internal buffer. The operation may succeed when buffers become available. & The output queue for a network interface was full. This generally indicates that the interface has stopped sending, but may be caused by transient congestion.");
; 644  : 		case ECONNRESET :
; 645  : 			throw ConnectException("connection reset by peer.");
; 646  : 		case EPIPE :
; 647  : 			throw ConnectException("pipe broken. may be peer host has shut down or has been disabled.        .");
; 648  : 		default : 
; 649  : 			throw UnknownError(strerror(errno),errno);
; 650  : 		}//end of switch
; 651  : #elif __WINDOWS__
; 652  : 		switch ( WSAGetLastError() ) {

  0002a	e8 00 00 00 00	 call	 _WSAGetLastError@0
  0002f	b9 42 27 00 00	 mov	 ecx, 10050		; 00002742H
  00034	3b c1		 cmp	 eax, ecx
  00036	0f 8f 92 02 00
	00		 jg	 $L105881
  0003c	0f 84 55 02 00
	00		 je	 $L105958
  00042	83 c1 f1	 add	 ecx, -15		; fffffff1H
  00045	3b c1		 cmp	 eax, ecx
  00047	0f 8f 48 01 00
	00		 jg	 $L105882
  0004d	0f 84 fe 00 00
	00		 je	 $L106405
  00053	2d 14 27 00 00	 sub	 eax, 10004		; 00002714H
  00058	0f 84 bc 00 00
	00		 je	 $L106044
  0005e	83 e8 09	 sub	 eax, 9
  00061	74 7a		 je	 SHORT $L106001
  00063	48		 dec	 eax
  00064	74 40		 je	 SHORT $L106130
  00066	83 e8 08	 sub	 eax, 8
  00069	0f 85 e9 03 00
	00		 jne	 $L106633

; 683  : 		case WSAEINVAL : 
; 684  : 			throw Error("The socket has not been bound with bind, or an unknown flag was specified, or MSG_OOB was specified for a socket with SO_OOBINLINE enabled.");

  0006f	8d 45 f3	 lea	 eax, DWORD PTR $T105865[ebp]
  00072	50		 push	 eax
  00073	68 00 00 00 00	 push	 OFFSET FLAT:??_C@_0IM@CAIJHNDB@The?5socket?5has?5not?5been?5bound?5wi@
  00078	8d 4d 8c	 lea	 ecx, DWORD PTR $T105864[ebp]
  0007b	e8 00 00 00 00	 call	 ??0?$basic_string@DV?$char_traits@D@_STL@@V?$allocator@D@2@@_STL@@QAE@PBDABV?$allocator@D@1@@Z ; _STL::basic_string<char,_STL::char_traits<char>,_STL::allocator<char> >::basic_string<char,_STL::char_traits<char>,_STL::allocator<char> >
  00080	8d 45 8c	 lea	 eax, DWORD PTR $T105864[ebp]
  00083	50		 push	 eax
  00084	8d 8d ac fe ff
	ff		 lea	 ecx, DWORD PTR $T105863[ebp]
  0008a	c7 45 fc 0f 00
	00 00		 mov	 DWORD PTR __$EHRec$[ebp+8], 15 ; 0000000fH
  00091	e8 00 00 00 00	 call	 ??0Error@@QAE@ABV?$basic_string@DV?$char_traits@D@_STL@@V?$allocator@D@2@@_STL@@@Z ; Error::Error
  00096	68 00 00 00 00	 push	 OFFSET FLAT:__TI2?AVError@@
  0009b	8d 85 ac fe ff
	ff		 lea	 eax, DWORD PTR $T105863[ebp]
  000a1	e9 3f 05 00 00	 jmp	 $L106714

; 661  : 		case WSAEINPROGRESS : 
; 662  : 			throw Error("A blocking Windows Sockets 1.1 call is in progress, or the service provider is still processing a callback function.");

$L106130:

; 663  : 		case WSAEFAULT : 
; 664  : 			throw Error("The buf parameter is not completely contained in a valid part of the user address space.");

  000a6	8d 45 f3	 lea	 eax, DWORD PTR $T105831[ebp]
  000a9	50		 push	 eax
  000aa	68 00 00 00 00	 push	 OFFSET FLAT:??_C@_0FJ@HDNMPKKL@The?5buf?5parameter?5is?5not?5complet@
  000af	8d 4d c8	 lea	 ecx, DWORD PTR $T105830[ebp]
  000b2	e8 00 00 00 00	 call	 ??0?$basic_string@DV?$char_traits@D@_STL@@V?$allocator@D@2@@_STL@@QAE@PBDABV?$allocator@D@1@@Z ; _STL::basic_string<char,_STL::char_traits<char>,_STL::allocator<char> >::basic_string<char,_STL::char_traits<char>,_STL::allocator<char> >
  000b7	8d 45 c8	 lea	 eax, DWORD PTR $T105830[ebp]
  000ba	50		 push	 eax
  000bb	8d 8d 34 fe ff
	ff		 lea	 ecx, DWORD PTR $T105829[ebp]
  000c1	c7 45 fc 05 00
	00 00		 mov	 DWORD PTR __$EHRec$[ebp+8], 5
  000c8	e8 00 00 00 00	 call	 ??0Error@@QAE@ABV?$basic_string@DV?$char_traits@D@_STL@@V?$allocator@D@2@@_STL@@@Z ; Error::Error
  000cd	68 00 00 00 00	 push	 OFFSET FLAT:__TI2?AVError@@
  000d2	8d 85 34 fe ff
	ff		 lea	 eax, DWORD PTR $T105829[ebp]
  000d8	e9 08 05 00 00	 jmp	 $L106714

; 655  : 		case WSAENETDOWN : 
; 656  : 			throw Error("The network subsystem has failed.");

$L106001:

; 657  : 		case WSAEACCES : 
; 658  : 			throw Error("The requested address is a broadcast address, but the appropriate flag was not set. Call setsockopt with the SO_BROADCAST parameter to allow the use of the broadcast address.");

  000dd	8d 45 f3	 lea	 eax, DWORD PTR $T105822[ebp]
  000e0	50		 push	 eax
  000e1	68 00 00 00 00	 push	 OFFSET FLAT:??_C@_0KP@GLGADKOB@The?5requested?5address?5is?5a?5broad@
  000e6	8d 8d 5c ff ff
	ff		 lea	 ecx, DWORD PTR $T105821[ebp]
  000ec	e8 00 00 00 00	 call	 ??0?$basic_string@DV?$char_traits@D@_STL@@V?$allocator@D@2@@_STL@@QAE@PBDABV?$allocator@D@1@@Z ; _STL::basic_string<char,_STL::char_traits<char>,_STL::allocator<char> >::basic_string<char,_STL::char_traits<char>,_STL::allocator<char> >
  000f1	8d 85 5c ff ff
	ff		 lea	 eax, DWORD PTR $T105821[ebp]
  000f7	50		 push	 eax
  000f8	8d 8d fc fe ff
	ff		 lea	 ecx, DWORD PTR $T105820[ebp]
  000fe	c7 45 fc 02 00
	00 00		 mov	 DWORD PTR __$EHRec$[ebp+8], 2
  00105	e8 00 00 00 00	 call	 ??0Error@@QAE@ABV?$basic_string@DV?$char_traits@D@_STL@@V?$allocator@D@2@@_STL@@@Z ; Error::Error
  0010a	68 00 00 00 00	 push	 OFFSET FLAT:__TI2?AVError@@
  0010f	8d 85 fc fe ff
	ff		 lea	 eax, DWORD PTR $T105820[ebp]
  00115	e9 cb 04 00 00	 jmp	 $L106714
$L106044:

; 659  : 		case WSAEINTR : 
; 660  : 			throw Error("A blocking Windows Sockets 1.1 call was canceled through WSACancelBlockingCall.");

  0011a	8d 45 f3	 lea	 eax, DWORD PTR $T105825[ebp]
  0011d	50		 push	 eax
  0011e	68 00 00 00 00	 push	 OFFSET FLAT:??_C@_0FA@JJCMAGDB@A?5blocking?5Windows?5Sockets?51?41?5c@
  00123	8d 4d b0	 lea	 ecx, DWORD PTR $T105824[ebp]
  00126	e8 00 00 00 00	 call	 ??0?$basic_string@DV?$char_traits@D@_STL@@V?$allocator@D@2@@_STL@@QAE@PBDABV?$allocator@D@1@@Z ; _STL::basic_string<char,_STL::char_traits<char>,_STL::allocator<char> >::basic_string<char,_STL::char_traits<char>,_STL::allocator<char> >
  0012b	8d 45 b0	 lea	 eax, DWORD PTR $T105824[ebp]
  0012e	50		 push	 eax
  0012f	8d 8d bc fd ff
	ff		 lea	 ecx, DWORD PTR $T105823[ebp]
  00135	c7 45 fc 03 00
	00 00		 mov	 DWORD PTR __$EHRec$[ebp+8], 3
  0013c	e8 00 00 00 00	 call	 ??0Error@@QAE@ABV?$basic_string@DV?$char_traits@D@_STL@@V?$allocator@D@2@@_STL@@@Z ; Error::Error
  00141	68 00 00 00 00	 push	 OFFSET FLAT:__TI2?AVError@@
  00146	8d 85 bc fd ff
	ff		 lea	 eax, DWORD PTR $T105823[ebp]
  0014c	e9 94 04 00 00	 jmp	 $L106714

; 675  : 		case WSAESHUTDOWN : 
; 676  : 			throw ConnectException("The socket has been shut down; it is not possible to send on a socket after shutdown has been invoked with how set to SD_SEND or SD_BOTH.");

$L106405:

; 677  : 		case WSAEWOULDBLOCK : 
; 678  : 			throw NonBlockingIOException("The socket is marked as nonblocking and the requested operation would block.");

  00151	83 ec 0c	 sub	 esp, 12			; 0000000cH
  00154	8b cc		 mov	 ecx, esp
  00156	89 65 ec	 mov	 DWORD PTR $T105854[ebp], esp
  00159	8d 45 f3	 lea	 eax, DWORD PTR $T105855[ebp]
  0015c	50		 push	 eax
  0015d	68 00 00 00 00	 push	 OFFSET FLAT:??_C@_0EN@KAKAIMBJ@The?5socket?5is?5marked?5as?5nonblock@
  00162	e8 00 00 00 00	 call	 ??0?$basic_string@DV?$char_traits@D@_STL@@V?$allocator@D@2@@_STL@@QAE@PBDABV?$allocator@D@1@@Z ; _STL::basic_string<char,_STL::char_traits<char>,_STL::allocator<char> >::basic_string<char,_STL::char_traits<char>,_STL::allocator<char> >
  00167	8d 8d 94 fd ff
	ff		 lea	 ecx, DWORD PTR $T105853[ebp]
  0016d	e8 00 00 00 00	 call	 ??0NonBlockingIOException@@QAE@V?$basic_string@DV?$char_traits@D@_STL@@V?$allocator@D@2@@_STL@@@Z ; NonBlockingIOException::NonBlockingIOException
  00172	50		 push	 eax
  00173	8d 8d d4 fe ff
	ff		 lea	 ecx, DWORD PTR $T105852[ebp]
  00179	c7 45 fc 0c 00
	00 00		 mov	 DWORD PTR __$EHRec$[ebp+8], 12 ; 0000000cH
  00180	e8 00 00 00 00	 call	 ??0NonBlockingIOException@@QAE@ABV0@@Z
  00185	68 00 00 00 00	 push	 OFFSET FLAT:__TI4?AVNonBlockingIOException@@
  0018a	8d 85 d4 fe ff
	ff		 lea	 eax, DWORD PTR $T105852[ebp]
  00190	e9 50 04 00 00	 jmp	 $L106714
$L105882:

; 630  : #if __LINUX__
; 631  : 		switch ( errno ) {
; 632  : 		case EBADF : 
; 633  : 			throw Error("An invalid descriptor was specified.");
; 634  : 		case ENOTSOCK : 
; 635  : 			throw Error("The argument s is not a socket.");
; 636  : 		case EFAULT : 
; 637  : 			throw Error("An invalid user space address was specified for a parameter.");
; 638  : 		case EMSGSIZE : 
; 639  : 			throw Error("The socket requires that message be sent atomically, and the size of the message to be sent made this impossible.");
; 640  : 		case EWOULDBLOCK : 
; 641  : 			throw NonBlockingIOException("The socket is marked non-blocking and the requested operation would block.");
; 642  : 		case ENOBUFS : 
; 643  : 			throw Error("The system was unable to allocate an internal buffer. The operation may succeed when buffers become available. & The output queue for a network interface was full. This generally indicates that the interface has stopped sending, but may be caused by transient congestion.");
; 644  : 		case ECONNRESET :
; 645  : 			throw ConnectException("connection reset by peer.");
; 646  : 		case EPIPE :
; 647  : 			throw ConnectException("pipe broken. may be peer host has shut down or has been disabled.        .");
; 648  : 		default : 
; 649  : 			throw UnknownError(strerror(errno),errno);
; 650  : 		}//end of switch
; 651  : #elif __WINDOWS__
; 652  : 		switch ( WSAGetLastError() ) {

  00195	2d 34 27 00 00	 sub	 eax, 10036		; 00002734H
  0019a	0f 84 c0 00 00
	00		 je	 $L106087
  001a0	48		 dec	 eax
  001a1	48		 dec	 eax
  001a2	0f 84 81 00 00
	00		 je	 $L106289
  001a8	48		 dec	 eax
  001a9	48		 dec	 eax
  001aa	74 46		 je	 SHORT $L106426
  001ac	83 e8 05	 sub	 eax, 5
  001af	0f 85 a3 02 00
	00		 jne	 $L106633

; 673  : 		case WSAEOPNOTSUPP : 
; 674  : 			throw Error("MSG_OOB was specified, but the socket is not stream-style such as type SOCK_STREAM, out-of-band data is not supported in the communication domain associated with this socket, or the socket is unidirectional and supports only receive operations.");

  001b5	8d 45 f3	 lea	 eax, DWORD PTR $T105847[ebp]
  001b8	50		 push	 eax
  001b9	68 00 00 00 00	 push	 OFFSET FLAT:??_C@_0PF@GACPBHPE@MSG_OOB?5was?5specified?0?5but?5the?5s@
  001be	8d 8d 74 ff ff
	ff		 lea	 ecx, DWORD PTR $T105846[ebp]
  001c4	e8 00 00 00 00	 call	 ??0?$basic_string@DV?$char_traits@D@_STL@@V?$allocator@D@2@@_STL@@QAE@PBDABV?$allocator@D@1@@Z ; _STL::basic_string<char,_STL::char_traits<char>,_STL::allocator<char> >::basic_string<char,_STL::char_traits<char>,_STL::allocator<char> >
  001c9	8d 85 74 ff ff
	ff		 lea	 eax, DWORD PTR $T105846[ebp]
  001cf	50		 push	 eax
  001d0	8d 8d 48 fe ff
	ff		 lea	 ecx, DWORD PTR $T105845[ebp]
  001d6	c7 45 fc 0a 00
	00 00		 mov	 DWORD PTR __$EHRec$[ebp+8], 10 ; 0000000aH
  001dd	e8 00 00 00 00	 call	 ??0Error@@QAE@ABV?$basic_string@DV?$char_traits@D@_STL@@V?$allocator@D@2@@_STL@@@Z ; Error::Error
  001e2	68 00 00 00 00	 push	 OFFSET FLAT:__TI2?AVError@@
  001e7	8d 85 48 fe ff
	ff		 lea	 eax, DWORD PTR $T105845[ebp]
  001ed	e9 f3 03 00 00	 jmp	 $L106714

; 677  : 		case WSAEWOULDBLOCK : 
; 678  : 			throw NonBlockingIOException("The socket is marked as nonblocking and the requested operation would block.");

$L106426:

; 679  : 		case WSAEMSGSIZE : 
; 680  : 			throw Error("The socket is message oriented, and the message is larger than the maximum supported by the underlying transport.");

  001f2	8d 45 f3	 lea	 eax, DWORD PTR $T105858[ebp]
  001f5	50		 push	 eax
  001f6	68 00 00 00 00	 push	 OFFSET FLAT:??_C@_0HC@GAPLAGOO@The?5socket?5is?5message?5oriented?0?5@
  001fb	8d 4d e0	 lea	 ecx, DWORD PTR $T105857[ebp]
  001fe	e8 00 00 00 00	 call	 ??0?$basic_string@DV?$char_traits@D@_STL@@V?$allocator@D@2@@_STL@@QAE@PBDABV?$allocator@D@1@@Z ; _STL::basic_string<char,_STL::char_traits<char>,_STL::allocator<char> >::basic_string<char,_STL::char_traits<char>,_STL::allocator<char> >
  00203	8d 45 e0	 lea	 eax, DWORD PTR $T105857[ebp]
  00206	50		 push	 eax
  00207	8d 8d 24 ff ff
	ff		 lea	 ecx, DWORD PTR $T105856[ebp]
  0020d	c7 45 fc 0d 00
	00 00		 mov	 DWORD PTR __$EHRec$[ebp+8], 13 ; 0000000dH
  00214	e8 00 00 00 00	 call	 ??0Error@@QAE@ABV?$basic_string@DV?$char_traits@D@_STL@@V?$allocator@D@2@@_STL@@@Z ; Error::Error
  00219	68 00 00 00 00	 push	 OFFSET FLAT:__TI2?AVError@@
  0021e	8d 85 24 ff ff
	ff		 lea	 eax, DWORD PTR $T105856[ebp]
  00224	e9 bc 03 00 00	 jmp	 $L106714

; 669  : 		case WSAENOTCONN : 
; 670  : 			throw Error("The socket is not connected.");

$L106289:

; 671  : 		case WSAENOTSOCK : 
; 672  : 			throw Error("The descriptor is not a socket.");

  00229	8d 45 f3	 lea	 eax, DWORD PTR $T105844[ebp]
  0022c	50		 push	 eax
  0022d	68 00 00 00 00	 push	 OFFSET FLAT:??_C@_0CA@EGNBMMLP@The?5descriptor?5is?5not?5a?5socket?4?$AA@
  00232	8d 4d 98	 lea	 ecx, DWORD PTR $T105843[ebp]
  00235	e8 00 00 00 00	 call	 ??0?$basic_string@DV?$char_traits@D@_STL@@V?$allocator@D@2@@_STL@@QAE@PBDABV?$allocator@D@1@@Z ; _STL::basic_string<char,_STL::char_traits<char>,_STL::allocator<char> >::basic_string<char,_STL::char_traits<char>,_STL::allocator<char> >
  0023a	8d 45 98	 lea	 eax, DWORD PTR $T105843[ebp]
  0023d	50		 push	 eax
  0023e	8d 8d 20 fe ff
	ff		 lea	 ecx, DWORD PTR $T105842[ebp]
  00244	c7 45 fc 09 00
	00 00		 mov	 DWORD PTR __$EHRec$[ebp+8], 9
  0024b	e8 00 00 00 00	 call	 ??0Error@@QAE@ABV?$basic_string@DV?$char_traits@D@_STL@@V?$allocator@D@2@@_STL@@@Z ; Error::Error
  00250	68 00 00 00 00	 push	 OFFSET FLAT:__TI2?AVError@@
  00255	8d 85 20 fe ff
	ff		 lea	 eax, DWORD PTR $T105842[ebp]
  0025b	e9 85 03 00 00	 jmp	 $L106714

; 659  : 		case WSAEINTR : 
; 660  : 			throw Error("A blocking Windows Sockets 1.1 call was canceled through WSACancelBlockingCall.");

$L106087:

; 661  : 		case WSAEINPROGRESS : 
; 662  : 			throw Error("A blocking Windows Sockets 1.1 call is in progress, or the service provider is still processing a callback function.");

  00260	8d 45 f3	 lea	 eax, DWORD PTR $T105828[ebp]
  00263	50		 push	 eax
  00264	68 00 00 00 00	 push	 OFFSET FLAT:??_C@_0HF@MHMDKDMH@A?5blocking?5Windows?5Sockets?51?41?5c@
  00269	8d 4d d4	 lea	 ecx, DWORD PTR $T105827[ebp]
  0026c	e8 00 00 00 00	 call	 ??0?$basic_string@DV?$char_traits@D@_STL@@V?$allocator@D@2@@_STL@@QAE@PBDABV?$allocator@D@1@@Z ; _STL::basic_string<char,_STL::char_traits<char>,_STL::allocator<char> >::basic_string<char,_STL::char_traits<char>,_STL::allocator<char> >
  00271	8d 45 d4	 lea	 eax, DWORD PTR $T105827[ebp]
  00274	50		 push	 eax
  00275	8d 8d 84 fe ff
	ff		 lea	 ecx, DWORD PTR $T105826[ebp]
  0027b	c7 45 fc 04 00
	00 00		 mov	 DWORD PTR __$EHRec$[ebp+8], 4
  00282	e8 00 00 00 00	 call	 ??0Error@@QAE@ABV?$basic_string@DV?$char_traits@D@_STL@@V?$allocator@D@2@@_STL@@@Z ; Error::Error
  00287	68 00 00 00 00	 push	 OFFSET FLAT:__TI2?AVError@@
  0028c	8d 85 84 fe ff
	ff		 lea	 eax, DWORD PTR $T105826[ebp]
  00292	e9 4e 03 00 00	 jmp	 $L106714

; 653  : 		case WSANOTINITIALISED : 
; 654  : 			throw Error("A successful WSAStartup must occur before using this function.");

$L105958:

; 655  : 		case WSAENETDOWN : 
; 656  : 			throw Error("The network subsystem has failed.");

  00297	8d 45 f3	 lea	 eax, DWORD PTR $T105819[ebp]
  0029a	50		 push	 eax
  0029b	68 00 00 00 00	 push	 OFFSET FLAT:??_C@_0CC@ECDFBOEN@The?5network?5subsystem?5has?5failed@
  002a0	8d 4d bc	 lea	 ecx, DWORD PTR $T105818[ebp]
  002a3	e8 00 00 00 00	 call	 ??0?$basic_string@DV?$char_traits@D@_STL@@V?$allocator@D@2@@_STL@@QAE@PBDABV?$allocator@D@1@@Z ; _STL::basic_string<char,_STL::char_traits<char>,_STL::allocator<char> >::basic_string<char,_STL::char_traits<char>,_STL::allocator<char> >
  002a8	8d 45 bc	 lea	 eax, DWORD PTR $T105818[ebp]
  002ab	50		 push	 eax
  002ac	8d 8d f8 fd ff
	ff		 lea	 ecx, DWORD PTR $T105817[ebp]
  002b2	c7 45 fc 01 00
	00 00		 mov	 DWORD PTR __$EHRec$[ebp+8], 1
  002b9	e8 00 00 00 00	 call	 ??0Error@@QAE@ABV?$basic_string@DV?$char_traits@D@_STL@@V?$allocator@D@2@@_STL@@@Z ; Error::Error
  002be	68 00 00 00 00	 push	 OFFSET FLAT:__TI2?AVError@@
  002c3	8d 85 f8 fd ff
	ff		 lea	 eax, DWORD PTR $T105817[ebp]
  002c9	e9 17 03 00 00	 jmp	 $L106714
$L105881:

; 630  : #if __LINUX__
; 631  : 		switch ( errno ) {
; 632  : 		case EBADF : 
; 633  : 			throw Error("An invalid descriptor was specified.");
; 634  : 		case ENOTSOCK : 
; 635  : 			throw Error("The argument s is not a socket.");
; 636  : 		case EFAULT : 
; 637  : 			throw Error("An invalid user space address was specified for a parameter.");
; 638  : 		case EMSGSIZE : 
; 639  : 			throw Error("The socket requires that message be sent atomically, and the size of the message to be sent made this impossible.");
; 640  : 		case EWOULDBLOCK : 
; 641  : 			throw NonBlockingIOException("The socket is marked non-blocking and the requested operation would block.");
; 642  : 		case ENOBUFS : 
; 643  : 			throw Error("The system was unable to allocate an internal buffer. The operation may succeed when buffers become available. & The output queue for a network interface was full. This generally indicates that the interface has stopped sending, but may be caused by transient congestion.");
; 644  : 		case ECONNRESET :
; 645  : 			throw ConnectException("connection reset by peer.");
; 646  : 		case EPIPE :
; 647  : 			throw ConnectException("pipe broken. may be peer host has shut down or has been disabled.        .");
; 648  : 		default : 
; 649  : 			throw UnknownError(strerror(errno),errno);
; 650  : 		}//end of switch
; 651  : #elif __WINDOWS__
; 652  : 		switch ( WSAGetLastError() ) {

  002ce	b9 49 27 00 00	 mov	 ecx, 10057		; 00002749H
  002d3	3b c1		 cmp	 eax, ecx
  002d5	0f 8f 5c 01 00
	00		 jg	 $L105883
  002db	0f 84 1f 01 00
	00		 je	 $L106246
  002e1	2d 44 27 00 00	 sub	 eax, 10052		; 00002744H
  002e6	0f 84 d0 00 00
	00		 je	 $L106173
  002ec	48		 dec	 eax
  002ed	0f 84 85 00 00
	00		 je	 $L106543
  002f3	48		 dec	 eax
  002f4	74 3e		 je	 SHORT $L106573
  002f6	48		 dec	 eax
  002f7	0f 85 5b 01 00
	00		 jne	 $L106633

; 667  : 		case WSAENOBUFS : 
; 668  : 			throw Error("No buffer space is available.");

  002fd	8d 45 f3	 lea	 eax, DWORD PTR $T105838[ebp]
  00300	50		 push	 eax
  00301	68 00 00 00 00	 push	 OFFSET FLAT:??_C@_0BO@MFIBOLAF@No?5buffer?5space?5is?5available?4?$AA@
  00306	8d 4d a4	 lea	 ecx, DWORD PTR $T105837[ebp]
  00309	e8 00 00 00 00	 call	 ??0?$basic_string@DV?$char_traits@D@_STL@@V?$allocator@D@2@@_STL@@QAE@PBDABV?$allocator@D@1@@Z ; _STL::basic_string<char,_STL::char_traits<char>,_STL::allocator<char> >::basic_string<char,_STL::char_traits<char>,_STL::allocator<char> >
  0030e	8d 45 a4	 lea	 eax, DWORD PTR $T105837[ebp]
  00311	50		 push	 eax
  00312	8d 8d 5c fe ff
	ff		 lea	 ecx, DWORD PTR $T105836[ebp]
  00318	c7 45 fc 07 00
	00 00		 mov	 DWORD PTR __$EHRec$[ebp+8], 7
  0031f	e8 00 00 00 00	 call	 ??0Error@@QAE@ABV?$basic_string@DV?$char_traits@D@_STL@@V?$allocator@D@2@@_STL@@@Z ; Error::Error
  00324	68 00 00 00 00	 push	 OFFSET FLAT:__TI2?AVError@@
  00329	8d 85 5c fe ff
	ff		 lea	 eax, DWORD PTR $T105836[ebp]
  0032f	e9 b1 02 00 00	 jmp	 $L106714

; 685  : 		case WSAECONNABORTED : 
; 686  : 			throw ConnectException("The virtual circuit was terminated due to a time-out or other failure. The application should close the socket as it is no longer usable.");

$L106573:

; 687  : 		case WSAECONNRESET : 
; 688  : 			throw ConnectException("The virtual circuit was reset by the remote side executing a 'hard' or 'abortive' close. For UPD sockets, the remote host was unable to deliver a previously sent UDP datagram and responded with a 'Port Unreachable' ICMP packet. The application should close the socket as it is no longer usable.");

  00334	83 ec 0c	 sub	 esp, 12			; 0000000cH
  00337	8b cc		 mov	 ecx, esp
  00339	89 65 ec	 mov	 DWORD PTR $T105872[ebp], esp
  0033c	8d 45 f3	 lea	 eax, DWORD PTR $T105873[ebp]
  0033f	50		 push	 eax
  00340	68 00 00 00 00	 push	 OFFSET FLAT:??_C@_0BCH@PECBDLNP@The?5virtual?5circuit?5was?5reset?5by@
  00345	e8 00 00 00 00	 call	 ??0?$basic_string@DV?$char_traits@D@_STL@@V?$allocator@D@2@@_STL@@QAE@PBDABV?$allocator@D@1@@Z ; _STL::basic_string<char,_STL::char_traits<char>,_STL::allocator<char> >::basic_string<char,_STL::char_traits<char>,_STL::allocator<char> >
  0034a	8d 8d 08 fd ff
	ff		 lea	 ecx, DWORD PTR $T105871[ebp]
  00350	e8 00 00 00 00	 call	 ??0ConnectException@@QAE@V?$basic_string@DV?$char_traits@D@_STL@@V?$allocator@D@2@@_STL@@@Z ; ConnectException::ConnectException
  00355	50		 push	 eax
  00356	8d 8d d0 fd ff
	ff		 lea	 ecx, DWORD PTR $T105870[ebp]
  0035c	c7 45 fc 11 00
	00 00		 mov	 DWORD PTR __$EHRec$[ebp+8], 17 ; 00000011H
  00363	e8 00 00 00 00	 call	 ??0ConnectException@@QAE@ABV0@@Z
  00368	68 00 00 00 00	 push	 OFFSET FLAT:__TI5?AVConnectException@@
  0036d	8d 85 d0 fd ff
	ff		 lea	 eax, DWORD PTR $T105870[ebp]
  00373	e9 6d 02 00 00	 jmp	 $L106714

; 683  : 		case WSAEINVAL : 
; 684  : 			throw Error("The socket has not been bound with bind, or an unknown flag was specified, or MSG_OOB was specified for a socket with SO_OOBINLINE enabled.");

$L106543:

; 685  : 		case WSAECONNABORTED : 
; 686  : 			throw ConnectException("The virtual circuit was terminated due to a time-out or other failure. The application should close the socket as it is no longer usable.");

  00378	83 ec 0c	 sub	 esp, 12			; 0000000cH
  0037b	8b cc		 mov	 ecx, esp
  0037d	89 65 ec	 mov	 DWORD PTR $T105868[ebp], esp
  00380	8d 45 f3	 lea	 eax, DWORD PTR $T105869[ebp]
  00383	50		 push	 eax
  00384	68 00 00 00 00	 push	 OFFSET FLAT:??_C@_0IK@GAHLFOHO@The?5virtual?5circuit?5was?5terminat@
  00389	e8 00 00 00 00	 call	 ??0?$basic_string@DV?$char_traits@D@_STL@@V?$allocator@D@2@@_STL@@QAE@PBDABV?$allocator@D@1@@Z ; _STL::basic_string<char,_STL::char_traits<char>,_STL::allocator<char> >::basic_string<char,_STL::char_traits<char>,_STL::allocator<char> >
  0038e	8d 8d 6c fd ff
	ff		 lea	 ecx, DWORD PTR $T105867[ebp]
  00394	e8 00 00 00 00	 call	 ??0ConnectException@@QAE@V?$basic_string@DV?$char_traits@D@_STL@@V?$allocator@D@2@@_STL@@@Z ; ConnectException::ConnectException
  00399	50		 push	 eax
  0039a	8d 8d a8 fd ff
	ff		 lea	 ecx, DWORD PTR $T105866[ebp]
  003a0	c7 45 fc 10 00
	00 00		 mov	 DWORD PTR __$EHRec$[ebp+8], 16 ; 00000010H
  003a7	e8 00 00 00 00	 call	 ??0ConnectException@@QAE@ABV0@@Z
  003ac	68 00 00 00 00	 push	 OFFSET FLAT:__TI5?AVConnectException@@
  003b1	8d 85 a8 fd ff
	ff		 lea	 eax, DWORD PTR $T105866[ebp]
  003b7	e9 29 02 00 00	 jmp	 $L106714

; 663  : 		case WSAEFAULT : 
; 664  : 			throw Error("The buf parameter is not completely contained in a valid part of the user address space.");

$L106173:

; 665  : 		case WSAENETRESET : 
; 666  : 			throw ConnectException("The connection has been broken due to the 'keep-alive' activity detecting a failure while the operation was in progress.");

  003bc	83 ec 0c	 sub	 esp, 12			; 0000000cH
  003bf	8b cc		 mov	 ecx, esp
  003c1	89 65 ec	 mov	 DWORD PTR $T105834[ebp], esp
  003c4	8d 45 f3	 lea	 eax, DWORD PTR $T105835[ebp]
  003c7	50		 push	 eax
  003c8	68 00 00 00 00	 push	 OFFSET FLAT:??_C@_0HJ@JGDNLCKB@The?5connection?5has?5been?5broken?5d@
  003cd	e8 00 00 00 00	 call	 ??0?$basic_string@DV?$char_traits@D@_STL@@V?$allocator@D@2@@_STL@@QAE@PBDABV?$allocator@D@1@@Z ; _STL::basic_string<char,_STL::char_traits<char>,_STL::allocator<char> >::basic_string<char,_STL::char_traits<char>,_STL::allocator<char> >
  003d2	8d 8d 1c fd ff
	ff		 lea	 ecx, DWORD PTR $T105833[ebp]
  003d8	e8 00 00 00 00	 call	 ??0ConnectException@@QAE@V?$basic_string@DV?$char_traits@D@_STL@@V?$allocator@D@2@@_STL@@@Z ; ConnectException::ConnectException
  003dd	50		 push	 eax
  003de	8d 8d e4 fd ff
	ff		 lea	 ecx, DWORD PTR $T105832[ebp]
  003e4	c7 45 fc 06 00
	00 00		 mov	 DWORD PTR __$EHRec$[ebp+8], 6
  003eb	e8 00 00 00 00	 call	 ??0ConnectException@@QAE@ABV0@@Z
  003f0	68 00 00 00 00	 push	 OFFSET FLAT:__TI5?AVConnectException@@
  003f5	8d 85 e4 fd ff
	ff		 lea	 eax, DWORD PTR $T105832[ebp]
  003fb	e9 e5 01 00 00	 jmp	 $L106714

; 667  : 		case WSAENOBUFS : 
; 668  : 			throw Error("No buffer space is available.");

$L106246:

; 669  : 		case WSAENOTCONN : 
; 670  : 			throw Error("The socket is not connected.");

  00400	8d 45 f3	 lea	 eax, DWORD PTR $T105841[ebp]
  00403	50		 push	 eax
  00404	68 00 00 00 00	 push	 OFFSET FLAT:??_C@_0BN@LPMAEJNJ@The?5socket?5is?5not?5connected?4?$AA@
  00409	8d 4d 80	 lea	 ecx, DWORD PTR $T105840[ebp]
  0040c	e8 00 00 00 00	 call	 ??0?$basic_string@DV?$char_traits@D@_STL@@V?$allocator@D@2@@_STL@@QAE@PBDABV?$allocator@D@1@@Z ; _STL::basic_string<char,_STL::char_traits<char>,_STL::allocator<char> >::basic_string<char,_STL::char_traits<char>,_STL::allocator<char> >
  00411	8d 45 80	 lea	 eax, DWORD PTR $T105840[ebp]
  00414	50		 push	 eax
  00415	8d 8d 0c fe ff
	ff		 lea	 ecx, DWORD PTR $T105839[ebp]
  0041b	c7 45 fc 08 00
	00 00		 mov	 DWORD PTR __$EHRec$[ebp+8], 8
  00422	e8 00 00 00 00	 call	 ??0Error@@QAE@ABV?$basic_string@DV?$char_traits@D@_STL@@V?$allocator@D@2@@_STL@@@Z ; Error::Error
  00427	68 00 00 00 00	 push	 OFFSET FLAT:__TI2?AVError@@
  0042c	8d 85 0c fe ff
	ff		 lea	 eax, DWORD PTR $T105839[ebp]
  00432	e9 ae 01 00 00	 jmp	 $L106714
$L105883:

; 630  : #if __LINUX__
; 631  : 		switch ( errno ) {
; 632  : 		case EBADF : 
; 633  : 			throw Error("An invalid descriptor was specified.");
; 634  : 		case ENOTSOCK : 
; 635  : 			throw Error("The argument s is not a socket.");
; 636  : 		case EFAULT : 
; 637  : 			throw Error("An invalid user space address was specified for a parameter.");
; 638  : 		case EMSGSIZE : 
; 639  : 			throw Error("The socket requires that message be sent atomically, and the size of the message to be sent made this impossible.");
; 640  : 		case EWOULDBLOCK : 
; 641  : 			throw NonBlockingIOException("The socket is marked non-blocking and the requested operation would block.");
; 642  : 		case ENOBUFS : 
; 643  : 			throw Error("The system was unable to allocate an internal buffer. The operation may succeed when buffers become available. & The output queue for a network interface was full. This generally indicates that the interface has stopped sending, but may be caused by transient congestion.");
; 644  : 		case ECONNRESET :
; 645  : 			throw ConnectException("connection reset by peer.");
; 646  : 		case EPIPE :
; 647  : 			throw ConnectException("pipe broken. may be peer host has shut down or has been disabled.        .");
; 648  : 		default : 
; 649  : 			throw UnknownError(strerror(errno),errno);
; 650  : 		}//end of switch
; 651  : #elif __WINDOWS__
; 652  : 		switch ( WSAGetLastError() ) {

  00437	2d 4a 27 00 00	 sub	 eax, 10058		; 0000274aH
  0043c	0f 84 1f 01 00
	00		 je	 $L106375
  00442	48		 dec	 eax
  00443	48		 dec	 eax
  00444	0f 84 d3 00 00
	00		 je	 $L106603
  0044a	83 e8 05	 sub	 eax, 5
  0044d	0f 84 86 00 00
	00		 je	 $L106469
  00453	83 e8 1c	 sub	 eax, 28			; 0000001cH
  00456	74 47		 je	 SHORT $L100114

; 689  : 		case WSAETIMEDOUT : 
; 690  : 			throw ConnectException("The connection has been dropped, because of a network failure or because the system on the other end went down without notice.");

$L106633:

; 691  : 		default :
; 692  : 			throw UnknownError("send()");

  00458	8d 45 f3	 lea	 eax, DWORD PTR $T105880[ebp]
  0045b	50		 push	 eax
  0045c	68 00 00 00 00	 push	 OFFSET FLAT:??_C@_06HHEFFBF@send?$CI?$CJ?$AA@
  00461	8d 8d 68 ff ff
	ff		 lea	 ecx, DWORD PTR $T105879[ebp]
  00467	e8 00 00 00 00	 call	 ??0?$basic_string@DV?$char_traits@D@_STL@@V?$allocator@D@2@@_STL@@QAE@PBDABV?$allocator@D@1@@Z ; _STL::basic_string<char,_STL::char_traits<char>,_STL::allocator<char> >::basic_string<char,_STL::char_traits<char>,_STL::allocator<char> >
  0046c	8d 85 68 ff ff
	ff		 lea	 eax, DWORD PTR $T105879[ebp]
  00472	50		 push	 eax
  00473	8d 8d 38 ff ff
	ff		 lea	 ecx, DWORD PTR $T105878[ebp]
  00479	c7 45 fc 13 00
	00 00		 mov	 DWORD PTR __$EHRec$[ebp+8], 19 ; 00000013H
  00480	e8 00 00 00 00	 call	 ??0Error@@QAE@ABV?$basic_string@DV?$char_traits@D@_STL@@V?$allocator@D@2@@_STL@@@Z ; Error::Error
  00485	c7 85 38 ff ff
	ff 00 00 00 00	 mov	 DWORD PTR $T105878[ebp], OFFSET FLAT:??_7UnknownError@@6B@
  0048f	68 00 00 00 00	 push	 OFFSET FLAT:__TI3?AVUnknownError@@
  00494	8d 85 38 ff ff
	ff		 lea	 eax, DWORD PTR $T105878[ebp]
  0049a	e9 46 01 00 00	 jmp	 $L106714
$L100114:

; 653  : 		case WSANOTINITIALISED : 
; 654  : 			throw Error("A successful WSAStartup must occur before using this function.");

  0049f	8d 45 f3	 lea	 eax, DWORD PTR $T105816[ebp]
  004a2	50		 push	 eax
  004a3	68 00 00 00 00	 push	 OFFSET FLAT:??_C@_0DP@GBHCAAKN@A?5successful?5WSAStartup?5must?5occ@
  004a8	8d 8d 50 ff ff
	ff		 lea	 ecx, DWORD PTR $T105815[ebp]
  004ae	e8 00 00 00 00	 call	 ??0?$basic_string@DV?$char_traits@D@_STL@@V?$allocator@D@2@@_STL@@QAE@PBDABV?$allocator@D@1@@Z ; _STL::basic_string<char,_STL::char_traits<char>,_STL::allocator<char> >::basic_string<char,_STL::char_traits<char>,_STL::allocator<char> >
  004b3	83 65 fc 00	 and	 DWORD PTR __$EHRec$[ebp+8], 0
  004b7	8d 85 50 ff ff
	ff		 lea	 eax, DWORD PTR $T105815[ebp]
  004bd	50		 push	 eax
  004be	8d 8d 10 ff ff
	ff		 lea	 ecx, DWORD PTR $T105814[ebp]
  004c4	e8 00 00 00 00	 call	 ??0Error@@QAE@ABV?$basic_string@DV?$char_traits@D@_STL@@V?$allocator@D@2@@_STL@@@Z ; Error::Error
  004c9	68 00 00 00 00	 push	 OFFSET FLAT:__TI2?AVError@@
  004ce	8d 85 10 ff ff
	ff		 lea	 eax, DWORD PTR $T105814[ebp]
  004d4	e9 0c 01 00 00	 jmp	 $L106714

; 679  : 		case WSAEMSGSIZE : 
; 680  : 			throw Error("The socket is message oriented, and the message is larger than the maximum supported by the underlying transport.");

$L106469:

; 681  : 		case WSAEHOSTUNREACH : 
; 682  : 			throw ConnectException("The remote host cannot be reached from this host at this time.");

  004d9	83 ec 0c	 sub	 esp, 12			; 0000000cH
  004dc	8b cc		 mov	 ecx, esp
  004de	89 65 ec	 mov	 DWORD PTR $T105861[ebp], esp
  004e1	8d 45 f3	 lea	 eax, DWORD PTR $T105862[ebp]
  004e4	50		 push	 eax
  004e5	68 00 00 00 00	 push	 OFFSET FLAT:??_C@_0DP@LALJGPFA@The?5remote?5host?5cannot?5be?5reache@
  004ea	e8 00 00 00 00	 call	 ??0?$basic_string@DV?$char_traits@D@_STL@@V?$allocator@D@2@@_STL@@QAE@PBDABV?$allocator@D@1@@Z ; _STL::basic_string<char,_STL::char_traits<char>,_STL::allocator<char> >::basic_string<char,_STL::char_traits<char>,_STL::allocator<char> >
  004ef	8d 8d 44 fd ff
	ff		 lea	 ecx, DWORD PTR $T105860[ebp]
  004f5	e8 00 00 00 00	 call	 ??0ConnectException@@QAE@V?$basic_string@DV?$char_traits@D@_STL@@V?$allocator@D@2@@_STL@@@Z ; ConnectException::ConnectException
  004fa	50		 push	 eax
  004fb	8d 8d e8 fe ff
	ff		 lea	 ecx, DWORD PTR $T105859[ebp]
  00501	c7 45 fc 0e 00
	00 00		 mov	 DWORD PTR __$EHRec$[ebp+8], 14 ; 0000000eH
  00508	e8 00 00 00 00	 call	 ??0ConnectException@@QAE@ABV0@@Z
  0050d	68 00 00 00 00	 push	 OFFSET FLAT:__TI5?AVConnectException@@
  00512	8d 85 e8 fe ff
	ff		 lea	 eax, DWORD PTR $T105859[ebp]
  00518	e9 c8 00 00 00	 jmp	 $L106714

; 687  : 		case WSAECONNRESET : 
; 688  : 			throw ConnectException("The virtual circuit was reset by the remote side executing a 'hard' or 'abortive' close. For UPD sockets, the remote host was unable to deliver a previously sent UDP datagram and responded with a 'Port Unreachable' ICMP packet. The application should close the socket as it is no longer usable.");

$L106603:

; 689  : 		case WSAETIMEDOUT : 
; 690  : 			throw ConnectException("The connection has been dropped, because of a network failure or because the system on the other end went down without notice.");

  0051d	83 ec 0c	 sub	 esp, 12			; 0000000cH
  00520	8b cc		 mov	 ecx, esp
  00522	89 65 ec	 mov	 DWORD PTR $T105876[ebp], esp
  00525	8d 45 f3	 lea	 eax, DWORD PTR $T105877[ebp]
  00528	50		 push	 eax
  00529	68 00 00 00 00	 push	 OFFSET FLAT:??_C@_0HP@NKLLPBNE@The?5connection?5has?5been?5dropped?0@
  0052e	e8 00 00 00 00	 call	 ??0?$basic_string@DV?$char_traits@D@_STL@@V?$allocator@D@2@@_STL@@QAE@PBDABV?$allocator@D@1@@Z ; _STL::basic_string<char,_STL::char_traits<char>,_STL::allocator<char> >::basic_string<char,_STL::char_traits<char>,_STL::allocator<char> >
  00533	8d 8d 80 fd ff
	ff		 lea	 ecx, DWORD PTR $T105875[ebp]
  00539	e8 00 00 00 00	 call	 ??0ConnectException@@QAE@V?$basic_string@DV?$char_traits@D@_STL@@V?$allocator@D@2@@_STL@@@Z ; ConnectException::ConnectException
  0053e	50		 push	 eax
  0053f	8d 8d c0 fe ff
	ff		 lea	 ecx, DWORD PTR $T105874[ebp]
  00545	c7 45 fc 12 00
	00 00		 mov	 DWORD PTR __$EHRec$[ebp+8], 18 ; 00000012H
  0054c	e8 00 00 00 00	 call	 ??0ConnectException@@QAE@ABV0@@Z
  00551	68 00 00 00 00	 push	 OFFSET FLAT:__TI5?AVConnectException@@
  00556	8d 85 c0 fe ff
	ff		 lea	 eax, DWORD PTR $T105874[ebp]
  0055c	e9 84 00 00 00	 jmp	 $L106714

; 673  : 		case WSAEOPNOTSUPP : 
; 674  : 			throw Error("MSG_OOB was specified, but the socket is not stream-style such as type SOCK_STREAM, out-of-band data is not supported in the communication domain associated with this socket, or the socket is unidirectional and supports only receive operations.");

$L106375:

; 675  : 		case WSAESHUTDOWN : 
; 676  : 			throw ConnectException("The socket has been shut down; it is not possible to send on a socket after shutdown has been invoked with how set to SD_SEND or SD_BOTH.");

  00561	83 ec 0c	 sub	 esp, 12			; 0000000cH
  00564	8b cc		 mov	 ecx, esp
  00566	89 65 ec	 mov	 DWORD PTR $T105850[ebp], esp
  00569	8d 45 f3	 lea	 eax, DWORD PTR $T105851[ebp]
  0056c	50		 push	 eax
  0056d	68 00 00 00 00	 push	 OFFSET FLAT:??_C@_0IK@HKLJNMCP@The?5socket?5has?5been?5shut?5down?$DL?5i@
  00572	e8 00 00 00 00	 call	 ??0?$basic_string@DV?$char_traits@D@_STL@@V?$allocator@D@2@@_STL@@QAE@PBDABV?$allocator@D@1@@Z ; _STL::basic_string<char,_STL::char_traits<char>,_STL::allocator<char> >::basic_string<char,_STL::char_traits<char>,_STL::allocator<char> >
  00577	8d 8d 58 fd ff
	ff		 lea	 ecx, DWORD PTR $T105849[ebp]
  0057d	e8 00 00 00 00	 call	 ??0ConnectException@@QAE@V?$basic_string@DV?$char_traits@D@_STL@@V?$allocator@D@2@@_STL@@@Z ; ConnectException::ConnectException
  00582	50		 push	 eax
  00583	8d 8d 98 fe ff
	ff		 lea	 ecx, DWORD PTR $T105848[ebp]
  00589	c7 45 fc 0b 00
	00 00		 mov	 DWORD PTR __$EHRec$[ebp+8], 11 ; 0000000bH
  00590	e8 00 00 00 00	 call	 ??0ConnectException@@QAE@ABV0@@Z
  00595	68 00 00 00 00	 push	 OFFSET FLAT:__TI5?AVConnectException@@
  0059a	8d 85 98 fe ff
	ff		 lea	 eax, DWORD PTR $T105848[ebp]
  005a0	eb 43		 jmp	 SHORT $L106714
$L100109:

; 693  : 		}//end of switch
; 694  : #endif
; 695  : 	} else if ( nSent == 0 )

  005a2	85 c0		 test	 eax, eax
  005a4	75 45		 jne	 SHORT $L100105

; 696  : 		throw ConnectException("connect closed.");

  005a6	83 ec 0c	 sub	 esp, 12			; 0000000cH
  005a9	8b cc		 mov	 ecx, esp
  005ab	89 65 ec	 mov	 DWORD PTR $T105886[ebp], esp
  005ae	8d 45 f3	 lea	 eax, DWORD PTR $T105887[ebp]
  005b1	50		 push	 eax
  005b2	68 00 00 00 00	 push	 OFFSET FLAT:??_C@_0BA@LPDPIADO@connect?5closed?4?$AA@
  005b7	e8 00 00 00 00	 call	 ??0?$basic_string@DV?$char_traits@D@_STL@@V?$allocator@D@2@@_STL@@QAE@PBDABV?$allocator@D@1@@Z ; _STL::basic_string<char,_STL::char_traits<char>,_STL::allocator<char> >::basic_string<char,_STL::char_traits<char>,_STL::allocator<char> >
  005bc	8d 8d 30 fd ff
	ff		 lea	 ecx, DWORD PTR $T105885[ebp]
  005c2	e8 00 00 00 00	 call	 ??0ConnectException@@QAE@V?$basic_string@DV?$char_traits@D@_STL@@V?$allocator@D@2@@_STL@@@Z ; ConnectException::ConnectException
  005c7	50		 push	 eax
  005c8	8d 8d 70 fe ff
	ff		 lea	 ecx, DWORD PTR $T105884[ebp]
  005ce	c7 45 fc 14 00
	00 00		 mov	 DWORD PTR __$EHRec$[ebp+8], 20 ; 00000014H
  005d5	e8 00 00 00 00	 call	 ??0ConnectException@@QAE@ABV0@@Z
  005da	68 00 00 00 00	 push	 OFFSET FLAT:__TI5?AVConnectException@@
  005df	8d 85 70 fe ff
	ff		 lea	 eax, DWORD PTR $T105884[ebp]
$L106714:
  005e5	50		 push	 eax
  005e6	e8 00 00 00 00	 call	 __CxxThrowException@8
$L106716:
$L100105:

; 697  : 
; 698  : 	return nSent;
; 699  : 	
; 700  : 	__END_CATCH
; 701  : }

  005eb	8b 4d f4	 mov	 ecx, DWORD PTR __$EHRec$[ebp]
  005ee	64 89 0d 00 00
	00 00		 mov	 DWORD PTR fs:__except_list, ecx
  005f5	c9		 leave
  005f6	c3		 ret	 0
$L106713:
_TEXT	ENDS
;	COMDAT text$x
text$x	SEGMENT
$L105907:
  00000	8d 4d 8c	 lea	 ecx, DWORD PTR $T105864[ebp]
  00003	e9 00 00 00 00	 jmp	 ??1?$basic_string@DV?$char_traits@D@_STL@@V?$allocator@D@2@@_STL@@QAE@XZ ; _STL::basic_string<char,_STL::char_traits<char>,_STL::allocator<char> >::~basic_string<char,_STL::char_traits<char>,_STL::allocator<char> >
$L105893:
  00008	8d 4d c8	 lea	 ecx, DWORD PTR $T105830[ebp]
  0000b	e9 00 00 00 00	 jmp	 ??1?$basic_string@DV?$char_traits@D@_STL@@V?$allocator@D@2@@_STL@@QAE@XZ ; _STL::basic_string<char,_STL::char_traits<char>,_STL::allocator<char> >::~basic_string<char,_STL::char_traits<char>,_STL::allocator<char> >
$L105890:
  00010	8d 8d 5c ff ff
	ff		 lea	 ecx, DWORD PTR $T105821[ebp]
  00016	e9 00 00 00 00	 jmp	 ??1?$basic_string@DV?$char_traits@D@_STL@@V?$allocator@D@2@@_STL@@QAE@XZ ; _STL::basic_string<char,_STL::char_traits<char>,_STL::allocator<char> >::~basic_string<char,_STL::char_traits<char>,_STL::allocator<char> >
$L105891:
  0001b	8d 4d b0	 lea	 ecx, DWORD PTR $T105824[ebp]
  0001e	e9 00 00 00 00	 jmp	 ??1?$basic_string@DV?$char_traits@D@_STL@@V?$allocator@D@2@@_STL@@QAE@XZ ; _STL::basic_string<char,_STL::char_traits<char>,_STL::allocator<char> >::~basic_string<char,_STL::char_traits<char>,_STL::allocator<char> >
$L105903:
  00023	8d 8d 94 fd ff
	ff		 lea	 ecx, DWORD PTR $T105853[ebp]
  00029	e9 00 00 00 00	 jmp	 ??1NonBlockingIOException@@UAE@XZ
$L105899:
  0002e	8d 8d 74 ff ff
	ff		 lea	 ecx, DWORD PTR $T105846[ebp]
  00034	e9 00 00 00 00	 jmp	 ??1?$basic_string@DV?$char_traits@D@_STL@@V?$allocator@D@2@@_STL@@QAE@XZ ; _STL::basic_string<char,_STL::char_traits<char>,_STL::allocator<char> >::~basic_string<char,_STL::char_traits<char>,_STL::allocator<char> >
$L105904:
  00039	8d 4d e0	 lea	 ecx, DWORD PTR $T105857[ebp]
  0003c	e9 00 00 00 00	 jmp	 ??1?$basic_string@DV?$char_traits@D@_STL@@V?$allocator@D@2@@_STL@@QAE@XZ ; _STL::basic_string<char,_STL::char_traits<char>,_STL::allocator<char> >::~basic_string<char,_STL::char_traits<char>,_STL::allocator<char> >
$L105898:
  00041	8d 4d 98	 lea	 ecx, DWORD PTR $T105843[ebp]
  00044	e9 00 00 00 00	 jmp	 ??1?$basic_string@DV?$char_traits@D@_STL@@V?$allocator@D@2@@_STL@@QAE@XZ ; _STL::basic_string<char,_STL::char_traits<char>,_STL::allocator<char> >::~basic_string<char,_STL::char_traits<char>,_STL::allocator<char> >
$L105892:
  00049	8d 4d d4	 lea	 ecx, DWORD PTR $T105827[ebp]
  0004c	e9 00 00 00 00	 jmp	 ??1?$basic_string@DV?$char_traits@D@_STL@@V?$allocator@D@2@@_STL@@QAE@XZ ; _STL::basic_string<char,_STL::char_traits<char>,_STL::allocator<char> >::~basic_string<char,_STL::char_traits<char>,_STL::allocator<char> >
$L105889:
  00051	8d 4d bc	 lea	 ecx, DWORD PTR $T105818[ebp]
  00054	e9 00 00 00 00	 jmp	 ??1?$basic_string@DV?$char_traits@D@_STL@@V?$allocator@D@2@@_STL@@QAE@XZ ; _STL::basic_string<char,_STL::char_traits<char>,_STL::allocator<char> >::~basic_string<char,_STL::char_traits<char>,_STL::allocator<char> >
$L105896:
  00059	8d 4d a4	 lea	 ecx, DWORD PTR $T105837[ebp]
  0005c	e9 00 00 00 00	 jmp	 ??1?$basic_string@DV?$char_traits@D@_STL@@V?$allocator@D@2@@_STL@@QAE@XZ ; _STL::basic_string<char,_STL::char_traits<char>,_STL::allocator<char> >::~basic_string<char,_STL::char_traits<char>,_STL::allocator<char> >
$L105911:
  00061	8d 8d 08 fd ff
	ff		 lea	 ecx, DWORD PTR $T105871[ebp]
  00067	e9 00 00 00 00	 jmp	 ??1ConnectException@@UAE@XZ
$L105909:
  0006c	8d 8d 6c fd ff
	ff		 lea	 ecx, DWORD PTR $T105867[ebp]
  00072	e9 00 00 00 00	 jmp	 ??1ConnectException@@UAE@XZ
$L105895:
  00077	8d 8d 1c fd ff
	ff		 lea	 ecx, DWORD PTR $T105833[ebp]
  0007d	e9 00 00 00 00	 jmp	 ??1ConnectException@@UAE@XZ
$L105897:
  00082	8d 4d 80	 lea	 ecx, DWORD PTR $T105840[ebp]
  00085	e9 00 00 00 00	 jmp	 ??1?$basic_string@DV?$char_traits@D@_STL@@V?$allocator@D@2@@_STL@@QAE@XZ ; _STL::basic_string<char,_STL::char_traits<char>,_STL::allocator<char> >::~basic_string<char,_STL::char_traits<char>,_STL::allocator<char> >
$L105914:
  0008a	8d 8d 68 ff ff
	ff		 lea	 ecx, DWORD PTR $T105879[ebp]
  00090	e9 00 00 00 00	 jmp	 ??1?$basic_string@DV?$char_traits@D@_STL@@V?$allocator@D@2@@_STL@@QAE@XZ ; _STL::basic_string<char,_STL::char_traits<char>,_STL::allocator<char> >::~basic_string<char,_STL::char_traits<char>,_STL::allocator<char> >
$L105888:
  00095	8d 8d 50 ff ff
	ff		 lea	 ecx, DWORD PTR $T105815[ebp]
  0009b	e9 00 00 00 00	 jmp	 ??1?$basic_string@DV?$char_traits@D@_STL@@V?$allocator@D@2@@_STL@@QAE@XZ ; _STL::basic_string<char,_STL::char_traits<char>,_STL::allocator<char> >::~basic_string<char,_STL::char_traits<char>,_STL::allocator<char> >
$L105906:
  000a0	8d 8d 44 fd ff
	ff		 lea	 ecx, DWORD PTR $T105860[ebp]
  000a6	e9 00 00 00 00	 jmp	 ??1ConnectException@@UAE@XZ
$L105913:
  000ab	8d 8d 80 fd ff
	ff		 lea	 ecx, DWORD PTR $T105875[ebp]
  000b1	e9 00 00 00 00	 jmp	 ??1ConnectException@@UAE@XZ
$L105901:
  000b6	8d 8d 58 fd ff
	ff		 lea	 ecx, DWORD PTR $T105849[ebp]
  000bc	e9 00 00 00 00	 jmp	 ??1ConnectException@@UAE@XZ
$L105916:
  000c1	8d 8d 30 fd ff
	ff		 lea	 ecx, DWORD PTR $T105885[ebp]
  000c7	e9 00 00 00 00	 jmp	 ??1ConnectException@@UAE@XZ
__ehhandler$?send_ex@SocketAPI@@YAIIPBXII@Z:
  000cc	b8 00 00 00 00	 mov	 eax, OFFSET FLAT:$T106711
  000d1	e9 00 00 00 00	 jmp	 ___CxxFrameHandler
text$x	ENDS
?send_ex@SocketAPI@@YAIIPBXII@Z ENDP			; SocketAPI::send_ex
PUBLIC	??_C@_06KDIDAFAE@recv?$CI?$CJ?$AA@		; `string'
PUBLIC	?recv_ex@SocketAPI@@YAIIPAXII@Z			; SocketAPI::recv_ex
PUBLIC	??_C@_0EA@GIDFMNMA@The?5?$CIblocking?$CJ?5call?5was?5canceled@ ; `string'
PUBLIC	??_C@_0HH@KEHKPEMA@The?5connection?5has?5been?5broken?5d@ ; `string'
PUBLIC	??_C@_0PC@GBFNJIKP@MSG_OOB?5was?5specified?0?5but?5the?5s@ ; `string'
PUBLIC	??_C@_0IN@EAFECAFG@The?5socket?5has?5been?5shut?5down?$DL?5i@ ; `string'
PUBLIC	??_C@_0EL@GJOFKNEE@The?5socket?5is?5marked?5as?5nonblock@ ; `string'
PUBLIC	??_C@_0EO@FIIKOGOC@The?5message?5was?5too?5large?5to?5fit@ ; `string'
PUBLIC	??_C@_0MH@CKKEDHBL@The?5socket?5has?5not?5been?5bound?5wi@ ; `string'
PUBLIC	??_C@_0GL@FJKKOBPB@The?5connection?5has?5been?5dropped?5@ ; `string'
PUBLIC	??_C@_0BBO@KAGHOHNO@The?5virtual?5circuit?5was?5reset?5by@ ; `string'
EXTRN	_recv@16:NEAR
;	COMDAT xdata$x
; File c:\stlport-4.6.1\stlport\stl\_alloc.h
xdata$x	SEGMENT
$T107502 DD	0ffffffffH
	DD	FLAT:$L106783
	DD	0ffffffffH
	DD	FLAT:$L106784
	DD	0ffffffffH
	DD	FLAT:$L106785
	DD	0ffffffffH
	DD	FLAT:$L106786
	DD	0ffffffffH
	DD	FLAT:$L106787
	DD	0ffffffffH
	DD	FLAT:$L106788
	DD	0ffffffffH
	DD	FLAT:$L106790
	DD	0ffffffffH
	DD	FLAT:$L106791
	DD	0ffffffffH
	DD	FLAT:$L106792
	DD	0ffffffffH
	DD	FLAT:$L106793
	DD	0ffffffffH
	DD	FLAT:$L106795
	DD	0ffffffffH
	DD	FLAT:$L106796
	DD	0ffffffffH
	DD	FLAT:$L106797
	DD	0ffffffffH
	DD	FLAT:$L106799
	DD	0ffffffffH
	DD	FLAT:$L106801
	DD	0ffffffffH
	DD	FLAT:$L106803
	DD	0ffffffffH
	DD	FLAT:$L106804
	DD	0ffffffffH
	DD	FLAT:$L106806
$T107498 DD	019930520H
	DD	012H
	DD	FLAT:$T107502
	DD	2 DUP(00H)
	DD	2 DUP(00H)
xdata$x	ENDS
;	COMDAT ??_C@_0EL@GJOFKNEE@The?5socket?5is?5marked?5as?5nonblock@
CONST	SEGMENT
??_C@_0EL@GJOFKNEE@The?5socket?5is?5marked?5as?5nonblock@ DB 'The socket '
	DB	'is marked as nonblocking and the receive operation would bloc'
	DB	'k.', 00H					; `string'
CONST	ENDS
;	COMDAT ??_C@_0MH@CKKEDHBL@The?5socket?5has?5not?5been?5bound?5wi@
CONST	SEGMENT
??_C@_0MH@CKKEDHBL@The?5socket?5has?5not?5been?5bound?5wi@ DB 'The socket'
	DB	' has not been bound with bind, or an unknown flag was specifi'
	DB	'ed, or MSG_OOB was specified for a socket with SO_OOBINLINE e'
	DB	'nabled or (for byte stream sockets only) len was zero or nega'
	DB	'tive.', 00H					; `string'
CONST	ENDS
;	COMDAT ??_C@_0EA@GIDFMNMA@The?5?$CIblocking?$CJ?5call?5was?5canceled@
CONST	SEGMENT
??_C@_0EA@GIDFMNMA@The?5?$CIblocking?$CJ?5call?5was?5canceled@ DB 'The (b'
	DB	'locking) call was canceled through WSACancelBlockingCall.', 00H ; `string'
CONST	ENDS
;	COMDAT ??_C@_0PC@GBFNJIKP@MSG_OOB?5was?5specified?0?5but?5the?5s@
CONST	SEGMENT
??_C@_0PC@GBFNJIKP@MSG_OOB?5was?5specified?0?5but?5the?5s@ DB 'MSG_OOB wa'
	DB	's specified, but the socket is not stream-style such as type '
	DB	'SOCK_STREAM, out-of-band data is not supported in the communi'
	DB	'cation domain associated with this socket, or the socket is u'
	DB	'nidirectional and supports only send operations.', 00H ; `string'
CONST	ENDS
;	COMDAT ??_C@_0EO@FIIKOGOC@The?5message?5was?5too?5large?5to?5fit@
CONST	SEGMENT
??_C@_0EO@FIIKOGOC@The?5message?5was?5too?5large?5to?5fit@ DB 'The messag'
	DB	'e was too large to fit into the specified buffer and was trun'
	DB	'cated.', 00H				; `string'
CONST	ENDS
;	COMDAT ??_C@_06KDIDAFAE@recv?$CI?$CJ?$AA@
CONST	SEGMENT
??_C@_06KDIDAFAE@recv?$CI?$CJ?$AA@ DB 'recv()', 00H	; `string'
CONST	ENDS
;	COMDAT ??_C@_0GL@FJKKOBPB@The?5connection?5has?5been?5dropped?5@
CONST	SEGMENT
??_C@_0GL@FJKKOBPB@The?5connection?5has?5been?5dropped?5@ DB 'The connect'
	DB	'ion has been dropped because of a network failure or because '
	DB	'the peer system failed to respond.', 00H	; `string'
CONST	ENDS
;	COMDAT ??_C@_0IN@EAFECAFG@The?5socket?5has?5been?5shut?5down?$DL?5i@
CONST	SEGMENT
??_C@_0IN@EAFECAFG@The?5socket?5has?5been?5shut?5down?$DL?5i@ DB 'The soc'
	DB	'ket has been shut down; it is not possible to recv on a socke'
	DB	't after shutdown has been invoked with how set to SD_RECEIVE '
	DB	'or SD_BOTH.', 00H				; `string'
CONST	ENDS
;	COMDAT ??_C@_0BBO@KAGHOHNO@The?5virtual?5circuit?5was?5reset?5by@
CONST	SEGMENT
??_C@_0BBO@KAGHOHNO@The?5virtual?5circuit?5was?5reset?5by@ DB 'The virtua'
	DB	'l circuit was reset by the remote side executing a ''hard'' o'
	DB	'r ''abortive'' close. The application should close the socket'
	DB	' as it is no longer usable. On a UDP datagram socket this err'
	DB	'or would indicate that a previous send operation resulted in '
	DB	'an ICMP ''Port Unreachable'' message.', 00H	; `string'
CONST	ENDS
;	COMDAT ??_C@_0HH@KEHKPEMA@The?5connection?5has?5been?5broken?5d@
CONST	SEGMENT
??_C@_0HH@KEHKPEMA@The?5connection?5has?5been?5broken?5d@ DB 'The connect'
	DB	'ion has been broken due to the keep-alive activity detecting '
	DB	'a failure while the operation was in progress.', 00H ; `string'
; Function compile flags: /Ogsy
; File c:\darkeden\designed_common\project\client\packet\socketapi.cpp
CONST	ENDS
;	COMDAT ?recv_ex@SocketAPI@@YAIIPAXII@Z
_TEXT	SEGMENT
$T106767 = -648						; size = 20
$T106763 = -628						; size = 20
$T106780 = -608						; size = 20
$T106771 = -588						; size = 20
$T106740 = -568						; size = 20
$T106753 = -548						; size = 20
$T106749 = -528						; size = 20
$T106727 = -508						; size = 20
$T106766 = -488						; size = 20
$T106752 = -468						; size = 20
$T106724 = -448						; size = 20
$T106759 = -428						; size = 20
$T106756 = -408						; size = 20
$T106721 = -388						; size = 20
$T106779 = -368						; size = 20
$T106743 = -348						; size = 20
$T106739 = -328						; size = 20
$T106746 = -308						; size = 20
$T106762 = -288						; size = 20
$T106733 = -268						; size = 20
$T106770 = -248						; size = 20
$T106730 = -228						; size = 20
$T106736 = -208						; size = 20
$T106774 = -188						; size = 24
$T106731 = -164						; size = 12
$T106760 = -152						; size = 12
$T106737 = -140						; size = 12
$T106750 = -128						; size = 12
$T106728 = -116						; size = 12
$T106722 = -104						; size = 12
$T106747 = -92						; size = 12
$T106775 = -80						; size = 12
$T106734 = -68						; size = 12
$T106725 = -56						; size = 12
$T106744 = -44						; size = 12
$T106757 = -32						; size = 12
$T106781 = -20						; size = 4
$T106772 = -20						; size = 4
$T106768 = -20						; size = 4
$T106764 = -20						; size = 4
$T106754 = -20						; size = 4
$T106741 = -20						; size = 4
$T106782 = -13						; size = 1
$T106776 = -13						; size = 1
$T106773 = -13						; size = 1
$T106769 = -13						; size = 1
$T106765 = -13						; size = 1
$T106761 = -13						; size = 1
$T106758 = -13						; size = 1
$T106755 = -13						; size = 1
$T106751 = -13						; size = 1
$T106748 = -13						; size = 1
$T106745 = -13						; size = 1
$T106742 = -13						; size = 1
$T106738 = -13						; size = 1
$T106735 = -13						; size = 1
$T106732 = -13						; size = 1
$T106729 = -13						; size = 1
$T106726 = -13						; size = 1
$T106723 = -13						; size = 1
__$EHRec$ = -12						; size = 12
_s$ = 8							; size = 4
_buf$ = 12						; size = 4
_len$ = 16						; size = 4
_flags$ = 20						; size = 4
?recv_ex@SocketAPI@@YAIIPAXII@Z PROC NEAR		; SocketAPI::recv_ex, COMDAT

; 776  : {

  00000	b8 00 00 00 00	 mov	 eax, __ehhandler$?recv_ex@SocketAPI@@YAIIPAXII@Z
  00005	e8 00 00 00 00	 call	 __EH_prolog
  0000a	81 ec 7c 02 00
	00		 sub	 esp, 636		; 0000027cH

; 777  : 	__BEGIN_TRY
; 778  : 
; 779  : #if __LINUX__
; 780  : 	int nrecv = recv(s,buf,len,flags);
; 781  : #elif __WINDOWS__
; 782  : 	int nrecv = recv(s,(char*)buf,len,flags);

  00010	ff 75 14	 push	 DWORD PTR _flags$[ebp]
  00013	ff 75 10	 push	 DWORD PTR _len$[ebp]
  00016	ff 75 0c	 push	 DWORD PTR _buf$[ebp]
  00019	ff 75 08	 push	 DWORD PTR _s$[ebp]
  0001c	e8 00 00 00 00	 call	 _recv@16

; 783  : #endif
; 784  : 
; 785  : 	if ( nrecv == SOCKET_ERROR ) {

  00021	83 f8 ff	 cmp	 eax, -1
  00024	0f 85 8f 04 00
	00		 jne	 $L100258

; 786  : #if __LINUX__
; 787  : 		switch ( errno ) {
; 788  : 		case EBADF : 
; 789  : 			throw Error("The argument s is an invalid descriptor.");
; 790  : 		case ENOTCONN : 
; 791  : 			throw Error("The socket is associated with a connection-oriented protocol and has not been connected (see connect(2) and accept(2)).");
; 792  : 		case ENOTSOCK : 
; 793  : 			throw Error("The argument s does not refer to a socket.");
; 794  : 		case EWOULDBLOCK : 
; 795  : 			throw NonBlockingIOException("The socket is marked non-blocking, and the receive operation would block, or a receive  timeout  had been set, and the timeout expired before data were received.");
; 796  : 		case EINTR : 
; 797  : 			throw Error("The receive was interrupted by delivery of a signal before any data were available.");
; 798  : 		case EFAULT : 
; 799  : 			throw Error("The receive buffer pointer(s) point outside the process's address space.");
; 800  : 		case ECONNRESET :
; 801  : 			throw ConnectException("connection reset by peer.");
; 802  : 		case EPIPE :
; 803  : 			throw ConnectException("pipe broken. may be peer host has shut down or has been disabled.        .");
; 804  : 		default : 
; 805  : 			throw UnknownError(strerror(errno),errno);
; 806  : 		}//end of switch
; 807  : #elif __WINDOWS__
; 808  : 		switch ( WSAGetLastError() ) {

  0002a	e8 00 00 00 00	 call	 _WSAGetLastError@0
  0002f	b9 42 27 00 00	 mov	 ecx, 10050		; 00002742H
  00034	3b c1		 cmp	 eax, ecx
  00036	0f 8f 55 02 00
	00		 jg	 $L106777
  0003c	0f 84 18 02 00
	00		 je	 $L106848
  00042	83 c1 f2	 add	 ecx, -14		; fffffff2H
  00045	3b c1		 cmp	 eax, ecx
  00047	0f 8f 54 01 00
	00		 jg	 $L106778
  0004d	0f 84 11 01 00
	00		 je	 $L107020
  00053	2d 14 27 00 00	 sub	 eax, 10004		; 00002714H
  00058	0f 84 cf 00 00
	00		 je	 $L106977
  0005e	83 e8 0a	 sub	 eax, 10			; 0000000aH
  00061	0f 84 8f 00 00
	00		 je	 $L106891
  00067	83 e8 08	 sub	 eax, 8
  0006a	74 4d		 je	 SHORT $L107286
  0006c	83 e8 0d	 sub	 eax, 13			; 0000000dH
  0006f	0f 85 4e 02 00
	00		 jne	 $L107419

; 829  : 		case WSAEWOULDBLOCK : 
; 830  : 			throw NonBlockingIOException("The socket is marked as nonblocking and the receive operation would block.");

  00075	83 ec 0c	 sub	 esp, 12			; 0000000cH
  00078	8b cc		 mov	 ecx, esp
  0007a	89 65 ec	 mov	 DWORD PTR $T106754[ebp], esp
  0007d	8d 45 f3	 lea	 eax, DWORD PTR $T106755[ebp]
  00080	50		 push	 eax
  00081	68 00 00 00 00	 push	 OFFSET FLAT:??_C@_0EL@GJOFKNEE@The?5socket?5is?5marked?5as?5nonblock@
  00086	e8 00 00 00 00	 call	 ??0?$basic_string@DV?$char_traits@D@_STL@@V?$allocator@D@2@@_STL@@QAE@PBDABV?$allocator@D@1@@Z ; _STL::basic_string<char,_STL::char_traits<char>,_STL::allocator<char> >::basic_string<char,_STL::char_traits<char>,_STL::allocator<char> >
  0008b	8d 8d dc fd ff
	ff		 lea	 ecx, DWORD PTR $T106753[ebp]
  00091	e8 00 00 00 00	 call	 ??0NonBlockingIOException@@QAE@V?$basic_string@DV?$char_traits@D@_STL@@V?$allocator@D@2@@_STL@@@Z ; NonBlockingIOException::NonBlockingIOException
  00096	50		 push	 eax
  00097	8d 8d 2c fe ff
	ff		 lea	 ecx, DWORD PTR $T106752[ebp]
  0009d	c7 45 fc 0a 00
	00 00		 mov	 DWORD PTR __$EHRec$[ebp+8], 10 ; 0000000aH
  000a4	e8 00 00 00 00	 call	 ??0NonBlockingIOException@@QAE@ABV0@@Z
  000a9	68 00 00 00 00	 push	 OFFSET FLAT:__TI4?AVNonBlockingIOException@@
  000ae	8d 85 2c fe ff
	ff		 lea	 eax, DWORD PTR $T106752[ebp]
  000b4	e9 43 04 00 00	 jmp	 $L107501

; 831  : 		case WSAEMSGSIZE : 
; 832  : 			throw Error("The message was too large to fit into the specified buffer and was truncated.");

$L107286:

; 833  : 		case WSAEINVAL : 
; 834  : 			throw Error("The socket has not been bound with bind, or an unknown flag was specified, or MSG_OOB was specified for a socket with SO_OOBINLINE enabled or (for byte stream sockets only) len was zero or negative.");

  000b9	8d 45 f3	 lea	 eax, DWORD PTR $T106761[ebp]
  000bc	50		 push	 eax
  000bd	68 00 00 00 00	 push	 OFFSET FLAT:??_C@_0MH@CKKEDHBL@The?5socket?5has?5not?5been?5bound?5wi@
  000c2	8d 8d 68 ff ff
	ff		 lea	 ecx, DWORD PTR $T106760[ebp]
  000c8	e8 00 00 00 00	 call	 ??0?$basic_string@DV?$char_traits@D@_STL@@V?$allocator@D@2@@_STL@@QAE@PBDABV?$allocator@D@1@@Z ; _STL::basic_string<char,_STL::char_traits<char>,_STL::allocator<char> >::basic_string<char,_STL::char_traits<char>,_STL::allocator<char> >
  000cd	8d 85 68 ff ff
	ff		 lea	 eax, DWORD PTR $T106760[ebp]
  000d3	50		 push	 eax
  000d4	8d 8d 54 fe ff
	ff		 lea	 ecx, DWORD PTR $T106759[ebp]
  000da	c7 45 fc 0c 00
	00 00		 mov	 DWORD PTR __$EHRec$[ebp+8], 12 ; 0000000cH
  000e1	e8 00 00 00 00	 call	 ??0Error@@QAE@ABV?$basic_string@DV?$char_traits@D@_STL@@V?$allocator@D@2@@_STL@@@Z ; Error::Error
  000e6	68 00 00 00 00	 push	 OFFSET FLAT:__TI2?AVError@@
  000eb	8d 85 54 fe ff
	ff		 lea	 eax, DWORD PTR $T106759[ebp]
  000f1	e9 06 04 00 00	 jmp	 $L107501

; 811  : 		case WSAENETDOWN : 
; 812  : 			throw Error("The network subsystem has failed.");

$L106891:

; 813  : 		case WSAEFAULT : 
; 814  : 			throw Error("The buf parameter is not completely contained in a valid part of the user address space.");

  000f6	8d 45 f3	 lea	 eax, DWORD PTR $T106729[ebp]
  000f9	50		 push	 eax
  000fa	68 00 00 00 00	 push	 OFFSET FLAT:??_C@_0FJ@HDNMPKKL@The?5buf?5parameter?5is?5not?5complet@
  000ff	8d 4d 8c	 lea	 ecx, DWORD PTR $T106728[ebp]
  00102	e8 00 00 00 00	 call	 ??0?$basic_string@DV?$char_traits@D@_STL@@V?$allocator@D@2@@_STL@@QAE@PBDABV?$allocator@D@1@@Z ; _STL::basic_string<char,_STL::char_traits<char>,_STL::allocator<char> >::basic_string<char,_STL::char_traits<char>,_STL::allocator<char> >
  00107	8d 45 8c	 lea	 eax, DWORD PTR $T106728[ebp]
  0010a	50		 push	 eax
  0010b	8d 8d 04 fe ff
	ff		 lea	 ecx, DWORD PTR $T106727[ebp]
  00111	c7 45 fc 02 00
	00 00		 mov	 DWORD PTR __$EHRec$[ebp+8], 2
  00118	e8 00 00 00 00	 call	 ??0Error@@QAE@ABV?$basic_string@DV?$char_traits@D@_STL@@V?$allocator@D@2@@_STL@@@Z ; Error::Error
  0011d	68 00 00 00 00	 push	 OFFSET FLAT:__TI2?AVError@@
  00122	8d 85 04 fe ff
	ff		 lea	 eax, DWORD PTR $T106727[ebp]
  00128	e9 cf 03 00 00	 jmp	 $L107501

; 815  : 		case WSAENOTCONN : 
; 816  : 			throw Error("The socket is not connected.");

$L106977:

; 817  : 		case WSAEINTR : 
; 818  : 			throw Error("The (blocking) call was canceled through WSACancelBlockingCall.");

  0012d	8d 45 f3	 lea	 eax, DWORD PTR $T106735[ebp]
  00130	50		 push	 eax
  00131	68 00 00 00 00	 push	 OFFSET FLAT:??_C@_0EA@GIDFMNMA@The?5?$CIblocking?$CJ?5call?5was?5canceled@
  00136	8d 4d bc	 lea	 ecx, DWORD PTR $T106734[ebp]
  00139	e8 00 00 00 00	 call	 ??0?$basic_string@DV?$char_traits@D@_STL@@V?$allocator@D@2@@_STL@@QAE@PBDABV?$allocator@D@1@@Z ; _STL::basic_string<char,_STL::char_traits<char>,_STL::allocator<char> >::basic_string<char,_STL::char_traits<char>,_STL::allocator<char> >
  0013e	8d 45 bc	 lea	 eax, DWORD PTR $T106734[ebp]
  00141	50		 push	 eax
  00142	8d 8d f4 fe ff
	ff		 lea	 ecx, DWORD PTR $T106733[ebp]
  00148	c7 45 fc 04 00
	00 00		 mov	 DWORD PTR __$EHRec$[ebp+8], 4
  0014f	e8 00 00 00 00	 call	 ??0Error@@QAE@ABV?$basic_string@DV?$char_traits@D@_STL@@V?$allocator@D@2@@_STL@@@Z ; Error::Error
  00154	68 00 00 00 00	 push	 OFFSET FLAT:__TI2?AVError@@
  00159	8d 85 f4 fe ff
	ff		 lea	 eax, DWORD PTR $T106733[ebp]
  0015f	e9 98 03 00 00	 jmp	 $L107501
$L107020:

; 819  : 		case WSAEINPROGRESS : 
; 820  : 			throw Error("A blocking Windows Sockets 1.1 call is in progress, or the service provider is still processing a callback function.");

  00164	8d 45 f3	 lea	 eax, DWORD PTR $T106738[ebp]
  00167	50		 push	 eax
  00168	68 00 00 00 00	 push	 OFFSET FLAT:??_C@_0HF@MHMDKDMH@A?5blocking?5Windows?5Sockets?51?41?5c@
  0016d	8d 8d 74 ff ff
	ff		 lea	 ecx, DWORD PTR $T106737[ebp]
  00173	e8 00 00 00 00	 call	 ??0?$basic_string@DV?$char_traits@D@_STL@@V?$allocator@D@2@@_STL@@QAE@PBDABV?$allocator@D@1@@Z ; _STL::basic_string<char,_STL::char_traits<char>,_STL::allocator<char> >::basic_string<char,_STL::char_traits<char>,_STL::allocator<char> >
  00178	8d 85 74 ff ff
	ff		 lea	 eax, DWORD PTR $T106737[ebp]
  0017e	50		 push	 eax
  0017f	8d 8d 30 ff ff
	ff		 lea	 ecx, DWORD PTR $T106736[ebp]
  00185	c7 45 fc 05 00
	00 00		 mov	 DWORD PTR __$EHRec$[ebp+8], 5
  0018c	e8 00 00 00 00	 call	 ??0Error@@QAE@ABV?$basic_string@DV?$char_traits@D@_STL@@V?$allocator@D@2@@_STL@@@Z ; Error::Error
  00191	68 00 00 00 00	 push	 OFFSET FLAT:__TI2?AVError@@
  00196	8d 85 30 ff ff
	ff		 lea	 eax, DWORD PTR $T106736[ebp]
  0019c	e9 5b 03 00 00	 jmp	 $L107501
$L106778:

; 786  : #if __LINUX__
; 787  : 		switch ( errno ) {
; 788  : 		case EBADF : 
; 789  : 			throw Error("The argument s is an invalid descriptor.");
; 790  : 		case ENOTCONN : 
; 791  : 			throw Error("The socket is associated with a connection-oriented protocol and has not been connected (see connect(2) and accept(2)).");
; 792  : 		case ENOTSOCK : 
; 793  : 			throw Error("The argument s does not refer to a socket.");
; 794  : 		case EWOULDBLOCK : 
; 795  : 			throw NonBlockingIOException("The socket is marked non-blocking, and the receive operation would block, or a receive  timeout  had been set, and the timeout expired before data were received.");
; 796  : 		case EINTR : 
; 797  : 			throw Error("The receive was interrupted by delivery of a signal before any data were available.");
; 798  : 		case EFAULT : 
; 799  : 			throw Error("The receive buffer pointer(s) point outside the process's address space.");
; 800  : 		case ECONNRESET :
; 801  : 			throw ConnectException("connection reset by peer.");
; 802  : 		case EPIPE :
; 803  : 			throw ConnectException("pipe broken. may be peer host has shut down or has been disabled.        .");
; 804  : 		default : 
; 805  : 			throw UnknownError(strerror(errno),errno);
; 806  : 		}//end of switch
; 807  : #elif __WINDOWS__
; 808  : 		switch ( WSAGetLastError() ) {

  001a1	2d 36 27 00 00	 sub	 eax, 10038		; 00002736H
  001a6	74 7b		 je	 SHORT $L107093
  001a8	48		 dec	 eax
  001a9	48		 dec	 eax
  001aa	74 40		 je	 SHORT $L107243
  001ac	83 e8 05	 sub	 eax, 5
  001af	0f 85 0e 01 00
	00		 jne	 $L107419

; 825  : 		case WSAEOPNOTSUPP : 
; 826  : 			throw Error("MSG_OOB was specified, but the socket is not stream-style such as type SOCK_STREAM, out-of-band data is not supported in the communication domain associated with this socket, or the socket is unidirectional and supports only send operations.");

  001b5	8d 45 f3	 lea	 eax, DWORD PTR $T106748[ebp]
  001b8	50		 push	 eax
  001b9	68 00 00 00 00	 push	 OFFSET FLAT:??_C@_0PC@GBFNJIKP@MSG_OOB?5was?5specified?0?5but?5the?5s@
  001be	8d 4d a4	 lea	 ecx, DWORD PTR $T106747[ebp]
  001c1	e8 00 00 00 00	 call	 ??0?$basic_string@DV?$char_traits@D@_STL@@V?$allocator@D@2@@_STL@@QAE@PBDABV?$allocator@D@1@@Z ; _STL::basic_string<char,_STL::char_traits<char>,_STL::allocator<char> >::basic_string<char,_STL::char_traits<char>,_STL::allocator<char> >
  001c6	8d 45 a4	 lea	 eax, DWORD PTR $T106747[ebp]
  001c9	50		 push	 eax
  001ca	8d 8d cc fe ff
	ff		 lea	 ecx, DWORD PTR $T106746[ebp]
  001d0	c7 45 fc 08 00
	00 00		 mov	 DWORD PTR __$EHRec$[ebp+8], 8
  001d7	e8 00 00 00 00	 call	 ??0Error@@QAE@ABV?$basic_string@DV?$char_traits@D@_STL@@V?$allocator@D@2@@_STL@@@Z ; Error::Error
  001dc	68 00 00 00 00	 push	 OFFSET FLAT:__TI2?AVError@@
  001e1	8d 85 cc fe ff
	ff		 lea	 eax, DWORD PTR $T106746[ebp]
  001e7	e9 10 03 00 00	 jmp	 $L107501

; 829  : 		case WSAEWOULDBLOCK : 
; 830  : 			throw NonBlockingIOException("The socket is marked as nonblocking and the receive operation would block.");

$L107243:

; 831  : 		case WSAEMSGSIZE : 
; 832  : 			throw Error("The message was too large to fit into the specified buffer and was truncated.");

  001ec	8d 45 f3	 lea	 eax, DWORD PTR $T106758[ebp]
  001ef	50		 push	 eax
  001f0	68 00 00 00 00	 push	 OFFSET FLAT:??_C@_0EO@FIIKOGOC@The?5message?5was?5too?5large?5to?5fit@
  001f5	8d 4d e0	 lea	 ecx, DWORD PTR $T106757[ebp]
  001f8	e8 00 00 00 00	 call	 ??0?$basic_string@DV?$char_traits@D@_STL@@V?$allocator@D@2@@_STL@@QAE@PBDABV?$allocator@D@1@@Z ; _STL::basic_string<char,_STL::char_traits<char>,_STL::allocator<char> >::basic_string<char,_STL::char_traits<char>,_STL::allocator<char> >
  001fd	8d 45 e0	 lea	 eax, DWORD PTR $T106757[ebp]
  00200	50		 push	 eax
  00201	8d 8d 68 fe ff
	ff		 lea	 ecx, DWORD PTR $T106756[ebp]
  00207	c7 45 fc 0b 00
	00 00		 mov	 DWORD PTR __$EHRec$[ebp+8], 11 ; 0000000bH
  0020e	e8 00 00 00 00	 call	 ??0Error@@QAE@ABV?$basic_string@DV?$char_traits@D@_STL@@V?$allocator@D@2@@_STL@@@Z ; Error::Error
  00213	68 00 00 00 00	 push	 OFFSET FLAT:__TI2?AVError@@
  00218	8d 85 68 fe ff
	ff		 lea	 eax, DWORD PTR $T106756[ebp]
  0021e	e9 d9 02 00 00	 jmp	 $L107501

; 821  : 		case WSAENETRESET : 
; 822  : 			throw ConnectException("The connection has been broken due to the keep-alive activity detecting a failure while the operation was in progress.");

$L107093:

; 823  : 		case WSAENOTSOCK : 
; 824  : 			throw Error("The descriptor is not a socket.");

  00223	8d 45 f3	 lea	 eax, DWORD PTR $T106745[ebp]
  00226	50		 push	 eax
  00227	68 00 00 00 00	 push	 OFFSET FLAT:??_C@_0CA@EGNBMMLP@The?5descriptor?5is?5not?5a?5socket?4?$AA@
  0022c	8d 4d d4	 lea	 ecx, DWORD PTR $T106744[ebp]
  0022f	e8 00 00 00 00	 call	 ??0?$basic_string@DV?$char_traits@D@_STL@@V?$allocator@D@2@@_STL@@QAE@PBDABV?$allocator@D@1@@Z ; _STL::basic_string<char,_STL::char_traits<char>,_STL::allocator<char> >::basic_string<char,_STL::char_traits<char>,_STL::allocator<char> >
  00234	8d 45 d4	 lea	 eax, DWORD PTR $T106744[ebp]
  00237	50		 push	 eax
  00238	8d 8d a4 fe ff
	ff		 lea	 ecx, DWORD PTR $T106743[ebp]
  0023e	c7 45 fc 07 00
	00 00		 mov	 DWORD PTR __$EHRec$[ebp+8], 7
  00245	e8 00 00 00 00	 call	 ??0Error@@QAE@ABV?$basic_string@DV?$char_traits@D@_STL@@V?$allocator@D@2@@_STL@@@Z ; Error::Error
  0024a	68 00 00 00 00	 push	 OFFSET FLAT:__TI2?AVError@@
  0024f	8d 85 a4 fe ff
	ff		 lea	 eax, DWORD PTR $T106743[ebp]
  00255	e9 a2 02 00 00	 jmp	 $L107501

; 809  : 		case WSANOTINITIALISED : 
; 810  : 			throw Error("A successful WSAStartup must occur before using this function.");

$L106848:

; 811  : 		case WSAENETDOWN : 
; 812  : 			throw Error("The network subsystem has failed.");

  0025a	8d 45 f3	 lea	 eax, DWORD PTR $T106726[ebp]
  0025d	50		 push	 eax
  0025e	68 00 00 00 00	 push	 OFFSET FLAT:??_C@_0CC@ECDFBOEN@The?5network?5subsystem?5has?5failed@
  00263	8d 4d c8	 lea	 ecx, DWORD PTR $T106725[ebp]
  00266	e8 00 00 00 00	 call	 ??0?$basic_string@DV?$char_traits@D@_STL@@V?$allocator@D@2@@_STL@@QAE@PBDABV?$allocator@D@1@@Z ; _STL::basic_string<char,_STL::char_traits<char>,_STL::allocator<char> >::basic_string<char,_STL::char_traits<char>,_STL::allocator<char> >
  0026b	8d 45 c8	 lea	 eax, DWORD PTR $T106725[ebp]
  0026e	50		 push	 eax
  0026f	8d 8d 40 fe ff
	ff		 lea	 ecx, DWORD PTR $T106724[ebp]
  00275	c7 45 fc 01 00
	00 00		 mov	 DWORD PTR __$EHRec$[ebp+8], 1
  0027c	e8 00 00 00 00	 call	 ??0Error@@QAE@ABV?$basic_string@DV?$char_traits@D@_STL@@V?$allocator@D@2@@_STL@@@Z ; Error::Error
  00281	68 00 00 00 00	 push	 OFFSET FLAT:__TI2?AVError@@
  00286	8d 85 40 fe ff
	ff		 lea	 eax, DWORD PTR $T106724[ebp]
  0028c	e9 6b 02 00 00	 jmp	 $L107501
$L106777:

; 786  : #if __LINUX__
; 787  : 		switch ( errno ) {
; 788  : 		case EBADF : 
; 789  : 			throw Error("The argument s is an invalid descriptor.");
; 790  : 		case ENOTCONN : 
; 791  : 			throw Error("The socket is associated with a connection-oriented protocol and has not been connected (see connect(2) and accept(2)).");
; 792  : 		case ENOTSOCK : 
; 793  : 			throw Error("The argument s does not refer to a socket.");
; 794  : 		case EWOULDBLOCK : 
; 795  : 			throw NonBlockingIOException("The socket is marked non-blocking, and the receive operation would block, or a receive  timeout  had been set, and the timeout expired before data were received.");
; 796  : 		case EINTR : 
; 797  : 			throw Error("The receive was interrupted by delivery of a signal before any data were available.");
; 798  : 		case EFAULT : 
; 799  : 			throw Error("The receive buffer pointer(s) point outside the process's address space.");
; 800  : 		case ECONNRESET :
; 801  : 			throw ConnectException("connection reset by peer.");
; 802  : 		case EPIPE :
; 803  : 			throw ConnectException("pipe broken. may be peer host has shut down or has been disabled.        .");
; 804  : 		default : 
; 805  : 			throw UnknownError(strerror(errno),errno);
; 806  : 		}//end of switch
; 807  : #elif __WINDOWS__
; 808  : 		switch ( WSAGetLastError() ) {

  00291	2d 44 27 00 00	 sub	 eax, 10052		; 00002744H
  00296	0f 84 dc 01 00
	00		 je	 $L107063
  0029c	48		 dec	 eax
  0029d	0f 84 91 01 00
	00		 je	 $L107329
  002a3	48		 dec	 eax
  002a4	0f 84 46 01 00
	00		 je	 $L107389
  002aa	83 e8 03	 sub	 eax, 3
  002ad	0f 84 00 01 00
	00		 je	 $L106934
  002b3	48		 dec	 eax
  002b4	0f 84 c2 00 00
	00		 je	 $L107179
  002ba	48		 dec	 eax
  002bb	48		 dec	 eax
  002bc	74 7a		 je	 SHORT $L107359
  002be	83 e8 21	 sub	 eax, 33			; 00000021H
  002c1	74 41		 je	 SHORT $L100263

; 839  : 		case WSAECONNRESET : 
; 840  : 			throw ConnectException("The virtual circuit was reset by the remote side executing a 'hard' or 'abortive' close. The application should close the socket as it is no longer usable. On a UDP datagram socket this error would indicate that a previous send operation resulted in an ICMP 'Port Unreachable' message.");

$L107419:

; 841  : 		default :
; 842  : 			throw UnknownError("recv()");

  002c3	8d 45 f3	 lea	 eax, DWORD PTR $T106776[ebp]
  002c6	50		 push	 eax
  002c7	68 00 00 00 00	 push	 OFFSET FLAT:??_C@_06KDIDAFAE@recv?$CI?$CJ?$AA@
  002cc	8d 4d b0	 lea	 ecx, DWORD PTR $T106775[ebp]
  002cf	e8 00 00 00 00	 call	 ??0?$basic_string@DV?$char_traits@D@_STL@@V?$allocator@D@2@@_STL@@QAE@PBDABV?$allocator@D@1@@Z ; _STL::basic_string<char,_STL::char_traits<char>,_STL::allocator<char> >::basic_string<char,_STL::char_traits<char>,_STL::allocator<char> >
  002d4	8d 45 b0	 lea	 eax, DWORD PTR $T106775[ebp]
  002d7	50		 push	 eax
  002d8	8d 8d 44 ff ff
	ff		 lea	 ecx, DWORD PTR $T106774[ebp]
  002de	c7 45 fc 10 00
	00 00		 mov	 DWORD PTR __$EHRec$[ebp+8], 16 ; 00000010H
  002e5	e8 00 00 00 00	 call	 ??0Error@@QAE@ABV?$basic_string@DV?$char_traits@D@_STL@@V?$allocator@D@2@@_STL@@@Z ; Error::Error
  002ea	c7 85 44 ff ff
	ff 00 00 00 00	 mov	 DWORD PTR $T106774[ebp], OFFSET FLAT:??_7UnknownError@@6B@
  002f4	68 00 00 00 00	 push	 OFFSET FLAT:__TI3?AVUnknownError@@
  002f9	8d 85 44 ff ff
	ff		 lea	 eax, DWORD PTR $T106774[ebp]
  002ff	e9 f8 01 00 00	 jmp	 $L107501
$L100263:

; 809  : 		case WSANOTINITIALISED : 
; 810  : 			throw Error("A successful WSAStartup must occur before using this function.");

  00304	8d 45 f3	 lea	 eax, DWORD PTR $T106723[ebp]
  00307	50		 push	 eax
  00308	68 00 00 00 00	 push	 OFFSET FLAT:??_C@_0DP@GBHCAAKN@A?5successful?5WSAStartup?5must?5occ@
  0030d	8d 4d 98	 lea	 ecx, DWORD PTR $T106722[ebp]
  00310	e8 00 00 00 00	 call	 ??0?$basic_string@DV?$char_traits@D@_STL@@V?$allocator@D@2@@_STL@@QAE@PBDABV?$allocator@D@1@@Z ; _STL::basic_string<char,_STL::char_traits<char>,_STL::allocator<char> >::basic_string<char,_STL::char_traits<char>,_STL::allocator<char> >
  00315	83 65 fc 00	 and	 DWORD PTR __$EHRec$[ebp+8], 0
  00319	8d 45 98	 lea	 eax, DWORD PTR $T106722[ebp]
  0031c	50		 push	 eax
  0031d	8d 8d 7c fe ff
	ff		 lea	 ecx, DWORD PTR $T106721[ebp]
  00323	e8 00 00 00 00	 call	 ??0Error@@QAE@ABV?$basic_string@DV?$char_traits@D@_STL@@V?$allocator@D@2@@_STL@@@Z ; Error::Error
  00328	68 00 00 00 00	 push	 OFFSET FLAT:__TI2?AVError@@
  0032d	8d 85 7c fe ff
	ff		 lea	 eax, DWORD PTR $T106721[ebp]
  00333	e9 c4 01 00 00	 jmp	 $L107501

; 835  : 		case WSAECONNABORTED : 
; 836  : 			throw ConnectException("The virtual circuit was terminated due to a time-out or other failure. The application should close the socket as it is no longer usable.");

$L107359:

; 837  : 		case WSAETIMEDOUT : 
; 838  : 			throw ConnectException("The connection has been dropped because of a network failure or because the peer system failed to respond.");

  00338	83 ec 0c	 sub	 esp, 12			; 0000000cH
  0033b	8b cc		 mov	 ecx, esp
  0033d	89 65 ec	 mov	 DWORD PTR $T106768[ebp], esp
  00340	8d 45 f3	 lea	 eax, DWORD PTR $T106769[ebp]
  00343	50		 push	 eax
  00344	68 00 00 00 00	 push	 OFFSET FLAT:??_C@_0GL@FJKKOBPB@The?5connection?5has?5been?5dropped?5@
  00349	e8 00 00 00 00	 call	 ??0?$basic_string@DV?$char_traits@D@_STL@@V?$allocator@D@2@@_STL@@QAE@PBDABV?$allocator@D@1@@Z ; _STL::basic_string<char,_STL::char_traits<char>,_STL::allocator<char> >::basic_string<char,_STL::char_traits<char>,_STL::allocator<char> >
  0034e	8d 8d 78 fd ff
	ff		 lea	 ecx, DWORD PTR $T106767[ebp]
  00354	e8 00 00 00 00	 call	 ??0ConnectException@@QAE@V?$basic_string@DV?$char_traits@D@_STL@@V?$allocator@D@2@@_STL@@@Z ; ConnectException::ConnectException
  00359	50		 push	 eax
  0035a	8d 8d 18 fe ff
	ff		 lea	 ecx, DWORD PTR $T106766[ebp]
  00360	c7 45 fc 0e 00
	00 00		 mov	 DWORD PTR __$EHRec$[ebp+8], 14 ; 0000000eH
  00367	e8 00 00 00 00	 call	 ??0ConnectException@@QAE@ABV0@@Z
  0036c	68 00 00 00 00	 push	 OFFSET FLAT:__TI5?AVConnectException@@
  00371	8d 85 18 fe ff
	ff		 lea	 eax, DWORD PTR $T106766[ebp]
  00377	e9 80 01 00 00	 jmp	 $L107501

; 825  : 		case WSAEOPNOTSUPP : 
; 826  : 			throw Error("MSG_OOB was specified, but the socket is not stream-style such as type SOCK_STREAM, out-of-band data is not supported in the communication domain associated with this socket, or the socket is unidirectional and supports only send operations.");

$L107179:

; 827  : 		case WSAESHUTDOWN : 
; 828  : 			throw Error("The socket has been shut down; it is not possible to recv on a socket after shutdown has been invoked with how set to SD_RECEIVE or SD_BOTH.");

  0037c	8d 45 f3	 lea	 eax, DWORD PTR $T106751[ebp]
  0037f	50		 push	 eax
  00380	68 00 00 00 00	 push	 OFFSET FLAT:??_C@_0IN@EAFECAFG@The?5socket?5has?5been?5shut?5down?$DL?5i@
  00385	8d 4d 80	 lea	 ecx, DWORD PTR $T106750[ebp]
  00388	e8 00 00 00 00	 call	 ??0?$basic_string@DV?$char_traits@D@_STL@@V?$allocator@D@2@@_STL@@QAE@PBDABV?$allocator@D@1@@Z ; _STL::basic_string<char,_STL::char_traits<char>,_STL::allocator<char> >::basic_string<char,_STL::char_traits<char>,_STL::allocator<char> >
  0038d	8d 45 80	 lea	 eax, DWORD PTR $T106750[ebp]
  00390	50		 push	 eax
  00391	8d 8d f0 fd ff
	ff		 lea	 ecx, DWORD PTR $T106749[ebp]
  00397	c7 45 fc 09 00
	00 00		 mov	 DWORD PTR __$EHRec$[ebp+8], 9
  0039e	e8 00 00 00 00	 call	 ??0Error@@QAE@ABV?$basic_string@DV?$char_traits@D@_STL@@V?$allocator@D@2@@_STL@@@Z ; Error::Error
  003a3	68 00 00 00 00	 push	 OFFSET FLAT:__TI2?AVError@@
  003a8	8d 85 f0 fd ff
	ff		 lea	 eax, DWORD PTR $T106749[ebp]
  003ae	e9 49 01 00 00	 jmp	 $L107501

; 813  : 		case WSAEFAULT : 
; 814  : 			throw Error("The buf parameter is not completely contained in a valid part of the user address space.");

$L106934:

; 815  : 		case WSAENOTCONN : 
; 816  : 			throw Error("The socket is not connected.");

  003b3	8d 45 f3	 lea	 eax, DWORD PTR $T106732[ebp]
  003b6	50		 push	 eax
  003b7	68 00 00 00 00	 push	 OFFSET FLAT:??_C@_0BN@LPMAEJNJ@The?5socket?5is?5not?5connected?4?$AA@
  003bc	8d 8d 5c ff ff
	ff		 lea	 ecx, DWORD PTR $T106731[ebp]
  003c2	e8 00 00 00 00	 call	 ??0?$basic_string@DV?$char_traits@D@_STL@@V?$allocator@D@2@@_STL@@QAE@PBDABV?$allocator@D@1@@Z ; _STL::basic_string<char,_STL::char_traits<char>,_STL::allocator<char> >::basic_string<char,_STL::char_traits<char>,_STL::allocator<char> >
  003c7	8d 85 5c ff ff
	ff		 lea	 eax, DWORD PTR $T106731[ebp]
  003cd	50		 push	 eax
  003ce	8d 8d 1c ff ff
	ff		 lea	 ecx, DWORD PTR $T106730[ebp]
  003d4	c7 45 fc 03 00
	00 00		 mov	 DWORD PTR __$EHRec$[ebp+8], 3
  003db	e8 00 00 00 00	 call	 ??0Error@@QAE@ABV?$basic_string@DV?$char_traits@D@_STL@@V?$allocator@D@2@@_STL@@@Z ; Error::Error
  003e0	68 00 00 00 00	 push	 OFFSET FLAT:__TI2?AVError@@
  003e5	8d 85 1c ff ff
	ff		 lea	 eax, DWORD PTR $T106730[ebp]
  003eb	e9 0c 01 00 00	 jmp	 $L107501

; 837  : 		case WSAETIMEDOUT : 
; 838  : 			throw ConnectException("The connection has been dropped because of a network failure or because the peer system failed to respond.");

$L107389:

; 839  : 		case WSAECONNRESET : 
; 840  : 			throw ConnectException("The virtual circuit was reset by the remote side executing a 'hard' or 'abortive' close. The application should close the socket as it is no longer usable. On a UDP datagram socket this error would indicate that a previous send operation resulted in an ICMP 'Port Unreachable' message.");

  003f0	83 ec 0c	 sub	 esp, 12			; 0000000cH
  003f3	8b cc		 mov	 ecx, esp
  003f5	89 65 ec	 mov	 DWORD PTR $T106772[ebp], esp
  003f8	8d 45 f3	 lea	 eax, DWORD PTR $T106773[ebp]
  003fb	50		 push	 eax
  003fc	68 00 00 00 00	 push	 OFFSET FLAT:??_C@_0BBO@KAGHOHNO@The?5virtual?5circuit?5was?5reset?5by@
  00401	e8 00 00 00 00	 call	 ??0?$basic_string@DV?$char_traits@D@_STL@@V?$allocator@D@2@@_STL@@QAE@PBDABV?$allocator@D@1@@Z ; _STL::basic_string<char,_STL::char_traits<char>,_STL::allocator<char> >::basic_string<char,_STL::char_traits<char>,_STL::allocator<char> >
  00406	8d 8d b4 fd ff
	ff		 lea	 ecx, DWORD PTR $T106771[ebp]
  0040c	e8 00 00 00 00	 call	 ??0ConnectException@@QAE@V?$basic_string@DV?$char_traits@D@_STL@@V?$allocator@D@2@@_STL@@@Z ; ConnectException::ConnectException
  00411	50		 push	 eax
  00412	8d 8d 08 ff ff
	ff		 lea	 ecx, DWORD PTR $T106770[ebp]
  00418	c7 45 fc 0f 00
	00 00		 mov	 DWORD PTR __$EHRec$[ebp+8], 15 ; 0000000fH
  0041f	e8 00 00 00 00	 call	 ??0ConnectException@@QAE@ABV0@@Z
  00424	68 00 00 00 00	 push	 OFFSET FLAT:__TI5?AVConnectException@@
  00429	8d 85 08 ff ff
	ff		 lea	 eax, DWORD PTR $T106770[ebp]
  0042f	e9 c8 00 00 00	 jmp	 $L107501

; 833  : 		case WSAEINVAL : 
; 834  : 			throw Error("The socket has not been bound with bind, or an unknown flag was specified, or MSG_OOB was specified for a socket with SO_OOBINLINE enabled or (for byte stream sockets only) len was zero or negative.");

$L107329:

; 835  : 		case WSAECONNABORTED : 
; 836  : 			throw ConnectException("The virtual circuit was terminated due to a time-out or other failure. The application should close the socket as it is no longer usable.");

  00434	83 ec 0c	 sub	 esp, 12			; 0000000cH
  00437	8b cc		 mov	 ecx, esp
  00439	89 65 ec	 mov	 DWORD PTR $T106764[ebp], esp
  0043c	8d 45 f3	 lea	 eax, DWORD PTR $T106765[ebp]
  0043f	50		 push	 eax
  00440	68 00 00 00 00	 push	 OFFSET FLAT:??_C@_0IK@GAHLFOHO@The?5virtual?5circuit?5was?5terminat@
  00445	e8 00 00 00 00	 call	 ??0?$basic_string@DV?$char_traits@D@_STL@@V?$allocator@D@2@@_STL@@QAE@PBDABV?$allocator@D@1@@Z ; _STL::basic_string<char,_STL::char_traits<char>,_STL::allocator<char> >::basic_string<char,_STL::char_traits<char>,_STL::allocator<char> >
  0044a	8d 8d 8c fd ff
	ff		 lea	 ecx, DWORD PTR $T106763[ebp]
  00450	e8 00 00 00 00	 call	 ??0ConnectException@@QAE@V?$basic_string@DV?$char_traits@D@_STL@@V?$allocator@D@2@@_STL@@@Z ; ConnectException::ConnectException
  00455	50		 push	 eax
  00456	8d 8d e0 fe ff
	ff		 lea	 ecx, DWORD PTR $T106762[ebp]
  0045c	c7 45 fc 0d 00
	00 00		 mov	 DWORD PTR __$EHRec$[ebp+8], 13 ; 0000000dH
  00463	e8 00 00 00 00	 call	 ??0ConnectException@@QAE@ABV0@@Z
  00468	68 00 00 00 00	 push	 OFFSET FLAT:__TI5?AVConnectException@@
  0046d	8d 85 e0 fe ff
	ff		 lea	 eax, DWORD PTR $T106762[ebp]
  00473	e9 84 00 00 00	 jmp	 $L107501

; 819  : 		case WSAEINPROGRESS : 
; 820  : 			throw Error("A blocking Windows Sockets 1.1 call is in progress, or the service provider is still processing a callback function.");

$L107063:

; 821  : 		case WSAENETRESET : 
; 822  : 			throw ConnectException("The connection has been broken due to the keep-alive activity detecting a failure while the operation was in progress.");

  00478	83 ec 0c	 sub	 esp, 12			; 0000000cH
  0047b	8b cc		 mov	 ecx, esp
  0047d	89 65 ec	 mov	 DWORD PTR $T106741[ebp], esp
  00480	8d 45 f3	 lea	 eax, DWORD PTR $T106742[ebp]
  00483	50		 push	 eax
  00484	68 00 00 00 00	 push	 OFFSET FLAT:??_C@_0HH@KEHKPEMA@The?5connection?5has?5been?5broken?5d@
  00489	e8 00 00 00 00	 call	 ??0?$basic_string@DV?$char_traits@D@_STL@@V?$allocator@D@2@@_STL@@QAE@PBDABV?$allocator@D@1@@Z ; _STL::basic_string<char,_STL::char_traits<char>,_STL::allocator<char> >::basic_string<char,_STL::char_traits<char>,_STL::allocator<char> >
  0048e	8d 8d c8 fd ff
	ff		 lea	 ecx, DWORD PTR $T106740[ebp]
  00494	e8 00 00 00 00	 call	 ??0ConnectException@@QAE@V?$basic_string@DV?$char_traits@D@_STL@@V?$allocator@D@2@@_STL@@@Z ; ConnectException::ConnectException
  00499	50		 push	 eax
  0049a	8d 8d b8 fe ff
	ff		 lea	 ecx, DWORD PTR $T106739[ebp]
  004a0	c7 45 fc 06 00
	00 00		 mov	 DWORD PTR __$EHRec$[ebp+8], 6
  004a7	e8 00 00 00 00	 call	 ??0ConnectException@@QAE@ABV0@@Z
  004ac	68 00 00 00 00	 push	 OFFSET FLAT:__TI5?AVConnectException@@
  004b1	8d 85 b8 fe ff
	ff		 lea	 eax, DWORD PTR $T106739[ebp]
  004b7	eb 43		 jmp	 SHORT $L107501
$L100258:

; 843  : 		}//end of switch
; 844  : #endif
; 845  : 	} else if ( nrecv == 0 )

  004b9	85 c0		 test	 eax, eax
  004bb	75 45		 jne	 SHORT $L100254

; 846  : 		throw ConnectException("connect closed.");

  004bd	83 ec 0c	 sub	 esp, 12			; 0000000cH
  004c0	8b cc		 mov	 ecx, esp
  004c2	89 65 ec	 mov	 DWORD PTR $T106781[ebp], esp
  004c5	8d 45 f3	 lea	 eax, DWORD PTR $T106782[ebp]
  004c8	50		 push	 eax
  004c9	68 00 00 00 00	 push	 OFFSET FLAT:??_C@_0BA@LPDPIADO@connect?5closed?4?$AA@
  004ce	e8 00 00 00 00	 call	 ??0?$basic_string@DV?$char_traits@D@_STL@@V?$allocator@D@2@@_STL@@QAE@PBDABV?$allocator@D@1@@Z ; _STL::basic_string<char,_STL::char_traits<char>,_STL::allocator<char> >::basic_string<char,_STL::char_traits<char>,_STL::allocator<char> >
  004d3	8d 8d a0 fd ff
	ff		 lea	 ecx, DWORD PTR $T106780[ebp]
  004d9	e8 00 00 00 00	 call	 ??0ConnectException@@QAE@V?$basic_string@DV?$char_traits@D@_STL@@V?$allocator@D@2@@_STL@@@Z ; ConnectException::ConnectException
  004de	50		 push	 eax
  004df	8d 8d 90 fe ff
	ff		 lea	 ecx, DWORD PTR $T106779[ebp]
  004e5	c7 45 fc 11 00
	00 00		 mov	 DWORD PTR __$EHRec$[ebp+8], 17 ; 00000011H
  004ec	e8 00 00 00 00	 call	 ??0ConnectException@@QAE@ABV0@@Z
  004f1	68 00 00 00 00	 push	 OFFSET FLAT:__TI5?AVConnectException@@
  004f6	8d 85 90 fe ff
	ff		 lea	 eax, DWORD PTR $T106779[ebp]
$L107501:
  004fc	50		 push	 eax
  004fd	e8 00 00 00 00	 call	 __CxxThrowException@8
$L107503:
$L100254:

; 847  : 
; 848  : 	return nrecv;
; 849  : 	
; 850  : 	__END_CATCH
; 851  : }

  00502	8b 4d f4	 mov	 ecx, DWORD PTR __$EHRec$[ebp]
  00505	64 89 0d 00 00
	00 00		 mov	 DWORD PTR fs:__except_list, ecx
  0050c	c9		 leave
  0050d	c3		 ret	 0
$L107500:
_TEXT	ENDS
;	COMDAT text$x
text$x	SEGMENT
$L106795:
  00000	8d 8d dc fd ff
	ff		 lea	 ecx, DWORD PTR $T106753[ebp]
  00006	e9 00 00 00 00	 jmp	 ??1NonBlockingIOException@@UAE@XZ
$L106797:
  0000b	8d 8d 68 ff ff
	ff		 lea	 ecx, DWORD PTR $T106760[ebp]
  00011	e9 00 00 00 00	 jmp	 ??1?$basic_string@DV?$char_traits@D@_STL@@V?$allocator@D@2@@_STL@@QAE@XZ ; _STL::basic_string<char,_STL::char_traits<char>,_STL::allocator<char> >::~basic_string<char,_STL::char_traits<char>,_STL::allocator<char> >
$L106785:
  00016	8d 4d 8c	 lea	 ecx, DWORD PTR $T106728[ebp]
  00019	e9 00 00 00 00	 jmp	 ??1?$basic_string@DV?$char_traits@D@_STL@@V?$allocator@D@2@@_STL@@QAE@XZ ; _STL::basic_string<char,_STL::char_traits<char>,_STL::allocator<char> >::~basic_string<char,_STL::char_traits<char>,_STL::allocator<char> >
$L106787:
  0001e	8d 4d bc	 lea	 ecx, DWORD PTR $T106734[ebp]
  00021	e9 00 00 00 00	 jmp	 ??1?$basic_string@DV?$char_traits@D@_STL@@V?$allocator@D@2@@_STL@@QAE@XZ ; _STL::basic_string<char,_STL::char_traits<char>,_STL::allocator<char> >::~basic_string<char,_STL::char_traits<char>,_STL::allocator<char> >
$L106788:
  00026	8d 8d 74 ff ff
	ff		 lea	 ecx, DWORD PTR $T106737[ebp]
  0002c	e9 00 00 00 00	 jmp	 ??1?$basic_string@DV?$char_traits@D@_STL@@V?$allocator@D@2@@_STL@@QAE@XZ ; _STL::basic_string<char,_STL::char_traits<char>,_STL::allocator<char> >::~basic_string<char,_STL::char_traits<char>,_STL::allocator<char> >
$L106792:
  00031	8d 4d a4	 lea	 ecx, DWORD PTR $T106747[ebp]
  00034	e9 00 00 00 00	 jmp	 ??1?$basic_string@DV?$char_traits@D@_STL@@V?$allocator@D@2@@_STL@@QAE@XZ ; _STL::basic_string<char,_STL::char_traits<char>,_STL::allocator<char> >::~basic_string<char,_STL::char_traits<char>,_STL::allocator<char> >
$L106796:
  00039	8d 4d e0	 lea	 ecx, DWORD PTR $T106757[ebp]
  0003c	e9 00 00 00 00	 jmp	 ??1?$basic_string@DV?$char_traits@D@_STL@@V?$allocator@D@2@@_STL@@QAE@XZ ; _STL::basic_string<char,_STL::char_traits<char>,_STL::allocator<char> >::~basic_string<char,_STL::char_traits<char>,_STL::allocator<char> >
$L106791:
  00041	8d 4d d4	 lea	 ecx, DWORD PTR $T106744[ebp]
  00044	e9 00 00 00 00	 jmp	 ??1?$basic_string@DV?$char_traits@D@_STL@@V?$allocator@D@2@@_STL@@QAE@XZ ; _STL::basic_string<char,_STL::char_traits<char>,_STL::allocator<char> >::~basic_string<char,_STL::char_traits<char>,_STL::allocator<char> >
$L106784:
  00049	8d 4d c8	 lea	 ecx, DWORD PTR $T106725[ebp]
  0004c	e9 00 00 00 00	 jmp	 ??1?$basic_string@DV?$char_traits@D@_STL@@V?$allocator@D@2@@_STL@@QAE@XZ ; _STL::basic_string<char,_STL::char_traits<char>,_STL::allocator<char> >::~basic_string<char,_STL::char_traits<char>,_STL::allocator<char> >
$L106804:
  00051	8d 4d b0	 lea	 ecx, DWORD PTR $T106775[ebp]
  00054	e9 00 00 00 00	 jmp	 ??1?$basic_string@DV?$char_traits@D@_STL@@V?$allocator@D@2@@_STL@@QAE@XZ ; _STL::basic_string<char,_STL::char_traits<char>,_STL::allocator<char> >::~basic_string<char,_STL::char_traits<char>,_STL::allocator<char> >
$L106783:
  00059	8d 4d 98	 lea	 ecx, DWORD PTR $T106722[ebp]
  0005c	e9 00 00 00 00	 jmp	 ??1?$basic_string@DV?$char_traits@D@_STL@@V?$allocator@D@2@@_STL@@QAE@XZ ; _STL::basic_string<char,_STL::char_traits<char>,_STL::allocator<char> >::~basic_string<char,_STL::char_traits<char>,_STL::allocator<char> >
$L106801:
  00061	8d 8d 78 fd ff
	ff		 lea	 ecx, DWORD PTR $T106767[ebp]
  00067	e9 00 00 00 00	 jmp	 ??1ConnectException@@UAE@XZ
$L106793:
  0006c	8d 4d 80	 lea	 ecx, DWORD PTR $T106750[ebp]
  0006f	e9 00 00 00 00	 jmp	 ??1?$basic_string@DV?$char_traits@D@_STL@@V?$allocator@D@2@@_STL@@QAE@XZ ; _STL::basic_string<char,_STL::char_traits<char>,_STL::allocator<char> >::~basic_string<char,_STL::char_traits<char>,_STL::allocator<char> >
$L106786:
  00074	8d 8d 5c ff ff
	ff		 lea	 ecx, DWORD PTR $T106731[ebp]
  0007a	e9 00 00 00 00	 jmp	 ??1?$basic_string@DV?$char_traits@D@_STL@@V?$allocator@D@2@@_STL@@QAE@XZ ; _STL::basic_string<char,_STL::char_traits<char>,_STL::allocator<char> >::~basic_string<char,_STL::char_traits<char>,_STL::allocator<char> >
$L106803:
  0007f	8d 8d b4 fd ff
	ff		 lea	 ecx, DWORD PTR $T106771[ebp]
  00085	e9 00 00 00 00	 jmp	 ??1ConnectException@@UAE@XZ
$L106799:
  0008a	8d 8d 8c fd ff
	ff		 lea	 ecx, DWORD PTR $T106763[ebp]
  00090	e9 00 00 00 00	 jmp	 ??1ConnectException@@UAE@XZ
$L106790:
  00095	8d 8d c8 fd ff
	ff		 lea	 ecx, DWORD PTR $T106740[ebp]
  0009b	e9 00 00 00 00	 jmp	 ??1ConnectException@@UAE@XZ
$L106806:
  000a0	8d 8d a0 fd ff
	ff		 lea	 ecx, DWORD PTR $T106780[ebp]
  000a6	e9 00 00 00 00	 jmp	 ??1ConnectException@@UAE@XZ
__ehhandler$?recv_ex@SocketAPI@@YAIIPAXII@Z:
  000ab	b8 00 00 00 00	 mov	 eax, OFFSET FLAT:$T107498
  000b0	e9 00 00 00 00	 jmp	 ___CxxFrameHandler
text$x	ENDS
?recv_ex@SocketAPI@@YAIIPAXII@Z ENDP			; SocketAPI::recv_ex
PUBLIC	__TI4?AVFileNotOpenedException@@
PUBLIC	__CTA4?AVFileNotOpenedException@@
PUBLIC	__CT??_R0?AVFileNotOpenedException@@@8??0FileNotOpenedException@@QAE@ABV0@@Z20
PUBLIC	??_C@_0FG@FLFNGAMC@The?5socket?5is?5marked?5as?5nonblock@ ; `string'
PUBLIC	??_C@_0O@JPGGOEHD@closesocket?$CI?$CJ?$AA@	; `string'
PUBLIC	?closesocket_ex@SocketAPI@@YAXI@Z		; SocketAPI::closesocket_ex
PUBLIC	??_C@_0FD@ELPGMEKP@The?5?$CIblocking?$CJ?5Windows?5Socket?51?4@ ; `string'
EXTRN	_closesocket@4:NEAR
;	COMDAT xdata$x
; File c:\stlport-4.6.1\stlport\stl\_alloc.h
xdata$x	SEGMENT
$T107825 DD	0ffffffffH
	DD	FLAT:$L107530
	DD	0ffffffffH
	DD	FLAT:$L107531
	DD	0ffffffffH
	DD	FLAT:$L107533
	DD	0ffffffffH
	DD	FLAT:$L107534
	DD	0ffffffffH
	DD	FLAT:$L107535
	DD	0ffffffffH
	DD	FLAT:$L107536
	DD	0ffffffffH
	DD	FLAT:$L107537
$T107821 DD	019930520H
	DD	07H
	DD	FLAT:$T107825
	DD	2 DUP(00H)
	DD	2 DUP(00H)
xdata$x	ENDS
;	COMDAT ??_C@_0O@JPGGOEHD@closesocket?$CI?$CJ?$AA@
CONST	SEGMENT
??_C@_0O@JPGGOEHD@closesocket?$CI?$CJ?$AA@ DB 'closesocket()', 00H ; `string'
CONST	ENDS
;	COMDAT __TI4?AVFileNotOpenedException@@
xdata$x	SEGMENT
__TI4?AVFileNotOpenedException@@ DD 00H
	DD	FLAT:??1FileNotOpenedException@@UAE@XZ
	DD	00H
	DD	FLAT:__CTA4?AVFileNotOpenedException@@
xdata$x	ENDS
;	COMDAT ??_C@_0FG@FLFNGAMC@The?5socket?5is?5marked?5as?5nonblock@
CONST	SEGMENT
??_C@_0FG@FLFNGAMC@The?5socket?5is?5marked?5as?5nonblock@ DB 'The socket '
	DB	'is marked as nonblocking and SO_LINGER is set to a nonzero ti'
	DB	'me-out value.', 00H				; `string'
CONST	ENDS
;	COMDAT ??_C@_0FD@ELPGMEKP@The?5?$CIblocking?$CJ?5Windows?5Socket?51?4@
CONST	SEGMENT
??_C@_0FD@ELPGMEKP@The?5?$CIblocking?$CJ?5Windows?5Socket?51?4@ DB 'The ('
	DB	'blocking) Windows Socket 1.1 call was canceled through WSACan'
	DB	'celBlockingCall.', 00H			; `string'
CONST	ENDS
;	COMDAT __CTA4?AVFileNotOpenedException@@
xdata$x	SEGMENT
__CTA4?AVFileNotOpenedException@@ DD 04H
	DD	FLAT:__CT??_R0?AVFileNotOpenedException@@@8??0FileNotOpenedException@@QAE@ABV0@@Z20
	DD	FLAT:__CT??_R0?AVIOException@@@8??0IOException@@QAE@ABV0@@Z20
	DD	FLAT:__CT??_R0?AVException@@@8??0Exception@@QAE@ABV0@@Z20
	DD	FLAT:__CT??_R0?AVThrowable@@@8??0Throwable@@QAE@ABV0@@Z20
xdata$x	ENDS
;	COMDAT __CT??_R0?AVFileNotOpenedException@@@8??0FileNotOpenedException@@QAE@ABV0@@Z20
xdata$x	SEGMENT
__CT??_R0?AVFileNotOpenedException@@@8??0FileNotOpenedException@@QAE@ABV0@@Z20 DD 00H
	DD	FLAT:??_R0?AVFileNotOpenedException@@@8
	DD	00H
	DD	0ffffffffH
	ORG $+4
	DD	014H
	DD	FLAT:??0FileNotOpenedException@@QAE@ABV0@@Z
; Function compile flags: /Ogsy
; File c:\darkeden\designed_common\project\client\packet\socketapi.cpp
xdata$x	ENDS
;	COMDAT ?closesocket_ex@SocketAPI@@YAXI@Z
_TEXT	SEGMENT
$T107515 = -256						; size = 20
$T107514 = -236						; size = 20
$T107508 = -216						; size = 20
$T107518 = -196						; size = 20
$T107521 = -176						; size = 20
$T107524 = -156						; size = 20
$T107511 = -136						; size = 20
$T107527 = -116						; size = 24
$T107509 = -92						; size = 12
$T107528 = -80						; size = 12
$T107512 = -68						; size = 12
$T107525 = -56						; size = 12
$T107519 = -44						; size = 12
$T107522 = -32						; size = 12
$T107516 = -20						; size = 4
$T107529 = -13						; size = 1
$T107526 = -13						; size = 1
$T107523 = -13						; size = 1
$T107520 = -13						; size = 1
$T107517 = -13						; size = 1
$T107513 = -13						; size = 1
__$EHRec$ = -12						; size = 12
_s$ = 8							; size = 4
?closesocket_ex@SocketAPI@@YAXI@Z PROC NEAR		; SocketAPI::closesocket_ex, COMDAT

; 973  : {

  00000	b8 00 00 00 00	 mov	 eax, __ehhandler$?closesocket_ex@SocketAPI@@YAXI@Z
  00005	e8 00 00 00 00	 call	 __EH_prolog
  0000a	81 ec f4 00 00
	00		 sub	 esp, 244		; 000000f4H

; 974  : 	__BEGIN_TRY
; 975  : 
; 976  : #if __LINUX__
; 977  : 	// using close_ex()
; 978  : 	FileAPI::close_ex(s);
; 979  : #elif __WINDOWS__
; 980  : 	if ( closesocket(s) == SOCKET_ERROR ) {

  00010	ff 75 08	 push	 DWORD PTR _s$[ebp]
  00013	e8 00 00 00 00	 call	 _closesocket@4
  00018	83 f8 ff	 cmp	 eax, -1
  0001b	0f 85 b5 01 00
	00		 jne	 $L100385

; 981  : 		switch ( WSAGetLastError() ) {

  00021	e8 00 00 00 00	 call	 _WSAGetLastError@0
  00026	2d 14 27 00 00	 sub	 eax, 10004		; 00002714H
  0002b	0f 84 6d 01 00
	00		 je	 $L107687
  00031	83 e8 1f	 sub	 eax, 31			; 0000001fH
  00034	0f 84 30 01 00
	00		 je	 $L107729
  0003a	48		 dec	 eax
  0003b	0f 84 f5 00 00
	00		 je	 $L107644
  00041	48		 dec	 eax
  00042	48		 dec	 eax
  00043	0f 84 a9 00 00
	00		 je	 $L107623
  00049	83 e8 0c	 sub	 eax, 12			; 0000000cH
  0004c	74 6d		 je	 SHORT $L107580
  0004e	83 e8 2b	 sub	 eax, 43			; 0000002bH

; 994  : 		default : 
; 995  : 			throw UnknownError("closesocket()");

  00051	8d 45 f3	 lea	 eax, DWORD PTR $T107529[ebp]
  00054	50		 push	 eax
  00055	74 34		 je	 SHORT $L100388
  00057	68 00 00 00 00	 push	 OFFSET FLAT:??_C@_0O@JPGGOEHD@closesocket?$CI?$CJ?$AA@
  0005c	8d 4d b0	 lea	 ecx, DWORD PTR $T107528[ebp]
  0005f	e8 00 00 00 00	 call	 ??0?$basic_string@DV?$char_traits@D@_STL@@V?$allocator@D@2@@_STL@@QAE@PBDABV?$allocator@D@1@@Z ; _STL::basic_string<char,_STL::char_traits<char>,_STL::allocator<char> >::basic_string<char,_STL::char_traits<char>,_STL::allocator<char> >
  00064	8d 45 b0	 lea	 eax, DWORD PTR $T107528[ebp]
  00067	50		 push	 eax
  00068	8d 4d 8c	 lea	 ecx, DWORD PTR $T107527[ebp]
  0006b	c7 45 fc 06 00
	00 00		 mov	 DWORD PTR __$EHRec$[ebp+8], 6
  00072	e8 00 00 00 00	 call	 ??0Error@@QAE@ABV?$basic_string@DV?$char_traits@D@_STL@@V?$allocator@D@2@@_STL@@@Z ; Error::Error
  00077	c7 45 8c 00 00
	00 00		 mov	 DWORD PTR $T107527[ebp], OFFSET FLAT:??_7UnknownError@@6B@
  0007e	68 00 00 00 00	 push	 OFFSET FLAT:__TI3?AVUnknownError@@
  00083	8d 45 8c	 lea	 eax, DWORD PTR $T107527[ebp]
  00086	e9 45 01 00 00	 jmp	 $L107824
$L100388:

; 982  : 		case WSANOTINITIALISED : 
; 983  : 			throw Error("A successful WSAStartup must occur before using this function.");

  0008b	68 00 00 00 00	 push	 OFFSET FLAT:??_C@_0DP@GBHCAAKN@A?5successful?5WSAStartup?5must?5occ@
  00090	8d 4d a4	 lea	 ecx, DWORD PTR $T107509[ebp]
  00093	e8 00 00 00 00	 call	 ??0?$basic_string@DV?$char_traits@D@_STL@@V?$allocator@D@2@@_STL@@QAE@PBDABV?$allocator@D@1@@Z ; _STL::basic_string<char,_STL::char_traits<char>,_STL::allocator<char> >::basic_string<char,_STL::char_traits<char>,_STL::allocator<char> >
  00098	83 65 fc 00	 and	 DWORD PTR __$EHRec$[ebp+8], 0
  0009c	8d 45 a4	 lea	 eax, DWORD PTR $T107509[ebp]
  0009f	50		 push	 eax
  000a0	8d 8d 28 ff ff
	ff		 lea	 ecx, DWORD PTR $T107508[ebp]
  000a6	e8 00 00 00 00	 call	 ??0Error@@QAE@ABV?$basic_string@DV?$char_traits@D@_STL@@V?$allocator@D@2@@_STL@@@Z ; Error::Error
  000ab	68 00 00 00 00	 push	 OFFSET FLAT:__TI2?AVError@@
  000b0	8d 85 28 ff ff
	ff		 lea	 eax, DWORD PTR $T107508[ebp]
  000b6	e9 15 01 00 00	 jmp	 $L107824
$L107580:

; 984  : 		case WSAENETDOWN : 
; 985  : 			throw Error("The network subsystem has failed.");

  000bb	8d 45 f3	 lea	 eax, DWORD PTR $T107513[ebp]
  000be	50		 push	 eax
  000bf	68 00 00 00 00	 push	 OFFSET FLAT:??_C@_0CC@ECDFBOEN@The?5network?5subsystem?5has?5failed@
  000c4	8d 4d bc	 lea	 ecx, DWORD PTR $T107512[ebp]
  000c7	e8 00 00 00 00	 call	 ??0?$basic_string@DV?$char_traits@D@_STL@@V?$allocator@D@2@@_STL@@QAE@PBDABV?$allocator@D@1@@Z ; _STL::basic_string<char,_STL::char_traits<char>,_STL::allocator<char> >::basic_string<char,_STL::char_traits<char>,_STL::allocator<char> >
  000cc	8d 45 bc	 lea	 eax, DWORD PTR $T107512[ebp]
  000cf	50		 push	 eax
  000d0	8d 8d 78 ff ff
	ff		 lea	 ecx, DWORD PTR $T107511[ebp]
  000d6	c7 45 fc 01 00
	00 00		 mov	 DWORD PTR __$EHRec$[ebp+8], 1
  000dd	e8 00 00 00 00	 call	 ??0Error@@QAE@ABV?$basic_string@DV?$char_traits@D@_STL@@V?$allocator@D@2@@_STL@@@Z ; Error::Error
  000e2	68 00 00 00 00	 push	 OFFSET FLAT:__TI2?AVError@@
  000e7	8d 85 78 ff ff
	ff		 lea	 eax, DWORD PTR $T107511[ebp]
  000ed	e9 de 00 00 00	 jmp	 $L107824
$L107623:

; 986  : 		case WSAENOTSOCK : 
; 987  : 			throw FileNotOpenedException("The descriptor is not a socket.");

  000f2	83 ec 0c	 sub	 esp, 12			; 0000000cH
  000f5	8b cc		 mov	 ecx, esp
  000f7	89 65 ec	 mov	 DWORD PTR $T107516[ebp], esp
  000fa	8d 45 f3	 lea	 eax, DWORD PTR $T107517[ebp]
  000fd	50		 push	 eax
  000fe	68 00 00 00 00	 push	 OFFSET FLAT:??_C@_0CA@EGNBMMLP@The?5descriptor?5is?5not?5a?5socket?4?$AA@
  00103	e8 00 00 00 00	 call	 ??0?$basic_string@DV?$char_traits@D@_STL@@V?$allocator@D@2@@_STL@@QAE@PBDABV?$allocator@D@1@@Z ; _STL::basic_string<char,_STL::char_traits<char>,_STL::allocator<char> >::basic_string<char,_STL::char_traits<char>,_STL::allocator<char> >
  00108	8d 8d 00 ff ff
	ff		 lea	 ecx, DWORD PTR $T107515[ebp]
  0010e	e8 00 00 00 00	 call	 ??0FileNotOpenedException@@QAE@V?$basic_string@DV?$char_traits@D@_STL@@V?$allocator@D@2@@_STL@@@Z ; FileNotOpenedException::FileNotOpenedException
  00113	50		 push	 eax
  00114	8d 8d 14 ff ff
	ff		 lea	 ecx, DWORD PTR $T107514[ebp]
  0011a	c7 45 fc 02 00
	00 00		 mov	 DWORD PTR __$EHRec$[ebp+8], 2
  00121	e8 00 00 00 00	 call	 ??0FileNotOpenedException@@QAE@ABV0@@Z
  00126	68 00 00 00 00	 push	 OFFSET FLAT:__TI4?AVFileNotOpenedException@@
  0012b	8d 85 14 ff ff
	ff		 lea	 eax, DWORD PTR $T107514[ebp]
  00131	e9 9a 00 00 00	 jmp	 $L107824
$L107644:

; 988  : 		case WSAEINPROGRESS : 
; 989  : 			throw Error("A blocking Windows Sockets 1.1 call is in progress, or the service provider is still processing a callback function.");

  00136	8d 45 f3	 lea	 eax, DWORD PTR $T107520[ebp]
  00139	50		 push	 eax
  0013a	68 00 00 00 00	 push	 OFFSET FLAT:??_C@_0HF@MHMDKDMH@A?5blocking?5Windows?5Sockets?51?41?5c@
  0013f	8d 4d d4	 lea	 ecx, DWORD PTR $T107519[ebp]
  00142	e8 00 00 00 00	 call	 ??0?$basic_string@DV?$char_traits@D@_STL@@V?$allocator@D@2@@_STL@@QAE@PBDABV?$allocator@D@1@@Z ; _STL::basic_string<char,_STL::char_traits<char>,_STL::allocator<char> >::basic_string<char,_STL::char_traits<char>,_STL::allocator<char> >
  00147	8d 45 d4	 lea	 eax, DWORD PTR $T107519[ebp]
  0014a	50		 push	 eax
  0014b	8d 8d 3c ff ff
	ff		 lea	 ecx, DWORD PTR $T107518[ebp]
  00151	c7 45 fc 03 00
	00 00		 mov	 DWORD PTR __$EHRec$[ebp+8], 3
  00158	e8 00 00 00 00	 call	 ??0Error@@QAE@ABV?$basic_string@DV?$char_traits@D@_STL@@V?$allocator@D@2@@_STL@@@Z ; Error::Error
  0015d	68 00 00 00 00	 push	 OFFSET FLAT:__TI2?AVError@@
  00162	8d 85 3c ff ff
	ff		 lea	 eax, DWORD PTR $T107518[ebp]
  00168	eb 66		 jmp	 SHORT $L107824

; 990  : 		case WSAEINTR : 
; 991  : 			throw Error("The (blocking) Windows Socket 1.1 call was canceled through WSACancelBlockingCall.");

$L107729:

; 992  : 		case WSAEWOULDBLOCK : 
; 993  : 			throw Error("The socket is marked as nonblocking and SO_LINGER is set to a nonzero time-out value.");

  0016a	8d 45 f3	 lea	 eax, DWORD PTR $T107526[ebp]
  0016d	50		 push	 eax
  0016e	68 00 00 00 00	 push	 OFFSET FLAT:??_C@_0FG@FLFNGAMC@The?5socket?5is?5marked?5as?5nonblock@
  00173	8d 4d c8	 lea	 ecx, DWORD PTR $T107525[ebp]
  00176	e8 00 00 00 00	 call	 ??0?$basic_string@DV?$char_traits@D@_STL@@V?$allocator@D@2@@_STL@@QAE@PBDABV?$allocator@D@1@@Z ; _STL::basic_string<char,_STL::char_traits<char>,_STL::allocator<char> >::basic_string<char,_STL::char_traits<char>,_STL::allocator<char> >
  0017b	8d 45 c8	 lea	 eax, DWORD PTR $T107525[ebp]
  0017e	50		 push	 eax
  0017f	8d 8d 64 ff ff
	ff		 lea	 ecx, DWORD PTR $T107524[ebp]
  00185	c7 45 fc 05 00
	00 00		 mov	 DWORD PTR __$EHRec$[ebp+8], 5
  0018c	e8 00 00 00 00	 call	 ??0Error@@QAE@ABV?$basic_string@DV?$char_traits@D@_STL@@V?$allocator@D@2@@_STL@@@Z ; Error::Error
  00191	68 00 00 00 00	 push	 OFFSET FLAT:__TI2?AVError@@
  00196	8d 85 64 ff ff
	ff		 lea	 eax, DWORD PTR $T107524[ebp]
  0019c	eb 32		 jmp	 SHORT $L107824

; 988  : 		case WSAEINPROGRESS : 
; 989  : 			throw Error("A blocking Windows Sockets 1.1 call is in progress, or the service provider is still processing a callback function.");

$L107687:

; 990  : 		case WSAEINTR : 
; 991  : 			throw Error("The (blocking) Windows Socket 1.1 call was canceled through WSACancelBlockingCall.");

  0019e	8d 45 f3	 lea	 eax, DWORD PTR $T107523[ebp]
  001a1	50		 push	 eax
  001a2	68 00 00 00 00	 push	 OFFSET FLAT:??_C@_0FD@ELPGMEKP@The?5?$CIblocking?$CJ?5Windows?5Socket?51?4@
  001a7	8d 4d e0	 lea	 ecx, DWORD PTR $T107522[ebp]
  001aa	e8 00 00 00 00	 call	 ??0?$basic_string@DV?$char_traits@D@_STL@@V?$allocator@D@2@@_STL@@QAE@PBDABV?$allocator@D@1@@Z ; _STL::basic_string<char,_STL::char_traits<char>,_STL::allocator<char> >::basic_string<char,_STL::char_traits<char>,_STL::allocator<char> >
  001af	8d 45 e0	 lea	 eax, DWORD PTR $T107522[ebp]
  001b2	50		 push	 eax
  001b3	8d 8d 50 ff ff
	ff		 lea	 ecx, DWORD PTR $T107521[ebp]
  001b9	c7 45 fc 04 00
	00 00		 mov	 DWORD PTR __$EHRec$[ebp+8], 4
  001c0	e8 00 00 00 00	 call	 ??0Error@@QAE@ABV?$basic_string@DV?$char_traits@D@_STL@@V?$allocator@D@2@@_STL@@@Z ; Error::Error
  001c5	68 00 00 00 00	 push	 OFFSET FLAT:__TI2?AVError@@
  001ca	8d 85 50 ff ff
	ff		 lea	 eax, DWORD PTR $T107521[ebp]
$L107824:
  001d0	50		 push	 eax
  001d1	e8 00 00 00 00	 call	 __CxxThrowException@8
$L107826:
$L100385:

; 996  : 		}//end of switch
; 997  : 	}
; 998  : #endif
; 999  : 	
; 1000 : 	__END_CATCH
; 1001 : }

  001d6	8b 4d f4	 mov	 ecx, DWORD PTR __$EHRec$[ebp]
  001d9	64 89 0d 00 00
	00 00		 mov	 DWORD PTR fs:__except_list, ecx
  001e0	c9		 leave
  001e1	c3		 ret	 0
$L107823:
_TEXT	ENDS
;	COMDAT text$x
text$x	SEGMENT
$L107537:
  00000	8d 4d b0	 lea	 ecx, DWORD PTR $T107528[ebp]
  00003	e9 00 00 00 00	 jmp	 ??1?$basic_string@DV?$char_traits@D@_STL@@V?$allocator@D@2@@_STL@@QAE@XZ ; _STL::basic_string<char,_STL::char_traits<char>,_STL::allocator<char> >::~basic_string<char,_STL::char_traits<char>,_STL::allocator<char> >
$L107530:
  00008	8d 4d a4	 lea	 ecx, DWORD PTR $T107509[ebp]
  0000b	e9 00 00 00 00	 jmp	 ??1?$basic_string@DV?$char_traits@D@_STL@@V?$allocator@D@2@@_STL@@QAE@XZ ; _STL::basic_string<char,_STL::char_traits<char>,_STL::allocator<char> >::~basic_string<char,_STL::char_traits<char>,_STL::allocator<char> >
$L107531:
  00010	8d 4d bc	 lea	 ecx, DWORD PTR $T107512[ebp]
  00013	e9 00 00 00 00	 jmp	 ??1?$basic_string@DV?$char_traits@D@_STL@@V?$allocator@D@2@@_STL@@QAE@XZ ; _STL::basic_string<char,_STL::char_traits<char>,_STL::allocator<char> >::~basic_string<char,_STL::char_traits<char>,_STL::allocator<char> >
$L107533:
  00018	8d 8d 00 ff ff
	ff		 lea	 ecx, DWORD PTR $T107515[ebp]
  0001e	e9 00 00 00 00	 jmp	 ??1FileNotOpenedException@@UAE@XZ
$L107534:
  00023	8d 4d d4	 lea	 ecx, DWORD PTR $T107519[ebp]
  00026	e9 00 00 00 00	 jmp	 ??1?$basic_string@DV?$char_traits@D@_STL@@V?$allocator@D@2@@_STL@@QAE@XZ ; _STL::basic_string<char,_STL::char_traits<char>,_STL::allocator<char> >::~basic_string<char,_STL::char_traits<char>,_STL::allocator<char> >
$L107536:
  0002b	8d 4d c8	 lea	 ecx, DWORD PTR $T107525[ebp]
  0002e	e9 00 00 00 00	 jmp	 ??1?$basic_string@DV?$char_traits@D@_STL@@V?$allocator@D@2@@_STL@@QAE@XZ ; _STL::basic_string<char,_STL::char_traits<char>,_STL::allocator<char> >::~basic_string<char,_STL::char_traits<char>,_STL::allocator<char> >
$L107535:
  00033	8d 4d e0	 lea	 ecx, DWORD PTR $T107522[ebp]
  00036	e9 00 00 00 00	 jmp	 ??1?$basic_string@DV?$char_traits@D@_STL@@V?$allocator@D@2@@_STL@@QAE@XZ ; _STL::basic_string<char,_STL::char_traits<char>,_STL::allocator<char> >::~basic_string<char,_STL::char_traits<char>,_STL::allocator<char> >
__ehhandler$?closesocket_ex@SocketAPI@@YAXI@Z:
  0003b	b8 00 00 00 00	 mov	 eax, OFFSET FLAT:$T107821
  00040	e9 00 00 00 00	 jmp	 ___CxxFrameHandler
text$x	ENDS
?closesocket_ex@SocketAPI@@YAXI@Z ENDP			; SocketAPI::closesocket_ex
PUBLIC	??0BindException@@QAE@ABV0@@Z			; BindException::BindException
; Function compile flags: /Ogsy
;	COMDAT ??0BindException@@QAE@ABV0@@Z
_TEXT	SEGMENT
___that$ = 8						; size = 4
??0BindException@@QAE@ABV0@@Z PROC NEAR			; BindException::BindException, COMDAT
; _this$ = ecx
  00000	56		 push	 esi
  00001	ff 74 24 08	 push	 DWORD PTR ___that$[esp]
  00005	8b f1		 mov	 esi, ecx
  00007	e8 00 00 00 00	 call	 ??0SocketException@@QAE@ABV0@@Z
  0000c	c7 06 00 00 00
	00		 mov	 DWORD PTR [esi], OFFSET FLAT:??_7BindException@@6B@
  00012	8b c6		 mov	 eax, esi
  00014	5e		 pop	 esi
  00015	c2 04 00	 ret	 4
??0BindException@@QAE@ABV0@@Z ENDP			; BindException::BindException
_TEXT	ENDS
PUBLIC	?connect_ex@SocketAPI@@YAXIPBUsockaddr@@I@Z	; SocketAPI::connect_ex
PUBLIC	??_C@_0BGB@KCBKDGKJ@The?5socket?8s?5local?5address?5is?5al@ ; `string'
PUBLIC	??_C@_0ON@ECCLKFL@A?5nonblocking?5connect?5call?5is?5in@ ; `string'
PUBLIC	??_C@_0DO@JIMMDM@The?5remote?5address?5is?5not?5a?5vali@ ; `string'
PUBLIC	??_C@_0ED@MFEPMPNB@Addresses?5in?5the?5specified?5famil@ ; `string'
PUBLIC	??_C@_0DA@GOHODKIG@The?5attempt?5to?5connect?5was?5force@ ; `string'
PUBLIC	??_C@_0NA@FODJMBGJ@The?5name?5or?5the?5namelen?5paramete@ ; `string'
PUBLIC	??_C@_0JI@LPPNBOAP@The?5parameter?5s?5is?5a?5listening?5s@ ; `string'
PUBLIC	??_C@_0EE@KOFAJNHE@The?5socket?5is?5already?5connected?5@ ; `string'
PUBLIC	??_C@_0DL@GIJDBKPC@The?5network?5cannot?5be?5reached?5fr@ ; `string'
PUBLIC	??_C@_0DO@ENGDAACK@No?5buffer?5space?5is?5available?4?5Th@ ; `string'
PUBLIC	??_C@_0EA@GABJIBBJ@Attempt?5to?5connect?5timed?5out?5wit@ ; `string'
PUBLIC	??_C@_0P@BLDHJENA@WSAEWOULDBLOCK?$AA@		; `string'
PUBLIC	??_C@_09KLHJMPLC@connect?$CI?$CJ?$AA@		; `string'
EXTRN	_connect@12:NEAR
;	COMDAT xdata$x
; File c:\stlport-4.6.1\stlport\stl\_alloc.h
xdata$x	SEGMENT
$T108626 DD	0ffffffffH
	DD	FLAT:$L107898
	DD	0ffffffffH
	DD	FLAT:$L107899
	DD	0ffffffffH
	DD	FLAT:$L107900
	DD	0ffffffffH
	DD	FLAT:$L107901
	DD	0ffffffffH
	DD	FLAT:$L107902
	DD	0ffffffffH
	DD	FLAT:$L107903
	DD	0ffffffffH
	DD	FLAT:$L107905
	DD	0ffffffffH
	DD	FLAT:$L107906
	DD	0ffffffffH
	DD	FLAT:$L107908
	DD	0ffffffffH
	DD	FLAT:$L107909
	DD	0ffffffffH
	DD	FLAT:$L107910
	DD	0ffffffffH
	DD	FLAT:$L107912
	DD	0ffffffffH
	DD	FLAT:$L107914
	DD	0ffffffffH
	DD	FLAT:$L107915
	DD	0ffffffffH
	DD	FLAT:$L107916
	DD	0ffffffffH
	DD	FLAT:$L107918
	DD	0ffffffffH
	DD	FLAT:$L107920
	DD	0ffffffffH
	DD	FLAT:$L107921
$T108622 DD	019930520H
	DD	012H
	DD	FLAT:$T108626
	DD	2 DUP(00H)
	DD	2 DUP(00H)
xdata$x	ENDS
;	COMDAT ??_C@_0P@BLDHJENA@WSAEWOULDBLOCK?$AA@
CONST	SEGMENT
??_C@_0P@BLDHJENA@WSAEWOULDBLOCK?$AA@ DB 'WSAEWOULDBLOCK', 00H ; `string'
CONST	ENDS
;	COMDAT ??_C@_0JI@LPPNBOAP@The?5parameter?5s?5is?5a?5listening?5s@
CONST	SEGMENT
??_C@_0JI@LPPNBOAP@The?5parameter?5s?5is?5a?5listening?5s@ DB 'The parame'
	DB	'ter s is a listening socket, or the destination address speci'
	DB	'fied is not consistent with that of the constrained group the'
	DB	' socket belongs to.', 00H			; `string'
CONST	ENDS
;	COMDAT ??_C@_0NA@FODJMBGJ@The?5name?5or?5the?5namelen?5paramete@
CONST	SEGMENT
??_C@_0NA@FODJMBGJ@The?5name?5or?5the?5namelen?5paramete@ DB 'The name or'
	DB	' the namelen parameter is not a valid part of the user addres'
	DB	's space, the namelen parameter is too small, or the name para'
	DB	'meter contains incorrect address format for the associated ad'
	DB	'dress family.', 00H				; `string'
CONST	ENDS
;	COMDAT ??_C@_0ED@MFEPMPNB@Addresses?5in?5the?5specified?5famil@
CONST	SEGMENT
??_C@_0ED@MFEPMPNB@Addresses?5in?5the?5specified?5famil@ DB 'Addresses in'
	DB	' the specified family cannot be used with this socket.', 00H ; `string'
CONST	ENDS
;	COMDAT ??_C@_0ON@ECCLKFL@A?5nonblocking?5connect?5call?5is?5in@
CONST	SEGMENT
??_C@_0ON@ECCLKFL@A?5nonblocking?5connect?5call?5is?5in@ DB 'A nonblockin'
	DB	'g connect call is in progress on the specified socket. Note I'
	DB	'n order to preserve backward compatibility, this error is rep'
	DB	'orted as WSAEINVAL to Windows Sockets 1.1 applications that l'
	DB	'ink to either WINSOCK.DLL or WSOCK32.DLL.', 00H ; `string'
CONST	ENDS
;	COMDAT ??_C@_0BGB@KCBKDGKJ@The?5socket?8s?5local?5address?5is?5al@
CONST	SEGMENT
??_C@_0BGB@KCBKDGKJ@The?5socket?8s?5local?5address?5is?5al@ DB 'The socke'
	DB	't''s local address is already in use and the socket was not m'
	DB	'arked to allow address reuse with SO_REUSEADDR. This error us'
	DB	'ually occurs when executing bind, but could be delayed until '
	DB	'this function if the bind was to a partially wild-card addres'
	DB	's (involving ADDR_ANY) and if a specific address needs to be '
	DB	'committed at the time of this function.', 00H ; `string'
CONST	ENDS
;	COMDAT ??_C@_0DO@ENGDAACK@No?5buffer?5space?5is?5available?4?5Th@
CONST	SEGMENT
??_C@_0DO@ENGDAACK@No?5buffer?5space?5is?5available?4?5Th@ DB 'No buffer '
	DB	'space is available. The socket cannot be connected.', 00H ; `string'
CONST	ENDS
;	COMDAT ??_C@_0DL@GIJDBKPC@The?5network?5cannot?5be?5reached?5fr@
CONST	SEGMENT
??_C@_0DL@GIJDBKPC@The?5network?5cannot?5be?5reached?5fr@ DB 'The network'
	DB	' cannot be reached from this host at this time.', 00H ; `string'
CONST	ENDS
;	COMDAT ??_C@_0DO@JIMMDM@The?5remote?5address?5is?5not?5a?5vali@
CONST	SEGMENT
??_C@_0DO@JIMMDM@The?5remote?5address?5is?5not?5a?5vali@ DB 'The remote a'
	DB	'ddress is not a valid address (such as ADDR_ANY).', 00H ; `string'
CONST	ENDS
;	COMDAT ??_C@_0EE@KOFAJNHE@The?5socket?5is?5already?5connected?5@
CONST	SEGMENT
??_C@_0EE@KOFAJNHE@The?5socket?5is?5already?5connected?5@ DB 'The socket '
	DB	'is already connected (connection-oriented sockets only).', 00H ; `string'
CONST	ENDS
;	COMDAT ??_C@_09KLHJMPLC@connect?$CI?$CJ?$AA@
CONST	SEGMENT
??_C@_09KLHJMPLC@connect?$CI?$CJ?$AA@ DB 'connect()', 00H ; `string'
CONST	ENDS
;	COMDAT ??_C@_0DA@GOHODKIG@The?5attempt?5to?5connect?5was?5force@
CONST	SEGMENT
??_C@_0DA@GOHODKIG@The?5attempt?5to?5connect?5was?5force@ DB 'The attempt'
	DB	' to connect was forcefully rejected.', 00H	; `string'
CONST	ENDS
;	COMDAT ??_C@_0EA@GABJIBBJ@Attempt?5to?5connect?5timed?5out?5wit@
CONST	SEGMENT
??_C@_0EA@GABJIBBJ@Attempt?5to?5connect?5timed?5out?5wit@ DB 'Attempt to '
	DB	'connect timed out without establishing a connection.', 00H ; `string'
; Function compile flags: /Ogsy
; File c:\darkeden\designed_common\project\client\packet\socketapi.cpp
CONST	ENDS
;	COMDAT ?connect_ex@SocketAPI@@YAXIPBUsockaddr@@I@Z
_TEXT	SEGMENT
$T107875 = -648						; size = 20
$T107871 = -628						; size = 20
$T107885 = -608						; size = 20
$T107854 = -588						; size = 20
$T107861 = -568						; size = 20
$T107889 = -548						; size = 20
$T107838 = -528						; size = 20
$T107864 = -508						; size = 20
$T107874 = -488						; size = 20
$T107888 = -468						; size = 20
$T107841 = -448						; size = 20
$T107867 = -428						; size = 20
$T107881 = -408						; size = 20
$T107878 = -388						; size = 20
$T107884 = -368						; size = 20
$T107850 = -348						; size = 20
$T107860 = -328						; size = 20
$T107857 = -308						; size = 20
$T107835 = -288						; size = 20
$T107844 = -268						; size = 20
$T107870 = -248						; size = 20
$T107853 = -228						; size = 20
$T107847 = -208						; size = 20
$T107892 = -188						; size = 24
$T107836 = -164						; size = 12
$T107868 = -152						; size = 12
$T107848 = -140						; size = 12
$T107893 = -128						; size = 12
$T107865 = -116						; size = 12
$T107839 = -104						; size = 12
$T107858 = -92						; size = 12
$T107879 = -80						; size = 12
$T107845 = -68						; size = 12
$T107842 = -56						; size = 12
$T107851 = -44						; size = 12
$T107882 = -32						; size = 12
$T107890 = -20						; size = 4
$T107886 = -20						; size = 4
$T107876 = -20						; size = 4
$T107872 = -20						; size = 4
$T107862 = -20						; size = 4
$T107855 = -20						; size = 4
$T107894 = -13						; size = 1
$T107891 = -13						; size = 1
$T107887 = -13						; size = 1
$T107883 = -13						; size = 1
$T107880 = -13						; size = 1
$T107877 = -13						; size = 1
$T107873 = -13						; size = 1
$T107869 = -13						; size = 1
$T107866 = -13						; size = 1
$T107863 = -13						; size = 1
$T107859 = -13						; size = 1
$T107856 = -13						; size = 1
$T107852 = -13						; size = 1
$T107849 = -13						; size = 1
$T107846 = -13						; size = 1
$T107843 = -13						; size = 1
$T107840 = -13						; size = 1
$T107837 = -13						; size = 1
__$EHRec$ = -12						; size = 12
_s$ = 8							; size = 4
_addr$ = 12						; size = 4
_addrlen$ = 16						; size = 4
?connect_ex@SocketAPI@@YAXIPBUsockaddr@@I@Z PROC NEAR	; SocketAPI::connect_ex, COMDAT

; 225  : {

  00000	b8 00 00 00 00	 mov	 eax, __ehhandler$?connect_ex@SocketAPI@@YAXIPBUsockaddr@@I@Z
  00005	e8 00 00 00 00	 call	 __EH_prolog
  0000a	81 ec 7c 02 00
	00		 sub	 esp, 636		; 0000027cH

; 226  : 	__BEGIN_TRY
; 227  : 
; 228  : 	if ( connect(s,addr,addrlen) == SOCKET_ERROR ) {

  00010	ff 75 10	 push	 DWORD PTR _addrlen$[ebp]
  00013	ff 75 0c	 push	 DWORD PTR _addr$[ebp]
  00016	ff 75 08	 push	 DWORD PTR _s$[ebp]
  00019	e8 00 00 00 00	 call	 _connect@12
  0001e	83 f8 ff	 cmp	 eax, -1
  00021	0f 85 e9 04 00
	00		 jne	 $L99694

; 229  : #if __LINUX__
; 230  : 		switch ( errno ) {
; 231  : 		case EALREADY : 
; 232  : 			throw NonBlockingIOException("The socket is non-blocking and a previous connection attempt has not yet been completed.");
; 233  : 		case EINPROGRESS : 
; 234  : 			throw ConnectException("The socket is non-blocking and the connection can not be completed immediately.");
; 235  : 		case ECONNREFUSED : 
; 236  : 			throw ConnectException("Connection refused at server.");
; 237  : 		case EISCONN : 
; 238  : 			throw ConnectException("The socket is already connected.");
; 239  : 		case ETIMEDOUT : 
; 240  : 			throw ConnectException("Timeout while attempting connection.");
; 241  : 		case ENETUNREACH : 
; 242  : 			throw ConnectException("Network is unreachable.");
; 243  : 		case EADDRINUSE : 
; 244  : 			throw ConnectException("Address is already in use.");
; 245  : 		case EBADF : 
; 246  : 			throw Error("Bad descriptor.");
; 247  : 		case EFAULT : 
; 248  : 			throw Error("The socket structure address is outside your address space.");
; 249  : 		case ENOTSOCK : 
; 250  : 			throw Error("The descriptor is not associated with a socket.");
; 251  : 		default :
; 252  : 			throw UnknownError(strerror(errno),errno);
; 253  : 		}//end of switch
; 254  : #elif __WINDOWS__
; 255  : 		switch ( WSAGetLastError() ) {

  00027	e8 00 00 00 00	 call	 _WSAGetLastError@0
  0002c	b9 40 27 00 00	 mov	 ecx, 10048		; 00002740H
  00031	3b c1		 cmp	 eax, ecx
  00033	0f 8f 54 02 00
	00		 jg	 $L107895
  00039	0f 84 17 02 00
	00		 je	 $L108006
  0003f	83 c1 f4	 add	 ecx, -12		; fffffff4H
  00042	3b c1		 cmp	 eax, ecx
  00044	0f 8f 54 01 00
	00		 jg	 $L107896
  0004a	0f 84 11 01 00
	00		 je	 $L108092
  00050	2d 14 27 00 00	 sub	 eax, 10004		; 00002714H
  00055	0f 84 cf 00 00
	00		 je	 $L108049
  0005b	83 e8 0a	 sub	 eax, 10			; 0000000aH
  0005e	0f 84 8f 00 00
	00		 je	 $L108281
  00064	83 e8 08	 sub	 eax, 8
  00067	74 4d		 je	 SHORT $L108324
  00069	83 e8 0d	 sub	 eax, 13			; 0000000dH
  0006c	0f 85 9d 03 00
	00		 jne	 $L108574

; 288  : 		case WSAEWOULDBLOCK  : 
; 289  : 			//   catch      ..  
; 290  : 			// 2002.3.15
; 291  : 			//throw NonBlockingIOException("The socket is marked as nonblocking and the connection cannot be completed immediately.");
; 292  : 			throw ConnectException("WSAEWOULDBLOCK");

  00072	83 ec 0c	 sub	 esp, 12			; 0000000cH
  00075	8b cc		 mov	 ecx, esp
  00077	89 65 ec	 mov	 DWORD PTR $T107890[ebp], esp
  0007a	8d 45 f3	 lea	 eax, DWORD PTR $T107891[ebp]
  0007d	50		 push	 eax
  0007e	68 00 00 00 00	 push	 OFFSET FLAT:??_C@_0P@BLDHJENA@WSAEWOULDBLOCK?$AA@
  00083	e8 00 00 00 00	 call	 ??0?$basic_string@DV?$char_traits@D@_STL@@V?$allocator@D@2@@_STL@@QAE@PBDABV?$allocator@D@1@@Z ; _STL::basic_string<char,_STL::char_traits<char>,_STL::allocator<char> >::basic_string<char,_STL::char_traits<char>,_STL::allocator<char> >
  00088	8d 8d dc fd ff
	ff		 lea	 ecx, DWORD PTR $T107889[ebp]
  0008e	e8 00 00 00 00	 call	 ??0ConnectException@@QAE@V?$basic_string@DV?$char_traits@D@_STL@@V?$allocator@D@2@@_STL@@@Z ; ConnectException::ConnectException
  00093	50		 push	 eax
  00094	8d 8d 2c fe ff
	ff		 lea	 ecx, DWORD PTR $T107888[ebp]
  0009a	c7 45 fc 10 00
	00 00		 mov	 DWORD PTR __$EHRec$[ebp+8], 16 ; 00000010H
  000a1	e8 00 00 00 00	 call	 ??0ConnectException@@QAE@ABV0@@Z
  000a6	68 00 00 00 00	 push	 OFFSET FLAT:__TI5?AVConnectException@@
  000ab	8d 85 2c fe ff
	ff		 lea	 eax, DWORD PTR $T107888[ebp]
  000b1	e9 54 04 00 00	 jmp	 $L108625

; 274  : 		case WSAEFAULT : 
; 275  : 			throw Error("The name or the namelen parameter is not a valid part of the user address space, the namelen parameter is too small, or the name parameter contains incorrect address format for the associated address family.");

$L108324:

; 276  : 		case WSAEINVAL : 
; 277  : 			throw Error("The parameter s is a listening socket, or the destination address specified is not consistent with that of the constrained group the socket belongs to.");

  000b6	8d 45 f3	 lea	 eax, DWORD PTR $T107869[ebp]
  000b9	50		 push	 eax
  000ba	68 00 00 00 00	 push	 OFFSET FLAT:??_C@_0JI@LPPNBOAP@The?5parameter?5s?5is?5a?5listening?5s@
  000bf	8d 8d 68 ff ff
	ff		 lea	 ecx, DWORD PTR $T107868[ebp]
  000c5	e8 00 00 00 00	 call	 ??0?$basic_string@DV?$char_traits@D@_STL@@V?$allocator@D@2@@_STL@@QAE@PBDABV?$allocator@D@1@@Z ; _STL::basic_string<char,_STL::char_traits<char>,_STL::allocator<char> >::basic_string<char,_STL::char_traits<char>,_STL::allocator<char> >
  000ca	8d 85 68 ff ff
	ff		 lea	 eax, DWORD PTR $T107868[ebp]
  000d0	50		 push	 eax
  000d1	8d 8d 54 fe ff
	ff		 lea	 ecx, DWORD PTR $T107867[ebp]
  000d7	c7 45 fc 0a 00
	00 00		 mov	 DWORD PTR __$EHRec$[ebp+8], 10 ; 0000000aH
  000de	e8 00 00 00 00	 call	 ??0Error@@QAE@ABV?$basic_string@DV?$char_traits@D@_STL@@V?$allocator@D@2@@_STL@@@Z ; Error::Error
  000e3	68 00 00 00 00	 push	 OFFSET FLAT:__TI2?AVError@@
  000e8	8d 85 54 fe ff
	ff		 lea	 eax, DWORD PTR $T107867[ebp]
  000ee	e9 17 04 00 00	 jmp	 $L108625

; 272  : 		case WSAECONNREFUSED : 
; 273  : 			throw ConnectException("The attempt to connect was forcefully rejected.");

$L108281:

; 274  : 		case WSAEFAULT : 
; 275  : 			throw Error("The name or the namelen parameter is not a valid part of the user address space, the namelen parameter is too small, or the name parameter contains incorrect address format for the associated address family.");

  000f3	8d 45 f3	 lea	 eax, DWORD PTR $T107866[ebp]
  000f6	50		 push	 eax
  000f7	68 00 00 00 00	 push	 OFFSET FLAT:??_C@_0NA@FODJMBGJ@The?5name?5or?5the?5namelen?5paramete@
  000fc	8d 4d 8c	 lea	 ecx, DWORD PTR $T107865[ebp]
  000ff	e8 00 00 00 00	 call	 ??0?$basic_string@DV?$char_traits@D@_STL@@V?$allocator@D@2@@_STL@@QAE@PBDABV?$allocator@D@1@@Z ; _STL::basic_string<char,_STL::char_traits<char>,_STL::allocator<char> >::basic_string<char,_STL::char_traits<char>,_STL::allocator<char> >
  00104	8d 45 8c	 lea	 eax, DWORD PTR $T107865[ebp]
  00107	50		 push	 eax
  00108	8d 8d 04 fe ff
	ff		 lea	 ecx, DWORD PTR $T107864[ebp]
  0010e	c7 45 fc 09 00
	00 00		 mov	 DWORD PTR __$EHRec$[ebp+8], 9
  00115	e8 00 00 00 00	 call	 ??0Error@@QAE@ABV?$basic_string@DV?$char_traits@D@_STL@@V?$allocator@D@2@@_STL@@@Z ; Error::Error
  0011a	68 00 00 00 00	 push	 OFFSET FLAT:__TI2?AVError@@
  0011f	8d 85 04 fe ff
	ff		 lea	 eax, DWORD PTR $T107864[ebp]
  00125	e9 e0 03 00 00	 jmp	 $L108625

; 260  : 		case WSAEADDRINUSE : 
; 261  : 			throw Error("The socket's local address is already in use and the socket was not marked to allow address reuse with SO_REUSEADDR. This error usually occurs when executing bind, but could be delayed until this function if the bind was to a partially wild-card address (involving ADDR_ANY) and if a specific address needs to be committed at the time of this function.");

$L108049:

; 262  : 		case WSAEINTR : 
; 263  : 			throw Error("The (blocking) Windows Socket 1.1 call was canceled through WSACancelBlockingCall.");

  0012a	8d 45 f3	 lea	 eax, DWORD PTR $T107846[ebp]
  0012d	50		 push	 eax
  0012e	68 00 00 00 00	 push	 OFFSET FLAT:??_C@_0FD@ELPGMEKP@The?5?$CIblocking?$CJ?5Windows?5Socket?51?4@
  00133	8d 4d bc	 lea	 ecx, DWORD PTR $T107845[ebp]
  00136	e8 00 00 00 00	 call	 ??0?$basic_string@DV?$char_traits@D@_STL@@V?$allocator@D@2@@_STL@@QAE@PBDABV?$allocator@D@1@@Z ; _STL::basic_string<char,_STL::char_traits<char>,_STL::allocator<char> >::basic_string<char,_STL::char_traits<char>,_STL::allocator<char> >
  0013b	8d 45 bc	 lea	 eax, DWORD PTR $T107845[ebp]
  0013e	50		 push	 eax
  0013f	8d 8d f4 fe ff
	ff		 lea	 ecx, DWORD PTR $T107844[ebp]
  00145	c7 45 fc 03 00
	00 00		 mov	 DWORD PTR __$EHRec$[ebp+8], 3
  0014c	e8 00 00 00 00	 call	 ??0Error@@QAE@ABV?$basic_string@DV?$char_traits@D@_STL@@V?$allocator@D@2@@_STL@@@Z ; Error::Error
  00151	68 00 00 00 00	 push	 OFFSET FLAT:__TI2?AVError@@
  00156	8d 85 f4 fe ff
	ff		 lea	 eax, DWORD PTR $T107844[ebp]
  0015c	e9 a9 03 00 00	 jmp	 $L108625
$L108092:

; 264  : 		case WSAEINPROGRESS : 
; 265  : 			throw Error("A blocking Windows Sockets 1.1 call is in progress, or the service provider is still processing a callback function.");

  00161	8d 45 f3	 lea	 eax, DWORD PTR $T107849[ebp]
  00164	50		 push	 eax
  00165	68 00 00 00 00	 push	 OFFSET FLAT:??_C@_0HF@MHMDKDMH@A?5blocking?5Windows?5Sockets?51?41?5c@
  0016a	8d 8d 74 ff ff
	ff		 lea	 ecx, DWORD PTR $T107848[ebp]
  00170	e8 00 00 00 00	 call	 ??0?$basic_string@DV?$char_traits@D@_STL@@V?$allocator@D@2@@_STL@@QAE@PBDABV?$allocator@D@1@@Z ; _STL::basic_string<char,_STL::char_traits<char>,_STL::allocator<char> >::basic_string<char,_STL::char_traits<char>,_STL::allocator<char> >
  00175	8d 85 74 ff ff
	ff		 lea	 eax, DWORD PTR $T107848[ebp]
  0017b	50		 push	 eax
  0017c	8d 8d 30 ff ff
	ff		 lea	 ecx, DWORD PTR $T107847[ebp]
  00182	c7 45 fc 04 00
	00 00		 mov	 DWORD PTR __$EHRec$[ebp+8], 4
  00189	e8 00 00 00 00	 call	 ??0Error@@QAE@ABV?$basic_string@DV?$char_traits@D@_STL@@V?$allocator@D@2@@_STL@@@Z ; Error::Error
  0018e	68 00 00 00 00	 push	 OFFSET FLAT:__TI2?AVError@@
  00193	8d 85 30 ff ff
	ff		 lea	 eax, DWORD PTR $T107847[ebp]
  00199	e9 6c 03 00 00	 jmp	 $L108625
$L107896:

; 229  : #if __LINUX__
; 230  : 		switch ( errno ) {
; 231  : 		case EALREADY : 
; 232  : 			throw NonBlockingIOException("The socket is non-blocking and a previous connection attempt has not yet been completed.");
; 233  : 		case EINPROGRESS : 
; 234  : 			throw ConnectException("The socket is non-blocking and the connection can not be completed immediately.");
; 235  : 		case ECONNREFUSED : 
; 236  : 			throw ConnectException("Connection refused at server.");
; 237  : 		case EISCONN : 
; 238  : 			throw ConnectException("The socket is already connected.");
; 239  : 		case ETIMEDOUT : 
; 240  : 			throw ConnectException("Timeout while attempting connection.");
; 241  : 		case ENETUNREACH : 
; 242  : 			throw ConnectException("Network is unreachable.");
; 243  : 		case EADDRINUSE : 
; 244  : 			throw ConnectException("Address is already in use.");
; 245  : 		case EBADF : 
; 246  : 			throw Error("Bad descriptor.");
; 247  : 		case EFAULT : 
; 248  : 			throw Error("The socket structure address is outside your address space.");
; 249  : 		case ENOTSOCK : 
; 250  : 			throw Error("The descriptor is not associated with a socket.");
; 251  : 		default :
; 252  : 			throw UnknownError(strerror(errno),errno);
; 253  : 		}//end of switch
; 254  : #elif __WINDOWS__
; 255  : 		switch ( WSAGetLastError() ) {

  0019e	2d 35 27 00 00	 sub	 eax, 10037		; 00002735H
  001a3	74 7a		 je	 SHORT $L108135
  001a5	48		 dec	 eax
  001a6	74 40		 je	 SHORT $L108470
  001a8	83 e8 09	 sub	 eax, 9
  001ab	0f 85 5e 02 00
	00		 jne	 $L108574

; 270  : 		case WSAEAFNOSUPPORT : 
; 271  : 			throw Error("Addresses in the specified family cannot be used with this socket.");

  001b1	8d 45 f3	 lea	 eax, DWORD PTR $T107859[ebp]
  001b4	50		 push	 eax
  001b5	68 00 00 00 00	 push	 OFFSET FLAT:??_C@_0ED@MFEPMPNB@Addresses?5in?5the?5specified?5famil@
  001ba	8d 4d a4	 lea	 ecx, DWORD PTR $T107858[ebp]
  001bd	e8 00 00 00 00	 call	 ??0?$basic_string@DV?$char_traits@D@_STL@@V?$allocator@D@2@@_STL@@QAE@PBDABV?$allocator@D@1@@Z ; _STL::basic_string<char,_STL::char_traits<char>,_STL::allocator<char> >::basic_string<char,_STL::char_traits<char>,_STL::allocator<char> >
  001c2	8d 45 a4	 lea	 eax, DWORD PTR $T107858[ebp]
  001c5	50		 push	 eax
  001c6	8d 8d cc fe ff
	ff		 lea	 ecx, DWORD PTR $T107857[ebp]
  001cc	c7 45 fc 07 00
	00 00		 mov	 DWORD PTR __$EHRec$[ebp+8], 7
  001d3	e8 00 00 00 00	 call	 ??0Error@@QAE@ABV?$basic_string@DV?$char_traits@D@_STL@@V?$allocator@D@2@@_STL@@@Z ; Error::Error
  001d8	68 00 00 00 00	 push	 OFFSET FLAT:__TI2?AVError@@
  001dd	8d 85 cc fe ff
	ff		 lea	 eax, DWORD PTR $T107857[ebp]
  001e3	e9 22 03 00 00	 jmp	 $L108625

; 282  : 		case WSAENOBUFS : 
; 283  : 			throw Error("No buffer space is available. The socket cannot be connected.");

$L108470:

; 284  : 		case WSAENOTSOCK : 
; 285  : 			throw Error("The descriptor is not a socket.");

  001e8	8d 45 f3	 lea	 eax, DWORD PTR $T107883[ebp]
  001eb	50		 push	 eax
  001ec	68 00 00 00 00	 push	 OFFSET FLAT:??_C@_0CA@EGNBMMLP@The?5descriptor?5is?5not?5a?5socket?4?$AA@
  001f1	8d 4d e0	 lea	 ecx, DWORD PTR $T107882[ebp]
  001f4	e8 00 00 00 00	 call	 ??0?$basic_string@DV?$char_traits@D@_STL@@V?$allocator@D@2@@_STL@@QAE@PBDABV?$allocator@D@1@@Z ; _STL::basic_string<char,_STL::char_traits<char>,_STL::allocator<char> >::basic_string<char,_STL::char_traits<char>,_STL::allocator<char> >
  001f9	8d 45 e0	 lea	 eax, DWORD PTR $T107882[ebp]
  001fc	50		 push	 eax
  001fd	8d 8d 68 fe ff
	ff		 lea	 ecx, DWORD PTR $T107881[ebp]
  00203	c7 45 fc 0e 00
	00 00		 mov	 DWORD PTR __$EHRec$[ebp+8], 14 ; 0000000eH
  0020a	e8 00 00 00 00	 call	 ??0Error@@QAE@ABV?$basic_string@DV?$char_traits@D@_STL@@V?$allocator@D@2@@_STL@@@Z ; Error::Error
  0020f	68 00 00 00 00	 push	 OFFSET FLAT:__TI2?AVError@@
  00214	8d 85 68 fe ff
	ff		 lea	 eax, DWORD PTR $T107881[ebp]
  0021a	e9 eb 02 00 00	 jmp	 $L108625

; 264  : 		case WSAEINPROGRESS : 
; 265  : 			throw Error("A blocking Windows Sockets 1.1 call is in progress, or the service provider is still processing a callback function.");

$L108135:

; 266  : 		case WSAEALREADY : 
; 267  : 			throw Error("A nonblocking connect call is in progress on the specified socket. Note In order to preserve backward compatibility, this error is reported as WSAEINVAL to Windows Sockets 1.1 applications that link to either WINSOCK.DLL or WSOCK32.DLL."); 

  0021f	8d 45 f3	 lea	 eax, DWORD PTR $T107852[ebp]
  00222	50		 push	 eax
  00223	68 00 00 00 00	 push	 OFFSET FLAT:??_C@_0ON@ECCLKFL@A?5nonblocking?5connect?5call?5is?5in@
  00228	8d 4d d4	 lea	 ecx, DWORD PTR $T107851[ebp]
  0022b	e8 00 00 00 00	 call	 ??0?$basic_string@DV?$char_traits@D@_STL@@V?$allocator@D@2@@_STL@@QAE@PBDABV?$allocator@D@1@@Z ; _STL::basic_string<char,_STL::char_traits<char>,_STL::allocator<char> >::basic_string<char,_STL::char_traits<char>,_STL::allocator<char> >
  00230	8d 45 d4	 lea	 eax, DWORD PTR $T107851[ebp]
  00233	50		 push	 eax
  00234	8d 8d a4 fe ff
	ff		 lea	 ecx, DWORD PTR $T107850[ebp]
  0023a	c7 45 fc 05 00
	00 00		 mov	 DWORD PTR __$EHRec$[ebp+8], 5
  00241	e8 00 00 00 00	 call	 ??0Error@@QAE@ABV?$basic_string@DV?$char_traits@D@_STL@@V?$allocator@D@2@@_STL@@@Z ; Error::Error
  00246	68 00 00 00 00	 push	 OFFSET FLAT:__TI2?AVError@@
  0024b	8d 85 a4 fe ff
	ff		 lea	 eax, DWORD PTR $T107850[ebp]
  00251	e9 b4 02 00 00	 jmp	 $L108625

; 258  : 		case WSAENETDOWN : 
; 259  : 			throw Error("The network subsystem has failed.");

$L108006:

; 260  : 		case WSAEADDRINUSE : 
; 261  : 			throw Error("The socket's local address is already in use and the socket was not marked to allow address reuse with SO_REUSEADDR. This error usually occurs when executing bind, but could be delayed until this function if the bind was to a partially wild-card address (involving ADDR_ANY) and if a specific address needs to be committed at the time of this function.");

  00256	8d 45 f3	 lea	 eax, DWORD PTR $T107843[ebp]
  00259	50		 push	 eax
  0025a	68 00 00 00 00	 push	 OFFSET FLAT:??_C@_0BGB@KCBKDGKJ@The?5socket?8s?5local?5address?5is?5al@
  0025f	8d 4d c8	 lea	 ecx, DWORD PTR $T107842[ebp]
  00262	e8 00 00 00 00	 call	 ??0?$basic_string@DV?$char_traits@D@_STL@@V?$allocator@D@2@@_STL@@QAE@PBDABV?$allocator@D@1@@Z ; _STL::basic_string<char,_STL::char_traits<char>,_STL::allocator<char> >::basic_string<char,_STL::char_traits<char>,_STL::allocator<char> >
  00267	8d 45 c8	 lea	 eax, DWORD PTR $T107842[ebp]
  0026a	50		 push	 eax
  0026b	8d 8d 40 fe ff
	ff		 lea	 ecx, DWORD PTR $T107841[ebp]
  00271	c7 45 fc 02 00
	00 00		 mov	 DWORD PTR __$EHRec$[ebp+8], 2
  00278	e8 00 00 00 00	 call	 ??0Error@@QAE@ABV?$basic_string@DV?$char_traits@D@_STL@@V?$allocator@D@2@@_STL@@@Z ; Error::Error
  0027d	68 00 00 00 00	 push	 OFFSET FLAT:__TI2?AVError@@
  00282	8d 85 40 fe ff
	ff		 lea	 eax, DWORD PTR $T107841[ebp]
  00288	e9 7d 02 00 00	 jmp	 $L108625
$L107895:

; 229  : #if __LINUX__
; 230  : 		switch ( errno ) {
; 231  : 		case EALREADY : 
; 232  : 			throw NonBlockingIOException("The socket is non-blocking and a previous connection attempt has not yet been completed.");
; 233  : 		case EINPROGRESS : 
; 234  : 			throw ConnectException("The socket is non-blocking and the connection can not be completed immediately.");
; 235  : 		case ECONNREFUSED : 
; 236  : 			throw ConnectException("Connection refused at server.");
; 237  : 		case EISCONN : 
; 238  : 			throw ConnectException("The socket is already connected.");
; 239  : 		case ETIMEDOUT : 
; 240  : 			throw ConnectException("Timeout while attempting connection.");
; 241  : 		case ENETUNREACH : 
; 242  : 			throw ConnectException("Network is unreachable.");
; 243  : 		case EADDRINUSE : 
; 244  : 			throw ConnectException("Address is already in use.");
; 245  : 		case EBADF : 
; 246  : 			throw Error("Bad descriptor.");
; 247  : 		case EFAULT : 
; 248  : 			throw Error("The socket structure address is outside your address space.");
; 249  : 		case ENOTSOCK : 
; 250  : 			throw Error("The descriptor is not associated with a socket.");
; 251  : 		default :
; 252  : 			throw UnknownError(strerror(errno),errno);
; 253  : 		}//end of switch
; 254  : #elif __WINDOWS__
; 255  : 		switch ( WSAGetLastError() ) {

  0028d	b9 48 27 00 00	 mov	 ecx, 10056		; 00002748H
  00292	3b c1		 cmp	 eax, ecx
  00294	0f 8f 5e 01 00
	00		 jg	 $L107897
  0029a	0f 84 14 01 00
	00		 je	 $L108367
  002a0	2d 41 27 00 00	 sub	 eax, 10049		; 00002741H
  002a5	0f 84 c5 00 00
	00		 je	 $L108178
  002ab	48		 dec	 eax
  002ac	0f 84 87 00 00
	00		 je	 $L107963
  002b2	48		 dec	 eax
  002b3	74 40		 je	 SHORT $L108397
  002b5	83 e8 04	 sub	 eax, 4
  002b8	0f 85 51 01 00
	00		 jne	 $L108574

; 282  : 		case WSAENOBUFS : 
; 283  : 			throw Error("No buffer space is available. The socket cannot be connected.");

  002be	8d 45 f3	 lea	 eax, DWORD PTR $T107880[ebp]
  002c1	50		 push	 eax
  002c2	68 00 00 00 00	 push	 OFFSET FLAT:??_C@_0DO@ENGDAACK@No?5buffer?5space?5is?5available?4?5Th@
  002c7	8d 4d b0	 lea	 ecx, DWORD PTR $T107879[ebp]
  002ca	e8 00 00 00 00	 call	 ??0?$basic_string@DV?$char_traits@D@_STL@@V?$allocator@D@2@@_STL@@QAE@PBDABV?$allocator@D@1@@Z ; _STL::basic_string<char,_STL::char_traits<char>,_STL::allocator<char> >::basic_string<char,_STL::char_traits<char>,_STL::allocator<char> >
  002cf	8d 45 b0	 lea	 eax, DWORD PTR $T107879[ebp]
  002d2	50		 push	 eax
  002d3	8d 8d 7c fe ff
	ff		 lea	 ecx, DWORD PTR $T107878[ebp]
  002d9	c7 45 fc 0d 00
	00 00		 mov	 DWORD PTR __$EHRec$[ebp+8], 13 ; 0000000dH
  002e0	e8 00 00 00 00	 call	 ??0Error@@QAE@ABV?$basic_string@DV?$char_traits@D@_STL@@V?$allocator@D@2@@_STL@@@Z ; Error::Error
  002e5	68 00 00 00 00	 push	 OFFSET FLAT:__TI2?AVError@@
  002ea	8d 85 7c fe ff
	ff		 lea	 eax, DWORD PTR $T107878[ebp]
  002f0	e9 15 02 00 00	 jmp	 $L108625

; 278  : 		case WSAEISCONN : 
; 279  : 			throw ConnectException("The socket is already connected (connection-oriented sockets only).");

$L108397:

; 280  : 		case WSAENETUNREACH : 
; 281  : 			throw ConnectException("The network cannot be reached from this host at this time.");

  002f5	83 ec 0c	 sub	 esp, 12			; 0000000cH
  002f8	8b cc		 mov	 ecx, esp
  002fa	89 65 ec	 mov	 DWORD PTR $T107876[ebp], esp
  002fd	8d 45 f3	 lea	 eax, DWORD PTR $T107877[ebp]
  00300	50		 push	 eax
  00301	68 00 00 00 00	 push	 OFFSET FLAT:??_C@_0DL@GIJDBKPC@The?5network?5cannot?5be?5reached?5fr@
  00306	e8 00 00 00 00	 call	 ??0?$basic_string@DV?$char_traits@D@_STL@@V?$allocator@D@2@@_STL@@QAE@PBDABV?$allocator@D@1@@Z ; _STL::basic_string<char,_STL::char_traits<char>,_STL::allocator<char> >::basic_string<char,_STL::char_traits<char>,_STL::allocator<char> >
  0030b	8d 8d 78 fd ff
	ff		 lea	 ecx, DWORD PTR $T107875[ebp]
  00311	e8 00 00 00 00	 call	 ??0ConnectException@@QAE@V?$basic_string@DV?$char_traits@D@_STL@@V?$allocator@D@2@@_STL@@@Z ; ConnectException::ConnectException
  00316	50		 push	 eax
  00317	8d 8d 18 fe ff
	ff		 lea	 ecx, DWORD PTR $T107874[ebp]
  0031d	c7 45 fc 0c 00
	00 00		 mov	 DWORD PTR __$EHRec$[ebp+8], 12 ; 0000000cH
  00324	e8 00 00 00 00	 call	 ??0ConnectException@@QAE@ABV0@@Z
  00329	68 00 00 00 00	 push	 OFFSET FLAT:__TI5?AVConnectException@@
  0032e	8d 85 18 fe ff
	ff		 lea	 eax, DWORD PTR $T107874[ebp]
  00334	e9 d1 01 00 00	 jmp	 $L108625

; 256  : 		case WSANOTINITIALISED : 
; 257  : 			throw Error("A successful WSAStartup must occur before using this function.");

$L107963:

; 258  : 		case WSAENETDOWN : 
; 259  : 			throw Error("The network subsystem has failed.");

  00339	8d 45 f3	 lea	 eax, DWORD PTR $T107840[ebp]
  0033c	50		 push	 eax
  0033d	68 00 00 00 00	 push	 OFFSET FLAT:??_C@_0CC@ECDFBOEN@The?5network?5subsystem?5has?5failed@
  00342	8d 4d 98	 lea	 ecx, DWORD PTR $T107839[ebp]
  00345	e8 00 00 00 00	 call	 ??0?$basic_string@DV?$char_traits@D@_STL@@V?$allocator@D@2@@_STL@@QAE@PBDABV?$allocator@D@1@@Z ; _STL::basic_string<char,_STL::char_traits<char>,_STL::allocator<char> >::basic_string<char,_STL::char_traits<char>,_STL::allocator<char> >
  0034a	8d 45 98	 lea	 eax, DWORD PTR $T107839[ebp]
  0034d	50		 push	 eax
  0034e	8d 8d f0 fd ff
	ff		 lea	 ecx, DWORD PTR $T107838[ebp]
  00354	c7 45 fc 01 00
	00 00		 mov	 DWORD PTR __$EHRec$[ebp+8], 1
  0035b	e8 00 00 00 00	 call	 ??0Error@@QAE@ABV?$basic_string@DV?$char_traits@D@_STL@@V?$allocator@D@2@@_STL@@@Z ; Error::Error
  00360	68 00 00 00 00	 push	 OFFSET FLAT:__TI2?AVError@@
  00365	8d 85 f0 fd ff
	ff		 lea	 eax, DWORD PTR $T107838[ebp]
  0036b	e9 9a 01 00 00	 jmp	 $L108625

; 266  : 		case WSAEALREADY : 
; 267  : 			throw Error("A nonblocking connect call is in progress on the specified socket. Note In order to preserve backward compatibility, this error is reported as WSAEINVAL to Windows Sockets 1.1 applications that link to either WINSOCK.DLL or WSOCK32.DLL."); 

$L108178:

; 268  : 		case WSAEADDRNOTAVAIL : 
; 269  : 			throw ConnectException("The remote address is not a valid address (such as ADDR_ANY).");

  00370	83 ec 0c	 sub	 esp, 12			; 0000000cH
  00373	8b cc		 mov	 ecx, esp
  00375	89 65 ec	 mov	 DWORD PTR $T107855[ebp], esp
  00378	8d 45 f3	 lea	 eax, DWORD PTR $T107856[ebp]
  0037b	50		 push	 eax
  0037c	68 00 00 00 00	 push	 OFFSET FLAT:??_C@_0DO@JIMMDM@The?5remote?5address?5is?5not?5a?5vali@
  00381	e8 00 00 00 00	 call	 ??0?$basic_string@DV?$char_traits@D@_STL@@V?$allocator@D@2@@_STL@@QAE@PBDABV?$allocator@D@1@@Z ; _STL::basic_string<char,_STL::char_traits<char>,_STL::allocator<char> >::basic_string<char,_STL::char_traits<char>,_STL::allocator<char> >
  00386	8d 8d b4 fd ff
	ff		 lea	 ecx, DWORD PTR $T107854[ebp]
  0038c	e8 00 00 00 00	 call	 ??0ConnectException@@QAE@V?$basic_string@DV?$char_traits@D@_STL@@V?$allocator@D@2@@_STL@@@Z ; ConnectException::ConnectException
  00391	50		 push	 eax
  00392	8d 8d 1c ff ff
	ff		 lea	 ecx, DWORD PTR $T107853[ebp]
  00398	c7 45 fc 06 00
	00 00		 mov	 DWORD PTR __$EHRec$[ebp+8], 6
  0039f	e8 00 00 00 00	 call	 ??0ConnectException@@QAE@ABV0@@Z
  003a4	68 00 00 00 00	 push	 OFFSET FLAT:__TI5?AVConnectException@@
  003a9	8d 85 1c ff ff
	ff		 lea	 eax, DWORD PTR $T107853[ebp]
  003af	e9 56 01 00 00	 jmp	 $L108625

; 276  : 		case WSAEINVAL : 
; 277  : 			throw Error("The parameter s is a listening socket, or the destination address specified is not consistent with that of the constrained group the socket belongs to.");

$L108367:

; 278  : 		case WSAEISCONN : 
; 279  : 			throw ConnectException("The socket is already connected (connection-oriented sockets only).");

  003b4	83 ec 0c	 sub	 esp, 12			; 0000000cH
  003b7	8b cc		 mov	 ecx, esp
  003b9	89 65 ec	 mov	 DWORD PTR $T107872[ebp], esp
  003bc	8d 45 f3	 lea	 eax, DWORD PTR $T107873[ebp]
  003bf	50		 push	 eax
  003c0	68 00 00 00 00	 push	 OFFSET FLAT:??_C@_0EE@KOFAJNHE@The?5socket?5is?5already?5connected?5@
  003c5	e8 00 00 00 00	 call	 ??0?$basic_string@DV?$char_traits@D@_STL@@V?$allocator@D@2@@_STL@@QAE@PBDABV?$allocator@D@1@@Z ; _STL::basic_string<char,_STL::char_traits<char>,_STL::allocator<char> >::basic_string<char,_STL::char_traits<char>,_STL::allocator<char> >
  003ca	8d 8d 8c fd ff
	ff		 lea	 ecx, DWORD PTR $T107871[ebp]
  003d0	e8 00 00 00 00	 call	 ??0ConnectException@@QAE@V?$basic_string@DV?$char_traits@D@_STL@@V?$allocator@D@2@@_STL@@@Z ; ConnectException::ConnectException
  003d5	50		 push	 eax
  003d6	8d 8d 08 ff ff
	ff		 lea	 ecx, DWORD PTR $T107870[ebp]
  003dc	c7 45 fc 0b 00
	00 00		 mov	 DWORD PTR __$EHRec$[ebp+8], 11 ; 0000000bH
  003e3	e8 00 00 00 00	 call	 ??0ConnectException@@QAE@ABV0@@Z
  003e8	68 00 00 00 00	 push	 OFFSET FLAT:__TI5?AVConnectException@@
  003ed	8d 85 08 ff ff
	ff		 lea	 eax, DWORD PTR $T107870[ebp]
  003f3	e9 12 01 00 00	 jmp	 $L108625
$L107897:

; 229  : #if __LINUX__
; 230  : 		switch ( errno ) {
; 231  : 		case EALREADY : 
; 232  : 			throw NonBlockingIOException("The socket is non-blocking and a previous connection attempt has not yet been completed.");
; 233  : 		case EINPROGRESS : 
; 234  : 			throw ConnectException("The socket is non-blocking and the connection can not be completed immediately.");
; 235  : 		case ECONNREFUSED : 
; 236  : 			throw ConnectException("Connection refused at server.");
; 237  : 		case EISCONN : 
; 238  : 			throw ConnectException("The socket is already connected.");
; 239  : 		case ETIMEDOUT : 
; 240  : 			throw ConnectException("Timeout while attempting connection.");
; 241  : 		case ENETUNREACH : 
; 242  : 			throw ConnectException("Network is unreachable.");
; 243  : 		case EADDRINUSE : 
; 244  : 			throw ConnectException("Address is already in use.");
; 245  : 		case EBADF : 
; 246  : 			throw Error("Bad descriptor.");
; 247  : 		case EFAULT : 
; 248  : 			throw Error("The socket structure address is outside your address space.");
; 249  : 		case ENOTSOCK : 
; 250  : 			throw Error("The descriptor is not associated with a socket.");
; 251  : 		default :
; 252  : 			throw UnknownError(strerror(errno),errno);
; 253  : 		}//end of switch
; 254  : #elif __WINDOWS__
; 255  : 		switch ( WSAGetLastError() ) {

  003f8	2d 4c 27 00 00	 sub	 eax, 10060		; 0000274cH
  003fd	0f 84 c8 00 00
	00		 je	 $L108513
  00403	48		 dec	 eax
  00404	0f 84 80 00 00
	00		 je	 $L108251
  0040a	83 e8 20	 sub	 eax, 32			; 00000020H
  0040d	74 41		 je	 SHORT $L99697

; 288  : 		case WSAEWOULDBLOCK  : 
; 289  : 			//   catch      ..  
; 290  : 			// 2002.3.15
; 291  : 			//throw NonBlockingIOException("The socket is marked as nonblocking and the connection cannot be completed immediately.");
; 292  : 			throw ConnectException("WSAEWOULDBLOCK");

$L108574:

; 293  : 		default :
; 294  : 			throw UnknownError("connect()");

  0040f	8d 45 f3	 lea	 eax, DWORD PTR $T107894[ebp]
  00412	50		 push	 eax
  00413	68 00 00 00 00	 push	 OFFSET FLAT:??_C@_09KLHJMPLC@connect?$CI?$CJ?$AA@
  00418	8d 4d 80	 lea	 ecx, DWORD PTR $T107893[ebp]
  0041b	e8 00 00 00 00	 call	 ??0?$basic_string@DV?$char_traits@D@_STL@@V?$allocator@D@2@@_STL@@QAE@PBDABV?$allocator@D@1@@Z ; _STL::basic_string<char,_STL::char_traits<char>,_STL::allocator<char> >::basic_string<char,_STL::char_traits<char>,_STL::allocator<char> >
  00420	8d 45 80	 lea	 eax, DWORD PTR $T107893[ebp]
  00423	50		 push	 eax
  00424	8d 8d 44 ff ff
	ff		 lea	 ecx, DWORD PTR $T107892[ebp]
  0042a	c7 45 fc 11 00
	00 00		 mov	 DWORD PTR __$EHRec$[ebp+8], 17 ; 00000011H
  00431	e8 00 00 00 00	 call	 ??0Error@@QAE@ABV?$basic_string@DV?$char_traits@D@_STL@@V?$allocator@D@2@@_STL@@@Z ; Error::Error
  00436	c7 85 44 ff ff
	ff 00 00 00 00	 mov	 DWORD PTR $T107892[ebp], OFFSET FLAT:??_7UnknownError@@6B@
  00440	68 00 00 00 00	 push	 OFFSET FLAT:__TI3?AVUnknownError@@
  00445	8d 85 44 ff ff
	ff		 lea	 eax, DWORD PTR $T107892[ebp]
  0044b	e9 ba 00 00 00	 jmp	 $L108625
$L99697:

; 256  : 		case WSANOTINITIALISED : 
; 257  : 			throw Error("A successful WSAStartup must occur before using this function.");

  00450	8d 45 f3	 lea	 eax, DWORD PTR $T107837[ebp]
  00453	50		 push	 eax
  00454	68 00 00 00 00	 push	 OFFSET FLAT:??_C@_0DP@GBHCAAKN@A?5successful?5WSAStartup?5must?5occ@
  00459	8d 8d 5c ff ff
	ff		 lea	 ecx, DWORD PTR $T107836[ebp]
  0045f	e8 00 00 00 00	 call	 ??0?$basic_string@DV?$char_traits@D@_STL@@V?$allocator@D@2@@_STL@@QAE@PBDABV?$allocator@D@1@@Z ; _STL::basic_string<char,_STL::char_traits<char>,_STL::allocator<char> >::basic_string<char,_STL::char_traits<char>,_STL::allocator<char> >
  00464	83 65 fc 00	 and	 DWORD PTR __$EHRec$[ebp+8], 0
  00468	8d 85 5c ff ff
	ff		 lea	 eax, DWORD PTR $T107836[ebp]
  0046e	50		 push	 eax
  0046f	8d 8d e0 fe ff
	ff		 lea	 ecx, DWORD PTR $T107835[ebp]
  00475	e8 00 00 00 00	 call	 ??0Error@@QAE@ABV?$basic_string@DV?$char_traits@D@_STL@@V?$allocator@D@2@@_STL@@@Z ; Error::Error
  0047a	68 00 00 00 00	 push	 OFFSET FLAT:__TI2?AVError@@
  0047f	8d 85 e0 fe ff
	ff		 lea	 eax, DWORD PTR $T107835[ebp]
  00485	e9 80 00 00 00	 jmp	 $L108625

; 270  : 		case WSAEAFNOSUPPORT : 
; 271  : 			throw Error("Addresses in the specified family cannot be used with this socket.");

$L108251:

; 272  : 		case WSAECONNREFUSED : 
; 273  : 			throw ConnectException("The attempt to connect was forcefully rejected.");

  0048a	83 ec 0c	 sub	 esp, 12			; 0000000cH
  0048d	8b cc		 mov	 ecx, esp
  0048f	89 65 ec	 mov	 DWORD PTR $T107862[ebp], esp
  00492	8d 45 f3	 lea	 eax, DWORD PTR $T107863[ebp]
  00495	50		 push	 eax
  00496	68 00 00 00 00	 push	 OFFSET FLAT:??_C@_0DA@GOHODKIG@The?5attempt?5to?5connect?5was?5force@
  0049b	e8 00 00 00 00	 call	 ??0?$basic_string@DV?$char_traits@D@_STL@@V?$allocator@D@2@@_STL@@QAE@PBDABV?$allocator@D@1@@Z ; _STL::basic_string<char,_STL::char_traits<char>,_STL::allocator<char> >::basic_string<char,_STL::char_traits<char>,_STL::allocator<char> >
  004a0	8d 8d c8 fd ff
	ff		 lea	 ecx, DWORD PTR $T107861[ebp]
  004a6	e8 00 00 00 00	 call	 ??0ConnectException@@QAE@V?$basic_string@DV?$char_traits@D@_STL@@V?$allocator@D@2@@_STL@@@Z ; ConnectException::ConnectException
  004ab	50		 push	 eax
  004ac	8d 8d b8 fe ff
	ff		 lea	 ecx, DWORD PTR $T107860[ebp]
  004b2	c7 45 fc 08 00
	00 00		 mov	 DWORD PTR __$EHRec$[ebp+8], 8
  004b9	e8 00 00 00 00	 call	 ??0ConnectException@@QAE@ABV0@@Z
  004be	68 00 00 00 00	 push	 OFFSET FLAT:__TI5?AVConnectException@@
  004c3	8d 85 b8 fe ff
	ff		 lea	 eax, DWORD PTR $T107860[ebp]
  004c9	eb 3f		 jmp	 SHORT $L108625

; 284  : 		case WSAENOTSOCK : 
; 285  : 			throw Error("The descriptor is not a socket.");

$L108513:

; 286  : 		case WSAETIMEDOUT : 
; 287  : 			throw ConnectException("Attempt to connect timed out without establishing a connection.");

  004cb	83 ec 0c	 sub	 esp, 12			; 0000000cH
  004ce	8b cc		 mov	 ecx, esp
  004d0	89 65 ec	 mov	 DWORD PTR $T107886[ebp], esp
  004d3	8d 45 f3	 lea	 eax, DWORD PTR $T107887[ebp]
  004d6	50		 push	 eax
  004d7	68 00 00 00 00	 push	 OFFSET FLAT:??_C@_0EA@GABJIBBJ@Attempt?5to?5connect?5timed?5out?5wit@
  004dc	e8 00 00 00 00	 call	 ??0?$basic_string@DV?$char_traits@D@_STL@@V?$allocator@D@2@@_STL@@QAE@PBDABV?$allocator@D@1@@Z ; _STL::basic_string<char,_STL::char_traits<char>,_STL::allocator<char> >::basic_string<char,_STL::char_traits<char>,_STL::allocator<char> >
  004e1	8d 8d a0 fd ff
	ff		 lea	 ecx, DWORD PTR $T107885[ebp]
  004e7	e8 00 00 00 00	 call	 ??0ConnectException@@QAE@V?$basic_string@DV?$char_traits@D@_STL@@V?$allocator@D@2@@_STL@@@Z ; ConnectException::ConnectException
  004ec	50		 push	 eax
  004ed	8d 8d 90 fe ff
	ff		 lea	 ecx, DWORD PTR $T107884[ebp]
  004f3	c7 45 fc 0f 00
	00 00		 mov	 DWORD PTR __$EHRec$[ebp+8], 15 ; 0000000fH
  004fa	e8 00 00 00 00	 call	 ??0ConnectException@@QAE@ABV0@@Z
  004ff	68 00 00 00 00	 push	 OFFSET FLAT:__TI5?AVConnectException@@
  00504	8d 85 90 fe ff
	ff		 lea	 eax, DWORD PTR $T107884[ebp]
$L108625:
  0050a	50		 push	 eax
  0050b	e8 00 00 00 00	 call	 __CxxThrowException@8
$L108627:
$L99694:

; 295  : 		}//end of switch
; 296  : #endif
; 297  : 	}
; 298  : 	
; 299  : 	__END_CATCH
; 300  : }

  00510	8b 4d f4	 mov	 ecx, DWORD PTR __$EHRec$[ebp]
  00513	64 89 0d 00 00
	00 00		 mov	 DWORD PTR fs:__except_list, ecx
  0051a	c9		 leave
  0051b	c3		 ret	 0
$L108624:
_TEXT	ENDS
;	COMDAT text$x
text$x	SEGMENT
$L107920:
  00000	8d 8d dc fd ff
	ff		 lea	 ecx, DWORD PTR $T107889[ebp]
  00006	e9 00 00 00 00	 jmp	 ??1ConnectException@@UAE@XZ
$L107910:
  0000b	8d 8d 68 ff ff
	ff		 lea	 ecx, DWORD PTR $T107868[ebp]
  00011	e9 00 00 00 00	 jmp	 ??1?$basic_string@DV?$char_traits@D@_STL@@V?$allocator@D@2@@_STL@@QAE@XZ ; _STL::basic_string<char,_STL::char_traits<char>,_STL::allocator<char> >::~basic_string<char,_STL::char_traits<char>,_STL::allocator<char> >
$L107909:
  00016	8d 4d 8c	 lea	 ecx, DWORD PTR $T107865[ebp]
  00019	e9 00 00 00 00	 jmp	 ??1?$basic_string@DV?$char_traits@D@_STL@@V?$allocator@D@2@@_STL@@QAE@XZ ; _STL::basic_string<char,_STL::char_traits<char>,_STL::allocator<char> >::~basic_string<char,_STL::char_traits<char>,_STL::allocator<char> >
$L107901:
  0001e	8d 4d bc	 lea	 ecx, DWORD PTR $T107845[ebp]
  00021	e9 00 00 00 00	 jmp	 ??1?$basic_string@DV?$char_traits@D@_STL@@V?$allocator@D@2@@_STL@@QAE@XZ ; _STL::basic_string<char,_STL::char_traits<char>,_STL::allocator<char> >::~basic_string<char,_STL::char_traits<char>,_STL::allocator<char> >
$L107902:
  00026	8d 8d 74 ff ff
	ff		 lea	 ecx, DWORD PTR $T107848[ebp]
  0002c	e9 00 00 00 00	 jmp	 ??1?$basic_string@DV?$char_traits@D@_STL@@V?$allocator@D@2@@_STL@@QAE@XZ ; _STL::basic_string<char,_STL::char_traits<char>,_STL::allocator<char> >::~basic_string<char,_STL::char_traits<char>,_STL::allocator<char> >
$L107906:
  00031	8d 4d a4	 lea	 ecx, DWORD PTR $T107858[ebp]
  00034	e9 00 00 00 00	 jmp	 ??1?$basic_string@DV?$char_traits@D@_STL@@V?$allocator@D@2@@_STL@@QAE@XZ ; _STL::basic_string<char,_STL::char_traits<char>,_STL::allocator<char> >::~basic_string<char,_STL::char_traits<char>,_STL::allocator<char> >
$L107916:
  00039	8d 4d e0	 lea	 ecx, DWORD PTR $T107882[ebp]
  0003c	e9 00 00 00 00	 jmp	 ??1?$basic_string@DV?$char_traits@D@_STL@@V?$allocator@D@2@@_STL@@QAE@XZ ; _STL::basic_string<char,_STL::char_traits<char>,_STL::allocator<char> >::~basic_string<char,_STL::char_traits<char>,_STL::allocator<char> >
$L107903:
  00041	8d 4d d4	 lea	 ecx, DWORD PTR $T107851[ebp]
  00044	e9 00 00 00 00	 jmp	 ??1?$basic_string@DV?$char_traits@D@_STL@@V?$allocator@D@2@@_STL@@QAE@XZ ; _STL::basic_string<char,_STL::char_traits<char>,_STL::allocator<char> >::~basic_string<char,_STL::char_traits<char>,_STL::allocator<char> >
$L107900:
  00049	8d 4d c8	 lea	 ecx, DWORD PTR $T107842[ebp]
  0004c	e9 00 00 00 00	 jmp	 ??1?$basic_string@DV?$char_traits@D@_STL@@V?$allocator@D@2@@_STL@@QAE@XZ ; _STL::basic_string<char,_STL::char_traits<char>,_STL::allocator<char> >::~basic_string<char,_STL::char_traits<char>,_STL::allocator<char> >
$L107915:
  00051	8d 4d b0	 lea	 ecx, DWORD PTR $T107879[ebp]
  00054	e9 00 00 00 00	 jmp	 ??1?$basic_string@DV?$char_traits@D@_STL@@V?$allocator@D@2@@_STL@@QAE@XZ ; _STL::basic_string<char,_STL::char_traits<char>,_STL::allocator<char> >::~basic_string<char,_STL::char_traits<char>,_STL::allocator<char> >
$L107914:
  00059	8d 8d 78 fd ff
	ff		 lea	 ecx, DWORD PTR $T107875[ebp]
  0005f	e9 00 00 00 00	 jmp	 ??1ConnectException@@UAE@XZ
$L107899:
  00064	8d 4d 98	 lea	 ecx, DWORD PTR $T107839[ebp]
  00067	e9 00 00 00 00	 jmp	 ??1?$basic_string@DV?$char_traits@D@_STL@@V?$allocator@D@2@@_STL@@QAE@XZ ; _STL::basic_string<char,_STL::char_traits<char>,_STL::allocator<char> >::~basic_string<char,_STL::char_traits<char>,_STL::allocator<char> >
$L107905:
  0006c	8d 8d b4 fd ff
	ff		 lea	 ecx, DWORD PTR $T107854[ebp]
  00072	e9 00 00 00 00	 jmp	 ??1ConnectException@@UAE@XZ
$L107912:
  00077	8d 8d 8c fd ff
	ff		 lea	 ecx, DWORD PTR $T107871[ebp]
  0007d	e9 00 00 00 00	 jmp	 ??1ConnectException@@UAE@XZ
$L107921:
  00082	8d 4d 80	 lea	 ecx, DWORD PTR $T107893[ebp]
  00085	e9 00 00 00 00	 jmp	 ??1?$basic_string@DV?$char_traits@D@_STL@@V?$allocator@D@2@@_STL@@QAE@XZ ; _STL::basic_string<char,_STL::char_traits<char>,_STL::allocator<char> >::~basic_string<char,_STL::char_traits<char>,_STL::allocator<char> >
$L107898:
  0008a	8d 8d 5c ff ff
	ff		 lea	 ecx, DWORD PTR $T107836[ebp]
  00090	e9 00 00 00 00	 jmp	 ??1?$basic_string@DV?$char_traits@D@_STL@@V?$allocator@D@2@@_STL@@QAE@XZ ; _STL::basic_string<char,_STL::char_traits<char>,_STL::allocator<char> >::~basic_string<char,_STL::char_traits<char>,_STL::allocator<char> >
$L107908:
  00095	8d 8d c8 fd ff
	ff		 lea	 ecx, DWORD PTR $T107861[ebp]
  0009b	e9 00 00 00 00	 jmp	 ??1ConnectException@@UAE@XZ
$L107918:
  000a0	8d 8d a0 fd ff
	ff		 lea	 ecx, DWORD PTR $T107885[ebp]
  000a6	e9 00 00 00 00	 jmp	 ??1ConnectException@@UAE@XZ
__ehhandler$?connect_ex@SocketAPI@@YAXIPBUsockaddr@@I@Z:
  000ab	b8 00 00 00 00	 mov	 eax, OFFSET FLAT:$T108622
  000b0	e9 00 00 00 00	 jmp	 ___CxxFrameHandler
text$x	ENDS
?connect_ex@SocketAPI@@YAXIPBUsockaddr@@I@Z ENDP	; SocketAPI::connect_ex
PUBLIC	?bind_ex@SocketAPI@@YAXIPBUsockaddr@@I@Z	; SocketAPI::bind_ex
PUBLIC	__TI5?AVBindException@@
PUBLIC	__CTA5?AVBindException@@
PUBLIC	__CT??_R0?AVBindException@@@8??0BindException@@QAE@ABV0@@Z20
PUBLIC	??_C@_0BBF@PFOALLAD@A?5process?5on?5the?5machine?5is?5alre@ ; `string'
PUBLIC	??_C@_0DP@BCGDOFHN@The?5specified?5address?5is?5not?5a?5v@ ; `string'
PUBLIC	??_C@_0BFF@ICELJIHE@The?5name?5or?5the?5namelen?5paramete@ ; `string'
PUBLIC	??_C@_0CL@NDPGBJGA@The?5socket?5is?5already?5bound?5to?5a@ ; `string'
PUBLIC	??_C@_0DE@MNEOPKLK@Not?5enough?5buffers?5available?0?5to@ ; `string'
PUBLIC	??_C@_06LBBPACBE@bind?$CI?$CJ?$AA@		; `string'
EXTRN	_bind@12:NEAR
;	COMDAT xdata$x
; File c:\stlport-4.6.1\stlport\stl\_alloc.h
xdata$x	SEGMENT
$T109067 DD	0ffffffffH
	DD	FLAT:$L108667
	DD	0ffffffffH
	DD	FLAT:$L108668
	DD	0ffffffffH
	DD	FLAT:$L108670
	DD	0ffffffffH
	DD	FLAT:$L108672
	DD	0ffffffffH
	DD	FLAT:$L108674
	DD	0ffffffffH
	DD	FLAT:$L108675
	DD	0ffffffffH
	DD	FLAT:$L108677
	DD	0ffffffffH
	DD	FLAT:$L108678
	DD	0ffffffffH
	DD	FLAT:$L108679
	DD	0ffffffffH
	DD	FLAT:$L108680
$T109063 DD	019930520H
	DD	0aH
	DD	FLAT:$T109067
	DD	2 DUP(00H)
	DD	2 DUP(00H)
xdata$x	ENDS
;	COMDAT ??_C@_0CL@NDPGBJGA@The?5socket?5is?5already?5bound?5to?5a@
CONST	SEGMENT
??_C@_0CL@NDPGBJGA@The?5socket?5is?5already?5bound?5to?5a@ DB 'The socket'
	DB	' is already bound to an address.', 00H	; `string'
CONST	ENDS
;	COMDAT __TI5?AVBindException@@
xdata$x	SEGMENT
__TI5?AVBindException@@ DD 00H
	DD	FLAT:??1BindException@@UAE@XZ
	DD	00H
	DD	FLAT:__CTA5?AVBindException@@
xdata$x	ENDS
;	COMDAT ??_C@_0BFF@ICELJIHE@The?5name?5or?5the?5namelen?5paramete@
CONST	SEGMENT
??_C@_0BFF@ICELJIHE@The?5name?5or?5the?5namelen?5paramete@ DB 'The name o'
	DB	'r the namelen parameter is not a valid part of the user addre'
	DB	'ss space, the namelen parameter is too small, the name parame'
	DB	'ter contains incorrect address format for the associated addr'
	DB	'ess family, or the first two bytes of the memory block specif'
	DB	'ied by name does not match the address family associated with'
	DB	' the socket descriptor s.', 00H		; `string'
CONST	ENDS
;	COMDAT ??_C@_0BBF@PFOALLAD@A?5process?5on?5the?5machine?5is?5alre@
CONST	SEGMENT
??_C@_0BBF@PFOALLAD@A?5process?5on?5the?5machine?5is?5alre@ DB 'A process'
	DB	' on the machine is already bound to the same fully-qualified '
	DB	'address and the socket has not been marked to allow address r'
	DB	'e-use with SO_REUSEADDR. For example, IP address and port are'
	DB	' bound in the af_inet case) . (See the SO_REUSEADDR socket op'
	DB	'tion under setsockopt.)', 00H		; `string'
CONST	ENDS
;	COMDAT ??_C@_06LBBPACBE@bind?$CI?$CJ?$AA@
CONST	SEGMENT
??_C@_06LBBPACBE@bind?$CI?$CJ?$AA@ DB 'bind()', 00H	; `string'
CONST	ENDS
;	COMDAT ??_C@_0DE@MNEOPKLK@Not?5enough?5buffers?5available?0?5to@
CONST	SEGMENT
??_C@_0DE@MNEOPKLK@Not?5enough?5buffers?5available?0?5to@ DB 'Not enough '
	DB	'buffers available, too many connections.', 00H ; `string'
CONST	ENDS
;	COMDAT ??_C@_0DP@BCGDOFHN@The?5specified?5address?5is?5not?5a?5v@
CONST	SEGMENT
??_C@_0DP@BCGDOFHN@The?5specified?5address?5is?5not?5a?5v@ DB 'The specif'
	DB	'ied address is not a valid address for this machine.', 00H ; `string'
CONST	ENDS
;	COMDAT __CTA5?AVBindException@@
xdata$x	SEGMENT
__CTA5?AVBindException@@ DD 05H
	DD	FLAT:__CT??_R0?AVBindException@@@8??0BindException@@QAE@ABV0@@Z20
	DD	FLAT:__CT??_R0?AVSocketException@@@8??0SocketException@@QAE@ABV0@@Z20
	DD	FLAT:__CT??_R0?AVIOException@@@8??0IOException@@QAE@ABV0@@Z20
	DD	FLAT:__CT??_R0?AVException@@@8??0Exception@@QAE@ABV0@@Z20
	DD	FLAT:__CT??_R0?AVThrowable@@@8??0Throwable@@QAE@ABV0@@Z20
xdata$x	ENDS
;	COMDAT __CT??_R0?AVBindException@@@8??0BindException@@QAE@ABV0@@Z20
xdata$x	SEGMENT
__CT??_R0?AVBindException@@@8??0BindException@@QAE@ABV0@@Z20 DD 00H
	DD	FLAT:??_R0?AVBindException@@@8
	DD	00H
	DD	0ffffffffH
	ORG $+4
	DD	014H
	DD	FLAT:??0BindException@@QAE@ABV0@@Z
; Function compile flags: /Ogsy
; File c:\darkeden\designed_common\project\client\packet\socketapi.cpp
xdata$x	ENDS
;	COMDAT ?bind_ex@SocketAPI@@YAXIPBUsockaddr@@I@Z
_TEXT	SEGMENT
$T108647 = -376						; size = 20
$T108639 = -356						; size = 20
$T108643 = -336						; size = 20
$T108654 = -316						; size = 20
$T108632 = -296						; size = 20
$T108657 = -276						; size = 20
$T108638 = -256						; size = 20
$T108650 = -236						; size = 20
$T108660 = -216						; size = 20
$T108646 = -196						; size = 20
$T108642 = -176						; size = 20
$T108635 = -156						; size = 20
$T108653 = -136						; size = 20
$T108663 = -116						; size = 24
$T108636 = -92						; size = 12
$T108661 = -80						; size = 12
$T108651 = -68						; size = 12
$T108658 = -56						; size = 12
$T108633 = -44						; size = 12
$T108664 = -32						; size = 12
$T108655 = -20						; size = 4
$T108648 = -20						; size = 4
$T108644 = -20						; size = 4
$T108640 = -20						; size = 4
$T108665 = -13						; size = 1
$T108662 = -13						; size = 1
$T108659 = -13						; size = 1
$T108656 = -13						; size = 1
$T108652 = -13						; size = 1
$T108649 = -13						; size = 1
$T108645 = -13						; size = 1
$T108641 = -13						; size = 1
$T108637 = -13						; size = 1
$T108634 = -13						; size = 1
__$EHRec$ = -12						; size = 12
_s$ = 8							; size = 4
_addr$ = 12						; size = 4
_addrlen$ = 16						; size = 4
?bind_ex@SocketAPI@@YAXIPBUsockaddr@@I@Z PROC NEAR	; SocketAPI::bind_ex, COMDAT

; 135  : {

  00000	b8 00 00 00 00	 mov	 eax, __ehhandler$?bind_ex@SocketAPI@@YAXIPBUsockaddr@@I@Z
  00005	e8 00 00 00 00	 call	 __EH_prolog
  0000a	81 ec 6c 01 00
	00		 sub	 esp, 364		; 0000016cH

; 136  : 	__BEGIN_TRY
; 137  : 
; 138  : 	if ( bind ( s , addr , addrlen ) == SOCKET_ERROR ) {

  00010	ff 75 10	 push	 DWORD PTR _addrlen$[ebp]
  00013	ff 75 0c	 push	 DWORD PTR _addr$[ebp]
  00016	ff 75 08	 push	 DWORD PTR _s$[ebp]
  00019	e8 00 00 00 00	 call	 _bind@12
  0001e	83 f8 ff	 cmp	 eax, -1
  00021	0f 85 a4 02 00
	00		 jne	 $L99606

; 139  : #if __LINUX__
; 140  : 		switch ( errno ) {
; 141  : 		case EADDRINUSE :
; 142  : 			throw BindException("The address is already in use. kill another server or use another port.      .    ,    .");
; 143  : 		case EINVAL : 
; 144  : 			throw BindException("The socket is already bound to an address , or the addr_len was wrong, or the socket was not in the AF_UNIX family.");
; 145  : 		case EACCES : 
; 146  : 			throw BindException("The address is protected, and the user is not the super-user. or search permission is denied on a component of the path prefix.");
; 147  : 		case ENOTSOCK : 
; 148  : 			throw Error("Argument is a descriptor for a file, not a socket. The following errors are specific to UNIX domain (AF_UNIX) sockets:");
; 149  : 		case EBADF : 
; 150  : 			throw Error("sockfd is not a valid descriptor.");
; 151  : 		case EROFS : 
; 152  : 			throw Error("The socket inode would reside on a read-only file system.");
; 153  : 		case EFAULT : 
; 154  : 			throw Error("my_addr points outside your accessible address space.");
; 155  : 		case ENAMETOOLONG : 
; 156  : 			throw Error("my_addr is too long.");
; 157  : 		case ENOENT : 
; 158  : 			throw Error("The file does not exist.");
; 159  : 		case ENOMEM : 
; 160  : 			throw Error("Insufficient kernel memory was available.");
; 161  : 		case ENOTDIR : 
; 162  : 			throw Error("A component of the path prefix is not a directory.");
; 163  : 		case ELOOP : 
; 164  : 			throw Error("Too many symbolic links were encountered in resolving my_addr.");
; 165  : 		default :
; 166  : 			throw UnknownError(strerror(errno),errno);
; 167  : 		}//end of switch
; 168  : #elif __WINDOWS__
; 169  : 		switch ( WSAGetLastError() ) {

  00027	e8 00 00 00 00	 call	 _WSAGetLastError@0
  0002c	b9 40 27 00 00	 mov	 ecx, 10048		; 00002740H
  00031	3b c1		 cmp	 eax, ecx
  00033	0f 8f 5d 01 00
	00		 jg	 $L108666
  00039	0f 84 13 01 00
	00		 je	 $L108765
  0003f	2d 1e 27 00 00	 sub	 eax, 10014		; 0000271eH
  00044	0f 84 c4 00 00
	00		 je	 $L108825
  0004a	83 e8 08	 sub	 eax, 8
  0004d	74 7b		 je	 SHORT $L108898
  0004f	83 e8 0e	 sub	 eax, 14			; 0000000eH
  00052	74 3f		 je	 SHORT $L108855
  00054	48		 dec	 eax
  00055	48		 dec	 eax
  00056	0f 85 56 01 00
	00		 jne	 $L109014

; 186  : 		case WSAENOTSOCK : 
; 187  : 			throw Error("The descriptor is not a socket.");

  0005c	8d 45 f3	 lea	 eax, DWORD PTR $T108662[ebp]
  0005f	50		 push	 eax
  00060	68 00 00 00 00	 push	 OFFSET FLAT:??_C@_0CA@EGNBMMLP@The?5descriptor?5is?5not?5a?5socket?4?$AA@
  00065	8d 4d b0	 lea	 ecx, DWORD PTR $T108661[ebp]
  00068	e8 00 00 00 00	 call	 ??0?$basic_string@DV?$char_traits@D@_STL@@V?$allocator@D@2@@_STL@@QAE@PBDABV?$allocator@D@1@@Z ; _STL::basic_string<char,_STL::char_traits<char>,_STL::allocator<char> >::basic_string<char,_STL::char_traits<char>,_STL::allocator<char> >
  0006d	8d 45 b0	 lea	 eax, DWORD PTR $T108661[ebp]
  00070	50		 push	 eax
  00071	8d 8d 28 ff ff
	ff		 lea	 ecx, DWORD PTR $T108660[ebp]
  00077	c7 45 fc 08 00
	00 00		 mov	 DWORD PTR __$EHRec$[ebp+8], 8
  0007e	e8 00 00 00 00	 call	 ??0Error@@QAE@ABV?$basic_string@DV?$char_traits@D@_STL@@V?$allocator@D@2@@_STL@@@Z ; Error::Error
  00083	68 00 00 00 00	 push	 OFFSET FLAT:__TI2?AVError@@
  00088	8d 85 28 ff ff
	ff		 lea	 eax, DWORD PTR $T108660[ebp]
  0008e	e9 32 02 00 00	 jmp	 $L109066

; 178  : 		case WSAEFAULT : 
; 179  : 			throw BindException("The name or the namelen parameter is not a valid part of the user address space, the namelen parameter is too small, the name parameter contains incorrect address format for the associated address family, or the first two bytes of the memory block specified by name does not match the address family associated with the socket descriptor s.");

$L108855:

; 180  : 		case WSAEINPROGRESS : 
; 181  : 			throw Error("A blocking Windows Sockets 1.1 call is in progress, or the service provider is still processing a callback function.");

  00093	8d 45 f3	 lea	 eax, DWORD PTR $T108652[ebp]
  00096	50		 push	 eax
  00097	68 00 00 00 00	 push	 OFFSET FLAT:??_C@_0HF@MHMDKDMH@A?5blocking?5Windows?5Sockets?51?41?5c@
  0009c	8d 4d bc	 lea	 ecx, DWORD PTR $T108651[ebp]
  0009f	e8 00 00 00 00	 call	 ??0?$basic_string@DV?$char_traits@D@_STL@@V?$allocator@D@2@@_STL@@QAE@PBDABV?$allocator@D@1@@Z ; _STL::basic_string<char,_STL::char_traits<char>,_STL::allocator<char> >::basic_string<char,_STL::char_traits<char>,_STL::allocator<char> >
  000a4	8d 45 bc	 lea	 eax, DWORD PTR $T108651[ebp]
  000a7	50		 push	 eax
  000a8	8d 8d 14 ff ff
	ff		 lea	 ecx, DWORD PTR $T108650[ebp]
  000ae	c7 45 fc 05 00
	00 00		 mov	 DWORD PTR __$EHRec$[ebp+8], 5
  000b5	e8 00 00 00 00	 call	 ??0Error@@QAE@ABV?$basic_string@DV?$char_traits@D@_STL@@V?$allocator@D@2@@_STL@@@Z ; Error::Error
  000ba	68 00 00 00 00	 push	 OFFSET FLAT:__TI2?AVError@@
  000bf	8d 85 14 ff ff
	ff		 lea	 eax, DWORD PTR $T108650[ebp]
  000c5	e9 fb 01 00 00	 jmp	 $L109066
$L108898:

; 182  : 		case WSAEINVAL : 
; 183  : 			throw BindException("The socket is already bound to an address.");

  000ca	83 ec 0c	 sub	 esp, 12			; 0000000cH
  000cd	8b cc		 mov	 ecx, esp
  000cf	89 65 ec	 mov	 DWORD PTR $T108655[ebp], esp
  000d2	8d 45 f3	 lea	 eax, DWORD PTR $T108656[ebp]
  000d5	50		 push	 eax
  000d6	68 00 00 00 00	 push	 OFFSET FLAT:??_C@_0CL@NDPGBJGA@The?5socket?5is?5already?5bound?5to?5a@
  000db	e8 00 00 00 00	 call	 ??0?$basic_string@DV?$char_traits@D@_STL@@V?$allocator@D@2@@_STL@@QAE@PBDABV?$allocator@D@1@@Z ; _STL::basic_string<char,_STL::char_traits<char>,_STL::allocator<char> >::basic_string<char,_STL::char_traits<char>,_STL::allocator<char> >
  000e0	8d 8d c4 fe ff
	ff		 lea	 ecx, DWORD PTR $T108654[ebp]
  000e6	e8 00 00 00 00	 call	 ??0BindException@@QAE@V?$basic_string@DV?$char_traits@D@_STL@@V?$allocator@D@2@@_STL@@@Z ; BindException::BindException
  000eb	50		 push	 eax
  000ec	8d 8d 78 ff ff
	ff		 lea	 ecx, DWORD PTR $T108653[ebp]
  000f2	c7 45 fc 06 00
	00 00		 mov	 DWORD PTR __$EHRec$[ebp+8], 6
  000f9	e8 00 00 00 00	 call	 ??0BindException@@QAE@ABV0@@Z
  000fe	68 00 00 00 00	 push	 OFFSET FLAT:__TI5?AVBindException@@
  00103	8d 85 78 ff ff
	ff		 lea	 eax, DWORD PTR $T108653[ebp]
  00109	e9 b7 01 00 00	 jmp	 $L109066

; 176  : 		case WSAEADDRNOTAVAIL : 
; 177  : 			throw BindException("The specified address is not a valid address for this machine.");

$L108825:

; 178  : 		case WSAEFAULT : 
; 179  : 			throw BindException("The name or the namelen parameter is not a valid part of the user address space, the namelen parameter is too small, the name parameter contains incorrect address format for the associated address family, or the first two bytes of the memory block specified by name does not match the address family associated with the socket descriptor s.");

  0010e	83 ec 0c	 sub	 esp, 12			; 0000000cH
  00111	8b cc		 mov	 ecx, esp
  00113	89 65 ec	 mov	 DWORD PTR $T108648[ebp], esp
  00116	8d 45 f3	 lea	 eax, DWORD PTR $T108649[ebp]
  00119	50		 push	 eax
  0011a	68 00 00 00 00	 push	 OFFSET FLAT:??_C@_0BFF@ICELJIHE@The?5name?5or?5the?5namelen?5paramete@
  0011f	e8 00 00 00 00	 call	 ??0?$basic_string@DV?$char_traits@D@_STL@@V?$allocator@D@2@@_STL@@QAE@PBDABV?$allocator@D@1@@Z ; _STL::basic_string<char,_STL::char_traits<char>,_STL::allocator<char> >::basic_string<char,_STL::char_traits<char>,_STL::allocator<char> >
  00124	8d 8d 88 fe ff
	ff		 lea	 ecx, DWORD PTR $T108647[ebp]
  0012a	e8 00 00 00 00	 call	 ??0BindException@@QAE@V?$basic_string@DV?$char_traits@D@_STL@@V?$allocator@D@2@@_STL@@@Z ; BindException::BindException
  0012f	50		 push	 eax
  00130	8d 8d 3c ff ff
	ff		 lea	 ecx, DWORD PTR $T108646[ebp]
  00136	c7 45 fc 04 00
	00 00		 mov	 DWORD PTR __$EHRec$[ebp+8], 4
  0013d	e8 00 00 00 00	 call	 ??0BindException@@QAE@ABV0@@Z
  00142	68 00 00 00 00	 push	 OFFSET FLAT:__TI5?AVBindException@@
  00147	8d 85 3c ff ff
	ff		 lea	 eax, DWORD PTR $T108646[ebp]
  0014d	e9 73 01 00 00	 jmp	 $L109066

; 172  : 		case WSAENETDOWN : 
; 173  : 			throw Error("The network subsystem has failed.");

$L108765:

; 174  : 		case WSAEADDRINUSE : 
; 175  : 			throw BindException("A process on the machine is already bound to the same fully-qualified address and the socket has not been marked to allow address re-use with SO_REUSEADDR. For example, IP address and port are bound in the af_inet case) . (See the SO_REUSEADDR socket option under setsockopt.)");

  00152	83 ec 0c	 sub	 esp, 12			; 0000000cH
  00155	8b cc		 mov	 ecx, esp
  00157	89 65 ec	 mov	 DWORD PTR $T108640[ebp], esp
  0015a	8d 45 f3	 lea	 eax, DWORD PTR $T108641[ebp]
  0015d	50		 push	 eax
  0015e	68 00 00 00 00	 push	 OFFSET FLAT:??_C@_0BBF@PFOALLAD@A?5process?5on?5the?5machine?5is?5alre@
  00163	e8 00 00 00 00	 call	 ??0?$basic_string@DV?$char_traits@D@_STL@@V?$allocator@D@2@@_STL@@QAE@PBDABV?$allocator@D@1@@Z ; _STL::basic_string<char,_STL::char_traits<char>,_STL::allocator<char> >::basic_string<char,_STL::char_traits<char>,_STL::allocator<char> >
  00168	8d 8d 9c fe ff
	ff		 lea	 ecx, DWORD PTR $T108639[ebp]
  0016e	e8 00 00 00 00	 call	 ??0BindException@@QAE@V?$basic_string@DV?$char_traits@D@_STL@@V?$allocator@D@2@@_STL@@@Z ; BindException::BindException
  00173	50		 push	 eax
  00174	8d 8d 00 ff ff
	ff		 lea	 ecx, DWORD PTR $T108638[ebp]
  0017a	c7 45 fc 02 00
	00 00		 mov	 DWORD PTR __$EHRec$[ebp+8], 2
  00181	e8 00 00 00 00	 call	 ??0BindException@@QAE@ABV0@@Z
  00186	68 00 00 00 00	 push	 OFFSET FLAT:__TI5?AVBindException@@
  0018b	8d 85 00 ff ff
	ff		 lea	 eax, DWORD PTR $T108638[ebp]
  00191	e9 2f 01 00 00	 jmp	 $L109066
$L108666:

; 139  : #if __LINUX__
; 140  : 		switch ( errno ) {
; 141  : 		case EADDRINUSE :
; 142  : 			throw BindException("The address is already in use. kill another server or use another port.      .    ,    .");
; 143  : 		case EINVAL : 
; 144  : 			throw BindException("The socket is already bound to an address , or the addr_len was wrong, or the socket was not in the AF_UNIX family.");
; 145  : 		case EACCES : 
; 146  : 			throw BindException("The address is protected, and the user is not the super-user. or search permission is denied on a component of the path prefix.");
; 147  : 		case ENOTSOCK : 
; 148  : 			throw Error("Argument is a descriptor for a file, not a socket. The following errors are specific to UNIX domain (AF_UNIX) sockets:");
; 149  : 		case EBADF : 
; 150  : 			throw Error("sockfd is not a valid descriptor.");
; 151  : 		case EROFS : 
; 152  : 			throw Error("The socket inode would reside on a read-only file system.");
; 153  : 		case EFAULT : 
; 154  : 			throw Error("my_addr points outside your accessible address space.");
; 155  : 		case ENAMETOOLONG : 
; 156  : 			throw Error("my_addr is too long.");
; 157  : 		case ENOENT : 
; 158  : 			throw Error("The file does not exist.");
; 159  : 		case ENOMEM : 
; 160  : 			throw Error("Insufficient kernel memory was available.");
; 161  : 		case ENOTDIR : 
; 162  : 			throw Error("A component of the path prefix is not a directory.");
; 163  : 		case ELOOP : 
; 164  : 			throw Error("Too many symbolic links were encountered in resolving my_addr.");
; 165  : 		default :
; 166  : 			throw UnknownError(strerror(errno),errno);
; 167  : 		}//end of switch
; 168  : #elif __WINDOWS__
; 169  : 		switch ( WSAGetLastError() ) {

  00196	2d 41 27 00 00	 sub	 eax, 10049		; 00002741H
  0019b	0f 84 e5 00 00
	00		 je	 $L108795
  001a1	48		 dec	 eax
  001a2	0f 84 aa 00 00
	00		 je	 $L108722
  001a8	83 e8 05	 sub	 eax, 5
  001ab	74 71		 je	 SHORT $L108928
  001ad	83 e8 26	 sub	 eax, 38			; 00000026H
  001b0	74 38		 je	 SHORT $L99609

; 186  : 		case WSAENOTSOCK : 
; 187  : 			throw Error("The descriptor is not a socket.");

$L109014:

; 188  : 		default :
; 189  : 			throw UnknownError("bind()");

  001b2	8d 45 f3	 lea	 eax, DWORD PTR $T108665[ebp]
  001b5	50		 push	 eax
  001b6	68 00 00 00 00	 push	 OFFSET FLAT:??_C@_06LBBPACBE@bind?$CI?$CJ?$AA@
  001bb	8d 4d e0	 lea	 ecx, DWORD PTR $T108664[ebp]
  001be	e8 00 00 00 00	 call	 ??0?$basic_string@DV?$char_traits@D@_STL@@V?$allocator@D@2@@_STL@@QAE@PBDABV?$allocator@D@1@@Z ; _STL::basic_string<char,_STL::char_traits<char>,_STL::allocator<char> >::basic_string<char,_STL::char_traits<char>,_STL::allocator<char> >
  001c3	8d 45 e0	 lea	 eax, DWORD PTR $T108664[ebp]
  001c6	50		 push	 eax
  001c7	8d 4d 8c	 lea	 ecx, DWORD PTR $T108663[ebp]
  001ca	c7 45 fc 09 00
	00 00		 mov	 DWORD PTR __$EHRec$[ebp+8], 9
  001d1	e8 00 00 00 00	 call	 ??0Error@@QAE@ABV?$basic_string@DV?$char_traits@D@_STL@@V?$allocator@D@2@@_STL@@@Z ; Error::Error
  001d6	c7 45 8c 00 00
	00 00		 mov	 DWORD PTR $T108663[ebp], OFFSET FLAT:??_7UnknownError@@6B@
  001dd	68 00 00 00 00	 push	 OFFSET FLAT:__TI3?AVUnknownError@@
  001e2	8d 45 8c	 lea	 eax, DWORD PTR $T108663[ebp]
  001e5	e9 db 00 00 00	 jmp	 $L109066
$L99609:

; 170  : 		case WSANOTINITIALISED : 
; 171  : 			throw Error("A successful WSAStartup must occur before using this function.");

  001ea	8d 45 f3	 lea	 eax, DWORD PTR $T108634[ebp]
  001ed	50		 push	 eax
  001ee	68 00 00 00 00	 push	 OFFSET FLAT:??_C@_0DP@GBHCAAKN@A?5successful?5WSAStartup?5must?5occ@
  001f3	8d 4d d4	 lea	 ecx, DWORD PTR $T108633[ebp]
  001f6	e8 00 00 00 00	 call	 ??0?$basic_string@DV?$char_traits@D@_STL@@V?$allocator@D@2@@_STL@@QAE@PBDABV?$allocator@D@1@@Z ; _STL::basic_string<char,_STL::char_traits<char>,_STL::allocator<char> >::basic_string<char,_STL::char_traits<char>,_STL::allocator<char> >
  001fb	83 65 fc 00	 and	 DWORD PTR __$EHRec$[ebp+8], 0
  001ff	8d 45 d4	 lea	 eax, DWORD PTR $T108633[ebp]
  00202	50		 push	 eax
  00203	8d 8d d8 fe ff
	ff		 lea	 ecx, DWORD PTR $T108632[ebp]
  00209	e8 00 00 00 00	 call	 ??0Error@@QAE@ABV?$basic_string@DV?$char_traits@D@_STL@@V?$allocator@D@2@@_STL@@@Z ; Error::Error
  0020e	68 00 00 00 00	 push	 OFFSET FLAT:__TI2?AVError@@
  00213	8d 85 d8 fe ff
	ff		 lea	 eax, DWORD PTR $T108632[ebp]
  00219	e9 a7 00 00 00	 jmp	 $L109066

; 182  : 		case WSAEINVAL : 
; 183  : 			throw BindException("The socket is already bound to an address.");

$L108928:

; 184  : 		case WSAENOBUFS : 
; 185  : 			throw Error("Not enough buffers available, too many connections.");

  0021e	8d 45 f3	 lea	 eax, DWORD PTR $T108659[ebp]
  00221	50		 push	 eax
  00222	68 00 00 00 00	 push	 OFFSET FLAT:??_C@_0DE@MNEOPKLK@Not?5enough?5buffers?5available?0?5to@
  00227	8d 4d c8	 lea	 ecx, DWORD PTR $T108658[ebp]
  0022a	e8 00 00 00 00	 call	 ??0?$basic_string@DV?$char_traits@D@_STL@@V?$allocator@D@2@@_STL@@QAE@PBDABV?$allocator@D@1@@Z ; _STL::basic_string<char,_STL::char_traits<char>,_STL::allocator<char> >::basic_string<char,_STL::char_traits<char>,_STL::allocator<char> >
  0022f	8d 45 c8	 lea	 eax, DWORD PTR $T108658[ebp]
  00232	50		 push	 eax
  00233	8d 8d ec fe ff
	ff		 lea	 ecx, DWORD PTR $T108657[ebp]
  00239	c7 45 fc 07 00
	00 00		 mov	 DWORD PTR __$EHRec$[ebp+8], 7
  00240	e8 00 00 00 00	 call	 ??0Error@@QAE@ABV?$basic_string@DV?$char_traits@D@_STL@@V?$allocator@D@2@@_STL@@@Z ; Error::Error
  00245	68 00 00 00 00	 push	 OFFSET FLAT:__TI2?AVError@@
  0024a	8d 85 ec fe ff
	ff		 lea	 eax, DWORD PTR $T108657[ebp]
  00250	eb 73		 jmp	 SHORT $L109066

; 170  : 		case WSANOTINITIALISED : 
; 171  : 			throw Error("A successful WSAStartup must occur before using this function.");

$L108722:

; 172  : 		case WSAENETDOWN : 
; 173  : 			throw Error("The network subsystem has failed.");

  00252	8d 45 f3	 lea	 eax, DWORD PTR $T108637[ebp]
  00255	50		 push	 eax
  00256	68 00 00 00 00	 push	 OFFSET FLAT:??_C@_0CC@ECDFBOEN@The?5network?5subsystem?5has?5failed@
  0025b	8d 4d a4	 lea	 ecx, DWORD PTR $T108636[ebp]
  0025e	e8 00 00 00 00	 call	 ??0?$basic_string@DV?$char_traits@D@_STL@@V?$allocator@D@2@@_STL@@QAE@PBDABV?$allocator@D@1@@Z ; _STL::basic_string<char,_STL::char_traits<char>,_STL::allocator<char> >::basic_string<char,_STL::char_traits<char>,_STL::allocator<char> >
  00263	8d 45 a4	 lea	 eax, DWORD PTR $T108636[ebp]
  00266	50		 push	 eax
  00267	8d 8d 64 ff ff
	ff		 lea	 ecx, DWORD PTR $T108635[ebp]
  0026d	c7 45 fc 01 00
	00 00		 mov	 DWORD PTR __$EHRec$[ebp+8], 1
  00274	e8 00 00 00 00	 call	 ??0Error@@QAE@ABV?$basic_string@DV?$char_traits@D@_STL@@V?$allocator@D@2@@_STL@@@Z ; Error::Error
  00279	68 00 00 00 00	 push	 OFFSET FLAT:__TI2?AVError@@
  0027e	8d 85 64 ff ff
	ff		 lea	 eax, DWORD PTR $T108635[ebp]
  00284	eb 3f		 jmp	 SHORT $L109066

; 174  : 		case WSAEADDRINUSE : 
; 175  : 			throw BindException("A process on the machine is already bound to the same fully-qualified address and the socket has not been marked to allow address re-use with SO_REUSEADDR. For example, IP address and port are bound in the af_inet case) . (See the SO_REUSEADDR socket option under setsockopt.)");

$L108795:

; 176  : 		case WSAEADDRNOTAVAIL : 
; 177  : 			throw BindException("The specified address is not a valid address for this machine.");

  00286	83 ec 0c	 sub	 esp, 12			; 0000000cH
  00289	8b cc		 mov	 ecx, esp
  0028b	89 65 ec	 mov	 DWORD PTR $T108644[ebp], esp
  0028e	8d 45 f3	 lea	 eax, DWORD PTR $T108645[ebp]
  00291	50		 push	 eax
  00292	68 00 00 00 00	 push	 OFFSET FLAT:??_C@_0DP@BCGDOFHN@The?5specified?5address?5is?5not?5a?5v@
  00297	e8 00 00 00 00	 call	 ??0?$basic_string@DV?$char_traits@D@_STL@@V?$allocator@D@2@@_STL@@QAE@PBDABV?$allocator@D@1@@Z ; _STL::basic_string<char,_STL::char_traits<char>,_STL::allocator<char> >::basic_string<char,_STL::char_traits<char>,_STL::allocator<char> >
  0029c	8d 8d b0 fe ff
	ff		 lea	 ecx, DWORD PTR $T108643[ebp]
  002a2	e8 00 00 00 00	 call	 ??0BindException@@QAE@V?$basic_string@DV?$char_traits@D@_STL@@V?$allocator@D@2@@_STL@@@Z ; BindException::BindException
  002a7	50		 push	 eax
  002a8	8d 8d 50 ff ff
	ff		 lea	 ecx, DWORD PTR $T108642[ebp]
  002ae	c7 45 fc 03 00
	00 00		 mov	 DWORD PTR __$EHRec$[ebp+8], 3
  002b5	e8 00 00 00 00	 call	 ??0BindException@@QAE@ABV0@@Z
  002ba	68 00 00 00 00	 push	 OFFSET FLAT:__TI5?AVBindException@@
  002bf	8d 85 50 ff ff
	ff		 lea	 eax, DWORD PTR $T108642[ebp]
$L109066:
  002c5	50		 push	 eax
  002c6	e8 00 00 00 00	 call	 __CxxThrowException@8
$L109068:
$L99606:

; 190  : 		}//end of switch
; 191  : #endif
; 192  : 	}
; 193  : 	
; 194  : 	__END_CATCH
; 195  : }

  002cb	8b 4d f4	 mov	 ecx, DWORD PTR __$EHRec$[ebp]
  002ce	64 89 0d 00 00
	00 00		 mov	 DWORD PTR fs:__except_list, ecx
  002d5	c9		 leave
  002d6	c3		 ret	 0
$L109065:
_TEXT	ENDS
;	COMDAT text$x
text$x	SEGMENT
$L108679:
  00000	8d 4d b0	 lea	 ecx, DWORD PTR $T108661[ebp]
  00003	e9 00 00 00 00	 jmp	 ??1?$basic_string@DV?$char_traits@D@_STL@@V?$allocator@D@2@@_STL@@QAE@XZ ; _STL::basic_string<char,_STL::char_traits<char>,_STL::allocator<char> >::~basic_string<char,_STL::char_traits<char>,_STL::allocator<char> >
$L108675:
  00008	8d 4d bc	 lea	 ecx, DWORD PTR $T108651[ebp]
  0000b	e9 00 00 00 00	 jmp	 ??1?$basic_string@DV?$char_traits@D@_STL@@V?$allocator@D@2@@_STL@@QAE@XZ ; _STL::basic_string<char,_STL::char_traits<char>,_STL::allocator<char> >::~basic_string<char,_STL::char_traits<char>,_STL::allocator<char> >
$L108677:
  00010	8d 8d c4 fe ff
	ff		 lea	 ecx, DWORD PTR $T108654[ebp]
  00016	e9 00 00 00 00	 jmp	 ??1BindException@@UAE@XZ
$L108674:
  0001b	8d 8d 88 fe ff
	ff		 lea	 ecx, DWORD PTR $T108647[ebp]
  00021	e9 00 00 00 00	 jmp	 ??1BindException@@UAE@XZ
$L108670:
  00026	8d 8d 9c fe ff
	ff		 lea	 ecx, DWORD PTR $T108639[ebp]
  0002c	e9 00 00 00 00	 jmp	 ??1BindException@@UAE@XZ
$L108680:
  00031	8d 4d e0	 lea	 ecx, DWORD PTR $T108664[ebp]
  00034	e9 00 00 00 00	 jmp	 ??1?$basic_string@DV?$char_traits@D@_STL@@V?$allocator@D@2@@_STL@@QAE@XZ ; _STL::basic_string<char,_STL::char_traits<char>,_STL::allocator<char> >::~basic_string<char,_STL::char_traits<char>,_STL::allocator<char> >
$L108667:
  00039	8d 4d d4	 lea	 ecx, DWORD PTR $T108633[ebp]
  0003c	e9 00 00 00 00	 jmp	 ??1?$basic_string@DV?$char_traits@D@_STL@@V?$allocator@D@2@@_STL@@QAE@XZ ; _STL::basic_string<char,_STL::char_traits<char>,_STL::allocator<char> >::~basic_string<char,_STL::char_traits<char>,_STL::allocator<char> >
$L108678:
  00041	8d 4d c8	 lea	 ecx, DWORD PTR $T108658[ebp]
  00044	e9 00 00 00 00	 jmp	 ??1?$basic_string@DV?$char_traits@D@_STL@@V?$allocator@D@2@@_STL@@QAE@XZ ; _STL::basic_string<char,_STL::char_traits<char>,_STL::allocator<char> >::~basic_string<char,_STL::char_traits<char>,_STL::allocator<char> >
$L108668:
  00049	8d 4d a4	 lea	 ecx, DWORD PTR $T108636[ebp]
  0004c	e9 00 00 00 00	 jmp	 ??1?$basic_string@DV?$char_traits@D@_STL@@V?$allocator@D@2@@_STL@@QAE@XZ ; _STL::basic_string<char,_STL::char_traits<char>,_STL::allocator<char> >::~basic_string<char,_STL::char_traits<char>,_STL::allocator<char> >
$L108672:
  00051	8d 8d b0 fe ff
	ff		 lea	 ecx, DWORD PTR $T108643[ebp]
  00057	e9 00 00 00 00	 jmp	 ??1BindException@@UAE@XZ
__ehhandler$?bind_ex@SocketAPI@@YAXIPBUsockaddr@@I@Z:
  0005c	b8 00 00 00 00	 mov	 eax, OFFSET FLAT:$T109063
  00061	e9 00 00 00 00	 jmp	 ___CxxFrameHandler
text$x	ENDS
?bind_ex@SocketAPI@@YAXIPBUsockaddr@@I@Z ENDP		; SocketAPI::bind_ex
END
