; Listing generated by Microsoft (R) Optimizing Compiler Version 13.10.3077 

	TITLE	\darkeden\Designed_Common\Project\Client\Updater\Update.cpp
	.386P
include listing.inc
if @Version gt 510
.model FLAT
else
_TEXT	SEGMENT PARA USE32 PUBLIC 'CODE'
_TEXT	ENDS
_DATA	SEGMENT DWORD USE32 PUBLIC 'DATA'
_DATA	ENDS
CONST	SEGMENT DWORD USE32 PUBLIC 'CONST'
CONST	ENDS
_BSS	SEGMENT DWORD USE32 PUBLIC 'BSS'
_BSS	ENDS
$$SYMBOLS	SEGMENT BYTE USE32 'DEBSYM'
$$SYMBOLS	ENDS
$$TYPES	SEGMENT BYTE USE32 'DEBTYP'
$$TYPES	ENDS
_TLS	SEGMENT DWORD USE32 PUBLIC 'TLS'
_TLS	ENDS
;	COMDAT ??_C@_0BM@NLBNCEKG@UPDATETYPE_CREATE_DIRECTORY?$AA@
CONST	SEGMENT DWORD USE32 PUBLIC 'CONST'
CONST	ENDS
;	COMDAT ??_C@_0BM@IPIPAGHC@UPDATETYPE_DELETE_DIRECTORY?$AA@
CONST	SEGMENT DWORD USE32 PUBLIC 'CONST'
CONST	ENDS
;	COMDAT ??_C@_0BM@LNFCLKLP@UPDATETYPE_RENAME_DIRECTORY?$AA@
CONST	SEGMENT DWORD USE32 PUBLIC 'CONST'
CONST	ENDS
;	COMDAT ??_C@_0BH@EOBEEPHC@UPDATETYPE_CREATE_FILE?$AA@
CONST	SEGMENT DWORD USE32 PUBLIC 'CONST'
CONST	ENDS
;	COMDAT ??_C@_0BH@BMLIANHD@UPDATETYPE_DELETE_FILE?$AA@
CONST	SEGMENT DWORD USE32 PUBLIC 'CONST'
CONST	ENDS
;	COMDAT ??_C@_0BH@MFHAOOFO@UPDATETYPE_RENAME_FILE?$AA@
CONST	SEGMENT DWORD USE32 PUBLIC 'CONST'
CONST	ENDS
;	COMDAT ??_C@_0BO@ENKAFKDF@UPDATETYPE_APPEND_SPRITE_PACK?$AA@
CONST	SEGMENT DWORD USE32 PUBLIC 'CONST'
CONST	ENDS
;	COMDAT ??_C@_0BO@IFFIBIHD@UPDATETYPE_DELETE_SPRITE_PACK?$AA@
CONST	SEGMENT DWORD USE32 PUBLIC 'CONST'
CONST	ENDS
;	COMDAT ??_C@_0BO@LJIAJNMH@UPDATETYPE_UPDATE_SPRITE_PACK?$AA@
CONST	SEGMENT DWORD USE32 PUBLIC 'CONST'
CONST	ENDS
;	COMDAT ??_C@_0BN@PLCKHCEI@UPDATETYPE_APPEND_FRAME_PACK?$AA@
CONST	SEGMENT DWORD USE32 PUBLIC 'CONST'
CONST	ENDS
;	COMDAT ??_C@_0BH@MFNLJHOP@UPDATETYPE_APPEND_INFO?$AA@
CONST	SEGMENT DWORD USE32 PUBLIC 'CONST'
CONST	ENDS
;	COMDAT ??_C@_0BC@IMMFIFOL@UPDATETYPE_VERIFY?$AA@
CONST	SEGMENT DWORD USE32 PUBLIC 'CONST'
CONST	ENDS
;	COMDAT ??_C@_0O@JKENFCBN@MinTrace?52003?$AA@
CONST	SEGMENT DWORD USE32 PUBLIC 'CONST'
CONST	ENDS
;	COMDAT ??_C@_0BE@MNEJIGLM@__MinTrace?5Window__?$AA@
CONST	SEGMENT DWORD USE32 PUBLIC 'CONST'
CONST	ENDS
;	COMDAT ??_C@_06KLPNNMEP@?$CF8d?0?$CFs?$AA@
CONST	SEGMENT DWORD USE32 PUBLIC 'CONST'
CONST	ENDS
;	COMDAT ??_C@_00CNPNBAHC@?$AA@
CONST	SEGMENT DWORD USE32 PUBLIC 'CONST'
CONST	ENDS
;	COMDAT ??_C@_06LMAGPFNF@Update?$AA@
CONST	SEGMENT DWORD USE32 PUBLIC 'CONST'
CONST	ENDS
;	COMDAT ??_C@_0N@GOPDCEEB@basic_string?$AA@
CONST	SEGMENT DWORD USE32 PUBLIC 'CONST'
CONST	ENDS
rdata$r	SEGMENT DWORD USE32 PUBLIC 'CONST'
rdata$r	ENDS
text$yc	SEGMENT PARA USE32 PUBLIC 'CODE'
text$yc	ENDS
CRT$XCA	SEGMENT DWORD USE32 PUBLIC 'DATA'
CRT$XCA	ENDS
CRT$XCU	SEGMENT DWORD USE32 PUBLIC 'DATA'
CRT$XCU	ENDS
CRT$XCL	SEGMENT DWORD USE32 PUBLIC 'DATA'
CRT$XCL	ENDS
CRT$XCC	SEGMENT DWORD USE32 PUBLIC 'DATA'
CRT$XCC	ENDS
CRT$XCZ	SEGMENT DWORD USE32 PUBLIC 'DATA'
CRT$XCZ	ENDS
text$yd	SEGMENT PARA USE32 PUBLIC 'CODE'
text$yd	ENDS
;	COMDAT _$E79
text$yc	SEGMENT PARA USE32 PUBLIC 'CODE'
text$yc	ENDS
;	COMDAT _$E80
text$yd	SEGMENT PARA USE32 PUBLIC 'CODE'
text$yd	ENDS
;	COMDAT ?_MinTraceA@@YAXPBD@Z
_TEXT	SEGMENT PARA USE32 PUBLIC 'CODE'
_TEXT	ENDS
;	COMDAT ?_MinTraceErrA@@YAXPBD@Z
_TEXT	SEGMENT PARA USE32 PUBLIC 'CODE'
_TEXT	ENDS
;	COMDAT ?_MinTraceWarA@@YAXPBD@Z
_TEXT	SEGMENT PARA USE32 PUBLIC 'CODE'
_TEXT	ENDS
;	COMDAT ?_ClMinTraceA@@YAXKPBD@Z
_TEXT	SEGMENT PARA USE32 PUBLIC 'CODE'
_TEXT	ENDS
;	COMDAT ?_CmdMinTraceA@@YAXHPBD@Z
_TEXT	SEGMENT PARA USE32 PUBLIC 'CODE'
_TEXT	ENDS
;	COMDAT ?load@Update@@QAEXAAV?$basic_ifstream@DV?$char_traits@D@_STL@@@_STL@@@Z
_TEXT	SEGMENT PARA USE32 PUBLIC 'CODE'
_TEXT	ENDS
;	COMDAT ?save@Update@@QBEXAAV?$basic_ofstream@DV?$char_traits@D@_STL@@@_STL@@@Z
_TEXT	SEGMENT PARA USE32 PUBLIC 'CODE'
_TEXT	ENDS
;	COMDAT ?getFilename@Update@@QAE?AV?$basic_string@DV?$char_traits@D@_STL@@V?$allocator@D@2@@_STL@@I@Z
_TEXT	SEGMENT PARA USE32 PUBLIC 'CODE'
_TEXT	ENDS
;	COMDAT ?getFileSize@Update@@QAEHI@Z
_TEXT	SEGMENT PARA USE32 PUBLIC 'CODE'
_TEXT	ENDS
;	COMDAT ?execute@Update@@QAE_NXZ
_TEXT	SEGMENT PARA USE32 PUBLIC 'CODE'
_TEXT	ENDS
;	COMDAT ?getSize@Update@@QBEIXZ
_TEXT	SEGMENT PARA USE32 PUBLIC 'CODE'
_TEXT	ENDS
;	COMDAT ?getMaxSize@Update@@SAIXZ
_TEXT	SEGMENT PARA USE32 PUBLIC 'CODE'
_TEXT	ENDS
;	COMDAT ??4Update@@QAEXABV0@@Z
_TEXT	SEGMENT PARA USE32 PUBLIC 'CODE'
_TEXT	ENDS
;	COMDAT ?eq@?$__char_traits_base@DH@_STL@@SA_NABD0@Z
_TEXT	SEGMENT PARA USE32 PUBLIC 'CODE'
_TEXT	ENDS
;	COMDAT ?not_eof@?$__char_traits_base@DH@_STL@@SAHABH@Z
_TEXT	SEGMENT PARA USE32 PUBLIC 'CODE'
_TEXT	ENDS
;	COMDAT ?eq_int_type@?$__char_traits_base@DH@_STL@@SA_NABH0@Z
_TEXT	SEGMENT PARA USE32 PUBLIC 'CODE'
_TEXT	ENDS
;	COMDAT ?get_allocator@?$basic_string@DV?$char_traits@D@_STL@@V?$allocator@D@2@@_STL@@QBE?AV?$allocator@D@2@XZ
_TEXT	SEGMENT PARA USE32 PUBLIC 'CODE'
_TEXT	ENDS
;	COMDAT ??4?$basic_string@DV?$char_traits@D@_STL@@V?$allocator@D@2@@_STL@@QAEAAV01@PBD@Z
_TEXT	SEGMENT PARA USE32 PUBLIC 'CODE'
_TEXT	ENDS
;	COMDAT ?_M_terminate_string@?$basic_string@DV?$char_traits@D@_STL@@V?$allocator@D@2@@_STL@@AAEXXZ
_TEXT	SEGMENT PARA USE32 PUBLIC 'CODE'
_TEXT	ENDS
;	COMDAT ?size@?$basic_string@DV?$char_traits@D@_STL@@V?$allocator@D@2@@_STL@@QBEIXZ
_TEXT	SEGMENT PARA USE32 PUBLIC 'CODE'
_TEXT	ENDS
;	COMDAT ?c_str@?$basic_string@DV?$char_traits@D@_STL@@V?$allocator@D@2@@_STL@@QBEPBDXZ
_TEXT	SEGMENT PARA USE32 PUBLIC 'CODE'
_TEXT	ENDS
;	COMDAT ?find_first_of@?$basic_string@DV?$char_traits@D@_STL@@V?$allocator@D@2@@_STL@@QBEIDI@Z
_TEXT	SEGMENT PARA USE32 PUBLIC 'CODE'
_TEXT	ENDS
;	COMDAT ?substr@?$basic_string@DV?$char_traits@D@_STL@@V?$allocator@D@2@@_STL@@QBE?AV12@II@Z
_TEXT	SEGMENT PARA USE32 PUBLIC 'CODE'
_TEXT	ENDS
;	COMDAT ??0?$_String_base@DV?$allocator@D@_STL@@@_STL@@QAE@ABV?$allocator@D@1@@Z
_TEXT	SEGMENT PARA USE32 PUBLIC 'CODE'
_TEXT	ENDS
;	COMDAT ?allocate@?$allocator@D@_STL@@QAEPADIPBX@Z
_TEXT	SEGMENT PARA USE32 PUBLIC 'CODE'
_TEXT	ENDS
;	COMDAT ??0?$fpos@H@_STL@@QAE@J@Z
_TEXT	SEGMENT PARA USE32 PUBLIC 'CODE'
_TEXT	ENDS
;	COMDAT ??B?$fpos@H@_STL@@QBEJXZ
_TEXT	SEGMENT PARA USE32 PUBLIC 'CODE'
_TEXT	ENDS
;	COMDAT ?state@?$fpos@H@_STL@@QBEHXZ
_TEXT	SEGMENT PARA USE32 PUBLIC 'CODE'
_TEXT	ENDS
;	COMDAT ?is_open@?$basic_filebuf@DV?$char_traits@D@_STL@@@_STL@@QBE_NXZ
_TEXT	SEGMENT PARA USE32 PUBLIC 'CODE'
_TEXT	ENDS
;	COMDAT ?_M_seek_return@?$basic_filebuf@DV?$char_traits@D@_STL@@@_STL@@AAE?AV?$fpos@H@2@JH@Z
_TEXT	SEGMENT PARA USE32 PUBLIC 'CODE'
_TEXT	ENDS
;	COMDAT ??0?$_Filebuf_Tmp_Buf@D@_STL@@QAE@H@Z
_TEXT	SEGMENT PARA USE32 PUBLIC 'CODE'
_TEXT	ENDS
;	COMDAT ??1?$_Filebuf_Tmp_Buf@D@_STL@@QAE@XZ
_TEXT	SEGMENT PARA USE32 PUBLIC 'CODE'
_TEXT	ENDS
;	COMDAT ??1?$basic_ifstream@DV?$char_traits@D@_STL@@@_STL@@UAE@XZ
_TEXT	SEGMENT PARA USE32 PUBLIC 'CODE'
_TEXT	ENDS
;	COMDAT ??1?$basic_ofstream@DV?$char_traits@D@_STL@@@_STL@@UAE@XZ
_TEXT	SEGMENT PARA USE32 PUBLIC 'CODE'
_TEXT	ENDS
;	COMDAT ??_G?$basic_ifstream@DV?$char_traits@D@_STL@@@_STL@@UAEPAXI@Z
_TEXT	SEGMENT PARA USE32 PUBLIC 'CODE'
_TEXT	ENDS
;	COMDAT ??_G?$basic_ofstream@DV?$char_traits@D@_STL@@@_STL@@UAEPAXI@Z
_TEXT	SEGMENT PARA USE32 PUBLIC 'CODE'
_TEXT	ENDS
;	COMDAT ??_D?$basic_ifstream@DV?$char_traits@D@_STL@@@_STL@@QAEXXZ
_TEXT	SEGMENT PARA USE32 PUBLIC 'CODE'
_TEXT	ENDS
;	COMDAT ??_D?$basic_ofstream@DV?$char_traits@D@_STL@@@_STL@@QAEXXZ
_TEXT	SEGMENT PARA USE32 PUBLIC 'CODE'
_TEXT	ENDS
;	COMDAT ?_M_terminate_string_aux@?$basic_string@DV?$char_traits@D@_STL@@V?$allocator@D@2@@_STL@@AAEXABU__true_type@2@@Z
_TEXT	SEGMENT PARA USE32 PUBLIC 'CODE'
_TEXT	ENDS
;	COMDAT ?assign@?$basic_string@DV?$char_traits@D@_STL@@V?$allocator@D@2@@_STL@@QAEAAV12@PBD0@Z
_TEXT	SEGMENT PARA USE32 PUBLIC 'CODE'
_TEXT	ENDS
;	COMDAT ??0?$allocator@D@_STL@@QAE@ABV01@@Z
_TEXT	SEGMENT PARA USE32 PUBLIC 'CODE'
_TEXT	ENDS
;	COMDAT ??0?$_STLP_alloc_proxy@PADDV?$allocator@D@_STL@@@_STL@@QAE@ABV?$allocator@D@1@PAD@Z
_TEXT	SEGMENT PARA USE32 PUBLIC 'CODE'
_TEXT	ENDS
;	COMDAT ?state@?$fpos@H@_STL@@QAEXH@Z
_TEXT	SEGMENT PARA USE32 PUBLIC 'CODE'
_TEXT	ENDS
;	COMDAT ?copy@?$__char_traits_base@DH@_STL@@SAPADPADPBDI@Z
_TEXT	SEGMENT PARA USE32 PUBLIC 'CODE'
_TEXT	ENDS
;	COMDAT ?begin@?$basic_string@DV?$char_traits@D@_STL@@V?$allocator@D@2@@_STL@@QAEPADXZ
_TEXT	SEGMENT PARA USE32 PUBLIC 'CODE'
_TEXT	ENDS
;	COMDAT ?end@?$basic_string@DV?$char_traits@D@_STL@@V?$allocator@D@2@@_STL@@QAEPADXZ
_TEXT	SEGMENT PARA USE32 PUBLIC 'CODE'
_TEXT	ENDS
;	COMDAT ?erase@?$basic_string@DV?$char_traits@D@_STL@@V?$allocator@D@2@@_STL@@QAEPADPAD0@Z
_TEXT	SEGMENT PARA USE32 PUBLIC 'CODE'
_TEXT	ENDS
;	COMDAT ?move@?$__char_traits_base@DH@_STL@@SAPADPADPBDI@Z
_TEXT	SEGMENT PARA USE32 PUBLIC 'CODE'
_TEXT	ENDS
;	COMDAT ?find@?$basic_string@DV?$char_traits@D@_STL@@V?$allocator@D@2@@_STL@@QBEIDI@Z
_TEXT	SEGMENT PARA USE32 PUBLIC 'CODE'
_TEXT	ENDS
;	COMDAT ?_M_throw_out_of_range@?$_String_base@DV?$allocator@D@_STL@@@_STL@@QBEXXZ
_TEXT	SEGMENT PARA USE32 PUBLIC 'CODE'
_TEXT	ENDS
;	COMDAT ??$_M_range_initialize@PBD@?$basic_string@DV?$char_traits@D@_STL@@V?$allocator@D@2@@_STL@@AAEXPBD0@Z
_TEXT	SEGMENT PARA USE32 PUBLIC 'CODE'
_TEXT	ENDS
;	COMDAT ??$_M_range_initialize@PAD@?$basic_string@DV?$char_traits@D@_STL@@V?$allocator@D@2@@_STL@@AAEXPAD0@Z
_TEXT	SEGMENT PARA USE32 PUBLIC 'CODE'
_TEXT	ENDS
;	COMDAT ?write@?$basic_ostream@DV?$char_traits@D@_STL@@@_STL@@QAEAAV12@PBDH@Z
_TEXT	SEGMENT PARA USE32 PUBLIC 'CODE'
_TEXT	ENDS
;	COMDAT ?close@?$basic_filebuf@DV?$char_traits@D@_STL@@@_STL@@QAEPAV12@XZ
_TEXT	SEGMENT PARA USE32 PUBLIC 'CODE'
_TEXT	ENDS
;	COMDAT ?_M_exit_input_mode@?$basic_filebuf@DV?$char_traits@D@_STL@@@_STL@@AAEXXZ
_TEXT	SEGMENT PARA USE32 PUBLIC 'CODE'
_TEXT	ENDS
;	COMDAT ?_M_switch_to_output_mode@?$basic_filebuf@DV?$char_traits@D@_STL@@@_STL@@AAE_NXZ
_TEXT	SEGMENT PARA USE32 PUBLIC 'CODE'
_TEXT	ENDS
;	COMDAT ?_M_output_error@?$basic_filebuf@DV?$char_traits@D@_STL@@@_STL@@AAEHXZ
_TEXT	SEGMENT PARA USE32 PUBLIC 'CODE'
_TEXT	ENDS
;	COMDAT ?_M_allocate_buffers@?$basic_filebuf@DV?$char_traits@D@_STL@@@_STL@@AAE_NPADH@Z
_TEXT	SEGMENT PARA USE32 PUBLIC 'CODE'
_TEXT	ENDS
;	COMDAT ?_M_deallocate_buffers@?$basic_filebuf@DV?$char_traits@D@_STL@@@_STL@@AAEXXZ
_TEXT	SEGMENT PARA USE32 PUBLIC 'CODE'
_TEXT	ENDS
;	COMDAT ?_M_seek_init@?$basic_filebuf@DV?$char_traits@D@_STL@@@_STL@@AAE_N_N@Z
_TEXT	SEGMENT PARA USE32 PUBLIC 'CODE'
_TEXT	ENDS
;	COMDAT ?_M_setup_codecvt@?$basic_filebuf@DV?$char_traits@D@_STL@@@_STL@@AAEXABVlocale@2@@Z
_TEXT	SEGMENT PARA USE32 PUBLIC 'CODE'
_TEXT	ENDS
;	COMDAT ??$equal@PADPADU?$_Eq_traits@V?$char_traits@D@_STL@@@_STL@@@_STL@@YA_NPAD00U?$_Eq_traits@V?$char_traits@D@_STL@@@0@@Z
_TEXT	SEGMENT PARA USE32 PUBLIC 'CODE'
_TEXT	ENDS
;	COMDAT ??$_Destroy@V?$basic_string@DV?$char_traits@D@_STL@@V?$allocator@D@2@@_STL@@@_STL@@YAXPAV?$basic_string@DV?$char_traits@D@_STL@@V?$allocator@D@2@@0@@Z
_TEXT	SEGMENT PARA USE32 PUBLIC 'CODE'
_TEXT	ENDS
;	COMDAT ??$_M_assign_dispatch@PAD@?$basic_string@DV?$char_traits@D@_STL@@V?$allocator@D@2@@_STL@@AAEAAV01@PAD0ABU__false_type@1@@Z
_TEXT	SEGMENT PARA USE32 PUBLIC 'CODE'
_TEXT	ENDS
;	COMDAT ?read@?$basic_istream@DV?$char_traits@D@_STL@@@_STL@@QAEAAV12@PADH@Z
_TEXT	SEGMENT PARA USE32 PUBLIC 'CODE'
_TEXT	ENDS
;	COMDAT ??$?9DV?$char_traits@D@_STL@@V?$allocator@D@1@@_STL@@YA_NABV?$basic_string@DV?$char_traits@D@_STL@@V?$allocator@D@2@@0@PBD@Z
_TEXT	SEGMENT PARA USE32 PUBLIC 'CODE'
_TEXT	ENDS
;	COMDAT ??$?HDV?$char_traits@D@_STL@@V?$allocator@D@1@@_STL@@YA?AV?$basic_string@DV?$char_traits@D@_STL@@V?$allocator@D@2@@0@ABV10@0@Z
_TEXT	SEGMENT PARA USE32 PUBLIC 'CODE'
_TEXT	ENDS
;	COMDAT ??$?0PAD@?$basic_string@DV?$char_traits@D@_STL@@V?$allocator@D@2@@_STL@@QAE@PAD0ABV?$allocator@D@1@@Z
_TEXT	SEGMENT PARA USE32 PUBLIC 'CODE'
_TEXT	ENDS
;	COMDAT ??$append@PBD@?$basic_string@DV?$char_traits@D@_STL@@V?$allocator@D@2@@_STL@@QAEAAV01@PBD0@Z
_TEXT	SEGMENT PARA USE32 PUBLIC 'CODE'
_TEXT	ENDS
;	COMDAT ??_G?$basic_string@DV?$char_traits@D@_STL@@V?$allocator@D@2@@_STL@@QAEPAXI@Z
_TEXT	SEGMENT PARA USE32 PUBLIC 'CODE'
_TEXT	ENDS
;	COMDAT ??0?$basic_string@DV?$char_traits@D@_STL@@V?$allocator@D@2@@_STL@@QAE@U_String_reserve_t@1@IABV?$allocator@D@1@@Z
_TEXT	SEGMENT PARA USE32 PUBLIC 'CODE'
_TEXT	ENDS
;	COMDAT ?append@?$basic_string@DV?$char_traits@D@_STL@@V?$allocator@D@2@@_STL@@QAEAAV12@ABV12@@Z
_TEXT	SEGMENT PARA USE32 PUBLIC 'CODE'
_TEXT	ENDS
;	COMDAT ?rdbuf@?$basic_ios@DV?$char_traits@D@_STL@@@_STL@@QBEPAV?$basic_streambuf@DV?$char_traits@D@_STL@@@2@XZ
_TEXT	SEGMENT PARA USE32 PUBLIC 'CODE'
_TEXT	ENDS
;	COMDAT ?setstate@?$basic_ios@DV?$char_traits@D@_STL@@@_STL@@QAEXH@Z
_TEXT	SEGMENT PARA USE32 PUBLIC 'CODE'
_TEXT	ENDS
;	COMDAT ?_M_exit_putback_mode@?$basic_filebuf@DV?$char_traits@D@_STL@@@_STL@@AAEXXZ
_TEXT	SEGMENT PARA USE32 PUBLIC 'CODE'
_TEXT	ENDS
;	COMDAT ??R?$_Eq_traits@V?$char_traits@D@_STL@@@_STL@@QBE_NABD0@Z
_TEXT	SEGMENT PARA USE32 PUBLIC 'CODE'
_TEXT	ENDS
;	COMDAT ??0?$_Eq_char_bound@V?$char_traits@D@_STL@@@_STL@@QAE@D@Z
_TEXT	SEGMENT PARA USE32 PUBLIC 'CODE'
_TEXT	ENDS
;	COMDAT ??0sentry@?$basic_ostream@DV?$char_traits@D@_STL@@@_STL@@QAE@AAV12@@Z
_TEXT	SEGMENT PARA USE32 PUBLIC 'CODE'
_TEXT	ENDS
;	COMDAT ??1sentry@?$basic_ostream@DV?$char_traits@D@_STL@@@_STL@@QAE@XZ
_TEXT	SEGMENT PARA USE32 PUBLIC 'CODE'
_TEXT	ENDS
;	COMDAT ??Bsentry@?$basic_ostream@DV?$char_traits@D@_STL@@@_STL@@QBE_NXZ
_TEXT	SEGMENT PARA USE32 PUBLIC 'CODE'
_TEXT	ENDS
;	COMDAT ??0sentry@?$basic_istream@DV?$char_traits@D@_STL@@@_STL@@QAE@AAV12@U_No_Skip_WS@2@@Z
_TEXT	SEGMENT PARA USE32 PUBLIC 'CODE'
_TEXT	ENDS
;	COMDAT ??1sentry@?$basic_istream@DV?$char_traits@D@_STL@@@_STL@@QAE@XZ
_TEXT	SEGMENT PARA USE32 PUBLIC 'CODE'
_TEXT	ENDS
;	COMDAT ??Bsentry@?$basic_istream@DV?$char_traits@D@_STL@@@_STL@@QBE_NXZ
_TEXT	SEGMENT PARA USE32 PUBLIC 'CODE'
_TEXT	ENDS
;	COMDAT ??0?$_Constant_unary_fun@_NH@_STL@@QAE@AB_N@Z
_TEXT	SEGMENT PARA USE32 PUBLIC 'CODE'
_TEXT	ENDS
;	COMDAT ??0?$_String_base@DV?$allocator@D@_STL@@@_STL@@QAE@ABV?$allocator@D@1@I@Z
_TEXT	SEGMENT PARA USE32 PUBLIC 'CODE'
_TEXT	ENDS
;	COMDAT ?clear@?$basic_ios@DV?$char_traits@D@_STL@@@_STL@@QAEXH@Z
_TEXT	SEGMENT PARA USE32 PUBLIC 'CODE'
_TEXT	ENDS
;	COMDAT ?flush@?$basic_ostream@DV?$char_traits@D@_STL@@@_STL@@QAEAAV12@XZ
_TEXT	SEGMENT PARA USE32 PUBLIC 'CODE'
_TEXT	ENDS
;	COMDAT ??$find_if@PBDU?$_Eq_char_bound@V?$char_traits@D@_STL@@@_STL@@@_STL@@YAPBDPBD0U?$_Eq_char_bound@V?$char_traits@D@_STL@@@0@@Z
_TEXT	SEGMENT PARA USE32 PUBLIC 'CODE'
_TEXT	ENDS
;	COMDAT ?_M_allocate_block@?$_String_base@DV?$allocator@D@_STL@@@_STL@@QAEXI@Z
_TEXT	SEGMENT PARA USE32 PUBLIC 'CODE'
_TEXT	ENDS
;	COMDAT ??$_M_range_initialize@PBD@?$basic_string@DV?$char_traits@D@_STL@@V?$allocator@D@2@@_STL@@AAEXPBD0ABUforward_iterator_tag@1@@Z
_TEXT	SEGMENT PARA USE32 PUBLIC 'CODE'
_TEXT	ENDS
;	COMDAT ??$_M_range_initialize@PAD@?$basic_string@DV?$char_traits@D@_STL@@V?$allocator@D@2@@_STL@@AAEXPAD0ABUforward_iterator_tag@1@@Z
_TEXT	SEGMENT PARA USE32 PUBLIC 'CODE'
_TEXT	ENDS
;	COMDAT ?_M_handle_exception@?$basic_ios@DV?$char_traits@D@_STL@@@_STL@@QAEXH@Z
_TEXT	SEGMENT PARA USE32 PUBLIC 'CODE'
_TEXT	ENDS
;	COMDAT ?_M_unshift@?$basic_filebuf@DV?$char_traits@D@_STL@@@_STL@@AAE_NXZ
_TEXT	SEGMENT PARA USE32 PUBLIC 'CODE'
_TEXT	ENDS
;	COMDAT ?_M_allocate_buffers@?$basic_filebuf@DV?$char_traits@D@_STL@@@_STL@@AAE_NXZ
_TEXT	SEGMENT PARA USE32 PUBLIC 'CODE'
_TEXT	ENDS
;	COMDAT ??$max@H@_STL@@YAABHABH0@Z
_TEXT	SEGMENT PARA USE32 PUBLIC 'CODE'
_TEXT	ENDS
;	COMDAT ??$use_facet@V?$codecvt@DDH@_STL@@@_STL@@YAABV?$codecvt@DDH@0@ABVlocale@0@@Z
_TEXT	SEGMENT PARA USE32 PUBLIC 'CODE'
_TEXT	ENDS
;	COMDAT ??$append@PAD@?$basic_string@DV?$char_traits@D@_STL@@V?$allocator@D@2@@_STL@@QAEAAV01@PAD0@Z
_TEXT	SEGMENT PARA USE32 PUBLIC 'CODE'
_TEXT	ENDS
;	COMDAT ??$_M_read_buffered@DV?$char_traits@D@_STL@@U?$_Constant_unary_fun@_NH@2@U?$_Project2nd@PBDPBD@2@@_STL@@YAHPAV?$basic_istream@DV?$char_traits@D@_STL@@@0@PAV?$basic_streambuf@DV?$char_traits@D@_STL@@@0@HPADU?$_Constant_unary_fun@_NH@0@U?$_Project2nd@PBDPBD@0@_N55@Z
_TEXT	SEGMENT PARA USE32 PUBLIC 'CODE'
_TEXT	ENDS
;	COMDAT ??$_M_read_unbuffered@DV?$char_traits@D@_STL@@U?$_Constant_unary_fun@_NH@2@@_STL@@YAHPAV?$basic_istream@DV?$char_traits@D@_STL@@@0@PAV?$basic_streambuf@DV?$char_traits@D@_STL@@@0@HPADU?$_Constant_unary_fun@_NH@0@_N44@Z
_TEXT	SEGMENT PARA USE32 PUBLIC 'CODE'
_TEXT	ENDS
;	COMDAT ??$?8DV?$char_traits@D@_STL@@V?$allocator@D@1@@_STL@@YA_NABV?$basic_string@DV?$char_traits@D@_STL@@V?$allocator@D@2@@0@PBD@Z
_TEXT	SEGMENT PARA USE32 PUBLIC 'CODE'
_TEXT	ENDS
;	COMDAT ??$_M_initialize_dispatch@PAD@?$basic_string@DV?$char_traits@D@_STL@@V?$allocator@D@2@@_STL@@AAEXPAD0ABU__false_type@1@@Z
_TEXT	SEGMENT PARA USE32 PUBLIC 'CODE'
_TEXT	ENDS
;	COMDAT ??$_M_append_dispatch@PBD@?$basic_string@DV?$char_traits@D@_STL@@V?$allocator@D@2@@_STL@@AAEAAV01@PBD0ABU__false_type@1@@Z
_TEXT	SEGMENT PARA USE32 PUBLIC 'CODE'
_TEXT	ENDS
;	COMDAT ??$_M_init@DV?$char_traits@D@_STL@@@_STL@@YA_NAAV?$basic_ostream@DV?$char_traits@D@_STL@@@0@@Z
_TEXT	SEGMENT PARA USE32 PUBLIC 'CODE'
_TEXT	ENDS
;	COMDAT ??$_M_init_noskip@DV?$char_traits@D@_STL@@@_STL@@YA_NAAV?$basic_istream@DV?$char_traits@D@_STL@@@0@@Z
_TEXT	SEGMENT PARA USE32 PUBLIC 'CODE'
_TEXT	ENDS
;	COMDAT ?data@?$basic_string@DV?$char_traits@D@_STL@@V?$allocator@D@2@@_STL@@QBEPBDXZ
_TEXT	SEGMENT PARA USE32 PUBLIC 'CODE'
_TEXT	ENDS
;	COMDAT ?max_size@?$_String_base@DV?$allocator@D@_STL@@@_STL@@QBEIXZ
_TEXT	SEGMENT PARA USE32 PUBLIC 'CODE'
_TEXT	ENDS
;	COMDAT ?tie@?$basic_ios@DV?$char_traits@D@_STL@@@_STL@@QBEPAV?$basic_ostream@DV?$char_traits@D@_STL@@@2@XZ
_TEXT	SEGMENT PARA USE32 PUBLIC 'CODE'
_TEXT	ENDS
;	COMDAT ?_S_eof@?$basic_ios@DV?$char_traits@D@_STL@@@_STL@@SA_NH@Z
_TEXT	SEGMENT PARA USE32 PUBLIC 'CODE'
_TEXT	ENDS
;	COMDAT ??R?$_Constant_unary_fun@_NH@_STL@@QBEAB_NABH@Z
_TEXT	SEGMENT PARA USE32 PUBLIC 'CODE'
_TEXT	ENDS
;	COMDAT ??R?$_Project2nd@PBDPBD@_STL@@QBEPBDABQBD0@Z
_TEXT	SEGMENT PARA USE32 PUBLIC 'CODE'
_TEXT	ENDS
;	COMDAT ??$__find_if@PBDU?$_Eq_char_bound@V?$char_traits@D@_STL@@@_STL@@@_STL@@YAPBDPBD0U?$_Eq_char_bound@V?$char_traits@D@_STL@@@0@ABUrandom_access_iterator_tag@0@@Z
_TEXT	SEGMENT PARA USE32 PUBLIC 'CODE'
_TEXT	ENDS
;	COMDAT ?_M_throw_length_error@?$_String_base@DV?$allocator@D@_STL@@@_STL@@QBEXXZ
_TEXT	SEGMENT PARA USE32 PUBLIC 'CODE'
_TEXT	ENDS
;	COMDAT ??$distance@PBD@_STL@@YAHABQBD0@Z
_TEXT	SEGMENT PARA USE32 PUBLIC 'CODE'
_TEXT	ENDS
;	COMDAT ??$distance@PAD@_STL@@YAHABQAD0@Z
_TEXT	SEGMENT PARA USE32 PUBLIC 'CODE'
_TEXT	ENDS
;	COMDAT ??$uninitialized_copy@PADPAD@_STL@@YAPADPAD00@Z
_TEXT	SEGMENT PARA USE32 PUBLIC 'CODE'
_TEXT	ENDS
;	COMDAT ??$_M_append_dispatch@PAD@?$basic_string@DV?$char_traits@D@_STL@@V?$allocator@D@2@@_STL@@AAEAAV01@PAD0ABU__false_type@1@@Z
_TEXT	SEGMENT PARA USE32 PUBLIC 'CODE'
_TEXT	ENDS
;	COMDAT ??$append@PBD@?$basic_string@DV?$char_traits@D@_STL@@V?$allocator@D@2@@_STL@@AAEAAV01@PBD0ABUforward_iterator_tag@1@@Z
_TEXT	SEGMENT PARA USE32 PUBLIC 'CODE'
_TEXT	ENDS
;	COMDAT ?_M_construct_null@?$basic_string@DV?$char_traits@D@_STL@@V?$allocator@D@2@@_STL@@AAEXPAD@Z
_TEXT	SEGMENT PARA USE32 PUBLIC 'CODE'
_TEXT	ENDS
;	COMDAT ?max_size@?$basic_string@DV?$char_traits@D@_STL@@V?$allocator@D@2@@_STL@@QBEIXZ
_TEXT	SEGMENT PARA USE32 PUBLIC 'CODE'
_TEXT	ENDS
;	COMDAT ?capacity@?$basic_string@DV?$char_traits@D@_STL@@V?$allocator@D@2@@_STL@@QBEIXZ
_TEXT	SEGMENT PARA USE32 PUBLIC 'CODE'
_TEXT	ENDS
;	COMDAT ??R?$_Eq_char_bound@V?$char_traits@D@_STL@@@_STL@@QBE_NABD@Z
_TEXT	SEGMENT PARA USE32 PUBLIC 'CODE'
_TEXT	ENDS
;	COMDAT ?_M_construct_null_aux@?$basic_string@DV?$char_traits@D@_STL@@V?$allocator@D@2@@_STL@@AAEXPADABU__true_type@2@@Z
_TEXT	SEGMENT PARA USE32 PUBLIC 'CODE'
_TEXT	ENDS
;	COMDAT ??$__distance@PBD@_STL@@YAHABQBD0ABUrandom_access_iterator_tag@0@@Z
_TEXT	SEGMENT PARA USE32 PUBLIC 'CODE'
_TEXT	ENDS
;	COMDAT ??$__distance@PAD@_STL@@YAHABQAD0ABUrandom_access_iterator_tag@0@@Z
_TEXT	SEGMENT PARA USE32 PUBLIC 'CODE'
_TEXT	ENDS
;	COMDAT ??$__uninitialized_copy@PADPAD@_STL@@YAPADPAD00ABU__true_type@0@@Z
_TEXT	SEGMENT PARA USE32 PUBLIC 'CODE'
_TEXT	ENDS
;	COMDAT ??$append@PAD@?$basic_string@DV?$char_traits@D@_STL@@V?$allocator@D@2@@_STL@@AAEAAV01@PAD0ABUforward_iterator_tag@1@@Z
_TEXT	SEGMENT PARA USE32 PUBLIC 'CODE'
_TEXT	ENDS
;	COMDAT ??$max@I@_STL@@YAABIABI0@Z
_TEXT	SEGMENT PARA USE32 PUBLIC 'CODE'
_TEXT	ENDS
;	COMDAT ?_Ret@?$_BothPtrType@PADPAD@_STL@@SA?AU__true_type@2@XZ
_TEXT	SEGMENT PARA USE32 PUBLIC 'CODE'
_TEXT	ENDS
;	COMDAT ??$__copy_aux@PADPAD@_STL@@YAPADPAD00ABU__true_type@0@@Z
_TEXT	SEGMENT PARA USE32 PUBLIC 'CODE'
_TEXT	ENDS
;	COMDAT ?_Ret@?$_OKToMemCpy@DD@_STL@@SA?AU__true_type@2@XZ
_TEXT	SEGMENT PARA USE32 PUBLIC 'CODE'
_TEXT	ENDS
;	COMDAT ??$_IsOKToMemCpy@DD@_STL@@YA?AU?$_OKToMemCpy@DD@0@PAD0@Z
_TEXT	SEGMENT PARA USE32 PUBLIC 'CODE'
_TEXT	ENDS
;	COMDAT ??$__copy_ptrs@PADPAD@_STL@@YAPADPAD00ABU__true_type@0@@Z
_TEXT	SEGMENT PARA USE32 PUBLIC 'CODE'
_TEXT	ENDS
;	COMDAT ??_R3?$basic_ofstream@DV?$char_traits@D@_STL@@@_STL@@8
rdata$r	SEGMENT DWORD USE32 PUBLIC 'CONST'
rdata$r	ENDS
;	COMDAT ??_R3?$basic_ifstream@DV?$char_traits@D@_STL@@@_STL@@8
rdata$r	SEGMENT DWORD USE32 PUBLIC 'CONST'
rdata$r	ENDS
;	COMDAT ??_R2?$basic_ofstream@DV?$char_traits@D@_STL@@@_STL@@8
rdata$r	SEGMENT DWORD USE32 PUBLIC 'CONST'
rdata$r	ENDS
;	COMDAT ??_R2?$basic_ifstream@DV?$char_traits@D@_STL@@@_STL@@8
rdata$r	SEGMENT DWORD USE32 PUBLIC 'CONST'
rdata$r	ENDS
;	COMDAT ??_R1A@?0A@A@?$basic_ostream@DV?$char_traits@D@_STL@@@_STL@@8
rdata$r	SEGMENT DWORD USE32 PUBLIC 'CONST'
rdata$r	ENDS
;	COMDAT ??_R0?AV?$basic_ostream@DV?$char_traits@D@_STL@@@_STL@@@8
_DATA	SEGMENT DWORD USE32 PUBLIC 'DATA'
_DATA	ENDS
;	COMDAT ??_R1A@?0A@A@?$basic_ofstream@DV?$char_traits@D@_STL@@@_STL@@8
rdata$r	SEGMENT DWORD USE32 PUBLIC 'CONST'
rdata$r	ENDS
;	COMDAT ??_R1A@A@3A@ios_base@_STL@@8
rdata$r	SEGMENT DWORD USE32 PUBLIC 'CONST'
rdata$r	ENDS
;	COMDAT ??_R0?AVios_base@_STL@@@8
_DATA	SEGMENT DWORD USE32 PUBLIC 'DATA'
_DATA	ENDS
;	COMDAT ??_R1A@A@3BA@?$basic_ios@DV?$char_traits@D@_STL@@@_STL@@8
rdata$r	SEGMENT DWORD USE32 PUBLIC 'CONST'
rdata$r	ENDS
;	COMDAT ??_R0?AV?$basic_ios@DV?$char_traits@D@_STL@@@_STL@@@8
_DATA	SEGMENT DWORD USE32 PUBLIC 'DATA'
_DATA	ENDS
;	COMDAT ??_R1A@?0A@A@?$basic_istream@DV?$char_traits@D@_STL@@@_STL@@8
rdata$r	SEGMENT DWORD USE32 PUBLIC 'CONST'
rdata$r	ENDS
;	COMDAT ??_R0?AV?$basic_istream@DV?$char_traits@D@_STL@@@_STL@@@8
_DATA	SEGMENT DWORD USE32 PUBLIC 'DATA'
_DATA	ENDS
;	COMDAT ??_R1A@?0A@A@?$basic_ifstream@DV?$char_traits@D@_STL@@@_STL@@8
rdata$r	SEGMENT DWORD USE32 PUBLIC 'CONST'
rdata$r	ENDS
;	COMDAT ??_R0?AV?$basic_ofstream@DV?$char_traits@D@_STL@@@_STL@@@8
_DATA	SEGMENT DWORD USE32 PUBLIC 'DATA'
_DATA	ENDS
;	COMDAT ??_R0?AV?$basic_ifstream@DV?$char_traits@D@_STL@@@_STL@@@8
_DATA	SEGMENT DWORD USE32 PUBLIC 'DATA'
_DATA	ENDS
;	COMDAT ??_R4?$basic_ofstream@DV?$char_traits@D@_STL@@@_STL@@6B@
rdata$r	SEGMENT DWORD USE32 PUBLIC 'CONST'
rdata$r	ENDS
;	COMDAT ??_R4?$basic_ifstream@DV?$char_traits@D@_STL@@@_STL@@6B@
rdata$r	SEGMENT DWORD USE32 PUBLIC 'CONST'
rdata$r	ENDS
;	COMDAT ?__copy_trivial@_STL@@YAPAXPBX0PAX@Z
_TEXT	SEGMENT PARA USE32 PUBLIC 'CODE'
_TEXT	ENDS
;	COMDAT ?_M_deallocate_block@?$_String_base@DV?$allocator@D@_STL@@@_STL@@QAEXXZ
_TEXT	SEGMENT PARA USE32 PUBLIC 'CODE'
_TEXT	ENDS
;	COMDAT ?deallocate@?$allocator@D@_STL@@QAEXPADI@Z
_TEXT	SEGMENT PARA USE32 PUBLIC 'CODE'
_TEXT	ENDS
;	COMDAT ?deallocate@?$__node_alloc@$00$0A@@_STL@@SAXPAXI@Z
_TEXT	SEGMENT PARA USE32 PUBLIC 'CODE'
_TEXT	ENDS
;	COMDAT ?__stl_delete@_STL@@YAXPAX@Z
_TEXT	SEGMENT PARA USE32 PUBLIC 'CODE'
_TEXT	ENDS
;	COMDAT ?good@ios_base@_STL@@QBE_NXZ
_TEXT	SEGMENT PARA USE32 PUBLIC 'CODE'
_TEXT	ENDS
;	COMDAT ?compare@?$char_traits@D@_STL@@SAHPBD0I@Z
_TEXT	SEGMENT PARA USE32 PUBLIC 'CODE'
_TEXT	ENDS
;	COMDAT ?to_char_type@?$char_traits@D@_STL@@SADABH@Z
_TEXT	SEGMENT PARA USE32 PUBLIC 'CODE'
_TEXT	ENDS
;	COMDAT ?sbumpc@?$basic_streambuf@DV?$char_traits@D@_STL@@@_STL@@QAEHXZ
_TEXT	SEGMENT PARA USE32 PUBLIC 'CODE'
_TEXT	ENDS
;	COMDAT ?_FILE_I_avail@_STL@@YAHPBU_iobuf@@@Z
_TEXT	SEGMENT PARA USE32 PUBLIC 'CODE'
_TEXT	ENDS
;	COMDAT ?to_int_type@?$char_traits@D@_STL@@SAHABD@Z
_TEXT	SEGMENT PARA USE32 PUBLIC 'CODE'
_TEXT	ENDS
;	COMDAT ?_FILE_I_postincr@_STL@@YAAADPAU_iobuf@@@Z
_TEXT	SEGMENT PARA USE32 PUBLIC 'CODE'
_TEXT	ENDS
;	COMDAT ?sgetc@?$basic_streambuf@DV?$char_traits@D@_STL@@@_STL@@QAEHXZ
_TEXT	SEGMENT PARA USE32 PUBLIC 'CODE'
_TEXT	ENDS
;	COMDAT ?_FILE_I_next@_STL@@YAPADPBU_iobuf@@@Z
_TEXT	SEGMENT PARA USE32 PUBLIC 'CODE'
_TEXT	ENDS
;	COMDAT ?_M_gbump@?$basic_streambuf@DV?$char_traits@D@_STL@@@_STL@@QAEXH@Z
_TEXT	SEGMENT PARA USE32 PUBLIC 'CODE'
_TEXT	ENDS
;	COMDAT ?_FILE_I_bump@_STL@@YAXPAU_iobuf@@H@Z
_TEXT	SEGMENT PARA USE32 PUBLIC 'CODE'
_TEXT	ENDS
;	COMDAT ??$min@H@_STL@@YAABHABH0@Z
_TEXT	SEGMENT PARA USE32 PUBLIC 'CODE'
_TEXT	ENDS
;	COMDAT ?_M_gptr@?$basic_streambuf@DV?$char_traits@D@_STL@@@_STL@@QBEPADXZ
_TEXT	SEGMENT PARA USE32 PUBLIC 'CODE'
_TEXT	ENDS
;	COMDAT ?_M_egptr@?$basic_streambuf@DV?$char_traits@D@_STL@@@_STL@@QBEPADXZ
_TEXT	SEGMENT PARA USE32 PUBLIC 'CODE'
_TEXT	ENDS
;	COMDAT ?_FILE_I_end@_STL@@YAPADPBU_iobuf@@@Z
_TEXT	SEGMENT PARA USE32 PUBLIC 'CODE'
_TEXT	ENDS
;	COMDAT ?__page_size@_Filebuf_base@_STL@@SAIXZ
_TEXT	SEGMENT PARA USE32 PUBLIC 'CODE'
_TEXT	ENDS
;	COMDAT ?_M_write@?$basic_filebuf@DV?$char_traits@D@_STL@@@_STL@@QAE_NPADH@Z
_TEXT	SEGMENT PARA USE32 PUBLIC 'CODE'
_TEXT	ENDS
;	COMDAT ?unshift@?$codecvt@DDH@_STL@@QBE?AW4result@codecvt_base@2@AAHPAD1AAPAD@Z
_TEXT	SEGMENT PARA USE32 PUBLIC 'CODE'
_TEXT	ENDS
;	COMDAT ?_M_get_exception_mask@ios_base@_STL@@IBEHXZ
_TEXT	SEGMENT PARA USE32 PUBLIC 'CODE'
_TEXT	ENDS
;	COMDAT ?_M_setstate_nothrow@ios_base@_STL@@IAEXH@Z
_TEXT	SEGMENT PARA USE32 PUBLIC 'CODE'
_TEXT	ENDS
;	COMDAT ?uninitialized_copy@_STL@@YAPADPBD0PAD@Z
_TEXT	SEGMENT PARA USE32 PUBLIC 'CODE'
_TEXT	ENDS
;	COMDAT ?pubsync@?$basic_streambuf@DV?$char_traits@D@_STL@@@_STL@@QAEHXZ
_TEXT	SEGMENT PARA USE32 PUBLIC 'CODE'
_TEXT	ENDS
;	COMDAT ?_M_check_exception_mask@ios_base@_STL@@IAEXXZ
_TEXT	SEGMENT PARA USE32 PUBLIC 'CODE'
_TEXT	ENDS
;	COMDAT ?_M_clear_nothrow@ios_base@_STL@@IAEXH@Z
_TEXT	SEGMENT PARA USE32 PUBLIC 'CODE'
_TEXT	ENDS
;	COMDAT ?flags@ios_base@_STL@@QBEHXZ
_TEXT	SEGMENT PARA USE32 PUBLIC 'CODE'
_TEXT	ENDS
;	COMDAT ?rdstate@ios_base@_STL@@QBEHXZ
_TEXT	SEGMENT PARA USE32 PUBLIC 'CODE'
_TEXT	ENDS
;	COMDAT ??1?$_String_base@DV?$allocator@D@_STL@@@_STL@@QAE@XZ
_TEXT	SEGMENT PARA USE32 PUBLIC 'CODE'
_TEXT	ENDS
;	COMDAT ?egptr@?$basic_streambuf@DV?$char_traits@D@_STL@@@_STL@@IBEPADXZ
_TEXT	SEGMENT PARA USE32 PUBLIC 'CODE'
_TEXT	ENDS
;	COMDAT ?gptr@?$basic_streambuf@DV?$char_traits@D@_STL@@@_STL@@IBEPADXZ
_TEXT	SEGMENT PARA USE32 PUBLIC 'CODE'
_TEXT	ENDS
;	COMDAT ?eof@ios_base@_STL@@QBE_NXZ
_TEXT	SEGMENT PARA USE32 PUBLIC 'CODE'
_TEXT	ENDS
;	COMDAT ?assign@?$char_traits@D@_STL@@SAXAADABD@Z
_TEXT	SEGMENT PARA USE32 PUBLIC 'CODE'
_TEXT	ENDS
;	COMDAT ?always_noconv@?$codecvt@DDH@_STL@@QBE_NXZ
_TEXT	SEGMENT PARA USE32 PUBLIC 'CODE'
_TEXT	ENDS
;	COMDAT ?encoding@?$codecvt@DDH@_STL@@QBEHXZ
_TEXT	SEGMENT PARA USE32 PUBLIC 'CODE'
_TEXT	ENDS
;	COMDAT ?max_length@?$codecvt@DDH@_STL@@QBEHXZ
_TEXT	SEGMENT PARA USE32 PUBLIC 'CODE'
_TEXT	ENDS
;	COMDAT ?__o_mode@_Filebuf_base@_STL@@QBEHXZ
_TEXT	SEGMENT PARA USE32 PUBLIC 'CODE'
_TEXT	ENDS
;	COMDAT ?sputn@?$basic_streambuf@DV?$char_traits@D@_STL@@@_STL@@QAEHPBDH@Z
_TEXT	SEGMENT PARA USE32 PUBLIC 'CODE'
_TEXT	ENDS
;	COMDAT ?_Destroy@_STL@@YAXPAD0@Z
_TEXT	SEGMENT PARA USE32 PUBLIC 'CODE'
_TEXT	ENDS
;	COMDAT ??1?$basic_ios@DV?$char_traits@D@_STL@@@_STL@@UAE@XZ
_TEXT	SEGMENT PARA USE32 PUBLIC 'CODE'
_TEXT	ENDS
;	COMDAT ??_7?$basic_ios@DV?$char_traits@D@_STL@@@_STL@@6B@
CONST	SEGMENT DWORD USE32 PUBLIC 'CONST'
CONST	ENDS
;	COMDAT ??_R4?$basic_ios@DV?$char_traits@D@_STL@@@_STL@@6B@
rdata$r	SEGMENT DWORD USE32 PUBLIC 'CONST'
rdata$r	ENDS
;	COMDAT ??_R3?$basic_ios@DV?$char_traits@D@_STL@@@_STL@@8
rdata$r	SEGMENT DWORD USE32 PUBLIC 'CONST'
rdata$r	ENDS
;	COMDAT ??_R2?$basic_ios@DV?$char_traits@D@_STL@@@_STL@@8
rdata$r	SEGMENT DWORD USE32 PUBLIC 'CONST'
rdata$r	ENDS
;	COMDAT ??_R1A@?0A@A@?$basic_ios@DV?$char_traits@D@_STL@@@_STL@@8
rdata$r	SEGMENT DWORD USE32 PUBLIC 'CONST'
rdata$r	ENDS
;	COMDAT ??_R1A@?0A@A@ios_base@_STL@@8
rdata$r	SEGMENT DWORD USE32 PUBLIC 'CONST'
rdata$r	ENDS
;	COMDAT ??_G?$basic_ios@DV?$char_traits@D@_STL@@@_STL@@UAEPAXI@Z
_TEXT	SEGMENT PARA USE32 PUBLIC 'CODE'
_TEXT	ENDS
;	COMDAT ??1?$basic_ostream@DV?$char_traits@D@_STL@@@_STL@@UAE@XZ
_TEXT	SEGMENT PARA USE32 PUBLIC 'CODE'
_TEXT	ENDS
;	COMDAT ??_7?$basic_ostream@DV?$char_traits@D@_STL@@@_STL@@6B@
CONST	SEGMENT DWORD USE32 PUBLIC 'CONST'
CONST	ENDS
;	COMDAT ??_R4?$basic_ostream@DV?$char_traits@D@_STL@@@_STL@@6B@
rdata$r	SEGMENT DWORD USE32 PUBLIC 'CONST'
rdata$r	ENDS
;	COMDAT ??_R3?$basic_ostream@DV?$char_traits@D@_STL@@@_STL@@8
rdata$r	SEGMENT DWORD USE32 PUBLIC 'CONST'
rdata$r	ENDS
;	COMDAT ??_R2?$basic_ostream@DV?$char_traits@D@_STL@@@_STL@@8
rdata$r	SEGMENT DWORD USE32 PUBLIC 'CONST'
rdata$r	ENDS
;	COMDAT ??_G?$basic_ostream@DV?$char_traits@D@_STL@@@_STL@@UAEPAXI@Z
_TEXT	SEGMENT PARA USE32 PUBLIC 'CODE'
_TEXT	ENDS
;	COMDAT ??_D?$basic_ostream@DV?$char_traits@D@_STL@@@_STL@@QAEXXZ
_TEXT	SEGMENT PARA USE32 PUBLIC 'CODE'
_TEXT	ENDS
;	COMDAT ??_7?$basic_ofstream@DV?$char_traits@D@_STL@@@_STL@@6B@
CONST	SEGMENT DWORD USE32 PUBLIC 'CONST'
CONST	ENDS
;	COMDAT ??1?$basic_filebuf@DV?$char_traits@D@_STL@@@_STL@@UAE@XZ
_TEXT	SEGMENT PARA USE32 PUBLIC 'CODE'
_TEXT	ENDS
;	COMDAT ??_7?$basic_filebuf@DV?$char_traits@D@_STL@@@_STL@@6B@
CONST	SEGMENT DWORD USE32 PUBLIC 'CONST'
CONST	ENDS
;	COMDAT ??_R4?$basic_filebuf@DV?$char_traits@D@_STL@@@_STL@@6B@
rdata$r	SEGMENT DWORD USE32 PUBLIC 'CONST'
rdata$r	ENDS
;	COMDAT ??_R0?AV?$basic_filebuf@DV?$char_traits@D@_STL@@@_STL@@@8
_DATA	SEGMENT DWORD USE32 PUBLIC 'DATA'
_DATA	ENDS
;	COMDAT ??_R3?$basic_filebuf@DV?$char_traits@D@_STL@@@_STL@@8
rdata$r	SEGMENT DWORD USE32 PUBLIC 'CONST'
rdata$r	ENDS
;	COMDAT ??_R2?$basic_filebuf@DV?$char_traits@D@_STL@@@_STL@@8
rdata$r	SEGMENT DWORD USE32 PUBLIC 'CONST'
rdata$r	ENDS
;	COMDAT ??_R1A@?0A@A@?$basic_filebuf@DV?$char_traits@D@_STL@@@_STL@@8
rdata$r	SEGMENT DWORD USE32 PUBLIC 'CONST'
rdata$r	ENDS
;	COMDAT ??_R1A@?0A@A@?$basic_streambuf@DV?$char_traits@D@_STL@@@_STL@@8
rdata$r	SEGMENT DWORD USE32 PUBLIC 'CONST'
rdata$r	ENDS
;	COMDAT ??_R0?AV?$basic_streambuf@DV?$char_traits@D@_STL@@@_STL@@@8
_DATA	SEGMENT DWORD USE32 PUBLIC 'DATA'
_DATA	ENDS
;	COMDAT ??_G?$basic_filebuf@DV?$char_traits@D@_STL@@@_STL@@UAEPAXI@Z
_TEXT	SEGMENT PARA USE32 PUBLIC 'CODE'
_TEXT	ENDS
;	COMDAT ?setbuf@?$basic_filebuf@DV?$char_traits@D@_STL@@@_STL@@MAEPAV?$basic_streambuf@DV?$char_traits@D@_STL@@@2@PADH@Z
_TEXT	SEGMENT PARA USE32 PUBLIC 'CODE'
_TEXT	ENDS
;	COMDAT ?seekoff@?$basic_filebuf@DV?$char_traits@D@_STL@@@_STL@@MAE?AV?$fpos@H@2@JHH@Z
_TEXT	SEGMENT PARA USE32 PUBLIC 'CODE'
_TEXT	ENDS
;	COMDAT ?_M_in_binary_mode@_Filebuf_base@_STL@@QBE_NXZ
_TEXT	SEGMENT PARA USE32 PUBLIC 'CODE'
_TEXT	ENDS
;	COMDAT ?length@?$codecvt@DDH@_STL@@QBEHABHPBD1I@Z
_TEXT	SEGMENT PARA USE32 PUBLIC 'CODE'
_TEXT	ENDS
;	COMDAT ?in@?$codecvt@DDH@_STL@@QBE?AW4result@codecvt_base@2@AAHPBD1AAPBDPAD3AAPAD@Z
_TEXT	SEGMENT PARA USE32 PUBLIC 'CODE'
_TEXT	ENDS
;	COMDAT ?eback@?$basic_streambuf@DV?$char_traits@D@_STL@@@_STL@@IBEPADXZ
_TEXT	SEGMENT PARA USE32 PUBLIC 'CODE'
_TEXT	ENDS
;	COMDAT ?_FILE_I_begin@_STL@@YAPADPBU_iobuf@@@Z
_TEXT	SEGMENT PARA USE32 PUBLIC 'CODE'
_TEXT	ENDS
;	COMDAT ?_M_get_offset@_Filebuf_base@_STL@@QAEJPAD0@Z
_TEXT	SEGMENT PARA USE32 PUBLIC 'CODE'
_TEXT	ENDS
;	COMDAT ??$count@PADD@_STL@@YAHPAD0ABD@Z
_TEXT	SEGMENT PARA USE32 PUBLIC 'CODE'
_TEXT	ENDS
;	COMDAT ?seekpos@?$basic_filebuf@DV?$char_traits@D@_STL@@@_STL@@MAE?AV?$fpos@H@2@V32@H@Z
_TEXT	SEGMENT PARA USE32 PUBLIC 'CODE'
_TEXT	ENDS
;	COMDAT ?sync@?$basic_filebuf@DV?$char_traits@D@_STL@@@_STL@@MAEHXZ
_TEXT	SEGMENT PARA USE32 PUBLIC 'CODE'
_TEXT	ENDS
;	COMDAT ?showmanyc@?$basic_filebuf@DV?$char_traits@D@_STL@@@_STL@@MAEHXZ
_TEXT	SEGMENT PARA USE32 PUBLIC 'CODE'
_TEXT	ENDS
;	COMDAT ?underflow@?$basic_filebuf@DV?$char_traits@D@_STL@@@_STL@@MAEHXZ
_TEXT	SEGMENT PARA USE32 PUBLIC 'CODE'
_TEXT	ENDS
;	COMDAT ?pbackfail@?$basic_filebuf@DV?$char_traits@D@_STL@@@_STL@@MAEHH@Z
_TEXT	SEGMENT PARA USE32 PUBLIC 'CODE'
_TEXT	ENDS
;	COMDAT ?gbump@?$basic_streambuf@DV?$char_traits@D@_STL@@@_STL@@IAEXH@Z
_TEXT	SEGMENT PARA USE32 PUBLIC 'CODE'
_TEXT	ENDS
;	COMDAT ?overflow@?$basic_filebuf@DV?$char_traits@D@_STL@@@_STL@@MAEHH@Z
_TEXT	SEGMENT PARA USE32 PUBLIC 'CODE'
_TEXT	ENDS
;	COMDAT ?pptr@?$basic_streambuf@DV?$char_traits@D@_STL@@@_STL@@IBEPADXZ
_TEXT	SEGMENT PARA USE32 PUBLIC 'CODE'
_TEXT	ENDS
;	COMDAT ?_FILE_O_next@_STL@@YAPADPBU_iobuf@@@Z
_TEXT	SEGMENT PARA USE32 PUBLIC 'CODE'
_TEXT	ENDS
;	COMDAT ?out@?$codecvt@DDH@_STL@@QBE?AW4result@codecvt_base@2@AAHPBD1AAPBDPAD3AAPAD@Z
_TEXT	SEGMENT PARA USE32 PUBLIC 'CODE'
_TEXT	ENDS
;	COMDAT ?_M_doit@?$_Noconv_output@V?$char_traits@D@_STL@@@_STL@@SA_NPAV?$basic_filebuf@DV?$char_traits@D@_STL@@@2@PAD1@Z
_TEXT	SEGMENT PARA USE32 PUBLIC 'CODE'
_TEXT	ENDS
;	COMDAT ?imbue@?$basic_filebuf@DV?$char_traits@D@_STL@@@_STL@@MAEXABVlocale@2@@Z
_TEXT	SEGMENT PARA USE32 PUBLIC 'CODE'
_TEXT	ENDS
;	COMDAT ??1?$basic_istream@DV?$char_traits@D@_STL@@@_STL@@UAE@XZ
_TEXT	SEGMENT PARA USE32 PUBLIC 'CODE'
_TEXT	ENDS
;	COMDAT ??_7?$basic_istream@DV?$char_traits@D@_STL@@@_STL@@6B@
CONST	SEGMENT DWORD USE32 PUBLIC 'CONST'
CONST	ENDS
;	COMDAT ??_R4?$basic_istream@DV?$char_traits@D@_STL@@@_STL@@6B@
rdata$r	SEGMENT DWORD USE32 PUBLIC 'CONST'
rdata$r	ENDS
;	COMDAT ??_R3?$basic_istream@DV?$char_traits@D@_STL@@@_STL@@8
rdata$r	SEGMENT DWORD USE32 PUBLIC 'CONST'
rdata$r	ENDS
;	COMDAT ??_R2?$basic_istream@DV?$char_traits@D@_STL@@@_STL@@8
rdata$r	SEGMENT DWORD USE32 PUBLIC 'CONST'
rdata$r	ENDS
;	COMDAT ??_G?$basic_istream@DV?$char_traits@D@_STL@@@_STL@@UAEPAXI@Z
_TEXT	SEGMENT PARA USE32 PUBLIC 'CODE'
_TEXT	ENDS
;	COMDAT ??_D?$basic_istream@DV?$char_traits@D@_STL@@@_STL@@QAEXXZ
_TEXT	SEGMENT PARA USE32 PUBLIC 'CODE'
_TEXT	ENDS
;	COMDAT ??_7?$basic_ifstream@DV?$char_traits@D@_STL@@@_STL@@6B@
CONST	SEGMENT DWORD USE32 PUBLIC 'CONST'
CONST	ENDS
;	COMDAT ?setp@?$basic_streambuf@DV?$char_traits@D@_STL@@@_STL@@IAEXPAD0@Z
_TEXT	SEGMENT PARA USE32 PUBLIC 'CODE'
_TEXT	ENDS
;	COMDAT ?_FILE_O_set@_STL@@YAXPAU_iobuf@@PAD11@Z
_TEXT	SEGMENT PARA USE32 PUBLIC 'CODE'
_TEXT	ENDS
;	COMDAT ?_FILE_I_set@_STL@@YAXPAU_iobuf@@PAD11@Z
_TEXT	SEGMENT PARA USE32 PUBLIC 'CODE'
_TEXT	ENDS
;	COMDAT ?setg@?$basic_streambuf@DV?$char_traits@D@_STL@@@_STL@@IAEXPAD00@Z
_TEXT	SEGMENT PARA USE32 PUBLIC 'CODE'
_TEXT	ENDS
;	COMDAT ?__is_open@_Filebuf_base@_STL@@QBE_NXZ
_TEXT	SEGMENT PARA USE32 PUBLIC 'CODE'
_TEXT	ENDS
;	COMDAT ?allocate@?$__node_alloc@$00$0A@@_STL@@SAPAXI@Z
_TEXT	SEGMENT PARA USE32 PUBLIC 'CODE'
_TEXT	ENDS
;	COMDAT ?__stl_new@_STL@@YAPAXI@Z
_TEXT	SEGMENT PARA USE32 PUBLIC 'CODE'
_TEXT	ENDS
;	COMDAT ??1?$_STLP_alloc_proxy@PADDV?$allocator@D@_STL@@@_STL@@QAE@XZ
_TEXT	SEGMENT PARA USE32 PUBLIC 'CODE'
_TEXT	ENDS
;	COMDAT ??$min@I@_STL@@YAABIABI0@Z
_TEXT	SEGMENT PARA USE32 PUBLIC 'CODE'
_TEXT	ENDS
;	COMDAT ?length@?$char_traits@D@_STL@@SAIPBD@Z
_TEXT	SEGMENT PARA USE32 PUBLIC 'CODE'
_TEXT	ENDS
;	COMDAT ?eof@?$__char_traits_base@DH@_STL@@SAHXZ
_TEXT	SEGMENT PARA USE32 PUBLIC 'CODE'
_TEXT	ENDS
;	COMDAT _$E7
text$yc	SEGMENT PARA USE32 PUBLIC 'CODE'
text$yc	ENDS
;	COMDAT ??_C@_01KICIPPFI@?2?$AA@
CONST	SEGMENT DWORD USE32 PUBLIC 'CONST'
CONST	ENDS
;	COMDAT _$E8
text$yd	SEGMENT PARA USE32 PUBLIC 'CODE'
text$yd	ENDS
;	COMDAT ??4?$basic_string@DV?$char_traits@D@_STL@@V?$allocator@D@2@@_STL@@QAEAAV01@ABV01@@Z
_TEXT	SEGMENT PARA USE32 PUBLIC 'CODE'
_TEXT	ENDS
;	COMDAT ??$assign@PAD@?$basic_string@DV?$char_traits@D@_STL@@V?$allocator@D@2@@_STL@@QAEAAV01@PAD0@Z
_TEXT	SEGMENT PARA USE32 PUBLIC 'CODE'
_TEXT	ENDS
;	COMDAT ??0?$basic_string@DV?$char_traits@D@_STL@@V?$allocator@D@2@@_STL@@QAE@ABV01@@Z
_TEXT	SEGMENT PARA USE32 PUBLIC 'CODE'
_TEXT	ENDS
;	COMDAT ??1?$basic_string@DV?$char_traits@D@_STL@@V?$allocator@D@2@@_STL@@QAE@XZ
_TEXT	SEGMENT PARA USE32 PUBLIC 'CODE'
_TEXT	ENDS
;	COMDAT ??1?$allocator@D@_STL@@QAE@XZ
_TEXT	SEGMENT PARA USE32 PUBLIC 'CODE'
_TEXT	ENDS
;	COMDAT ??0?$allocator@D@_STL@@QAE@XZ
_TEXT	SEGMENT PARA USE32 PUBLIC 'CODE'
_TEXT	ENDS
;	COMDAT ??0?$basic_string@DV?$char_traits@D@_STL@@V?$allocator@D@2@@_STL@@QAE@PBDABV?$allocator@D@1@@Z
_TEXT	SEGMENT PARA USE32 PUBLIC 'CODE'
_TEXT	ENDS
sxdata	SEGMENT DWORD USE32 'SXDATA'
sxdata	ENDS
FLAT	GROUP _DATA, CONST, _BSS
	ASSUME	CS: FLAT, DS: FLAT, SS: FLAT
endif

INCLUDELIB LIBCMT
INCLUDELIB OLDNAMES

PUBLIC	??_C@_0O@JKENFCBN@MinTrace?52003?$AA@		; `string'
PUBLIC	??_C@_0BE@MNEJIGLM@__MinTrace?5Window__?$AA@	; `string'
;	COMDAT ??_C@_0O@JKENFCBN@MinTrace?52003?$AA@
CONST	SEGMENT
??_C@_0O@JKENFCBN@MinTrace?52003?$AA@ DB 'MinTrace 2003', 00H ; `string'
CONST	ENDS
_DATA	SEGMENT
_g_pszMinTraceTitle DD FLAT:??_C@_0O@JKENFCBN@MinTrace?52003?$AA@
_DATA	ENDS
;	COMDAT ??_C@_0BE@MNEJIGLM@__MinTrace?5Window__?$AA@
CONST	SEGMENT
??_C@_0BE@MNEJIGLM@__MinTrace?5Window__?$AA@ DB '__MinTrace Window__', 00H ; `string'
CONST	ENDS
_DATA	SEGMENT
_g_pszMinTraceClassName DD FLAT:??_C@_0BE@MNEJIGLM@__MinTrace?5Window__?$AA@
_DATA	ENDS
PUBLIC	?__stl_new@_STL@@YAPAXI@Z			; _STL::__stl_new
EXTRN	??2@YAPAXI@Z:NEAR				; operator new
; Function compile flags: /Ogsy
; File c:\stlport-4.6.1\stlport\stl\_new.h
;	COMDAT ?__stl_new@_STL@@YAPAXI@Z
_TEXT	SEGMENT
___n$ = 8						; size = 4
?__stl_new@_STL@@YAPAXI@Z PROC NEAR			; _STL::__stl_new, COMDAT

; 86   : inline void*  _STLP_CALL __stl_new(size_t __n)   { _STLP_CHECK_NULL_ALLOC(::operator _STLP_NEW(__n)); }

  00000	e9 00 00 00 00	 jmp	 ??2@YAPAXI@Z		; operator new
?__stl_new@_STL@@YAPAXI@Z ENDP				; _STL::__stl_new
_TEXT	ENDS
PUBLIC	?__stl_delete@_STL@@YAXPAX@Z			; _STL::__stl_delete
EXTRN	??3@YAXPAX@Z:NEAR				; operator delete
; Function compile flags: /Ogsy
;	COMDAT ?__stl_delete@_STL@@YAXPAX@Z
_TEXT	SEGMENT
___p$ = 8						; size = 4
?__stl_delete@_STL@@YAXPAX@Z PROC NEAR			; _STL::__stl_delete, COMDAT

; 87   : inline void   _STLP_CALL __stl_delete(void* __p) { ::operator delete(__p); }

  00000	e9 00 00 00 00	 jmp	 ??3@YAXPAX@Z		; operator delete
?__stl_delete@_STL@@YAXPAX@Z ENDP			; _STL::__stl_delete
_TEXT	ENDS
PUBLIC	?_Destroy@_STL@@YAXPAD0@Z			; _STL::_Destroy
; Function compile flags: /Ogsy
; File c:\stlport-4.6.1\stlport\stl\_construct.h
;	COMDAT ?_Destroy@_STL@@YAXPAD0@Z
_TEXT	SEGMENT
___formal$ = 8						; size = 4
___formal$ = 12						; size = 4
?_Destroy@_STL@@YAXPAD0@Z PROC NEAR			; _STL::_Destroy, COMDAT

; 142  : inline void _Destroy(char*, char*) {}

  00000	c3		 ret	 0
?_Destroy@_STL@@YAXPAD0@Z ENDP				; _STL::_Destroy
_TEXT	ENDS
PUBLIC	?__copy_trivial@_STL@@YAPAXPBX0PAX@Z		; _STL::__copy_trivial
EXTRN	_memmove:NEAR
; Function compile flags: /Ogsy
; File c:\stlport-4.6.1\stlport\stl\_algobase.h
;	COMDAT ?__copy_trivial@_STL@@YAPAXPBX0PAX@Z
_TEXT	SEGMENT
___first$ = 8						; size = 4
___last$ = 12						; size = 4
___result$ = 16						; size = 4
?__copy_trivial@_STL@@YAPAXPBX0PAX@Z PROC NEAR		; _STL::__copy_trivial, COMDAT

; 147  : __copy_trivial(const void* __first, const void* __last, void* __result) {

  00000	55		 push	 ebp
  00001	8b ec		 mov	 ebp, esp
  00003	56		 push	 esi

; 148  :   return (__last == __first) ? __result : 
; 149  :     ((char*)memmove(__result, __first, ((const char*)__last - (const char*)__first))) + 
; 150  :     ((const char*)__last - (const char*)__first);

  00004	8b 75 0c	 mov	 esi, DWORD PTR ___last$[ebp]
  00007	3b 75 08	 cmp	 esi, DWORD PTR ___first$[ebp]
  0000a	75 05		 jne	 SHORT $L101968
  0000c	8b 45 10	 mov	 eax, DWORD PTR ___result$[ebp]
  0000f	eb 14		 jmp	 SHORT $L101969
$L101968:
  00011	2b 75 08	 sub	 esi, DWORD PTR ___first$[ebp]
  00014	56		 push	 esi
  00015	ff 75 08	 push	 DWORD PTR ___first$[ebp]
  00018	ff 75 10	 push	 DWORD PTR ___result$[ebp]
  0001b	e8 00 00 00 00	 call	 _memmove
  00020	83 c4 0c	 add	 esp, 12			; 0000000cH
  00023	03 c6		 add	 eax, esi
$L101969:
  00025	5e		 pop	 esi

; 151  : }

  00026	5d		 pop	 ebp
  00027	c3		 ret	 0
?__copy_trivial@_STL@@YAPAXPBX0PAX@Z ENDP		; _STL::__copy_trivial
_TEXT	ENDS
PUBLIC	?uninitialized_copy@_STL@@YAPADPBD0PAD@Z	; _STL::uninitialized_copy
; Function compile flags: /Ogsy
; File c:\stlport-4.6.1\stlport\stl\_uninitialized.h
;	COMDAT ?uninitialized_copy@_STL@@YAPADPBD0PAD@Z
_TEXT	SEGMENT
___first$ = 8						; size = 4
___last$ = 12						; size = 4
___result$ = 16						; size = 4
?uninitialized_copy@_STL@@YAPADPBD0PAD@Z PROC NEAR	; _STL::uninitialized_copy, COMDAT

; 84   :   return  (char*)__copy_trivial (__first, __last, __result);

  00000	e9 00 00 00 00	 jmp	 ?__copy_trivial@_STL@@YAPAXPBX0PAX@Z ; _STL::__copy_trivial
?uninitialized_copy@_STL@@YAPADPBD0PAD@Z ENDP		; _STL::uninitialized_copy
_TEXT	ENDS
PUBLIC	?to_char_type@?$char_traits@D@_STL@@SADABH@Z	; _STL::char_traits<char>::to_char_type
; Function compile flags: /Ogsy
; File c:\stlport-4.6.1\stlport\stl\char_traits.h
;	COMDAT ?to_char_type@?$char_traits@D@_STL@@SADABH@Z
_TEXT	SEGMENT
___c$ = 8						; size = 4
?to_char_type@?$char_traits@D@_STL@@SADABH@Z PROC NEAR	; _STL::char_traits<char>::to_char_type, COMDAT

; 228  :     return (char)(unsigned char)__c;

  00000	8b 44 24 04	 mov	 eax, DWORD PTR ___c$[esp-4]
  00004	8a 00		 mov	 al, BYTE PTR [eax]

; 229  :   }

  00006	c3		 ret	 0
?to_char_type@?$char_traits@D@_STL@@SADABH@Z ENDP	; _STL::char_traits<char>::to_char_type
_TEXT	ENDS
PUBLIC	?to_int_type@?$char_traits@D@_STL@@SAHABD@Z	; _STL::char_traits<char>::to_int_type
; Function compile flags: /Ogsy
;	COMDAT ?to_int_type@?$char_traits@D@_STL@@SAHABD@Z
_TEXT	SEGMENT
___c$ = 8						; size = 4
?to_int_type@?$char_traits@D@_STL@@SAHABD@Z PROC NEAR	; _STL::char_traits<char>::to_int_type, COMDAT

; 232  :     return (unsigned char)__c;

  00000	8b 44 24 04	 mov	 eax, DWORD PTR ___c$[esp-4]
  00004	0f b6 00	 movzx	 eax, BYTE PTR [eax]

; 233  :   }

  00007	c3		 ret	 0
?to_int_type@?$char_traits@D@_STL@@SAHABD@Z ENDP	; _STL::char_traits<char>::to_int_type
_TEXT	ENDS
PUBLIC	?compare@?$char_traits@D@_STL@@SAHPBD0I@Z	; _STL::char_traits<char>::compare
EXTRN	_memcmp:NEAR
; Function compile flags: /Ogsy
;	COMDAT ?compare@?$char_traits@D@_STL@@SAHPBD0I@Z
_TEXT	SEGMENT
___s1$ = 8						; size = 4
___s2$ = 12						; size = 4
___n$ = 16						; size = 4
?compare@?$char_traits@D@_STL@@SAHPBD0I@Z PROC NEAR	; _STL::char_traits<char>::compare, COMDAT

; 236  :     { return memcmp(__s1, __s2, __n); }

  00000	e9 00 00 00 00	 jmp	 _memcmp
?compare@?$char_traits@D@_STL@@SAHPBD0I@Z ENDP		; _STL::char_traits<char>::compare
_TEXT	ENDS
PUBLIC	?length@?$char_traits@D@_STL@@SAIPBD@Z		; _STL::char_traits<char>::length
EXTRN	_strlen:NEAR
; Function compile flags: /Ogsy
;	COMDAT ?length@?$char_traits@D@_STL@@SAIPBD@Z
_TEXT	SEGMENT
___s$ = 8						; size = 4
?length@?$char_traits@D@_STL@@SAIPBD@Z PROC NEAR	; _STL::char_traits<char>::length, COMDAT

; 238  :   static size_t _STLP_CALL length(const char* __s) { return strlen(__s); }

  00000	e9 00 00 00 00	 jmp	 _strlen
?length@?$char_traits@D@_STL@@SAIPBD@Z ENDP		; _STL::char_traits<char>::length
_TEXT	ENDS
PUBLIC	?assign@?$char_traits@D@_STL@@SAXAADABD@Z	; _STL::char_traits<char>::assign
; Function compile flags: /Ogsy
;	COMDAT ?assign@?$char_traits@D@_STL@@SAXAADABD@Z
_TEXT	SEGMENT
___c1$ = 8						; size = 4
___c2$ = 12						; size = 4
?assign@?$char_traits@D@_STL@@SAXAADABD@Z PROC NEAR	; _STL::char_traits<char>::assign, COMDAT

; 240  :   static void _STLP_CALL assign(char& __c1, const char& __c2) { __c1 = __c2; }

  00000	8b 44 24 08	 mov	 eax, DWORD PTR ___c2$[esp-4]
  00004	8a 00		 mov	 al, BYTE PTR [eax]
  00006	8b 4c 24 04	 mov	 ecx, DWORD PTR ___c1$[esp-4]
  0000a	88 01		 mov	 BYTE PTR [ecx], al
  0000c	c3		 ret	 0
?assign@?$char_traits@D@_STL@@SAXAADABD@Z ENDP		; _STL::char_traits<char>::assign
_TEXT	ENDS
PUBLIC	?getMaxSize@Update@@SAIXZ			; Update::getMaxSize
; Function compile flags: /Ogsy
; File c:\darkeden\designed_common\project\client\updater\update.cpp
;	COMDAT ?getMaxSize@Update@@SAIXZ
_TEXT	SEGMENT
?getMaxSize@Update@@SAIXZ PROC NEAR			; Update::getMaxSize, COMDAT

; 411  : 	// [Version] [UpdateType] [ParameterLen] [Parameter0] ... [ParameterLen] [Parameter5]
; 412  : 	return szVersion + szBYTE + ( szParameterLen + maxParameterLen ) * maxParams;

  00000	b8 69 06 00 00	 mov	 eax, 1641		; 00000669H

; 413  : }

  00005	c3		 ret	 0
?getMaxSize@Update@@SAIXZ ENDP				; Update::getMaxSize
_TEXT	ENDS
PUBLIC	?eq@?$__char_traits_base@DH@_STL@@SA_NABD0@Z	; _STL::__char_traits_base<char,int>::eq
; Function compile flags: /Ogsy
; File c:\stlport-4.6.1\stlport\stl\char_traits.h
;	COMDAT ?eq@?$__char_traits_base@DH@_STL@@SA_NABD0@Z
_TEXT	SEGMENT
___c1$ = 8						; size = 4
___c2$ = 12						; size = 4
?eq@?$__char_traits_base@DH@_STL@@SA_NABD0@Z PROC NEAR	; _STL::__char_traits_base<char,int>::eq, COMDAT

; 138  :     { return __c1 == __c2; }

  00000	8b 44 24 04	 mov	 eax, DWORD PTR ___c1$[esp-4]
  00004	8a 00		 mov	 al, BYTE PTR [eax]
  00006	8b 4c 24 08	 mov	 ecx, DWORD PTR ___c2$[esp-4]
  0000a	2a 01		 sub	 al, BYTE PTR [ecx]
  0000c	f6 d8		 neg	 al
  0000e	1b c0		 sbb	 eax, eax
  00010	40		 inc	 eax
  00011	c3		 ret	 0
?eq@?$__char_traits_base@DH@_STL@@SA_NABD0@Z ENDP	; _STL::__char_traits_base<char,int>::eq
_TEXT	ENDS
PUBLIC	?eq_int_type@?$__char_traits_base@DH@_STL@@SA_NABH0@Z ; _STL::__char_traits_base<char,int>::eq_int_type
; Function compile flags: /Ogsy
;	COMDAT ?eq_int_type@?$__char_traits_base@DH@_STL@@SA_NABH0@Z
_TEXT	SEGMENT
___c1$ = 8						; size = 4
___c2$ = 12						; size = 4
?eq_int_type@?$__char_traits_base@DH@_STL@@SA_NABH0@Z PROC NEAR ; _STL::__char_traits_base<char,int>::eq_int_type, COMDAT

; 193  :     return __c1 == __c2;

  00000	8b 44 24 04	 mov	 eax, DWORD PTR ___c1$[esp-4]
  00004	8b 00		 mov	 eax, DWORD PTR [eax]
  00006	8b 4c 24 08	 mov	 ecx, DWORD PTR ___c2$[esp-4]
  0000a	2b 01		 sub	 eax, DWORD PTR [ecx]
  0000c	f7 d8		 neg	 eax
  0000e	1b c0		 sbb	 eax, eax
  00010	40		 inc	 eax

; 194  :   }

  00011	c3		 ret	 0
?eq_int_type@?$__char_traits_base@DH@_STL@@SA_NABH0@Z ENDP ; _STL::__char_traits_base<char,int>::eq_int_type
_TEXT	ENDS
PUBLIC	?size@?$basic_string@DV?$char_traits@D@_STL@@V?$allocator@D@2@@_STL@@QBEIXZ ; _STL::basic_string<char,_STL::char_traits<char>,_STL::allocator<char> >::size
; Function compile flags: /Ogsy
; File c:\stlport-4.6.1\stlport\stl\_string.h
;	COMDAT ?size@?$basic_string@DV?$char_traits@D@_STL@@V?$allocator@D@2@@_STL@@QBEIXZ
_TEXT	SEGMENT
?size@?$basic_string@DV?$char_traits@D@_STL@@V?$allocator@D@2@@_STL@@QBEIXZ PROC NEAR ; _STL::basic_string<char,_STL::char_traits<char>,_STL::allocator<char> >::size, COMDAT
; _this$ = ecx

; 431  :   size_type size() const { return this->_M_finish - this->_M_start; }

  00000	8b 41 04	 mov	 eax, DWORD PTR [ecx+4]
  00003	2b 01		 sub	 eax, DWORD PTR [ecx]
  00005	c3		 ret	 0
?size@?$basic_string@DV?$char_traits@D@_STL@@V?$allocator@D@2@@_STL@@QBEIXZ ENDP ; _STL::basic_string<char,_STL::char_traits<char>,_STL::allocator<char> >::size
_TEXT	ENDS
PUBLIC	?c_str@?$basic_string@DV?$char_traits@D@_STL@@V?$allocator@D@2@@_STL@@QBEPBDXZ ; _STL::basic_string<char,_STL::char_traits<char>,_STL::allocator<char> >::c_str
; Function compile flags: /Ogsy
;	COMDAT ?c_str@?$basic_string@DV?$char_traits@D@_STL@@V?$allocator@D@2@@_STL@@QBEPBDXZ
_TEXT	SEGMENT
?c_str@?$basic_string@DV?$char_traits@D@_STL@@V?$allocator@D@2@@_STL@@QBEPBDXZ PROC NEAR ; _STL::basic_string<char,_STL::char_traits<char>,_STL::allocator<char> >::c_str, COMDAT
; _this$ = ecx

; 1065 :   const _CharT* c_str() const { return this->_M_start; }

  00000	8b 01		 mov	 eax, DWORD PTR [ecx]
  00002	c3		 ret	 0
?c_str@?$basic_string@DV?$char_traits@D@_STL@@V?$allocator@D@2@@_STL@@QBEPBDXZ ENDP ; _STL::basic_string<char,_STL::char_traits<char>,_STL::allocator<char> >::c_str
_TEXT	ENDS
PUBLIC	?_M_terminate_string_aux@?$basic_string@DV?$char_traits@D@_STL@@V?$allocator@D@2@@_STL@@AAEXABU__true_type@2@@Z ; _STL::basic_string<char,_STL::char_traits<char>,_STL::allocator<char> >::_M_terminate_string_aux
; Function compile flags: /Ogsy
;	COMDAT ?_M_terminate_string_aux@?$basic_string@DV?$char_traits@D@_STL@@V?$allocator@D@2@@_STL@@AAEXABU__true_type@2@@Z
_TEXT	SEGMENT
___formal$ = 8						; size = 4
?_M_terminate_string_aux@?$basic_string@DV?$char_traits@D@_STL@@V?$allocator@D@2@@_STL@@AAEXABU__true_type@2@@Z PROC NEAR ; _STL::basic_string<char,_STL::char_traits<char>,_STL::allocator<char> >::_M_terminate_string_aux, COMDAT
; _this$ = ecx

; 351  :     *(this->_M_finish)=0;

  00000	8b 41 04	 mov	 eax, DWORD PTR [ecx+4]
  00003	c6 00 00	 mov	 BYTE PTR [eax], 0

; 352  :   }

  00006	c2 04 00	 ret	 4
?_M_terminate_string_aux@?$basic_string@DV?$char_traits@D@_STL@@V?$allocator@D@2@@_STL@@AAEXABU__true_type@2@@Z ENDP ; _STL::basic_string<char,_STL::char_traits<char>,_STL::allocator<char> >::_M_terminate_string_aux
_TEXT	ENDS
PUBLIC	??0?$allocator@D@_STL@@QAE@ABV01@@Z		; _STL::allocator<char>::allocator<char>
; Function compile flags: /Ogsy
; File c:\stlport-4.6.1\stlport\stl\_alloc.h
;	COMDAT ??0?$allocator@D@_STL@@QAE@ABV01@@Z
_TEXT	SEGMENT
___formal$ = 8						; size = 4
??0?$allocator@D@_STL@@QAE@ABV01@@Z PROC NEAR		; _STL::allocator<char>::allocator<char>, COMDAT
; _this$ = ecx

; 349  :   allocator(const allocator<_Tp>&) _STLP_NOTHROW {}

  00000	8b c1		 mov	 eax, ecx
  00002	c2 04 00	 ret	 4
??0?$allocator@D@_STL@@QAE@ABV01@@Z ENDP		; _STL::allocator<char>::allocator<char>
_TEXT	ENDS
PUBLIC	?copy@?$__char_traits_base@DH@_STL@@SAPADPADPBDI@Z ; _STL::__char_traits_base<char,int>::copy
EXTRN	_memcpy:NEAR
; Function compile flags: /Ogsy
; File c:\stlport-4.6.1\stlport\stl\char_traits.h
;	COMDAT ?copy@?$__char_traits_base@DH@_STL@@SAPADPADPBDI@Z
_TEXT	SEGMENT
___s1$ = 8						; size = 4
___s2$ = 12						; size = 4
___n$ = 16						; size = 4
?copy@?$__char_traits_base@DH@_STL@@SAPADPADPBDI@Z PROC NEAR ; _STL::__char_traits_base<char,int>::copy, COMDAT

; 169  :   static _CharT* _STLP_CALL copy(_CharT* __s1, const _CharT* __s2, size_t __n) {

  00000	55		 push	 ebp
  00001	8b ec		 mov	 ebp, esp

; 170  :     return (__n == 0 ? __s1 :
; 171  : 	    (_CharT*)memcpy(__s1, __s2, __n * sizeof(_CharT)));

  00003	83 7d 10 00	 cmp	 DWORD PTR ___n$[ebp], 0
  00007	75 05		 jne	 SHORT $L102014
  00009	8b 45 08	 mov	 eax, DWORD PTR ___s1$[ebp]

; 172  :     } 

  0000c	5d		 pop	 ebp
  0000d	c3		 ret	 0
$L102014:
  0000e	5d		 pop	 ebp

; 170  :     return (__n == 0 ? __s1 :
; 171  : 	    (_CharT*)memcpy(__s1, __s2, __n * sizeof(_CharT)));

  0000f	e9 00 00 00 00	 jmp	 _memcpy
?copy@?$__char_traits_base@DH@_STL@@SAPADPADPBDI@Z ENDP	; _STL::__char_traits_base<char,int>::copy
_TEXT	ENDS
PUBLIC	?flags@ios_base@_STL@@QBEHXZ			; _STL::ios_base::flags
; Function compile flags: /Ogsy
; File c:\stlport-4.6.1\stlport\stl\_ios_base.h
;	COMDAT ?flags@ios_base@_STL@@QBEHXZ
_TEXT	SEGMENT
?flags@ios_base@_STL@@QBEHXZ PROC NEAR			; _STL::ios_base::flags, COMDAT
; _this$ = ecx

; 115  :   fmtflags flags() const { return _M_fmtflags; }

  00000	8b 41 04	 mov	 eax, DWORD PTR [ecx+4]
  00003	c3		 ret	 0
?flags@ios_base@_STL@@QBEHXZ ENDP			; _STL::ios_base::flags
_TEXT	ENDS
PUBLIC	?begin@?$basic_string@DV?$char_traits@D@_STL@@V?$allocator@D@2@@_STL@@QAEPADXZ ; _STL::basic_string<char,_STL::char_traits<char>,_STL::allocator<char> >::begin
; Function compile flags: /Ogsy
; File c:\stlport-4.6.1\stlport\stl\_string.h
;	COMDAT ?begin@?$basic_string@DV?$char_traits@D@_STL@@V?$allocator@D@2@@_STL@@QAEPADXZ
_TEXT	SEGMENT
?begin@?$basic_string@DV?$char_traits@D@_STL@@V?$allocator@D@2@@_STL@@QAEPADXZ PROC NEAR ; _STL::basic_string<char,_STL::char_traits<char>,_STL::allocator<char> >::begin, COMDAT
; _this$ = ecx

; 416  :   iterator begin()             { return this->_M_start; }

  00000	8b 01		 mov	 eax, DWORD PTR [ecx]
  00002	c3		 ret	 0
?begin@?$basic_string@DV?$char_traits@D@_STL@@V?$allocator@D@2@@_STL@@QAEPADXZ ENDP ; _STL::basic_string<char,_STL::char_traits<char>,_STL::allocator<char> >::begin
_TEXT	ENDS
PUBLIC	?end@?$basic_string@DV?$char_traits@D@_STL@@V?$allocator@D@2@@_STL@@QAEPADXZ ; _STL::basic_string<char,_STL::char_traits<char>,_STL::allocator<char> >::end
; Function compile flags: /Ogsy
;	COMDAT ?end@?$basic_string@DV?$char_traits@D@_STL@@V?$allocator@D@2@@_STL@@QAEPADXZ
_TEXT	SEGMENT
?end@?$basic_string@DV?$char_traits@D@_STL@@V?$allocator@D@2@@_STL@@QAEPADXZ PROC NEAR ; _STL::basic_string<char,_STL::char_traits<char>,_STL::allocator<char> >::end, COMDAT
; _this$ = ecx

; 417  :   iterator end()               { return this->_M_finish; }

  00000	8b 41 04	 mov	 eax, DWORD PTR [ecx+4]
  00003	c3		 ret	 0
?end@?$basic_string@DV?$char_traits@D@_STL@@V?$allocator@D@2@@_STL@@QAEPADXZ ENDP ; _STL::basic_string<char,_STL::char_traits<char>,_STL::allocator<char> >::end
_TEXT	ENDS
PUBLIC	?move@?$__char_traits_base@DH@_STL@@SAPADPADPBDI@Z ; _STL::__char_traits_base<char,int>::move
; Function compile flags: /Ogsy
; File c:\stlport-4.6.1\stlport\stl\char_traits.h
;	COMDAT ?move@?$__char_traits_base@DH@_STL@@SAPADPADPBDI@Z
_TEXT	SEGMENT
___s1$ = 8						; size = 4
___s2$ = 12						; size = 4
__Sz$ = 16						; size = 4
?move@?$__char_traits_base@DH@_STL@@SAPADPADPBDI@Z PROC NEAR ; _STL::__char_traits_base<char,int>::move, COMDAT

; 165  :   static _CharT* _STLP_CALL move(_CharT* __s1, const _CharT* __s2, size_t _Sz) {    

  00000	55		 push	 ebp
  00001	8b ec		 mov	 ebp, esp

; 166  :     return (_Sz == 0 ? __s1 : (_CharT*)memmove(__s1, __s2, _Sz * sizeof(_CharT)));

  00003	83 7d 10 00	 cmp	 DWORD PTR __Sz$[ebp], 0
  00007	75 05		 jne	 SHORT $L102028
  00009	8b 45 08	 mov	 eax, DWORD PTR ___s1$[ebp]

; 167  :   }

  0000c	5d		 pop	 ebp
  0000d	c3		 ret	 0
$L102028:
  0000e	5d		 pop	 ebp

; 166  :     return (_Sz == 0 ? __s1 : (_CharT*)memmove(__s1, __s2, _Sz * sizeof(_CharT)));

  0000f	e9 00 00 00 00	 jmp	 _memmove
?move@?$__char_traits_base@DH@_STL@@SAPADPADPBDI@Z ENDP	; _STL::__char_traits_base<char,int>::move
_TEXT	ENDS
PUBLIC	??_C@_0N@GOPDCEEB@basic_string?$AA@		; `string'
PUBLIC	?_M_throw_out_of_range@?$_String_base@DV?$allocator@D@_STL@@@_STL@@QBEXXZ ; _STL::_String_base<char,_STL::allocator<char> >::_M_throw_out_of_range
EXTRN	?__stl_throw_out_of_range@_STL@@YAXPBD@Z:NEAR	; _STL::__stl_throw_out_of_range
;	COMDAT ??_C@_0N@GOPDCEEB@basic_string?$AA@
; File c:\stlport-4.6.1\stlport\stl\_string.c
CONST	SEGMENT
??_C@_0N@GOPDCEEB@basic_string?$AA@ DB 'basic_string', 00H ; `string'
; Function compile flags: /Ogsy
CONST	ENDS
;	COMDAT ?_M_throw_out_of_range@?$_String_base@DV?$allocator@D@_STL@@@_STL@@QBEXXZ
_TEXT	SEGMENT
?_M_throw_out_of_range@?$_String_base@DV?$allocator@D@_STL@@@_STL@@QBEXXZ PROC NEAR ; _STL::_String_base<char,_STL::allocator<char> >::_M_throw_out_of_range, COMDAT
; _this$ = ecx

; 527  :     __stl_throw_out_of_range("basic_string");

  00000	68 00 00 00 00	 push	 OFFSET FLAT:??_C@_0N@GOPDCEEB@basic_string?$AA@
  00005	e8 00 00 00 00	 call	 ?__stl_throw_out_of_range@_STL@@YAXPBD@Z ; _STL::__stl_throw_out_of_range
  0000a	59		 pop	 ecx

; 528  : }

  0000b	c3		 ret	 0
?_M_throw_out_of_range@?$_String_base@DV?$allocator@D@_STL@@@_STL@@QBEXXZ ENDP ; _STL::_String_base<char,_STL::allocator<char> >::_M_throw_out_of_range
_TEXT	ENDS
PUBLIC	?rdstate@ios_base@_STL@@QBEHXZ			; _STL::ios_base::rdstate
; Function compile flags: /Ogsy
; File c:\stlport-4.6.1\stlport\stl\_ios_base.h
;	COMDAT ?rdstate@ios_base@_STL@@QBEHXZ
_TEXT	SEGMENT
?rdstate@ios_base@_STL@@QBEHXZ PROC NEAR		; _STL::ios_base::rdstate, COMDAT
; _this$ = ecx

; 178  :   iostate rdstate() const { return _M_iostate; }

  00000	8b 41 08	 mov	 eax, DWORD PTR [ecx+8]
  00003	c3		 ret	 0
?rdstate@ios_base@_STL@@QBEHXZ ENDP			; _STL::ios_base::rdstate
_TEXT	ENDS
PUBLIC	?good@ios_base@_STL@@QBE_NXZ			; _STL::ios_base::good
; Function compile flags: /Ogsy
;	COMDAT ?good@ios_base@_STL@@QBE_NXZ
_TEXT	SEGMENT
?good@ios_base@_STL@@QBE_NXZ PROC NEAR			; _STL::ios_base::good, COMDAT
; _this$ = ecx

; 180  :   bool good() const { return _M_iostate == 0; }

  00000	33 c0		 xor	 eax, eax
  00002	39 41 08	 cmp	 DWORD PTR [ecx+8], eax
  00005	0f 94 c0	 sete	 al
  00008	c3		 ret	 0
?good@ios_base@_STL@@QBE_NXZ ENDP			; _STL::ios_base::good
_TEXT	ENDS
PUBLIC	?eof@ios_base@_STL@@QBE_NXZ			; _STL::ios_base::eof
; Function compile flags: /Ogsy
;	COMDAT ?eof@ios_base@_STL@@QBE_NXZ
_TEXT	SEGMENT
?eof@ios_base@_STL@@QBE_NXZ PROC NEAR			; _STL::ios_base::eof, COMDAT
; _this$ = ecx

; 181  :   bool eof() const { return (_M_iostate & eofbit) != 0; }

  00000	8b 41 08	 mov	 eax, DWORD PTR [ecx+8]
  00003	d1 e8		 shr	 eax, 1
  00005	83 e0 01	 and	 eax, 1
  00008	c3		 ret	 0
?eof@ios_base@_STL@@QBE_NXZ ENDP			; _STL::ios_base::eof
_TEXT	ENDS
PUBLIC	?_M_setstate_nothrow@ios_base@_STL@@IAEXH@Z	; _STL::ios_base::_M_setstate_nothrow
; Function compile flags: /Ogsy
;	COMDAT ?_M_setstate_nothrow@ios_base@_STL@@IAEXH@Z
_TEXT	SEGMENT
___state$ = 8						; size = 4
?_M_setstate_nothrow@ios_base@_STL@@IAEXH@Z PROC NEAR	; _STL::ios_base::_M_setstate_nothrow, COMDAT
; _this$ = ecx

; 193  :   void _M_setstate_nothrow(iostate __state) { _M_iostate |= __state; }

  00000	8b 44 24 04	 mov	 eax, DWORD PTR ___state$[esp-4]
  00004	09 41 08	 or	 DWORD PTR [ecx+8], eax
  00007	c2 04 00	 ret	 4
?_M_setstate_nothrow@ios_base@_STL@@IAEXH@Z ENDP	; _STL::ios_base::_M_setstate_nothrow
_TEXT	ENDS
PUBLIC	?_M_clear_nothrow@ios_base@_STL@@IAEXH@Z	; _STL::ios_base::_M_clear_nothrow
; Function compile flags: /Ogsy
;	COMDAT ?_M_clear_nothrow@ios_base@_STL@@IAEXH@Z
_TEXT	SEGMENT
___state$ = 8						; size = 4
?_M_clear_nothrow@ios_base@_STL@@IAEXH@Z PROC NEAR	; _STL::ios_base::_M_clear_nothrow, COMDAT
; _this$ = ecx

; 194  :   void _M_clear_nothrow(iostate __state) { _M_iostate = __state; }

  00000	8b 44 24 04	 mov	 eax, DWORD PTR ___state$[esp-4]
  00004	89 41 08	 mov	 DWORD PTR [ecx+8], eax
  00007	c2 04 00	 ret	 4
?_M_clear_nothrow@ios_base@_STL@@IAEXH@Z ENDP		; _STL::ios_base::_M_clear_nothrow
_TEXT	ENDS
PUBLIC	?_M_get_exception_mask@ios_base@_STL@@IBEHXZ	; _STL::ios_base::_M_get_exception_mask
; Function compile flags: /Ogsy
;	COMDAT ?_M_get_exception_mask@ios_base@_STL@@IBEHXZ
_TEXT	SEGMENT
?_M_get_exception_mask@ios_base@_STL@@IBEHXZ PROC NEAR	; _STL::ios_base::_M_get_exception_mask, COMDAT
; _this$ = ecx

; 195  :   iostate _M_get_exception_mask() const { return _M_exception_mask; }

  00000	8b 41 14	 mov	 eax, DWORD PTR [ecx+20]
  00003	c3		 ret	 0
?_M_get_exception_mask@ios_base@_STL@@IBEHXZ ENDP	; _STL::ios_base::_M_get_exception_mask
_TEXT	ENDS
PUBLIC	?_M_check_exception_mask@ios_base@_STL@@IAEXXZ	; _STL::ios_base::_M_check_exception_mask
EXTRN	?_M_throw_failure@ios_base@_STL@@IAEXXZ:NEAR	; _STL::ios_base::_M_throw_failure
; Function compile flags: /Ogsy
;	COMDAT ?_M_check_exception_mask@ios_base@_STL@@IAEXXZ
_TEXT	SEGMENT
?_M_check_exception_mask@ios_base@_STL@@IAEXXZ PROC NEAR ; _STL::ios_base::_M_check_exception_mask, COMDAT
; _this$ = ecx

; 198  :     if (_M_iostate & _M_exception_mask)

  00000	8b 41 14	 mov	 eax, DWORD PTR [ecx+20]
  00003	85 41 08	 test	 eax, DWORD PTR [ecx+8]
  00006	74 05		 je	 SHORT $L79498

; 199  :       _M_throw_failure(); 

  00008	e9 00 00 00 00	 jmp	 ?_M_throw_failure@ios_base@_STL@@IAEXXZ ; _STL::ios_base::_M_throw_failure
$L79498:

; 200  :   }

  0000d	c3		 ret	 0
?_M_check_exception_mask@ios_base@_STL@@IAEXXZ ENDP	; _STL::ios_base::_M_check_exception_mask
_TEXT	ENDS
PUBLIC	?_FILE_I_next@_STL@@YAPADPBU_iobuf@@@Z		; _STL::_FILE_I_next
; Function compile flags: /Ogsy
; File c:\stlport-4.6.1\stlport\stl\_stdio_file.h
;	COMDAT ?_FILE_I_next@_STL@@YAPADPBU_iobuf@@@Z
_TEXT	SEGMENT
___f$ = 8						; size = 4
?_FILE_I_next@_STL@@YAPADPBU_iobuf@@@Z PROC NEAR	; _STL::_FILE_I_next, COMDAT

; 99   : inline char* _FILE_I_next(const FILE *__f) { return (char*) __f->_ptr; }  

  00000	8b 44 24 04	 mov	 eax, DWORD PTR ___f$[esp-4]
  00004	8b 00		 mov	 eax, DWORD PTR [eax]
  00006	c3		 ret	 0
?_FILE_I_next@_STL@@YAPADPBU_iobuf@@@Z ENDP		; _STL::_FILE_I_next
_TEXT	ENDS
PUBLIC	?_FILE_I_end@_STL@@YAPADPBU_iobuf@@@Z		; _STL::_FILE_I_end
; Function compile flags: /Ogsy
;	COMDAT ?_FILE_I_end@_STL@@YAPADPBU_iobuf@@@Z
_TEXT	SEGMENT
___f$ = 8						; size = 4
?_FILE_I_end@_STL@@YAPADPBU_iobuf@@@Z PROC NEAR		; _STL::_FILE_I_end, COMDAT

; 101  :   { return (char*) __f->_ptr + __f->_cnt; }

  00000	8b 4c 24 04	 mov	 ecx, DWORD PTR ___f$[esp-4]
  00004	8b 41 04	 mov	 eax, DWORD PTR [ecx+4]
  00007	03 01		 add	 eax, DWORD PTR [ecx]
  00009	c3		 ret	 0
?_FILE_I_end@_STL@@YAPADPBU_iobuf@@@Z ENDP		; _STL::_FILE_I_end
_TEXT	ENDS
PUBLIC	?_FILE_I_avail@_STL@@YAHPBU_iobuf@@@Z		; _STL::_FILE_I_avail
; Function compile flags: /Ogsy
;	COMDAT ?_FILE_I_avail@_STL@@YAHPBU_iobuf@@@Z
_TEXT	SEGMENT
___f$ = 8						; size = 4
?_FILE_I_avail@_STL@@YAHPBU_iobuf@@@Z PROC NEAR		; _STL::_FILE_I_avail, COMDAT

; 103  : inline ptrdiff_t _FILE_I_avail(const FILE *__f) { return __f->_cnt; }

  00000	8b 44 24 04	 mov	 eax, DWORD PTR ___f$[esp-4]
  00004	8b 40 04	 mov	 eax, DWORD PTR [eax+4]
  00007	c3		 ret	 0
?_FILE_I_avail@_STL@@YAHPBU_iobuf@@@Z ENDP		; _STL::_FILE_I_avail
_TEXT	ENDS
PUBLIC	?_FILE_I_postincr@_STL@@YAAADPAU_iobuf@@@Z	; _STL::_FILE_I_postincr
; Function compile flags: /Ogsy
;	COMDAT ?_FILE_I_postincr@_STL@@YAAADPAU_iobuf@@@Z
_TEXT	SEGMENT
___f$ = 8						; size = 4
?_FILE_I_postincr@_STL@@YAAADPAU_iobuf@@@Z PROC NEAR	; _STL::_FILE_I_postincr, COMDAT

; 108  :   { --__f->_cnt; return *(char*) (__f->_ptr++); }

  00000	8b 4c 24 04	 mov	 ecx, DWORD PTR ___f$[esp-4]
  00004	8b 01		 mov	 eax, DWORD PTR [ecx]
  00006	ff 49 04	 dec	 DWORD PTR [ecx+4]
  00009	8d 50 01	 lea	 edx, DWORD PTR [eax+1]
  0000c	89 11		 mov	 DWORD PTR [ecx], edx
  0000e	c3		 ret	 0
?_FILE_I_postincr@_STL@@YAAADPAU_iobuf@@@Z ENDP		; _STL::_FILE_I_postincr
_TEXT	ENDS
PUBLIC	?_FILE_I_bump@_STL@@YAXPAU_iobuf@@H@Z		; _STL::_FILE_I_bump
; Function compile flags: /Ogsy
;	COMDAT ?_FILE_I_bump@_STL@@YAXPAU_iobuf@@H@Z
_TEXT	SEGMENT
___f$ = 8						; size = 4
___n$ = 12						; size = 4
?_FILE_I_bump@_STL@@YAXPAU_iobuf@@H@Z PROC NEAR		; _STL::_FILE_I_bump, COMDAT

; 114  :   { __f->_ptr += __n; __f->_cnt -= __n; }

  00000	8b 4c 24 08	 mov	 ecx, DWORD PTR ___n$[esp-4]
  00004	8b 44 24 04	 mov	 eax, DWORD PTR ___f$[esp-4]
  00008	01 08		 add	 DWORD PTR [eax], ecx
  0000a	29 48 04	 sub	 DWORD PTR [eax+4], ecx
  0000d	c3		 ret	 0
?_FILE_I_bump@_STL@@YAXPAU_iobuf@@H@Z ENDP		; _STL::_FILE_I_bump
_TEXT	ENDS
PUBLIC	?rdbuf@?$basic_ios@DV?$char_traits@D@_STL@@@_STL@@QBEPAV?$basic_streambuf@DV?$char_traits@D@_STL@@@2@XZ ; _STL::basic_ios<char,_STL::char_traits<char> >::rdbuf
; Function compile flags: /Ogsy
; File c:\stlport-4.6.1\stlport\stl\_ios.h
;	COMDAT ?rdbuf@?$basic_ios@DV?$char_traits@D@_STL@@@_STL@@QBEPAV?$basic_streambuf@DV?$char_traits@D@_STL@@@2@XZ
_TEXT	SEGMENT
?rdbuf@?$basic_ios@DV?$char_traits@D@_STL@@@_STL@@QBEPAV?$basic_streambuf@DV?$char_traits@D@_STL@@@2@XZ PROC NEAR ; _STL::basic_ios<char,_STL::char_traits<char> >::rdbuf, COMDAT
; _this$ = ecx

; 72   :     { return _M_streambuf; }

  00000	8b 41 58	 mov	 eax, DWORD PTR [ecx+88]
  00003	c3		 ret	 0
?rdbuf@?$basic_ios@DV?$char_traits@D@_STL@@@_STL@@QBEPAV?$basic_streambuf@DV?$char_traits@D@_STL@@@2@XZ ENDP ; _STL::basic_ios<char,_STL::char_traits<char> >::rdbuf
_TEXT	ENDS
PUBLIC	??0?$_Eq_char_bound@V?$char_traits@D@_STL@@@_STL@@QAE@D@Z ; _STL::_Eq_char_bound<_STL::char_traits<char> >::_Eq_char_bound<_STL::char_traits<char> >
; Function compile flags: /Ogsy
; File c:\stlport-4.6.1\stlport\stl\_ctraits_fns.h
;	COMDAT ??0?$_Eq_char_bound@V?$char_traits@D@_STL@@@_STL@@QAE@D@Z
_TEXT	SEGMENT
___c$ = 8						; size = 1
??0?$_Eq_char_bound@V?$char_traits@D@_STL@@@_STL@@QAE@D@Z PROC NEAR ; _STL::_Eq_char_bound<_STL::char_traits<char> >::_Eq_char_bound<_STL::char_traits<char> >, COMDAT
; _this$ = ecx

; 46   :   _Eq_char_bound(typename _Traits::char_type __c) : __val(__c) {}

  00000	8b c1		 mov	 eax, ecx
  00002	8a 4c 24 04	 mov	 cl, BYTE PTR ___c$[esp-4]
  00006	88 08		 mov	 BYTE PTR [eax], cl
  00008	c2 04 00	 ret	 4
??0?$_Eq_char_bound@V?$char_traits@D@_STL@@@_STL@@QAE@D@Z ENDP ; _STL::_Eq_char_bound<_STL::char_traits<char> >::_Eq_char_bound<_STL::char_traits<char> >
_TEXT	ENDS
PUBLIC	??Bsentry@?$basic_ostream@DV?$char_traits@D@_STL@@@_STL@@QBE_NXZ ; _STL::basic_ostream<char,_STL::char_traits<char> >::sentry::operator bool
; Function compile flags: /Ogsy
; File c:\stlport-4.6.1\stlport\stl\_ostream.h
;	COMDAT ??Bsentry@?$basic_ostream@DV?$char_traits@D@_STL@@@_STL@@QBE_NXZ
_TEXT	SEGMENT
??Bsentry@?$basic_ostream@DV?$char_traits@D@_STL@@@_STL@@QBE_NXZ PROC NEAR ; _STL::basic_ostream<char,_STL::char_traits<char> >::sentry::operator bool, COMDAT
; _this$ = ecx

; 176  :       operator bool() const { return _M_ok; }

  00000	8a 41 04	 mov	 al, BYTE PTR [ecx+4]
  00003	c3		 ret	 0
??Bsentry@?$basic_ostream@DV?$char_traits@D@_STL@@@_STL@@QBE_NXZ ENDP ; _STL::basic_ostream<char,_STL::char_traits<char> >::sentry::operator bool
_TEXT	ENDS
PUBLIC	??1sentry@?$basic_istream@DV?$char_traits@D@_STL@@@_STL@@QAE@XZ ; _STL::basic_istream<char,_STL::char_traits<char> >::sentry::~sentry
; Function compile flags: /Ogsy
; File c:\stlport-4.6.1\stlport\stl\_istream.h
;	COMDAT ??1sentry@?$basic_istream@DV?$char_traits@D@_STL@@@_STL@@QAE@XZ
_TEXT	SEGMENT
??1sentry@?$basic_istream@DV?$char_traits@D@_STL@@@_STL@@QAE@XZ PROC NEAR ; _STL::basic_istream<char,_STL::char_traits<char> >::sentry::~sentry, COMDAT
; _this$ = ecx

; 231  :     ~sentry() {}

  00000	c3		 ret	 0
??1sentry@?$basic_istream@DV?$char_traits@D@_STL@@@_STL@@QAE@XZ ENDP ; _STL::basic_istream<char,_STL::char_traits<char> >::sentry::~sentry
_TEXT	ENDS
PUBLIC	??Bsentry@?$basic_istream@DV?$char_traits@D@_STL@@@_STL@@QBE_NXZ ; _STL::basic_istream<char,_STL::char_traits<char> >::sentry::operator bool
; Function compile flags: /Ogsy
;	COMDAT ??Bsentry@?$basic_istream@DV?$char_traits@D@_STL@@@_STL@@QBE_NXZ
_TEXT	SEGMENT
??Bsentry@?$basic_istream@DV?$char_traits@D@_STL@@@_STL@@QBE_NXZ PROC NEAR ; _STL::basic_istream<char,_STL::char_traits<char> >::sentry::operator bool, COMDAT
; _this$ = ecx

; 233  :     operator bool() const { return _M_ok; }

  00000	8a 01		 mov	 al, BYTE PTR [ecx]
  00002	c3		 ret	 0
??Bsentry@?$basic_istream@DV?$char_traits@D@_STL@@@_STL@@QBE_NXZ ENDP ; _STL::basic_istream<char,_STL::char_traits<char> >::sentry::operator bool
_TEXT	ENDS
PUBLIC	??0?$_Constant_unary_fun@_NH@_STL@@QAE@AB_N@Z	; _STL::_Constant_unary_fun<bool,int>::_Constant_unary_fun<bool,int>
; Function compile flags: /Ogsy
; File c:\stlport-4.6.1\stlport\stl\_function_base.h
;	COMDAT ??0?$_Constant_unary_fun@_NH@_STL@@QAE@AB_N@Z
_TEXT	SEGMENT
___v$ = 8						; size = 4
??0?$_Constant_unary_fun@_NH@_STL@@QAE@AB_N@Z PROC NEAR	; _STL::_Constant_unary_fun<bool,int>::_Constant_unary_fun<bool,int>, COMDAT
; _this$ = ecx

; 199  :   _Constant_unary_fun(const result_type& __v) : _M_val(__v) {}

  00000	8b c1		 mov	 eax, ecx
  00002	8b 4c 24 04	 mov	 ecx, DWORD PTR ___v$[esp-4]
  00006	8a 09		 mov	 cl, BYTE PTR [ecx]
  00008	88 08		 mov	 BYTE PTR [eax], cl
  0000a	c2 04 00	 ret	 4
??0?$_Constant_unary_fun@_NH@_STL@@QAE@AB_N@Z ENDP	; _STL::_Constant_unary_fun<bool,int>::_Constant_unary_fun<bool,int>
_TEXT	ENDS
PUBLIC	?gptr@?$basic_streambuf@DV?$char_traits@D@_STL@@@_STL@@IBEPADXZ ; _STL::basic_streambuf<char,_STL::char_traits<char> >::gptr
; Function compile flags: /Ogsy
; File c:\stlport-4.6.1\stlport\stl\_streambuf.h
;	COMDAT ?gptr@?$basic_streambuf@DV?$char_traits@D@_STL@@@_STL@@IBEPADXZ
_TEXT	SEGMENT
?gptr@?$basic_streambuf@DV?$char_traits@D@_STL@@@_STL@@IBEPADXZ PROC NEAR ; _STL::basic_streambuf<char,_STL::char_traits<char> >::gptr, COMDAT
; _this$ = ecx

; 363  :   char_type* gptr()  const { return _FILE_I_next(_M_get); }

  00000	8b 41 04	 mov	 eax, DWORD PTR [ecx+4]
  00003	8b 00		 mov	 eax, DWORD PTR [eax]
  00005	c3		 ret	 0
?gptr@?$basic_streambuf@DV?$char_traits@D@_STL@@@_STL@@IBEPADXZ ENDP ; _STL::basic_streambuf<char,_STL::char_traits<char> >::gptr
_TEXT	ENDS
PUBLIC	?egptr@?$basic_streambuf@DV?$char_traits@D@_STL@@@_STL@@IBEPADXZ ; _STL::basic_streambuf<char,_STL::char_traits<char> >::egptr
; Function compile flags: /Ogsy
;	COMDAT ?egptr@?$basic_streambuf@DV?$char_traits@D@_STL@@@_STL@@IBEPADXZ
_TEXT	SEGMENT
?egptr@?$basic_streambuf@DV?$char_traits@D@_STL@@@_STL@@IBEPADXZ PROC NEAR ; _STL::basic_streambuf<char,_STL::char_traits<char> >::egptr, COMDAT
; _this$ = ecx

; 364  :   char_type* egptr() const { return _FILE_I_end(_M_get); }

  00000	8b 49 04	 mov	 ecx, DWORD PTR [ecx+4]
  00003	8b 41 04	 mov	 eax, DWORD PTR [ecx+4]
  00006	03 01		 add	 eax, DWORD PTR [ecx]
  00008	c3		 ret	 0
?egptr@?$basic_streambuf@DV?$char_traits@D@_STL@@@_STL@@IBEPADXZ ENDP ; _STL::basic_streambuf<char,_STL::char_traits<char> >::egptr
_TEXT	ENDS
PUBLIC	?clear@?$basic_ios@DV?$char_traits@D@_STL@@@_STL@@QAEXH@Z ; _STL::basic_ios<char,_STL::char_traits<char> >::clear
; Function compile flags: /Ogsy
; File c:\stlport-4.6.1\stlport\stl\_ios.h
;	COMDAT ?clear@?$basic_ios@DV?$char_traits@D@_STL@@@_STL@@QAEXH@Z
_TEXT	SEGMENT
___state$ = 8						; size = 4
?clear@?$basic_ios@DV?$char_traits@D@_STL@@@_STL@@QAEXH@Z PROC NEAR ; _STL::basic_ios<char,_STL::char_traits<char> >::clear, COMDAT
; _this$ = ecx

; 91   :     _M_clear_nothrow(this->rdbuf() ? __state : iostate(__state|ios_base::badbit));

  00000	83 79 58 00	 cmp	 DWORD PTR [ecx+88], 0
  00004	8b 44 24 04	 mov	 eax, DWORD PTR ___state$[esp-4]
  00008	75 03		 jne	 SHORT $L102106
  0000a	83 c8 01	 or	 eax, 1
$L102106:

; 92   :     _M_check_exception_mask();

  0000d	85 41 14	 test	 DWORD PTR [ecx+20], eax
  00010	89 41 08	 mov	 DWORD PTR [ecx+8], eax
  00013	74 05		 je	 SHORT $L102117
  00015	e8 00 00 00 00	 call	 ?_M_throw_failure@ios_base@_STL@@IAEXXZ ; _STL::ios_base::_M_throw_failure
$L102117:

; 93   :   }

  0001a	c2 04 00	 ret	 4
?clear@?$basic_ios@DV?$char_traits@D@_STL@@@_STL@@QAEXH@Z ENDP ; _STL::basic_ios<char,_STL::char_traits<char> >::clear
_TEXT	ENDS
PUBLIC	?_M_gptr@?$basic_streambuf@DV?$char_traits@D@_STL@@@_STL@@QBEPADXZ ; _STL::basic_streambuf<char,_STL::char_traits<char> >::_M_gptr
; Function compile flags: /Ogsy
; File c:\stlport-4.6.1\stlport\stl\_streambuf.h
;	COMDAT ?_M_gptr@?$basic_streambuf@DV?$char_traits@D@_STL@@@_STL@@QBEPADXZ
_TEXT	SEGMENT
?_M_gptr@?$basic_streambuf@DV?$char_traits@D@_STL@@@_STL@@QBEPADXZ PROC NEAR ; _STL::basic_streambuf<char,_STL::char_traits<char> >::_M_gptr, COMDAT
; _this$ = ecx

; 375  :   char_type* _M_gptr()  const { return _FILE_I_next(_M_get); }

  00000	8b 41 04	 mov	 eax, DWORD PTR [ecx+4]
  00003	8b 00		 mov	 eax, DWORD PTR [eax]
  00005	c3		 ret	 0
?_M_gptr@?$basic_streambuf@DV?$char_traits@D@_STL@@@_STL@@QBEPADXZ ENDP ; _STL::basic_streambuf<char,_STL::char_traits<char> >::_M_gptr
_TEXT	ENDS
PUBLIC	?_M_egptr@?$basic_streambuf@DV?$char_traits@D@_STL@@@_STL@@QBEPADXZ ; _STL::basic_streambuf<char,_STL::char_traits<char> >::_M_egptr
; Function compile flags: /Ogsy
;	COMDAT ?_M_egptr@?$basic_streambuf@DV?$char_traits@D@_STL@@@_STL@@QBEPADXZ
_TEXT	SEGMENT
?_M_egptr@?$basic_streambuf@DV?$char_traits@D@_STL@@@_STL@@QBEPADXZ PROC NEAR ; _STL::basic_streambuf<char,_STL::char_traits<char> >::_M_egptr, COMDAT
; _this$ = ecx

; 376  :   char_type* _M_egptr() const { return _FILE_I_end(_M_get); }

  00000	8b 49 04	 mov	 ecx, DWORD PTR [ecx+4]
  00003	8b 41 04	 mov	 eax, DWORD PTR [ecx+4]
  00006	03 01		 add	 eax, DWORD PTR [ecx]
  00008	c3		 ret	 0
?_M_egptr@?$basic_streambuf@DV?$char_traits@D@_STL@@@_STL@@QBEPADXZ ENDP ; _STL::basic_streambuf<char,_STL::char_traits<char> >::_M_egptr
_TEXT	ENDS
PUBLIC	?_M_gbump@?$basic_streambuf@DV?$char_traits@D@_STL@@@_STL@@QAEXH@Z ; _STL::basic_streambuf<char,_STL::char_traits<char> >::_M_gbump
; Function compile flags: /Ogsy
;	COMDAT ?_M_gbump@?$basic_streambuf@DV?$char_traits@D@_STL@@@_STL@@QAEXH@Z
_TEXT	SEGMENT
___n$ = 8						; size = 4
?_M_gbump@?$basic_streambuf@DV?$char_traits@D@_STL@@@_STL@@QAEXH@Z PROC NEAR ; _STL::basic_streambuf<char,_STL::char_traits<char> >::_M_gbump, COMDAT
; _this$ = ecx

; 378  :   void _M_gbump(int __n) { _FILE_I_bump(_M_get, __n); }

  00000	8b 41 04	 mov	 eax, DWORD PTR [ecx+4]
  00003	8b 4c 24 04	 mov	 ecx, DWORD PTR ___n$[esp-4]
  00007	01 08		 add	 DWORD PTR [eax], ecx
  00009	29 48 04	 sub	 DWORD PTR [eax+4], ecx
  0000c	c2 04 00	 ret	 4
?_M_gbump@?$basic_streambuf@DV?$char_traits@D@_STL@@@_STL@@QAEXH@Z ENDP ; _STL::basic_streambuf<char,_STL::char_traits<char> >::_M_gbump
_TEXT	ENDS
PUBLIC	?_M_handle_exception@?$basic_ios@DV?$char_traits@D@_STL@@@_STL@@QAEXH@Z ; _STL::basic_ios<char,_STL::char_traits<char> >::_M_handle_exception
EXTRN	__CxxThrowException@8:NEAR
; Function compile flags: /Ogsy
; File c:\stlport-4.6.1\stlport\stl\_ios.c
;	COMDAT ?_M_handle_exception@?$basic_ios@DV?$char_traits@D@_STL@@@_STL@@QAEXH@Z
_TEXT	SEGMENT
___flag$ = 8						; size = 4
?_M_handle_exception@?$basic_ios@DV?$char_traits@D@_STL@@@_STL@@QAEXH@Z PROC NEAR ; _STL::basic_ios<char,_STL::char_traits<char> >::_M_handle_exception, COMDAT
; _this$ = ecx

; 118  :   this->_M_setstate_nothrow(__flag);

  00000	8b 44 24 04	 mov	 eax, DWORD PTR ___flag$[esp-4]
  00004	09 41 08	 or	 DWORD PTR [ecx+8], eax

; 119  :   if (this->_M_get_exception_mask() & __flag)

  00007	85 41 14	 test	 DWORD PTR [ecx+20], eax
  0000a	74 09		 je	 SHORT $L101283

; 120  :     _STLP_RETHROW;

  0000c	6a 00		 push	 0
  0000e	6a 00		 push	 0
  00010	e8 00 00 00 00	 call	 __CxxThrowException@8
$L102153:
$L101283:

; 121  : }

  00015	c2 04 00	 ret	 4
$L102152:
?_M_handle_exception@?$basic_ios@DV?$char_traits@D@_STL@@@_STL@@QAEXH@Z ENDP ; _STL::basic_ios<char,_STL::char_traits<char> >::_M_handle_exception
_TEXT	ENDS
PUBLIC	?pubsync@?$basic_streambuf@DV?$char_traits@D@_STL@@@_STL@@QAEHXZ ; _STL::basic_streambuf<char,_STL::char_traits<char> >::pubsync
; Function compile flags: /Ogsy
; File c:\stlport-4.6.1\stlport\stl\_streambuf.h
;	COMDAT ?pubsync@?$basic_streambuf@DV?$char_traits@D@_STL@@@_STL@@QAEHXZ
_TEXT	SEGMENT
?pubsync@?$basic_streambuf@DV?$char_traits@D@_STL@@@_STL@@QAEHXZ PROC NEAR ; _STL::basic_streambuf<char,_STL::char_traits<char> >::pubsync, COMDAT
; _this$ = ecx

; 411  :   int pubsync() { return this->sync(); }

  00000	8b 01		 mov	 eax, DWORD PTR [ecx]
  00002	ff 60 10	 jmp	 DWORD PTR [eax+16]
?pubsync@?$basic_streambuf@DV?$char_traits@D@_STL@@@_STL@@QAEHXZ ENDP ; _STL::basic_streambuf<char,_STL::char_traits<char> >::pubsync
_TEXT	ENDS
PUBLIC	?sputn@?$basic_streambuf@DV?$char_traits@D@_STL@@@_STL@@QAEHPBDH@Z ; _STL::basic_streambuf<char,_STL::char_traits<char> >::sputn
; Function compile flags: /Ogsy
;	COMDAT ?sputn@?$basic_streambuf@DV?$char_traits@D@_STL@@@_STL@@QAEHPBDH@Z
_TEXT	SEGMENT
___s$ = 8						; size = 4
___n$ = 12						; size = 4
?sputn@?$basic_streambuf@DV?$char_traits@D@_STL@@@_STL@@QAEHPBDH@Z PROC NEAR ; _STL::basic_streambuf<char,_STL::char_traits<char> >::sputn, COMDAT
; _this$ = ecx

; 441  :     { return this->xsputn(__s, __n); }

  00000	8b 01		 mov	 eax, DWORD PTR [ecx]
  00002	ff 60 28	 jmp	 DWORD PTR [eax+40]
?sputn@?$basic_streambuf@DV?$char_traits@D@_STL@@@_STL@@QAEHPBDH@Z ENDP ; _STL::basic_streambuf<char,_STL::char_traits<char> >::sputn
_TEXT	ENDS
PUBLIC	?sbumpc@?$basic_streambuf@DV?$char_traits@D@_STL@@@_STL@@QAEHXZ ; _STL::basic_streambuf<char,_STL::char_traits<char> >::sbumpc
; Function compile flags: /Ogsy
;	COMDAT ?sbumpc@?$basic_streambuf@DV?$char_traits@D@_STL@@@_STL@@QAEHXZ
_TEXT	SEGMENT
?sbumpc@?$basic_streambuf@DV?$char_traits@D@_STL@@@_STL@@QAEHXZ PROC NEAR ; _STL::basic_streambuf<char,_STL::char_traits<char> >::sbumpc, COMDAT
; _this$ = ecx

; 464  :     return _FILE_I_avail(_M_get) > 0
; 465  :       ? traits_type::to_int_type(_FILE_I_postincr(_M_get))
; 466  :       : this->uflow();

  00000	8b 41 04	 mov	 eax, DWORD PTR [ecx+4]
  00003	83 78 04 00	 cmp	 DWORD PTR [eax+4], 0
  00007	7e 0e		 jle	 SHORT $L102165
  00009	8b 08		 mov	 ecx, DWORD PTR [eax]
  0000b	ff 48 04	 dec	 DWORD PTR [eax+4]
  0000e	8d 51 01	 lea	 edx, DWORD PTR [ecx+1]
  00011	89 10		 mov	 DWORD PTR [eax], edx
  00013	0f b6 01	 movzx	 eax, BYTE PTR [ecx]

; 467  :   }

  00016	c3		 ret	 0
$L102165:

; 464  :     return _FILE_I_avail(_M_get) > 0
; 465  :       ? traits_type::to_int_type(_FILE_I_postincr(_M_get))
; 466  :       : this->uflow();

  00017	8b 01		 mov	 eax, DWORD PTR [ecx]
  00019	ff 60 20	 jmp	 DWORD PTR [eax+32]
?sbumpc@?$basic_streambuf@DV?$char_traits@D@_STL@@@_STL@@QAEHXZ ENDP ; _STL::basic_streambuf<char,_STL::char_traits<char> >::sbumpc
_TEXT	ENDS
PUBLIC	?sgetc@?$basic_streambuf@DV?$char_traits@D@_STL@@@_STL@@QAEHXZ ; _STL::basic_streambuf<char,_STL::char_traits<char> >::sgetc
; Function compile flags: /Ogsy
;	COMDAT ?sgetc@?$basic_streambuf@DV?$char_traits@D@_STL@@@_STL@@QAEHXZ
_TEXT	SEGMENT
?sgetc@?$basic_streambuf@DV?$char_traits@D@_STL@@@_STL@@QAEHXZ PROC NEAR ; _STL::basic_streambuf<char,_STL::char_traits<char> >::sgetc, COMDAT
; _this$ = ecx

; 471  :     return _FILE_I_avail(_M_get) > 0
; 472  :       ? traits_type::to_int_type(*_FILE_I_next(_M_get))
; 473  :       : this->underflow();

  00000	8b 41 04	 mov	 eax, DWORD PTR [ecx+4]
  00003	83 78 04 00	 cmp	 DWORD PTR [eax+4], 0
  00007	7e 06		 jle	 SHORT $L102183
  00009	8b 00		 mov	 eax, DWORD PTR [eax]
  0000b	0f b6 00	 movzx	 eax, BYTE PTR [eax]

; 474  :   }

  0000e	c3		 ret	 0
$L102183:

; 471  :     return _FILE_I_avail(_M_get) > 0
; 472  :       ? traits_type::to_int_type(*_FILE_I_next(_M_get))
; 473  :       : this->underflow();

  0000f	8b 01		 mov	 eax, DWORD PTR [ecx]
  00011	ff 60 1c	 jmp	 DWORD PTR [eax+28]
?sgetc@?$basic_streambuf@DV?$char_traits@D@_STL@@@_STL@@QAEHXZ ENDP ; _STL::basic_streambuf<char,_STL::char_traits<char> >::sgetc
_TEXT	ENDS
PUBLIC	?data@?$basic_string@DV?$char_traits@D@_STL@@V?$allocator@D@2@@_STL@@QBEPBDXZ ; _STL::basic_string<char,_STL::char_traits<char>,_STL::allocator<char> >::data
; Function compile flags: /Ogsy
; File c:\stlport-4.6.1\stlport\stl\_string.h
;	COMDAT ?data@?$basic_string@DV?$char_traits@D@_STL@@V?$allocator@D@2@@_STL@@QBEPBDXZ
_TEXT	SEGMENT
?data@?$basic_string@DV?$char_traits@D@_STL@@V?$allocator@D@2@@_STL@@QBEPBDXZ PROC NEAR ; _STL::basic_string<char,_STL::char_traits<char>,_STL::allocator<char> >::data, COMDAT
; _this$ = ecx

; 1066 :   const _CharT* data()  const { return this->_M_start; }

  00000	8b 01		 mov	 eax, DWORD PTR [ecx]
  00002	c3		 ret	 0
?data@?$basic_string@DV?$char_traits@D@_STL@@V?$allocator@D@2@@_STL@@QBEPBDXZ ENDP ; _STL::basic_string<char,_STL::char_traits<char>,_STL::allocator<char> >::data
_TEXT	ENDS
PUBLIC	?max_size@?$_String_base@DV?$allocator@D@_STL@@@_STL@@QBEIXZ ; _STL::_String_base<char,_STL::allocator<char> >::max_size
; Function compile flags: /Ogsy
;	COMDAT ?max_size@?$_String_base@DV?$allocator@D@_STL@@@_STL@@QBEIXZ
_TEXT	SEGMENT
?max_size@?$_String_base@DV?$allocator@D@_STL@@@_STL@@QBEIXZ PROC NEAR ; _STL::_String_base<char,_STL::allocator<char> >::max_size, COMDAT
; _this$ = ecx

; 126  :   size_t max_size() const { return (size_t(-1) / sizeof(_Tp)) - 1; }

  00000	6a fe		 push	 -2			; fffffffeH
  00002	58		 pop	 eax
  00003	c3		 ret	 0
?max_size@?$_String_base@DV?$allocator@D@_STL@@@_STL@@QBEIXZ ENDP ; _STL::_String_base<char,_STL::allocator<char> >::max_size
_TEXT	ENDS
PUBLIC	?tie@?$basic_ios@DV?$char_traits@D@_STL@@@_STL@@QBEPAV?$basic_ostream@DV?$char_traits@D@_STL@@@2@XZ ; _STL::basic_ios<char,_STL::char_traits<char> >::tie
; Function compile flags: /Ogsy
; File c:\stlport-4.6.1\stlport\stl\_ios.h
;	COMDAT ?tie@?$basic_ios@DV?$char_traits@D@_STL@@@_STL@@QBEPAV?$basic_ostream@DV?$char_traits@D@_STL@@@2@XZ
_TEXT	SEGMENT
?tie@?$basic_ios@DV?$char_traits@D@_STL@@@_STL@@QBEPAV?$basic_ostream@DV?$char_traits@D@_STL@@@2@XZ PROC NEAR ; _STL::basic_ios<char,_STL::char_traits<char> >::tie, COMDAT
; _this$ = ecx

; 62   :     return _M_tied_ostream;

  00000	8b 41 5c	 mov	 eax, DWORD PTR [ecx+92]

; 63   :   }

  00003	c3		 ret	 0
?tie@?$basic_ios@DV?$char_traits@D@_STL@@@_STL@@QBEPAV?$basic_ostream@DV?$char_traits@D@_STL@@@2@XZ ENDP ; _STL::basic_ios<char,_STL::char_traits<char> >::tie
_TEXT	ENDS
PUBLIC	??R?$_Constant_unary_fun@_NH@_STL@@QBEAB_NABH@Z	; _STL::_Constant_unary_fun<bool,int>::operator()
; Function compile flags: /Ogsy
; File c:\stlport-4.6.1\stlport\stl\_function_base.h
;	COMDAT ??R?$_Constant_unary_fun@_NH@_STL@@QBEAB_NABH@Z
_TEXT	SEGMENT
___formal$ = 8						; size = 4
??R?$_Constant_unary_fun@_NH@_STL@@QBEAB_NABH@Z PROC NEAR ; _STL::_Constant_unary_fun<bool,int>::operator(), COMDAT
; _this$ = ecx

; 200  :   const result_type& operator()(const _Argument&) const { return _M_val; }

  00000	8b c1		 mov	 eax, ecx
  00002	c2 04 00	 ret	 4
??R?$_Constant_unary_fun@_NH@_STL@@QBEAB_NABH@Z ENDP	; _STL::_Constant_unary_fun<bool,int>::operator()
_TEXT	ENDS
PUBLIC	??R?$_Project2nd@PBDPBD@_STL@@QBEPBDABQBD0@Z	; _STL::_Project2nd<char const *,char const *>::operator()
; Function compile flags: /Ogsy
;	COMDAT ??R?$_Project2nd@PBDPBD@_STL@@QBEPBDABQBD0@Z
_TEXT	SEGMENT
___formal$ = 8						; size = 4
___y$ = 12						; size = 4
??R?$_Project2nd@PBDPBD@_STL@@QBEPBDABQBD0@Z PROC NEAR	; _STL::_Project2nd<char const *,char const *>::operator(), COMDAT
; _this$ = ecx

; 173  :   _Arg2 operator()(const _Arg1&, const _Arg2& __y) const { return __y; }

  00000	8b 44 24 08	 mov	 eax, DWORD PTR ___y$[esp-4]
  00004	8b 00		 mov	 eax, DWORD PTR [eax]
  00006	c2 08 00	 ret	 8
??R?$_Project2nd@PBDPBD@_STL@@QBEPBDABQBD0@Z ENDP	; _STL::_Project2nd<char const *,char const *>::operator()
_TEXT	ENDS
PUBLIC	?_M_throw_length_error@?$_String_base@DV?$allocator@D@_STL@@@_STL@@QBEXXZ ; _STL::_String_base<char,_STL::allocator<char> >::_M_throw_length_error
EXTRN	?__stl_throw_length_error@_STL@@YAXPBD@Z:NEAR	; _STL::__stl_throw_length_error
; Function compile flags: /Ogsy
; File c:\stlport-4.6.1\stlport\stl\_string.c
;	COMDAT ?_M_throw_length_error@?$_String_base@DV?$allocator@D@_STL@@@_STL@@QBEXXZ
_TEXT	SEGMENT
?_M_throw_length_error@?$_String_base@DV?$allocator@D@_STL@@@_STL@@QBEXXZ PROC NEAR ; _STL::_String_base<char,_STL::allocator<char> >::_M_throw_length_error, COMDAT
; _this$ = ecx

; 523  :     __stl_throw_length_error("basic_string");

  00000	68 00 00 00 00	 push	 OFFSET FLAT:??_C@_0N@GOPDCEEB@basic_string?$AA@
  00005	e8 00 00 00 00	 call	 ?__stl_throw_length_error@_STL@@YAXPBD@Z ; _STL::__stl_throw_length_error
  0000a	59		 pop	 ecx

; 524  : }

  0000b	c3		 ret	 0
?_M_throw_length_error@?$_String_base@DV?$allocator@D@_STL@@@_STL@@QBEXXZ ENDP ; _STL::_String_base<char,_STL::allocator<char> >::_M_throw_length_error
_TEXT	ENDS
PUBLIC	?max_size@?$basic_string@DV?$char_traits@D@_STL@@V?$allocator@D@2@@_STL@@QBEIXZ ; _STL::basic_string<char,_STL::char_traits<char>,_STL::allocator<char> >::max_size
; Function compile flags: /Ogsy
; File c:\stlport-4.6.1\stlport\stl\_string.h
;	COMDAT ?max_size@?$basic_string@DV?$char_traits@D@_STL@@V?$allocator@D@2@@_STL@@QBEIXZ
_TEXT	SEGMENT
?max_size@?$basic_string@DV?$char_traits@D@_STL@@V?$allocator@D@2@@_STL@@QBEIXZ PROC NEAR ; _STL::basic_string<char,_STL::char_traits<char>,_STL::allocator<char> >::max_size, COMDAT
; _this$ = ecx

; 434  :   size_t max_size() const { return _Base::max_size(); }

  00000	6a fe		 push	 -2			; fffffffeH
  00002	58		 pop	 eax
  00003	c3		 ret	 0
?max_size@?$basic_string@DV?$char_traits@D@_STL@@V?$allocator@D@2@@_STL@@QBEIXZ ENDP ; _STL::basic_string<char,_STL::char_traits<char>,_STL::allocator<char> >::max_size
_TEXT	ENDS
PUBLIC	?capacity@?$basic_string@DV?$char_traits@D@_STL@@V?$allocator@D@2@@_STL@@QBEIXZ ; _STL::basic_string<char,_STL::char_traits<char>,_STL::allocator<char> >::capacity
; Function compile flags: /Ogsy
;	COMDAT ?capacity@?$basic_string@DV?$char_traits@D@_STL@@V?$allocator@D@2@@_STL@@QBEIXZ
_TEXT	SEGMENT
?capacity@?$basic_string@DV?$char_traits@D@_STL@@V?$allocator@D@2@@_STL@@QBEIXZ PROC NEAR ; _STL::basic_string<char,_STL::char_traits<char>,_STL::allocator<char> >::capacity, COMDAT
; _this$ = ecx

; 447  :   size_type capacity() const { return (this->_M_end_of_storage._M_data - this->_M_start) - 1; }

  00000	8b 41 08	 mov	 eax, DWORD PTR [ecx+8]
  00003	2b 01		 sub	 eax, DWORD PTR [ecx]
  00005	48		 dec	 eax
  00006	c3		 ret	 0
?capacity@?$basic_string@DV?$char_traits@D@_STL@@V?$allocator@D@2@@_STL@@QBEIXZ ENDP ; _STL::basic_string<char,_STL::char_traits<char>,_STL::allocator<char> >::capacity
_TEXT	ENDS
PUBLIC	??R?$_Eq_char_bound@V?$char_traits@D@_STL@@@_STL@@QBE_NABD@Z ; _STL::_Eq_char_bound<_STL::char_traits<char> >::operator()
; Function compile flags: /Ogsy
; File c:\stlport-4.6.1\stlport\stl\_ctraits_fns.h
;	COMDAT ??R?$_Eq_char_bound@V?$char_traits@D@_STL@@@_STL@@QBE_NABD@Z
_TEXT	SEGMENT
___x$ = 8						; size = 4
??R?$_Eq_char_bound@V?$char_traits@D@_STL@@@_STL@@QBE_NABD@Z PROC NEAR ; _STL::_Eq_char_bound<_STL::char_traits<char> >::operator(), COMDAT
; _this$ = ecx

; 48   :     { return _Traits::eq(__x, __val); }

  00000	8b 44 24 04	 mov	 eax, DWORD PTR ___x$[esp-4]
  00004	8a 00		 mov	 al, BYTE PTR [eax]
  00006	2a 01		 sub	 al, BYTE PTR [ecx]
  00008	f6 d8		 neg	 al
  0000a	1b c0		 sbb	 eax, eax
  0000c	40		 inc	 eax
  0000d	c2 04 00	 ret	 4
??R?$_Eq_char_bound@V?$char_traits@D@_STL@@@_STL@@QBE_NABD@Z ENDP ; _STL::_Eq_char_bound<_STL::char_traits<char> >::operator()
_TEXT	ENDS
PUBLIC	?_M_construct_null_aux@?$basic_string@DV?$char_traits@D@_STL@@V?$allocator@D@2@@_STL@@AAEXPADABU__true_type@2@@Z ; _STL::basic_string<char,_STL::char_traits<char>,_STL::allocator<char> >::_M_construct_null_aux
; Function compile flags: /Ogsy
; File c:\stlport-4.6.1\stlport\stl\_string.h
;	COMDAT ?_M_construct_null_aux@?$basic_string@DV?$char_traits@D@_STL@@V?$allocator@D@2@@_STL@@AAEXPADABU__true_type@2@@Z
_TEXT	SEGMENT
___p$ = 8						; size = 4
___formal$ = 12						; size = 4
?_M_construct_null_aux@?$basic_string@DV?$char_traits@D@_STL@@V?$allocator@D@2@@_STL@@AAEXPADABU__true_type@2@@Z PROC NEAR ; _STL::basic_string<char,_STL::char_traits<char>,_STL::allocator<char> >::_M_construct_null_aux, COMDAT
; _this$ = ecx

; 332  :     *__p = 0;

  00000	8b 44 24 04	 mov	 eax, DWORD PTR ___p$[esp-4]
  00004	c6 00 00	 mov	 BYTE PTR [eax], 0

; 333  :   }

  00007	c2 08 00	 ret	 8
?_M_construct_null_aux@?$basic_string@DV?$char_traits@D@_STL@@V?$allocator@D@2@@_STL@@AAEXPADABU__true_type@2@@Z ENDP ; _STL::basic_string<char,_STL::char_traits<char>,_STL::allocator<char> >::_M_construct_null_aux
_TEXT	ENDS
PUBLIC	??$__distance@PBD@_STL@@YAHABQBD0ABUrandom_access_iterator_tag@0@@Z ; _STL::__distance<char const *>
; Function compile flags: /Ogsy
; File c:\stlport-4.6.1\stlport\stl\_iterator_base.h
;	COMDAT ??$__distance@PBD@_STL@@YAHABQBD0ABUrandom_access_iterator_tag@0@@Z
_TEXT	SEGMENT
___first$ = 8						; size = 4
___last$ = 12						; size = 4
___formal$ = 16						; size = 4
??$__distance@PBD@_STL@@YAHABQBD0ABUrandom_access_iterator_tag@0@@Z PROC NEAR ; _STL::__distance<char const *>, COMDAT

; 363  :   return __last - __first;

  00000	8b 44 24 08	 mov	 eax, DWORD PTR ___last$[esp-4]
  00004	8b 00		 mov	 eax, DWORD PTR [eax]
  00006	8b 4c 24 04	 mov	 ecx, DWORD PTR ___first$[esp-4]
  0000a	2b 01		 sub	 eax, DWORD PTR [ecx]

; 364  : }

  0000c	c3		 ret	 0
??$__distance@PBD@_STL@@YAHABQBD0ABUrandom_access_iterator_tag@0@@Z ENDP ; _STL::__distance<char const *>
_TEXT	ENDS
PUBLIC	??$__distance@PAD@_STL@@YAHABQAD0ABUrandom_access_iterator_tag@0@@Z ; _STL::__distance<char *>
; Function compile flags: /Ogsy
;	COMDAT ??$__distance@PAD@_STL@@YAHABQAD0ABUrandom_access_iterator_tag@0@@Z
_TEXT	SEGMENT
___first$ = 8						; size = 4
___last$ = 12						; size = 4
___formal$ = 16						; size = 4
??$__distance@PAD@_STL@@YAHABQAD0ABUrandom_access_iterator_tag@0@@Z PROC NEAR ; _STL::__distance<char *>, COMDAT

; 363  :   return __last - __first;

  00000	8b 44 24 08	 mov	 eax, DWORD PTR ___last$[esp-4]
  00004	8b 00		 mov	 eax, DWORD PTR [eax]
  00006	8b 4c 24 04	 mov	 ecx, DWORD PTR ___first$[esp-4]
  0000a	2b 01		 sub	 eax, DWORD PTR [ecx]

; 364  : }

  0000c	c3		 ret	 0
??$__distance@PAD@_STL@@YAHABQAD0ABUrandom_access_iterator_tag@0@@Z ENDP ; _STL::__distance<char *>
_TEXT	ENDS
PUBLIC	??$max@I@_STL@@YAABIABI0@Z			; _STL::max<unsigned int>
; Function compile flags: /Ogsy
; File c:\stlport-4.6.1\stlport\stl\_algobase.h
;	COMDAT ??$max@I@_STL@@YAABIABI0@Z
_TEXT	SEGMENT
___a$ = 8						; size = 4
___b$ = 12						; size = 4
??$max@I@_STL@@YAABIABI0@Z PROC NEAR			; _STL::max<unsigned int>, COMDAT

; 79   : inline const _Tp& (max)(const _Tp& __a, const _Tp& __b) {  return  __a < __b ? __b : __a; }

  00000	8b 44 24 04	 mov	 eax, DWORD PTR ___a$[esp-4]
  00004	8b 10		 mov	 edx, DWORD PTR [eax]
  00006	8b 4c 24 08	 mov	 ecx, DWORD PTR ___b$[esp-4]
  0000a	3b 11		 cmp	 edx, DWORD PTR [ecx]
  0000c	73 02		 jae	 SHORT $L102245
  0000e	8b c1		 mov	 eax, ecx
$L102245:
  00010	c3		 ret	 0
??$max@I@_STL@@YAABIABI0@Z ENDP				; _STL::max<unsigned int>
_TEXT	ENDS
PUBLIC	?_Ret@?$_BothPtrType@PADPAD@_STL@@SA?AU__true_type@2@XZ ; _STL::_BothPtrType<char *,char *>::_Ret
; Function compile flags: /Ogsy
; File c:\stlport-4.6.1\stlport\stl\type_traits.h
;	COMDAT ?_Ret@?$_BothPtrType@PADPAD@_STL@@SA?AU__true_type@2@XZ
_TEXT	SEGMENT
$T102249 = -1						; size = 1
?_Ret@?$_BothPtrType@PADPAD@_STL@@SA?AU__true_type@2@XZ PROC NEAR ; _STL::_BothPtrType<char *,char *>::_Ret, COMDAT

; 234  :   static __true_type _Ret() { return __true_type();} 

  00000	55		 push	 ebp
  00001	8b ec		 mov	 ebp, esp
  00003	51		 push	 ecx
  00004	57		 push	 edi
  00005	33 c0		 xor	 eax, eax
  00007	8d 7d ff	 lea	 edi, DWORD PTR $T102249[ebp]
  0000a	aa		 stosb
  0000b	8a 45 ff	 mov	 al, BYTE PTR $T102249[ebp]
  0000e	5f		 pop	 edi
  0000f	c9		 leave
  00010	c3		 ret	 0
?_Ret@?$_BothPtrType@PADPAD@_STL@@SA?AU__true_type@2@XZ ENDP ; _STL::_BothPtrType<char *,char *>::_Ret
_TEXT	ENDS
PUBLIC	?_Ret@?$_OKToMemCpy@DD@_STL@@SA?AU__true_type@2@XZ ; _STL::_OKToMemCpy<char,char>::_Ret
; Function compile flags: /Ogsy
;	COMDAT ?_Ret@?$_OKToMemCpy@DD@_STL@@SA?AU__true_type@2@XZ
_TEXT	SEGMENT
$T102252 = -1						; size = 1
?_Ret@?$_OKToMemCpy@DD@_STL@@SA?AU__true_type@2@XZ PROC NEAR ; _STL::_OKToMemCpy<char,char>::_Ret, COMDAT

; 361  :   static _Type _Ret() { return _Type(); }

  00000	55		 push	 ebp
  00001	8b ec		 mov	 ebp, esp
  00003	51		 push	 ecx
  00004	57		 push	 edi
  00005	33 c0		 xor	 eax, eax
  00007	8d 7d ff	 lea	 edi, DWORD PTR $T102252[ebp]
  0000a	aa		 stosb
  0000b	8a 45 ff	 mov	 al, BYTE PTR $T102252[ebp]
  0000e	5f		 pop	 edi
  0000f	c9		 leave
  00010	c3		 ret	 0
?_Ret@?$_OKToMemCpy@DD@_STL@@SA?AU__true_type@2@XZ ENDP	; _STL::_OKToMemCpy<char,char>::_Ret
_TEXT	ENDS
PUBLIC	??$_IsOKToMemCpy@DD@_STL@@YA?AU?$_OKToMemCpy@DD@0@PAD0@Z ; _STL::_IsOKToMemCpy<char,char>
; Function compile flags: /Ogsy
;	COMDAT ??$_IsOKToMemCpy@DD@_STL@@YA?AU?$_OKToMemCpy@DD@0@PAD0@Z
_TEXT	SEGMENT
$T102255 = -1						; size = 1
___formal$ = 8						; size = 4
___formal$ = 12						; size = 4
??$_IsOKToMemCpy@DD@_STL@@YA?AU?$_OKToMemCpy@DD@0@PAD0@Z PROC NEAR ; _STL::_IsOKToMemCpy<char,char>, COMDAT

; 365  : inline _OKToMemCpy<_Tp1, _Tp2> _IsOKToMemCpy(_Tp1*, _Tp2*)  {

  00000	55		 push	 ebp
  00001	8b ec		 mov	 ebp, esp
  00003	51		 push	 ecx
  00004	57		 push	 edi

; 366  :   return _OKToMemCpy<_Tp1, _Tp2>();

  00005	33 c0		 xor	 eax, eax
  00007	8d 7d ff	 lea	 edi, DWORD PTR $T102255[ebp]
  0000a	aa		 stosb
  0000b	8a 45 ff	 mov	 al, BYTE PTR $T102255[ebp]
  0000e	5f		 pop	 edi

; 367  : }

  0000f	c9		 leave
  00010	c3		 ret	 0
??$_IsOKToMemCpy@DD@_STL@@YA?AU?$_OKToMemCpy@DD@0@PAD0@Z ENDP ; _STL::_IsOKToMemCpy<char,char>
_TEXT	ENDS
PUBLIC	??$__copy_ptrs@PADPAD@_STL@@YAPADPAD00ABU__true_type@0@@Z ; _STL::__copy_ptrs<char *,char *>
; Function compile flags: /Ogsy
; File c:\stlport-4.6.1\stlport\stl\_algobase.h
;	COMDAT ??$__copy_ptrs@PADPAD@_STL@@YAPADPAD00ABU__true_type@0@@Z
_TEXT	SEGMENT
___first$ = 8						; size = 4
___last$ = 12						; size = 4
___result$ = 16						; size = 4
___formal$ = 20						; size = 4
??$__copy_ptrs@PADPAD@_STL@@YAPADPAD00ABU__true_type@0@@Z PROC NEAR ; _STL::__copy_ptrs<char *,char *>, COMDAT

; 195  : // we know they all pointers, so this cast is OK 
; 196  :   //  return (_OutputIter)__copy_trivial(&(*__first), &(*__last), &(*__result));
; 197  :   return (_OutputIter)__copy_trivial(__first, __last, __result);

  00000	ff 74 24 0c	 push	 DWORD PTR ___result$[esp-4]
  00004	ff 74 24 0c	 push	 DWORD PTR ___last$[esp]
  00008	ff 74 24 0c	 push	 DWORD PTR ___first$[esp+4]
  0000c	e8 00 00 00 00	 call	 ?__copy_trivial@_STL@@YAPAXPBX0PAX@Z ; _STL::__copy_trivial
  00011	83 c4 0c	 add	 esp, 12			; 0000000cH

; 198  : }

  00014	c3		 ret	 0
??$__copy_ptrs@PADPAD@_STL@@YAPADPAD00ABU__true_type@0@@Z ENDP ; _STL::__copy_ptrs<char *,char *>
_TEXT	ENDS
PUBLIC	?eof@?$__char_traits_base@DH@_STL@@SAHXZ	; _STL::__char_traits_base<char,int>::eof
; Function compile flags: /Ogsy
; File c:\stlport-4.6.1\stlport\stl\char_traits.h
;	COMDAT ?eof@?$__char_traits_base@DH@_STL@@SAHXZ
_TEXT	SEGMENT
?eof@?$__char_traits_base@DH@_STL@@SAHXZ PROC NEAR	; _STL::__char_traits_base<char,int>::eof, COMDAT

; 197  :     return (int_type)-1;

  00000	83 c8 ff	 or	 eax, -1

; 198  :     //    return __STATIC_CAST(int_type,-1);
; 199  :   }

  00003	c3		 ret	 0
?eof@?$__char_traits_base@DH@_STL@@SAHXZ ENDP		; _STL::__char_traits_base<char,int>::eof
_TEXT	ENDS
PUBLIC	??0?$allocator@D@_STL@@QAE@XZ			; _STL::allocator<char>::allocator<char>
; Function compile flags: /Ogsy
; File c:\stlport-4.6.1\stlport\stl\_alloc.h
;	COMDAT ??0?$allocator@D@_STL@@QAE@XZ
_TEXT	SEGMENT
??0?$allocator@D@_STL@@QAE@XZ PROC NEAR			; _STL::allocator<char>::allocator<char>, COMDAT
; _this$ = ecx

; 345  :   allocator() _STLP_NOTHROW {}

  00000	8b c1		 mov	 eax, ecx
  00002	c3		 ret	 0
??0?$allocator@D@_STL@@QAE@XZ ENDP			; _STL::allocator<char>::allocator<char>
_TEXT	ENDS
PUBLIC	??1?$allocator@D@_STL@@QAE@XZ			; _STL::allocator<char>::~allocator<char>
; Function compile flags: /Ogsy
;	COMDAT ??1?$allocator@D@_STL@@QAE@XZ
_TEXT	SEGMENT
??1?$allocator@D@_STL@@QAE@XZ PROC NEAR			; _STL::allocator<char>::~allocator<char>, COMDAT
; _this$ = ecx

; 350  :   ~allocator() _STLP_NOTHROW {}

  00000	c3		 ret	 0
??1?$allocator@D@_STL@@QAE@XZ ENDP			; _STL::allocator<char>::~allocator<char>
_TEXT	ENDS
PUBLIC	??1?$_STLP_alloc_proxy@PADDV?$allocator@D@_STL@@@_STL@@QAE@XZ ; _STL::_STLP_alloc_proxy<char *,char,_STL::allocator<char> >::~_STLP_alloc_proxy<char *,char,_STL::allocator<char> >
; Function compile flags: /Ogsy
;	COMDAT ??1?$_STLP_alloc_proxy@PADDV?$allocator@D@_STL@@@_STL@@QAE@XZ
_TEXT	SEGMENT
??1?$_STLP_alloc_proxy@PADDV?$allocator@D@_STL@@@_STL@@QAE@XZ PROC NEAR ; _STL::_STLP_alloc_proxy<char *,char,_STL::allocator<char> >::~_STLP_alloc_proxy<char *,char,_STL::allocator<char> >, COMDAT
; _this$ = ecx
  00000	c3		 ret	 0
??1?$_STLP_alloc_proxy@PADDV?$allocator@D@_STL@@@_STL@@QAE@XZ ENDP ; _STL::_STLP_alloc_proxy<char *,char,_STL::allocator<char> >::~_STLP_alloc_proxy<char *,char,_STL::allocator<char> >
_TEXT	ENDS
PUBLIC	?allocate@?$__node_alloc@$00$0A@@_STL@@SAPAXI@Z	; _STL::__node_alloc<1,0>::allocate
EXTRN	?_M_allocate@?$__node_alloc@$00$0A@@_STL@@CAPAXI@Z:NEAR ; _STL::__node_alloc<1,0>::_M_allocate
; Function compile flags: /Ogsy
;	COMDAT ?allocate@?$__node_alloc@$00$0A@@_STL@@SAPAXI@Z
_TEXT	SEGMENT
___n$ = 8						; size = 4
?allocate@?$__node_alloc@$00$0A@@_STL@@SAPAXI@Z PROC NEAR ; _STL::__node_alloc<1,0>::allocate, COMDAT

; 251  :   static void * _STLP_CALL allocate(size_t __n) { return (__n > (size_t)_MAX_BYTES) ?  __stl_new(__n) : _M_allocate(__n); }

  00000	8b 44 24 04	 mov	 eax, DWORD PTR ___n$[esp-4]
  00004	3d 80 00 00 00	 cmp	 eax, 128		; 00000080H
  00009	50		 push	 eax
  0000a	76 07		 jbe	 SHORT $L102276
  0000c	e8 00 00 00 00	 call	 ??2@YAPAXI@Z		; operator new
  00011	59		 pop	 ecx
  00012	c3		 ret	 0
$L102276:
  00013	e8 00 00 00 00	 call	 ?_M_allocate@?$__node_alloc@$00$0A@@_STL@@CAPAXI@Z ; _STL::__node_alloc<1,0>::_M_allocate
  00018	59		 pop	 ecx
  00019	c3		 ret	 0
?allocate@?$__node_alloc@$00$0A@@_STL@@SAPAXI@Z ENDP	; _STL::__node_alloc<1,0>::allocate
_TEXT	ENDS
PUBLIC	?deallocate@?$__node_alloc@$00$0A@@_STL@@SAXPAXI@Z ; _STL::__node_alloc<1,0>::deallocate
EXTRN	?_M_deallocate@?$__node_alloc@$00$0A@@_STL@@CAXPAXI@Z:NEAR ; _STL::__node_alloc<1,0>::_M_deallocate
; Function compile flags: /Ogsy
;	COMDAT ?deallocate@?$__node_alloc@$00$0A@@_STL@@SAXPAXI@Z
_TEXT	SEGMENT
___p$ = 8						; size = 4
___n$ = 12						; size = 4
?deallocate@?$__node_alloc@$00$0A@@_STL@@SAXPAXI@Z PROC NEAR ; _STL::__node_alloc<1,0>::deallocate, COMDAT

; 253  :   static void _STLP_CALL deallocate(void *__p, size_t __n) { if (__n > (size_t)_MAX_BYTES) __stl_delete(__p); else _M_deallocate(__p, __n); }

  00000	81 7c 24 08 80
	00 00 00	 cmp	 DWORD PTR ___n$[esp-4], 128 ; 00000080H
  00008	76 0b		 jbe	 SHORT $L98677
  0000a	ff 74 24 04	 push	 DWORD PTR ___p$[esp-4]
  0000e	e8 00 00 00 00	 call	 ??3@YAXPAX@Z		; operator delete
  00013	59		 pop	 ecx
  00014	c3		 ret	 0
$L98677:
  00015	e9 00 00 00 00	 jmp	 ?_M_deallocate@?$__node_alloc@$00$0A@@_STL@@CAXPAXI@Z ; _STL::__node_alloc<1,0>::_M_deallocate
?deallocate@?$__node_alloc@$00$0A@@_STL@@SAXPAXI@Z ENDP	; _STL::__node_alloc<1,0>::deallocate
_TEXT	ENDS
PUBLIC	??$min@I@_STL@@YAABIABI0@Z			; _STL::min<unsigned int>
; Function compile flags: /Ogsy
; File c:\stlport-4.6.1\stlport\stl\_algobase.h
;	COMDAT ??$min@I@_STL@@YAABIABI0@Z
_TEXT	SEGMENT
___a$ = 8						; size = 4
___b$ = 12						; size = 4
??$min@I@_STL@@YAABIABI0@Z PROC NEAR			; _STL::min<unsigned int>, COMDAT

; 77   : inline const _Tp& (min)(const _Tp& __a, const _Tp& __b) { return __b < __a ? __b : __a; }

  00000	8b 44 24 08	 mov	 eax, DWORD PTR ___b$[esp-4]
  00004	8b 10		 mov	 edx, DWORD PTR [eax]
  00006	8b 4c 24 04	 mov	 ecx, DWORD PTR ___a$[esp-4]
  0000a	3b 11		 cmp	 edx, DWORD PTR [ecx]
  0000c	72 02		 jb	 SHORT $L102293
  0000e	8b c1		 mov	 eax, ecx
$L102293:
  00010	c3		 ret	 0
??$min@I@_STL@@YAABIABI0@Z ENDP				; _STL::min<unsigned int>
_TEXT	ENDS
PUBLIC	??$min@H@_STL@@YAABHABH0@Z			; _STL::min<int>
; Function compile flags: /Ogsy
;	COMDAT ??$min@H@_STL@@YAABHABH0@Z
_TEXT	SEGMENT
___a$ = 8						; size = 4
___b$ = 12						; size = 4
??$min@H@_STL@@YAABHABH0@Z PROC NEAR			; _STL::min<int>, COMDAT

; 77   : inline const _Tp& (min)(const _Tp& __a, const _Tp& __b) { return __b < __a ? __b : __a; }

  00000	8b 44 24 08	 mov	 eax, DWORD PTR ___b$[esp-4]
  00004	8b 10		 mov	 edx, DWORD PTR [eax]
  00006	8b 4c 24 04	 mov	 ecx, DWORD PTR ___a$[esp-4]
  0000a	3b 11		 cmp	 edx, DWORD PTR [ecx]
  0000c	7c 02		 jl	 SHORT $L102299
  0000e	8b c1		 mov	 eax, ecx
$L102299:
  00010	c3		 ret	 0
??$min@H@_STL@@YAABHABH0@Z ENDP				; _STL::min<int>
_TEXT	ENDS
PUBLIC	?getSize@Update@@QBEIXZ				; Update::getSize
; Function compile flags: /Ogsy
; File c:\darkeden\designed_common\project\client\updater\update.cpp
;	COMDAT ?getSize@Update@@QBEIXZ
_TEXT	SEGMENT
?getSize@Update@@QBEIXZ PROC NEAR			; Update::getSize, COMDAT
; _this$ = ecx

; 395  : 	// [Version] [UpdateType] 
; 396  : 	uint size = szVersion + szBYTE;

  00000	6a 03		 push	 3
  00002	58		 pop	 eax
  00003	6a 06		 push	 6
  00005	5a		 pop	 edx
  00006	83 c1 08	 add	 ecx, 8
  00009	56		 push	 esi
$L100654:

; 397  : 
; 398  : 	for ( uint i = 0 ; i < maxParams ; i ++ ) {
; 399  : 		size += ( szParameterLen + m_Params[i].size() );

  0000a	8b 71 04	 mov	 esi, DWORD PTR [ecx+4]
  0000d	2b 31		 sub	 esi, DWORD PTR [ecx]
  0000f	83 c1 0c	 add	 ecx, 12			; 0000000cH
  00012	4a		 dec	 edx
  00013	8d 44 30 02	 lea	 eax, DWORD PTR [eax+esi+2]
  00017	75 f1		 jne	 SHORT $L100654
  00019	5e		 pop	 esi

; 400  : 	}
; 401  : 
; 402  : 	return size;
; 403  : }

  0001a	c3		 ret	 0
?getSize@Update@@QBEIXZ ENDP				; Update::getSize
_TEXT	ENDS
PUBLIC	?get_allocator@?$basic_string@DV?$char_traits@D@_STL@@V?$allocator@D@2@@_STL@@QBE?AV?$allocator@D@2@XZ ; _STL::basic_string<char,_STL::char_traits<char>,_STL::allocator<char> >::get_allocator
; Function compile flags: /Ogsy
; File c:\stlport-4.6.1\stlport\stl\_string.h
;	COMDAT ?get_allocator@?$basic_string@DV?$char_traits@D@_STL@@V?$allocator@D@2@@_STL@@QBE?AV?$allocator@D@2@XZ
_TEXT	SEGMENT
___$ReturnUdt$ = 8					; size = 4
?get_allocator@?$basic_string@DV?$char_traits@D@_STL@@V?$allocator@D@2@@_STL@@QBE?AV?$allocator@D@2@XZ PROC NEAR ; _STL::basic_string<char,_STL::char_traits<char>,_STL::allocator<char> >::get_allocator, COMDAT
; _this$ = ecx

; 216  :     return _STLP_CONVERT_ALLOCATOR((const allocator_type&)this->_M_end_of_storage, _CharT);

  00000	8b 44 24 04	 mov	 eax, DWORD PTR ___$ReturnUdt$[esp-4]

; 217  :   }

  00004	c2 04 00	 ret	 4
?get_allocator@?$basic_string@DV?$char_traits@D@_STL@@V?$allocator@D@2@@_STL@@QBE?AV?$allocator@D@2@XZ ENDP ; _STL::basic_string<char,_STL::char_traits<char>,_STL::allocator<char> >::get_allocator
_TEXT	ENDS
PUBLIC	?_M_terminate_string@?$basic_string@DV?$char_traits@D@_STL@@V?$allocator@D@2@@_STL@@AAEXXZ ; _STL::basic_string<char,_STL::char_traits<char>,_STL::allocator<char> >::_M_terminate_string
; Function compile flags: /Ogsy
;	COMDAT ?_M_terminate_string@?$basic_string@DV?$char_traits@D@_STL@@V?$allocator@D@2@@_STL@@AAEXXZ
_TEXT	SEGMENT
?_M_terminate_string@?$basic_string@DV?$char_traits@D@_STL@@V?$allocator@D@2@@_STL@@AAEXXZ PROC NEAR ; _STL::basic_string<char,_STL::char_traits<char>,_STL::allocator<char> >::_M_terminate_string, COMDAT
; _this$ = ecx

; 355  :     _M_terminate_string_aux(_Char_Is_Integral());

  00000	8b 41 04	 mov	 eax, DWORD PTR [ecx+4]
  00003	c6 00 00	 mov	 BYTE PTR [eax], 0

; 356  :   }

  00006	c3		 ret	 0
?_M_terminate_string@?$basic_string@DV?$char_traits@D@_STL@@V?$allocator@D@2@@_STL@@AAEXXZ ENDP ; _STL::basic_string<char,_STL::char_traits<char>,_STL::allocator<char> >::_M_terminate_string
_TEXT	ENDS
PUBLIC	?allocate@?$allocator@D@_STL@@QAEPADIPBX@Z	; _STL::allocator<char>::allocate
; Function compile flags: /Ogsy
; File c:\stlport-4.6.1\stlport\stl\_alloc.h
;	COMDAT ?allocate@?$allocator@D@_STL@@QAEPADIPBX@Z
_TEXT	SEGMENT
___n$ = 8						; size = 4
___formal$ = 12						; size = 4
?allocate@?$allocator@D@_STL@@QAEPADIPBX@Z PROC NEAR	; _STL::allocator<char>::allocate, COMDAT
; _this$ = ecx

; 355  :     return __n != 0 ? __REINTERPRET_CAST(value_type*,__sgi_alloc::allocate(__n * sizeof(value_type))) : 0;

  00000	33 c0		 xor	 eax, eax
  00002	39 44 24 04	 cmp	 DWORD PTR ___n$[esp-4], eax
  00006	74 0a		 je	 SHORT $L102323
  00008	ff 74 24 04	 push	 DWORD PTR ___n$[esp-4]
  0000c	e8 00 00 00 00	 call	 ?allocate@?$__node_alloc@$00$0A@@_STL@@SAPAXI@Z ; _STL::__node_alloc<1,0>::allocate
  00011	59		 pop	 ecx
$L102323:

; 356  :   }

  00012	c2 08 00	 ret	 8
?allocate@?$allocator@D@_STL@@QAEPADIPBX@Z ENDP		; _STL::allocator<char>::allocate
_TEXT	ENDS
PUBLIC	??0?$_STLP_alloc_proxy@PADDV?$allocator@D@_STL@@@_STL@@QAE@ABV?$allocator@D@1@PAD@Z ; _STL::_STLP_alloc_proxy<char *,char,_STL::allocator<char> >::_STLP_alloc_proxy<char *,char,_STL::allocator<char> >
; Function compile flags: /Ogsy
;	COMDAT ??0?$_STLP_alloc_proxy@PADDV?$allocator@D@_STL@@@_STL@@QAE@ABV?$allocator@D@1@PAD@Z
_TEXT	SEGMENT
___a$ = 8						; size = 4
___p$ = 12						; size = 4
??0?$_STLP_alloc_proxy@PADDV?$allocator@D@_STL@@@_STL@@QAE@ABV?$allocator@D@1@PAD@Z PROC NEAR ; _STL::_STLP_alloc_proxy<char *,char,_STL::allocator<char> >::_STLP_alloc_proxy<char *,char,_STL::allocator<char> >, COMDAT
; _this$ = ecx

; 487  :   inline _STLP_alloc_proxy(const _MaybeReboundAlloc& __a, _Value __p) : _MaybeReboundAlloc(__a), _M_data(__p) {}

  00000	8b c1		 mov	 eax, ecx
  00002	8b 4c 24 08	 mov	 ecx, DWORD PTR ___p$[esp-4]
  00006	89 08		 mov	 DWORD PTR [eax], ecx
  00008	c2 08 00	 ret	 8
??0?$_STLP_alloc_proxy@PADDV?$allocator@D@_STL@@@_STL@@QAE@ABV?$allocator@D@1@PAD@Z ENDP ; _STL::_STLP_alloc_proxy<char *,char,_STL::allocator<char> >::_STLP_alloc_proxy<char *,char,_STL::allocator<char> >
_TEXT	ENDS
PUBLIC	?erase@?$basic_string@DV?$char_traits@D@_STL@@V?$allocator@D@2@@_STL@@QAEPADPAD0@Z ; _STL::basic_string<char,_STL::char_traits<char>,_STL::allocator<char> >::erase
; Function compile flags: /Ogsy
; File c:\stlport-4.6.1\stlport\stl\_string.h
;	COMDAT ?erase@?$basic_string@DV?$char_traits@D@_STL@@V?$allocator@D@2@@_STL@@QAEPADPAD0@Z
_TEXT	SEGMENT
___first$ = 8						; size = 4
___last$ = 12						; size = 4
?erase@?$basic_string@DV?$char_traits@D@_STL@@V?$allocator@D@2@@_STL@@QAEPADPAD0@Z PROC NEAR ; _STL::basic_string<char,_STL::char_traits<char>,_STL::allocator<char> >::erase, COMDAT
; _this$ = ecx

; 862  :   iterator erase(iterator __first, iterator __last) {

  00000	53		 push	 ebx

; 863  :     if (__first != __last) {

  00001	8b 5c 24 08	 mov	 ebx, DWORD PTR ___first$[esp]
  00005	56		 push	 esi
  00006	57		 push	 edi
  00007	8b 7c 24 14	 mov	 edi, DWORD PTR ___last$[esp+8]
  0000b	3b df		 cmp	 ebx, edi
  0000d	8b f1		 mov	 esi, ecx
  0000f	74 1a		 je	 SHORT $L100778

; 864  :                                 // The move includes the terminating _CharT().
; 865  :       traits_type::move(__first, __last, (this->_M_finish - __last) + 1);

  00011	8b 46 04	 mov	 eax, DWORD PTR [esi+4]
  00014	2b c7		 sub	 eax, edi
  00016	40		 inc	 eax
  00017	74 0b		 je	 SHORT $L102336
  00019	50		 push	 eax
  0001a	57		 push	 edi
  0001b	53		 push	 ebx
  0001c	e8 00 00 00 00	 call	 _memmove
  00021	83 c4 0c	 add	 esp, 12			; 0000000cH
$L102336:

; 866  :       pointer __new_finish = this->_M_finish - (__last - __first);

  00024	8b c3		 mov	 eax, ebx
  00026	2b c7		 sub	 eax, edi

; 867  :       _STLP_STD::_Destroy(__new_finish + 1, this->_M_finish + 1);
; 868  :       this->_M_finish = __new_finish;

  00028	01 46 04	 add	 DWORD PTR [esi+4], eax
$L100778:
  0002b	5f		 pop	 edi
  0002c	5e		 pop	 esi

; 869  :     }
; 870  :     return __first;

  0002d	8b c3		 mov	 eax, ebx
  0002f	5b		 pop	 ebx

; 871  :   }

  00030	c2 08 00	 ret	 8
?erase@?$basic_string@DV?$char_traits@D@_STL@@V?$allocator@D@2@@_STL@@QAEPADPAD0@Z ENDP ; _STL::basic_string<char,_STL::char_traits<char>,_STL::allocator<char> >::erase
_TEXT	ENDS
PUBLIC	?setstate@?$basic_ios@DV?$char_traits@D@_STL@@@_STL@@QAEXH@Z ; _STL::basic_ios<char,_STL::char_traits<char> >::setstate
; Function compile flags: /Ogsy
; File c:\stlport-4.6.1\stlport\stl\_ios.h
;	COMDAT ?setstate@?$basic_ios@DV?$char_traits@D@_STL@@@_STL@@QAEXH@Z
_TEXT	SEGMENT
___state$ = 8						; size = 4
?setstate@?$basic_ios@DV?$char_traits@D@_STL@@@_STL@@QAEXH@Z PROC NEAR ; _STL::basic_ios<char,_STL::char_traits<char> >::setstate, COMDAT
; _this$ = ecx

; 94   :   void setstate(iostate __state) { this->clear(rdstate() | __state); }

  00000	8b 41 08	 mov	 eax, DWORD PTR [ecx+8]
  00003	0b 44 24 04	 or	 eax, DWORD PTR ___state$[esp-4]
  00007	50		 push	 eax
  00008	e8 00 00 00 00	 call	 ?clear@?$basic_ios@DV?$char_traits@D@_STL@@@_STL@@QAEXH@Z ; _STL::basic_ios<char,_STL::char_traits<char> >::clear
  0000d	c2 04 00	 ret	 4
?setstate@?$basic_ios@DV?$char_traits@D@_STL@@@_STL@@QAEXH@Z ENDP ; _STL::basic_ios<char,_STL::char_traits<char> >::setstate
_TEXT	ENDS
PUBLIC	?flush@?$basic_ostream@DV?$char_traits@D@_STL@@@_STL@@QAEAAV12@XZ ; _STL::basic_ostream<char,_STL::char_traits<char> >::flush
; Function compile flags: /Ogsy
; File c:\stlport-4.6.1\stlport\stl\_ostream.h
;	COMDAT ?flush@?$basic_ostream@DV?$char_traits@D@_STL@@@_STL@@QAEAAV12@XZ
_TEXT	SEGMENT
?flush@?$basic_ostream@DV?$char_traits@D@_STL@@@_STL@@QAEAAV12@XZ PROC NEAR ; _STL::basic_ostream<char,_STL::char_traits<char> >::flush, COMDAT
; _this$ = ecx

; 120  :   _Self& flush() {

  00000	56		 push	 esi
  00001	8b f1		 mov	 esi, ecx

; 121  :     if (this->rdbuf())

  00003	8b 06		 mov	 eax, DWORD PTR [esi]
  00005	8b 40 04	 mov	 eax, DWORD PTR [eax+4]
  00008	8b 4c 30 58	 mov	 ecx, DWORD PTR [eax+esi+88]
  0000c	85 c9		 test	 ecx, ecx
  0000e	74 1d		 je	 SHORT $L102367

; 122  :       if (this->rdbuf()->pubsync() == -1)

  00010	8b 01		 mov	 eax, DWORD PTR [ecx]
  00012	ff 50 10	 call	 DWORD PTR [eax+16]
  00015	83 f8 ff	 cmp	 eax, -1
  00018	75 13		 jne	 SHORT $L102367

; 123  :         this->setstate(ios_base::badbit);

  0001a	8b 06		 mov	 eax, DWORD PTR [esi]
  0001c	8b 48 04	 mov	 ecx, DWORD PTR [eax+4]
  0001f	03 ce		 add	 ecx, esi
  00021	8b 41 08	 mov	 eax, DWORD PTR [ecx+8]
  00024	83 c8 01	 or	 eax, 1
  00027	50		 push	 eax
  00028	e8 00 00 00 00	 call	 ?clear@?$basic_ios@DV?$char_traits@D@_STL@@@_STL@@QAEXH@Z ; _STL::basic_ios<char,_STL::char_traits<char> >::clear
$L102367:

; 124  :     return *this;

  0002d	8b c6		 mov	 eax, esi
  0002f	5e		 pop	 esi

; 125  :   }

  00030	c3		 ret	 0
?flush@?$basic_ostream@DV?$char_traits@D@_STL@@@_STL@@QAEAAV12@XZ ENDP ; _STL::basic_ostream<char,_STL::char_traits<char> >::flush
_TEXT	ENDS
PUBLIC	?_M_allocate_block@?$_String_base@DV?$allocator@D@_STL@@@_STL@@QAEXI@Z ; _STL::_String_base<char,_STL::allocator<char> >::_M_allocate_block
; Function compile flags: /Ogsy
; File c:\stlport-4.6.1\stlport\stl\_string.c
;	COMDAT ?_M_allocate_block@?$_String_base@DV?$allocator@D@_STL@@@_STL@@QAEXI@Z
_TEXT	SEGMENT
___n$ = 8						; size = 4
?_M_allocate_block@?$_String_base@DV?$allocator@D@_STL@@@_STL@@QAEXI@Z PROC NEAR ; _STL::_String_base<char,_STL::allocator<char> >::_M_allocate_block, COMDAT
; _this$ = ecx

; 530  : template <class _Tp, class _Alloc> void _String_base<_Tp, _Alloc>::_M_allocate_block(size_t __n) {  

  00000	56		 push	 esi
  00001	57		 push	 edi

; 531  :   if ((__n <= (max_size()+1)) && (__n>0)){ 

  00002	8b 7c 24 0c	 mov	 edi, DWORD PTR ___n$[esp+4]
  00006	83 ff ff	 cmp	 edi, -1
  00009	8b f1		 mov	 esi, ecx
  0000b	77 17		 ja	 SHORT $L101245
  0000d	85 ff		 test	 edi, edi
  0000f	76 13		 jbe	 SHORT $L101245

; 532  :     _M_start  = _M_end_of_storage.allocate(__n); 

  00011	57		 push	 edi
  00012	e8 00 00 00 00	 call	 ?allocate@?$__node_alloc@$00$0A@@_STL@@SAPAXI@Z ; _STL::__node_alloc<1,0>::allocate
  00017	89 06		 mov	 DWORD PTR [esi], eax

; 533  :     _M_finish = _M_start; 

  00019	89 46 04	 mov	 DWORD PTR [esi+4], eax

; 534  :     _M_end_of_storage._M_data = _M_start + __n; 

  0001c	03 c7		 add	 eax, edi
  0001e	59		 pop	 ecx
  0001f	89 46 08	 mov	 DWORD PTR [esi+8], eax

; 535  :   } 
; 536  :     else 

  00022	eb 07		 jmp	 SHORT $L101246
$L101245:

; 537  :       _M_throw_length_error(); 

  00024	8b ce		 mov	 ecx, esi
  00026	e8 00 00 00 00	 call	 ?_M_throw_length_error@?$_String_base@DV?$allocator@D@_STL@@@_STL@@QBEXXZ ; _STL::_String_base<char,_STL::allocator<char> >::_M_throw_length_error
$L101246:
  0002b	5f		 pop	 edi
  0002c	5e		 pop	 esi

; 538  : } 

  0002d	c2 04 00	 ret	 4
?_M_allocate_block@?$_String_base@DV?$allocator@D@_STL@@@_STL@@QAEXI@Z ENDP ; _STL::_String_base<char,_STL::allocator<char> >::_M_allocate_block
_TEXT	ENDS
PUBLIC	??$?8DV?$char_traits@D@_STL@@V?$allocator@D@1@@_STL@@YA_NABV?$basic_string@DV?$char_traits@D@_STL@@V?$allocator@D@2@@0@PBD@Z ; _STL::operator==<char,_STL::char_traits<char>,_STL::allocator<char> >
; Function compile flags: /Ogsy
; File c:\stlport-4.6.1\stlport\stl\_string.h
;	COMDAT ??$?8DV?$char_traits@D@_STL@@V?$allocator@D@1@@_STL@@YA_NABV?$basic_string@DV?$char_traits@D@_STL@@V?$allocator@D@2@@0@PBD@Z
_TEXT	SEGMENT
___x$ = 8						; size = 4
___s$ = 12						; size = 4
??$?8DV?$char_traits@D@_STL@@V?$allocator@D@1@@_STL@@YA_NABV?$basic_string@DV?$char_traits@D@_STL@@V?$allocator@D@2@@0@PBD@Z PROC NEAR ; _STL::operator==<char,_STL::char_traits<char>,_STL::allocator<char> >, COMDAT

; 1343 :   _STLP_FIX_LITERAL_BUG(__s)
; 1344 :   size_t __n = _Traits::length(__s);

  00000	ff 74 24 08	 push	 DWORD PTR ___s$[esp-4]
  00004	e8 00 00 00 00	 call	 _strlen
  00009	59		 pop	 ecx

; 1345 :   return __x.size() == __n && _Traits::compare(__x.data(), __s, __n) == 0;

  0000a	8b 4c 24 04	 mov	 ecx, DWORD PTR ___x$[esp-4]
  0000e	8b 11		 mov	 edx, DWORD PTR [ecx]
  00010	8b 49 04	 mov	 ecx, DWORD PTR [ecx+4]
  00013	2b ca		 sub	 ecx, edx
  00015	3b c8		 cmp	 ecx, eax
  00017	75 14		 jne	 SHORT $L102388
  00019	50		 push	 eax
  0001a	ff 74 24 0c	 push	 DWORD PTR ___s$[esp]
  0001e	52		 push	 edx
  0001f	e8 00 00 00 00	 call	 _memcmp
  00024	83 c4 0c	 add	 esp, 12			; 0000000cH
  00027	85 c0		 test	 eax, eax
  00029	75 02		 jne	 SHORT $L102388
  0002b	40		 inc	 eax

; 1346 : }

  0002c	c3		 ret	 0
$L102388:

; 1345 :   return __x.size() == __n && _Traits::compare(__x.data(), __s, __n) == 0;

  0002d	33 c0		 xor	 eax, eax

; 1346 : }

  0002f	c3		 ret	 0
??$?8DV?$char_traits@D@_STL@@V?$allocator@D@1@@_STL@@YA_NABV?$basic_string@DV?$char_traits@D@_STL@@V?$allocator@D@2@@0@PBD@Z ENDP ; _STL::operator==<char,_STL::char_traits<char>,_STL::allocator<char> >
_TEXT	ENDS
PUBLIC	??$_M_init@DV?$char_traits@D@_STL@@@_STL@@YA_NAAV?$basic_ostream@DV?$char_traits@D@_STL@@@0@@Z ; _STL::_M_init<char,_STL::char_traits<char> >
; Function compile flags: /Ogsy
; File c:\stlport-4.6.1\stlport\stl\_ostream.c
;	COMDAT ??$_M_init@DV?$char_traits@D@_STL@@@_STL@@YA_NAAV?$basic_ostream@DV?$char_traits@D@_STL@@@0@@Z
_TEXT	SEGMENT
___str$ = 8						; size = 4
??$_M_init@DV?$char_traits@D@_STL@@@_STL@@YA_NAAV?$basic_ostream@DV?$char_traits@D@_STL@@@0@@Z PROC NEAR ; _STL::_M_init<char,_STL::char_traits<char> >, COMDAT

; 37   : _M_init(basic_ostream<_CharT, _Traits>& __str) {

  00000	56		 push	 esi

; 38   :   if (__str.good()) {

  00001	8b 74 24 08	 mov	 esi, DWORD PTR ___str$[esp]
  00005	8b 06		 mov	 eax, DWORD PTR [esi]
  00007	8b 40 04	 mov	 eax, DWORD PTR [eax+4]
  0000a	8d 0c 30	 lea	 ecx, DWORD PTR [eax+esi]
  0000d	83 79 08 00	 cmp	 DWORD PTR [ecx+8], 0
  00011	75 36		 jne	 SHORT $L101395

; 39   :     // boris : check if this is needed !
; 40   :     if (!__str.rdbuf())

  00013	83 79 58 00	 cmp	 DWORD PTR [ecx+88], 0
  00017	75 0c		 jne	 SHORT $L102421

; 41   :       __str.setstate(ios_base::badbit);

  00019	8b 41 08	 mov	 eax, DWORD PTR [ecx+8]
  0001c	83 c8 01	 or	 eax, 1
  0001f	50		 push	 eax
  00020	e8 00 00 00 00	 call	 ?clear@?$basic_ios@DV?$char_traits@D@_STL@@@_STL@@QAEXH@Z ; _STL::basic_ios<char,_STL::char_traits<char> >::clear
$L102421:

; 42   :     if (__str.tie())

  00025	8b 06		 mov	 eax, DWORD PTR [esi]
  00027	8b 40 04	 mov	 eax, DWORD PTR [eax+4]
  0002a	8b 4c 30 5c	 mov	 ecx, DWORD PTR [eax+esi+92]
  0002e	85 c9		 test	 ecx, ecx
  00030	74 05		 je	 SHORT $L101397

; 43   :       __str.tie()->flush();

  00032	e8 00 00 00 00	 call	 ?flush@?$basic_ostream@DV?$char_traits@D@_STL@@@_STL@@QAEAAV12@XZ ; _STL::basic_ostream<char,_STL::char_traits<char> >::flush
$L101397:

; 44   :     return __str.good();

  00037	8b 06		 mov	 eax, DWORD PTR [esi]
  00039	8b 40 04	 mov	 eax, DWORD PTR [eax+4]
  0003c	33 c9		 xor	 ecx, ecx
  0003e	39 4c 30 08	 cmp	 DWORD PTR [eax+esi+8], ecx
  00042	5e		 pop	 esi
  00043	0f 94 c1	 sete	 cl
  00046	8a c1		 mov	 al, cl

; 47   : }

  00048	c3		 ret	 0
$L101395:

; 45   :   } else
; 46   :     return false;

  00049	32 c0		 xor	 al, al
  0004b	5e		 pop	 esi

; 47   : }

  0004c	c3		 ret	 0
??$_M_init@DV?$char_traits@D@_STL@@@_STL@@YA_NAAV?$basic_ostream@DV?$char_traits@D@_STL@@@0@@Z ENDP ; _STL::_M_init<char,_STL::char_traits<char> >
_TEXT	ENDS
PUBLIC	??$_M_init_noskip@DV?$char_traits@D@_STL@@@_STL@@YA_NAAV?$basic_istream@DV?$char_traits@D@_STL@@@0@@Z ; _STL::_M_init_noskip<char,_STL::char_traits<char> >
; Function compile flags: /Ogsy
; File c:\stlport-4.6.1\stlport\stl\_istream.c
;	COMDAT ??$_M_init_noskip@DV?$char_traits@D@_STL@@@_STL@@YA_NAAV?$basic_istream@DV?$char_traits@D@_STL@@@0@@Z
_TEXT	SEGMENT
___is$ = 8						; size = 4
??$_M_init_noskip@DV?$char_traits@D@_STL@@@_STL@@YA_NAAV?$basic_istream@DV?$char_traits@D@_STL@@@0@@Z PROC NEAR ; _STL::_M_init_noskip<char,_STL::char_traits<char> >, COMDAT

; 214  : _M_init_noskip(basic_istream<_CharT, _Traits>& __is){

  00000	56		 push	 esi

; 215  :   if (__is.good()) {

  00001	8b 74 24 08	 mov	 esi, DWORD PTR ___is$[esp]
  00005	8b 06		 mov	 eax, DWORD PTR [esi]
  00007	8b 40 04	 mov	 eax, DWORD PTR [eax+4]
  0000a	8d 0c 30	 lea	 ecx, DWORD PTR [eax+esi]
  0000d	83 79 08 00	 cmp	 DWORD PTR [ecx+8], 0
  00011	75 22		 jne	 SHORT $L101400

; 216  :     if (__is.tie())

  00013	8b 49 5c	 mov	 ecx, DWORD PTR [ecx+92]
  00016	85 c9		 test	 ecx, ecx
  00018	74 05		 je	 SHORT $L101401

; 217  :       __is.tie()->flush();

  0001a	e8 00 00 00 00	 call	 ?flush@?$basic_ostream@DV?$char_traits@D@_STL@@@_STL@@QAEAAV12@XZ ; _STL::basic_ostream<char,_STL::char_traits<char> >::flush
$L101401:

; 218  :     
; 219  :     if (!__is.rdbuf())

  0001f	8b 06		 mov	 eax, DWORD PTR [esi]
  00021	8b 40 04	 mov	 eax, DWORD PTR [eax+4]
  00024	8d 0c 30	 lea	 ecx, DWORD PTR [eax+esi]
  00027	83 79 58 00	 cmp	 DWORD PTR [ecx+88], 0
  0002b	75 14		 jne	 SHORT $L102470

; 220  :       __is.setstate(ios_base::badbit);

  0002d	8b 41 08	 mov	 eax, DWORD PTR [ecx+8]
  00030	83 c8 01	 or	 eax, 1

; 221  :   }
; 222  :   else

  00033	eb 06		 jmp	 SHORT $L102475
$L101400:

; 223  :     __is.setstate(ios_base::failbit);

  00035	8b 41 08	 mov	 eax, DWORD PTR [ecx+8]
  00038	83 c8 04	 or	 eax, 4
$L102475:
  0003b	50		 push	 eax
  0003c	e8 00 00 00 00	 call	 ?clear@?$basic_ios@DV?$char_traits@D@_STL@@@_STL@@QAEXH@Z ; _STL::basic_ios<char,_STL::char_traits<char> >::clear
$L102470:

; 224  :   return __is.good();

  00041	8b 06		 mov	 eax, DWORD PTR [esi]
  00043	8b 40 04	 mov	 eax, DWORD PTR [eax+4]
  00046	33 c9		 xor	 ecx, ecx
  00048	39 4c 30 08	 cmp	 DWORD PTR [eax+esi+8], ecx
  0004c	5e		 pop	 esi
  0004d	0f 94 c1	 sete	 cl
  00050	8a c1		 mov	 al, cl

; 225  : }

  00052	c3		 ret	 0
??$_M_init_noskip@DV?$char_traits@D@_STL@@@_STL@@YA_NAAV?$basic_istream@DV?$char_traits@D@_STL@@@0@@Z ENDP ; _STL::_M_init_noskip<char,_STL::char_traits<char> >
_TEXT	ENDS
PUBLIC	?_S_eof@?$basic_ios@DV?$char_traits@D@_STL@@@_STL@@SA_NH@Z ; _STL::basic_ios<char,_STL::char_traits<char> >::_S_eof
; Function compile flags: /Ogsy
; File c:\stlport-4.6.1\stlport\stl\_ios.h
;	COMDAT ?_S_eof@?$basic_ios@DV?$char_traits@D@_STL@@@_STL@@SA_NH@Z
_TEXT	SEGMENT
___c$ = 8						; size = 4
?_S_eof@?$basic_ios@DV?$char_traits@D@_STL@@@_STL@@SA_NH@Z PROC NEAR ; _STL::basic_ios<char,_STL::char_traits<char> >::_S_eof, COMDAT

; 110  :     const int_type __eof = _Traits::eof();
; 111  :     return _Traits::eq_int_type(__c, __eof);

  00000	33 c0		 xor	 eax, eax
  00002	83 7c 24 04 ff	 cmp	 DWORD PTR ___c$[esp-4], -1
  00007	0f 94 c0	 sete	 al

; 112  :   }

  0000a	c3		 ret	 0
?_S_eof@?$basic_ios@DV?$char_traits@D@_STL@@@_STL@@SA_NH@Z ENDP ; _STL::basic_ios<char,_STL::char_traits<char> >::_S_eof
_TEXT	ENDS
PUBLIC	??$__find_if@PBDU?$_Eq_char_bound@V?$char_traits@D@_STL@@@_STL@@@_STL@@YAPBDPBD0U?$_Eq_char_bound@V?$char_traits@D@_STL@@@0@ABUrandom_access_iterator_tag@0@@Z ; _STL::__find_if<char const *,_STL::_Eq_char_bound<_STL::char_traits<char> > >
; Function compile flags: /Ogsy
; File c:\stlport-4.6.1\stlport\stl\_algobase.c
;	COMDAT ??$__find_if@PBDU?$_Eq_char_bound@V?$char_traits@D@_STL@@@_STL@@@_STL@@YAPBDPBD0U?$_Eq_char_bound@V?$char_traits@D@_STL@@@0@ABUrandom_access_iterator_tag@0@@Z
_TEXT	SEGMENT
___first$ = 8						; size = 4
___last$ = 12						; size = 4
___pred$ = 16						; size = 1
___formal$ = 20						; size = 4
??$__find_if@PBDU?$_Eq_char_bound@V?$char_traits@D@_STL@@@_STL@@@_STL@@YAPBDPBD0U?$_Eq_char_bound@V?$char_traits@D@_STL@@@0@ABUrandom_access_iterator_tag@0@@Z PROC NEAR ; _STL::__find_if<char const *,_STL::_Eq_char_bound<_STL::char_traits<char> > >, COMDAT

; 139  : {

  00000	55		 push	 ebp
  00001	8b ec		 mov	 ebp, esp

; 140  :   _STLP_DIFFERENCE_TYPE(_RandomAccessIter) __trip_count = (__last - __first) >> 2;

  00003	8b 4d 0c	 mov	 ecx, DWORD PTR ___last$[ebp]
  00006	8b 45 08	 mov	 eax, DWORD PTR ___first$[ebp]

; 141  : 
; 142  :   for ( ; __trip_count > 0 ; --__trip_count) {

  00009	8a 55 10	 mov	 dl, BYTE PTR ___pred$[ebp]
  0000c	2b c8		 sub	 ecx, eax
  0000e	c1 f9 02	 sar	 ecx, 2
  00011	eb 15		 jmp	 SHORT $L102550
$L101419:

; 143  :     if (__pred(*__first)) return __first;

  00013	38 10		 cmp	 BYTE PTR [eax], dl
  00015	74 34		 je	 SHORT $L101428

; 144  :     ++__first;

  00017	40		 inc	 eax

; 145  : 
; 146  :     if (__pred(*__first)) return __first;

  00018	38 10		 cmp	 BYTE PTR [eax], dl
  0001a	74 2f		 je	 SHORT $L101428

; 147  :     ++__first;

  0001c	40		 inc	 eax

; 148  : 
; 149  :     if (__pred(*__first)) return __first;

  0001d	38 10		 cmp	 BYTE PTR [eax], dl
  0001f	74 2a		 je	 SHORT $L101428

; 150  :     ++__first;

  00021	40		 inc	 eax

; 151  : 
; 152  :     if (__pred(*__first)) return __first;

  00022	38 10		 cmp	 BYTE PTR [eax], dl
  00024	74 25		 je	 SHORT $L101428

; 153  :     ++__first;

  00026	40		 inc	 eax
  00027	49		 dec	 ecx
$L102550:

; 141  : 
; 142  :   for ( ; __trip_count > 0 ; --__trip_count) {

  00028	85 c9		 test	 ecx, ecx
  0002a	7f e7		 jg	 SHORT $L101419

; 154  :   }
; 155  : 
; 156  :   switch(__last - __first) {

  0002c	8b 4d 0c	 mov	 ecx, DWORD PTR ___last$[ebp]
  0002f	2b c8		 sub	 ecx, eax
  00031	49		 dec	 ecx
  00032	74 10		 je	 SHORT $L101435
  00034	49		 dec	 ecx
  00035	74 08		 je	 SHORT $L101433
  00037	49		 dec	 ecx
  00038	75 0e		 jne	 SHORT $L101436

; 157  :   case 3:
; 158  :     if (__pred(*__first)) return __first;

  0003a	38 10		 cmp	 BYTE PTR [eax], dl
  0003c	74 0d		 je	 SHORT $L101428

; 159  :     ++__first;

  0003e	40		 inc	 eax
$L101433:

; 160  :   case 2:
; 161  :     if (__pred(*__first)) return __first;

  0003f	38 10		 cmp	 BYTE PTR [eax], dl
  00041	74 08		 je	 SHORT $L101428

; 162  :     ++__first;

  00043	40		 inc	 eax
$L101435:

; 163  :   case 1:
; 164  :     if (__pred(*__first)) return __first;

  00044	38 10		 cmp	 BYTE PTR [eax], dl
  00046	74 03		 je	 SHORT $L101428
$L101436:

; 165  :     //    ++__first;
; 166  :   case 0:
; 167  :   default:
; 168  :     return __last;

  00048	8b 45 0c	 mov	 eax, DWORD PTR ___last$[ebp]
$L101428:

; 169  :   }
; 170  : }

  0004b	5d		 pop	 ebp
  0004c	c3		 ret	 0
??$__find_if@PBDU?$_Eq_char_bound@V?$char_traits@D@_STL@@@_STL@@@_STL@@YAPBDPBD0U?$_Eq_char_bound@V?$char_traits@D@_STL@@@0@ABUrandom_access_iterator_tag@0@@Z ENDP ; _STL::__find_if<char const *,_STL::_Eq_char_bound<_STL::char_traits<char> > >
_TEXT	ENDS
PUBLIC	??$distance@PBD@_STL@@YAHABQBD0@Z		; _STL::distance<char const *>
; Function compile flags: /Ogsy
; File c:\stlport-4.6.1\stlport\stl\_iterator_base.h
;	COMDAT ??$distance@PBD@_STL@@YAHABQBD0@Z
_TEXT	SEGMENT
___first$ = 8						; size = 4
___last$ = 12						; size = 4
??$distance@PBD@_STL@@YAHABQBD0@Z PROC NEAR		; _STL::distance<char const *>, COMDAT

; 369  :   return __distance(__first, __last, _STLP_ITERATOR_CATEGORY(__first, _InputIterator));  

  00000	8b 44 24 08	 mov	 eax, DWORD PTR ___last$[esp-4]
  00004	8b 00		 mov	 eax, DWORD PTR [eax]
  00006	8b 4c 24 04	 mov	 ecx, DWORD PTR ___first$[esp-4]
  0000a	2b 01		 sub	 eax, DWORD PTR [ecx]

; 370  : }

  0000c	c3		 ret	 0
??$distance@PBD@_STL@@YAHABQBD0@Z ENDP			; _STL::distance<char const *>
_TEXT	ENDS
PUBLIC	??$distance@PAD@_STL@@YAHABQAD0@Z		; _STL::distance<char *>
; Function compile flags: /Ogsy
;	COMDAT ??$distance@PAD@_STL@@YAHABQAD0@Z
_TEXT	SEGMENT
___first$ = 8						; size = 4
___last$ = 12						; size = 4
??$distance@PAD@_STL@@YAHABQAD0@Z PROC NEAR		; _STL::distance<char *>, COMDAT

; 369  :   return __distance(__first, __last, _STLP_ITERATOR_CATEGORY(__first, _InputIterator));  

  00000	8b 44 24 08	 mov	 eax, DWORD PTR ___last$[esp-4]
  00004	8b 00		 mov	 eax, DWORD PTR [eax]
  00006	8b 4c 24 04	 mov	 ecx, DWORD PTR ___first$[esp-4]
  0000a	2b 01		 sub	 eax, DWORD PTR [ecx]

; 370  : }

  0000c	c3		 ret	 0
??$distance@PAD@_STL@@YAHABQAD0@Z ENDP			; _STL::distance<char *>
_TEXT	ENDS
PUBLIC	?_M_construct_null@?$basic_string@DV?$char_traits@D@_STL@@V?$allocator@D@2@@_STL@@AAEXPAD@Z ; _STL::basic_string<char,_STL::char_traits<char>,_STL::allocator<char> >::_M_construct_null
; Function compile flags: /Ogsy
; File c:\stlport-4.6.1\stlport\stl\_string.h
;	COMDAT ?_M_construct_null@?$basic_string@DV?$char_traits@D@_STL@@V?$allocator@D@2@@_STL@@AAEXPAD@Z
_TEXT	SEGMENT
___p$ = 8						; size = 4
?_M_construct_null@?$basic_string@DV?$char_traits@D@_STL@@V?$allocator@D@2@@_STL@@AAEXPAD@Z PROC NEAR ; _STL::basic_string<char,_STL::char_traits<char>,_STL::allocator<char> >::_M_construct_null, COMDAT
; _this$ = ecx

; 336  :     _M_construct_null_aux(__p, _Char_Is_Integral());

  00000	8b 44 24 04	 mov	 eax, DWORD PTR ___p$[esp-4]
  00004	c6 00 00	 mov	 BYTE PTR [eax], 0

; 337  :   }

  00007	c2 04 00	 ret	 4
?_M_construct_null@?$basic_string@DV?$char_traits@D@_STL@@V?$allocator@D@2@@_STL@@AAEXPAD@Z ENDP ; _STL::basic_string<char,_STL::char_traits<char>,_STL::allocator<char> >::_M_construct_null
_TEXT	ENDS
PUBLIC	??$__copy_aux@PADPAD@_STL@@YAPADPAD00ABU__true_type@0@@Z ; _STL::__copy_aux<char *,char *>
; Function compile flags: /Ogsy
; File c:\stlport-4.6.1\stlport\stl\_algobase.h
;	COMDAT ??$__copy_aux@PADPAD@_STL@@YAPADPAD00ABU__true_type@0@@Z
_TEXT	SEGMENT
___first$ = 8						; size = 4
___last$ = 12						; size = 4
___result$ = 16						; size = 4
___formal$ = 20						; size = 4
??$__copy_aux@PADPAD@_STL@@YAPADPAD00ABU__true_type@0@@Z PROC NEAR ; _STL::__copy_aux<char *,char *>, COMDAT

; 202  :   return __copy_ptrs(__first, __last, __result, 
; 203  :                      _IsOKToMemCpy(_STLP_VALUE_TYPE(__first, _InputIter), 
; 204  :                                    _STLP_VALUE_TYPE(__result, _OutputIter))._Ret());

  00000	ff 74 24 0c	 push	 DWORD PTR ___result$[esp-4]
  00004	ff 74 24 0c	 push	 DWORD PTR ___last$[esp]
  00008	ff 74 24 0c	 push	 DWORD PTR ___first$[esp+4]
  0000c	e8 00 00 00 00	 call	 ?__copy_trivial@_STL@@YAPAXPBX0PAX@Z ; _STL::__copy_trivial
  00011	83 c4 0c	 add	 esp, 12			; 0000000cH

; 205  : }

  00014	c3		 ret	 0
??$__copy_aux@PADPAD@_STL@@YAPADPAD00ABU__true_type@0@@Z ENDP ; _STL::__copy_aux<char *,char *>
_TEXT	ENDS
PUBLIC	?deallocate@?$allocator@D@_STL@@QAEXPADI@Z	; _STL::allocator<char>::deallocate
; Function compile flags: /Ogsy
; File c:\stlport-4.6.1\stlport\stl\_alloc.h
;	COMDAT ?deallocate@?$allocator@D@_STL@@QAEXPADI@Z
_TEXT	SEGMENT
___p$ = 8						; size = 4
___n$ = 12						; size = 4
?deallocate@?$allocator@D@_STL@@QAEXPADI@Z PROC NEAR	; _STL::allocator<char>::deallocate, COMDAT
; _this$ = ecx

; 359  :     _STLP_ASSERT( (__p == 0) == (__n == 0) )
; 360  :       if (__p != 0) __sgi_alloc::deallocate((void*)__p, __n * sizeof(value_type));

  00000	83 7c 24 04 00	 cmp	 DWORD PTR ___p$[esp-4], 0
  00005	74 0f		 je	 SHORT $L98663
  00007	ff 74 24 08	 push	 DWORD PTR ___n$[esp-4]
  0000b	ff 74 24 08	 push	 DWORD PTR ___p$[esp]
  0000f	e8 00 00 00 00	 call	 ?deallocate@?$__node_alloc@$00$0A@@_STL@@SAXPAXI@Z ; _STL::__node_alloc<1,0>::deallocate
  00014	59		 pop	 ecx
  00015	59		 pop	 ecx
$L98663:

; 361  :   }

  00016	c2 08 00	 ret	 8
?deallocate@?$allocator@D@_STL@@QAEXPADI@Z ENDP		; _STL::allocator<char>::deallocate
_TEXT	ENDS
PUBLIC	??0?$_String_base@DV?$allocator@D@_STL@@@_STL@@QAE@ABV?$allocator@D@1@@Z ; _STL::_String_base<char,_STL::allocator<char> >::_String_base<char,_STL::allocator<char> >
; Function compile flags: /Ogsy
; File c:\stlport-4.6.1\stlport\stl\_string.h
;	COMDAT ??0?$_String_base@DV?$allocator@D@_STL@@@_STL@@QAE@ABV?$allocator@D@1@@Z
_TEXT	SEGMENT
___a$ = 8						; size = 4
??0?$_String_base@DV?$allocator@D@_STL@@@_STL@@QAE@ABV?$allocator@D@1@@Z PROC NEAR ; _STL::_String_base<char,_STL::allocator<char> >::_String_base<char,_STL::allocator<char> >, COMDAT
; _this$ = ecx

; 129  :     : _M_start(0), _M_finish(0), _M_end_of_storage(__a, (_Tp*)0) {}

  00000	56		 push	 esi
  00001	33 c0		 xor	 eax, eax
  00003	8b f1		 mov	 esi, ecx
  00005	50		 push	 eax
  00006	ff 74 24 0c	 push	 DWORD PTR ___a$[esp+4]
  0000a	8d 4e 08	 lea	 ecx, DWORD PTR [esi+8]
  0000d	89 06		 mov	 DWORD PTR [esi], eax
  0000f	89 46 04	 mov	 DWORD PTR [esi+4], eax
  00012	e8 00 00 00 00	 call	 ??0?$_STLP_alloc_proxy@PADDV?$allocator@D@_STL@@@_STL@@QAE@ABV?$allocator@D@1@PAD@Z ; _STL::_STLP_alloc_proxy<char *,char,_STL::allocator<char> >::_STLP_alloc_proxy<char *,char,_STL::allocator<char> >
  00017	8b c6		 mov	 eax, esi
  00019	5e		 pop	 esi
  0001a	c2 04 00	 ret	 4
??0?$_String_base@DV?$allocator@D@_STL@@@_STL@@QAE@ABV?$allocator@D@1@@Z ENDP ; _STL::_String_base<char,_STL::allocator<char> >::_String_base<char,_STL::allocator<char> >
_TEXT	ENDS
PUBLIC	??$?9DV?$char_traits@D@_STL@@V?$allocator@D@1@@_STL@@YA_NABV?$basic_string@DV?$char_traits@D@_STL@@V?$allocator@D@2@@0@PBD@Z ; _STL::operator!=<char,_STL::char_traits<char>,_STL::allocator<char> >
; Function compile flags: /Ogsy
;	COMDAT ??$?9DV?$char_traits@D@_STL@@V?$allocator@D@1@@_STL@@YA_NABV?$basic_string@DV?$char_traits@D@_STL@@V?$allocator@D@2@@0@PBD@Z
_TEXT	SEGMENT
___x$ = 8						; size = 4
___s$ = 12						; size = 4
??$?9DV?$char_traits@D@_STL@@V?$allocator@D@1@@_STL@@YA_NABV?$basic_string@DV?$char_traits@D@_STL@@V?$allocator@D@2@@0@PBD@Z PROC NEAR ; _STL::operator!=<char,_STL::char_traits<char>,_STL::allocator<char> >, COMDAT

; 1411 :   _STLP_FIX_LITERAL_BUG(__s)
; 1412 :   return !(__x == __s);

  00000	ff 74 24 08	 push	 DWORD PTR ___s$[esp-4]
  00004	ff 74 24 08	 push	 DWORD PTR ___x$[esp]
  00008	e8 00 00 00 00	 call	 ??$?8DV?$char_traits@D@_STL@@V?$allocator@D@1@@_STL@@YA_NABV?$basic_string@DV?$char_traits@D@_STL@@V?$allocator@D@2@@0@PBD@Z ; _STL::operator==<char,_STL::char_traits<char>,_STL::allocator<char> >
  0000d	f6 d8		 neg	 al
  0000f	59		 pop	 ecx
  00010	59		 pop	 ecx
  00011	1b c0		 sbb	 eax, eax
  00013	40		 inc	 eax

; 1413 : }

  00014	c3		 ret	 0
??$?9DV?$char_traits@D@_STL@@V?$allocator@D@1@@_STL@@YA_NABV?$basic_string@DV?$char_traits@D@_STL@@V?$allocator@D@2@@0@PBD@Z ENDP ; _STL::operator!=<char,_STL::char_traits<char>,_STL::allocator<char> >
_TEXT	ENDS
PUBLIC	??0sentry@?$basic_ostream@DV?$char_traits@D@_STL@@@_STL@@QAE@AAV12@@Z ; _STL::basic_ostream<char,_STL::char_traits<char> >::sentry::sentry
; Function compile flags: /Ogsy
; File c:\stlport-4.6.1\stlport\stl\_ostream.h
;	COMDAT ??0sentry@?$basic_ostream@DV?$char_traits@D@_STL@@@_STL@@QAE@AAV12@@Z
_TEXT	SEGMENT
___str$ = 8						; size = 4
??0sentry@?$basic_ostream@DV?$char_traits@D@_STL@@@_STL@@QAE@AAV12@@Z PROC NEAR ; _STL::basic_ostream<char,_STL::char_traits<char> >::sentry::sentry, COMDAT
; _this$ = ecx

; 165  :       {

  00000	8b 44 24 04	 mov	 eax, DWORD PTR ___str$[esp-4]
  00004	56		 push	 esi
  00005	8b f1		 mov	 esi, ecx
  00007	50		 push	 eax
  00008	89 06		 mov	 DWORD PTR [esi], eax
  0000a	e8 00 00 00 00	 call	 ??$_M_init@DV?$char_traits@D@_STL@@@_STL@@YA_NAAV?$basic_ostream@DV?$char_traits@D@_STL@@@0@@Z ; _STL::_M_init<char,_STL::char_traits<char> >
  0000f	88 46 04	 mov	 BYTE PTR [esi+4], al
  00012	59		 pop	 ecx

; 166  :       }

  00013	8b c6		 mov	 eax, esi
  00015	5e		 pop	 esi
  00016	c2 04 00	 ret	 4
??0sentry@?$basic_ostream@DV?$char_traits@D@_STL@@@_STL@@QAE@AAV12@@Z ENDP ; _STL::basic_ostream<char,_STL::char_traits<char> >::sentry::sentry
_TEXT	ENDS
PUBLIC	??1sentry@?$basic_ostream@DV?$char_traits@D@_STL@@@_STL@@QAE@XZ ; _STL::basic_ostream<char,_STL::char_traits<char> >::sentry::~sentry
; Function compile flags: /Ogsy
;	COMDAT ??1sentry@?$basic_ostream@DV?$char_traits@D@_STL@@@_STL@@QAE@XZ
_TEXT	SEGMENT
??1sentry@?$basic_ostream@DV?$char_traits@D@_STL@@@_STL@@QAE@XZ PROC NEAR ; _STL::basic_ostream<char,_STL::char_traits<char> >::sentry::~sentry, COMDAT
; _this$ = ecx

; 169  :         if (_M_str.flags() & ios_base::unitbuf)

  00000	8b 09		 mov	 ecx, DWORD PTR [ecx]
  00002	8b 01		 mov	 eax, DWORD PTR [ecx]
  00004	8b 40 04	 mov	 eax, DWORD PTR [eax+4]
  00007	f6 44 08 05 20	 test	 BYTE PTR [eax+ecx+5], 32 ; 00000020H
  0000c	74 05		 je	 SHORT $L101196

; 170  : # ifndef _STLP_INCOMPLETE_EXCEPTION_HEADER 
; 171  :           if (!_STLP_VENDOR_EXCEPT_STD::uncaught_exception())
; 172  : # endif
; 173  :             _M_str.flush();

  0000e	e9 00 00 00 00	 jmp	 ?flush@?$basic_ostream@DV?$char_traits@D@_STL@@@_STL@@QAEAAV12@XZ ; _STL::basic_ostream<char,_STL::char_traits<char> >::flush
$L101196:

; 174  :       }

  00013	c3		 ret	 0
??1sentry@?$basic_ostream@DV?$char_traits@D@_STL@@@_STL@@QAE@XZ ENDP ; _STL::basic_ostream<char,_STL::char_traits<char> >::sentry::~sentry
_TEXT	ENDS
PUBLIC	??0sentry@?$basic_istream@DV?$char_traits@D@_STL@@@_STL@@QAE@AAV12@U_No_Skip_WS@2@@Z ; _STL::basic_istream<char,_STL::char_traits<char> >::sentry::sentry
; Function compile flags: /Ogsy
; File c:\stlport-4.6.1\stlport\stl\_istream.h
;	COMDAT ??0sentry@?$basic_istream@DV?$char_traits@D@_STL@@@_STL@@QAE@AAV12@U_No_Skip_WS@2@@Z
_TEXT	SEGMENT
___is$ = 8						; size = 4
___formal$ = 12						; size = 1
??0sentry@?$basic_istream@DV?$char_traits@D@_STL@@@_STL@@QAE@AAV12@U_No_Skip_WS@2@@Z PROC NEAR ; _STL::basic_istream<char,_STL::char_traits<char> >::sentry::sentry, COMDAT
; _this$ = ecx

; 229  :       _M_ok(_M_init_noskip(__is)) {}

  00000	56		 push	 esi
  00001	ff 74 24 08	 push	 DWORD PTR ___is$[esp]
  00005	8b f1		 mov	 esi, ecx
  00007	e8 00 00 00 00	 call	 ??$_M_init_noskip@DV?$char_traits@D@_STL@@@_STL@@YA_NAAV?$basic_istream@DV?$char_traits@D@_STL@@@0@@Z ; _STL::_M_init_noskip<char,_STL::char_traits<char> >
  0000c	88 06		 mov	 BYTE PTR [esi], al
  0000e	59		 pop	 ecx
  0000f	8b c6		 mov	 eax, esi
  00011	5e		 pop	 esi
  00012	c2 08 00	 ret	 8
??0sentry@?$basic_istream@DV?$char_traits@D@_STL@@@_STL@@QAE@AAV12@U_No_Skip_WS@2@@Z ENDP ; _STL::basic_istream<char,_STL::char_traits<char> >::sentry::sentry
_TEXT	ENDS
PUBLIC	??0?$_String_base@DV?$allocator@D@_STL@@@_STL@@QAE@ABV?$allocator@D@1@I@Z ; _STL::_String_base<char,_STL::allocator<char> >::_String_base<char,_STL::allocator<char> >
; Function compile flags: /Ogsy
; File c:\stlport-4.6.1\stlport\stl\_string.h
;	COMDAT ??0?$_String_base@DV?$allocator@D@_STL@@@_STL@@QAE@ABV?$allocator@D@1@I@Z
_TEXT	SEGMENT
___a$ = 8						; size = 4
___n$ = 12						; size = 4
??0?$_String_base@DV?$allocator@D@_STL@@@_STL@@QAE@ABV?$allocator@D@1@I@Z PROC NEAR ; _STL::_String_base<char,_STL::allocator<char> >::_String_base<char,_STL::allocator<char> >, COMDAT
; _this$ = ecx

; 133  :     { _M_allocate_block(__n); }

  00000	56		 push	 esi
  00001	33 c0		 xor	 eax, eax
  00003	8b f1		 mov	 esi, ecx
  00005	50		 push	 eax
  00006	ff 74 24 0c	 push	 DWORD PTR ___a$[esp+4]
  0000a	8d 4e 08	 lea	 ecx, DWORD PTR [esi+8]
  0000d	89 06		 mov	 DWORD PTR [esi], eax
  0000f	89 46 04	 mov	 DWORD PTR [esi+4], eax
  00012	e8 00 00 00 00	 call	 ??0?$_STLP_alloc_proxy@PADDV?$allocator@D@_STL@@@_STL@@QAE@ABV?$allocator@D@1@PAD@Z ; _STL::_STLP_alloc_proxy<char *,char,_STL::allocator<char> >::_STLP_alloc_proxy<char *,char,_STL::allocator<char> >
  00017	ff 74 24 0c	 push	 DWORD PTR ___n$[esp]
  0001b	8b ce		 mov	 ecx, esi
  0001d	e8 00 00 00 00	 call	 ?_M_allocate_block@?$_String_base@DV?$allocator@D@_STL@@@_STL@@QAEXI@Z ; _STL::_String_base<char,_STL::allocator<char> >::_M_allocate_block
  00022	8b c6		 mov	 eax, esi
  00024	5e		 pop	 esi
  00025	c2 08 00	 ret	 8
??0?$_String_base@DV?$allocator@D@_STL@@@_STL@@QAE@ABV?$allocator@D@1@I@Z ENDP ; _STL::_String_base<char,_STL::allocator<char> >::_String_base<char,_STL::allocator<char> >
_TEXT	ENDS
PUBLIC	??$find_if@PBDU?$_Eq_char_bound@V?$char_traits@D@_STL@@@_STL@@@_STL@@YAPBDPBD0U?$_Eq_char_bound@V?$char_traits@D@_STL@@@0@@Z ; _STL::find_if<char const *,_STL::_Eq_char_bound<_STL::char_traits<char> > >
; Function compile flags: /Ogsy
; File c:\stlport-4.6.1\stlport\stl\_algobase.c
;	COMDAT ??$find_if@PBDU?$_Eq_char_bound@V?$char_traits@D@_STL@@@_STL@@@_STL@@YAPBDPBD0U?$_Eq_char_bound@V?$char_traits@D@_STL@@@0@@Z
_TEXT	SEGMENT
$T102617 = -1						; size = 1
___first$ = 8						; size = 4
___last$ = 12						; size = 4
___pred$ = 16						; size = 1
??$find_if@PBDU?$_Eq_char_bound@V?$char_traits@D@_STL@@@_STL@@@_STL@@YAPBDPBD0U?$_Eq_char_bound@V?$char_traits@D@_STL@@@0@@Z PROC NEAR ; _STL::find_if<char const *,_STL::_Eq_char_bound<_STL::char_traits<char> > >, COMDAT

; 194  :                    _Predicate __pred) {

  00000	55		 push	 ebp
  00001	8b ec		 mov	 ebp, esp
  00003	51		 push	 ecx

; 195  :   _STLP_DEBUG_CHECK(__check_range(__first, __last))
; 196  :     return __find_if(__first, __last, __pred, _STLP_ITERATOR_CATEGORY(__first, _InputIter));

  00004	8d 45 ff	 lea	 eax, DWORD PTR $T102617[ebp]
  00007	50		 push	 eax
  00008	ff 75 10	 push	 DWORD PTR ___pred$[ebp]
  0000b	ff 75 0c	 push	 DWORD PTR ___last$[ebp]
  0000e	ff 75 08	 push	 DWORD PTR ___first$[ebp]
  00011	e8 00 00 00 00	 call	 ??$__find_if@PBDU?$_Eq_char_bound@V?$char_traits@D@_STL@@@_STL@@@_STL@@YAPBDPBD0U?$_Eq_char_bound@V?$char_traits@D@_STL@@@0@ABUrandom_access_iterator_tag@0@@Z ; _STL::__find_if<char const *,_STL::_Eq_char_bound<_STL::char_traits<char> > >
  00016	83 c4 10	 add	 esp, 16			; 00000010H

; 197  : }

  00019	c9		 leave
  0001a	c3		 ret	 0
??$find_if@PBDU?$_Eq_char_bound@V?$char_traits@D@_STL@@@_STL@@@_STL@@YAPBDPBD0U?$_Eq_char_bound@V?$char_traits@D@_STL@@@0@@Z ENDP ; _STL::find_if<char const *,_STL::_Eq_char_bound<_STL::char_traits<char> > >
_TEXT	ENDS
PUBLIC	??$_M_range_initialize@PBD@?$basic_string@DV?$char_traits@D@_STL@@V?$allocator@D@2@@_STL@@AAEXPBD0ABUforward_iterator_tag@1@@Z ; _STL::basic_string<char,_STL::char_traits<char>,_STL::allocator<char> >::_M_range_initialize<char const *>
; Function compile flags: /Ogsy
; File c:\stlport-4.6.1\stlport\stl\_string.h
;	COMDAT ??$_M_range_initialize@PBD@?$basic_string@DV?$char_traits@D@_STL@@V?$allocator@D@2@@_STL@@AAEXPBD0ABUforward_iterator_tag@1@@Z
_TEXT	SEGMENT
___f$ = 8						; size = 4
___l$ = 12						; size = 4
___formal$ = 16						; size = 4
??$_M_range_initialize@PBD@?$basic_string@DV?$char_traits@D@_STL@@V?$allocator@D@2@@_STL@@AAEXPBD0ABUforward_iterator_tag@1@@Z PROC NEAR ; _STL::basic_string<char,_STL::char_traits<char>,_STL::allocator<char> >::_M_range_initialize<char const *>, COMDAT
; _this$ = ecx

; 383  :                            const forward_iterator_tag &) {
; 384  :     difference_type __n = distance(__f, __l);
; 385  :     this->_M_allocate_block(__n + 1);

  00000	8b 44 24 08	 mov	 eax, DWORD PTR ___l$[esp-4]
  00004	2b 44 24 04	 sub	 eax, DWORD PTR ___f$[esp-4]
  00008	56		 push	 esi
  00009	40		 inc	 eax
  0000a	50		 push	 eax
  0000b	8b f1		 mov	 esi, ecx
  0000d	e8 00 00 00 00	 call	 ?_M_allocate_block@?$_String_base@DV?$allocator@D@_STL@@@_STL@@QAEXI@Z ; _STL::_String_base<char,_STL::allocator<char> >::_M_allocate_block

; 386  :     this->_M_finish = uninitialized_copy(__f, __l, this->_M_start);

  00012	ff 36		 push	 DWORD PTR [esi]
  00014	ff 74 24 10	 push	 DWORD PTR ___l$[esp+4]
  00018	ff 74 24 10	 push	 DWORD PTR ___f$[esp+8]
  0001c	e8 00 00 00 00	 call	 ?__copy_trivial@_STL@@YAPAXPBX0PAX@Z ; _STL::__copy_trivial
  00021	83 c4 0c	 add	 esp, 12			; 0000000cH
  00024	89 46 04	 mov	 DWORD PTR [esi+4], eax

; 387  :     _M_terminate_string();

  00027	c6 00 00	 mov	 BYTE PTR [eax], 0
  0002a	5e		 pop	 esi

; 388  :   }

  0002b	c2 0c 00	 ret	 12			; 0000000cH
??$_M_range_initialize@PBD@?$basic_string@DV?$char_traits@D@_STL@@V?$allocator@D@2@@_STL@@AAEXPBD0ABUforward_iterator_tag@1@@Z ENDP ; _STL::basic_string<char,_STL::char_traits<char>,_STL::allocator<char> >::_M_range_initialize<char const *>
_TEXT	ENDS
PUBLIC	??$_M_read_unbuffered@DV?$char_traits@D@_STL@@U?$_Constant_unary_fun@_NH@2@@_STL@@YAHPAV?$basic_istream@DV?$char_traits@D@_STL@@@0@PAV?$basic_streambuf@DV?$char_traits@D@_STL@@@0@HPADU?$_Constant_unary_fun@_NH@0@_N44@Z ; _STL::_M_read_unbuffered<char,_STL::char_traits<char>,_STL::_Constant_unary_fun<bool,int> >
EXTRN	__EH_prolog:NEAR
EXTRN	__except_list:DWORD
EXTRN	___CxxFrameHandler:NEAR
;	COMDAT xdata$x
; File c:\stlport-4.6.1\stlport\stl\_ios_base.h
xdata$x	SEGMENT
$T102695 DD	0ffffffffH
	DD	00H
	DD	0ffffffffH
	DD	00H
$T102697 DD	00H
	DD	00H
	DD	00H
	DD	FLAT:$L102651
$T102696 DD	00H
	DD	00H
	DD	01H
	DD	01H
	DD	FLAT:$T102697
$T102688 DD	019930520H
	DD	02H
	DD	FLAT:$T102695
	DD	01H
	DD	FLAT:$T102696
	DD	2 DUP(00H)
; Function compile flags: /Ogsy
; File c:\stlport-4.6.1\stlport\stl\_istream.c
xdata$x	ENDS
;	COMDAT ??$_M_read_unbuffered@DV?$char_traits@D@_STL@@U?$_Constant_unary_fun@_NH@2@@_STL@@YAHPAV?$basic_istream@DV?$char_traits@D@_STL@@@0@PAV?$basic_streambuf@DV?$char_traits@D@_STL@@@0@HPADU?$_Constant_unary_fun@_NH@0@_N44@Z
_TEXT	SEGMENT
___n$ = -20						; size = 4
__$EHRec$ = -16						; size = 16
___that$ = 8						; size = 4
___buf$ = 12						; size = 4
__Num$ = 16						; size = 4
___s$ = 20						; size = 4
___is_delim$ = 24					; size = 1
___extract_delim$ = 28					; size = 1
___append_null$ = 32					; size = 1
___is_getline$ = 36					; size = 1
??$_M_read_unbuffered@DV?$char_traits@D@_STL@@U?$_Constant_unary_fun@_NH@2@@_STL@@YAHPAV?$basic_istream@DV?$char_traits@D@_STL@@@0@PAV?$basic_streambuf@DV?$char_traits@D@_STL@@@0@HPADU?$_Constant_unary_fun@_NH@0@_N44@Z PROC NEAR ; _STL::_M_read_unbuffered<char,_STL::char_traits<char>,_STL::_Constant_unary_fun<bool,int> >, COMDAT

; 528  : {

  00000	b8 00 00 00 00	 mov	 eax, __ehhandler$??$_M_read_unbuffered@DV?$char_traits@D@_STL@@U?$_Constant_unary_fun@_NH@2@@_STL@@YAHPAV?$basic_istream@DV?$char_traits@D@_STL@@@0@PAV?$basic_streambuf@DV?$char_traits@D@_STL@@@0@HPADU?$_Constant_unary_fun@_NH@0@_N44@Z
  00005	e8 00 00 00 00	 call	 __EH_prolog
  0000a	51		 push	 ecx
  0000b	51		 push	 ecx
  0000c	53		 push	 ebx
  0000d	56		 push	 esi

; 529  :   streamsize __n = 0;
; 530  :   ios_base::iostate __status = 0;
; 531  :   
; 532  :   typedef typename basic_istream<_CharT, _Traits>::int_type int_type;
; 533  :   // The operations that can potentially throw are sbumpc, snextc, and sgetc.
; 534  :   _STLP_TRY {

  0000e	8b 75 14	 mov	 esi, DWORD PTR ___s$[ebp]
  00011	33 db		 xor	 ebx, ebx
  00013	57		 push	 edi
  00014	89 65 f0	 mov	 DWORD PTR __$EHRec$[ebp], esp
  00017	89 5d ec	 mov	 DWORD PTR ___n$[ebp], ebx
  0001a	33 ff		 xor	 edi, edi
  0001c	89 5d fc	 mov	 DWORD PTR __$EHRec$[ebp+12], ebx
$L101361:

; 535  : # if 0
; 536  :     int_type __c = __buf->sgetc();
; 537  :     while (true) {
; 538  :       if (__that->_S_eof(__c)) {
; 539  :         if (__n < _Num || __is_getline)
; 540  :           __status |= ios_base::eofbit;
; 541  :         break;
; 542  :       }
; 543  : 
; 544  :       else if (__is_delim(__c)) {
; 545  :         if (__extract_delim) {  // Extract and discard current character.
; 546  :           __buf->sbumpc();
; 547  :           ++__n;
; 548  :         }
; 549  :         break;
; 550  :       }
; 551  : 
; 552  :       else if (__n == _Num) {
; 553  :         if (__is_getline)
; 554  :           __status |= ios_base::failbit;
; 555  :         break;
; 556  :       }
; 557  :         
; 558  :       *__s++ = _Traits::to_char_type(__c);
; 559  :       ++__n;
; 560  :       __c = __buf->snextc();
; 561  :     }
; 562  : # else
; 563  : // int_type __c = __buf->sbumpc(); // __buf->sgetc();
; 564  : while (true) {
; 565  : 
; 566  : int_type __c = __buf->sbumpc(); // sschwarz

  0001f	8b 4d 0c	 mov	 ecx, DWORD PTR ___buf$[ebp]
  00022	e8 00 00 00 00	 call	 ?sbumpc@?$basic_streambuf@DV?$char_traits@D@_STL@@@_STL@@QAEHXZ ; _STL::basic_streambuf<char,_STL::char_traits<char> >::sbumpc

; 567  : 
; 568  : if (__that->_S_eof(__c)) {

  00027	83 f8 ff	 cmp	 eax, -1
  0002a	75 12		 jne	 SHORT $L101364

; 569  : if (__n < _Num || __is_getline)

  0002c	8b 45 ec	 mov	 eax, DWORD PTR ___n$[ebp]
  0002f	3b 45 10	 cmp	 eax, DWORD PTR __Num$[ebp]
  00032	7c 05		 jl	 SHORT $L101366
  00034	38 5d 24	 cmp	 BYTE PTR ___is_getline$[ebp], bl
  00037	74 2d		 je	 SHORT $L101373
$L101366:

; 570  : __status |= ios_base::eofbit;

  00039	83 cf 02	 or	 edi, 2

; 571  : break;

  0003c	eb 28		 jmp	 SHORT $L101373
$L101364:

; 572  : }
; 573  : 
; 574  : else if (__is_delim(__c)) {

  0003e	38 5d 18	 cmp	 BYTE PTR ___is_delim$[ebp], bl
  00041	74 0a		 je	 SHORT $L101369

; 575  : if (__extract_delim) { // Extract and discard current character.

  00043	38 5d 1c	 cmp	 BYTE PTR ___extract_delim$[ebp], bl
  00046	74 1e		 je	 SHORT $L101373

; 576  : // __buf->sbumpc();
; 577  : ++__n;

  00048	ff 45 ec	 inc	 DWORD PTR ___n$[ebp]

; 578  : }
; 579  : break;

  0004b	eb 19		 jmp	 SHORT $L101373
$L101369:

; 580  : }
; 581  : 
; 582  : else { // regular character
; 583  : 
; 584  : *__s++ = _Traits::to_char_type(__c);

  0004d	88 06		 mov	 BYTE PTR [esi], al
  0004f	46		 inc	 esi

; 585  : ++__n;

  00050	ff 45 ec	 inc	 DWORD PTR ___n$[ebp]

; 586  : 
; 587  : }
; 588  : 
; 589  : if (__n == _Num) {

  00053	8b 45 ec	 mov	 eax, DWORD PTR ___n$[ebp]
  00056	3b 45 10	 cmp	 eax, DWORD PTR __Num$[ebp]
  00059	89 75 14	 mov	 DWORD PTR ___s$[ebp], esi
  0005c	75 c1		 jne	 SHORT $L101361

; 590  : if (__is_getline) // didn't find delimiter as one of the _Num chars

  0005e	38 5d 24	 cmp	 BYTE PTR ___is_getline$[ebp], bl
  00061	74 03		 je	 SHORT $L101373

; 591  : __status |= ios_base::failbit;

  00063	83 cf 04	 or	 edi, 4
$L101373:

; 607  :   }

  00066	83 4d fc ff	 or	 DWORD PTR __$EHRec$[ebp+12], -1

; 608  : 
; 609  :   if (__append_null)

  0006a	38 5d 20	 cmp	 BYTE PTR ___append_null$[ebp], bl
  0006d	74 02		 je	 SHORT $L101375

; 610  :     *__s =  _STLP_DEFAULT_CONSTRUCTED(_CharT);

  0006f	88 1e		 mov	 BYTE PTR [esi], bl
$L101375:

; 611  :   if (__status)

  00071	3b fb		 cmp	 edi, ebx
  00073	74 15		 je	 SHORT $L102653

; 612  :     __that->setstate(__status);    // This might throw.

  00075	8b 45 08	 mov	 eax, DWORD PTR ___that$[ebp]
  00078	8b 08		 mov	 ecx, DWORD PTR [eax]
  0007a	8b 49 04	 mov	 ecx, DWORD PTR [ecx+4]
  0007d	03 c8		 add	 ecx, eax
  0007f	8b 41 08	 mov	 eax, DWORD PTR [ecx+8]
  00082	0b c7		 or	 eax, edi
  00084	50		 push	 eax
  00085	e8 00 00 00 00	 call	 ?clear@?$basic_ios@DV?$char_traits@D@_STL@@@_STL@@QAEXH@Z ; _STL::basic_ios<char,_STL::char_traits<char> >::clear
$L102653:

; 613  :   return __n;
; 614  : }

  0008a	8b 4d f4	 mov	 ecx, DWORD PTR __$EHRec$[ebp+4]
  0008d	8b 45 ec	 mov	 eax, DWORD PTR ___n$[ebp]
  00090	5f		 pop	 edi
  00091	5e		 pop	 esi
  00092	64 89 0d 00 00
	00 00		 mov	 DWORD PTR fs:__except_list, ecx
  00099	5b		 pop	 ebx
  0009a	c9		 leave
  0009b	c3		 ret	 0
$L102651:

; 592  : break;
; 593  : }
; 594  : 
; 595  : // *__s++ = _Traits::to_char_type(__c);
; 596  : // ++__n;
; 597  : 
; 598  : }
; 599  : 
; 600  : # endif
; 601  : 
; 602  :   }
; 603  :   _STLP_CATCH_ALL {
; 604  :     __that->_M_handle_exception(ios_base::badbit);

  0009c	8b 45 08	 mov	 eax, DWORD PTR ___that$[ebp]
  0009f	8b 08		 mov	 ecx, DWORD PTR [eax]
  000a1	8b 49 04	 mov	 ecx, DWORD PTR [ecx+4]
  000a4	6a 01		 push	 1
  000a6	03 c8		 add	 ecx, eax
  000a8	e8 00 00 00 00	 call	 ?_M_handle_exception@?$basic_ios@DV?$char_traits@D@_STL@@@_STL@@QAEXH@Z ; _STL::basic_ios<char,_STL::char_traits<char> >::_M_handle_exception

; 605  :     *__s = _STLP_DEFAULT_CONSTRUCTED(_CharT);

  000ad	8b 45 14	 mov	 eax, DWORD PTR ___s$[ebp]
  000b0	c6 00 00	 mov	 BYTE PTR [eax], 0

; 606  :     return __n;

  000b3	b8 00 00 00 00	 mov	 eax, $L102653
  000b8	c3		 ret	 0
_TEXT	ENDS
;	COMDAT text$x
text$x	SEGMENT
__ehhandler$??$_M_read_unbuffered@DV?$char_traits@D@_STL@@U?$_Constant_unary_fun@_NH@2@@_STL@@YAHPAV?$basic_istream@DV?$char_traits@D@_STL@@@0@PAV?$basic_streambuf@DV?$char_traits@D@_STL@@@0@HPADU?$_Constant_unary_fun@_NH@0@_N44@Z:
  00000	b8 00 00 00 00	 mov	 eax, OFFSET FLAT:$T102688
  00005	e9 00 00 00 00	 jmp	 ___CxxFrameHandler
text$x	ENDS
??$_M_read_unbuffered@DV?$char_traits@D@_STL@@U?$_Constant_unary_fun@_NH@2@@_STL@@YAHPAV?$basic_istream@DV?$char_traits@D@_STL@@@0@PAV?$basic_streambuf@DV?$char_traits@D@_STL@@@0@HPADU?$_Constant_unary_fun@_NH@0@_N44@Z ENDP ; _STL::_M_read_unbuffered<char,_STL::char_traits<char>,_STL::_Constant_unary_fun<bool,int> >
PUBLIC	??$__uninitialized_copy@PADPAD@_STL@@YAPADPAD00ABU__true_type@0@@Z ; _STL::__uninitialized_copy<char *,char *>
; Function compile flags: /Ogsy
; File c:\stlport-4.6.1\stlport\stl\_uninitialized.h
;	COMDAT ??$__uninitialized_copy@PADPAD@_STL@@YAPADPAD00ABU__true_type@0@@Z
_TEXT	SEGMENT
___first$ = 8						; size = 4
___last$ = 12						; size = 4
___result$ = 16						; size = 4
___formal$ = 20						; size = 4
??$__uninitialized_copy@PADPAD@_STL@@YAPADPAD00ABU__true_type@0@@Z PROC NEAR ; _STL::__uninitialized_copy<char *,char *>, COMDAT

; 55   :   return __copy_aux(__first, __last, __result, _BothPtrType< _InputIter, _ForwardIter> :: _Ret());

  00000	ff 74 24 0c	 push	 DWORD PTR ___result$[esp-4]
  00004	ff 74 24 0c	 push	 DWORD PTR ___last$[esp]
  00008	ff 74 24 0c	 push	 DWORD PTR ___first$[esp+4]
  0000c	e8 00 00 00 00	 call	 ?__copy_trivial@_STL@@YAPAXPBX0PAX@Z ; _STL::__copy_trivial
  00011	83 c4 0c	 add	 esp, 12			; 0000000cH

; 56   : }

  00014	c3		 ret	 0
??$__uninitialized_copy@PADPAD@_STL@@YAPADPAD00ABU__true_type@0@@Z ENDP ; _STL::__uninitialized_copy<char *,char *>
_TEXT	ENDS
PUBLIC	?_M_deallocate_block@?$_String_base@DV?$allocator@D@_STL@@@_STL@@QAEXXZ ; _STL::_String_base<char,_STL::allocator<char> >::_M_deallocate_block
; Function compile flags: /Ogsy
; File c:\stlport-4.6.1\stlport\stl\_string.h
;	COMDAT ?_M_deallocate_block@?$_String_base@DV?$allocator@D@_STL@@@_STL@@QAEXXZ
_TEXT	SEGMENT
?_M_deallocate_block@?$_String_base@DV?$allocator@D@_STL@@@_STL@@QAEXXZ PROC NEAR ; _STL::_String_base<char,_STL::allocator<char> >::_M_deallocate_block, COMDAT
; _this$ = ecx

; 124  :     { _M_end_of_storage.deallocate(_M_start, _M_end_of_storage._M_data - _M_start); }

  00000	8b c1		 mov	 eax, ecx
  00002	8d 48 08	 lea	 ecx, DWORD PTR [eax+8]
  00005	8b 00		 mov	 eax, DWORD PTR [eax]
  00007	8b 11		 mov	 edx, DWORD PTR [ecx]
  00009	2b d0		 sub	 edx, eax
  0000b	52		 push	 edx
  0000c	50		 push	 eax
  0000d	e8 00 00 00 00	 call	 ?deallocate@?$allocator@D@_STL@@QAEXPADI@Z ; _STL::allocator<char>::deallocate
  00012	c3		 ret	 0
?_M_deallocate_block@?$_String_base@DV?$allocator@D@_STL@@@_STL@@QAEXXZ ENDP ; _STL::_String_base<char,_STL::allocator<char> >::_M_deallocate_block
_TEXT	ENDS
PUBLIC	?find@?$basic_string@DV?$char_traits@D@_STL@@V?$allocator@D@2@@_STL@@QBEIDI@Z ; _STL::basic_string<char,_STL::char_traits<char>,_STL::allocator<char> >::find
; Function compile flags: /Ogsy
; File c:\stlport-4.6.1\stlport\stl\_string.c
;	COMDAT ?find@?$basic_string@DV?$char_traits@D@_STL@@V?$allocator@D@2@@_STL@@QBEIDI@Z
_TEXT	SEGMENT
___c$ = 8						; size = 1
___pos$ = 12						; size = 4
?find@?$basic_string@DV?$char_traits@D@_STL@@V?$allocator@D@2@@_STL@@QBEIDI@Z PROC NEAR ; _STL::basic_string<char,_STL::char_traits<char>,_STL::allocator<char> >::find, COMDAT
; _this$ = ecx

; 356  :   if (__pos >= size())

  00000	8b 44 24 08	 mov	 eax, DWORD PTR ___pos$[esp-4]
  00004	56		 push	 esi
  00005	8b 31		 mov	 esi, DWORD PTR [ecx]
  00007	57		 push	 edi
  00008	8b 79 04	 mov	 edi, DWORD PTR [ecx+4]
  0000b	8b cf		 mov	 ecx, edi
  0000d	2b ce		 sub	 ecx, esi
  0000f	3b c1		 cmp	 eax, ecx
  00011	72 05		 jb	 SHORT $L100791

; 357  :     return npos;

  00013	83 c8 ff	 or	 eax, -1
  00016	eb 1b		 jmp	 SHORT $L100792
$L100791:

; 358  :   else {
; 359  :     const const_pointer __result =
; 360  :       _STLP_STD::find_if((const _CharT*)this->_M_start + __pos, (const _CharT*)this->_M_finish,
; 361  : 			 _Eq_char_bound<_Traits>(__c));

  00018	ff 74 24 0c	 push	 DWORD PTR ___c$[esp+4]
  0001c	03 c6		 add	 eax, esi
  0001e	57		 push	 edi
  0001f	50		 push	 eax
  00020	e8 00 00 00 00	 call	 ??$find_if@PBDU?$_Eq_char_bound@V?$char_traits@D@_STL@@@_STL@@@_STL@@YAPBDPBD0U?$_Eq_char_bound@V?$char_traits@D@_STL@@@0@@Z ; _STL::find_if<char const *,_STL::_Eq_char_bound<_STL::char_traits<char> > >
  00025	83 c4 0c	 add	 esp, 12			; 0000000cH

; 362  :     return __result != this->_M_finish ? __result - this->_M_start : npos;

  00028	3b c7		 cmp	 eax, edi
  0002a	74 04		 je	 SHORT $L102744
  0002c	2b c6		 sub	 eax, esi
  0002e	eb 03		 jmp	 SHORT $L100792
$L102744:
  00030	83 c8 ff	 or	 eax, -1
$L100792:
  00033	5f		 pop	 edi
  00034	5e		 pop	 esi

; 363  :   }
; 364  : }    

  00035	c2 08 00	 ret	 8
?find@?$basic_string@DV?$char_traits@D@_STL@@V?$allocator@D@2@@_STL@@QBEIDI@Z ENDP ; _STL::basic_string<char,_STL::char_traits<char>,_STL::allocator<char> >::find
_TEXT	ENDS
PUBLIC	??$_M_range_initialize@PBD@?$basic_string@DV?$char_traits@D@_STL@@V?$allocator@D@2@@_STL@@AAEXPBD0@Z ; _STL::basic_string<char,_STL::char_traits<char>,_STL::allocator<char> >::_M_range_initialize<char const *>
; Function compile flags: /Ogsy
; File c:\stlport-4.6.1\stlport\stl\_string.h
;	COMDAT ??$_M_range_initialize@PBD@?$basic_string@DV?$char_traits@D@_STL@@V?$allocator@D@2@@_STL@@AAEXPBD0@Z
_TEXT	SEGMENT
___f$ = 8						; size = 4
___l$ = 12						; size = 4
$T102755 = 15						; size = 1
??$_M_range_initialize@PBD@?$basic_string@DV?$char_traits@D@_STL@@V?$allocator@D@2@@_STL@@AAEXPBD0@Z PROC NEAR ; _STL::basic_string<char,_STL::char_traits<char>,_STL::allocator<char> >::_M_range_initialize<char const *>, COMDAT
; _this$ = ecx

; 390  :   template <class _InputIter> void _M_range_initialize(_InputIter __f, _InputIter __l) {

  00000	55		 push	 ebp
  00001	8b ec		 mov	 ebp, esp

; 391  :     _M_range_initialize(__f, __l, _STLP_ITERATOR_CATEGORY(__f, _InputIter));

  00003	8d 45 0f	 lea	 eax, DWORD PTR $T102755[ebp]
  00006	50		 push	 eax
  00007	ff 75 0c	 push	 DWORD PTR ___l$[ebp]
  0000a	ff 75 08	 push	 DWORD PTR ___f$[ebp]
  0000d	e8 00 00 00 00	 call	 ??$_M_range_initialize@PBD@?$basic_string@DV?$char_traits@D@_STL@@V?$allocator@D@2@@_STL@@AAEXPBD0ABUforward_iterator_tag@1@@Z ; _STL::basic_string<char,_STL::char_traits<char>,_STL::allocator<char> >::_M_range_initialize<char const *>

; 392  :   }

  00012	5d		 pop	 ebp
  00013	c2 08 00	 ret	 8
??$_M_range_initialize@PBD@?$basic_string@DV?$char_traits@D@_STL@@V?$allocator@D@2@@_STL@@AAEXPBD0@Z ENDP ; _STL::basic_string<char,_STL::char_traits<char>,_STL::allocator<char> >::_M_range_initialize<char const *>
_TEXT	ENDS
PUBLIC	?write@?$basic_ostream@DV?$char_traits@D@_STL@@@_STL@@QAEAAV12@PBDH@Z ; _STL::basic_ostream<char,_STL::char_traits<char> >::write
;	COMDAT xdata$x
; File c:\stlport-4.6.1\stlport\stl\_ios_base.h
xdata$x	SEGMENT
$T102797 DD	0ffffffffH
	DD	FLAT:$L102761
	DD	00H
	DD	00H
	DD	00H
	DD	00H
$T102799 DD	00H
	DD	00H
	DD	00H
	DD	FLAT:$L102760
$T102798 DD	01H
	DD	01H
	DD	02H
	DD	01H
	DD	FLAT:$T102799
$T102794 DD	019930520H
	DD	03H
	DD	FLAT:$T102797
	DD	01H
	DD	FLAT:$T102798
	DD	2 DUP(00H)
; Function compile flags: /Ogsy
; File c:\stlport-4.6.1\stlport\stl\_ostream.c
xdata$x	ENDS
;	COMDAT ?write@?$basic_ostream@DV?$char_traits@D@_STL@@@_STL@@QAEAAV12@PBDH@Z
_TEXT	SEGMENT
___sentry$ = -32					; size = 8
_this$ = -24						; size = 4
___failed$ = -17					; size = 1
__$EHRec$ = -16						; size = 16
___s$ = 8						; size = 4
___n$ = 12						; size = 4
?write@?$basic_ostream@DV?$char_traits@D@_STL@@@_STL@@QAEAAV12@PBDH@Z PROC NEAR ; _STL::basic_ostream<char,_STL::char_traits<char> >::write, COMDAT
; _this$ = ecx

; 359  : {

  00000	b8 00 00 00 00	 mov	 eax, __ehhandler$?write@?$basic_ostream@DV?$char_traits@D@_STL@@@_STL@@QAEAAV12@PBDH@Z
  00005	e8 00 00 00 00	 call	 __EH_prolog
  0000a	83 ec 14	 sub	 esp, 20			; 00000014H
  0000d	53		 push	 ebx
  0000e	56		 push	 esi
  0000f	57		 push	 edi
  00010	8b f1		 mov	 esi, ecx
  00012	89 65 f0	 mov	 DWORD PTR __$EHRec$[ebp], esp

; 360  :   sentry __sentry(*this);

  00015	56		 push	 esi
  00016	8d 4d e0	 lea	 ecx, DWORD PTR ___sentry$[ebp]
  00019	89 75 e8	 mov	 DWORD PTR _this$[ebp], esi
  0001c	e8 00 00 00 00	 call	 ??0sentry@?$basic_ostream@DV?$char_traits@D@_STL@@@_STL@@QAE@AAV12@@Z ; _STL::basic_ostream<char,_STL::char_traits<char> >::sentry::sentry
  00021	83 65 fc 00	 and	 DWORD PTR __$EHRec$[ebp+12], 0

; 361  :   bool __failed = true;
; 362  : 
; 363  :   if (__sentry) {

  00025	80 7d e4 00	 cmp	 BYTE PTR ___sentry$[ebp+4], 0
  00029	c6 45 ef 01	 mov	 BYTE PTR ___failed$[ebp], 1
  0002d	74 3b		 je	 SHORT $L100899

; 364  :     _STLP_TRY {
; 365  :       __failed = this->rdbuf()->sputn(__s, __n) != __n;

  0002f	8b 06		 mov	 eax, DWORD PTR [esi]
  00031	8b 40 04	 mov	 eax, DWORD PTR [eax+4]
  00034	ff 75 0c	 push	 DWORD PTR ___n$[ebp]
  00037	8b 4c 30 58	 mov	 ecx, DWORD PTR [eax+esi+88]
  0003b	ff 75 08	 push	 DWORD PTR ___s$[ebp]
  0003e	8b 01		 mov	 eax, DWORD PTR [ecx]
  00040	c6 45 fc 01	 mov	 BYTE PTR __$EHRec$[ebp+12], 1
  00044	ff 50 28	 call	 DWORD PTR [eax+40]
  00047	3b 45 0c	 cmp	 eax, DWORD PTR ___n$[ebp]
  0004a	0f 95 45 ef	 setne	 BYTE PTR ___failed$[ebp]
  0004e	eb 1a		 jmp	 SHORT $L100899
$L102760:

; 366  :     }
; 367  :     _STLP_CATCH_ALL {
; 368  :       this->_M_handle_exception(ios_base::badbit);

  00050	8b 45 e8	 mov	 eax, DWORD PTR _this$[ebp]
  00053	8b 08		 mov	 ecx, DWORD PTR [eax]
  00055	8b 49 04	 mov	 ecx, DWORD PTR [ecx+4]
  00058	6a 01		 push	 1
  0005a	03 c8		 add	 ecx, eax
  0005c	e8 00 00 00 00	 call	 ?_M_handle_exception@?$basic_ios@DV?$char_traits@D@_STL@@@_STL@@QAEXH@Z ; _STL::basic_ios<char,_STL::char_traits<char> >::_M_handle_exception

; 369  :     }

  00061	b8 00 00 00 00	 mov	 eax, $L102795
  00066	c3		 ret	 0
$L102795:
  00067	8b 75 e8	 mov	 esi, DWORD PTR _this$[ebp]
$L100899:
  0006a	83 65 fc 00	 and	 DWORD PTR __$EHRec$[ebp+12], 0

; 370  :   }
; 371  : 
; 372  :   if (__failed)

  0006e	80 7d ef 00	 cmp	 BYTE PTR ___failed$[ebp], 0
  00072	74 13		 je	 SHORT $L102781

; 373  :     this->setstate(ios_base::badbit);

  00074	8b 06		 mov	 eax, DWORD PTR [esi]
  00076	8b 48 04	 mov	 ecx, DWORD PTR [eax+4]
  00079	03 ce		 add	 ecx, esi
  0007b	8b 41 08	 mov	 eax, DWORD PTR [ecx+8]
  0007e	83 c8 01	 or	 eax, 1
  00081	50		 push	 eax
  00082	e8 00 00 00 00	 call	 ?clear@?$basic_ios@DV?$char_traits@D@_STL@@@_STL@@QAEXH@Z ; _STL::basic_ios<char,_STL::char_traits<char> >::clear
$L102781:

; 374  : 
; 375  :   return *this;

  00087	8b 4d e0	 mov	 ecx, DWORD PTR ___sentry$[ebp]
  0008a	8b 01		 mov	 eax, DWORD PTR [ecx]
  0008c	8b 40 04	 mov	 eax, DWORD PTR [eax+4]
  0008f	83 4d fc ff	 or	 DWORD PTR __$EHRec$[ebp+12], -1
  00093	f6 44 08 05 20	 test	 BYTE PTR [eax+ecx+5], 32 ; 00000020H
  00098	74 05		 je	 SHORT $L102792
  0009a	e8 00 00 00 00	 call	 ?flush@?$basic_ostream@DV?$char_traits@D@_STL@@@_STL@@QAEAAV12@XZ ; _STL::basic_ostream<char,_STL::char_traits<char> >::flush
$L102792:

; 376  : }

  0009f	8b 4d f4	 mov	 ecx, DWORD PTR __$EHRec$[ebp+4]
  000a2	5f		 pop	 edi
  000a3	8b c6		 mov	 eax, esi
  000a5	5e		 pop	 esi
  000a6	64 89 0d 00 00
	00 00		 mov	 DWORD PTR fs:__except_list, ecx
  000ad	5b		 pop	 ebx
  000ae	c9		 leave
  000af	c2 08 00	 ret	 8
_TEXT	ENDS
;	COMDAT text$x
text$x	SEGMENT
$L102761:
  00000	8d 4d e0	 lea	 ecx, DWORD PTR ___sentry$[ebp]
  00003	e9 00 00 00 00	 jmp	 ??1sentry@?$basic_ostream@DV?$char_traits@D@_STL@@@_STL@@QAE@XZ ; _STL::basic_ostream<char,_STL::char_traits<char> >::sentry::~sentry
__ehhandler$?write@?$basic_ostream@DV?$char_traits@D@_STL@@@_STL@@QAEAAV12@PBDH@Z:
  00008	b8 00 00 00 00	 mov	 eax, OFFSET FLAT:$T102794
  0000d	e9 00 00 00 00	 jmp	 ___CxxFrameHandler
text$x	ENDS
?write@?$basic_ostream@DV?$char_traits@D@_STL@@@_STL@@QAEAAV12@PBDH@Z ENDP ; _STL::basic_ostream<char,_STL::char_traits<char> >::write
PUBLIC	??$_M_read_buffered@DV?$char_traits@D@_STL@@U?$_Constant_unary_fun@_NH@2@U?$_Project2nd@PBDPBD@2@@_STL@@YAHPAV?$basic_istream@DV?$char_traits@D@_STL@@@0@PAV?$basic_streambuf@DV?$char_traits@D@_STL@@@0@HPADU?$_Constant_unary_fun@_NH@0@U?$_Project2nd@PBDPBD@0@_N55@Z ; _STL::_M_read_buffered<char,_STL::char_traits<char>,_STL::_Constant_unary_fun<bool,int>,_STL::_Project2nd<char const *,char const *> >
;	COMDAT xdata$x
; File c:\stlport-4.6.1\stlport\stl\_ios_base.h
xdata$x	SEGMENT
$T102930 DD	0ffffffffH
	DD	00H
	DD	0ffffffffH
	DD	00H
$T102932 DD	00H
	DD	00H
	DD	00H
	DD	FLAT:$L102806
$T102931 DD	00H
	DD	00H
	DD	01H
	DD	01H
	DD	FLAT:$T102932
$T102924 DD	019930520H
	DD	02H
	DD	FLAT:$T102930
	DD	01H
	DD	FLAT:$T102931
	DD	2 DUP(00H)
; Function compile flags: /Ogsy
; File c:\stlport-4.6.1\stlport\stl\_istream.c
xdata$x	ENDS
;	COMDAT ??$_M_read_buffered@DV?$char_traits@D@_STL@@U?$_Constant_unary_fun@_NH@2@U?$_Project2nd@PBDPBD@2@@_STL@@YAHPAV?$basic_istream@DV?$char_traits@D@_STL@@@0@PAV?$basic_streambuf@DV?$char_traits@D@_STL@@@0@HPADU?$_Constant_unary_fun@_NH@0@U?$_Project2nd@PBDPBD@0@_N55@Z
_TEXT	SEGMENT
tv309 = -40						; size = 4
$T102804 = -36						; size = 4
___request$101336 = -32					; size = 4
___n$ = -28						; size = 4
___status$ = -24					; size = 4
___done$ = -17						; size = 1
__$EHRec$ = -16						; size = 16
___that$ = 8						; size = 4
___buf$ = 12						; size = 4
__Num$ = 16						; size = 4
___s$ = 20						; size = 4
___is_delim$ = 24					; size = 1
___scan_delim$ = 28					; size = 1
___extract_delim$ = 32					; size = 1
___append_null$ = 36					; size = 1
___is_getline$ = 40					; size = 1
??$_M_read_buffered@DV?$char_traits@D@_STL@@U?$_Constant_unary_fun@_NH@2@U?$_Project2nd@PBDPBD@2@@_STL@@YAHPAV?$basic_istream@DV?$char_traits@D@_STL@@@0@PAV?$basic_streambuf@DV?$char_traits@D@_STL@@@0@HPADU?$_Constant_unary_fun@_NH@0@U?$_Project2nd@PBDPBD@0@_N55@Z PROC NEAR ; _STL::_M_read_buffered<char,_STL::char_traits<char>,_STL::_Constant_unary_fun<bool,int>,_STL::_Project2nd<char const *,char const *> >, COMDAT

; 627  : {

  00000	b8 00 00 00 00	 mov	 eax, __ehhandler$??$_M_read_buffered@DV?$char_traits@D@_STL@@U?$_Constant_unary_fun@_NH@2@U?$_Project2nd@PBDPBD@2@@_STL@@YAHPAV?$basic_istream@DV?$char_traits@D@_STL@@@0@PAV?$basic_streambuf@DV?$char_traits@D@_STL@@@0@HPADU?$_Constant_unary_fun@_NH@0@U?$_Project2nd@PBDPBD@0@_N55@Z
  00005	e8 00 00 00 00	 call	 __EH_prolog
  0000a	83 ec 1c	 sub	 esp, 28			; 0000001cH
  0000d	53		 push	 ebx

; 628  :   streamsize __n = 0;
; 629  :   ios_base::iostate __status = 0;
; 630  :   bool __done    = false;
; 631  : 
; 632  :   _STLP_TRY {

  0000e	8b 5d 10	 mov	 ebx, DWORD PTR __Num$[ebp]
  00011	33 c0		 xor	 eax, eax
  00013	56		 push	 esi
  00014	57		 push	 edi
  00015	8b 7d 0c	 mov	 edi, DWORD PTR ___buf$[ebp]
  00018	89 65 f0	 mov	 DWORD PTR __$EHRec$[ebp], esp
  0001b	89 45 e4	 mov	 DWORD PTR ___n$[ebp], eax
  0001e	89 45 e8	 mov	 DWORD PTR ___status$[ebp], eax
  00021	88 45 ef	 mov	 BYTE PTR ___done$[ebp], al
  00024	89 45 fc	 mov	 DWORD PTR __$EHRec$[ebp+12], eax
$L101332:

; 633  :     while (__buf->_M_egptr() != __buf->_M_gptr() && !__done) {

  00027	8b 47 04	 mov	 eax, DWORD PTR [edi+4]
  0002a	8b 08		 mov	 ecx, DWORD PTR [eax]
  0002c	8b 50 04	 mov	 edx, DWORD PTR [eax+4]
  0002f	03 d1		 add	 edx, ecx
  00031	3b d1		 cmp	 edx, ecx
  00033	0f 84 ae 00 00
	00		 je	 $L101333
  00039	80 7d ef 00	 cmp	 BYTE PTR ___done$[ebp], 0
  0003d	0f 85 a4 00 00
	00		 jne	 $L101333

; 634  :       const _CharT* __first = __buf->_M_gptr();

  00043	8b 10		 mov	 edx, DWORD PTR [eax]

; 635  :       const _CharT* __last  = __buf->_M_egptr();

  00045	8b 48 04	 mov	 ecx, DWORD PTR [eax+4]
  00048	03 ca		 add	 ecx, edx

; 636  :       ptrdiff_t __request = _Num - __n;

  0004a	8b c3		 mov	 eax, ebx
  0004c	2b 45 e4	 sub	 eax, DWORD PTR ___n$[ebp]

; 637  : 
; 638  :       const _CharT* __p  = __scan_delim(__first, __last);
; 639  :       ptrdiff_t __chunk = (min) (ptrdiff_t(__p - __first), __request);

  0004f	2b ca		 sub	 ecx, edx
  00051	89 45 e0	 mov	 DWORD PTR ___request$101336[ebp], eax
  00054	3b c1		 cmp	 eax, ecx
  00056	89 4d d8	 mov	 DWORD PTR tv309[ebp], ecx
  00059	89 4d dc	 mov	 DWORD PTR $T102804[ebp], ecx
  0005c	8d 45 e0	 lea	 eax, DWORD PTR ___request$101336[ebp]
  0005f	7c 03		 jl	 SHORT $L102856
  00061	8d 45 dc	 lea	 eax, DWORD PTR $T102804[ebp]
$L102856:
  00064	8b 30		 mov	 esi, DWORD PTR [eax]

; 640  :       _Traits::copy(__s, __first, __chunk);

  00066	85 f6		 test	 esi, esi
  00068	74 0d		 je	 SHORT $L102863
  0006a	56		 push	 esi
  0006b	52		 push	 edx
  0006c	ff 75 14	 push	 DWORD PTR ___s$[ebp]
  0006f	e8 00 00 00 00	 call	 _memcpy
  00074	83 c4 0c	 add	 esp, 12			; 0000000cH
$L102863:

; 641  :       __s += __chunk;
; 642  :       __n += __chunk;
; 643  :       __buf->_M_gbump((int)__chunk);

  00077	8b 47 04	 mov	 eax, DWORD PTR [edi+4]
  0007a	01 75 e4	 add	 DWORD PTR ___n$[ebp], esi
  0007d	01 75 14	 add	 DWORD PTR ___s$[ebp], esi
  00080	01 30		 add	 DWORD PTR [eax], esi
  00082	29 70 04	 sub	 DWORD PTR [eax+4], esi

; 644  : 
; 645  :       // We terminated by finding delim.
; 646  :       if (__p != __last && __p - __first <= __request) {
; 647  :         if (__extract_delim) {
; 648  :           __n += 1;
; 649  :           __buf->_M_gbump(1);
; 650  :         }
; 651  :         __done = true;
; 652  :       }
; 653  : 
; 654  :       // We terminated by reading all the characters we were asked for.
; 655  :       else if(__n == _Num) {

  00085	39 5d e4	 cmp	 DWORD PTR ___n$[ebp], ebx
  00088	75 26		 jne	 SHORT $L101345

; 656  : 
; 657  :         // Find out if we have reached eof.  This matters for getline.
; 658  :         if (__is_getline) {

  0008a	80 7d 28 00	 cmp	 BYTE PTR ___is_getline$[ebp], 0
  0008e	74 17		 je	 SHORT $L101349

; 659  :           if (__chunk == __last - __first) {

  00090	3b 75 d8	 cmp	 esi, DWORD PTR tv309[ebp]
  00093	75 0e		 jne	 SHORT $L101347

; 660  :             if (__that->_S_eof(__buf->sgetc()))

  00095	8b cf		 mov	 ecx, edi
  00097	e8 00 00 00 00	 call	 ?sgetc@?$basic_streambuf@DV?$char_traits@D@_STL@@@_STL@@QAEHXZ ; _STL::basic_streambuf<char,_STL::char_traits<char> >::sgetc
  0009c	83 f8 ff	 cmp	 eax, -1
  0009f	75 06		 jne	 SHORT $L101349

; 661  :               __status |= ios_base::eofbit;            
; 662  :           }
; 663  :           else

  000a1	eb 1d		 jmp	 SHORT $L102929
$L101347:

; 664  :             __status |= ios_base::failbit;

  000a3	83 4d e8 04	 or	 DWORD PTR ___status$[ebp], 4
$L101349:

; 665  :         }
; 666  :         __done   = true;

  000a7	c6 45 ef 01	 mov	 BYTE PTR ___done$[ebp], 1

; 667  :       }
; 668  : 
; 669  :       // The buffer contained fewer than _Num - __n characters.  Either we're
; 670  :       // at eof, or we should refill the buffer and try again.
; 671  :       else {

  000ab	e9 77 ff ff ff	 jmp	 $L101332
$L101345:

; 672  : 	if (__that->_S_eof(__buf->sgetc())) {

  000b0	8b cf		 mov	 ecx, edi
  000b2	e8 00 00 00 00	 call	 ?sgetc@?$basic_streambuf@DV?$char_traits@D@_STL@@@_STL@@QAEHXZ ; _STL::basic_streambuf<char,_STL::char_traits<char> >::sgetc
  000b7	83 f8 ff	 cmp	 eax, -1
  000ba	0f 85 67 ff ff
	ff		 jne	 $L101332
$L102929:

; 673  :           __status |= ios_base::eofbit;

  000c0	83 4d e8 02	 or	 DWORD PTR ___status$[ebp], 2

; 674  :           __done = true;
; 675  :         }
; 676  :       }
; 677  :     } // Close the while loop.

  000c4	eb e1		 jmp	 SHORT $L101349
$L102806:

; 678  :   }
; 679  :   _STLP_CATCH_ALL {
; 680  :     __that->_M_handle_exception(ios_base::badbit);

  000c6	8b 45 08	 mov	 eax, DWORD PTR ___that$[ebp]
  000c9	8b 08		 mov	 ecx, DWORD PTR [eax]
  000cb	8b 49 04	 mov	 ecx, DWORD PTR [ecx+4]
  000ce	6a 01		 push	 1
  000d0	03 c8		 add	 ecx, eax
  000d2	e8 00 00 00 00	 call	 ?_M_handle_exception@?$basic_ios@DV?$char_traits@D@_STL@@@_STL@@QAEXH@Z ; _STL::basic_ios<char,_STL::char_traits<char> >::_M_handle_exception

; 681  :     __done = true;

  000d7	c6 45 ef 01	 mov	 BYTE PTR ___done$[ebp], 1

; 682  :   }

  000db	b8 00 00 00 00	 mov	 eax, $L102926
  000e0	c3		 ret	 0
$L102926:
  000e1	8b 5d 10	 mov	 ebx, DWORD PTR __Num$[ebp]
  000e4	8b 7d 0c	 mov	 edi, DWORD PTR ___buf$[ebp]
$L101333:
  000e7	83 4d fc ff	 or	 DWORD PTR __$EHRec$[ebp+12], -1

; 683  : 
; 684  :   if (__done) {

  000eb	80 7d ef 00	 cmp	 BYTE PTR ___done$[ebp], 0
  000ef	74 2d		 je	 SHORT $L101352

; 685  :     if (__append_null)

  000f1	80 7d 24 00	 cmp	 BYTE PTR ___append_null$[ebp], 0
  000f5	74 06		 je	 SHORT $L101353

; 686  :         *__s =  _STLP_DEFAULT_CONSTRUCTED(_CharT);

  000f7	8b 45 14	 mov	 eax, DWORD PTR ___s$[ebp]
  000fa	c6 00 00	 mov	 BYTE PTR [eax], 0
$L101353:

; 687  :     if (__status != 0)

  000fd	83 7d e8 00	 cmp	 DWORD PTR ___status$[ebp], 0
  00101	74 16		 je	 SHORT $L102921

; 688  :       __that->setstate(__status);   // This might throw.

  00103	8b 45 08	 mov	 eax, DWORD PTR ___that$[ebp]
  00106	8b 08		 mov	 ecx, DWORD PTR [eax]
  00108	8b 49 04	 mov	 ecx, DWORD PTR [ecx+4]
  0010b	03 c8		 add	 ecx, eax
  0010d	8b 41 08	 mov	 eax, DWORD PTR [ecx+8]
  00110	0b 45 e8	 or	 eax, DWORD PTR ___status$[ebp]
  00113	50		 push	 eax
  00114	e8 00 00 00 00	 call	 ?clear@?$basic_ios@DV?$char_traits@D@_STL@@@_STL@@QAEXH@Z ; _STL::basic_ios<char,_STL::char_traits<char> >::clear
$L102921:

; 689  :     return __n;

  00119	8b 45 e4	 mov	 eax, DWORD PTR ___n$[ebp]
  0011c	eb 22		 jmp	 SHORT $L101326
$L101352:

; 690  :   }
; 691  : 
; 692  :   // If execution has reached this point, then we have an empty buffer but
; 693  :   // we have not reached eof.  What that means is that the streambuf has
; 694  :   // decided to switch from buffered to unbuffered input.  We switch to
; 695  :   // to _M_read_unbuffered.
; 696  : 
; 697  :   return __n + _M_read_unbuffered(__that,  __buf, _Num - __n, __s, __is_delim,
; 698  :                                   __extract_delim,__append_null,__is_getline);

  0011e	ff 75 28	 push	 DWORD PTR ___is_getline$[ebp]
  00121	2b 5d e4	 sub	 ebx, DWORD PTR ___n$[ebp]
  00124	ff 75 24	 push	 DWORD PTR ___append_null$[ebp]
  00127	ff 75 20	 push	 DWORD PTR ___extract_delim$[ebp]
  0012a	ff 75 18	 push	 DWORD PTR ___is_delim$[ebp]
  0012d	ff 75 14	 push	 DWORD PTR ___s$[ebp]
  00130	53		 push	 ebx
  00131	57		 push	 edi
  00132	ff 75 08	 push	 DWORD PTR ___that$[ebp]
  00135	e8 00 00 00 00	 call	 ??$_M_read_unbuffered@DV?$char_traits@D@_STL@@U?$_Constant_unary_fun@_NH@2@@_STL@@YAHPAV?$basic_istream@DV?$char_traits@D@_STL@@@0@PAV?$basic_streambuf@DV?$char_traits@D@_STL@@@0@HPADU?$_Constant_unary_fun@_NH@0@_N44@Z ; _STL::_M_read_unbuffered<char,_STL::char_traits<char>,_STL::_Constant_unary_fun<bool,int> >
  0013a	83 c4 20	 add	 esp, 32			; 00000020H
  0013d	03 45 e4	 add	 eax, DWORD PTR ___n$[ebp]
$L101326:

; 699  : }

  00140	8b 4d f4	 mov	 ecx, DWORD PTR __$EHRec$[ebp+4]
  00143	5f		 pop	 edi
  00144	5e		 pop	 esi
  00145	64 89 0d 00 00
	00 00		 mov	 DWORD PTR fs:__except_list, ecx
  0014c	5b		 pop	 ebx
  0014d	c9		 leave
  0014e	c3		 ret	 0
_TEXT	ENDS
;	COMDAT text$x
text$x	SEGMENT
__ehhandler$??$_M_read_buffered@DV?$char_traits@D@_STL@@U?$_Constant_unary_fun@_NH@2@U?$_Project2nd@PBDPBD@2@@_STL@@YAHPAV?$basic_istream@DV?$char_traits@D@_STL@@@0@PAV?$basic_streambuf@DV?$char_traits@D@_STL@@@0@HPADU?$_Constant_unary_fun@_NH@0@U?$_Project2nd@PBDPBD@0@_N55@Z:
  00000	b8 00 00 00 00	 mov	 eax, OFFSET FLAT:$T102924
  00005	e9 00 00 00 00	 jmp	 ___CxxFrameHandler
text$x	ENDS
??$_M_read_buffered@DV?$char_traits@D@_STL@@U?$_Constant_unary_fun@_NH@2@U?$_Project2nd@PBDPBD@2@@_STL@@YAHPAV?$basic_istream@DV?$char_traits@D@_STL@@@0@PAV?$basic_streambuf@DV?$char_traits@D@_STL@@@0@HPADU?$_Constant_unary_fun@_NH@0@U?$_Project2nd@PBDPBD@0@_N55@Z ENDP ; _STL::_M_read_buffered<char,_STL::char_traits<char>,_STL::_Constant_unary_fun<bool,int>,_STL::_Project2nd<char const *,char const *> >
PUBLIC	??$uninitialized_copy@PADPAD@_STL@@YAPADPAD00@Z	; _STL::uninitialized_copy<char *,char *>
; Function compile flags: /Ogsy
; File c:\stlport-4.6.1\stlport\stl\_uninitialized.h
;	COMDAT ??$uninitialized_copy@PADPAD@_STL@@YAPADPAD00@Z
_TEXT	SEGMENT
___first$ = 8						; size = 4
___last$ = 12						; size = 4
___result$ = 16						; size = 4
??$uninitialized_copy@PADPAD@_STL@@YAPADPAD00@Z PROC NEAR ; _STL::uninitialized_copy<char *,char *>, COMDAT

; 79   :   return __uninitialized_copy(__first, __last, __result,  _IS_POD_ITER(__result, _ForwardIter));

  00000	e9 00 00 00 00	 jmp	 ?__copy_trivial@_STL@@YAPAXPBX0PAX@Z ; _STL::__copy_trivial
??$uninitialized_copy@PADPAD@_STL@@YAPADPAD00@Z ENDP	; _STL::uninitialized_copy<char *,char *>
_TEXT	ENDS
PUBLIC	??$append@PBD@?$basic_string@DV?$char_traits@D@_STL@@V?$allocator@D@2@@_STL@@AAEAAV01@PBD0ABUforward_iterator_tag@1@@Z ; _STL::basic_string<char,_STL::char_traits<char>,_STL::allocator<char> >::append<char const *>
; Function compile flags: /Ogsy
; File c:\stlport-4.6.1\stlport\stl\_string.h
;	COMDAT ??$append@PBD@?$basic_string@DV?$char_traits@D@_STL@@V?$allocator@D@2@@_STL@@AAEAAV01@PBD0ABUforward_iterator_tag@1@@Z
_TEXT	SEGMENT
___len$101512 = -8					; size = 4
___old_size$101505 = -8					; size = 4
$T102995 = -4						; size = 4
___first$ = 8						; size = 4
___last$ = 12						; size = 4
___formal$ = 16						; size = 4
??$append@PBD@?$basic_string@DV?$char_traits@D@_STL@@V?$allocator@D@2@@_STL@@AAEAAV01@PBD0ABUforward_iterator_tag@1@@Z PROC NEAR ; _STL::basic_string<char,_STL::char_traits<char>,_STL::allocator<char> >::append<char const *>, COMDAT
; _this$ = ecx

; 542  :   template <class _ForwardIter> _Self& append(_ForwardIter __first, _ForwardIter __last, 

  00000	55		 push	 ebp
  00001	8b ec		 mov	 ebp, esp
  00003	51		 push	 ecx
  00004	51		 push	 ecx
  00005	56		 push	 esi
  00006	57		 push	 edi

; 543  :                        const forward_iterator_tag &)  {
; 544  :     if (__first != __last) {

  00007	8b 7d 0c	 mov	 edi, DWORD PTR ___last$[ebp]
  0000a	39 7d 08	 cmp	 DWORD PTR ___first$[ebp], edi
  0000d	8b f1		 mov	 esi, ecx
  0000f	0f 84 b6 00 00
	00		 je	 $L101523

; 545  : 	    const size_type __old_size = size();
; 546  : 	    difference_type __n = distance(__first, __last);

  00015	2b 7d 08	 sub	 edi, DWORD PTR ___first$[ebp]
  00018	53		 push	 ebx
  00019	8b 5e 04	 mov	 ebx, DWORD PTR [esi+4]
  0001c	2b 1e		 sub	 ebx, DWORD PTR [esi]

; 547  : 	    if (__STATIC_CAST(size_type,__n) > max_size() || __old_size > max_size() - __STATIC_CAST(size_type,__n))

  0001e	83 ff fe	 cmp	 edi, -2			; fffffffeH
  00021	89 5d f8	 mov	 DWORD PTR ___old_size$101505[ebp], ebx
  00024	77 09		 ja	 SHORT $L101510
  00026	6a fe		 push	 -2			; fffffffeH
  00028	58		 pop	 eax
  00029	2b c7		 sub	 eax, edi
  0002b	3b d8		 cmp	 ebx, eax
  0002d	76 07		 jbe	 SHORT $L101509
$L101510:

; 548  : 	      this->_M_throw_length_error();

  0002f	8b ce		 mov	 ecx, esi
  00031	e8 00 00 00 00	 call	 ?_M_throw_length_error@?$_String_base@DV?$allocator@D@_STL@@@_STL@@QBEXXZ ; _STL::_String_base<char,_STL::allocator<char> >::_M_throw_length_error
$L101509:

; 549  : 	    if (__old_size + __n > capacity()) {

  00036	8b 46 08	 mov	 eax, DWORD PTR [esi+8]
  00039	2b 06		 sub	 eax, DWORD PTR [esi]
  0003b	8d 0c 1f	 lea	 ecx, DWORD PTR [edi+ebx]
  0003e	48		 dec	 eax
  0003f	3b c8		 cmp	 ecx, eax
  00041	76 5e		 jbe	 SHORT $L101511

; 550  : 	      const size_type __len = __old_size +
; 551  : 	                            (max)(__old_size, __STATIC_CAST(size_type,__n)) + 1;

  00043	3b df		 cmp	 ebx, edi
  00045	89 7d fc	 mov	 DWORD PTR $T102995[ebp], edi
  00048	8d 45 fc	 lea	 eax, DWORD PTR $T102995[ebp]
  0004b	72 03		 jb	 SHORT $L103040
  0004d	8d 45 f8	 lea	 eax, DWORD PTR ___old_size$101505[ebp]
$L103040:
  00050	8b 00		 mov	 eax, DWORD PTR [eax]
  00052	8d 5c 18 01	 lea	 ebx, DWORD PTR [eax+ebx+1]

; 552  : 	      pointer __new_start = this->_M_end_of_storage.allocate(__len);

  00056	85 db		 test	 ebx, ebx
  00058	89 5d f8	 mov	 DWORD PTR ___len$101512[ebp], ebx
  0005b	74 0b		 je	 SHORT $L103046
  0005d	53		 push	 ebx
  0005e	e8 00 00 00 00	 call	 ?allocate@?$__node_alloc@$00$0A@@_STL@@SAPAXI@Z ; _STL::__node_alloc<1,0>::allocate
  00063	59		 pop	 ecx
  00064	8b f8		 mov	 edi, eax
  00066	eb 02		 jmp	 SHORT $L103047
$L103046:
  00068	33 ff		 xor	 edi, edi
$L103047:

; 553  : 	      pointer __new_finish = __new_start;
; 554  : 	      _STLP_TRY {
; 555  : 	        __new_finish = uninitialized_copy(this->_M_start, this->_M_finish, __new_start);

  0006a	8b 46 04	 mov	 eax, DWORD PTR [esi+4]
  0006d	8b 0e		 mov	 ecx, DWORD PTR [esi]
  0006f	57		 push	 edi
  00070	50		 push	 eax
  00071	51		 push	 ecx
  00072	e8 00 00 00 00	 call	 ?__copy_trivial@_STL@@YAPAXPBX0PAX@Z ; _STL::__copy_trivial

; 556  : 	        __new_finish = uninitialized_copy(__first, __last, __new_finish);

  00077	50		 push	 eax
  00078	ff 75 0c	 push	 DWORD PTR ___last$[ebp]
  0007b	ff 75 08	 push	 DWORD PTR ___first$[ebp]
  0007e	e8 00 00 00 00	 call	 ?__copy_trivial@_STL@@YAPAXPBX0PAX@Z ; _STL::__copy_trivial
  00083	8b d8		 mov	 ebx, eax
  00085	83 c4 18	 add	 esp, 24			; 00000018H

; 557  : 	        _M_construct_null(__new_finish);
; 558  : 	      }
; 559  : 	      _STLP_UNWIND((_STLP_STD::_Destroy(__new_start,__new_finish),
; 560  : 	                    this->_M_end_of_storage.deallocate(__new_start,__len)));
; 561  : 	      _STLP_STD::_Destroy(this->_M_start, this->_M_finish + 1);
; 562  : 	      this->_M_deallocate_block();

  00088	8b ce		 mov	 ecx, esi
  0008a	c6 03 00	 mov	 BYTE PTR [ebx], 0
  0008d	e8 00 00 00 00	 call	 ?_M_deallocate_block@?$_String_base@DV?$allocator@D@_STL@@@_STL@@QAEXXZ ; _STL::_String_base<char,_STL::allocator<char> >::_M_deallocate_block

; 563  : 	      this->_M_start = __new_start;
; 564  : 	      this->_M_finish = __new_finish;
; 565  : 	      this->_M_end_of_storage._M_data = __new_start + __len; 

  00092	8b 45 f8	 mov	 eax, DWORD PTR ___len$101512[ebp]
  00095	89 3e		 mov	 DWORD PTR [esi], edi
  00097	03 f8		 add	 edi, eax
  00099	89 5e 04	 mov	 DWORD PTR [esi+4], ebx
  0009c	89 7e 08	 mov	 DWORD PTR [esi+8], edi

; 566  : 	    }
; 567  : 	    else {

  0009f	eb 29		 jmp	 SHORT $L103176
$L101511:

; 568  : 	      _ForwardIter __f1 = __first;
; 569  : 	      ++__f1;
; 570  : 	      uninitialized_copy(__f1, __last, this->_M_finish + 1);

  000a1	8b 46 04	 mov	 eax, DWORD PTR [esi+4]
  000a4	40		 inc	 eax
  000a5	50		 push	 eax
  000a6	8b 45 08	 mov	 eax, DWORD PTR ___first$[ebp]
  000a9	ff 75 0c	 push	 DWORD PTR ___last$[ebp]
  000ac	40		 inc	 eax
  000ad	50		 push	 eax
  000ae	e8 00 00 00 00	 call	 ?__copy_trivial@_STL@@YAPAXPBX0PAX@Z ; _STL::__copy_trivial

; 571  : 	      _STLP_TRY {
; 572  : 	        _M_construct_null(this->_M_finish + __n);

  000b3	8b 46 04	 mov	 eax, DWORD PTR [esi+4]

; 573  : 	      }
; 574  : 	      _STLP_UNWIND(_STLP_STD::_Destroy(this->_M_finish + 1, this->_M_finish + __n));
; 575  : 	      _Traits::assign(*end(), *__first);

  000b6	8b 4d 08	 mov	 ecx, DWORD PTR ___first$[ebp]
  000b9	c6 04 07 00	 mov	 BYTE PTR [edi+eax], 0
  000bd	8b 46 04	 mov	 eax, DWORD PTR [esi+4]
  000c0	8a 09		 mov	 cl, BYTE PTR [ecx]
  000c2	83 c4 0c	 add	 esp, 12			; 0000000cH
  000c5	88 08		 mov	 BYTE PTR [eax], cl

; 576  : 	      this->_M_finish += __n;

  000c7	01 7e 04	 add	 DWORD PTR [esi+4], edi
$L103176:
  000ca	5b		 pop	 ebx
$L101523:
  000cb	5f		 pop	 edi

; 577  : 	    }
; 578  : 	  }
; 579  : 	  return *this;  

  000cc	8b c6		 mov	 eax, esi
  000ce	5e		 pop	 esi

; 580  : 	}

  000cf	c9		 leave
  000d0	c2 0c 00	 ret	 12			; 0000000cH
??$append@PBD@?$basic_string@DV?$char_traits@D@_STL@@V?$allocator@D@2@@_STL@@AAEAAV01@PBD0ABUforward_iterator_tag@1@@Z ENDP ; _STL::basic_string<char,_STL::char_traits<char>,_STL::allocator<char> >::append<char const *>
_TEXT	ENDS
PUBLIC	??$append@PAD@?$basic_string@DV?$char_traits@D@_STL@@V?$allocator@D@2@@_STL@@AAEAAV01@PAD0ABUforward_iterator_tag@1@@Z ; _STL::basic_string<char,_STL::char_traits<char>,_STL::allocator<char> >::append<char *>
; Function compile flags: /Ogsy
;	COMDAT ??$append@PAD@?$basic_string@DV?$char_traits@D@_STL@@V?$allocator@D@2@@_STL@@AAEAAV01@PAD0ABUforward_iterator_tag@1@@Z
_TEXT	SEGMENT
___len$101577 = -8					; size = 4
___old_size$101570 = -8					; size = 4
$T103179 = -4						; size = 4
___first$ = 8						; size = 4
___last$ = 12						; size = 4
___formal$ = 16						; size = 4
??$append@PAD@?$basic_string@DV?$char_traits@D@_STL@@V?$allocator@D@2@@_STL@@AAEAAV01@PAD0ABUforward_iterator_tag@1@@Z PROC NEAR ; _STL::basic_string<char,_STL::char_traits<char>,_STL::allocator<char> >::append<char *>, COMDAT
; _this$ = ecx

; 542  :   template <class _ForwardIter> _Self& append(_ForwardIter __first, _ForwardIter __last, 

  00000	55		 push	 ebp
  00001	8b ec		 mov	 ebp, esp
  00003	51		 push	 ecx
  00004	51		 push	 ecx
  00005	56		 push	 esi
  00006	57		 push	 edi

; 543  :                        const forward_iterator_tag &)  {
; 544  :     if (__first != __last) {

  00007	8b 7d 0c	 mov	 edi, DWORD PTR ___last$[ebp]
  0000a	39 7d 08	 cmp	 DWORD PTR ___first$[ebp], edi
  0000d	8b f1		 mov	 esi, ecx
  0000f	0f 84 b6 00 00
	00		 je	 $L101583

; 545  : 	    const size_type __old_size = size();
; 546  : 	    difference_type __n = distance(__first, __last);

  00015	2b 7d 08	 sub	 edi, DWORD PTR ___first$[ebp]
  00018	53		 push	 ebx
  00019	8b 5e 04	 mov	 ebx, DWORD PTR [esi+4]
  0001c	2b 1e		 sub	 ebx, DWORD PTR [esi]

; 547  : 	    if (__STATIC_CAST(size_type,__n) > max_size() || __old_size > max_size() - __STATIC_CAST(size_type,__n))

  0001e	83 ff fe	 cmp	 edi, -2			; fffffffeH
  00021	89 5d f8	 mov	 DWORD PTR ___old_size$101570[ebp], ebx
  00024	77 09		 ja	 SHORT $L101575
  00026	6a fe		 push	 -2			; fffffffeH
  00028	58		 pop	 eax
  00029	2b c7		 sub	 eax, edi
  0002b	3b d8		 cmp	 ebx, eax
  0002d	76 07		 jbe	 SHORT $L101574
$L101575:

; 548  : 	      this->_M_throw_length_error();

  0002f	8b ce		 mov	 ecx, esi
  00031	e8 00 00 00 00	 call	 ?_M_throw_length_error@?$_String_base@DV?$allocator@D@_STL@@@_STL@@QBEXXZ ; _STL::_String_base<char,_STL::allocator<char> >::_M_throw_length_error
$L101574:

; 549  : 	    if (__old_size + __n > capacity()) {

  00036	8b 46 08	 mov	 eax, DWORD PTR [esi+8]
  00039	2b 06		 sub	 eax, DWORD PTR [esi]
  0003b	8d 0c 1f	 lea	 ecx, DWORD PTR [edi+ebx]
  0003e	48		 dec	 eax
  0003f	3b c8		 cmp	 ecx, eax
  00041	76 5e		 jbe	 SHORT $L101576

; 550  : 	      const size_type __len = __old_size +
; 551  : 	                            (max)(__old_size, __STATIC_CAST(size_type,__n)) + 1;

  00043	3b df		 cmp	 ebx, edi
  00045	89 7d fc	 mov	 DWORD PTR $T103179[ebp], edi
  00048	8d 45 fc	 lea	 eax, DWORD PTR $T103179[ebp]
  0004b	72 03		 jb	 SHORT $L103224
  0004d	8d 45 f8	 lea	 eax, DWORD PTR ___old_size$101570[ebp]
$L103224:
  00050	8b 00		 mov	 eax, DWORD PTR [eax]
  00052	8d 5c 18 01	 lea	 ebx, DWORD PTR [eax+ebx+1]

; 552  : 	      pointer __new_start = this->_M_end_of_storage.allocate(__len);

  00056	85 db		 test	 ebx, ebx
  00058	89 5d f8	 mov	 DWORD PTR ___len$101577[ebp], ebx
  0005b	74 0b		 je	 SHORT $L103230
  0005d	53		 push	 ebx
  0005e	e8 00 00 00 00	 call	 ?allocate@?$__node_alloc@$00$0A@@_STL@@SAPAXI@Z ; _STL::__node_alloc<1,0>::allocate
  00063	59		 pop	 ecx
  00064	8b f8		 mov	 edi, eax
  00066	eb 02		 jmp	 SHORT $L103231
$L103230:
  00068	33 ff		 xor	 edi, edi
$L103231:

; 553  : 	      pointer __new_finish = __new_start;
; 554  : 	      _STLP_TRY {
; 555  : 	        __new_finish = uninitialized_copy(this->_M_start, this->_M_finish, __new_start);

  0006a	8b 46 04	 mov	 eax, DWORD PTR [esi+4]
  0006d	8b 0e		 mov	 ecx, DWORD PTR [esi]
  0006f	57		 push	 edi
  00070	50		 push	 eax
  00071	51		 push	 ecx
  00072	e8 00 00 00 00	 call	 ?__copy_trivial@_STL@@YAPAXPBX0PAX@Z ; _STL::__copy_trivial

; 556  : 	        __new_finish = uninitialized_copy(__first, __last, __new_finish);

  00077	50		 push	 eax
  00078	ff 75 0c	 push	 DWORD PTR ___last$[ebp]
  0007b	ff 75 08	 push	 DWORD PTR ___first$[ebp]
  0007e	e8 00 00 00 00	 call	 ?__copy_trivial@_STL@@YAPAXPBX0PAX@Z ; _STL::__copy_trivial
  00083	8b d8		 mov	 ebx, eax
  00085	83 c4 18	 add	 esp, 24			; 00000018H

; 557  : 	        _M_construct_null(__new_finish);
; 558  : 	      }
; 559  : 	      _STLP_UNWIND((_STLP_STD::_Destroy(__new_start,__new_finish),
; 560  : 	                    this->_M_end_of_storage.deallocate(__new_start,__len)));
; 561  : 	      _STLP_STD::_Destroy(this->_M_start, this->_M_finish + 1);
; 562  : 	      this->_M_deallocate_block();

  00088	8b ce		 mov	 ecx, esi
  0008a	c6 03 00	 mov	 BYTE PTR [ebx], 0
  0008d	e8 00 00 00 00	 call	 ?_M_deallocate_block@?$_String_base@DV?$allocator@D@_STL@@@_STL@@QAEXXZ ; _STL::_String_base<char,_STL::allocator<char> >::_M_deallocate_block

; 563  : 	      this->_M_start = __new_start;
; 564  : 	      this->_M_finish = __new_finish;
; 565  : 	      this->_M_end_of_storage._M_data = __new_start + __len; 

  00092	8b 45 f8	 mov	 eax, DWORD PTR ___len$101577[ebp]
  00095	89 3e		 mov	 DWORD PTR [esi], edi
  00097	03 f8		 add	 edi, eax
  00099	89 5e 04	 mov	 DWORD PTR [esi+4], ebx
  0009c	89 7e 08	 mov	 DWORD PTR [esi+8], edi

; 566  : 	    }
; 567  : 	    else {

  0009f	eb 29		 jmp	 SHORT $L103506
$L101576:

; 568  : 	      _ForwardIter __f1 = __first;
; 569  : 	      ++__f1;
; 570  : 	      uninitialized_copy(__f1, __last, this->_M_finish + 1);

  000a1	8b 46 04	 mov	 eax, DWORD PTR [esi+4]
  000a4	40		 inc	 eax
  000a5	50		 push	 eax
  000a6	8b 45 08	 mov	 eax, DWORD PTR ___first$[ebp]
  000a9	ff 75 0c	 push	 DWORD PTR ___last$[ebp]
  000ac	40		 inc	 eax
  000ad	50		 push	 eax
  000ae	e8 00 00 00 00	 call	 ?__copy_trivial@_STL@@YAPAXPBX0PAX@Z ; _STL::__copy_trivial

; 571  : 	      _STLP_TRY {
; 572  : 	        _M_construct_null(this->_M_finish + __n);

  000b3	8b 46 04	 mov	 eax, DWORD PTR [esi+4]

; 573  : 	      }
; 574  : 	      _STLP_UNWIND(_STLP_STD::_Destroy(this->_M_finish + 1, this->_M_finish + __n));
; 575  : 	      _Traits::assign(*end(), *__first);

  000b6	8b 4d 08	 mov	 ecx, DWORD PTR ___first$[ebp]
  000b9	c6 04 07 00	 mov	 BYTE PTR [edi+eax], 0
  000bd	8b 46 04	 mov	 eax, DWORD PTR [esi+4]
  000c0	8a 09		 mov	 cl, BYTE PTR [ecx]
  000c2	83 c4 0c	 add	 esp, 12			; 0000000cH
  000c5	88 08		 mov	 BYTE PTR [eax], cl

; 576  : 	      this->_M_finish += __n;

  000c7	01 7e 04	 add	 DWORD PTR [esi+4], edi
$L103506:
  000ca	5b		 pop	 ebx
$L101583:
  000cb	5f		 pop	 edi

; 577  : 	    }
; 578  : 	  }
; 579  : 	  return *this;  

  000cc	8b c6		 mov	 eax, esi
  000ce	5e		 pop	 esi

; 580  : 	}

  000cf	c9		 leave
  000d0	c2 0c 00	 ret	 12			; 0000000cH
??$append@PAD@?$basic_string@DV?$char_traits@D@_STL@@V?$allocator@D@2@@_STL@@AAEAAV01@PAD0ABUforward_iterator_tag@1@@Z ENDP ; _STL::basic_string<char,_STL::char_traits<char>,_STL::allocator<char> >::append<char *>
_TEXT	ENDS
PUBLIC	??1?$_String_base@DV?$allocator@D@_STL@@@_STL@@QAE@XZ ; _STL::_String_base<char,_STL::allocator<char> >::~_String_base<char,_STL::allocator<char> >
; Function compile flags: /Ogsy
;	COMDAT ??1?$_String_base@DV?$allocator@D@_STL@@@_STL@@QAE@XZ
_TEXT	SEGMENT
??1?$_String_base@DV?$allocator@D@_STL@@@_STL@@QAE@XZ PROC NEAR ; _STL::_String_base<char,_STL::allocator<char> >::~_String_base<char,_STL::allocator<char> >, COMDAT
; _this$ = ecx

; 135  :   ~_String_base() { _M_deallocate_block(); }

  00000	e9 00 00 00 00	 jmp	 ?_M_deallocate_block@?$_String_base@DV?$allocator@D@_STL@@@_STL@@QAEXXZ ; _STL::_String_base<char,_STL::allocator<char> >::_M_deallocate_block
??1?$_String_base@DV?$allocator@D@_STL@@@_STL@@QAE@XZ ENDP ; _STL::_String_base<char,_STL::allocator<char> >::~_String_base<char,_STL::allocator<char> >
_TEXT	ENDS
PUBLIC	??0?$basic_string@DV?$char_traits@D@_STL@@V?$allocator@D@2@@_STL@@QAE@PBDABV?$allocator@D@1@@Z ; _STL::basic_string<char,_STL::char_traits<char>,_STL::allocator<char> >::basic_string<char,_STL::char_traits<char>,_STL::allocator<char> >
;	COMDAT xdata$x
xdata$x	SEGMENT
$T103525 DD	0ffffffffH
	DD	FLAT:$L103512
$T103523 DD	019930520H
	DD	01H
	DD	FLAT:$T103525
	DD	2 DUP(00H)
	DD	2 DUP(00H)
; Function compile flags: /Ogsy
; File c:\stlport-4.6.1\stlport\stl\_string.c
xdata$x	ENDS
;	COMDAT ??0?$basic_string@DV?$char_traits@D@_STL@@V?$allocator@D@2@@_STL@@QAE@PBDABV?$allocator@D@1@@Z
_TEXT	SEGMENT
_this$ = -16						; size = 4
__$EHRec$ = -12						; size = 12
___s$ = 8						; size = 4
$T103519 = 11						; size = 1
___a$ = 12						; size = 4
??0?$basic_string@DV?$char_traits@D@_STL@@V?$allocator@D@2@@_STL@@QAE@PBDABV?$allocator@D@1@@Z PROC NEAR ; _STL::basic_string<char,_STL::char_traits<char>,_STL::allocator<char> >::basic_string<char,_STL::char_traits<char>,_STL::allocator<char> >, COMDAT
; _this$ = ecx

; 552  : { 

  00000	b8 00 00 00 00	 mov	 eax, __ehhandler$??0?$basic_string@DV?$char_traits@D@_STL@@V?$allocator@D@2@@_STL@@QAE@PBDABV?$allocator@D@1@@Z
  00005	e8 00 00 00 00	 call	 __EH_prolog
  0000a	51		 push	 ecx
  0000b	56		 push	 esi
  0000c	ff 75 0c	 push	 DWORD PTR ___a$[ebp]
  0000f	8b f1		 mov	 esi, ecx
  00011	89 75 f0	 mov	 DWORD PTR _this$[ebp], esi
  00014	e8 00 00 00 00	 call	 ??0?$_String_base@DV?$allocator@D@_STL@@@_STL@@QAE@ABV?$allocator@D@1@@Z ; _STL::_String_base<char,_STL::allocator<char> >::_String_base<char,_STL::allocator<char> >

; 553  :   _STLP_FIX_LITERAL_BUG(__s) 
; 554  :     _M_range_initialize(__s, __s + traits_type::length(__s));  

  00019	ff 75 08	 push	 DWORD PTR ___s$[ebp]
  0001c	83 65 fc 00	 and	 DWORD PTR __$EHRec$[ebp+8], 0
  00020	e8 00 00 00 00	 call	 _strlen
  00025	03 45 08	 add	 eax, DWORD PTR ___s$[ebp]
  00028	59		 pop	 ecx
  00029	8d 4d 0b	 lea	 ecx, DWORD PTR $T103519[ebp]
  0002c	51		 push	 ecx
  0002d	50		 push	 eax
  0002e	ff 75 08	 push	 DWORD PTR ___s$[ebp]
  00031	8b ce		 mov	 ecx, esi
  00033	e8 00 00 00 00	 call	 ??$_M_range_initialize@PBD@?$basic_string@DV?$char_traits@D@_STL@@V?$allocator@D@2@@_STL@@AAEXPBD0ABUforward_iterator_tag@1@@Z ; _STL::basic_string<char,_STL::char_traits<char>,_STL::allocator<char> >::_M_range_initialize<char const *>

; 555  : } 

  00038	8b 4d f4	 mov	 ecx, DWORD PTR __$EHRec$[ebp]
  0003b	8b c6		 mov	 eax, esi
  0003d	5e		 pop	 esi
  0003e	64 89 0d 00 00
	00 00		 mov	 DWORD PTR fs:__except_list, ecx
  00045	c9		 leave
  00046	c2 08 00	 ret	 8
_TEXT	ENDS
;	COMDAT text$x
text$x	SEGMENT
$L103512:
  00000	8b 4d f0	 mov	 ecx, DWORD PTR _this$[ebp]
  00003	e9 00 00 00 00	 jmp	 ??1?$_String_base@DV?$allocator@D@_STL@@@_STL@@QAE@XZ ; _STL::_String_base<char,_STL::allocator<char> >::~_String_base<char,_STL::allocator<char> >
__ehhandler$??0?$basic_string@DV?$char_traits@D@_STL@@V?$allocator@D@2@@_STL@@QAE@PBDABV?$allocator@D@1@@Z:
  00008	b8 00 00 00 00	 mov	 eax, OFFSET FLAT:$T103523
  0000d	e9 00 00 00 00	 jmp	 ___CxxFrameHandler
text$x	ENDS
??0?$basic_string@DV?$char_traits@D@_STL@@V?$allocator@D@2@@_STL@@QAE@PBDABV?$allocator@D@1@@Z ENDP ; _STL::basic_string<char,_STL::char_traits<char>,_STL::allocator<char> >::basic_string<char,_STL::char_traits<char>,_STL::allocator<char> >
PUBLIC	?save@Update@@QBEXAAV?$basic_ofstream@DV?$char_traits@D@_STL@@@_STL@@@Z ; Update::save
; Function compile flags: /Ogsy
; File c:\darkeden\designed_common\project\client\updater\update.cpp
;	COMDAT ?save@Update@@QBEXAAV?$basic_ofstream@DV?$char_traits@D@_STL@@@_STL@@@Z
_TEXT	SEGMENT
_szParam$ = -4						; size = 2
_ofile$ = 8						; size = 4
_updatetype$ = 11					; size = 1
?save@Update@@QBEXAAV?$basic_ofstream@DV?$char_traits@D@_STL@@@_STL@@@Z PROC NEAR ; Update::save, COMDAT
; _this$ = ecx

; 76   : {

  00000	55		 push	 ebp
  00001	8b ec		 mov	 ebp, esp
  00003	51		 push	 ecx
  00004	53		 push	 ebx
  00005	56		 push	 esi
  00006	57		 push	 edi

; 77   : 	//--------------------------------------------------------------------------------
; 78   : 	// save update type
; 79   : 	//--------------------------------------------------------------------------------
; 80   : 	ofile.write( (const char *)&m_Version , szVersion );

  00007	8b 7d 08	 mov	 edi, DWORD PTR _ofile$[ebp]
  0000a	8b f1		 mov	 esi, ecx
  0000c	6a 02		 push	 2
  0000e	56		 push	 esi
  0000f	8b cf		 mov	 ecx, edi
  00011	e8 00 00 00 00	 call	 ?write@?$basic_ostream@DV?$char_traits@D@_STL@@@_STL@@QAEAAV12@PBDH@Z ; _STL::basic_ostream<char,_STL::char_traits<char> >::write

; 81   : 
; 82   : 	//--------------------------------------------------------------------------------
; 83   : 	// save update type
; 84   : 	//--------------------------------------------------------------------------------
; 85   : 	BYTE updatetype = m_UpdateType;

  00016	8a 46 04	 mov	 al, BYTE PTR [esi+4]
  00019	88 45 0b	 mov	 BYTE PTR _updatetype$[ebp], al

; 86   : 	ofile.write( (const char *)&updatetype , szBYTE );

  0001c	6a 01		 push	 1
  0001e	8d 45 0b	 lea	 eax, DWORD PTR _updatetype$[ebp]
  00021	50		 push	 eax
  00022	8b cf		 mov	 ecx, edi
  00024	e8 00 00 00 00	 call	 ?write@?$basic_ostream@DV?$char_traits@D@_STL@@@_STL@@QAEAAV12@PBDH@Z ; _STL::basic_ostream<char,_STL::char_traits<char> >::write
  00029	6a 06		 push	 6
  0002b	83 c6 08	 add	 esi, 8
  0002e	5b		 pop	 ebx
$L100547:

; 87   : 
; 88   : 	//--------------------------------------------------------------------------------
; 89   : 	// save parameters
; 90   : 	//--------------------------------------------------------------------------------
; 91   : 	ParameterLen_t szParam;
; 92   : 	for ( uint i = 0 ; i < maxParams ; i ++ ) {
; 93   : 
; 94   : 		//--------------------------------------------------------------------------------
; 95   : 		// save param size
; 96   : 		//--------------------------------------------------------------------------------
; 97   : 		szParam = m_Params[i].size();

  0002f	33 c0		 xor	 eax, eax
  00031	66 8b 46 04	 mov	 ax, WORD PTR [esi+4]
  00035	66 2b 06	 sub	 ax, WORD PTR [esi]

; 98   : 		ofile.write( (const char *)&szParam , szParameterLen );

  00038	6a 02		 push	 2
  0003a	8b cf		 mov	 ecx, edi
  0003c	89 45 fc	 mov	 DWORD PTR _szParam$[ebp], eax
  0003f	8d 45 fc	 lea	 eax, DWORD PTR _szParam$[ebp]
  00042	50		 push	 eax
  00043	e8 00 00 00 00	 call	 ?write@?$basic_ostream@DV?$char_traits@D@_STL@@@_STL@@QAEAAV12@PBDH@Z ; _STL::basic_ostream<char,_STL::char_traits<char> >::write

; 99   : 
; 100  : 		if ( szParam == 0 )

  00048	66 83 7d fc 00	 cmp	 WORD PTR _szParam$[ebp], 0
  0004d	74 0e		 je	 SHORT $L100548

; 101  : 			continue;
; 102  : 
; 103  : 		//--------------------------------------------------------------------------------
; 104  : 		// save param value
; 105  : 		//--------------------------------------------------------------------------------
; 106  : 		ofile.write( m_Params[i].c_str() , szParam );

  0004f	0f b7 45 fc	 movzx	 eax, WORD PTR _szParam$[ebp]
  00053	50		 push	 eax
  00054	ff 36		 push	 DWORD PTR [esi]
  00056	8b cf		 mov	 ecx, edi
  00058	e8 00 00 00 00	 call	 ?write@?$basic_ostream@DV?$char_traits@D@_STL@@@_STL@@QAEAAV12@PBDH@Z ; _STL::basic_ostream<char,_STL::char_traits<char> >::write
$L100548:
  0005d	83 c6 0c	 add	 esi, 12			; 0000000cH
  00060	4b		 dec	 ebx
  00061	75 cc		 jne	 SHORT $L100547
  00063	5f		 pop	 edi
  00064	5e		 pop	 esi
  00065	5b		 pop	 ebx

; 107  : 	}
; 108  : 
; 109  : }

  00066	c9		 leave
  00067	c2 04 00	 ret	 4
?save@Update@@QBEXAAV?$basic_ofstream@DV?$char_traits@D@_STL@@@_STL@@@Z ENDP ; Update::save
_TEXT	ENDS
PUBLIC	?find_first_of@?$basic_string@DV?$char_traits@D@_STL@@V?$allocator@D@2@@_STL@@QBEIDI@Z ; _STL::basic_string<char,_STL::char_traits<char>,_STL::allocator<char> >::find_first_of
; Function compile flags: /Ogsy
; File c:\stlport-4.6.1\stlport\stl\_string.h
;	COMDAT ?find_first_of@?$basic_string@DV?$char_traits@D@_STL@@V?$allocator@D@2@@_STL@@QBEIDI@Z
_TEXT	SEGMENT
___c$ = 8						; size = 1
___pos$ = 12						; size = 4
?find_first_of@?$basic_string@DV?$char_traits@D@_STL@@V?$allocator@D@2@@_STL@@QBEIDI@Z PROC NEAR ; _STL::basic_string<char,_STL::char_traits<char>,_STL::allocator<char> >::find_first_of, COMDAT
; _this$ = ecx

; 1106 :     { return find(__c, __pos); }

  00000	e9 00 00 00 00	 jmp	 ?find@?$basic_string@DV?$char_traits@D@_STL@@V?$allocator@D@2@@_STL@@QBEIDI@Z ; _STL::basic_string<char,_STL::char_traits<char>,_STL::allocator<char> >::find
?find_first_of@?$basic_string@DV?$char_traits@D@_STL@@V?$allocator@D@2@@_STL@@QBEIDI@Z ENDP ; _STL::basic_string<char,_STL::char_traits<char>,_STL::allocator<char> >::find_first_of
_TEXT	ENDS
PUBLIC	?read@?$basic_istream@DV?$char_traits@D@_STL@@@_STL@@QAEAAV12@PADH@Z ; _STL::basic_istream<char,_STL::char_traits<char> >::read
; Function compile flags: /Ogsy
; File c:\stlport-4.6.1\stlport\stl\_istream.c
;	COMDAT ?read@?$basic_istream@DV?$char_traits@D@_STL@@@_STL@@QAEAAV12@PADH@Z
_TEXT	SEGMENT
$T103550 = -4						; size = 1
$T103548 = -4						; size = 1
$T103547 = 8						; size = 1
___s$ = 8						; size = 4
___n$ = 12						; size = 4
?read@?$basic_istream@DV?$char_traits@D@_STL@@@_STL@@QAEAAV12@PADH@Z PROC NEAR ; _STL::basic_istream<char,_STL::char_traits<char> >::read, COMDAT
; _this$ = ecx

; 769  : {

  00000	55		 push	 ebp
  00001	8b ec		 mov	 ebp, esp
  00003	51		 push	 ecx
  00004	56		 push	 esi
  00005	8b f1		 mov	 esi, ecx

; 770  :   sentry __sentry(*this, _No_Skip_WS());

  00007	56		 push	 esi
  00008	e8 00 00 00 00	 call	 ??$_M_init_noskip@DV?$char_traits@D@_STL@@@_STL@@YA_NAAV?$basic_istream@DV?$char_traits@D@_STL@@@0@@Z ; _STL::_M_init_noskip<char,_STL::char_traits<char> >

; 771  :   this->_M_gcount = 0;

  0000d	33 d2		 xor	 edx, edx

; 772  : 
; 773  :   if (__sentry && !this->eof()) {

  0000f	3a c2		 cmp	 al, dl
  00011	59		 pop	 ecx
  00012	89 56 04	 mov	 DWORD PTR [esi+4], edx
  00015	74 5a		 je	 SHORT $L101036
  00017	8b 06		 mov	 eax, DWORD PTR [esi]
  00019	8b 40 04	 mov	 eax, DWORD PTR [eax+4]
  0001c	03 c6		 add	 eax, esi
  0001e	8b 48 08	 mov	 ecx, DWORD PTR [eax+8]
  00021	d1 e9		 shr	 ecx, 1
  00023	f6 d1		 not	 cl
  00025	f6 c1 01	 test	 cl, 1
  00028	74 47		 je	 SHORT $L101036

; 774  :     basic_streambuf<_CharT, _Traits>*__buf = this->rdbuf();

  0002a	8b 48 58	 mov	 ecx, DWORD PTR [eax+88]

; 775  :     if (__buf->gptr() != __buf->egptr()) 

  0002d	8b 41 04	 mov	 eax, DWORD PTR [ecx+4]
  00030	57		 push	 edi
  00031	8b 78 04	 mov	 edi, DWORD PTR [eax+4]
  00034	03 38		 add	 edi, DWORD PTR [eax]

; 776  :       _M_gcount
; 777  :         = _M_read_buffered(this,  __buf, __n, __s,
; 778  :                            _Constant_unary_fun<bool, int_type>(false),
; 779  :                            _Project2nd<const _CharT*, const _CharT*>(),
; 780  :                            false, false, false);

  00036	88 55 fc	 mov	 BYTE PTR $T103548[ebp], dl
  00039	39 38		 cmp	 DWORD PTR [eax], edi
  0003b	5f		 pop	 edi
  0003c	52		 push	 edx
  0003d	52		 push	 edx
  0003e	52		 push	 edx
  0003f	74 1b		 je	 SHORT $L101038
  00041	ff 75 08	 push	 DWORD PTR $T103547[ebp]
  00044	ff 75 fc	 push	 DWORD PTR $T103548[ebp]
  00047	ff 75 08	 push	 DWORD PTR ___s$[ebp]
  0004a	ff 75 0c	 push	 DWORD PTR ___n$[ebp]
  0004d	51		 push	 ecx
  0004e	56		 push	 esi
  0004f	e8 00 00 00 00	 call	 ??$_M_read_buffered@DV?$char_traits@D@_STL@@U?$_Constant_unary_fun@_NH@2@U?$_Project2nd@PBDPBD@2@@_STL@@YAHPAV?$basic_istream@DV?$char_traits@D@_STL@@@0@PAV?$basic_streambuf@DV?$char_traits@D@_STL@@@0@HPADU?$_Constant_unary_fun@_NH@0@U?$_Project2nd@PBDPBD@0@_N55@Z ; _STL::_M_read_buffered<char,_STL::char_traits<char>,_STL::_Constant_unary_fun<bool,int>,_STL::_Project2nd<char const *,char const *> >
  00054	83 c4 24	 add	 esp, 36			; 00000024H
$L103617:
  00057	89 46 04	 mov	 DWORD PTR [esi+4], eax

; 781  :     else

  0005a	eb 28		 jmp	 SHORT $L103599
$L101038:

; 782  :       _M_gcount
; 783  :         = _M_read_unbuffered(this,  __buf, __n, __s,
; 784  :                              _Constant_unary_fun<bool, int_type>(false),
; 785  :                              false, false, false);

  0005c	ff 75 fc	 push	 DWORD PTR $T103550[ebp]
  0005f	ff 75 08	 push	 DWORD PTR ___s$[ebp]
  00062	ff 75 0c	 push	 DWORD PTR ___n$[ebp]
  00065	51		 push	 ecx
  00066	56		 push	 esi
  00067	e8 00 00 00 00	 call	 ??$_M_read_unbuffered@DV?$char_traits@D@_STL@@U?$_Constant_unary_fun@_NH@2@@_STL@@YAHPAV?$basic_istream@DV?$char_traits@D@_STL@@@0@PAV?$basic_streambuf@DV?$char_traits@D@_STL@@@0@HPADU?$_Constant_unary_fun@_NH@0@_N44@Z ; _STL::_M_read_unbuffered<char,_STL::char_traits<char>,_STL::_Constant_unary_fun<bool,int> >
  0006c	83 c4 20	 add	 esp, 32			; 00000020H

; 786  :   }
; 787  :   else

  0006f	eb e6		 jmp	 SHORT $L103617
$L101036:

; 788  :     this->setstate(ios_base::failbit);

  00071	8b 06		 mov	 eax, DWORD PTR [esi]
  00073	8b 48 04	 mov	 ecx, DWORD PTR [eax+4]
  00076	03 ce		 add	 ecx, esi
  00078	8b 41 08	 mov	 eax, DWORD PTR [ecx+8]
  0007b	83 c8 04	 or	 eax, 4
  0007e	50		 push	 eax
  0007f	e8 00 00 00 00	 call	 ?clear@?$basic_ios@DV?$char_traits@D@_STL@@@_STL@@QAEXH@Z ; _STL::basic_ios<char,_STL::char_traits<char> >::clear
$L103599:

; 789  : 
; 790  :   if (this->eof())

  00084	8b 06		 mov	 eax, DWORD PTR [esi]
  00086	8b 40 04	 mov	 eax, DWORD PTR [eax+4]
  00089	8d 0c 30	 lea	 ecx, DWORD PTR [eax+esi]
  0008c	8b 41 08	 mov	 eax, DWORD PTR [ecx+8]
  0008f	d1 e8		 shr	 eax, 1
  00091	a8 01		 test	 al, 1
  00093	74 0c		 je	 SHORT $L103612

; 791  :     this->setstate(ios_base::eofbit | ios_base::failbit);

  00095	8b 41 08	 mov	 eax, DWORD PTR [ecx+8]
  00098	83 c8 06	 or	 eax, 6
  0009b	50		 push	 eax
  0009c	e8 00 00 00 00	 call	 ?clear@?$basic_ios@DV?$char_traits@D@_STL@@@_STL@@QAEXH@Z ; _STL::basic_ios<char,_STL::char_traits<char> >::clear
$L103612:

; 792  : 
; 793  :   return *this;

  000a1	8b c6		 mov	 eax, esi
  000a3	5e		 pop	 esi

; 794  : }

  000a4	c9		 leave
  000a5	c2 08 00	 ret	 8
?read@?$basic_istream@DV?$char_traits@D@_STL@@@_STL@@QAEAAV12@PADH@Z ENDP ; _STL::basic_istream<char,_STL::char_traits<char> >::read
_TEXT	ENDS
PUBLIC	??0?$basic_string@DV?$char_traits@D@_STL@@V?$allocator@D@2@@_STL@@QAE@U_String_reserve_t@1@IABV?$allocator@D@1@@Z ; _STL::basic_string<char,_STL::char_traits<char>,_STL::allocator<char> >::basic_string<char,_STL::char_traits<char>,_STL::allocator<char> >
; Function compile flags: /Ogsy
; File c:\stlport-4.6.1\stlport\stl\_string.h
;	COMDAT ??0?$basic_string@DV?$char_traits@D@_STL@@V?$allocator@D@2@@_STL@@QAE@U_String_reserve_t@1@IABV?$allocator@D@1@@Z
_TEXT	SEGMENT
___formal$ = 8						; size = 1
___n$ = 12						; size = 4
___a$ = 16						; size = 4
??0?$basic_string@DV?$char_traits@D@_STL@@V?$allocator@D@2@@_STL@@QAE@U_String_reserve_t@1@IABV?$allocator@D@1@@Z PROC NEAR ; _STL::basic_string<char,_STL::char_traits<char>,_STL::allocator<char> >::basic_string<char,_STL::char_traits<char>,_STL::allocator<char> >, COMDAT
; _this$ = ecx

; 228  :     : _String_base<_CharT,_Alloc>(__a, __n + 1) { 

  00000	8b 44 24 08	 mov	 eax, DWORD PTR ___n$[esp-4]
  00004	56		 push	 esi
  00005	40		 inc	 eax
  00006	50		 push	 eax
  00007	ff 74 24 14	 push	 DWORD PTR ___a$[esp+4]
  0000b	8b f1		 mov	 esi, ecx
  0000d	e8 00 00 00 00	 call	 ??0?$_String_base@DV?$allocator@D@_STL@@@_STL@@QAE@ABV?$allocator@D@1@I@Z ; _STL::_String_base<char,_STL::allocator<char> >::_String_base<char,_STL::allocator<char> >

; 229  :     _M_terminate_string(); 

  00012	8b 46 04	 mov	 eax, DWORD PTR [esi+4]
  00015	c6 00 00	 mov	 BYTE PTR [eax], 0

; 230  :   }

  00018	8b c6		 mov	 eax, esi
  0001a	5e		 pop	 esi
  0001b	c2 0c 00	 ret	 12			; 0000000cH
??0?$basic_string@DV?$char_traits@D@_STL@@V?$allocator@D@2@@_STL@@QAE@U_String_reserve_t@1@IABV?$allocator@D@1@@Z ENDP ; _STL::basic_string<char,_STL::char_traits<char>,_STL::allocator<char> >::basic_string<char,_STL::char_traits<char>,_STL::allocator<char> >
_TEXT	ENDS
PUBLIC	??$_M_range_initialize@PAD@?$basic_string@DV?$char_traits@D@_STL@@V?$allocator@D@2@@_STL@@AAEXPAD0ABUforward_iterator_tag@1@@Z ; _STL::basic_string<char,_STL::char_traits<char>,_STL::allocator<char> >::_M_range_initialize<char *>
; Function compile flags: /Ogsy
;	COMDAT ??$_M_range_initialize@PAD@?$basic_string@DV?$char_traits@D@_STL@@V?$allocator@D@2@@_STL@@AAEXPAD0ABUforward_iterator_tag@1@@Z
_TEXT	SEGMENT
___f$ = 8						; size = 4
___l$ = 12						; size = 4
___formal$ = 16						; size = 4
??$_M_range_initialize@PAD@?$basic_string@DV?$char_traits@D@_STL@@V?$allocator@D@2@@_STL@@AAEXPAD0ABUforward_iterator_tag@1@@Z PROC NEAR ; _STL::basic_string<char,_STL::char_traits<char>,_STL::allocator<char> >::_M_range_initialize<char *>, COMDAT
; _this$ = ecx

; 383  :                            const forward_iterator_tag &) {
; 384  :     difference_type __n = distance(__f, __l);
; 385  :     this->_M_allocate_block(__n + 1);

  00000	8b 44 24 08	 mov	 eax, DWORD PTR ___l$[esp-4]
  00004	2b 44 24 04	 sub	 eax, DWORD PTR ___f$[esp-4]
  00008	56		 push	 esi
  00009	40		 inc	 eax
  0000a	50		 push	 eax
  0000b	8b f1		 mov	 esi, ecx
  0000d	e8 00 00 00 00	 call	 ?_M_allocate_block@?$_String_base@DV?$allocator@D@_STL@@@_STL@@QAEXI@Z ; _STL::_String_base<char,_STL::allocator<char> >::_M_allocate_block

; 386  :     this->_M_finish = uninitialized_copy(__f, __l, this->_M_start);

  00012	ff 36		 push	 DWORD PTR [esi]
  00014	ff 74 24 10	 push	 DWORD PTR ___l$[esp+4]
  00018	ff 74 24 10	 push	 DWORD PTR ___f$[esp+8]
  0001c	e8 00 00 00 00	 call	 ?__copy_trivial@_STL@@YAPAXPBX0PAX@Z ; _STL::__copy_trivial
  00021	83 c4 0c	 add	 esp, 12			; 0000000cH
  00024	89 46 04	 mov	 DWORD PTR [esi+4], eax

; 387  :     _M_terminate_string();

  00027	c6 00 00	 mov	 BYTE PTR [eax], 0
  0002a	5e		 pop	 esi

; 388  :   }

  0002b	c2 0c 00	 ret	 12			; 0000000cH
??$_M_range_initialize@PAD@?$basic_string@DV?$char_traits@D@_STL@@V?$allocator@D@2@@_STL@@AAEXPAD0ABUforward_iterator_tag@1@@Z ENDP ; _STL::basic_string<char,_STL::char_traits<char>,_STL::allocator<char> >::_M_range_initialize<char *>
_TEXT	ENDS
PUBLIC	??$_M_append_dispatch@PBD@?$basic_string@DV?$char_traits@D@_STL@@V?$allocator@D@2@@_STL@@AAEAAV01@PBD0ABU__false_type@1@@Z ; _STL::basic_string<char,_STL::char_traits<char>,_STL::allocator<char> >::_M_append_dispatch<char const *>
; Function compile flags: /Ogsy
;	COMDAT ??$_M_append_dispatch@PBD@?$basic_string@DV?$char_traits@D@_STL@@V?$allocator@D@2@@_STL@@AAEAAV01@PBD0ABU__false_type@1@@Z
_TEXT	SEGMENT
___f$ = 8						; size = 4
___l$ = 12						; size = 4
$T103736 = 15						; size = 1
___formal$ = 16						; size = 4
??$_M_append_dispatch@PBD@?$basic_string@DV?$char_traits@D@_STL@@V?$allocator@D@2@@_STL@@AAEAAV01@PBD0ABU__false_type@1@@Z PROC NEAR ; _STL::basic_string<char,_STL::char_traits<char>,_STL::allocator<char> >::_M_append_dispatch<char const *>, COMDAT
; _this$ = ecx

; 586  :   template <class _InputIter> _Self& _M_append_dispatch(_InputIter __f, _InputIter __l,

  00000	55		 push	 ebp
  00001	8b ec		 mov	 ebp, esp

; 587  :                                    const __false_type&) {
; 588  :     return append(__f, __l, _STLP_ITERATOR_CATEGORY(__f, _InputIter));

  00003	8d 45 0f	 lea	 eax, DWORD PTR $T103736[ebp]
  00006	50		 push	 eax
  00007	ff 75 0c	 push	 DWORD PTR ___l$[ebp]
  0000a	ff 75 08	 push	 DWORD PTR ___f$[ebp]
  0000d	e8 00 00 00 00	 call	 ??$append@PBD@?$basic_string@DV?$char_traits@D@_STL@@V?$allocator@D@2@@_STL@@AAEAAV01@PBD0ABUforward_iterator_tag@1@@Z ; _STL::basic_string<char,_STL::char_traits<char>,_STL::allocator<char> >::append<char const *>

; 589  :   }

  00012	5d		 pop	 ebp
  00013	c2 0c 00	 ret	 12			; 0000000cH
??$_M_append_dispatch@PBD@?$basic_string@DV?$char_traits@D@_STL@@V?$allocator@D@2@@_STL@@AAEAAV01@PBD0ABU__false_type@1@@Z ENDP ; _STL::basic_string<char,_STL::char_traits<char>,_STL::allocator<char> >::_M_append_dispatch<char const *>
_TEXT	ENDS
PUBLIC	??$_M_append_dispatch@PAD@?$basic_string@DV?$char_traits@D@_STL@@V?$allocator@D@2@@_STL@@AAEAAV01@PAD0ABU__false_type@1@@Z ; _STL::basic_string<char,_STL::char_traits<char>,_STL::allocator<char> >::_M_append_dispatch<char *>
; Function compile flags: /Ogsy
;	COMDAT ??$_M_append_dispatch@PAD@?$basic_string@DV?$char_traits@D@_STL@@V?$allocator@D@2@@_STL@@AAEAAV01@PAD0ABU__false_type@1@@Z
_TEXT	SEGMENT
___f$ = 8						; size = 4
___l$ = 12						; size = 4
$T103739 = 15						; size = 1
___formal$ = 16						; size = 4
??$_M_append_dispatch@PAD@?$basic_string@DV?$char_traits@D@_STL@@V?$allocator@D@2@@_STL@@AAEAAV01@PAD0ABU__false_type@1@@Z PROC NEAR ; _STL::basic_string<char,_STL::char_traits<char>,_STL::allocator<char> >::_M_append_dispatch<char *>, COMDAT
; _this$ = ecx

; 586  :   template <class _InputIter> _Self& _M_append_dispatch(_InputIter __f, _InputIter __l,

  00000	55		 push	 ebp
  00001	8b ec		 mov	 ebp, esp

; 587  :                                    const __false_type&) {
; 588  :     return append(__f, __l, _STLP_ITERATOR_CATEGORY(__f, _InputIter));

  00003	8d 45 0f	 lea	 eax, DWORD PTR $T103739[ebp]
  00006	50		 push	 eax
  00007	ff 75 0c	 push	 DWORD PTR ___l$[ebp]
  0000a	ff 75 08	 push	 DWORD PTR ___f$[ebp]
  0000d	e8 00 00 00 00	 call	 ??$append@PAD@?$basic_string@DV?$char_traits@D@_STL@@V?$allocator@D@2@@_STL@@AAEAAV01@PAD0ABUforward_iterator_tag@1@@Z ; _STL::basic_string<char,_STL::char_traits<char>,_STL::allocator<char> >::append<char *>

; 589  :   }

  00012	5d		 pop	 ebp
  00013	c2 0c 00	 ret	 12			; 0000000cH
??$_M_append_dispatch@PAD@?$basic_string@DV?$char_traits@D@_STL@@V?$allocator@D@2@@_STL@@AAEAAV01@PAD0ABU__false_type@1@@Z ENDP ; _STL::basic_string<char,_STL::char_traits<char>,_STL::allocator<char> >::_M_append_dispatch<char *>
_TEXT	ENDS
PUBLIC	??1?$basic_string@DV?$char_traits@D@_STL@@V?$allocator@D@2@@_STL@@QAE@XZ ; _STL::basic_string<char,_STL::char_traits<char>,_STL::allocator<char> >::~basic_string<char,_STL::char_traits<char>,_STL::allocator<char> >
; Function compile flags: /Ogsy
;	COMDAT ??1?$basic_string@DV?$char_traits@D@_STL@@V?$allocator@D@2@@_STL@@QAE@XZ
_TEXT	SEGMENT
??1?$basic_string@DV?$char_traits@D@_STL@@V?$allocator@D@2@@_STL@@QAE@XZ PROC NEAR ; _STL::basic_string<char,_STL::char_traits<char>,_STL::allocator<char> >::~basic_string<char,_STL::char_traits<char>,_STL::allocator<char> >, COMDAT
; _this$ = ecx

; 305  :   ~basic_string() { _STLP_STD::_Destroy(this->_M_start, this->_M_finish + 1); }

  00000	e9 00 00 00 00	 jmp	 ?_M_deallocate_block@?$_String_base@DV?$allocator@D@_STL@@@_STL@@QAEXXZ ; _STL::_String_base<char,_STL::allocator<char> >::_M_deallocate_block
??1?$basic_string@DV?$char_traits@D@_STL@@V?$allocator@D@2@@_STL@@QAE@XZ ENDP ; _STL::basic_string<char,_STL::char_traits<char>,_STL::allocator<char> >::~basic_string<char,_STL::char_traits<char>,_STL::allocator<char> >
_TEXT	ENDS
PUBLIC	??$_M_range_initialize@PAD@?$basic_string@DV?$char_traits@D@_STL@@V?$allocator@D@2@@_STL@@AAEXPAD0@Z ; _STL::basic_string<char,_STL::char_traits<char>,_STL::allocator<char> >::_M_range_initialize<char *>
; Function compile flags: /Ogsy
;	COMDAT ??$_M_range_initialize@PAD@?$basic_string@DV?$char_traits@D@_STL@@V?$allocator@D@2@@_STL@@AAEXPAD0@Z
_TEXT	SEGMENT
___f$ = 8						; size = 4
___l$ = 12						; size = 4
$T103764 = 15						; size = 1
??$_M_range_initialize@PAD@?$basic_string@DV?$char_traits@D@_STL@@V?$allocator@D@2@@_STL@@AAEXPAD0@Z PROC NEAR ; _STL::basic_string<char,_STL::char_traits<char>,_STL::allocator<char> >::_M_range_initialize<char *>, COMDAT
; _this$ = ecx

; 390  :   template <class _InputIter> void _M_range_initialize(_InputIter __f, _InputIter __l) {

  00000	55		 push	 ebp
  00001	8b ec		 mov	 ebp, esp

; 391  :     _M_range_initialize(__f, __l, _STLP_ITERATOR_CATEGORY(__f, _InputIter));

  00003	8d 45 0f	 lea	 eax, DWORD PTR $T103764[ebp]
  00006	50		 push	 eax
  00007	ff 75 0c	 push	 DWORD PTR ___l$[ebp]
  0000a	ff 75 08	 push	 DWORD PTR ___f$[ebp]
  0000d	e8 00 00 00 00	 call	 ??$_M_range_initialize@PAD@?$basic_string@DV?$char_traits@D@_STL@@V?$allocator@D@2@@_STL@@AAEXPAD0ABUforward_iterator_tag@1@@Z ; _STL::basic_string<char,_STL::char_traits<char>,_STL::allocator<char> >::_M_range_initialize<char *>

; 392  :   }

  00012	5d		 pop	 ebp
  00013	c2 08 00	 ret	 8
??$_M_range_initialize@PAD@?$basic_string@DV?$char_traits@D@_STL@@V?$allocator@D@2@@_STL@@AAEXPAD0@Z ENDP ; _STL::basic_string<char,_STL::char_traits<char>,_STL::allocator<char> >::_M_range_initialize<char *>
_TEXT	ENDS
PUBLIC	??$append@PBD@?$basic_string@DV?$char_traits@D@_STL@@V?$allocator@D@2@@_STL@@QAEAAV01@PBD0@Z ; _STL::basic_string<char,_STL::char_traits<char>,_STL::allocator<char> >::append<char const *>
; Function compile flags: /Ogsy
;	COMDAT ??$append@PBD@?$basic_string@DV?$char_traits@D@_STL@@V?$allocator@D@2@@_STL@@QAEAAV01@PBD0@Z
_TEXT	SEGMENT
___first$ = 8						; size = 4
___last$ = 12						; size = 4
$T103772 = 15						; size = 1
??$append@PBD@?$basic_string@DV?$char_traits@D@_STL@@V?$allocator@D@2@@_STL@@QAEAAV01@PBD0@Z PROC NEAR ; _STL::basic_string<char,_STL::char_traits<char>,_STL::allocator<char> >::append<char const *>, COMDAT
; _this$ = ecx

; 506  :   template <class _InputIter> _Self& append(_InputIter __first, _InputIter __last) {

  00000	55		 push	 ebp
  00001	8b ec		 mov	 ebp, esp

; 507  :     typedef typename _Is_integer<_InputIter>::_Integral _Integral;
; 508  :     return _M_append_dispatch(__first, __last, _Integral());

  00003	8d 45 0f	 lea	 eax, DWORD PTR $T103772[ebp]
  00006	50		 push	 eax
  00007	ff 75 0c	 push	 DWORD PTR ___last$[ebp]
  0000a	ff 75 08	 push	 DWORD PTR ___first$[ebp]
  0000d	e8 00 00 00 00	 call	 ??$append@PBD@?$basic_string@DV?$char_traits@D@_STL@@V?$allocator@D@2@@_STL@@AAEAAV01@PBD0ABUforward_iterator_tag@1@@Z ; _STL::basic_string<char,_STL::char_traits<char>,_STL::allocator<char> >::append<char const *>

; 509  :   }

  00012	5d		 pop	 ebp
  00013	c2 08 00	 ret	 8
??$append@PBD@?$basic_string@DV?$char_traits@D@_STL@@V?$allocator@D@2@@_STL@@QAEAAV01@PBD0@Z ENDP ; _STL::basic_string<char,_STL::char_traits<char>,_STL::allocator<char> >::append<char const *>
_TEXT	ENDS
PUBLIC	??$append@PAD@?$basic_string@DV?$char_traits@D@_STL@@V?$allocator@D@2@@_STL@@QAEAAV01@PAD0@Z ; _STL::basic_string<char,_STL::char_traits<char>,_STL::allocator<char> >::append<char *>
; Function compile flags: /Ogsy
;	COMDAT ??$append@PAD@?$basic_string@DV?$char_traits@D@_STL@@V?$allocator@D@2@@_STL@@QAEAAV01@PAD0@Z
_TEXT	SEGMENT
___first$ = 8						; size = 4
___last$ = 12						; size = 4
$T103780 = 15						; size = 1
??$append@PAD@?$basic_string@DV?$char_traits@D@_STL@@V?$allocator@D@2@@_STL@@QAEAAV01@PAD0@Z PROC NEAR ; _STL::basic_string<char,_STL::char_traits<char>,_STL::allocator<char> >::append<char *>, COMDAT
; _this$ = ecx

; 506  :   template <class _InputIter> _Self& append(_InputIter __first, _InputIter __last) {

  00000	55		 push	 ebp
  00001	8b ec		 mov	 ebp, esp

; 507  :     typedef typename _Is_integer<_InputIter>::_Integral _Integral;
; 508  :     return _M_append_dispatch(__first, __last, _Integral());

  00003	8d 45 0f	 lea	 eax, DWORD PTR $T103780[ebp]
  00006	50		 push	 eax
  00007	ff 75 0c	 push	 DWORD PTR ___last$[ebp]
  0000a	ff 75 08	 push	 DWORD PTR ___first$[ebp]
  0000d	e8 00 00 00 00	 call	 ??$append@PAD@?$basic_string@DV?$char_traits@D@_STL@@V?$allocator@D@2@@_STL@@AAEAAV01@PAD0ABUforward_iterator_tag@1@@Z ; _STL::basic_string<char,_STL::char_traits<char>,_STL::allocator<char> >::append<char *>

; 509  :   }

  00012	5d		 pop	 ebp
  00013	c2 08 00	 ret	 8
??$append@PAD@?$basic_string@DV?$char_traits@D@_STL@@V?$allocator@D@2@@_STL@@QAEAAV01@PAD0@Z ENDP ; _STL::basic_string<char,_STL::char_traits<char>,_STL::allocator<char> >::append<char *>
_TEXT	ENDS
PUBLIC	??$_M_initialize_dispatch@PAD@?$basic_string@DV?$char_traits@D@_STL@@V?$allocator@D@2@@_STL@@AAEXPAD0ABU__false_type@1@@Z ; _STL::basic_string<char,_STL::char_traits<char>,_STL::allocator<char> >::_M_initialize_dispatch<char *>
; Function compile flags: /Ogsy
;	COMDAT ??$_M_initialize_dispatch@PAD@?$basic_string@DV?$char_traits@D@_STL@@V?$allocator@D@2@@_STL@@AAEXPAD0ABU__false_type@1@@Z
_TEXT	SEGMENT
___f$ = 8						; size = 4
___l$ = 12						; size = 4
$T103786 = 15						; size = 1
___formal$ = 16						; size = 4
??$_M_initialize_dispatch@PAD@?$basic_string@DV?$char_traits@D@_STL@@V?$allocator@D@2@@_STL@@AAEXPAD0ABU__false_type@1@@Z PROC NEAR ; _STL::basic_string<char,_STL::char_traits<char>,_STL::allocator<char> >::_M_initialize_dispatch<char *>, COMDAT
; _this$ = ecx

; 400  :   template <class _InputIter> void _M_initialize_dispatch(_InputIter __f, _InputIter __l, const __false_type&) {

  00000	55		 push	 ebp
  00001	8b ec		 mov	 ebp, esp

; 401  :      _M_range_initialize(__f, __l);

  00003	8d 45 0f	 lea	 eax, DWORD PTR $T103786[ebp]
  00006	50		 push	 eax
  00007	ff 75 0c	 push	 DWORD PTR ___l$[ebp]
  0000a	ff 75 08	 push	 DWORD PTR ___f$[ebp]
  0000d	e8 00 00 00 00	 call	 ??$_M_range_initialize@PAD@?$basic_string@DV?$char_traits@D@_STL@@V?$allocator@D@2@@_STL@@AAEXPAD0ABUforward_iterator_tag@1@@Z ; _STL::basic_string<char,_STL::char_traits<char>,_STL::allocator<char> >::_M_range_initialize<char *>

; 402  :   }

  00012	5d		 pop	 ebp
  00013	c2 0c 00	 ret	 12			; 0000000cH
??$_M_initialize_dispatch@PAD@?$basic_string@DV?$char_traits@D@_STL@@V?$allocator@D@2@@_STL@@AAEXPAD0ABU__false_type@1@@Z ENDP ; _STL::basic_string<char,_STL::char_traits<char>,_STL::allocator<char> >::_M_initialize_dispatch<char *>
_TEXT	ENDS
PUBLIC	??0?$basic_string@DV?$char_traits@D@_STL@@V?$allocator@D@2@@_STL@@QAE@ABV01@@Z ; _STL::basic_string<char,_STL::char_traits<char>,_STL::allocator<char> >::basic_string<char,_STL::char_traits<char>,_STL::allocator<char> >
;	COMDAT xdata$x
xdata$x	SEGMENT
$T103805 DD	0ffffffffH
	DD	FLAT:$L103791
$T103803 DD	019930520H
	DD	01H
	DD	FLAT:$T103805
	DD	2 DUP(00H)
	DD	2 DUP(00H)
; Function compile flags: /Ogsy
; File c:\stlport-4.6.1\stlport\stl\_string.c
xdata$x	ENDS
;	COMDAT ??0?$basic_string@DV?$char_traits@D@_STL@@V?$allocator@D@2@@_STL@@QAE@ABV01@@Z
_TEXT	SEGMENT
_this$ = -16						; size = 4
__$EHRec$ = -12						; size = 12
___s$ = 8						; size = 4
$T103798 = 11						; size = 1
$T103790 = 11						; size = 1
??0?$basic_string@DV?$char_traits@D@_STL@@V?$allocator@D@2@@_STL@@QAE@ABV01@@Z PROC NEAR ; _STL::basic_string<char,_STL::char_traits<char>,_STL::allocator<char> >::basic_string<char,_STL::char_traits<char>,_STL::allocator<char> >, COMDAT
; _this$ = ecx

; 560  : {  

  00000	b8 00 00 00 00	 mov	 eax, __ehhandler$??0?$basic_string@DV?$char_traits@D@_STL@@V?$allocator@D@2@@_STL@@QAE@ABV01@@Z
  00005	e8 00 00 00 00	 call	 __EH_prolog
  0000a	51		 push	 ecx
  0000b	56		 push	 esi
  0000c	8b 75 08	 mov	 esi, DWORD PTR ___s$[ebp]
  0000f	57		 push	 edi
  00010	8b f9		 mov	 edi, ecx
  00012	8d 45 0b	 lea	 eax, DWORD PTR $T103790[ebp]
  00015	50		 push	 eax
  00016	8b ce		 mov	 ecx, esi
  00018	89 7d f0	 mov	 DWORD PTR _this$[ebp], edi
  0001b	e8 00 00 00 00	 call	 ?get_allocator@?$basic_string@DV?$char_traits@D@_STL@@V?$allocator@D@2@@_STL@@QBE?AV?$allocator@D@2@XZ ; _STL::basic_string<char,_STL::char_traits<char>,_STL::allocator<char> >::get_allocator
  00020	50		 push	 eax
  00021	8b cf		 mov	 ecx, edi
  00023	e8 00 00 00 00	 call	 ??0?$_String_base@DV?$allocator@D@_STL@@@_STL@@QAE@ABV?$allocator@D@1@@Z ; _STL::_String_base<char,_STL::allocator<char> >::_String_base<char,_STL::allocator<char> >
  00028	83 65 fc 00	 and	 DWORD PTR __$EHRec$[ebp+8], 0

; 561  :   _M_range_initialize(__s._M_start, __s._M_finish);  

  0002c	8d 45 0b	 lea	 eax, DWORD PTR $T103798[ebp]
  0002f	50		 push	 eax
  00030	ff 76 04	 push	 DWORD PTR [esi+4]
  00033	8b cf		 mov	 ecx, edi
  00035	ff 36		 push	 DWORD PTR [esi]
  00037	e8 00 00 00 00	 call	 ??$_M_range_initialize@PAD@?$basic_string@DV?$char_traits@D@_STL@@V?$allocator@D@2@@_STL@@AAEXPAD0ABUforward_iterator_tag@1@@Z ; _STL::basic_string<char,_STL::char_traits<char>,_STL::allocator<char> >::_M_range_initialize<char *>

; 562  : } 

  0003c	8b 4d f4	 mov	 ecx, DWORD PTR __$EHRec$[ebp]
  0003f	8b c7		 mov	 eax, edi
  00041	5f		 pop	 edi
  00042	5e		 pop	 esi
  00043	64 89 0d 00 00
	00 00		 mov	 DWORD PTR fs:__except_list, ecx
  0004a	c9		 leave
  0004b	c2 04 00	 ret	 4
_TEXT	ENDS
;	COMDAT text$x
text$x	SEGMENT
$L103791:
  00000	8b 4d f0	 mov	 ecx, DWORD PTR _this$[ebp]
  00003	e9 00 00 00 00	 jmp	 ??1?$_String_base@DV?$allocator@D@_STL@@@_STL@@QAE@XZ ; _STL::_String_base<char,_STL::allocator<char> >::~_String_base<char,_STL::allocator<char> >
__ehhandler$??0?$basic_string@DV?$char_traits@D@_STL@@V?$allocator@D@2@@_STL@@QAE@ABV01@@Z:
  00008	b8 00 00 00 00	 mov	 eax, OFFSET FLAT:$T103803
  0000d	e9 00 00 00 00	 jmp	 ___CxxFrameHandler
text$x	ENDS
??0?$basic_string@DV?$char_traits@D@_STL@@V?$allocator@D@2@@_STL@@QAE@ABV01@@Z ENDP ; _STL::basic_string<char,_STL::char_traits<char>,_STL::allocator<char> >::basic_string<char,_STL::char_traits<char>,_STL::allocator<char> >
PUBLIC	?assign@?$basic_string@DV?$char_traits@D@_STL@@V?$allocator@D@2@@_STL@@QAEAAV12@PBD0@Z ; _STL::basic_string<char,_STL::char_traits<char>,_STL::allocator<char> >::assign
; Function compile flags: /Ogsy
; File c:\stlport-4.6.1\stlport\stl\_string.h
;	COMDAT ?assign@?$basic_string@DV?$char_traits@D@_STL@@V?$allocator@D@2@@_STL@@QAEAAV12@PBD0@Z
_TEXT	SEGMENT
___f$ = 8						; size = 4
___l$ = 12						; size = 4
$T103855 = 15						; size = 1
?assign@?$basic_string@DV?$char_traits@D@_STL@@V?$allocator@D@2@@_STL@@QAEAAV12@PBD0@Z PROC NEAR ; _STL::basic_string<char,_STL::char_traits<char>,_STL::allocator<char> >::assign, COMDAT
; _this$ = ecx

; 650  :   {

  00000	55		 push	 ebp
  00001	8b ec		 mov	 ebp, esp
  00003	53		 push	 ebx

; 651  :     ptrdiff_t __n = __l - __f;

  00004	8b 5d 08	 mov	 ebx, DWORD PTR ___f$[ebp]
  00007	56		 push	 esi
  00008	8b f1		 mov	 esi, ecx

; 652  :     if (__STATIC_CAST(size_type,__n) <= size()) {

  0000a	8b 0e		 mov	 ecx, DWORD PTR [esi]
  0000c	8b 46 04	 mov	 eax, DWORD PTR [esi+4]
  0000f	57		 push	 edi
  00010	8b 7d 0c	 mov	 edi, DWORD PTR ___l$[ebp]
  00013	2b fb		 sub	 edi, ebx
  00015	2b c1		 sub	 eax, ecx
  00017	3b f8		 cmp	 edi, eax
  00019	77 20		 ja	 SHORT $L100757

; 653  :       _Traits::copy(this->_M_start, __f, __n);

  0001b	85 ff		 test	 edi, edi
  0001d	74 0b		 je	 SHORT $L103818
  0001f	57		 push	 edi
  00020	53		 push	 ebx
  00021	51		 push	 ecx
  00022	e8 00 00 00 00	 call	 _memcpy
  00027	83 c4 0c	 add	 esp, 12			; 0000000cH
$L103818:

; 654  :       erase(begin() + __n, end());

  0002a	8b 06		 mov	 eax, DWORD PTR [esi]
  0002c	ff 76 04	 push	 DWORD PTR [esi+4]
  0002f	03 c7		 add	 eax, edi
  00031	50		 push	 eax
  00032	8b ce		 mov	 ecx, esi
  00034	e8 00 00 00 00	 call	 ?erase@?$basic_string@DV?$char_traits@D@_STL@@V?$allocator@D@2@@_STL@@QAEPADPAD0@Z ; _STL::basic_string<char,_STL::char_traits<char>,_STL::allocator<char> >::erase

; 655  :     }
; 656  :     else {

  00039	eb 25		 jmp	 SHORT $L103856
$L100757:

; 657  :       _Traits::copy(this->_M_start, __f, size());

  0003b	85 c0		 test	 eax, eax
  0003d	74 0b		 je	 SHORT $L103837
  0003f	50		 push	 eax
  00040	53		 push	 ebx
  00041	51		 push	 ecx
  00042	e8 00 00 00 00	 call	 _memcpy
  00047	83 c4 0c	 add	 esp, 12			; 0000000cH
$L103837:

; 658  :       append(__f + size(), __l);

  0004a	8d 45 0f	 lea	 eax, DWORD PTR $T103855[ebp]
  0004d	50		 push	 eax
  0004e	8b 46 04	 mov	 eax, DWORD PTR [esi+4]
  00051	2b 06		 sub	 eax, DWORD PTR [esi]
  00053	ff 75 0c	 push	 DWORD PTR ___l$[ebp]
  00056	03 c3		 add	 eax, ebx
  00058	50		 push	 eax
  00059	8b ce		 mov	 ecx, esi
  0005b	e8 00 00 00 00	 call	 ??$append@PBD@?$basic_string@DV?$char_traits@D@_STL@@V?$allocator@D@2@@_STL@@AAEAAV01@PBD0ABUforward_iterator_tag@1@@Z ; _STL::basic_string<char,_STL::char_traits<char>,_STL::allocator<char> >::append<char const *>
$L103856:
  00060	5f		 pop	 edi

; 659  :     }
; 660  :     return *this;

  00061	8b c6		 mov	 eax, esi
  00063	5e		 pop	 esi
  00064	5b		 pop	 ebx

; 661  :   }

  00065	5d		 pop	 ebp
  00066	c2 08 00	 ret	 8
?assign@?$basic_string@DV?$char_traits@D@_STL@@V?$allocator@D@2@@_STL@@QAEAAV12@PBD0@Z ENDP ; _STL::basic_string<char,_STL::char_traits<char>,_STL::allocator<char> >::assign
_TEXT	ENDS
PUBLIC	??$_M_assign_dispatch@PAD@?$basic_string@DV?$char_traits@D@_STL@@V?$allocator@D@2@@_STL@@AAEAAV01@PAD0ABU__false_type@1@@Z ; _STL::basic_string<char,_STL::char_traits<char>,_STL::allocator<char> >::_M_assign_dispatch<char *>
; Function compile flags: /Ogsy
;	COMDAT ??$_M_assign_dispatch@PAD@?$basic_string@DV?$char_traits@D@_STL@@V?$allocator@D@2@@_STL@@AAEAAV01@PAD0ABU__false_type@1@@Z
_TEXT	SEGMENT
___f$ = 8						; size = 4
$T103878 = 11						; size = 1
___l$ = 12						; size = 4
___formal$ = 16						; size = 4
??$_M_assign_dispatch@PAD@?$basic_string@DV?$char_traits@D@_STL@@V?$allocator@D@2@@_STL@@AAEAAV01@PAD0ABU__false_type@1@@Z PROC NEAR ; _STL::basic_string<char,_STL::char_traits<char>,_STL::allocator<char> >::_M_assign_dispatch<char *>, COMDAT
; _this$ = ecx

; 624  :   _Self& _M_assign_dispatch(_InputIter __f, _InputIter __l,

  00000	55		 push	 ebp
  00001	8b ec		 mov	 ebp, esp
  00003	56		 push	 esi
  00004	8b f1		 mov	 esi, ecx

; 625  : 			    const __false_type&)  {
; 626  :     pointer __cur = this->_M_start;
; 627  :     while (__f != __l && __cur != this->_M_finish) {

  00006	8b 4d 08	 mov	 ecx, DWORD PTR ___f$[ebp]
  00009	8b 06		 mov	 eax, DWORD PTR [esi]
  0000b	57		 push	 edi
  0000c	8b 7d 0c	 mov	 edi, DWORD PTR ___l$[ebp]
  0000f	3b cf		 cmp	 ecx, edi
  00011	74 13		 je	 SHORT $L103882
$L101000:
  00013	3b 46 04	 cmp	 eax, DWORD PTR [esi+4]
  00016	74 0a		 je	 SHORT $L101001

; 628  :       _Traits::assign(*__cur, *__f);

  00018	8a 11		 mov	 dl, BYTE PTR [ecx]

; 629  :       ++__f;

  0001a	41		 inc	 ecx
  0001b	88 10		 mov	 BYTE PTR [eax], dl

; 630  :       ++__cur;

  0001d	40		 inc	 eax
  0001e	3b cf		 cmp	 ecx, edi
  00020	75 f1		 jne	 SHORT $L101000
$L101001:

; 631  :     }
; 632  :     if (__f == __l)

  00022	3b cf		 cmp	 ecx, edi
  00024	75 0d		 jne	 SHORT $L101002
$L103882:

; 633  :       erase(__cur, end());

  00026	ff 76 04	 push	 DWORD PTR [esi+4]
  00029	8b ce		 mov	 ecx, esi
  0002b	50		 push	 eax
  0002c	e8 00 00 00 00	 call	 ?erase@?$basic_string@DV?$char_traits@D@_STL@@V?$allocator@D@2@@_STL@@QAEPADPAD0@Z ; _STL::basic_string<char,_STL::char_traits<char>,_STL::allocator<char> >::erase

; 634  :     else

  00031	eb 0d		 jmp	 SHORT $L103879
$L101002:

; 635  :       append(__f, __l);

  00033	8d 45 0b	 lea	 eax, DWORD PTR $T103878[ebp]
  00036	50		 push	 eax
  00037	57		 push	 edi
  00038	51		 push	 ecx
  00039	8b ce		 mov	 ecx, esi
  0003b	e8 00 00 00 00	 call	 ??$append@PAD@?$basic_string@DV?$char_traits@D@_STL@@V?$allocator@D@2@@_STL@@AAEAAV01@PAD0ABUforward_iterator_tag@1@@Z ; _STL::basic_string<char,_STL::char_traits<char>,_STL::allocator<char> >::append<char *>
$L103879:
  00040	5f		 pop	 edi

; 636  :     return *this;

  00041	8b c6		 mov	 eax, esi
  00043	5e		 pop	 esi

; 637  :   }

  00044	5d		 pop	 ebp
  00045	c2 0c 00	 ret	 12			; 0000000cH
??$_M_assign_dispatch@PAD@?$basic_string@DV?$char_traits@D@_STL@@V?$allocator@D@2@@_STL@@AAEAAV01@PAD0ABU__false_type@1@@Z ENDP ; _STL::basic_string<char,_STL::char_traits<char>,_STL::allocator<char> >::_M_assign_dispatch<char *>
_TEXT	ENDS
PUBLIC	??$?0PAD@?$basic_string@DV?$char_traits@D@_STL@@V?$allocator@D@2@@_STL@@QAE@PAD0ABV?$allocator@D@1@@Z ; _STL::basic_string<char,_STL::char_traits<char>,_STL::allocator<char> >::basic_string<char,_STL::char_traits<char>,_STL::allocator<char> ><char *>
;	COMDAT xdata$x
xdata$x	SEGMENT
$T103901 DD	0ffffffffH
	DD	FLAT:$L103886
$T103899 DD	019930520H
	DD	01H
	DD	FLAT:$T103901
	DD	2 DUP(00H)
	DD	2 DUP(00H)
; Function compile flags: /Ogsy
xdata$x	ENDS
;	COMDAT ??$?0PAD@?$basic_string@DV?$char_traits@D@_STL@@V?$allocator@D@2@@_STL@@QAE@PAD0ABV?$allocator@D@1@@Z
_TEXT	SEGMENT
_this$ = -16						; size = 4
__$EHRec$ = -12						; size = 12
___f$ = 8						; size = 4
___l$ = 12						; size = 4
___a$ = 16						; size = 4
$T103896 = 19						; size = 1
??$?0PAD@?$basic_string@DV?$char_traits@D@_STL@@V?$allocator@D@2@@_STL@@QAE@PAD0ABV?$allocator@D@1@@Z PROC NEAR ; _STL::basic_string<char,_STL::char_traits<char>,_STL::allocator<char> >::basic_string<char,_STL::char_traits<char>,_STL::allocator<char> ><char *>, COMDAT
; _this$ = ecx

; 277  :   {

  00000	b8 00 00 00 00	 mov	 eax, __ehhandler$??$?0PAD@?$basic_string@DV?$char_traits@D@_STL@@V?$allocator@D@2@@_STL@@QAE@PAD0ABV?$allocator@D@1@@Z
  00005	e8 00 00 00 00	 call	 __EH_prolog
  0000a	51		 push	 ecx
  0000b	56		 push	 esi
  0000c	ff 75 10	 push	 DWORD PTR ___a$[ebp]
  0000f	8b f1		 mov	 esi, ecx
  00011	89 75 f0	 mov	 DWORD PTR _this$[ebp], esi
  00014	e8 00 00 00 00	 call	 ??0?$_String_base@DV?$allocator@D@_STL@@@_STL@@QAE@ABV?$allocator@D@1@@Z ; _STL::_String_base<char,_STL::allocator<char> >::_String_base<char,_STL::allocator<char> >
  00019	83 65 fc 00	 and	 DWORD PTR __$EHRec$[ebp+8], 0

; 278  :     typedef typename _Is_integer<_InputIterator>::_Integral _Integral;
; 279  :     _M_initialize_dispatch(__f, __l, _Integral());

  0001d	8d 45 13	 lea	 eax, DWORD PTR $T103896[ebp]
  00020	50		 push	 eax
  00021	ff 75 0c	 push	 DWORD PTR ___l$[ebp]
  00024	8b ce		 mov	 ecx, esi
  00026	ff 75 08	 push	 DWORD PTR ___f$[ebp]
  00029	e8 00 00 00 00	 call	 ??$_M_range_initialize@PAD@?$basic_string@DV?$char_traits@D@_STL@@V?$allocator@D@2@@_STL@@AAEXPAD0ABUforward_iterator_tag@1@@Z ; _STL::basic_string<char,_STL::char_traits<char>,_STL::allocator<char> >::_M_range_initialize<char *>

; 280  :   }

  0002e	8b 4d f4	 mov	 ecx, DWORD PTR __$EHRec$[ebp]
  00031	8b c6		 mov	 eax, esi
  00033	5e		 pop	 esi
  00034	64 89 0d 00 00
	00 00		 mov	 DWORD PTR fs:__except_list, ecx
  0003b	c9		 leave
  0003c	c2 0c 00	 ret	 12			; 0000000cH
_TEXT	ENDS
;	COMDAT text$x
text$x	SEGMENT
$L103886:
  00000	8b 4d f0	 mov	 ecx, DWORD PTR _this$[ebp]
  00003	e9 00 00 00 00	 jmp	 ??1?$_String_base@DV?$allocator@D@_STL@@@_STL@@QAE@XZ ; _STL::_String_base<char,_STL::allocator<char> >::~_String_base<char,_STL::allocator<char> >
__ehhandler$??$?0PAD@?$basic_string@DV?$char_traits@D@_STL@@V?$allocator@D@2@@_STL@@QAE@PAD0ABV?$allocator@D@1@@Z:
  00008	b8 00 00 00 00	 mov	 eax, OFFSET FLAT:$T103899
  0000d	e9 00 00 00 00	 jmp	 ___CxxFrameHandler
text$x	ENDS
??$?0PAD@?$basic_string@DV?$char_traits@D@_STL@@V?$allocator@D@2@@_STL@@QAE@PAD0ABV?$allocator@D@1@@Z ENDP ; _STL::basic_string<char,_STL::char_traits<char>,_STL::allocator<char> >::basic_string<char,_STL::char_traits<char>,_STL::allocator<char> ><char *>
PUBLIC	?append@?$basic_string@DV?$char_traits@D@_STL@@V?$allocator@D@2@@_STL@@QAEAAV12@ABV12@@Z ; _STL::basic_string<char,_STL::char_traits<char>,_STL::allocator<char> >::append
; Function compile flags: /Ogsy
;	COMDAT ?append@?$basic_string@DV?$char_traits@D@_STL@@V?$allocator@D@2@@_STL@@QAEAAV12@ABV12@@Z
_TEXT	SEGMENT
___s$ = 8						; size = 4
$T103917 = 11						; size = 1
?append@?$basic_string@DV?$char_traits@D@_STL@@V?$allocator@D@2@@_STL@@QAEAAV12@ABV12@@Z PROC NEAR ; _STL::basic_string<char,_STL::char_traits<char>,_STL::allocator<char> >::append, COMDAT
; _this$ = ecx

; 485  :     { return append(__s._M_start, __s._M_finish); }

  00000	55		 push	 ebp
  00001	8b ec		 mov	 ebp, esp
  00003	8b 45 08	 mov	 eax, DWORD PTR ___s$[ebp]
  00006	8b 50 04	 mov	 edx, DWORD PTR [eax+4]
  00009	8b 00		 mov	 eax, DWORD PTR [eax]
  0000b	56		 push	 esi
  0000c	8d 75 0b	 lea	 esi, DWORD PTR $T103917[ebp]
  0000f	56		 push	 esi
  00010	52		 push	 edx
  00011	50		 push	 eax
  00012	e8 00 00 00 00	 call	 ??$append@PAD@?$basic_string@DV?$char_traits@D@_STL@@V?$allocator@D@2@@_STL@@AAEAAV01@PAD0ABUforward_iterator_tag@1@@Z ; _STL::basic_string<char,_STL::char_traits<char>,_STL::allocator<char> >::append<char *>
  00017	5e		 pop	 esi
  00018	5d		 pop	 ebp
  00019	c2 04 00	 ret	 4
?append@?$basic_string@DV?$char_traits@D@_STL@@V?$allocator@D@2@@_STL@@QAEAAV12@ABV12@@Z ENDP ; _STL::basic_string<char,_STL::char_traits<char>,_STL::allocator<char> >::append
_TEXT	ENDS
PUBLIC	??$assign@PAD@?$basic_string@DV?$char_traits@D@_STL@@V?$allocator@D@2@@_STL@@QAEAAV01@PAD0@Z ; _STL::basic_string<char,_STL::char_traits<char>,_STL::allocator<char> >::assign<char *>
; Function compile flags: /Ogsy
;	COMDAT ??$assign@PAD@?$basic_string@DV?$char_traits@D@_STL@@V?$allocator@D@2@@_STL@@QAEAAV01@PAD0@Z
_TEXT	SEGMENT
___first$ = 8						; size = 4
___last$ = 12						; size = 4
$T103923 = 15						; size = 1
??$assign@PAD@?$basic_string@DV?$char_traits@D@_STL@@V?$allocator@D@2@@_STL@@QAEAAV01@PAD0@Z PROC NEAR ; _STL::basic_string<char,_STL::char_traits<char>,_STL::allocator<char> >::assign<char *>, COMDAT
; _this$ = ecx

; 642  :   template <class _InputIter> _Self& assign(_InputIter __first, _InputIter __last) {

  00000	55		 push	 ebp
  00001	8b ec		 mov	 ebp, esp

; 643  :     typedef typename _Is_integer<_InputIter>::_Integral _Integral;
; 644  :     return _M_assign_dispatch(__first, __last, _Integral());

  00003	8d 45 0f	 lea	 eax, DWORD PTR $T103923[ebp]
  00006	50		 push	 eax
  00007	ff 75 0c	 push	 DWORD PTR ___last$[ebp]
  0000a	ff 75 08	 push	 DWORD PTR ___first$[ebp]
  0000d	e8 00 00 00 00	 call	 ??$_M_assign_dispatch@PAD@?$basic_string@DV?$char_traits@D@_STL@@V?$allocator@D@2@@_STL@@AAEAAV01@PAD0ABU__false_type@1@@Z ; _STL::basic_string<char,_STL::char_traits<char>,_STL::allocator<char> >::_M_assign_dispatch<char *>

; 645  :   }

  00012	5d		 pop	 ebp
  00013	c2 08 00	 ret	 8
??$assign@PAD@?$basic_string@DV?$char_traits@D@_STL@@V?$allocator@D@2@@_STL@@QAEAAV01@PAD0@Z ENDP ; _STL::basic_string<char,_STL::char_traits<char>,_STL::allocator<char> >::assign<char *>
_TEXT	ENDS
PUBLIC	??4?$basic_string@DV?$char_traits@D@_STL@@V?$allocator@D@2@@_STL@@QAEAAV01@PBD@Z ; _STL::basic_string<char,_STL::char_traits<char>,_STL::allocator<char> >::operator=
; Function compile flags: /Ogsy
;	COMDAT ??4?$basic_string@DV?$char_traits@D@_STL@@V?$allocator@D@2@@_STL@@QAEAAV01@PBD@Z
_TEXT	SEGMENT
___s$ = 8						; size = 4
??4?$basic_string@DV?$char_traits@D@_STL@@V?$allocator@D@2@@_STL@@QAEAAV01@PBD@Z PROC NEAR ; _STL::basic_string<char,_STL::char_traits<char>,_STL::allocator<char> >::operator=, COMDAT
; _this$ = ecx

; 313  :   _Self& operator=(const _CharT* __s) { 

  00000	56		 push	 esi

; 314  :     _STLP_FIX_LITERAL_BUG(__s)
; 315  :     return assign(__s, __s + traits_type::length(__s)); 

  00001	8b 74 24 08	 mov	 esi, DWORD PTR ___s$[esp]
  00005	57		 push	 edi
  00006	56		 push	 esi
  00007	8b f9		 mov	 edi, ecx
  00009	e8 00 00 00 00	 call	 _strlen
  0000e	59		 pop	 ecx
  0000f	03 c6		 add	 eax, esi
  00011	50		 push	 eax
  00012	56		 push	 esi
  00013	8b cf		 mov	 ecx, edi
  00015	e8 00 00 00 00	 call	 ?assign@?$basic_string@DV?$char_traits@D@_STL@@V?$allocator@D@2@@_STL@@QAEAAV12@PBD0@Z ; _STL::basic_string<char,_STL::char_traits<char>,_STL::allocator<char> >::assign
  0001a	5f		 pop	 edi
  0001b	5e		 pop	 esi

; 316  :   }

  0001c	c2 04 00	 ret	 4
??4?$basic_string@DV?$char_traits@D@_STL@@V?$allocator@D@2@@_STL@@QAEAAV01@PBD@Z ENDP ; _STL::basic_string<char,_STL::char_traits<char>,_STL::allocator<char> >::operator=
_TEXT	ENDS
PUBLIC	?substr@?$basic_string@DV?$char_traits@D@_STL@@V?$allocator@D@2@@_STL@@QBE?AV12@II@Z ; _STL::basic_string<char,_STL::char_traits<char>,_STL::allocator<char> >::substr
; Function compile flags: /Ogsy
;	COMDAT ?substr@?$basic_string@DV?$char_traits@D@_STL@@V?$allocator@D@2@@_STL@@QBE?AV12@II@Z
_TEXT	SEGMENT
$T103935 = -4						; size = 4
___$ReturnUdt$ = 8					; size = 4
$T103933 = 12						; size = 4
___pos$ = 12						; size = 4
___n$ = 16						; size = 4
$T103932 = 19						; size = 1
?substr@?$basic_string@DV?$char_traits@D@_STL@@V?$allocator@D@2@@_STL@@QBE?AV12@II@Z PROC NEAR ; _STL::basic_string<char,_STL::char_traits<char>,_STL::allocator<char> >::substr, COMDAT
; _this$ = ecx

; 1154 :   _Self substr(size_type __pos = 0, size_type __n = npos) const {

  00000	55		 push	 ebp
  00001	8b ec		 mov	 ebp, esp
  00003	51		 push	 ecx
  00004	83 65 fc 00	 and	 DWORD PTR $T103935[ebp], 0
  00008	56		 push	 esi
  00009	8b f1		 mov	 esi, ecx

; 1155 :     if (__pos > size())

  0000b	8b 46 04	 mov	 eax, DWORD PTR [esi+4]
  0000e	2b 06		 sub	 eax, DWORD PTR [esi]
  00010	57		 push	 edi
  00011	8b 7d 0c	 mov	 edi, DWORD PTR ___pos$[ebp]
  00014	3b f8		 cmp	 edi, eax
  00016	76 05		 jbe	 SHORT $L100697

; 1156 :       this->_M_throw_out_of_range();

  00018	e8 00 00 00 00	 call	 ?_M_throw_out_of_range@?$_String_base@DV?$allocator@D@_STL@@@_STL@@QBEXXZ ; _STL::_String_base<char,_STL::allocator<char> >::_M_throw_out_of_range
$L100697:

; 1157 :     return _Self(this->_M_start + __pos, 
; 1158 :                         this->_M_start + __pos + (min) (__n, size() - __pos));

  0001d	8b 0e		 mov	 ecx, DWORD PTR [esi]
  0001f	8b 46 04	 mov	 eax, DWORD PTR [esi+4]
  00022	2b c1		 sub	 eax, ecx
  00024	2b c7		 sub	 eax, edi
  00026	3b 45 10	 cmp	 eax, DWORD PTR ___n$[ebp]
  00029	89 45 0c	 mov	 DWORD PTR $T103933[ebp], eax
  0002c	8d 45 0c	 lea	 eax, DWORD PTR $T103933[ebp]
  0002f	72 03		 jb	 SHORT $L103954
  00031	8d 45 10	 lea	 eax, DWORD PTR ___n$[ebp]
$L103954:
  00034	8b 00		 mov	 eax, DWORD PTR [eax]
  00036	03 c1		 add	 eax, ecx
  00038	8d 55 13	 lea	 edx, DWORD PTR $T103932[ebp]
  0003b	52		 push	 edx
  0003c	03 c7		 add	 eax, edi
  0003e	03 cf		 add	 ecx, edi
  00040	50		 push	 eax
  00041	51		 push	 ecx
  00042	8b 4d 08	 mov	 ecx, DWORD PTR ___$ReturnUdt$[ebp]
  00045	e8 00 00 00 00	 call	 ??$?0PAD@?$basic_string@DV?$char_traits@D@_STL@@V?$allocator@D@2@@_STL@@QAE@PAD0ABV?$allocator@D@1@@Z ; _STL::basic_string<char,_STL::char_traits<char>,_STL::allocator<char> >::basic_string<char,_STL::char_traits<char>,_STL::allocator<char> ><char *>
  0004a	8b 45 08	 mov	 eax, DWORD PTR ___$ReturnUdt$[ebp]
  0004d	5f		 pop	 edi
  0004e	5e		 pop	 esi

; 1159 :   }

  0004f	c9		 leave
  00050	c2 0c 00	 ret	 12			; 0000000cH
?substr@?$basic_string@DV?$char_traits@D@_STL@@V?$allocator@D@2@@_STL@@QBE?AV12@II@Z ENDP ; _STL::basic_string<char,_STL::char_traits<char>,_STL::allocator<char> >::substr
_TEXT	ENDS
PUBLIC	??$?HDV?$char_traits@D@_STL@@V?$allocator@D@1@@_STL@@YA?AV?$basic_string@DV?$char_traits@D@_STL@@V?$allocator@D@2@@0@ABV10@0@Z ; _STL::operator+<char,_STL::char_traits<char>,_STL::allocator<char> >
;	COMDAT xdata$x
; File c:\stlport-4.6.1\stlport\stl\_alloc.h
xdata$x	SEGMENT
$T104039 DD	0ffffffffH
	DD	FLAT:$L103963
	DD	00H
	DD	FLAT:$L103962
$T104037 DD	019930520H
	DD	02H
	DD	FLAT:$T104039
	DD	2 DUP(00H)
	DD	2 DUP(00H)
; Function compile flags: /Ogsy
; File c:\stlport-4.6.1\stlport\stl\_string.h
xdata$x	ENDS
;	COMDAT ??$?HDV?$char_traits@D@_STL@@V?$allocator@D@1@@_STL@@YA?AV?$basic_string@DV?$char_traits@D@_STL@@V?$allocator@D@2@@0@ABV10@0@Z
_TEXT	SEGMENT
___result$ = -28					; size = 12
$T103964 = -16						; size = 4
__$EHRec$ = -12						; size = 12
___$ReturnUdt$ = 8					; size = 4
$T103960 = 11						; size = 1
___s$ = 12						; size = 4
___y$ = 16						; size = 4
??$?HDV?$char_traits@D@_STL@@V?$allocator@D@1@@_STL@@YA?AV?$basic_string@DV?$char_traits@D@_STL@@V?$allocator@D@2@@0@ABV10@0@Z PROC NEAR ; _STL::operator+<char,_STL::char_traits<char>,_STL::allocator<char> >, COMDAT

; 1240 : {

  00000	b8 00 00 00 00	 mov	 eax, __ehhandler$??$?HDV?$char_traits@D@_STL@@V?$allocator@D@1@@_STL@@YA?AV?$basic_string@DV?$char_traits@D@_STL@@V?$allocator@D@2@@0@ABV10@0@Z
  00005	e8 00 00 00 00	 call	 __EH_prolog
  0000a	83 ec 10	 sub	 esp, 16			; 00000010H
  0000d	83 65 f0 00	 and	 DWORD PTR $T103964[ebp], 0
  00011	53		 push	 ebx
  00012	56		 push	 esi

; 1241 :   typedef basic_string<_CharT,_Traits,_Alloc> _Str;
; 1242 :   typedef typename _Str::_Reserve_t _Reserve_t;
; 1243 : # ifdef __GNUC__
; 1244 :   // gcc counts this as a function
; 1245 :   _Str __result  = _Str(_Reserve_t(),__s.size() + __y.size());
; 1246 : # else
; 1247 :   _Str __result(_Reserve_t(), __s.size() + __y.size());

  00013	8b 75 0c	 mov	 esi, DWORD PTR ___s$[ebp]
  00016	8b 46 04	 mov	 eax, DWORD PTR [esi+4]
  00019	57		 push	 edi
  0001a	8b 7d 10	 mov	 edi, DWORD PTR ___y$[ebp]
  0001d	03 47 04	 add	 eax, DWORD PTR [edi+4]
  00020	8d 4d e4	 lea	 ecx, DWORD PTR ___result$[ebp]
  00023	2b 06		 sub	 eax, DWORD PTR [esi]
  00025	2b 07		 sub	 eax, DWORD PTR [edi]
  00027	40		 inc	 eax
  00028	50		 push	 eax
  00029	8d 45 0b	 lea	 eax, DWORD PTR $T103960[ebp]
  0002c	50		 push	 eax
  0002d	e8 00 00 00 00	 call	 ??0?$_String_base@DV?$allocator@D@_STL@@@_STL@@QAE@ABV?$allocator@D@1@I@Z ; _STL::_String_base<char,_STL::allocator<char> >::_String_base<char,_STL::allocator<char> >
  00032	8b 45 e8	 mov	 eax, DWORD PTR ___result$[ebp+4]
  00035	c6 00 00	 mov	 BYTE PTR [eax], 0
  00038	33 db		 xor	 ebx, ebx
  0003a	43		 inc	 ebx

; 1248 : # endif
; 1249 :   __result.append(__s);

  0003b	56		 push	 esi
  0003c	8d 4d e4	 lea	 ecx, DWORD PTR ___result$[ebp]
  0003f	89 5d fc	 mov	 DWORD PTR __$EHRec$[ebp+8], ebx
  00042	e8 00 00 00 00	 call	 ?append@?$basic_string@DV?$char_traits@D@_STL@@V?$allocator@D@2@@_STL@@QAEAAV12@ABV12@@Z ; _STL::basic_string<char,_STL::char_traits<char>,_STL::allocator<char> >::append

; 1250 :   __result.append(__y);

  00047	57		 push	 edi
  00048	8d 4d e4	 lea	 ecx, DWORD PTR ___result$[ebp]
  0004b	e8 00 00 00 00	 call	 ?append@?$basic_string@DV?$char_traits@D@_STL@@V?$allocator@D@2@@_STL@@QAEAAV12@ABV12@@Z ; _STL::basic_string<char,_STL::char_traits<char>,_STL::allocator<char> >::append

; 1251 :   return __result;

  00050	8b 4d 08	 mov	 ecx, DWORD PTR ___$ReturnUdt$[ebp]
  00053	8d 45 e4	 lea	 eax, DWORD PTR ___result$[ebp]
  00056	50		 push	 eax
  00057	e8 00 00 00 00	 call	 ??0?$basic_string@DV?$char_traits@D@_STL@@V?$allocator@D@2@@_STL@@QAE@ABV01@@Z ; _STL::basic_string<char,_STL::char_traits<char>,_STL::allocator<char> >::basic_string<char,_STL::char_traits<char>,_STL::allocator<char> >
  0005c	8b 45 ec	 mov	 eax, DWORD PTR ___result$[ebp+8]
  0005f	2b 45 e4	 sub	 eax, DWORD PTR ___result$[ebp]
  00062	8d 4d ec	 lea	 ecx, DWORD PTR ___result$[ebp+8]
  00065	50		 push	 eax
  00066	ff 75 e4	 push	 DWORD PTR ___result$[ebp]
  00069	89 5d f0	 mov	 DWORD PTR $T103964[ebp], ebx
  0006c	c6 45 fc 00	 mov	 BYTE PTR __$EHRec$[ebp+8], 0
  00070	e8 00 00 00 00	 call	 ?deallocate@?$allocator@D@_STL@@QAEXPADI@Z ; _STL::allocator<char>::deallocate

; 1252 : }

  00075	8b 4d f4	 mov	 ecx, DWORD PTR __$EHRec$[ebp]
  00078	8b 45 08	 mov	 eax, DWORD PTR ___$ReturnUdt$[ebp]
  0007b	5f		 pop	 edi
  0007c	5e		 pop	 esi
  0007d	5b		 pop	 ebx
  0007e	64 89 0d 00 00
	00 00		 mov	 DWORD PTR fs:__except_list, ecx
  00085	c9		 leave
  00086	c3		 ret	 0
_TEXT	ENDS
;	COMDAT text$x
text$x	SEGMENT
$L103962:
  00000	8d 4d e4	 lea	 ecx, DWORD PTR ___result$[ebp]
  00003	e9 00 00 00 00	 jmp	 ??1?$basic_string@DV?$char_traits@D@_STL@@V?$allocator@D@2@@_STL@@QAE@XZ ; _STL::basic_string<char,_STL::char_traits<char>,_STL::allocator<char> >::~basic_string<char,_STL::char_traits<char>,_STL::allocator<char> >
$L103963:
  00008	8b 45 f0	 mov	 eax, DWORD PTR $T103964[ebp]
  0000b	83 e0 01	 and	 eax, 1
  0000e	0f 84 0c 00 00
	00		 je	 $L103965
  00014	83 65 f0 fe	 and	 DWORD PTR $T103964[ebp], -2 ; fffffffeH
  00018	8b 4d 08	 mov	 ecx, DWORD PTR ___$ReturnUdt$[ebp]
  0001b	e9 00 00 00 00	 jmp	 ??1?$basic_string@DV?$char_traits@D@_STL@@V?$allocator@D@2@@_STL@@QAE@XZ ; _STL::basic_string<char,_STL::char_traits<char>,_STL::allocator<char> >::~basic_string<char,_STL::char_traits<char>,_STL::allocator<char> >
$L103965:
  00020	c3		 ret	 0
__ehhandler$??$?HDV?$char_traits@D@_STL@@V?$allocator@D@1@@_STL@@YA?AV?$basic_string@DV?$char_traits@D@_STL@@V?$allocator@D@2@@0@ABV10@0@Z:
  00021	b8 00 00 00 00	 mov	 eax, OFFSET FLAT:$T104037
  00026	e9 00 00 00 00	 jmp	 ___CxxFrameHandler
text$x	ENDS
??$?HDV?$char_traits@D@_STL@@V?$allocator@D@1@@_STL@@YA?AV?$basic_string@DV?$char_traits@D@_STL@@V?$allocator@D@2@@0@ABV10@0@Z ENDP ; _STL::operator+<char,_STL::char_traits<char>,_STL::allocator<char> >
PUBLIC	??4?$basic_string@DV?$char_traits@D@_STL@@V?$allocator@D@2@@_STL@@QAEAAV01@ABV01@@Z ; _STL::basic_string<char,_STL::char_traits<char>,_STL::allocator<char> >::operator=
; Function compile flags: /Ogsy
;	COMDAT ??4?$basic_string@DV?$char_traits@D@_STL@@V?$allocator@D@2@@_STL@@QAEAAV01@ABV01@@Z
_TEXT	SEGMENT
___s$ = 8						; size = 4
$T104047 = 11						; size = 1
??4?$basic_string@DV?$char_traits@D@_STL@@V?$allocator@D@2@@_STL@@QAEAAV01@ABV01@@Z PROC NEAR ; _STL::basic_string<char,_STL::char_traits<char>,_STL::allocator<char> >::operator=, COMDAT
; _this$ = ecx

; 307  :   _Self& operator=(const _Self& __s) {

  00000	55		 push	 ebp
  00001	8b ec		 mov	 ebp, esp

; 308  :     if (&__s != this) 

  00003	8b 45 08	 mov	 eax, DWORD PTR ___s$[ebp]
  00006	56		 push	 esi
  00007	8b f1		 mov	 esi, ecx
  00009	3b c6		 cmp	 eax, esi
  0000b	74 10		 je	 SHORT $L104048

; 309  :       assign(__s._M_start, __s._M_finish);

  0000d	8d 4d 0b	 lea	 ecx, DWORD PTR $T104047[ebp]
  00010	51		 push	 ecx
  00011	ff 70 04	 push	 DWORD PTR [eax+4]
  00014	8b ce		 mov	 ecx, esi
  00016	ff 30		 push	 DWORD PTR [eax]
  00018	e8 00 00 00 00	 call	 ??$_M_assign_dispatch@PAD@?$basic_string@DV?$char_traits@D@_STL@@V?$allocator@D@2@@_STL@@AAEAAV01@PAD0ABU__false_type@1@@Z ; _STL::basic_string<char,_STL::char_traits<char>,_STL::allocator<char> >::_M_assign_dispatch<char *>
$L104048:

; 310  :     return *this;

  0001d	8b c6		 mov	 eax, esi
  0001f	5e		 pop	 esi

; 311  :   }

  00020	5d		 pop	 ebp
  00021	c2 04 00	 ret	 4
??4?$basic_string@DV?$char_traits@D@_STL@@V?$allocator@D@2@@_STL@@QAEAAV01@ABV01@@Z ENDP ; _STL::basic_string<char,_STL::char_traits<char>,_STL::allocator<char> >::operator=
_TEXT	ENDS
PUBLIC	?load@Update@@QAEXAAV?$basic_ifstream@DV?$char_traits@D@_STL@@@_STL@@@Z ; Update::load
EXTRN	___security_cookie:DWORD
EXTRN	@__security_check_cookie@4:NEAR
; Function compile flags: /Ogsy
; File c:\darkeden\designed_common\project\client\updater\update.cpp
;	COMDAT ?load@Update@@QAEXAAV?$basic_ifstream@DV?$char_traits@D@_STL@@@_STL@@@Z
_TEXT	SEGMENT
_szParam$ = -128					; size = 2
_buf$ = -124						; size = 256
__$ArrayPad$ = 132					; size = 4
__$ReturnAddr$ = 140					; size = 4
_ifile$ = 144						; size = 4
_updatetype$ = 147					; size = 1
?load@Update@@QAEXAAV?$basic_ifstream@DV?$char_traits@D@_STL@@@_STL@@@Z PROC NEAR ; Update::load, COMDAT
; _this$ = ecx

; 31   : {

  00000	55		 push	 ebp
  00001	8d ac 24 78 ff
	ff ff		 lea	 ebp, DWORD PTR [esp-136]
  00008	81 ec 08 01 00
	00		 sub	 esp, 264		; 00000108H
  0000e	a1 00 00 00 00	 mov	 eax, DWORD PTR ___security_cookie
  00013	53		 push	 ebx
  00014	56		 push	 esi
  00015	57		 push	 edi

; 32   : 
; 33   : 	//--------------------------------------------------------------------------------
; 34   : 	// load version
; 35   : 	//--------------------------------------------------------------------------------
; 36   : 	ifile.read( (char *)&m_Version , szVersion );

  00016	8b bd 90 00 00
	00		 mov	 edi, DWORD PTR _ifile$[ebp]
  0001c	8b f1		 mov	 esi, ecx
  0001e	6a 02		 push	 2
  00020	56		 push	 esi
  00021	8b cf		 mov	 ecx, edi
  00023	89 85 84 00 00
	00		 mov	 DWORD PTR __$ArrayPad$[ebp], eax
  00029	e8 00 00 00 00	 call	 ?read@?$basic_istream@DV?$char_traits@D@_STL@@@_STL@@QAEAAV12@PADH@Z ; _STL::basic_istream<char,_STL::char_traits<char> >::read

; 37   : 	
; 38   : 	//--------------------------------------------------------------------------------
; 39   : 	// load update type
; 40   : 	//--------------------------------------------------------------------------------
; 41   : 	BYTE updatetype;
; 42   : 	ifile.read( (char *)&updatetype, szBYTE );

  0002e	6a 01		 push	 1
  00030	8d 85 93 00 00
	00		 lea	 eax, DWORD PTR _updatetype$[ebp]
  00036	50		 push	 eax
  00037	8b cf		 mov	 ecx, edi
  00039	e8 00 00 00 00	 call	 ?read@?$basic_istream@DV?$char_traits@D@_STL@@@_STL@@QAEAAV12@PADH@Z ; _STL::basic_istream<char,_STL::char_traits<char> >::read

; 43   : 	m_UpdateType = (UPDATETYPE)updatetype;

  0003e	0f b6 85 93 00
	00 00		 movzx	 eax, BYTE PTR _updatetype$[ebp]
  00045	6a 06		 push	 6
  00047	89 46 04	 mov	 DWORD PTR [esi+4], eax
  0004a	83 c6 08	 add	 esi, 8
  0004d	5b		 pop	 ebx
$L100494:

; 44   : 
; 45   : 	//--------------------------------------------------------------------------------
; 46   : 	// load parameters
; 47   : 	//--------------------------------------------------------------------------------
; 48   : 	ParameterLen_t szParam;
; 49   : 	char buf[256];
; 50   : 	for ( uint i = 0 ; i < maxParams ; i ++ ) {
; 51   : 
; 52   : 		//--------------------------------------------------------------------------------
; 53   : 		// load param size
; 54   : 		//--------------------------------------------------------------------------------
; 55   : 		ifile.read( (char *)&szParam , szParameterLen );

  0004e	6a 02		 push	 2
  00050	8d 45 80	 lea	 eax, DWORD PTR _szParam$[ebp]
  00053	50		 push	 eax
  00054	8b cf		 mov	 ecx, edi
  00056	e8 00 00 00 00	 call	 ?read@?$basic_istream@DV?$char_traits@D@_STL@@@_STL@@QAEAAV12@PADH@Z ; _STL::basic_istream<char,_STL::char_traits<char> >::read

; 56   : 
; 57   : 		if ( szParam == 0 )

  0005b	66 83 7d 80 00	 cmp	 WORD PTR _szParam$[ebp], 0
  00060	74 24		 je	 SHORT $L100495

; 58   : 			continue;
; 59   : 
; 60   : 		//--------------------------------------------------------------------------------
; 61   : 		// load param value
; 62   : 		//--------------------------------------------------------------------------------
; 63   : 		ifile.read( buf , szParam );

  00062	0f b7 45 80	 movzx	 eax, WORD PTR _szParam$[ebp]
  00066	50		 push	 eax
  00067	8d 45 84	 lea	 eax, DWORD PTR _buf$[ebp]
  0006a	50		 push	 eax
  0006b	8b cf		 mov	 ecx, edi
  0006d	e8 00 00 00 00	 call	 ?read@?$basic_istream@DV?$char_traits@D@_STL@@@_STL@@QAEAAV12@PADH@Z ; _STL::basic_istream<char,_STL::char_traits<char> >::read

; 64   : 		buf[szParam] = 0;

  00072	0f b7 45 80	 movzx	 eax, WORD PTR _szParam$[ebp]
  00076	c6 44 05 84 00	 mov	 BYTE PTR _buf$[ebp+eax], 0

; 65   : 
; 66   : 		m_Params[i] = buf;

  0007b	8d 45 84	 lea	 eax, DWORD PTR _buf$[ebp]
  0007e	50		 push	 eax
  0007f	8b ce		 mov	 ecx, esi
  00081	e8 00 00 00 00	 call	 ??4?$basic_string@DV?$char_traits@D@_STL@@V?$allocator@D@2@@_STL@@QAEAAV01@PBD@Z ; _STL::basic_string<char,_STL::char_traits<char>,_STL::allocator<char> >::operator=
$L100495:
  00086	83 c6 0c	 add	 esi, 12			; 0000000cH
  00089	4b		 dec	 ebx
  0008a	75 c2		 jne	 SHORT $L100494

; 67   : 		
; 68   : 	}
; 69   : }

  0008c	8b 8d 84 00 00
	00		 mov	 ecx, DWORD PTR __$ArrayPad$[ebp]
  00092	5f		 pop	 edi
  00093	5e		 pop	 esi
  00094	5b		 pop	 ebx
  00095	e8 00 00 00 00	 call	 @__security_check_cookie@4
  0009a	81 c5 88 00 00
	00		 add	 ebp, 136		; 00000088H
  000a0	c9		 leave
  000a1	c2 04 00	 ret	 4
?load@Update@@QAEXAAV?$basic_ifstream@DV?$char_traits@D@_STL@@@_STL@@@Z ENDP ; Update::load
_TEXT	ENDS
PUBLIC	?getFilename@Update@@QAE?AV?$basic_string@DV?$char_traits@D@_STL@@V?$allocator@D@2@@_STL@@I@Z ; Update::getFilename
PUBLIC	??_C@_00CNPNBAHC@?$AA@				; `string'
;	COMDAT ??_C@_00CNPNBAHC@?$AA@
; File c:\stlport-4.6.1\stlport\stl\_alloc.h
CONST	SEGMENT
??_C@_00CNPNBAHC@?$AA@ DB 00H				; `string'
; Function compile flags: /Ogsy
; File c:\darkeden\designed_common\project\client\updater\update.cpp
CONST	ENDS
;	COMDAT ?getFilename@Update@@QAE?AV?$basic_string@DV?$char_traits@D@_STL@@V?$allocator@D@2@@_STL@@I@Z
_TEXT	SEGMENT
$T104065 = -4						; size = 4
___$ReturnUdt$ = 8					; size = 4
$T104063 = 11						; size = 1
_i$ = 12						; size = 4
?getFilename@Update@@QAE?AV?$basic_string@DV?$char_traits@D@_STL@@V?$allocator@D@2@@_STL@@I@Z PROC NEAR ; Update::getFilename, COMDAT
; _this$ = ecx

; 116  : {

  00000	55		 push	 ebp
  00001	8b ec		 mov	 ebp, esp
  00003	51		 push	 ecx

; 117  : 	if ( m_Params[i] != "" ) {

  00004	8b 45 0c	 mov	 eax, DWORD PTR _i$[ebp]
  00007	83 65 fc 00	 and	 DWORD PTR $T104065[ebp], 0
  0000b	56		 push	 esi
  0000c	57		 push	 edi
  0000d	8d 04 40	 lea	 eax, DWORD PTR [eax+eax*2]
  00010	bf 00 00 00 00	 mov	 edi, OFFSET FLAT:??_C@_00CNPNBAHC@?$AA@
  00015	8d 74 81 08	 lea	 esi, DWORD PTR [ecx+eax*4+8]
  00019	57		 push	 edi
  0001a	56		 push	 esi
  0001b	e8 00 00 00 00	 call	 ??$?8DV?$char_traits@D@_STL@@V?$allocator@D@1@@_STL@@YA_NABV?$basic_string@DV?$char_traits@D@_STL@@V?$allocator@D@2@@0@PBD@Z ; _STL::operator==<char,_STL::char_traits<char>,_STL::allocator<char> >
  00020	84 c0		 test	 al, al
  00022	59		 pop	 ecx
  00023	59		 pop	 ecx
  00024	75 2a		 jne	 SHORT $L100564

; 118  : 
; 119  : 		//     .
; 120  : 		uint firstspace = m_Params[i].find_first_of(' ');

  00026	6a 00		 push	 0
  00028	6a 20		 push	 32			; 00000020H
  0002a	8b ce		 mov	 ecx, esi
  0002c	e8 00 00 00 00	 call	 ?find@?$basic_string@DV?$char_traits@D@_STL@@V?$allocator@D@2@@_STL@@QBEIDI@Z ; _STL::basic_string<char,_STL::char_traits<char>,_STL::allocator<char> >::find

; 121  : 
; 122  : 		if ( firstspace == std::string::npos )

  00031	83 f8 ff	 cmp	 eax, -1
  00034	75 0b		 jne	 SHORT $L100567

; 123  : 		{
; 124  : 			return m_Params[i];

  00036	8b 4d 08	 mov	 ecx, DWORD PTR ___$ReturnUdt$[ebp]
  00039	56		 push	 esi
  0003a	e8 00 00 00 00	 call	 ??0?$basic_string@DV?$char_traits@D@_STL@@V?$allocator@D@2@@_STL@@QAE@ABV01@@Z ; _STL::basic_string<char,_STL::char_traits<char>,_STL::allocator<char> >::basic_string<char,_STL::char_traits<char>,_STL::allocator<char> >
  0003f	eb 1c		 jmp	 SHORT $L104079
$L100567:

; 125  : 			//throw InvalidProtocolException("invalid resource format");
; 126  : 		}
; 127  : 
; 128  : 		return m_Params[i].substr( 0 , firstspace );	

  00041	50		 push	 eax
  00042	6a 00		 push	 0
  00044	ff 75 08	 push	 DWORD PTR ___$ReturnUdt$[ebp]
  00047	8b ce		 mov	 ecx, esi
  00049	e8 00 00 00 00	 call	 ?substr@?$basic_string@DV?$char_traits@D@_STL@@V?$allocator@D@2@@_STL@@QBE?AV12@II@Z ; _STL::basic_string<char,_STL::char_traits<char>,_STL::allocator<char> >::substr
  0004e	eb 0d		 jmp	 SHORT $L104079
$L100564:

; 129  : 		//m_FileSize = atoi( m_Params[i].substr( firstspace + 1 , m_Params[i].size() - firstspace ).c_str() );	
; 130  : 
; 131  : 		//cout << toString() << endl;
; 132  : 	}
; 133  : 
; 134  : 	return "";

  00050	8b 4d 08	 mov	 ecx, DWORD PTR ___$ReturnUdt$[ebp]
  00053	8d 45 0b	 lea	 eax, DWORD PTR $T104063[ebp]
  00056	50		 push	 eax
  00057	57		 push	 edi
  00058	e8 00 00 00 00	 call	 ??0?$basic_string@DV?$char_traits@D@_STL@@V?$allocator@D@2@@_STL@@QAE@PBDABV?$allocator@D@1@@Z ; _STL::basic_string<char,_STL::char_traits<char>,_STL::allocator<char> >::basic_string<char,_STL::char_traits<char>,_STL::allocator<char> >
$L104079:
  0005d	8b 45 08	 mov	 eax, DWORD PTR ___$ReturnUdt$[ebp]
  00060	5f		 pop	 edi
  00061	5e		 pop	 esi

; 135  : }

  00062	c9		 leave
  00063	c2 08 00	 ret	 8
?getFilename@Update@@QAE?AV?$basic_string@DV?$char_traits@D@_STL@@V?$allocator@D@2@@_STL@@I@Z ENDP ; Update::getFilename
_TEXT	ENDS
PUBLIC	?getFileSize@Update@@QAEHI@Z			; Update::getFileSize
EXTRN	_atoi:NEAR
; Function compile flags: /Ogsy
;	COMDAT ?getFileSize@Update@@QAEHI@Z
_TEXT	SEGMENT
$T104083 = -12						; size = 12
_i$ = 8							; size = 4
?getFileSize@Update@@QAEHI@Z PROC NEAR			; Update::getFileSize, COMDAT
; _this$ = ecx

; 142  : {

  00000	55		 push	 ebp
  00001	8b ec		 mov	 ebp, esp
  00003	83 ec 0c	 sub	 esp, 12			; 0000000cH

; 143  : 	if ( m_Params[i] != "" ) {

  00006	8b 45 08	 mov	 eax, DWORD PTR _i$[ebp]
  00009	56		 push	 esi
  0000a	8d 04 40	 lea	 eax, DWORD PTR [eax+eax*2]
  0000d	8d 74 81 08	 lea	 esi, DWORD PTR [ecx+eax*4+8]
  00011	68 00 00 00 00	 push	 OFFSET FLAT:??_C@_00CNPNBAHC@?$AA@
  00016	56		 push	 esi
  00017	e8 00 00 00 00	 call	 ??$?8DV?$char_traits@D@_STL@@V?$allocator@D@1@@_STL@@YA_NABV?$basic_string@DV?$char_traits@D@_STL@@V?$allocator@D@2@@0@PBD@Z ; _STL::operator==<char,_STL::char_traits<char>,_STL::allocator<char> >
  0001c	84 c0		 test	 al, al
  0001e	59		 pop	 ecx
  0001f	59		 pop	 ecx
  00020	75 4f		 jne	 SHORT $L100574

; 144  : 
; 145  : 		//     .
; 146  : 		uint firstspace = m_Params[i].find_first_of(' ');

  00022	6a 00		 push	 0
  00024	6a 20		 push	 32			; 00000020H
  00026	8b ce		 mov	 ecx, esi
  00028	e8 00 00 00 00	 call	 ?find@?$basic_string@DV?$char_traits@D@_STL@@V?$allocator@D@2@@_STL@@QBEIDI@Z ; _STL::basic_string<char,_STL::char_traits<char>,_STL::allocator<char> >::find

; 147  : 
; 148  : 		if ( firstspace == std::string::npos )

  0002d	83 f8 ff	 cmp	 eax, -1
  00030	75 0a		 jne	 SHORT $L100576

; 149  : 		{
; 150  : 			return atoi( m_Params[i].c_str() );	

  00032	ff 36		 push	 DWORD PTR [esi]
  00034	e8 00 00 00 00	 call	 _atoi
  00039	59		 pop	 ecx
  0003a	eb 37		 jmp	 SHORT $L100573
$L100576:

; 151  : 			//throw InvalidProtocolException("invalid resource format");
; 152  : 		}
; 153  : 
; 154  : 		return atoi( m_Params[i].substr( firstspace + 1 , m_Params[i].size() - firstspace ).c_str() );	

  0003c	8b 4e 04	 mov	 ecx, DWORD PTR [esi+4]
  0003f	2b c8		 sub	 ecx, eax
  00041	2b 0e		 sub	 ecx, DWORD PTR [esi]
  00043	40		 inc	 eax
  00044	51		 push	 ecx
  00045	50		 push	 eax
  00046	8d 45 f4	 lea	 eax, DWORD PTR $T104083[ebp]
  00049	50		 push	 eax
  0004a	8b ce		 mov	 ecx, esi
  0004c	e8 00 00 00 00	 call	 ?substr@?$basic_string@DV?$char_traits@D@_STL@@V?$allocator@D@2@@_STL@@QBE?AV12@II@Z ; _STL::basic_string<char,_STL::char_traits<char>,_STL::allocator<char> >::substr
  00051	ff 30		 push	 DWORD PTR [eax]
  00053	e8 00 00 00 00	 call	 _atoi
  00058	8b f0		 mov	 esi, eax
  0005a	8b 45 fc	 mov	 eax, DWORD PTR $T104083[ebp+8]
  0005d	2b 45 f4	 sub	 eax, DWORD PTR $T104083[ebp]
  00060	59		 pop	 ecx
  00061	50		 push	 eax
  00062	ff 75 f4	 push	 DWORD PTR $T104083[ebp]
  00065	8d 4d fc	 lea	 ecx, DWORD PTR $T104083[ebp+8]
  00068	e8 00 00 00 00	 call	 ?deallocate@?$allocator@D@_STL@@QAEXPADI@Z ; _STL::allocator<char>::deallocate
  0006d	8b c6		 mov	 eax, esi
  0006f	eb 02		 jmp	 SHORT $L100573
$L100574:

; 155  : 
; 156  : 		//cout << toString() << endl;
; 157  : 	}
; 158  : 
; 159  : 	return 0;

  00071	33 c0		 xor	 eax, eax
$L100573:
  00073	5e		 pop	 esi

; 160  : }

  00074	c9		 leave
  00075	c2 04 00	 ret	 4
?getFileSize@Update@@QAEHI@Z ENDP			; Update::getFileSize
_TEXT	ENDS
PUBLIC	?execute@Update@@QAE_NXZ			; Update::execute
PUBLIC	??_C@_06LMAGPFNF@Update?$AA@			; `string'
EXTRN	?UUFCreateDirectory@@YA_NPBD@Z:NEAR		; UUFCreateDirectory
EXTRN	?UUFDeleteDirectory@@YA_NPBD@Z:NEAR		; UUFDeleteDirectory
EXTRN	?UUFRenameFile@@YA_NPBD0@Z:NEAR			; UUFRenameFile
;	COMDAT xdata$x
; File c:\stlport-4.6.1\stlport\stl\_alloc.h
xdata$x	SEGMENT
$T105539 DD	0ffffffffH
	DD	FLAT:$L104167
	DD	00H
	DD	FLAT:$L104168
	DD	01H
	DD	FLAT:$L104169
	DD	02H
	DD	FLAT:$L104170
	DD	00H
	DD	FLAT:$L104170
	DD	04H
	DD	FLAT:$L104169
	DD	0ffffffffH
	DD	FLAT:$L104170
	DD	06H
	DD	FLAT:$L104171
	DD	0ffffffffH
	DD	FLAT:$L104172
	DD	08H
	DD	FLAT:$L104173
	DD	09H
	DD	FLAT:$L104174
	DD	0aH
	DD	FLAT:$L104175
	DD	08H
	DD	FLAT:$L104175
	DD	0cH
	DD	FLAT:$L104174
	DD	0ffffffffH
	DD	FLAT:$L104175
	DD	0eH
	DD	FLAT:$L104176
	DD	0fH
	DD	FLAT:$L104177
	DD	010H
	DD	FLAT:$L104178
	DD	011H
	DD	FLAT:$L104179
	DD	012H
	DD	FLAT:$L104180
	DD	010H
	DD	FLAT:$L104180
	DD	014H
	DD	FLAT:$L104179
	DD	0fH
	DD	FLAT:$L104180
	DD	016H
	DD	FLAT:$L104181
	DD	0ffffffffH
	DD	FLAT:$L104182
	DD	018H
	DD	FLAT:$L104183
	DD	019H
	DD	FLAT:$L104184
	DD	01aH
	DD	FLAT:$L104185
	DD	018H
	DD	FLAT:$L104185
	DD	01cH
	DD	FLAT:$L104184
	DD	0ffffffffH
	DD	FLAT:$L104185
	DD	01eH
	DD	FLAT:$L104186
	DD	0ffffffffH
	DD	FLAT:$L104187
	DD	020H
	DD	FLAT:$L104188
	DD	021H
	DD	FLAT:$L104189
	DD	022H
	DD	FLAT:$L104190
	DD	020H
	DD	FLAT:$L104190
	DD	024H
	DD	FLAT:$L104189
	DD	0ffffffffH
	DD	FLAT:$L104190
	DD	026H
	DD	FLAT:$L104191
$T105534 DD	019930520H
	DD	028H
	DD	FLAT:$T105539
	DD	2 DUP(00H)
	DD	2 DUP(00H)
xdata$x	ENDS
;	COMDAT ??_C@_06LMAGPFNF@Update?$AA@
CONST	SEGMENT
??_C@_06LMAGPFNF@Update?$AA@ DB 'Update', 00H		; `string'
; Function compile flags: /Ogsy
; File c:\darkeden\designed_common\project\client\updater\update.cpp
CONST	ENDS
;	COMDAT ?execute@Update@@QAE_NXZ
_TEXT	SEGMENT
_tempINF$100639 = -272					; size = 12
$T104146 = -260						; size = 12
_destINF$100645 = -248					; size = 12
$T104148 = -236						; size = 12
$T104162 = -224						; size = 12
$T104143 = -212						; size = 12
$T104163 = -200						; size = 12
$T104151 = -188						; size = 12
$T104165 = -176						; size = 12
$T104152 = -164						; size = 12
$T104157 = -152						; size = 12
$T104155 = -140						; size = 12
$T104158 = -128						; size = 12
$T104149 = -116						; size = 12
$T104160 = -104						; size = 12
$T104144 = -92						; size = 12
$T104153 = -80						; size = 12
_tempFPK$100630 = -68					; size = 12
_destSPK$100618 = -68					; size = 12
_destSPKI$100625 = -56					; size = 12
_tempFile$100593 = -56					; size = 12
_destFPK$100636 = -44					; size = 12
_tempSPK$100612 = -44					; size = 12
_tempSPKI$100619 = -32					; size = 12
_destFile$100607 = -32					; size = 12
tv344 = -20						; size = 4
tv336 = -20						; size = 4
$T104164 = -13						; size = 1
$T104159 = -13						; size = 1
$T104154 = -13						; size = 1
$T104150 = -13						; size = 1
$T104145 = -13						; size = 1
__$EHRec$ = -12						; size = 12
?execute@Update@@QAE_NXZ PROC NEAR			; Update::execute, COMDAT
; _this$ = ecx

; 166  : {

  00000	b8 00 00 00 00	 mov	 eax, __ehhandler$?execute@Update@@QAE_NXZ
  00005	e8 00 00 00 00	 call	 __EH_prolog
  0000a	81 ec 04 01 00
	00		 sub	 esp, 260		; 00000104H
  00010	56		 push	 esi
  00011	8b f1		 mov	 esi, ecx

; 167  : 	
; 168  : 	switch ( m_UpdateType ) 

  00013	8b 46 04	 mov	 eax, DWORD PTR [esi+4]
  00016	83 f8 0b	 cmp	 eax, 11			; 0000000bH
  00019	57		 push	 edi
  0001a	77 18		 ja	 SHORT $L100648
  0001c	ff 24 85 00 00
	00 00		 jmp	 DWORD PTR $L105538[eax*4]
$L100586:

; 169  : 	{
; 170  : 		//------------------------------------------------------------
; 171  : 		//
; 172  : 		//			UPDATETYPE_CREATE_DIRECTORY
; 173  : 		//
; 174  : 		//------------------------------------------------------------
; 175  : 		case UPDATETYPE_CREATE_DIRECTORY :
; 176  : 		{
; 177  : 			if (UUFCreateDirectory( m_Params[0].c_str() ))

  00023	ff 76 08	 push	 DWORD PTR [esi+8]
  00026	e8 00 00 00 00	 call	 ?UUFCreateDirectory@@YA_NPBD@Z ; UUFCreateDirectory
$L105536:
  0002b	84 c0		 test	 al, al
  0002d	59		 pop	 ecx
  0002e	0f 85 c3 04 00
	00		 jne	 $L100647
$L100648:

; 379  : 		}
; 380  : 		break;
; 381  : 
; 382  : 		default :
; 383  : 			break;
; 384  : 	}
; 385  : 
; 386  : 	return false;

  00034	32 c0		 xor	 al, al
$L100581:

; 387  : }

  00036	8b 4d f4	 mov	 ecx, DWORD PTR __$EHRec$[ebp]
  00039	5f		 pop	 edi
  0003a	5e		 pop	 esi
  0003b	64 89 0d 00 00
	00 00		 mov	 DWORD PTR fs:__except_list, ecx
  00042	c9		 leave
  00043	c3		 ret	 0
$L100588:

; 178  : 			{
; 179  : 				return true;
; 180  : 			}
; 181  : 		}
; 182  : 		break;
; 183  : 
; 184  : 		//------------------------------------------------------------
; 185  : 		//
; 186  : 		//			UPDATETYPE_DELETE_DIRECTORY
; 187  : 		//
; 188  : 		//------------------------------------------------------------
; 189  : 		case UPDATETYPE_DELETE_DIRECTORY :
; 190  : 		{
; 191  : 			if (UUFDeleteDirectory( m_Params[0].c_str() ))

  00044	ff 76 08	 push	 DWORD PTR [esi+8]
  00047	e8 00 00 00 00	 call	 ?UUFDeleteDirectory@@YA_NPBD@Z ; UUFDeleteDirectory

; 192  : 			{
; 193  : 				return true;

  0004c	eb dd		 jmp	 SHORT $L105536
$L100590:

; 194  : 			}
; 195  : 		}
; 196  : 		break;
; 197  : 
; 198  : 		//------------------------------------------------------------
; 199  : 		//
; 200  : 		//			UPDATETYPE_RENAME_DIRECTORY
; 201  : 		//
; 202  : 		//------------------------------------------------------------
; 203  : 		case UPDATETYPE_RENAME_DIRECTORY :
; 204  : 		{
; 205  : 			if (UUFRenameFile( m_Params[0].c_str(), m_Params[1].c_str() ))

  0004e	8b 46 14	 mov	 eax, DWORD PTR [esi+20]
  00051	8b 76 08	 mov	 esi, DWORD PTR [esi+8]
  00054	50		 push	 eax
  00055	56		 push	 esi
  00056	e8 00 00 00 00	 call	 ?UUFRenameFile@@YA_NPBD0@Z ; UUFRenameFile
  0005b	59		 pop	 ecx

; 206  : 			{
; 207  : 				return true;

  0005c	eb cd		 jmp	 SHORT $L105536
$L100592:

; 208  : 			}
; 209  : 		}
; 210  : 		break;
; 211  : 
; 212  : 		//------------------------------------------------------------
; 213  : 		//
; 214  : 		//			UPDATETYPE_CREATE_FILE
; 215  : 		//
; 216  : 		//------------------------------------------------------------
; 217  : 		case UPDATETYPE_CREATE_FILE :
; 218  : 		{
; 219  : 			std::string tempFile = std::string(TEMP_DIR) + separator + getFilename(0);

  0005e	6a 00		 push	 0
  00060	8d 85 2c ff ff
	ff		 lea	 eax, DWORD PTR $T104143[ebp]
  00066	50		 push	 eax
  00067	8b ce		 mov	 ecx, esi
  00069	e8 00 00 00 00	 call	 ?getFilename@Update@@QAE?AV?$basic_string@DV?$char_traits@D@_STL@@V?$allocator@D@2@@_STL@@I@Z ; Update::getFilename
  0006e	8b f8		 mov	 edi, eax
  00070	83 65 fc 00	 and	 DWORD PTR __$EHRec$[ebp+8], 0
  00074	8d 45 f3	 lea	 eax, DWORD PTR $T104145[ebp]
  00077	50		 push	 eax
  00078	68 00 00 00 00	 push	 OFFSET FLAT:??_C@_06LMAGPFNF@Update?$AA@
  0007d	8d 4d a4	 lea	 ecx, DWORD PTR $T104144[ebp]
  00080	e8 00 00 00 00	 call	 ??0?$basic_string@DV?$char_traits@D@_STL@@V?$allocator@D@2@@_STL@@QAE@PBDABV?$allocator@D@1@@Z ; _STL::basic_string<char,_STL::char_traits<char>,_STL::allocator<char> >::basic_string<char,_STL::char_traits<char>,_STL::allocator<char> >
  00085	68 00 00 00 00	 push	 OFFSET FLAT:_separator
  0008a	50		 push	 eax
  0008b	8d 85 fc fe ff
	ff		 lea	 eax, DWORD PTR $T104146[ebp]
  00091	50		 push	 eax
  00092	c6 45 fc 01	 mov	 BYTE PTR __$EHRec$[ebp+8], 1
  00096	e8 00 00 00 00	 call	 ??$?HDV?$char_traits@D@_STL@@V?$allocator@D@1@@_STL@@YA?AV?$basic_string@DV?$char_traits@D@_STL@@V?$allocator@D@2@@0@ABV10@0@Z ; _STL::operator+<char,_STL::char_traits<char>,_STL::allocator<char> >
  0009b	57		 push	 edi
  0009c	50		 push	 eax
  0009d	8d 45 c8	 lea	 eax, DWORD PTR _tempFile$100593[ebp]
  000a0	50		 push	 eax
  000a1	c6 45 fc 02	 mov	 BYTE PTR __$EHRec$[ebp+8], 2
  000a5	e8 00 00 00 00	 call	 ??$?HDV?$char_traits@D@_STL@@V?$allocator@D@1@@_STL@@YA?AV?$basic_string@DV?$char_traits@D@_STL@@V?$allocator@D@2@@0@ABV10@0@Z ; _STL::operator+<char,_STL::char_traits<char>,_STL::allocator<char> >
  000aa	83 c4 18	 add	 esp, 24			; 00000018H
  000ad	8b 85 04 ff ff
	ff		 mov	 eax, DWORD PTR $T104146[ebp+8]
  000b3	2b 85 fc fe ff
	ff		 sub	 eax, DWORD PTR $T104146[ebp]
  000b9	8d 8d 04 ff ff
	ff		 lea	 ecx, DWORD PTR $T104146[ebp+8]
  000bf	50		 push	 eax
  000c0	ff b5 fc fe ff
	ff		 push	 DWORD PTR $T104146[ebp]
  000c6	c6 45 fc 05	 mov	 BYTE PTR __$EHRec$[ebp+8], 5
  000ca	e8 00 00 00 00	 call	 ?deallocate@?$allocator@D@_STL@@QAEXPADI@Z ; _STL::allocator<char>::deallocate
  000cf	8b 45 ac	 mov	 eax, DWORD PTR $T104144[ebp+8]
  000d2	2b 45 a4	 sub	 eax, DWORD PTR $T104144[ebp]
  000d5	8d 4d ac	 lea	 ecx, DWORD PTR $T104144[ebp+8]
  000d8	50		 push	 eax
  000d9	ff 75 a4	 push	 DWORD PTR $T104144[ebp]
  000dc	c6 45 fc 04	 mov	 BYTE PTR __$EHRec$[ebp+8], 4
  000e0	e8 00 00 00 00	 call	 ?deallocate@?$allocator@D@_STL@@QAEXPADI@Z ; _STL::allocator<char>::deallocate
  000e5	8b 85 34 ff ff
	ff		 mov	 eax, DWORD PTR $T104143[ebp+8]
  000eb	2b 85 2c ff ff
	ff		 sub	 eax, DWORD PTR $T104143[ebp]
  000f1	8d 8d 34 ff ff
	ff		 lea	 ecx, DWORD PTR $T104143[ebp+8]
  000f7	50		 push	 eax
  000f8	ff b5 2c ff ff
	ff		 push	 DWORD PTR $T104143[ebp]
  000fe	c6 45 fc 06	 mov	 BYTE PTR __$EHRec$[ebp+8], 6
  00102	e8 00 00 00 00	 call	 ?deallocate@?$allocator@D@_STL@@QAEXPADI@Z ; _STL::allocator<char>::deallocate

; 220  : 			std::string destFile = m_Params[1];

  00107	83 c6 14	 add	 esi, 20			; 00000014H
  0010a	56		 push	 esi
  0010b	8d 4d e0	 lea	 ecx, DWORD PTR _destFile$100607[ebp]
  0010e	e8 00 00 00 00	 call	 ??0?$basic_string@DV?$char_traits@D@_STL@@V?$allocator@D@2@@_STL@@QAE@ABV01@@Z ; _STL::basic_string<char,_STL::char_traits<char>,_STL::allocator<char> >::basic_string<char,_STL::char_traits<char>,_STL::allocator<char> >

; 221  : 
; 222  : //			if (PUUFMoveFile( tempFile.c_str(), destFile.c_str() ))
; 223  : 			{
; 224  : 				return true;

  00113	8b 45 e8	 mov	 eax, DWORD PTR _destFile$100607[ebp+8]
  00116	2b 45 e0	 sub	 eax, DWORD PTR _destFile$100607[ebp]
  00119	8d 4d e8	 lea	 ecx, DWORD PTR _destFile$100607[ebp+8]
  0011c	50		 push	 eax
  0011d	ff 75 e0	 push	 DWORD PTR _destFile$100607[ebp]
  00120	c6 45 fc 06	 mov	 BYTE PTR __$EHRec$[ebp+8], 6
  00124	e8 00 00 00 00	 call	 ?deallocate@?$allocator@D@_STL@@QAEXPADI@Z ; _STL::allocator<char>::deallocate
  00129	8b 45 d0	 mov	 eax, DWORD PTR _tempFile$100593[ebp+8]
  0012c	83 4d fc ff	 or	 DWORD PTR __$EHRec$[ebp+8], -1
  00130	2b 45 c8	 sub	 eax, DWORD PTR _tempFile$100593[ebp]
  00133	8d 4d d0	 lea	 ecx, DWORD PTR _tempFile$100593[ebp+8]
  00136	50		 push	 eax
  00137	ff 75 c8	 push	 DWORD PTR _tempFile$100593[ebp]
  0013a	e9 b3 03 00 00	 jmp	 $L105537
$L100611:
  0013f	53		 push	 ebx

; 225  : 			}
; 226  : 		}
; 227  : 		break;
; 228  : 
; 229  : 		//------------------------------------------------------------
; 230  : 		//
; 231  : 		//			UPDATETYPE_DELETE_FILE
; 232  : 		//
; 233  : 		//------------------------------------------------------------
; 234  : 		case UPDATETYPE_DELETE_FILE :
; 235  : 		{
; 236  : //			if (PUUFDeleteFile( m_Params[0].c_str() ))
; 237  : 			{
; 238  : 				return true;
; 239  : 			}
; 240  : 		}
; 241  : 		break;
; 242  : 
; 243  : 		//------------------------------------------------------------
; 244  : 		//
; 245  : 		//			UPDATETYPE_RENAME_FILE
; 246  : 		//
; 247  : 		//------------------------------------------------------------
; 248  : 		case UPDATETYPE_RENAME_FILE :
; 249  : 		{
; 250  : //			if (UUFRenameFile( m_Params[0].c_str(), m_Params[1].c_str() ))
; 251  : 			{
; 252  : 				return true;
; 253  : 			}
; 254  : 		}
; 255  : 		break;
; 256  : 
; 257  : 		//------------------------------------------------------------
; 258  : 		//
; 259  : 		//			UPDATETYPE_APPEND_SPRITE_PACK
; 260  : 		//
; 261  : 		//------------------------------------------------------------
; 262  : 		case UPDATETYPE_APPEND_SPRITE_PACK :
; 263  : 		{
; 264  : 			std::string tempSPK = std::string(TEMP_DIR) + separator + getFilename(0);

  00140	6a 00		 push	 0
  00142	8d 85 14 ff ff
	ff		 lea	 eax, DWORD PTR $T104148[ebp]
  00148	50		 push	 eax
  00149	8b ce		 mov	 ecx, esi
  0014b	e8 00 00 00 00	 call	 ?getFilename@Update@@QAE?AV?$basic_string@DV?$char_traits@D@_STL@@V?$allocator@D@2@@_STL@@I@Z ; Update::getFilename
  00150	89 45 ec	 mov	 DWORD PTR tv336[ebp], eax
  00153	8d 45 f3	 lea	 eax, DWORD PTR $T104150[ebp]
  00156	50		 push	 eax
  00157	bb 00 00 00 00	 mov	 ebx, OFFSET FLAT:??_C@_06LMAGPFNF@Update?$AA@
  0015c	53		 push	 ebx
  0015d	8d 4d 8c	 lea	 ecx, DWORD PTR $T104149[ebp]
  00160	c7 45 fc 08 00
	00 00		 mov	 DWORD PTR __$EHRec$[ebp+8], 8
  00167	e8 00 00 00 00	 call	 ??0?$basic_string@DV?$char_traits@D@_STL@@V?$allocator@D@2@@_STL@@QAE@PBDABV?$allocator@D@1@@Z ; _STL::basic_string<char,_STL::char_traits<char>,_STL::allocator<char> >::basic_string<char,_STL::char_traits<char>,_STL::allocator<char> >
  0016c	bf 00 00 00 00	 mov	 edi, OFFSET FLAT:_separator
  00171	57		 push	 edi
  00172	50		 push	 eax
  00173	8d 85 44 ff ff
	ff		 lea	 eax, DWORD PTR $T104151[ebp]
  00179	50		 push	 eax
  0017a	c6 45 fc 09	 mov	 BYTE PTR __$EHRec$[ebp+8], 9
  0017e	e8 00 00 00 00	 call	 ??$?HDV?$char_traits@D@_STL@@V?$allocator@D@1@@_STL@@YA?AV?$basic_string@DV?$char_traits@D@_STL@@V?$allocator@D@2@@0@ABV10@0@Z ; _STL::operator+<char,_STL::char_traits<char>,_STL::allocator<char> >
  00183	ff 75 ec	 push	 DWORD PTR tv336[ebp]
  00186	c6 45 fc 0a	 mov	 BYTE PTR __$EHRec$[ebp+8], 10 ; 0000000aH
  0018a	50		 push	 eax
  0018b	8d 45 d4	 lea	 eax, DWORD PTR _tempSPK$100612[ebp]
  0018e	50		 push	 eax
  0018f	e8 00 00 00 00	 call	 ??$?HDV?$char_traits@D@_STL@@V?$allocator@D@1@@_STL@@YA?AV?$basic_string@DV?$char_traits@D@_STL@@V?$allocator@D@2@@0@ABV10@0@Z ; _STL::operator+<char,_STL::char_traits<char>,_STL::allocator<char> >
  00194	83 c4 18	 add	 esp, 24			; 00000018H
  00197	8b 85 4c ff ff
	ff		 mov	 eax, DWORD PTR $T104151[ebp+8]
  0019d	2b 85 44 ff ff
	ff		 sub	 eax, DWORD PTR $T104151[ebp]
  001a3	8d 8d 4c ff ff
	ff		 lea	 ecx, DWORD PTR $T104151[ebp+8]
  001a9	50		 push	 eax
  001aa	ff b5 44 ff ff
	ff		 push	 DWORD PTR $T104151[ebp]
  001b0	c6 45 fc 0d	 mov	 BYTE PTR __$EHRec$[ebp+8], 13 ; 0000000dH
  001b4	e8 00 00 00 00	 call	 ?deallocate@?$allocator@D@_STL@@QAEXPADI@Z ; _STL::allocator<char>::deallocate
  001b9	8b 45 94	 mov	 eax, DWORD PTR $T104149[ebp+8]
  001bc	2b 45 8c	 sub	 eax, DWORD PTR $T104149[ebp]
  001bf	8d 4d 94	 lea	 ecx, DWORD PTR $T104149[ebp+8]
  001c2	50		 push	 eax
  001c3	ff 75 8c	 push	 DWORD PTR $T104149[ebp]
  001c6	c6 45 fc 0c	 mov	 BYTE PTR __$EHRec$[ebp+8], 12 ; 0000000cH
  001ca	e8 00 00 00 00	 call	 ?deallocate@?$allocator@D@_STL@@QAEXPADI@Z ; _STL::allocator<char>::deallocate
  001cf	8b 85 1c ff ff
	ff		 mov	 eax, DWORD PTR $T104148[ebp+8]
  001d5	2b 85 14 ff ff
	ff		 sub	 eax, DWORD PTR $T104148[ebp]
  001db	8d 8d 1c ff ff
	ff		 lea	 ecx, DWORD PTR $T104148[ebp+8]
  001e1	50		 push	 eax
  001e2	ff b5 14 ff ff
	ff		 push	 DWORD PTR $T104148[ebp]
  001e8	c6 45 fc 0e	 mov	 BYTE PTR __$EHRec$[ebp+8], 14 ; 0000000eH
  001ec	e8 00 00 00 00	 call	 ?deallocate@?$allocator@D@_STL@@QAEXPADI@Z ; _STL::allocator<char>::deallocate

; 265  : 			std::string destSPK = m_Params[1];

  001f1	8d 46 14	 lea	 eax, DWORD PTR [esi+20]
  001f4	50		 push	 eax
  001f5	8d 4d bc	 lea	 ecx, DWORD PTR _destSPK$100618[ebp]
  001f8	e8 00 00 00 00	 call	 ??0?$basic_string@DV?$char_traits@D@_STL@@V?$allocator@D@2@@_STL@@QAE@ABV01@@Z ; _STL::basic_string<char,_STL::char_traits<char>,_STL::allocator<char> >::basic_string<char,_STL::char_traits<char>,_STL::allocator<char> >

; 266  : 			std::string tempSPKI = std::string(TEMP_DIR) + separator + getFilename(2);			

  001fd	6a 02		 push	 2
  001ff	8d 85 5c ff ff
	ff		 lea	 eax, DWORD PTR $T104152[ebp]
  00205	50		 push	 eax
  00206	8b ce		 mov	 ecx, esi
  00208	c6 45 fc 0f	 mov	 BYTE PTR __$EHRec$[ebp+8], 15 ; 0000000fH
  0020c	e8 00 00 00 00	 call	 ?getFilename@Update@@QAE?AV?$basic_string@DV?$char_traits@D@_STL@@V?$allocator@D@2@@_STL@@I@Z ; Update::getFilename
  00211	89 45 ec	 mov	 DWORD PTR tv344[ebp], eax
  00214	8d 45 f3	 lea	 eax, DWORD PTR $T104154[ebp]
  00217	50		 push	 eax
  00218	53		 push	 ebx
  00219	8d 4d b0	 lea	 ecx, DWORD PTR $T104153[ebp]
  0021c	c6 45 fc 10	 mov	 BYTE PTR __$EHRec$[ebp+8], 16 ; 00000010H
  00220	e8 00 00 00 00	 call	 ??0?$basic_string@DV?$char_traits@D@_STL@@V?$allocator@D@2@@_STL@@QAE@PBDABV?$allocator@D@1@@Z ; _STL::basic_string<char,_STL::char_traits<char>,_STL::allocator<char> >::basic_string<char,_STL::char_traits<char>,_STL::allocator<char> >
  00225	57		 push	 edi
  00226	50		 push	 eax
  00227	8d 85 74 ff ff
	ff		 lea	 eax, DWORD PTR $T104155[ebp]
  0022d	c6 45 fc 11	 mov	 BYTE PTR __$EHRec$[ebp+8], 17 ; 00000011H
  00231	50		 push	 eax
  00232	e8 00 00 00 00	 call	 ??$?HDV?$char_traits@D@_STL@@V?$allocator@D@1@@_STL@@YA?AV?$basic_string@DV?$char_traits@D@_STL@@V?$allocator@D@2@@0@ABV10@0@Z ; _STL::operator+<char,_STL::char_traits<char>,_STL::allocator<char> >
  00237	ff 75 ec	 push	 DWORD PTR tv344[ebp]
  0023a	c6 45 fc 12	 mov	 BYTE PTR __$EHRec$[ebp+8], 18 ; 00000012H
  0023e	50		 push	 eax
  0023f	8d 45 e0	 lea	 eax, DWORD PTR _tempSPKI$100619[ebp]
  00242	50		 push	 eax
  00243	e8 00 00 00 00	 call	 ??$?HDV?$char_traits@D@_STL@@V?$allocator@D@1@@_STL@@YA?AV?$basic_string@DV?$char_traits@D@_STL@@V?$allocator@D@2@@0@ABV10@0@Z ; _STL::operator+<char,_STL::char_traits<char>,_STL::allocator<char> >
  00248	83 c4 18	 add	 esp, 24			; 00000018H
  0024b	8b 85 7c ff ff
	ff		 mov	 eax, DWORD PTR $T104155[ebp+8]
  00251	2b 85 74 ff ff
	ff		 sub	 eax, DWORD PTR $T104155[ebp]
  00257	8d 8d 7c ff ff
	ff		 lea	 ecx, DWORD PTR $T104155[ebp+8]
  0025d	50		 push	 eax
  0025e	ff b5 74 ff ff
	ff		 push	 DWORD PTR $T104155[ebp]
  00264	c6 45 fc 15	 mov	 BYTE PTR __$EHRec$[ebp+8], 21 ; 00000015H
  00268	e8 00 00 00 00	 call	 ?deallocate@?$allocator@D@_STL@@QAEXPADI@Z ; _STL::allocator<char>::deallocate
  0026d	8b 45 b8	 mov	 eax, DWORD PTR $T104153[ebp+8]
  00270	2b 45 b0	 sub	 eax, DWORD PTR $T104153[ebp]
  00273	8d 4d b8	 lea	 ecx, DWORD PTR $T104153[ebp+8]
  00276	50		 push	 eax
  00277	ff 75 b0	 push	 DWORD PTR $T104153[ebp]
  0027a	c6 45 fc 14	 mov	 BYTE PTR __$EHRec$[ebp+8], 20 ; 00000014H
  0027e	e8 00 00 00 00	 call	 ?deallocate@?$allocator@D@_STL@@QAEXPADI@Z ; _STL::allocator<char>::deallocate
  00283	8b 85 64 ff ff
	ff		 mov	 eax, DWORD PTR $T104152[ebp+8]
  00289	2b 85 5c ff ff
	ff		 sub	 eax, DWORD PTR $T104152[ebp]
  0028f	8d 8d 64 ff ff
	ff		 lea	 ecx, DWORD PTR $T104152[ebp+8]
  00295	50		 push	 eax
  00296	ff b5 5c ff ff
	ff		 push	 DWORD PTR $T104152[ebp]
  0029c	c6 45 fc 16	 mov	 BYTE PTR __$EHRec$[ebp+8], 22 ; 00000016H
  002a0	e8 00 00 00 00	 call	 ?deallocate@?$allocator@D@_STL@@QAEXPADI@Z ; _STL::allocator<char>::deallocate

; 267  : 			std::string destSPKI = m_Params[3];

  002a5	83 c6 2c	 add	 esi, 44			; 0000002cH
  002a8	56		 push	 esi
  002a9	8d 4d c8	 lea	 ecx, DWORD PTR _destSPKI$100625[ebp]
  002ac	e8 00 00 00 00	 call	 ??0?$basic_string@DV?$char_traits@D@_STL@@V?$allocator@D@2@@_STL@@QAE@ABV01@@Z ; _STL::basic_string<char,_STL::char_traits<char>,_STL::allocator<char> >::basic_string<char,_STL::char_traits<char>,_STL::allocator<char> >

; 268  : 			
; 269  : //			if (PUUFAppendPack( tempSPK.c_str(),		// src-spk
; 270  : //								destSPK.c_str(),		// dest-spk
; 271  : //								tempSPKI.c_str(),		// src-spki
; 272  : //								destSPKI.c_str() )		// dest-spki
; 273  : //								)
; 274  : 			{
; 275  : 				return true;

  002b1	8b 45 d0	 mov	 eax, DWORD PTR _destSPKI$100625[ebp+8]
  002b4	2b 45 c8	 sub	 eax, DWORD PTR _destSPKI$100625[ebp]
  002b7	8d 4d d0	 lea	 ecx, DWORD PTR _destSPKI$100625[ebp+8]
  002ba	50		 push	 eax
  002bb	ff 75 c8	 push	 DWORD PTR _destSPKI$100625[ebp]
  002be	c6 45 fc 16	 mov	 BYTE PTR __$EHRec$[ebp+8], 22 ; 00000016H
  002c2	e8 00 00 00 00	 call	 ?deallocate@?$allocator@D@_STL@@QAEXPADI@Z ; _STL::allocator<char>::deallocate
  002c7	8b 45 e8	 mov	 eax, DWORD PTR _tempSPKI$100619[ebp+8]
  002ca	2b 45 e0	 sub	 eax, DWORD PTR _tempSPKI$100619[ebp]
  002cd	8d 4d e8	 lea	 ecx, DWORD PTR _tempSPKI$100619[ebp+8]
  002d0	50		 push	 eax
  002d1	ff 75 e0	 push	 DWORD PTR _tempSPKI$100619[ebp]
  002d4	c6 45 fc 0f	 mov	 BYTE PTR __$EHRec$[ebp+8], 15 ; 0000000fH
  002d8	e8 00 00 00 00	 call	 ?deallocate@?$allocator@D@_STL@@QAEXPADI@Z ; _STL::allocator<char>::deallocate
  002dd	8b 45 c4	 mov	 eax, DWORD PTR _destSPK$100618[ebp+8]
  002e0	2b 45 bc	 sub	 eax, DWORD PTR _destSPK$100618[ebp]
  002e3	8d 4d c4	 lea	 ecx, DWORD PTR _destSPK$100618[ebp+8]
  002e6	50		 push	 eax
  002e7	ff 75 bc	 push	 DWORD PTR _destSPK$100618[ebp]
  002ea	c6 45 fc 0e	 mov	 BYTE PTR __$EHRec$[ebp+8], 14 ; 0000000eH
  002ee	e8 00 00 00 00	 call	 ?deallocate@?$allocator@D@_STL@@QAEXPADI@Z ; _STL::allocator<char>::deallocate
  002f3	8b 45 dc	 mov	 eax, DWORD PTR _tempSPK$100612[ebp+8]
  002f6	2b 45 d4	 sub	 eax, DWORD PTR _tempSPK$100612[ebp]
  002f9	83 4d fc ff	 or	 DWORD PTR __$EHRec$[ebp+8], -1
  002fd	50		 push	 eax
  002fe	ff 75 d4	 push	 DWORD PTR _tempSPK$100612[ebp]
  00301	8d 4d dc	 lea	 ecx, DWORD PTR _tempSPK$100612[ebp+8]
  00304	e8 00 00 00 00	 call	 ?deallocate@?$allocator@D@_STL@@QAEXPADI@Z ; _STL::allocator<char>::deallocate
  00309	b0 01		 mov	 al, 1
  0030b	5b		 pop	 ebx
  0030c	e9 25 fd ff ff	 jmp	 $L100581
$L100629:

; 276  : 			}
; 277  : 		}
; 278  : 		break;
; 279  : 
; 280  : 		//------------------------------------------------------------
; 281  : 		//
; 282  : 		//			UPDATETYPE_DELETE_SPRITE_PACK
; 283  : 		//
; 284  : 		//------------------------------------------------------------
; 285  : 		case UPDATETYPE_DELETE_SPRITE_PACK :
; 286  : 		{
; 287  : 			/*
; 288  : 			string tempID = string(TEMP_DIR) + separator + getFilename(0);
; 289  : 			string destSPK = m_Params[1];
; 290  : 			string tempFPK = string(TEMP_DIR) + separator + getFilename(2);
; 291  : 			string destFPK = m_Params[3];
; 292  : 			
; 293  : 			if (UUFDeleteSpritePack(tempID.c_str(),		// id-set
; 294  : 									destSPK.c_str()))		// dest
; 295  : 			{
; 296  : 			}
; 297  : 			else
; 298  : 			{
; 299  : 				return false;
; 300  : 			}
; 301  : 			
; 302  : 			if (UUFMoveFile( tempFPK.c_str(),			// src-fpk
; 303  : 							destFPK.c_str() ))				// dest-fpk
; 304  : 			{
; 305  : 				return true;
; 306  : 			}
; 307  : 			*/
; 308  : 			return true;
; 309  : 		}
; 310  : 		break;
; 311  : 
; 312  : 		//------------------------------------------------------------
; 313  : 		//
; 314  : 		//			UPDATETYPE_UPDATE_SPRITE_PACK
; 315  : 		//
; 316  : 		//------------------------------------------------------------
; 317  : 		case UPDATETYPE_UPDATE_SPRITE_PACK :
; 318  : 		{
; 319  : 			/*
; 320  : 			string tempSPK = string(TEMP_DIR) + separator + getFilename(0);
; 321  : 			string tempID = string(TEMP_DIR) + separator + getFilename(1);
; 322  : 			string destSPK = m_Params[2];
; 323  : 			
; 324  : 			if (UUFUpdateSpritePack(tempSPK.c_str(),		// src-spk
; 325  : 									tempID.c_str(),		// id-set
; 326  : 									destSPK.c_str()))		// dest
; 327  : 			{
; 328  : 				return true;
; 329  : 			}
; 330  : 			*/
; 331  : 			return true;
; 332  : 		}
; 333  : 		break;
; 334  : 
; 335  : 		//------------------------------------------------------------
; 336  : 		//
; 337  : 		//			UPDATETYPE_APPEND_FRAME_PACK
; 338  : 		//
; 339  : 		//------------------------------------------------------------
; 340  : 		case UPDATETYPE_APPEND_FRAME_PACK :
; 341  : 		{
; 342  : 			std::string tempFPK = std::string(TEMP_DIR) + separator + getFilename(0);

  00311	6a 00		 push	 0
  00313	8d 85 68 ff ff
	ff		 lea	 eax, DWORD PTR $T104157[ebp]
  00319	50		 push	 eax
  0031a	8b ce		 mov	 ecx, esi
  0031c	e8 00 00 00 00	 call	 ?getFilename@Update@@QAE?AV?$basic_string@DV?$char_traits@D@_STL@@V?$allocator@D@2@@_STL@@I@Z ; Update::getFilename
  00321	8b f8		 mov	 edi, eax
  00323	8d 45 f3	 lea	 eax, DWORD PTR $T104159[ebp]
  00326	50		 push	 eax
  00327	68 00 00 00 00	 push	 OFFSET FLAT:??_C@_06LMAGPFNF@Update?$AA@
  0032c	8d 4d 80	 lea	 ecx, DWORD PTR $T104158[ebp]
  0032f	c7 45 fc 18 00
	00 00		 mov	 DWORD PTR __$EHRec$[ebp+8], 24 ; 00000018H
  00336	e8 00 00 00 00	 call	 ??0?$basic_string@DV?$char_traits@D@_STL@@V?$allocator@D@2@@_STL@@QAE@PBDABV?$allocator@D@1@@Z ; _STL::basic_string<char,_STL::char_traits<char>,_STL::allocator<char> >::basic_string<char,_STL::char_traits<char>,_STL::allocator<char> >
  0033b	68 00 00 00 00	 push	 OFFSET FLAT:_separator
  00340	50		 push	 eax
  00341	8d 45 98	 lea	 eax, DWORD PTR $T104160[ebp]
  00344	50		 push	 eax
  00345	c6 45 fc 19	 mov	 BYTE PTR __$EHRec$[ebp+8], 25 ; 00000019H
  00349	e8 00 00 00 00	 call	 ??$?HDV?$char_traits@D@_STL@@V?$allocator@D@1@@_STL@@YA?AV?$basic_string@DV?$char_traits@D@_STL@@V?$allocator@D@2@@0@ABV10@0@Z ; _STL::operator+<char,_STL::char_traits<char>,_STL::allocator<char> >
  0034e	57		 push	 edi
  0034f	50		 push	 eax
  00350	8d 45 bc	 lea	 eax, DWORD PTR _tempFPK$100630[ebp]
  00353	50		 push	 eax
  00354	c6 45 fc 1a	 mov	 BYTE PTR __$EHRec$[ebp+8], 26 ; 0000001aH
  00358	e8 00 00 00 00	 call	 ??$?HDV?$char_traits@D@_STL@@V?$allocator@D@1@@_STL@@YA?AV?$basic_string@DV?$char_traits@D@_STL@@V?$allocator@D@2@@0@ABV10@0@Z ; _STL::operator+<char,_STL::char_traits<char>,_STL::allocator<char> >
  0035d	83 c4 18	 add	 esp, 24			; 00000018H
  00360	8b 45 a0	 mov	 eax, DWORD PTR $T104160[ebp+8]
  00363	2b 45 98	 sub	 eax, DWORD PTR $T104160[ebp]
  00366	8d 4d a0	 lea	 ecx, DWORD PTR $T104160[ebp+8]
  00369	50		 push	 eax
  0036a	ff 75 98	 push	 DWORD PTR $T104160[ebp]
  0036d	c6 45 fc 1d	 mov	 BYTE PTR __$EHRec$[ebp+8], 29 ; 0000001dH
  00371	e8 00 00 00 00	 call	 ?deallocate@?$allocator@D@_STL@@QAEXPADI@Z ; _STL::allocator<char>::deallocate
  00376	8b 45 88	 mov	 eax, DWORD PTR $T104158[ebp+8]
  00379	2b 45 80	 sub	 eax, DWORD PTR $T104158[ebp]
  0037c	8d 4d 88	 lea	 ecx, DWORD PTR $T104158[ebp+8]
  0037f	50		 push	 eax
  00380	ff 75 80	 push	 DWORD PTR $T104158[ebp]
  00383	c6 45 fc 1c	 mov	 BYTE PTR __$EHRec$[ebp+8], 28 ; 0000001cH
  00387	e8 00 00 00 00	 call	 ?deallocate@?$allocator@D@_STL@@QAEXPADI@Z ; _STL::allocator<char>::deallocate
  0038c	8b 85 70 ff ff
	ff		 mov	 eax, DWORD PTR $T104157[ebp+8]
  00392	2b 85 68 ff ff
	ff		 sub	 eax, DWORD PTR $T104157[ebp]
  00398	8d 8d 70 ff ff
	ff		 lea	 ecx, DWORD PTR $T104157[ebp+8]
  0039e	50		 push	 eax
  0039f	ff b5 68 ff ff
	ff		 push	 DWORD PTR $T104157[ebp]
  003a5	c6 45 fc 1e	 mov	 BYTE PTR __$EHRec$[ebp+8], 30 ; 0000001eH
  003a9	e8 00 00 00 00	 call	 ?deallocate@?$allocator@D@_STL@@QAEXPADI@Z ; _STL::allocator<char>::deallocate

; 343  : 			std::string destFPK = m_Params[1];

  003ae	83 c6 14	 add	 esi, 20			; 00000014H
  003b1	56		 push	 esi
  003b2	8d 4d d4	 lea	 ecx, DWORD PTR _destFPK$100636[ebp]
  003b5	e8 00 00 00 00	 call	 ??0?$basic_string@DV?$char_traits@D@_STL@@V?$allocator@D@2@@_STL@@QAE@ABV01@@Z ; _STL::basic_string<char,_STL::char_traits<char>,_STL::allocator<char> >::basic_string<char,_STL::char_traits<char>,_STL::allocator<char> >

; 344  : 			
; 345  : //			if (PUUFAppendPack( tempFPK.c_str(),		// src-fpk
; 346  : //								destFPK.c_str() ))		// dest-fpk
; 347  : 			{
; 348  : 				return true;

  003ba	8b 45 dc	 mov	 eax, DWORD PTR _destFPK$100636[ebp+8]
  003bd	2b 45 d4	 sub	 eax, DWORD PTR _destFPK$100636[ebp]
  003c0	8d 4d dc	 lea	 ecx, DWORD PTR _destFPK$100636[ebp+8]
  003c3	50		 push	 eax
  003c4	ff 75 d4	 push	 DWORD PTR _destFPK$100636[ebp]
  003c7	c6 45 fc 1e	 mov	 BYTE PTR __$EHRec$[ebp+8], 30 ; 0000001eH
  003cb	e8 00 00 00 00	 call	 ?deallocate@?$allocator@D@_STL@@QAEXPADI@Z ; _STL::allocator<char>::deallocate
  003d0	8b 45 c4	 mov	 eax, DWORD PTR _tempFPK$100630[ebp+8]
  003d3	83 4d fc ff	 or	 DWORD PTR __$EHRec$[ebp+8], -1
  003d7	2b 45 bc	 sub	 eax, DWORD PTR _tempFPK$100630[ebp]
  003da	8d 4d c4	 lea	 ecx, DWORD PTR _tempFPK$100630[ebp+8]
  003dd	50		 push	 eax
  003de	ff 75 bc	 push	 DWORD PTR _tempFPK$100630[ebp]
  003e1	e9 0c 01 00 00	 jmp	 $L105537
$L100638:

; 349  : 			}
; 350  : 		}
; 351  : 		break;
; 352  : 
; 353  : 		//------------------------------------------------------------
; 354  : 		//
; 355  : 		//			UPDATETYPE_APPEND_INFO
; 356  : 		//
; 357  : 		//------------------------------------------------------------
; 358  : 		case UPDATETYPE_APPEND_INFO :
; 359  : 		{
; 360  : 			std::string tempINF = std::string(TEMP_DIR) + separator + getFilename(0);

  003e6	6a 00		 push	 0
  003e8	8d 85 20 ff ff
	ff		 lea	 eax, DWORD PTR $T104162[ebp]
  003ee	50		 push	 eax
  003ef	8b ce		 mov	 ecx, esi
  003f1	e8 00 00 00 00	 call	 ?getFilename@Update@@QAE?AV?$basic_string@DV?$char_traits@D@_STL@@V?$allocator@D@2@@_STL@@I@Z ; Update::getFilename
  003f6	8b f8		 mov	 edi, eax
  003f8	8d 45 f3	 lea	 eax, DWORD PTR $T104164[ebp]
  003fb	50		 push	 eax
  003fc	68 00 00 00 00	 push	 OFFSET FLAT:??_C@_06LMAGPFNF@Update?$AA@
  00401	8d 8d 38 ff ff
	ff		 lea	 ecx, DWORD PTR $T104163[ebp]
  00407	c7 45 fc 20 00
	00 00		 mov	 DWORD PTR __$EHRec$[ebp+8], 32 ; 00000020H
  0040e	e8 00 00 00 00	 call	 ??0?$basic_string@DV?$char_traits@D@_STL@@V?$allocator@D@2@@_STL@@QAE@PBDABV?$allocator@D@1@@Z ; _STL::basic_string<char,_STL::char_traits<char>,_STL::allocator<char> >::basic_string<char,_STL::char_traits<char>,_STL::allocator<char> >
  00413	68 00 00 00 00	 push	 OFFSET FLAT:_separator
  00418	50		 push	 eax
  00419	8d 85 50 ff ff
	ff		 lea	 eax, DWORD PTR $T104165[ebp]
  0041f	50		 push	 eax
  00420	c6 45 fc 21	 mov	 BYTE PTR __$EHRec$[ebp+8], 33 ; 00000021H
  00424	e8 00 00 00 00	 call	 ??$?HDV?$char_traits@D@_STL@@V?$allocator@D@1@@_STL@@YA?AV?$basic_string@DV?$char_traits@D@_STL@@V?$allocator@D@2@@0@ABV10@0@Z ; _STL::operator+<char,_STL::char_traits<char>,_STL::allocator<char> >
  00429	57		 push	 edi
  0042a	50		 push	 eax
  0042b	8d 85 f0 fe ff
	ff		 lea	 eax, DWORD PTR _tempINF$100639[ebp]
  00431	50		 push	 eax
  00432	c6 45 fc 22	 mov	 BYTE PTR __$EHRec$[ebp+8], 34 ; 00000022H
  00436	e8 00 00 00 00	 call	 ??$?HDV?$char_traits@D@_STL@@V?$allocator@D@1@@_STL@@YA?AV?$basic_string@DV?$char_traits@D@_STL@@V?$allocator@D@2@@0@ABV10@0@Z ; _STL::operator+<char,_STL::char_traits<char>,_STL::allocator<char> >
  0043b	83 c4 18	 add	 esp, 24			; 00000018H
  0043e	8b 85 58 ff ff
	ff		 mov	 eax, DWORD PTR $T104165[ebp+8]
  00444	2b 85 50 ff ff
	ff		 sub	 eax, DWORD PTR $T104165[ebp]
  0044a	8d 8d 58 ff ff
	ff		 lea	 ecx, DWORD PTR $T104165[ebp+8]
  00450	50		 push	 eax
  00451	ff b5 50 ff ff
	ff		 push	 DWORD PTR $T104165[ebp]
  00457	c6 45 fc 25	 mov	 BYTE PTR __$EHRec$[ebp+8], 37 ; 00000025H
  0045b	e8 00 00 00 00	 call	 ?deallocate@?$allocator@D@_STL@@QAEXPADI@Z ; _STL::allocator<char>::deallocate
  00460	8b 85 40 ff ff
	ff		 mov	 eax, DWORD PTR $T104163[ebp+8]
  00466	2b 85 38 ff ff
	ff		 sub	 eax, DWORD PTR $T104163[ebp]
  0046c	8d 8d 40 ff ff
	ff		 lea	 ecx, DWORD PTR $T104163[ebp+8]
  00472	50		 push	 eax
  00473	ff b5 38 ff ff
	ff		 push	 DWORD PTR $T104163[ebp]
  00479	c6 45 fc 24	 mov	 BYTE PTR __$EHRec$[ebp+8], 36 ; 00000024H
  0047d	e8 00 00 00 00	 call	 ?deallocate@?$allocator@D@_STL@@QAEXPADI@Z ; _STL::allocator<char>::deallocate
  00482	8b 85 28 ff ff
	ff		 mov	 eax, DWORD PTR $T104162[ebp+8]
  00488	2b 85 20 ff ff
	ff		 sub	 eax, DWORD PTR $T104162[ebp]
  0048e	8d 8d 28 ff ff
	ff		 lea	 ecx, DWORD PTR $T104162[ebp+8]
  00494	50		 push	 eax
  00495	ff b5 20 ff ff
	ff		 push	 DWORD PTR $T104162[ebp]
  0049b	c6 45 fc 26	 mov	 BYTE PTR __$EHRec$[ebp+8], 38 ; 00000026H
  0049f	e8 00 00 00 00	 call	 ?deallocate@?$allocator@D@_STL@@QAEXPADI@Z ; _STL::allocator<char>::deallocate

; 361  : 			std::string destINF = m_Params[1];

  004a4	83 c6 14	 add	 esi, 20			; 00000014H
  004a7	56		 push	 esi
  004a8	8d 8d 08 ff ff
	ff		 lea	 ecx, DWORD PTR _destINF$100645[ebp]
  004ae	e8 00 00 00 00	 call	 ??0?$basic_string@DV?$char_traits@D@_STL@@V?$allocator@D@2@@_STL@@QAE@ABV01@@Z ; _STL::basic_string<char,_STL::char_traits<char>,_STL::allocator<char> >::basic_string<char,_STL::char_traits<char>,_STL::allocator<char> >

; 362  : 			
; 363  : //			if (PUUFAppendInfo( tempINF.c_str(),		// src-info
; 364  : //								destINF.c_str() ))	// dest-info
; 365  : 			{
; 366  : 				return true;

  004b3	8b 85 10 ff ff
	ff		 mov	 eax, DWORD PTR _destINF$100645[ebp+8]
  004b9	2b 85 08 ff ff
	ff		 sub	 eax, DWORD PTR _destINF$100645[ebp]
  004bf	8d 8d 10 ff ff
	ff		 lea	 ecx, DWORD PTR _destINF$100645[ebp+8]
  004c5	50		 push	 eax
  004c6	ff b5 08 ff ff
	ff		 push	 DWORD PTR _destINF$100645[ebp]
  004cc	c6 45 fc 26	 mov	 BYTE PTR __$EHRec$[ebp+8], 38 ; 00000026H
  004d0	e8 00 00 00 00	 call	 ?deallocate@?$allocator@D@_STL@@QAEXPADI@Z ; _STL::allocator<char>::deallocate
  004d5	8b 85 f8 fe ff
	ff		 mov	 eax, DWORD PTR _tempINF$100639[ebp+8]
  004db	83 4d fc ff	 or	 DWORD PTR __$EHRec$[ebp+8], -1
  004df	2b 85 f0 fe ff
	ff		 sub	 eax, DWORD PTR _tempINF$100639[ebp]
  004e5	8d 8d f8 fe ff
	ff		 lea	 ecx, DWORD PTR _tempINF$100639[ebp+8]
  004eb	50		 push	 eax
  004ec	ff b5 f0 fe ff
	ff		 push	 DWORD PTR _tempINF$100639[ebp]
$L105537:
  004f2	e8 00 00 00 00	 call	 ?deallocate@?$allocator@D@_STL@@QAEXPADI@Z ; _STL::allocator<char>::deallocate
$L100647:

; 367  : 			}
; 368  : 		}
; 369  : 		break;
; 370  : 
; 371  : 		//------------------------------------------------------------
; 372  : 		//
; 373  : 		//			UPDATETYPE_VERIFY
; 374  : 		//
; 375  : 		//------------------------------------------------------------
; 376  : 		case UPDATETYPE_VERIFY :
; 377  : 		{
; 378  : 			return true;

  004f7	b0 01		 mov	 al, 1
  004f9	e9 38 fb ff ff	 jmp	 $L100581
$L105538:

; 387  : }

  004fe	00 00 00 00	 DD	 $L100586
  00502	00 00 00 00	 DD	 $L100588
  00506	00 00 00 00	 DD	 $L100590
  0050a	00 00 00 00	 DD	 $L100592
  0050e	00 00 00 00	 DD	 $L100647
  00512	00 00 00 00	 DD	 $L100647
  00516	00 00 00 00	 DD	 $L100611
  0051a	00 00 00 00	 DD	 $L100647
  0051e	00 00 00 00	 DD	 $L100647
  00522	00 00 00 00	 DD	 $L100629
  00526	00 00 00 00	 DD	 $L100638
  0052a	00 00 00 00	 DD	 $L100647
_TEXT	ENDS
;	COMDAT text$x
text$x	SEGMENT
$L104167:
  00000	8d 8d 2c ff ff
	ff		 lea	 ecx, DWORD PTR $T104143[ebp]
  00006	e9 00 00 00 00	 jmp	 ??1?$basic_string@DV?$char_traits@D@_STL@@V?$allocator@D@2@@_STL@@QAE@XZ ; _STL::basic_string<char,_STL::char_traits<char>,_STL::allocator<char> >::~basic_string<char,_STL::char_traits<char>,_STL::allocator<char> >
$L104168:
  0000b	8d 4d a4	 lea	 ecx, DWORD PTR $T104144[ebp]
  0000e	e9 00 00 00 00	 jmp	 ??1?$basic_string@DV?$char_traits@D@_STL@@V?$allocator@D@2@@_STL@@QAE@XZ ; _STL::basic_string<char,_STL::char_traits<char>,_STL::allocator<char> >::~basic_string<char,_STL::char_traits<char>,_STL::allocator<char> >
$L104169:
  00013	8d 8d fc fe ff
	ff		 lea	 ecx, DWORD PTR $T104146[ebp]
  00019	e9 00 00 00 00	 jmp	 ??1?$basic_string@DV?$char_traits@D@_STL@@V?$allocator@D@2@@_STL@@QAE@XZ ; _STL::basic_string<char,_STL::char_traits<char>,_STL::allocator<char> >::~basic_string<char,_STL::char_traits<char>,_STL::allocator<char> >
$L104170:
  0001e	8d 4d c8	 lea	 ecx, DWORD PTR _tempFile$100593[ebp]
  00021	e9 00 00 00 00	 jmp	 ??1?$basic_string@DV?$char_traits@D@_STL@@V?$allocator@D@2@@_STL@@QAE@XZ ; _STL::basic_string<char,_STL::char_traits<char>,_STL::allocator<char> >::~basic_string<char,_STL::char_traits<char>,_STL::allocator<char> >
$L104171:
  00026	8d 4d e0	 lea	 ecx, DWORD PTR _destFile$100607[ebp]
  00029	e9 00 00 00 00	 jmp	 ??1?$basic_string@DV?$char_traits@D@_STL@@V?$allocator@D@2@@_STL@@QAE@XZ ; _STL::basic_string<char,_STL::char_traits<char>,_STL::allocator<char> >::~basic_string<char,_STL::char_traits<char>,_STL::allocator<char> >
$L104172:
  0002e	8d 8d 14 ff ff
	ff		 lea	 ecx, DWORD PTR $T104148[ebp]
  00034	e9 00 00 00 00	 jmp	 ??1?$basic_string@DV?$char_traits@D@_STL@@V?$allocator@D@2@@_STL@@QAE@XZ ; _STL::basic_string<char,_STL::char_traits<char>,_STL::allocator<char> >::~basic_string<char,_STL::char_traits<char>,_STL::allocator<char> >
$L104173:
  00039	8d 4d 8c	 lea	 ecx, DWORD PTR $T104149[ebp]
  0003c	e9 00 00 00 00	 jmp	 ??1?$basic_string@DV?$char_traits@D@_STL@@V?$allocator@D@2@@_STL@@QAE@XZ ; _STL::basic_string<char,_STL::char_traits<char>,_STL::allocator<char> >::~basic_string<char,_STL::char_traits<char>,_STL::allocator<char> >
$L104174:
  00041	8d 8d 44 ff ff
	ff		 lea	 ecx, DWORD PTR $T104151[ebp]
  00047	e9 00 00 00 00	 jmp	 ??1?$basic_string@DV?$char_traits@D@_STL@@V?$allocator@D@2@@_STL@@QAE@XZ ; _STL::basic_string<char,_STL::char_traits<char>,_STL::allocator<char> >::~basic_string<char,_STL::char_traits<char>,_STL::allocator<char> >
$L104175:
  0004c	8d 4d d4	 lea	 ecx, DWORD PTR _tempSPK$100612[ebp]
  0004f	e9 00 00 00 00	 jmp	 ??1?$basic_string@DV?$char_traits@D@_STL@@V?$allocator@D@2@@_STL@@QAE@XZ ; _STL::basic_string<char,_STL::char_traits<char>,_STL::allocator<char> >::~basic_string<char,_STL::char_traits<char>,_STL::allocator<char> >
$L104176:
  00054	8d 4d bc	 lea	 ecx, DWORD PTR _destSPK$100618[ebp]
  00057	e9 00 00 00 00	 jmp	 ??1?$basic_string@DV?$char_traits@D@_STL@@V?$allocator@D@2@@_STL@@QAE@XZ ; _STL::basic_string<char,_STL::char_traits<char>,_STL::allocator<char> >::~basic_string<char,_STL::char_traits<char>,_STL::allocator<char> >
$L104177:
  0005c	8d 8d 5c ff ff
	ff		 lea	 ecx, DWORD PTR $T104152[ebp]
  00062	e9 00 00 00 00	 jmp	 ??1?$basic_string@DV?$char_traits@D@_STL@@V?$allocator@D@2@@_STL@@QAE@XZ ; _STL::basic_string<char,_STL::char_traits<char>,_STL::allocator<char> >::~basic_string<char,_STL::char_traits<char>,_STL::allocator<char> >
$L104178:
  00067	8d 4d b0	 lea	 ecx, DWORD PTR $T104153[ebp]
  0006a	e9 00 00 00 00	 jmp	 ??1?$basic_string@DV?$char_traits@D@_STL@@V?$allocator@D@2@@_STL@@QAE@XZ ; _STL::basic_string<char,_STL::char_traits<char>,_STL::allocator<char> >::~basic_string<char,_STL::char_traits<char>,_STL::allocator<char> >
$L104179:
  0006f	8d 8d 74 ff ff
	ff		 lea	 ecx, DWORD PTR $T104155[ebp]
  00075	e9 00 00 00 00	 jmp	 ??1?$basic_string@DV?$char_traits@D@_STL@@V?$allocator@D@2@@_STL@@QAE@XZ ; _STL::basic_string<char,_STL::char_traits<char>,_STL::allocator<char> >::~basic_string<char,_STL::char_traits<char>,_STL::allocator<char> >
$L104180:
  0007a	8d 4d e0	 lea	 ecx, DWORD PTR _tempSPKI$100619[ebp]
  0007d	e9 00 00 00 00	 jmp	 ??1?$basic_string@DV?$char_traits@D@_STL@@V?$allocator@D@2@@_STL@@QAE@XZ ; _STL::basic_string<char,_STL::char_traits<char>,_STL::allocator<char> >::~basic_string<char,_STL::char_traits<char>,_STL::allocator<char> >
$L104181:
  00082	8d 4d c8	 lea	 ecx, DWORD PTR _destSPKI$100625[ebp]
  00085	e9 00 00 00 00	 jmp	 ??1?$basic_string@DV?$char_traits@D@_STL@@V?$allocator@D@2@@_STL@@QAE@XZ ; _STL::basic_string<char,_STL::char_traits<char>,_STL::allocator<char> >::~basic_string<char,_STL::char_traits<char>,_STL::allocator<char> >
$L104182:
  0008a	8d 8d 68 ff ff
	ff		 lea	 ecx, DWORD PTR $T104157[ebp]
  00090	e9 00 00 00 00	 jmp	 ??1?$basic_string@DV?$char_traits@D@_STL@@V?$allocator@D@2@@_STL@@QAE@XZ ; _STL::basic_string<char,_STL::char_traits<char>,_STL::allocator<char> >::~basic_string<char,_STL::char_traits<char>,_STL::allocator<char> >
$L104183:
  00095	8d 4d 80	 lea	 ecx, DWORD PTR $T104158[ebp]
  00098	e9 00 00 00 00	 jmp	 ??1?$basic_string@DV?$char_traits@D@_STL@@V?$allocator@D@2@@_STL@@QAE@XZ ; _STL::basic_string<char,_STL::char_traits<char>,_STL::allocator<char> >::~basic_string<char,_STL::char_traits<char>,_STL::allocator<char> >
$L104184:
  0009d	8d 4d 98	 lea	 ecx, DWORD PTR $T104160[ebp]
  000a0	e9 00 00 00 00	 jmp	 ??1?$basic_string@DV?$char_traits@D@_STL@@V?$allocator@D@2@@_STL@@QAE@XZ ; _STL::basic_string<char,_STL::char_traits<char>,_STL::allocator<char> >::~basic_string<char,_STL::char_traits<char>,_STL::allocator<char> >
$L104185:
  000a5	8d 4d bc	 lea	 ecx, DWORD PTR _tempFPK$100630[ebp]
  000a8	e9 00 00 00 00	 jmp	 ??1?$basic_string@DV?$char_traits@D@_STL@@V?$allocator@D@2@@_STL@@QAE@XZ ; _STL::basic_string<char,_STL::char_traits<char>,_STL::allocator<char> >::~basic_string<char,_STL::char_traits<char>,_STL::allocator<char> >
$L104186:
  000ad	8d 4d d4	 lea	 ecx, DWORD PTR _destFPK$100636[ebp]
  000b0	e9 00 00 00 00	 jmp	 ??1?$basic_string@DV?$char_traits@D@_STL@@V?$allocator@D@2@@_STL@@QAE@XZ ; _STL::basic_string<char,_STL::char_traits<char>,_STL::allocator<char> >::~basic_string<char,_STL::char_traits<char>,_STL::allocator<char> >
$L104187:
  000b5	8d 8d 20 ff ff
	ff		 lea	 ecx, DWORD PTR $T104162[ebp]
  000bb	e9 00 00 00 00	 jmp	 ??1?$basic_string@DV?$char_traits@D@_STL@@V?$allocator@D@2@@_STL@@QAE@XZ ; _STL::basic_string<char,_STL::char_traits<char>,_STL::allocator<char> >::~basic_string<char,_STL::char_traits<char>,_STL::allocator<char> >
$L104188:
  000c0	8d 8d 38 ff ff
	ff		 lea	 ecx, DWORD PTR $T104163[ebp]
  000c6	e9 00 00 00 00	 jmp	 ??1?$basic_string@DV?$char_traits@D@_STL@@V?$allocator@D@2@@_STL@@QAE@XZ ; _STL::basic_string<char,_STL::char_traits<char>,_STL::allocator<char> >::~basic_string<char,_STL::char_traits<char>,_STL::allocator<char> >
$L104189:
  000cb	8d 8d 50 ff ff
	ff		 lea	 ecx, DWORD PTR $T104165[ebp]
  000d1	e9 00 00 00 00	 jmp	 ??1?$basic_string@DV?$char_traits@D@_STL@@V?$allocator@D@2@@_STL@@QAE@XZ ; _STL::basic_string<char,_STL::char_traits<char>,_STL::allocator<char> >::~basic_string<char,_STL::char_traits<char>,_STL::allocator<char> >
$L104190:
  000d6	8d 8d f0 fe ff
	ff		 lea	 ecx, DWORD PTR _tempINF$100639[ebp]
  000dc	e9 00 00 00 00	 jmp	 ??1?$basic_string@DV?$char_traits@D@_STL@@V?$allocator@D@2@@_STL@@QAE@XZ ; _STL::basic_string<char,_STL::char_traits<char>,_STL::allocator<char> >::~basic_string<char,_STL::char_traits<char>,_STL::allocator<char> >
$L104191:
  000e1	8d 8d 08 ff ff
	ff		 lea	 ecx, DWORD PTR _destINF$100645[ebp]
  000e7	e9 00 00 00 00	 jmp	 ??1?$basic_string@DV?$char_traits@D@_STL@@V?$allocator@D@2@@_STL@@QAE@XZ ; _STL::basic_string<char,_STL::char_traits<char>,_STL::allocator<char> >::~basic_string<char,_STL::char_traits<char>,_STL::allocator<char> >
__ehhandler$?execute@Update@@QAE_NXZ:
  000ec	b8 00 00 00 00	 mov	 eax, OFFSET FLAT:$T105534
  000f1	e9 00 00 00 00	 jmp	 ___CxxFrameHandler
text$x	ENDS
?execute@Update@@QAE_NXZ ENDP				; Update::execute
PUBLIC	??4Update@@QAEXABV0@@Z				; Update::operator=
; Function compile flags: /Ogsy
;	COMDAT ??4Update@@QAEXABV0@@Z
_TEXT	SEGMENT
_update$ = 8						; size = 4
??4Update@@QAEXABV0@@Z PROC NEAR			; Update::operator=, COMDAT
; _this$ = ecx

; 418  : 	// Client Version
; 419  : 	m_Version = update.m_Version;

  00000	8b 44 24 04	 mov	 eax, DWORD PTR _update$[esp-4]
  00004	66 8b 10	 mov	 dx, WORD PTR [eax]
  00007	53		 push	 ebx
  00008	56		 push	 esi
  00009	57		 push	 edi
  0000a	66 89 11	 mov	 WORD PTR [ecx], dx

; 420  : 
; 421  : 	// update type
; 422  : 	m_UpdateType = update.m_UpdateType;

  0000d	8b 50 04	 mov	 edx, DWORD PTR [eax+4]

; 423  : 
; 424  : 	for (int i=0; i<maxParams; i++)

  00010	8b f8		 mov	 edi, eax
  00012	6a 06		 push	 6
  00014	89 51 04	 mov	 DWORD PTR [ecx+4], edx
  00017	8d 71 08	 lea	 esi, DWORD PTR [ecx+8]
  0001a	2b f9		 sub	 edi, ecx
  0001c	5b		 pop	 ebx
$L100664:

; 425  : 	{
; 426  : 		m_Params[i] = update.m_Params[i];

  0001d	8d 04 37	 lea	 eax, DWORD PTR [edi+esi]
  00020	50		 push	 eax
  00021	8b ce		 mov	 ecx, esi
  00023	e8 00 00 00 00	 call	 ??4?$basic_string@DV?$char_traits@D@_STL@@V?$allocator@D@2@@_STL@@QAEAAV01@ABV01@@Z ; _STL::basic_string<char,_STL::char_traits<char>,_STL::allocator<char> >::operator=
  00028	83 c6 0c	 add	 esi, 12			; 0000000cH
  0002b	4b		 dec	 ebx
  0002c	75 ef		 jne	 SHORT $L100664
  0002e	5f		 pop	 edi
  0002f	5e		 pop	 esi
  00030	5b		 pop	 ebx

; 427  : 	}
; 428  : }

  00031	c2 04 00	 ret	 4
??4Update@@QAEXABV0@@Z ENDP				; Update::operator=
_TEXT	ENDS
PUBLIC	??_C@_01KICIPPFI@?2?$AA@			; `string'
EXTRN	_atexit:NEAR
CRT$XCU	SEGMENT
_$S9	DD	FLAT:_$E7
CRT$XCU	ENDS
;	COMDAT ??_C@_01KICIPPFI@?2?$AA@
; File c:\stlport-4.6.1\stlport\stl\_alloc.h
CONST	SEGMENT
??_C@_01KICIPPFI@?2?$AA@ DB '\', 00H			; `string'
; Function compile flags: /Ogsy
; File c:\darkeden\designed_common\project\client\packet\types\systemtypes.h
CONST	ENDS
;	COMDAT _$E7
text$yc	SEGMENT
$T105549 = -1						; size = 1
_$E7	PROC NEAR					; COMDAT

; 47   : 	const std::string separator = "\\";

  00000	51		 push	 ecx
  00001	8d 44 24 03	 lea	 eax, DWORD PTR $T105549[esp+4]
  00005	50		 push	 eax
  00006	68 00 00 00 00	 push	 OFFSET FLAT:??_C@_01KICIPPFI@?2?$AA@
  0000b	b9 00 00 00 00	 mov	 ecx, OFFSET FLAT:_separator
  00010	e8 00 00 00 00	 call	 ??0?$basic_string@DV?$char_traits@D@_STL@@V?$allocator@D@2@@_STL@@QAE@PBDABV?$allocator@D@1@@Z ; _STL::basic_string<char,_STL::char_traits<char>,_STL::allocator<char> >::basic_string<char,_STL::char_traits<char>,_STL::allocator<char> >
  00015	68 00 00 00 00	 push	 OFFSET FLAT:_$E8
  0001a	e8 00 00 00 00	 call	 _atexit
  0001f	59		 pop	 ecx
  00020	59		 pop	 ecx
  00021	c3		 ret	 0
_$E7	ENDP
text$yc	ENDS
PUBLIC	??_C@_0BM@NLBNCEKG@UPDATETYPE_CREATE_DIRECTORY?$AA@ ; `string'
PUBLIC	??_C@_0BM@IPIPAGHC@UPDATETYPE_DELETE_DIRECTORY?$AA@ ; `string'
PUBLIC	??_C@_0BM@LNFCLKLP@UPDATETYPE_RENAME_DIRECTORY?$AA@ ; `string'
PUBLIC	??_C@_0BH@EOBEEPHC@UPDATETYPE_CREATE_FILE?$AA@	; `string'
PUBLIC	??_C@_0BH@BMLIANHD@UPDATETYPE_DELETE_FILE?$AA@	; `string'
PUBLIC	??_C@_0BH@MFHAOOFO@UPDATETYPE_RENAME_FILE?$AA@	; `string'
PUBLIC	??_C@_0BO@ENKAFKDF@UPDATETYPE_APPEND_SPRITE_PACK?$AA@ ; `string'
PUBLIC	??_C@_0BO@IFFIBIHD@UPDATETYPE_DELETE_SPRITE_PACK?$AA@ ; `string'
PUBLIC	??_C@_0BO@LJIAJNMH@UPDATETYPE_UPDATE_SPRITE_PACK?$AA@ ; `string'
PUBLIC	??_C@_0BN@PLCKHCEI@UPDATETYPE_APPEND_FRAME_PACK?$AA@ ; `string'
PUBLIC	??_C@_0BH@MFNLJHOP@UPDATETYPE_APPEND_INFO?$AA@	; `string'
PUBLIC	??_C@_0BC@IMMFIFOL@UPDATETYPE_VERIFY?$AA@	; `string'
CRT$XCU	SEGMENT
_$S81	DD	FLAT:_$E79
CRT$XCU	ENDS
;	COMDAT xdata$x
; File c:\stlport-4.6.1\stlport\stl\_alloc.h
xdata$x	SEGMENT
$T105658 DD	0ffffffffH
	DD	FLAT:$L105571
	DD	00H
	DD	FLAT:$L105572
	DD	01H
	DD	FLAT:$L105573
	DD	02H
	DD	FLAT:$L105574
	DD	03H
	DD	FLAT:$L105575
	DD	04H
	DD	FLAT:$L105576
	DD	05H
	DD	FLAT:$L105577
	DD	06H
	DD	FLAT:$L105578
	DD	07H
	DD	FLAT:$L105579
	DD	08H
	DD	FLAT:$L105580
	DD	09H
	DD	FLAT:$L105581
$T105656 DD	019930520H
	DD	0bH
	DD	FLAT:$T105658
	DD	2 DUP(00H)
	DD	2 DUP(00H)
xdata$x	ENDS
;	COMDAT ??_C@_0BM@NLBNCEKG@UPDATETYPE_CREATE_DIRECTORY?$AA@
CONST	SEGMENT
??_C@_0BM@NLBNCEKG@UPDATETYPE_CREATE_DIRECTORY?$AA@ DB 'UPDATETYPE_CREATE'
	DB	'_DIRECTORY', 00H				; `string'
CONST	ENDS
;	COMDAT ??_C@_0BM@IPIPAGHC@UPDATETYPE_DELETE_DIRECTORY?$AA@
CONST	SEGMENT
??_C@_0BM@IPIPAGHC@UPDATETYPE_DELETE_DIRECTORY?$AA@ DB 'UPDATETYPE_DELETE'
	DB	'_DIRECTORY', 00H				; `string'
CONST	ENDS
;	COMDAT ??_C@_0BM@LNFCLKLP@UPDATETYPE_RENAME_DIRECTORY?$AA@
CONST	SEGMENT
??_C@_0BM@LNFCLKLP@UPDATETYPE_RENAME_DIRECTORY?$AA@ DB 'UPDATETYPE_RENAME'
	DB	'_DIRECTORY', 00H				; `string'
CONST	ENDS
;	COMDAT ??_C@_0BH@EOBEEPHC@UPDATETYPE_CREATE_FILE?$AA@
CONST	SEGMENT
??_C@_0BH@EOBEEPHC@UPDATETYPE_CREATE_FILE?$AA@ DB 'UPDATETYPE_CREATE_FILE'
	DB	00H						; `string'
CONST	ENDS
;	COMDAT ??_C@_0BH@BMLIANHD@UPDATETYPE_DELETE_FILE?$AA@
CONST	SEGMENT
??_C@_0BH@BMLIANHD@UPDATETYPE_DELETE_FILE?$AA@ DB 'UPDATETYPE_DELETE_FILE'
	DB	00H						; `string'
CONST	ENDS
;	COMDAT ??_C@_0BH@MFHAOOFO@UPDATETYPE_RENAME_FILE?$AA@
CONST	SEGMENT
??_C@_0BH@MFHAOOFO@UPDATETYPE_RENAME_FILE?$AA@ DB 'UPDATETYPE_RENAME_FILE'
	DB	00H						; `string'
CONST	ENDS
;	COMDAT ??_C@_0BO@ENKAFKDF@UPDATETYPE_APPEND_SPRITE_PACK?$AA@
CONST	SEGMENT
??_C@_0BO@ENKAFKDF@UPDATETYPE_APPEND_SPRITE_PACK?$AA@ DB 'UPDATETYPE_APPE'
	DB	'ND_SPRITE_PACK', 00H			; `string'
CONST	ENDS
;	COMDAT ??_C@_0BO@IFFIBIHD@UPDATETYPE_DELETE_SPRITE_PACK?$AA@
CONST	SEGMENT
??_C@_0BO@IFFIBIHD@UPDATETYPE_DELETE_SPRITE_PACK?$AA@ DB 'UPDATETYPE_DELE'
	DB	'TE_SPRITE_PACK', 00H			; `string'
CONST	ENDS
;	COMDAT ??_C@_0BO@LJIAJNMH@UPDATETYPE_UPDATE_SPRITE_PACK?$AA@
CONST	SEGMENT
??_C@_0BO@LJIAJNMH@UPDATETYPE_UPDATE_SPRITE_PACK?$AA@ DB 'UPDATETYPE_UPDA'
	DB	'TE_SPRITE_PACK', 00H			; `string'
CONST	ENDS
;	COMDAT ??_C@_0BN@PLCKHCEI@UPDATETYPE_APPEND_FRAME_PACK?$AA@
CONST	SEGMENT
??_C@_0BN@PLCKHCEI@UPDATETYPE_APPEND_FRAME_PACK?$AA@ DB 'UPDATETYPE_APPEN'
	DB	'D_FRAME_PACK', 00H				; `string'
CONST	ENDS
;	COMDAT ??_C@_0BH@MFNLJHOP@UPDATETYPE_APPEND_INFO?$AA@
CONST	SEGMENT
??_C@_0BH@MFNLJHOP@UPDATETYPE_APPEND_INFO?$AA@ DB 'UPDATETYPE_APPEND_INFO'
	DB	00H						; `string'
CONST	ENDS
;	COMDAT ??_C@_0BC@IMMFIFOL@UPDATETYPE_VERIFY?$AA@
CONST	SEGMENT
??_C@_0BC@IMMFIFOL@UPDATETYPE_VERIFY?$AA@ DB 'UPDATETYPE_VERIFY', 00H ; `string'
; Function compile flags: /Ogsy
; File c:\darkeden\designed_common\project\client\updater\update.h
CONST	ENDS
;	COMDAT _$E79
text$yc	SEGMENT
$T105570 = -13						; size = 1
$T105569 = -13						; size = 1
$T105568 = -13						; size = 1
$T105567 = -13						; size = 1
$T105566 = -13						; size = 1
$T105565 = -13						; size = 1
$T105564 = -13						; size = 1
$T105563 = -13						; size = 1
$T105562 = -13						; size = 1
$T105561 = -13						; size = 1
$T105560 = -13						; size = 1
$T105559 = -13						; size = 1
__$EHRec$ = -12						; size = 12
_$E79	PROC NEAR					; COMDAT

; 36   : const std::string UPDATETYPE2String[] = {

  00000	b8 00 00 00 00	 mov	 eax, __ehhandler$_$E79
  00005	e8 00 00 00 00	 call	 __EH_prolog
  0000a	51		 push	 ecx

; 37   : 	"UPDATETYPE_CREATE_DIRECTORY" ,

  0000b	8d 45 f3	 lea	 eax, DWORD PTR $T105559[ebp]
  0000e	50		 push	 eax
  0000f	68 00 00 00 00	 push	 OFFSET FLAT:??_C@_0BM@NLBNCEKG@UPDATETYPE_CREATE_DIRECTORY?$AA@
  00014	b9 00 00 00 00	 mov	 ecx, OFFSET FLAT:_UPDATETYPE2String
  00019	e8 00 00 00 00	 call	 ??0?$basic_string@DV?$char_traits@D@_STL@@V?$allocator@D@2@@_STL@@QAE@PBDABV?$allocator@D@1@@Z ; _STL::basic_string<char,_STL::char_traits<char>,_STL::allocator<char> >::basic_string<char,_STL::char_traits<char>,_STL::allocator<char> >
  0001e	83 65 fc 00	 and	 DWORD PTR __$EHRec$[ebp+8], 0

; 38   : 	"UPDATETYPE_DELETE_DIRECTORY" ,

  00022	8d 45 f3	 lea	 eax, DWORD PTR $T105560[ebp]
  00025	50		 push	 eax
  00026	68 00 00 00 00	 push	 OFFSET FLAT:??_C@_0BM@IPIPAGHC@UPDATETYPE_DELETE_DIRECTORY?$AA@
  0002b	b9 0c 00 00 00	 mov	 ecx, OFFSET FLAT:_UPDATETYPE2String+12
  00030	e8 00 00 00 00	 call	 ??0?$basic_string@DV?$char_traits@D@_STL@@V?$allocator@D@2@@_STL@@QAE@PBDABV?$allocator@D@1@@Z ; _STL::basic_string<char,_STL::char_traits<char>,_STL::allocator<char> >::basic_string<char,_STL::char_traits<char>,_STL::allocator<char> >

; 39   : 	"UPDATETYPE_RENAME_DIRECTORY" ,

  00035	8d 45 f3	 lea	 eax, DWORD PTR $T105561[ebp]
  00038	50		 push	 eax
  00039	68 00 00 00 00	 push	 OFFSET FLAT:??_C@_0BM@LNFCLKLP@UPDATETYPE_RENAME_DIRECTORY?$AA@
  0003e	b9 18 00 00 00	 mov	 ecx, OFFSET FLAT:_UPDATETYPE2String+24
  00043	c6 45 fc 01	 mov	 BYTE PTR __$EHRec$[ebp+8], 1
  00047	e8 00 00 00 00	 call	 ??0?$basic_string@DV?$char_traits@D@_STL@@V?$allocator@D@2@@_STL@@QAE@PBDABV?$allocator@D@1@@Z ; _STL::basic_string<char,_STL::char_traits<char>,_STL::allocator<char> >::basic_string<char,_STL::char_traits<char>,_STL::allocator<char> >

; 40   : 	"UPDATETYPE_CREATE_FILE",

  0004c	8d 45 f3	 lea	 eax, DWORD PTR $T105562[ebp]
  0004f	50		 push	 eax
  00050	68 00 00 00 00	 push	 OFFSET FLAT:??_C@_0BH@EOBEEPHC@UPDATETYPE_CREATE_FILE?$AA@
  00055	b9 24 00 00 00	 mov	 ecx, OFFSET FLAT:_UPDATETYPE2String+36
  0005a	c6 45 fc 02	 mov	 BYTE PTR __$EHRec$[ebp+8], 2
  0005e	e8 00 00 00 00	 call	 ??0?$basic_string@DV?$char_traits@D@_STL@@V?$allocator@D@2@@_STL@@QAE@PBDABV?$allocator@D@1@@Z ; _STL::basic_string<char,_STL::char_traits<char>,_STL::allocator<char> >::basic_string<char,_STL::char_traits<char>,_STL::allocator<char> >

; 41   : 	"UPDATETYPE_DELETE_FILE",

  00063	8d 45 f3	 lea	 eax, DWORD PTR $T105563[ebp]
  00066	50		 push	 eax
  00067	68 00 00 00 00	 push	 OFFSET FLAT:??_C@_0BH@BMLIANHD@UPDATETYPE_DELETE_FILE?$AA@
  0006c	b9 30 00 00 00	 mov	 ecx, OFFSET FLAT:_UPDATETYPE2String+48
  00071	c6 45 fc 03	 mov	 BYTE PTR __$EHRec$[ebp+8], 3
  00075	e8 00 00 00 00	 call	 ??0?$basic_string@DV?$char_traits@D@_STL@@V?$allocator@D@2@@_STL@@QAE@PBDABV?$allocator@D@1@@Z ; _STL::basic_string<char,_STL::char_traits<char>,_STL::allocator<char> >::basic_string<char,_STL::char_traits<char>,_STL::allocator<char> >

; 42   : 	"UPDATETYPE_RENAME_FILE",

  0007a	8d 45 f3	 lea	 eax, DWORD PTR $T105564[ebp]
  0007d	50		 push	 eax
  0007e	68 00 00 00 00	 push	 OFFSET FLAT:??_C@_0BH@MFHAOOFO@UPDATETYPE_RENAME_FILE?$AA@
  00083	b9 3c 00 00 00	 mov	 ecx, OFFSET FLAT:_UPDATETYPE2String+60
  00088	c6 45 fc 04	 mov	 BYTE PTR __$EHRec$[ebp+8], 4
  0008c	e8 00 00 00 00	 call	 ??0?$basic_string@DV?$char_traits@D@_STL@@V?$allocator@D@2@@_STL@@QAE@PBDABV?$allocator@D@1@@Z ; _STL::basic_string<char,_STL::char_traits<char>,_STL::allocator<char> >::basic_string<char,_STL::char_traits<char>,_STL::allocator<char> >

; 43   : 	"UPDATETYPE_APPEND_SPRITE_PACK" ,

  00091	8d 45 f3	 lea	 eax, DWORD PTR $T105565[ebp]
  00094	50		 push	 eax
  00095	68 00 00 00 00	 push	 OFFSET FLAT:??_C@_0BO@ENKAFKDF@UPDATETYPE_APPEND_SPRITE_PACK?$AA@
  0009a	b9 48 00 00 00	 mov	 ecx, OFFSET FLAT:_UPDATETYPE2String+72
  0009f	c6 45 fc 05	 mov	 BYTE PTR __$EHRec$[ebp+8], 5
  000a3	e8 00 00 00 00	 call	 ??0?$basic_string@DV?$char_traits@D@_STL@@V?$allocator@D@2@@_STL@@QAE@PBDABV?$allocator@D@1@@Z ; _STL::basic_string<char,_STL::char_traits<char>,_STL::allocator<char> >::basic_string<char,_STL::char_traits<char>,_STL::allocator<char> >

; 44   : 	"UPDATETYPE_DELETE_SPRITE_PACK" ,

  000a8	8d 45 f3	 lea	 eax, DWORD PTR $T105566[ebp]
  000ab	50		 push	 eax
  000ac	68 00 00 00 00	 push	 OFFSET FLAT:??_C@_0BO@IFFIBIHD@UPDATETYPE_DELETE_SPRITE_PACK?$AA@
  000b1	b9 54 00 00 00	 mov	 ecx, OFFSET FLAT:_UPDATETYPE2String+84
  000b6	c6 45 fc 06	 mov	 BYTE PTR __$EHRec$[ebp+8], 6
  000ba	e8 00 00 00 00	 call	 ??0?$basic_string@DV?$char_traits@D@_STL@@V?$allocator@D@2@@_STL@@QAE@PBDABV?$allocator@D@1@@Z ; _STL::basic_string<char,_STL::char_traits<char>,_STL::allocator<char> >::basic_string<char,_STL::char_traits<char>,_STL::allocator<char> >

; 45   : 	"UPDATETYPE_UPDATE_SPRITE_PACK" ,

  000bf	8d 45 f3	 lea	 eax, DWORD PTR $T105567[ebp]
  000c2	50		 push	 eax
  000c3	68 00 00 00 00	 push	 OFFSET FLAT:??_C@_0BO@LJIAJNMH@UPDATETYPE_UPDATE_SPRITE_PACK?$AA@
  000c8	b9 60 00 00 00	 mov	 ecx, OFFSET FLAT:_UPDATETYPE2String+96
  000cd	c6 45 fc 07	 mov	 BYTE PTR __$EHRec$[ebp+8], 7
  000d1	e8 00 00 00 00	 call	 ??0?$basic_string@DV?$char_traits@D@_STL@@V?$allocator@D@2@@_STL@@QAE@PBDABV?$allocator@D@1@@Z ; _STL::basic_string<char,_STL::char_traits<char>,_STL::allocator<char> >::basic_string<char,_STL::char_traits<char>,_STL::allocator<char> >

; 46   : 	"UPDATETYPE_APPEND_FRAME_PACK" ,

  000d6	8d 45 f3	 lea	 eax, DWORD PTR $T105568[ebp]
  000d9	50		 push	 eax
  000da	68 00 00 00 00	 push	 OFFSET FLAT:??_C@_0BN@PLCKHCEI@UPDATETYPE_APPEND_FRAME_PACK?$AA@
  000df	b9 6c 00 00 00	 mov	 ecx, OFFSET FLAT:_UPDATETYPE2String+108
  000e4	c6 45 fc 08	 mov	 BYTE PTR __$EHRec$[ebp+8], 8
  000e8	e8 00 00 00 00	 call	 ??0?$basic_string@DV?$char_traits@D@_STL@@V?$allocator@D@2@@_STL@@QAE@PBDABV?$allocator@D@1@@Z ; _STL::basic_string<char,_STL::char_traits<char>,_STL::allocator<char> >::basic_string<char,_STL::char_traits<char>,_STL::allocator<char> >

; 47   : 	"UPDATETYPE_APPEND_INFO" ,

  000ed	8d 45 f3	 lea	 eax, DWORD PTR $T105569[ebp]
  000f0	50		 push	 eax
  000f1	68 00 00 00 00	 push	 OFFSET FLAT:??_C@_0BH@MFNLJHOP@UPDATETYPE_APPEND_INFO?$AA@
  000f6	b9 78 00 00 00	 mov	 ecx, OFFSET FLAT:_UPDATETYPE2String+120
  000fb	c6 45 fc 09	 mov	 BYTE PTR __$EHRec$[ebp+8], 9
  000ff	e8 00 00 00 00	 call	 ??0?$basic_string@DV?$char_traits@D@_STL@@V?$allocator@D@2@@_STL@@QAE@PBDABV?$allocator@D@1@@Z ; _STL::basic_string<char,_STL::char_traits<char>,_STL::allocator<char> >::basic_string<char,_STL::char_traits<char>,_STL::allocator<char> >

; 48   : 	"UPDATETYPE_VERIFY"
; 49   : };

  00104	8d 45 f3	 lea	 eax, DWORD PTR $T105570[ebp]
  00107	50		 push	 eax
  00108	c6 45 fc 0a	 mov	 BYTE PTR __$EHRec$[ebp+8], 10 ; 0000000aH
  0010c	68 00 00 00 00	 push	 OFFSET FLAT:??_C@_0BC@IMMFIFOL@UPDATETYPE_VERIFY?$AA@
  00111	b9 84 00 00 00	 mov	 ecx, OFFSET FLAT:_UPDATETYPE2String+132
  00116	e8 00 00 00 00	 call	 ??0?$basic_string@DV?$char_traits@D@_STL@@V?$allocator@D@2@@_STL@@QAE@PBDABV?$allocator@D@1@@Z ; _STL::basic_string<char,_STL::char_traits<char>,_STL::allocator<char> >::basic_string<char,_STL::char_traits<char>,_STL::allocator<char> >
  0011b	68 00 00 00 00	 push	 OFFSET FLAT:_$E80
  00120	e8 00 00 00 00	 call	 _atexit
  00125	59		 pop	 ecx
  00126	8b 4d f4	 mov	 ecx, DWORD PTR __$EHRec$[ebp]
  00129	64 89 0d 00 00
	00 00		 mov	 DWORD PTR fs:__except_list, ecx
  00130	c9		 leave
  00131	c3		 ret	 0
text$yc	ENDS
;	COMDAT text$x
text$x	SEGMENT
$L105571:
  00000	b9 00 00 00 00	 mov	 ecx, OFFSET FLAT:_UPDATETYPE2String
  00005	e9 00 00 00 00	 jmp	 ??1?$basic_string@DV?$char_traits@D@_STL@@V?$allocator@D@2@@_STL@@QAE@XZ ; _STL::basic_string<char,_STL::char_traits<char>,_STL::allocator<char> >::~basic_string<char,_STL::char_traits<char>,_STL::allocator<char> >
$L105572:
  0000a	b9 0c 00 00 00	 mov	 ecx, OFFSET FLAT:_UPDATETYPE2String+12
  0000f	e9 00 00 00 00	 jmp	 ??1?$basic_string@DV?$char_traits@D@_STL@@V?$allocator@D@2@@_STL@@QAE@XZ ; _STL::basic_string<char,_STL::char_traits<char>,_STL::allocator<char> >::~basic_string<char,_STL::char_traits<char>,_STL::allocator<char> >
$L105573:
  00014	b9 18 00 00 00	 mov	 ecx, OFFSET FLAT:_UPDATETYPE2String+24
  00019	e9 00 00 00 00	 jmp	 ??1?$basic_string@DV?$char_traits@D@_STL@@V?$allocator@D@2@@_STL@@QAE@XZ ; _STL::basic_string<char,_STL::char_traits<char>,_STL::allocator<char> >::~basic_string<char,_STL::char_traits<char>,_STL::allocator<char> >
$L105574:
  0001e	b9 24 00 00 00	 mov	 ecx, OFFSET FLAT:_UPDATETYPE2String+36
  00023	e9 00 00 00 00	 jmp	 ??1?$basic_string@DV?$char_traits@D@_STL@@V?$allocator@D@2@@_STL@@QAE@XZ ; _STL::basic_string<char,_STL::char_traits<char>,_STL::allocator<char> >::~basic_string<char,_STL::char_traits<char>,_STL::allocator<char> >
$L105575:
  00028	b9 30 00 00 00	 mov	 ecx, OFFSET FLAT:_UPDATETYPE2String+48
  0002d	e9 00 00 00 00	 jmp	 ??1?$basic_string@DV?$char_traits@D@_STL@@V?$allocator@D@2@@_STL@@QAE@XZ ; _STL::basic_string<char,_STL::char_traits<char>,_STL::allocator<char> >::~basic_string<char,_STL::char_traits<char>,_STL::allocator<char> >
$L105576:
  00032	b9 3c 00 00 00	 mov	 ecx, OFFSET FLAT:_UPDATETYPE2String+60
  00037	e9 00 00 00 00	 jmp	 ??1?$basic_string@DV?$char_traits@D@_STL@@V?$allocator@D@2@@_STL@@QAE@XZ ; _STL::basic_string<char,_STL::char_traits<char>,_STL::allocator<char> >::~basic_string<char,_STL::char_traits<char>,_STL::allocator<char> >
$L105577:
  0003c	b9 48 00 00 00	 mov	 ecx, OFFSET FLAT:_UPDATETYPE2String+72
  00041	e9 00 00 00 00	 jmp	 ??1?$basic_string@DV?$char_traits@D@_STL@@V?$allocator@D@2@@_STL@@QAE@XZ ; _STL::basic_string<char,_STL::char_traits<char>,_STL::allocator<char> >::~basic_string<char,_STL::char_traits<char>,_STL::allocator<char> >
$L105578:
  00046	b9 54 00 00 00	 mov	 ecx, OFFSET FLAT:_UPDATETYPE2String+84
  0004b	e9 00 00 00 00	 jmp	 ??1?$basic_string@DV?$char_traits@D@_STL@@V?$allocator@D@2@@_STL@@QAE@XZ ; _STL::basic_string<char,_STL::char_traits<char>,_STL::allocator<char> >::~basic_string<char,_STL::char_traits<char>,_STL::allocator<char> >
$L105579:
  00050	b9 60 00 00 00	 mov	 ecx, OFFSET FLAT:_UPDATETYPE2String+96
  00055	e9 00 00 00 00	 jmp	 ??1?$basic_string@DV?$char_traits@D@_STL@@V?$allocator@D@2@@_STL@@QAE@XZ ; _STL::basic_string<char,_STL::char_traits<char>,_STL::allocator<char> >::~basic_string<char,_STL::char_traits<char>,_STL::allocator<char> >
$L105580:
  0005a	b9 6c 00 00 00	 mov	 ecx, OFFSET FLAT:_UPDATETYPE2String+108
  0005f	e9 00 00 00 00	 jmp	 ??1?$basic_string@DV?$char_traits@D@_STL@@V?$allocator@D@2@@_STL@@QAE@XZ ; _STL::basic_string<char,_STL::char_traits<char>,_STL::allocator<char> >::~basic_string<char,_STL::char_traits<char>,_STL::allocator<char> >
$L105581:
  00064	b9 78 00 00 00	 mov	 ecx, OFFSET FLAT:_UPDATETYPE2String+120
  00069	e9 00 00 00 00	 jmp	 ??1?$basic_string@DV?$char_traits@D@_STL@@V?$allocator@D@2@@_STL@@QAE@XZ ; _STL::basic_string<char,_STL::char_traits<char>,_STL::allocator<char> >::~basic_string<char,_STL::char_traits<char>,_STL::allocator<char> >
__ehhandler$_$E79:
  0006e	b8 00 00 00 00	 mov	 eax, OFFSET FLAT:$T105656
  00073	e9 00 00 00 00	 jmp	 ___CxxFrameHandler
text$x	ENDS
_$E79	ENDP
EXTRN	??_M@YGXPAXIHP6EX0@Z@Z:NEAR			; `eh vector destructor iterator'
; Function compile flags: /Ogsy
;	COMDAT _$E80
text$yd	SEGMENT
_$E80	PROC NEAR					; COMDAT
  00000	68 00 00 00 00	 push	 OFFSET FLAT:??1?$basic_string@DV?$char_traits@D@_STL@@V?$allocator@D@2@@_STL@@QAE@XZ ; _STL::basic_string<char,_STL::char_traits<char>,_STL::allocator<char> >::~basic_string<char,_STL::char_traits<char>,_STL::allocator<char> >
  00005	6a 0c		 push	 12			; 0000000cH
  00007	6a 0c		 push	 12			; 0000000cH
  00009	68 00 00 00 00	 push	 OFFSET FLAT:_UPDATETYPE2String
  0000e	e8 00 00 00 00	 call	 ??_M@YGXPAXIHP6EX0@Z@Z
  00013	c3		 ret	 0
_$E80	ENDP
; Function compile flags: /Ogsy
text$yd	ENDS
;	COMDAT _$E8
text$yd	SEGMENT
_$E8	PROC NEAR					; COMDAT
  00000	b9 00 00 00 00	 mov	 ecx, OFFSET FLAT:_separator
  00005	e9 00 00 00 00	 jmp	 ??1?$basic_string@DV?$char_traits@D@_STL@@V?$allocator@D@2@@_STL@@QAE@XZ ; _STL::basic_string<char,_STL::char_traits<char>,_STL::allocator<char> >::~basic_string<char,_STL::char_traits<char>,_STL::allocator<char> >
_$E8	ENDP
text$yd	ENDS
_BSS	SEGMENT
_UPDATETYPE2String DB 090H DUP (?)
_separator DB	0cH DUP (?)
_BSS	ENDS
END
