; Listing generated by Microsoft (R) Optimizing Compiler Version 13.10.3077 

	TITLE	\darkeden\Designed_Common\Project\Client\UserOption.cpp
	.386P
include listing.inc
if @Version gt 510
.model FLAT
else
_TEXT	SEGMENT PARA USE32 PUBLIC 'CODE'
_TEXT	ENDS
_DATA	SEGMENT DWORD USE32 PUBLIC 'DATA'
_DATA	ENDS
CONST	SEGMENT DWORD USE32 PUBLIC 'CONST'
CONST	ENDS
_BSS	SEGMENT DWORD USE32 PUBLIC 'BSS'
_BSS	ENDS
$$SYMBOLS	SEGMENT BYTE USE32 'DEBSYM'
$$SYMBOLS	ENDS
$$TYPES	SEGMENT BYTE USE32 'DEBTYP'
$$TYPES	ENDS
_TLS	SEGMENT DWORD USE32 PUBLIC 'TLS'
_TLS	ENDS
;	COMDAT ??_C@_0BN@ODLNCKCA@Data?2?2Info?2?2ClientConfig?4inf?$AA@
CONST	SEGMENT DWORD USE32 PUBLIC 'CONST'
CONST	ENDS
;	COMDAT ??_C@_0BM@DFPLPGPC@Data?2?2Info?2?2GuildMapper?4inf?$AA@
CONST	SEGMENT DWORD USE32 PUBLIC 'CONST'
CONST	ENDS
;	COMDAT ??_C@_0BN@LHODHNBK@Data?2?2Info?2?2GuildVersion?4inf?$AA@
CONST	SEGMENT DWORD USE32 PUBLIC 'CONST'
CONST	ENDS
;	COMDAT ??_C@_0BH@DDPLNCOL@Data?2?2Info?2?2Player?4inf?$AA@
CONST	SEGMENT DWORD USE32 PUBLIC 'CONST'
CONST	ENDS
;	COMDAT ??_C@_0BL@ILLNAPHB@Data?2?2Info?2?2Resolution?4inf?$AA@
CONST	SEGMENT DWORD USE32 PUBLIC 'CONST'
CONST	ENDS
;	COMDAT ??_C@_0CA@HEIGFDLG@Data?2?2Info?2?2SelectedChannel?4inf?$AA@
CONST	SEGMENT DWORD USE32 PUBLIC 'CONST'
CONST	ENDS
;	COMDAT ??_C@_0P@HNNCBMCJ@?2UserSet?2?$CK?4set?$AA@
CONST	SEGMENT DWORD USE32 PUBLIC 'CONST'
CONST	ENDS
;	COMDAT ??_C@_09MJOMMHD@?2UserSet?2?$AA@
CONST	SEGMENT DWORD USE32 PUBLIC 'CONST'
CONST	ENDS
;	COMDAT ??_C@_0BH@DIHOJNHP@FILE_INFO_CLIENTCONFIG?$AA@
CONST	SEGMENT DWORD USE32 PUBLIC 'CONST'
CONST	ENDS
;	COMDAT ??_C@_0BF@OPBGJOMO@FILE_INFO_USEROPTION?$AA@
CONST	SEGMENT DWORD USE32 PUBLIC 'CONST'
CONST	ENDS
;	COMDAT ??_C@_0N@GOPDCEEB@basic_string?$AA@
CONST	SEGMENT DWORD USE32 PUBLIC 'CONST'
CONST	ENDS
rdata$r	SEGMENT DWORD USE32 PUBLIC 'CONST'
rdata$r	ENDS
text$yc	SEGMENT PARA USE32 PUBLIC 'CODE'
text$yc	ENDS
CRT$XCA	SEGMENT DWORD USE32 PUBLIC 'DATA'
CRT$XCA	ENDS
CRT$XCU	SEGMENT DWORD USE32 PUBLIC 'DATA'
CRT$XCU	ENDS
CRT$XCL	SEGMENT DWORD USE32 PUBLIC 'DATA'
CRT$XCL	ENDS
CRT$XCC	SEGMENT DWORD USE32 PUBLIC 'DATA'
CRT$XCC	ENDS
CRT$XCZ	SEGMENT DWORD USE32 PUBLIC 'DATA'
CRT$XCZ	ENDS
text$yd	SEGMENT PARA USE32 PUBLIC 'CODE'
text$yd	ENDS
;	COMDAT ?start@CNFS@@QAE_NPADH@Z
_TEXT	SEGMENT PARA USE32 PUBLIC 'CODE'
_TEXT	ENDS
;	COMDAT ?end@CNFS@@QAEXXZ
_TEXT	SEGMENT PARA USE32 PUBLIC 'CODE'
_TEXT	ENDS
;	COMDAT ?Init@VirtualFileHeader@@QAEXXZ
_TEXT	SEGMENT PARA USE32 PUBLIC 'CODE'
_TEXT	ENDS
;	COMDAT ??1IFileIO@@UAE@XZ
_TEXT	SEGMENT PARA USE32 PUBLIC 'CODE'
_TEXT	ENDS
;	COMDAT ??_GIFileIO@@UAEPAXI@Z
_TEXT	SEGMENT PARA USE32 PUBLIC 'CODE'
_TEXT	ENDS
;	COMDAT ??0iovfs_base@@QAE@XZ
_TEXT	SEGMENT PARA USE32 PUBLIC 'CODE'
_TEXT	ENDS
;	COMDAT ??_Giovfs_base@@UAEPAXI@Z
_TEXT	SEGMENT PARA USE32 PUBLIC 'CODE'
_TEXT	ENDS
;	COMDAT ??1iovfs_base@@UAE@XZ
_TEXT	SEGMENT PARA USE32 PUBLIC 'CODE'
_TEXT	ENDS
;	COMDAT ?Init@iovfs_base@@QAEXXZ
_TEXT	SEGMENT PARA USE32 PUBLIC 'CODE'
_TEXT	ENDS
;	COMDAT ?is_open@iovfs_base@@QBE_NXZ
_TEXT	SEGMENT PARA USE32 PUBLIC 'CODE'
_TEXT	ENDS
;	COMDAT ??_Givfstream@@UAEPAXI@Z
_TEXT	SEGMENT PARA USE32 PUBLIC 'CODE'
_TEXT	ENDS
;	COMDAT ??0ivfstream@@QAE@PBDH@Z
_TEXT	SEGMENT PARA USE32 PUBLIC 'CODE'
_TEXT	ENDS
;	COMDAT ??1ivfstream@@UAE@XZ
_TEXT	SEGMENT PARA USE32 PUBLIC 'CODE'
_TEXT	ENDS
;	COMDAT ?open@ivfstream@@UAEXPBDH@Z
_TEXT	SEGMENT PARA USE32 PUBLIC 'CODE'
_TEXT	ENDS
;	COMDAT ?read@ivfstream@@QAEXPADI@Z
_TEXT	SEGMENT PARA USE32 PUBLIC 'CODE'
_TEXT	ENDS
;	COMDAT ?eof@ivfstream@@QBE_NXZ
_TEXT	SEGMENT PARA USE32 PUBLIC 'CODE'
_TEXT	ENDS
;	COMDAT ??_Govfstream@@UAEPAXI@Z
_TEXT	SEGMENT PARA USE32 PUBLIC 'CODE'
_TEXT	ENDS
;	COMDAT ??1ovfstream@@UAE@XZ
_TEXT	SEGMENT PARA USE32 PUBLIC 'CODE'
_TEXT	ENDS
;	COMDAT ?open@ovfstream@@UAEXPBDH@Z
_TEXT	SEGMENT PARA USE32 PUBLIC 'CODE'
_TEXT	ENDS
;	COMDAT ??0UserOption@@QAE@XZ
_TEXT	SEGMENT PARA USE32 PUBLIC 'CODE'
_TEXT	ENDS
;	COMDAT ??1UserOption@@QAE@XZ
_TEXT	SEGMENT PARA USE32 PUBLIC 'CODE'
_TEXT	ENDS
;	COMDAT ?SaveToFile@UserOption@@QAEXPBD@Z
_TEXT	SEGMENT PARA USE32 PUBLIC 'CODE'
_TEXT	ENDS
;	COMDAT ??_D?$basic_ofstream@DV?$char_traits@D@_STL@@@_STL@@QAEXXZ
_TEXT	SEGMENT PARA USE32 PUBLIC 'CODE'
_TEXT	ENDS
;	COMDAT ?LoadFromFile@UserOption@@QAE_NPBD@Z
_TEXT	SEGMENT PARA USE32 PUBLIC 'CODE'
_TEXT	ENDS
;	COMDAT ?ResetUserOption@UserOption@@QAEXXZ
_TEXT	SEGMENT PARA USE32 PUBLIC 'CODE'
_TEXT	ENDS
;	COMDAT ?eq@?$__char_traits_base@DH@_STL@@SA_NABD0@Z
_TEXT	SEGMENT PARA USE32 PUBLIC 'CODE'
_TEXT	ENDS
;	COMDAT ?not_eof@?$__char_traits_base@DH@_STL@@SAHABH@Z
_TEXT	SEGMENT PARA USE32 PUBLIC 'CODE'
_TEXT	ENDS
;	COMDAT ?eq_int_type@?$__char_traits_base@DH@_STL@@SA_NABH0@Z
_TEXT	SEGMENT PARA USE32 PUBLIC 'CODE'
_TEXT	ENDS
;	COMDAT ?get_allocator@?$basic_string@DV?$char_traits@D@_STL@@V?$allocator@D@2@@_STL@@QBE?AV?$allocator@D@2@XZ
_TEXT	SEGMENT PARA USE32 PUBLIC 'CODE'
_TEXT	ENDS
;	COMDAT ??4?$basic_string@DV?$char_traits@D@_STL@@V?$allocator@D@2@@_STL@@QAEAAV01@PBD@Z
_TEXT	SEGMENT PARA USE32 PUBLIC 'CODE'
_TEXT	ENDS
;	COMDAT ?_M_terminate_string@?$basic_string@DV?$char_traits@D@_STL@@V?$allocator@D@2@@_STL@@AAEXXZ
_TEXT	SEGMENT PARA USE32 PUBLIC 'CODE'
_TEXT	ENDS
;	COMDAT ?c_str@?$basic_string@DV?$char_traits@D@_STL@@V?$allocator@D@2@@_STL@@QBEPBDXZ
_TEXT	SEGMENT PARA USE32 PUBLIC 'CODE'
_TEXT	ENDS
;	COMDAT ?compare@?$basic_string@DV?$char_traits@D@_STL@@V?$allocator@D@2@@_STL@@QBEHABV12@@Z
_TEXT	SEGMENT PARA USE32 PUBLIC 'CODE'
_TEXT	ENDS
;	COMDAT ??0?$_String_base@DV?$allocator@D@_STL@@@_STL@@QAE@ABV?$allocator@D@1@@Z
_TEXT	SEGMENT PARA USE32 PUBLIC 'CODE'
_TEXT	ENDS
;	COMDAT ?allocate@?$allocator@D@_STL@@QAEPADIPBX@Z
_TEXT	SEGMENT PARA USE32 PUBLIC 'CODE'
_TEXT	ENDS
;	COMDAT ??0?$fpos@H@_STL@@QAE@J@Z
_TEXT	SEGMENT PARA USE32 PUBLIC 'CODE'
_TEXT	ENDS
;	COMDAT ??B?$fpos@H@_STL@@QBEJXZ
_TEXT	SEGMENT PARA USE32 PUBLIC 'CODE'
_TEXT	ENDS
;	COMDAT ?state@?$fpos@H@_STL@@QBEHXZ
_TEXT	SEGMENT PARA USE32 PUBLIC 'CODE'
_TEXT	ENDS
;	COMDAT ?is_open@?$basic_filebuf@DV?$char_traits@D@_STL@@@_STL@@QBE_NXZ
_TEXT	SEGMENT PARA USE32 PUBLIC 'CODE'
_TEXT	ENDS
;	COMDAT ?_M_seek_return@?$basic_filebuf@DV?$char_traits@D@_STL@@@_STL@@AAE?AV?$fpos@H@2@JH@Z
_TEXT	SEGMENT PARA USE32 PUBLIC 'CODE'
_TEXT	ENDS
;	COMDAT ??0?$_Filebuf_Tmp_Buf@D@_STL@@QAE@H@Z
_TEXT	SEGMENT PARA USE32 PUBLIC 'CODE'
_TEXT	ENDS
;	COMDAT ??1?$_Filebuf_Tmp_Buf@D@_STL@@QAE@XZ
_TEXT	SEGMENT PARA USE32 PUBLIC 'CODE'
_TEXT	ENDS
;	COMDAT ??0?$basic_ofstream@DV?$char_traits@D@_STL@@@_STL@@QAE@PBDH@Z
_TEXT	SEGMENT PARA USE32 PUBLIC 'CODE'
_TEXT	ENDS
;	COMDAT ??1?$basic_ofstream@DV?$char_traits@D@_STL@@@_STL@@UAE@XZ
_TEXT	SEGMENT PARA USE32 PUBLIC 'CODE'
_TEXT	ENDS
;	COMDAT ?close@?$basic_ofstream@DV?$char_traits@D@_STL@@@_STL@@QAEXXZ
_TEXT	SEGMENT PARA USE32 PUBLIC 'CODE'
_TEXT	ENDS
;	COMDAT ??_G?$basic_ofstream@DV?$char_traits@D@_STL@@@_STL@@UAEPAXI@Z
_TEXT	SEGMENT PARA USE32 PUBLIC 'CODE'
_TEXT	ENDS
;	COMDAT ?_M_terminate_string_aux@?$basic_string@DV?$char_traits@D@_STL@@V?$allocator@D@2@@_STL@@AAEXABU__true_type@2@@Z
_TEXT	SEGMENT PARA USE32 PUBLIC 'CODE'
_TEXT	ENDS
;	COMDAT ?assign@?$basic_string@DV?$char_traits@D@_STL@@V?$allocator@D@2@@_STL@@QAEAAV12@PBD0@Z
_TEXT	SEGMENT PARA USE32 PUBLIC 'CODE'
_TEXT	ENDS
;	COMDAT ?_M_compare@?$basic_string@DV?$char_traits@D@_STL@@V?$allocator@D@2@@_STL@@SAHPBD000@Z
_TEXT	SEGMENT PARA USE32 PUBLIC 'CODE'
_TEXT	ENDS
;	COMDAT ??0?$allocator@D@_STL@@QAE@ABV01@@Z
_TEXT	SEGMENT PARA USE32 PUBLIC 'CODE'
_TEXT	ENDS
;	COMDAT ??0?$_STLP_alloc_proxy@PADDV?$allocator@D@_STL@@@_STL@@QAE@ABV?$allocator@D@1@PAD@Z
_TEXT	SEGMENT PARA USE32 PUBLIC 'CODE'
_TEXT	ENDS
;	COMDAT ?state@?$fpos@H@_STL@@QAEXH@Z
_TEXT	SEGMENT PARA USE32 PUBLIC 'CODE'
_TEXT	ENDS
;	COMDAT ?setstate@?$basic_ios@DV?$char_traits@D@_STL@@@_STL@@QAEXH@Z
_TEXT	SEGMENT PARA USE32 PUBLIC 'CODE'
_TEXT	ENDS
;	COMDAT ?open@?$basic_filebuf@DV?$char_traits@D@_STL@@@_STL@@QAEPAV12@PBDH@Z
_TEXT	SEGMENT PARA USE32 PUBLIC 'CODE'
_TEXT	ENDS
;	COMDAT ?rdbuf@?$basic_ofstream@DV?$char_traits@D@_STL@@@_STL@@QBEPAV?$basic_filebuf@DV?$char_traits@D@_STL@@@2@XZ
_TEXT	SEGMENT PARA USE32 PUBLIC 'CODE'
_TEXT	ENDS
;	COMDAT ?copy@?$__char_traits_base@DH@_STL@@SAPADPADPBDI@Z
_TEXT	SEGMENT PARA USE32 PUBLIC 'CODE'
_TEXT	ENDS
;	COMDAT ?begin@?$basic_string@DV?$char_traits@D@_STL@@V?$allocator@D@2@@_STL@@QAEPADXZ
_TEXT	SEGMENT PARA USE32 PUBLIC 'CODE'
_TEXT	ENDS
;	COMDAT ?end@?$basic_string@DV?$char_traits@D@_STL@@V?$allocator@D@2@@_STL@@QAEPADXZ
_TEXT	SEGMENT PARA USE32 PUBLIC 'CODE'
_TEXT	ENDS
;	COMDAT ?size@?$basic_string@DV?$char_traits@D@_STL@@V?$allocator@D@2@@_STL@@QBEIXZ
_TEXT	SEGMENT PARA USE32 PUBLIC 'CODE'
_TEXT	ENDS
;	COMDAT ?erase@?$basic_string@DV?$char_traits@D@_STL@@V?$allocator@D@2@@_STL@@QAEPADPAD0@Z
_TEXT	SEGMENT PARA USE32 PUBLIC 'CODE'
_TEXT	ENDS
;	COMDAT ?clear@?$basic_ios@DV?$char_traits@D@_STL@@@_STL@@QAEXH@Z
_TEXT	SEGMENT PARA USE32 PUBLIC 'CODE'
_TEXT	ENDS
;	COMDAT ?move@?$__char_traits_base@DH@_STL@@SAPADPADPBDI@Z
_TEXT	SEGMENT PARA USE32 PUBLIC 'CODE'
_TEXT	ENDS
;	COMDAT ?rdbuf@?$basic_ios@DV?$char_traits@D@_STL@@@_STL@@QBEPAV?$basic_streambuf@DV?$char_traits@D@_STL@@@2@XZ
_TEXT	SEGMENT PARA USE32 PUBLIC 'CODE'
_TEXT	ENDS
;	COMDAT ??$_M_range_initialize@PBD@?$basic_string@DV?$char_traits@D@_STL@@V?$allocator@D@2@@_STL@@AAEXPBD0@Z
_TEXT	SEGMENT PARA USE32 PUBLIC 'CODE'
_TEXT	ENDS
;	COMDAT ??$_M_range_initialize@PAD@?$basic_string@DV?$char_traits@D@_STL@@V?$allocator@D@2@@_STL@@AAEXPAD0@Z
_TEXT	SEGMENT PARA USE32 PUBLIC 'CODE'
_TEXT	ENDS
;	COMDAT ??0?$basic_ostream@DV?$char_traits@D@_STL@@@_STL@@QAE@PAV?$basic_streambuf@DV?$char_traits@D@_STL@@@1@@Z
_TEXT	SEGMENT PARA USE32 PUBLIC 'CODE'
_TEXT	ENDS
;	COMDAT ?write@?$basic_ostream@DV?$char_traits@D@_STL@@@_STL@@QAEAAV12@PBDH@Z
_TEXT	SEGMENT PARA USE32 PUBLIC 'CODE'
_TEXT	ENDS
;	COMDAT ??0?$basic_filebuf@DV?$char_traits@D@_STL@@@_STL@@QAE@XZ
_TEXT	SEGMENT PARA USE32 PUBLIC 'CODE'
_TEXT	ENDS
;	COMDAT ?close@?$basic_filebuf@DV?$char_traits@D@_STL@@@_STL@@QAEPAV12@XZ
_TEXT	SEGMENT PARA USE32 PUBLIC 'CODE'
_TEXT	ENDS
;	COMDAT ?_M_exit_input_mode@?$basic_filebuf@DV?$char_traits@D@_STL@@@_STL@@AAEXXZ
_TEXT	SEGMENT PARA USE32 PUBLIC 'CODE'
_TEXT	ENDS
;	COMDAT ?_M_switch_to_output_mode@?$basic_filebuf@DV?$char_traits@D@_STL@@@_STL@@AAE_NXZ
_TEXT	SEGMENT PARA USE32 PUBLIC 'CODE'
_TEXT	ENDS
;	COMDAT ?_M_output_error@?$basic_filebuf@DV?$char_traits@D@_STL@@@_STL@@AAEHXZ
_TEXT	SEGMENT PARA USE32 PUBLIC 'CODE'
_TEXT	ENDS
;	COMDAT ?_M_allocate_buffers@?$basic_filebuf@DV?$char_traits@D@_STL@@@_STL@@AAE_NPADH@Z
_TEXT	SEGMENT PARA USE32 PUBLIC 'CODE'
_TEXT	ENDS
;	COMDAT ?_M_deallocate_buffers@?$basic_filebuf@DV?$char_traits@D@_STL@@@_STL@@AAEXXZ
_TEXT	SEGMENT PARA USE32 PUBLIC 'CODE'
_TEXT	ENDS
;	COMDAT ?_M_seek_init@?$basic_filebuf@DV?$char_traits@D@_STL@@@_STL@@AAE_N_N@Z
_TEXT	SEGMENT PARA USE32 PUBLIC 'CODE'
_TEXT	ENDS
;	COMDAT ?_M_setup_codecvt@?$basic_filebuf@DV?$char_traits@D@_STL@@@_STL@@AAEXABVlocale@2@@Z
_TEXT	SEGMENT PARA USE32 PUBLIC 'CODE'
_TEXT	ENDS
;	COMDAT ??$equal@PADPADU?$_Eq_traits@V?$char_traits@D@_STL@@@_STL@@@_STL@@YA_NPAD00U?$_Eq_traits@V?$char_traits@D@_STL@@@0@@Z
_TEXT	SEGMENT PARA USE32 PUBLIC 'CODE'
_TEXT	ENDS
;	COMDAT ??$_Destroy@V?$basic_string@DV?$char_traits@D@_STL@@V?$allocator@D@2@@_STL@@@_STL@@YAXPAV?$basic_string@DV?$char_traits@D@_STL@@V?$allocator@D@2@@0@@Z
_TEXT	SEGMENT PARA USE32 PUBLIC 'CODE'
_TEXT	ENDS
;	COMDAT ??$_M_assign_dispatch@PAD@?$basic_string@DV?$char_traits@D@_STL@@V?$allocator@D@2@@_STL@@AAEAAV01@PAD0ABU__false_type@1@@Z
_TEXT	SEGMENT PARA USE32 PUBLIC 'CODE'
_TEXT	ENDS
;	COMDAT ??0?$basic_ios@DV?$char_traits@D@_STL@@@_STL@@IAE@XZ
_TEXT	SEGMENT PARA USE32 PUBLIC 'CODE'
_TEXT	ENDS
;	COMDAT ?init@?$basic_ios@DV?$char_traits@D@_STL@@@_STL@@IAEXPAV?$basic_streambuf@DV?$char_traits@D@_STL@@@2@@Z
_TEXT	SEGMENT PARA USE32 PUBLIC 'CODE'
_TEXT	ENDS
;	COMDAT ??$append@PBD@?$basic_string@DV?$char_traits@D@_STL@@V?$allocator@D@2@@_STL@@QAEAAV01@PBD0@Z
_TEXT	SEGMENT PARA USE32 PUBLIC 'CODE'
_TEXT	ENDS
;	COMDAT ??_G?$basic_string@DV?$char_traits@D@_STL@@V?$allocator@D@2@@_STL@@QAEPAXI@Z
_TEXT	SEGMENT PARA USE32 PUBLIC 'CODE'
_TEXT	ENDS
;	COMDAT ?tie@?$basic_ios@DV?$char_traits@D@_STL@@@_STL@@QAEPAV?$basic_ostream@DV?$char_traits@D@_STL@@@2@PAV32@@Z
_TEXT	SEGMENT PARA USE32 PUBLIC 'CODE'
_TEXT	ENDS
;	COMDAT ?fill@?$basic_ios@DV?$char_traits@D@_STL@@@_STL@@QAEDD@Z
_TEXT	SEGMENT PARA USE32 PUBLIC 'CODE'
_TEXT	ENDS
;	COMDAT ?_M_exit_putback_mode@?$basic_filebuf@DV?$char_traits@D@_STL@@@_STL@@AAEXXZ
_TEXT	SEGMENT PARA USE32 PUBLIC 'CODE'
_TEXT	ENDS
;	COMDAT ??R?$_Eq_traits@V?$char_traits@D@_STL@@@_STL@@QBE_NABD0@Z
_TEXT	SEGMENT PARA USE32 PUBLIC 'CODE'
_TEXT	ENDS
;	COMDAT ??0sentry@?$basic_ostream@DV?$char_traits@D@_STL@@@_STL@@QAE@AAV12@@Z
_TEXT	SEGMENT PARA USE32 PUBLIC 'CODE'
_TEXT	ENDS
;	COMDAT ??1sentry@?$basic_ostream@DV?$char_traits@D@_STL@@@_STL@@QAE@XZ
_TEXT	SEGMENT PARA USE32 PUBLIC 'CODE'
_TEXT	ENDS
;	COMDAT ??Bsentry@?$basic_ostream@DV?$char_traits@D@_STL@@@_STL@@QBE_NXZ
_TEXT	SEGMENT PARA USE32 PUBLIC 'CODE'
_TEXT	ENDS
;	COMDAT ?flush@?$basic_ostream@DV?$char_traits@D@_STL@@@_STL@@QAEAAV12@XZ
_TEXT	SEGMENT PARA USE32 PUBLIC 'CODE'
_TEXT	ENDS
;	COMDAT ??$_M_range_initialize@PBD@?$basic_string@DV?$char_traits@D@_STL@@V?$allocator@D@2@@_STL@@AAEXPBD0ABUforward_iterator_tag@1@@Z
_TEXT	SEGMENT PARA USE32 PUBLIC 'CODE'
_TEXT	ENDS
;	COMDAT ??$_M_range_initialize@PAD@?$basic_string@DV?$char_traits@D@_STL@@V?$allocator@D@2@@_STL@@AAEXPAD0ABUforward_iterator_tag@1@@Z
_TEXT	SEGMENT PARA USE32 PUBLIC 'CODE'
_TEXT	ENDS
;	COMDAT ?rdbuf@?$basic_ios@DV?$char_traits@D@_STL@@@_STL@@QAEPAV?$basic_streambuf@DV?$char_traits@D@_STL@@@2@PAV32@@Z
_TEXT	SEGMENT PARA USE32 PUBLIC 'CODE'
_TEXT	ENDS
;	COMDAT ?imbue@?$basic_ios@DV?$char_traits@D@_STL@@@_STL@@QAE?AVlocale@2@ABV32@@Z
_TEXT	SEGMENT PARA USE32 PUBLIC 'CODE'
_TEXT	ENDS
;	COMDAT ?widen@?$basic_ios@DV?$char_traits@D@_STL@@@_STL@@QBEDD@Z
_TEXT	SEGMENT PARA USE32 PUBLIC 'CODE'
_TEXT	ENDS
;	COMDAT ?_M_handle_exception@?$basic_ios@DV?$char_traits@D@_STL@@@_STL@@QAEXH@Z
_TEXT	SEGMENT PARA USE32 PUBLIC 'CODE'
_TEXT	ENDS
;	COMDAT ?_M_unshift@?$basic_filebuf@DV?$char_traits@D@_STL@@@_STL@@AAE_NXZ
_TEXT	SEGMENT PARA USE32 PUBLIC 'CODE'
_TEXT	ENDS
;	COMDAT ?_M_allocate_buffers@?$basic_filebuf@DV?$char_traits@D@_STL@@@_STL@@AAE_NXZ
_TEXT	SEGMENT PARA USE32 PUBLIC 'CODE'
_TEXT	ENDS
;	COMDAT ??$max@H@_STL@@YAABHABH0@Z
_TEXT	SEGMENT PARA USE32 PUBLIC 'CODE'
_TEXT	ENDS
;	COMDAT ??$use_facet@V?$codecvt@DDH@_STL@@@_STL@@YAABV?$codecvt@DDH@0@ABVlocale@0@@Z
_TEXT	SEGMENT PARA USE32 PUBLIC 'CODE'
_TEXT	ENDS
;	COMDAT ??$append@PAD@?$basic_string@DV?$char_traits@D@_STL@@V?$allocator@D@2@@_STL@@QAEAAV01@PAD0@Z
_TEXT	SEGMENT PARA USE32 PUBLIC 'CODE'
_TEXT	ENDS
;	COMDAT ??$_M_append_dispatch@PBD@?$basic_string@DV?$char_traits@D@_STL@@V?$allocator@D@2@@_STL@@AAEAAV01@PBD0ABU__false_type@1@@Z
_TEXT	SEGMENT PARA USE32 PUBLIC 'CODE'
_TEXT	ENDS
;	COMDAT ??$_M_init@DV?$char_traits@D@_STL@@@_STL@@YA_NAAV?$basic_ostream@DV?$char_traits@D@_STL@@@0@@Z
_TEXT	SEGMENT PARA USE32 PUBLIC 'CODE'
_TEXT	ENDS
;	COMDAT ?tie@?$basic_ios@DV?$char_traits@D@_STL@@@_STL@@QBEPAV?$basic_ostream@DV?$char_traits@D@_STL@@@2@XZ
_TEXT	SEGMENT PARA USE32 PUBLIC 'CODE'
_TEXT	ENDS
;	COMDAT ??$distance@PBD@_STL@@YAHABQBD0@Z
_TEXT	SEGMENT PARA USE32 PUBLIC 'CODE'
_TEXT	ENDS
;	COMDAT ?_M_allocate_block@?$_String_base@DV?$allocator@D@_STL@@@_STL@@QAEXI@Z
_TEXT	SEGMENT PARA USE32 PUBLIC 'CODE'
_TEXT	ENDS
;	COMDAT ??$distance@PAD@_STL@@YAHABQAD0@Z
_TEXT	SEGMENT PARA USE32 PUBLIC 'CODE'
_TEXT	ENDS
;	COMDAT ??$uninitialized_copy@PADPAD@_STL@@YAPADPAD00@Z
_TEXT	SEGMENT PARA USE32 PUBLIC 'CODE'
_TEXT	ENDS
;	COMDAT ??$_M_append_dispatch@PAD@?$basic_string@DV?$char_traits@D@_STL@@V?$allocator@D@2@@_STL@@AAEAAV01@PAD0ABU__false_type@1@@Z
_TEXT	SEGMENT PARA USE32 PUBLIC 'CODE'
_TEXT	ENDS
;	COMDAT ??$append@PBD@?$basic_string@DV?$char_traits@D@_STL@@V?$allocator@D@2@@_STL@@AAEAAV01@PBD0ABUforward_iterator_tag@1@@Z
_TEXT	SEGMENT PARA USE32 PUBLIC 'CODE'
_TEXT	ENDS
;	COMDAT ?_M_construct_null@?$basic_string@DV?$char_traits@D@_STL@@V?$allocator@D@2@@_STL@@AAEXPAD@Z
_TEXT	SEGMENT PARA USE32 PUBLIC 'CODE'
_TEXT	ENDS
;	COMDAT ?max_size@?$basic_string@DV?$char_traits@D@_STL@@V?$allocator@D@2@@_STL@@QBEIXZ
_TEXT	SEGMENT PARA USE32 PUBLIC 'CODE'
_TEXT	ENDS
;	COMDAT ?capacity@?$basic_string@DV?$char_traits@D@_STL@@V?$allocator@D@2@@_STL@@QBEIXZ
_TEXT	SEGMENT PARA USE32 PUBLIC 'CODE'
_TEXT	ENDS
;	COMDAT ?max_size@?$_String_base@DV?$allocator@D@_STL@@@_STL@@QBEIXZ
_TEXT	SEGMENT PARA USE32 PUBLIC 'CODE'
_TEXT	ENDS
;	COMDAT ?_M_construct_null_aux@?$basic_string@DV?$char_traits@D@_STL@@V?$allocator@D@2@@_STL@@AAEXPADABU__true_type@2@@Z
_TEXT	SEGMENT PARA USE32 PUBLIC 'CODE'
_TEXT	ENDS
;	COMDAT ??$__distance@PBD@_STL@@YAHABQBD0ABUrandom_access_iterator_tag@0@@Z
_TEXT	SEGMENT PARA USE32 PUBLIC 'CODE'
_TEXT	ENDS
;	COMDAT ?_M_throw_length_error@?$_String_base@DV?$allocator@D@_STL@@@_STL@@QBEXXZ
_TEXT	SEGMENT PARA USE32 PUBLIC 'CODE'
_TEXT	ENDS
;	COMDAT ??$__distance@PAD@_STL@@YAHABQAD0ABUrandom_access_iterator_tag@0@@Z
_TEXT	SEGMENT PARA USE32 PUBLIC 'CODE'
_TEXT	ENDS
;	COMDAT ??$__uninitialized_copy@PADPAD@_STL@@YAPADPAD00ABU__true_type@0@@Z
_TEXT	SEGMENT PARA USE32 PUBLIC 'CODE'
_TEXT	ENDS
;	COMDAT ??$append@PAD@?$basic_string@DV?$char_traits@D@_STL@@V?$allocator@D@2@@_STL@@AAEAAV01@PAD0ABUforward_iterator_tag@1@@Z
_TEXT	SEGMENT PARA USE32 PUBLIC 'CODE'
_TEXT	ENDS
;	COMDAT ??$max@I@_STL@@YAABIABI0@Z
_TEXT	SEGMENT PARA USE32 PUBLIC 'CODE'
_TEXT	ENDS
;	COMDAT ?_Ret@?$_BothPtrType@PADPAD@_STL@@SA?AU__true_type@2@XZ
_TEXT	SEGMENT PARA USE32 PUBLIC 'CODE'
_TEXT	ENDS
;	COMDAT ??$__copy_aux@PADPAD@_STL@@YAPADPAD00ABU__true_type@0@@Z
_TEXT	SEGMENT PARA USE32 PUBLIC 'CODE'
_TEXT	ENDS
;	COMDAT ?_Ret@?$_OKToMemCpy@DD@_STL@@SA?AU__true_type@2@XZ
_TEXT	SEGMENT PARA USE32 PUBLIC 'CODE'
_TEXT	ENDS
;	COMDAT ??$_IsOKToMemCpy@DD@_STL@@YA?AU?$_OKToMemCpy@DD@0@PAD0@Z
_TEXT	SEGMENT PARA USE32 PUBLIC 'CODE'
_TEXT	ENDS
;	COMDAT ??$__copy_ptrs@PADPAD@_STL@@YAPADPAD00ABU__true_type@0@@Z
_TEXT	SEGMENT PARA USE32 PUBLIC 'CODE'
_TEXT	ENDS
;	COMDAT ??_R3ovfstream@@8
rdata$r	SEGMENT DWORD USE32 PUBLIC 'CONST'
rdata$r	ENDS
;	COMDAT ??_R3ivfstream@@8
rdata$r	SEGMENT DWORD USE32 PUBLIC 'CONST'
rdata$r	ENDS
;	COMDAT ??_R3iovfs_base@@8
rdata$r	SEGMENT DWORD USE32 PUBLIC 'CONST'
rdata$r	ENDS
;	COMDAT ??_R3?$basic_ofstream@DV?$char_traits@D@_STL@@@_STL@@8
rdata$r	SEGMENT DWORD USE32 PUBLIC 'CONST'
rdata$r	ENDS
;	COMDAT ??_R3IFileIO@@8
rdata$r	SEGMENT DWORD USE32 PUBLIC 'CONST'
rdata$r	ENDS
;	COMDAT ??_R2ovfstream@@8
rdata$r	SEGMENT DWORD USE32 PUBLIC 'CONST'
rdata$r	ENDS
;	COMDAT ??_R2ivfstream@@8
rdata$r	SEGMENT DWORD USE32 PUBLIC 'CONST'
rdata$r	ENDS
;	COMDAT ??_R2iovfs_base@@8
rdata$r	SEGMENT DWORD USE32 PUBLIC 'CONST'
rdata$r	ENDS
;	COMDAT ??_R2?$basic_ofstream@DV?$char_traits@D@_STL@@@_STL@@8
rdata$r	SEGMENT DWORD USE32 PUBLIC 'CONST'
rdata$r	ENDS
;	COMDAT ??_R2IFileIO@@8
rdata$r	SEGMENT DWORD USE32 PUBLIC 'CONST'
rdata$r	ENDS
;	COMDAT ??_R1A@?0A@A@ovfstream@@8
rdata$r	SEGMENT DWORD USE32 PUBLIC 'CONST'
rdata$r	ENDS
;	COMDAT ??_R1A@?0A@A@ivfstream@@8
rdata$r	SEGMENT DWORD USE32 PUBLIC 'CONST'
rdata$r	ENDS
;	COMDAT ??_R1A@?0A@A@iovfs_base@@8
rdata$r	SEGMENT DWORD USE32 PUBLIC 'CONST'
rdata$r	ENDS
;	COMDAT ??_R1A@A@3A@ios_base@_STL@@8
rdata$r	SEGMENT DWORD USE32 PUBLIC 'CONST'
rdata$r	ENDS
;	COMDAT ??_R0?AVios_base@_STL@@@8
_DATA	SEGMENT DWORD USE32 PUBLIC 'DATA'
_DATA	ENDS
;	COMDAT ??_R1A@A@3BA@?$basic_ios@DV?$char_traits@D@_STL@@@_STL@@8
rdata$r	SEGMENT DWORD USE32 PUBLIC 'CONST'
rdata$r	ENDS
;	COMDAT ??_R0?AV?$basic_ios@DV?$char_traits@D@_STL@@@_STL@@@8
_DATA	SEGMENT DWORD USE32 PUBLIC 'DATA'
_DATA	ENDS
;	COMDAT ??_R1A@?0A@A@?$basic_ostream@DV?$char_traits@D@_STL@@@_STL@@8
rdata$r	SEGMENT DWORD USE32 PUBLIC 'CONST'
rdata$r	ENDS
;	COMDAT ??_R0?AV?$basic_ostream@DV?$char_traits@D@_STL@@@_STL@@@8
_DATA	SEGMENT DWORD USE32 PUBLIC 'DATA'
_DATA	ENDS
;	COMDAT ??_R1A@?0A@A@?$basic_ofstream@DV?$char_traits@D@_STL@@@_STL@@8
rdata$r	SEGMENT DWORD USE32 PUBLIC 'CONST'
rdata$r	ENDS
;	COMDAT ??_R1A@?0A@A@IFileIO@@8
rdata$r	SEGMENT DWORD USE32 PUBLIC 'CONST'
rdata$r	ENDS
;	COMDAT ??_R0?AVovfstream@@@8
_DATA	SEGMENT DWORD USE32 PUBLIC 'DATA'
_DATA	ENDS
;	COMDAT ??_R0?AVivfstream@@@8
_DATA	SEGMENT DWORD USE32 PUBLIC 'DATA'
_DATA	ENDS
;	COMDAT ??_R0?AViovfs_base@@@8
_DATA	SEGMENT DWORD USE32 PUBLIC 'DATA'
_DATA	ENDS
;	COMDAT ??_R0?AV?$basic_ofstream@DV?$char_traits@D@_STL@@@_STL@@@8
_DATA	SEGMENT DWORD USE32 PUBLIC 'DATA'
_DATA	ENDS
;	COMDAT ??_R0?AVIFileIO@@@8
_DATA	SEGMENT DWORD USE32 PUBLIC 'DATA'
_DATA	ENDS
;	COMDAT ??_R4ovfstream@@6B@
rdata$r	SEGMENT DWORD USE32 PUBLIC 'CONST'
rdata$r	ENDS
;	COMDAT ??_R4ivfstream@@6B@
rdata$r	SEGMENT DWORD USE32 PUBLIC 'CONST'
rdata$r	ENDS
;	COMDAT ??_R4iovfs_base@@6B@
rdata$r	SEGMENT DWORD USE32 PUBLIC 'CONST'
rdata$r	ENDS
;	COMDAT ??_R4?$basic_ofstream@DV?$char_traits@D@_STL@@@_STL@@6B@
rdata$r	SEGMENT DWORD USE32 PUBLIC 'CONST'
rdata$r	ENDS
;	COMDAT ??_R4IFileIO@@6B@
rdata$r	SEGMENT DWORD USE32 PUBLIC 'CONST'
rdata$r	ENDS
;	COMDAT ?__copy_trivial@_STL@@YAPAXPBX0PAX@Z
_TEXT	SEGMENT PARA USE32 PUBLIC 'CODE'
_TEXT	ENDS
;	COMDAT ?_M_deallocate_block@?$_String_base@DV?$allocator@D@_STL@@@_STL@@QAEXXZ
_TEXT	SEGMENT PARA USE32 PUBLIC 'CODE'
_TEXT	ENDS
;	COMDAT ?deallocate@?$allocator@D@_STL@@QAEXPADI@Z
_TEXT	SEGMENT PARA USE32 PUBLIC 'CODE'
_TEXT	ENDS
;	COMDAT ?deallocate@?$__node_alloc@$00$0A@@_STL@@SAXPAXI@Z
_TEXT	SEGMENT PARA USE32 PUBLIC 'CODE'
_TEXT	ENDS
;	COMDAT ?__stl_delete@_STL@@YAXPAX@Z
_TEXT	SEGMENT PARA USE32 PUBLIC 'CODE'
_TEXT	ENDS
;	COMDAT ?good@ios_base@_STL@@QBE_NXZ
_TEXT	SEGMENT PARA USE32 PUBLIC 'CODE'
_TEXT	ENDS
;	COMDAT ?__page_size@_Filebuf_base@_STL@@SAIXZ
_TEXT	SEGMENT PARA USE32 PUBLIC 'CODE'
_TEXT	ENDS
;	COMDAT ?_M_write@?$basic_filebuf@DV?$char_traits@D@_STL@@@_STL@@QAE_NPADH@Z
_TEXT	SEGMENT PARA USE32 PUBLIC 'CODE'
_TEXT	ENDS
;	COMDAT ?unshift@?$codecvt@DDH@_STL@@QBE?AW4result@codecvt_base@2@AAHPAD1AAPAD@Z
_TEXT	SEGMENT PARA USE32 PUBLIC 'CODE'
_TEXT	ENDS
;	COMDAT ?_M_get_exception_mask@ios_base@_STL@@IBEHXZ
_TEXT	SEGMENT PARA USE32 PUBLIC 'CODE'
_TEXT	ENDS
;	COMDAT ?_M_setstate_nothrow@ios_base@_STL@@IAEXH@Z
_TEXT	SEGMENT PARA USE32 PUBLIC 'CODE'
_TEXT	ENDS
;	COMDAT ?_M_ctype_facet@ios_base@_STL@@QBEPBVfacet@locale@2@XZ
_TEXT	SEGMENT PARA USE32 PUBLIC 'CODE'
_TEXT	ENDS
;	COMDAT ?widen@?$ctype@D@_STL@@QBEDD@Z
_TEXT	SEGMENT PARA USE32 PUBLIC 'CODE'
_TEXT	ENDS
;	COMDAT ?grouping@?$numpunct@D@_STL@@QBE?AV?$basic_string@DV?$char_traits@D@_STL@@V?$allocator@D@2@@2@XZ
_TEXT	SEGMENT PARA USE32 PUBLIC 'CODE'
_TEXT	ENDS
;	COMDAT ?uninitialized_copy@_STL@@YAPADPBD0PAD@Z
_TEXT	SEGMENT PARA USE32 PUBLIC 'CODE'
_TEXT	ENDS
;	COMDAT ?pubsync@?$basic_streambuf@DV?$char_traits@D@_STL@@@_STL@@QAEHXZ
_TEXT	SEGMENT PARA USE32 PUBLIC 'CODE'
_TEXT	ENDS
;	COMDAT ?flags@ios_base@_STL@@QBEHXZ
_TEXT	SEGMENT PARA USE32 PUBLIC 'CODE'
_TEXT	ENDS
;	COMDAT ?precision@ios_base@_STL@@QAEHH@Z
_TEXT	SEGMENT PARA USE32 PUBLIC 'CODE'
_TEXT	ENDS
;	COMDAT ?width@ios_base@_STL@@QAEHH@Z
_TEXT	SEGMENT PARA USE32 PUBLIC 'CODE'
_TEXT	ENDS
;	COMDAT ?flags@ios_base@_STL@@QAEHH@Z
_TEXT	SEGMENT PARA USE32 PUBLIC 'CODE'
_TEXT	ENDS
;	COMDAT ?_M_set_exception_mask@ios_base@_STL@@IAEXH@Z
_TEXT	SEGMENT PARA USE32 PUBLIC 'CODE'
_TEXT	ENDS
;	COMDAT ??_7?$basic_ios@DV?$char_traits@D@_STL@@@_STL@@6B@
CONST	SEGMENT DWORD USE32 PUBLIC 'CONST'
CONST	ENDS
;	COMDAT ??_R4?$basic_ios@DV?$char_traits@D@_STL@@@_STL@@6B@
rdata$r	SEGMENT DWORD USE32 PUBLIC 'CONST'
rdata$r	ENDS
;	COMDAT ??_R3?$basic_ios@DV?$char_traits@D@_STL@@@_STL@@8
rdata$r	SEGMENT DWORD USE32 PUBLIC 'CONST'
rdata$r	ENDS
;	COMDAT ??_R2?$basic_ios@DV?$char_traits@D@_STL@@@_STL@@8
rdata$r	SEGMENT DWORD USE32 PUBLIC 'CONST'
rdata$r	ENDS
;	COMDAT ??_R1A@?0A@A@?$basic_ios@DV?$char_traits@D@_STL@@@_STL@@8
rdata$r	SEGMENT DWORD USE32 PUBLIC 'CONST'
rdata$r	ENDS
;	COMDAT ??_R1A@?0A@A@ios_base@_STL@@8
rdata$r	SEGMENT DWORD USE32 PUBLIC 'CONST'
rdata$r	ENDS
;	COMDAT ??_G?$basic_ios@DV?$char_traits@D@_STL@@@_STL@@UAEPAXI@Z
_TEXT	SEGMENT PARA USE32 PUBLIC 'CODE'
_TEXT	ENDS
;	COMDAT ?assign@?$char_traits@D@_STL@@SAXAADABD@Z
_TEXT	SEGMENT PARA USE32 PUBLIC 'CODE'
_TEXT	ENDS
;	COMDAT ?always_noconv@?$codecvt@DDH@_STL@@QBE_NXZ
_TEXT	SEGMENT PARA USE32 PUBLIC 'CODE'
_TEXT	ENDS
;	COMDAT ?encoding@?$codecvt@DDH@_STL@@QBEHXZ
_TEXT	SEGMENT PARA USE32 PUBLIC 'CODE'
_TEXT	ENDS
;	COMDAT ?max_length@?$codecvt@DDH@_STL@@QBEHXZ
_TEXT	SEGMENT PARA USE32 PUBLIC 'CODE'
_TEXT	ENDS
;	COMDAT ?__o_mode@_Filebuf_base@_STL@@QBEHXZ
_TEXT	SEGMENT PARA USE32 PUBLIC 'CODE'
_TEXT	ENDS
;	COMDAT ??_7?$basic_filebuf@DV?$char_traits@D@_STL@@@_STL@@6B@
CONST	SEGMENT DWORD USE32 PUBLIC 'CONST'
CONST	ENDS
;	COMDAT ??_R4?$basic_filebuf@DV?$char_traits@D@_STL@@@_STL@@6B@
rdata$r	SEGMENT DWORD USE32 PUBLIC 'CONST'
rdata$r	ENDS
;	COMDAT ??_R0?AV?$basic_filebuf@DV?$char_traits@D@_STL@@@_STL@@@8
_DATA	SEGMENT DWORD USE32 PUBLIC 'DATA'
_DATA	ENDS
;	COMDAT ??_R3?$basic_filebuf@DV?$char_traits@D@_STL@@@_STL@@8
rdata$r	SEGMENT DWORD USE32 PUBLIC 'CONST'
rdata$r	ENDS
;	COMDAT ??_R2?$basic_filebuf@DV?$char_traits@D@_STL@@@_STL@@8
rdata$r	SEGMENT DWORD USE32 PUBLIC 'CONST'
rdata$r	ENDS
;	COMDAT ??_R1A@?0A@A@?$basic_filebuf@DV?$char_traits@D@_STL@@@_STL@@8
rdata$r	SEGMENT DWORD USE32 PUBLIC 'CONST'
rdata$r	ENDS
;	COMDAT ??_R1A@?0A@A@?$basic_streambuf@DV?$char_traits@D@_STL@@@_STL@@8
rdata$r	SEGMENT DWORD USE32 PUBLIC 'CONST'
rdata$r	ENDS
;	COMDAT ??_R0?AV?$basic_streambuf@DV?$char_traits@D@_STL@@@_STL@@@8
_DATA	SEGMENT DWORD USE32 PUBLIC 'DATA'
_DATA	ENDS
;	COMDAT ??_G?$basic_filebuf@DV?$char_traits@D@_STL@@@_STL@@UAEPAXI@Z
_TEXT	SEGMENT PARA USE32 PUBLIC 'CODE'
_TEXT	ENDS
;	COMDAT ?setbuf@?$basic_filebuf@DV?$char_traits@D@_STL@@@_STL@@MAEPAV?$basic_streambuf@DV?$char_traits@D@_STL@@@2@PADH@Z
_TEXT	SEGMENT PARA USE32 PUBLIC 'CODE'
_TEXT	ENDS
;	COMDAT ?seekoff@?$basic_filebuf@DV?$char_traits@D@_STL@@@_STL@@MAE?AV?$fpos@H@2@JHH@Z
_TEXT	SEGMENT PARA USE32 PUBLIC 'CODE'
_TEXT	ENDS
;	COMDAT ?_M_in_binary_mode@_Filebuf_base@_STL@@QBE_NXZ
_TEXT	SEGMENT PARA USE32 PUBLIC 'CODE'
_TEXT	ENDS
;	COMDAT ?length@?$codecvt@DDH@_STL@@QBEHABHPBD1I@Z
_TEXT	SEGMENT PARA USE32 PUBLIC 'CODE'
_TEXT	ENDS
;	COMDAT ?in@?$codecvt@DDH@_STL@@QBE?AW4result@codecvt_base@2@AAHPBD1AAPBDPAD3AAPAD@Z
_TEXT	SEGMENT PARA USE32 PUBLIC 'CODE'
_TEXT	ENDS
;	COMDAT ?eback@?$basic_streambuf@DV?$char_traits@D@_STL@@@_STL@@IBEPADXZ
_TEXT	SEGMENT PARA USE32 PUBLIC 'CODE'
_TEXT	ENDS
;	COMDAT ?_FILE_I_begin@_STL@@YAPADPBU_iobuf@@@Z
_TEXT	SEGMENT PARA USE32 PUBLIC 'CODE'
_TEXT	ENDS
;	COMDAT ?gptr@?$basic_streambuf@DV?$char_traits@D@_STL@@@_STL@@IBEPADXZ
_TEXT	SEGMENT PARA USE32 PUBLIC 'CODE'
_TEXT	ENDS
;	COMDAT ?_FILE_I_next@_STL@@YAPADPBU_iobuf@@@Z
_TEXT	SEGMENT PARA USE32 PUBLIC 'CODE'
_TEXT	ENDS
;	COMDAT ?_M_get_offset@_Filebuf_base@_STL@@QAEJPAD0@Z
_TEXT	SEGMENT PARA USE32 PUBLIC 'CODE'
_TEXT	ENDS
;	COMDAT ??$count@PADD@_STL@@YAHPAD0ABD@Z
_TEXT	SEGMENT PARA USE32 PUBLIC 'CODE'
_TEXT	ENDS
;	COMDAT ?seekpos@?$basic_filebuf@DV?$char_traits@D@_STL@@@_STL@@MAE?AV?$fpos@H@2@V32@H@Z
_TEXT	SEGMENT PARA USE32 PUBLIC 'CODE'
_TEXT	ENDS
;	COMDAT ?sync@?$basic_filebuf@DV?$char_traits@D@_STL@@@_STL@@MAEHXZ
_TEXT	SEGMENT PARA USE32 PUBLIC 'CODE'
_TEXT	ENDS
;	COMDAT ?showmanyc@?$basic_filebuf@DV?$char_traits@D@_STL@@@_STL@@MAEHXZ
_TEXT	SEGMENT PARA USE32 PUBLIC 'CODE'
_TEXT	ENDS
;	COMDAT ?egptr@?$basic_streambuf@DV?$char_traits@D@_STL@@@_STL@@IBEPADXZ
_TEXT	SEGMENT PARA USE32 PUBLIC 'CODE'
_TEXT	ENDS
;	COMDAT ?_FILE_I_end@_STL@@YAPADPBU_iobuf@@@Z
_TEXT	SEGMENT PARA USE32 PUBLIC 'CODE'
_TEXT	ENDS
;	COMDAT ?underflow@?$basic_filebuf@DV?$char_traits@D@_STL@@@_STL@@MAEHXZ
_TEXT	SEGMENT PARA USE32 PUBLIC 'CODE'
_TEXT	ENDS
;	COMDAT ?pbackfail@?$basic_filebuf@DV?$char_traits@D@_STL@@@_STL@@MAEHH@Z
_TEXT	SEGMENT PARA USE32 PUBLIC 'CODE'
_TEXT	ENDS
;	COMDAT ?gbump@?$basic_streambuf@DV?$char_traits@D@_STL@@@_STL@@IAEXH@Z
_TEXT	SEGMENT PARA USE32 PUBLIC 'CODE'
_TEXT	ENDS
;	COMDAT ?_FILE_I_bump@_STL@@YAXPAU_iobuf@@H@Z
_TEXT	SEGMENT PARA USE32 PUBLIC 'CODE'
_TEXT	ENDS
;	COMDAT ?to_int_type@?$char_traits@D@_STL@@SAHABD@Z
_TEXT	SEGMENT PARA USE32 PUBLIC 'CODE'
_TEXT	ENDS
;	COMDAT ?to_char_type@?$char_traits@D@_STL@@SADABH@Z
_TEXT	SEGMENT PARA USE32 PUBLIC 'CODE'
_TEXT	ENDS
;	COMDAT ?overflow@?$basic_filebuf@DV?$char_traits@D@_STL@@@_STL@@MAEHH@Z
_TEXT	SEGMENT PARA USE32 PUBLIC 'CODE'
_TEXT	ENDS
;	COMDAT ?pptr@?$basic_streambuf@DV?$char_traits@D@_STL@@@_STL@@IBEPADXZ
_TEXT	SEGMENT PARA USE32 PUBLIC 'CODE'
_TEXT	ENDS
;	COMDAT ?_FILE_O_next@_STL@@YAPADPBU_iobuf@@@Z
_TEXT	SEGMENT PARA USE32 PUBLIC 'CODE'
_TEXT	ENDS
;	COMDAT ?out@?$codecvt@DDH@_STL@@QBE?AW4result@codecvt_base@2@AAHPBD1AAPBDPAD3AAPAD@Z
_TEXT	SEGMENT PARA USE32 PUBLIC 'CODE'
_TEXT	ENDS
;	COMDAT ?_M_doit@?$_Noconv_output@V?$char_traits@D@_STL@@@_STL@@SA_NPAV?$basic_filebuf@DV?$char_traits@D@_STL@@@2@PAD1@Z
_TEXT	SEGMENT PARA USE32 PUBLIC 'CODE'
_TEXT	ENDS
;	COMDAT ?imbue@?$basic_filebuf@DV?$char_traits@D@_STL@@@_STL@@MAEXABVlocale@2@@Z
_TEXT	SEGMENT PARA USE32 PUBLIC 'CODE'
_TEXT	ENDS
;	COMDAT ??0?$basic_streambuf@DV?$char_traits@D@_STL@@@_STL@@IAE@XZ
_TEXT	SEGMENT PARA USE32 PUBLIC 'CODE'
_TEXT	ENDS
;	COMDAT ??_7?$basic_streambuf@DV?$char_traits@D@_STL@@@_STL@@6B@
CONST	SEGMENT DWORD USE32 PUBLIC 'CONST'
CONST	ENDS
;	COMDAT ??_R4?$basic_streambuf@DV?$char_traits@D@_STL@@@_STL@@6B@
rdata$r	SEGMENT DWORD USE32 PUBLIC 'CONST'
rdata$r	ENDS
;	COMDAT ??_R3?$basic_streambuf@DV?$char_traits@D@_STL@@@_STL@@8
rdata$r	SEGMENT DWORD USE32 PUBLIC 'CONST'
rdata$r	ENDS
;	COMDAT ??_R2?$basic_streambuf@DV?$char_traits@D@_STL@@@_STL@@8
rdata$r	SEGMENT DWORD USE32 PUBLIC 'CONST'
rdata$r	ENDS
;	COMDAT ??_G?$basic_streambuf@DV?$char_traits@D@_STL@@@_STL@@UAEPAXI@Z
_TEXT	SEGMENT PARA USE32 PUBLIC 'CODE'
_TEXT	ENDS
;	COMDAT ??0_STLP_mutex@_STL@@QAE@XZ
_TEXT	SEGMENT PARA USE32 PUBLIC 'CODE'
_TEXT	ENDS
;	COMDAT ?_M_initialize@_STLP_mutex_base@_STL@@QAEXXZ
_TEXT	SEGMENT PARA USE32 PUBLIC 'CODE'
_TEXT	ENDS
;	COMDAT ??1_STLP_mutex@_STL@@QAE@XZ
_TEXT	SEGMENT PARA USE32 PUBLIC 'CODE'
_TEXT	ENDS
;	COMDAT ?_M_destroy@_STLP_mutex_base@_STL@@QAEXXZ
_TEXT	SEGMENT PARA USE32 PUBLIC 'CODE'
_TEXT	ENDS
;	COMDAT ?_FILE_I_set@_STL@@YAXPAU_iobuf@@PAD11@Z
_TEXT	SEGMENT PARA USE32 PUBLIC 'CODE'
_TEXT	ENDS
;	COMDAT ?_FILE_O_set@_STL@@YAXPAU_iobuf@@PAD11@Z
_TEXT	SEGMENT PARA USE32 PUBLIC 'CODE'
_TEXT	ENDS
;	COMDAT ?sputn@?$basic_streambuf@DV?$char_traits@D@_STL@@@_STL@@QAEHPBDH@Z
_TEXT	SEGMENT PARA USE32 PUBLIC 'CODE'
_TEXT	ENDS
;	COMDAT ??_7?$basic_ostream@DV?$char_traits@D@_STL@@@_STL@@6B@
CONST	SEGMENT DWORD USE32 PUBLIC 'CONST'
CONST	ENDS
;	COMDAT ??_R4?$basic_ostream@DV?$char_traits@D@_STL@@@_STL@@6B@
rdata$r	SEGMENT DWORD USE32 PUBLIC 'CONST'
rdata$r	ENDS
;	COMDAT ??_R3?$basic_ostream@DV?$char_traits@D@_STL@@@_STL@@8
rdata$r	SEGMENT DWORD USE32 PUBLIC 'CONST'
rdata$r	ENDS
;	COMDAT ??_R2?$basic_ostream@DV?$char_traits@D@_STL@@@_STL@@8
rdata$r	SEGMENT DWORD USE32 PUBLIC 'CONST'
rdata$r	ENDS
;	COMDAT ??_G?$basic_ostream@DV?$char_traits@D@_STL@@@_STL@@UAEPAXI@Z
_TEXT	SEGMENT PARA USE32 PUBLIC 'CODE'
_TEXT	ENDS
;	COMDAT ??_D?$basic_ostream@DV?$char_traits@D@_STL@@@_STL@@QAEXXZ
_TEXT	SEGMENT PARA USE32 PUBLIC 'CODE'
_TEXT	ENDS
;	COMDAT ??_8?$basic_ostream@DV?$char_traits@D@_STL@@@_STL@@7B@
CONST	SEGMENT DWORD USE32 PUBLIC 'CONST'
CONST	ENDS
;	COMDAT ?_M_check_exception_mask@ios_base@_STL@@IAEXXZ
_TEXT	SEGMENT PARA USE32 PUBLIC 'CODE'
_TEXT	ENDS
;	COMDAT ?_M_clear_nothrow@ios_base@_STL@@IAEXH@Z
_TEXT	SEGMENT PARA USE32 PUBLIC 'CODE'
_TEXT	ENDS
;	COMDAT ?_Destroy@_STL@@YAXPAD0@Z
_TEXT	SEGMENT PARA USE32 PUBLIC 'CODE'
_TEXT	ENDS
;	COMDAT ?rdstate@ios_base@_STL@@QBEHXZ
_TEXT	SEGMENT PARA USE32 PUBLIC 'CODE'
_TEXT	ENDS
;	COMDAT ??$min@H@_STL@@YAABHABH0@Z
_TEXT	SEGMENT PARA USE32 PUBLIC 'CODE'
_TEXT	ENDS
;	COMDAT ?compare@?$char_traits@D@_STL@@SAHPBD0I@Z
_TEXT	SEGMENT PARA USE32 PUBLIC 'CODE'
_TEXT	ENDS
;	COMDAT ??1?$basic_filebuf@DV?$char_traits@D@_STL@@@_STL@@UAE@XZ
_TEXT	SEGMENT PARA USE32 PUBLIC 'CODE'
_TEXT	ENDS
;	COMDAT ??_7?$basic_ofstream@DV?$char_traits@D@_STL@@@_STL@@6B@
CONST	SEGMENT DWORD USE32 PUBLIC 'CONST'
CONST	ENDS
;	COMDAT ??1?$basic_ostream@DV?$char_traits@D@_STL@@@_STL@@UAE@XZ
_TEXT	SEGMENT PARA USE32 PUBLIC 'CODE'
_TEXT	ENDS
;	COMDAT ??_8?$basic_ofstream@DV?$char_traits@D@_STL@@@_STL@@7B@
CONST	SEGMENT DWORD USE32 PUBLIC 'CONST'
CONST	ENDS
;	COMDAT ?setp@?$basic_streambuf@DV?$char_traits@D@_STL@@@_STL@@IAEXPAD0@Z
_TEXT	SEGMENT PARA USE32 PUBLIC 'CODE'
_TEXT	ENDS
;	COMDAT ?setg@?$basic_streambuf@DV?$char_traits@D@_STL@@@_STL@@IAEXPAD00@Z
_TEXT	SEGMENT PARA USE32 PUBLIC 'CODE'
_TEXT	ENDS
;	COMDAT ?__is_open@_Filebuf_base@_STL@@QBE_NXZ
_TEXT	SEGMENT PARA USE32 PUBLIC 'CODE'
_TEXT	ENDS
;	COMDAT ?allocate@?$__node_alloc@$00$0A@@_STL@@SAPAXI@Z
_TEXT	SEGMENT PARA USE32 PUBLIC 'CODE'
_TEXT	ENDS
;	COMDAT ?__stl_new@_STL@@YAPAXI@Z
_TEXT	SEGMENT PARA USE32 PUBLIC 'CODE'
_TEXT	ENDS
;	COMDAT ??1?$_STLP_alloc_proxy@PADDV?$allocator@D@_STL@@@_STL@@QAE@XZ
_TEXT	SEGMENT PARA USE32 PUBLIC 'CODE'
_TEXT	ENDS
;	COMDAT ?length@?$char_traits@D@_STL@@SAIPBD@Z
_TEXT	SEGMENT PARA USE32 PUBLIC 'CODE'
_TEXT	ENDS
;	COMDAT ??1?$allocator@D@_STL@@QAE@XZ
_TEXT	SEGMENT PARA USE32 PUBLIC 'CODE'
_TEXT	ENDS
;	COMDAT ?eof@?$__char_traits_base@DH@_STL@@SAHXZ
_TEXT	SEGMENT PARA USE32 PUBLIC 'CODE'
_TEXT	ENDS
;	COMDAT ??1?$basic_ios@DV?$char_traits@D@_STL@@@_STL@@UAE@XZ
_TEXT	SEGMENT PARA USE32 PUBLIC 'CODE'
_TEXT	ENDS
;	COMDAT ??4?$basic_string@DV?$char_traits@D@_STL@@V?$allocator@D@2@@_STL@@QAEAAV01@ABV01@@Z
_TEXT	SEGMENT PARA USE32 PUBLIC 'CODE'
_TEXT	ENDS
;	COMDAT ??$assign@PAD@?$basic_string@DV?$char_traits@D@_STL@@V?$allocator@D@2@@_STL@@QAEAAV01@PAD0@Z
_TEXT	SEGMENT PARA USE32 PUBLIC 'CODE'
_TEXT	ENDS
;	COMDAT ??_7ovfstream@@6B@
CONST	SEGMENT DWORD USE32 PUBLIC 'CONST'
CONST	ENDS
;	COMDAT ??_7ivfstream@@6B@
CONST	SEGMENT DWORD USE32 PUBLIC 'CONST'
CONST	ENDS
;	COMDAT ??0?$basic_string@DV?$char_traits@D@_STL@@V?$allocator@D@2@@_STL@@QAE@XZ
_TEXT	SEGMENT PARA USE32 PUBLIC 'CODE'
_TEXT	ENDS
;	COMDAT ??0?$allocator@D@_STL@@QAE@XZ
_TEXT	SEGMENT PARA USE32 PUBLIC 'CODE'
_TEXT	ENDS
;	COMDAT ??1?$_String_base@DV?$allocator@D@_STL@@@_STL@@QAE@XZ
_TEXT	SEGMENT PARA USE32 PUBLIC 'CODE'
_TEXT	ENDS
;	COMDAT ??1?$basic_string@DV?$char_traits@D@_STL@@V?$allocator@D@2@@_STL@@QAE@XZ
_TEXT	SEGMENT PARA USE32 PUBLIC 'CODE'
_TEXT	ENDS
;	COMDAT ??_7iovfs_base@@6B@
CONST	SEGMENT DWORD USE32 PUBLIC 'CONST'
CONST	ENDS
;	COMDAT ??_7IFileIO@@6B@
CONST	SEGMENT DWORD USE32 PUBLIC 'CONST'
CONST	ENDS
sxdata	SEGMENT DWORD USE32 'SXDATA'
sxdata	ENDS
FLAT	GROUP _DATA, CONST, _BSS
	ASSUME	CS: FLAT, DS: FLAT, SS: FLAT
endif

INCLUDELIB LIBCMT
INCLUDELIB OLDNAMES

PUBLIC	?g_pUserOption@@3PAVUserOption@@A		; g_pUserOption
_BSS	SEGMENT
?g_pUserOption@@3PAVUserOption@@A DD 01H DUP (?)	; g_pUserOption
_BSS	ENDS
PUBLIC	?__stl_new@_STL@@YAPAXI@Z			; _STL::__stl_new
EXTRN	??2@YAPAXI@Z:NEAR				; operator new
; Function compile flags: /Ogsy
; File c:\stlport-4.6.1\stlport\stl\_new.h
;	COMDAT ?__stl_new@_STL@@YAPAXI@Z
_TEXT	SEGMENT
___n$ = 8						; size = 4
?__stl_new@_STL@@YAPAXI@Z PROC NEAR			; _STL::__stl_new, COMDAT

; 86   : inline void*  _STLP_CALL __stl_new(size_t __n)   { _STLP_CHECK_NULL_ALLOC(::operator _STLP_NEW(__n)); }

  00000	e9 00 00 00 00	 jmp	 ??2@YAPAXI@Z		; operator new
?__stl_new@_STL@@YAPAXI@Z ENDP				; _STL::__stl_new
_TEXT	ENDS
PUBLIC	?__stl_delete@_STL@@YAXPAX@Z			; _STL::__stl_delete
EXTRN	??3@YAXPAX@Z:NEAR				; operator delete
; Function compile flags: /Ogsy
;	COMDAT ?__stl_delete@_STL@@YAXPAX@Z
_TEXT	SEGMENT
___p$ = 8						; size = 4
?__stl_delete@_STL@@YAXPAX@Z PROC NEAR			; _STL::__stl_delete, COMDAT

; 87   : inline void   _STLP_CALL __stl_delete(void* __p) { ::operator delete(__p); }

  00000	e9 00 00 00 00	 jmp	 ??3@YAXPAX@Z		; operator delete
?__stl_delete@_STL@@YAXPAX@Z ENDP			; _STL::__stl_delete
_TEXT	ENDS
PUBLIC	?_M_initialize@_STLP_mutex_base@_STL@@QAEXXZ	; _STL::_STLP_mutex_base::_M_initialize
; Function compile flags: /Ogsy
; File c:\stlport-4.6.1\stlport\stl\_threads.h
;	COMDAT ?_M_initialize@_STLP_mutex_base@_STL@@QAEXXZ
_TEXT	SEGMENT
?_M_initialize@_STLP_mutex_base@_STL@@QAEXXZ PROC NEAR	; _STL::_STLP_mutex_base::_M_initialize, COMDAT
; _this$ = ecx

; 321  :   inline void _M_initialize() { _M_lock=0; }

  00000	c7 01 00 00 00
	00		 mov	 DWORD PTR [ecx], 0
  00006	c3		 ret	 0
?_M_initialize@_STLP_mutex_base@_STL@@QAEXXZ ENDP	; _STL::_STLP_mutex_base::_M_initialize
_TEXT	ENDS
PUBLIC	?_M_destroy@_STLP_mutex_base@_STL@@QAEXXZ	; _STL::_STLP_mutex_base::_M_destroy
; Function compile flags: /Ogsy
;	COMDAT ?_M_destroy@_STLP_mutex_base@_STL@@QAEXXZ
_TEXT	SEGMENT
?_M_destroy@_STLP_mutex_base@_STL@@QAEXXZ PROC NEAR	; _STL::_STLP_mutex_base::_M_destroy, COMDAT
; _this$ = ecx

; 322  :   inline void _M_destroy() {}

  00000	c3		 ret	 0
?_M_destroy@_STLP_mutex_base@_STL@@QAEXXZ ENDP		; _STL::_STLP_mutex_base::_M_destroy
_TEXT	ENDS
PUBLIC	??0_STLP_mutex@_STL@@QAE@XZ			; _STL::_STLP_mutex::_STLP_mutex
; Function compile flags: /Ogsy
;	COMDAT ??0_STLP_mutex@_STL@@QAE@XZ
_TEXT	SEGMENT
??0_STLP_mutex@_STL@@QAE@XZ PROC NEAR			; _STL::_STLP_mutex::_STLP_mutex, COMDAT
; _this$ = ecx

; 467  :     inline _STLP_mutex () { _M_initialize(); }

  00000	8b c1		 mov	 eax, ecx
  00002	c7 00 00 00 00
	00		 mov	 DWORD PTR [eax], 0
  00008	c3		 ret	 0
??0_STLP_mutex@_STL@@QAE@XZ ENDP			; _STL::_STLP_mutex::_STLP_mutex
_TEXT	ENDS
PUBLIC	??1_STLP_mutex@_STL@@QAE@XZ			; _STL::_STLP_mutex::~_STLP_mutex
; Function compile flags: /Ogsy
;	COMDAT ??1_STLP_mutex@_STL@@QAE@XZ
_TEXT	SEGMENT
??1_STLP_mutex@_STL@@QAE@XZ PROC NEAR			; _STL::_STLP_mutex::~_STLP_mutex, COMDAT
; _this$ = ecx

; 468  :     inline ~_STLP_mutex () { _M_destroy(); }

  00000	c3		 ret	 0
??1_STLP_mutex@_STL@@QAE@XZ ENDP			; _STL::_STLP_mutex::~_STLP_mutex
_TEXT	ENDS
PUBLIC	?_Destroy@_STL@@YAXPAD0@Z			; _STL::_Destroy
; Function compile flags: /Ogsy
; File c:\stlport-4.6.1\stlport\stl\_construct.h
;	COMDAT ?_Destroy@_STL@@YAXPAD0@Z
_TEXT	SEGMENT
___formal$ = 8						; size = 4
___formal$ = 12						; size = 4
?_Destroy@_STL@@YAXPAD0@Z PROC NEAR			; _STL::_Destroy, COMDAT

; 142  : inline void _Destroy(char*, char*) {}

  00000	c3		 ret	 0
?_Destroy@_STL@@YAXPAD0@Z ENDP				; _STL::_Destroy
_TEXT	ENDS
PUBLIC	?__copy_trivial@_STL@@YAPAXPBX0PAX@Z		; _STL::__copy_trivial
EXTRN	_memmove:NEAR
; Function compile flags: /Ogsy
; File c:\stlport-4.6.1\stlport\stl\_algobase.h
;	COMDAT ?__copy_trivial@_STL@@YAPAXPBX0PAX@Z
_TEXT	SEGMENT
___first$ = 8						; size = 4
___last$ = 12						; size = 4
___result$ = 16						; size = 4
?__copy_trivial@_STL@@YAPAXPBX0PAX@Z PROC NEAR		; _STL::__copy_trivial, COMDAT

; 147  : __copy_trivial(const void* __first, const void* __last, void* __result) {

  00000	55		 push	 ebp
  00001	8b ec		 mov	 ebp, esp
  00003	56		 push	 esi

; 148  :   return (__last == __first) ? __result : 
; 149  :     ((char*)memmove(__result, __first, ((const char*)__last - (const char*)__first))) + 
; 150  :     ((const char*)__last - (const char*)__first);

  00004	8b 75 0c	 mov	 esi, DWORD PTR ___last$[ebp]
  00007	3b 75 08	 cmp	 esi, DWORD PTR ___first$[ebp]
  0000a	75 05		 jne	 SHORT $L105413
  0000c	8b 45 10	 mov	 eax, DWORD PTR ___result$[ebp]
  0000f	eb 14		 jmp	 SHORT $L105414
$L105413:
  00011	2b 75 08	 sub	 esi, DWORD PTR ___first$[ebp]
  00014	56		 push	 esi
  00015	ff 75 08	 push	 DWORD PTR ___first$[ebp]
  00018	ff 75 10	 push	 DWORD PTR ___result$[ebp]
  0001b	e8 00 00 00 00	 call	 _memmove
  00020	83 c4 0c	 add	 esp, 12			; 0000000cH
  00023	03 c6		 add	 eax, esi
$L105414:
  00025	5e		 pop	 esi

; 151  : }

  00026	5d		 pop	 ebp
  00027	c3		 ret	 0
?__copy_trivial@_STL@@YAPAXPBX0PAX@Z ENDP		; _STL::__copy_trivial
_TEXT	ENDS
PUBLIC	?is_open@iovfs_base@@QBE_NXZ			; iovfs_base::is_open
; Function compile flags: /Ogsy
; File c:\darkeden\designed_common\project\client\virtualfilesystem\vfstream.inl
;	COMDAT ?is_open@iovfs_base@@QBE_NXZ
_TEXT	SEGMENT
?is_open@iovfs_base@@QBE_NXZ PROC NEAR			; iovfs_base::is_open, COMDAT
; _this$ = ecx

; 47   : 	return m_pFileIO && m_pFileIO->is_open();

  00000	83 79 04 00	 cmp	 DWORD PTR [ecx+4], 0
  00004	74 10		 je	 SHORT $L105417
  00006	8b 49 04	 mov	 ecx, DWORD PTR [ecx+4]
  00009	8b 01		 mov	 eax, DWORD PTR [ecx]
  0000b	ff 50 0c	 call	 DWORD PTR [eax+12]
  0000e	84 c0		 test	 al, al
  00010	74 04		 je	 SHORT $L105417
  00012	33 c0		 xor	 eax, eax
  00014	40		 inc	 eax

; 48   : }

  00015	c3		 ret	 0
$L105417:

; 47   : 	return m_pFileIO && m_pFileIO->is_open();

  00016	33 c0		 xor	 eax, eax

; 48   : }

  00018	c3		 ret	 0
?is_open@iovfs_base@@QBE_NXZ ENDP			; iovfs_base::is_open
_TEXT	ENDS
PUBLIC	?uninitialized_copy@_STL@@YAPADPBD0PAD@Z	; _STL::uninitialized_copy
; Function compile flags: /Ogsy
; File c:\stlport-4.6.1\stlport\stl\_uninitialized.h
;	COMDAT ?uninitialized_copy@_STL@@YAPADPBD0PAD@Z
_TEXT	SEGMENT
___first$ = 8						; size = 4
___last$ = 12						; size = 4
___result$ = 16						; size = 4
?uninitialized_copy@_STL@@YAPADPBD0PAD@Z PROC NEAR	; _STL::uninitialized_copy, COMDAT

; 84   :   return  (char*)__copy_trivial (__first, __last, __result);

  00000	e9 00 00 00 00	 jmp	 ?__copy_trivial@_STL@@YAPAXPBX0PAX@Z ; _STL::__copy_trivial
?uninitialized_copy@_STL@@YAPADPBD0PAD@Z ENDP		; _STL::uninitialized_copy
_TEXT	ENDS
PUBLIC	?open@ivfstream@@UAEXPBDH@Z			; ivfstream::open
EXTRN	?open@iovfs_base@@UAEXPBDH@Z:NEAR		; iovfs_base::open
; Function compile flags: /Ogsy
; File c:\darkeden\designed_common\project\client\virtualfilesystem\vfstream.inl
;	COMDAT ?open@ivfstream@@UAEXPBDH@Z
_TEXT	SEGMENT
_szName$ = 8						; size = 4
_nMode$ = 12						; size = 4
?open@ivfstream@@UAEXPBDH@Z PROC NEAR			; ivfstream::open, COMDAT
; _this$ = ecx

; 76   : 	iovfs_base::open(szName, nMode | std::ios_base::in);

  00000	8b 44 24 08	 mov	 eax, DWORD PTR _nMode$[esp-4]
  00004	83 c8 08	 or	 eax, 8
  00007	50		 push	 eax
  00008	ff 74 24 08	 push	 DWORD PTR _szName$[esp]
  0000c	e8 00 00 00 00	 call	 ?open@iovfs_base@@UAEXPBDH@Z ; iovfs_base::open

; 77   : }

  00011	c2 08 00	 ret	 8
?open@ivfstream@@UAEXPBDH@Z ENDP			; ivfstream::open
_TEXT	ENDS
PUBLIC	?read@ivfstream@@QAEXPADI@Z			; ivfstream::read
; Function compile flags: /Ogsy
;	COMDAT ?read@ivfstream@@QAEXPADI@Z
_TEXT	SEGMENT
_buf$ = 8						; size = 4
_len$ = 12						; size = 4
?read@ivfstream@@QAEXPADI@Z PROC NEAR			; ivfstream::read, COMDAT
; _this$ = ecx

; 81   : 	if(m_pFileIO) m_pFileIO->read(buf, len);

  00000	83 79 04 00	 cmp	 DWORD PTR [ecx+4], 0
  00004	74 08		 je	 SHORT $L100484
  00006	8b 49 04	 mov	 ecx, DWORD PTR [ecx+4]
  00009	8b 01		 mov	 eax, DWORD PTR [ecx]
  0000b	ff 60 10	 jmp	 DWORD PTR [eax+16]
$L100484:

; 82   : }

  0000e	c2 08 00	 ret	 8
?read@ivfstream@@QAEXPADI@Z ENDP			; ivfstream::read
_TEXT	ENDS
PUBLIC	?eof@ivfstream@@QBE_NXZ				; ivfstream::eof
; Function compile flags: /Ogsy
;	COMDAT ?eof@ivfstream@@QBE_NXZ
_TEXT	SEGMENT
?eof@ivfstream@@QBE_NXZ PROC NEAR			; ivfstream::eof, COMDAT
; _this$ = ecx

; 96   : 	return m_pFileIO && m_pFileIO->eof();

  00000	83 79 04 00	 cmp	 DWORD PTR [ecx+4], 0
  00004	74 10		 je	 SHORT $L105432
  00006	8b 49 04	 mov	 ecx, DWORD PTR [ecx+4]
  00009	8b 01		 mov	 eax, DWORD PTR [ecx]
  0000b	ff 50 24	 call	 DWORD PTR [eax+36]
  0000e	84 c0		 test	 al, al
  00010	74 04		 je	 SHORT $L105432
  00012	33 c0		 xor	 eax, eax
  00014	40		 inc	 eax

; 97   : }

  00015	c3		 ret	 0
$L105432:

; 96   : 	return m_pFileIO && m_pFileIO->eof();

  00016	33 c0		 xor	 eax, eax

; 97   : }

  00018	c3		 ret	 0
?eof@ivfstream@@QBE_NXZ ENDP				; ivfstream::eof
_TEXT	ENDS
PUBLIC	?length@?$char_traits@D@_STL@@SAIPBD@Z		; _STL::char_traits<char>::length
EXTRN	_strlen:NEAR
; Function compile flags: /Ogsy
; File c:\stlport-4.6.1\stlport\stl\char_traits.h
;	COMDAT ?length@?$char_traits@D@_STL@@SAIPBD@Z
_TEXT	SEGMENT
___s$ = 8						; size = 4
?length@?$char_traits@D@_STL@@SAIPBD@Z PROC NEAR	; _STL::char_traits<char>::length, COMDAT

; 238  :   static size_t _STLP_CALL length(const char* __s) { return strlen(__s); }

  00000	e9 00 00 00 00	 jmp	 _strlen
?length@?$char_traits@D@_STL@@SAIPBD@Z ENDP		; _STL::char_traits<char>::length
_TEXT	ENDS
PUBLIC	?assign@?$char_traits@D@_STL@@SAXAADABD@Z	; _STL::char_traits<char>::assign
; Function compile flags: /Ogsy
;	COMDAT ?assign@?$char_traits@D@_STL@@SAXAADABD@Z
_TEXT	SEGMENT
___c1$ = 8						; size = 4
___c2$ = 12						; size = 4
?assign@?$char_traits@D@_STL@@SAXAADABD@Z PROC NEAR	; _STL::char_traits<char>::assign, COMDAT

; 240  :   static void _STLP_CALL assign(char& __c1, const char& __c2) { __c1 = __c2; }

  00000	8b 44 24 08	 mov	 eax, DWORD PTR ___c2$[esp-4]
  00004	8a 00		 mov	 al, BYTE PTR [eax]
  00006	8b 4c 24 04	 mov	 ecx, DWORD PTR ___c1$[esp-4]
  0000a	88 01		 mov	 BYTE PTR [ecx], al
  0000c	c3		 ret	 0
?assign@?$char_traits@D@_STL@@SAXAADABD@Z ENDP		; _STL::char_traits<char>::assign
_TEXT	ENDS
PUBLIC	??0UserOption@@QAE@XZ				; UserOption::UserOption
; Function compile flags: /Ogsy
; File c:\darkeden\designed_common\project\client\useroption.cpp
;	COMDAT ??0UserOption@@QAE@XZ
_TEXT	SEGMENT
??0UserOption@@QAE@XZ PROC NEAR				; UserOption::UserOption, COMDAT
; _this$ = ecx

; 42   : {	

  00000	8b c1		 mov	 eax, ecx

; 43   : 	Use3DHAL			= FALSE;

  00002	33 d2		 xor	 edx, edx
  00004	56		 push	 esi

; 44   : 	UseSmoothCursor		= FALSE;//TRUE;
; 45   : 	DrawMinimap			= TRUE;		// minimap을 그릴까?
; 46   : 	DrawZoneName		= TRUE;		// Zone이름 출력
; 47   : 	DrawGameTime		= TRUE;		// 게임 시간 출력
; 48   : 	DrawInterface		= FALSE;		// interface
; 49   : 	DrawFPS				= FALSE;		// FPS
; 50   : 	BlendingShadow		= FALSE;//TRUE;			// 그림자 반투명
; 51   : 	FilteringCurse		= TRUE;		// 나쁜 말 제거
; 52   : 	PlayMusic			= TRUE;		// 음악 출력
; 53   : 	PlaySound			= TRUE;		// 효과음 출력
; 54   : 	VolumeMusic			= 15;		// 음악 소리크기

  00005	6a 0f		 push	 15			; 0000000fH
  00007	5e		 pop	 esi
  00008	33 c9		 xor	 ecx, ecx
  0000a	41		 inc	 ecx
  0000b	89 70 3c	 mov	 DWORD PTR [eax+60], esi

; 55   : 	VolumeSound			= 15;		// 효과음 소리 크기

  0000e	89 70 40	 mov	 DWORD PTR [eax+64], esi
  00011	89 50 10	 mov	 DWORD PTR [eax+16], edx
  00014	89 50 14	 mov	 DWORD PTR [eax+20], edx
  00017	89 48 18	 mov	 DWORD PTR [eax+24], ecx
  0001a	89 48 1c	 mov	 DWORD PTR [eax+28], ecx
  0001d	89 48 20	 mov	 DWORD PTR [eax+32], ecx
  00020	89 50 24	 mov	 DWORD PTR [eax+36], edx
  00023	89 50 28	 mov	 DWORD PTR [eax+40], edx
  00026	89 50 2c	 mov	 DWORD PTR [eax+44], edx
  00029	89 48 30	 mov	 DWORD PTR [eax+48], ecx
  0002c	89 48 34	 mov	 DWORD PTR [eax+52], ecx
  0002f	89 48 38	 mov	 DWORD PTR [eax+56], ecx

; 56   : 	UseHelpEvent		= TRUE;		// 도움말 사용

  00032	89 48 44	 mov	 DWORD PTR [eax+68], ecx

; 57   : 	PlayWaveMusic		= TRUE;		// Wav로 음악 출력하기(아니면 MID로)

  00035	89 48 48	 mov	 DWORD PTR [eax+72], ecx

; 58   : 	BloodDrop			= TRUE;		// HP 낮을 때 피 흘리기

  00038	89 48 4c	 mov	 DWORD PTR [eax+76], ecx

; 59   : 	OpenQuickSlot		= FALSE;

  0003b	89 50 50	 mov	 DWORD PTR [eax+80], edx

; 60   : 	UseHalfFrame		= FALSE;

  0003e	89 50 54	 mov	 DWORD PTR [eax+84], edx

; 61   : 	DrawTransHPBar		= TRUE;

  00041	89 48 58	 mov	 DWORD PTR [eax+88], ecx

; 62   : 	UseForceFeel		= FALSE;

  00044	89 50 5c	 mov	 DWORD PTR [eax+92], edx

; 63   : 	UseGammaControl		= TRUE;

  00047	89 48 60	 mov	 DWORD PTR [eax+96], ecx

; 64   : 	GammaValue			= 100;

  0004a	c7 40 64 64 00
	00 00		 mov	 DWORD PTR [eax+100], 100 ; 00000064H

; 65   : 	DrawChatBoxOutline	= TRUE;

  00051	89 48 68	 mov	 DWORD PTR [eax+104], ecx

; 66   : 
; 67   : 	//new interface
; 68   : 	BackupID[0]			= '\0';

  00054	88 50 6c	 mov	 BYTE PTR [eax+108], dl

; 69   : 	UseEnterChat		= TRUE;

  00057	89 48 7c	 mov	 DWORD PTR [eax+124], ecx

; 70   : 	UseMouseSpeed		= FALSE;

  0005a	89 90 80 00 00
	00		 mov	 DWORD PTR [eax+128], edx

; 71   : 	MouseSpeedValue		= 50;

  00060	c7 80 84 00 00
	00 32 00 00 00	 mov	 DWORD PTR [eax+132], 50	; 00000032H

; 72   : 	PlayYellSound		= TRUE;

  0006a	89 88 88 00 00
	00		 mov	 DWORD PTR [eax+136], ecx

; 73   : 	ShowChoboHelp		= TRUE;

  00070	89 88 8c 00 00
	00		 mov	 DWORD PTR [eax+140], ecx

; 74   : 	TribeChange			= FALSE;

  00076	89 90 90 00 00
	00		 mov	 DWORD PTR [eax+144], edx

; 75   : 	DenyPartyInvite		= FALSE;

  0007c	89 90 94 00 00
	00		 mov	 DWORD PTR [eax+148], edx

; 76   : 	DenyPartyRequest	= FALSE;

  00082	89 90 98 00 00
	00		 mov	 DWORD PTR [eax+152], edx

; 77   : 	AutoHideSmoothScroll = TRUE;

  00088	89 88 9c 00 00
	00		 mov	 DWORD PTR [eax+156], ecx

; 78   : 	ChattingColor		= RGB(198, 195, 198);

  0008e	c7 80 a0 00 00
	00 c6 c3 c6 00	 mov	 DWORD PTR [eax+160], 13026246 ; 00c6c3c6H

; 79   : 	ALPHA_DEPTH			= 23;

  00098	c6 80 a4 00 00
	00 17		 mov	 BYTE PTR [eax+164], 23	; 00000017H

; 80   : 	DefaultAlpha		= FALSE;

  0009f	89 90 a8 00 00
	00		 mov	 DWORD PTR [eax+168], edx

; 81   : 	IsPreLoadMonster	= TRUE;

  000a5	89 88 ac 00 00
	00		 mov	 DWORD PTR [eax+172], ecx

; 82   : 	ChatWhite			= FALSE;

  000ab	89 90 b0 00 00
	00		 mov	 DWORD PTR [eax+176], edx

; 83   : 	UseTeenVersion		= FALSE;				// 틴버전으로 게임하기

  000b1	89 90 b4 00 00
	00		 mov	 DWORD PTR [eax+180], edx

; 84   : 	PopupChatByWhisper	= TRUE;			// 귓속말 왔을때 채팅창 잠깐 보이기

  000b7	89 88 b8 00 00
	00		 mov	 DWORD PTR [eax+184], ecx

; 85   : 	NotSendMyInfo = FALSE;

  000bd	89 90 bc 00 00
	00		 mov	 DWORD PTR [eax+188], edx

; 86   : 	DoNotShowWarMsg = FALSE;

  000c3	89 90 c0 00 00
	00		 mov	 DWORD PTR [eax+192], edx

; 87   : 	DoNotShowLairMsg = FALSE;

  000c9	89 90 c4 00 00
	00		 mov	 DWORD PTR [eax+196], edx

; 88   : 	DoNotShowHolyLandMsg = FALSE;

  000cf	89 90 c8 00 00
	00		 mov	 DWORD PTR [eax+200], edx

; 89   : 	Chinese = FALSE;

  000d5	89 10		 mov	 DWORD PTR [eax], edx

; 90   : 	Korean = TRUE;

  000d7	89 48 04	 mov	 DWORD PTR [eax+4], ecx

; 91   : 	Japanese = FALSE;

  000da	89 50 08	 mov	 DWORD PTR [eax+8], edx

; 92   : 	English = FALSE;

  000dd	89 50 0c	 mov	 DWORD PTR [eax+12], edx

; 93   : 	persnalShopupdatetime = 0;

  000e0	89 90 cc 00 00
	00		 mov	 DWORD PTR [eax+204], edx

; 94   : 	ShowGameMoneyWithHANGUL = FALSE;

  000e6	89 90 d0 00 00
	00		 mov	 DWORD PTR [eax+208], edx

; 95   : 	DoNotShowPersnalShopMsg = FALSE;

  000ec	89 90 d4 00 00
	00		 mov	 DWORD PTR [eax+212], edx

; 96   : #if __CONTENTS(__AUTO_ATTACT)	
; 97   : 	DoNotOneClickAttackOff	= TRUE;

  000f2	89 88 dc 00 00
	00		 mov	 DWORD PTR [eax+220], ecx

; 98   : #endif //__JAPAN_UI
; 99   : 	Resolution1024			= FALSE;

  000f8	89 90 e0 00 00
	00		 mov	 DWORD PTR [eax+224], edx

; 100  : 
; 101  : #if __CONTENTS(__GAMEOPTION_ITEMBAY_MESSAGEBOX)
; 102  : 	DoNotShowItemBayMessageBox	= FALSE;

  000fe	89 90 d8 00 00
	00		 mov	 DWORD PTR [eax+216], edx
  00104	5e		 pop	 esi

; 103  : #endif
; 104  : }

  00105	c3		 ret	 0
??0UserOption@@QAE@XZ ENDP				; UserOption::UserOption
_TEXT	ENDS
PUBLIC	?widen@?$ctype@D@_STL@@QBEDD@Z			; _STL::ctype<char>::widen
; Function compile flags: /Ogsy
; File c:\stlport-4.6.1\stlport\stl\_ctype.h
;	COMDAT ?widen@?$ctype@D@_STL@@QBEDD@Z
_TEXT	SEGMENT
___c$ = 8						; size = 1
?widen@?$ctype@D@_STL@@QBEDD@Z PROC NEAR		; _STL::ctype<char>::widen, COMDAT
; _this$ = ecx

; 102  :   char        widen(char __c) const { return do_widen(__c); }

  00000	8b 01		 mov	 eax, DWORD PTR [ecx]
  00002	ff 60 18	 jmp	 DWORD PTR [eax+24]
?widen@?$ctype@D@_STL@@QBEDD@Z ENDP			; _STL::ctype<char>::widen
_TEXT	ENDS
PUBLIC	??1UserOption@@QAE@XZ				; UserOption::~UserOption
; Function compile flags: /Ogsy
; File c:\darkeden\designed_common\project\client\useroption.cpp
;	COMDAT ??1UserOption@@QAE@XZ
_TEXT	SEGMENT
??1UserOption@@QAE@XZ PROC NEAR				; UserOption::~UserOption, COMDAT
; _this$ = ecx

; 108  : }

  00000	c3		 ret	 0
??1UserOption@@QAE@XZ ENDP				; UserOption::~UserOption
_TEXT	ENDS
PUBLIC	?flags@ios_base@_STL@@QBEHXZ			; _STL::ios_base::flags
; Function compile flags: /Ogsy
; File c:\stlport-4.6.1\stlport\stl\_ios_base.h
;	COMDAT ?flags@ios_base@_STL@@QBEHXZ
_TEXT	SEGMENT
?flags@ios_base@_STL@@QBEHXZ PROC NEAR			; _STL::ios_base::flags, COMDAT
; _this$ = ecx

; 115  :   fmtflags flags() const { return _M_fmtflags; }

  00000	8b 41 04	 mov	 eax, DWORD PTR [ecx+4]
  00003	c3		 ret	 0
?flags@ios_base@_STL@@QBEHXZ ENDP			; _STL::ios_base::flags
_TEXT	ENDS
PUBLIC	?flags@ios_base@_STL@@QAEHH@Z			; _STL::ios_base::flags
; Function compile flags: /Ogsy
;	COMDAT ?flags@ios_base@_STL@@QAEHH@Z
_TEXT	SEGMENT
___flags$ = 8						; size = 4
?flags@ios_base@_STL@@QAEHH@Z PROC NEAR			; _STL::ios_base::flags, COMDAT
; _this$ = ecx

; 117  :     fmtflags __tmp = _M_fmtflags;
; 118  :     _M_fmtflags = __flags;

  00000	8b 54 24 04	 mov	 edx, DWORD PTR ___flags$[esp-4]
  00004	8b 41 04	 mov	 eax, DWORD PTR [ecx+4]
  00007	89 51 04	 mov	 DWORD PTR [ecx+4], edx

; 119  :     return __tmp;
; 120  :   }

  0000a	c2 04 00	 ret	 4
?flags@ios_base@_STL@@QAEHH@Z ENDP			; _STL::ios_base::flags
_TEXT	ENDS
PUBLIC	?precision@ios_base@_STL@@QAEHH@Z		; _STL::ios_base::precision
; Function compile flags: /Ogsy
;	COMDAT ?precision@ios_base@_STL@@QAEHH@Z
_TEXT	SEGMENT
___newprecision$ = 8					; size = 4
?precision@ios_base@_STL@@QAEHH@Z PROC NEAR		; _STL::ios_base::precision, COMDAT
; _this$ = ecx

; 137  :     streamsize __tmp = _M_precision;
; 138  :     _M_precision = __newprecision;

  00000	8b 54 24 04	 mov	 edx, DWORD PTR ___newprecision$[esp-4]
  00004	8b 41 18	 mov	 eax, DWORD PTR [ecx+24]
  00007	89 51 18	 mov	 DWORD PTR [ecx+24], edx

; 139  :     return __tmp;
; 140  :   }

  0000a	c2 04 00	 ret	 4
?precision@ios_base@_STL@@QAEHH@Z ENDP			; _STL::ios_base::precision
_TEXT	ENDS
PUBLIC	?width@ios_base@_STL@@QAEHH@Z			; _STL::ios_base::width
; Function compile flags: /Ogsy
;	COMDAT ?width@ios_base@_STL@@QAEHH@Z
_TEXT	SEGMENT
___newwidth$ = 8					; size = 4
?width@ios_base@_STL@@QAEHH@Z PROC NEAR			; _STL::ios_base::width, COMDAT
; _this$ = ecx

; 144  :     streamsize __tmp = _M_width;
; 145  :     _M_width = __newwidth;

  00000	8b 54 24 04	 mov	 edx, DWORD PTR ___newwidth$[esp-4]
  00004	8b 41 1c	 mov	 eax, DWORD PTR [ecx+28]
  00007	89 51 1c	 mov	 DWORD PTR [ecx+28], edx

; 146  :     return __tmp;
; 147  :   }

  0000a	c2 04 00	 ret	 4
?width@ios_base@_STL@@QAEHH@Z ENDP			; _STL::ios_base::width
_TEXT	ENDS
PUBLIC	?rdstate@ios_base@_STL@@QBEHXZ			; _STL::ios_base::rdstate
; Function compile flags: /Ogsy
;	COMDAT ?rdstate@ios_base@_STL@@QBEHXZ
_TEXT	SEGMENT
?rdstate@ios_base@_STL@@QBEHXZ PROC NEAR		; _STL::ios_base::rdstate, COMDAT
; _this$ = ecx

; 178  :   iostate rdstate() const { return _M_iostate; }

  00000	8b 41 08	 mov	 eax, DWORD PTR [ecx+8]
  00003	c3		 ret	 0
?rdstate@ios_base@_STL@@QBEHXZ ENDP			; _STL::ios_base::rdstate
_TEXT	ENDS
PUBLIC	?good@ios_base@_STL@@QBE_NXZ			; _STL::ios_base::good
; Function compile flags: /Ogsy
;	COMDAT ?good@ios_base@_STL@@QBE_NXZ
_TEXT	SEGMENT
?good@ios_base@_STL@@QBE_NXZ PROC NEAR			; _STL::ios_base::good, COMDAT
; _this$ = ecx

; 180  :   bool good() const { return _M_iostate == 0; }

  00000	33 c0		 xor	 eax, eax
  00002	39 41 08	 cmp	 DWORD PTR [ecx+8], eax
  00005	0f 94 c0	 sete	 al
  00008	c3		 ret	 0
?good@ios_base@_STL@@QBE_NXZ ENDP			; _STL::ios_base::good
_TEXT	ENDS
PUBLIC	?_M_setstate_nothrow@ios_base@_STL@@IAEXH@Z	; _STL::ios_base::_M_setstate_nothrow
; Function compile flags: /Ogsy
;	COMDAT ?_M_setstate_nothrow@ios_base@_STL@@IAEXH@Z
_TEXT	SEGMENT
___state$ = 8						; size = 4
?_M_setstate_nothrow@ios_base@_STL@@IAEXH@Z PROC NEAR	; _STL::ios_base::_M_setstate_nothrow, COMDAT
; _this$ = ecx

; 193  :   void _M_setstate_nothrow(iostate __state) { _M_iostate |= __state; }

  00000	8b 44 24 04	 mov	 eax, DWORD PTR ___state$[esp-4]
  00004	09 41 08	 or	 DWORD PTR [ecx+8], eax
  00007	c2 04 00	 ret	 4
?_M_setstate_nothrow@ios_base@_STL@@IAEXH@Z ENDP	; _STL::ios_base::_M_setstate_nothrow
_TEXT	ENDS
PUBLIC	?_M_clear_nothrow@ios_base@_STL@@IAEXH@Z	; _STL::ios_base::_M_clear_nothrow
; Function compile flags: /Ogsy
;	COMDAT ?_M_clear_nothrow@ios_base@_STL@@IAEXH@Z
_TEXT	SEGMENT
___state$ = 8						; size = 4
?_M_clear_nothrow@ios_base@_STL@@IAEXH@Z PROC NEAR	; _STL::ios_base::_M_clear_nothrow, COMDAT
; _this$ = ecx

; 194  :   void _M_clear_nothrow(iostate __state) { _M_iostate = __state; }

  00000	8b 44 24 04	 mov	 eax, DWORD PTR ___state$[esp-4]
  00004	89 41 08	 mov	 DWORD PTR [ecx+8], eax
  00007	c2 04 00	 ret	 4
?_M_clear_nothrow@ios_base@_STL@@IAEXH@Z ENDP		; _STL::ios_base::_M_clear_nothrow
_TEXT	ENDS
PUBLIC	?_M_get_exception_mask@ios_base@_STL@@IBEHXZ	; _STL::ios_base::_M_get_exception_mask
; Function compile flags: /Ogsy
;	COMDAT ?_M_get_exception_mask@ios_base@_STL@@IBEHXZ
_TEXT	SEGMENT
?_M_get_exception_mask@ios_base@_STL@@IBEHXZ PROC NEAR	; _STL::ios_base::_M_get_exception_mask, COMDAT
; _this$ = ecx

; 195  :   iostate _M_get_exception_mask() const { return _M_exception_mask; }

  00000	8b 41 14	 mov	 eax, DWORD PTR [ecx+20]
  00003	c3		 ret	 0
?_M_get_exception_mask@ios_base@_STL@@IBEHXZ ENDP	; _STL::ios_base::_M_get_exception_mask
_TEXT	ENDS
PUBLIC	?_M_set_exception_mask@ios_base@_STL@@IAEXH@Z	; _STL::ios_base::_M_set_exception_mask
; Function compile flags: /Ogsy
;	COMDAT ?_M_set_exception_mask@ios_base@_STL@@IAEXH@Z
_TEXT	SEGMENT
___mask$ = 8						; size = 4
?_M_set_exception_mask@ios_base@_STL@@IAEXH@Z PROC NEAR	; _STL::ios_base::_M_set_exception_mask, COMDAT
; _this$ = ecx

; 196  :   void _M_set_exception_mask(iostate __mask) { _M_exception_mask = __mask; }

  00000	8b 44 24 04	 mov	 eax, DWORD PTR ___mask$[esp-4]
  00004	89 41 14	 mov	 DWORD PTR [ecx+20], eax
  00007	c2 04 00	 ret	 4
?_M_set_exception_mask@ios_base@_STL@@IAEXH@Z ENDP	; _STL::ios_base::_M_set_exception_mask
_TEXT	ENDS
PUBLIC	?_M_check_exception_mask@ios_base@_STL@@IAEXXZ	; _STL::ios_base::_M_check_exception_mask
EXTRN	?_M_throw_failure@ios_base@_STL@@IAEXXZ:NEAR	; _STL::ios_base::_M_throw_failure
; Function compile flags: /Ogsy
;	COMDAT ?_M_check_exception_mask@ios_base@_STL@@IAEXXZ
_TEXT	SEGMENT
?_M_check_exception_mask@ios_base@_STL@@IAEXXZ PROC NEAR ; _STL::ios_base::_M_check_exception_mask, COMDAT
; _this$ = ecx

; 198  :     if (_M_iostate & _M_exception_mask)

  00000	8b 41 14	 mov	 eax, DWORD PTR [ecx+20]
  00003	85 41 08	 test	 eax, DWORD PTR [ecx+8]
  00006	74 05		 je	 SHORT $L79498

; 199  :       _M_throw_failure(); 

  00008	e9 00 00 00 00	 jmp	 ?_M_throw_failure@ios_base@_STL@@IAEXXZ ; _STL::ios_base::_M_throw_failure
$L79498:

; 200  :   }

  0000d	c3		 ret	 0
?_M_check_exception_mask@ios_base@_STL@@IAEXXZ ENDP	; _STL::ios_base::_M_check_exception_mask
_TEXT	ENDS
PUBLIC	?_M_ctype_facet@ios_base@_STL@@QBEPBVfacet@locale@2@XZ ; _STL::ios_base::_M_ctype_facet
; Function compile flags: /Ogsy
;	COMDAT ?_M_ctype_facet@ios_base@_STL@@QBEPBVfacet@locale@2@XZ
_TEXT	SEGMENT
?_M_ctype_facet@ios_base@_STL@@QBEPBVfacet@locale@2@XZ PROC NEAR ; _STL::ios_base::_M_ctype_facet, COMDAT
; _this$ = ecx

; 250  :   const locale::facet* _M_ctype_facet() const { return _M_cached_ctype; }

  00000	8b 41 40	 mov	 eax, DWORD PTR [ecx+64]
  00003	c3		 ret	 0
?_M_ctype_facet@ios_base@_STL@@QBEPBVfacet@locale@2@XZ ENDP ; _STL::ios_base::_M_ctype_facet
_TEXT	ENDS
PUBLIC	?eq_int_type@?$__char_traits_base@DH@_STL@@SA_NABH0@Z ; _STL::__char_traits_base<char,int>::eq_int_type
; Function compile flags: /Ogsy
; File c:\stlport-4.6.1\stlport\stl\char_traits.h
;	COMDAT ?eq_int_type@?$__char_traits_base@DH@_STL@@SA_NABH0@Z
_TEXT	SEGMENT
___c1$ = 8						; size = 4
___c2$ = 12						; size = 4
?eq_int_type@?$__char_traits_base@DH@_STL@@SA_NABH0@Z PROC NEAR ; _STL::__char_traits_base<char,int>::eq_int_type, COMDAT

; 193  :     return __c1 == __c2;

  00000	8b 44 24 04	 mov	 eax, DWORD PTR ___c1$[esp-4]
  00004	8b 00		 mov	 eax, DWORD PTR [eax]
  00006	8b 4c 24 08	 mov	 ecx, DWORD PTR ___c2$[esp-4]
  0000a	2b 01		 sub	 eax, DWORD PTR [ecx]
  0000c	f7 d8		 neg	 eax
  0000e	1b c0		 sbb	 eax, eax
  00010	40		 inc	 eax

; 194  :   }

  00011	c3		 ret	 0
?eq_int_type@?$__char_traits_base@DH@_STL@@SA_NABH0@Z ENDP ; _STL::__char_traits_base<char,int>::eq_int_type
_TEXT	ENDS
PUBLIC	?c_str@?$basic_string@DV?$char_traits@D@_STL@@V?$allocator@D@2@@_STL@@QBEPBDXZ ; _STL::basic_string<char,_STL::char_traits<char>,_STL::allocator<char> >::c_str
; Function compile flags: /Ogsy
; File c:\stlport-4.6.1\stlport\stl\_string.h
;	COMDAT ?c_str@?$basic_string@DV?$char_traits@D@_STL@@V?$allocator@D@2@@_STL@@QBEPBDXZ
_TEXT	SEGMENT
?c_str@?$basic_string@DV?$char_traits@D@_STL@@V?$allocator@D@2@@_STL@@QBEPBDXZ PROC NEAR ; _STL::basic_string<char,_STL::char_traits<char>,_STL::allocator<char> >::c_str, COMDAT
; _this$ = ecx

; 1065 :   const _CharT* c_str() const { return this->_M_start; }

  00000	8b 01		 mov	 eax, DWORD PTR [ecx]
  00002	c3		 ret	 0
?c_str@?$basic_string@DV?$char_traits@D@_STL@@V?$allocator@D@2@@_STL@@QBEPBDXZ ENDP ; _STL::basic_string<char,_STL::char_traits<char>,_STL::allocator<char> >::c_str
_TEXT	ENDS
PUBLIC	?_M_terminate_string_aux@?$basic_string@DV?$char_traits@D@_STL@@V?$allocator@D@2@@_STL@@AAEXABU__true_type@2@@Z ; _STL::basic_string<char,_STL::char_traits<char>,_STL::allocator<char> >::_M_terminate_string_aux
; Function compile flags: /Ogsy
;	COMDAT ?_M_terminate_string_aux@?$basic_string@DV?$char_traits@D@_STL@@V?$allocator@D@2@@_STL@@AAEXABU__true_type@2@@Z
_TEXT	SEGMENT
___formal$ = 8						; size = 4
?_M_terminate_string_aux@?$basic_string@DV?$char_traits@D@_STL@@V?$allocator@D@2@@_STL@@AAEXABU__true_type@2@@Z PROC NEAR ; _STL::basic_string<char,_STL::char_traits<char>,_STL::allocator<char> >::_M_terminate_string_aux, COMDAT
; _this$ = ecx

; 351  :     *(this->_M_finish)=0;

  00000	8b 41 04	 mov	 eax, DWORD PTR [ecx+4]
  00003	c6 00 00	 mov	 BYTE PTR [eax], 0

; 352  :   }

  00006	c2 04 00	 ret	 4
?_M_terminate_string_aux@?$basic_string@DV?$char_traits@D@_STL@@V?$allocator@D@2@@_STL@@AAEXABU__true_type@2@@Z ENDP ; _STL::basic_string<char,_STL::char_traits<char>,_STL::allocator<char> >::_M_terminate_string_aux
_TEXT	ENDS
PUBLIC	??0?$allocator@D@_STL@@QAE@ABV01@@Z		; _STL::allocator<char>::allocator<char>
; Function compile flags: /Ogsy
; File c:\stlport-4.6.1\stlport\stl\_alloc.h
;	COMDAT ??0?$allocator@D@_STL@@QAE@ABV01@@Z
_TEXT	SEGMENT
___formal$ = 8						; size = 4
??0?$allocator@D@_STL@@QAE@ABV01@@Z PROC NEAR		; _STL::allocator<char>::allocator<char>, COMDAT
; _this$ = ecx

; 349  :   allocator(const allocator<_Tp>&) _STLP_NOTHROW {}

  00000	8b c1		 mov	 eax, ecx
  00002	c2 04 00	 ret	 4
??0?$allocator@D@_STL@@QAE@ABV01@@Z ENDP		; _STL::allocator<char>::allocator<char>
_TEXT	ENDS
PUBLIC	?open@?$basic_filebuf@DV?$char_traits@D@_STL@@@_STL@@QAEPAV12@PBDH@Z ; _STL::basic_filebuf<char,_STL::char_traits<char> >::open
EXTRN	?_M_open@_Filebuf_base@_STL@@QAE_NPBDH@Z:NEAR	; _STL::_Filebuf_base::_M_open
; Function compile flags: /Ogsy
; File c:\stlport-4.6.1\stlport\stl\_fstream.h
;	COMDAT ?open@?$basic_filebuf@DV?$char_traits@D@_STL@@@_STL@@QAEPAV12@PBDH@Z
_TEXT	SEGMENT
___s$ = 8						; size = 4
___m$ = 12						; size = 4
?open@?$basic_filebuf@DV?$char_traits@D@_STL@@@_STL@@QAEPAV12@PBDH@Z PROC NEAR ; _STL::basic_filebuf<char,_STL::char_traits<char> >::open, COMDAT
; _this$ = ecx

; 200  :   _Self* open(const char* __s, ios_base::openmode __m) {

  00000	56		 push	 esi

; 201  :     return _M_base._M_open(__s, __m) ? this : 0;

  00001	ff 74 24 0c	 push	 DWORD PTR ___m$[esp]
  00005	8b f1		 mov	 esi, ecx
  00007	ff 74 24 0c	 push	 DWORD PTR ___s$[esp+4]
  0000b	8d 4e 54	 lea	 ecx, DWORD PTR [esi+84]
  0000e	e8 00 00 00 00	 call	 ?_M_open@_Filebuf_base@_STL@@QAE_NPBDH@Z ; _STL::_Filebuf_base::_M_open
  00013	f6 d8		 neg	 al
  00015	1b c0		 sbb	 eax, eax
  00017	23 c6		 and	 eax, esi
  00019	5e		 pop	 esi

; 202  :   }

  0001a	c2 08 00	 ret	 8
?open@?$basic_filebuf@DV?$char_traits@D@_STL@@@_STL@@QAEPAV12@PBDH@Z ENDP ; _STL::basic_filebuf<char,_STL::char_traits<char> >::open
_TEXT	ENDS
PUBLIC	?rdbuf@?$basic_ofstream@DV?$char_traits@D@_STL@@@_STL@@QBEPAV?$basic_filebuf@DV?$char_traits@D@_STL@@@2@XZ ; _STL::basic_ofstream<char,_STL::char_traits<char> >::rdbuf
; Function compile flags: /Ogsy
;	COMDAT ?rdbuf@?$basic_ofstream@DV?$char_traits@D@_STL@@@_STL@@QBEPAV?$basic_filebuf@DV?$char_traits@D@_STL@@@2@XZ
_TEXT	SEGMENT
?rdbuf@?$basic_ofstream@DV?$char_traits@D@_STL@@@_STL@@QBEPAV?$basic_filebuf@DV?$char_traits@D@_STL@@@2@XZ PROC NEAR ; _STL::basic_ofstream<char,_STL::char_traits<char> >::rdbuf, COMDAT
; _this$ = ecx

; 620  :     { return __CONST_CAST(_Buf*,&_M_buf); } 

  00000	8d 41 04	 lea	 eax, DWORD PTR [ecx+4]
  00003	c3		 ret	 0
?rdbuf@?$basic_ofstream@DV?$char_traits@D@_STL@@@_STL@@QBEPAV?$basic_filebuf@DV?$char_traits@D@_STL@@@2@XZ ENDP ; _STL::basic_ofstream<char,_STL::char_traits<char> >::rdbuf
_TEXT	ENDS
PUBLIC	?copy@?$__char_traits_base@DH@_STL@@SAPADPADPBDI@Z ; _STL::__char_traits_base<char,int>::copy
EXTRN	_memcpy:NEAR
; Function compile flags: /Ogsy
; File c:\stlport-4.6.1\stlport\stl\char_traits.h
;	COMDAT ?copy@?$__char_traits_base@DH@_STL@@SAPADPADPBDI@Z
_TEXT	SEGMENT
___s1$ = 8						; size = 4
___s2$ = 12						; size = 4
___n$ = 16						; size = 4
?copy@?$__char_traits_base@DH@_STL@@SAPADPADPBDI@Z PROC NEAR ; _STL::__char_traits_base<char,int>::copy, COMDAT

; 169  :   static _CharT* _STLP_CALL copy(_CharT* __s1, const _CharT* __s2, size_t __n) {

  00000	55		 push	 ebp
  00001	8b ec		 mov	 ebp, esp

; 170  :     return (__n == 0 ? __s1 :
; 171  : 	    (_CharT*)memcpy(__s1, __s2, __n * sizeof(_CharT)));

  00003	83 7d 10 00	 cmp	 DWORD PTR ___n$[ebp], 0
  00007	75 05		 jne	 SHORT $L105508
  00009	8b 45 08	 mov	 eax, DWORD PTR ___s1$[ebp]

; 172  :     } 

  0000c	5d		 pop	 ebp
  0000d	c3		 ret	 0
$L105508:
  0000e	5d		 pop	 ebp

; 170  :     return (__n == 0 ? __s1 :
; 171  : 	    (_CharT*)memcpy(__s1, __s2, __n * sizeof(_CharT)));

  0000f	e9 00 00 00 00	 jmp	 _memcpy
?copy@?$__char_traits_base@DH@_STL@@SAPADPADPBDI@Z ENDP	; _STL::__char_traits_base<char,int>::copy
_TEXT	ENDS
PUBLIC	?begin@?$basic_string@DV?$char_traits@D@_STL@@V?$allocator@D@2@@_STL@@QAEPADXZ ; _STL::basic_string<char,_STL::char_traits<char>,_STL::allocator<char> >::begin
; Function compile flags: /Ogsy
; File c:\stlport-4.6.1\stlport\stl\_string.h
;	COMDAT ?begin@?$basic_string@DV?$char_traits@D@_STL@@V?$allocator@D@2@@_STL@@QAEPADXZ
_TEXT	SEGMENT
?begin@?$basic_string@DV?$char_traits@D@_STL@@V?$allocator@D@2@@_STL@@QAEPADXZ PROC NEAR ; _STL::basic_string<char,_STL::char_traits<char>,_STL::allocator<char> >::begin, COMDAT
; _this$ = ecx

; 416  :   iterator begin()             { return this->_M_start; }

  00000	8b 01		 mov	 eax, DWORD PTR [ecx]
  00002	c3		 ret	 0
?begin@?$basic_string@DV?$char_traits@D@_STL@@V?$allocator@D@2@@_STL@@QAEPADXZ ENDP ; _STL::basic_string<char,_STL::char_traits<char>,_STL::allocator<char> >::begin
_TEXT	ENDS
PUBLIC	?end@?$basic_string@DV?$char_traits@D@_STL@@V?$allocator@D@2@@_STL@@QAEPADXZ ; _STL::basic_string<char,_STL::char_traits<char>,_STL::allocator<char> >::end
; Function compile flags: /Ogsy
;	COMDAT ?end@?$basic_string@DV?$char_traits@D@_STL@@V?$allocator@D@2@@_STL@@QAEPADXZ
_TEXT	SEGMENT
?end@?$basic_string@DV?$char_traits@D@_STL@@V?$allocator@D@2@@_STL@@QAEPADXZ PROC NEAR ; _STL::basic_string<char,_STL::char_traits<char>,_STL::allocator<char> >::end, COMDAT
; _this$ = ecx

; 417  :   iterator end()               { return this->_M_finish; }

  00000	8b 41 04	 mov	 eax, DWORD PTR [ecx+4]
  00003	c3		 ret	 0
?end@?$basic_string@DV?$char_traits@D@_STL@@V?$allocator@D@2@@_STL@@QAEPADXZ ENDP ; _STL::basic_string<char,_STL::char_traits<char>,_STL::allocator<char> >::end
_TEXT	ENDS
PUBLIC	?size@?$basic_string@DV?$char_traits@D@_STL@@V?$allocator@D@2@@_STL@@QBEIXZ ; _STL::basic_string<char,_STL::char_traits<char>,_STL::allocator<char> >::size
; Function compile flags: /Ogsy
;	COMDAT ?size@?$basic_string@DV?$char_traits@D@_STL@@V?$allocator@D@2@@_STL@@QBEIXZ
_TEXT	SEGMENT
?size@?$basic_string@DV?$char_traits@D@_STL@@V?$allocator@D@2@@_STL@@QBEIXZ PROC NEAR ; _STL::basic_string<char,_STL::char_traits<char>,_STL::allocator<char> >::size, COMDAT
; _this$ = ecx

; 431  :   size_type size() const { return this->_M_finish - this->_M_start; }

  00000	8b 41 04	 mov	 eax, DWORD PTR [ecx+4]
  00003	2b 01		 sub	 eax, DWORD PTR [ecx]
  00005	c3		 ret	 0
?size@?$basic_string@DV?$char_traits@D@_STL@@V?$allocator@D@2@@_STL@@QBEIXZ ENDP ; _STL::basic_string<char,_STL::char_traits<char>,_STL::allocator<char> >::size
_TEXT	ENDS
PUBLIC	?_FILE_I_set@_STL@@YAXPAU_iobuf@@PAD11@Z	; _STL::_FILE_I_set
; Function compile flags: /Ogsy
; File c:\stlport-4.6.1\stlport\stl\_stdio_file.h
;	COMDAT ?_FILE_I_set@_STL@@YAXPAU_iobuf@@PAD11@Z
_TEXT	SEGMENT
___f$ = 8						; size = 4
___begin$ = 12						; size = 4
___next$ = 16						; size = 4
___end$ = 20						; size = 4
?_FILE_I_set@_STL@@YAXPAU_iobuf@@PAD11@Z PROC NEAR	; _STL::_FILE_I_set, COMDAT

; 117  :   __f->_base = (_File_ptr_type) __begin;

  00000	8b 44 24 04	 mov	 eax, DWORD PTR ___f$[esp-4]
  00004	8b 4c 24 08	 mov	 ecx, DWORD PTR ___begin$[esp-4]

; 118  :   __f->_ptr  = (_File_ptr_type) __next;
; 119  :   __f->_cnt  = __end - __next;

  00008	8b 54 24 10	 mov	 edx, DWORD PTR ___end$[esp-4]
  0000c	89 48 08	 mov	 DWORD PTR [eax+8], ecx
  0000f	8b 4c 24 0c	 mov	 ecx, DWORD PTR ___next$[esp-4]
  00013	2b d1		 sub	 edx, ecx
  00015	89 08		 mov	 DWORD PTR [eax], ecx
  00017	89 50 04	 mov	 DWORD PTR [eax+4], edx

; 120  : }

  0001a	c3		 ret	 0
?_FILE_I_set@_STL@@YAXPAU_iobuf@@PAD11@Z ENDP		; _STL::_FILE_I_set
_TEXT	ENDS
PUBLIC	?move@?$__char_traits_base@DH@_STL@@SAPADPADPBDI@Z ; _STL::__char_traits_base<char,int>::move
; Function compile flags: /Ogsy
; File c:\stlport-4.6.1\stlport\stl\char_traits.h
;	COMDAT ?move@?$__char_traits_base@DH@_STL@@SAPADPADPBDI@Z
_TEXT	SEGMENT
___s1$ = 8						; size = 4
___s2$ = 12						; size = 4
__Sz$ = 16						; size = 4
?move@?$__char_traits_base@DH@_STL@@SAPADPADPBDI@Z PROC NEAR ; _STL::__char_traits_base<char,int>::move, COMDAT

; 165  :   static _CharT* _STLP_CALL move(_CharT* __s1, const _CharT* __s2, size_t _Sz) {    

  00000	55		 push	 ebp
  00001	8b ec		 mov	 ebp, esp

; 166  :     return (_Sz == 0 ? __s1 : (_CharT*)memmove(__s1, __s2, _Sz * sizeof(_CharT)));

  00003	83 7d 10 00	 cmp	 DWORD PTR __Sz$[ebp], 0
  00007	75 05		 jne	 SHORT $L105525
  00009	8b 45 08	 mov	 eax, DWORD PTR ___s1$[ebp]

; 167  :   }

  0000c	5d		 pop	 ebp
  0000d	c3		 ret	 0
$L105525:
  0000e	5d		 pop	 ebp

; 166  :     return (_Sz == 0 ? __s1 : (_CharT*)memmove(__s1, __s2, _Sz * sizeof(_CharT)));

  0000f	e9 00 00 00 00	 jmp	 _memmove
?move@?$__char_traits_base@DH@_STL@@SAPADPADPBDI@Z ENDP	; _STL::__char_traits_base<char,int>::move
_TEXT	ENDS
PUBLIC	?rdbuf@?$basic_ios@DV?$char_traits@D@_STL@@@_STL@@QBEPAV?$basic_streambuf@DV?$char_traits@D@_STL@@@2@XZ ; _STL::basic_ios<char,_STL::char_traits<char> >::rdbuf
; Function compile flags: /Ogsy
; File c:\stlport-4.6.1\stlport\stl\_ios.h
;	COMDAT ?rdbuf@?$basic_ios@DV?$char_traits@D@_STL@@@_STL@@QBEPAV?$basic_streambuf@DV?$char_traits@D@_STL@@@2@XZ
_TEXT	SEGMENT
?rdbuf@?$basic_ios@DV?$char_traits@D@_STL@@@_STL@@QBEPAV?$basic_streambuf@DV?$char_traits@D@_STL@@@2@XZ PROC NEAR ; _STL::basic_ios<char,_STL::char_traits<char> >::rdbuf, COMDAT
; _this$ = ecx

; 72   :     { return _M_streambuf; }

  00000	8b 41 58	 mov	 eax, DWORD PTR [ecx+88]
  00003	c3		 ret	 0
?rdbuf@?$basic_ios@DV?$char_traits@D@_STL@@@_STL@@QBEPAV?$basic_streambuf@DV?$char_traits@D@_STL@@@2@XZ ENDP ; _STL::basic_ios<char,_STL::char_traits<char> >::rdbuf
_TEXT	ENDS
PUBLIC	?_FILE_O_set@_STL@@YAXPAU_iobuf@@PAD11@Z	; _STL::_FILE_O_set
; Function compile flags: /Ogsy
; File c:\stlport-4.6.1\stlport\stl\_stdio_file.h
;	COMDAT ?_FILE_O_set@_STL@@YAXPAU_iobuf@@PAD11@Z
_TEXT	SEGMENT
___f$ = 8						; size = 4
___begin$ = 12						; size = 4
___next$ = 16						; size = 4
___end$ = 20						; size = 4
?_FILE_O_set@_STL@@YAXPAU_iobuf@@PAD11@Z PROC NEAR	; _STL::_FILE_O_set, COMDAT

; 745  :   { _FILE_I_set(__f, __begin, __next, __end); }

  00000	8b 44 24 04	 mov	 eax, DWORD PTR ___f$[esp-4]
  00004	8b 4c 24 08	 mov	 ecx, DWORD PTR ___begin$[esp-4]
  00008	8b 54 24 10	 mov	 edx, DWORD PTR ___end$[esp-4]
  0000c	89 48 08	 mov	 DWORD PTR [eax+8], ecx
  0000f	8b 4c 24 0c	 mov	 ecx, DWORD PTR ___next$[esp-4]
  00013	2b d1		 sub	 edx, ecx
  00015	89 08		 mov	 DWORD PTR [eax], ecx
  00017	89 50 04	 mov	 DWORD PTR [eax+4], edx
  0001a	c3		 ret	 0
?_FILE_O_set@_STL@@YAXPAU_iobuf@@PAD11@Z ENDP		; _STL::_FILE_O_set
_TEXT	ENDS
PUBLIC	??_7?$basic_streambuf@DV?$char_traits@D@_STL@@@_STL@@6B@ ; _STL::basic_streambuf<char,_STL::char_traits<char> >::`vftable'
PUBLIC	??_G?$basic_streambuf@DV?$char_traits@D@_STL@@@_STL@@UAEPAXI@Z ; _STL::basic_streambuf<char,_STL::char_traits<char> >::`scalar deleting destructor'
PUBLIC	??_R4?$basic_streambuf@DV?$char_traits@D@_STL@@@_STL@@6B@ ; _STL::basic_streambuf<char,_STL::char_traits<char> >::`RTTI Complete Object Locator'
PUBLIC	??_R0?AV?$basic_streambuf@DV?$char_traits@D@_STL@@@_STL@@@8 ; _STL::basic_streambuf<char,_STL::char_traits<char> > `RTTI Type Descriptor'
PUBLIC	??_R3?$basic_streambuf@DV?$char_traits@D@_STL@@@_STL@@8 ; _STL::basic_streambuf<char,_STL::char_traits<char> >::`RTTI Class Hierarchy Descriptor'
PUBLIC	??_R2?$basic_streambuf@DV?$char_traits@D@_STL@@@_STL@@8 ; _STL::basic_streambuf<char,_STL::char_traits<char> >::`RTTI Base Class Array'
PUBLIC	??_R1A@?0A@A@?$basic_streambuf@DV?$char_traits@D@_STL@@@_STL@@8 ; _STL::basic_streambuf<char,_STL::char_traits<char> >::`RTTI Base Class Descriptor at (0,-1,0,0)'
PUBLIC	??0?$basic_streambuf@DV?$char_traits@D@_STL@@@_STL@@IAE@XZ ; _STL::basic_streambuf<char,_STL::char_traits<char> >::basic_streambuf<char,_STL::char_traits<char> >
EXTRN	?showmanyc@?$basic_streambuf@DV?$char_traits@D@_STL@@@_STL@@MAEHXZ:NEAR ; _STL::basic_streambuf<char,_STL::char_traits<char> >::showmanyc
EXTRN	?xsgetn@?$basic_streambuf@DV?$char_traits@D@_STL@@@_STL@@MAEHPADH@Z:NEAR ; _STL::basic_streambuf<char,_STL::char_traits<char> >::xsgetn
EXTRN	?underflow@?$basic_streambuf@DV?$char_traits@D@_STL@@@_STL@@MAEHXZ:NEAR ; _STL::basic_streambuf<char,_STL::char_traits<char> >::underflow
EXTRN	?uflow@?$basic_streambuf@DV?$char_traits@D@_STL@@@_STL@@MAEHXZ:NEAR ; _STL::basic_streambuf<char,_STL::char_traits<char> >::uflow
EXTRN	?pbackfail@?$basic_streambuf@DV?$char_traits@D@_STL@@@_STL@@MAEHH@Z:NEAR ; _STL::basic_streambuf<char,_STL::char_traits<char> >::pbackfail
EXTRN	?xsputn@?$basic_streambuf@DV?$char_traits@D@_STL@@@_STL@@MAEHPBDH@Z:NEAR ; _STL::basic_streambuf<char,_STL::char_traits<char> >::xsputn
EXTRN	?_M_xsputnc@?$basic_streambuf@DV?$char_traits@D@_STL@@@_STL@@MAEHDH@Z:NEAR ; _STL::basic_streambuf<char,_STL::char_traits<char> >::_M_xsputnc
EXTRN	?overflow@?$basic_streambuf@DV?$char_traits@D@_STL@@@_STL@@MAEHH@Z:NEAR ; _STL::basic_streambuf<char,_STL::char_traits<char> >::overflow
EXTRN	?imbue@?$basic_streambuf@DV?$char_traits@D@_STL@@@_STL@@MAEXABVlocale@2@@Z:NEAR ; _STL::basic_streambuf<char,_STL::char_traits<char> >::imbue
EXTRN	??_7type_info@@6B@:QWORD			; type_info::`vftable'
EXTRN	??_E?$basic_streambuf@DV?$char_traits@D@_STL@@@_STL@@UAEPAXI@Z:NEAR ; _STL::basic_streambuf<char,_STL::char_traits<char> >::`vector deleting destructor'
EXTRN	??0locale@_STL@@QAE@XZ:NEAR			; _STL::locale::locale
EXTRN	?setbuf@?$basic_streambuf@DV?$char_traits@D@_STL@@@_STL@@MAEPAV12@PADH@Z:NEAR ; _STL::basic_streambuf<char,_STL::char_traits<char> >::setbuf
EXTRN	?seekoff@?$basic_streambuf@DV?$char_traits@D@_STL@@@_STL@@MAE?AV?$fpos@H@2@JHH@Z:NEAR ; _STL::basic_streambuf<char,_STL::char_traits<char> >::seekoff
EXTRN	?seekpos@?$basic_streambuf@DV?$char_traits@D@_STL@@@_STL@@MAE?AV?$fpos@H@2@V32@H@Z:NEAR ; _STL::basic_streambuf<char,_STL::char_traits<char> >::seekpos
EXTRN	?sync@?$basic_streambuf@DV?$char_traits@D@_STL@@@_STL@@MAEHXZ:NEAR ; _STL::basic_streambuf<char,_STL::char_traits<char> >::sync
;	COMDAT ??_7?$basic_streambuf@DV?$char_traits@D@_STL@@@_STL@@6B@
CONST	SEGMENT
??_7?$basic_streambuf@DV?$char_traits@D@_STL@@@_STL@@6B@ DD FLAT:??_R4?$basic_streambuf@DV?$char_traits@D@_STL@@@_STL@@6B@ ; _STL::basic_streambuf<char,_STL::char_traits<char> >::`vftable'
	DD	FLAT:??_E?$basic_streambuf@DV?$char_traits@D@_STL@@@_STL@@UAEPAXI@Z
	DD	FLAT:?setbuf@?$basic_streambuf@DV?$char_traits@D@_STL@@@_STL@@MAEPAV12@PADH@Z
	DD	FLAT:?seekoff@?$basic_streambuf@DV?$char_traits@D@_STL@@@_STL@@MAE?AV?$fpos@H@2@JHH@Z
	DD	FLAT:?seekpos@?$basic_streambuf@DV?$char_traits@D@_STL@@@_STL@@MAE?AV?$fpos@H@2@V32@H@Z
	DD	FLAT:?sync@?$basic_streambuf@DV?$char_traits@D@_STL@@@_STL@@MAEHXZ
	DD	FLAT:?showmanyc@?$basic_streambuf@DV?$char_traits@D@_STL@@@_STL@@MAEHXZ
	DD	FLAT:?xsgetn@?$basic_streambuf@DV?$char_traits@D@_STL@@@_STL@@MAEHPADH@Z
	DD	FLAT:?underflow@?$basic_streambuf@DV?$char_traits@D@_STL@@@_STL@@MAEHXZ
	DD	FLAT:?uflow@?$basic_streambuf@DV?$char_traits@D@_STL@@@_STL@@MAEHXZ
	DD	FLAT:?pbackfail@?$basic_streambuf@DV?$char_traits@D@_STL@@@_STL@@MAEHH@Z
	DD	FLAT:?xsputn@?$basic_streambuf@DV?$char_traits@D@_STL@@@_STL@@MAEHPBDH@Z
	DD	FLAT:?_M_xsputnc@?$basic_streambuf@DV?$char_traits@D@_STL@@@_STL@@MAEHDH@Z
	DD	FLAT:?overflow@?$basic_streambuf@DV?$char_traits@D@_STL@@@_STL@@MAEHH@Z
	DD	FLAT:?imbue@?$basic_streambuf@DV?$char_traits@D@_STL@@@_STL@@MAEXABVlocale@2@@Z
CONST	ENDS
;	COMDAT ??_R4?$basic_streambuf@DV?$char_traits@D@_STL@@@_STL@@6B@
rdata$r	SEGMENT
??_R4?$basic_streambuf@DV?$char_traits@D@_STL@@@_STL@@6B@ DD 00H ; _STL::basic_streambuf<char,_STL::char_traits<char> >::`RTTI Complete Object Locator'
	DD	00H
	DD	00H
	DD	FLAT:??_R0?AV?$basic_streambuf@DV?$char_traits@D@_STL@@@_STL@@@8
	DD	FLAT:??_R3?$basic_streambuf@DV?$char_traits@D@_STL@@@_STL@@8
rdata$r	ENDS
;	COMDAT ??_R0?AV?$basic_streambuf@DV?$char_traits@D@_STL@@@_STL@@@8
_DATA	SEGMENT
??_R0?AV?$basic_streambuf@DV?$char_traits@D@_STL@@@_STL@@@8 DD FLAT:??_7type_info@@6B@ ; _STL::basic_streambuf<char,_STL::char_traits<char> > `RTTI Type Descriptor'
	DD	00H
	DB	'.?AV?$basic_streambuf@DV?$char_traits@D@_STL@@@_STL@@', 00H
_DATA	ENDS
;	COMDAT ??_R3?$basic_streambuf@DV?$char_traits@D@_STL@@@_STL@@8
rdata$r	SEGMENT
??_R3?$basic_streambuf@DV?$char_traits@D@_STL@@@_STL@@8 DD 00H ; _STL::basic_streambuf<char,_STL::char_traits<char> >::`RTTI Class Hierarchy Descriptor'
	DD	00H
	DD	01H
	DD	FLAT:??_R2?$basic_streambuf@DV?$char_traits@D@_STL@@@_STL@@8
rdata$r	ENDS
;	COMDAT ??_R2?$basic_streambuf@DV?$char_traits@D@_STL@@@_STL@@8
rdata$r	SEGMENT
??_R2?$basic_streambuf@DV?$char_traits@D@_STL@@@_STL@@8 DD FLAT:??_R1A@?0A@A@?$basic_streambuf@DV?$char_traits@D@_STL@@@_STL@@8 ; _STL::basic_streambuf<char,_STL::char_traits<char> >::`RTTI Base Class Array'
rdata$r	ENDS
;	COMDAT ??_R1A@?0A@A@?$basic_streambuf@DV?$char_traits@D@_STL@@@_STL@@8
rdata$r	SEGMENT
??_R1A@?0A@A@?$basic_streambuf@DV?$char_traits@D@_STL@@@_STL@@8 DD FLAT:??_R0?AV?$basic_streambuf@DV?$char_traits@D@_STL@@@_STL@@@8 ; _STL::basic_streambuf<char,_STL::char_traits<char> >::`RTTI Base Class Descriptor at (0,-1,0,0)'
	DD	00H
	DD	00H
	DD	0ffffffffH
	DD	00H
	DD	00H
; Function compile flags: /Ogsy
; File c:\stlport-4.6.1\stlport\stl\_streambuf.h
rdata$r	ENDS
;	COMDAT ??0?$basic_streambuf@DV?$char_traits@D@_STL@@@_STL@@IAE@XZ
_TEXT	SEGMENT
??0?$basic_streambuf@DV?$char_traits@D@_STL@@@_STL@@IAE@XZ PROC NEAR ; _STL::basic_streambuf<char,_STL::char_traits<char> >::basic_streambuf<char,_STL::char_traits<char> >, COMDAT
; _this$ = ecx

; 352  :   {

  00000	56		 push	 esi
  00001	8b f1		 mov	 esi, ecx
  00003	8d 46 0c	 lea	 eax, DWORD PTR [esi+12]
  00006	89 46 04	 mov	 DWORD PTR [esi+4], eax
  00009	8d 46 2c	 lea	 eax, DWORD PTR [esi+44]
  0000c	8d 4e 4c	 lea	 ecx, DWORD PTR [esi+76]
  0000f	c7 06 00 00 00
	00		 mov	 DWORD PTR [esi], OFFSET FLAT:??_7?$basic_streambuf@DV?$char_traits@D@_STL@@@_STL@@6B@
  00015	89 46 08	 mov	 DWORD PTR [esi+8], eax
  00018	e8 00 00 00 00	 call	 ??0locale@_STL@@QAE@XZ	; _STL::locale::locale
  0001d	33 c9		 xor	 ecx, ecx
  0001f	89 4e 50	 mov	 DWORD PTR [esi+80], ecx

; 353  :     // _M_lock._M_initialize();
; 354  :     _FILE_I_set(_M_get, 0, 0, 0);

  00022	8b 46 04	 mov	 eax, DWORD PTR [esi+4]
  00025	89 48 08	 mov	 DWORD PTR [eax+8], ecx
  00028	89 08		 mov	 DWORD PTR [eax], ecx
  0002a	89 48 04	 mov	 DWORD PTR [eax+4], ecx

; 355  :     _FILE_O_set(_M_put, 0, 0, 0);

  0002d	8b 46 08	 mov	 eax, DWORD PTR [esi+8]
  00030	89 48 08	 mov	 DWORD PTR [eax+8], ecx
  00033	89 08		 mov	 DWORD PTR [eax], ecx
  00035	89 48 04	 mov	 DWORD PTR [eax+4], ecx

; 356  :   }

  00038	8b c6		 mov	 eax, esi
  0003a	5e		 pop	 esi
  0003b	c3		 ret	 0
??0?$basic_streambuf@DV?$char_traits@D@_STL@@@_STL@@IAE@XZ ENDP ; _STL::basic_streambuf<char,_STL::char_traits<char> >::basic_streambuf<char,_STL::char_traits<char> >
_TEXT	ENDS
PUBLIC	?setg@?$basic_streambuf@DV?$char_traits@D@_STL@@@_STL@@IAEXPAD00@Z ; _STL::basic_streambuf<char,_STL::char_traits<char> >::setg
; Function compile flags: /Ogsy
;	COMDAT ?setg@?$basic_streambuf@DV?$char_traits@D@_STL@@@_STL@@IAEXPAD00@Z
_TEXT	SEGMENT
___gbegin$ = 8						; size = 4
___gnext$ = 12						; size = 4
___gend$ = 16						; size = 4
?setg@?$basic_streambuf@DV?$char_traits@D@_STL@@@_STL@@IAEXPAD00@Z PROC NEAR ; _STL::basic_streambuf<char,_STL::char_traits<char> >::setg, COMDAT
; _this$ = ecx

; 367  :     { _FILE_I_set(_M_get, __gbegin, __gnext, __gend); }

  00000	8b 41 04	 mov	 eax, DWORD PTR [ecx+4]
  00003	8b 4c 24 04	 mov	 ecx, DWORD PTR ___gbegin$[esp-4]
  00007	8b 54 24 0c	 mov	 edx, DWORD PTR ___gend$[esp-4]
  0000b	89 48 08	 mov	 DWORD PTR [eax+8], ecx
  0000e	8b 4c 24 08	 mov	 ecx, DWORD PTR ___gnext$[esp-4]
  00012	2b d1		 sub	 edx, ecx
  00014	89 08		 mov	 DWORD PTR [eax], ecx
  00016	89 50 04	 mov	 DWORD PTR [eax+4], edx
  00019	c2 0c 00	 ret	 12			; 0000000cH
?setg@?$basic_streambuf@DV?$char_traits@D@_STL@@@_STL@@IAEXPAD00@Z ENDP ; _STL::basic_streambuf<char,_STL::char_traits<char> >::setg
_TEXT	ENDS
PUBLIC	?_M_exit_input_mode@?$basic_filebuf@DV?$char_traits@D@_STL@@@_STL@@AAEXXZ ; _STL::basic_filebuf<char,_STL::char_traits<char> >::_M_exit_input_mode
EXTRN	?_M_unmap@_Filebuf_base@_STL@@QAEXPAXJ@Z:NEAR	; _STL::_Filebuf_base::_M_unmap
; Function compile flags: /Ogsy
; File c:\stlport-4.6.1\stlport\stl\_fstream.c
;	COMDAT ?_M_exit_input_mode@?$basic_filebuf@DV?$char_traits@D@_STL@@@_STL@@AAEXXZ
_TEXT	SEGMENT
?_M_exit_input_mode@?$basic_filebuf@DV?$char_traits@D@_STL@@@_STL@@AAEXXZ PROC NEAR ; _STL::basic_filebuf<char,_STL::char_traits<char> >::_M_exit_input_mode, COMDAT
; _this$ = ecx

; 119  : {

  00000	56		 push	 esi
  00001	8b f1		 mov	 esi, ecx

; 120  :    if (_M_mmap_base != 0)

  00003	8b 86 8c 00 00
	00		 mov	 eax, DWORD PTR [esi+140]
  00009	85 c0		 test	 eax, eax
  0000b	74 0f		 je	 SHORT $L104556

; 121  :      _M_base._M_unmap(_M_mmap_base, _M_mmap_len); 

  0000d	ff b6 90 00 00
	00		 push	 DWORD PTR [esi+144]
  00013	8d 4e 54	 lea	 ecx, DWORD PTR [esi+84]
  00016	50		 push	 eax
  00017	e8 00 00 00 00	 call	 ?_M_unmap@_Filebuf_base@_STL@@QAEXPAXJ@Z ; _STL::_Filebuf_base::_M_unmap
$L104556:

; 122  :    _M_in_input_mode = false;
; 123  :    _M_mmap_base = 0;

  0001c	83 a6 8c 00 00
	00 00		 and	 DWORD PTR [esi+140], 0
  00023	c6 46 67 00	 mov	 BYTE PTR [esi+103], 0
  00027	5e		 pop	 esi

; 124  : }

  00028	c3		 ret	 0
?_M_exit_input_mode@?$basic_filebuf@DV?$char_traits@D@_STL@@@_STL@@AAEXXZ ENDP ; _STL::basic_filebuf<char,_STL::char_traits<char> >::_M_exit_input_mode
_TEXT	ENDS
PUBLIC	?setp@?$basic_streambuf@DV?$char_traits@D@_STL@@@_STL@@IAEXPAD0@Z ; _STL::basic_streambuf<char,_STL::char_traits<char> >::setp
; Function compile flags: /Ogsy
; File c:\stlport-4.6.1\stlport\stl\_streambuf.h
;	COMDAT ?setp@?$basic_streambuf@DV?$char_traits@D@_STL@@@_STL@@IAEXPAD0@Z
_TEXT	SEGMENT
___pbegin$ = 8						; size = 4
___pend$ = 12						; size = 4
?setp@?$basic_streambuf@DV?$char_traits@D@_STL@@@_STL@@IAEXPAD0@Z PROC NEAR ; _STL::basic_streambuf<char,_STL::char_traits<char> >::setp, COMDAT
; _this$ = ecx

; 389  :     { _FILE_O_set(_M_put, __pbegin, __pbegin, __pend); }

  00000	8b 41 08	 mov	 eax, DWORD PTR [ecx+8]
  00003	8b 4c 24 04	 mov	 ecx, DWORD PTR ___pbegin$[esp-4]
  00007	8b 54 24 08	 mov	 edx, DWORD PTR ___pend$[esp-4]
  0000b	2b d1		 sub	 edx, ecx
  0000d	89 48 08	 mov	 DWORD PTR [eax+8], ecx
  00010	89 08		 mov	 DWORD PTR [eax], ecx
  00012	89 50 04	 mov	 DWORD PTR [eax+4], edx
  00015	c2 08 00	 ret	 8
?setp@?$basic_streambuf@DV?$char_traits@D@_STL@@@_STL@@IAEXPAD0@Z ENDP ; _STL::basic_streambuf<char,_STL::char_traits<char> >::setp
_TEXT	ENDS
PUBLIC	?pubsync@?$basic_streambuf@DV?$char_traits@D@_STL@@@_STL@@QAEHXZ ; _STL::basic_streambuf<char,_STL::char_traits<char> >::pubsync
; Function compile flags: /Ogsy
;	COMDAT ?pubsync@?$basic_streambuf@DV?$char_traits@D@_STL@@@_STL@@QAEHXZ
_TEXT	SEGMENT
?pubsync@?$basic_streambuf@DV?$char_traits@D@_STL@@@_STL@@QAEHXZ PROC NEAR ; _STL::basic_streambuf<char,_STL::char_traits<char> >::pubsync, COMDAT
; _this$ = ecx

; 411  :   int pubsync() { return this->sync(); }

  00000	8b 01		 mov	 eax, DWORD PTR [ecx]
  00002	ff 60 10	 jmp	 DWORD PTR [eax+16]
?pubsync@?$basic_streambuf@DV?$char_traits@D@_STL@@@_STL@@QAEHXZ ENDP ; _STL::basic_streambuf<char,_STL::char_traits<char> >::pubsync
_TEXT	ENDS
PUBLIC	?sputn@?$basic_streambuf@DV?$char_traits@D@_STL@@@_STL@@QAEHPBDH@Z ; _STL::basic_streambuf<char,_STL::char_traits<char> >::sputn
; Function compile flags: /Ogsy
;	COMDAT ?sputn@?$basic_streambuf@DV?$char_traits@D@_STL@@@_STL@@QAEHPBDH@Z
_TEXT	SEGMENT
___s$ = 8						; size = 4
___n$ = 12						; size = 4
?sputn@?$basic_streambuf@DV?$char_traits@D@_STL@@@_STL@@QAEHPBDH@Z PROC NEAR ; _STL::basic_streambuf<char,_STL::char_traits<char> >::sputn, COMDAT
; _this$ = ecx

; 441  :     { return this->xsputn(__s, __n); }

  00000	8b 01		 mov	 eax, DWORD PTR [ecx]
  00002	ff 60 28	 jmp	 DWORD PTR [eax+40]
?sputn@?$basic_streambuf@DV?$char_traits@D@_STL@@@_STL@@QAEHPBDH@Z ENDP ; _STL::basic_streambuf<char,_STL::char_traits<char> >::sputn
_TEXT	ENDS
PUBLIC	?_M_deallocate_buffers@?$basic_filebuf@DV?$char_traits@D@_STL@@@_STL@@AAEXXZ ; _STL::basic_filebuf<char,_STL::char_traits<char> >::_M_deallocate_buffers
EXTRN	_free:NEAR
; Function compile flags: /Ogsy
; File c:\stlport-4.6.1\stlport\stl\_fstream.c
;	COMDAT ?_M_deallocate_buffers@?$basic_filebuf@DV?$char_traits@D@_STL@@@_STL@@AAEXXZ
_TEXT	SEGMENT
?_M_deallocate_buffers@?$basic_filebuf@DV?$char_traits@D@_STL@@@_STL@@AAEXXZ PROC NEAR ; _STL::basic_filebuf<char,_STL::char_traits<char> >::_M_deallocate_buffers, COMDAT
; _this$ = ecx

; 684  : {

  00000	53		 push	 ebx
  00001	56		 push	 esi
  00002	8b f1		 mov	 esi, ecx

; 685  :   if (_M_int_buf_dynamic)

  00004	33 db		 xor	 ebx, ebx
  00006	38 5e 66	 cmp	 BYTE PTR [esi+102], bl
  00009	74 09		 je	 SHORT $L104601

; 686  :     free(_M_int_buf);

  0000b	ff 76 6c	 push	 DWORD PTR [esi+108]
  0000e	e8 00 00 00 00	 call	 _free
  00013	59		 pop	 ecx
$L104601:

; 687  :   free(_M_ext_buf);

  00014	ff 76 74	 push	 DWORD PTR [esi+116]
  00017	e8 00 00 00 00	 call	 _free
  0001c	59		 pop	 ecx

; 688  :   _M_int_buf     = 0;

  0001d	89 5e 6c	 mov	 DWORD PTR [esi+108], ebx

; 689  :   _M_int_buf_EOS = 0;

  00020	89 5e 70	 mov	 DWORD PTR [esi+112], ebx

; 690  :   _M_ext_buf     = 0;

  00023	89 5e 74	 mov	 DWORD PTR [esi+116], ebx

; 691  :   _M_ext_buf_EOS = 0;

  00026	89 5e 78	 mov	 DWORD PTR [esi+120], ebx
  00029	5e		 pop	 esi
  0002a	5b		 pop	 ebx

; 692  : }

  0002b	c3		 ret	 0
?_M_deallocate_buffers@?$basic_filebuf@DV?$char_traits@D@_STL@@@_STL@@AAEXXZ ENDP ; _STL::basic_filebuf<char,_STL::char_traits<char> >::_M_deallocate_buffers
_TEXT	ENDS
EXTRN	??1?$basic_streambuf@DV?$char_traits@D@_STL@@@_STL@@UAE@XZ:NEAR ; _STL::basic_streambuf<char,_STL::char_traits<char> >::~basic_streambuf<char,_STL::char_traits<char> >
; Function compile flags: /Ogsy
;	COMDAT ??_G?$basic_streambuf@DV?$char_traits@D@_STL@@@_STL@@UAEPAXI@Z
_TEXT	SEGMENT
___flags$ = 8						; size = 4
??_G?$basic_streambuf@DV?$char_traits@D@_STL@@@_STL@@UAEPAXI@Z PROC NEAR ; _STL::basic_streambuf<char,_STL::char_traits<char> >::`scalar deleting destructor', COMDAT
; _this$ = ecx
  00000	56		 push	 esi
  00001	8b f1		 mov	 esi, ecx
  00003	e8 00 00 00 00	 call	 ??1?$basic_streambuf@DV?$char_traits@D@_STL@@@_STL@@UAE@XZ ; _STL::basic_streambuf<char,_STL::char_traits<char> >::~basic_streambuf<char,_STL::char_traits<char> >
  00008	f6 44 24 08 01	 test	 BYTE PTR ___flags$[esp], 1
  0000d	74 07		 je	 SHORT $L81055
  0000f	56		 push	 esi
  00010	e8 00 00 00 00	 call	 ??3@YAXPAX@Z		; operator delete
  00015	59		 pop	 ecx
$L81055:
  00016	8b c6		 mov	 eax, esi
  00018	5e		 pop	 esi
  00019	c2 04 00	 ret	 4
??_G?$basic_streambuf@DV?$char_traits@D@_STL@@@_STL@@UAEPAXI@Z ENDP ; _STL::basic_streambuf<char,_STL::char_traits<char> >::`scalar deleting destructor'
_TEXT	ENDS
PUBLIC	??_R4?$basic_ios@DV?$char_traits@D@_STL@@@_STL@@6B@ ; _STL::basic_ios<char,_STL::char_traits<char> >::`RTTI Complete Object Locator'
PUBLIC	??_R3?$basic_ios@DV?$char_traits@D@_STL@@@_STL@@8 ; _STL::basic_ios<char,_STL::char_traits<char> >::`RTTI Class Hierarchy Descriptor'
PUBLIC	??_R2?$basic_ios@DV?$char_traits@D@_STL@@@_STL@@8 ; _STL::basic_ios<char,_STL::char_traits<char> >::`RTTI Base Class Array'
PUBLIC	??_R1A@?0A@A@?$basic_ios@DV?$char_traits@D@_STL@@@_STL@@8 ; _STL::basic_ios<char,_STL::char_traits<char> >::`RTTI Base Class Descriptor at (0,-1,0,0)'
PUBLIC	??_R1A@?0A@A@ios_base@_STL@@8			; _STL::ios_base::`RTTI Base Class Descriptor at (0,-1,0,0)'
PUBLIC	??0?$basic_ios@DV?$char_traits@D@_STL@@@_STL@@IAE@XZ ; _STL::basic_ios<char,_STL::char_traits<char> >::basic_ios<char,_STL::char_traits<char> >
PUBLIC	??_7?$basic_ios@DV?$char_traits@D@_STL@@@_STL@@6B@ ; _STL::basic_ios<char,_STL::char_traits<char> >::`vftable'
PUBLIC	??_G?$basic_ios@DV?$char_traits@D@_STL@@@_STL@@UAEPAXI@Z ; _STL::basic_ios<char,_STL::char_traits<char> >::`scalar deleting destructor'
PUBLIC	??_R0?AV?$basic_ios@DV?$char_traits@D@_STL@@@_STL@@@8 ; _STL::basic_ios<char,_STL::char_traits<char> > `RTTI Type Descriptor'
PUBLIC	??_R0?AVios_base@_STL@@@8			; _STL::ios_base `RTTI Type Descriptor'
EXTRN	??_E?$basic_ios@DV?$char_traits@D@_STL@@@_STL@@UAEPAXI@Z:NEAR ; _STL::basic_ios<char,_STL::char_traits<char> >::`vector deleting destructor'
EXTRN	??0ios_base@_STL@@IAE@XZ:NEAR			; _STL::ios_base::ios_base
;	COMDAT ??_7?$basic_ios@DV?$char_traits@D@_STL@@@_STL@@6B@
; File c:\stlport-4.6.1\stlport\stl\_ios.c
CONST	SEGMENT
??_7?$basic_ios@DV?$char_traits@D@_STL@@@_STL@@6B@ DD FLAT:??_R4?$basic_ios@DV?$char_traits@D@_STL@@@_STL@@6B@ ; _STL::basic_ios<char,_STL::char_traits<char> >::`vftable'
	DD	FLAT:??_E?$basic_ios@DV?$char_traits@D@_STL@@@_STL@@UAEPAXI@Z
CONST	ENDS
;	COMDAT ??_R4?$basic_ios@DV?$char_traits@D@_STL@@@_STL@@6B@
rdata$r	SEGMENT
??_R4?$basic_ios@DV?$char_traits@D@_STL@@@_STL@@6B@ DD 00H ; _STL::basic_ios<char,_STL::char_traits<char> >::`RTTI Complete Object Locator'
	DD	00H
	DD	00H
	DD	FLAT:??_R0?AV?$basic_ios@DV?$char_traits@D@_STL@@@_STL@@@8
	DD	FLAT:??_R3?$basic_ios@DV?$char_traits@D@_STL@@@_STL@@8
rdata$r	ENDS
;	COMDAT ??_R0?AV?$basic_ios@DV?$char_traits@D@_STL@@@_STL@@@8
_DATA	SEGMENT
??_R0?AV?$basic_ios@DV?$char_traits@D@_STL@@@_STL@@@8 DD FLAT:??_7type_info@@6B@ ; _STL::basic_ios<char,_STL::char_traits<char> > `RTTI Type Descriptor'
	DD	00H
	DB	'.?AV?$basic_ios@DV?$char_traits@D@_STL@@@_STL@@', 00H
_DATA	ENDS
;	COMDAT ??_R3?$basic_ios@DV?$char_traits@D@_STL@@@_STL@@8
rdata$r	SEGMENT
??_R3?$basic_ios@DV?$char_traits@D@_STL@@@_STL@@8 DD 00H ; _STL::basic_ios<char,_STL::char_traits<char> >::`RTTI Class Hierarchy Descriptor'
	DD	00H
	DD	02H
	DD	FLAT:??_R2?$basic_ios@DV?$char_traits@D@_STL@@@_STL@@8
rdata$r	ENDS
;	COMDAT ??_R2?$basic_ios@DV?$char_traits@D@_STL@@@_STL@@8
rdata$r	SEGMENT
??_R2?$basic_ios@DV?$char_traits@D@_STL@@@_STL@@8 DD FLAT:??_R1A@?0A@A@?$basic_ios@DV?$char_traits@D@_STL@@@_STL@@8 ; _STL::basic_ios<char,_STL::char_traits<char> >::`RTTI Base Class Array'
	DD	FLAT:??_R1A@?0A@A@ios_base@_STL@@8
rdata$r	ENDS
;	COMDAT ??_R1A@?0A@A@?$basic_ios@DV?$char_traits@D@_STL@@@_STL@@8
rdata$r	SEGMENT
??_R1A@?0A@A@?$basic_ios@DV?$char_traits@D@_STL@@@_STL@@8 DD FLAT:??_R0?AV?$basic_ios@DV?$char_traits@D@_STL@@@_STL@@@8 ; _STL::basic_ios<char,_STL::char_traits<char> >::`RTTI Base Class Descriptor at (0,-1,0,0)'
	DD	01H
	DD	00H
	DD	0ffffffffH
	DD	00H
	DD	00H
rdata$r	ENDS
;	COMDAT ??_R1A@?0A@A@ios_base@_STL@@8
rdata$r	SEGMENT
??_R1A@?0A@A@ios_base@_STL@@8 DD FLAT:??_R0?AVios_base@_STL@@@8 ; _STL::ios_base::`RTTI Base Class Descriptor at (0,-1,0,0)'
	DD	00H
	DD	00H
	DD	0ffffffffH
	DD	00H
	DD	00H
rdata$r	ENDS
;	COMDAT ??_R0?AVios_base@_STL@@@8
_DATA	SEGMENT
??_R0?AVios_base@_STL@@@8 DD FLAT:??_7type_info@@6B@	; _STL::ios_base `RTTI Type Descriptor'
	DD	00H
	DB	'.?AVios_base@_STL@@', 00H
; Function compile flags: /Ogsy
_DATA	ENDS
;	COMDAT ??0?$basic_ios@DV?$char_traits@D@_STL@@@_STL@@IAE@XZ
_TEXT	SEGMENT
??0?$basic_ios@DV?$char_traits@D@_STL@@@_STL@@IAE@XZ PROC NEAR ; _STL::basic_ios<char,_STL::char_traits<char> >::basic_ios<char,_STL::char_traits<char> >, COMDAT
; _this$ = ecx

; 95   : {}

  00000	56		 push	 esi
  00001	8b f1		 mov	 esi, ecx
  00003	e8 00 00 00 00	 call	 ??0ios_base@_STL@@IAE@XZ ; _STL::ios_base::ios_base
  00008	33 c0		 xor	 eax, eax
  0000a	88 46 54	 mov	 BYTE PTR [esi+84], al
  0000d	89 46 58	 mov	 DWORD PTR [esi+88], eax
  00010	89 46 5c	 mov	 DWORD PTR [esi+92], eax
  00013	c7 06 00 00 00
	00		 mov	 DWORD PTR [esi], OFFSET FLAT:??_7?$basic_ios@DV?$char_traits@D@_STL@@@_STL@@6B@
  00019	8b c6		 mov	 eax, esi
  0001b	5e		 pop	 esi
  0001c	c3		 ret	 0
??0?$basic_ios@DV?$char_traits@D@_STL@@@_STL@@IAE@XZ ENDP ; _STL::basic_ios<char,_STL::char_traits<char> >::basic_ios<char,_STL::char_traits<char> >
_TEXT	ENDS
PUBLIC	?tie@?$basic_ios@DV?$char_traits@D@_STL@@@_STL@@QAEPAV?$basic_ostream@DV?$char_traits@D@_STL@@@2@PAV32@@Z ; _STL::basic_ios<char,_STL::char_traits<char> >::tie
; Function compile flags: /Ogsy
; File c:\stlport-4.6.1\stlport\stl\_ios.h
;	COMDAT ?tie@?$basic_ios@DV?$char_traits@D@_STL@@@_STL@@QAEPAV?$basic_ostream@DV?$char_traits@D@_STL@@@2@PAV32@@Z
_TEXT	SEGMENT
___new_tied_ostream$ = 8				; size = 4
?tie@?$basic_ios@DV?$char_traits@D@_STL@@@_STL@@QAEPAV?$basic_ostream@DV?$char_traits@D@_STL@@@2@PAV32@@Z PROC NEAR ; _STL::basic_ios<char,_STL::char_traits<char> >::tie, COMDAT
; _this$ = ecx

; 66   :     basic_ostream<char_type, traits_type>* __tmp = _M_tied_ostream;
; 67   :     _M_tied_ostream = __new_tied_ostream;

  00000	8b 54 24 04	 mov	 edx, DWORD PTR ___new_tied_ostream$[esp-4]
  00004	8b 41 5c	 mov	 eax, DWORD PTR [ecx+92]
  00007	89 51 5c	 mov	 DWORD PTR [ecx+92], edx

; 68   :     return __tmp;
; 69   :   }

  0000a	c2 04 00	 ret	 4
?tie@?$basic_ios@DV?$char_traits@D@_STL@@@_STL@@QAEPAV?$basic_ostream@DV?$char_traits@D@_STL@@@2@PAV32@@Z ENDP ; _STL::basic_ios<char,_STL::char_traits<char> >::tie
_TEXT	ENDS
PUBLIC	?fill@?$basic_ios@DV?$char_traits@D@_STL@@@_STL@@QAEDD@Z ; _STL::basic_ios<char,_STL::char_traits<char> >::fill
; Function compile flags: /Ogsy
;	COMDAT ?fill@?$basic_ios@DV?$char_traits@D@_STL@@@_STL@@QAEDD@Z
_TEXT	SEGMENT
___fill$ = 8						; size = 1
?fill@?$basic_ios@DV?$char_traits@D@_STL@@@_STL@@QAEDD@Z PROC NEAR ; _STL::basic_ios<char,_STL::char_traits<char> >::fill, COMDAT
; _this$ = ecx

; 82   :     char_type __tmp(_M_fill);
; 83   :     _M_fill = __fill;

  00000	8a 54 24 04	 mov	 dl, BYTE PTR ___fill$[esp-4]
  00004	8a 41 54	 mov	 al, BYTE PTR [ecx+84]
  00007	88 51 54	 mov	 BYTE PTR [ecx+84], dl

; 84   :     return __tmp;
; 85   :   }

  0000a	c2 04 00	 ret	 4
?fill@?$basic_ios@DV?$char_traits@D@_STL@@@_STL@@QAEDD@Z ENDP ; _STL::basic_ios<char,_STL::char_traits<char> >::fill
_TEXT	ENDS
PUBLIC	??Bsentry@?$basic_ostream@DV?$char_traits@D@_STL@@@_STL@@QBE_NXZ ; _STL::basic_ostream<char,_STL::char_traits<char> >::sentry::operator bool
; Function compile flags: /Ogsy
; File c:\stlport-4.6.1\stlport\stl\_ostream.h
;	COMDAT ??Bsentry@?$basic_ostream@DV?$char_traits@D@_STL@@@_STL@@QBE_NXZ
_TEXT	SEGMENT
??Bsentry@?$basic_ostream@DV?$char_traits@D@_STL@@@_STL@@QBE_NXZ PROC NEAR ; _STL::basic_ostream<char,_STL::char_traits<char> >::sentry::operator bool, COMDAT
; _this$ = ecx

; 176  :       operator bool() const { return _M_ok; }

  00000	8a 41 04	 mov	 al, BYTE PTR [ecx+4]
  00003	c3		 ret	 0
??Bsentry@?$basic_ostream@DV?$char_traits@D@_STL@@@_STL@@QBE_NXZ ENDP ; _STL::basic_ostream<char,_STL::char_traits<char> >::sentry::operator bool
_TEXT	ENDS
PUBLIC	?widen@?$basic_ios@DV?$char_traits@D@_STL@@@_STL@@QBEDD@Z ; _STL::basic_ios<char,_STL::char_traits<char> >::widen
; Function compile flags: /Ogsy
; File c:\stlport-4.6.1\stlport\stl\_ios.h
;	COMDAT ?widen@?$basic_ios@DV?$char_traits@D@_STL@@@_STL@@QBEDD@Z
_TEXT	SEGMENT
___c$ = 8						; size = 1
?widen@?$basic_ios@DV?$char_traits@D@_STL@@@_STL@@QBEDD@Z PROC NEAR ; _STL::basic_ios<char,_STL::char_traits<char> >::widen, COMDAT
; _this$ = ecx

; 143  :   return ((const ctype<_CharT>*)this->_M_ctype_facet())->widen(__c); }

  00000	8b 49 40	 mov	 ecx, DWORD PTR [ecx+64]
  00003	8b 01		 mov	 eax, DWORD PTR [ecx]
  00005	ff 60 18	 jmp	 DWORD PTR [eax+24]
?widen@?$basic_ios@DV?$char_traits@D@_STL@@@_STL@@QBEDD@Z ENDP ; _STL::basic_ios<char,_STL::char_traits<char> >::widen
_TEXT	ENDS
PUBLIC	?unshift@?$codecvt@DDH@_STL@@QBE?AW4result@codecvt_base@2@AAHPAD1AAPAD@Z ; _STL::codecvt<char,char,int>::unshift
; Function compile flags: /Ogsy
; File c:\stlport-4.6.1\stlport\stl\_codecvt.h
;	COMDAT ?unshift@?$codecvt@DDH@_STL@@QBE?AW4result@codecvt_base@2@AAHPAD1AAPAD@Z
_TEXT	SEGMENT
___state$ = 8						; size = 4
___to$ = 12						; size = 4
___to_limit$ = 16					; size = 4
___to_next$ = 20					; size = 4
?unshift@?$codecvt@DDH@_STL@@QBE?AW4result@codecvt_base@2@AAHPAD1AAPAD@Z PROC NEAR ; _STL::codecvt<char,char,int>::unshift, COMDAT
; _this$ = ecx

; 76   :     { return do_unshift(__state, __to, __to_limit, __to_next); }

  00000	8b 01		 mov	 eax, DWORD PTR [ecx]
  00002	ff 60 0c	 jmp	 DWORD PTR [eax+12]
?unshift@?$codecvt@DDH@_STL@@QBE?AW4result@codecvt_base@2@AAHPAD1AAPAD@Z ENDP ; _STL::codecvt<char,char,int>::unshift
_TEXT	ENDS
PUBLIC	?_M_handle_exception@?$basic_ios@DV?$char_traits@D@_STL@@@_STL@@QAEXH@Z ; _STL::basic_ios<char,_STL::char_traits<char> >::_M_handle_exception
EXTRN	__CxxThrowException@8:NEAR
; Function compile flags: /Ogsy
; File c:\stlport-4.6.1\stlport\stl\_ios.c
;	COMDAT ?_M_handle_exception@?$basic_ios@DV?$char_traits@D@_STL@@@_STL@@QAEXH@Z
_TEXT	SEGMENT
___flag$ = 8						; size = 4
?_M_handle_exception@?$basic_ios@DV?$char_traits@D@_STL@@@_STL@@QAEXH@Z PROC NEAR ; _STL::basic_ios<char,_STL::char_traits<char> >::_M_handle_exception, COMDAT
; _this$ = ecx

; 118  :   this->_M_setstate_nothrow(__flag);

  00000	8b 44 24 04	 mov	 eax, DWORD PTR ___flag$[esp-4]
  00004	09 41 08	 or	 DWORD PTR [ecx+8], eax

; 119  :   if (this->_M_get_exception_mask() & __flag)

  00007	85 41 14	 test	 DWORD PTR [ecx+20], eax
  0000a	74 09		 je	 SHORT $L104775

; 120  :     _STLP_RETHROW;

  0000c	6a 00		 push	 0
  0000e	6a 00		 push	 0
  00010	e8 00 00 00 00	 call	 __CxxThrowException@8
$L105639:
$L104775:

; 121  : }

  00015	c2 04 00	 ret	 4
$L105638:
?_M_handle_exception@?$basic_ios@DV?$char_traits@D@_STL@@@_STL@@QAEXH@Z ENDP ; _STL::basic_ios<char,_STL::char_traits<char> >::_M_handle_exception
_TEXT	ENDS
PUBLIC	?encoding@?$codecvt@DDH@_STL@@QBEHXZ		; _STL::codecvt<char,char,int>::encoding
; Function compile flags: /Ogsy
; File c:\stlport-4.6.1\stlport\stl\_codecvt.h
;	COMDAT ?encoding@?$codecvt@DDH@_STL@@QBEHXZ
_TEXT	SEGMENT
?encoding@?$codecvt@DDH@_STL@@QBEHXZ PROC NEAR		; _STL::codecvt<char,char,int>::encoding, COMDAT
; _this$ = ecx

; 90   :   int encoding() const _STLP_NOTHROW { return do_encoding(); }

  00000	8b 01		 mov	 eax, DWORD PTR [ecx]
  00002	ff 60 10	 jmp	 DWORD PTR [eax+16]
?encoding@?$codecvt@DDH@_STL@@QBEHXZ ENDP		; _STL::codecvt<char,char,int>::encoding
_TEXT	ENDS
PUBLIC	?always_noconv@?$codecvt@DDH@_STL@@QBE_NXZ	; _STL::codecvt<char,char,int>::always_noconv
; Function compile flags: /Ogsy
;	COMDAT ?always_noconv@?$codecvt@DDH@_STL@@QBE_NXZ
_TEXT	SEGMENT
?always_noconv@?$codecvt@DDH@_STL@@QBE_NXZ PROC NEAR	; _STL::codecvt<char,char,int>::always_noconv, COMDAT
; _this$ = ecx

; 92   :   bool always_noconv() const _STLP_NOTHROW { return do_always_noconv(); }

  00000	8b 01		 mov	 eax, DWORD PTR [ecx]
  00002	ff 60 14	 jmp	 DWORD PTR [eax+20]
?always_noconv@?$codecvt@DDH@_STL@@QBE_NXZ ENDP		; _STL::codecvt<char,char,int>::always_noconv
_TEXT	ENDS
PUBLIC	?max_length@?$codecvt@DDH@_STL@@QBEHXZ		; _STL::codecvt<char,char,int>::max_length
; Function compile flags: /Ogsy
;	COMDAT ?max_length@?$codecvt@DDH@_STL@@QBEHXZ
_TEXT	SEGMENT
?max_length@?$codecvt@DDH@_STL@@QBEHXZ PROC NEAR	; _STL::codecvt<char,char,int>::max_length, COMDAT
; _this$ = ecx

; 99   :   int max_length() const _STLP_NOTHROW { return do_max_length(); }

  00000	8b 01		 mov	 eax, DWORD PTR [ecx]
  00002	ff 60 1c	 jmp	 DWORD PTR [eax+28]
?max_length@?$codecvt@DDH@_STL@@QBEHXZ ENDP		; _STL::codecvt<char,char,int>::max_length
_TEXT	ENDS
PUBLIC	??$max@H@_STL@@YAABHABH0@Z			; _STL::max<int>
; Function compile flags: /Ogsy
; File c:\stlport-4.6.1\stlport\stl\_algobase.h
;	COMDAT ??$max@H@_STL@@YAABHABH0@Z
_TEXT	SEGMENT
___a$ = 8						; size = 4
___b$ = 12						; size = 4
??$max@H@_STL@@YAABHABH0@Z PROC NEAR			; _STL::max<int>, COMDAT

; 79   : inline const _Tp& (max)(const _Tp& __a, const _Tp& __b) {  return  __a < __b ? __b : __a; }

  00000	8b 44 24 04	 mov	 eax, DWORD PTR ___a$[esp-4]
  00004	8b 10		 mov	 edx, DWORD PTR [eax]
  00006	8b 4c 24 08	 mov	 ecx, DWORD PTR ___b$[esp-4]
  0000a	3b 11		 cmp	 edx, DWORD PTR [ecx]
  0000c	7d 02		 jge	 SHORT $L105657
  0000e	8b c1		 mov	 eax, ecx
$L105657:
  00010	c3		 ret	 0
??$max@H@_STL@@YAABHABH0@Z ENDP				; _STL::max<int>
_TEXT	ENDS
PUBLIC	??$use_facet@V?$codecvt@DDH@_STL@@@_STL@@YAABV?$codecvt@DDH@0@ABVlocale@0@@Z ; _STL::use_facet<_STL::codecvt<char,char,int> >
EXTRN	?_M_use_facet@locale@_STL@@QBEPAVfacet@12@ABVid@12@@Z:NEAR ; _STL::locale::_M_use_facet
EXTRN	?id@?$codecvt@DDH@_STL@@2V0locale@2@A:DWORD	; _STL::codecvt<char,char,int>::id
; Function compile flags: /Ogsy
; File c:\stlport-4.6.1\stlport\stl\_locale.h
;	COMDAT ??$use_facet@V?$codecvt@DDH@_STL@@@_STL@@YAABV?$codecvt@DDH@0@ABVlocale@0@@Z
_TEXT	SEGMENT
___loc$ = 8						; size = 4
??$use_facet@V?$codecvt@DDH@_STL@@@_STL@@YAABV?$codecvt@DDH@0@ABVlocale@0@@Z PROC NEAR ; _STL::use_facet<_STL::codecvt<char,char,int> >, COMDAT

; 204  :   return *__STATIC_CAST(const _Facet*,__loc._M_use_facet(_Facet::id));

  00000	8b 4c 24 04	 mov	 ecx, DWORD PTR ___loc$[esp-4]
  00004	68 00 00 00 00	 push	 OFFSET FLAT:?id@?$codecvt@DDH@_STL@@2V0locale@2@A ; _STL::codecvt<char,char,int>::id
  00009	e8 00 00 00 00	 call	 ?_M_use_facet@locale@_STL@@QBEPAVfacet@12@ABVid@12@@Z ; _STL::locale::_M_use_facet

; 205  : }

  0000e	c3		 ret	 0
??$use_facet@V?$codecvt@DDH@_STL@@@_STL@@YAABV?$codecvt@DDH@0@ABVlocale@0@@Z ENDP ; _STL::use_facet<_STL::codecvt<char,char,int> >
_TEXT	ENDS
PUBLIC	?tie@?$basic_ios@DV?$char_traits@D@_STL@@@_STL@@QBEPAV?$basic_ostream@DV?$char_traits@D@_STL@@@2@XZ ; _STL::basic_ios<char,_STL::char_traits<char> >::tie
; Function compile flags: /Ogsy
; File c:\stlport-4.6.1\stlport\stl\_ios.h
;	COMDAT ?tie@?$basic_ios@DV?$char_traits@D@_STL@@@_STL@@QBEPAV?$basic_ostream@DV?$char_traits@D@_STL@@@2@XZ
_TEXT	SEGMENT
?tie@?$basic_ios@DV?$char_traits@D@_STL@@@_STL@@QBEPAV?$basic_ostream@DV?$char_traits@D@_STL@@@2@XZ PROC NEAR ; _STL::basic_ios<char,_STL::char_traits<char> >::tie, COMDAT
; _this$ = ecx

; 62   :     return _M_tied_ostream;

  00000	8b 41 5c	 mov	 eax, DWORD PTR [ecx+92]

; 63   :   }

  00003	c3		 ret	 0
?tie@?$basic_ios@DV?$char_traits@D@_STL@@@_STL@@QBEPAV?$basic_ostream@DV?$char_traits@D@_STL@@@2@XZ ENDP ; _STL::basic_ios<char,_STL::char_traits<char> >::tie
_TEXT	ENDS
PUBLIC	?__is_open@_Filebuf_base@_STL@@QBE_NXZ		; _STL::_Filebuf_base::__is_open
; Function compile flags: /Ogsy
; File c:\stlport-4.6.1\stlport\stl\_fstream.h
;	COMDAT ?__is_open@_Filebuf_base@_STL@@QBE_NXZ
_TEXT	SEGMENT
?__is_open@_Filebuf_base@_STL@@QBE_NXZ PROC NEAR	; _STL::_Filebuf_base::__is_open, COMDAT
; _this$ = ecx

; 150  :   bool __is_open()      const { return (_M_is_open !=0 ); } 

  00000	33 c0		 xor	 eax, eax
  00002	38 41 0c	 cmp	 BYTE PTR [ecx+12], al
  00005	0f 95 c0	 setne	 al
  00008	c3		 ret	 0
?__is_open@_Filebuf_base@_STL@@QBE_NXZ ENDP		; _STL::_Filebuf_base::__is_open
_TEXT	ENDS
PUBLIC	?capacity@?$basic_string@DV?$char_traits@D@_STL@@V?$allocator@D@2@@_STL@@QBEIXZ ; _STL::basic_string<char,_STL::char_traits<char>,_STL::allocator<char> >::capacity
; Function compile flags: /Ogsy
; File c:\stlport-4.6.1\stlport\stl\_string.h
;	COMDAT ?capacity@?$basic_string@DV?$char_traits@D@_STL@@V?$allocator@D@2@@_STL@@QBEIXZ
_TEXT	SEGMENT
?capacity@?$basic_string@DV?$char_traits@D@_STL@@V?$allocator@D@2@@_STL@@QBEIXZ PROC NEAR ; _STL::basic_string<char,_STL::char_traits<char>,_STL::allocator<char> >::capacity, COMDAT
; _this$ = ecx

; 447  :   size_type capacity() const { return (this->_M_end_of_storage._M_data - this->_M_start) - 1; }

  00000	8b 41 08	 mov	 eax, DWORD PTR [ecx+8]
  00003	2b 01		 sub	 eax, DWORD PTR [ecx]
  00005	48		 dec	 eax
  00006	c3		 ret	 0
?capacity@?$basic_string@DV?$char_traits@D@_STL@@V?$allocator@D@2@@_STL@@QBEIXZ ENDP ; _STL::basic_string<char,_STL::char_traits<char>,_STL::allocator<char> >::capacity
_TEXT	ENDS
PUBLIC	?max_size@?$_String_base@DV?$allocator@D@_STL@@@_STL@@QBEIXZ ; _STL::_String_base<char,_STL::allocator<char> >::max_size
; Function compile flags: /Ogsy
;	COMDAT ?max_size@?$_String_base@DV?$allocator@D@_STL@@@_STL@@QBEIXZ
_TEXT	SEGMENT
?max_size@?$_String_base@DV?$allocator@D@_STL@@@_STL@@QBEIXZ PROC NEAR ; _STL::_String_base<char,_STL::allocator<char> >::max_size, COMDAT
; _this$ = ecx

; 126  :   size_t max_size() const { return (size_t(-1) / sizeof(_Tp)) - 1; }

  00000	6a fe		 push	 -2			; fffffffeH
  00002	58		 pop	 eax
  00003	c3		 ret	 0
?max_size@?$_String_base@DV?$allocator@D@_STL@@@_STL@@QBEIXZ ENDP ; _STL::_String_base<char,_STL::allocator<char> >::max_size
_TEXT	ENDS
PUBLIC	?_M_construct_null_aux@?$basic_string@DV?$char_traits@D@_STL@@V?$allocator@D@2@@_STL@@AAEXPADABU__true_type@2@@Z ; _STL::basic_string<char,_STL::char_traits<char>,_STL::allocator<char> >::_M_construct_null_aux
; Function compile flags: /Ogsy
;	COMDAT ?_M_construct_null_aux@?$basic_string@DV?$char_traits@D@_STL@@V?$allocator@D@2@@_STL@@AAEXPADABU__true_type@2@@Z
_TEXT	SEGMENT
___p$ = 8						; size = 4
___formal$ = 12						; size = 4
?_M_construct_null_aux@?$basic_string@DV?$char_traits@D@_STL@@V?$allocator@D@2@@_STL@@AAEXPADABU__true_type@2@@Z PROC NEAR ; _STL::basic_string<char,_STL::char_traits<char>,_STL::allocator<char> >::_M_construct_null_aux, COMDAT
; _this$ = ecx

; 332  :     *__p = 0;

  00000	8b 44 24 04	 mov	 eax, DWORD PTR ___p$[esp-4]
  00004	c6 00 00	 mov	 BYTE PTR [eax], 0

; 333  :   }

  00007	c2 08 00	 ret	 8
?_M_construct_null_aux@?$basic_string@DV?$char_traits@D@_STL@@V?$allocator@D@2@@_STL@@AAEXPADABU__true_type@2@@Z ENDP ; _STL::basic_string<char,_STL::char_traits<char>,_STL::allocator<char> >::_M_construct_null_aux
_TEXT	ENDS
PUBLIC	??$__distance@PBD@_STL@@YAHABQBD0ABUrandom_access_iterator_tag@0@@Z ; _STL::__distance<char const *>
; Function compile flags: /Ogsy
; File c:\stlport-4.6.1\stlport\stl\_iterator_base.h
;	COMDAT ??$__distance@PBD@_STL@@YAHABQBD0ABUrandom_access_iterator_tag@0@@Z
_TEXT	SEGMENT
___first$ = 8						; size = 4
___last$ = 12						; size = 4
___formal$ = 16						; size = 4
??$__distance@PBD@_STL@@YAHABQBD0ABUrandom_access_iterator_tag@0@@Z PROC NEAR ; _STL::__distance<char const *>, COMDAT

; 363  :   return __last - __first;

  00000	8b 44 24 08	 mov	 eax, DWORD PTR ___last$[esp-4]
  00004	8b 00		 mov	 eax, DWORD PTR [eax]
  00006	8b 4c 24 04	 mov	 ecx, DWORD PTR ___first$[esp-4]
  0000a	2b 01		 sub	 eax, DWORD PTR [ecx]

; 364  : }

  0000c	c3		 ret	 0
??$__distance@PBD@_STL@@YAHABQBD0ABUrandom_access_iterator_tag@0@@Z ENDP ; _STL::__distance<char const *>
_TEXT	ENDS
PUBLIC	??_C@_0N@GOPDCEEB@basic_string?$AA@		; `string'
PUBLIC	?_M_throw_length_error@?$_String_base@DV?$allocator@D@_STL@@@_STL@@QBEXXZ ; _STL::_String_base<char,_STL::allocator<char> >::_M_throw_length_error
EXTRN	?__stl_throw_length_error@_STL@@YAXPBD@Z:NEAR	; _STL::__stl_throw_length_error
;	COMDAT ??_C@_0N@GOPDCEEB@basic_string?$AA@
; File c:\stlport-4.6.1\stlport\stl\_string.c
CONST	SEGMENT
??_C@_0N@GOPDCEEB@basic_string?$AA@ DB 'basic_string', 00H ; `string'
; Function compile flags: /Ogsy
CONST	ENDS
;	COMDAT ?_M_throw_length_error@?$_String_base@DV?$allocator@D@_STL@@@_STL@@QBEXXZ
_TEXT	SEGMENT
?_M_throw_length_error@?$_String_base@DV?$allocator@D@_STL@@@_STL@@QBEXXZ PROC NEAR ; _STL::_String_base<char,_STL::allocator<char> >::_M_throw_length_error, COMDAT
; _this$ = ecx

; 523  :     __stl_throw_length_error("basic_string");

  00000	68 00 00 00 00	 push	 OFFSET FLAT:??_C@_0N@GOPDCEEB@basic_string?$AA@
  00005	e8 00 00 00 00	 call	 ?__stl_throw_length_error@_STL@@YAXPBD@Z ; _STL::__stl_throw_length_error
  0000a	59		 pop	 ecx

; 524  : }

  0000b	c3		 ret	 0
?_M_throw_length_error@?$_String_base@DV?$allocator@D@_STL@@@_STL@@QBEXXZ ENDP ; _STL::_String_base<char,_STL::allocator<char> >::_M_throw_length_error
_TEXT	ENDS
PUBLIC	??$__distance@PAD@_STL@@YAHABQAD0ABUrandom_access_iterator_tag@0@@Z ; _STL::__distance<char *>
; Function compile flags: /Ogsy
; File c:\stlport-4.6.1\stlport\stl\_iterator_base.h
;	COMDAT ??$__distance@PAD@_STL@@YAHABQAD0ABUrandom_access_iterator_tag@0@@Z
_TEXT	SEGMENT
___first$ = 8						; size = 4
___last$ = 12						; size = 4
___formal$ = 16						; size = 4
??$__distance@PAD@_STL@@YAHABQAD0ABUrandom_access_iterator_tag@0@@Z PROC NEAR ; _STL::__distance<char *>, COMDAT

; 363  :   return __last - __first;

  00000	8b 44 24 08	 mov	 eax, DWORD PTR ___last$[esp-4]
  00004	8b 00		 mov	 eax, DWORD PTR [eax]
  00006	8b 4c 24 04	 mov	 ecx, DWORD PTR ___first$[esp-4]
  0000a	2b 01		 sub	 eax, DWORD PTR [ecx]

; 364  : }

  0000c	c3		 ret	 0
??$__distance@PAD@_STL@@YAHABQAD0ABUrandom_access_iterator_tag@0@@Z ENDP ; _STL::__distance<char *>
_TEXT	ENDS
PUBLIC	??$max@I@_STL@@YAABIABI0@Z			; _STL::max<unsigned int>
; Function compile flags: /Ogsy
; File c:\stlport-4.6.1\stlport\stl\_algobase.h
;	COMDAT ??$max@I@_STL@@YAABIABI0@Z
_TEXT	SEGMENT
___a$ = 8						; size = 4
___b$ = 12						; size = 4
??$max@I@_STL@@YAABIABI0@Z PROC NEAR			; _STL::max<unsigned int>, COMDAT

; 79   : inline const _Tp& (max)(const _Tp& __a, const _Tp& __b) {  return  __a < __b ? __b : __a; }

  00000	8b 44 24 04	 mov	 eax, DWORD PTR ___a$[esp-4]
  00004	8b 10		 mov	 edx, DWORD PTR [eax]
  00006	8b 4c 24 08	 mov	 ecx, DWORD PTR ___b$[esp-4]
  0000a	3b 11		 cmp	 edx, DWORD PTR [ecx]
  0000c	73 02		 jae	 SHORT $L105690
  0000e	8b c1		 mov	 eax, ecx
$L105690:
  00010	c3		 ret	 0
??$max@I@_STL@@YAABIABI0@Z ENDP				; _STL::max<unsigned int>
_TEXT	ENDS
PUBLIC	?_Ret@?$_BothPtrType@PADPAD@_STL@@SA?AU__true_type@2@XZ ; _STL::_BothPtrType<char *,char *>::_Ret
; Function compile flags: /Ogsy
; File c:\stlport-4.6.1\stlport\stl\type_traits.h
;	COMDAT ?_Ret@?$_BothPtrType@PADPAD@_STL@@SA?AU__true_type@2@XZ
_TEXT	SEGMENT
$T105694 = -1						; size = 1
?_Ret@?$_BothPtrType@PADPAD@_STL@@SA?AU__true_type@2@XZ PROC NEAR ; _STL::_BothPtrType<char *,char *>::_Ret, COMDAT

; 234  :   static __true_type _Ret() { return __true_type();} 

  00000	55		 push	 ebp
  00001	8b ec		 mov	 ebp, esp
  00003	51		 push	 ecx
  00004	57		 push	 edi
  00005	33 c0		 xor	 eax, eax
  00007	8d 7d ff	 lea	 edi, DWORD PTR $T105694[ebp]
  0000a	aa		 stosb
  0000b	8a 45 ff	 mov	 al, BYTE PTR $T105694[ebp]
  0000e	5f		 pop	 edi
  0000f	c9		 leave
  00010	c3		 ret	 0
?_Ret@?$_BothPtrType@PADPAD@_STL@@SA?AU__true_type@2@XZ ENDP ; _STL::_BothPtrType<char *,char *>::_Ret
_TEXT	ENDS
PUBLIC	?_Ret@?$_OKToMemCpy@DD@_STL@@SA?AU__true_type@2@XZ ; _STL::_OKToMemCpy<char,char>::_Ret
; Function compile flags: /Ogsy
;	COMDAT ?_Ret@?$_OKToMemCpy@DD@_STL@@SA?AU__true_type@2@XZ
_TEXT	SEGMENT
$T105697 = -1						; size = 1
?_Ret@?$_OKToMemCpy@DD@_STL@@SA?AU__true_type@2@XZ PROC NEAR ; _STL::_OKToMemCpy<char,char>::_Ret, COMDAT

; 361  :   static _Type _Ret() { return _Type(); }

  00000	55		 push	 ebp
  00001	8b ec		 mov	 ebp, esp
  00003	51		 push	 ecx
  00004	57		 push	 edi
  00005	33 c0		 xor	 eax, eax
  00007	8d 7d ff	 lea	 edi, DWORD PTR $T105697[ebp]
  0000a	aa		 stosb
  0000b	8a 45 ff	 mov	 al, BYTE PTR $T105697[ebp]
  0000e	5f		 pop	 edi
  0000f	c9		 leave
  00010	c3		 ret	 0
?_Ret@?$_OKToMemCpy@DD@_STL@@SA?AU__true_type@2@XZ ENDP	; _STL::_OKToMemCpy<char,char>::_Ret
_TEXT	ENDS
PUBLIC	??$_IsOKToMemCpy@DD@_STL@@YA?AU?$_OKToMemCpy@DD@0@PAD0@Z ; _STL::_IsOKToMemCpy<char,char>
; Function compile flags: /Ogsy
;	COMDAT ??$_IsOKToMemCpy@DD@_STL@@YA?AU?$_OKToMemCpy@DD@0@PAD0@Z
_TEXT	SEGMENT
$T105700 = -1						; size = 1
___formal$ = 8						; size = 4
___formal$ = 12						; size = 4
??$_IsOKToMemCpy@DD@_STL@@YA?AU?$_OKToMemCpy@DD@0@PAD0@Z PROC NEAR ; _STL::_IsOKToMemCpy<char,char>, COMDAT

; 365  : inline _OKToMemCpy<_Tp1, _Tp2> _IsOKToMemCpy(_Tp1*, _Tp2*)  {

  00000	55		 push	 ebp
  00001	8b ec		 mov	 ebp, esp
  00003	51		 push	 ecx
  00004	57		 push	 edi

; 366  :   return _OKToMemCpy<_Tp1, _Tp2>();

  00005	33 c0		 xor	 eax, eax
  00007	8d 7d ff	 lea	 edi, DWORD PTR $T105700[ebp]
  0000a	aa		 stosb
  0000b	8a 45 ff	 mov	 al, BYTE PTR $T105700[ebp]
  0000e	5f		 pop	 edi

; 367  : }

  0000f	c9		 leave
  00010	c3		 ret	 0
??$_IsOKToMemCpy@DD@_STL@@YA?AU?$_OKToMemCpy@DD@0@PAD0@Z ENDP ; _STL::_IsOKToMemCpy<char,char>
_TEXT	ENDS
PUBLIC	??$__copy_ptrs@PADPAD@_STL@@YAPADPAD00ABU__true_type@0@@Z ; _STL::__copy_ptrs<char *,char *>
; Function compile flags: /Ogsy
; File c:\stlport-4.6.1\stlport\stl\_algobase.h
;	COMDAT ??$__copy_ptrs@PADPAD@_STL@@YAPADPAD00ABU__true_type@0@@Z
_TEXT	SEGMENT
___first$ = 8						; size = 4
___last$ = 12						; size = 4
___result$ = 16						; size = 4
___formal$ = 20						; size = 4
??$__copy_ptrs@PADPAD@_STL@@YAPADPAD00ABU__true_type@0@@Z PROC NEAR ; _STL::__copy_ptrs<char *,char *>, COMDAT

; 195  : // we know they all pointers, so this cast is OK 
; 196  :   //  return (_OutputIter)__copy_trivial(&(*__first), &(*__last), &(*__result));
; 197  :   return (_OutputIter)__copy_trivial(__first, __last, __result);

  00000	ff 74 24 0c	 push	 DWORD PTR ___result$[esp-4]
  00004	ff 74 24 0c	 push	 DWORD PTR ___last$[esp]
  00008	ff 74 24 0c	 push	 DWORD PTR ___first$[esp+4]
  0000c	e8 00 00 00 00	 call	 ?__copy_trivial@_STL@@YAPAXPBX0PAX@Z ; _STL::__copy_trivial
  00011	83 c4 0c	 add	 esp, 12			; 0000000cH

; 198  : }

  00014	c3		 ret	 0
??$__copy_ptrs@PADPAD@_STL@@YAPADPAD00ABU__true_type@0@@Z ENDP ; _STL::__copy_ptrs<char *,char *>
_TEXT	ENDS
PUBLIC	?eof@?$__char_traits_base@DH@_STL@@SAHXZ	; _STL::__char_traits_base<char,int>::eof
; Function compile flags: /Ogsy
; File c:\stlport-4.6.1\stlport\stl\char_traits.h
;	COMDAT ?eof@?$__char_traits_base@DH@_STL@@SAHXZ
_TEXT	SEGMENT
?eof@?$__char_traits_base@DH@_STL@@SAHXZ PROC NEAR	; _STL::__char_traits_base<char,int>::eof, COMDAT

; 197  :     return (int_type)-1;

  00000	83 c8 ff	 or	 eax, -1

; 198  :     //    return __STATIC_CAST(int_type,-1);
; 199  :   }

  00003	c3		 ret	 0
?eof@?$__char_traits_base@DH@_STL@@SAHXZ ENDP		; _STL::__char_traits_base<char,int>::eof
_TEXT	ENDS
PUBLIC	??0?$allocator@D@_STL@@QAE@XZ			; _STL::allocator<char>::allocator<char>
; Function compile flags: /Ogsy
; File c:\stlport-4.6.1\stlport\stl\_alloc.h
;	COMDAT ??0?$allocator@D@_STL@@QAE@XZ
_TEXT	SEGMENT
??0?$allocator@D@_STL@@QAE@XZ PROC NEAR			; _STL::allocator<char>::allocator<char>, COMDAT
; _this$ = ecx

; 345  :   allocator() _STLP_NOTHROW {}

  00000	8b c1		 mov	 eax, ecx
  00002	c3		 ret	 0
??0?$allocator@D@_STL@@QAE@XZ ENDP			; _STL::allocator<char>::allocator<char>
_TEXT	ENDS
PUBLIC	??1?$allocator@D@_STL@@QAE@XZ			; _STL::allocator<char>::~allocator<char>
; Function compile flags: /Ogsy
;	COMDAT ??1?$allocator@D@_STL@@QAE@XZ
_TEXT	SEGMENT
??1?$allocator@D@_STL@@QAE@XZ PROC NEAR			; _STL::allocator<char>::~allocator<char>, COMDAT
; _this$ = ecx

; 350  :   ~allocator() _STLP_NOTHROW {}

  00000	c3		 ret	 0
??1?$allocator@D@_STL@@QAE@XZ ENDP			; _STL::allocator<char>::~allocator<char>
_TEXT	ENDS
PUBLIC	??1?$basic_ios@DV?$char_traits@D@_STL@@@_STL@@UAE@XZ ; _STL::basic_ios<char,_STL::char_traits<char> >::~basic_ios<char,_STL::char_traits<char> >
EXTRN	??1ios_base@_STL@@UAE@XZ:NEAR			; _STL::ios_base::~ios_base
; Function compile flags: /Ogsy
; File c:\stlport-4.6.1\stlport\stl\_ios.h
;	COMDAT ??1?$basic_ios@DV?$char_traits@D@_STL@@@_STL@@UAE@XZ
_TEXT	SEGMENT
??1?$basic_ios@DV?$char_traits@D@_STL@@@_STL@@UAE@XZ PROC NEAR ; _STL::basic_ios<char,_STL::char_traits<char> >::~basic_ios<char,_STL::char_traits<char> >, COMDAT
; _this$ = ecx

; 58   :   virtual ~basic_ios() {}

  00000	c7 01 00 00 00
	00		 mov	 DWORD PTR [ecx], OFFSET FLAT:??_7?$basic_ios@DV?$char_traits@D@_STL@@@_STL@@6B@
  00006	e9 00 00 00 00	 jmp	 ??1ios_base@_STL@@UAE@XZ ; _STL::ios_base::~ios_base
??1?$basic_ios@DV?$char_traits@D@_STL@@@_STL@@UAE@XZ ENDP ; _STL::basic_ios<char,_STL::char_traits<char> >::~basic_ios<char,_STL::char_traits<char> >
_TEXT	ENDS
PUBLIC	?_M_write@?$basic_filebuf@DV?$char_traits@D@_STL@@@_STL@@QAE_NPADH@Z ; _STL::basic_filebuf<char,_STL::char_traits<char> >::_M_write
EXTRN	?_M_write@_Filebuf_base@_STL@@QAE_NPADH@Z:NEAR	; _STL::_Filebuf_base::_M_write
; Function compile flags: /Ogsy
; File c:\stlport-4.6.1\stlport\stl\_fstream.h
;	COMDAT ?_M_write@?$basic_filebuf@DV?$char_traits@D@_STL@@@_STL@@QAE_NPADH@Z
_TEXT	SEGMENT
___buf$ = 8						; size = 4
___n$ = 12						; size = 4
?_M_write@?$basic_filebuf@DV?$char_traits@D@_STL@@@_STL@@QAE_NPADH@Z PROC NEAR ; _STL::basic_filebuf<char,_STL::char_traits<char> >::_M_write, COMDAT
; _this$ = ecx

; 349  :   bool _M_write(char* __buf,  ptrdiff_t __n) {return _M_base._M_write(__buf, __n); }

  00000	83 c1 54	 add	 ecx, 84			; 00000054H
  00003	e9 00 00 00 00	 jmp	 ?_M_write@_Filebuf_base@_STL@@QAE_NPADH@Z ; _STL::_Filebuf_base::_M_write
?_M_write@?$basic_filebuf@DV?$char_traits@D@_STL@@@_STL@@QAE_NPADH@Z ENDP ; _STL::basic_filebuf<char,_STL::char_traits<char> >::_M_write
; Function compile flags: /Ogsy
_TEXT	ENDS
;	COMDAT ??_G?$basic_ios@DV?$char_traits@D@_STL@@@_STL@@UAEPAXI@Z
_TEXT	SEGMENT
___flags$ = 8						; size = 4
??_G?$basic_ios@DV?$char_traits@D@_STL@@@_STL@@UAEPAXI@Z PROC NEAR ; _STL::basic_ios<char,_STL::char_traits<char> >::`scalar deleting destructor', COMDAT
; _this$ = ecx
  00000	56		 push	 esi
  00001	8b f1		 mov	 esi, ecx
  00003	e8 00 00 00 00	 call	 ??1?$basic_ios@DV?$char_traits@D@_STL@@@_STL@@UAE@XZ ; _STL::basic_ios<char,_STL::char_traits<char> >::~basic_ios<char,_STL::char_traits<char> >
  00008	f6 44 24 08 01	 test	 BYTE PTR ___flags$[esp], 1
  0000d	74 07		 je	 SHORT $L98548
  0000f	56		 push	 esi
  00010	e8 00 00 00 00	 call	 ??3@YAXPAX@Z		; operator delete
  00015	59		 pop	 ecx
$L98548:
  00016	8b c6		 mov	 eax, esi
  00018	5e		 pop	 esi
  00019	c2 04 00	 ret	 4
??_G?$basic_ios@DV?$char_traits@D@_STL@@@_STL@@UAEPAXI@Z ENDP ; _STL::basic_ios<char,_STL::char_traits<char> >::`scalar deleting destructor'
_TEXT	ENDS
PUBLIC	??1?$_STLP_alloc_proxy@PADDV?$allocator@D@_STL@@@_STL@@QAE@XZ ; _STL::_STLP_alloc_proxy<char *,char,_STL::allocator<char> >::~_STLP_alloc_proxy<char *,char,_STL::allocator<char> >
; Function compile flags: /Ogsy
;	COMDAT ??1?$_STLP_alloc_proxy@PADDV?$allocator@D@_STL@@@_STL@@QAE@XZ
_TEXT	SEGMENT
??1?$_STLP_alloc_proxy@PADDV?$allocator@D@_STL@@@_STL@@QAE@XZ PROC NEAR ; _STL::_STLP_alloc_proxy<char *,char,_STL::allocator<char> >::~_STLP_alloc_proxy<char *,char,_STL::allocator<char> >, COMDAT
; _this$ = ecx
  00000	c3		 ret	 0
??1?$_STLP_alloc_proxy@PADDV?$allocator@D@_STL@@@_STL@@QAE@XZ ENDP ; _STL::_STLP_alloc_proxy<char *,char,_STL::allocator<char> >::~_STLP_alloc_proxy<char *,char,_STL::allocator<char> >
_TEXT	ENDS
PUBLIC	?allocate@?$__node_alloc@$00$0A@@_STL@@SAPAXI@Z	; _STL::__node_alloc<1,0>::allocate
EXTRN	?_M_allocate@?$__node_alloc@$00$0A@@_STL@@CAPAXI@Z:NEAR ; _STL::__node_alloc<1,0>::_M_allocate
; Function compile flags: /Ogsy
; File c:\stlport-4.6.1\stlport\stl\_alloc.h
;	COMDAT ?allocate@?$__node_alloc@$00$0A@@_STL@@SAPAXI@Z
_TEXT	SEGMENT
___n$ = 8						; size = 4
?allocate@?$__node_alloc@$00$0A@@_STL@@SAPAXI@Z PROC NEAR ; _STL::__node_alloc<1,0>::allocate, COMDAT

; 251  :   static void * _STLP_CALL allocate(size_t __n) { return (__n > (size_t)_MAX_BYTES) ?  __stl_new(__n) : _M_allocate(__n); }

  00000	8b 44 24 04	 mov	 eax, DWORD PTR ___n$[esp-4]
  00004	3d 80 00 00 00	 cmp	 eax, 128		; 00000080H
  00009	50		 push	 eax
  0000a	76 07		 jbe	 SHORT $L105732
  0000c	e8 00 00 00 00	 call	 ??2@YAPAXI@Z		; operator new
  00011	59		 pop	 ecx
  00012	c3		 ret	 0
$L105732:
  00013	e8 00 00 00 00	 call	 ?_M_allocate@?$__node_alloc@$00$0A@@_STL@@CAPAXI@Z ; _STL::__node_alloc<1,0>::_M_allocate
  00018	59		 pop	 ecx
  00019	c3		 ret	 0
?allocate@?$__node_alloc@$00$0A@@_STL@@SAPAXI@Z ENDP	; _STL::__node_alloc<1,0>::allocate
_TEXT	ENDS
PUBLIC	?deallocate@?$__node_alloc@$00$0A@@_STL@@SAXPAXI@Z ; _STL::__node_alloc<1,0>::deallocate
EXTRN	?_M_deallocate@?$__node_alloc@$00$0A@@_STL@@CAXPAXI@Z:NEAR ; _STL::__node_alloc<1,0>::_M_deallocate
; Function compile flags: /Ogsy
;	COMDAT ?deallocate@?$__node_alloc@$00$0A@@_STL@@SAXPAXI@Z
_TEXT	SEGMENT
___p$ = 8						; size = 4
___n$ = 12						; size = 4
?deallocate@?$__node_alloc@$00$0A@@_STL@@SAXPAXI@Z PROC NEAR ; _STL::__node_alloc<1,0>::deallocate, COMDAT

; 253  :   static void _STLP_CALL deallocate(void *__p, size_t __n) { if (__n > (size_t)_MAX_BYTES) __stl_delete(__p); else _M_deallocate(__p, __n); }

  00000	81 7c 24 08 80
	00 00 00	 cmp	 DWORD PTR ___n$[esp-4], 128 ; 00000080H
  00008	76 0b		 jbe	 SHORT $L98677
  0000a	ff 74 24 04	 push	 DWORD PTR ___p$[esp-4]
  0000e	e8 00 00 00 00	 call	 ??3@YAXPAX@Z		; operator delete
  00013	59		 pop	 ecx
  00014	c3		 ret	 0
$L98677:
  00015	e9 00 00 00 00	 jmp	 ?_M_deallocate@?$__node_alloc@$00$0A@@_STL@@CAXPAXI@Z ; _STL::__node_alloc<1,0>::_M_deallocate
?deallocate@?$__node_alloc@$00$0A@@_STL@@SAXPAXI@Z ENDP	; _STL::__node_alloc<1,0>::deallocate
_TEXT	ENDS
PUBLIC	??1?$basic_ostream@DV?$char_traits@D@_STL@@@_STL@@UAE@XZ ; _STL::basic_ostream<char,_STL::char_traits<char> >::~basic_ostream<char,_STL::char_traits<char> >
PUBLIC	??_7?$basic_ostream@DV?$char_traits@D@_STL@@@_STL@@6B@ ; _STL::basic_ostream<char,_STL::char_traits<char> >::`vftable'
PUBLIC	??_G?$basic_ostream@DV?$char_traits@D@_STL@@@_STL@@UAEPAXI@Z ; _STL::basic_ostream<char,_STL::char_traits<char> >::`scalar deleting destructor'
PUBLIC	??_R1A@A@3BA@?$basic_ios@DV?$char_traits@D@_STL@@@_STL@@8 ; _STL::basic_ios<char,_STL::char_traits<char> >::`RTTI Base Class Descriptor at (0,0,4,16)'
PUBLIC	??_R1A@A@3A@ios_base@_STL@@8			; _STL::ios_base::`RTTI Base Class Descriptor at (0,0,4,0)'
PUBLIC	??_R4?$basic_ostream@DV?$char_traits@D@_STL@@@_STL@@6B@ ; _STL::basic_ostream<char,_STL::char_traits<char> >::`RTTI Complete Object Locator'
PUBLIC	??_R0?AV?$basic_ostream@DV?$char_traits@D@_STL@@@_STL@@@8 ; _STL::basic_ostream<char,_STL::char_traits<char> > `RTTI Type Descriptor'
PUBLIC	??_R3?$basic_ostream@DV?$char_traits@D@_STL@@@_STL@@8 ; _STL::basic_ostream<char,_STL::char_traits<char> >::`RTTI Class Hierarchy Descriptor'
PUBLIC	??_R2?$basic_ostream@DV?$char_traits@D@_STL@@@_STL@@8 ; _STL::basic_ostream<char,_STL::char_traits<char> >::`RTTI Base Class Array'
PUBLIC	??_R1A@?0A@A@?$basic_ostream@DV?$char_traits@D@_STL@@@_STL@@8 ; _STL::basic_ostream<char,_STL::char_traits<char> >::`RTTI Base Class Descriptor at (0,-1,0,0)'
EXTRN	??_E?$basic_ostream@DV?$char_traits@D@_STL@@@_STL@@UAEPAXI@Z:NEAR ; _STL::basic_ostream<char,_STL::char_traits<char> >::`vector deleting destructor'
;	COMDAT ??_7?$basic_ostream@DV?$char_traits@D@_STL@@@_STL@@6B@
; File c:\stlport-4.6.1\stlport\stl\_ostream.c
CONST	SEGMENT
??_7?$basic_ostream@DV?$char_traits@D@_STL@@@_STL@@6B@ DD FLAT:??_R4?$basic_ostream@DV?$char_traits@D@_STL@@@_STL@@6B@ ; _STL::basic_ostream<char,_STL::char_traits<char> >::`vftable'
	DD	FLAT:??_E?$basic_ostream@DV?$char_traits@D@_STL@@@_STL@@UAEPAXI@Z
CONST	ENDS
;	COMDAT ??_R4?$basic_ostream@DV?$char_traits@D@_STL@@@_STL@@6B@
rdata$r	SEGMENT
??_R4?$basic_ostream@DV?$char_traits@D@_STL@@@_STL@@6B@ DD 00H ; _STL::basic_ostream<char,_STL::char_traits<char> >::`RTTI Complete Object Locator'
	DD	04H
	DD	00H
	DD	FLAT:??_R0?AV?$basic_ostream@DV?$char_traits@D@_STL@@@_STL@@@8
	DD	FLAT:??_R3?$basic_ostream@DV?$char_traits@D@_STL@@@_STL@@8
rdata$r	ENDS
;	COMDAT ??_R0?AV?$basic_ostream@DV?$char_traits@D@_STL@@@_STL@@@8
_DATA	SEGMENT
??_R0?AV?$basic_ostream@DV?$char_traits@D@_STL@@@_STL@@@8 DD FLAT:??_7type_info@@6B@ ; _STL::basic_ostream<char,_STL::char_traits<char> > `RTTI Type Descriptor'
	DD	00H
	DB	'.?AV?$basic_ostream@DV?$char_traits@D@_STL@@@_STL@@', 00H
_DATA	ENDS
;	COMDAT ??_R3?$basic_ostream@DV?$char_traits@D@_STL@@@_STL@@8
rdata$r	SEGMENT
??_R3?$basic_ostream@DV?$char_traits@D@_STL@@@_STL@@8 DD 00H ; _STL::basic_ostream<char,_STL::char_traits<char> >::`RTTI Class Hierarchy Descriptor'
	DD	00H
	DD	03H
	DD	FLAT:??_R2?$basic_ostream@DV?$char_traits@D@_STL@@@_STL@@8
rdata$r	ENDS
;	COMDAT ??_R2?$basic_ostream@DV?$char_traits@D@_STL@@@_STL@@8
rdata$r	SEGMENT
??_R2?$basic_ostream@DV?$char_traits@D@_STL@@@_STL@@8 DD FLAT:??_R1A@?0A@A@?$basic_ostream@DV?$char_traits@D@_STL@@@_STL@@8 ; _STL::basic_ostream<char,_STL::char_traits<char> >::`RTTI Base Class Array'
	DD	FLAT:??_R1A@A@3BA@?$basic_ios@DV?$char_traits@D@_STL@@@_STL@@8
	DD	FLAT:??_R1A@A@3A@ios_base@_STL@@8
rdata$r	ENDS
;	COMDAT ??_R1A@?0A@A@?$basic_ostream@DV?$char_traits@D@_STL@@@_STL@@8
rdata$r	SEGMENT
??_R1A@?0A@A@?$basic_ostream@DV?$char_traits@D@_STL@@@_STL@@8 DD FLAT:??_R0?AV?$basic_ostream@DV?$char_traits@D@_STL@@@_STL@@@8 ; _STL::basic_ostream<char,_STL::char_traits<char> >::`RTTI Base Class Descriptor at (0,-1,0,0)'
	DD	02H
	DD	00H
	DD	0ffffffffH
	DD	00H
	DD	00H
rdata$r	ENDS
;	COMDAT ??_R1A@A@3BA@?$basic_ios@DV?$char_traits@D@_STL@@@_STL@@8
rdata$r	SEGMENT
??_R1A@A@3BA@?$basic_ios@DV?$char_traits@D@_STL@@@_STL@@8 DD FLAT:??_R0?AV?$basic_ios@DV?$char_traits@D@_STL@@@_STL@@@8 ; _STL::basic_ios<char,_STL::char_traits<char> >::`RTTI Base Class Descriptor at (0,0,4,16)'
	DD	01H
	DD	00H
	DD	00H
	DD	04H
	DD	010H
rdata$r	ENDS
;	COMDAT ??_R1A@A@3A@ios_base@_STL@@8
rdata$r	SEGMENT
??_R1A@A@3A@ios_base@_STL@@8 DD FLAT:??_R0?AVios_base@_STL@@@8 ; _STL::ios_base::`RTTI Base Class Descriptor at (0,0,4,0)'
	DD	00H
	DD	00H
	DD	00H
	DD	04H
	DD	00H
; Function compile flags: /Ogsy
rdata$r	ENDS
;	COMDAT ??1?$basic_ostream@DV?$char_traits@D@_STL@@@_STL@@UAE@XZ
_TEXT	SEGMENT
??1?$basic_ostream@DV?$char_traits@D@_STL@@@_STL@@UAE@XZ PROC NEAR ; _STL::basic_ostream<char,_STL::char_traits<char> >::~basic_ostream<char,_STL::char_traits<char> >, COMDAT
; _this$ = ecx

; 64   : {}

  00000	8b 41 fc	 mov	 eax, DWORD PTR [ecx-4]
  00003	8b 40 04	 mov	 eax, DWORD PTR [eax+4]
  00006	c7 44 08 fc 00
	00 00 00	 mov	 DWORD PTR [eax+ecx-4], OFFSET FLAT:??_7?$basic_ostream@DV?$char_traits@D@_STL@@@_STL@@6B@
  0000e	c3		 ret	 0
??1?$basic_ostream@DV?$char_traits@D@_STL@@@_STL@@UAE@XZ ENDP ; _STL::basic_ostream<char,_STL::char_traits<char> >::~basic_ostream<char,_STL::char_traits<char> >
_TEXT	ENDS
PUBLIC	?_M_terminate_string@?$basic_string@DV?$char_traits@D@_STL@@V?$allocator@D@2@@_STL@@AAEXXZ ; _STL::basic_string<char,_STL::char_traits<char>,_STL::allocator<char> >::_M_terminate_string
; Function compile flags: /Ogsy
; File c:\stlport-4.6.1\stlport\stl\_string.h
;	COMDAT ?_M_terminate_string@?$basic_string@DV?$char_traits@D@_STL@@V?$allocator@D@2@@_STL@@AAEXXZ
_TEXT	SEGMENT
?_M_terminate_string@?$basic_string@DV?$char_traits@D@_STL@@V?$allocator@D@2@@_STL@@AAEXXZ PROC NEAR ; _STL::basic_string<char,_STL::char_traits<char>,_STL::allocator<char> >::_M_terminate_string, COMDAT
; _this$ = ecx

; 355  :     _M_terminate_string_aux(_Char_Is_Integral());

  00000	8b 41 04	 mov	 eax, DWORD PTR [ecx+4]
  00003	c6 00 00	 mov	 BYTE PTR [eax], 0

; 356  :   }

  00006	c3		 ret	 0
?_M_terminate_string@?$basic_string@DV?$char_traits@D@_STL@@V?$allocator@D@2@@_STL@@AAEXXZ ENDP ; _STL::basic_string<char,_STL::char_traits<char>,_STL::allocator<char> >::_M_terminate_string
_TEXT	ENDS
PUBLIC	?allocate@?$allocator@D@_STL@@QAEPADIPBX@Z	; _STL::allocator<char>::allocate
; Function compile flags: /Ogsy
; File c:\stlport-4.6.1\stlport\stl\_alloc.h
;	COMDAT ?allocate@?$allocator@D@_STL@@QAEPADIPBX@Z
_TEXT	SEGMENT
___n$ = 8						; size = 4
___formal$ = 12						; size = 4
?allocate@?$allocator@D@_STL@@QAEPADIPBX@Z PROC NEAR	; _STL::allocator<char>::allocate, COMDAT
; _this$ = ecx

; 355  :     return __n != 0 ? __REINTERPRET_CAST(value_type*,__sgi_alloc::allocate(__n * sizeof(value_type))) : 0;

  00000	33 c0		 xor	 eax, eax
  00002	39 44 24 04	 cmp	 DWORD PTR ___n$[esp-4], eax
  00006	74 0a		 je	 SHORT $L105758
  00008	ff 74 24 04	 push	 DWORD PTR ___n$[esp-4]
  0000c	e8 00 00 00 00	 call	 ?allocate@?$__node_alloc@$00$0A@@_STL@@SAPAXI@Z ; _STL::__node_alloc<1,0>::allocate
  00011	59		 pop	 ecx
$L105758:

; 356  :   }

  00012	c2 08 00	 ret	 8
?allocate@?$allocator@D@_STL@@QAEPADIPBX@Z ENDP		; _STL::allocator<char>::allocate
_TEXT	ENDS
PUBLIC	?is_open@?$basic_filebuf@DV?$char_traits@D@_STL@@@_STL@@QBE_NXZ ; _STL::basic_filebuf<char,_STL::char_traits<char> >::is_open
; Function compile flags: /Ogsy
; File c:\stlport-4.6.1\stlport\stl\_fstream.h
;	COMDAT ?is_open@?$basic_filebuf@DV?$char_traits@D@_STL@@@_STL@@QBE_NXZ
_TEXT	SEGMENT
?is_open@?$basic_filebuf@DV?$char_traits@D@_STL@@@_STL@@QBE_NXZ PROC NEAR ; _STL::basic_filebuf<char,_STL::char_traits<char> >::is_open, COMDAT
; _this$ = ecx

; 198  :   bool is_open() const { return _M_base.__is_open(); }

  00000	33 c0		 xor	 eax, eax
  00002	38 41 60	 cmp	 BYTE PTR [ecx+96], al
  00005	0f 95 c0	 setne	 al
  00008	c3		 ret	 0
?is_open@?$basic_filebuf@DV?$char_traits@D@_STL@@@_STL@@QBE_NXZ ENDP ; _STL::basic_filebuf<char,_STL::char_traits<char> >::is_open
_TEXT	ENDS
PUBLIC	??0?$_STLP_alloc_proxy@PADDV?$allocator@D@_STL@@@_STL@@QAE@ABV?$allocator@D@1@PAD@Z ; _STL::_STLP_alloc_proxy<char *,char,_STL::allocator<char> >::_STLP_alloc_proxy<char *,char,_STL::allocator<char> >
; Function compile flags: /Ogsy
; File c:\stlport-4.6.1\stlport\stl\_alloc.h
;	COMDAT ??0?$_STLP_alloc_proxy@PADDV?$allocator@D@_STL@@@_STL@@QAE@ABV?$allocator@D@1@PAD@Z
_TEXT	SEGMENT
___a$ = 8						; size = 4
___p$ = 12						; size = 4
??0?$_STLP_alloc_proxy@PADDV?$allocator@D@_STL@@@_STL@@QAE@ABV?$allocator@D@1@PAD@Z PROC NEAR ; _STL::_STLP_alloc_proxy<char *,char,_STL::allocator<char> >::_STLP_alloc_proxy<char *,char,_STL::allocator<char> >, COMDAT
; _this$ = ecx

; 487  :   inline _STLP_alloc_proxy(const _MaybeReboundAlloc& __a, _Value __p) : _MaybeReboundAlloc(__a), _M_data(__p) {}

  00000	8b c1		 mov	 eax, ecx
  00002	8b 4c 24 08	 mov	 ecx, DWORD PTR ___p$[esp-4]
  00006	89 08		 mov	 DWORD PTR [eax], ecx
  00008	c2 08 00	 ret	 8
??0?$_STLP_alloc_proxy@PADDV?$allocator@D@_STL@@@_STL@@QAE@ABV?$allocator@D@1@PAD@Z ENDP ; _STL::_STLP_alloc_proxy<char *,char,_STL::allocator<char> >::_STLP_alloc_proxy<char *,char,_STL::allocator<char> >
_TEXT	ENDS
PUBLIC	?erase@?$basic_string@DV?$char_traits@D@_STL@@V?$allocator@D@2@@_STL@@QAEPADPAD0@Z ; _STL::basic_string<char,_STL::char_traits<char>,_STL::allocator<char> >::erase
; Function compile flags: /Ogsy
; File c:\stlport-4.6.1\stlport\stl\_string.h
;	COMDAT ?erase@?$basic_string@DV?$char_traits@D@_STL@@V?$allocator@D@2@@_STL@@QAEPADPAD0@Z
_TEXT	SEGMENT
___first$ = 8						; size = 4
___last$ = 12						; size = 4
?erase@?$basic_string@DV?$char_traits@D@_STL@@V?$allocator@D@2@@_STL@@QAEPADPAD0@Z PROC NEAR ; _STL::basic_string<char,_STL::char_traits<char>,_STL::allocator<char> >::erase, COMDAT
; _this$ = ecx

; 862  :   iterator erase(iterator __first, iterator __last) {

  00000	53		 push	 ebx

; 863  :     if (__first != __last) {

  00001	8b 5c 24 08	 mov	 ebx, DWORD PTR ___first$[esp]
  00005	56		 push	 esi
  00006	57		 push	 edi
  00007	8b 7c 24 14	 mov	 edi, DWORD PTR ___last$[esp+8]
  0000b	3b df		 cmp	 ebx, edi
  0000d	8b f1		 mov	 esi, ecx
  0000f	74 1a		 je	 SHORT $L104448

; 864  :                                 // The move includes the terminating _CharT().
; 865  :       traits_type::move(__first, __last, (this->_M_finish - __last) + 1);

  00011	8b 46 04	 mov	 eax, DWORD PTR [esi+4]
  00014	2b c7		 sub	 eax, edi
  00016	40		 inc	 eax
  00017	74 0b		 je	 SHORT $L105777
  00019	50		 push	 eax
  0001a	57		 push	 edi
  0001b	53		 push	 ebx
  0001c	e8 00 00 00 00	 call	 _memmove
  00021	83 c4 0c	 add	 esp, 12			; 0000000cH
$L105777:

; 866  :       pointer __new_finish = this->_M_finish - (__last - __first);

  00024	8b c3		 mov	 eax, ebx
  00026	2b c7		 sub	 eax, edi

; 867  :       _STLP_STD::_Destroy(__new_finish + 1, this->_M_finish + 1);
; 868  :       this->_M_finish = __new_finish;

  00028	01 46 04	 add	 DWORD PTR [esi+4], eax
$L104448:
  0002b	5f		 pop	 edi
  0002c	5e		 pop	 esi

; 869  :     }
; 870  :     return __first;

  0002d	8b c3		 mov	 eax, ebx
  0002f	5b		 pop	 ebx

; 871  :   }

  00030	c2 08 00	 ret	 8
?erase@?$basic_string@DV?$char_traits@D@_STL@@V?$allocator@D@2@@_STL@@QAEPADPAD0@Z ENDP ; _STL::basic_string<char,_STL::char_traits<char>,_STL::allocator<char> >::erase
_TEXT	ENDS
PUBLIC	?clear@?$basic_ios@DV?$char_traits@D@_STL@@@_STL@@QAEXH@Z ; _STL::basic_ios<char,_STL::char_traits<char> >::clear
; Function compile flags: /Ogsy
; File c:\stlport-4.6.1\stlport\stl\_ios.h
;	COMDAT ?clear@?$basic_ios@DV?$char_traits@D@_STL@@@_STL@@QAEXH@Z
_TEXT	SEGMENT
___state$ = 8						; size = 4
?clear@?$basic_ios@DV?$char_traits@D@_STL@@@_STL@@QAEXH@Z PROC NEAR ; _STL::basic_ios<char,_STL::char_traits<char> >::clear, COMDAT
; _this$ = ecx

; 91   :     _M_clear_nothrow(this->rdbuf() ? __state : iostate(__state|ios_base::badbit));

  00000	83 79 58 00	 cmp	 DWORD PTR [ecx+88], 0
  00004	8b 44 24 04	 mov	 eax, DWORD PTR ___state$[esp-4]
  00008	75 03		 jne	 SHORT $L105786
  0000a	83 c8 01	 or	 eax, 1
$L105786:

; 92   :     _M_check_exception_mask();

  0000d	85 41 14	 test	 DWORD PTR [ecx+20], eax
  00010	89 41 08	 mov	 DWORD PTR [ecx+8], eax
  00013	74 05		 je	 SHORT $L105798
  00015	e8 00 00 00 00	 call	 ?_M_throw_failure@ios_base@_STL@@IAEXXZ ; _STL::ios_base::_M_throw_failure
$L105798:

; 93   :   }

  0001a	c2 04 00	 ret	 4
?clear@?$basic_ios@DV?$char_traits@D@_STL@@@_STL@@QAEXH@Z ENDP ; _STL::basic_ios<char,_STL::char_traits<char> >::clear
_TEXT	ENDS
PUBLIC	?_M_setup_codecvt@?$basic_filebuf@DV?$char_traits@D@_STL@@@_STL@@AAEXABVlocale@2@@Z ; _STL::basic_filebuf<char,_STL::char_traits<char> >::_M_setup_codecvt
; Function compile flags: /Ogsy
; File c:\stlport-4.6.1\stlport\stl\_fstream.c
;	COMDAT ?_M_setup_codecvt@?$basic_filebuf@DV?$char_traits@D@_STL@@@_STL@@AAEXABVlocale@2@@Z
_TEXT	SEGMENT
$T105802 = -4						; size = 4
___encoding$ = 8					; size = 4
___loc$ = 8						; size = 4
?_M_setup_codecvt@?$basic_filebuf@DV?$char_traits@D@_STL@@@_STL@@AAEXABVlocale@2@@Z PROC NEAR ; _STL::basic_filebuf<char,_STL::char_traits<char> >::_M_setup_codecvt, COMDAT
; _this$ = ecx

; 730  : {

  00000	55		 push	 ebp
  00001	8b ec		 mov	 ebp, esp
  00003	51		 push	 ecx
  00004	56		 push	 esi
  00005	8b f1		 mov	 esi, ecx

; 731  :   _M_codecvt = &use_facet<_Codecvt>(__loc) ;

  00007	8b 4d 08	 mov	 ecx, DWORD PTR ___loc$[ebp]
  0000a	68 00 00 00 00	 push	 OFFSET FLAT:?id@?$codecvt@DDH@_STL@@2V0locale@2@A ; _STL::codecvt<char,char,int>::id
  0000f	e8 00 00 00 00	 call	 ?_M_use_facet@locale@_STL@@QBEPAVfacet@12@ABVid@12@@Z ; _STL::locale::_M_use_facet
  00014	89 86 a0 00 00
	00		 mov	 DWORD PTR [esi+160], eax

; 732  :   int __encoding    = _M_codecvt->encoding();

  0001a	8b 10		 mov	 edx, DWORD PTR [eax]
  0001c	8b c8		 mov	 ecx, eax
  0001e	ff 52 10	 call	 DWORD PTR [edx+16]
  00021	89 45 08	 mov	 DWORD PTR ___encoding$[ebp], eax

; 733  : 
; 734  :   _M_width          = (max)(__encoding, 1);

  00024	33 c0		 xor	 eax, eax
  00026	40		 inc	 eax
  00027	39 45 08	 cmp	 DWORD PTR ___encoding$[ebp], eax
  0002a	89 45 fc	 mov	 DWORD PTR $T105802[ebp], eax
  0002d	8d 45 fc	 lea	 eax, DWORD PTR $T105802[ebp]
  00030	7c 03		 jl	 SHORT $L105817
  00032	8d 45 08	 lea	 eax, DWORD PTR ___encoding$[ebp]
$L105817:
  00035	8b 00		 mov	 eax, DWORD PTR [eax]

; 735  :   _M_max_width      = _M_codecvt->max_length();

  00037	8b 8e a0 00 00
	00		 mov	 ecx, DWORD PTR [esi+160]
  0003d	89 86 a4 00 00
	00		 mov	 DWORD PTR [esi+164], eax
  00043	8b 01		 mov	 eax, DWORD PTR [ecx]
  00045	ff 50 1c	 call	 DWORD PTR [eax+28]

; 736  :   _M_constant_width = __encoding > 0;

  00048	83 7d 08 00	 cmp	 DWORD PTR ___encoding$[ebp], 0

; 737  :   _M_always_noconv  = _M_codecvt->always_noconv();

  0004c	8b 8e a0 00 00
	00		 mov	 ecx, DWORD PTR [esi+160]
  00052	89 86 a8 00 00
	00		 mov	 DWORD PTR [esi+168], eax
  00058	0f 9f c0	 setg	 al
  0005b	88 46 64	 mov	 BYTE PTR [esi+100], al
  0005e	8b 01		 mov	 eax, DWORD PTR [ecx]
  00060	ff 50 14	 call	 DWORD PTR [eax+20]
  00063	88 46 65	 mov	 BYTE PTR [esi+101], al
  00066	5e		 pop	 esi

; 738  : }

  00067	c9		 leave
  00068	c2 04 00	 ret	 4
?_M_setup_codecvt@?$basic_filebuf@DV?$char_traits@D@_STL@@@_STL@@AAEXABVlocale@2@@Z ENDP ; _STL::basic_filebuf<char,_STL::char_traits<char> >::_M_setup_codecvt
_TEXT	ENDS
PUBLIC	?rdbuf@?$basic_ios@DV?$char_traits@D@_STL@@@_STL@@QAEPAV?$basic_streambuf@DV?$char_traits@D@_STL@@@2@PAV32@@Z ; _STL::basic_ios<char,_STL::char_traits<char> >::rdbuf
; Function compile flags: /Ogsy
; File c:\stlport-4.6.1\stlport\stl\_ios.c
;	COMDAT ?rdbuf@?$basic_ios@DV?$char_traits@D@_STL@@@_STL@@QAEPAV?$basic_streambuf@DV?$char_traits@D@_STL@@@2@PAV32@@Z
_TEXT	SEGMENT
___buf$ = 8						; size = 4
?rdbuf@?$basic_ios@DV?$char_traits@D@_STL@@@_STL@@QAEPAV?$basic_streambuf@DV?$char_traits@D@_STL@@@2@PAV32@@Z PROC NEAR ; _STL::basic_ios<char,_STL::char_traits<char> >::rdbuf, COMDAT
; _this$ = ecx

; 53   :   basic_streambuf<_CharT, _Traits>* __tmp = _M_streambuf;
; 54   :   _M_streambuf = __buf;

  00000	8b 44 24 04	 mov	 eax, DWORD PTR ___buf$[esp-4]
  00004	56		 push	 esi
  00005	8b 71 58	 mov	 esi, DWORD PTR [ecx+88]

; 55   :   this->clear();

  00008	6a 00		 push	 0
  0000a	89 41 58	 mov	 DWORD PTR [ecx+88], eax
  0000d	e8 00 00 00 00	 call	 ?clear@?$basic_ios@DV?$char_traits@D@_STL@@@_STL@@QAEXH@Z ; _STL::basic_ios<char,_STL::char_traits<char> >::clear

; 56   :   return __tmp;

  00012	8b c6		 mov	 eax, esi
  00014	5e		 pop	 esi

; 57   : }

  00015	c2 04 00	 ret	 4
?rdbuf@?$basic_ios@DV?$char_traits@D@_STL@@@_STL@@QAEPAV?$basic_streambuf@DV?$char_traits@D@_STL@@@2@PAV32@@Z ENDP ; _STL::basic_ios<char,_STL::char_traits<char> >::rdbuf
_TEXT	ENDS
PUBLIC	?_M_unshift@?$basic_filebuf@DV?$char_traits@D@_STL@@@_STL@@AAE_NXZ ; _STL::basic_filebuf<char,_STL::char_traits<char> >::_M_unshift
; Function compile flags: /Ogsy
; File c:\stlport-4.6.1\stlport\stl\_fstream.c
;	COMDAT ?_M_unshift@?$basic_filebuf@DV?$char_traits@D@_STL@@@_STL@@AAE_NXZ
_TEXT	SEGMENT
___enext$104786 = -4					; size = 4
?_M_unshift@?$basic_filebuf@DV?$char_traits@D@_STL@@@_STL@@AAE_NXZ PROC NEAR ; _STL::basic_filebuf<char,_STL::char_traits<char> >::_M_unshift, COMDAT
; _this$ = ecx

; 605  : {

  00000	55		 push	 ebp
  00001	8b ec		 mov	 ebp, esp
  00003	51		 push	 ecx
  00004	53		 push	 ebx
  00005	56		 push	 esi
  00006	8b f1		 mov	 esi, ecx

; 606  :   if (_M_in_output_mode && !_M_constant_width) {

  00008	80 7e 68 00	 cmp	 BYTE PTR [esi+104], 0
  0000c	57		 push	 edi
  0000d	74 57		 je	 SHORT $L104785
  0000f	80 7e 64 00	 cmp	 BYTE PTR [esi+100], 0
  00013	75 51		 jne	 SHORT $L104785
$L104783:

; 607  :     typename _Codecvt::result __status;
; 608  :     do {
; 609  :       char* __enext = _M_ext_buf;

  00015	8b 46 74	 mov	 eax, DWORD PTR [esi+116]

; 610  :       __status = _M_codecvt->unshift(_M_state,
; 611  :                                      _M_ext_buf, _M_ext_buf_EOS, __enext);

  00018	8b 56 78	 mov	 edx, DWORD PTR [esi+120]
  0001b	8b 8e a0 00 00
	00		 mov	 ecx, DWORD PTR [esi+160]
  00021	8d 5d fc	 lea	 ebx, DWORD PTR ___enext$104786[ebp]
  00024	53		 push	 ebx
  00025	52		 push	 edx
  00026	89 45 fc	 mov	 DWORD PTR ___enext$104786[ebp], eax
  00029	8b 39		 mov	 edi, DWORD PTR [ecx]
  0002b	50		 push	 eax
  0002c	8d 86 84 00 00
	00		 lea	 eax, DWORD PTR [esi+132]
  00032	50		 push	 eax
  00033	ff 57 0c	 call	 DWORD PTR [edi+12]
  00036	8b f8		 mov	 edi, eax

; 612  :       if (__status == _Codecvt::noconv ||
; 613  :           (__enext == _M_ext_buf && __status == _Codecvt::ok))

  00038	83 ff 03	 cmp	 edi, 3
  0003b	74 29		 je	 SHORT $L104785
  0003d	8b 45 fc	 mov	 eax, DWORD PTR ___enext$104786[ebp]
  00040	3b 46 74	 cmp	 eax, DWORD PTR [esi+116]
  00043	75 04		 jne	 SHORT $L104787
  00045	85 ff		 test	 edi, edi
  00047	74 1d		 je	 SHORT $L104785
$L104787:

; 614  :         return true;
; 615  :       else if (__status == _Codecvt::error)

  00049	83 ff 02	 cmp	 edi, 2
  0004c	74 1f		 je	 SHORT $L105847

; 616  :         return false;
; 617  :       else if (!_M_write(_M_ext_buf, __enext - _M_ext_buf))

  0004e	8b 4e 74	 mov	 ecx, DWORD PTR [esi+116]
  00051	2b c1		 sub	 eax, ecx
  00053	50		 push	 eax
  00054	51		 push	 ecx
  00055	8d 4e 54	 lea	 ecx, DWORD PTR [esi+84]
  00058	e8 00 00 00 00	 call	 ?_M_write@_Filebuf_base@_STL@@QAE_NPADH@Z ; _STL::_Filebuf_base::_M_write
  0005d	84 c0		 test	 al, al
  0005f	74 0c		 je	 SHORT $L105847

; 619  :     } while(__status == _Codecvt::partial);

  00061	83 ff 01	 cmp	 edi, 1
  00064	74 af		 je	 SHORT $L104783
$L104785:

; 620  :   }
; 621  : 
; 622  :   return true;

  00066	b0 01		 mov	 al, 1
$L104780:
  00068	5f		 pop	 edi
  00069	5e		 pop	 esi
  0006a	5b		 pop	 ebx

; 623  : }

  0006b	c9		 leave
  0006c	c3		 ret	 0
$L105847:

; 618  :         return false;

  0006d	32 c0		 xor	 al, al
  0006f	eb f7		 jmp	 SHORT $L104780
?_M_unshift@?$basic_filebuf@DV?$char_traits@D@_STL@@@_STL@@AAE_NXZ ENDP ; _STL::basic_filebuf<char,_STL::char_traits<char> >::_M_unshift
_TEXT	ENDS
PUBLIC	??$distance@PBD@_STL@@YAHABQBD0@Z		; _STL::distance<char const *>
; Function compile flags: /Ogsy
; File c:\stlport-4.6.1\stlport\stl\_iterator_base.h
;	COMDAT ??$distance@PBD@_STL@@YAHABQBD0@Z
_TEXT	SEGMENT
___first$ = 8						; size = 4
___last$ = 12						; size = 4
??$distance@PBD@_STL@@YAHABQBD0@Z PROC NEAR		; _STL::distance<char const *>, COMDAT

; 369  :   return __distance(__first, __last, _STLP_ITERATOR_CATEGORY(__first, _InputIterator));  

  00000	8b 44 24 08	 mov	 eax, DWORD PTR ___last$[esp-4]
  00004	8b 00		 mov	 eax, DWORD PTR [eax]
  00006	8b 4c 24 04	 mov	 ecx, DWORD PTR ___first$[esp-4]
  0000a	2b 01		 sub	 eax, DWORD PTR [ecx]

; 370  : }

  0000c	c3		 ret	 0
??$distance@PBD@_STL@@YAHABQBD0@Z ENDP			; _STL::distance<char const *>
_TEXT	ENDS
PUBLIC	??$distance@PAD@_STL@@YAHABQAD0@Z		; _STL::distance<char *>
; Function compile flags: /Ogsy
;	COMDAT ??$distance@PAD@_STL@@YAHABQAD0@Z
_TEXT	SEGMENT
___first$ = 8						; size = 4
___last$ = 12						; size = 4
??$distance@PAD@_STL@@YAHABQAD0@Z PROC NEAR		; _STL::distance<char *>, COMDAT

; 369  :   return __distance(__first, __last, _STLP_ITERATOR_CATEGORY(__first, _InputIterator));  

  00000	8b 44 24 08	 mov	 eax, DWORD PTR ___last$[esp-4]
  00004	8b 00		 mov	 eax, DWORD PTR [eax]
  00006	8b 4c 24 04	 mov	 ecx, DWORD PTR ___first$[esp-4]
  0000a	2b 01		 sub	 eax, DWORD PTR [ecx]

; 370  : }

  0000c	c3		 ret	 0
??$distance@PAD@_STL@@YAHABQAD0@Z ENDP			; _STL::distance<char *>
_TEXT	ENDS
PUBLIC	?_M_construct_null@?$basic_string@DV?$char_traits@D@_STL@@V?$allocator@D@2@@_STL@@AAEXPAD@Z ; _STL::basic_string<char,_STL::char_traits<char>,_STL::allocator<char> >::_M_construct_null
; Function compile flags: /Ogsy
; File c:\stlport-4.6.1\stlport\stl\_string.h
;	COMDAT ?_M_construct_null@?$basic_string@DV?$char_traits@D@_STL@@V?$allocator@D@2@@_STL@@AAEXPAD@Z
_TEXT	SEGMENT
___p$ = 8						; size = 4
?_M_construct_null@?$basic_string@DV?$char_traits@D@_STL@@V?$allocator@D@2@@_STL@@AAEXPAD@Z PROC NEAR ; _STL::basic_string<char,_STL::char_traits<char>,_STL::allocator<char> >::_M_construct_null, COMDAT
; _this$ = ecx

; 336  :     _M_construct_null_aux(__p, _Char_Is_Integral());

  00000	8b 44 24 04	 mov	 eax, DWORD PTR ___p$[esp-4]
  00004	c6 00 00	 mov	 BYTE PTR [eax], 0

; 337  :   }

  00007	c2 04 00	 ret	 4
?_M_construct_null@?$basic_string@DV?$char_traits@D@_STL@@V?$allocator@D@2@@_STL@@AAEXPAD@Z ENDP ; _STL::basic_string<char,_STL::char_traits<char>,_STL::allocator<char> >::_M_construct_null
_TEXT	ENDS
PUBLIC	?max_size@?$basic_string@DV?$char_traits@D@_STL@@V?$allocator@D@2@@_STL@@QBEIXZ ; _STL::basic_string<char,_STL::char_traits<char>,_STL::allocator<char> >::max_size
; Function compile flags: /Ogsy
;	COMDAT ?max_size@?$basic_string@DV?$char_traits@D@_STL@@V?$allocator@D@2@@_STL@@QBEIXZ
_TEXT	SEGMENT
?max_size@?$basic_string@DV?$char_traits@D@_STL@@V?$allocator@D@2@@_STL@@QBEIXZ PROC NEAR ; _STL::basic_string<char,_STL::char_traits<char>,_STL::allocator<char> >::max_size, COMDAT
; _this$ = ecx

; 434  :   size_t max_size() const { return _Base::max_size(); }

  00000	6a fe		 push	 -2			; fffffffeH
  00002	58		 pop	 eax
  00003	c3		 ret	 0
?max_size@?$basic_string@DV?$char_traits@D@_STL@@V?$allocator@D@2@@_STL@@QBEIXZ ENDP ; _STL::basic_string<char,_STL::char_traits<char>,_STL::allocator<char> >::max_size
_TEXT	ENDS
PUBLIC	??$__copy_aux@PADPAD@_STL@@YAPADPAD00ABU__true_type@0@@Z ; _STL::__copy_aux<char *,char *>
; Function compile flags: /Ogsy
; File c:\stlport-4.6.1\stlport\stl\_algobase.h
;	COMDAT ??$__copy_aux@PADPAD@_STL@@YAPADPAD00ABU__true_type@0@@Z
_TEXT	SEGMENT
___first$ = 8						; size = 4
___last$ = 12						; size = 4
___result$ = 16						; size = 4
___formal$ = 20						; size = 4
??$__copy_aux@PADPAD@_STL@@YAPADPAD00ABU__true_type@0@@Z PROC NEAR ; _STL::__copy_aux<char *,char *>, COMDAT

; 202  :   return __copy_ptrs(__first, __last, __result, 
; 203  :                      _IsOKToMemCpy(_STLP_VALUE_TYPE(__first, _InputIter), 
; 204  :                                    _STLP_VALUE_TYPE(__result, _OutputIter))._Ret());

  00000	ff 74 24 0c	 push	 DWORD PTR ___result$[esp-4]
  00004	ff 74 24 0c	 push	 DWORD PTR ___last$[esp]
  00008	ff 74 24 0c	 push	 DWORD PTR ___first$[esp+4]
  0000c	e8 00 00 00 00	 call	 ?__copy_trivial@_STL@@YAPAXPBX0PAX@Z ; _STL::__copy_trivial
  00011	83 c4 0c	 add	 esp, 12			; 0000000cH

; 205  : }

  00014	c3		 ret	 0
??$__copy_aux@PADPAD@_STL@@YAPADPAD00ABU__true_type@0@@Z ENDP ; _STL::__copy_aux<char *,char *>
_TEXT	ENDS
PUBLIC	?deallocate@?$allocator@D@_STL@@QAEXPADI@Z	; _STL::allocator<char>::deallocate
; Function compile flags: /Ogsy
; File c:\stlport-4.6.1\stlport\stl\_alloc.h
;	COMDAT ?deallocate@?$allocator@D@_STL@@QAEXPADI@Z
_TEXT	SEGMENT
___p$ = 8						; size = 4
___n$ = 12						; size = 4
?deallocate@?$allocator@D@_STL@@QAEXPADI@Z PROC NEAR	; _STL::allocator<char>::deallocate, COMDAT
; _this$ = ecx

; 359  :     _STLP_ASSERT( (__p == 0) == (__n == 0) )
; 360  :       if (__p != 0) __sgi_alloc::deallocate((void*)__p, __n * sizeof(value_type));

  00000	83 7c 24 04 00	 cmp	 DWORD PTR ___p$[esp-4], 0
  00005	74 0f		 je	 SHORT $L98663
  00007	ff 74 24 08	 push	 DWORD PTR ___n$[esp-4]
  0000b	ff 74 24 08	 push	 DWORD PTR ___p$[esp]
  0000f	e8 00 00 00 00	 call	 ?deallocate@?$__node_alloc@$00$0A@@_STL@@SAXPAXI@Z ; _STL::__node_alloc<1,0>::deallocate
  00014	59		 pop	 ecx
  00015	59		 pop	 ecx
$L98663:

; 361  :   }

  00016	c2 08 00	 ret	 8
?deallocate@?$allocator@D@_STL@@QAEXPADI@Z ENDP		; _STL::allocator<char>::deallocate
_TEXT	ENDS
PUBLIC	??_D?$basic_ostream@DV?$char_traits@D@_STL@@@_STL@@QAEXXZ ; _STL::basic_ostream<char,_STL::char_traits<char> >::`vbase destructor'
; Function compile flags: /Ogsy
;	COMDAT ??_G?$basic_ostream@DV?$char_traits@D@_STL@@@_STL@@UAEPAXI@Z
_TEXT	SEGMENT
___flags$ = 8						; size = 4
??_G?$basic_ostream@DV?$char_traits@D@_STL@@@_STL@@UAEPAXI@Z PROC NEAR ; _STL::basic_ostream<char,_STL::char_traits<char> >::`scalar deleting destructor', COMDAT
; _this$ = ecx
  00000	56		 push	 esi
  00001	8d 71 fc	 lea	 esi, DWORD PTR [ecx-4]
  00004	8b ce		 mov	 ecx, esi
  00006	e8 00 00 00 00	 call	 ??_D?$basic_ostream@DV?$char_traits@D@_STL@@@_STL@@QAEXXZ
  0000b	f6 44 24 08 01	 test	 BYTE PTR ___flags$[esp], 1
  00010	74 07		 je	 SHORT $L99014
  00012	56		 push	 esi
  00013	e8 00 00 00 00	 call	 ??3@YAXPAX@Z		; operator delete
  00018	59		 pop	 ecx
$L99014:
  00019	8b c6		 mov	 eax, esi
  0001b	5e		 pop	 esi
  0001c	c2 04 00	 ret	 4
??_G?$basic_ostream@DV?$char_traits@D@_STL@@@_STL@@UAEPAXI@Z ENDP ; _STL::basic_ostream<char,_STL::char_traits<char> >::`scalar deleting destructor'
; Function compile flags: /Ogsy
_TEXT	ENDS
;	COMDAT ??_D?$basic_ostream@DV?$char_traits@D@_STL@@@_STL@@QAEXXZ
_TEXT	SEGMENT
??_D?$basic_ostream@DV?$char_traits@D@_STL@@@_STL@@QAEXXZ PROC NEAR ; _STL::basic_ostream<char,_STL::char_traits<char> >::`vbase destructor', COMDAT
; _this$ = ecx
  00000	8b 01		 mov	 eax, DWORD PTR [ecx]
  00002	8b 40 04	 mov	 eax, DWORD PTR [eax+4]
  00005	83 c1 04	 add	 ecx, 4
  00008	c7 44 08 fc 00
	00 00 00	 mov	 DWORD PTR [eax+ecx-4], OFFSET FLAT:??_7?$basic_ostream@DV?$char_traits@D@_STL@@@_STL@@6B@
  00010	e9 00 00 00 00	 jmp	 ??1?$basic_ios@DV?$char_traits@D@_STL@@@_STL@@UAE@XZ ; _STL::basic_ios<char,_STL::char_traits<char> >::~basic_ios<char,_STL::char_traits<char> >
??_D?$basic_ostream@DV?$char_traits@D@_STL@@@_STL@@QAEXXZ ENDP ; _STL::basic_ostream<char,_STL::char_traits<char> >::`vbase destructor'
_TEXT	ENDS
PUBLIC	??0?$_String_base@DV?$allocator@D@_STL@@@_STL@@QAE@ABV?$allocator@D@1@@Z ; _STL::_String_base<char,_STL::allocator<char> >::_String_base<char,_STL::allocator<char> >
; Function compile flags: /Ogsy
; File c:\stlport-4.6.1\stlport\stl\_string.h
;	COMDAT ??0?$_String_base@DV?$allocator@D@_STL@@@_STL@@QAE@ABV?$allocator@D@1@@Z
_TEXT	SEGMENT
___a$ = 8						; size = 4
??0?$_String_base@DV?$allocator@D@_STL@@@_STL@@QAE@ABV?$allocator@D@1@@Z PROC NEAR ; _STL::_String_base<char,_STL::allocator<char> >::_String_base<char,_STL::allocator<char> >, COMDAT
; _this$ = ecx

; 129  :     : _M_start(0), _M_finish(0), _M_end_of_storage(__a, (_Tp*)0) {}

  00000	56		 push	 esi
  00001	33 c0		 xor	 eax, eax
  00003	8b f1		 mov	 esi, ecx
  00005	50		 push	 eax
  00006	ff 74 24 0c	 push	 DWORD PTR ___a$[esp+4]
  0000a	8d 4e 08	 lea	 ecx, DWORD PTR [esi+8]
  0000d	89 06		 mov	 DWORD PTR [esi], eax
  0000f	89 46 04	 mov	 DWORD PTR [esi+4], eax
  00012	e8 00 00 00 00	 call	 ??0?$_STLP_alloc_proxy@PADDV?$allocator@D@_STL@@@_STL@@QAE@ABV?$allocator@D@1@PAD@Z ; _STL::_STLP_alloc_proxy<char *,char,_STL::allocator<char> >::_STLP_alloc_proxy<char *,char,_STL::allocator<char> >
  00017	8b c6		 mov	 eax, esi
  00019	5e		 pop	 esi
  0001a	c2 04 00	 ret	 4
??0?$_String_base@DV?$allocator@D@_STL@@@_STL@@QAE@ABV?$allocator@D@1@@Z ENDP ; _STL::_String_base<char,_STL::allocator<char> >::_String_base<char,_STL::allocator<char> >
_TEXT	ENDS
PUBLIC	?setstate@?$basic_ios@DV?$char_traits@D@_STL@@@_STL@@QAEXH@Z ; _STL::basic_ios<char,_STL::char_traits<char> >::setstate
; Function compile flags: /Ogsy
; File c:\stlport-4.6.1\stlport\stl\_ios.h
;	COMDAT ?setstate@?$basic_ios@DV?$char_traits@D@_STL@@@_STL@@QAEXH@Z
_TEXT	SEGMENT
___state$ = 8						; size = 4
?setstate@?$basic_ios@DV?$char_traits@D@_STL@@@_STL@@QAEXH@Z PROC NEAR ; _STL::basic_ios<char,_STL::char_traits<char> >::setstate, COMDAT
; _this$ = ecx

; 94   :   void setstate(iostate __state) { this->clear(rdstate() | __state); }

  00000	8b 41 08	 mov	 eax, DWORD PTR [ecx+8]
  00003	0b 44 24 04	 or	 eax, DWORD PTR ___state$[esp-4]
  00007	50		 push	 eax
  00008	e8 00 00 00 00	 call	 ?clear@?$basic_ios@DV?$char_traits@D@_STL@@@_STL@@QAEXH@Z ; _STL::basic_ios<char,_STL::char_traits<char> >::clear
  0000d	c2 04 00	 ret	 4
?setstate@?$basic_ios@DV?$char_traits@D@_STL@@@_STL@@QAEXH@Z ENDP ; _STL::basic_ios<char,_STL::char_traits<char> >::setstate
_TEXT	ENDS
PUBLIC	??0?$basic_filebuf@DV?$char_traits@D@_STL@@@_STL@@QAE@XZ ; _STL::basic_filebuf<char,_STL::char_traits<char> >::basic_filebuf<char,_STL::char_traits<char> >
PUBLIC	?showmanyc@?$basic_filebuf@DV?$char_traits@D@_STL@@@_STL@@MAEHXZ ; _STL::basic_filebuf<char,_STL::char_traits<char> >::showmanyc
PUBLIC	?underflow@?$basic_filebuf@DV?$char_traits@D@_STL@@@_STL@@MAEHXZ ; _STL::basic_filebuf<char,_STL::char_traits<char> >::underflow
PUBLIC	?pbackfail@?$basic_filebuf@DV?$char_traits@D@_STL@@@_STL@@MAEHH@Z ; _STL::basic_filebuf<char,_STL::char_traits<char> >::pbackfail
PUBLIC	?overflow@?$basic_filebuf@DV?$char_traits@D@_STL@@@_STL@@MAEHH@Z ; _STL::basic_filebuf<char,_STL::char_traits<char> >::overflow
PUBLIC	?setbuf@?$basic_filebuf@DV?$char_traits@D@_STL@@@_STL@@MAEPAV?$basic_streambuf@DV?$char_traits@D@_STL@@@2@PADH@Z ; _STL::basic_filebuf<char,_STL::char_traits<char> >::setbuf
PUBLIC	?seekoff@?$basic_filebuf@DV?$char_traits@D@_STL@@@_STL@@MAE?AV?$fpos@H@2@JHH@Z ; _STL::basic_filebuf<char,_STL::char_traits<char> >::seekoff
PUBLIC	?seekpos@?$basic_filebuf@DV?$char_traits@D@_STL@@@_STL@@MAE?AV?$fpos@H@2@V32@H@Z ; _STL::basic_filebuf<char,_STL::char_traits<char> >::seekpos
PUBLIC	?sync@?$basic_filebuf@DV?$char_traits@D@_STL@@@_STL@@MAEHXZ ; _STL::basic_filebuf<char,_STL::char_traits<char> >::sync
PUBLIC	?imbue@?$basic_filebuf@DV?$char_traits@D@_STL@@@_STL@@MAEXABVlocale@2@@Z ; _STL::basic_filebuf<char,_STL::char_traits<char> >::imbue
PUBLIC	??_7?$basic_filebuf@DV?$char_traits@D@_STL@@@_STL@@6B@ ; _STL::basic_filebuf<char,_STL::char_traits<char> >::`vftable'
PUBLIC	??_G?$basic_filebuf@DV?$char_traits@D@_STL@@@_STL@@UAEPAXI@Z ; _STL::basic_filebuf<char,_STL::char_traits<char> >::`scalar deleting destructor'
PUBLIC	??_R4?$basic_filebuf@DV?$char_traits@D@_STL@@@_STL@@6B@ ; _STL::basic_filebuf<char,_STL::char_traits<char> >::`RTTI Complete Object Locator'
PUBLIC	??_R0?AV?$basic_filebuf@DV?$char_traits@D@_STL@@@_STL@@@8 ; _STL::basic_filebuf<char,_STL::char_traits<char> > `RTTI Type Descriptor'
PUBLIC	??_R3?$basic_filebuf@DV?$char_traits@D@_STL@@@_STL@@8 ; _STL::basic_filebuf<char,_STL::char_traits<char> >::`RTTI Class Hierarchy Descriptor'
PUBLIC	??_R2?$basic_filebuf@DV?$char_traits@D@_STL@@@_STL@@8 ; _STL::basic_filebuf<char,_STL::char_traits<char> >::`RTTI Base Class Array'
PUBLIC	??_R1A@?0A@A@?$basic_filebuf@DV?$char_traits@D@_STL@@@_STL@@8 ; _STL::basic_filebuf<char,_STL::char_traits<char> >::`RTTI Base Class Descriptor at (0,-1,0,0)'
EXTRN	??0_Filebuf_base@_STL@@QAE@XZ:NEAR		; _STL::_Filebuf_base::_Filebuf_base
EXTRN	??1locale@_STL@@QAE@XZ:NEAR			; _STL::locale::~locale
EXTRN	??_E?$basic_filebuf@DV?$char_traits@D@_STL@@@_STL@@UAEPAXI@Z:NEAR ; _STL::basic_filebuf<char,_STL::char_traits<char> >::`vector deleting destructor'
EXTRN	__EH_prolog:NEAR
EXTRN	__except_list:DWORD
EXTRN	___CxxFrameHandler:NEAR
;	COMDAT xdata$x
; File c:\stlport-4.6.1\stlport\stl\_fstream.c
xdata$x	SEGMENT
$T105933 DD	0ffffffffH
	DD	FLAT:$L105924
	DD	00H
	DD	FLAT:$L105925
$T105929 DD	019930520H
	DD	02H
	DD	FLAT:$T105933
	DD	2 DUP(00H)
	DD	2 DUP(00H)
xdata$x	ENDS
;	COMDAT ??_7?$basic_filebuf@DV?$char_traits@D@_STL@@@_STL@@6B@
CONST	SEGMENT
??_7?$basic_filebuf@DV?$char_traits@D@_STL@@@_STL@@6B@ DD FLAT:??_R4?$basic_filebuf@DV?$char_traits@D@_STL@@@_STL@@6B@ ; _STL::basic_filebuf<char,_STL::char_traits<char> >::`vftable'
	DD	FLAT:??_E?$basic_filebuf@DV?$char_traits@D@_STL@@@_STL@@UAEPAXI@Z
	DD	FLAT:?setbuf@?$basic_filebuf@DV?$char_traits@D@_STL@@@_STL@@MAEPAV?$basic_streambuf@DV?$char_traits@D@_STL@@@2@PADH@Z
	DD	FLAT:?seekoff@?$basic_filebuf@DV?$char_traits@D@_STL@@@_STL@@MAE?AV?$fpos@H@2@JHH@Z
	DD	FLAT:?seekpos@?$basic_filebuf@DV?$char_traits@D@_STL@@@_STL@@MAE?AV?$fpos@H@2@V32@H@Z
	DD	FLAT:?sync@?$basic_filebuf@DV?$char_traits@D@_STL@@@_STL@@MAEHXZ
	DD	FLAT:?showmanyc@?$basic_filebuf@DV?$char_traits@D@_STL@@@_STL@@MAEHXZ
	DD	FLAT:?xsgetn@?$basic_streambuf@DV?$char_traits@D@_STL@@@_STL@@MAEHPADH@Z
	DD	FLAT:?underflow@?$basic_filebuf@DV?$char_traits@D@_STL@@@_STL@@MAEHXZ
	DD	FLAT:?uflow@?$basic_streambuf@DV?$char_traits@D@_STL@@@_STL@@MAEHXZ
	DD	FLAT:?pbackfail@?$basic_filebuf@DV?$char_traits@D@_STL@@@_STL@@MAEHH@Z
	DD	FLAT:?xsputn@?$basic_streambuf@DV?$char_traits@D@_STL@@@_STL@@MAEHPBDH@Z
	DD	FLAT:?_M_xsputnc@?$basic_streambuf@DV?$char_traits@D@_STL@@@_STL@@MAEHDH@Z
	DD	FLAT:?overflow@?$basic_filebuf@DV?$char_traits@D@_STL@@@_STL@@MAEHH@Z
	DD	FLAT:?imbue@?$basic_filebuf@DV?$char_traits@D@_STL@@@_STL@@MAEXABVlocale@2@@Z
CONST	ENDS
;	COMDAT ??_R4?$basic_filebuf@DV?$char_traits@D@_STL@@@_STL@@6B@
rdata$r	SEGMENT
??_R4?$basic_filebuf@DV?$char_traits@D@_STL@@@_STL@@6B@ DD 00H ; _STL::basic_filebuf<char,_STL::char_traits<char> >::`RTTI Complete Object Locator'
	DD	00H
	DD	00H
	DD	FLAT:??_R0?AV?$basic_filebuf@DV?$char_traits@D@_STL@@@_STL@@@8
	DD	FLAT:??_R3?$basic_filebuf@DV?$char_traits@D@_STL@@@_STL@@8
rdata$r	ENDS
;	COMDAT ??_R0?AV?$basic_filebuf@DV?$char_traits@D@_STL@@@_STL@@@8
_DATA	SEGMENT
??_R0?AV?$basic_filebuf@DV?$char_traits@D@_STL@@@_STL@@@8 DD FLAT:??_7type_info@@6B@ ; _STL::basic_filebuf<char,_STL::char_traits<char> > `RTTI Type Descriptor'
	DD	00H
	DB	'.?AV?$basic_filebuf@DV?$char_traits@D@_STL@@@_STL@@', 00H
_DATA	ENDS
;	COMDAT ??_R3?$basic_filebuf@DV?$char_traits@D@_STL@@@_STL@@8
rdata$r	SEGMENT
??_R3?$basic_filebuf@DV?$char_traits@D@_STL@@@_STL@@8 DD 00H ; _STL::basic_filebuf<char,_STL::char_traits<char> >::`RTTI Class Hierarchy Descriptor'
	DD	00H
	DD	02H
	DD	FLAT:??_R2?$basic_filebuf@DV?$char_traits@D@_STL@@@_STL@@8
rdata$r	ENDS
;	COMDAT ??_R2?$basic_filebuf@DV?$char_traits@D@_STL@@@_STL@@8
rdata$r	SEGMENT
??_R2?$basic_filebuf@DV?$char_traits@D@_STL@@@_STL@@8 DD FLAT:??_R1A@?0A@A@?$basic_filebuf@DV?$char_traits@D@_STL@@@_STL@@8 ; _STL::basic_filebuf<char,_STL::char_traits<char> >::`RTTI Base Class Array'
	DD	FLAT:??_R1A@?0A@A@?$basic_streambuf@DV?$char_traits@D@_STL@@@_STL@@8
rdata$r	ENDS
;	COMDAT ??_R1A@?0A@A@?$basic_filebuf@DV?$char_traits@D@_STL@@@_STL@@8
rdata$r	SEGMENT
??_R1A@?0A@A@?$basic_filebuf@DV?$char_traits@D@_STL@@@_STL@@8 DD FLAT:??_R0?AV?$basic_filebuf@DV?$char_traits@D@_STL@@@_STL@@@8 ; _STL::basic_filebuf<char,_STL::char_traits<char> >::`RTTI Base Class Descriptor at (0,-1,0,0)'
	DD	01H
	DD	00H
	DD	0ffffffffH
	DD	00H
	DD	00H
; Function compile flags: /Ogsy
rdata$r	ENDS
;	COMDAT ??0?$basic_filebuf@DV?$char_traits@D@_STL@@@_STL@@QAE@XZ
_TEXT	SEGMENT
_this$ = -20						; size = 4
$T105923 = -16						; size = 4
__$EHRec$ = -12						; size = 12
??0?$basic_filebuf@DV?$char_traits@D@_STL@@@_STL@@QAE@XZ PROC NEAR ; _STL::basic_filebuf<char,_STL::char_traits<char> >::basic_filebuf<char,_STL::char_traits<char> >, COMDAT
; _this$ = ecx

; 60   : {

  00000	b8 00 00 00 00	 mov	 eax, __ehhandler$??0?$basic_filebuf@DV?$char_traits@D@_STL@@@_STL@@QAE@XZ
  00005	e8 00 00 00 00	 call	 __EH_prolog
  0000a	51		 push	 ecx
  0000b	51		 push	 ecx
  0000c	53		 push	 ebx
  0000d	56		 push	 esi
  0000e	8b f1		 mov	 esi, ecx
  00010	89 75 ec	 mov	 DWORD PTR _this$[ebp], esi
  00013	e8 00 00 00 00	 call	 ??0?$basic_streambuf@DV?$char_traits@D@_STL@@@_STL@@IAE@XZ ; _STL::basic_streambuf<char,_STL::char_traits<char> >::basic_streambuf<char,_STL::char_traits<char> >
  00018	33 db		 xor	 ebx, ebx
  0001a	8d 4e 54	 lea	 ecx, DWORD PTR [esi+84]
  0001d	89 5d fc	 mov	 DWORD PTR __$EHRec$[ebp+8], ebx
  00020	c7 06 00 00 00
	00		 mov	 DWORD PTR [esi], OFFSET FLAT:??_7?$basic_filebuf@DV?$char_traits@D@_STL@@@_STL@@6B@
  00026	e8 00 00 00 00	 call	 ??0_Filebuf_base@_STL@@QAE@XZ ; _STL::_Filebuf_base::_Filebuf_base
  0002b	33 c0		 xor	 eax, eax
  0002d	40		 inc	 eax

; 61   :   this->_M_setup_codecvt(locale());

  0002e	8d 4d f0	 lea	 ecx, DWORD PTR $T105923[ebp]
  00031	88 5e 64	 mov	 BYTE PTR [esi+100], bl
  00034	88 5e 65	 mov	 BYTE PTR [esi+101], bl
  00037	88 5e 66	 mov	 BYTE PTR [esi+102], bl
  0003a	88 5e 67	 mov	 BYTE PTR [esi+103], bl
  0003d	88 5e 68	 mov	 BYTE PTR [esi+104], bl
  00040	88 5e 69	 mov	 BYTE PTR [esi+105], bl
  00043	88 5e 6a	 mov	 BYTE PTR [esi+106], bl
  00046	89 5e 6c	 mov	 DWORD PTR [esi+108], ebx
  00049	89 5e 70	 mov	 DWORD PTR [esi+112], ebx
  0004c	89 5e 74	 mov	 DWORD PTR [esi+116], ebx
  0004f	89 5e 78	 mov	 DWORD PTR [esi+120], ebx
  00052	89 5e 7c	 mov	 DWORD PTR [esi+124], ebx
  00055	89 9e 80 00 00
	00		 mov	 DWORD PTR [esi+128], ebx
  0005b	89 9e 84 00 00
	00		 mov	 DWORD PTR [esi+132], ebx
  00061	89 9e 88 00 00
	00		 mov	 DWORD PTR [esi+136], ebx
  00067	89 9e 8c 00 00
	00		 mov	 DWORD PTR [esi+140], ebx
  0006d	89 9e 90 00 00
	00		 mov	 DWORD PTR [esi+144], ebx
  00073	89 9e 94 00 00
	00		 mov	 DWORD PTR [esi+148], ebx
  00079	89 9e 98 00 00
	00		 mov	 DWORD PTR [esi+152], ebx
  0007f	89 9e 9c 00 00
	00		 mov	 DWORD PTR [esi+156], ebx
  00085	89 9e a0 00 00
	00		 mov	 DWORD PTR [esi+160], ebx
  0008b	89 86 a4 00 00
	00		 mov	 DWORD PTR [esi+164], eax
  00091	89 86 a8 00 00
	00		 mov	 DWORD PTR [esi+168], eax
  00097	e8 00 00 00 00	 call	 ??0locale@_STL@@QAE@XZ	; _STL::locale::locale
  0009c	50		 push	 eax
  0009d	8b ce		 mov	 ecx, esi
  0009f	c6 45 fc 01	 mov	 BYTE PTR __$EHRec$[ebp+8], 1
  000a3	e8 00 00 00 00	 call	 ?_M_setup_codecvt@?$basic_filebuf@DV?$char_traits@D@_STL@@@_STL@@AAEXABVlocale@2@@Z ; _STL::basic_filebuf<char,_STL::char_traits<char> >::_M_setup_codecvt
  000a8	8d 4d f0	 lea	 ecx, DWORD PTR $T105923[ebp]
  000ab	88 5d fc	 mov	 BYTE PTR __$EHRec$[ebp+8], bl
  000ae	e8 00 00 00 00	 call	 ??1locale@_STL@@QAE@XZ	; _STL::locale::~locale

; 62   : }

  000b3	8b 4d f4	 mov	 ecx, DWORD PTR __$EHRec$[ebp]
  000b6	8b c6		 mov	 eax, esi
  000b8	5e		 pop	 esi
  000b9	5b		 pop	 ebx
  000ba	64 89 0d 00 00
	00 00		 mov	 DWORD PTR fs:__except_list, ecx
  000c1	c9		 leave
  000c2	c3		 ret	 0
_TEXT	ENDS
;	COMDAT text$x
text$x	SEGMENT
$L105924:
  00000	8b 4d ec	 mov	 ecx, DWORD PTR _this$[ebp]
  00003	e9 00 00 00 00	 jmp	 ??1?$basic_streambuf@DV?$char_traits@D@_STL@@@_STL@@UAE@XZ ; _STL::basic_streambuf<char,_STL::char_traits<char> >::~basic_streambuf<char,_STL::char_traits<char> >
$L105925:
  00008	8d 4d f0	 lea	 ecx, DWORD PTR $T105923[ebp]
  0000b	e9 00 00 00 00	 jmp	 ??1locale@_STL@@QAE@XZ	; _STL::locale::~locale
__ehhandler$??0?$basic_filebuf@DV?$char_traits@D@_STL@@@_STL@@QAE@XZ:
  00010	b8 00 00 00 00	 mov	 eax, OFFSET FLAT:$T105929
  00015	e9 00 00 00 00	 jmp	 ___CxxFrameHandler
text$x	ENDS
??0?$basic_filebuf@DV?$char_traits@D@_STL@@@_STL@@QAE@XZ ENDP ; _STL::basic_filebuf<char,_STL::char_traits<char> >::basic_filebuf<char,_STL::char_traits<char> >
EXTRN	?_M_doit@?$_Underflow@DV?$char_traits@D@_STL@@@_STL@@SAHPAV?$basic_filebuf@DV?$char_traits@D@_STL@@@2@@Z:NEAR ; _STL::_Underflow<char,_STL::char_traits<char> >::_M_doit
; Function compile flags: /Ogsy
;	COMDAT ?underflow@?$basic_filebuf@DV?$char_traits@D@_STL@@@_STL@@MAEHXZ
_TEXT	SEGMENT
?underflow@?$basic_filebuf@DV?$char_traits@D@_STL@@@_STL@@MAEHXZ PROC NEAR ; _STL::basic_filebuf<char,_STL::char_traits<char> >::underflow, COMDAT
; _this$ = ecx

; 75   :   return _Underflow<_CharT, _Traits>::_M_doit(this);

  00000	51		 push	 ecx
  00001	e8 00 00 00 00	 call	 ?_M_doit@?$_Underflow@DV?$char_traits@D@_STL@@@_STL@@SAHPAV?$basic_filebuf@DV?$char_traits@D@_STL@@@2@@Z ; _STL::_Underflow<char,_STL::char_traits<char> >::_M_doit
  00006	59		 pop	 ecx

; 76   : }

  00007	c3		 ret	 0
?underflow@?$basic_filebuf@DV?$char_traits@D@_STL@@@_STL@@MAEHXZ ENDP ; _STL::basic_filebuf<char,_STL::char_traits<char> >::underflow
; Function compile flags: /Ogsy
_TEXT	ENDS
;	COMDAT ?pbackfail@?$basic_filebuf@DV?$char_traits@D@_STL@@@_STL@@MAEHH@Z
_TEXT	SEGMENT
___c$ = 8						; size = 4
?pbackfail@?$basic_filebuf@DV?$char_traits@D@_STL@@@_STL@@MAEHH@Z PROC NEAR ; _STL::basic_filebuf<char,_STL::char_traits<char> >::pbackfail, COMDAT
; _this$ = ecx

; 162  :   const int_type __eof = traits_type::eof();
; 163  : 
; 164  :   // If we aren't already in input mode, pushback is impossible.
; 165  :   if (!_M_in_input_mode)
; 166  :     return __eof;

  00000	83 c8 ff	 or	 eax, -1
  00003	80 79 67 00	 cmp	 BYTE PTR [ecx+103], 0
  00007	0f 84 b0 00 00
	00		 je	 $L98761

; 167  : 
; 168  :   // We can use the ordinary get buffer if there's enough space, and
; 169  :   // if it's a buffer that we're allowed to write to.
; 170  :   if (this->gptr() != this->eback() &&
; 171  :       (traits_type::eq_int_type(__c, __eof) ||
; 172  :        traits_type::eq(traits_type::to_char_type(__c), this->gptr()[-1]) ||
; 173  :        !_M_mmap_base)) {

  0000d	8b 51 04	 mov	 edx, DWORD PTR [ecx+4]
  00010	53		 push	 ebx
  00011	8b 5c 24 08	 mov	 ebx, DWORD PTR ___c$[esp]
  00015	56		 push	 esi
  00016	8b 32		 mov	 esi, DWORD PTR [edx]
  00018	57		 push	 edi
  00019	8b 7a 08	 mov	 edi, DWORD PTR [edx+8]
  0001c	3b f7		 cmp	 esi, edi
  0001e	74 2e		 je	 SHORT $L98765
  00020	3b d8		 cmp	 ebx, eax
  00022	74 0e		 je	 SHORT $L98766
  00024	3a 5e ff	 cmp	 bl, BYTE PTR [esi-1]
  00027	74 09		 je	 SHORT $L98766
  00029	83 b9 8c 00 00
	00 00		 cmp	 DWORD PTR [ecx+140], 0
  00030	75 1c		 jne	 SHORT $L98765
$L98766:

; 174  :     this->gbump(-1);

  00032	ff 0a		 dec	 DWORD PTR [edx]
  00034	ff 42 04	 inc	 DWORD PTR [edx+4]

; 175  :     if (traits_type::eq_int_type(__c, __eof) ||
; 176  :         traits_type::eq(traits_type::to_char_type(__c), *this->gptr()))

  00037	3b d8		 cmp	 ebx, eax
  00039	74 09		 je	 SHORT $L98769
  0003b	8b 41 04	 mov	 eax, DWORD PTR [ecx+4]
  0003e	8b 00		 mov	 eax, DWORD PTR [eax]
  00040	3a 18		 cmp	 bl, BYTE PTR [eax]
  00042	75 6d		 jne	 SHORT $L98777
$L98769:

; 177  :       return traits_type::to_int_type(*this->gptr());

  00044	8b 41 04	 mov	 eax, DWORD PTR [ecx+4]
  00047	8b 00		 mov	 eax, DWORD PTR [eax]
  00049	0f b6 00	 movzx	 eax, BYTE PTR [eax]
  0004c	eb 6c		 jmp	 SHORT $L106119
$L98765:

; 178  :   }
; 179  :   else if (!traits_type::eq_int_type(__c, __eof)) {

  0004e	3b d8		 cmp	 ebx, eax
  00050	74 68		 je	 SHORT $L106119

; 180  :     // Are we in the putback buffer already?
; 181  :     _CharT* __pback_end = _M_pback_buf + __STATIC_CAST(int,_S_pback_buf_size);
; 182  :     if (_M_in_putback_mode) {

  00052	80 79 6a 00	 cmp	 BYTE PTR [ecx+106], 0
  00056	8d b1 b4 00 00
	00		 lea	 esi, DWORD PTR [ecx+180]
  0005c	74 29		 je	 SHORT $L98774

; 183  :       // Do we have more room in the putback buffer?
; 184  :       if (this->eback() != _M_pback_buf) 

  0005e	8d 99 ac 00 00
	00		 lea	 ebx, DWORD PTR [ecx+172]
  00064	3b fb		 cmp	 edi, ebx
  00066	74 52		 je	 SHORT $L106119

; 185  :         this->setg(this->egptr() - 1, this->egptr() - 1, __pback_end);

  00068	8b 42 04	 mov	 eax, DWORD PTR [edx+4]
  0006b	8b 3a		 mov	 edi, DWORD PTR [edx]
  0006d	8b 1a		 mov	 ebx, DWORD PTR [edx]
  0006f	8d 7c 38 ff	 lea	 edi, DWORD PTR [eax+edi-1]
  00073	8d 44 18 ff	 lea	 eax, DWORD PTR [eax+ebx-1]

; 186  :       else
; 187  :         return __eof;           // No more room in the buffer, so fail.
; 188  :     }
; 189  :     else {                      // We're not yet in the putback buffer.

  00077	8b 5c 24 10	 mov	 ebx, DWORD PTR ___c$[esp+8]
  0007b	2b f7		 sub	 esi, edi
  0007d	89 42 08	 mov	 DWORD PTR [edx+8], eax
  00080	89 3a		 mov	 DWORD PTR [edx], edi
  00082	89 72 04	 mov	 DWORD PTR [edx+4], esi
  00085	eb 2a		 jmp	 SHORT $L98777
$L98774:

; 190  :       _M_saved_eback = this->eback();

  00087	89 b9 94 00 00
	00		 mov	 DWORD PTR [ecx+148], edi

; 191  :       _M_saved_gptr  = this->gptr();

  0008d	8b 02		 mov	 eax, DWORD PTR [edx]
  0008f	89 81 98 00 00
	00		 mov	 DWORD PTR [ecx+152], eax

; 192  :       _M_saved_egptr = this->egptr();

  00095	8b 42 04	 mov	 eax, DWORD PTR [edx+4]
  00098	03 02		 add	 eax, DWORD PTR [edx]

; 193  :       this->setg(__pback_end - 1, __pback_end - 1, __pback_end);

  0009a	8d 7e ff	 lea	 edi, DWORD PTR [esi-1]
  0009d	89 81 9c 00 00
	00		 mov	 DWORD PTR [ecx+156], eax
  000a3	2b f7		 sub	 esi, edi
  000a5	89 7a 08	 mov	 DWORD PTR [edx+8], edi
  000a8	89 3a		 mov	 DWORD PTR [edx], edi
  000aa	89 72 04	 mov	 DWORD PTR [edx+4], esi

; 194  :       _M_in_putback_mode = true;

  000ad	c6 41 6a 01	 mov	 BYTE PTR [ecx+106], 1
$L98777:

; 195  :     }
; 196  :   }
; 197  :   else
; 198  :     return __eof;
; 199  : 
; 200  :   // We have made a putback position available.  Assign to it, and return.
; 201  :   *this->gptr() = traits_type::to_char_type(__c);

  000b1	8b 41 04	 mov	 eax, DWORD PTR [ecx+4]
  000b4	8b 00		 mov	 eax, DWORD PTR [eax]
  000b6	88 18		 mov	 BYTE PTR [eax], bl

; 202  :   return __c;

  000b8	8b c3		 mov	 eax, ebx
$L106119:
  000ba	5f		 pop	 edi
  000bb	5e		 pop	 esi
  000bc	5b		 pop	 ebx
$L98761:

; 203  : }

  000bd	c2 04 00	 ret	 4
?pbackfail@?$basic_filebuf@DV?$char_traits@D@_STL@@@_STL@@MAEHH@Z ENDP ; _STL::basic_filebuf<char,_STL::char_traits<char> >::pbackfail
; Function compile flags: /Ogsy
_TEXT	ENDS
;	COMDAT ?sync@?$basic_filebuf@DV?$char_traits@D@_STL@@@_STL@@MAEHXZ
_TEXT	SEGMENT
?sync@?$basic_filebuf@DV?$char_traits@D@_STL@@@_STL@@MAEHXZ PROC NEAR ; _STL::basic_filebuf<char,_STL::char_traits<char> >::sync, COMDAT
; _this$ = ecx

; 414  :   if (_M_in_output_mode)

  00000	80 79 68 00	 cmp	 BYTE PTR [ecx+104], 0
  00004	74 13		 je	 SHORT $L98951

; 415  :     return traits_type::eq_int_type(this->overflow(traits_type::eof()),
; 416  :                                     traits_type::eof())
; 417  :       ? -1
; 418  :       : 0;

  00006	8b 01		 mov	 eax, DWORD PTR [ecx]
  00008	6a ff		 push	 -1
  0000a	ff 50 30	 call	 DWORD PTR [eax+48]
  0000d	33 c9		 xor	 ecx, ecx
  0000f	83 f8 ff	 cmp	 eax, -1
  00012	0f 95 c1	 setne	 cl
  00015	49		 dec	 ecx
  00016	8b c1		 mov	 eax, ecx

; 421  : }

  00018	c3		 ret	 0
$L98951:

; 419  :   else
; 420  :     return 0;

  00019	33 c0		 xor	 eax, eax

; 421  : }

  0001b	c3		 ret	 0
?sync@?$basic_filebuf@DV?$char_traits@D@_STL@@@_STL@@MAEHXZ ENDP ; _STL::basic_filebuf<char,_STL::char_traits<char> >::sync
_TEXT	ENDS
EXTRN	?_M_seek@_Filebuf_base@_STL@@QAEJJH@Z:NEAR	; _STL::_Filebuf_base::_M_seek
EXTRN	?_M_file_size@_Filebuf_base@_STL@@QAEJXZ:NEAR	; _STL::_Filebuf_base::_M_file_size
; Function compile flags: /Ogsy
;	COMDAT ?showmanyc@?$basic_filebuf@DV?$char_traits@D@_STL@@@_STL@@MAEHXZ
_TEXT	SEGMENT
?showmanyc@?$basic_filebuf@DV?$char_traits@D@_STL@@@_STL@@MAEHXZ PROC NEAR ; _STL::basic_filebuf<char,_STL::char_traits<char> >::showmanyc, COMDAT
; _this$ = ecx

; 132  : {

  00000	53		 push	 ebx

; 133  :   // Is there any possibility that reads can succeed?
; 134  :   if (!this->is_open() || _M_in_output_mode || _M_in_error_mode)

  00001	33 db		 xor	 ebx, ebx
  00003	38 59 60	 cmp	 BYTE PTR [ecx+96], bl
  00006	74 4a		 je	 SHORT $L98743
  00008	38 59 68	 cmp	 BYTE PTR [ecx+104], bl
  0000b	75 45		 jne	 SHORT $L98743
  0000d	38 59 69	 cmp	 BYTE PTR [ecx+105], bl
  00010	75 40		 jne	 SHORT $L98743

; 136  : 
; 137  :   else if (_M_in_putback_mode)

  00012	38 59 6a	 cmp	 BYTE PTR [ecx+106], bl
  00015	74 08		 je	 SHORT $L98745

; 138  :     return this->egptr() - this->gptr();

  00017	8b 49 04	 mov	 ecx, DWORD PTR [ecx+4]
  0001a	8b 41 04	 mov	 eax, DWORD PTR [ecx+4]
  0001d	5b		 pop	 ebx

; 148  : }

  0001e	c3		 ret	 0
$L98745:

; 139  : 
; 140  :   else if (_M_constant_width) {

  0001f	38 59 64	 cmp	 BYTE PTR [ecx+100], bl
  00022	74 2a		 je	 SHORT $L98747
  00024	56		 push	 esi
  00025	57		 push	 edi

; 141  :     streamoff __pos  = _M_base._M_seek(0, ios_base::cur);

  00026	8d 71 54	 lea	 esi, DWORD PTR [ecx+84]
  00029	6a 02		 push	 2
  0002b	53		 push	 ebx
  0002c	8b ce		 mov	 ecx, esi
  0002e	e8 00 00 00 00	 call	 ?_M_seek@_Filebuf_base@_STL@@QAEJJH@Z ; _STL::_Filebuf_base::_M_seek

; 142  :     streamoff __size = _M_base._M_file_size();

  00033	8b ce		 mov	 ecx, esi
  00035	8b f8		 mov	 edi, eax
  00037	e8 00 00 00 00	 call	 ?_M_file_size@_Filebuf_base@_STL@@QAEJXZ ; _STL::_Filebuf_base::_M_file_size

; 143  :     return __pos >= 0 && __size > __pos ? __size - __pos : 0;

  0003c	3b fb		 cmp	 edi, ebx
  0003e	7c 08		 jl	 SHORT $L106139
  00040	3b c7		 cmp	 eax, edi
  00042	7e 04		 jle	 SHORT $L106139
  00044	2b c7		 sub	 eax, edi
  00046	eb 02		 jmp	 SHORT $L106140
$L106139:
  00048	33 c0		 xor	 eax, eax
$L106140:
  0004a	5f		 pop	 edi
  0004b	5e		 pop	 esi
  0004c	5b		 pop	 ebx

; 148  : }

  0004d	c3		 ret	 0
$L98747:

; 144  :   }
; 145  : 
; 146  :   else 
; 147  :     return 0;

  0004e	33 c0		 xor	 eax, eax
  00050	5b		 pop	 ebx

; 148  : }

  00051	c3		 ret	 0
$L98743:

; 135  :     return -1;

  00052	83 c8 ff	 or	 eax, -1
  00055	5b		 pop	 ebx

; 148  : }

  00056	c3		 ret	 0
?showmanyc@?$basic_filebuf@DV?$char_traits@D@_STL@@@_STL@@MAEHXZ ENDP ; _STL::basic_filebuf<char,_STL::char_traits<char> >::showmanyc
_TEXT	ENDS
PUBLIC	?_M_allocate_buffers@?$basic_filebuf@DV?$char_traits@D@_STL@@@_STL@@AAE_NPADH@Z ; _STL::basic_filebuf<char,_STL::char_traits<char> >::_M_allocate_buffers
; Function compile flags: /Ogsy
;	COMDAT ?setbuf@?$basic_filebuf@DV?$char_traits@D@_STL@@@_STL@@MAEPAV?$basic_streambuf@DV?$char_traits@D@_STL@@@2@PADH@Z
_TEXT	SEGMENT
___buf$ = 8						; size = 4
___n$ = 12						; size = 4
?setbuf@?$basic_filebuf@DV?$char_traits@D@_STL@@@_STL@@MAEPAV?$basic_streambuf@DV?$char_traits@D@_STL@@@2@PADH@Z PROC NEAR ; _STL::basic_filebuf<char,_STL::char_traits<char> >::setbuf, COMDAT
; _this$ = ecx

; 273  : {

  00000	55		 push	 ebp
  00001	8b ec		 mov	 ebp, esp
  00003	56		 push	 esi
  00004	8b f1		 mov	 esi, ecx

; 274  :   if (!_M_in_input_mode &&! _M_in_output_mode && !_M_in_error_mode &&
; 275  :       _M_int_buf == 0) {

  00006	33 c0		 xor	 eax, eax
  00008	38 46 67	 cmp	 BYTE PTR [esi+103], al
  0000b	75 30		 jne	 SHORT $L98816
  0000d	38 46 68	 cmp	 BYTE PTR [esi+104], al
  00010	75 2b		 jne	 SHORT $L98816
  00012	38 46 69	 cmp	 BYTE PTR [esi+105], al
  00015	75 26		 jne	 SHORT $L98816
  00017	39 46 6c	 cmp	 DWORD PTR [esi+108], eax
  0001a	75 21		 jne	 SHORT $L98816

; 276  :     if (__buf == 0 && __n == 0)

  0001c	39 45 08	 cmp	 DWORD PTR ___buf$[ebp], eax
  0001f	75 0a		 jne	 SHORT $L106171
  00021	39 45 0c	 cmp	 DWORD PTR ___n$[ebp], eax
  00024	75 17		 jne	 SHORT $L98816

; 277  :       _M_allocate_buffers(0, 1);

  00026	6a 01		 push	 1
  00028	50		 push	 eax

; 278  :     else if (__buf != 0 && __n > 0)

  00029	eb 0b		 jmp	 SHORT $L106172
$L106171:
  0002b	39 45 0c	 cmp	 DWORD PTR ___n$[ebp], eax
  0002e	7e 0d		 jle	 SHORT $L98816

; 279  :       _M_allocate_buffers(__buf, __n);

  00030	ff 75 0c	 push	 DWORD PTR ___n$[ebp]
  00033	ff 75 08	 push	 DWORD PTR ___buf$[ebp]
$L106172:
  00036	8b ce		 mov	 ecx, esi
  00038	e8 00 00 00 00	 call	 ?_M_allocate_buffers@?$basic_filebuf@DV?$char_traits@D@_STL@@@_STL@@AAE_NPADH@Z ; _STL::basic_filebuf<char,_STL::char_traits<char> >::_M_allocate_buffers
$L98816:

; 280  :   }
; 281  :   return this;

  0003d	8b c6		 mov	 eax, esi
  0003f	5e		 pop	 esi

; 282  : }

  00040	5d		 pop	 ebp
  00041	c2 08 00	 ret	 8
?setbuf@?$basic_filebuf@DV?$char_traits@D@_STL@@@_STL@@MAEPAV?$basic_streambuf@DV?$char_traits@D@_STL@@@2@PADH@Z ENDP ; _STL::basic_filebuf<char,_STL::char_traits<char> >::setbuf
_TEXT	ENDS
EXTRN	_malloc:NEAR
; Function compile flags: /Ogsy
;	COMDAT ?_M_allocate_buffers@?$basic_filebuf@DV?$char_traits@D@_STL@@@_STL@@AAE_NPADH@Z
_TEXT	SEGMENT
$T106178 = -8						; size = 4
$T106176 = -8						; size = 4
$T106177 = -4						; size = 4
$T106175 = 8						; size = 4
___buf$ = 8						; size = 4
___n$ = 12						; size = 4
?_M_allocate_buffers@?$basic_filebuf@DV?$char_traits@D@_STL@@@_STL@@AAE_NPADH@Z PROC NEAR ; _STL::basic_filebuf<char,_STL::char_traits<char> >::_M_allocate_buffers, COMDAT
; _this$ = ecx

; 644  : {

  00000	55		 push	 ebp
  00001	8b ec		 mov	 ebp, esp
  00003	51		 push	 ecx
  00004	51		 push	 ecx

; 645  : 
; 646  :   if (__buf == 0) {

  00005	8b 45 08	 mov	 eax, DWORD PTR ___buf$[ebp]
  00008	85 c0		 test	 eax, eax
  0000a	56		 push	 esi
  0000b	8b f1		 mov	 esi, ecx
  0000d	75 1a		 jne	 SHORT $L104579

; 647  :     _M_int_buf = __STATIC_CAST(_CharT*,malloc(__n * sizeof(_CharT)));

  0000f	ff 75 0c	 push	 DWORD PTR ___n$[ebp]
  00012	e8 00 00 00 00	 call	 _malloc

; 648  :     if (! _M_int_buf)

  00017	85 c0		 test	 eax, eax
  00019	59		 pop	 ecx
  0001a	89 46 6c	 mov	 DWORD PTR [esi+108], eax
  0001d	75 04		 jne	 SHORT $L104582

; 649  :       return false;

  0001f	32 c0		 xor	 al, al
  00021	eb 7a		 jmp	 SHORT $L104578
$L104582:

; 650  :     _M_int_buf_dynamic = true;

  00023	c6 46 66 01	 mov	 BYTE PTR [esi+102], 1

; 651  :   }
; 652  :   else {

  00027	eb 07		 jmp	 SHORT $L104583
$L104579:

; 653  :     _M_int_buf = __buf;

  00029	89 46 6c	 mov	 DWORD PTR [esi+108], eax

; 654  :     _M_int_buf_dynamic = false;

  0002c	c6 46 66 00	 mov	 BYTE PTR [esi+102], 0
$L104583:
  00030	57		 push	 edi

; 655  :   }
; 656  :   
; 657  :   size_t __ebufsiz = (max)(__n * (max)(_M_codecvt->encoding(), 1),
; 658  :                       streamsize(_M_codecvt->max_length()));

  00031	8d be a0 00 00
	00		 lea	 edi, DWORD PTR [esi+160]
  00037	8b 0f		 mov	 ecx, DWORD PTR [edi]
  00039	8b 01		 mov	 eax, DWORD PTR [ecx]
  0003b	ff 50 1c	 call	 DWORD PTR [eax+28]
  0003e	8b 0f		 mov	 ecx, DWORD PTR [edi]
  00040	89 45 08	 mov	 DWORD PTR $T106175[ebp], eax
  00043	8b 01		 mov	 eax, DWORD PTR [ecx]
  00045	c7 45 fc 01 00
	00 00		 mov	 DWORD PTR $T106177[ebp], 1
  0004c	ff 50 10	 call	 DWORD PTR [eax+16]
  0004f	89 45 f8	 mov	 DWORD PTR $T106178[ebp], eax
  00052	83 f8 01	 cmp	 eax, 1
  00055	8d 45 fc	 lea	 eax, DWORD PTR $T106177[ebp]
  00058	7c 03		 jl	 SHORT $L106195
  0005a	8d 45 f8	 lea	 eax, DWORD PTR $T106178[ebp]
$L106195:
  0005d	8b 00		 mov	 eax, DWORD PTR [eax]
  0005f	0f af 45 0c	 imul	 eax, DWORD PTR ___n$[ebp]
  00063	3b 45 08	 cmp	 eax, DWORD PTR $T106175[ebp]
  00066	89 45 f8	 mov	 DWORD PTR $T106176[ebp], eax
  00069	8d 45 08	 lea	 eax, DWORD PTR $T106175[ebp]
  0006c	7c 03		 jl	 SHORT $L106204
  0006e	8d 45 f8	 lea	 eax, DWORD PTR $T106176[ebp]
$L106204:
  00071	8b 38		 mov	 edi, DWORD PTR [eax]

; 659  : 
; 660  :   _M_ext_buf = __STATIC_CAST(char*,malloc(__ebufsiz));

  00073	57		 push	 edi
  00074	e8 00 00 00 00	 call	 _malloc

; 661  :   if (!_M_ext_buf) {

  00079	85 c0		 test	 eax, eax
  0007b	59		 pop	 ecx
  0007c	89 46 74	 mov	 DWORD PTR [esi+116], eax
  0007f	75 0b		 jne	 SHORT $L104595

; 662  :     _M_deallocate_buffers();

  00081	8b ce		 mov	 ecx, esi
  00083	e8 00 00 00 00	 call	 ?_M_deallocate_buffers@?$basic_filebuf@DV?$char_traits@D@_STL@@@_STL@@AAEXXZ ; _STL::basic_filebuf<char,_STL::char_traits<char> >::_M_deallocate_buffers

; 663  :     return false;

  00088	32 c0		 xor	 al, al
  0008a	eb 10		 jmp	 SHORT $L106205
$L104595:

; 664  :   }
; 665  : 
; 666  :   _M_int_buf_EOS = _M_int_buf + __n;

  0008c	8b 4e 6c	 mov	 ecx, DWORD PTR [esi+108]
  0008f	03 4d 0c	 add	 ecx, DWORD PTR ___n$[ebp]

; 667  :   _M_ext_buf_EOS = _M_ext_buf + __ebufsiz;

  00092	03 c7		 add	 eax, edi
  00094	89 46 78	 mov	 DWORD PTR [esi+120], eax
  00097	89 4e 70	 mov	 DWORD PTR [esi+112], ecx

; 668  :   return true;

  0009a	b0 01		 mov	 al, 1
$L106205:
  0009c	5f		 pop	 edi
$L104578:
  0009d	5e		 pop	 esi

; 669  : }

  0009e	c9		 leave
  0009f	c2 08 00	 ret	 8
?_M_allocate_buffers@?$basic_filebuf@DV?$char_traits@D@_STL@@@_STL@@AAE_NPADH@Z ENDP ; _STL::basic_filebuf<char,_STL::char_traits<char> >::_M_allocate_buffers
; Function compile flags: /Ogsy
_TEXT	ENDS
;	COMDAT ?imbue@?$basic_filebuf@DV?$char_traits@D@_STL@@@_STL@@MAEXABVlocale@2@@Z
_TEXT	SEGMENT
___loc$ = 8						; size = 4
?imbue@?$basic_filebuf@DV?$char_traits@D@_STL@@@_STL@@MAEXABVlocale@2@@Z PROC NEAR ; _STL::basic_filebuf<char,_STL::char_traits<char> >::imbue, COMDAT
; _this$ = ecx

; 429  :   if (!_M_in_input_mode &&! _M_in_output_mode && !_M_in_error_mode) {

  00000	32 c0		 xor	 al, al
  00002	38 41 67	 cmp	 BYTE PTR [ecx+103], al
  00005	75 0f		 jne	 SHORT $L98961
  00007	38 41 68	 cmp	 BYTE PTR [ecx+104], al
  0000a	75 0a		 jne	 SHORT $L98961
  0000c	38 41 69	 cmp	 BYTE PTR [ecx+105], al
  0000f	75 05		 jne	 SHORT $L98961

; 430  :     this->_M_setup_codecvt(__loc);

  00011	e9 00 00 00 00	 jmp	 ?_M_setup_codecvt@?$basic_filebuf@DV?$char_traits@D@_STL@@@_STL@@AAEXABVlocale@2@@Z ; _STL::basic_filebuf<char,_STL::char_traits<char> >::_M_setup_codecvt
$L98961:

; 431  :   }
; 432  : }

  00016	c2 04 00	 ret	 4
?imbue@?$basic_filebuf@DV?$char_traits@D@_STL@@@_STL@@MAEXABVlocale@2@@Z ENDP ; _STL::basic_filebuf<char,_STL::char_traits<char> >::imbue
_TEXT	ENDS
PUBLIC	?close@?$basic_filebuf@DV?$char_traits@D@_STL@@@_STL@@QAEPAV12@XZ ; _STL::basic_filebuf<char,_STL::char_traits<char> >::close
EXTRN	?_M_close@_Filebuf_base@_STL@@QAE_NXZ:NEAR	; _STL::_Filebuf_base::_M_close
; Function compile flags: /Ogsy
;	COMDAT ?close@?$basic_filebuf@DV?$char_traits@D@_STL@@@_STL@@QAEPAV12@XZ
_TEXT	SEGMENT
___ok$ = -1						; size = 1
?close@?$basic_filebuf@DV?$char_traits@D@_STL@@@_STL@@QAEPAV12@XZ PROC NEAR ; _STL::basic_filebuf<char,_STL::char_traits<char> >::close, COMDAT
; _this$ = ecx

; 81   : {

  00000	55		 push	 ebp
  00001	8b ec		 mov	 ebp, esp
  00003	51		 push	 ecx
  00004	53		 push	 ebx
  00005	56		 push	 esi
  00006	8b f1		 mov	 esi, ecx

; 82   :   bool __ok = this->is_open();

  00008	33 db		 xor	 ebx, ebx
  0000a	38 5e 60	 cmp	 BYTE PTR [esi+96], bl
  0000d	0f 95 45 ff	 setne	 BYTE PTR ___ok$[ebp]

; 83   : 
; 84   :   if (_M_in_output_mode) {

  00011	38 5e 68	 cmp	 BYTE PTR [esi+104], bl
  00014	74 21		 je	 SHORT $L104546

; 85   :     __ok = __ok && !_Traits::eq_int_type(this->overflow(traits_type::eof()),
; 86   :                                          traits_type::eof());

  00016	38 5d ff	 cmp	 BYTE PTR ___ok$[ebp], bl
  00019	74 10		 je	 SHORT $L106213
  0001b	8b 06		 mov	 eax, DWORD PTR [esi]
  0001d	6a ff		 push	 -1
  0001f	ff 50 30	 call	 DWORD PTR [eax+48]
  00022	83 f8 ff	 cmp	 eax, -1
  00025	c6 45 ff 01	 mov	 BYTE PTR ___ok$[ebp], 1
  00029	75 03		 jne	 SHORT $L106214
$L106213:
  0002b	88 5d ff	 mov	 BYTE PTR ___ok$[ebp], bl
$L106214:

; 87   :     __ok == __ok && this->_M_unshift();

  0002e	8b ce		 mov	 ecx, esi
  00030	e8 00 00 00 00	 call	 ?_M_unshift@?$basic_filebuf@DV?$char_traits@D@_STL@@@_STL@@AAE_NXZ ; _STL::basic_filebuf<char,_STL::char_traits<char> >::_M_unshift

; 88   :   }
; 89   :   else if (_M_in_input_mode)

  00035	eb 0c		 jmp	 SHORT $L104550
$L104546:
  00037	38 5e 67	 cmp	 BYTE PTR [esi+103], bl
  0003a	74 07		 je	 SHORT $L104550

; 90   :       this->_M_exit_input_mode();

  0003c	8b ce		 mov	 ecx, esi
  0003e	e8 00 00 00 00	 call	 ?_M_exit_input_mode@?$basic_filebuf@DV?$char_traits@D@_STL@@@_STL@@AAEXXZ ; _STL::basic_filebuf<char,_STL::char_traits<char> >::_M_exit_input_mode
$L104550:

; 91   : 
; 92   :   // Note order of arguments.  We close the file even if __ok is false.
; 93   :   __ok = _M_base._M_close() && __ok;

  00043	8d 4e 54	 lea	 ecx, DWORD PTR [esi+84]
  00046	e8 00 00 00 00	 call	 ?_M_close@_Filebuf_base@_STL@@QAE_NXZ ; _STL::_Filebuf_base::_M_close
  0004b	84 c0		 test	 al, al
  0004d	74 09		 je	 SHORT $L106216
  0004f	38 5d ff	 cmp	 BYTE PTR ___ok$[ebp], bl
  00052	74 04		 je	 SHORT $L106216
  00054	b0 01		 mov	 al, 1
  00056	eb 02		 jmp	 SHORT $L106217
$L106216:
  00058	32 c0		 xor	 al, al
$L106217:

; 94   : 
; 95   :   // Restore the initial state, except that we don't deallocate the buffer
; 96   :   // or mess with the cached codecvt information.
; 97   :   _M_state = _M_end_state = _State_type();
; 98   :   _M_ext_buf_converted = _M_ext_buf_end = 0;
; 99   : 
; 100  :   _M_mmap_base = 0;
; 101  :   _M_mmap_len = 0;
; 102  : 
; 103  :   this->setg(0, 0, 0);

  0005a	8b 4e 04	 mov	 ecx, DWORD PTR [esi+4]
  0005d	89 9e 88 00 00
	00		 mov	 DWORD PTR [esi+136], ebx
  00063	89 9e 84 00 00
	00		 mov	 DWORD PTR [esi+132], ebx
  00069	89 9e 80 00 00
	00		 mov	 DWORD PTR [esi+128], ebx
  0006f	89 5e 7c	 mov	 DWORD PTR [esi+124], ebx
  00072	89 9e 8c 00 00
	00		 mov	 DWORD PTR [esi+140], ebx
  00078	89 9e 90 00 00
	00		 mov	 DWORD PTR [esi+144], ebx
  0007e	89 59 08	 mov	 DWORD PTR [ecx+8], ebx
  00081	89 19		 mov	 DWORD PTR [ecx], ebx
  00083	89 59 04	 mov	 DWORD PTR [ecx+4], ebx

; 104  :   this->setp(0, 0);

  00086	8b 4e 08	 mov	 ecx, DWORD PTR [esi+8]

; 105  : 
; 106  :   _M_saved_eback = _M_saved_gptr = _M_saved_egptr = 0;
; 107  : 
; 108  :   _M_in_input_mode = _M_in_output_mode = _M_in_error_mode = _M_in_putback_mode
; 109  :     = false;
; 110  : 
; 111  :   return __ok ? this : 0;

  00089	f6 d8		 neg	 al
  0008b	89 59 08	 mov	 DWORD PTR [ecx+8], ebx
  0008e	89 19		 mov	 DWORD PTR [ecx], ebx
  00090	89 59 04	 mov	 DWORD PTR [ecx+4], ebx
  00093	89 9e 9c 00 00
	00		 mov	 DWORD PTR [esi+156], ebx
  00099	89 9e 98 00 00
	00		 mov	 DWORD PTR [esi+152], ebx
  0009f	89 9e 94 00 00
	00		 mov	 DWORD PTR [esi+148], ebx
  000a5	1b c0		 sbb	 eax, eax
  000a7	88 5e 6a	 mov	 BYTE PTR [esi+106], bl
  000aa	88 5e 69	 mov	 BYTE PTR [esi+105], bl
  000ad	88 5e 68	 mov	 BYTE PTR [esi+104], bl
  000b0	88 5e 67	 mov	 BYTE PTR [esi+103], bl
  000b3	23 c6		 and	 eax, esi
  000b5	5e		 pop	 esi
  000b6	5b		 pop	 ebx

; 112  : }

  000b7	c9		 leave
  000b8	c3		 ret	 0
?close@?$basic_filebuf@DV?$char_traits@D@_STL@@@_STL@@QAEPAV12@XZ ENDP ; _STL::basic_filebuf<char,_STL::char_traits<char> >::close
_TEXT	ENDS
PUBLIC	?flush@?$basic_ostream@DV?$char_traits@D@_STL@@@_STL@@QAEAAV12@XZ ; _STL::basic_ostream<char,_STL::char_traits<char> >::flush
; Function compile flags: /Ogsy
; File c:\stlport-4.6.1\stlport\stl\_ostream.h
;	COMDAT ?flush@?$basic_ostream@DV?$char_traits@D@_STL@@@_STL@@QAEAAV12@XZ
_TEXT	SEGMENT
?flush@?$basic_ostream@DV?$char_traits@D@_STL@@@_STL@@QAEAAV12@XZ PROC NEAR ; _STL::basic_ostream<char,_STL::char_traits<char> >::flush, COMDAT
; _this$ = ecx

; 120  :   _Self& flush() {

  00000	56		 push	 esi
  00001	8b f1		 mov	 esi, ecx

; 121  :     if (this->rdbuf())

  00003	8b 06		 mov	 eax, DWORD PTR [esi]
  00005	8b 40 04	 mov	 eax, DWORD PTR [eax+4]
  00008	8b 4c 30 58	 mov	 ecx, DWORD PTR [eax+esi+88]
  0000c	85 c9		 test	 ecx, ecx
  0000e	74 1d		 je	 SHORT $L106281

; 122  :       if (this->rdbuf()->pubsync() == -1)

  00010	8b 01		 mov	 eax, DWORD PTR [ecx]
  00012	ff 50 10	 call	 DWORD PTR [eax+16]
  00015	83 f8 ff	 cmp	 eax, -1
  00018	75 13		 jne	 SHORT $L106281

; 123  :         this->setstate(ios_base::badbit);

  0001a	8b 06		 mov	 eax, DWORD PTR [esi]
  0001c	8b 48 04	 mov	 ecx, DWORD PTR [eax+4]
  0001f	03 ce		 add	 ecx, esi
  00021	8b 41 08	 mov	 eax, DWORD PTR [ecx+8]
  00024	83 c8 01	 or	 eax, 1
  00027	50		 push	 eax
  00028	e8 00 00 00 00	 call	 ?clear@?$basic_ios@DV?$char_traits@D@_STL@@@_STL@@QAEXH@Z ; _STL::basic_ios<char,_STL::char_traits<char> >::clear
$L106281:

; 124  :     return *this;

  0002d	8b c6		 mov	 eax, esi
  0002f	5e		 pop	 esi

; 125  :   }

  00030	c3		 ret	 0
?flush@?$basic_ostream@DV?$char_traits@D@_STL@@@_STL@@QAEAAV12@XZ ENDP ; _STL::basic_ostream<char,_STL::char_traits<char> >::flush
_TEXT	ENDS
PUBLIC	??$_M_init@DV?$char_traits@D@_STL@@@_STL@@YA_NAAV?$basic_ostream@DV?$char_traits@D@_STL@@@0@@Z ; _STL::_M_init<char,_STL::char_traits<char> >
; Function compile flags: /Ogsy
; File c:\stlport-4.6.1\stlport\stl\_ostream.c
;	COMDAT ??$_M_init@DV?$char_traits@D@_STL@@@_STL@@YA_NAAV?$basic_ostream@DV?$char_traits@D@_STL@@@0@@Z
_TEXT	SEGMENT
___str$ = 8						; size = 4
??$_M_init@DV?$char_traits@D@_STL@@@_STL@@YA_NAAV?$basic_ostream@DV?$char_traits@D@_STL@@@0@@Z PROC NEAR ; _STL::_M_init<char,_STL::char_traits<char> >, COMDAT

; 37   : _M_init(basic_ostream<_CharT, _Traits>& __str) {

  00000	56		 push	 esi

; 38   :   if (__str.good()) {

  00001	8b 74 24 08	 mov	 esi, DWORD PTR ___str$[esp]
  00005	8b 06		 mov	 eax, DWORD PTR [esi]
  00007	8b 40 04	 mov	 eax, DWORD PTR [eax+4]
  0000a	8d 0c 30	 lea	 ecx, DWORD PTR [eax+esi]
  0000d	83 79 08 00	 cmp	 DWORD PTR [ecx+8], 0
  00011	75 36		 jne	 SHORT $L104832

; 39   :     // boris : check if this is needed !
; 40   :     if (!__str.rdbuf())

  00013	83 79 58 00	 cmp	 DWORD PTR [ecx+88], 0
  00017	75 0c		 jne	 SHORT $L106301

; 41   :       __str.setstate(ios_base::badbit);

  00019	8b 41 08	 mov	 eax, DWORD PTR [ecx+8]
  0001c	83 c8 01	 or	 eax, 1
  0001f	50		 push	 eax
  00020	e8 00 00 00 00	 call	 ?clear@?$basic_ios@DV?$char_traits@D@_STL@@@_STL@@QAEXH@Z ; _STL::basic_ios<char,_STL::char_traits<char> >::clear
$L106301:

; 42   :     if (__str.tie())

  00025	8b 06		 mov	 eax, DWORD PTR [esi]
  00027	8b 40 04	 mov	 eax, DWORD PTR [eax+4]
  0002a	8b 4c 30 5c	 mov	 ecx, DWORD PTR [eax+esi+92]
  0002e	85 c9		 test	 ecx, ecx
  00030	74 05		 je	 SHORT $L104834

; 43   :       __str.tie()->flush();

  00032	e8 00 00 00 00	 call	 ?flush@?$basic_ostream@DV?$char_traits@D@_STL@@@_STL@@QAEAAV12@XZ ; _STL::basic_ostream<char,_STL::char_traits<char> >::flush
$L104834:

; 44   :     return __str.good();

  00037	8b 06		 mov	 eax, DWORD PTR [esi]
  00039	8b 40 04	 mov	 eax, DWORD PTR [eax+4]
  0003c	33 c9		 xor	 ecx, ecx
  0003e	39 4c 30 08	 cmp	 DWORD PTR [eax+esi+8], ecx
  00042	5e		 pop	 esi
  00043	0f 94 c1	 sete	 cl
  00046	8a c1		 mov	 al, cl

; 47   : }

  00048	c3		 ret	 0
$L104832:

; 45   :   } else
; 46   :     return false;

  00049	32 c0		 xor	 al, al
  0004b	5e		 pop	 esi

; 47   : }

  0004c	c3		 ret	 0
??$_M_init@DV?$char_traits@D@_STL@@@_STL@@YA_NAAV?$basic_ostream@DV?$char_traits@D@_STL@@@0@@Z ENDP ; _STL::_M_init<char,_STL::char_traits<char> >
_TEXT	ENDS
PUBLIC	??$__uninitialized_copy@PADPAD@_STL@@YAPADPAD00ABU__true_type@0@@Z ; _STL::__uninitialized_copy<char *,char *>
; Function compile flags: /Ogsy
; File c:\stlport-4.6.1\stlport\stl\_uninitialized.h
;	COMDAT ??$__uninitialized_copy@PADPAD@_STL@@YAPADPAD00ABU__true_type@0@@Z
_TEXT	SEGMENT
___first$ = 8						; size = 4
___last$ = 12						; size = 4
___result$ = 16						; size = 4
___formal$ = 20						; size = 4
??$__uninitialized_copy@PADPAD@_STL@@YAPADPAD00ABU__true_type@0@@Z PROC NEAR ; _STL::__uninitialized_copy<char *,char *>, COMDAT

; 55   :   return __copy_aux(__first, __last, __result, _BothPtrType< _InputIter, _ForwardIter> :: _Ret());

  00000	ff 74 24 0c	 push	 DWORD PTR ___result$[esp-4]
  00004	ff 74 24 0c	 push	 DWORD PTR ___last$[esp]
  00008	ff 74 24 0c	 push	 DWORD PTR ___first$[esp+4]
  0000c	e8 00 00 00 00	 call	 ?__copy_trivial@_STL@@YAPAXPBX0PAX@Z ; _STL::__copy_trivial
  00011	83 c4 0c	 add	 esp, 12			; 0000000cH

; 56   : }

  00014	c3		 ret	 0
??$__uninitialized_copy@PADPAD@_STL@@YAPADPAD00ABU__true_type@0@@Z ENDP ; _STL::__uninitialized_copy<char *,char *>
_TEXT	ENDS
PUBLIC	?_M_deallocate_block@?$_String_base@DV?$allocator@D@_STL@@@_STL@@QAEXXZ ; _STL::_String_base<char,_STL::allocator<char> >::_M_deallocate_block
; Function compile flags: /Ogsy
; File c:\stlport-4.6.1\stlport\stl\_string.h
;	COMDAT ?_M_deallocate_block@?$_String_base@DV?$allocator@D@_STL@@@_STL@@QAEXXZ
_TEXT	SEGMENT
?_M_deallocate_block@?$_String_base@DV?$allocator@D@_STL@@@_STL@@QAEXXZ PROC NEAR ; _STL::_String_base<char,_STL::allocator<char> >::_M_deallocate_block, COMDAT
; _this$ = ecx

; 124  :     { _M_end_of_storage.deallocate(_M_start, _M_end_of_storage._M_data - _M_start); }

  00000	8b c1		 mov	 eax, ecx
  00002	8d 48 08	 lea	 ecx, DWORD PTR [eax+8]
  00005	8b 00		 mov	 eax, DWORD PTR [eax]
  00007	8b 11		 mov	 edx, DWORD PTR [ecx]
  00009	2b d0		 sub	 edx, eax
  0000b	52		 push	 edx
  0000c	50		 push	 eax
  0000d	e8 00 00 00 00	 call	 ?deallocate@?$allocator@D@_STL@@QAEXPADI@Z ; _STL::allocator<char>::deallocate
  00012	c3		 ret	 0
?_M_deallocate_block@?$_String_base@DV?$allocator@D@_STL@@@_STL@@QAEXXZ ENDP ; _STL::_String_base<char,_STL::allocator<char> >::_M_deallocate_block
_TEXT	ENDS
PUBLIC	??1?$basic_filebuf@DV?$char_traits@D@_STL@@@_STL@@UAE@XZ ; _STL::basic_filebuf<char,_STL::char_traits<char> >::~basic_filebuf<char,_STL::char_traits<char> >
;	COMDAT xdata$x
; File c:\stlport-4.6.1\stlport\stl\_fstream.c
xdata$x	SEGMENT
$T106361 DD	0ffffffffH
	DD	FLAT:$L106357
$T106359 DD	019930520H
	DD	01H
	DD	FLAT:$T106361
	DD	2 DUP(00H)
	DD	2 DUP(00H)
; Function compile flags: /Ogsy
xdata$x	ENDS
;	COMDAT ??1?$basic_filebuf@DV?$char_traits@D@_STL@@@_STL@@UAE@XZ
_TEXT	SEGMENT
_this$ = -16						; size = 4
__$EHRec$ = -12						; size = 12
??1?$basic_filebuf@DV?$char_traits@D@_STL@@@_STL@@UAE@XZ PROC NEAR ; _STL::basic_filebuf<char,_STL::char_traits<char> >::~basic_filebuf<char,_STL::char_traits<char> >, COMDAT
; _this$ = ecx

; 65   : basic_filebuf<_CharT, _Traits>::~basic_filebuf() {

  00000	b8 00 00 00 00	 mov	 eax, __ehhandler$??1?$basic_filebuf@DV?$char_traits@D@_STL@@@_STL@@UAE@XZ
  00005	e8 00 00 00 00	 call	 __EH_prolog
  0000a	51		 push	 ecx
  0000b	56		 push	 esi
  0000c	8b f1		 mov	 esi, ecx
  0000e	89 75 f0	 mov	 DWORD PTR _this$[ebp], esi
  00011	c7 06 00 00 00
	00		 mov	 DWORD PTR [esi], OFFSET FLAT:??_7?$basic_filebuf@DV?$char_traits@D@_STL@@@_STL@@6B@
  00017	83 65 fc 00	 and	 DWORD PTR __$EHRec$[ebp+8], 0

; 66   :   this->close();

  0001b	e8 00 00 00 00	 call	 ?close@?$basic_filebuf@DV?$char_traits@D@_STL@@@_STL@@QAEPAV12@XZ ; _STL::basic_filebuf<char,_STL::char_traits<char> >::close

; 67   :   _M_deallocate_buffers();

  00020	8b ce		 mov	 ecx, esi
  00022	e8 00 00 00 00	 call	 ?_M_deallocate_buffers@?$basic_filebuf@DV?$char_traits@D@_STL@@@_STL@@AAEXXZ ; _STL::basic_filebuf<char,_STL::char_traits<char> >::_M_deallocate_buffers

; 68   : }

  00027	83 4d fc ff	 or	 DWORD PTR __$EHRec$[ebp+8], -1
  0002b	8b ce		 mov	 ecx, esi
  0002d	e8 00 00 00 00	 call	 ??1?$basic_streambuf@DV?$char_traits@D@_STL@@@_STL@@UAE@XZ ; _STL::basic_streambuf<char,_STL::char_traits<char> >::~basic_streambuf<char,_STL::char_traits<char> >
  00032	8b 4d f4	 mov	 ecx, DWORD PTR __$EHRec$[ebp]
  00035	5e		 pop	 esi
  00036	64 89 0d 00 00
	00 00		 mov	 DWORD PTR fs:__except_list, ecx
  0003d	c9		 leave
  0003e	c3		 ret	 0
_TEXT	ENDS
;	COMDAT text$x
text$x	SEGMENT
$L106357:
  00000	8b 4d f0	 mov	 ecx, DWORD PTR _this$[ebp]
  00003	e9 00 00 00 00	 jmp	 ??1?$basic_streambuf@DV?$char_traits@D@_STL@@@_STL@@UAE@XZ ; _STL::basic_streambuf<char,_STL::char_traits<char> >::~basic_streambuf<char,_STL::char_traits<char> >
__ehhandler$??1?$basic_filebuf@DV?$char_traits@D@_STL@@@_STL@@UAE@XZ:
  00008	b8 00 00 00 00	 mov	 eax, OFFSET FLAT:$T106359
  0000d	e9 00 00 00 00	 jmp	 ___CxxFrameHandler
text$x	ENDS
??1?$basic_filebuf@DV?$char_traits@D@_STL@@@_STL@@UAE@XZ ENDP ; _STL::basic_filebuf<char,_STL::char_traits<char> >::~basic_filebuf<char,_STL::char_traits<char> >
PUBLIC	?_M_switch_to_output_mode@?$basic_filebuf@DV?$char_traits@D@_STL@@@_STL@@AAE_NXZ ; _STL::basic_filebuf<char,_STL::char_traits<char> >::_M_switch_to_output_mode
PUBLIC	?_M_output_error@?$basic_filebuf@DV?$char_traits@D@_STL@@@_STL@@AAEHXZ ; _STL::basic_filebuf<char,_STL::char_traits<char> >::_M_output_error
; Function compile flags: /Ogsy
;	COMDAT ?overflow@?$basic_filebuf@DV?$char_traits@D@_STL@@@_STL@@MAEHH@Z
_TEXT	SEGMENT
___enext$98795 = -12					; size = 4
___iend$ = -8						; size = 4
___inext$98794 = -4					; size = 4
___c$ = 8						; size = 4
?overflow@?$basic_filebuf@DV?$char_traits@D@_STL@@@_STL@@MAEHH@Z PROC NEAR ; _STL::basic_filebuf<char,_STL::char_traits<char> >::overflow, COMDAT
; _this$ = ecx

; 213  : {

  00000	55		 push	 ebp
  00001	8b ec		 mov	 ebp, esp
  00003	83 ec 0c	 sub	 esp, 12			; 0000000cH
  00006	56		 push	 esi
  00007	8b f1		 mov	 esi, ecx

; 214  :   // Switch to output mode, if necessary.
; 215  :   if (!_M_in_output_mode)

  00009	80 7e 68 00	 cmp	 BYTE PTR [esi+104], 0
  0000d	75 11		 jne	 SHORT $L98786

; 216  :     if (!_M_switch_to_output_mode())

  0000f	e8 00 00 00 00	 call	 ?_M_switch_to_output_mode@?$basic_filebuf@DV?$char_traits@D@_STL@@@_STL@@AAE_NXZ ; _STL::basic_filebuf<char,_STL::char_traits<char> >::_M_switch_to_output_mode
  00014	84 c0		 test	 al, al
  00016	75 08		 jne	 SHORT $L98786

; 217  :       return traits_type::eof();

  00018	83 c8 ff	 or	 eax, -1
  0001b	e9 b1 00 00 00	 jmp	 $L98784
$L98786:

; 218  : 
; 219  :   _CharT* __ibegin = this->_M_int_buf;
; 220  :   _CharT* __iend   = this->pptr();
; 221  :   this->setp(_M_int_buf, _M_int_buf_EOS - 1);

  00020	8b 46 70	 mov	 eax, DWORD PTR [esi+112]
  00023	8b 4e 08	 mov	 ecx, DWORD PTR [esi+8]
  00026	8b 11		 mov	 edx, DWORD PTR [ecx]
  00028	48		 dec	 eax
  00029	57		 push	 edi
  0002a	8b 7e 6c	 mov	 edi, DWORD PTR [esi+108]
  0002d	2b c7		 sub	 eax, edi
  0002f	89 41 04	 mov	 DWORD PTR [ecx+4], eax

; 222  : 
; 223  :   // Put __c at the end of the internal buffer.
; 224  :   if (!traits_type::eq_int_type(__c, traits_type::eof()))

  00032	8b 45 08	 mov	 eax, DWORD PTR ___c$[ebp]
  00035	83 f8 ff	 cmp	 eax, -1
  00038	89 55 f8	 mov	 DWORD PTR ___iend$[ebp], edx
  0003b	89 79 08	 mov	 DWORD PTR [ecx+8], edi
  0003e	89 39		 mov	 DWORD PTR [ecx], edi
  00040	74 06		 je	 SHORT $L106533

; 225  :     *__iend++ = __c;

  00042	88 02		 mov	 BYTE PTR [edx], al
  00044	42		 inc	 edx
  00045	89 55 f8	 mov	 DWORD PTR ___iend$[ebp], edx
$L106533:

; 226  : 
; 227  :   // For variable-width encodings, output may take more than one pass.
; 228  :   while (__ibegin != __iend) {

  00048	3b fa		 cmp	 edi, edx
  0004a	53		 push	 ebx
  0004b	74 77		 je	 SHORT $L98793
$L98792:

; 229  :     const _CharT* __inext = __ibegin;
; 230  :     char* __enext         = _M_ext_buf;

  0004d	8b 46 74	 mov	 eax, DWORD PTR [esi+116]

; 231  :     typename _Codecvt::result __status
; 232  :       = _M_codecvt->out(_M_state, __ibegin, __iend, __inext,
; 233  :                                   _M_ext_buf, _M_ext_buf_EOS, __enext);

  00050	8b 8e a0 00 00
	00		 mov	 ecx, DWORD PTR [esi+160]
  00056	8d 5d f4	 lea	 ebx, DWORD PTR ___enext$98795[ebp]
  00059	53		 push	 ebx
  0005a	ff 76 78	 push	 DWORD PTR [esi+120]
  0005d	8b 5d f8	 mov	 ebx, DWORD PTR ___iend$[ebp]
  00060	50		 push	 eax
  00061	89 45 f4	 mov	 DWORD PTR ___enext$98795[ebp], eax
  00064	8d 45 fc	 lea	 eax, DWORD PTR ___inext$98794[ebp]
  00067	50		 push	 eax
  00068	53		 push	 ebx
  00069	57		 push	 edi
  0006a	8d 86 84 00 00
	00		 lea	 eax, DWORD PTR [esi+132]
  00070	89 7d fc	 mov	 DWORD PTR ___inext$98794[ebp], edi
  00073	8b 11		 mov	 edx, DWORD PTR [ecx]
  00075	50		 push	 eax
  00076	ff 52 04	 call	 DWORD PTR [edx+4]

; 234  :     if (__status == _Codecvt::noconv)

  00079	83 f8 03	 cmp	 eax, 3
  0007c	74 58		 je	 SHORT $L106534

; 238  : 
; 239  :     // For a constant-width encoding we know that the external buffer
; 240  :     // is large enough, so failure to consume the entire internal buffer
; 241  :     // or to produce the correct number of external characters, is an error.
; 242  :     // For a variable-width encoding, however, we require only that we 
; 243  :     // consume at least one internal character
; 244  :     else if (__status != _Codecvt::error && 
; 245  :              ((__inext == __iend && (__enext - _M_ext_buf == 
; 246  :                                      _M_width * (__iend - __ibegin))) ||
; 247  :               (!_M_constant_width && __inext != __ibegin))) {

  0007e	83 f8 02	 cmp	 eax, 2
  00081	74 63		 je	 SHORT $L106367
  00083	39 5d fc	 cmp	 DWORD PTR ___inext$98794[ebp], ebx
  00086	8b 45 f4	 mov	 eax, DWORD PTR ___enext$98795[ebp]
  00089	75 14		 jne	 SHORT $L98801
  0008b	8b cb		 mov	 ecx, ebx
  0008d	2b cf		 sub	 ecx, edi
  0008f	0f af 8e a4 00
	00 00		 imul	 ecx, DWORD PTR [esi+164]
  00096	8b d0		 mov	 edx, eax
  00098	2b 56 74	 sub	 edx, DWORD PTR [esi+116]
  0009b	3b d1		 cmp	 edx, ecx
  0009d	74 0b		 je	 SHORT $L98800
$L98801:
  0009f	80 7e 64 00	 cmp	 BYTE PTR [esi+100], 0
  000a3	75 41		 jne	 SHORT $L106367
  000a5	39 7d fc	 cmp	 DWORD PTR ___inext$98794[ebp], edi
  000a8	74 3c		 je	 SHORT $L106367
$L98800:

; 248  :         // We successfully converted part or all of the internal buffer.
; 249  :       ptrdiff_t __n = __enext - _M_ext_buf;

  000aa	8b 4e 74	 mov	 ecx, DWORD PTR [esi+116]
  000ad	2b c1		 sub	 eax, ecx

; 250  :       if (_M_write(_M_ext_buf, __n))

  000af	50		 push	 eax
  000b0	51		 push	 ecx
  000b1	8d 4e 54	 lea	 ecx, DWORD PTR [esi+84]
  000b4	e8 00 00 00 00	 call	 ?_M_write@_Filebuf_base@_STL@@QAE_NPADH@Z ; _STL::_Filebuf_base::_M_write
  000b9	84 c0		 test	 al, al
  000bb	74 29		 je	 SHORT $L106367

; 251  :         __ibegin += __inext - __ibegin;

  000bd	8b 7d fc	 mov	 edi, DWORD PTR ___inext$98794[ebp]
  000c0	3b fb		 cmp	 edi, ebx
  000c2	75 89		 jne	 SHORT $L98792
$L98793:

; 252  :       else
; 253  :         return _M_output_error();
; 254  :     }
; 255  :     else
; 256  :       return _M_output_error();
; 257  :   }
; 258  : 
; 259  :   return traits_type::not_eof(__c);

  000c4	8b 45 08	 mov	 eax, DWORD PTR ___c$[ebp]
  000c7	40		 inc	 eax
  000c8	f7 d8		 neg	 eax
  000ca	1b c0		 sbb	 eax, eax
  000cc	23 45 08	 and	 eax, DWORD PTR ___c$[ebp]
$L106537:
  000cf	5b		 pop	 ebx
  000d0	5f		 pop	 edi
$L98784:
  000d1	5e		 pop	 esi

; 260  : }

  000d2	c9		 leave
  000d3	c2 04 00	 ret	 4
$L106534:

; 235  :       return _Noconv_output<_Traits>::_M_doit(this, __ibegin, __iend)
; 236  :         ? traits_type::not_eof(__c)
; 237  :         : _M_output_error();

  000d6	2b df		 sub	 ebx, edi
  000d8	53		 push	 ebx
  000d9	57		 push	 edi
  000da	8d 4e 54	 lea	 ecx, DWORD PTR [esi+84]
  000dd	e8 00 00 00 00	 call	 ?_M_write@_Filebuf_base@_STL@@QAE_NPADH@Z ; _STL::_Filebuf_base::_M_write
  000e2	84 c0		 test	 al, al
  000e4	75 de		 jne	 SHORT $L98793
$L106367:
  000e6	8b ce		 mov	 ecx, esi
  000e8	e8 00 00 00 00	 call	 ?_M_output_error@?$basic_filebuf@DV?$char_traits@D@_STL@@@_STL@@AAEHXZ ; _STL::basic_filebuf<char,_STL::char_traits<char> >::_M_output_error
  000ed	eb e0		 jmp	 SHORT $L106537
?overflow@?$basic_filebuf@DV?$char_traits@D@_STL@@@_STL@@MAEHH@Z ENDP ; _STL::basic_filebuf<char,_STL::char_traits<char> >::overflow
; Function compile flags: /Ogsy
_TEXT	ENDS
;	COMDAT ?_M_output_error@?$basic_filebuf@DV?$char_traits@D@_STL@@@_STL@@AAEHXZ
_TEXT	SEGMENT
?_M_output_error@?$basic_filebuf@DV?$char_traits@D@_STL@@@_STL@@AAEHXZ PROC NEAR ; _STL::basic_filebuf<char,_STL::char_traits<char> >::_M_output_error, COMDAT
; _this$ = ecx

; 591  :   _M_in_output_mode = false;

  00000	33 c0		 xor	 eax, eax
  00002	88 41 68	 mov	 BYTE PTR [ecx+104], al

; 592  :   _M_in_input_mode = false;

  00005	88 41 67	 mov	 BYTE PTR [ecx+103], al

; 593  :   _M_in_error_mode = true;

  00008	c6 41 69 01	 mov	 BYTE PTR [ecx+105], 1

; 594  :   this->setp(0, 0);

  0000c	8b 49 08	 mov	 ecx, DWORD PTR [ecx+8]
  0000f	89 41 08	 mov	 DWORD PTR [ecx+8], eax
  00012	89 01		 mov	 DWORD PTR [ecx], eax
  00014	89 41 04	 mov	 DWORD PTR [ecx+4], eax

; 595  :   return traits_type::eof();

  00017	83 c8 ff	 or	 eax, -1

; 596  : }

  0001a	c3		 ret	 0
?_M_output_error@?$basic_filebuf@DV?$char_traits@D@_STL@@@_STL@@AAEHXZ ENDP ; _STL::basic_filebuf<char,_STL::char_traits<char> >::_M_output_error
_TEXT	ENDS
EXTRN	?_M_page_size@_Filebuf_base@_STL@@1IA:DWORD	; _STL::_Filebuf_base::_M_page_size
; Function compile flags: /Ogsy
;	COMDAT ?_M_switch_to_output_mode@?$basic_filebuf@DV?$char_traits@D@_STL@@@_STL@@AAE_NXZ
_TEXT	SEGMENT
?_M_switch_to_output_mode@?$basic_filebuf@DV?$char_traits@D@_STL@@@_STL@@AAE_NXZ PROC NEAR ; _STL::basic_filebuf<char,_STL::char_traits<char> >::_M_switch_to_output_mode, COMDAT
; _this$ = ecx

; 471  : {

  00000	53		 push	 ebx
  00001	56		 push	 esi
  00002	8b f1		 mov	 esi, ecx

; 472  :   if (this->is_open() && (_M_base.__o_mode() & (int)ios_base::out) &&
; 473  :       _M_in_input_mode == 0 && _M_in_error_mode == 0) {

  00004	33 db		 xor	 ebx, ebx
  00006	38 5e 60	 cmp	 BYTE PTR [esi+96], bl
  00009	74 5d		 je	 SHORT $L104563
  0000b	f6 46 5c 10	 test	 BYTE PTR [esi+92], 16	; 00000010H
  0000f	74 57		 je	 SHORT $L104563
  00011	38 5e 67	 cmp	 BYTE PTR [esi+103], bl
  00014	75 52		 jne	 SHORT $L104563
  00016	38 5e 69	 cmp	 BYTE PTR [esi+105], bl
  00019	75 4d		 jne	 SHORT $L104563

; 474  : 
; 475  :     if (!_M_int_buf && !_M_allocate_buffers())

  0001b	39 5e 6c	 cmp	 DWORD PTR [esi+108], ebx
  0001e	75 20		 jne	 SHORT $L104564
  00020	8b 0d 00 00 00
	00		 mov	 ecx, DWORD PTR ?_M_page_size@_Filebuf_base@_STL@@1IA ; _STL::_Filebuf_base::_M_page_size
  00026	8d 81 ff 0f 00
	00		 lea	 eax, DWORD PTR [ecx+4095]
  0002c	33 d2		 xor	 edx, edx
  0002e	f7 f1		 div	 ecx
  00030	0f af c1	 imul	 eax, ecx
  00033	50		 push	 eax
  00034	53		 push	 ebx
  00035	8b ce		 mov	 ecx, esi
  00037	e8 00 00 00 00	 call	 ?_M_allocate_buffers@?$basic_filebuf@DV?$char_traits@D@_STL@@@_STL@@AAE_NPADH@Z ; _STL::basic_filebuf<char,_STL::char_traits<char> >::_M_allocate_buffers
  0003c	84 c0		 test	 al, al

; 476  :       return false;

  0003e	74 28		 je	 SHORT $L104563
$L104564:

; 477  : 
; 478  :     // In append mode, every write does an implicit seek to the end
; 479  :     // of the file.  Whenever leaving output mode, the end of file
; 480  :     // get put in the initial shift state.
; 481  :     if (_M_base.__o_mode() & ios_base::app)

  00040	f6 46 5c 01	 test	 BYTE PTR [esi+92], 1
  00044	74 06		 je	 SHORT $L104565

; 482  :       _M_state = _State_type();

  00046	89 9e 84 00 00
	00		 mov	 DWORD PTR [esi+132], ebx
$L104565:

; 483  : 
; 484  :     this->setp(_M_int_buf, _M_int_buf_EOS - 1);

  0004c	8b 46 70	 mov	 eax, DWORD PTR [esi+112]
  0004f	8b 56 6c	 mov	 edx, DWORD PTR [esi+108]
  00052	8b 4e 08	 mov	 ecx, DWORD PTR [esi+8]
  00055	48		 dec	 eax
  00056	2b c2		 sub	 eax, edx
  00058	89 41 04	 mov	 DWORD PTR [ecx+4], eax
  0005b	89 51 08	 mov	 DWORD PTR [ecx+8], edx
  0005e	89 11		 mov	 DWORD PTR [ecx], edx

; 485  :     _M_in_output_mode = true;

  00060	c6 46 68 01	 mov	 BYTE PTR [esi+104], 1

; 486  : 
; 487  :     return true;

  00064	b0 01		 mov	 al, 1
  00066	eb 02		 jmp	 SHORT $L104566
$L104563:

; 488  :   }
; 489  :   else
; 490  :     return false;

  00068	32 c0		 xor	 al, al
$L104566:
  0006a	5e		 pop	 esi
  0006b	5b		 pop	 ebx

; 491  : }

  0006c	c3		 ret	 0
?_M_switch_to_output_mode@?$basic_filebuf@DV?$char_traits@D@_STL@@@_STL@@AAE_NXZ ENDP ; _STL::basic_filebuf<char,_STL::char_traits<char> >::_M_switch_to_output_mode
_TEXT	ENDS
PUBLIC	?_M_seek_return@?$basic_filebuf@DV?$char_traits@D@_STL@@@_STL@@AAE?AV?$fpos@H@2@JH@Z ; _STL::basic_filebuf<char,_STL::char_traits<char> >::_M_seek_return
PUBLIC	?_M_seek_init@?$basic_filebuf@DV?$char_traits@D@_STL@@@_STL@@AAE_N_N@Z ; _STL::basic_filebuf<char,_STL::char_traits<char> >::_M_seek_init
PUBLIC	??1?$_Filebuf_Tmp_Buf@D@_STL@@QAE@XZ		; _STL::_Filebuf_Tmp_Buf<char>::~_Filebuf_Tmp_Buf<char>
EXTRN	??_V@YAXPAX@Z:NEAR				; operator delete[]
EXTRN	??_U@YAPAXI@Z:NEAR				; operator new[]
;	COMDAT xdata$x
; File c:\stlport-4.6.1\stlport\stl\char_traits.h
xdata$x	SEGMENT
$T106894 DD	0ffffffffH
	DD	FLAT:$L106621
$T106868 DD	019930520H
	DD	01H
	DD	FLAT:$T106894
	DD	2 DUP(00H)
	DD	2 DUP(00H)
; Function compile flags: /Ogsy
; File c:\stlport-4.6.1\stlport\stl\_fstream.c
xdata$x	ENDS
;	COMDAT ?seekoff@?$basic_filebuf@DV?$char_traits@D@_STL@@@_STL@@MAE?AV?$fpos@H@2@JHH@Z
_TEXT	SEGMENT
___dummy$98878 = -28					; size = 4
___tmp_state$98860 = -24				; size = 4
___state$98858 = -20					; size = 4
___inext$98877 = -16					; size = 4
__$EHRec$ = -12						; size = 12
___$ReturnUdt$ = 8					; size = 4
___buf$98875 = 12					; size = 4
___off$ = 12						; size = 4
tv738 = 16						; size = 4
___cur$98916 = 16					; size = 4
___whence$ = 16						; size = 4
___formal$ = 20						; size = 4
?seekoff@?$basic_filebuf@DV?$char_traits@D@_STL@@@_STL@@MAE?AV?$fpos@H@2@JHH@Z PROC NEAR ; _STL::basic_filebuf<char,_STL::char_traits<char> >::seekoff, COMDAT
; _this$ = ecx

; 289  : {

  00000	b8 00 00 00 00	 mov	 eax, __ehhandler$?seekoff@?$basic_filebuf@DV?$char_traits@D@_STL@@@_STL@@MAE?AV?$fpos@H@2@JHH@Z
  00005	e8 00 00 00 00	 call	 __EH_prolog
  0000a	83 ec 10	 sub	 esp, 16			; 00000010H
  0000d	53		 push	 ebx
  0000e	56		 push	 esi
  0000f	8b f1		 mov	 esi, ecx

; 290  :   if (this->is_open() &&
; 291  :       (__off == 0 || (_M_constant_width && this->_M_base._M_in_binary_mode()))) {

  00011	80 7e 60 00	 cmp	 BYTE PTR [esi+96], 0
  00015	57		 push	 edi
  00016	0f 84 64 02 00
	00		 je	 $L106881
  0001c	8b 5d 0c	 mov	 ebx, DWORD PTR ___off$[ebp]
  0001f	85 db		 test	 ebx, ebx
  00021	8b 7d 10	 mov	 edi, DWORD PTR ___whence$[ebp]
  00024	74 55		 je	 SHORT $L106878
  00026	80 7e 64 00	 cmp	 BYTE PTR [esi+100], 0
  0002a	0f 84 50 02 00
	00		 je	 $L106881
  00030	8b 46 5c	 mov	 eax, DWORD PTR [esi+92]
  00033	c1 e8 02	 shr	 eax, 2
  00036	a8 01		 test	 al, 1
  00038	0f 84 42 02 00
	00		 je	 $L106881
$L106618:

; 292  : 
; 293  :     if (!_M_seek_init(__off != 0 || __whence != ios_base::cur))

  0003e	33 c0		 xor	 eax, eax
  00040	b0 01		 mov	 al, 1
$L106619:
  00042	50		 push	 eax
  00043	8b ce		 mov	 ecx, esi
  00045	e8 00 00 00 00	 call	 ?_M_seek_init@?$basic_filebuf@DV?$char_traits@D@_STL@@@_STL@@AAE_N_N@Z ; _STL::basic_filebuf<char,_STL::char_traits<char> >::_M_seek_init
  0004a	84 c0		 test	 al, al

; 294  :       return pos_type(-1);

  0004c	0f 84 2e 02 00
	00		 je	 $L106881

; 295  : 
; 296  :     // Seek to beginning or end, regardless of whether we're in input mode.
; 297  :     if (__whence == ios_base::beg || __whence == ios_base::end)

  00052	83 ff 01	 cmp	 edi, 1
  00055	0f 84 00 02 00
	00		 je	 $L98831
  0005b	83 ff 04	 cmp	 edi, 4
  0005e	0f 84 f7 01 00
	00		 je	 $L98831

; 300  : 
; 301  :     // Seek relative to current position.  Complicated if we're in input mode.
; 302  :     else if (__whence == ios_base::cur) {

  00064	83 ff 02	 cmp	 edi, 2
  00067	0f 85 13 02 00
	00		 jne	 $L106881

; 303  : 
; 304  :       if (!_M_in_input_mode)

  0006d	80 7e 67 00	 cmp	 BYTE PTR [esi+103], 0
  00071	75 11		 jne	 SHORT $L98835

; 305  :         return _M_seek_return(_M_base._M_seek(_M_width * __off, __whence),
; 306  :                               _State_type());

  00073	6a 00		 push	 0
  00075	57		 push	 edi
  00076	e9 e3 01 00 00	 jmp	 $L106892
$L106878:

; 292  : 
; 293  :     if (!_M_seek_init(__off != 0 || __whence != ios_base::cur))

  0007b	83 ff 02	 cmp	 edi, 2
  0007e	75 be		 jne	 SHORT $L106618
  00080	32 c0		 xor	 al, al
  00082	eb be		 jmp	 SHORT $L106619
$L98835:

; 307  :       else if (_M_mmap_base != 0) {

  00084	8b 86 8c 00 00
	00		 mov	 eax, DWORD PTR [esi+140]
  0008a	85 c0		 test	 eax, eax

; 308  :         // __off is relative to gptr().  We need to do a bit of arithmetic
; 309  :         // to get an offset relative to the external file pointer.
; 310  :         streamoff __adjust = _M_mmap_len - (this->gptr() - (_CharT*) _M_mmap_base);

  0008c	8b 4e 04	 mov	 ecx, DWORD PTR [esi+4]
  0008f	74 18		 je	 SHORT $L98838
  00091	8b be 90 00 00
	00		 mov	 edi, DWORD PTR [esi+144]
  00097	2b 39		 sub	 edi, DWORD PTR [ecx]
  00099	03 f8		 add	 edi, eax
  0009b	eb 5a		 jmp	 SHORT $L106893
$L98850:

; 311  : 
; 312  :         // if __off == 0, we do not need to exit input mode and to shift file pointer
; 313  :         if (__off == 0) {
; 314  :           return pos_type(_M_base._M_seek(0, ios_base::cur) - __adjust);
; 315  :         }
; 316  :         else
; 317  :           return _M_seek_return(_M_base._M_seek(__off - __adjust, ios_base::cur), _State_type());

  0009d	6a 00		 push	 0
  0009f	6a 02		 push	 2
  000a1	2b df		 sub	 ebx, edi
  000a3	53		 push	 ebx
  000a4	e9 c2 01 00 00	 jmp	 $L106887
$L98838:

; 318  :       }
; 319  :       else if (_M_constant_width) { // Get or set the position.  
; 320  : 
; 321  :         streamoff __iadj = _M_width * (this->gptr() - this->eback());

  000a9	8b 01		 mov	 eax, DWORD PTR [ecx]
  000ab	2b 41 08	 sub	 eax, DWORD PTR [ecx+8]
  000ae	80 7e 64 00	 cmp	 BYTE PTR [esi+100], 0

; 322  :         
; 323  :         // Compensate for offset relative to gptr versus offset relative
; 324  :         // to external pointer.  For a text-oriented stream, where the 
; 325  :         // compensation is more than just pointer arithmetic, we may get
; 326  :         // but not set the current position.
; 327  :         
; 328  :         if (__iadj <= _M_ext_buf_end - _M_ext_buf) {

  000b2	8b 56 74	 mov	 edx, DWORD PTR [esi+116]
  000b5	74 5d		 je	 SHORT $L98846
  000b7	0f af 86 a4 00
	00 00		 imul	 eax, DWORD PTR [esi+164]
  000be	8b 8e 80 00 00
	00		 mov	 ecx, DWORD PTR [esi+128]
  000c4	8b f9		 mov	 edi, ecx
  000c6	2b fa		 sub	 edi, edx
  000c8	3b c7		 cmp	 eax, edi
  000ca	0f 8f b0 01 00
	00		 jg	 $L106881

; 329  :           
; 330  :           streamoff __eadj =  _M_base._M_get_offset(_M_ext_buf + __iadj, _M_ext_buf_end);

  000d0	03 c2		 add	 eax, edx
  000d2	f6 46 5c 04	 test	 BYTE PTR [esi+92], 4
  000d6	74 06		 je	 SHORT $L106685
  000d8	2b c8		 sub	 ecx, eax
  000da	8b f9		 mov	 edi, ecx
  000dc	eb 19		 jmp	 SHORT $L106893
$L106685:
  000de	33 d2		 xor	 edx, edx
  000e0	3b c1		 cmp	 eax, ecx
  000e2	8b f8		 mov	 edi, eax
  000e4	74 0b		 je	 SHORT $L106692
$L106690:
  000e6	80 3f 0a	 cmp	 BYTE PTR [edi], 10	; 0000000aH
  000e9	75 01		 jne	 SHORT $L106691
  000eb	42		 inc	 edx
$L106691:
  000ec	47		 inc	 edi
  000ed	3b f9		 cmp	 edi, ecx
  000ef	75 f5		 jne	 SHORT $L106690
$L106692:
  000f1	2b d0		 sub	 edx, eax
  000f3	03 d1		 add	 edx, ecx
  000f5	8b fa		 mov	 edi, edx
$L106893:

; 331  : 
; 332  :           if (__off == 0) {

  000f7	85 db		 test	 ebx, ebx

; 333  :             return pos_type(_M_base._M_seek(0, ios_base::cur) - __eadj);

  000f9	8d 4e 54	 lea	 ecx, DWORD PTR [esi+84]
  000fc	75 9f		 jne	 SHORT $L98850
  000fe	6a 02		 push	 2
  00100	53		 push	 ebx
  00101	e8 00 00 00 00	 call	 ?_M_seek@_Filebuf_base@_STL@@QAEJJH@Z ; _STL::_Filebuf_base::_M_seek
  00106	8b c8		 mov	 ecx, eax
  00108	8b 45 08	 mov	 eax, DWORD PTR ___$ReturnUdt$[ebp]
  0010b	2b cf		 sub	 ecx, edi
  0010d	89 08		 mov	 DWORD PTR [eax], ecx
  0010f	e9 72 01 00 00	 jmp	 $L106886
$L98846:

; 334  :           }  else {
; 335  :             return _M_seek_return(_M_base._M_seek(__off - __eadj, ios_base::cur), _State_type());
; 336  :           }
; 337  :         }
; 338  :         else
; 339  :           return pos_type(-1);
; 340  :       }
; 341  :       else {                    // Get the position.  Encoding is var width.
; 342  :         // Get position in internal buffer.
; 343  :         ptrdiff_t __ipos = this->gptr() - this->eback();
; 344  :         
; 345  :         // Get corresponding position in external buffer.
; 346  :         _State_type __state = _M_state;
; 347  :         int __epos = _M_codecvt->length(__state, _M_ext_buf, _M_ext_buf_end,
; 348  :                                         __ipos);

  00114	8b 8e a0 00 00
	00		 mov	 ecx, DWORD PTR [esi+160]
  0011a	8b f8		 mov	 edi, eax
  0011c	8b 86 84 00 00
	00		 mov	 eax, DWORD PTR [esi+132]
  00122	89 45 ec	 mov	 DWORD PTR ___state$98858[ebp], eax
  00125	8b 86 80 00 00
	00		 mov	 eax, DWORD PTR [esi+128]
  0012b	8b 19		 mov	 ebx, DWORD PTR [ecx]
  0012d	57		 push	 edi
  0012e	50		 push	 eax
  0012f	52		 push	 edx
  00130	8d 45 ec	 lea	 eax, DWORD PTR ___state$98858[ebp]
  00133	50		 push	 eax
  00134	ff 53 18	 call	 DWORD PTR [ebx+24]
  00137	8b d8		 mov	 ebx, eax

; 349  : 
; 350  :         // Sanity check (expensive): make sure __epos is the right answer.
; 351  :         _State_type __tmp_state = _M_state;

  00139	8b 86 84 00 00
	00		 mov	 eax, DWORD PTR [esi+132]

; 352  :         _Filebuf_Tmp_Buf<_CharT> __buf(__ipos);

  0013f	57		 push	 edi
  00140	89 45 e8	 mov	 DWORD PTR ___tmp_state$98860[ebp], eax
  00143	e8 00 00 00 00	 call	 ??_U@YAPAXI@Z		; operator new[]
  00148	8b d0		 mov	 edx, eax
  0014a	59		 pop	 ecx
  0014b	89 55 0c	 mov	 DWORD PTR ___buf$98875[ebp], edx

; 353  :         _CharT* __ibegin = __buf._M_ptr;
; 354  :         _CharT* __inext  = __ibegin;
; 355  : 
; 356  :         const char* __dummy;
; 357  :         typename _Codecvt::result __status
; 358  :           = _M_codecvt->in(__tmp_state,
; 359  :                            _M_ext_buf, _M_ext_buf + __epos, __dummy,
; 360  :                            __ibegin, __ibegin + __ipos, __inext);

  0014e	8b 46 74	 mov	 eax, DWORD PTR [esi+116]
  00151	8b 8e a0 00 00
	00		 mov	 ecx, DWORD PTR [esi+160]
  00157	83 65 fc 00	 and	 DWORD PTR __$EHRec$[ebp+8], 0
  0015b	89 55 f0	 mov	 DWORD PTR ___inext$98877[ebp], edx
  0015e	03 d7		 add	 edx, edi
  00160	8b 39		 mov	 edi, DWORD PTR [ecx]
  00162	89 55 10	 mov	 DWORD PTR tv738[ebp], edx
  00165	8d 55 f0	 lea	 edx, DWORD PTR ___inext$98877[ebp]
  00168	52		 push	 edx
  00169	ff 75 10	 push	 DWORD PTR tv738[ebp]
  0016c	8d 55 e4	 lea	 edx, DWORD PTR ___dummy$98878[ebp]
  0016f	ff 75 0c	 push	 DWORD PTR ___buf$98875[ebp]
  00172	52		 push	 edx
  00173	8d 14 18	 lea	 edx, DWORD PTR [eax+ebx]
  00176	52		 push	 edx
  00177	50		 push	 eax
  00178	8d 45 e8	 lea	 eax, DWORD PTR ___tmp_state$98860[ebp]
  0017b	50		 push	 eax
  0017c	ff 57 08	 call	 DWORD PTR [edi+8]

; 361  :         if (__status != _Codecvt::error &&
; 362  :             (__status == _Codecvt::noconv ||
; 363  :              (__inext == __ibegin + __ipos &&
; 364  :               equal(this->gptr(), this->eback(), __ibegin,
; 365  :                     _Eq_traits<traits_type>())))) {

  0017f	83 f8 02	 cmp	 eax, 2
  00182	0f 84 bc 00 00
	00		 je	 $L106880
  00188	83 f8 03	 cmp	 eax, 3
  0018b	74 2d		 je	 SHORT $L106879
  0018d	8b 45 10	 mov	 eax, DWORD PTR tv738[ebp]
  00190	39 45 f0	 cmp	 DWORD PTR ___inext$98877[ebp], eax
  00193	0f 85 ab 00 00
	00		 jne	 $L106880
  00199	8b 46 04	 mov	 eax, DWORD PTR [esi+4]
  0019c	8b 78 08	 mov	 edi, DWORD PTR [eax+8]
  0019f	8b 00		 mov	 eax, DWORD PTR [eax]
  001a1	3b c7		 cmp	 eax, edi
  001a3	74 15		 je	 SHORT $L106879
  001a5	8b 4d 0c	 mov	 ecx, DWORD PTR ___buf$98875[ebp]
  001a8	2b c8		 sub	 ecx, eax
$L106768:
  001aa	8a 10		 mov	 dl, BYTE PTR [eax]
  001ac	3a 14 01	 cmp	 dl, BYTE PTR [ecx+eax]
  001af	0f 85 8f 00 00
	00		 jne	 $L106880
  001b5	40		 inc	 eax
  001b6	3b c7		 cmp	 eax, edi
  001b8	75 f0		 jne	 SHORT $L106768
$L106879:

; 366  :           // Get the current position (at the end of the external buffer),
; 367  :           // then adjust it.  Again, it might be a text-oriented stream.
; 368  :           streamoff __cur = _M_base._M_seek(0, ios_base::cur);

  001ba	6a 02		 push	 2
  001bc	6a 00		 push	 0
  001be	8d 4e 54	 lea	 ecx, DWORD PTR [esi+84]
  001c1	e8 00 00 00 00	 call	 ?_M_seek@_Filebuf_base@_STL@@QAEJJH@Z ; _STL::_Filebuf_base::_M_seek

; 369  :           streamoff __adj =
; 370  :             _M_base._M_get_offset(_M_ext_buf, _M_ext_buf + __epos) -
; 371  :             _M_base._M_get_offset(_M_ext_buf, _M_ext_buf_end);

  001c6	8b 4e 74	 mov	 ecx, DWORD PTR [esi+116]
  001c9	8b 7e 5c	 mov	 edi, DWORD PTR [esi+92]
  001cc	03 d9		 add	 ebx, ecx
  001ce	83 e7 04	 and	 edi, 4
  001d1	89 45 10	 mov	 DWORD PTR ___cur$98916[ebp], eax
  001d4	74 04		 je	 SHORT $L106797
  001d6	2b d9		 sub	 ebx, ecx
  001d8	eb 19		 jmp	 SHORT $L106798
$L106797:
  001da	33 d2		 xor	 edx, edx
  001dc	3b cb		 cmp	 ecx, ebx
  001de	8b c1		 mov	 eax, ecx
  001e0	74 0b		 je	 SHORT $L106804
$L106802:
  001e2	80 38 0a	 cmp	 BYTE PTR [eax], 10	; 0000000aH
  001e5	75 01		 jne	 SHORT $L106803
  001e7	42		 inc	 edx
$L106803:
  001e8	40		 inc	 eax
  001e9	3b c3		 cmp	 eax, ebx
  001eb	75 f5		 jne	 SHORT $L106802
$L106804:
  001ed	2b d1		 sub	 edx, ecx
  001ef	03 d3		 add	 edx, ebx
  001f1	8b da		 mov	 ebx, edx
$L106798:
  001f3	85 ff		 test	 edi, edi
  001f5	8b 8e 80 00 00
	00		 mov	 ecx, DWORD PTR [esi+128]
  001fb	8b 46 74	 mov	 eax, DWORD PTR [esi+116]
  001fe	74 04		 je	 SHORT $L106824
  00200	2b c8		 sub	 ecx, eax
  00202	eb 19		 jmp	 SHORT $L106825
$L106824:
  00204	33 d2		 xor	 edx, edx
  00206	3b c1		 cmp	 eax, ecx
  00208	8b f8		 mov	 edi, eax
  0020a	74 0b		 je	 SHORT $L106831
$L106829:
  0020c	80 3f 0a	 cmp	 BYTE PTR [edi], 10	; 0000000aH
  0020f	75 01		 jne	 SHORT $L106830
  00211	42		 inc	 edx
$L106830:
  00212	47		 inc	 edi
  00213	3b f9		 cmp	 edi, ecx
  00215	75 f5		 jne	 SHORT $L106829
$L106831:
  00217	2b d0		 sub	 edx, eax
  00219	03 d1		 add	 edx, ecx
  0021b	8b ca		 mov	 ecx, edx
$L106825:

; 372  :           if (__cur != -1 && __cur + __adj >= 0)

  0021d	8b 45 10	 mov	 eax, DWORD PTR ___cur$98916[ebp]
  00220	2b d9		 sub	 ebx, ecx
  00222	83 f8 ff	 cmp	 eax, -1
  00225	74 1d		 je	 SHORT $L106880
  00227	03 c3		 add	 eax, ebx
  00229	78 19		 js	 SHORT $L106880

; 373  :             return _M_seek_return(__cur + __adj, __state);

  0022b	ff 75 ec	 push	 DWORD PTR ___state$98858[ebp]
  0022e	8b ce		 mov	 ecx, esi
  00230	50		 push	 eax
  00231	ff 75 08	 push	 DWORD PTR ___$ReturnUdt$[ebp]
  00234	e8 00 00 00 00	 call	 ?_M_seek_return@?$basic_filebuf@DV?$char_traits@D@_STL@@@_STL@@AAE?AV?$fpos@H@2@JH@Z ; _STL::basic_filebuf<char,_STL::char_traits<char> >::_M_seek_return
  00239	ff 75 0c	 push	 DWORD PTR ___buf$98875[ebp]
  0023c	e8 00 00 00 00	 call	 ??_V@YAXPAX@Z		; operator delete[]
  00241	59		 pop	 ecx
  00242	eb 37		 jmp	 SHORT $L106891
$L106880:

; 374  :           else
; 375  :             return pos_type(-1);
; 376  :         }
; 377  :         else                    // We failed the sanity check.
; 378  :           return pos_type(-1);

  00244	8b 75 08	 mov	 esi, DWORD PTR ___$ReturnUdt$[ebp]
  00247	ff 75 0c	 push	 DWORD PTR ___buf$98875[ebp]
  0024a	83 0e ff	 or	 DWORD PTR [esi], -1
  0024d	83 66 04 00	 and	 DWORD PTR [esi+4], 0
  00251	e8 00 00 00 00	 call	 ??_V@YAXPAX@Z		; operator delete[]
  00256	59		 pop	 ecx
  00257	8b c6		 mov	 eax, esi

; 379  :       }
; 380  :     }
; 381  :     else                        // Unrecognized value for __whence.
; 382  :       return pos_type(-1);

  00259	eb 2f		 jmp	 SHORT $L98926
$L98831:

; 298  :       return _M_seek_return(_M_base._M_seek(_M_width * __off, __whence),
; 299  :                             _State_type());

  0025b	6a 00		 push	 0
  0025d	57		 push	 edi
$L106892:
  0025e	8b 86 a4 00 00
	00		 mov	 eax, DWORD PTR [esi+164]
  00264	0f af c3	 imul	 eax, ebx
  00267	50		 push	 eax
  00268	8d 4e 54	 lea	 ecx, DWORD PTR [esi+84]
$L106887:
  0026b	e8 00 00 00 00	 call	 ?_M_seek@_Filebuf_base@_STL@@QAEJJH@Z ; _STL::_Filebuf_base::_M_seek
  00270	50		 push	 eax
  00271	ff 75 08	 push	 DWORD PTR ___$ReturnUdt$[ebp]
  00274	8b ce		 mov	 ecx, esi
  00276	e8 00 00 00 00	 call	 ?_M_seek_return@?$basic_filebuf@DV?$char_traits@D@_STL@@@_STL@@AAE?AV?$fpos@H@2@JH@Z ; _STL::basic_filebuf<char,_STL::char_traits<char> >::_M_seek_return
$L106891:
  0027b	8b 45 08	 mov	 eax, DWORD PTR ___$ReturnUdt$[ebp]
  0027e	eb 0a		 jmp	 SHORT $L98926
$L106881:

; 383  :   }
; 384  :   else
; 385  :     return pos_type(-1);

  00280	8b 45 08	 mov	 eax, DWORD PTR ___$ReturnUdt$[ebp]
  00283	83 08 ff	 or	 DWORD PTR [eax], -1
$L106886:
  00286	83 60 04 00	 and	 DWORD PTR [eax+4], 0
$L98926:

; 386  : }

  0028a	8b 4d f4	 mov	 ecx, DWORD PTR __$EHRec$[ebp]
  0028d	5f		 pop	 edi
  0028e	5e		 pop	 esi
  0028f	5b		 pop	 ebx
  00290	64 89 0d 00 00
	00 00		 mov	 DWORD PTR fs:__except_list, ecx
  00297	c9		 leave
  00298	c2 10 00	 ret	 16			; 00000010H
_TEXT	ENDS
;	COMDAT text$x
text$x	SEGMENT
$L106621:
  00000	8d 4d 0c	 lea	 ecx, DWORD PTR ___buf$98875[ebp]
  00003	e9 00 00 00 00	 jmp	 ??1?$_Filebuf_Tmp_Buf@D@_STL@@QAE@XZ ; _STL::_Filebuf_Tmp_Buf<char>::~_Filebuf_Tmp_Buf<char>
__ehhandler$?seekoff@?$basic_filebuf@DV?$char_traits@D@_STL@@@_STL@@MAE?AV?$fpos@H@2@JHH@Z:
  00008	b8 00 00 00 00	 mov	 eax, OFFSET FLAT:$T106868
  0000d	e9 00 00 00 00	 jmp	 ___CxxFrameHandler
text$x	ENDS
?seekoff@?$basic_filebuf@DV?$char_traits@D@_STL@@@_STL@@MAE?AV?$fpos@H@2@JHH@Z ENDP ; _STL::basic_filebuf<char,_STL::char_traits<char> >::seekoff
; Function compile flags: /Ogsy
; File c:\stlport-4.6.1\stlport\stl\_fstream.h
;	COMDAT ??1?$_Filebuf_Tmp_Buf@D@_STL@@QAE@XZ
_TEXT	SEGMENT
??1?$_Filebuf_Tmp_Buf@D@_STL@@QAE@XZ PROC NEAR		; _STL::_Filebuf_Tmp_Buf<char>::~_Filebuf_Tmp_Buf<char>, COMDAT
; _this$ = ecx

; 374  :   ~_Filebuf_Tmp_Buf() { delete[] _M_ptr; }

  00000	ff 31		 push	 DWORD PTR [ecx]
  00002	e8 00 00 00 00	 call	 ??_V@YAXPAX@Z		; operator delete[]
  00007	59		 pop	 ecx
  00008	c3		 ret	 0
??1?$_Filebuf_Tmp_Buf@D@_STL@@QAE@XZ ENDP		; _STL::_Filebuf_Tmp_Buf<char>::~_Filebuf_Tmp_Buf<char>
; Function compile flags: /Ogsy
_TEXT	ENDS
;	COMDAT ?_M_seek_return@?$basic_filebuf@DV?$char_traits@D@_STL@@@_STL@@AAE?AV?$fpos@H@2@JH@Z
_TEXT	SEGMENT
___$ReturnUdt$ = 8					; size = 4
___off$ = 12						; size = 4
___state$ = 16						; size = 4
?_M_seek_return@?$basic_filebuf@DV?$char_traits@D@_STL@@@_STL@@AAE?AV?$fpos@H@2@JH@Z PROC NEAR ; _STL::basic_filebuf<char,_STL::char_traits<char> >::_M_seek_return, COMDAT
; _this$ = ecx

; 265  :   pos_type _M_seek_return(off_type __off, _State_type __state) {

  00000	56		 push	 esi
  00001	57		 push	 edi

; 266  :     if (__off != -1) {

  00002	8b 7c 24 10	 mov	 edi, DWORD PTR ___off$[esp+4]
  00006	83 ff ff	 cmp	 edi, -1
  00009	8b f1		 mov	 esi, ecx
  0000b	74 30		 je	 SHORT $L106922
  0000d	53		 push	 ebx

; 267  :       if (_M_in_input_mode)

  0000e	33 db		 xor	 ebx, ebx
  00010	38 5e 67	 cmp	 BYTE PTR [esi+103], bl
  00013	74 05		 je	 SHORT $L104385

; 268  :         _M_exit_input_mode();

  00015	e8 00 00 00 00	 call	 ?_M_exit_input_mode@?$basic_filebuf@DV?$char_traits@D@_STL@@@_STL@@AAEXXZ ; _STL::basic_filebuf<char,_STL::char_traits<char> >::_M_exit_input_mode
$L104385:

; 269  :       _M_in_input_mode = false;
; 270  :       _M_in_output_mode = false;
; 271  :       _M_in_putback_mode = false;
; 272  :       _M_in_error_mode = false;
; 273  :       this->setg(0, 0, 0);

  0001a	8b 46 04	 mov	 eax, DWORD PTR [esi+4]
  0001d	88 5e 67	 mov	 BYTE PTR [esi+103], bl
  00020	88 5e 68	 mov	 BYTE PTR [esi+104], bl
  00023	88 5e 6a	 mov	 BYTE PTR [esi+106], bl
  00026	88 5e 69	 mov	 BYTE PTR [esi+105], bl
  00029	89 58 08	 mov	 DWORD PTR [eax+8], ebx
  0002c	89 18		 mov	 DWORD PTR [eax], ebx
  0002e	89 58 04	 mov	 DWORD PTR [eax+4], ebx

; 274  :       this->setp(0, 0);

  00031	8b 76 08	 mov	 esi, DWORD PTR [esi+8]
  00034	89 5e 08	 mov	 DWORD PTR [esi+8], ebx
  00037	89 1e		 mov	 DWORD PTR [esi], ebx
  00039	89 5e 04	 mov	 DWORD PTR [esi+4], ebx
  0003c	5b		 pop	 ebx
$L106922:

; 275  :     }
; 276  :     
; 277  :     pos_type __result(__off);
; 278  :     __result.state(__state);
; 279  :     return __result;

  0003d	8b 44 24 0c	 mov	 eax, DWORD PTR ___$ReturnUdt$[esp+4]
  00041	8b 4c 24 14	 mov	 ecx, DWORD PTR ___state$[esp+4]
  00045	89 38		 mov	 DWORD PTR [eax], edi
  00047	5f		 pop	 edi
  00048	89 48 04	 mov	 DWORD PTR [eax+4], ecx
  0004b	5e		 pop	 esi

; 280  :   }

  0004c	c2 0c 00	 ret	 12			; 0000000cH
?_M_seek_return@?$basic_filebuf@DV?$char_traits@D@_STL@@@_STL@@AAE?AV?$fpos@H@2@JH@Z ENDP ; _STL::basic_filebuf<char,_STL::char_traits<char> >::_M_seek_return
_TEXT	ENDS
PUBLIC	?_M_exit_putback_mode@?$basic_filebuf@DV?$char_traits@D@_STL@@@_STL@@AAEXXZ ; _STL::basic_filebuf<char,_STL::char_traits<char> >::_M_exit_putback_mode
; Function compile flags: /Ogsy
; File c:\stlport-4.6.1\stlport\stl\_fstream.c
;	COMDAT ?_M_seek_init@?$basic_filebuf@DV?$char_traits@D@_STL@@@_STL@@AAE_N_N@Z
_TEXT	SEGMENT
___do_unshift$ = 8					; size = 1
?_M_seek_init@?$basic_filebuf@DV?$char_traits@D@_STL@@@_STL@@AAE_N_N@Z PROC NEAR ; _STL::basic_filebuf<char,_STL::char_traits<char> >::_M_seek_init, COMDAT
; _this$ = ecx

; 699  : bool basic_filebuf<_CharT, _Traits>::_M_seek_init(bool __do_unshift) {

  00000	53		 push	 ebx
  00001	56		 push	 esi
  00002	8b f1		 mov	 esi, ecx

; 700  :   // If we're in error mode, leave it.
; 701  :    _M_in_error_mode = false;

  00004	33 db		 xor	 ebx, ebx

; 702  :    
; 703  :   // Flush the output buffer if we're in output mode, and (conditionally)
; 704  :   // emit an unshift sequence.
; 705  :   if (_M_in_output_mode) {

  00006	38 5e 68	 cmp	 BYTE PTR [esi+104], bl
  00009	88 5e 69	 mov	 BYTE PTR [esi+105], bl
  0000c	74 3e		 je	 SHORT $L104613

; 706  :     bool __ok = !traits_type::eq_int_type(this->overflow(traits_type::eof()),
; 707  :                                           traits_type::eof());

  0000e	8b 06		 mov	 eax, DWORD PTR [esi]
  00010	6a ff		 push	 -1
  00012	ff 50 30	 call	 DWORD PTR [eax+48]
  00015	83 f8 ff	 cmp	 eax, -1
  00018	0f 95 c0	 setne	 al

; 708  :     if (__do_unshift)

  0001b	38 5c 24 0c	 cmp	 BYTE PTR ___do_unshift$[esp+4], bl
  0001f	74 11		 je	 SHORT $L106940

; 709  :       __ok = __ok && this->_M_unshift();

  00021	3a c3		 cmp	 al, bl
  00023	74 0b		 je	 SHORT $L106939
  00025	8b ce		 mov	 ecx, esi
  00027	e8 00 00 00 00	 call	 ?_M_unshift@?$basic_filebuf@DV?$char_traits@D@_STL@@@_STL@@AAE_NXZ ; _STL::basic_filebuf<char,_STL::char_traits<char> >::_M_unshift
  0002c	84 c0		 test	 al, al
  0002e	75 1c		 jne	 SHORT $L104613
$L106939:
  00030	32 c0		 xor	 al, al
$L106940:

; 710  :     if (!__ok) {

  00032	3a c3		 cmp	 al, bl
  00034	75 16		 jne	 SHORT $L104613

; 711  :       _M_in_output_mode = false;

  00036	88 5e 68	 mov	 BYTE PTR [esi+104], bl

; 712  :       _M_in_error_mode = true;

  00039	c6 46 69 01	 mov	 BYTE PTR [esi+105], 1

; 713  :       this->setp(0, 0);

  0003d	8b 76 08	 mov	 esi, DWORD PTR [esi+8]
  00040	89 5e 08	 mov	 DWORD PTR [esi+8], ebx
  00043	89 1e		 mov	 DWORD PTR [esi], ebx
  00045	89 5e 04	 mov	 DWORD PTR [esi+4], ebx

; 714  :       return false;

  00048	32 c0		 xor	 al, al
  0004a	eb 13		 jmp	 SHORT $L104607
$L104613:

; 715  :     }
; 716  :   }
; 717  : 
; 718  :   // Discard putback characters, if any.
; 719  :   if (_M_in_input_mode && _M_in_putback_mode)

  0004c	38 5e 67	 cmp	 BYTE PTR [esi+103], bl
  0004f	74 0c		 je	 SHORT $L104614
  00051	38 5e 6a	 cmp	 BYTE PTR [esi+106], bl
  00054	74 07		 je	 SHORT $L104614

; 720  :     _M_exit_putback_mode();

  00056	8b ce		 mov	 ecx, esi
  00058	e8 00 00 00 00	 call	 ?_M_exit_putback_mode@?$basic_filebuf@DV?$char_traits@D@_STL@@@_STL@@AAEXXZ ; _STL::basic_filebuf<char,_STL::char_traits<char> >::_M_exit_putback_mode
$L104614:

; 721  : 
; 722  :   return true;

  0005d	b0 01		 mov	 al, 1
$L104607:
  0005f	5e		 pop	 esi
  00060	5b		 pop	 ebx

; 723  : }

  00061	c2 04 00	 ret	 4
?_M_seek_init@?$basic_filebuf@DV?$char_traits@D@_STL@@@_STL@@AAE_N_N@Z ENDP ; _STL::basic_filebuf<char,_STL::char_traits<char> >::_M_seek_init
; Function compile flags: /Ogsy
; File c:\stlport-4.6.1\stlport\stl\_fstream.h
_TEXT	ENDS
;	COMDAT ?_M_exit_putback_mode@?$basic_filebuf@DV?$char_traits@D@_STL@@@_STL@@AAEXXZ
_TEXT	SEGMENT
?_M_exit_putback_mode@?$basic_filebuf@DV?$char_traits@D@_STL@@@_STL@@AAEXXZ PROC NEAR ; _STL::basic_filebuf<char,_STL::char_traits<char> >::_M_exit_putback_mode, COMDAT
; _this$ = ecx

; 245  :     this->setg(_M_saved_eback, _M_saved_gptr, _M_saved_egptr);

  00000	8b 81 9c 00 00
	00		 mov	 eax, DWORD PTR [ecx+156]
  00006	8b 51 04	 mov	 edx, DWORD PTR [ecx+4]
  00009	56		 push	 esi
  0000a	8b b1 98 00 00
	00		 mov	 esi, DWORD PTR [ecx+152]
  00010	57		 push	 edi
  00011	8b b9 94 00 00
	00		 mov	 edi, DWORD PTR [ecx+148]
  00017	89 7a 08	 mov	 DWORD PTR [edx+8], edi
  0001a	2b c6		 sub	 eax, esi
  0001c	89 32		 mov	 DWORD PTR [edx], esi
  0001e	5f		 pop	 edi
  0001f	89 42 04	 mov	 DWORD PTR [edx+4], eax

; 246  :     _M_in_putback_mode = false;

  00022	c6 41 6a 00	 mov	 BYTE PTR [ecx+106], 0
  00026	5e		 pop	 esi

; 247  :   }

  00027	c3		 ret	 0
?_M_exit_putback_mode@?$basic_filebuf@DV?$char_traits@D@_STL@@@_STL@@AAEXXZ ENDP ; _STL::basic_filebuf<char,_STL::char_traits<char> >::_M_exit_putback_mode
; Function compile flags: /Ogsy
; File c:\stlport-4.6.1\stlport\stl\_fstream.c
_TEXT	ENDS
;	COMDAT ?seekpos@?$basic_filebuf@DV?$char_traits@D@_STL@@@_STL@@MAE?AV?$fpos@H@2@V32@H@Z
_TEXT	SEGMENT
___$ReturnUdt$ = 8					; size = 4
___pos$ = 12						; size = 8
___formal$ = 20						; size = 4
?seekpos@?$basic_filebuf@DV?$char_traits@D@_STL@@@_STL@@MAE?AV?$fpos@H@2@V32@H@Z PROC NEAR ; _STL::basic_filebuf<char,_STL::char_traits<char> >::seekpos, COMDAT
; _this$ = ecx

; 393  : {

  00000	55		 push	 ebp
  00001	8b ec		 mov	 ebp, esp
  00003	56		 push	 esi
  00004	8b f1		 mov	 esi, ecx

; 394  :   if (this->is_open()) {

  00006	80 7e 60 00	 cmp	 BYTE PTR [esi+96], 0
  0000a	74 3f		 je	 SHORT $L98936

; 395  :     if (!_M_seek_init(true))

  0000c	6a 01		 push	 1
  0000e	e8 00 00 00 00	 call	 ?_M_seek_init@?$basic_filebuf@DV?$char_traits@D@_STL@@@_STL@@AAE_N_N@Z ; _STL::basic_filebuf<char,_STL::char_traits<char> >::_M_seek_init
  00013	84 c0		 test	 al, al

; 396  :       return pos_type(-1);

  00015	74 34		 je	 SHORT $L98936

; 397  : 
; 398  :     streamoff __off = off_type(__pos);
; 399  :     if (__off != -1 && _M_base._M_seek(__off, ios_base::beg) != -1) {

  00017	83 7d 0c ff	 cmp	 DWORD PTR ___pos$[ebp], -1
  0001b	74 2e		 je	 SHORT $L98936
  0001d	6a 01		 push	 1
  0001f	ff 75 0c	 push	 DWORD PTR ___pos$[ebp]
  00022	8d 4e 54	 lea	 ecx, DWORD PTR [esi+84]
  00025	e8 00 00 00 00	 call	 ?_M_seek@_Filebuf_base@_STL@@QAEJJH@Z ; _STL::_Filebuf_base::_M_seek
  0002a	83 f8 ff	 cmp	 eax, -1
  0002d	74 1c		 je	 SHORT $L98936

; 400  :       _M_state = __pos.state();

  0002f	8b 45 10	 mov	 eax, DWORD PTR ___pos$[ebp+4]

; 401  :       return _M_seek_return(__off, __pos.state());

  00032	50		 push	 eax
  00033	ff 75 0c	 push	 DWORD PTR ___pos$[ebp]
  00036	8b ce		 mov	 ecx, esi
  00038	ff 75 08	 push	 DWORD PTR ___$ReturnUdt$[ebp]
  0003b	89 86 84 00 00
	00		 mov	 DWORD PTR [esi+132], eax
  00041	e8 00 00 00 00	 call	 ?_M_seek_return@?$basic_filebuf@DV?$char_traits@D@_STL@@@_STL@@AAE?AV?$fpos@H@2@JH@Z ; _STL::basic_filebuf<char,_STL::char_traits<char> >::_M_seek_return
  00046	8b 45 08	 mov	 eax, DWORD PTR ___$ReturnUdt$[ebp]
  00049	eb 0a		 jmp	 SHORT $L98944
$L98936:

; 402  :     }
; 403  :     else
; 404  :       return pos_type(-1);
; 405  :   }
; 406  :   else
; 407  :     return pos_type(-1);

  0004b	8b 45 08	 mov	 eax, DWORD PTR ___$ReturnUdt$[ebp]
  0004e	83 08 ff	 or	 DWORD PTR [eax], -1
  00051	83 60 04 00	 and	 DWORD PTR [eax+4], 0
$L98944:
  00055	5e		 pop	 esi

; 408  : }

  00056	5d		 pop	 ebp
  00057	c2 10 00	 ret	 16			; 00000010H
?seekpos@?$basic_filebuf@DV?$char_traits@D@_STL@@@_STL@@MAE?AV?$fpos@H@2@V32@H@Z ENDP ; _STL::basic_filebuf<char,_STL::char_traits<char> >::seekpos
; Function compile flags: /Ogsy
_TEXT	ENDS
;	COMDAT ??_G?$basic_filebuf@DV?$char_traits@D@_STL@@@_STL@@UAEPAXI@Z
_TEXT	SEGMENT
___flags$ = 8						; size = 4
??_G?$basic_filebuf@DV?$char_traits@D@_STL@@@_STL@@UAEPAXI@Z PROC NEAR ; _STL::basic_filebuf<char,_STL::char_traits<char> >::`scalar deleting destructor', COMDAT
; _this$ = ecx
  00000	56		 push	 esi
  00001	8b f1		 mov	 esi, ecx
  00003	e8 00 00 00 00	 call	 ??1?$basic_filebuf@DV?$char_traits@D@_STL@@@_STL@@UAE@XZ ; _STL::basic_filebuf<char,_STL::char_traits<char> >::~basic_filebuf<char,_STL::char_traits<char> >
  00008	f6 44 24 08 01	 test	 BYTE PTR ___flags$[esp], 1
  0000d	74 07		 je	 SHORT $L99020
  0000f	56		 push	 esi
  00010	e8 00 00 00 00	 call	 ??3@YAXPAX@Z		; operator delete
  00015	59		 pop	 ecx
$L99020:
  00016	8b c6		 mov	 eax, esi
  00018	5e		 pop	 esi
  00019	c2 04 00	 ret	 4
??_G?$basic_filebuf@DV?$char_traits@D@_STL@@@_STL@@UAEPAXI@Z ENDP ; _STL::basic_filebuf<char,_STL::char_traits<char> >::`scalar deleting destructor'
_TEXT	ENDS
PUBLIC	??_R4?$basic_ofstream@DV?$char_traits@D@_STL@@@_STL@@6B@ ; _STL::basic_ofstream<char,_STL::char_traits<char> >::`RTTI Complete Object Locator'
PUBLIC	??_R0?AV?$basic_ofstream@DV?$char_traits@D@_STL@@@_STL@@@8 ; _STL::basic_ofstream<char,_STL::char_traits<char> > `RTTI Type Descriptor'
PUBLIC	??_R3?$basic_ofstream@DV?$char_traits@D@_STL@@@_STL@@8 ; _STL::basic_ofstream<char,_STL::char_traits<char> >::`RTTI Class Hierarchy Descriptor'
PUBLIC	??_R2?$basic_ofstream@DV?$char_traits@D@_STL@@@_STL@@8 ; _STL::basic_ofstream<char,_STL::char_traits<char> >::`RTTI Base Class Array'
PUBLIC	??_R1A@?0A@A@?$basic_ofstream@DV?$char_traits@D@_STL@@@_STL@@8 ; _STL::basic_ofstream<char,_STL::char_traits<char> >::`RTTI Base Class Descriptor at (0,-1,0,0)'
PUBLIC	??1?$basic_ofstream@DV?$char_traits@D@_STL@@@_STL@@UAE@XZ ; _STL::basic_ofstream<char,_STL::char_traits<char> >::~basic_ofstream<char,_STL::char_traits<char> >
PUBLIC	??_7?$basic_ofstream@DV?$char_traits@D@_STL@@@_STL@@6B@ ; _STL::basic_ofstream<char,_STL::char_traits<char> >::`vftable'
PUBLIC	??_G?$basic_ofstream@DV?$char_traits@D@_STL@@@_STL@@UAEPAXI@Z ; _STL::basic_ofstream<char,_STL::char_traits<char> >::`scalar deleting destructor'
EXTRN	??_E?$basic_ofstream@DV?$char_traits@D@_STL@@@_STL@@UAEPAXI@Z:NEAR ; _STL::basic_ofstream<char,_STL::char_traits<char> >::`vector deleting destructor'
;	COMDAT xdata$x
; File c:\stlport-4.6.1\stlport\stl\_ostream.c
xdata$x	SEGMENT
$T107039 DD	0ffffffffH
	DD	FLAT:$L107030
$T107037 DD	019930520H
	DD	01H
	DD	FLAT:$T107039
	DD	2 DUP(00H)
	DD	2 DUP(00H)
xdata$x	ENDS
;	COMDAT ??_7?$basic_ofstream@DV?$char_traits@D@_STL@@@_STL@@6B@
CONST	SEGMENT
??_7?$basic_ofstream@DV?$char_traits@D@_STL@@@_STL@@6B@ DD FLAT:??_R4?$basic_ofstream@DV?$char_traits@D@_STL@@@_STL@@6B@ ; _STL::basic_ofstream<char,_STL::char_traits<char> >::`vftable'
	DD	FLAT:??_E?$basic_ofstream@DV?$char_traits@D@_STL@@@_STL@@UAEPAXI@Z
CONST	ENDS
;	COMDAT ??_R4?$basic_ofstream@DV?$char_traits@D@_STL@@@_STL@@6B@
rdata$r	SEGMENT
??_R4?$basic_ofstream@DV?$char_traits@D@_STL@@@_STL@@6B@ DD 00H ; _STL::basic_ofstream<char,_STL::char_traits<char> >::`RTTI Complete Object Locator'
	DD	0b8H
	DD	00H
	DD	FLAT:??_R0?AV?$basic_ofstream@DV?$char_traits@D@_STL@@@_STL@@@8
	DD	FLAT:??_R3?$basic_ofstream@DV?$char_traits@D@_STL@@@_STL@@8
rdata$r	ENDS
;	COMDAT ??_R0?AV?$basic_ofstream@DV?$char_traits@D@_STL@@@_STL@@@8
_DATA	SEGMENT
??_R0?AV?$basic_ofstream@DV?$char_traits@D@_STL@@@_STL@@@8 DD FLAT:??_7type_info@@6B@ ; _STL::basic_ofstream<char,_STL::char_traits<char> > `RTTI Type Descriptor'
	DD	00H
	DB	'.?AV?$basic_ofstream@DV?$char_traits@D@_STL@@@_STL@@', 00H
_DATA	ENDS
;	COMDAT ??_R3?$basic_ofstream@DV?$char_traits@D@_STL@@@_STL@@8
rdata$r	SEGMENT
??_R3?$basic_ofstream@DV?$char_traits@D@_STL@@@_STL@@8 DD 00H ; _STL::basic_ofstream<char,_STL::char_traits<char> >::`RTTI Class Hierarchy Descriptor'
	DD	00H
	DD	04H
	DD	FLAT:??_R2?$basic_ofstream@DV?$char_traits@D@_STL@@@_STL@@8
rdata$r	ENDS
;	COMDAT ??_R2?$basic_ofstream@DV?$char_traits@D@_STL@@@_STL@@8
rdata$r	SEGMENT
??_R2?$basic_ofstream@DV?$char_traits@D@_STL@@@_STL@@8 DD FLAT:??_R1A@?0A@A@?$basic_ofstream@DV?$char_traits@D@_STL@@@_STL@@8 ; _STL::basic_ofstream<char,_STL::char_traits<char> >::`RTTI Base Class Array'
	DD	FLAT:??_R1A@?0A@A@?$basic_ostream@DV?$char_traits@D@_STL@@@_STL@@8
	DD	FLAT:??_R1A@A@3BA@?$basic_ios@DV?$char_traits@D@_STL@@@_STL@@8
	DD	FLAT:??_R1A@A@3A@ios_base@_STL@@8
rdata$r	ENDS
;	COMDAT ??_R1A@?0A@A@?$basic_ofstream@DV?$char_traits@D@_STL@@@_STL@@8
rdata$r	SEGMENT
??_R1A@?0A@A@?$basic_ofstream@DV?$char_traits@D@_STL@@@_STL@@8 DD FLAT:??_R0?AV?$basic_ofstream@DV?$char_traits@D@_STL@@@_STL@@@8 ; _STL::basic_ofstream<char,_STL::char_traits<char> >::`RTTI Base Class Descriptor at (0,-1,0,0)'
	DD	03H
	DD	00H
	DD	0ffffffffH
	DD	00H
	DD	00H
; Function compile flags: /Ogsy
; File c:\stlport-4.6.1\stlport\stl\_fstream.h
rdata$r	ENDS
;	COMDAT ??1?$basic_ofstream@DV?$char_traits@D@_STL@@@_STL@@UAE@XZ
_TEXT	SEGMENT
_this$ = -16						; size = 4
__$EHRec$ = -12						; size = 12
??1?$basic_ofstream@DV?$char_traits@D@_STL@@@_STL@@UAE@XZ PROC NEAR ; _STL::basic_ofstream<char,_STL::char_traits<char> >::~basic_ofstream<char,_STL::char_traits<char> >, COMDAT
; _this$ = ecx

; 616  :   ~basic_ofstream() {}

  00000	b8 00 00 00 00	 mov	 eax, __ehhandler$??1?$basic_ofstream@DV?$char_traits@D@_STL@@@_STL@@UAE@XZ
  00005	e8 00 00 00 00	 call	 __EH_prolog
  0000a	51		 push	 ecx
  0000b	8b 81 48 ff ff
	ff		 mov	 eax, DWORD PTR [ecx-184]
  00011	8b 40 04	 mov	 eax, DWORD PTR [eax+4]
  00014	56		 push	 esi
  00015	89 4d f0	 mov	 DWORD PTR _this$[ebp], ecx
  00018	c7 84 08 48 ff
	ff ff 00 00 00
	00		 mov	 DWORD PTR [eax+ecx-184], OFFSET FLAT:??_7?$basic_ofstream@DV?$char_traits@D@_STL@@@_STL@@6B@
  00023	83 65 fc 00	 and	 DWORD PTR __$EHRec$[ebp+8], 0
  00027	8d b1 4c ff ff
	ff		 lea	 esi, DWORD PTR [ecx-180]
  0002d	8b ce		 mov	 ecx, esi
  0002f	e8 00 00 00 00	 call	 ??1?$basic_filebuf@DV?$char_traits@D@_STL@@@_STL@@UAE@XZ ; _STL::basic_filebuf<char,_STL::char_traits<char> >::~basic_filebuf<char,_STL::char_traits<char> >
  00034	8b 46 fc	 mov	 eax, DWORD PTR [esi-4]
  00037	8b 40 04	 mov	 eax, DWORD PTR [eax+4]
  0003a	8b 4d f4	 mov	 ecx, DWORD PTR __$EHRec$[ebp]
  0003d	c7 44 30 fc 00
	00 00 00	 mov	 DWORD PTR [eax+esi-4], OFFSET FLAT:??_7?$basic_ostream@DV?$char_traits@D@_STL@@@_STL@@6B@
  00045	5e		 pop	 esi
  00046	64 89 0d 00 00
	00 00		 mov	 DWORD PTR fs:__except_list, ecx
  0004d	c9		 leave
  0004e	c3		 ret	 0
_TEXT	ENDS
;	COMDAT text$x
text$x	SEGMENT
$L107030:
  00000	8b 4d f0	 mov	 ecx, DWORD PTR _this$[ebp]
  00003	81 e9 b4 00 00
	00		 sub	 ecx, 180		; 000000b4H
  00009	e9 00 00 00 00	 jmp	 ??1?$basic_ostream@DV?$char_traits@D@_STL@@@_STL@@UAE@XZ ; _STL::basic_ostream<char,_STL::char_traits<char> >::~basic_ostream<char,_STL::char_traits<char> >
__ehhandler$??1?$basic_ofstream@DV?$char_traits@D@_STL@@@_STL@@UAE@XZ:
  0000e	b8 00 00 00 00	 mov	 eax, OFFSET FLAT:$T107037
  00013	e9 00 00 00 00	 jmp	 ___CxxFrameHandler
text$x	ENDS
??1?$basic_ofstream@DV?$char_traits@D@_STL@@@_STL@@UAE@XZ ENDP ; _STL::basic_ofstream<char,_STL::char_traits<char> >::~basic_ofstream<char,_STL::char_traits<char> >
PUBLIC	?close@?$basic_ofstream@DV?$char_traits@D@_STL@@@_STL@@QAEXXZ ; _STL::basic_ofstream<char,_STL::char_traits<char> >::close
; Function compile flags: /Ogsy
;	COMDAT ?close@?$basic_ofstream@DV?$char_traits@D@_STL@@@_STL@@QAEXXZ
_TEXT	SEGMENT
?close@?$basic_ofstream@DV?$char_traits@D@_STL@@@_STL@@QAEXXZ PROC NEAR ; _STL::basic_ofstream<char,_STL::char_traits<char> >::close, COMDAT
; _this$ = ecx

; 631  :   void close() {

  00000	56		 push	 esi
  00001	8b f1		 mov	 esi, ecx

; 632  :     if (!this->rdbuf()->close())

  00003	8d 4e 04	 lea	 ecx, DWORD PTR [esi+4]
  00006	e8 00 00 00 00	 call	 ?close@?$basic_filebuf@DV?$char_traits@D@_STL@@@_STL@@QAEPAV12@XZ ; _STL::basic_filebuf<char,_STL::char_traits<char> >::close
  0000b	85 c0		 test	 eax, eax
  0000d	75 13		 jne	 SHORT $L107055

; 633  :       this->setstate(ios_base::failbit);

  0000f	8b 06		 mov	 eax, DWORD PTR [esi]
  00011	8b 48 04	 mov	 ecx, DWORD PTR [eax+4]
  00014	03 ce		 add	 ecx, esi
  00016	8b 41 08	 mov	 eax, DWORD PTR [ecx+8]
  00019	83 c8 04	 or	 eax, 4
  0001c	50		 push	 eax
  0001d	e8 00 00 00 00	 call	 ?clear@?$basic_ios@DV?$char_traits@D@_STL@@@_STL@@QAEXH@Z ; _STL::basic_ios<char,_STL::char_traits<char> >::clear
$L107055:
  00022	5e		 pop	 esi

; 634  :   }

  00023	c3		 ret	 0
?close@?$basic_ofstream@DV?$char_traits@D@_STL@@@_STL@@QAEXXZ ENDP ; _STL::basic_ofstream<char,_STL::char_traits<char> >::close
_TEXT	ENDS
PUBLIC	??0sentry@?$basic_ostream@DV?$char_traits@D@_STL@@@_STL@@QAE@AAV12@@Z ; _STL::basic_ostream<char,_STL::char_traits<char> >::sentry::sentry
; Function compile flags: /Ogsy
; File c:\stlport-4.6.1\stlport\stl\_ostream.h
;	COMDAT ??0sentry@?$basic_ostream@DV?$char_traits@D@_STL@@@_STL@@QAE@AAV12@@Z
_TEXT	SEGMENT
___str$ = 8						; size = 4
??0sentry@?$basic_ostream@DV?$char_traits@D@_STL@@@_STL@@QAE@AAV12@@Z PROC NEAR ; _STL::basic_ostream<char,_STL::char_traits<char> >::sentry::sentry, COMDAT
; _this$ = ecx

; 165  :       {

  00000	8b 44 24 04	 mov	 eax, DWORD PTR ___str$[esp-4]
  00004	56		 push	 esi
  00005	8b f1		 mov	 esi, ecx
  00007	50		 push	 eax
  00008	89 06		 mov	 DWORD PTR [esi], eax
  0000a	e8 00 00 00 00	 call	 ??$_M_init@DV?$char_traits@D@_STL@@@_STL@@YA_NAAV?$basic_ostream@DV?$char_traits@D@_STL@@@0@@Z ; _STL::_M_init<char,_STL::char_traits<char> >
  0000f	88 46 04	 mov	 BYTE PTR [esi+4], al
  00012	59		 pop	 ecx

; 166  :       }

  00013	8b c6		 mov	 eax, esi
  00015	5e		 pop	 esi
  00016	c2 04 00	 ret	 4
??0sentry@?$basic_ostream@DV?$char_traits@D@_STL@@@_STL@@QAE@AAV12@@Z ENDP ; _STL::basic_ostream<char,_STL::char_traits<char> >::sentry::sentry
_TEXT	ENDS
PUBLIC	??1sentry@?$basic_ostream@DV?$char_traits@D@_STL@@@_STL@@QAE@XZ ; _STL::basic_ostream<char,_STL::char_traits<char> >::sentry::~sentry
; Function compile flags: /Ogsy
;	COMDAT ??1sentry@?$basic_ostream@DV?$char_traits@D@_STL@@@_STL@@QAE@XZ
_TEXT	SEGMENT
??1sentry@?$basic_ostream@DV?$char_traits@D@_STL@@@_STL@@QAE@XZ PROC NEAR ; _STL::basic_ostream<char,_STL::char_traits<char> >::sentry::~sentry, COMDAT
; _this$ = ecx

; 169  :         if (_M_str.flags() & ios_base::unitbuf)

  00000	8b 09		 mov	 ecx, DWORD PTR [ecx]
  00002	8b 01		 mov	 eax, DWORD PTR [ecx]
  00004	8b 40 04	 mov	 eax, DWORD PTR [eax+4]
  00007	f6 44 08 05 20	 test	 BYTE PTR [eax+ecx+5], 32 ; 00000020H
  0000c	74 05		 je	 SHORT $L104705

; 170  : # ifndef _STLP_INCOMPLETE_EXCEPTION_HEADER 
; 171  :           if (!_STLP_VENDOR_EXCEPT_STD::uncaught_exception())
; 172  : # endif
; 173  :             _M_str.flush();

  0000e	e9 00 00 00 00	 jmp	 ?flush@?$basic_ostream@DV?$char_traits@D@_STL@@@_STL@@QAEAAV12@XZ ; _STL::basic_ostream<char,_STL::char_traits<char> >::flush
$L104705:

; 174  :       }

  00013	c3		 ret	 0
??1sentry@?$basic_ostream@DV?$char_traits@D@_STL@@@_STL@@QAE@XZ ENDP ; _STL::basic_ostream<char,_STL::char_traits<char> >::sentry::~sentry
_TEXT	ENDS
PUBLIC	??$uninitialized_copy@PADPAD@_STL@@YAPADPAD00@Z	; _STL::uninitialized_copy<char *,char *>
; Function compile flags: /Ogsy
; File c:\stlport-4.6.1\stlport\stl\_uninitialized.h
;	COMDAT ??$uninitialized_copy@PADPAD@_STL@@YAPADPAD00@Z
_TEXT	SEGMENT
___first$ = 8						; size = 4
___last$ = 12						; size = 4
___result$ = 16						; size = 4
??$uninitialized_copy@PADPAD@_STL@@YAPADPAD00@Z PROC NEAR ; _STL::uninitialized_copy<char *,char *>, COMDAT

; 79   :   return __uninitialized_copy(__first, __last, __result,  _IS_POD_ITER(__result, _ForwardIter));

  00000	e9 00 00 00 00	 jmp	 ?__copy_trivial@_STL@@YAPAXPBX0PAX@Z ; _STL::__copy_trivial
??$uninitialized_copy@PADPAD@_STL@@YAPADPAD00@Z ENDP	; _STL::uninitialized_copy<char *,char *>
_TEXT	ENDS
PUBLIC	??$append@PBD@?$basic_string@DV?$char_traits@D@_STL@@V?$allocator@D@2@@_STL@@AAEAAV01@PBD0ABUforward_iterator_tag@1@@Z ; _STL::basic_string<char,_STL::char_traits<char>,_STL::allocator<char> >::append<char const *>
; Function compile flags: /Ogsy
; File c:\stlport-4.6.1\stlport\stl\_string.h
;	COMDAT ??$append@PBD@?$basic_string@DV?$char_traits@D@_STL@@V?$allocator@D@2@@_STL@@AAEAAV01@PBD0ABUforward_iterator_tag@1@@Z
_TEXT	SEGMENT
___len$104915 = -8					; size = 4
___old_size$104908 = -8					; size = 4
$T107128 = -4						; size = 4
___first$ = 8						; size = 4
___last$ = 12						; size = 4
___formal$ = 16						; size = 4
??$append@PBD@?$basic_string@DV?$char_traits@D@_STL@@V?$allocator@D@2@@_STL@@AAEAAV01@PBD0ABUforward_iterator_tag@1@@Z PROC NEAR ; _STL::basic_string<char,_STL::char_traits<char>,_STL::allocator<char> >::append<char const *>, COMDAT
; _this$ = ecx

; 542  :   template <class _ForwardIter> _Self& append(_ForwardIter __first, _ForwardIter __last, 

  00000	55		 push	 ebp
  00001	8b ec		 mov	 ebp, esp
  00003	51		 push	 ecx
  00004	51		 push	 ecx
  00005	56		 push	 esi
  00006	57		 push	 edi

; 543  :                        const forward_iterator_tag &)  {
; 544  :     if (__first != __last) {

  00007	8b 7d 0c	 mov	 edi, DWORD PTR ___last$[ebp]
  0000a	39 7d 08	 cmp	 DWORD PTR ___first$[ebp], edi
  0000d	8b f1		 mov	 esi, ecx
  0000f	0f 84 b6 00 00
	00		 je	 $L104926

; 545  : 	    const size_type __old_size = size();
; 546  : 	    difference_type __n = distance(__first, __last);

  00015	2b 7d 08	 sub	 edi, DWORD PTR ___first$[ebp]
  00018	53		 push	 ebx
  00019	8b 5e 04	 mov	 ebx, DWORD PTR [esi+4]
  0001c	2b 1e		 sub	 ebx, DWORD PTR [esi]

; 547  : 	    if (__STATIC_CAST(size_type,__n) > max_size() || __old_size > max_size() - __STATIC_CAST(size_type,__n))

  0001e	83 ff fe	 cmp	 edi, -2			; fffffffeH
  00021	89 5d f8	 mov	 DWORD PTR ___old_size$104908[ebp], ebx
  00024	77 09		 ja	 SHORT $L104913
  00026	6a fe		 push	 -2			; fffffffeH
  00028	58		 pop	 eax
  00029	2b c7		 sub	 eax, edi
  0002b	3b d8		 cmp	 ebx, eax
  0002d	76 07		 jbe	 SHORT $L104912
$L104913:

; 548  : 	      this->_M_throw_length_error();

  0002f	8b ce		 mov	 ecx, esi
  00031	e8 00 00 00 00	 call	 ?_M_throw_length_error@?$_String_base@DV?$allocator@D@_STL@@@_STL@@QBEXXZ ; _STL::_String_base<char,_STL::allocator<char> >::_M_throw_length_error
$L104912:

; 549  : 	    if (__old_size + __n > capacity()) {

  00036	8b 46 08	 mov	 eax, DWORD PTR [esi+8]
  00039	2b 06		 sub	 eax, DWORD PTR [esi]
  0003b	8d 0c 1f	 lea	 ecx, DWORD PTR [edi+ebx]
  0003e	48		 dec	 eax
  0003f	3b c8		 cmp	 ecx, eax
  00041	76 5e		 jbe	 SHORT $L104914

; 550  : 	      const size_type __len = __old_size +
; 551  : 	                            (max)(__old_size, __STATIC_CAST(size_type,__n)) + 1;

  00043	3b df		 cmp	 ebx, edi
  00045	89 7d fc	 mov	 DWORD PTR $T107128[ebp], edi
  00048	8d 45 fc	 lea	 eax, DWORD PTR $T107128[ebp]
  0004b	72 03		 jb	 SHORT $L107173
  0004d	8d 45 f8	 lea	 eax, DWORD PTR ___old_size$104908[ebp]
$L107173:
  00050	8b 00		 mov	 eax, DWORD PTR [eax]
  00052	8d 5c 18 01	 lea	 ebx, DWORD PTR [eax+ebx+1]

; 552  : 	      pointer __new_start = this->_M_end_of_storage.allocate(__len);

  00056	85 db		 test	 ebx, ebx
  00058	89 5d f8	 mov	 DWORD PTR ___len$104915[ebp], ebx
  0005b	74 0b		 je	 SHORT $L107178
  0005d	53		 push	 ebx
  0005e	e8 00 00 00 00	 call	 ?allocate@?$__node_alloc@$00$0A@@_STL@@SAPAXI@Z ; _STL::__node_alloc<1,0>::allocate
  00063	59		 pop	 ecx
  00064	8b f8		 mov	 edi, eax
  00066	eb 02		 jmp	 SHORT $L107179
$L107178:
  00068	33 ff		 xor	 edi, edi
$L107179:

; 553  : 	      pointer __new_finish = __new_start;
; 554  : 	      _STLP_TRY {
; 555  : 	        __new_finish = uninitialized_copy(this->_M_start, this->_M_finish, __new_start);

  0006a	8b 46 04	 mov	 eax, DWORD PTR [esi+4]
  0006d	8b 0e		 mov	 ecx, DWORD PTR [esi]
  0006f	57		 push	 edi
  00070	50		 push	 eax
  00071	51		 push	 ecx
  00072	e8 00 00 00 00	 call	 ?__copy_trivial@_STL@@YAPAXPBX0PAX@Z ; _STL::__copy_trivial

; 556  : 	        __new_finish = uninitialized_copy(__first, __last, __new_finish);

  00077	50		 push	 eax
  00078	ff 75 0c	 push	 DWORD PTR ___last$[ebp]
  0007b	ff 75 08	 push	 DWORD PTR ___first$[ebp]
  0007e	e8 00 00 00 00	 call	 ?__copy_trivial@_STL@@YAPAXPBX0PAX@Z ; _STL::__copy_trivial
  00083	8b d8		 mov	 ebx, eax
  00085	83 c4 18	 add	 esp, 24			; 00000018H

; 557  : 	        _M_construct_null(__new_finish);
; 558  : 	      }
; 559  : 	      _STLP_UNWIND((_STLP_STD::_Destroy(__new_start,__new_finish),
; 560  : 	                    this->_M_end_of_storage.deallocate(__new_start,__len)));
; 561  : 	      _STLP_STD::_Destroy(this->_M_start, this->_M_finish + 1);
; 562  : 	      this->_M_deallocate_block();

  00088	8b ce		 mov	 ecx, esi
  0008a	c6 03 00	 mov	 BYTE PTR [ebx], 0
  0008d	e8 00 00 00 00	 call	 ?_M_deallocate_block@?$_String_base@DV?$allocator@D@_STL@@@_STL@@QAEXXZ ; _STL::_String_base<char,_STL::allocator<char> >::_M_deallocate_block

; 563  : 	      this->_M_start = __new_start;
; 564  : 	      this->_M_finish = __new_finish;
; 565  : 	      this->_M_end_of_storage._M_data = __new_start + __len; 

  00092	8b 45 f8	 mov	 eax, DWORD PTR ___len$104915[ebp]
  00095	89 3e		 mov	 DWORD PTR [esi], edi
  00097	03 f8		 add	 edi, eax
  00099	89 5e 04	 mov	 DWORD PTR [esi+4], ebx
  0009c	89 7e 08	 mov	 DWORD PTR [esi+8], edi

; 566  : 	    }
; 567  : 	    else {

  0009f	eb 29		 jmp	 SHORT $L107309
$L104914:

; 568  : 	      _ForwardIter __f1 = __first;
; 569  : 	      ++__f1;
; 570  : 	      uninitialized_copy(__f1, __last, this->_M_finish + 1);

  000a1	8b 46 04	 mov	 eax, DWORD PTR [esi+4]
  000a4	40		 inc	 eax
  000a5	50		 push	 eax
  000a6	8b 45 08	 mov	 eax, DWORD PTR ___first$[ebp]
  000a9	ff 75 0c	 push	 DWORD PTR ___last$[ebp]
  000ac	40		 inc	 eax
  000ad	50		 push	 eax
  000ae	e8 00 00 00 00	 call	 ?__copy_trivial@_STL@@YAPAXPBX0PAX@Z ; _STL::__copy_trivial

; 571  : 	      _STLP_TRY {
; 572  : 	        _M_construct_null(this->_M_finish + __n);

  000b3	8b 46 04	 mov	 eax, DWORD PTR [esi+4]

; 573  : 	      }
; 574  : 	      _STLP_UNWIND(_STLP_STD::_Destroy(this->_M_finish + 1, this->_M_finish + __n));
; 575  : 	      _Traits::assign(*end(), *__first);

  000b6	8b 4d 08	 mov	 ecx, DWORD PTR ___first$[ebp]
  000b9	c6 04 07 00	 mov	 BYTE PTR [edi+eax], 0
  000bd	8b 46 04	 mov	 eax, DWORD PTR [esi+4]
  000c0	8a 09		 mov	 cl, BYTE PTR [ecx]
  000c2	83 c4 0c	 add	 esp, 12			; 0000000cH
  000c5	88 08		 mov	 BYTE PTR [eax], cl

; 576  : 	      this->_M_finish += __n;

  000c7	01 7e 04	 add	 DWORD PTR [esi+4], edi
$L107309:
  000ca	5b		 pop	 ebx
$L104926:
  000cb	5f		 pop	 edi

; 577  : 	    }
; 578  : 	  }
; 579  : 	  return *this;  

  000cc	8b c6		 mov	 eax, esi
  000ce	5e		 pop	 esi

; 580  : 	}

  000cf	c9		 leave
  000d0	c2 0c 00	 ret	 12			; 0000000cH
??$append@PBD@?$basic_string@DV?$char_traits@D@_STL@@V?$allocator@D@2@@_STL@@AAEAAV01@PBD0ABUforward_iterator_tag@1@@Z ENDP ; _STL::basic_string<char,_STL::char_traits<char>,_STL::allocator<char> >::append<char const *>
_TEXT	ENDS
PUBLIC	??$append@PAD@?$basic_string@DV?$char_traits@D@_STL@@V?$allocator@D@2@@_STL@@AAEAAV01@PAD0ABUforward_iterator_tag@1@@Z ; _STL::basic_string<char,_STL::char_traits<char>,_STL::allocator<char> >::append<char *>
; Function compile flags: /Ogsy
;	COMDAT ??$append@PAD@?$basic_string@DV?$char_traits@D@_STL@@V?$allocator@D@2@@_STL@@AAEAAV01@PAD0ABUforward_iterator_tag@1@@Z
_TEXT	SEGMENT
___len$104987 = -8					; size = 4
___old_size$104980 = -8					; size = 4
$T107312 = -4						; size = 4
___first$ = 8						; size = 4
___last$ = 12						; size = 4
___formal$ = 16						; size = 4
??$append@PAD@?$basic_string@DV?$char_traits@D@_STL@@V?$allocator@D@2@@_STL@@AAEAAV01@PAD0ABUforward_iterator_tag@1@@Z PROC NEAR ; _STL::basic_string<char,_STL::char_traits<char>,_STL::allocator<char> >::append<char *>, COMDAT
; _this$ = ecx

; 542  :   template <class _ForwardIter> _Self& append(_ForwardIter __first, _ForwardIter __last, 

  00000	55		 push	 ebp
  00001	8b ec		 mov	 ebp, esp
  00003	51		 push	 ecx
  00004	51		 push	 ecx
  00005	56		 push	 esi
  00006	57		 push	 edi

; 543  :                        const forward_iterator_tag &)  {
; 544  :     if (__first != __last) {

  00007	8b 7d 0c	 mov	 edi, DWORD PTR ___last$[ebp]
  0000a	39 7d 08	 cmp	 DWORD PTR ___first$[ebp], edi
  0000d	8b f1		 mov	 esi, ecx
  0000f	0f 84 b6 00 00
	00		 je	 $L104993

; 545  : 	    const size_type __old_size = size();
; 546  : 	    difference_type __n = distance(__first, __last);

  00015	2b 7d 08	 sub	 edi, DWORD PTR ___first$[ebp]
  00018	53		 push	 ebx
  00019	8b 5e 04	 mov	 ebx, DWORD PTR [esi+4]
  0001c	2b 1e		 sub	 ebx, DWORD PTR [esi]

; 547  : 	    if (__STATIC_CAST(size_type,__n) > max_size() || __old_size > max_size() - __STATIC_CAST(size_type,__n))

  0001e	83 ff fe	 cmp	 edi, -2			; fffffffeH
  00021	89 5d f8	 mov	 DWORD PTR ___old_size$104980[ebp], ebx
  00024	77 09		 ja	 SHORT $L104985
  00026	6a fe		 push	 -2			; fffffffeH
  00028	58		 pop	 eax
  00029	2b c7		 sub	 eax, edi
  0002b	3b d8		 cmp	 ebx, eax
  0002d	76 07		 jbe	 SHORT $L104984
$L104985:

; 548  : 	      this->_M_throw_length_error();

  0002f	8b ce		 mov	 ecx, esi
  00031	e8 00 00 00 00	 call	 ?_M_throw_length_error@?$_String_base@DV?$allocator@D@_STL@@@_STL@@QBEXXZ ; _STL::_String_base<char,_STL::allocator<char> >::_M_throw_length_error
$L104984:

; 549  : 	    if (__old_size + __n > capacity()) {

  00036	8b 46 08	 mov	 eax, DWORD PTR [esi+8]
  00039	2b 06		 sub	 eax, DWORD PTR [esi]
  0003b	8d 0c 1f	 lea	 ecx, DWORD PTR [edi+ebx]
  0003e	48		 dec	 eax
  0003f	3b c8		 cmp	 ecx, eax
  00041	76 5e		 jbe	 SHORT $L104986

; 550  : 	      const size_type __len = __old_size +
; 551  : 	                            (max)(__old_size, __STATIC_CAST(size_type,__n)) + 1;

  00043	3b df		 cmp	 ebx, edi
  00045	89 7d fc	 mov	 DWORD PTR $T107312[ebp], edi
  00048	8d 45 fc	 lea	 eax, DWORD PTR $T107312[ebp]
  0004b	72 03		 jb	 SHORT $L107357
  0004d	8d 45 f8	 lea	 eax, DWORD PTR ___old_size$104980[ebp]
$L107357:
  00050	8b 00		 mov	 eax, DWORD PTR [eax]
  00052	8d 5c 18 01	 lea	 ebx, DWORD PTR [eax+ebx+1]

; 552  : 	      pointer __new_start = this->_M_end_of_storage.allocate(__len);

  00056	85 db		 test	 ebx, ebx
  00058	89 5d f8	 mov	 DWORD PTR ___len$104987[ebp], ebx
  0005b	74 0b		 je	 SHORT $L107362
  0005d	53		 push	 ebx
  0005e	e8 00 00 00 00	 call	 ?allocate@?$__node_alloc@$00$0A@@_STL@@SAPAXI@Z ; _STL::__node_alloc<1,0>::allocate
  00063	59		 pop	 ecx
  00064	8b f8		 mov	 edi, eax
  00066	eb 02		 jmp	 SHORT $L107363
$L107362:
  00068	33 ff		 xor	 edi, edi
$L107363:

; 553  : 	      pointer __new_finish = __new_start;
; 554  : 	      _STLP_TRY {
; 555  : 	        __new_finish = uninitialized_copy(this->_M_start, this->_M_finish, __new_start);

  0006a	8b 46 04	 mov	 eax, DWORD PTR [esi+4]
  0006d	8b 0e		 mov	 ecx, DWORD PTR [esi]
  0006f	57		 push	 edi
  00070	50		 push	 eax
  00071	51		 push	 ecx
  00072	e8 00 00 00 00	 call	 ?__copy_trivial@_STL@@YAPAXPBX0PAX@Z ; _STL::__copy_trivial

; 556  : 	        __new_finish = uninitialized_copy(__first, __last, __new_finish);

  00077	50		 push	 eax
  00078	ff 75 0c	 push	 DWORD PTR ___last$[ebp]
  0007b	ff 75 08	 push	 DWORD PTR ___first$[ebp]
  0007e	e8 00 00 00 00	 call	 ?__copy_trivial@_STL@@YAPAXPBX0PAX@Z ; _STL::__copy_trivial
  00083	8b d8		 mov	 ebx, eax
  00085	83 c4 18	 add	 esp, 24			; 00000018H

; 557  : 	        _M_construct_null(__new_finish);
; 558  : 	      }
; 559  : 	      _STLP_UNWIND((_STLP_STD::_Destroy(__new_start,__new_finish),
; 560  : 	                    this->_M_end_of_storage.deallocate(__new_start,__len)));
; 561  : 	      _STLP_STD::_Destroy(this->_M_start, this->_M_finish + 1);
; 562  : 	      this->_M_deallocate_block();

  00088	8b ce		 mov	 ecx, esi
  0008a	c6 03 00	 mov	 BYTE PTR [ebx], 0
  0008d	e8 00 00 00 00	 call	 ?_M_deallocate_block@?$_String_base@DV?$allocator@D@_STL@@@_STL@@QAEXXZ ; _STL::_String_base<char,_STL::allocator<char> >::_M_deallocate_block

; 563  : 	      this->_M_start = __new_start;
; 564  : 	      this->_M_finish = __new_finish;
; 565  : 	      this->_M_end_of_storage._M_data = __new_start + __len; 

  00092	8b 45 f8	 mov	 eax, DWORD PTR ___len$104987[ebp]
  00095	89 3e		 mov	 DWORD PTR [esi], edi
  00097	03 f8		 add	 edi, eax
  00099	89 5e 04	 mov	 DWORD PTR [esi+4], ebx
  0009c	89 7e 08	 mov	 DWORD PTR [esi+8], edi

; 566  : 	    }
; 567  : 	    else {

  0009f	eb 29		 jmp	 SHORT $L107639
$L104986:

; 568  : 	      _ForwardIter __f1 = __first;
; 569  : 	      ++__f1;
; 570  : 	      uninitialized_copy(__f1, __last, this->_M_finish + 1);

  000a1	8b 46 04	 mov	 eax, DWORD PTR [esi+4]
  000a4	40		 inc	 eax
  000a5	50		 push	 eax
  000a6	8b 45 08	 mov	 eax, DWORD PTR ___first$[ebp]
  000a9	ff 75 0c	 push	 DWORD PTR ___last$[ebp]
  000ac	40		 inc	 eax
  000ad	50		 push	 eax
  000ae	e8 00 00 00 00	 call	 ?__copy_trivial@_STL@@YAPAXPBX0PAX@Z ; _STL::__copy_trivial

; 571  : 	      _STLP_TRY {
; 572  : 	        _M_construct_null(this->_M_finish + __n);

  000b3	8b 46 04	 mov	 eax, DWORD PTR [esi+4]

; 573  : 	      }
; 574  : 	      _STLP_UNWIND(_STLP_STD::_Destroy(this->_M_finish + 1, this->_M_finish + __n));
; 575  : 	      _Traits::assign(*end(), *__first);

  000b6	8b 4d 08	 mov	 ecx, DWORD PTR ___first$[ebp]
  000b9	c6 04 07 00	 mov	 BYTE PTR [edi+eax], 0
  000bd	8b 46 04	 mov	 eax, DWORD PTR [esi+4]
  000c0	8a 09		 mov	 cl, BYTE PTR [ecx]
  000c2	83 c4 0c	 add	 esp, 12			; 0000000cH
  000c5	88 08		 mov	 BYTE PTR [eax], cl

; 576  : 	      this->_M_finish += __n;

  000c7	01 7e 04	 add	 DWORD PTR [esi+4], edi
$L107639:
  000ca	5b		 pop	 ebx
$L104993:
  000cb	5f		 pop	 edi

; 577  : 	    }
; 578  : 	  }
; 579  : 	  return *this;  

  000cc	8b c6		 mov	 eax, esi
  000ce	5e		 pop	 esi

; 580  : 	}

  000cf	c9		 leave
  000d0	c2 0c 00	 ret	 12			; 0000000cH
??$append@PAD@?$basic_string@DV?$char_traits@D@_STL@@V?$allocator@D@2@@_STL@@AAEAAV01@PAD0ABUforward_iterator_tag@1@@Z ENDP ; _STL::basic_string<char,_STL::char_traits<char>,_STL::allocator<char> >::append<char *>
_TEXT	ENDS
PUBLIC	??1?$_String_base@DV?$allocator@D@_STL@@@_STL@@QAE@XZ ; _STL::_String_base<char,_STL::allocator<char> >::~_String_base<char,_STL::allocator<char> >
; Function compile flags: /Ogsy
;	COMDAT ??1?$_String_base@DV?$allocator@D@_STL@@@_STL@@QAE@XZ
_TEXT	SEGMENT
??1?$_String_base@DV?$allocator@D@_STL@@@_STL@@QAE@XZ PROC NEAR ; _STL::_String_base<char,_STL::allocator<char> >::~_String_base<char,_STL::allocator<char> >, COMDAT
; _this$ = ecx

; 135  :   ~_String_base() { _M_deallocate_block(); }

  00000	e9 00 00 00 00	 jmp	 ?_M_deallocate_block@?$_String_base@DV?$allocator@D@_STL@@@_STL@@QAEXXZ ; _STL::_String_base<char,_STL::allocator<char> >::_M_deallocate_block
??1?$_String_base@DV?$allocator@D@_STL@@@_STL@@QAE@XZ ENDP ; _STL::_String_base<char,_STL::allocator<char> >::~_String_base<char,_STL::allocator<char> >
_TEXT	ENDS
PUBLIC	??0?$basic_string@DV?$char_traits@D@_STL@@V?$allocator@D@2@@_STL@@QAE@XZ ; _STL::basic_string<char,_STL::char_traits<char>,_STL::allocator<char> >::basic_string<char,_STL::char_traits<char>,_STL::allocator<char> >
;	COMDAT xdata$x
xdata$x	SEGMENT
$T107691 DD	0ffffffffH
	DD	FLAT:$L107646
$T107689 DD	019930520H
	DD	01H
	DD	FLAT:$T107691
	DD	2 DUP(00H)
	DD	2 DUP(00H)
; Function compile flags: /Ogsy
; File c:\stlport-4.6.1\stlport\stl\_string.c
xdata$x	ENDS
;	COMDAT ??0?$basic_string@DV?$char_traits@D@_STL@@V?$allocator@D@2@@_STL@@QAE@XZ
_TEXT	SEGMENT
_this$ = -20						; size = 4
$T107645 = -13						; size = 1
__$EHRec$ = -12						; size = 12
??0?$basic_string@DV?$char_traits@D@_STL@@V?$allocator@D@2@@_STL@@QAE@XZ PROC NEAR ; _STL::basic_string<char,_STL::char_traits<char>,_STL::allocator<char> >::basic_string<char,_STL::char_traits<char>,_STL::allocator<char> >, COMDAT
; _this$ = ecx

; 541  :   : _String_base<_CharT,_Alloc>(allocator_type()) {  

  00000	b8 00 00 00 00	 mov	 eax, __ehhandler$??0?$basic_string@DV?$char_traits@D@_STL@@V?$allocator@D@2@@_STL@@QAE@XZ
  00005	e8 00 00 00 00	 call	 __EH_prolog
  0000a	51		 push	 ecx
  0000b	51		 push	 ecx
  0000c	56		 push	 esi
  0000d	8d 45 f3	 lea	 eax, DWORD PTR $T107645[ebp]
  00010	8b f1		 mov	 esi, ecx
  00012	50		 push	 eax
  00013	89 75 ec	 mov	 DWORD PTR _this$[ebp], esi
  00016	e8 00 00 00 00	 call	 ??0?$_String_base@DV?$allocator@D@_STL@@@_STL@@QAE@ABV?$allocator@D@1@@Z ; _STL::_String_base<char,_STL::allocator<char> >::_String_base<char,_STL::allocator<char> >
  0001b	83 65 fc 00	 and	 DWORD PTR __$EHRec$[ebp+8], 0

; 542  :   this->_M_start = this->_M_end_of_storage.allocate(8); 

  0001f	6a 08		 push	 8
  00021	e8 00 00 00 00	 call	 ?_M_allocate@?$__node_alloc@$00$0A@@_STL@@CAPAXI@Z ; _STL::__node_alloc<1,0>::_M_allocate
  00026	59		 pop	 ecx

; 543  :   this->_M_finish = this->_M_start; 
; 544  :   this->_M_end_of_storage._M_data = this->_M_start + 8; 

  00027	8d 48 08	 lea	 ecx, DWORD PTR [eax+8]
  0002a	89 06		 mov	 DWORD PTR [esi], eax
  0002c	89 46 04	 mov	 DWORD PTR [esi+4], eax
  0002f	89 4e 08	 mov	 DWORD PTR [esi+8], ecx

; 545  :   _M_terminate_string();  
; 546  : } 

  00032	8b 4d f4	 mov	 ecx, DWORD PTR __$EHRec$[ebp]
  00035	c6 00 00	 mov	 BYTE PTR [eax], 0
  00038	8b c6		 mov	 eax, esi
  0003a	5e		 pop	 esi
  0003b	64 89 0d 00 00
	00 00		 mov	 DWORD PTR fs:__except_list, ecx
  00042	c9		 leave
  00043	c3		 ret	 0
_TEXT	ENDS
;	COMDAT text$x
text$x	SEGMENT
$L107646:
  00000	8b 4d ec	 mov	 ecx, DWORD PTR _this$[ebp]
  00003	e9 00 00 00 00	 jmp	 ??1?$_String_base@DV?$allocator@D@_STL@@@_STL@@QAE@XZ ; _STL::_String_base<char,_STL::allocator<char> >::~_String_base<char,_STL::allocator<char> >
__ehhandler$??0?$basic_string@DV?$char_traits@D@_STL@@V?$allocator@D@2@@_STL@@QAE@XZ:
  00008	b8 00 00 00 00	 mov	 eax, OFFSET FLAT:$T107689
  0000d	e9 00 00 00 00	 jmp	 ___CxxFrameHandler
text$x	ENDS
??0?$basic_string@DV?$char_traits@D@_STL@@V?$allocator@D@2@@_STL@@QAE@XZ ENDP ; _STL::basic_string<char,_STL::char_traits<char>,_STL::allocator<char> >::basic_string<char,_STL::char_traits<char>,_STL::allocator<char> >
PUBLIC	??_D?$basic_ofstream@DV?$char_traits@D@_STL@@@_STL@@QAEXXZ ; _STL::basic_ofstream<char,_STL::char_traits<char> >::`vbase destructor'
; Function compile flags: /Ogsy
;	COMDAT ??_D?$basic_ofstream@DV?$char_traits@D@_STL@@@_STL@@QAEXXZ
_TEXT	SEGMENT
??_D?$basic_ofstream@DV?$char_traits@D@_STL@@@_STL@@QAEXXZ PROC NEAR ; _STL::basic_ofstream<char,_STL::char_traits<char> >::`vbase destructor', COMDAT
; _this$ = ecx
  00000	56		 push	 esi
  00001	8d b1 b8 00 00
	00		 lea	 esi, DWORD PTR [ecx+184]
  00007	8b ce		 mov	 ecx, esi
  00009	e8 00 00 00 00	 call	 ??1?$basic_ofstream@DV?$char_traits@D@_STL@@@_STL@@UAE@XZ ; _STL::basic_ofstream<char,_STL::char_traits<char> >::~basic_ofstream<char,_STL::char_traits<char> >
  0000e	8b ce		 mov	 ecx, esi
  00010	5e		 pop	 esi
  00011	e9 00 00 00 00	 jmp	 ??1?$basic_ios@DV?$char_traits@D@_STL@@@_STL@@UAE@XZ ; _STL::basic_ios<char,_STL::char_traits<char> >::~basic_ios<char,_STL::char_traits<char> >
??_D?$basic_ofstream@DV?$char_traits@D@_STL@@@_STL@@QAEXXZ ENDP ; _STL::basic_ofstream<char,_STL::char_traits<char> >::`vbase destructor'
; Function compile flags: /Ogsy
_TEXT	ENDS
;	COMDAT ??_G?$basic_ofstream@DV?$char_traits@D@_STL@@@_STL@@UAEPAXI@Z
_TEXT	SEGMENT
___flags$ = 8						; size = 4
??_G?$basic_ofstream@DV?$char_traits@D@_STL@@@_STL@@UAEPAXI@Z PROC NEAR ; _STL::basic_ofstream<char,_STL::char_traits<char> >::`scalar deleting destructor', COMDAT
; _this$ = ecx
  00000	56		 push	 esi
  00001	8d b1 48 ff ff
	ff		 lea	 esi, DWORD PTR [ecx-184]
  00007	8b ce		 mov	 ecx, esi
  00009	e8 00 00 00 00	 call	 ??_D?$basic_ofstream@DV?$char_traits@D@_STL@@@_STL@@QAEXXZ
  0000e	f6 44 24 08 01	 test	 BYTE PTR ___flags$[esp], 1
  00013	74 07		 je	 SHORT $L104407
  00015	56		 push	 esi
  00016	e8 00 00 00 00	 call	 ??3@YAXPAX@Z		; operator delete
  0001b	59		 pop	 ecx
$L104407:
  0001c	8b c6		 mov	 eax, esi
  0001e	5e		 pop	 esi
  0001f	c2 04 00	 ret	 4
??_G?$basic_ofstream@DV?$char_traits@D@_STL@@@_STL@@UAEPAXI@Z ENDP ; _STL::basic_ofstream<char,_STL::char_traits<char> >::`scalar deleting destructor'
_TEXT	ENDS
PUBLIC	?write@?$basic_ostream@DV?$char_traits@D@_STL@@@_STL@@QAEAAV12@PBDH@Z ; _STL::basic_ostream<char,_STL::char_traits<char> >::write
;	COMDAT xdata$x
; File c:\stlport-4.6.1\stlport\stl\_ios_base.h
xdata$x	SEGMENT
$T107742 DD	0ffffffffH
	DD	FLAT:$L107706
	DD	00H
	DD	00H
	DD	00H
	DD	00H
$T107744 DD	00H
	DD	00H
	DD	00H
	DD	FLAT:$L107705
$T107743 DD	01H
	DD	01H
	DD	02H
	DD	01H
	DD	FLAT:$T107744
$T107739 DD	019930520H
	DD	03H
	DD	FLAT:$T107742
	DD	01H
	DD	FLAT:$T107743
	DD	2 DUP(00H)
; Function compile flags: /Ogsy
; File c:\stlport-4.6.1\stlport\stl\_ostream.c
xdata$x	ENDS
;	COMDAT ?write@?$basic_ostream@DV?$char_traits@D@_STL@@@_STL@@QAEAAV12@PBDH@Z
_TEXT	SEGMENT
___sentry$ = -32					; size = 8
_this$ = -24						; size = 4
___failed$ = -17					; size = 1
__$EHRec$ = -16						; size = 16
___s$ = 8						; size = 4
___n$ = 12						; size = 4
?write@?$basic_ostream@DV?$char_traits@D@_STL@@@_STL@@QAEAAV12@PBDH@Z PROC NEAR ; _STL::basic_ostream<char,_STL::char_traits<char> >::write, COMDAT
; _this$ = ecx

; 359  : {

  00000	b8 00 00 00 00	 mov	 eax, __ehhandler$?write@?$basic_ostream@DV?$char_traits@D@_STL@@@_STL@@QAEAAV12@PBDH@Z
  00005	e8 00 00 00 00	 call	 __EH_prolog
  0000a	83 ec 14	 sub	 esp, 20			; 00000014H
  0000d	53		 push	 ebx
  0000e	56		 push	 esi
  0000f	57		 push	 edi
  00010	8b f1		 mov	 esi, ecx
  00012	89 65 f0	 mov	 DWORD PTR __$EHRec$[ebp], esp

; 360  :   sentry __sentry(*this);

  00015	56		 push	 esi
  00016	8d 4d e0	 lea	 ecx, DWORD PTR ___sentry$[ebp]
  00019	89 75 e8	 mov	 DWORD PTR _this$[ebp], esi
  0001c	e8 00 00 00 00	 call	 ??0sentry@?$basic_ostream@DV?$char_traits@D@_STL@@@_STL@@QAE@AAV12@@Z ; _STL::basic_ostream<char,_STL::char_traits<char> >::sentry::sentry
  00021	83 65 fc 00	 and	 DWORD PTR __$EHRec$[ebp+12], 0

; 361  :   bool __failed = true;
; 362  : 
; 363  :   if (__sentry) {

  00025	80 7d e4 00	 cmp	 BYTE PTR ___sentry$[ebp+4], 0
  00029	c6 45 ef 01	 mov	 BYTE PTR ___failed$[ebp], 1
  0002d	74 3b		 je	 SHORT $L104531

; 364  :     _STLP_TRY {
; 365  :       __failed = this->rdbuf()->sputn(__s, __n) != __n;

  0002f	8b 06		 mov	 eax, DWORD PTR [esi]
  00031	8b 40 04	 mov	 eax, DWORD PTR [eax+4]
  00034	ff 75 0c	 push	 DWORD PTR ___n$[ebp]
  00037	8b 4c 30 58	 mov	 ecx, DWORD PTR [eax+esi+88]
  0003b	ff 75 08	 push	 DWORD PTR ___s$[ebp]
  0003e	8b 01		 mov	 eax, DWORD PTR [ecx]
  00040	c6 45 fc 01	 mov	 BYTE PTR __$EHRec$[ebp+12], 1
  00044	ff 50 28	 call	 DWORD PTR [eax+40]
  00047	3b 45 0c	 cmp	 eax, DWORD PTR ___n$[ebp]
  0004a	0f 95 45 ef	 setne	 BYTE PTR ___failed$[ebp]
  0004e	eb 1a		 jmp	 SHORT $L104531
$L107705:

; 366  :     }
; 367  :     _STLP_CATCH_ALL {
; 368  :       this->_M_handle_exception(ios_base::badbit);

  00050	8b 45 e8	 mov	 eax, DWORD PTR _this$[ebp]
  00053	8b 08		 mov	 ecx, DWORD PTR [eax]
  00055	8b 49 04	 mov	 ecx, DWORD PTR [ecx+4]
  00058	6a 01		 push	 1
  0005a	03 c8		 add	 ecx, eax
  0005c	e8 00 00 00 00	 call	 ?_M_handle_exception@?$basic_ios@DV?$char_traits@D@_STL@@@_STL@@QAEXH@Z ; _STL::basic_ios<char,_STL::char_traits<char> >::_M_handle_exception

; 369  :     }

  00061	b8 00 00 00 00	 mov	 eax, $L107740
  00066	c3		 ret	 0
$L107740:
  00067	8b 75 e8	 mov	 esi, DWORD PTR _this$[ebp]
$L104531:
  0006a	83 65 fc 00	 and	 DWORD PTR __$EHRec$[ebp+12], 0

; 370  :   }
; 371  : 
; 372  :   if (__failed)

  0006e	80 7d ef 00	 cmp	 BYTE PTR ___failed$[ebp], 0
  00072	74 13		 je	 SHORT $L107726

; 373  :     this->setstate(ios_base::badbit);

  00074	8b 06		 mov	 eax, DWORD PTR [esi]
  00076	8b 48 04	 mov	 ecx, DWORD PTR [eax+4]
  00079	03 ce		 add	 ecx, esi
  0007b	8b 41 08	 mov	 eax, DWORD PTR [ecx+8]
  0007e	83 c8 01	 or	 eax, 1
  00081	50		 push	 eax
  00082	e8 00 00 00 00	 call	 ?clear@?$basic_ios@DV?$char_traits@D@_STL@@@_STL@@QAEXH@Z ; _STL::basic_ios<char,_STL::char_traits<char> >::clear
$L107726:

; 374  : 
; 375  :   return *this;

  00087	8b 4d e0	 mov	 ecx, DWORD PTR ___sentry$[ebp]
  0008a	8b 01		 mov	 eax, DWORD PTR [ecx]
  0008c	8b 40 04	 mov	 eax, DWORD PTR [eax+4]
  0008f	83 4d fc ff	 or	 DWORD PTR __$EHRec$[ebp+12], -1
  00093	f6 44 08 05 20	 test	 BYTE PTR [eax+ecx+5], 32 ; 00000020H
  00098	74 05		 je	 SHORT $L107737
  0009a	e8 00 00 00 00	 call	 ?flush@?$basic_ostream@DV?$char_traits@D@_STL@@@_STL@@QAEAAV12@XZ ; _STL::basic_ostream<char,_STL::char_traits<char> >::flush
$L107737:

; 376  : }

  0009f	8b 4d f4	 mov	 ecx, DWORD PTR __$EHRec$[ebp+4]
  000a2	5f		 pop	 edi
  000a3	8b c6		 mov	 eax, esi
  000a5	5e		 pop	 esi
  000a6	64 89 0d 00 00
	00 00		 mov	 DWORD PTR fs:__except_list, ecx
  000ad	5b		 pop	 ebx
  000ae	c9		 leave
  000af	c2 08 00	 ret	 8
_TEXT	ENDS
;	COMDAT text$x
text$x	SEGMENT
$L107706:
  00000	8d 4d e0	 lea	 ecx, DWORD PTR ___sentry$[ebp]
  00003	e9 00 00 00 00	 jmp	 ??1sentry@?$basic_ostream@DV?$char_traits@D@_STL@@@_STL@@QAE@XZ ; _STL::basic_ostream<char,_STL::char_traits<char> >::sentry::~sentry
__ehhandler$?write@?$basic_ostream@DV?$char_traits@D@_STL@@@_STL@@QAEAAV12@PBDH@Z:
  00008	b8 00 00 00 00	 mov	 eax, OFFSET FLAT:$T107739
  0000d	e9 00 00 00 00	 jmp	 ___CxxFrameHandler
text$x	ENDS
?write@?$basic_ostream@DV?$char_traits@D@_STL@@@_STL@@QAEAAV12@PBDH@Z ENDP ; _STL::basic_ostream<char,_STL::char_traits<char> >::write
PUBLIC	??$_M_append_dispatch@PBD@?$basic_string@DV?$char_traits@D@_STL@@V?$allocator@D@2@@_STL@@AAEAAV01@PBD0ABU__false_type@1@@Z ; _STL::basic_string<char,_STL::char_traits<char>,_STL::allocator<char> >::_M_append_dispatch<char const *>
; Function compile flags: /Ogsy
; File c:\stlport-4.6.1\stlport\stl\_string.h
;	COMDAT ??$_M_append_dispatch@PBD@?$basic_string@DV?$char_traits@D@_STL@@V?$allocator@D@2@@_STL@@AAEAAV01@PBD0ABU__false_type@1@@Z
_TEXT	SEGMENT
___f$ = 8						; size = 4
___l$ = 12						; size = 4
$T107749 = 15						; size = 1
___formal$ = 16						; size = 4
??$_M_append_dispatch@PBD@?$basic_string@DV?$char_traits@D@_STL@@V?$allocator@D@2@@_STL@@AAEAAV01@PBD0ABU__false_type@1@@Z PROC NEAR ; _STL::basic_string<char,_STL::char_traits<char>,_STL::allocator<char> >::_M_append_dispatch<char const *>, COMDAT
; _this$ = ecx

; 586  :   template <class _InputIter> _Self& _M_append_dispatch(_InputIter __f, _InputIter __l,

  00000	55		 push	 ebp
  00001	8b ec		 mov	 ebp, esp

; 587  :                                    const __false_type&) {
; 588  :     return append(__f, __l, _STLP_ITERATOR_CATEGORY(__f, _InputIter));

  00003	8d 45 0f	 lea	 eax, DWORD PTR $T107749[ebp]
  00006	50		 push	 eax
  00007	ff 75 0c	 push	 DWORD PTR ___l$[ebp]
  0000a	ff 75 08	 push	 DWORD PTR ___f$[ebp]
  0000d	e8 00 00 00 00	 call	 ??$append@PBD@?$basic_string@DV?$char_traits@D@_STL@@V?$allocator@D@2@@_STL@@AAEAAV01@PBD0ABUforward_iterator_tag@1@@Z ; _STL::basic_string<char,_STL::char_traits<char>,_STL::allocator<char> >::append<char const *>

; 589  :   }

  00012	5d		 pop	 ebp
  00013	c2 0c 00	 ret	 12			; 0000000cH
??$_M_append_dispatch@PBD@?$basic_string@DV?$char_traits@D@_STL@@V?$allocator@D@2@@_STL@@AAEAAV01@PBD0ABU__false_type@1@@Z ENDP ; _STL::basic_string<char,_STL::char_traits<char>,_STL::allocator<char> >::_M_append_dispatch<char const *>
_TEXT	ENDS
PUBLIC	??$_M_append_dispatch@PAD@?$basic_string@DV?$char_traits@D@_STL@@V?$allocator@D@2@@_STL@@AAEAAV01@PAD0ABU__false_type@1@@Z ; _STL::basic_string<char,_STL::char_traits<char>,_STL::allocator<char> >::_M_append_dispatch<char *>
; Function compile flags: /Ogsy
;	COMDAT ??$_M_append_dispatch@PAD@?$basic_string@DV?$char_traits@D@_STL@@V?$allocator@D@2@@_STL@@AAEAAV01@PAD0ABU__false_type@1@@Z
_TEXT	SEGMENT
___f$ = 8						; size = 4
___l$ = 12						; size = 4
$T107752 = 15						; size = 1
___formal$ = 16						; size = 4
??$_M_append_dispatch@PAD@?$basic_string@DV?$char_traits@D@_STL@@V?$allocator@D@2@@_STL@@AAEAAV01@PAD0ABU__false_type@1@@Z PROC NEAR ; _STL::basic_string<char,_STL::char_traits<char>,_STL::allocator<char> >::_M_append_dispatch<char *>, COMDAT
; _this$ = ecx

; 586  :   template <class _InputIter> _Self& _M_append_dispatch(_InputIter __f, _InputIter __l,

  00000	55		 push	 ebp
  00001	8b ec		 mov	 ebp, esp

; 587  :                                    const __false_type&) {
; 588  :     return append(__f, __l, _STLP_ITERATOR_CATEGORY(__f, _InputIter));

  00003	8d 45 0f	 lea	 eax, DWORD PTR $T107752[ebp]
  00006	50		 push	 eax
  00007	ff 75 0c	 push	 DWORD PTR ___l$[ebp]
  0000a	ff 75 08	 push	 DWORD PTR ___f$[ebp]
  0000d	e8 00 00 00 00	 call	 ??$append@PAD@?$basic_string@DV?$char_traits@D@_STL@@V?$allocator@D@2@@_STL@@AAEAAV01@PAD0ABUforward_iterator_tag@1@@Z ; _STL::basic_string<char,_STL::char_traits<char>,_STL::allocator<char> >::append<char *>

; 589  :   }

  00012	5d		 pop	 ebp
  00013	c2 0c 00	 ret	 12			; 0000000cH
??$_M_append_dispatch@PAD@?$basic_string@DV?$char_traits@D@_STL@@V?$allocator@D@2@@_STL@@AAEAAV01@PAD0ABU__false_type@1@@Z ENDP ; _STL::basic_string<char,_STL::char_traits<char>,_STL::allocator<char> >::_M_append_dispatch<char *>
_TEXT	ENDS
PUBLIC	??1?$basic_string@DV?$char_traits@D@_STL@@V?$allocator@D@2@@_STL@@QAE@XZ ; _STL::basic_string<char,_STL::char_traits<char>,_STL::allocator<char> >::~basic_string<char,_STL::char_traits<char>,_STL::allocator<char> >
; Function compile flags: /Ogsy
;	COMDAT ??1?$basic_string@DV?$char_traits@D@_STL@@V?$allocator@D@2@@_STL@@QAE@XZ
_TEXT	SEGMENT
??1?$basic_string@DV?$char_traits@D@_STL@@V?$allocator@D@2@@_STL@@QAE@XZ PROC NEAR ; _STL::basic_string<char,_STL::char_traits<char>,_STL::allocator<char> >::~basic_string<char,_STL::char_traits<char>,_STL::allocator<char> >, COMDAT
; _this$ = ecx

; 305  :   ~basic_string() { _STLP_STD::_Destroy(this->_M_start, this->_M_finish + 1); }

  00000	e9 00 00 00 00	 jmp	 ?_M_deallocate_block@?$_String_base@DV?$allocator@D@_STL@@@_STL@@QAEXXZ ; _STL::_String_base<char,_STL::allocator<char> >::_M_deallocate_block
??1?$basic_string@DV?$char_traits@D@_STL@@V?$allocator@D@2@@_STL@@QAE@XZ ENDP ; _STL::basic_string<char,_STL::char_traits<char>,_STL::allocator<char> >::~basic_string<char,_STL::char_traits<char>,_STL::allocator<char> >
_TEXT	ENDS
PUBLIC	??_Giovfs_base@@UAEPAXI@Z			; iovfs_base::`scalar deleting destructor'
PUBLIC	??_R4iovfs_base@@6B@				; iovfs_base::`RTTI Complete Object Locator'
PUBLIC	??_R0?AViovfs_base@@@8				; iovfs_base `RTTI Type Descriptor'
PUBLIC	??_R3iovfs_base@@8				; iovfs_base::`RTTI Class Hierarchy Descriptor'
PUBLIC	??_R2iovfs_base@@8				; iovfs_base::`RTTI Base Class Array'
PUBLIC	??_R1A@?0A@A@iovfs_base@@8			; iovfs_base::`RTTI Base Class Descriptor at (0,-1,0,0)'
PUBLIC	??1iovfs_base@@UAE@XZ				; iovfs_base::~iovfs_base
PUBLIC	??_7iovfs_base@@6B@				; iovfs_base::`vftable'
EXTRN	??_Eiovfs_base@@UAEPAXI@Z:NEAR			; iovfs_base::`vector deleting destructor'
EXTRN	??_M@YGXPAXIHP6EX0@Z@Z:NEAR			; `eh vector destructor iterator'
EXTRN	?close@iovfs_base@@QAEXXZ:NEAR			; iovfs_base::close
;	COMDAT xdata$x
; File c:\darkeden\designed_common\project\client\virtualfilesystem\vfstream.inl
xdata$x	SEGMENT
$T107781 DD	0ffffffffH
	DD	FLAT:$L107777
$T107779 DD	019930520H
	DD	01H
	DD	FLAT:$T107781
	DD	2 DUP(00H)
	DD	2 DUP(00H)
xdata$x	ENDS
;	COMDAT ??_7iovfs_base@@6B@
CONST	SEGMENT
??_7iovfs_base@@6B@ DD FLAT:??_R4iovfs_base@@6B@	; iovfs_base::`vftable'
	DD	FLAT:??_Eiovfs_base@@UAEPAXI@Z
	DD	FLAT:?open@iovfs_base@@UAEXPBDH@Z
CONST	ENDS
;	COMDAT ??_R4iovfs_base@@6B@
rdata$r	SEGMENT
??_R4iovfs_base@@6B@ DD 00H				; iovfs_base::`RTTI Complete Object Locator'
	DD	00H
	DD	00H
	DD	FLAT:??_R0?AViovfs_base@@@8
	DD	FLAT:??_R3iovfs_base@@8
rdata$r	ENDS
;	COMDAT ??_R0?AViovfs_base@@@8
_DATA	SEGMENT
??_R0?AViovfs_base@@@8 DD FLAT:??_7type_info@@6B@	; iovfs_base `RTTI Type Descriptor'
	DD	00H
	DB	'.?AViovfs_base@@', 00H
_DATA	ENDS
;	COMDAT ??_R3iovfs_base@@8
rdata$r	SEGMENT
??_R3iovfs_base@@8 DD 00H				; iovfs_base::`RTTI Class Hierarchy Descriptor'
	DD	00H
	DD	01H
	DD	FLAT:??_R2iovfs_base@@8
rdata$r	ENDS
;	COMDAT ??_R2iovfs_base@@8
rdata$r	SEGMENT
??_R2iovfs_base@@8 DD FLAT:??_R1A@?0A@A@iovfs_base@@8	; iovfs_base::`RTTI Base Class Array'
rdata$r	ENDS
;	COMDAT ??_R1A@?0A@A@iovfs_base@@8
rdata$r	SEGMENT
??_R1A@?0A@A@iovfs_base@@8 DD FLAT:??_R0?AViovfs_base@@@8 ; iovfs_base::`RTTI Base Class Descriptor at (0,-1,0,0)'
	DD	00H
	DD	00H
	DD	0ffffffffH
	DD	00H
	DD	00H
; Function compile flags: /Ogsy
rdata$r	ENDS
;	COMDAT ??1iovfs_base@@UAE@XZ
_TEXT	SEGMENT
_this$ = -16						; size = 4
__$EHRec$ = -12						; size = 12
??1iovfs_base@@UAE@XZ PROC NEAR				; iovfs_base::~iovfs_base, COMDAT
; _this$ = ecx

; 22   : {

  00000	b8 00 00 00 00	 mov	 eax, __ehhandler$??1iovfs_base@@UAE@XZ
  00005	e8 00 00 00 00	 call	 __EH_prolog
  0000a	51		 push	 ecx
  0000b	56		 push	 esi
  0000c	8b f1		 mov	 esi, ecx
  0000e	89 75 f0	 mov	 DWORD PTR _this$[ebp], esi
  00011	c7 06 00 00 00
	00		 mov	 DWORD PTR [esi], OFFSET FLAT:??_7iovfs_base@@6B@
  00017	83 65 fc 00	 and	 DWORD PTR __$EHRec$[ebp+8], 0

; 23   : 	close();

  0001b	e8 00 00 00 00	 call	 ?close@iovfs_base@@QAEXXZ ; iovfs_base::close

; 24   : }

  00020	83 4d fc ff	 or	 DWORD PTR __$EHRec$[ebp+8], -1
  00024	68 00 00 00 00	 push	 OFFSET FLAT:??1?$basic_string@DV?$char_traits@D@_STL@@V?$allocator@D@2@@_STL@@QAE@XZ ; _STL::basic_string<char,_STL::char_traits<char>,_STL::allocator<char> >::~basic_string<char,_STL::char_traits<char>,_STL::allocator<char> >
  00029	6a 06		 push	 6
  0002b	6a 0c		 push	 12			; 0000000cH
  0002d	83 c6 08	 add	 esi, 8
  00030	56		 push	 esi
  00031	e8 00 00 00 00	 call	 ??_M@YGXPAXIHP6EX0@Z@Z
  00036	8b 4d f4	 mov	 ecx, DWORD PTR __$EHRec$[ebp]
  00039	5e		 pop	 esi
  0003a	64 89 0d 00 00
	00 00		 mov	 DWORD PTR fs:__except_list, ecx
  00041	c9		 leave
  00042	c3		 ret	 0
_TEXT	ENDS
;	COMDAT text$x
text$x	SEGMENT
$L107777:
  00000	68 00 00 00 00	 push	 OFFSET FLAT:??1?$basic_string@DV?$char_traits@D@_STL@@V?$allocator@D@2@@_STL@@QAE@XZ ; _STL::basic_string<char,_STL::char_traits<char>,_STL::allocator<char> >::~basic_string<char,_STL::char_traits<char>,_STL::allocator<char> >
  00005	6a 06		 push	 6
  00007	6a 0c		 push	 12			; 0000000cH
  00009	8b 45 f0	 mov	 eax, DWORD PTR _this$[ebp]
  0000c	83 c0 08	 add	 eax, 8
  0000f	50		 push	 eax
  00010	e8 00 00 00 00	 call	 ??_M@YGXPAXIHP6EX0@Z@Z
  00015	c3		 ret	 0
__ehhandler$??1iovfs_base@@UAE@XZ:
  00016	b8 00 00 00 00	 mov	 eax, OFFSET FLAT:$T107779
  0001b	e9 00 00 00 00	 jmp	 ___CxxFrameHandler
text$x	ENDS
??1iovfs_base@@UAE@XZ ENDP				; iovfs_base::~iovfs_base
PUBLIC	??1ivfstream@@UAE@XZ				; ivfstream::~ivfstream
PUBLIC	??_7ivfstream@@6B@				; ivfstream::`vftable'
PUBLIC	??_Givfstream@@UAEPAXI@Z			; ivfstream::`scalar deleting destructor'
PUBLIC	??_R4ivfstream@@6B@				; ivfstream::`RTTI Complete Object Locator'
PUBLIC	??_R0?AVivfstream@@@8				; ivfstream `RTTI Type Descriptor'
PUBLIC	??_R3ivfstream@@8				; ivfstream::`RTTI Class Hierarchy Descriptor'
PUBLIC	??_R2ivfstream@@8				; ivfstream::`RTTI Base Class Array'
PUBLIC	??_R1A@?0A@A@ivfstream@@8			; ivfstream::`RTTI Base Class Descriptor at (0,-1,0,0)'
EXTRN	??_Eivfstream@@UAEPAXI@Z:NEAR			; ivfstream::`vector deleting destructor'
;	COMDAT ??_7ivfstream@@6B@
CONST	SEGMENT
??_7ivfstream@@6B@ DD FLAT:??_R4ivfstream@@6B@		; ivfstream::`vftable'
	DD	FLAT:??_Eivfstream@@UAEPAXI@Z
	DD	FLAT:?open@ivfstream@@UAEXPBDH@Z
CONST	ENDS
;	COMDAT ??_R4ivfstream@@6B@
rdata$r	SEGMENT
??_R4ivfstream@@6B@ DD 00H				; ivfstream::`RTTI Complete Object Locator'
	DD	00H
	DD	00H
	DD	FLAT:??_R0?AVivfstream@@@8
	DD	FLAT:??_R3ivfstream@@8
rdata$r	ENDS
;	COMDAT ??_R0?AVivfstream@@@8
_DATA	SEGMENT
??_R0?AVivfstream@@@8 DD FLAT:??_7type_info@@6B@	; ivfstream `RTTI Type Descriptor'
	DD	00H
	DB	'.?AVivfstream@@', 00H
_DATA	ENDS
;	COMDAT ??_R3ivfstream@@8
rdata$r	SEGMENT
??_R3ivfstream@@8 DD 00H				; ivfstream::`RTTI Class Hierarchy Descriptor'
	DD	00H
	DD	02H
	DD	FLAT:??_R2ivfstream@@8
rdata$r	ENDS
;	COMDAT ??_R2ivfstream@@8
rdata$r	SEGMENT
??_R2ivfstream@@8 DD FLAT:??_R1A@?0A@A@ivfstream@@8	; ivfstream::`RTTI Base Class Array'
	DD	FLAT:??_R1A@?0A@A@iovfs_base@@8
rdata$r	ENDS
;	COMDAT ??_R1A@?0A@A@ivfstream@@8
rdata$r	SEGMENT
??_R1A@?0A@A@ivfstream@@8 DD FLAT:??_R0?AVivfstream@@@8	; ivfstream::`RTTI Base Class Descriptor at (0,-1,0,0)'
	DD	01H
	DD	00H
	DD	0ffffffffH
	DD	00H
	DD	00H
; Function compile flags: /Ogsy
rdata$r	ENDS
;	COMDAT ??1ivfstream@@UAE@XZ
_TEXT	SEGMENT
??1ivfstream@@UAE@XZ PROC NEAR				; ivfstream::~ivfstream, COMDAT
; _this$ = ecx

; 70   : {

  00000	c7 01 00 00 00
	00		 mov	 DWORD PTR [ecx], OFFSET FLAT:??_7ivfstream@@6B@

; 71   : 
; 72   : }

  00006	e9 00 00 00 00	 jmp	 ??1iovfs_base@@UAE@XZ	; iovfs_base::~iovfs_base
??1ivfstream@@UAE@XZ ENDP				; ivfstream::~ivfstream
_TEXT	ENDS
PUBLIC	?grouping@?$numpunct@D@_STL@@QBE?AV?$basic_string@DV?$char_traits@D@_STL@@V?$allocator@D@2@@2@XZ ; _STL::numpunct<char>::grouping
; Function compile flags: /Ogsy
; File c:\stlport-4.6.1\stlport\stl\_numpunct.h
;	COMDAT ?grouping@?$numpunct@D@_STL@@QBE?AV?$basic_string@DV?$char_traits@D@_STL@@V?$allocator@D@2@@2@XZ
_TEXT	SEGMENT
$T107791 = -4						; size = 4
___$ReturnUdt$ = 8					; size = 4
?grouping@?$numpunct@D@_STL@@QBE?AV?$basic_string@DV?$char_traits@D@_STL@@V?$allocator@D@2@@2@XZ PROC NEAR ; _STL::numpunct<char>::grouping, COMDAT
; _this$ = ecx

; 62   :   string grouping() const { return do_grouping(); }

  00000	55		 push	 ebp
  00001	8b ec		 mov	 ebp, esp
  00003	51		 push	 ecx
  00004	ff 75 08	 push	 DWORD PTR ___$ReturnUdt$[ebp]
  00007	8b 01		 mov	 eax, DWORD PTR [ecx]
  00009	83 65 fc 00	 and	 DWORD PTR $T107791[ebp], 0
  0000d	ff 50 0c	 call	 DWORD PTR [eax+12]
  00010	8b 45 08	 mov	 eax, DWORD PTR ___$ReturnUdt$[ebp]
  00013	c9		 leave
  00014	c2 04 00	 ret	 4
?grouping@?$numpunct@D@_STL@@QBE?AV?$basic_string@DV?$char_traits@D@_STL@@V?$allocator@D@2@@2@XZ ENDP ; _STL::numpunct<char>::grouping
_TEXT	ENDS
PUBLIC	??$append@PBD@?$basic_string@DV?$char_traits@D@_STL@@V?$allocator@D@2@@_STL@@QAEAAV01@PBD0@Z ; _STL::basic_string<char,_STL::char_traits<char>,_STL::allocator<char> >::append<char const *>
; Function compile flags: /Ogsy
; File c:\stlport-4.6.1\stlport\stl\_string.h
;	COMDAT ??$append@PBD@?$basic_string@DV?$char_traits@D@_STL@@V?$allocator@D@2@@_STL@@QAEAAV01@PBD0@Z
_TEXT	SEGMENT
___first$ = 8						; size = 4
___last$ = 12						; size = 4
$T107799 = 15						; size = 1
??$append@PBD@?$basic_string@DV?$char_traits@D@_STL@@V?$allocator@D@2@@_STL@@QAEAAV01@PBD0@Z PROC NEAR ; _STL::basic_string<char,_STL::char_traits<char>,_STL::allocator<char> >::append<char const *>, COMDAT
; _this$ = ecx

; 506  :   template <class _InputIter> _Self& append(_InputIter __first, _InputIter __last) {

  00000	55		 push	 ebp
  00001	8b ec		 mov	 ebp, esp

; 507  :     typedef typename _Is_integer<_InputIter>::_Integral _Integral;
; 508  :     return _M_append_dispatch(__first, __last, _Integral());

  00003	8d 45 0f	 lea	 eax, DWORD PTR $T107799[ebp]
  00006	50		 push	 eax
  00007	ff 75 0c	 push	 DWORD PTR ___last$[ebp]
  0000a	ff 75 08	 push	 DWORD PTR ___first$[ebp]
  0000d	e8 00 00 00 00	 call	 ??$append@PBD@?$basic_string@DV?$char_traits@D@_STL@@V?$allocator@D@2@@_STL@@AAEAAV01@PBD0ABUforward_iterator_tag@1@@Z ; _STL::basic_string<char,_STL::char_traits<char>,_STL::allocator<char> >::append<char const *>

; 509  :   }

  00012	5d		 pop	 ebp
  00013	c2 08 00	 ret	 8
??$append@PBD@?$basic_string@DV?$char_traits@D@_STL@@V?$allocator@D@2@@_STL@@QAEAAV01@PBD0@Z ENDP ; _STL::basic_string<char,_STL::char_traits<char>,_STL::allocator<char> >::append<char const *>
_TEXT	ENDS
PUBLIC	??$append@PAD@?$basic_string@DV?$char_traits@D@_STL@@V?$allocator@D@2@@_STL@@QAEAAV01@PAD0@Z ; _STL::basic_string<char,_STL::char_traits<char>,_STL::allocator<char> >::append<char *>
; Function compile flags: /Ogsy
;	COMDAT ??$append@PAD@?$basic_string@DV?$char_traits@D@_STL@@V?$allocator@D@2@@_STL@@QAEAAV01@PAD0@Z
_TEXT	SEGMENT
___first$ = 8						; size = 4
___last$ = 12						; size = 4
$T107807 = 15						; size = 1
??$append@PAD@?$basic_string@DV?$char_traits@D@_STL@@V?$allocator@D@2@@_STL@@QAEAAV01@PAD0@Z PROC NEAR ; _STL::basic_string<char,_STL::char_traits<char>,_STL::allocator<char> >::append<char *>, COMDAT
; _this$ = ecx

; 506  :   template <class _InputIter> _Self& append(_InputIter __first, _InputIter __last) {

  00000	55		 push	 ebp
  00001	8b ec		 mov	 ebp, esp

; 507  :     typedef typename _Is_integer<_InputIter>::_Integral _Integral;
; 508  :     return _M_append_dispatch(__first, __last, _Integral());

  00003	8d 45 0f	 lea	 eax, DWORD PTR $T107807[ebp]
  00006	50		 push	 eax
  00007	ff 75 0c	 push	 DWORD PTR ___last$[ebp]
  0000a	ff 75 08	 push	 DWORD PTR ___first$[ebp]
  0000d	e8 00 00 00 00	 call	 ??$append@PAD@?$basic_string@DV?$char_traits@D@_STL@@V?$allocator@D@2@@_STL@@AAEAAV01@PAD0ABUforward_iterator_tag@1@@Z ; _STL::basic_string<char,_STL::char_traits<char>,_STL::allocator<char> >::append<char *>

; 509  :   }

  00012	5d		 pop	 ebp
  00013	c2 08 00	 ret	 8
??$append@PAD@?$basic_string@DV?$char_traits@D@_STL@@V?$allocator@D@2@@_STL@@QAEAAV01@PAD0@Z ENDP ; _STL::basic_string<char,_STL::char_traits<char>,_STL::allocator<char> >::append<char *>
; Function compile flags: /Ogsy
_TEXT	ENDS
;	COMDAT ??_Giovfs_base@@UAEPAXI@Z
_TEXT	SEGMENT
___flags$ = 8						; size = 4
??_Giovfs_base@@UAEPAXI@Z PROC NEAR			; iovfs_base::`scalar deleting destructor', COMDAT
; _this$ = ecx
  00000	56		 push	 esi
  00001	8b f1		 mov	 esi, ecx
  00003	e8 00 00 00 00	 call	 ??1iovfs_base@@UAE@XZ	; iovfs_base::~iovfs_base
  00008	f6 44 24 08 01	 test	 BYTE PTR ___flags$[esp], 1
  0000d	74 07		 je	 SHORT $L100425
  0000f	56		 push	 esi
  00010	e8 00 00 00 00	 call	 ??3@YAXPAX@Z		; operator delete
  00015	59		 pop	 ecx
$L100425:
  00016	8b c6		 mov	 eax, esi
  00018	5e		 pop	 esi
  00019	c2 04 00	 ret	 4
??_Giovfs_base@@UAEPAXI@Z ENDP				; iovfs_base::`scalar deleting destructor'
; Function compile flags: /Ogsy
_TEXT	ENDS
;	COMDAT ??_Givfstream@@UAEPAXI@Z
_TEXT	SEGMENT
___flags$ = 8						; size = 4
??_Givfstream@@UAEPAXI@Z PROC NEAR			; ivfstream::`scalar deleting destructor', COMDAT
; _this$ = ecx
  00000	56		 push	 esi
  00001	8b f1		 mov	 esi, ecx
  00003	e8 00 00 00 00	 call	 ??1ivfstream@@UAE@XZ	; ivfstream::~ivfstream
  00008	f6 44 24 08 01	 test	 BYTE PTR ___flags$[esp], 1
  0000d	74 07		 je	 SHORT $L100465
  0000f	56		 push	 esi
  00010	e8 00 00 00 00	 call	 ??3@YAXPAX@Z		; operator delete
  00015	59		 pop	 ecx
$L100465:
  00016	8b c6		 mov	 eax, esi
  00018	5e		 pop	 esi
  00019	c2 04 00	 ret	 4
??_Givfstream@@UAEPAXI@Z ENDP				; ivfstream::`scalar deleting destructor'
_TEXT	ENDS
PUBLIC	?assign@?$basic_string@DV?$char_traits@D@_STL@@V?$allocator@D@2@@_STL@@QAEAAV12@PBD0@Z ; _STL::basic_string<char,_STL::char_traits<char>,_STL::allocator<char> >::assign
; Function compile flags: /Ogsy
;	COMDAT ?assign@?$basic_string@DV?$char_traits@D@_STL@@V?$allocator@D@2@@_STL@@QAEAAV12@PBD0@Z
_TEXT	SEGMENT
___f$ = 8						; size = 4
___l$ = 12						; size = 4
$T107862 = 15						; size = 1
?assign@?$basic_string@DV?$char_traits@D@_STL@@V?$allocator@D@2@@_STL@@QAEAAV12@PBD0@Z PROC NEAR ; _STL::basic_string<char,_STL::char_traits<char>,_STL::allocator<char> >::assign, COMDAT
; _this$ = ecx

; 650  :   {

  00000	55		 push	 ebp
  00001	8b ec		 mov	 ebp, esp
  00003	53		 push	 ebx

; 651  :     ptrdiff_t __n = __l - __f;

  00004	8b 5d 08	 mov	 ebx, DWORD PTR ___f$[ebp]
  00007	56		 push	 esi
  00008	8b f1		 mov	 esi, ecx

; 652  :     if (__STATIC_CAST(size_type,__n) <= size()) {

  0000a	8b 0e		 mov	 ecx, DWORD PTR [esi]
  0000c	8b 46 04	 mov	 eax, DWORD PTR [esi+4]
  0000f	57		 push	 edi
  00010	8b 7d 0c	 mov	 edi, DWORD PTR ___l$[ebp]
  00013	2b fb		 sub	 edi, ebx
  00015	2b c1		 sub	 eax, ecx
  00017	3b f8		 cmp	 edi, eax
  00019	77 20		 ja	 SHORT $L104414

; 653  :       _Traits::copy(this->_M_start, __f, __n);

  0001b	85 ff		 test	 edi, edi
  0001d	74 0b		 je	 SHORT $L107825
  0001f	57		 push	 edi
  00020	53		 push	 ebx
  00021	51		 push	 ecx
  00022	e8 00 00 00 00	 call	 _memcpy
  00027	83 c4 0c	 add	 esp, 12			; 0000000cH
$L107825:

; 654  :       erase(begin() + __n, end());

  0002a	8b 06		 mov	 eax, DWORD PTR [esi]
  0002c	ff 76 04	 push	 DWORD PTR [esi+4]
  0002f	03 c7		 add	 eax, edi
  00031	50		 push	 eax
  00032	8b ce		 mov	 ecx, esi
  00034	e8 00 00 00 00	 call	 ?erase@?$basic_string@DV?$char_traits@D@_STL@@V?$allocator@D@2@@_STL@@QAEPADPAD0@Z ; _STL::basic_string<char,_STL::char_traits<char>,_STL::allocator<char> >::erase

; 655  :     }
; 656  :     else {

  00039	eb 25		 jmp	 SHORT $L107858
$L104414:

; 657  :       _Traits::copy(this->_M_start, __f, size());

  0003b	85 c0		 test	 eax, eax
  0003d	74 0b		 je	 SHORT $L107844
  0003f	50		 push	 eax
  00040	53		 push	 ebx
  00041	51		 push	 ecx
  00042	e8 00 00 00 00	 call	 _memcpy
  00047	83 c4 0c	 add	 esp, 12			; 0000000cH
$L107844:

; 658  :       append(__f + size(), __l);

  0004a	8d 45 0f	 lea	 eax, DWORD PTR $T107862[ebp]
  0004d	50		 push	 eax
  0004e	8b 46 04	 mov	 eax, DWORD PTR [esi+4]
  00051	2b 06		 sub	 eax, DWORD PTR [esi]
  00053	ff 75 0c	 push	 DWORD PTR ___l$[ebp]
  00056	03 c3		 add	 eax, ebx
  00058	50		 push	 eax
  00059	8b ce		 mov	 ecx, esi
  0005b	e8 00 00 00 00	 call	 ??$append@PBD@?$basic_string@DV?$char_traits@D@_STL@@V?$allocator@D@2@@_STL@@AAEAAV01@PBD0ABUforward_iterator_tag@1@@Z ; _STL::basic_string<char,_STL::char_traits<char>,_STL::allocator<char> >::append<char const *>
$L107858:
  00060	5f		 pop	 edi

; 659  :     }
; 660  :     return *this;

  00061	8b c6		 mov	 eax, esi
  00063	5e		 pop	 esi
  00064	5b		 pop	 ebx

; 661  :   }

  00065	5d		 pop	 ebp
  00066	c2 08 00	 ret	 8
?assign@?$basic_string@DV?$char_traits@D@_STL@@V?$allocator@D@2@@_STL@@QAEAAV12@PBD0@Z ENDP ; _STL::basic_string<char,_STL::char_traits<char>,_STL::allocator<char> >::assign
_TEXT	ENDS
PUBLIC	??$_M_assign_dispatch@PAD@?$basic_string@DV?$char_traits@D@_STL@@V?$allocator@D@2@@_STL@@AAEAAV01@PAD0ABU__false_type@1@@Z ; _STL::basic_string<char,_STL::char_traits<char>,_STL::allocator<char> >::_M_assign_dispatch<char *>
; Function compile flags: /Ogsy
;	COMDAT ??$_M_assign_dispatch@PAD@?$basic_string@DV?$char_traits@D@_STL@@V?$allocator@D@2@@_STL@@AAEAAV01@PAD0ABU__false_type@1@@Z
_TEXT	SEGMENT
___f$ = 8						; size = 4
$T107885 = 11						; size = 1
___l$ = 12						; size = 4
___formal$ = 16						; size = 4
??$_M_assign_dispatch@PAD@?$basic_string@DV?$char_traits@D@_STL@@V?$allocator@D@2@@_STL@@AAEAAV01@PAD0ABU__false_type@1@@Z PROC NEAR ; _STL::basic_string<char,_STL::char_traits<char>,_STL::allocator<char> >::_M_assign_dispatch<char *>, COMDAT
; _this$ = ecx

; 624  :   _Self& _M_assign_dispatch(_InputIter __f, _InputIter __l,

  00000	55		 push	 ebp
  00001	8b ec		 mov	 ebp, esp
  00003	56		 push	 esi
  00004	8b f1		 mov	 esi, ecx

; 625  : 			    const __false_type&)  {
; 626  :     pointer __cur = this->_M_start;
; 627  :     while (__f != __l && __cur != this->_M_finish) {

  00006	8b 4d 08	 mov	 ecx, DWORD PTR ___f$[ebp]
  00009	8b 06		 mov	 eax, DWORD PTR [esi]
  0000b	57		 push	 edi
  0000c	8b 7d 0c	 mov	 edi, DWORD PTR ___l$[ebp]
  0000f	3b cf		 cmp	 ecx, edi
  00011	74 13		 je	 SHORT $L107889
$L104638:
  00013	3b 46 04	 cmp	 eax, DWORD PTR [esi+4]
  00016	74 0a		 je	 SHORT $L104639

; 628  :       _Traits::assign(*__cur, *__f);

  00018	8a 11		 mov	 dl, BYTE PTR [ecx]

; 629  :       ++__f;

  0001a	41		 inc	 ecx
  0001b	88 10		 mov	 BYTE PTR [eax], dl

; 630  :       ++__cur;

  0001d	40		 inc	 eax
  0001e	3b cf		 cmp	 ecx, edi
  00020	75 f1		 jne	 SHORT $L104638
$L104639:

; 631  :     }
; 632  :     if (__f == __l)

  00022	3b cf		 cmp	 ecx, edi
  00024	75 0d		 jne	 SHORT $L104640
$L107889:

; 633  :       erase(__cur, end());

  00026	ff 76 04	 push	 DWORD PTR [esi+4]
  00029	8b ce		 mov	 ecx, esi
  0002b	50		 push	 eax
  0002c	e8 00 00 00 00	 call	 ?erase@?$basic_string@DV?$char_traits@D@_STL@@V?$allocator@D@2@@_STL@@QAEPADPAD0@Z ; _STL::basic_string<char,_STL::char_traits<char>,_STL::allocator<char> >::erase

; 634  :     else

  00031	eb 0d		 jmp	 SHORT $L107883
$L104640:

; 635  :       append(__f, __l);

  00033	8d 45 0b	 lea	 eax, DWORD PTR $T107885[ebp]
  00036	50		 push	 eax
  00037	57		 push	 edi
  00038	51		 push	 ecx
  00039	8b ce		 mov	 ecx, esi
  0003b	e8 00 00 00 00	 call	 ??$append@PAD@?$basic_string@DV?$char_traits@D@_STL@@V?$allocator@D@2@@_STL@@AAEAAV01@PAD0ABUforward_iterator_tag@1@@Z ; _STL::basic_string<char,_STL::char_traits<char>,_STL::allocator<char> >::append<char *>
$L107883:
  00040	5f		 pop	 edi

; 636  :     return *this;

  00041	8b c6		 mov	 eax, esi
  00043	5e		 pop	 esi

; 637  :   }

  00044	5d		 pop	 ebp
  00045	c2 0c 00	 ret	 12			; 0000000cH
??$_M_assign_dispatch@PAD@?$basic_string@DV?$char_traits@D@_STL@@V?$allocator@D@2@@_STL@@AAEAAV01@PAD0ABU__false_type@1@@Z ENDP ; _STL::basic_string<char,_STL::char_traits<char>,_STL::allocator<char> >::_M_assign_dispatch<char *>
_TEXT	ENDS
PUBLIC	??$assign@PAD@?$basic_string@DV?$char_traits@D@_STL@@V?$allocator@D@2@@_STL@@QAEAAV01@PAD0@Z ; _STL::basic_string<char,_STL::char_traits<char>,_STL::allocator<char> >::assign<char *>
; Function compile flags: /Ogsy
;	COMDAT ??$assign@PAD@?$basic_string@DV?$char_traits@D@_STL@@V?$allocator@D@2@@_STL@@QAEAAV01@PAD0@Z
_TEXT	SEGMENT
___first$ = 8						; size = 4
___last$ = 12						; size = 4
$T107892 = 15						; size = 1
??$assign@PAD@?$basic_string@DV?$char_traits@D@_STL@@V?$allocator@D@2@@_STL@@QAEAAV01@PAD0@Z PROC NEAR ; _STL::basic_string<char,_STL::char_traits<char>,_STL::allocator<char> >::assign<char *>, COMDAT
; _this$ = ecx

; 642  :   template <class _InputIter> _Self& assign(_InputIter __first, _InputIter __last) {

  00000	55		 push	 ebp
  00001	8b ec		 mov	 ebp, esp

; 643  :     typedef typename _Is_integer<_InputIter>::_Integral _Integral;
; 644  :     return _M_assign_dispatch(__first, __last, _Integral());

  00003	8d 45 0f	 lea	 eax, DWORD PTR $T107892[ebp]
  00006	50		 push	 eax
  00007	ff 75 0c	 push	 DWORD PTR ___last$[ebp]
  0000a	ff 75 08	 push	 DWORD PTR ___first$[ebp]
  0000d	e8 00 00 00 00	 call	 ??$_M_assign_dispatch@PAD@?$basic_string@DV?$char_traits@D@_STL@@V?$allocator@D@2@@_STL@@AAEAAV01@PAD0ABU__false_type@1@@Z ; _STL::basic_string<char,_STL::char_traits<char>,_STL::allocator<char> >::_M_assign_dispatch<char *>

; 645  :   }

  00012	5d		 pop	 ebp
  00013	c2 08 00	 ret	 8
??$assign@PAD@?$basic_string@DV?$char_traits@D@_STL@@V?$allocator@D@2@@_STL@@QAEAAV01@PAD0@Z ENDP ; _STL::basic_string<char,_STL::char_traits<char>,_STL::allocator<char> >::assign<char *>
_TEXT	ENDS
PUBLIC	??4?$basic_string@DV?$char_traits@D@_STL@@V?$allocator@D@2@@_STL@@QAEAAV01@PBD@Z ; _STL::basic_string<char,_STL::char_traits<char>,_STL::allocator<char> >::operator=
; Function compile flags: /Ogsy
;	COMDAT ??4?$basic_string@DV?$char_traits@D@_STL@@V?$allocator@D@2@@_STL@@QAEAAV01@PBD@Z
_TEXT	SEGMENT
___s$ = 8						; size = 4
??4?$basic_string@DV?$char_traits@D@_STL@@V?$allocator@D@2@@_STL@@QAEAAV01@PBD@Z PROC NEAR ; _STL::basic_string<char,_STL::char_traits<char>,_STL::allocator<char> >::operator=, COMDAT
; _this$ = ecx

; 313  :   _Self& operator=(const _CharT* __s) { 

  00000	56		 push	 esi

; 314  :     _STLP_FIX_LITERAL_BUG(__s)
; 315  :     return assign(__s, __s + traits_type::length(__s)); 

  00001	8b 74 24 08	 mov	 esi, DWORD PTR ___s$[esp]
  00005	57		 push	 edi
  00006	56		 push	 esi
  00007	8b f9		 mov	 edi, ecx
  00009	e8 00 00 00 00	 call	 _strlen
  0000e	59		 pop	 ecx
  0000f	03 c6		 add	 eax, esi
  00011	50		 push	 eax
  00012	56		 push	 esi
  00013	8b cf		 mov	 ecx, edi
  00015	e8 00 00 00 00	 call	 ?assign@?$basic_string@DV?$char_traits@D@_STL@@V?$allocator@D@2@@_STL@@QAEAAV12@PBD0@Z ; _STL::basic_string<char,_STL::char_traits<char>,_STL::allocator<char> >::assign
  0001a	5f		 pop	 edi
  0001b	5e		 pop	 esi

; 316  :   }

  0001c	c2 04 00	 ret	 4
??4?$basic_string@DV?$char_traits@D@_STL@@V?$allocator@D@2@@_STL@@QAEAAV01@PBD@Z ENDP ; _STL::basic_string<char,_STL::char_traits<char>,_STL::allocator<char> >::operator=
_TEXT	ENDS
PUBLIC	??4?$basic_string@DV?$char_traits@D@_STL@@V?$allocator@D@2@@_STL@@QAEAAV01@ABV01@@Z ; _STL::basic_string<char,_STL::char_traits<char>,_STL::allocator<char> >::operator=
; Function compile flags: /Ogsy
;	COMDAT ??4?$basic_string@DV?$char_traits@D@_STL@@V?$allocator@D@2@@_STL@@QAEAAV01@ABV01@@Z
_TEXT	SEGMENT
___s$ = 8						; size = 4
$T107904 = 11						; size = 1
??4?$basic_string@DV?$char_traits@D@_STL@@V?$allocator@D@2@@_STL@@QAEAAV01@ABV01@@Z PROC NEAR ; _STL::basic_string<char,_STL::char_traits<char>,_STL::allocator<char> >::operator=, COMDAT
; _this$ = ecx

; 307  :   _Self& operator=(const _Self& __s) {

  00000	55		 push	 ebp
  00001	8b ec		 mov	 ebp, esp

; 308  :     if (&__s != this) 

  00003	8b 45 08	 mov	 eax, DWORD PTR ___s$[ebp]
  00006	56		 push	 esi
  00007	8b f1		 mov	 esi, ecx
  00009	3b c6		 cmp	 eax, esi
  0000b	74 10		 je	 SHORT $L107905

; 309  :       assign(__s._M_start, __s._M_finish);

  0000d	8d 4d 0b	 lea	 ecx, DWORD PTR $T107904[ebp]
  00010	51		 push	 ecx
  00011	ff 70 04	 push	 DWORD PTR [eax+4]
  00014	8b ce		 mov	 ecx, esi
  00016	ff 30		 push	 DWORD PTR [eax]
  00018	e8 00 00 00 00	 call	 ??$_M_assign_dispatch@PAD@?$basic_string@DV?$char_traits@D@_STL@@V?$allocator@D@2@@_STL@@AAEAAV01@PAD0ABU__false_type@1@@Z ; _STL::basic_string<char,_STL::char_traits<char>,_STL::allocator<char> >::_M_assign_dispatch<char *>
$L107905:

; 310  :     return *this;

  0001d	8b c6		 mov	 eax, esi
  0001f	5e		 pop	 esi

; 311  :   }

  00020	5d		 pop	 ebp
  00021	c2 04 00	 ret	 4
??4?$basic_string@DV?$char_traits@D@_STL@@V?$allocator@D@2@@_STL@@QAEAAV01@ABV01@@Z ENDP ; _STL::basic_string<char,_STL::char_traits<char>,_STL::allocator<char> >::operator=
_TEXT	ENDS
PUBLIC	??_C@_0BN@ODLNCKCA@Data?2?2Info?2?2ClientConfig?4inf?$AA@ ; `string'
PUBLIC	??_C@_0BM@DFPLPGPC@Data?2?2Info?2?2GuildMapper?4inf?$AA@ ; `string'
PUBLIC	??_C@_0BN@LHODHNBK@Data?2?2Info?2?2GuildVersion?4inf?$AA@ ; `string'
PUBLIC	??_C@_0BH@DDPLNCOL@Data?2?2Info?2?2Player?4inf?$AA@ ; `string'
PUBLIC	??_C@_0BL@ILLNAPHB@Data?2?2Info?2?2Resolution?4inf?$AA@ ; `string'
PUBLIC	??_C@_0CA@HEIGFDLG@Data?2?2Info?2?2SelectedChannel?4inf?$AA@ ; `string'
PUBLIC	?Init@iovfs_base@@QAEXXZ			; iovfs_base::Init
;	COMDAT ??_C@_0BN@ODLNCKCA@Data?2?2Info?2?2ClientConfig?4inf?$AA@
; File c:\darkeden\designed_common\project\client\virtualfilesystem\vfstream.inl
CONST	SEGMENT
??_C@_0BN@ODLNCKCA@Data?2?2Info?2?2ClientConfig?4inf?$AA@ DB 'Data\\Info\'
	DB	'\ClientConfig.inf', 00H			; `string'
CONST	ENDS
;	COMDAT ??_C@_0BM@DFPLPGPC@Data?2?2Info?2?2GuildMapper?4inf?$AA@
CONST	SEGMENT
??_C@_0BM@DFPLPGPC@Data?2?2Info?2?2GuildMapper?4inf?$AA@ DB 'Data\\Info\\'
	DB	'GuildMapper.inf', 00H			; `string'
CONST	ENDS
;	COMDAT ??_C@_0BN@LHODHNBK@Data?2?2Info?2?2GuildVersion?4inf?$AA@
CONST	SEGMENT
??_C@_0BN@LHODHNBK@Data?2?2Info?2?2GuildVersion?4inf?$AA@ DB 'Data\\Info\'
	DB	'\GuildVersion.inf', 00H			; `string'
CONST	ENDS
;	COMDAT ??_C@_0BH@DDPLNCOL@Data?2?2Info?2?2Player?4inf?$AA@
CONST	SEGMENT
??_C@_0BH@DDPLNCOL@Data?2?2Info?2?2Player?4inf?$AA@ DB 'Data\\Info\\Playe'
	DB	'r.inf', 00H					; `string'
CONST	ENDS
;	COMDAT ??_C@_0BL@ILLNAPHB@Data?2?2Info?2?2Resolution?4inf?$AA@
CONST	SEGMENT
??_C@_0BL@ILLNAPHB@Data?2?2Info?2?2Resolution?4inf?$AA@ DB 'Data\\Info\\R'
	DB	'esolution.inf', 00H				; `string'
CONST	ENDS
;	COMDAT ??_C@_0CA@HEIGFDLG@Data?2?2Info?2?2SelectedChannel?4inf?$AA@
CONST	SEGMENT
??_C@_0CA@HEIGFDLG@Data?2?2Info?2?2SelectedChannel?4inf?$AA@ DB 'Data\\In'
	DB	'fo\\SelectedChannel.inf', 00H		; `string'
; Function compile flags: /Ogsy
CONST	ENDS
;	COMDAT ?Init@iovfs_base@@QAEXXZ
_TEXT	SEGMENT
?Init@iovfs_base@@QAEXXZ PROC NEAR			; iovfs_base::Init, COMDAT
; _this$ = ecx

; 27   : {

  00000	56		 push	 esi
  00001	8b f1		 mov	 esi, ecx

; 28   : 	m_pFileIO = NULL;

  00003	83 66 04 00	 and	 DWORD PTR [esi+4], 0

; 29   : 
; 30   : 	m_strExceptList[0] = "Data\\\\Info\\\\ClientConfig.inf";

  00007	68 00 00 00 00	 push	 OFFSET FLAT:??_C@_0BN@ODLNCKCA@Data?2?2Info?2?2ClientConfig?4inf?$AA@
  0000c	8d 4e 08	 lea	 ecx, DWORD PTR [esi+8]
  0000f	e8 00 00 00 00	 call	 ??4?$basic_string@DV?$char_traits@D@_STL@@V?$allocator@D@2@@_STL@@QAEAAV01@PBD@Z ; _STL::basic_string<char,_STL::char_traits<char>,_STL::allocator<char> >::operator=

; 31   : 	m_strExceptList[1] = "Data\\\\Info\\\\GuildMapper.inf";

  00014	68 00 00 00 00	 push	 OFFSET FLAT:??_C@_0BM@DFPLPGPC@Data?2?2Info?2?2GuildMapper?4inf?$AA@
  00019	8d 4e 14	 lea	 ecx, DWORD PTR [esi+20]
  0001c	e8 00 00 00 00	 call	 ??4?$basic_string@DV?$char_traits@D@_STL@@V?$allocator@D@2@@_STL@@QAEAAV01@PBD@Z ; _STL::basic_string<char,_STL::char_traits<char>,_STL::allocator<char> >::operator=

; 32   : 	m_strExceptList[2] = "Data\\\\Info\\\\GuildVersion.inf";

  00021	68 00 00 00 00	 push	 OFFSET FLAT:??_C@_0BN@LHODHNBK@Data?2?2Info?2?2GuildVersion?4inf?$AA@
  00026	8d 4e 20	 lea	 ecx, DWORD PTR [esi+32]
  00029	e8 00 00 00 00	 call	 ??4?$basic_string@DV?$char_traits@D@_STL@@V?$allocator@D@2@@_STL@@QAEAAV01@PBD@Z ; _STL::basic_string<char,_STL::char_traits<char>,_STL::allocator<char> >::operator=

; 33   : 	m_strExceptList[3] = "Data\\\\Info\\\\Player.inf";

  0002e	68 00 00 00 00	 push	 OFFSET FLAT:??_C@_0BH@DDPLNCOL@Data?2?2Info?2?2Player?4inf?$AA@
  00033	8d 4e 2c	 lea	 ecx, DWORD PTR [esi+44]
  00036	e8 00 00 00 00	 call	 ??4?$basic_string@DV?$char_traits@D@_STL@@V?$allocator@D@2@@_STL@@QAEAAV01@PBD@Z ; _STL::basic_string<char,_STL::char_traits<char>,_STL::allocator<char> >::operator=

; 34   : 	m_strExceptList[4] = "Data\\\\Info\\\\Resolution.inf";

  0003b	68 00 00 00 00	 push	 OFFSET FLAT:??_C@_0BL@ILLNAPHB@Data?2?2Info?2?2Resolution?4inf?$AA@
  00040	8d 4e 38	 lea	 ecx, DWORD PTR [esi+56]
  00043	e8 00 00 00 00	 call	 ??4?$basic_string@DV?$char_traits@D@_STL@@V?$allocator@D@2@@_STL@@QAEAAV01@PBD@Z ; _STL::basic_string<char,_STL::char_traits<char>,_STL::allocator<char> >::operator=

; 35   : 	m_strExceptList[5] = "Data\\\\Info\\\\SelectedChannel.inf";

  00048	68 00 00 00 00	 push	 OFFSET FLAT:??_C@_0CA@HEIGFDLG@Data?2?2Info?2?2SelectedChannel?4inf?$AA@
  0004d	8d 4e 44	 lea	 ecx, DWORD PTR [esi+68]
  00050	e8 00 00 00 00	 call	 ??4?$basic_string@DV?$char_traits@D@_STL@@V?$allocator@D@2@@_STL@@QAEAAV01@PBD@Z ; _STL::basic_string<char,_STL::char_traits<char>,_STL::allocator<char> >::operator=
  00055	5e		 pop	 esi

; 36   : 	
; 37   : }

  00056	c3		 ret	 0
?Init@iovfs_base@@QAEXXZ ENDP				; iovfs_base::Init
_TEXT	ENDS
PUBLIC	?imbue@?$basic_ios@DV?$char_traits@D@_STL@@@_STL@@QAE?AVlocale@2@ABV32@@Z ; _STL::basic_ios<char,_STL::char_traits<char> >::imbue
EXTRN	?pubimbue@?$basic_streambuf@DV?$char_traits@D@_STL@@@_STL@@QAE?AVlocale@2@ABV32@@Z:NEAR ; _STL::basic_streambuf<char,_STL::char_traits<char> >::pubimbue
EXTRN	??0locale@_STL@@QAE@ABV01@@Z:NEAR		; _STL::locale::locale
EXTRN	?_M_get_facet@locale@_STL@@QBEPAVfacet@12@ABVid@12@@Z:NEAR ; _STL::locale::_M_get_facet
EXTRN	?id@?$ctype@D@_STL@@2V0locale@2@A:DWORD		; _STL::ctype<char>::id
EXTRN	?imbue@ios_base@_STL@@QAE?AVlocale@2@ABV32@@Z:NEAR ; _STL::ios_base::imbue
EXTRN	?id@?$numpunct@D@_STL@@2V0locale@2@A:DWORD	; _STL::numpunct<char>::id
;	COMDAT xdata$x
; File c:\stlport-4.6.1\stlport\stl\_alloc.h
xdata$x	SEGMENT
$T107962 DD	0ffffffffH
	DD	FLAT:$L107919
	DD	00H
	DD	FLAT:$L107916
	DD	01H
	DD	FLAT:$L107918
$T107960 DD	019930520H
	DD	03H
	DD	FLAT:$T107962
	DD	2 DUP(00H)
	DD	2 DUP(00H)
; Function compile flags: /Ogsy
; File c:\stlport-4.6.1\stlport\stl\_ios.c
xdata$x	ENDS
;	COMDAT ?imbue@?$basic_ios@DV?$char_traits@D@_STL@@@_STL@@QAE?AVlocale@2@ABV32@@Z
_TEXT	SEGMENT
$T107915 = -32						; size = 12
$T107920 = -20						; size = 4
$T107914 = -16						; size = 4
__$EHRec$ = -12						; size = 12
___$ReturnUdt$ = 8					; size = 4
___tmp$ = 12						; size = 4
___loc$ = 12						; size = 4
?imbue@?$basic_ios@DV?$char_traits@D@_STL@@@_STL@@QAE?AVlocale@2@ABV32@@Z PROC NEAR ; _STL::basic_ios<char,_STL::char_traits<char> >::imbue, COMDAT
; _this$ = ecx

; 74   : {

  00000	b8 00 00 00 00	 mov	 eax, __ehhandler$?imbue@?$basic_ios@DV?$char_traits@D@_STL@@@_STL@@QAE?AVlocale@2@ABV32@@Z
  00005	e8 00 00 00 00	 call	 __EH_prolog
  0000a	83 ec 14	 sub	 esp, 20			; 00000014H
  0000d	83 65 ec 00	 and	 DWORD PTR $T107920[ebp], 0
  00011	53		 push	 ebx
  00012	56		 push	 esi
  00013	57		 push	 edi

; 75   :   locale __tmp = ios_base::imbue(__loc);

  00014	8b 7d 0c	 mov	 edi, DWORD PTR ___loc$[ebp]
  00017	57		 push	 edi
  00018	8d 45 0c	 lea	 eax, DWORD PTR ___tmp$[ebp]
  0001b	50		 push	 eax
  0001c	8b f1		 mov	 esi, ecx
  0001e	e8 00 00 00 00	 call	 ?imbue@ios_base@_STL@@QAE?AVlocale@2@ABV32@@Z ; _STL::ios_base::imbue

; 76   : 
; 77   :   if (_M_streambuf)

  00023	8b 4e 58	 mov	 ecx, DWORD PTR [esi+88]
  00026	33 db		 xor	 ebx, ebx
  00028	43		 inc	 ebx
  00029	85 c9		 test	 ecx, ecx
  0002b	89 5d fc	 mov	 DWORD PTR __$EHRec$[ebp+8], ebx
  0002e	74 12		 je	 SHORT $L104758

; 78   :     _M_streambuf->pubimbue(__loc);

  00030	57		 push	 edi
  00031	8d 45 f0	 lea	 eax, DWORD PTR $T107914[ebp]
  00034	50		 push	 eax
  00035	e8 00 00 00 00	 call	 ?pubimbue@?$basic_streambuf@DV?$char_traits@D@_STL@@@_STL@@QAE?AVlocale@2@ABV32@@Z ; _STL::basic_streambuf<char,_STL::char_traits<char> >::pubimbue
  0003a	8d 4d f0	 lea	 ecx, DWORD PTR $T107914[ebp]
  0003d	e8 00 00 00 00	 call	 ??1locale@_STL@@QAE@XZ	; _STL::locale::~locale
$L104758:

; 79   : 
; 80   :   // no throwing here
; 81   :   this->_M_cached_ctype = __loc._M_get_facet(ctype<char_type>::id) ;

  00042	68 00 00 00 00	 push	 OFFSET FLAT:?id@?$ctype@D@_STL@@2V0locale@2@A ; _STL::ctype<char>::id
  00047	8b cf		 mov	 ecx, edi
  00049	e8 00 00 00 00	 call	 ?_M_get_facet@locale@_STL@@QBEPAVfacet@12@ABVid@12@@Z ; _STL::locale::_M_get_facet

; 82   :   this->_M_cached_numpunct = __loc._M_get_facet(numpunct<char_type>::id) ;

  0004e	68 00 00 00 00	 push	 OFFSET FLAT:?id@?$numpunct@D@_STL@@2V0locale@2@A ; _STL::numpunct<char>::id
  00053	8b cf		 mov	 ecx, edi
  00055	89 46 40	 mov	 DWORD PTR [esi+64], eax
  00058	e8 00 00 00 00	 call	 ?_M_get_facet@locale@_STL@@QBEPAVfacet@12@ABVid@12@@Z ; _STL::locale::_M_get_facet

; 83   :   this->_M_cached_grouping = ((numpunct<char_type>*)_M_cached_numpunct)->grouping() ;

  0005d	8d 4d e0	 lea	 ecx, DWORD PTR $T107915[ebp]
  00060	51		 push	 ecx
  00061	8b c8		 mov	 ecx, eax
  00063	89 46 44	 mov	 DWORD PTR [esi+68], eax
  00066	e8 00 00 00 00	 call	 ?grouping@?$numpunct@D@_STL@@QBE?AV?$basic_string@DV?$char_traits@D@_STL@@V?$allocator@D@2@@2@XZ ; _STL::numpunct<char>::grouping
  0006b	50		 push	 eax
  0006c	8d 4e 48	 lea	 ecx, DWORD PTR [esi+72]
  0006f	c6 45 fc 02	 mov	 BYTE PTR __$EHRec$[ebp+8], 2
  00073	e8 00 00 00 00	 call	 ??4?$basic_string@DV?$char_traits@D@_STL@@V?$allocator@D@2@@_STL@@QAEAAV01@ABV01@@Z ; _STL::basic_string<char,_STL::char_traits<char>,_STL::allocator<char> >::operator=
  00078	8b 45 e8	 mov	 eax, DWORD PTR $T107915[ebp+8]
  0007b	2b 45 e0	 sub	 eax, DWORD PTR $T107915[ebp]
  0007e	8d 4d e8	 lea	 ecx, DWORD PTR $T107915[ebp+8]
  00081	50		 push	 eax
  00082	ff 75 e0	 push	 DWORD PTR $T107915[ebp]
  00085	88 5d fc	 mov	 BYTE PTR __$EHRec$[ebp+8], bl
  00088	e8 00 00 00 00	 call	 ?deallocate@?$allocator@D@_STL@@QAEXPADI@Z ; _STL::allocator<char>::deallocate

; 84   :   return __tmp;

  0008d	8b 4d 08	 mov	 ecx, DWORD PTR ___$ReturnUdt$[ebp]
  00090	8d 45 0c	 lea	 eax, DWORD PTR ___tmp$[ebp]
  00093	50		 push	 eax
  00094	e8 00 00 00 00	 call	 ??0locale@_STL@@QAE@ABV01@@Z ; _STL::locale::locale
  00099	8d 4d 0c	 lea	 ecx, DWORD PTR ___tmp$[ebp]
  0009c	89 5d ec	 mov	 DWORD PTR $T107920[ebp], ebx
  0009f	c6 45 fc 00	 mov	 BYTE PTR __$EHRec$[ebp+8], 0
  000a3	e8 00 00 00 00	 call	 ??1locale@_STL@@QAE@XZ	; _STL::locale::~locale

; 85   : }

  000a8	8b 4d f4	 mov	 ecx, DWORD PTR __$EHRec$[ebp]
  000ab	8b 45 08	 mov	 eax, DWORD PTR ___$ReturnUdt$[ebp]
  000ae	5f		 pop	 edi
  000af	5e		 pop	 esi
  000b0	5b		 pop	 ebx
  000b1	64 89 0d 00 00
	00 00		 mov	 DWORD PTR fs:__except_list, ecx
  000b8	c9		 leave
  000b9	c2 08 00	 ret	 8
_TEXT	ENDS
;	COMDAT text$x
text$x	SEGMENT
$L107916:
  00000	8d 4d 0c	 lea	 ecx, DWORD PTR ___tmp$[ebp]
  00003	e9 00 00 00 00	 jmp	 ??1locale@_STL@@QAE@XZ	; _STL::locale::~locale
$L107918:
  00008	8d 4d e0	 lea	 ecx, DWORD PTR $T107915[ebp]
  0000b	e9 00 00 00 00	 jmp	 ??1?$basic_string@DV?$char_traits@D@_STL@@V?$allocator@D@2@@_STL@@QAE@XZ ; _STL::basic_string<char,_STL::char_traits<char>,_STL::allocator<char> >::~basic_string<char,_STL::char_traits<char>,_STL::allocator<char> >
$L107919:
  00010	8b 45 ec	 mov	 eax, DWORD PTR $T107920[ebp]
  00013	83 e0 01	 and	 eax, 1
  00016	0f 84 0c 00 00
	00		 je	 $L107921
  0001c	83 65 ec fe	 and	 DWORD PTR $T107920[ebp], -2 ; fffffffeH
  00020	8b 4d 08	 mov	 ecx, DWORD PTR ___$ReturnUdt$[ebp]
  00023	e9 00 00 00 00	 jmp	 ??1locale@_STL@@QAE@XZ	; _STL::locale::~locale
$L107921:
  00028	c3		 ret	 0
__ehhandler$?imbue@?$basic_ios@DV?$char_traits@D@_STL@@@_STL@@QAE?AVlocale@2@ABV32@@Z:
  00029	b8 00 00 00 00	 mov	 eax, OFFSET FLAT:$T107960
  0002e	e9 00 00 00 00	 jmp	 ___CxxFrameHandler
text$x	ENDS
?imbue@?$basic_ios@DV?$char_traits@D@_STL@@@_STL@@QAE?AVlocale@2@ABV32@@Z ENDP ; _STL::basic_ios<char,_STL::char_traits<char> >::imbue
PUBLIC	??0iovfs_base@@QAE@XZ				; iovfs_base::iovfs_base
EXTRN	??_L@YGXPAXIHP6EX0@Z1@Z:NEAR			; `eh vector constructor iterator'
;	COMDAT xdata$x
; File c:\darkeden\designed_common\project\client\virtualfilesystem\vfstream.inl
xdata$x	SEGMENT
$T107971 DD	0ffffffffH
	DD	FLAT:$L107967
$T107969 DD	019930520H
	DD	01H
	DD	FLAT:$T107971
	DD	2 DUP(00H)
	DD	2 DUP(00H)
; Function compile flags: /Ogsy
xdata$x	ENDS
;	COMDAT ??0iovfs_base@@QAE@XZ
_TEXT	SEGMENT
_this$ = -16						; size = 4
__$EHRec$ = -12						; size = 12
??0iovfs_base@@QAE@XZ PROC NEAR				; iovfs_base::iovfs_base, COMDAT
; _this$ = ecx

; 11   : {

  00000	b8 00 00 00 00	 mov	 eax, __ehhandler$??0iovfs_base@@QAE@XZ
  00005	e8 00 00 00 00	 call	 __EH_prolog
  0000a	51		 push	 ecx
  0000b	56		 push	 esi
  0000c	68 00 00 00 00	 push	 OFFSET FLAT:??1?$basic_string@DV?$char_traits@D@_STL@@V?$allocator@D@2@@_STL@@QAE@XZ ; _STL::basic_string<char,_STL::char_traits<char>,_STL::allocator<char> >::~basic_string<char,_STL::char_traits<char>,_STL::allocator<char> >
  00011	68 00 00 00 00	 push	 OFFSET FLAT:??0?$basic_string@DV?$char_traits@D@_STL@@V?$allocator@D@2@@_STL@@QAE@XZ ; _STL::basic_string<char,_STL::char_traits<char>,_STL::allocator<char> >::basic_string<char,_STL::char_traits<char>,_STL::allocator<char> >
  00016	8b f1		 mov	 esi, ecx
  00018	6a 06		 push	 6
  0001a	6a 0c		 push	 12			; 0000000cH
  0001c	8d 46 08	 lea	 eax, DWORD PTR [esi+8]
  0001f	50		 push	 eax
  00020	89 75 f0	 mov	 DWORD PTR _this$[ebp], esi
  00023	c7 06 00 00 00
	00		 mov	 DWORD PTR [esi], OFFSET FLAT:??_7iovfs_base@@6B@
  00029	e8 00 00 00 00	 call	 ??_L@YGXPAXIHP6EX0@Z1@Z
  0002e	83 65 fc 00	 and	 DWORD PTR __$EHRec$[ebp+8], 0

; 12   : 	Init();

  00032	8b ce		 mov	 ecx, esi
  00034	e8 00 00 00 00	 call	 ?Init@iovfs_base@@QAEXXZ ; iovfs_base::Init

; 13   : }

  00039	8b 4d f4	 mov	 ecx, DWORD PTR __$EHRec$[ebp]
  0003c	8b c6		 mov	 eax, esi
  0003e	5e		 pop	 esi
  0003f	64 89 0d 00 00
	00 00		 mov	 DWORD PTR fs:__except_list, ecx
  00046	c9		 leave
  00047	c3		 ret	 0
_TEXT	ENDS
;	COMDAT text$x
text$x	SEGMENT
$L107967:
  00000	68 00 00 00 00	 push	 OFFSET FLAT:??1?$basic_string@DV?$char_traits@D@_STL@@V?$allocator@D@2@@_STL@@QAE@XZ ; _STL::basic_string<char,_STL::char_traits<char>,_STL::allocator<char> >::~basic_string<char,_STL::char_traits<char>,_STL::allocator<char> >
  00005	6a 06		 push	 6
  00007	6a 0c		 push	 12			; 0000000cH
  00009	8b 45 f0	 mov	 eax, DWORD PTR _this$[ebp]
  0000c	83 c0 08	 add	 eax, 8
  0000f	50		 push	 eax
  00010	e8 00 00 00 00	 call	 ??_M@YGXPAXIHP6EX0@Z@Z
  00015	c3		 ret	 0
__ehhandler$??0iovfs_base@@QAE@XZ:
  00016	b8 00 00 00 00	 mov	 eax, OFFSET FLAT:$T107969
  0001b	e9 00 00 00 00	 jmp	 ___CxxFrameHandler
text$x	ENDS
??0iovfs_base@@QAE@XZ ENDP				; iovfs_base::iovfs_base
PUBLIC	??0ivfstream@@QAE@PBDH@Z			; ivfstream::ivfstream
;	COMDAT xdata$x
xdata$x	SEGMENT
$T107983 DD	0ffffffffH
	DD	FLAT:$L107976
$T107981 DD	019930520H
	DD	01H
	DD	FLAT:$T107983
	DD	2 DUP(00H)
	DD	2 DUP(00H)
; Function compile flags: /Ogsy
xdata$x	ENDS
;	COMDAT ??0ivfstream@@QAE@PBDH@Z
_TEXT	SEGMENT
_this$ = -16						; size = 4
__$EHRec$ = -12						; size = 12
_szName$ = 8						; size = 4
_nMode$ = 12						; size = 4
??0ivfstream@@QAE@PBDH@Z PROC NEAR			; ivfstream::ivfstream, COMDAT
; _this$ = ecx

; 65   : {

  00000	b8 00 00 00 00	 mov	 eax, __ehhandler$??0ivfstream@@QAE@PBDH@Z
  00005	e8 00 00 00 00	 call	 __EH_prolog
  0000a	51		 push	 ecx
  0000b	56		 push	 esi
  0000c	8b f1		 mov	 esi, ecx
  0000e	89 75 f0	 mov	 DWORD PTR _this$[ebp], esi
  00011	e8 00 00 00 00	 call	 ??0iovfs_base@@QAE@XZ	; iovfs_base::iovfs_base

; 66   : 	open(szName, nMode);

  00016	8b 45 0c	 mov	 eax, DWORD PTR _nMode$[ebp]
  00019	83 65 fc 00	 and	 DWORD PTR __$EHRec$[ebp+8], 0
  0001d	83 c8 08	 or	 eax, 8
  00020	50		 push	 eax
  00021	ff 75 08	 push	 DWORD PTR _szName$[ebp]
  00024	8b ce		 mov	 ecx, esi
  00026	c7 06 00 00 00
	00		 mov	 DWORD PTR [esi], OFFSET FLAT:??_7ivfstream@@6B@
  0002c	e8 00 00 00 00	 call	 ?open@iovfs_base@@UAEXPBDH@Z ; iovfs_base::open

; 67   : }

  00031	8b 4d f4	 mov	 ecx, DWORD PTR __$EHRec$[ebp]
  00034	8b c6		 mov	 eax, esi
  00036	5e		 pop	 esi
  00037	64 89 0d 00 00
	00 00		 mov	 DWORD PTR fs:__except_list, ecx
  0003e	c9		 leave
  0003f	c2 08 00	 ret	 8
_TEXT	ENDS
;	COMDAT text$x
text$x	SEGMENT
$L107976:
  00000	8b 4d f0	 mov	 ecx, DWORD PTR _this$[ebp]
  00003	e9 00 00 00 00	 jmp	 ??1iovfs_base@@UAE@XZ	; iovfs_base::~iovfs_base
__ehhandler$??0ivfstream@@QAE@PBDH@Z:
  00008	b8 00 00 00 00	 mov	 eax, OFFSET FLAT:$T107981
  0000d	e9 00 00 00 00	 jmp	 ___CxxFrameHandler
text$x	ENDS
??0ivfstream@@QAE@PBDH@Z ENDP				; ivfstream::ivfstream
PUBLIC	?init@?$basic_ios@DV?$char_traits@D@_STL@@@_STL@@IAEXPAV?$basic_streambuf@DV?$char_traits@D@_STL@@@2@@Z ; _STL::basic_ios<char,_STL::char_traits<char> >::init
;	COMDAT xdata$x
; File c:\stlport-4.6.1\stlport\stl\_ios.h
xdata$x	SEGMENT
$T108036 DD	0ffffffffH
	DD	FLAT:$L107990
$T108034 DD	019930520H
	DD	01H
	DD	FLAT:$T108036
	DD	2 DUP(00H)
	DD	2 DUP(00H)
; Function compile flags: /Ogsy
; File c:\stlport-4.6.1\stlport\stl\_ios.c
xdata$x	ENDS
;	COMDAT ?init@?$basic_ios@DV?$char_traits@D@_STL@@@_STL@@IAEXPAV?$basic_streambuf@DV?$char_traits@D@_STL@@@2@@Z
_TEXT	SEGMENT
$T107988 = -20						; size = 4
$T107989 = -16						; size = 4
__$EHRec$ = -12						; size = 12
___sb$ = 8						; size = 4
?init@?$basic_ios@DV?$char_traits@D@_STL@@@_STL@@IAEXPAV?$basic_streambuf@DV?$char_traits@D@_STL@@@2@@Z PROC NEAR ; _STL::basic_ios<char,_STL::char_traits<char> >::init, COMDAT
; _this$ = ecx

; 100  : {

  00000	b8 00 00 00 00	 mov	 eax, __ehhandler$?init@?$basic_ios@DV?$char_traits@D@_STL@@@_STL@@IAEXPAV?$basic_streambuf@DV?$char_traits@D@_STL@@@2@@Z
  00005	e8 00 00 00 00	 call	 __EH_prolog
  0000a	51		 push	 ecx
  0000b	51		 push	 ecx
  0000c	56		 push	 esi
  0000d	57		 push	 edi

; 101  :   this->rdbuf(__sb);

  0000e	ff 75 08	 push	 DWORD PTR ___sb$[ebp]
  00011	8b f1		 mov	 esi, ecx
  00013	e8 00 00 00 00	 call	 ?rdbuf@?$basic_ios@DV?$char_traits@D@_STL@@@_STL@@QAEPAV?$basic_streambuf@DV?$char_traits@D@_STL@@@2@PAV32@@Z ; _STL::basic_ios<char,_STL::char_traits<char> >::rdbuf

; 102  :   this->imbue(locale());

  00018	8d 4d ec	 lea	 ecx, DWORD PTR $T107988[ebp]
  0001b	e8 00 00 00 00	 call	 ??0locale@_STL@@QAE@XZ	; _STL::locale::locale
  00020	50		 push	 eax
  00021	8d 45 f0	 lea	 eax, DWORD PTR $T107989[ebp]
  00024	33 ff		 xor	 edi, edi
  00026	50		 push	 eax
  00027	8b ce		 mov	 ecx, esi
  00029	89 7d fc	 mov	 DWORD PTR __$EHRec$[ebp+8], edi
  0002c	e8 00 00 00 00	 call	 ?imbue@?$basic_ios@DV?$char_traits@D@_STL@@@_STL@@QAE?AVlocale@2@ABV32@@Z ; _STL::basic_ios<char,_STL::char_traits<char> >::imbue
  00031	8d 4d f0	 lea	 ecx, DWORD PTR $T107989[ebp]
  00034	e8 00 00 00 00	 call	 ??1locale@_STL@@QAE@XZ	; _STL::locale::~locale
  00039	83 4d fc ff	 or	 DWORD PTR __$EHRec$[ebp+8], -1
  0003d	8d 4d ec	 lea	 ecx, DWORD PTR $T107988[ebp]
  00040	e8 00 00 00 00	 call	 ??1locale@_STL@@QAE@XZ	; _STL::locale::~locale

; 103  :   this->tie(0);
; 104  :   this->_M_set_exception_mask(ios_base::goodbit);
; 105  :   this->_M_clear_nothrow(__sb != 0 ? ios_base::goodbit : ios_base::badbit);
; 106  :   ios_base::flags(ios_base::skipws | ios_base::dec);
; 107  :   ios_base::width(0);
; 108  :   ios_base::precision(6);
; 109  :   this->fill(widen(' '));

  00045	8b 4e 40	 mov	 ecx, DWORD PTR [esi+64]
  00048	33 c0		 xor	 eax, eax
  0004a	39 7d 08	 cmp	 DWORD PTR ___sb$[ebp], edi
  0004d	89 7e 5c	 mov	 DWORD PTR [esi+92], edi
  00050	0f 94 c0	 sete	 al
  00053	89 7e 14	 mov	 DWORD PTR [esi+20], edi
  00056	c7 46 04 08 10
	00 00		 mov	 DWORD PTR [esi+4], 4104	; 00001008H
  0005d	89 7e 1c	 mov	 DWORD PTR [esi+28], edi
  00060	c7 46 18 06 00
	00 00		 mov	 DWORD PTR [esi+24], 6
  00067	6a 20		 push	 32			; 00000020H
  00069	89 46 08	 mov	 DWORD PTR [esi+8], eax
  0006c	8b 01		 mov	 eax, DWORD PTR [ecx]
  0006e	ff 50 18	 call	 DWORD PTR [eax+24]

; 110  :   // We don't need to worry about any of the three arrays: they are
; 111  :   // initialized correctly in ios_base's constructor.
; 112  : }

  00071	8b 4d f4	 mov	 ecx, DWORD PTR __$EHRec$[ebp]
  00074	88 46 54	 mov	 BYTE PTR [esi+84], al
  00077	5f		 pop	 edi
  00078	5e		 pop	 esi
  00079	64 89 0d 00 00
	00 00		 mov	 DWORD PTR fs:__except_list, ecx
  00080	c9		 leave
  00081	c2 04 00	 ret	 4
_TEXT	ENDS
;	COMDAT text$x
text$x	SEGMENT
$L107990:
  00000	8d 4d ec	 lea	 ecx, DWORD PTR $T107988[ebp]
  00003	e9 00 00 00 00	 jmp	 ??1locale@_STL@@QAE@XZ	; _STL::locale::~locale
__ehhandler$?init@?$basic_ios@DV?$char_traits@D@_STL@@@_STL@@IAEXPAV?$basic_streambuf@DV?$char_traits@D@_STL@@@2@@Z:
  00008	b8 00 00 00 00	 mov	 eax, OFFSET FLAT:$T108034
  0000d	e9 00 00 00 00	 jmp	 ___CxxFrameHandler
text$x	ENDS
?init@?$basic_ios@DV?$char_traits@D@_STL@@@_STL@@IAEXPAV?$basic_streambuf@DV?$char_traits@D@_STL@@@2@@Z ENDP ; _STL::basic_ios<char,_STL::char_traits<char> >::init
PUBLIC	??0?$basic_ostream@DV?$char_traits@D@_STL@@@_STL@@QAE@PAV?$basic_streambuf@DV?$char_traits@D@_STL@@@1@@Z ; _STL::basic_ostream<char,_STL::char_traits<char> >::basic_ostream<char,_STL::char_traits<char> >
PUBLIC	??_8?$basic_ostream@DV?$char_traits@D@_STL@@@_STL@@7B@ ; _STL::basic_ostream<char,_STL::char_traits<char> >::`vbtable'
;	COMDAT xdata$x
; File c:\stlport-4.6.1\stlport\stl\_ostream.c
xdata$x	SEGMENT
$T108047 DD	0ffffffffH
	DD	FLAT:$L108042
$T108045 DD	019930520H
	DD	01H
	DD	FLAT:$T108047
	DD	2 DUP(00H)
	DD	2 DUP(00H)
xdata$x	ENDS
;	COMDAT ??_8?$basic_ostream@DV?$char_traits@D@_STL@@@_STL@@7B@
CONST	SEGMENT
??_8?$basic_ostream@DV?$char_traits@D@_STL@@@_STL@@7B@ DD 00H ; _STL::basic_ostream<char,_STL::char_traits<char> >::`vbtable'
	DD	04H
; Function compile flags: /Ogsy
CONST	ENDS
;	COMDAT ??0?$basic_ostream@DV?$char_traits@D@_STL@@@_STL@@QAE@PAV?$basic_streambuf@DV?$char_traits@D@_STL@@@1@@Z
_TEXT	SEGMENT
_this$ = -20						; size = 4
$T108041 = -16						; size = 4
__$EHRec$ = -12						; size = 12
___buf$ = 8						; size = 4
_$initVBases$ = 12					; size = 4
??0?$basic_ostream@DV?$char_traits@D@_STL@@@_STL@@QAE@PAV?$basic_streambuf@DV?$char_traits@D@_STL@@@1@@Z PROC NEAR ; _STL::basic_ostream<char,_STL::char_traits<char> >::basic_ostream<char,_STL::char_traits<char> >, COMDAT
; _this$ = ecx

; 58   : {

  00000	b8 00 00 00 00	 mov	 eax, __ehhandler$??0?$basic_ostream@DV?$char_traits@D@_STL@@@_STL@@QAE@PAV?$basic_streambuf@DV?$char_traits@D@_STL@@@1@@Z
  00005	e8 00 00 00 00	 call	 __EH_prolog
  0000a	51		 push	 ecx
  0000b	51		 push	 ecx
  0000c	83 65 f0 00	 and	 DWORD PTR $T108041[ebp], 0
  00010	83 7d 0c 00	 cmp	 DWORD PTR _$initVBases$[ebp], 0
  00014	56		 push	 esi
  00015	8b f1		 mov	 esi, ecx
  00017	89 75 ec	 mov	 DWORD PTR _this$[ebp], esi
  0001a	74 19		 je	 SHORT $L104505
  0001c	8d 4e 04	 lea	 ecx, DWORD PTR [esi+4]
  0001f	c7 06 00 00 00
	00		 mov	 DWORD PTR [esi], OFFSET FLAT:??_8?$basic_ostream@DV?$char_traits@D@_STL@@@_STL@@7B@
  00025	e8 00 00 00 00	 call	 ??0?$basic_ios@DV?$char_traits@D@_STL@@@_STL@@IAE@XZ ; _STL::basic_ios<char,_STL::char_traits<char> >::basic_ios<char,_STL::char_traits<char> >
  0002a	83 65 fc 00	 and	 DWORD PTR __$EHRec$[ebp+8], 0
  0002e	c7 45 f0 01 00
	00 00		 mov	 DWORD PTR $T108041[ebp], 1
$L104505:
  00035	8b 06		 mov	 eax, DWORD PTR [esi]
  00037	8b 40 04	 mov	 eax, DWORD PTR [eax+4]

; 59   :   this->init(__buf);

  0003a	ff 75 08	 push	 DWORD PTR ___buf$[ebp]
  0003d	c7 04 06 00 00
	00 00		 mov	 DWORD PTR [esi+eax], OFFSET FLAT:??_7?$basic_ostream@DV?$char_traits@D@_STL@@@_STL@@6B@
  00044	8b 06		 mov	 eax, DWORD PTR [esi]
  00046	8b 48 04	 mov	 ecx, DWORD PTR [eax+4]
  00049	03 ce		 add	 ecx, esi
  0004b	e8 00 00 00 00	 call	 ?init@?$basic_ios@DV?$char_traits@D@_STL@@@_STL@@IAEXPAV?$basic_streambuf@DV?$char_traits@D@_STL@@@2@@Z ; _STL::basic_ios<char,_STL::char_traits<char> >::init

; 60   : }

  00050	8b 4d f4	 mov	 ecx, DWORD PTR __$EHRec$[ebp]
  00053	8b c6		 mov	 eax, esi
  00055	5e		 pop	 esi
  00056	64 89 0d 00 00
	00 00		 mov	 DWORD PTR fs:__except_list, ecx
  0005d	c9		 leave
  0005e	c2 08 00	 ret	 8
_TEXT	ENDS
;	COMDAT text$x
text$x	SEGMENT
$L108042:
  00000	8b 45 f0	 mov	 eax, DWORD PTR $T108041[ebp]
  00003	83 e0 01	 and	 eax, 1
  00006	0f 84 0f 00 00
	00		 je	 $L108043
  0000c	83 65 f0 fe	 and	 DWORD PTR $T108041[ebp], -2 ; fffffffeH
  00010	8b 4d ec	 mov	 ecx, DWORD PTR _this$[ebp]
  00013	83 c1 04	 add	 ecx, 4
  00016	e9 00 00 00 00	 jmp	 ??1?$basic_ios@DV?$char_traits@D@_STL@@@_STL@@UAE@XZ ; _STL::basic_ios<char,_STL::char_traits<char> >::~basic_ios<char,_STL::char_traits<char> >
$L108043:
  0001b	c3		 ret	 0
__ehhandler$??0?$basic_ostream@DV?$char_traits@D@_STL@@@_STL@@QAE@PAV?$basic_streambuf@DV?$char_traits@D@_STL@@@1@@Z:
  0001c	b8 00 00 00 00	 mov	 eax, OFFSET FLAT:$T108045
  00021	e9 00 00 00 00	 jmp	 ___CxxFrameHandler
text$x	ENDS
??0?$basic_ostream@DV?$char_traits@D@_STL@@@_STL@@QAE@PAV?$basic_streambuf@DV?$char_traits@D@_STL@@@1@@Z ENDP ; _STL::basic_ostream<char,_STL::char_traits<char> >::basic_ostream<char,_STL::char_traits<char> >
PUBLIC	??0?$basic_ofstream@DV?$char_traits@D@_STL@@@_STL@@QAE@PBDH@Z ; _STL::basic_ofstream<char,_STL::char_traits<char> >::basic_ofstream<char,_STL::char_traits<char> >
PUBLIC	??_8?$basic_ofstream@DV?$char_traits@D@_STL@@@_STL@@7B@ ; _STL::basic_ofstream<char,_STL::char_traits<char> >::`vbtable'
;	COMDAT xdata$x
; File c:\stlport-4.6.1\stlport\stl\_ios_base.h
xdata$x	SEGMENT
$T108070 DD	0ffffffffH
	DD	FLAT:$L108053
	DD	00H
	DD	FLAT:$L108055
	DD	01H
	DD	FLAT:$L108056
$T108068 DD	019930520H
	DD	03H
	DD	FLAT:$T108070
	DD	2 DUP(00H)
	DD	2 DUP(00H)
xdata$x	ENDS
;	COMDAT ??_8?$basic_ofstream@DV?$char_traits@D@_STL@@@_STL@@7B@
CONST	SEGMENT
??_8?$basic_ofstream@DV?$char_traits@D@_STL@@@_STL@@7B@ DD 00H ; _STL::basic_ofstream<char,_STL::char_traits<char> >::`vbtable'
	DD	0b8H
; Function compile flags: /Ogsy
; File c:\stlport-4.6.1\stlport\stl\_fstream.h
CONST	ENDS
;	COMDAT ??0?$basic_ofstream@DV?$char_traits@D@_STL@@@_STL@@QAE@PBDH@Z
_TEXT	SEGMENT
_this$ = -20						; size = 4
$T108052 = -16						; size = 4
__$EHRec$ = -12						; size = 12
___s$ = 8						; size = 4
___mod$ = 12						; size = 4
_$initVBases$ = 16					; size = 4
??0?$basic_ofstream@DV?$char_traits@D@_STL@@@_STL@@QAE@PBDH@Z PROC NEAR ; _STL::basic_ofstream<char,_STL::char_traits<char> >::basic_ofstream<char,_STL::char_traits<char> >, COMDAT
; _this$ = ecx

; 594  :       _M_buf() {

  00000	b8 00 00 00 00	 mov	 eax, __ehhandler$??0?$basic_ofstream@DV?$char_traits@D@_STL@@@_STL@@QAE@PBDH@Z
  00005	e8 00 00 00 00	 call	 __EH_prolog
  0000a	51		 push	 ecx
  0000b	51		 push	 ecx
  0000c	53		 push	 ebx
  0000d	56		 push	 esi
  0000e	57		 push	 edi
  0000f	33 ff		 xor	 edi, edi
  00011	33 db		 xor	 ebx, ebx
  00013	8b f1		 mov	 esi, ecx
  00015	47		 inc	 edi
  00016	39 5d 10	 cmp	 DWORD PTR _$initVBases$[ebp], ebx
  00019	89 75 ec	 mov	 DWORD PTR _this$[ebp], esi
  0001c	89 5d f0	 mov	 DWORD PTR $T108052[ebp], ebx
  0001f	74 17		 je	 SHORT $L104397
  00021	8d 8e b8 00 00
	00		 lea	 ecx, DWORD PTR [esi+184]
  00027	c7 06 00 00 00
	00		 mov	 DWORD PTR [esi], OFFSET FLAT:??_8?$basic_ofstream@DV?$char_traits@D@_STL@@@_STL@@7B@
  0002d	e8 00 00 00 00	 call	 ??0?$basic_ios@DV?$char_traits@D@_STL@@@_STL@@IAE@XZ ; _STL::basic_ios<char,_STL::char_traits<char> >::basic_ios<char,_STL::char_traits<char> >
  00032	89 5d fc	 mov	 DWORD PTR __$EHRec$[ebp+8], ebx
  00035	89 7d f0	 mov	 DWORD PTR $T108052[ebp], edi
$L104397:
  00038	53		 push	 ebx
  00039	53		 push	 ebx
  0003a	8b ce		 mov	 ecx, esi
  0003c	e8 00 00 00 00	 call	 ??0?$basic_ostream@DV?$char_traits@D@_STL@@@_STL@@QAE@PAV?$basic_streambuf@DV?$char_traits@D@_STL@@@1@@Z ; _STL::basic_ostream<char,_STL::char_traits<char> >::basic_ostream<char,_STL::char_traits<char> >
  00041	8b 06		 mov	 eax, DWORD PTR [esi]
  00043	8b 40 04	 mov	 eax, DWORD PTR [eax+4]
  00046	89 7d fc	 mov	 DWORD PTR __$EHRec$[ebp+8], edi
  00049	8d 7e 04	 lea	 edi, DWORD PTR [esi+4]
  0004c	8b cf		 mov	 ecx, edi
  0004e	c7 04 06 00 00
	00 00		 mov	 DWORD PTR [esi+eax], OFFSET FLAT:??_7?$basic_ofstream@DV?$char_traits@D@_STL@@@_STL@@6B@
  00055	e8 00 00 00 00	 call	 ??0?$basic_filebuf@DV?$char_traits@D@_STL@@@_STL@@QAE@XZ ; _STL::basic_filebuf<char,_STL::char_traits<char> >::basic_filebuf<char,_STL::char_traits<char> >

; 595  : 	this->init(&_M_buf);

  0005a	8b 06		 mov	 eax, DWORD PTR [esi]
  0005c	8b 48 04	 mov	 ecx, DWORD PTR [eax+4]
  0005f	57		 push	 edi
  00060	03 ce		 add	 ecx, esi
  00062	c6 45 fc 02	 mov	 BYTE PTR __$EHRec$[ebp+8], 2
  00066	e8 00 00 00 00	 call	 ?init@?$basic_ios@DV?$char_traits@D@_STL@@@_STL@@IAEXPAV?$basic_streambuf@DV?$char_traits@D@_STL@@@2@@Z ; _STL::basic_ios<char,_STL::char_traits<char> >::init

; 596  : 	if (!_M_buf.open(__s, __mod | ios_base::out))

  0006b	8b 45 0c	 mov	 eax, DWORD PTR ___mod$[ebp]
  0006e	83 c8 10	 or	 eax, 16			; 00000010H
  00071	50		 push	 eax
  00072	ff 75 08	 push	 DWORD PTR ___s$[ebp]
  00075	8b cf		 mov	 ecx, edi
  00077	e8 00 00 00 00	 call	 ?open@?$basic_filebuf@DV?$char_traits@D@_STL@@@_STL@@QAEPAV12@PBDH@Z ; _STL::basic_filebuf<char,_STL::char_traits<char> >::open
  0007c	85 c0		 test	 eax, eax
  0007e	75 13		 jne	 SHORT $L108065

; 597  : 	  this->setstate(ios_base::failbit);

  00080	8b 06		 mov	 eax, DWORD PTR [esi]
  00082	8b 48 04	 mov	 ecx, DWORD PTR [eax+4]
  00085	03 ce		 add	 ecx, esi
  00087	8b 41 08	 mov	 eax, DWORD PTR [ecx+8]
  0008a	83 c8 04	 or	 eax, 4
  0008d	50		 push	 eax
  0008e	e8 00 00 00 00	 call	 ?clear@?$basic_ios@DV?$char_traits@D@_STL@@@_STL@@QAEXH@Z ; _STL::basic_ios<char,_STL::char_traits<char> >::clear
$L108065:

; 598  :   }

  00093	8b 4d f4	 mov	 ecx, DWORD PTR __$EHRec$[ebp]
  00096	5f		 pop	 edi
  00097	8b c6		 mov	 eax, esi
  00099	5e		 pop	 esi
  0009a	5b		 pop	 ebx
  0009b	64 89 0d 00 00
	00 00		 mov	 DWORD PTR fs:__except_list, ecx
  000a2	c9		 leave
  000a3	c2 0c 00	 ret	 12			; 0000000cH
_TEXT	ENDS
;	COMDAT text$x
text$x	SEGMENT
$L108053:
  00000	8b 45 f0	 mov	 eax, DWORD PTR $T108052[ebp]
  00003	83 e0 01	 and	 eax, 1
  00006	0f 84 12 00 00
	00		 je	 $L108054
  0000c	83 65 f0 fe	 and	 DWORD PTR $T108052[ebp], -2 ; fffffffeH
  00010	8b 4d ec	 mov	 ecx, DWORD PTR _this$[ebp]
  00013	81 c1 b8 00 00
	00		 add	 ecx, 184		; 000000b8H
  00019	e9 00 00 00 00	 jmp	 ??1?$basic_ios@DV?$char_traits@D@_STL@@@_STL@@UAE@XZ ; _STL::basic_ios<char,_STL::char_traits<char> >::~basic_ios<char,_STL::char_traits<char> >
$L108054:
  0001e	c3		 ret	 0
$L108055:
  0001f	8b 4d ec	 mov	 ecx, DWORD PTR _this$[ebp]
  00022	83 c1 04	 add	 ecx, 4
  00025	e9 00 00 00 00	 jmp	 ??1?$basic_ostream@DV?$char_traits@D@_STL@@@_STL@@UAE@XZ ; _STL::basic_ostream<char,_STL::char_traits<char> >::~basic_ostream<char,_STL::char_traits<char> >
$L108056:
  0002a	8b 4d ec	 mov	 ecx, DWORD PTR _this$[ebp]
  0002d	83 c1 04	 add	 ecx, 4
  00030	e9 00 00 00 00	 jmp	 ??1?$basic_filebuf@DV?$char_traits@D@_STL@@@_STL@@UAE@XZ ; _STL::basic_filebuf<char,_STL::char_traits<char> >::~basic_filebuf<char,_STL::char_traits<char> >
__ehhandler$??0?$basic_ofstream@DV?$char_traits@D@_STL@@@_STL@@QAE@PBDH@Z:
  00035	b8 00 00 00 00	 mov	 eax, OFFSET FLAT:$T108068
  0003a	e9 00 00 00 00	 jmp	 ___CxxFrameHandler
text$x	ENDS
??0?$basic_ofstream@DV?$char_traits@D@_STL@@@_STL@@QAE@PBDH@Z ENDP ; _STL::basic_ofstream<char,_STL::char_traits<char> >::basic_ofstream<char,_STL::char_traits<char> >
PUBLIC	?SaveToFile@UserOption@@QAEXPBD@Z		; UserOption::SaveToFile
EXTRN	?SaveToFile@KeyAccelerator@@QAEXAAV?$basic_ofstream@DV?$char_traits@D@_STL@@@_STL@@@Z:NEAR ; KeyAccelerator::SaveToFile
EXTRN	___security_cookie:DWORD
EXTRN	@__security_check_cookie@4:NEAR
EXTRN	?g_pKeyAccelerator@@3PAVKeyAccelerator@@A:DWORD	; g_pKeyAccelerator
;	COMDAT xdata$x
; File c:\darkeden\designed_common\project\client\useroption.cpp
xdata$x	SEGMENT
$T108083 DD	0ffffffffH
	DD	FLAT:$L108076
$T108078 DD	019930520H
	DD	01H
	DD	FLAT:$T108083
	DD	2 DUP(00H)
	DD	2 DUP(00H)
; Function compile flags: /Ogsy
xdata$x	ENDS
;	COMDAT ?SaveToFile@UserOption@@QAEXPBD@Z
_TEXT	SEGMENT
_file$ = -296						; size = 280
__$ArrayPad$ = -16					; size = 4
__$EHRec$ = -12						; size = 12
__$ReturnAddr$ = 4					; size = 4
_flag$ = 8						; size = 4
_filename$ = 8						; size = 4
?SaveToFile@UserOption@@QAEXPBD@Z PROC NEAR		; UserOption::SaveToFile, COMDAT
; _this$ = ecx

; 122  : {

  00000	b8 00 00 00 00	 mov	 eax, __ehhandler$?SaveToFile@UserOption@@QAEXPBD@Z
  00005	e8 00 00 00 00	 call	 __EH_prolog
  0000a	81 ec 1c 01 00
	00		 sub	 esp, 284		; 0000011cH
  00010	a1 00 00 00 00	 mov	 eax, DWORD PTR ___security_cookie
  00015	56		 push	 esi
  00016	57		 push	 edi

; 123  : 	std::ofstream file(filename, std::ios::binary);	

  00017	6a 01		 push	 1
  00019	6a 04		 push	 4
  0001b	5f		 pop	 edi
  0001c	57		 push	 edi
  0001d	ff 75 08	 push	 DWORD PTR _filename$[ebp]
  00020	8b f1		 mov	 esi, ecx
  00022	8d 8d d8 fe ff
	ff		 lea	 ecx, DWORD PTR _file$[ebp]
  00028	89 45 f0	 mov	 DWORD PTR __$ArrayPad$[ebp], eax
  0002b	e8 00 00 00 00	 call	 ??0?$basic_ofstream@DV?$char_traits@D@_STL@@@_STL@@QAE@PBDH@Z ; _STL::basic_ofstream<char,_STL::char_traits<char> >::basic_ofstream<char,_STL::char_traits<char> >
  00030	83 65 fc 00	 and	 DWORD PTR __$EHRec$[ebp+8], 0

; 124  : 
; 125  : 	DWORD flag = 0;

  00034	83 65 08 00	 and	 DWORD PTR _flag$[ebp], 0

; 126  : 	file.write((const char*)&flag, 4);

  00038	57		 push	 edi
  00039	8d 45 08	 lea	 eax, DWORD PTR _flag$[ebp]
  0003c	50		 push	 eax
  0003d	8d 8d d8 fe ff
	ff		 lea	 ecx, DWORD PTR _file$[ebp]
  00043	e8 00 00 00 00	 call	 ?write@?$basic_ostream@DV?$char_traits@D@_STL@@@_STL@@QAEAAV12@PBDH@Z ; _STL::basic_ostream<char,_STL::char_traits<char> >::write

; 127  : 	g_pKeyAccelerator->SaveToFile(file);

  00048	8b 0d 00 00 00
	00		 mov	 ecx, DWORD PTR ?g_pKeyAccelerator@@3PAVKeyAccelerator@@A ; g_pKeyAccelerator
  0004e	8d 85 d8 fe ff
	ff		 lea	 eax, DWORD PTR _file$[ebp]
  00054	50		 push	 eax
  00055	e8 00 00 00 00	 call	 ?SaveToFile@KeyAccelerator@@QAEXAAV?$basic_ofstream@DV?$char_traits@D@_STL@@@_STL@@@Z ; KeyAccelerator::SaveToFile

; 128  : 
; 129  : 	file.write((const char*)&UseSmoothCursor, 4);

  0005a	57		 push	 edi
  0005b	8d 46 14	 lea	 eax, DWORD PTR [esi+20]
  0005e	50		 push	 eax
  0005f	8d 8d d8 fe ff
	ff		 lea	 ecx, DWORD PTR _file$[ebp]
  00065	e8 00 00 00 00	 call	 ?write@?$basic_ostream@DV?$char_traits@D@_STL@@@_STL@@QAEAAV12@PBDH@Z ; _STL::basic_ostream<char,_STL::char_traits<char> >::write

; 130  : 	file.write((const char*)&DrawMinimap, 4);

  0006a	57		 push	 edi
  0006b	8d 46 18	 lea	 eax, DWORD PTR [esi+24]
  0006e	50		 push	 eax
  0006f	8d 8d d8 fe ff
	ff		 lea	 ecx, DWORD PTR _file$[ebp]
  00075	e8 00 00 00 00	 call	 ?write@?$basic_ostream@DV?$char_traits@D@_STL@@@_STL@@QAEAAV12@PBDH@Z ; _STL::basic_ostream<char,_STL::char_traits<char> >::write

; 131  : 	file.write((const char*)&DrawZoneName, 4);

  0007a	57		 push	 edi
  0007b	8d 46 1c	 lea	 eax, DWORD PTR [esi+28]
  0007e	50		 push	 eax
  0007f	8d 8d d8 fe ff
	ff		 lea	 ecx, DWORD PTR _file$[ebp]
  00085	e8 00 00 00 00	 call	 ?write@?$basic_ostream@DV?$char_traits@D@_STL@@@_STL@@QAEAAV12@PBDH@Z ; _STL::basic_ostream<char,_STL::char_traits<char> >::write

; 132  : 	file.write((const char*)&DrawGameTime, 4);

  0008a	57		 push	 edi
  0008b	8d 46 20	 lea	 eax, DWORD PTR [esi+32]
  0008e	50		 push	 eax
  0008f	8d 8d d8 fe ff
	ff		 lea	 ecx, DWORD PTR _file$[ebp]
  00095	e8 00 00 00 00	 call	 ?write@?$basic_ostream@DV?$char_traits@D@_STL@@@_STL@@QAEAAV12@PBDH@Z ; _STL::basic_ostream<char,_STL::char_traits<char> >::write

; 133  : 	file.write((const char*)&DrawInterface, 4);

  0009a	57		 push	 edi
  0009b	8d 46 24	 lea	 eax, DWORD PTR [esi+36]
  0009e	50		 push	 eax
  0009f	8d 8d d8 fe ff
	ff		 lea	 ecx, DWORD PTR _file$[ebp]
  000a5	e8 00 00 00 00	 call	 ?write@?$basic_ostream@DV?$char_traits@D@_STL@@@_STL@@QAEAAV12@PBDH@Z ; _STL::basic_ostream<char,_STL::char_traits<char> >::write

; 134  : 	file.write((const char*)&DrawFPS, 4);

  000aa	57		 push	 edi
  000ab	8d 46 28	 lea	 eax, DWORD PTR [esi+40]
  000ae	50		 push	 eax
  000af	8d 8d d8 fe ff
	ff		 lea	 ecx, DWORD PTR _file$[ebp]
  000b5	e8 00 00 00 00	 call	 ?write@?$basic_ostream@DV?$char_traits@D@_STL@@@_STL@@QAEAAV12@PBDH@Z ; _STL::basic_ostream<char,_STL::char_traits<char> >::write

; 135  : 	file.write((const char*)&BlendingShadow, 4);

  000ba	57		 push	 edi
  000bb	8d 46 2c	 lea	 eax, DWORD PTR [esi+44]
  000be	50		 push	 eax
  000bf	8d 8d d8 fe ff
	ff		 lea	 ecx, DWORD PTR _file$[ebp]
  000c5	e8 00 00 00 00	 call	 ?write@?$basic_ostream@DV?$char_traits@D@_STL@@@_STL@@QAEAAV12@PBDH@Z ; _STL::basic_ostream<char,_STL::char_traits<char> >::write

; 136  : 	file.write((const char*)&FilteringCurse, 4);

  000ca	57		 push	 edi
  000cb	8d 46 30	 lea	 eax, DWORD PTR [esi+48]
  000ce	50		 push	 eax
  000cf	8d 8d d8 fe ff
	ff		 lea	 ecx, DWORD PTR _file$[ebp]
  000d5	e8 00 00 00 00	 call	 ?write@?$basic_ostream@DV?$char_traits@D@_STL@@@_STL@@QAEAAV12@PBDH@Z ; _STL::basic_ostream<char,_STL::char_traits<char> >::write

; 137  : 	file.write((const char*)&PlayMusic, 4);

  000da	57		 push	 edi
  000db	8d 46 34	 lea	 eax, DWORD PTR [esi+52]
  000de	50		 push	 eax
  000df	8d 8d d8 fe ff
	ff		 lea	 ecx, DWORD PTR _file$[ebp]
  000e5	e8 00 00 00 00	 call	 ?write@?$basic_ostream@DV?$char_traits@D@_STL@@@_STL@@QAEAAV12@PBDH@Z ; _STL::basic_ostream<char,_STL::char_traits<char> >::write

; 138  : 	file.write((const char*)&PlaySound, 4);

  000ea	57		 push	 edi
  000eb	8d 46 38	 lea	 eax, DWORD PTR [esi+56]
  000ee	50		 push	 eax
  000ef	8d 8d d8 fe ff
	ff		 lea	 ecx, DWORD PTR _file$[ebp]
  000f5	e8 00 00 00 00	 call	 ?write@?$basic_ostream@DV?$char_traits@D@_STL@@@_STL@@QAEAAV12@PBDH@Z ; _STL::basic_ostream<char,_STL::char_traits<char> >::write

; 139  : 	file.write((const char*)&VolumeMusic, 4);

  000fa	57		 push	 edi
  000fb	8d 46 3c	 lea	 eax, DWORD PTR [esi+60]
  000fe	50		 push	 eax
  000ff	8d 8d d8 fe ff
	ff		 lea	 ecx, DWORD PTR _file$[ebp]
  00105	e8 00 00 00 00	 call	 ?write@?$basic_ostream@DV?$char_traits@D@_STL@@@_STL@@QAEAAV12@PBDH@Z ; _STL::basic_ostream<char,_STL::char_traits<char> >::write

; 140  : 	file.write((const char*)&VolumeSound, 4);

  0010a	57		 push	 edi
  0010b	8d 46 40	 lea	 eax, DWORD PTR [esi+64]
  0010e	50		 push	 eax
  0010f	8d 8d d8 fe ff
	ff		 lea	 ecx, DWORD PTR _file$[ebp]
  00115	e8 00 00 00 00	 call	 ?write@?$basic_ostream@DV?$char_traits@D@_STL@@@_STL@@QAEAAV12@PBDH@Z ; _STL::basic_ostream<char,_STL::char_traits<char> >::write

; 141  : 	file.write((const char*)&UseHelpEvent, 4);

  0011a	57		 push	 edi
  0011b	8d 46 44	 lea	 eax, DWORD PTR [esi+68]
  0011e	50		 push	 eax
  0011f	8d 8d d8 fe ff
	ff		 lea	 ecx, DWORD PTR _file$[ebp]
  00125	e8 00 00 00 00	 call	 ?write@?$basic_ostream@DV?$char_traits@D@_STL@@@_STL@@QAEAAV12@PBDH@Z ; _STL::basic_ostream<char,_STL::char_traits<char> >::write

; 142  : 	file.write((const char*)&PlayWaveMusic, 4);

  0012a	57		 push	 edi
  0012b	8d 46 48	 lea	 eax, DWORD PTR [esi+72]
  0012e	50		 push	 eax
  0012f	8d 8d d8 fe ff
	ff		 lea	 ecx, DWORD PTR _file$[ebp]
  00135	e8 00 00 00 00	 call	 ?write@?$basic_ostream@DV?$char_traits@D@_STL@@@_STL@@QAEAAV12@PBDH@Z ; _STL::basic_ostream<char,_STL::char_traits<char> >::write

; 143  : 	file.write((const char*)&BloodDrop, 4);

  0013a	57		 push	 edi
  0013b	8d 46 4c	 lea	 eax, DWORD PTR [esi+76]
  0013e	50		 push	 eax
  0013f	8d 8d d8 fe ff
	ff		 lea	 ecx, DWORD PTR _file$[ebp]
  00145	e8 00 00 00 00	 call	 ?write@?$basic_ostream@DV?$char_traits@D@_STL@@@_STL@@QAEAAV12@PBDH@Z ; _STL::basic_ostream<char,_STL::char_traits<char> >::write

; 144  : 	file.write((const char*)&OpenQuickSlot, 4);	

  0014a	57		 push	 edi
  0014b	8d 46 50	 lea	 eax, DWORD PTR [esi+80]
  0014e	50		 push	 eax
  0014f	8d 8d d8 fe ff
	ff		 lea	 ecx, DWORD PTR _file$[ebp]
  00155	e8 00 00 00 00	 call	 ?write@?$basic_ostream@DV?$char_traits@D@_STL@@@_STL@@QAEAAV12@PBDH@Z ; _STL::basic_ostream<char,_STL::char_traits<char> >::write

; 145  : 	file.write((const char*)&UseHalfFrame, 4);	

  0015a	57		 push	 edi
  0015b	8d 46 54	 lea	 eax, DWORD PTR [esi+84]
  0015e	50		 push	 eax
  0015f	8d 8d d8 fe ff
	ff		 lea	 ecx, DWORD PTR _file$[ebp]
  00165	e8 00 00 00 00	 call	 ?write@?$basic_ostream@DV?$char_traits@D@_STL@@@_STL@@QAEAAV12@PBDH@Z ; _STL::basic_ostream<char,_STL::char_traits<char> >::write

; 146  : 	file.write((const char*)&Use3DHAL, 4);

  0016a	57		 push	 edi
  0016b	8d 46 10	 lea	 eax, DWORD PTR [esi+16]
  0016e	50		 push	 eax
  0016f	8d 8d d8 fe ff
	ff		 lea	 ecx, DWORD PTR _file$[ebp]
  00175	e8 00 00 00 00	 call	 ?write@?$basic_ostream@DV?$char_traits@D@_STL@@@_STL@@QAEAAV12@PBDH@Z ; _STL::basic_ostream<char,_STL::char_traits<char> >::write

; 147  : 	file.write((const char*)&DrawTransHPBar, 4);	

  0017a	57		 push	 edi
  0017b	8d 46 58	 lea	 eax, DWORD PTR [esi+88]
  0017e	50		 push	 eax
  0017f	8d 8d d8 fe ff
	ff		 lea	 ecx, DWORD PTR _file$[ebp]
  00185	e8 00 00 00 00	 call	 ?write@?$basic_ostream@DV?$char_traits@D@_STL@@@_STL@@QAEAAV12@PBDH@Z ; _STL::basic_ostream<char,_STL::char_traits<char> >::write

; 148  : 	file.write((const char*)&UseForceFeel, 4);

  0018a	57		 push	 edi
  0018b	8d 46 5c	 lea	 eax, DWORD PTR [esi+92]
  0018e	50		 push	 eax
  0018f	8d 8d d8 fe ff
	ff		 lea	 ecx, DWORD PTR _file$[ebp]
  00195	e8 00 00 00 00	 call	 ?write@?$basic_ostream@DV?$char_traits@D@_STL@@@_STL@@QAEAAV12@PBDH@Z ; _STL::basic_ostream<char,_STL::char_traits<char> >::write

; 149  : 	file.write((const char*)&UseGammaControl, 4);	

  0019a	57		 push	 edi
  0019b	8d 46 60	 lea	 eax, DWORD PTR [esi+96]
  0019e	50		 push	 eax
  0019f	8d 8d d8 fe ff
	ff		 lea	 ecx, DWORD PTR _file$[ebp]
  001a5	e8 00 00 00 00	 call	 ?write@?$basic_ostream@DV?$char_traits@D@_STL@@@_STL@@QAEAAV12@PBDH@Z ; _STL::basic_ostream<char,_STL::char_traits<char> >::write

; 150  : 	file.write((const char*)&GammaValue, 4);	

  001aa	57		 push	 edi
  001ab	8d 46 64	 lea	 eax, DWORD PTR [esi+100]
  001ae	50		 push	 eax
  001af	8d 8d d8 fe ff
	ff		 lea	 ecx, DWORD PTR _file$[ebp]
  001b5	e8 00 00 00 00	 call	 ?write@?$basic_ostream@DV?$char_traits@D@_STL@@@_STL@@QAEAAV12@PBDH@Z ; _STL::basic_ostream<char,_STL::char_traits<char> >::write

; 151  : 	file.write((const char*)&DrawChatBoxOutline, 4);

  001ba	57		 push	 edi
  001bb	8d 46 68	 lea	 eax, DWORD PTR [esi+104]
  001be	50		 push	 eax
  001bf	8d 8d d8 fe ff
	ff		 lea	 ecx, DWORD PTR _file$[ebp]
  001c5	e8 00 00 00 00	 call	 ?write@?$basic_ostream@DV?$char_traits@D@_STL@@@_STL@@QAEAAV12@PBDH@Z ; _STL::basic_ostream<char,_STL::char_traits<char> >::write

; 152  : 	
; 153  : 	// new interface
; 154  : 	file.write((const char*)BackupID, 13);

  001ca	6a 0d		 push	 13			; 0000000dH
  001cc	8d 46 6c	 lea	 eax, DWORD PTR [esi+108]
  001cf	50		 push	 eax
  001d0	8d 8d d8 fe ff
	ff		 lea	 ecx, DWORD PTR _file$[ebp]
  001d6	e8 00 00 00 00	 call	 ?write@?$basic_ostream@DV?$char_traits@D@_STL@@@_STL@@QAEAAV12@PBDH@Z ; _STL::basic_ostream<char,_STL::char_traits<char> >::write

; 155  : 	file.write((const char*)&UseEnterChat, 4);

  001db	57		 push	 edi
  001dc	8d 46 7c	 lea	 eax, DWORD PTR [esi+124]
  001df	50		 push	 eax
  001e0	8d 8d d8 fe ff
	ff		 lea	 ecx, DWORD PTR _file$[ebp]
  001e6	e8 00 00 00 00	 call	 ?write@?$basic_ostream@DV?$char_traits@D@_STL@@@_STL@@QAEAAV12@PBDH@Z ; _STL::basic_ostream<char,_STL::char_traits<char> >::write

; 156  : 	file.write((const char*)&UseMouseSpeed, 4);

  001eb	57		 push	 edi
  001ec	8d 86 80 00 00
	00		 lea	 eax, DWORD PTR [esi+128]
  001f2	50		 push	 eax
  001f3	8d 8d d8 fe ff
	ff		 lea	 ecx, DWORD PTR _file$[ebp]
  001f9	e8 00 00 00 00	 call	 ?write@?$basic_ostream@DV?$char_traits@D@_STL@@@_STL@@QAEAAV12@PBDH@Z ; _STL::basic_ostream<char,_STL::char_traits<char> >::write

; 157  : 	file.write((const char*)&MouseSpeedValue, 4);

  001fe	57		 push	 edi
  001ff	8d 86 84 00 00
	00		 lea	 eax, DWORD PTR [esi+132]
  00205	50		 push	 eax
  00206	8d 8d d8 fe ff
	ff		 lea	 ecx, DWORD PTR _file$[ebp]
  0020c	e8 00 00 00 00	 call	 ?write@?$basic_ostream@DV?$char_traits@D@_STL@@@_STL@@QAEAAV12@PBDH@Z ; _STL::basic_ostream<char,_STL::char_traits<char> >::write

; 158  : 	file.write((const char*)&PlayYellSound, 4);

  00211	57		 push	 edi
  00212	8d 86 88 00 00
	00		 lea	 eax, DWORD PTR [esi+136]
  00218	50		 push	 eax
  00219	8d 8d d8 fe ff
	ff		 lea	 ecx, DWORD PTR _file$[ebp]
  0021f	e8 00 00 00 00	 call	 ?write@?$basic_ostream@DV?$char_traits@D@_STL@@@_STL@@QAEAAV12@PBDH@Z ; _STL::basic_ostream<char,_STL::char_traits<char> >::write

; 159  : 	file.write((const char*)&ShowChoboHelp, 4);

  00224	57		 push	 edi
  00225	8d 86 8c 00 00
	00		 lea	 eax, DWORD PTR [esi+140]
  0022b	50		 push	 eax
  0022c	8d 8d d8 fe ff
	ff		 lea	 ecx, DWORD PTR _file$[ebp]
  00232	e8 00 00 00 00	 call	 ?write@?$basic_ostream@DV?$char_traits@D@_STL@@@_STL@@QAEAAV12@PBDH@Z ; _STL::basic_ostream<char,_STL::char_traits<char> >::write

; 160  : 	file.write((const char*)&TribeChange, 4);

  00237	57		 push	 edi
  00238	8d 86 90 00 00
	00		 lea	 eax, DWORD PTR [esi+144]
  0023e	50		 push	 eax
  0023f	8d 8d d8 fe ff
	ff		 lea	 ecx, DWORD PTR _file$[ebp]
  00245	e8 00 00 00 00	 call	 ?write@?$basic_ostream@DV?$char_traits@D@_STL@@@_STL@@QAEAAV12@PBDH@Z ; _STL::basic_ostream<char,_STL::char_traits<char> >::write

; 161  : 	file.write((const char*)&DenyPartyInvite, 4);

  0024a	57		 push	 edi
  0024b	8d 86 94 00 00
	00		 lea	 eax, DWORD PTR [esi+148]
  00251	50		 push	 eax
  00252	8d 8d d8 fe ff
	ff		 lea	 ecx, DWORD PTR _file$[ebp]
  00258	e8 00 00 00 00	 call	 ?write@?$basic_ostream@DV?$char_traits@D@_STL@@@_STL@@QAEAAV12@PBDH@Z ; _STL::basic_ostream<char,_STL::char_traits<char> >::write

; 162  : 	file.write((const char*)&DenyPartyRequest, 4);

  0025d	57		 push	 edi
  0025e	8d 86 98 00 00
	00		 lea	 eax, DWORD PTR [esi+152]
  00264	50		 push	 eax
  00265	8d 8d d8 fe ff
	ff		 lea	 ecx, DWORD PTR _file$[ebp]
  0026b	e8 00 00 00 00	 call	 ?write@?$basic_ostream@DV?$char_traits@D@_STL@@@_STL@@QAEAAV12@PBDH@Z ; _STL::basic_ostream<char,_STL::char_traits<char> >::write

; 163  : 	file.write((const char*)&AutoHideSmoothScroll, 4);

  00270	57		 push	 edi
  00271	8d 86 9c 00 00
	00		 lea	 eax, DWORD PTR [esi+156]
  00277	50		 push	 eax
  00278	8d 8d d8 fe ff
	ff		 lea	 ecx, DWORD PTR _file$[ebp]
  0027e	e8 00 00 00 00	 call	 ?write@?$basic_ostream@DV?$char_traits@D@_STL@@@_STL@@QAEAAV12@PBDH@Z ; _STL::basic_ostream<char,_STL::char_traits<char> >::write

; 164  : 	file.write((const char*)&ChattingColor, 4);

  00283	57		 push	 edi
  00284	8d 86 a0 00 00
	00		 lea	 eax, DWORD PTR [esi+160]
  0028a	50		 push	 eax
  0028b	8d 8d d8 fe ff
	ff		 lea	 ecx, DWORD PTR _file$[ebp]
  00291	e8 00 00 00 00	 call	 ?write@?$basic_ostream@DV?$char_traits@D@_STL@@@_STL@@QAEAAV12@PBDH@Z ; _STL::basic_ostream<char,_STL::char_traits<char> >::write

; 165  : 	file.write((const char*)&ALPHA_DEPTH, 1);

  00296	6a 01		 push	 1
  00298	8d 86 a4 00 00
	00		 lea	 eax, DWORD PTR [esi+164]
  0029e	50		 push	 eax
  0029f	8d 8d d8 fe ff
	ff		 lea	 ecx, DWORD PTR _file$[ebp]
  002a5	e8 00 00 00 00	 call	 ?write@?$basic_ostream@DV?$char_traits@D@_STL@@@_STL@@QAEAAV12@PBDH@Z ; _STL::basic_ostream<char,_STL::char_traits<char> >::write

; 166  : 	file.write((const char*)&DefaultAlpha, 4);

  002aa	57		 push	 edi
  002ab	8d 86 a8 00 00
	00		 lea	 eax, DWORD PTR [esi+168]
  002b1	50		 push	 eax
  002b2	8d 8d d8 fe ff
	ff		 lea	 ecx, DWORD PTR _file$[ebp]
  002b8	e8 00 00 00 00	 call	 ?write@?$basic_ostream@DV?$char_traits@D@_STL@@@_STL@@QAEAAV12@PBDH@Z ; _STL::basic_ostream<char,_STL::char_traits<char> >::write

; 167  : 	file.write((const char*)&IsPreLoadMonster, 4);

  002bd	57		 push	 edi
  002be	8d 86 ac 00 00
	00		 lea	 eax, DWORD PTR [esi+172]
  002c4	50		 push	 eax
  002c5	8d 8d d8 fe ff
	ff		 lea	 ecx, DWORD PTR _file$[ebp]
  002cb	e8 00 00 00 00	 call	 ?write@?$basic_ostream@DV?$char_traits@D@_STL@@@_STL@@QAEAAV12@PBDH@Z ; _STL::basic_ostream<char,_STL::char_traits<char> >::write

; 168  : 	file.write((const char*)&ChatWhite, 4);

  002d0	57		 push	 edi
  002d1	8d 86 b0 00 00
	00		 lea	 eax, DWORD PTR [esi+176]
  002d7	50		 push	 eax
  002d8	8d 8d d8 fe ff
	ff		 lea	 ecx, DWORD PTR _file$[ebp]
  002de	e8 00 00 00 00	 call	 ?write@?$basic_ostream@DV?$char_traits@D@_STL@@@_STL@@QAEAAV12@PBDH@Z ; _STL::basic_ostream<char,_STL::char_traits<char> >::write

; 169  : 	file.write((const char*)&UseTeenVersion, 4);

  002e3	57		 push	 edi
  002e4	8d 86 b4 00 00
	00		 lea	 eax, DWORD PTR [esi+180]
  002ea	50		 push	 eax
  002eb	8d 8d d8 fe ff
	ff		 lea	 ecx, DWORD PTR _file$[ebp]
  002f1	e8 00 00 00 00	 call	 ?write@?$basic_ostream@DV?$char_traits@D@_STL@@@_STL@@QAEAAV12@PBDH@Z ; _STL::basic_ostream<char,_STL::char_traits<char> >::write

; 170  : 	file.write((const char*)&PopupChatByWhisper, 4);

  002f6	57		 push	 edi
  002f7	8d 86 b8 00 00
	00		 lea	 eax, DWORD PTR [esi+184]
  002fd	50		 push	 eax
  002fe	8d 8d d8 fe ff
	ff		 lea	 ecx, DWORD PTR _file$[ebp]
  00304	e8 00 00 00 00	 call	 ?write@?$basic_ostream@DV?$char_traits@D@_STL@@@_STL@@QAEAAV12@PBDH@Z ; _STL::basic_ostream<char,_STL::char_traits<char> >::write

; 171  : 	file.write((const char*)&NotSendMyInfo,4);

  00309	57		 push	 edi
  0030a	8d 86 bc 00 00
	00		 lea	 eax, DWORD PTR [esi+188]
  00310	50		 push	 eax
  00311	8d 8d d8 fe ff
	ff		 lea	 ecx, DWORD PTR _file$[ebp]
  00317	e8 00 00 00 00	 call	 ?write@?$basic_ostream@DV?$char_traits@D@_STL@@@_STL@@QAEAAV12@PBDH@Z ; _STL::basic_ostream<char,_STL::char_traits<char> >::write

; 172  : 	file.write((const char*)&DoNotShowWarMsg,4);

  0031c	57		 push	 edi
  0031d	8d 86 c0 00 00
	00		 lea	 eax, DWORD PTR [esi+192]
  00323	50		 push	 eax
  00324	8d 8d d8 fe ff
	ff		 lea	 ecx, DWORD PTR _file$[ebp]
  0032a	e8 00 00 00 00	 call	 ?write@?$basic_ostream@DV?$char_traits@D@_STL@@@_STL@@QAEAAV12@PBDH@Z ; _STL::basic_ostream<char,_STL::char_traits<char> >::write

; 173  : 	file.write((const char*)&DoNotShowLairMsg,4);

  0032f	57		 push	 edi
  00330	8d 86 c4 00 00
	00		 lea	 eax, DWORD PTR [esi+196]
  00336	50		 push	 eax
  00337	8d 8d d8 fe ff
	ff		 lea	 ecx, DWORD PTR _file$[ebp]
  0033d	e8 00 00 00 00	 call	 ?write@?$basic_ostream@DV?$char_traits@D@_STL@@@_STL@@QAEAAV12@PBDH@Z ; _STL::basic_ostream<char,_STL::char_traits<char> >::write

; 174  : 	file.write((const char*)&DoNotShowHolyLandMsg,4);

  00342	57		 push	 edi
  00343	8d 86 c8 00 00
	00		 lea	 eax, DWORD PTR [esi+200]
  00349	50		 push	 eax
  0034a	8d 8d d8 fe ff
	ff		 lea	 ecx, DWORD PTR _file$[ebp]
  00350	e8 00 00 00 00	 call	 ?write@?$basic_ostream@DV?$char_traits@D@_STL@@@_STL@@QAEAAV12@PBDH@Z ; _STL::basic_ostream<char,_STL::char_traits<char> >::write

; 175  : 	file.write((const char*)&ShowGameMoneyWithHANGUL,4);

  00355	57		 push	 edi
  00356	8d 86 d0 00 00
	00		 lea	 eax, DWORD PTR [esi+208]
  0035c	50		 push	 eax
  0035d	8d 8d d8 fe ff
	ff		 lea	 ecx, DWORD PTR _file$[ebp]
  00363	e8 00 00 00 00	 call	 ?write@?$basic_ostream@DV?$char_traits@D@_STL@@@_STL@@QAEAAV12@PBDH@Z ; _STL::basic_ostream<char,_STL::char_traits<char> >::write

; 176  : 	file.write((const char*)&DoNotShowPersnalShopMsg,4);

  00368	57		 push	 edi
  00369	8d 86 d4 00 00
	00		 lea	 eax, DWORD PTR [esi+212]
  0036f	50		 push	 eax
  00370	8d 8d d8 fe ff
	ff		 lea	 ecx, DWORD PTR _file$[ebp]
  00376	e8 00 00 00 00	 call	 ?write@?$basic_ostream@DV?$char_traits@D@_STL@@@_STL@@QAEAAV12@PBDH@Z ; _STL::basic_ostream<char,_STL::char_traits<char> >::write

; 177  : #if __CONTENTS(__AUTO_ATTACT)
; 178  : 	file.write((const char*)&DoNotOneClickAttackOff,4);

  0037b	57		 push	 edi
  0037c	81 c6 dc 00 00
	00		 add	 esi, 220		; 000000dcH
  00382	56		 push	 esi
  00383	8d 8d d8 fe ff
	ff		 lea	 ecx, DWORD PTR _file$[ebp]
  00389	e8 00 00 00 00	 call	 ?write@?$basic_ostream@DV?$char_traits@D@_STL@@@_STL@@QAEAAV12@PBDH@Z ; _STL::basic_ostream<char,_STL::char_traits<char> >::write

; 179  : #endif //__JAPAN_UI
; 180  : 
; 181  : 	file.close();

  0038e	8d 8d d8 fe ff
	ff		 lea	 ecx, DWORD PTR _file$[ebp]
  00394	e8 00 00 00 00	 call	 ?close@?$basic_ofstream@DV?$char_traits@D@_STL@@@_STL@@QAEXXZ ; _STL::basic_ofstream<char,_STL::char_traits<char> >::close

; 182  : }

  00399	83 4d fc ff	 or	 DWORD PTR __$EHRec$[ebp+8], -1
  0039d	8d 8d d8 fe ff
	ff		 lea	 ecx, DWORD PTR _file$[ebp]
  003a3	e8 00 00 00 00	 call	 ??_D?$basic_ofstream@DV?$char_traits@D@_STL@@@_STL@@QAEXXZ
  003a8	8b 4d f4	 mov	 ecx, DWORD PTR __$EHRec$[ebp]
  003ab	5f		 pop	 edi
  003ac	64 89 0d 00 00
	00 00		 mov	 DWORD PTR fs:__except_list, ecx
  003b3	8b 4d f0	 mov	 ecx, DWORD PTR __$ArrayPad$[ebp]
  003b6	5e		 pop	 esi
  003b7	e8 00 00 00 00	 call	 @__security_check_cookie@4
  003bc	c9		 leave
  003bd	c2 04 00	 ret	 4
_TEXT	ENDS
;	COMDAT text$x
text$x	SEGMENT
$L108076:
  00000	8d 8d d8 fe ff
	ff		 lea	 ecx, DWORD PTR _file$[ebp]
  00006	e9 00 00 00 00	 jmp	 ??_D?$basic_ofstream@DV?$char_traits@D@_STL@@@_STL@@QAEXXZ
__ehhandler$?SaveToFile@UserOption@@QAEXPBD@Z:
  0000b	b8 00 00 00 00	 mov	 eax, OFFSET FLAT:$T108078
  00010	e9 00 00 00 00	 jmp	 ___CxxFrameHandler
text$x	ENDS
?SaveToFile@UserOption@@QAEXPBD@Z ENDP			; UserOption::SaveToFile
PUBLIC	?ResetUserOption@UserOption@@QAEXXZ		; UserOption::ResetUserOption
PUBLIC	??_C@_0P@HNNCBMCJ@?2UserSet?2?$CK?4set?$AA@	; `string'
PUBLIC	??_C@_09MJOMMHD@?2UserSet?2?$AA@		; `string'
PUBLIC	??_C@_0BH@DIHOJNHP@FILE_INFO_CLIENTCONFIG?$AA@	; `string'
PUBLIC	??_C@_0BF@OPBGJOMO@FILE_INFO_USEROPTION?$AA@	; `string'
EXTRN	?g_pClientConfig@@3PAVClientConfig@@A:DWORD	; g_pClientConfig
EXTRN	?getProperty@Properties@@QBE?AV?$basic_string@DV?$char_traits@D@_STL@@V?$allocator@D@2@@_STL@@PBD@Z:NEAR ; Properties::getProperty
EXTRN	?SetDefaultAccelerator@@YAXXZ:NEAR		; SetDefaultAccelerator
EXTRN	__findfirst:NEAR
EXTRN	__findnext:NEAR
EXTRN	__findclose:NEAR
EXTRN	__imp__GetCurrentDirectoryA@8:NEAR
EXTRN	__imp__DeleteFileA@4:NEAR
EXTRN	?g_pFileDef@@3PAVProperties@@A:DWORD		; g_pFileDef
EXTRN	_strcpy:NEAR
EXTRN	_strcat:NEAR
EXTRN	?SaveToFile@ClientConfig@@QAEXPBD@Z:NEAR	; ClientConfig::SaveToFile
;	COMDAT xdata$x
; File c:\stlport-4.6.1\stlport\stl\_alloc.h
xdata$x	SEGMENT
$T108185 DD	0ffffffffH
	DD	FLAT:$L108091
	DD	0ffffffffH
	DD	FLAT:$L108092
$T108178 DD	019930520H
	DD	02H
	DD	FLAT:$T108185
	DD	2 DUP(00H)
	DD	2 DUP(00H)
xdata$x	ENDS
;	COMDAT ??_C@_0P@HNNCBMCJ@?2UserSet?2?$CK?4set?$AA@
CONST	SEGMENT
??_C@_0P@HNNCBMCJ@?2UserSet?2?$CK?4set?$AA@ DB '\UserSet\*.set', 00H ; `string'
CONST	ENDS
;	COMDAT ??_C@_09MJOMMHD@?2UserSet?2?$AA@
CONST	SEGMENT
??_C@_09MJOMMHD@?2UserSet?2?$AA@ DB '\UserSet\', 00H	; `string'
CONST	ENDS
;	COMDAT ??_C@_0BH@DIHOJNHP@FILE_INFO_CLIENTCONFIG?$AA@
CONST	SEGMENT
??_C@_0BH@DIHOJNHP@FILE_INFO_CLIENTCONFIG?$AA@ DB 'FILE_INFO_CLIENTCONFIG'
	DB	00H						; `string'
CONST	ENDS
;	COMDAT ??_C@_0BF@OPBGJOMO@FILE_INFO_USEROPTION?$AA@
CONST	SEGMENT
??_C@_0BF@OPBGJOMO@FILE_INFO_USEROPTION?$AA@ DB 'FILE_INFO_USEROPTION', 00H ; `string'
; Function compile flags: /Ogsy
; File c:\darkeden\designed_common\project\client\useroption.cpp
CONST	ENDS
;	COMDAT ?ResetUserOption@UserOption@@QAEXXZ
_TEXT	SEGMENT
$T108089 = -1100					; size = 12
$T108090 = -1088					; size = 12
_result$ = -1076					; size = 260
_currentFolder$ = -816					; size = 260
_c_file$ = -556						; size = 280
_deleteFileName$104332 = -276				; size = 260
__$ArrayPad$ = -16					; size = 4
__$EHRec$ = -12						; size = 12
__$ReturnAddr$ = 4					; size = 4
?ResetUserOption@UserOption@@QAEXXZ PROC NEAR		; UserOption::ResetUserOption, COMDAT
; _this$ = ecx

; 281  : {

  00000	b8 00 00 00 00	 mov	 eax, __ehhandler$?ResetUserOption@UserOption@@QAEXXZ
  00005	e8 00 00 00 00	 call	 __EH_prolog
  0000a	81 ec 40 04 00
	00		 sub	 esp, 1088		; 00000440H
  00010	a1 00 00 00 00	 mov	 eax, DWORD PTR ___security_cookie
  00015	89 45 f0	 mov	 DWORD PTR __$ArrayPad$[ebp], eax
  00018	53		 push	 ebx

; 282  : //	if (g_Mode!=MODE_MAINMENU)
; 283  : //	{
; 284  : //		DEBUG_ADD("Not Mode MODE_MAINMENU");
; 285  : //		return;
; 286  : //	}
; 287  : 	
; 288  : 	TCHAR currentFolder[_MAX_PATH];
; 289  : 
; 290  : 	GetCurrentDirectory(_MAX_PATH,currentFolder);

  00019	8d 85 d0 fc ff
	ff		 lea	 eax, DWORD PTR _currentFolder$[ebp]
  0001f	50		 push	 eax
  00020	68 04 01 00 00	 push	 260			; 00000104H
  00025	ff 15 00 00 00
	00		 call	 DWORD PTR __imp__GetCurrentDirectoryA@8

; 291  : 
; 292  : 	//std::
; 293  : 
; 294  : 	TCHAR result[_MAX_PATH];
; 295  : 	strcpy(result,currentFolder);

  0002b	8d 85 d0 fc ff
	ff		 lea	 eax, DWORD PTR _currentFolder$[ebp]
  00031	50		 push	 eax
  00032	8d 85 cc fb ff
	ff		 lea	 eax, DWORD PTR _result$[ebp]
  00038	50		 push	 eax
  00039	e8 00 00 00 00	 call	 _strcpy

; 296  : 	strcat(result,"\\UserSet\\*.set");

  0003e	8d 85 cc fb ff
	ff		 lea	 eax, DWORD PTR _result$[ebp]
  00044	68 00 00 00 00	 push	 OFFSET FLAT:??_C@_0P@HNNCBMCJ@?2UserSet?2?$CK?4set?$AA@
  00049	50		 push	 eax
  0004a	e8 00 00 00 00	 call	 _strcat

; 297  : 
; 298  : 	struct _finddata_t c_file;
; 299  :     long hFile;
; 300  : 
; 301  : 	if( (hFile = _findfirst( result, &c_file )) != -1L )

  0004f	8d 85 d4 fd ff
	ff		 lea	 eax, DWORD PTR _c_file$[ebp]
  00055	50		 push	 eax
  00056	8d 85 cc fb ff
	ff		 lea	 eax, DWORD PTR _result$[ebp]
  0005c	50		 push	 eax
  0005d	e8 00 00 00 00	 call	 __findfirst
  00062	8b d8		 mov	 ebx, eax
  00064	83 c4 18	 add	 esp, 24			; 00000018H
  00067	83 fb ff	 cmp	 ebx, -1
  0006a	0f 84 9d 00 00
	00		 je	 $L104331
  00070	56		 push	 esi
  00071	57		 push	 edi

; 302  : 	{
; 303  : 		TCHAR deleteFileName[_MAX_PATH];
; 304  : 		strcpy(deleteFileName,currentFolder);

  00072	8d 85 d0 fc ff
	ff		 lea	 eax, DWORD PTR _currentFolder$[ebp]
  00078	50		 push	 eax
  00079	8d 85 ec fe ff
	ff		 lea	 eax, DWORD PTR _deleteFileName$104332[ebp]
  0007f	50		 push	 eax
  00080	e8 00 00 00 00	 call	 _strcpy

; 305  : 		strcat(deleteFileName,"\\UserSet\\");

  00085	bf 00 00 00 00	 mov	 edi, OFFSET FLAT:??_C@_09MJOMMHD@?2UserSet?2?$AA@
  0008a	8d 85 ec fe ff
	ff		 lea	 eax, DWORD PTR _deleteFileName$104332[ebp]
  00090	57		 push	 edi
  00091	50		 push	 eax
  00092	e8 00 00 00 00	 call	 _strcat

; 306  : 		strcat(deleteFileName,c_file.name);

  00097	8d 85 e8 fd ff
	ff		 lea	 eax, DWORD PTR _c_file$[ebp+20]
  0009d	50		 push	 eax
  0009e	8d 85 ec fe ff
	ff		 lea	 eax, DWORD PTR _deleteFileName$104332[ebp]
  000a4	50		 push	 eax
  000a5	e8 00 00 00 00	 call	 _strcat

; 307  : 
; 308  : 		DeleteFile(deleteFileName);

  000aa	8b 35 00 00 00
	00		 mov	 esi, DWORD PTR __imp__DeleteFileA@4

; 309  : 
; 310  :         /* Find the rest of the .c files */
; 311  :         while( _findnext( hFile, &c_file ) == 0 )

  000b0	eb 33		 jmp	 SHORT $L108184
$L104335:

; 312  :         {
; 313  : 			strcpy(deleteFileName,currentFolder);

  000b2	8d 85 d0 fc ff
	ff		 lea	 eax, DWORD PTR _currentFolder$[ebp]
  000b8	50		 push	 eax
  000b9	8d 85 ec fe ff
	ff		 lea	 eax, DWORD PTR _deleteFileName$104332[ebp]
  000bf	50		 push	 eax
  000c0	e8 00 00 00 00	 call	 _strcpy

; 314  : 			strcat(deleteFileName,"\\UserSet\\");

  000c5	8d 85 ec fe ff
	ff		 lea	 eax, DWORD PTR _deleteFileName$104332[ebp]
  000cb	57		 push	 edi
  000cc	50		 push	 eax
  000cd	e8 00 00 00 00	 call	 _strcat

; 315  : 			strcat(deleteFileName,c_file.name);

  000d2	8d 85 e8 fd ff
	ff		 lea	 eax, DWORD PTR _c_file$[ebp+20]
  000d8	50		 push	 eax
  000d9	8d 85 ec fe ff
	ff		 lea	 eax, DWORD PTR _deleteFileName$104332[ebp]
  000df	50		 push	 eax
  000e0	e8 00 00 00 00	 call	 _strcat
$L108184:

; 316  : 
; 317  : 			DeleteFile(deleteFileName);

  000e5	8d 85 ec fe ff
	ff		 lea	 eax, DWORD PTR _deleteFileName$104332[ebp]
  000eb	83 c4 18	 add	 esp, 24			; 00000018H
  000ee	50		 push	 eax
  000ef	ff d6		 call	 esi
  000f1	8d 85 d4 fd ff
	ff		 lea	 eax, DWORD PTR _c_file$[ebp]
  000f7	50		 push	 eax
  000f8	53		 push	 ebx
  000f9	e8 00 00 00 00	 call	 __findnext
  000fe	85 c0		 test	 eax, eax
  00100	59		 pop	 ecx
  00101	59		 pop	 ecx
  00102	74 ae		 je	 SHORT $L104335

; 318  :         }
; 319  :        _findclose( hFile );

  00104	53		 push	 ebx
  00105	e8 00 00 00 00	 call	 __findclose
  0010a	59		 pop	 ecx
  0010b	5f		 pop	 edi
  0010c	5e		 pop	 esi
$L104331:

; 320  : 	}
; 321  : 
; 322  : /*	TCHAR result[_MAX_PATH];
; 323  : 	strcpy(result,"del ");
; 324  : 	strcat(result,currentFolder);
; 325  : 
; 326  : 	//FindFilelist
; 327  : 	strcat(result,"\\UserSet\\*.set");
; 328  : 	
; 329  : 	//DeleteFile(result);
; 330  : 
; 331  : 	system(result);*/
; 332  : 	SetDefaultAccelerator();

  0010d	e8 00 00 00 00	 call	 ?SetDefaultAccelerator@@YAXXZ ; SetDefaultAccelerator

; 333  : 	//gC_vs_ui.CloseOption();
; 334  : 
; 335  : 	//---------------------------------------------------------------
; 336  : 	// 그냥 저장해버린다. - -;
; 337  : 	//---------------------------------------------------------------
; 338  : 	g_pClientConfig->SaveToFile( g_pFileDef->getProperty("FILE_INFO_CLIENTCONFIG").c_str());

  00112	8b 0d 00 00 00
	00		 mov	 ecx, DWORD PTR ?g_pFileDef@@3PAVProperties@@A ; g_pFileDef
  00118	68 00 00 00 00	 push	 OFFSET FLAT:??_C@_0BH@DIHOJNHP@FILE_INFO_CLIENTCONFIG?$AA@
  0011d	8d 85 b4 fb ff
	ff		 lea	 eax, DWORD PTR $T108089[ebp]
  00123	50		 push	 eax
  00124	e8 00 00 00 00	 call	 ?getProperty@Properties@@QBE?AV?$basic_string@DV?$char_traits@D@_STL@@V?$allocator@D@2@@_STL@@PBD@Z ; Properties::getProperty
  00129	ff 30		 push	 DWORD PTR [eax]
  0012b	8b 0d 00 00 00
	00		 mov	 ecx, DWORD PTR ?g_pClientConfig@@3PAVClientConfig@@A ; g_pClientConfig
  00131	83 65 fc 00	 and	 DWORD PTR __$EHRec$[ebp+8], 0
  00135	e8 00 00 00 00	 call	 ?SaveToFile@ClientConfig@@QAEXPBD@Z ; ClientConfig::SaveToFile
  0013a	8b 85 bc fb ff
	ff		 mov	 eax, DWORD PTR $T108089[ebp+8]
  00140	2b 85 b4 fb ff
	ff		 sub	 eax, DWORD PTR $T108089[ebp]
  00146	83 4d fc ff	 or	 DWORD PTR __$EHRec$[ebp+8], -1
  0014a	50		 push	 eax
  0014b	ff b5 b4 fb ff
	ff		 push	 DWORD PTR $T108089[ebp]
  00151	8d 8d bc fb ff
	ff		 lea	 ecx, DWORD PTR $T108089[ebp+8]
  00157	e8 00 00 00 00	 call	 ?deallocate@?$allocator@D@_STL@@QAEXPADI@Z ; _STL::allocator<char>::deallocate

; 339  : 	g_pUserOption->SaveToFile( g_pFileDef->getProperty("FILE_INFO_USEROPTION").c_str());

  0015c	8b 0d 00 00 00
	00		 mov	 ecx, DWORD PTR ?g_pFileDef@@3PAVProperties@@A ; g_pFileDef
  00162	68 00 00 00 00	 push	 OFFSET FLAT:??_C@_0BF@OPBGJOMO@FILE_INFO_USEROPTION?$AA@
  00167	8d 85 c0 fb ff
	ff		 lea	 eax, DWORD PTR $T108090[ebp]
  0016d	50		 push	 eax
  0016e	e8 00 00 00 00	 call	 ?getProperty@Properties@@QBE?AV?$basic_string@DV?$char_traits@D@_STL@@V?$allocator@D@2@@_STL@@PBD@Z ; Properties::getProperty
  00173	ff 30		 push	 DWORD PTR [eax]
  00175	8b 0d 00 00 00
	00		 mov	 ecx, DWORD PTR ?g_pUserOption@@3PAVUserOption@@A ; g_pUserOption
  0017b	c7 45 fc 01 00
	00 00		 mov	 DWORD PTR __$EHRec$[ebp+8], 1
  00182	e8 00 00 00 00	 call	 ?SaveToFile@UserOption@@QAEXPBD@Z ; UserOption::SaveToFile
  00187	8b 85 c8 fb ff
	ff		 mov	 eax, DWORD PTR $T108090[ebp+8]
  0018d	2b 85 c0 fb ff
	ff		 sub	 eax, DWORD PTR $T108090[ebp]
  00193	83 4d fc ff	 or	 DWORD PTR __$EHRec$[ebp+8], -1
  00197	50		 push	 eax
  00198	ff b5 c0 fb ff
	ff		 push	 DWORD PTR $T108090[ebp]
  0019e	8d 8d c8 fb ff
	ff		 lea	 ecx, DWORD PTR $T108090[ebp+8]
  001a4	e8 00 00 00 00	 call	 ?deallocate@?$allocator@D@_STL@@QAEXPADI@Z ; _STL::allocator<char>::deallocate

; 340  : 
; 341  : 	/*if (g_Mode==MODE_MAINMENU)
; 342  : 	{
; 343  : 		if (CDirect3D::IsHAL())
; 344  : 		{
; 345  : 			// 3D가속 중인데.. 가속 끄는 경E
; 346  : 			if (!g_pUserOption->Use3DHAL)
; 347  : 			{
; 348  : 				g_Mode = MODE_CHANGE_OPTION;
; 349  : 			}
; 350  : 		}
; 351  : 		else
; 352  : 		{
; 353  : 			// 3D가속 아닌데.. 가속 하는 경E
; 354  : 			if (g_bEnable3DHAL && g_pUserOption->Use3DHAL)
; 355  : 			{
; 356  : 				g_Mode = MODE_CHANGE_OPTION;
; 357  : 			}
; 358  : 		}
; 359  : 	}*/
; 360  : }

  001a9	8b 4d f4	 mov	 ecx, DWORD PTR __$EHRec$[ebp]
  001ac	64 89 0d 00 00
	00 00		 mov	 DWORD PTR fs:__except_list, ecx
  001b3	8b 4d f0	 mov	 ecx, DWORD PTR __$ArrayPad$[ebp]
  001b6	5b		 pop	 ebx
  001b7	e8 00 00 00 00	 call	 @__security_check_cookie@4
  001bc	c9		 leave
  001bd	c3		 ret	 0
_TEXT	ENDS
;	COMDAT text$x
text$x	SEGMENT
$L108091:
  00000	8d 8d b4 fb ff
	ff		 lea	 ecx, DWORD PTR $T108089[ebp]
  00006	e9 00 00 00 00	 jmp	 ??1?$basic_string@DV?$char_traits@D@_STL@@V?$allocator@D@2@@_STL@@QAE@XZ ; _STL::basic_string<char,_STL::char_traits<char>,_STL::allocator<char> >::~basic_string<char,_STL::char_traits<char>,_STL::allocator<char> >
$L108092:
  0000b	8d 8d c0 fb ff
	ff		 lea	 ecx, DWORD PTR $T108090[ebp]
  00011	e9 00 00 00 00	 jmp	 ??1?$basic_string@DV?$char_traits@D@_STL@@V?$allocator@D@2@@_STL@@QAE@XZ ; _STL::basic_string<char,_STL::char_traits<char>,_STL::allocator<char> >::~basic_string<char,_STL::char_traits<char>,_STL::allocator<char> >
__ehhandler$?ResetUserOption@UserOption@@QAEXXZ:
  00016	b8 00 00 00 00	 mov	 eax, OFFSET FLAT:$T108178
  0001b	e9 00 00 00 00	 jmp	 ___CxxFrameHandler
text$x	ENDS
?ResetUserOption@UserOption@@QAEXXZ ENDP		; UserOption::ResetUserOption
PUBLIC	?LoadFromFile@UserOption@@QAE_NPBD@Z		; UserOption::LoadFromFile
EXTRN	?LoadFromFile@KeyAccelerator@@QAE_NAAVivfstream@@@Z:NEAR ; KeyAccelerator::LoadFromFile
;	COMDAT xdata$x
; File c:\darkeden\designed_common\project\client\virtualfilesystem\vfstream.inl
xdata$x	SEGMENT
$T108681 DD	0ffffffffH
	DD	FLAT:$L108239
$T108677 DD	019930520H
	DD	01H
	DD	FLAT:$T108681
	DD	2 DUP(00H)
	DD	2 DUP(00H)
; Function compile flags: /Ogsy
; File c:\darkeden\designed_common\project\client\useroption.cpp
xdata$x	ENDS
;	COMDAT ?LoadFromFile@UserOption@@QAE_NPBD@Z
_TEXT	SEGMENT
_file$ = -96						; size = 80
_flag$ = -16						; size = 4
__$EHRec$ = -12						; size = 12
_temp$ = 8						; size = 4
_filename$ = 8						; size = 4
?LoadFromFile@UserOption@@QAE_NPBD@Z PROC NEAR		; UserOption::LoadFromFile, COMDAT
; _this$ = ecx

; 189  : {

  00000	b8 00 00 00 00	 mov	 eax, __ehhandler$?LoadFromFile@UserOption@@QAE_NPBD@Z
  00005	e8 00 00 00 00	 call	 __EH_prolog
  0000a	83 ec 54	 sub	 esp, 84			; 00000054H
  0000d	53		 push	 ebx
  0000e	56		 push	 esi
  0000f	57		 push	 edi

; 190  : 	//if(access(filename,0)) return false;
; 191  : 
; 192  : 	ivfstream file(filename, std::ios::binary);	

  00010	6a 04		 push	 4
  00012	5f		 pop	 edi
  00013	57		 push	 edi
  00014	ff 75 08	 push	 DWORD PTR _filename$[ebp]
  00017	8b f1		 mov	 esi, ecx
  00019	8d 4d a0	 lea	 ecx, DWORD PTR _file$[ebp]
  0001c	e8 00 00 00 00	 call	 ??0ivfstream@@QAE@PBDH@Z ; ivfstream::ivfstream
  00021	33 db		 xor	 ebx, ebx

; 193  : 
; 194  : 	if (/*!file ||*/ !file.is_open())

  00023	8d 4d a0	 lea	 ecx, DWORD PTR _file$[ebp]
  00026	89 5d fc	 mov	 DWORD PTR __$EHRec$[ebp+8], ebx
  00029	e8 00 00 00 00	 call	 ?is_open@iovfs_base@@QBE_NXZ ; iovfs_base::is_open
  0002e	84 c0		 test	 al, al
  00030	74 30		 je	 SHORT $L108678

; 195  : 	{
; 196  : 		return false;
; 197  : 	}
; 198  : 	
; 199  : 	DWORD flag = 0;
; 200  : 	file.read((char*)&flag, 4);

  00032	8b 4d a4	 mov	 ecx, DWORD PTR _file$[ebp+4]
  00035	3b cb		 cmp	 ecx, ebx
  00037	89 5d f0	 mov	 DWORD PTR _flag$[ebp], ebx
  0003a	74 0a		 je	 SHORT $L108246
  0003c	8b 01		 mov	 eax, DWORD PTR [ecx]
  0003e	57		 push	 edi
  0003f	8d 55 f0	 lea	 edx, DWORD PTR _flag$[ebp]
  00042	52		 push	 edx
  00043	ff 50 10	 call	 DWORD PTR [eax+16]
$L108246:

; 201  : 	
; 202  : 	// 단축키를 로드 할 때 크기가 틀리다면
; 203  : 	// 유저 옵션 버전이 맞지 않다고 판단 설정을 초기화한다.
; 204  : 	if(!g_pKeyAccelerator->LoadFromFile(file))

  00046	8b 0d 00 00 00
	00		 mov	 ecx, DWORD PTR ?g_pKeyAccelerator@@3PAVKeyAccelerator@@A ; g_pKeyAccelerator
  0004c	8d 45 a0	 lea	 eax, DWORD PTR _file$[ebp]
  0004f	50		 push	 eax
  00050	e8 00 00 00 00	 call	 ?LoadFromFile@KeyAccelerator@@QAE_NAAVivfstream@@@Z ; KeyAccelerator::LoadFromFile
  00055	84 c0		 test	 al, al
  00057	75 23		 jne	 SHORT $L104134

; 205  : 	{
; 206  : 		ResetUserOption();

  00059	8b ce		 mov	 ecx, esi
  0005b	e8 00 00 00 00	 call	 ?ResetUserOption@UserOption@@QAEXXZ ; UserOption::ResetUserOption
  00060	b3 01		 mov	 bl, 1
$L108678:

; 207  : 		return true;

  00062	83 4d fc ff	 or	 DWORD PTR __$EHRec$[ebp+8], -1
  00066	8d 4d a0	 lea	 ecx, DWORD PTR _file$[ebp]
  00069	c7 45 a0 00 00
	00 00		 mov	 DWORD PTR _file$[ebp], OFFSET FLAT:??_7ivfstream@@6B@
  00070	e8 00 00 00 00	 call	 ??1iovfs_base@@UAE@XZ	; iovfs_base::~iovfs_base
  00075	8a c3		 mov	 al, bl
  00077	e9 6e 07 00 00	 jmp	 $L104128
$L104134:

; 208  : 	}
; 209  : 	
; 210  : //	if(flag == 0)
; 211  : //	{
; 212  : //		g_pKeyAccelerator->SetAcceleratorKey(ACCEL_GRADE1INFO, DIK_R);
; 213  : //		file.seekg(-2, ios::cur);
; 214  : //	}
; 215  : 
; 216  : 	DWORD temp;
; 217  : 	
; 218  : 	READ_CHECK_EOF( UseSmoothCursor, temp, 4 );

  0007c	8b 4d a4	 mov	 ecx, DWORD PTR _file$[ebp+4]
  0007f	3b cb		 cmp	 ecx, ebx
  00081	74 0a		 je	 SHORT $L108255
  00083	8b 01		 mov	 eax, DWORD PTR [ecx]
  00085	57		 push	 edi
  00086	8d 55 08	 lea	 edx, DWORD PTR _temp$[ebp]
  00089	52		 push	 edx
  0008a	ff 50 10	 call	 DWORD PTR [eax+16]
$L108255:
  0008d	8d 4d a0	 lea	 ecx, DWORD PTR _file$[ebp]
  00090	e8 00 00 00 00	 call	 ?eof@ivfstream@@QBE_NXZ	; ivfstream::eof
  00095	84 c0		 test	 al, al
  00097	0f 85 30 07 00
	00		 jne	 $L104138

; 219  : 	READ_CHECK_EOF( DrawMinimap, temp, 4 );

  0009d	8b 4d a4	 mov	 ecx, DWORD PTR _file$[ebp+4]
  000a0	3b cb		 cmp	 ecx, ebx
  000a2	8b 45 08	 mov	 eax, DWORD PTR _temp$[ebp]
  000a5	89 46 14	 mov	 DWORD PTR [esi+20], eax
  000a8	74 0a		 je	 SHORT $L108264
  000aa	8b 01		 mov	 eax, DWORD PTR [ecx]
  000ac	57		 push	 edi
  000ad	8d 55 08	 lea	 edx, DWORD PTR _temp$[ebp]
  000b0	52		 push	 edx
  000b1	ff 50 10	 call	 DWORD PTR [eax+16]
$L108264:
  000b4	8d 4d a0	 lea	 ecx, DWORD PTR _file$[ebp]
  000b7	e8 00 00 00 00	 call	 ?eof@ivfstream@@QBE_NXZ	; ivfstream::eof
  000bc	84 c0		 test	 al, al
  000be	0f 85 09 07 00
	00		 jne	 $L104138

; 220  : 	READ_CHECK_EOF( DrawZoneName, temp, 4 );

  000c4	8b 4d a4	 mov	 ecx, DWORD PTR _file$[ebp+4]
  000c7	3b cb		 cmp	 ecx, ebx
  000c9	8b 45 08	 mov	 eax, DWORD PTR _temp$[ebp]
  000cc	89 46 18	 mov	 DWORD PTR [esi+24], eax
  000cf	74 0a		 je	 SHORT $L108273
  000d1	8b 01		 mov	 eax, DWORD PTR [ecx]
  000d3	57		 push	 edi
  000d4	8d 55 08	 lea	 edx, DWORD PTR _temp$[ebp]
  000d7	52		 push	 edx
  000d8	ff 50 10	 call	 DWORD PTR [eax+16]
$L108273:
  000db	8d 4d a0	 lea	 ecx, DWORD PTR _file$[ebp]
  000de	e8 00 00 00 00	 call	 ?eof@ivfstream@@QBE_NXZ	; ivfstream::eof
  000e3	84 c0		 test	 al, al
  000e5	0f 85 e2 06 00
	00		 jne	 $L104138

; 221  : 	READ_CHECK_EOF( DrawGameTime, temp, 4 );

  000eb	8b 4d a4	 mov	 ecx, DWORD PTR _file$[ebp+4]
  000ee	3b cb		 cmp	 ecx, ebx
  000f0	8b 45 08	 mov	 eax, DWORD PTR _temp$[ebp]
  000f3	89 46 1c	 mov	 DWORD PTR [esi+28], eax
  000f6	74 0a		 je	 SHORT $L108282
  000f8	8b 01		 mov	 eax, DWORD PTR [ecx]
  000fa	57		 push	 edi
  000fb	8d 55 08	 lea	 edx, DWORD PTR _temp$[ebp]
  000fe	52		 push	 edx
  000ff	ff 50 10	 call	 DWORD PTR [eax+16]
$L108282:
  00102	8d 4d a0	 lea	 ecx, DWORD PTR _file$[ebp]
  00105	e8 00 00 00 00	 call	 ?eof@ivfstream@@QBE_NXZ	; ivfstream::eof
  0010a	84 c0		 test	 al, al
  0010c	0f 85 bb 06 00
	00		 jne	 $L104138

; 222  : 	READ_CHECK_EOF( DrawInterface, temp, 4 );

  00112	8b 4d a4	 mov	 ecx, DWORD PTR _file$[ebp+4]
  00115	3b cb		 cmp	 ecx, ebx
  00117	8b 45 08	 mov	 eax, DWORD PTR _temp$[ebp]
  0011a	89 46 20	 mov	 DWORD PTR [esi+32], eax
  0011d	74 0a		 je	 SHORT $L108291
  0011f	8b 01		 mov	 eax, DWORD PTR [ecx]
  00121	57		 push	 edi
  00122	8d 55 08	 lea	 edx, DWORD PTR _temp$[ebp]
  00125	52		 push	 edx
  00126	ff 50 10	 call	 DWORD PTR [eax+16]
$L108291:
  00129	8d 4d a0	 lea	 ecx, DWORD PTR _file$[ebp]
  0012c	e8 00 00 00 00	 call	 ?eof@ivfstream@@QBE_NXZ	; ivfstream::eof
  00131	84 c0		 test	 al, al
  00133	0f 85 94 06 00
	00		 jne	 $L104138

; 223  : 	READ_CHECK_EOF( DrawFPS, temp, 4 );

  00139	8b 4d a4	 mov	 ecx, DWORD PTR _file$[ebp+4]
  0013c	3b cb		 cmp	 ecx, ebx
  0013e	8b 45 08	 mov	 eax, DWORD PTR _temp$[ebp]
  00141	89 46 24	 mov	 DWORD PTR [esi+36], eax
  00144	74 0a		 je	 SHORT $L108300
  00146	8b 01		 mov	 eax, DWORD PTR [ecx]
  00148	57		 push	 edi
  00149	8d 55 08	 lea	 edx, DWORD PTR _temp$[ebp]
  0014c	52		 push	 edx
  0014d	ff 50 10	 call	 DWORD PTR [eax+16]
$L108300:
  00150	8d 4d a0	 lea	 ecx, DWORD PTR _file$[ebp]
  00153	e8 00 00 00 00	 call	 ?eof@ivfstream@@QBE_NXZ	; ivfstream::eof
  00158	84 c0		 test	 al, al
  0015a	0f 85 6d 06 00
	00		 jne	 $L104138

; 224  : 	READ_CHECK_EOF( BlendingShadow, temp, 4 );

  00160	8b 4d a4	 mov	 ecx, DWORD PTR _file$[ebp+4]
  00163	3b cb		 cmp	 ecx, ebx
  00165	8b 45 08	 mov	 eax, DWORD PTR _temp$[ebp]
  00168	89 46 28	 mov	 DWORD PTR [esi+40], eax
  0016b	74 0a		 je	 SHORT $L108309
  0016d	8b 01		 mov	 eax, DWORD PTR [ecx]
  0016f	57		 push	 edi
  00170	8d 55 08	 lea	 edx, DWORD PTR _temp$[ebp]
  00173	52		 push	 edx
  00174	ff 50 10	 call	 DWORD PTR [eax+16]
$L108309:
  00177	8d 4d a0	 lea	 ecx, DWORD PTR _file$[ebp]
  0017a	e8 00 00 00 00	 call	 ?eof@ivfstream@@QBE_NXZ	; ivfstream::eof
  0017f	84 c0		 test	 al, al
  00181	0f 85 46 06 00
	00		 jne	 $L104138

; 225  : 	READ_CHECK_EOF( FilteringCurse, temp, 4 );

  00187	8b 4d a4	 mov	 ecx, DWORD PTR _file$[ebp+4]
  0018a	3b cb		 cmp	 ecx, ebx
  0018c	8b 45 08	 mov	 eax, DWORD PTR _temp$[ebp]
  0018f	89 46 2c	 mov	 DWORD PTR [esi+44], eax
  00192	74 0a		 je	 SHORT $L108318
  00194	8b 01		 mov	 eax, DWORD PTR [ecx]
  00196	57		 push	 edi
  00197	8d 55 08	 lea	 edx, DWORD PTR _temp$[ebp]
  0019a	52		 push	 edx
  0019b	ff 50 10	 call	 DWORD PTR [eax+16]
$L108318:
  0019e	8d 4d a0	 lea	 ecx, DWORD PTR _file$[ebp]
  001a1	e8 00 00 00 00	 call	 ?eof@ivfstream@@QBE_NXZ	; ivfstream::eof
  001a6	84 c0		 test	 al, al
  001a8	0f 85 1f 06 00
	00		 jne	 $L104138

; 226  : 	READ_CHECK_EOF( PlayMusic, temp, 4 );

  001ae	8b 4d a4	 mov	 ecx, DWORD PTR _file$[ebp+4]
  001b1	3b cb		 cmp	 ecx, ebx
  001b3	8b 45 08	 mov	 eax, DWORD PTR _temp$[ebp]
  001b6	89 46 30	 mov	 DWORD PTR [esi+48], eax
  001b9	74 0a		 je	 SHORT $L108327
  001bb	8b 01		 mov	 eax, DWORD PTR [ecx]
  001bd	57		 push	 edi
  001be	8d 55 08	 lea	 edx, DWORD PTR _temp$[ebp]
  001c1	52		 push	 edx
  001c2	ff 50 10	 call	 DWORD PTR [eax+16]
$L108327:
  001c5	8d 4d a0	 lea	 ecx, DWORD PTR _file$[ebp]
  001c8	e8 00 00 00 00	 call	 ?eof@ivfstream@@QBE_NXZ	; ivfstream::eof
  001cd	84 c0		 test	 al, al
  001cf	0f 85 f8 05 00
	00		 jne	 $L104138

; 227  : 	READ_CHECK_EOF( PlaySound, temp, 4 );

  001d5	8b 4d a4	 mov	 ecx, DWORD PTR _file$[ebp+4]
  001d8	3b cb		 cmp	 ecx, ebx
  001da	8b 45 08	 mov	 eax, DWORD PTR _temp$[ebp]
  001dd	89 46 34	 mov	 DWORD PTR [esi+52], eax
  001e0	74 0a		 je	 SHORT $L108336
  001e2	8b 01		 mov	 eax, DWORD PTR [ecx]
  001e4	57		 push	 edi
  001e5	8d 55 08	 lea	 edx, DWORD PTR _temp$[ebp]
  001e8	52		 push	 edx
  001e9	ff 50 10	 call	 DWORD PTR [eax+16]
$L108336:
  001ec	8d 4d a0	 lea	 ecx, DWORD PTR _file$[ebp]
  001ef	e8 00 00 00 00	 call	 ?eof@ivfstream@@QBE_NXZ	; ivfstream::eof
  001f4	84 c0		 test	 al, al
  001f6	0f 85 d1 05 00
	00		 jne	 $L104138

; 228  : 	READ_CHECK_EOF( VolumeMusic, temp, 4 );

  001fc	8b 4d a4	 mov	 ecx, DWORD PTR _file$[ebp+4]
  001ff	3b cb		 cmp	 ecx, ebx
  00201	8b 45 08	 mov	 eax, DWORD PTR _temp$[ebp]
  00204	89 46 38	 mov	 DWORD PTR [esi+56], eax
  00207	74 0a		 je	 SHORT $L108345
  00209	8b 01		 mov	 eax, DWORD PTR [ecx]
  0020b	57		 push	 edi
  0020c	8d 55 08	 lea	 edx, DWORD PTR _temp$[ebp]
  0020f	52		 push	 edx
  00210	ff 50 10	 call	 DWORD PTR [eax+16]
$L108345:
  00213	8d 4d a0	 lea	 ecx, DWORD PTR _file$[ebp]
  00216	e8 00 00 00 00	 call	 ?eof@ivfstream@@QBE_NXZ	; ivfstream::eof
  0021b	84 c0		 test	 al, al
  0021d	0f 85 aa 05 00
	00		 jne	 $L104138

; 229  : 	READ_CHECK_EOF( VolumeSound, temp, 4 );	

  00223	8b 4d a4	 mov	 ecx, DWORD PTR _file$[ebp+4]
  00226	3b cb		 cmp	 ecx, ebx
  00228	8b 45 08	 mov	 eax, DWORD PTR _temp$[ebp]
  0022b	89 46 3c	 mov	 DWORD PTR [esi+60], eax
  0022e	74 0a		 je	 SHORT $L108354
  00230	8b 01		 mov	 eax, DWORD PTR [ecx]
  00232	57		 push	 edi
  00233	8d 55 08	 lea	 edx, DWORD PTR _temp$[ebp]
  00236	52		 push	 edx
  00237	ff 50 10	 call	 DWORD PTR [eax+16]
$L108354:
  0023a	8d 4d a0	 lea	 ecx, DWORD PTR _file$[ebp]
  0023d	e8 00 00 00 00	 call	 ?eof@ivfstream@@QBE_NXZ	; ivfstream::eof
  00242	84 c0		 test	 al, al
  00244	0f 85 83 05 00
	00		 jne	 $L104138

; 230  : 	READ_CHECK_EOF( UseHelpEvent, temp, 4 );

  0024a	8b 4d a4	 mov	 ecx, DWORD PTR _file$[ebp+4]
  0024d	3b cb		 cmp	 ecx, ebx
  0024f	8b 45 08	 mov	 eax, DWORD PTR _temp$[ebp]
  00252	89 46 40	 mov	 DWORD PTR [esi+64], eax
  00255	74 0a		 je	 SHORT $L108363
  00257	8b 01		 mov	 eax, DWORD PTR [ecx]
  00259	57		 push	 edi
  0025a	8d 55 08	 lea	 edx, DWORD PTR _temp$[ebp]
  0025d	52		 push	 edx
  0025e	ff 50 10	 call	 DWORD PTR [eax+16]
$L108363:
  00261	8d 4d a0	 lea	 ecx, DWORD PTR _file$[ebp]
  00264	e8 00 00 00 00	 call	 ?eof@ivfstream@@QBE_NXZ	; ivfstream::eof
  00269	84 c0		 test	 al, al
  0026b	0f 85 5c 05 00
	00		 jne	 $L104138

; 231  : 	READ_CHECK_EOF( PlayWaveMusic, temp, 4 );

  00271	8b 4d a4	 mov	 ecx, DWORD PTR _file$[ebp+4]
  00274	3b cb		 cmp	 ecx, ebx
  00276	8b 45 08	 mov	 eax, DWORD PTR _temp$[ebp]
  00279	89 46 44	 mov	 DWORD PTR [esi+68], eax
  0027c	74 0a		 je	 SHORT $L108372
  0027e	8b 01		 mov	 eax, DWORD PTR [ecx]
  00280	57		 push	 edi
  00281	8d 55 08	 lea	 edx, DWORD PTR _temp$[ebp]
  00284	52		 push	 edx
  00285	ff 50 10	 call	 DWORD PTR [eax+16]
$L108372:
  00288	8d 4d a0	 lea	 ecx, DWORD PTR _file$[ebp]
  0028b	e8 00 00 00 00	 call	 ?eof@ivfstream@@QBE_NXZ	; ivfstream::eof
  00290	84 c0		 test	 al, al
  00292	0f 85 35 05 00
	00		 jne	 $L104138

; 232  : 	READ_CHECK_EOF( BloodDrop, temp, 4 );	

  00298	8b 4d a4	 mov	 ecx, DWORD PTR _file$[ebp+4]
  0029b	3b cb		 cmp	 ecx, ebx
  0029d	8b 45 08	 mov	 eax, DWORD PTR _temp$[ebp]
  002a0	89 46 48	 mov	 DWORD PTR [esi+72], eax
  002a3	74 0a		 je	 SHORT $L108381
  002a5	8b 01		 mov	 eax, DWORD PTR [ecx]
  002a7	57		 push	 edi
  002a8	8d 55 08	 lea	 edx, DWORD PTR _temp$[ebp]
  002ab	52		 push	 edx
  002ac	ff 50 10	 call	 DWORD PTR [eax+16]
$L108381:
  002af	8d 4d a0	 lea	 ecx, DWORD PTR _file$[ebp]
  002b2	e8 00 00 00 00	 call	 ?eof@ivfstream@@QBE_NXZ	; ivfstream::eof
  002b7	84 c0		 test	 al, al
  002b9	0f 85 0e 05 00
	00		 jne	 $L104138

; 233  : 	READ_CHECK_EOF( OpenQuickSlot, temp, 4 );		

  002bf	8b 4d a4	 mov	 ecx, DWORD PTR _file$[ebp+4]
  002c2	3b cb		 cmp	 ecx, ebx
  002c4	8b 45 08	 mov	 eax, DWORD PTR _temp$[ebp]
  002c7	89 46 4c	 mov	 DWORD PTR [esi+76], eax
  002ca	74 0a		 je	 SHORT $L108390
  002cc	8b 01		 mov	 eax, DWORD PTR [ecx]
  002ce	57		 push	 edi
  002cf	8d 55 08	 lea	 edx, DWORD PTR _temp$[ebp]
  002d2	52		 push	 edx
  002d3	ff 50 10	 call	 DWORD PTR [eax+16]
$L108390:
  002d6	8d 4d a0	 lea	 ecx, DWORD PTR _file$[ebp]
  002d9	e8 00 00 00 00	 call	 ?eof@ivfstream@@QBE_NXZ	; ivfstream::eof
  002de	84 c0		 test	 al, al
  002e0	0f 85 e7 04 00
	00		 jne	 $L104138

; 234  : 	READ_CHECK_EOF( UseHalfFrame, temp, 4 );	

  002e6	8b 4d a4	 mov	 ecx, DWORD PTR _file$[ebp+4]
  002e9	3b cb		 cmp	 ecx, ebx
  002eb	8b 45 08	 mov	 eax, DWORD PTR _temp$[ebp]
  002ee	89 46 50	 mov	 DWORD PTR [esi+80], eax
  002f1	74 0a		 je	 SHORT $L108399
  002f3	8b 01		 mov	 eax, DWORD PTR [ecx]
  002f5	57		 push	 edi
  002f6	8d 55 08	 lea	 edx, DWORD PTR _temp$[ebp]
  002f9	52		 push	 edx
  002fa	ff 50 10	 call	 DWORD PTR [eax+16]
$L108399:
  002fd	8d 4d a0	 lea	 ecx, DWORD PTR _file$[ebp]
  00300	e8 00 00 00 00	 call	 ?eof@ivfstream@@QBE_NXZ	; ivfstream::eof
  00305	84 c0		 test	 al, al
  00307	0f 85 c0 04 00
	00		 jne	 $L104138

; 235  : 	READ_CHECK_EOF( Use3DHAL, temp, 4);

  0030d	8b 4d a4	 mov	 ecx, DWORD PTR _file$[ebp+4]
  00310	3b cb		 cmp	 ecx, ebx
  00312	8b 45 08	 mov	 eax, DWORD PTR _temp$[ebp]
  00315	89 46 54	 mov	 DWORD PTR [esi+84], eax
  00318	74 0a		 je	 SHORT $L108408
  0031a	8b 01		 mov	 eax, DWORD PTR [ecx]
  0031c	57		 push	 edi
  0031d	8d 55 08	 lea	 edx, DWORD PTR _temp$[ebp]
  00320	52		 push	 edx
  00321	ff 50 10	 call	 DWORD PTR [eax+16]
$L108408:
  00324	8d 4d a0	 lea	 ecx, DWORD PTR _file$[ebp]
  00327	e8 00 00 00 00	 call	 ?eof@ivfstream@@QBE_NXZ	; ivfstream::eof
  0032c	84 c0		 test	 al, al
  0032e	0f 85 99 04 00
	00		 jne	 $L104138

; 236  : 	READ_CHECK_EOF( DrawTransHPBar, temp, 4);	

  00334	8b 4d a4	 mov	 ecx, DWORD PTR _file$[ebp+4]
  00337	3b cb		 cmp	 ecx, ebx
  00339	8b 45 08	 mov	 eax, DWORD PTR _temp$[ebp]
  0033c	89 46 10	 mov	 DWORD PTR [esi+16], eax
  0033f	74 0a		 je	 SHORT $L108417
  00341	8b 01		 mov	 eax, DWORD PTR [ecx]
  00343	57		 push	 edi
  00344	8d 55 08	 lea	 edx, DWORD PTR _temp$[ebp]
  00347	52		 push	 edx
  00348	ff 50 10	 call	 DWORD PTR [eax+16]
$L108417:
  0034b	8d 4d a0	 lea	 ecx, DWORD PTR _file$[ebp]
  0034e	e8 00 00 00 00	 call	 ?eof@ivfstream@@QBE_NXZ	; ivfstream::eof
  00353	84 c0		 test	 al, al
  00355	0f 85 72 04 00
	00		 jne	 $L104138

; 237  : 	READ_CHECK_EOF( UseForceFeel, temp, 4);	

  0035b	8b 4d a4	 mov	 ecx, DWORD PTR _file$[ebp+4]
  0035e	3b cb		 cmp	 ecx, ebx
  00360	8b 45 08	 mov	 eax, DWORD PTR _temp$[ebp]
  00363	89 46 58	 mov	 DWORD PTR [esi+88], eax
  00366	74 0a		 je	 SHORT $L108426
  00368	8b 01		 mov	 eax, DWORD PTR [ecx]
  0036a	57		 push	 edi
  0036b	8d 55 08	 lea	 edx, DWORD PTR _temp$[ebp]
  0036e	52		 push	 edx
  0036f	ff 50 10	 call	 DWORD PTR [eax+16]
$L108426:
  00372	8d 4d a0	 lea	 ecx, DWORD PTR _file$[ebp]
  00375	e8 00 00 00 00	 call	 ?eof@ivfstream@@QBE_NXZ	; ivfstream::eof
  0037a	84 c0		 test	 al, al
  0037c	0f 85 4b 04 00
	00		 jne	 $L104138

; 238  : 	READ_CHECK_EOF( UseGammaControl, temp, 4);		

  00382	8b 4d a4	 mov	 ecx, DWORD PTR _file$[ebp+4]
  00385	3b cb		 cmp	 ecx, ebx
  00387	8b 45 08	 mov	 eax, DWORD PTR _temp$[ebp]
  0038a	89 46 5c	 mov	 DWORD PTR [esi+92], eax
  0038d	74 0a		 je	 SHORT $L108435
  0038f	8b 01		 mov	 eax, DWORD PTR [ecx]
  00391	57		 push	 edi
  00392	8d 55 08	 lea	 edx, DWORD PTR _temp$[ebp]
  00395	52		 push	 edx
  00396	ff 50 10	 call	 DWORD PTR [eax+16]
$L108435:
  00399	8d 4d a0	 lea	 ecx, DWORD PTR _file$[ebp]
  0039c	e8 00 00 00 00	 call	 ?eof@ivfstream@@QBE_NXZ	; ivfstream::eof
  003a1	84 c0		 test	 al, al
  003a3	0f 85 24 04 00
	00		 jne	 $L104138

; 239  : 	READ_CHECK_EOF( GammaValue, temp, 4);	

  003a9	8b 4d a4	 mov	 ecx, DWORD PTR _file$[ebp+4]
  003ac	3b cb		 cmp	 ecx, ebx
  003ae	8b 45 08	 mov	 eax, DWORD PTR _temp$[ebp]
  003b1	89 46 60	 mov	 DWORD PTR [esi+96], eax
  003b4	74 0a		 je	 SHORT $L108444
  003b6	8b 01		 mov	 eax, DWORD PTR [ecx]
  003b8	57		 push	 edi
  003b9	8d 55 08	 lea	 edx, DWORD PTR _temp$[ebp]
  003bc	52		 push	 edx
  003bd	ff 50 10	 call	 DWORD PTR [eax+16]
$L108444:
  003c0	8d 4d a0	 lea	 ecx, DWORD PTR _file$[ebp]
  003c3	e8 00 00 00 00	 call	 ?eof@ivfstream@@QBE_NXZ	; ivfstream::eof
  003c8	84 c0		 test	 al, al
  003ca	0f 85 fd 03 00
	00		 jne	 $L104138

; 240  : 	READ_CHECK_EOF( DrawChatBoxOutline, temp, 4);

  003d0	8b 4d a4	 mov	 ecx, DWORD PTR _file$[ebp+4]
  003d3	3b cb		 cmp	 ecx, ebx
  003d5	8b 45 08	 mov	 eax, DWORD PTR _temp$[ebp]
  003d8	89 46 64	 mov	 DWORD PTR [esi+100], eax
  003db	74 0a		 je	 SHORT $L108453
  003dd	8b 01		 mov	 eax, DWORD PTR [ecx]
  003df	57		 push	 edi
  003e0	8d 55 08	 lea	 edx, DWORD PTR _temp$[ebp]
  003e3	52		 push	 edx
  003e4	ff 50 10	 call	 DWORD PTR [eax+16]
$L108453:
  003e7	8d 4d a0	 lea	 ecx, DWORD PTR _file$[ebp]
  003ea	e8 00 00 00 00	 call	 ?eof@ivfstream@@QBE_NXZ	; ivfstream::eof
  003ef	84 c0		 test	 al, al
  003f1	0f 85 d6 03 00
	00		 jne	 $L104138

; 241  : 	
; 242  : 	// new interface
; 243  : //	READ_CHECK_EOF( *BackupID, temp, 11);
; 244  : 	file.read((char *)BackupID, 13);

  003f7	8b 4d a4	 mov	 ecx, DWORD PTR _file$[ebp+4]
  003fa	3b cb		 cmp	 ecx, ebx
  003fc	8b 45 08	 mov	 eax, DWORD PTR _temp$[ebp]
  003ff	89 46 68	 mov	 DWORD PTR [esi+104], eax
  00402	74 1c		 je	 SHORT $L108467
  00404	8b 01		 mov	 eax, DWORD PTR [ecx]
  00406	6a 0d		 push	 13			; 0000000dH
  00408	8d 56 6c	 lea	 edx, DWORD PTR [esi+108]
  0040b	52		 push	 edx
  0040c	ff 50 10	 call	 DWORD PTR [eax+16]

; 245  : 	READ_CHECK_EOF( UseEnterChat, temp, 4);

  0040f	8b 4d a4	 mov	 ecx, DWORD PTR _file$[ebp+4]
  00412	3b cb		 cmp	 ecx, ebx
  00414	74 0a		 je	 SHORT $L108467
  00416	8b 01		 mov	 eax, DWORD PTR [ecx]
  00418	57		 push	 edi
  00419	8d 55 08	 lea	 edx, DWORD PTR _temp$[ebp]
  0041c	52		 push	 edx
  0041d	ff 50 10	 call	 DWORD PTR [eax+16]
$L108467:
  00420	8d 4d a0	 lea	 ecx, DWORD PTR _file$[ebp]
  00423	e8 00 00 00 00	 call	 ?eof@ivfstream@@QBE_NXZ	; ivfstream::eof
  00428	84 c0		 test	 al, al
  0042a	0f 85 9d 03 00
	00		 jne	 $L104138

; 246  : 	UseEnterChat = TRUE;
; 247  : 	READ_CHECK_EOF( UseMouseSpeed, temp, 4);

  00430	8b 4d a4	 mov	 ecx, DWORD PTR _file$[ebp+4]
  00433	3b cb		 cmp	 ecx, ebx
  00435	c7 46 7c 01 00
	00 00		 mov	 DWORD PTR [esi+124], 1
  0043c	74 0a		 je	 SHORT $L108476
  0043e	8b 01		 mov	 eax, DWORD PTR [ecx]
  00440	57		 push	 edi
  00441	8d 55 08	 lea	 edx, DWORD PTR _temp$[ebp]
  00444	52		 push	 edx
  00445	ff 50 10	 call	 DWORD PTR [eax+16]
$L108476:
  00448	8d 4d a0	 lea	 ecx, DWORD PTR _file$[ebp]
  0044b	e8 00 00 00 00	 call	 ?eof@ivfstream@@QBE_NXZ	; ivfstream::eof
  00450	84 c0		 test	 al, al
  00452	0f 85 75 03 00
	00		 jne	 $L104138

; 248  : 	READ_CHECK_EOF( MouseSpeedValue, temp, 4);

  00458	8b 4d a4	 mov	 ecx, DWORD PTR _file$[ebp+4]
  0045b	3b cb		 cmp	 ecx, ebx
  0045d	8b 45 08	 mov	 eax, DWORD PTR _temp$[ebp]
  00460	89 86 80 00 00
	00		 mov	 DWORD PTR [esi+128], eax
  00466	74 0a		 je	 SHORT $L108485
  00468	8b 01		 mov	 eax, DWORD PTR [ecx]
  0046a	57		 push	 edi
  0046b	8d 55 08	 lea	 edx, DWORD PTR _temp$[ebp]
  0046e	52		 push	 edx
  0046f	ff 50 10	 call	 DWORD PTR [eax+16]
$L108485:
  00472	8d 4d a0	 lea	 ecx, DWORD PTR _file$[ebp]
  00475	e8 00 00 00 00	 call	 ?eof@ivfstream@@QBE_NXZ	; ivfstream::eof
  0047a	84 c0		 test	 al, al
  0047c	0f 85 4b 03 00
	00		 jne	 $L104138

; 249  : 	READ_CHECK_EOF( PlayYellSound, temp, 4);

  00482	8b 4d a4	 mov	 ecx, DWORD PTR _file$[ebp+4]
  00485	3b cb		 cmp	 ecx, ebx
  00487	8b 45 08	 mov	 eax, DWORD PTR _temp$[ebp]
  0048a	89 86 84 00 00
	00		 mov	 DWORD PTR [esi+132], eax
  00490	74 0a		 je	 SHORT $L108494
  00492	8b 01		 mov	 eax, DWORD PTR [ecx]
  00494	57		 push	 edi
  00495	8d 55 08	 lea	 edx, DWORD PTR _temp$[ebp]
  00498	52		 push	 edx
  00499	ff 50 10	 call	 DWORD PTR [eax+16]
$L108494:
  0049c	8d 4d a0	 lea	 ecx, DWORD PTR _file$[ebp]
  0049f	e8 00 00 00 00	 call	 ?eof@ivfstream@@QBE_NXZ	; ivfstream::eof
  004a4	84 c0		 test	 al, al
  004a6	0f 85 21 03 00
	00		 jne	 $L104138

; 250  : 	READ_CHECK_EOF( ShowChoboHelp, temp, 4);

  004ac	8b 4d a4	 mov	 ecx, DWORD PTR _file$[ebp+4]
  004af	3b cb		 cmp	 ecx, ebx
  004b1	8b 45 08	 mov	 eax, DWORD PTR _temp$[ebp]
  004b4	89 86 88 00 00
	00		 mov	 DWORD PTR [esi+136], eax
  004ba	74 0a		 je	 SHORT $L108503
  004bc	8b 01		 mov	 eax, DWORD PTR [ecx]
  004be	57		 push	 edi
  004bf	8d 55 08	 lea	 edx, DWORD PTR _temp$[ebp]
  004c2	52		 push	 edx
  004c3	ff 50 10	 call	 DWORD PTR [eax+16]
$L108503:
  004c6	8d 4d a0	 lea	 ecx, DWORD PTR _file$[ebp]
  004c9	e8 00 00 00 00	 call	 ?eof@ivfstream@@QBE_NXZ	; ivfstream::eof
  004ce	84 c0		 test	 al, al
  004d0	0f 85 f7 02 00
	00		 jne	 $L104138

; 251  : 	READ_CHECK_EOF( TribeChange, temp, 4);

  004d6	8b 4d a4	 mov	 ecx, DWORD PTR _file$[ebp+4]
  004d9	3b cb		 cmp	 ecx, ebx
  004db	8b 45 08	 mov	 eax, DWORD PTR _temp$[ebp]
  004de	89 86 8c 00 00
	00		 mov	 DWORD PTR [esi+140], eax
  004e4	74 0a		 je	 SHORT $L108512
  004e6	8b 01		 mov	 eax, DWORD PTR [ecx]
  004e8	57		 push	 edi
  004e9	8d 55 08	 lea	 edx, DWORD PTR _temp$[ebp]
  004ec	52		 push	 edx
  004ed	ff 50 10	 call	 DWORD PTR [eax+16]
$L108512:
  004f0	8d 4d a0	 lea	 ecx, DWORD PTR _file$[ebp]
  004f3	e8 00 00 00 00	 call	 ?eof@ivfstream@@QBE_NXZ	; ivfstream::eof
  004f8	84 c0		 test	 al, al
  004fa	0f 85 cd 02 00
	00		 jne	 $L104138

; 252  : 	READ_CHECK_EOF( DenyPartyInvite, temp, 4);

  00500	8b 4d a4	 mov	 ecx, DWORD PTR _file$[ebp+4]
  00503	3b cb		 cmp	 ecx, ebx
  00505	8b 45 08	 mov	 eax, DWORD PTR _temp$[ebp]
  00508	89 86 90 00 00
	00		 mov	 DWORD PTR [esi+144], eax
  0050e	74 0a		 je	 SHORT $L108521
  00510	8b 01		 mov	 eax, DWORD PTR [ecx]
  00512	57		 push	 edi
  00513	8d 55 08	 lea	 edx, DWORD PTR _temp$[ebp]
  00516	52		 push	 edx
  00517	ff 50 10	 call	 DWORD PTR [eax+16]
$L108521:
  0051a	8d 4d a0	 lea	 ecx, DWORD PTR _file$[ebp]
  0051d	e8 00 00 00 00	 call	 ?eof@ivfstream@@QBE_NXZ	; ivfstream::eof
  00522	84 c0		 test	 al, al
  00524	0f 85 a3 02 00
	00		 jne	 $L104138

; 253  : 	READ_CHECK_EOF( DenyPartyRequest, temp, 4);

  0052a	8b 4d a4	 mov	 ecx, DWORD PTR _file$[ebp+4]
  0052d	3b cb		 cmp	 ecx, ebx
  0052f	8b 45 08	 mov	 eax, DWORD PTR _temp$[ebp]
  00532	89 86 94 00 00
	00		 mov	 DWORD PTR [esi+148], eax
  00538	74 0a		 je	 SHORT $L108530
  0053a	8b 01		 mov	 eax, DWORD PTR [ecx]
  0053c	57		 push	 edi
  0053d	8d 55 08	 lea	 edx, DWORD PTR _temp$[ebp]
  00540	52		 push	 edx
  00541	ff 50 10	 call	 DWORD PTR [eax+16]
$L108530:
  00544	8d 4d a0	 lea	 ecx, DWORD PTR _file$[ebp]
  00547	e8 00 00 00 00	 call	 ?eof@ivfstream@@QBE_NXZ	; ivfstream::eof
  0054c	84 c0		 test	 al, al
  0054e	0f 85 79 02 00
	00		 jne	 $L104138

; 254  : 	READ_CHECK_EOF( AutoHideSmoothScroll, temp, 4);

  00554	8b 4d a4	 mov	 ecx, DWORD PTR _file$[ebp+4]
  00557	3b cb		 cmp	 ecx, ebx
  00559	8b 45 08	 mov	 eax, DWORD PTR _temp$[ebp]
  0055c	89 86 98 00 00
	00		 mov	 DWORD PTR [esi+152], eax
  00562	74 0a		 je	 SHORT $L108539
  00564	8b 01		 mov	 eax, DWORD PTR [ecx]
  00566	57		 push	 edi
  00567	8d 55 08	 lea	 edx, DWORD PTR _temp$[ebp]
  0056a	52		 push	 edx
  0056b	ff 50 10	 call	 DWORD PTR [eax+16]
$L108539:
  0056e	8d 4d a0	 lea	 ecx, DWORD PTR _file$[ebp]
  00571	e8 00 00 00 00	 call	 ?eof@ivfstream@@QBE_NXZ	; ivfstream::eof
  00576	84 c0		 test	 al, al
  00578	0f 85 4f 02 00
	00		 jne	 $L104138

; 255  : 	READ_CHECK_EOF( ChattingColor, temp, 4);

  0057e	8b 4d a4	 mov	 ecx, DWORD PTR _file$[ebp+4]
  00581	3b cb		 cmp	 ecx, ebx
  00583	8b 45 08	 mov	 eax, DWORD PTR _temp$[ebp]
  00586	89 86 9c 00 00
	00		 mov	 DWORD PTR [esi+156], eax
  0058c	74 0a		 je	 SHORT $L108549
  0058e	8b 01		 mov	 eax, DWORD PTR [ecx]
  00590	57		 push	 edi
  00591	8d 55 08	 lea	 edx, DWORD PTR _temp$[ebp]
  00594	52		 push	 edx
  00595	ff 50 10	 call	 DWORD PTR [eax+16]
$L108549:
  00598	8d 4d a0	 lea	 ecx, DWORD PTR _file$[ebp]
  0059b	e8 00 00 00 00	 call	 ?eof@ivfstream@@QBE_NXZ	; ivfstream::eof
  005a0	84 c0		 test	 al, al
  005a2	0f 85 25 02 00
	00		 jne	 $L104138

; 256  : 	READ_CHECK_EOF( ALPHA_DEPTH, temp, 1);

  005a8	8b 4d a4	 mov	 ecx, DWORD PTR _file$[ebp+4]
  005ab	3b cb		 cmp	 ecx, ebx
  005ad	8b 45 08	 mov	 eax, DWORD PTR _temp$[ebp]
  005b0	89 86 a0 00 00
	00		 mov	 DWORD PTR [esi+160], eax
  005b6	74 0b		 je	 SHORT $L108558
  005b8	8b 01		 mov	 eax, DWORD PTR [ecx]
  005ba	6a 01		 push	 1
  005bc	8d 55 08	 lea	 edx, DWORD PTR _temp$[ebp]
  005bf	52		 push	 edx
  005c0	ff 50 10	 call	 DWORD PTR [eax+16]
$L108558:
  005c3	8d 4d a0	 lea	 ecx, DWORD PTR _file$[ebp]
  005c6	e8 00 00 00 00	 call	 ?eof@ivfstream@@QBE_NXZ	; ivfstream::eof
  005cb	84 c0		 test	 al, al
  005cd	0f 85 fa 01 00
	00		 jne	 $L104138

; 257  : 	READ_CHECK_EOF( DefaultAlpha, temp, 4);

  005d3	8b 4d a4	 mov	 ecx, DWORD PTR _file$[ebp+4]
  005d6	3b cb		 cmp	 ecx, ebx
  005d8	8a 45 08	 mov	 al, BYTE PTR _temp$[ebp]
  005db	88 86 a4 00 00
	00		 mov	 BYTE PTR [esi+164], al
  005e1	74 0a		 je	 SHORT $L108567
  005e3	8b 01		 mov	 eax, DWORD PTR [ecx]
  005e5	57		 push	 edi
  005e6	8d 55 08	 lea	 edx, DWORD PTR _temp$[ebp]
  005e9	52		 push	 edx
  005ea	ff 50 10	 call	 DWORD PTR [eax+16]
$L108567:
  005ed	8d 4d a0	 lea	 ecx, DWORD PTR _file$[ebp]
  005f0	e8 00 00 00 00	 call	 ?eof@ivfstream@@QBE_NXZ	; ivfstream::eof
  005f5	84 c0		 test	 al, al
  005f7	0f 85 d0 01 00
	00		 jne	 $L104138

; 258  : 	READ_CHECK_EOF( IsPreLoadMonster, temp, 4);

  005fd	8b 4d a4	 mov	 ecx, DWORD PTR _file$[ebp+4]
  00600	3b cb		 cmp	 ecx, ebx
  00602	8b 45 08	 mov	 eax, DWORD PTR _temp$[ebp]
  00605	89 86 a8 00 00
	00		 mov	 DWORD PTR [esi+168], eax
  0060b	74 0a		 je	 SHORT $L108576
  0060d	8b 01		 mov	 eax, DWORD PTR [ecx]
  0060f	57		 push	 edi
  00610	8d 55 08	 lea	 edx, DWORD PTR _temp$[ebp]
  00613	52		 push	 edx
  00614	ff 50 10	 call	 DWORD PTR [eax+16]
$L108576:
  00617	8d 4d a0	 lea	 ecx, DWORD PTR _file$[ebp]
  0061a	e8 00 00 00 00	 call	 ?eof@ivfstream@@QBE_NXZ	; ivfstream::eof
  0061f	84 c0		 test	 al, al
  00621	0f 85 a6 01 00
	00		 jne	 $L104138

; 259  : 	READ_CHECK_EOF( ChatWhite, temp, 4);

  00627	8b 4d a4	 mov	 ecx, DWORD PTR _file$[ebp+4]
  0062a	3b cb		 cmp	 ecx, ebx
  0062c	8b 45 08	 mov	 eax, DWORD PTR _temp$[ebp]
  0062f	89 86 ac 00 00
	00		 mov	 DWORD PTR [esi+172], eax
  00635	74 0a		 je	 SHORT $L108585
  00637	8b 01		 mov	 eax, DWORD PTR [ecx]
  00639	57		 push	 edi
  0063a	8d 55 08	 lea	 edx, DWORD PTR _temp$[ebp]
  0063d	52		 push	 edx
  0063e	ff 50 10	 call	 DWORD PTR [eax+16]
$L108585:
  00641	8d 4d a0	 lea	 ecx, DWORD PTR _file$[ebp]
  00644	e8 00 00 00 00	 call	 ?eof@ivfstream@@QBE_NXZ	; ivfstream::eof
  00649	84 c0		 test	 al, al
  0064b	0f 85 7c 01 00
	00		 jne	 $L104138

; 260  : 	READ_CHECK_EOF( UseTeenVersion, temp, 4);

  00651	8b 4d a4	 mov	 ecx, DWORD PTR _file$[ebp+4]
  00654	3b cb		 cmp	 ecx, ebx
  00656	8b 45 08	 mov	 eax, DWORD PTR _temp$[ebp]
  00659	89 86 b0 00 00
	00		 mov	 DWORD PTR [esi+176], eax
  0065f	74 0a		 je	 SHORT $L108594
  00661	8b 01		 mov	 eax, DWORD PTR [ecx]
  00663	57		 push	 edi
  00664	8d 55 08	 lea	 edx, DWORD PTR _temp$[ebp]
  00667	52		 push	 edx
  00668	ff 50 10	 call	 DWORD PTR [eax+16]
$L108594:
  0066b	8d 4d a0	 lea	 ecx, DWORD PTR _file$[ebp]
  0066e	e8 00 00 00 00	 call	 ?eof@ivfstream@@QBE_NXZ	; ivfstream::eof
  00673	84 c0		 test	 al, al
  00675	0f 85 52 01 00
	00		 jne	 $L104138

; 261  : 	READ_CHECK_EOF( PopupChatByWhisper, temp, 4);

  0067b	8b 4d a4	 mov	 ecx, DWORD PTR _file$[ebp+4]
  0067e	3b cb		 cmp	 ecx, ebx
  00680	8b 45 08	 mov	 eax, DWORD PTR _temp$[ebp]
  00683	89 86 b4 00 00
	00		 mov	 DWORD PTR [esi+180], eax
  00689	74 0a		 je	 SHORT $L108603
  0068b	8b 01		 mov	 eax, DWORD PTR [ecx]
  0068d	57		 push	 edi
  0068e	8d 55 08	 lea	 edx, DWORD PTR _temp$[ebp]
  00691	52		 push	 edx
  00692	ff 50 10	 call	 DWORD PTR [eax+16]
$L108603:
  00695	8d 4d a0	 lea	 ecx, DWORD PTR _file$[ebp]
  00698	e8 00 00 00 00	 call	 ?eof@ivfstream@@QBE_NXZ	; ivfstream::eof
  0069d	84 c0		 test	 al, al
  0069f	0f 85 28 01 00
	00		 jne	 $L104138

; 262  : 	READ_CHECK_EOF( NotSendMyInfo, temp, 4);

  006a5	8b 4d a4	 mov	 ecx, DWORD PTR _file$[ebp+4]
  006a8	3b cb		 cmp	 ecx, ebx
  006aa	8b 45 08	 mov	 eax, DWORD PTR _temp$[ebp]
  006ad	89 86 b8 00 00
	00		 mov	 DWORD PTR [esi+184], eax
  006b3	74 0a		 je	 SHORT $L108612
  006b5	8b 01		 mov	 eax, DWORD PTR [ecx]
  006b7	57		 push	 edi
  006b8	8d 55 08	 lea	 edx, DWORD PTR _temp$[ebp]
  006bb	52		 push	 edx
  006bc	ff 50 10	 call	 DWORD PTR [eax+16]
$L108612:
  006bf	8d 4d a0	 lea	 ecx, DWORD PTR _file$[ebp]
  006c2	e8 00 00 00 00	 call	 ?eof@ivfstream@@QBE_NXZ	; ivfstream::eof
  006c7	84 c0		 test	 al, al
  006c9	0f 85 fe 00 00
	00		 jne	 $L104138

; 263  : 	READ_CHECK_EOF( DoNotShowWarMsg, temp, 4);

  006cf	8b 4d a4	 mov	 ecx, DWORD PTR _file$[ebp+4]
  006d2	3b cb		 cmp	 ecx, ebx
  006d4	8b 45 08	 mov	 eax, DWORD PTR _temp$[ebp]
  006d7	89 86 bc 00 00
	00		 mov	 DWORD PTR [esi+188], eax
  006dd	74 0a		 je	 SHORT $L108621
  006df	8b 01		 mov	 eax, DWORD PTR [ecx]
  006e1	57		 push	 edi
  006e2	8d 55 08	 lea	 edx, DWORD PTR _temp$[ebp]
  006e5	52		 push	 edx
  006e6	ff 50 10	 call	 DWORD PTR [eax+16]
$L108621:
  006e9	8d 4d a0	 lea	 ecx, DWORD PTR _file$[ebp]
  006ec	e8 00 00 00 00	 call	 ?eof@ivfstream@@QBE_NXZ	; ivfstream::eof
  006f1	84 c0		 test	 al, al
  006f3	0f 85 d4 00 00
	00		 jne	 $L104138

; 264  : 	READ_CHECK_EOF( DoNotShowLairMsg, temp, 4);

  006f9	8b 4d a4	 mov	 ecx, DWORD PTR _file$[ebp+4]
  006fc	3b cb		 cmp	 ecx, ebx
  006fe	8b 45 08	 mov	 eax, DWORD PTR _temp$[ebp]
  00701	89 86 c0 00 00
	00		 mov	 DWORD PTR [esi+192], eax
  00707	74 0a		 je	 SHORT $L108630
  00709	8b 01		 mov	 eax, DWORD PTR [ecx]
  0070b	57		 push	 edi
  0070c	8d 55 08	 lea	 edx, DWORD PTR _temp$[ebp]
  0070f	52		 push	 edx
  00710	ff 50 10	 call	 DWORD PTR [eax+16]
$L108630:
  00713	8d 4d a0	 lea	 ecx, DWORD PTR _file$[ebp]
  00716	e8 00 00 00 00	 call	 ?eof@ivfstream@@QBE_NXZ	; ivfstream::eof
  0071b	84 c0		 test	 al, al
  0071d	0f 85 aa 00 00
	00		 jne	 $L104138

; 265  : 	READ_CHECK_EOF( DoNotShowHolyLandMsg, temp, 4);

  00723	8b 4d a4	 mov	 ecx, DWORD PTR _file$[ebp+4]
  00726	3b cb		 cmp	 ecx, ebx
  00728	8b 45 08	 mov	 eax, DWORD PTR _temp$[ebp]
  0072b	89 86 c4 00 00
	00		 mov	 DWORD PTR [esi+196], eax
  00731	74 0a		 je	 SHORT $L108639
  00733	8b 01		 mov	 eax, DWORD PTR [ecx]
  00735	57		 push	 edi
  00736	8d 55 08	 lea	 edx, DWORD PTR _temp$[ebp]
  00739	52		 push	 edx
  0073a	ff 50 10	 call	 DWORD PTR [eax+16]
$L108639:
  0073d	8d 4d a0	 lea	 ecx, DWORD PTR _file$[ebp]
  00740	e8 00 00 00 00	 call	 ?eof@ivfstream@@QBE_NXZ	; ivfstream::eof
  00745	84 c0		 test	 al, al
  00747	0f 85 80 00 00
	00		 jne	 $L104138

; 266  : 	READ_CHECK_EOF( ShowGameMoneyWithHANGUL, temp, 4);

  0074d	8b 4d a4	 mov	 ecx, DWORD PTR _file$[ebp+4]
  00750	3b cb		 cmp	 ecx, ebx
  00752	8b 45 08	 mov	 eax, DWORD PTR _temp$[ebp]
  00755	89 86 c8 00 00
	00		 mov	 DWORD PTR [esi+200], eax
  0075b	74 0a		 je	 SHORT $L108648
  0075d	8b 01		 mov	 eax, DWORD PTR [ecx]
  0075f	57		 push	 edi
  00760	8d 55 08	 lea	 edx, DWORD PTR _temp$[ebp]
  00763	52		 push	 edx
  00764	ff 50 10	 call	 DWORD PTR [eax+16]
$L108648:
  00767	8d 4d a0	 lea	 ecx, DWORD PTR _file$[ebp]
  0076a	e8 00 00 00 00	 call	 ?eof@ivfstream@@QBE_NXZ	; ivfstream::eof
  0076f	84 c0		 test	 al, al
  00771	75 5a		 jne	 SHORT $L104138

; 267  : 	READ_CHECK_EOF( DoNotShowPersnalShopMsg, temp, 4);

  00773	8b 4d a4	 mov	 ecx, DWORD PTR _file$[ebp+4]
  00776	3b cb		 cmp	 ecx, ebx
  00778	8b 45 08	 mov	 eax, DWORD PTR _temp$[ebp]
  0077b	89 86 d0 00 00
	00		 mov	 DWORD PTR [esi+208], eax
  00781	74 0a		 je	 SHORT $L108657
  00783	8b 01		 mov	 eax, DWORD PTR [ecx]
  00785	57		 push	 edi
  00786	8d 55 08	 lea	 edx, DWORD PTR _temp$[ebp]
  00789	52		 push	 edx
  0078a	ff 50 10	 call	 DWORD PTR [eax+16]
$L108657:
  0078d	8d 4d a0	 lea	 ecx, DWORD PTR _file$[ebp]
  00790	e8 00 00 00 00	 call	 ?eof@ivfstream@@QBE_NXZ	; ivfstream::eof
  00795	84 c0		 test	 al, al
  00797	75 34		 jne	 SHORT $L104138

; 268  : #if __CONTENTS(__AUTO_ATTACT)
; 269  : 	READ_CHECK_EOF( DoNotOneClickAttackOff, temp, 4);

  00799	8b 4d a4	 mov	 ecx, DWORD PTR _file$[ebp+4]
  0079c	3b cb		 cmp	 ecx, ebx
  0079e	8b 45 08	 mov	 eax, DWORD PTR _temp$[ebp]
  007a1	89 86 d4 00 00
	00		 mov	 DWORD PTR [esi+212], eax
  007a7	74 0a		 je	 SHORT $L108666
  007a9	8b 01		 mov	 eax, DWORD PTR [ecx]
  007ab	57		 push	 edi
  007ac	8d 55 08	 lea	 edx, DWORD PTR _temp$[ebp]
  007af	52		 push	 edx
  007b0	ff 50 10	 call	 DWORD PTR [eax+16]
$L108666:
  007b3	8d 4d a0	 lea	 ecx, DWORD PTR _file$[ebp]
  007b6	e8 00 00 00 00	 call	 ?eof@ivfstream@@QBE_NXZ	; ivfstream::eof
  007bb	84 c0		 test	 al, al

; 270  : #endif //__JAPAN_UI
; 271  : 	
; 272  : 	
; 273  : 
; 274  : 	file.close();

  007bd	8d 4d a0	 lea	 ecx, DWORD PTR _file$[ebp]
  007c0	75 0e		 jne	 SHORT $L108680
  007c2	8b 45 08	 mov	 eax, DWORD PTR _temp$[ebp]
  007c5	89 86 dc 00 00
	00		 mov	 DWORD PTR [esi+220], eax

; 275  : 
; 276  : 	return true;

  007cb	eb 03		 jmp	 SHORT $L108680
$L104138:

; 208  : 	}
; 209  : 	
; 210  : //	if(flag == 0)
; 211  : //	{
; 212  : //		g_pKeyAccelerator->SetAcceleratorKey(ACCEL_GRADE1INFO, DIK_R);
; 213  : //		file.seekg(-2, ios::cur);
; 214  : //	}
; 215  : 
; 216  : 	DWORD temp;
; 217  : 	
; 218  : 	READ_CHECK_EOF( UseSmoothCursor, temp, 4 );

  007cd	8d 4d a0	 lea	 ecx, DWORD PTR _file$[ebp]
$L108680:
  007d0	e8 00 00 00 00	 call	 ?close@iovfs_base@@QAEXXZ ; iovfs_base::close
  007d5	83 4d fc ff	 or	 DWORD PTR __$EHRec$[ebp+8], -1
  007d9	8d 4d a0	 lea	 ecx, DWORD PTR _file$[ebp]
  007dc	c7 45 a0 00 00
	00 00		 mov	 DWORD PTR _file$[ebp], OFFSET FLAT:??_7ivfstream@@6B@
  007e3	e8 00 00 00 00	 call	 ??1iovfs_base@@UAE@XZ	; iovfs_base::~iovfs_base
  007e8	b0 01		 mov	 al, 1
$L104128:

; 277  : }

  007ea	8b 4d f4	 mov	 ecx, DWORD PTR __$EHRec$[ebp]
  007ed	5f		 pop	 edi
  007ee	5e		 pop	 esi
  007ef	5b		 pop	 ebx
  007f0	64 89 0d 00 00
	00 00		 mov	 DWORD PTR fs:__except_list, ecx
  007f7	c9		 leave
  007f8	c2 04 00	 ret	 4
_TEXT	ENDS
;	COMDAT text$x
text$x	SEGMENT
$L108239:
  00000	8d 4d a0	 lea	 ecx, DWORD PTR _file$[ebp]
  00003	e9 00 00 00 00	 jmp	 ??1ivfstream@@UAE@XZ	; ivfstream::~ivfstream
__ehhandler$?LoadFromFile@UserOption@@QAE_NPBD@Z:
  00008	b8 00 00 00 00	 mov	 eax, OFFSET FLAT:$T108677
  0000d	e9 00 00 00 00	 jmp	 ___CxxFrameHandler
text$x	ENDS
?LoadFromFile@UserOption@@QAE_NPBD@Z ENDP		; UserOption::LoadFromFile
END
